	.text
	.file	"sei.c"
	.globl	InitSEIMessages         # -- Begin function InitSEIMessages
	.p2align	4, 0x90
	.type	InitSEIMessages,@function
InitSEIMessages:                        # @InitSEIMessages
	.cfi_startproc
# %bb.0:                                # %entry
	pushq	%rbp
	.cfi_def_cfa_offset 16
	.cfi_offset %rbp, -16
	movq	%rsp, %rbp
	.cfi_def_cfa_register %rbp
	subq	$16, %rsp
	movl	$0, -4(%rbp)
.LBB0_1:                                # %for.cond
                                        # =>This Inner Loop Header: Depth=1
	cmpl	$2, -4(%rbp)
	jge	.LBB0_6
# %bb.2:                                # %for.body
                                        #   in Loop: Header=BB0_1 Depth=1
	movl	$65496, %edi            # imm = 0xFFD8
	callq	malloc
	movslq	-4(%rbp), %rcx
	imulq	$24, %rcx, %rcx
	movabsq	$sei_message, %rdx
	movq	%rdx, %rsi
	addq	%rcx, %rsi
	movq	%rax, 16(%rsi)
	movslq	-4(%rbp), %rax
	imulq	$24, %rax, %rax
	addq	%rax, %rdx
	cmpq	$0, 16(%rdx)
	jne	.LBB0_4
# %bb.3:                                # %if.then
                                        #   in Loop: Header=BB0_1 Depth=1
	movabsq	$.L.str, %rdi
	callq	no_mem_exit
.LBB0_4:                                # %if.end
                                        #   in Loop: Header=BB0_1 Depth=1
	movslq	-4(%rbp), %rax
	imulq	$24, %rax, %rax
	movabsq	$sei_message, %rcx
	addq	%rax, %rcx
	movb	$5, 8(%rcx)
	movl	-4(%rbp), %edi
	callq	clear_sei_message
# %bb.5:                                # %for.inc
                                        #   in Loop: Header=BB0_1 Depth=1
	movl	-4(%rbp), %eax
	addl	$1, %eax
	movl	%eax, -4(%rbp)
	jmp	.LBB0_1
.LBB0_6:                                # %for.end
	movq	$0, seiSparePicturePayload+16
	callq	InitSparePicture
	callq	InitSubseqChar
	movq	input, %rax
	cmpl	$0, 2912(%rax)
	je	.LBB0_8
# %bb.7:                                # %if.then8
	callq	InitSubseqLayerInfo
.LBB0_8:                                # %if.end9
	callq	InitSceneInformation
	callq	InitPanScanRectInfo
	callq	InitUser_data_unregistered
	callq	InitUser_data_registered_itu_t_t35
	callq	InitRandomAccess
	addq	$16, %rsp
	popq	%rbp
	.cfi_def_cfa %rsp, 8
	retq
.Lfunc_end0:
	.size	InitSEIMessages, .Lfunc_end0-InitSEIMessages
	.cfi_endproc
                                        # -- End function
	.globl	clear_sei_message       # -- Begin function clear_sei_message
	.p2align	4, 0x90
	.type	clear_sei_message,@function
clear_sei_message:                      # @clear_sei_message
	.cfi_startproc
# %bb.0:                                # %entry
	pushq	%rbp
	.cfi_def_cfa_offset 16
	.cfi_offset %rbp, -16
	movq	%rsp, %rbp
	.cfi_def_cfa_register %rbp
	pushq	%rbx
	pushq	%rax
	.cfi_offset %rbx, -24
	movl	%edi, -12(%rbp)
	movslq	-12(%rbp), %rax
	imulq	$24, %rax, %rax
	movabsq	$sei_message, %rbx
	movq	%rbx, %rcx
	addq	%rax, %rcx
	movq	16(%rcx), %rdi
	xorl	%esi, %esi
	movl	$65496, %edx            # imm = 0xFFD8
	callq	memset
	movslq	-12(%rbp), %rax
	imulq	$24, %rax, %rax
	movq	%rbx, %rcx
	addq	%rax, %rcx
	movl	$0, 4(%rcx)
	movslq	-12(%rbp), %rax
	imulq	$24, %rax, %rax
	addq	%rax, %rbx
	movl	$0, (%rbx)
	addq	$8, %rsp
	popq	%rbx
	popq	%rbp
	.cfi_def_cfa %rsp, 8
	retq
.Lfunc_end1:
	.size	clear_sei_message, .Lfunc_end1-clear_sei_message
	.cfi_endproc
                                        # -- End function
	.globl	CloseSEIMessages        # -- Begin function CloseSEIMessages
	.p2align	4, 0x90
	.type	CloseSEIMessages,@function
CloseSEIMessages:                       # @CloseSEIMessages
	.cfi_startproc
# %bb.0:                                # %entry
	pushq	%rbp
	.cfi_def_cfa_offset 16
	.cfi_offset %rbp, -16
	movq	%rsp, %rbp
	.cfi_def_cfa_register %rbp
	subq	$16, %rsp
	movq	input, %rax
	cmpl	$0, 2912(%rax)
	je	.LBB2_2
# %bb.1:                                # %if.then
	callq	CloseSubseqLayerInfo
.LBB2_2:                                # %if.end
	callq	CloseSubseqChar
	callq	CloseSparePicture
	callq	CloseSceneInformation
	callq	ClosePanScanRectInfo
	callq	CloseUser_data_unregistered
	callq	CloseUser_data_registered_itu_t_t35
	callq	CloseRandomAccess
	movl	$0, -4(%rbp)
.LBB2_3:                                # %for.cond
                                        # =>This Inner Loop Header: Depth=1
	cmpl	$2, -4(%rbp)
	jge	.LBB2_8
# %bb.4:                                # %for.body
                                        #   in Loop: Header=BB2_3 Depth=1
	movslq	-4(%rbp), %rax
	imulq	$24, %rax, %rax
	movabsq	$sei_message, %rcx
	addq	%rax, %rcx
	cmpq	$0, 16(%rcx)
	je	.LBB2_6
# %bb.5:                                # %if.then2
                                        #   in Loop: Header=BB2_3 Depth=1
	movslq	-4(%rbp), %rax
	imulq	$24, %rax, %rax
	movabsq	$sei_message, %rcx
	addq	%rax, %rcx
	movq	16(%rcx), %rdi
	callq	free
.LBB2_6:                                # %if.end6
                                        #   in Loop: Header=BB2_3 Depth=1
	movslq	-4(%rbp), %rax
	imulq	$24, %rax, %rax
	movabsq	$sei_message, %rcx
	addq	%rax, %rcx
	movq	$0, 16(%rcx)
# %bb.7:                                # %for.inc
                                        #   in Loop: Header=BB2_3 Depth=1
	movl	-4(%rbp), %eax
	addl	$1, %eax
	movl	%eax, -4(%rbp)
	jmp	.LBB2_3
.LBB2_8:                                # %for.end
	addq	$16, %rsp
	popq	%rbp
	.cfi_def_cfa %rsp, 8
	retq
.Lfunc_end2:
	.size	CloseSEIMessages, .Lfunc_end2-CloseSEIMessages
	.cfi_endproc
                                        # -- End function
	.globl	HaveAggregationSEI      # -- Begin function HaveAggregationSEI
	.p2align	4, 0x90
	.type	HaveAggregationSEI,@function
HaveAggregationSEI:                     # @HaveAggregationSEI
	.cfi_startproc
# %bb.0:                                # %entry
	pushq	%rbp
	.cfi_def_cfa_offset 16
	.cfi_offset %rbp, -16
	movq	%rsp, %rbp
	.cfi_def_cfa_register %rbp
	cmpl	$0, sei_message+24
	je	.LBB3_3
# %bb.1:                                # %land.lhs.true
	movq	img, %rax
	cmpl	$1, 24(%rax)
	je	.LBB3_3
# %bb.2:                                # %if.then
	movl	$1, -4(%rbp)
	jmp	.LBB3_21
.LBB3_3:                                # %if.end
	cmpl	$0, seiHasSubseqInfo
	je	.LBB3_5
# %bb.4:                                # %if.then2
	movl	$1, -4(%rbp)
	jmp	.LBB3_21
.LBB3_5:                                # %if.end3
	cmpl	$0, seiHasSubseqLayerInfo
	je	.LBB3_8
# %bb.6:                                # %land.lhs.true5
	movq	img, %rax
	cmpl	$0, (%rax)
	jne	.LBB3_8
# %bb.7:                                # %if.then7
	movl	$1, -4(%rbp)
	jmp	.LBB3_21
.LBB3_8:                                # %if.end8
	cmpl	$0, seiHasSubseqChar
	je	.LBB3_10
# %bb.9:                                # %if.then10
	movl	$1, -4(%rbp)
	jmp	.LBB3_21
.LBB3_10:                               # %if.end11
	cmpl	$0, seiHasSceneInformation
	je	.LBB3_12
# %bb.11:                               # %if.then13
	movl	$1, -4(%rbp)
	jmp	.LBB3_21
.LBB3_12:                               # %if.end14
	cmpl	$0, seiHasPanScanRectInfo
	je	.LBB3_14
# %bb.13:                               # %if.then16
	movl	$1, -4(%rbp)
	jmp	.LBB3_21
.LBB3_14:                               # %if.end17
	cmpl	$0, seiHasUser_data_unregistered_info
	je	.LBB3_16
# %bb.15:                               # %if.then19
	movl	$1, -4(%rbp)
	jmp	.LBB3_21
.LBB3_16:                               # %if.end20
	cmpl	$0, seiHasUser_data_registered_itu_t_t35_info
	je	.LBB3_18
# %bb.17:                               # %if.then22
	movl	$1, -4(%rbp)
	jmp	.LBB3_21
.LBB3_18:                               # %if.end23
	cmpl	$0, seiHasRandomAccess_info
	je	.LBB3_20
# %bb.19:                               # %if.then25
	movl	$1, -4(%rbp)
	jmp	.LBB3_21
.LBB3_20:                               # %if.end26
	movl	$0, -4(%rbp)
.LBB3_21:                               # %return
	movl	-4(%rbp), %eax
	popq	%rbp
	.cfi_def_cfa %rsp, 8
	retq
.Lfunc_end3:
	.size	HaveAggregationSEI, .Lfunc_end3-HaveAggregationSEI
	.cfi_endproc
                                        # -- End function
	.globl	write_sei_message       # -- Begin function write_sei_message
	.p2align	4, 0x90
	.type	write_sei_message,@function
write_sei_message:                      # @write_sei_message
	.cfi_startproc
# %bb.0:                                # %rand_bb
	pushq	%rbp
	.cfi_def_cfa_offset 16
	.cfi_offset %rbp, -16
	movq	%rsp, %rbp
	.cfi_def_cfa_register %rbp
	pushq	%r15
	pushq	%r14
	pushq	%r12
	pushq	%rbx
	.cfi_offset %rbx, -48
	.cfi_offset %r12, -40
	.cfi_offset %r14, -32
	.cfi_offset %r15, -24
	movl	%ecx, %r14d
	movl	%edx, %r15d
	movq	%rsi, %r12
	movl	%edi, %ebx
	callq	get_rand
	cmpl	$0, %eax
	jne	.LBB4_9
# %bb.1:                                # %func_write_sei_message.1
	movl	%ebx, %edi
	movq	%r12, %rsi
	movl	%r15d, %edx
	movl	%r14d, %ecx
	callq	write_sei_message.1
	popq	%rbx
	popq	%r12
	popq	%r14
	popq	%r15
	popq	%rbp
	.cfi_def_cfa %rsp, 8
	retq
.LBB4_2:                                # %func_write_sei_message.2
	.cfi_def_cfa %rbp, 16
	movl	%ebx, %edi
	movq	%r12, %rsi
	movl	%r15d, %edx
	movl	%r14d, %ecx
	callq	write_sei_message.2
	popq	%rbx
	popq	%r12
	popq	%r14
	popq	%r15
	popq	%rbp
	.cfi_def_cfa %rsp, 8
	retq
.LBB4_3:                                # %func_write_sei_message.17
	.cfi_def_cfa %rbp, 16
	movl	%ebx, %edi
	movq	%r12, %rsi
	movl	%r15d, %edx
	movl	%r14d, %ecx
	callq	write_sei_message.17
	popq	%rbx
	popq	%r12
	popq	%r14
	popq	%r15
	popq	%rbp
	.cfi_def_cfa %rsp, 8
	retq
.LBB4_4:                                # %func_write_sei_message.32
	.cfi_def_cfa %rbp, 16
	movl	%ebx, %edi
	movq	%r12, %rsi
	movl	%r15d, %edx
	movl	%r14d, %ecx
	callq	write_sei_message.32
	popq	%rbx
	popq	%r12
	popq	%r14
	popq	%r15
	popq	%rbp
	.cfi_def_cfa %rsp, 8
	retq
.LBB4_5:                                # %func_write_sei_message.34
	.cfi_def_cfa %rbp, 16
	movl	%ebx, %edi
	movq	%r12, %rsi
	movl	%r15d, %edx
	movl	%r14d, %ecx
	callq	write_sei_message.34
	popq	%rbx
	popq	%r12
	popq	%r14
	popq	%r15
	popq	%rbp
	.cfi_def_cfa %rsp, 8
	retq
.LBB4_6:                                # %func_write_sei_message.39
	.cfi_def_cfa %rbp, 16
	movl	%ebx, %edi
	movq	%r12, %rsi
	movl	%r15d, %edx
	movl	%r14d, %ecx
	callq	write_sei_message.39
	popq	%rbx
	popq	%r12
	popq	%r14
	popq	%r15
	popq	%rbp
	.cfi_def_cfa %rsp, 8
	retq
.LBB4_7:                                # %func_write_sei_message.44
	.cfi_def_cfa %rbp, 16
	movl	%ebx, %edi
	movq	%r12, %rsi
	movl	%r15d, %edx
	movl	%r14d, %ecx
	callq	write_sei_message.44
	popq	%rbx
	popq	%r12
	popq	%r14
	popq	%r15
	popq	%rbp
	.cfi_def_cfa %rsp, 8
	retq
.LBB4_8:                                # %func_write_sei_message.46
	.cfi_def_cfa %rbp, 16
	movl	%ebx, %edi
	movq	%r12, %rsi
	movl	%r15d, %edx
	movl	%r14d, %ecx
	callq	write_sei_message.46
	popq	%rbx
	popq	%r12
	popq	%r14
	popq	%r15
	popq	%rbp
	.cfi_def_cfa %rsp, 8
	retq
.LBB4_9:                                # %ctrl0
	.cfi_def_cfa %rbp, 16
	cmpl	$1, %eax
	je	.LBB4_2
# %bb.10:                               # %ctrl1
	cmpl	$2, %eax
	je	.LBB4_3
# %bb.11:                               # %ctrl2
	cmpl	$3, %eax
	je	.LBB4_4
# %bb.12:                               # %ctrl3
	cmpl	$4, %eax
	je	.LBB4_5
# %bb.13:                               # %ctrl4
	cmpl	$5, %eax
	je	.LBB4_6
# %bb.14:                               # %ctrl5
	cmpl	$6, %eax
	je	.LBB4_7
	jmp	.LBB4_8
.Lfunc_end4:
	.size	write_sei_message, .Lfunc_end4-write_sei_message
	.cfi_endproc
                                        # -- End function
	.globl	finalize_sei_message    # -- Begin function finalize_sei_message
	.p2align	4, 0x90
	.type	finalize_sei_message,@function
finalize_sei_message:                   # @finalize_sei_message
	.cfi_startproc
# %bb.0:                                # %rand_bb
	pushq	%rbp
	.cfi_def_cfa_offset 16
	.cfi_offset %rbp, -16
	movq	%rsp, %rbp
	.cfi_def_cfa_register %rbp
	pushq	%rbx
	pushq	%rax
	.cfi_offset %rbx, -24
	movl	%edi, %ebx
	callq	get_rand
	cmpl	$0, %eax
	jne	.LBB5_2
# %bb.1:                                # %func_finalize_sei_message.11
	movl	%ebx, %edi
	callq	finalize_sei_message.11
	addq	$8, %rsp
	popq	%rbx
	popq	%rbp
	.cfi_def_cfa %rsp, 8
	retq
.LBB5_2:                                # %func_finalize_sei_message.12
	.cfi_def_cfa %rbp, 16
	movl	%ebx, %edi
	callq	finalize_sei_message.12
	addq	$8, %rsp
	popq	%rbx
	popq	%rbp
	.cfi_def_cfa %rsp, 8
	retq
.Lfunc_end5:
	.size	finalize_sei_message, .Lfunc_end5-finalize_sei_message
	.cfi_endproc
                                        # -- End function
	.globl	AppendTmpbits2Buf       # -- Begin function AppendTmpbits2Buf
	.p2align	4, 0x90
	.type	AppendTmpbits2Buf,@function
AppendTmpbits2Buf:                      # @AppendTmpbits2Buf
	.cfi_startproc
# %bb.0:                                # %rand_bb
	pushq	%rbp
	.cfi_def_cfa_offset 16
	.cfi_offset %rbp, -16
	movq	%rsp, %rbp
	.cfi_def_cfa_register %rbp
	pushq	%r14
	pushq	%rbx
	.cfi_offset %rbx, -32
	.cfi_offset %r14, -24
	movq	%rsi, %r14
	movq	%rdi, %rbx
	callq	get_rand
	cmpl	$0, %eax
	jne	.LBB6_9
# %bb.1:                                # %func_AppendTmpbits2Buf.15
	movq	%rbx, %rdi
	movq	%r14, %rsi
	callq	AppendTmpbits2Buf.15
	popq	%rbx
	popq	%r14
	popq	%rbp
	.cfi_def_cfa %rsp, 8
	retq
.LBB6_2:                                # %func_AppendTmpbits2Buf.49
	.cfi_def_cfa %rbp, 16
	movq	%rbx, %rdi
	movq	%r14, %rsi
	callq	AppendTmpbits2Buf.49
	popq	%rbx
	popq	%r14
	popq	%rbp
	.cfi_def_cfa %rsp, 8
	retq
.LBB6_3:                                # %func_AppendTmpbits2Buf.64
	.cfi_def_cfa %rbp, 16
	movq	%rbx, %rdi
	movq	%r14, %rsi
	callq	AppendTmpbits2Buf.64
	popq	%rbx
	popq	%r14
	popq	%rbp
	.cfi_def_cfa %rsp, 8
	retq
.LBB6_4:                                # %func_AppendTmpbits2Buf.65
	.cfi_def_cfa %rbp, 16
	movq	%rbx, %rdi
	movq	%r14, %rsi
	callq	AppendTmpbits2Buf.65
	popq	%rbx
	popq	%r14
	popq	%rbp
	.cfi_def_cfa %rsp, 8
	retq
.LBB6_5:                                # %func_AppendTmpbits2Buf.84
	.cfi_def_cfa %rbp, 16
	movq	%rbx, %rdi
	movq	%r14, %rsi
	callq	AppendTmpbits2Buf.84
	popq	%rbx
	popq	%r14
	popq	%rbp
	.cfi_def_cfa %rsp, 8
	retq
.LBB6_6:                                # %func_AppendTmpbits2Buf.91
	.cfi_def_cfa %rbp, 16
	movq	%rbx, %rdi
	movq	%r14, %rsi
	callq	AppendTmpbits2Buf.91
	popq	%rbx
	popq	%r14
	popq	%rbp
	.cfi_def_cfa %rsp, 8
	retq
.LBB6_7:                                # %func_AppendTmpbits2Buf.92
	.cfi_def_cfa %rbp, 16
	movq	%rbx, %rdi
	movq	%r14, %rsi
	callq	AppendTmpbits2Buf.92
	popq	%rbx
	popq	%r14
	popq	%rbp
	.cfi_def_cfa %rsp, 8
	retq
.LBB6_8:                                # %func_AppendTmpbits2Buf.94
	.cfi_def_cfa %rbp, 16
	movq	%rbx, %rdi
	movq	%r14, %rsi
	callq	AppendTmpbits2Buf.94
	popq	%rbx
	popq	%r14
	popq	%rbp
	.cfi_def_cfa %rsp, 8
	retq
.LBB6_9:                                # %ctrl0
	.cfi_def_cfa %rbp, 16
	cmpl	$1, %eax
	je	.LBB6_2
# %bb.10:                               # %ctrl1
	cmpl	$2, %eax
	je	.LBB6_3
# %bb.11:                               # %ctrl2
	cmpl	$3, %eax
	je	.LBB6_4
# %bb.12:                               # %ctrl3
	cmpl	$4, %eax
	je	.LBB6_5
# %bb.13:                               # %ctrl4
	cmpl	$5, %eax
	je	.LBB6_6
# %bb.14:                               # %ctrl5
	cmpl	$6, %eax
	je	.LBB6_7
	jmp	.LBB6_8
.Lfunc_end6:
	.size	AppendTmpbits2Buf, .Lfunc_end6-AppendTmpbits2Buf
	.cfi_endproc
                                        # -- End function
	.globl	InitSparePicture        # -- Begin function InitSparePicture
	.p2align	4, 0x90
	.type	InitSparePicture,@function
InitSparePicture:                       # @InitSparePicture
	.cfi_startproc
# %bb.0:                                # %entry
	pushq	%rbp
	.cfi_def_cfa_offset 16
	.cfi_offset %rbp, -16
	movq	%rsp, %rbp
	.cfi_def_cfa_register %rbp
	cmpq	$0, seiSparePicturePayload+16
	je	.LBB7_2
# %bb.1:                                # %if.then
	callq	CloseSparePicture
.LBB7_2:                                # %if.end
	movl	$48, %edi
	callq	malloc
	movq	%rax, seiSparePicturePayload+16
	cmpq	$0, seiSparePicturePayload+16
	jne	.LBB7_4
# %bb.3:                                # %if.then2
	movabsq	$.L.str.1, %rdi
	callq	no_mem_exit
.LBB7_4:                                # %if.end3
	movl	$65496, %edi            # imm = 0xFFD8
	callq	malloc
	movq	seiSparePicturePayload+16, %rcx
	movq	%rax, 32(%rcx)
	movq	seiSparePicturePayload+16, %rax
	cmpq	$0, 32(%rax)
	jne	.LBB7_6
# %bb.5:                                # %if.then7
	movabsq	$.L.str.2, %rdi
	callq	no_mem_exit
.LBB7_6:                                # %if.end8
	movq	seiSparePicturePayload+16, %rax
	movq	32(%rax), %rdi
	xorl	%esi, %esi
	movl	$65496, %edx            # imm = 0xFFD8
	callq	memset
	movl	$0, seiSparePicturePayload+4
	movl	$0, seiSparePicturePayload
	movq	seiSparePicturePayload+16, %rax
	movl	$8, 4(%rax)
	movq	seiSparePicturePayload+16, %rax
	movl	$0, (%rax)
	movq	seiSparePicturePayload+16, %rax
	movb	$0, 8(%rax)
	popq	%rbp
	.cfi_def_cfa %rsp, 8
	retq
.Lfunc_end7:
	.size	InitSparePicture, .Lfunc_end7-InitSparePicture
	.cfi_endproc
                                        # -- End function
	.globl	CloseSparePicture       # -- Begin function CloseSparePicture
	.p2align	4, 0x90
	.type	CloseSparePicture,@function
CloseSparePicture:                      # @CloseSparePicture
	.cfi_startproc
# %bb.0:                                # %entry
	pushq	%rbp
	.cfi_def_cfa_offset 16
	.cfi_offset %rbp, -16
	movq	%rsp, %rbp
	.cfi_def_cfa_register %rbp
	movq	seiSparePicturePayload+16, %rax
	cmpq	$0, 32(%rax)
	je	.LBB8_2
# %bb.1:                                # %if.then
	movq	seiSparePicturePayload+16, %rax
	movq	32(%rax), %rdi
	callq	free
.LBB8_2:                                # %if.end
	movq	seiSparePicturePayload+16, %rax
	movq	$0, 32(%rax)
	cmpq	$0, seiSparePicturePayload+16
	je	.LBB8_4
# %bb.3:                                # %if.then4
	movq	seiSparePicturePayload+16, %rdi
	callq	free
.LBB8_4:                                # %if.end5
	movq	$0, seiSparePicturePayload+16
	movl	$0, seiSparePicturePayload+4
	movl	$0, seiSparePicturePayload
	popq	%rbp
	.cfi_def_cfa %rsp, 8
	retq
.Lfunc_end8:
	.size	CloseSparePicture, .Lfunc_end8-CloseSparePicture
	.cfi_endproc
                                        # -- End function
	.globl	CalculateSparePicture   # -- Begin function CalculateSparePicture
	.p2align	4, 0x90
	.type	CalculateSparePicture,@function
CalculateSparePicture:                  # @CalculateSparePicture
	.cfi_startproc
# %bb.0:                                # %entry
	pushq	%rbp
	.cfi_def_cfa_offset 16
	.cfi_offset %rbp, -16
	movq	%rsp, %rbp
	.cfi_def_cfa_register %rbp
	popq	%rbp
	.cfi_def_cfa %rsp, 8
	retq
.Lfunc_end9:
	.size	CalculateSparePicture, .Lfunc_end9-CalculateSparePicture
	.cfi_endproc
                                        # -- End function
	.globl	ComposeSparePictureMessage # -- Begin function ComposeSparePictureMessage
	.p2align	4, 0x90
	.type	ComposeSparePictureMessage,@function
ComposeSparePictureMessage:             # @ComposeSparePictureMessage
	.cfi_startproc
# %bb.0:                                # %rand_bb
	pushq	%rbp
	.cfi_def_cfa_offset 16
	.cfi_offset %rbp, -16
	movq	%rsp, %rbp
	.cfi_def_cfa_register %rbp
	pushq	%r15
	pushq	%r14
	pushq	%rbx
	pushq	%rax
	.cfi_offset %rbx, -40
	.cfi_offset %r14, -32
	.cfi_offset %r15, -24
	movq	%rdx, %r14
	movl	%esi, %r15d
	movl	%edi, %ebx
	callq	get_rand
	cmpl	$0, %eax
	jne	.LBB10_9
# %bb.1:                                # %func_ComposeSparePictureMessage.7
	movl	%ebx, %edi
	movl	%r15d, %esi
	movq	%r14, %rdx
	callq	ComposeSparePictureMessage.7
	addq	$8, %rsp
	popq	%rbx
	popq	%r14
	popq	%r15
	popq	%rbp
	.cfi_def_cfa %rsp, 8
	retq
.LBB10_2:                               # %func_ComposeSparePictureMessage.13
	.cfi_def_cfa %rbp, 16
	movl	%ebx, %edi
	movl	%r15d, %esi
	movq	%r14, %rdx
	callq	ComposeSparePictureMessage.13
	addq	$8, %rsp
	popq	%rbx
	popq	%r14
	popq	%r15
	popq	%rbp
	.cfi_def_cfa %rsp, 8
	retq
.LBB10_3:                               # %func_ComposeSparePictureMessage.18
	.cfi_def_cfa %rbp, 16
	movl	%ebx, %edi
	movl	%r15d, %esi
	movq	%r14, %rdx
	callq	ComposeSparePictureMessage.18
	addq	$8, %rsp
	popq	%rbx
	popq	%r14
	popq	%r15
	popq	%rbp
	.cfi_def_cfa %rsp, 8
	retq
.LBB10_4:                               # %func_ComposeSparePictureMessage.19
	.cfi_def_cfa %rbp, 16
	movl	%ebx, %edi
	movl	%r15d, %esi
	movq	%r14, %rdx
	callq	ComposeSparePictureMessage.19
	addq	$8, %rsp
	popq	%rbx
	popq	%r14
	popq	%r15
	popq	%rbp
	.cfi_def_cfa %rsp, 8
	retq
.LBB10_5:                               # %func_ComposeSparePictureMessage.41
	.cfi_def_cfa %rbp, 16
	movl	%ebx, %edi
	movl	%r15d, %esi
	movq	%r14, %rdx
	callq	ComposeSparePictureMessage.41
	addq	$8, %rsp
	popq	%rbx
	popq	%r14
	popq	%r15
	popq	%rbp
	.cfi_def_cfa %rsp, 8
	retq
.LBB10_6:                               # %func_ComposeSparePictureMessage.42
	.cfi_def_cfa %rbp, 16
	movl	%ebx, %edi
	movl	%r15d, %esi
	movq	%r14, %rdx
	callq	ComposeSparePictureMessage.42
	addq	$8, %rsp
	popq	%rbx
	popq	%r14
	popq	%r15
	popq	%rbp
	.cfi_def_cfa %rsp, 8
	retq
.LBB10_7:                               # %func_ComposeSparePictureMessage.61
	.cfi_def_cfa %rbp, 16
	movl	%ebx, %edi
	movl	%r15d, %esi
	movq	%r14, %rdx
	callq	ComposeSparePictureMessage.61
	addq	$8, %rsp
	popq	%rbx
	popq	%r14
	popq	%r15
	popq	%rbp
	.cfi_def_cfa %rsp, 8
	retq
.LBB10_8:                               # %func_ComposeSparePictureMessage.67
	.cfi_def_cfa %rbp, 16
	movl	%ebx, %edi
	movl	%r15d, %esi
	movq	%r14, %rdx
	callq	ComposeSparePictureMessage.67
	addq	$8, %rsp
	popq	%rbx
	popq	%r14
	popq	%r15
	popq	%rbp
	.cfi_def_cfa %rsp, 8
	retq
.LBB10_9:                               # %ctrl0
	.cfi_def_cfa %rbp, 16
	cmpl	$1, %eax
	je	.LBB10_2
# %bb.10:                               # %ctrl1
	cmpl	$2, %eax
	je	.LBB10_3
# %bb.11:                               # %ctrl2
	cmpl	$3, %eax
	je	.LBB10_4
# %bb.12:                               # %ctrl3
	cmpl	$4, %eax
	je	.LBB10_5
# %bb.13:                               # %ctrl4
	cmpl	$5, %eax
	je	.LBB10_6
# %bb.14:                               # %ctrl5
	cmpl	$6, %eax
	je	.LBB10_7
	jmp	.LBB10_8
.Lfunc_end10:
	.size	ComposeSparePictureMessage, .Lfunc_end10-ComposeSparePictureMessage
	.cfi_endproc
                                        # -- End function
	.globl	CompressSpareMBMap      # -- Begin function CompressSpareMBMap
	.p2align	4, 0x90
	.type	CompressSpareMBMap,@function
CompressSpareMBMap:                     # @CompressSpareMBMap
	.cfi_startproc
# %bb.0:                                # %rand_bb
	pushq	%rbp
	.cfi_def_cfa_offset 16
	.cfi_offset %rbp, -16
	movq	%rsp, %rbp
	.cfi_def_cfa_register %rbp
	pushq	%r14
	pushq	%rbx
	.cfi_offset %rbx, -32
	.cfi_offset %r14, -24
	movq	%rsi, %r14
	movq	%rdi, %rbx
	callq	get_rand
	cmpl	$0, %eax
	jne	.LBB11_9
# %bb.1:                                # %func_CompressSpareMBMap.47
	movq	%rbx, %rdi
	movq	%r14, %rsi
	callq	CompressSpareMBMap.47
	popq	%rbx
	popq	%r14
	popq	%rbp
	.cfi_def_cfa %rsp, 8
	retq
.LBB11_2:                               # %func_CompressSpareMBMap.81
	.cfi_def_cfa %rbp, 16
	movq	%rbx, %rdi
	movq	%r14, %rsi
	callq	CompressSpareMBMap.81
	popq	%rbx
	popq	%r14
	popq	%rbp
	.cfi_def_cfa %rsp, 8
	retq
.LBB11_3:                               # %func_CompressSpareMBMap.88
	.cfi_def_cfa %rbp, 16
	movq	%rbx, %rdi
	movq	%r14, %rsi
	callq	CompressSpareMBMap.88
	popq	%rbx
	popq	%r14
	popq	%rbp
	.cfi_def_cfa %rsp, 8
	retq
.LBB11_4:                               # %func_CompressSpareMBMap.89
	.cfi_def_cfa %rbp, 16
	movq	%rbx, %rdi
	movq	%r14, %rsi
	callq	CompressSpareMBMap.89
	popq	%rbx
	popq	%r14
	popq	%rbp
	.cfi_def_cfa %rsp, 8
	retq
.LBB11_5:                               # %func_CompressSpareMBMap.90
	.cfi_def_cfa %rbp, 16
	movq	%rbx, %rdi
	movq	%r14, %rsi
	callq	CompressSpareMBMap.90
	popq	%rbx
	popq	%r14
	popq	%rbp
	.cfi_def_cfa %rsp, 8
	retq
.LBB11_6:                               # %func_CompressSpareMBMap.93
	.cfi_def_cfa %rbp, 16
	movq	%rbx, %rdi
	movq	%r14, %rsi
	callq	CompressSpareMBMap.93
	popq	%rbx
	popq	%r14
	popq	%rbp
	.cfi_def_cfa %rsp, 8
	retq
.LBB11_7:                               # %func_CompressSpareMBMap.95
	.cfi_def_cfa %rbp, 16
	movq	%rbx, %rdi
	movq	%r14, %rsi
	callq	CompressSpareMBMap.95
	popq	%rbx
	popq	%r14
	popq	%rbp
	.cfi_def_cfa %rsp, 8
	retq
.LBB11_8:                               # %func_CompressSpareMBMap.96
	.cfi_def_cfa %rbp, 16
	movq	%rbx, %rdi
	movq	%r14, %rsi
	callq	CompressSpareMBMap.96
	popq	%rbx
	popq	%r14
	popq	%rbp
	.cfi_def_cfa %rsp, 8
	retq
.LBB11_9:                               # %ctrl0
	.cfi_def_cfa %rbp, 16
	cmpl	$1, %eax
	je	.LBB11_2
# %bb.10:                               # %ctrl1
	cmpl	$2, %eax
	je	.LBB11_3
# %bb.11:                               # %ctrl2
	cmpl	$3, %eax
	je	.LBB11_4
# %bb.12:                               # %ctrl3
	cmpl	$4, %eax
	je	.LBB11_5
# %bb.13:                               # %ctrl4
	cmpl	$5, %eax
	je	.LBB11_6
# %bb.14:                               # %ctrl5
	cmpl	$6, %eax
	je	.LBB11_7
	jmp	.LBB11_8
.Lfunc_end11:
	.size	CompressSpareMBMap, .Lfunc_end11-CompressSpareMBMap
	.cfi_endproc
                                        # -- End function
	.globl	FinalizeSpareMBMap      # -- Begin function FinalizeSpareMBMap
	.p2align	4, 0x90
	.type	FinalizeSpareMBMap,@function
FinalizeSpareMBMap:                     # @FinalizeSpareMBMap
	.cfi_startproc
# %bb.0:                                # %rand_bb
	pushq	%rbp
	.cfi_def_cfa_offset 16
	.cfi_offset %rbp, -16
	movq	%rsp, %rbp
	.cfi_def_cfa_register %rbp
	callq	get_rand
	cmpl	$0, %eax
	jne	.LBB12_9
# %bb.1:                                # %func_FinalizeSpareMBMap.8
	callq	FinalizeSpareMBMap.8
	popq	%rbp
	.cfi_def_cfa %rsp, 8
	retq
.LBB12_2:                               # %func_FinalizeSpareMBMap.40
	.cfi_def_cfa %rbp, 16
	callq	FinalizeSpareMBMap.40
	popq	%rbp
	.cfi_def_cfa %rsp, 8
	retq
.LBB12_3:                               # %func_FinalizeSpareMBMap.52
	.cfi_def_cfa %rbp, 16
	callq	FinalizeSpareMBMap.52
	popq	%rbp
	.cfi_def_cfa %rsp, 8
	retq
.LBB12_4:                               # %func_FinalizeSpareMBMap.55
	.cfi_def_cfa %rbp, 16
	callq	FinalizeSpareMBMap.55
	popq	%rbp
	.cfi_def_cfa %rsp, 8
	retq
.LBB12_5:                               # %func_FinalizeSpareMBMap.70
	.cfi_def_cfa %rbp, 16
	callq	FinalizeSpareMBMap.70
	popq	%rbp
	.cfi_def_cfa %rsp, 8
	retq
.LBB12_6:                               # %func_FinalizeSpareMBMap.77
	.cfi_def_cfa %rbp, 16
	callq	FinalizeSpareMBMap.77
	popq	%rbp
	.cfi_def_cfa %rsp, 8
	retq
.LBB12_7:                               # %func_FinalizeSpareMBMap.82
	.cfi_def_cfa %rbp, 16
	callq	FinalizeSpareMBMap.82
	popq	%rbp
	.cfi_def_cfa %rsp, 8
	retq
.LBB12_8:                               # %func_FinalizeSpareMBMap.87
	.cfi_def_cfa %rbp, 16
	callq	FinalizeSpareMBMap.87
	popq	%rbp
	.cfi_def_cfa %rsp, 8
	retq
.LBB12_9:                               # %ctrl0
	.cfi_def_cfa %rbp, 16
	cmpl	$1, %eax
	je	.LBB12_2
# %bb.10:                               # %ctrl1
	cmpl	$2, %eax
	je	.LBB12_3
# %bb.11:                               # %ctrl2
	cmpl	$3, %eax
	je	.LBB12_4
# %bb.12:                               # %ctrl3
	cmpl	$4, %eax
	je	.LBB12_5
# %bb.13:                               # %ctrl4
	cmpl	$5, %eax
	je	.LBB12_6
# %bb.14:                               # %ctrl5
	cmpl	$6, %eax
	je	.LBB12_7
	jmp	.LBB12_8
.Lfunc_end12:
	.size	FinalizeSpareMBMap, .Lfunc_end12-FinalizeSpareMBMap
	.cfi_endproc
                                        # -- End function
	.globl	InitSubseqInfo          # -- Begin function InitSubseqInfo
	.p2align	4, 0x90
	.type	InitSubseqInfo,@function
InitSubseqInfo:                         # @InitSubseqInfo
	.cfi_startproc
# %bb.0:                                # %entry
	pushq	%rbp
	.cfi_def_cfa_offset 16
	.cfi_offset %rbp, -16
	movq	%rsp, %rbp
	.cfi_def_cfa_register %rbp
	subq	$16, %rsp
	movl	%edi, -4(%rbp)
	movl	$1, seiHasSubseqInfo
	movl	-4(%rbp), %eax
	movslq	-4(%rbp), %rcx
	shlq	$5, %rcx
	movabsq	$seiSubseqInfo, %rdx
	movq	%rdx, %rsi
	addq	%rcx, %rsi
	movl	%eax, (%rsi)
	movw	InitSubseqInfo.id, %ax
	movw	%ax, %cx
	addw	$1, %cx
	movw	%cx, InitSubseqInfo.id
	movzwl	%ax, %eax
	movslq	-4(%rbp), %rcx
	shlq	$5, %rcx
	movq	%rdx, %rsi
	addq	%rcx, %rsi
	movl	%eax, 4(%rsi)
	movslq	-4(%rbp), %rax
	shlq	$5, %rax
	movq	%rdx, %rcx
	addq	%rax, %rcx
	movl	$0, 8(%rcx)
	movslq	-4(%rbp), %rax
	shlq	$5, %rax
	movq	%rdx, %rcx
	addq	%rax, %rcx
	movl	$-1, 12(%rcx)
	movslq	-4(%rbp), %rax
	shlq	$5, %rax
	addq	%rax, %rdx
	movl	$0, 16(%rdx)
	movl	$48, %edi
	callq	malloc
	movslq	-4(%rbp), %rcx
	shlq	$5, %rcx
	movabsq	$seiSubseqInfo, %rdx
	movq	%rdx, %rsi
	addq	%rcx, %rsi
	movq	%rax, 24(%rsi)
	movslq	-4(%rbp), %rax
	shlq	$5, %rax
	addq	%rax, %rdx
	cmpq	$0, 24(%rdx)
	jne	.LBB13_2
# %bb.1:                                # %if.then
	movabsq	$.L.str.5, %rdi
	callq	no_mem_exit
.LBB13_2:                               # %if.end
	movl	$65496, %edi            # imm = 0xFFD8
	callq	malloc
	movslq	-4(%rbp), %rcx
	shlq	$5, %rcx
	movabsq	$seiSubseqInfo, %rdx
	movq	%rdx, %rsi
	addq	%rcx, %rsi
	movq	24(%rsi), %rcx
	movq	%rax, 32(%rcx)
	movslq	-4(%rbp), %rax
	shlq	$5, %rax
	addq	%rax, %rdx
	movq	24(%rdx), %rax
	cmpq	$0, 32(%rax)
	jne	.LBB13_4
# %bb.3:                                # %if.then25
	movabsq	$.L.str.6, %rdi
	callq	no_mem_exit
.LBB13_4:                               # %if.end26
	movslq	-4(%rbp), %rax
	shlq	$5, %rax
	movabsq	$seiSubseqInfo, %rcx
	movq	%rcx, %rdx
	addq	%rax, %rdx
	movq	24(%rdx), %rax
	movl	$8, 4(%rax)
	movslq	-4(%rbp), %rax
	shlq	$5, %rax
	movq	%rcx, %rdx
	addq	%rax, %rdx
	movq	24(%rdx), %rax
	movl	$0, (%rax)
	movslq	-4(%rbp), %rax
	shlq	$5, %rax
	movq	%rcx, %rdx
	addq	%rax, %rdx
	movq	24(%rdx), %rax
	movb	$0, 8(%rax)
	movslq	-4(%rbp), %rax
	shlq	$5, %rax
	addq	%rax, %rcx
	movq	24(%rcx), %rax
	movq	32(%rax), %rdi
	xorl	%esi, %esi
	movl	$65496, %edx            # imm = 0xFFD8
	callq	memset
	addq	$16, %rsp
	popq	%rbp
	.cfi_def_cfa %rsp, 8
	retq
.Lfunc_end13:
	.size	InitSubseqInfo, .Lfunc_end13-InitSubseqInfo
	.cfi_endproc
                                        # -- End function
	.globl	UpdateSubseqInfo        # -- Begin function UpdateSubseqInfo
	.p2align	4, 0x90
	.type	UpdateSubseqInfo,@function
UpdateSubseqInfo:                       # @UpdateSubseqInfo
	.cfi_startproc
# %bb.0:                                # %entry
	pushq	%rbp
	.cfi_def_cfa_offset 16
	.cfi_offset %rbp, -16
	movq	%rsp, %rbp
	.cfi_def_cfa_register %rbp
	movl	%edi, -4(%rbp)
	movq	img, %rax
	cmpl	$1, 24(%rax)
	je	.LBB14_2
# %bb.1:                                # %if.then
	movslq	-4(%rbp), %rax
	shlq	$5, %rax
	movabsq	$seiSubseqInfo, %rcx
	movq	%rcx, %rdx
	addq	%rax, %rdx
	movl	12(%rdx), %eax
	addl	$1, %eax
	movl	%eax, 12(%rdx)
	movslq	-4(%rbp), %rax
	shlq	$5, %rax
	movq	%rcx, %rdx
	addq	%rax, %rdx
	movl	12(%rdx), %eax
	andl	$255, %eax
	movslq	-4(%rbp), %rdx
	shlq	$5, %rdx
	addq	%rdx, %rcx
	movl	%eax, 12(%rcx)
.LBB14_2:                               # %if.end
	cmpl	$0, -4(%rbp)
	jne	.LBB14_7
# %bb.3:                                # %if.then8
	movq	img, %rax
	movl	(%rax), %eax
	movq	input, %rcx
	movl	8(%rcx), %ecx
	subl	$1, %ecx
	cmpl	%ecx, %eax
	jne	.LBB14_5
# %bb.4:                                # %if.then10
	movslq	-4(%rbp), %rax
	shlq	$5, %rax
	movabsq	$seiSubseqInfo, %rcx
	addq	%rax, %rcx
	movl	$1, 8(%rcx)
	jmp	.LBB14_6
.LBB14_5:                               # %if.else
	movslq	-4(%rbp), %rax
	shlq	$5, %rax
	movabsq	$seiSubseqInfo, %rcx
	addq	%rax, %rcx
	movl	$0, 8(%rcx)
.LBB14_6:                               # %if.end16
	jmp	.LBB14_7
.LBB14_7:                               # %if.end17
	cmpl	$1, -4(%rbp)
	jne	.LBB14_16
# %bb.8:                                # %if.then19
	movq	img, %rax
	movl	(%rax), %eax
	subl	start_frame_no_in_this_IGOP, %eax
	movq	input, %rcx
	movl	2912(%rcx), %ecx
	addl	$1, %ecx
	cltd
	idivl	%ecx
	cmpl	$0, %edx
	jne	.LBB14_11
# %bb.9:                                # %land.lhs.true
	movq	input, %rax
	cmpl	$0, 1236(%rax)
	je	.LBB14_11
# %bb.10:                               # %land.lhs.true25
	movq	img, %rax
	movl	(%rax), %eax
	subl	start_frame_no_in_this_IGOP, %eax
	cmpl	$0, %eax
	jg	.LBB14_13
.LBB14_11:                              # %lor.lhs.false
	movq	img, %rax
	movl	(%rax), %eax
	subl	start_frame_no_in_this_IGOP, %eax
	movq	input, %rcx
	movl	2912(%rcx), %ecx
	addl	$1, %ecx
	cltd
	idivl	%ecx
	movq	input, %rax
	cmpl	2912(%rax), %edx
	jne	.LBB14_14
# %bb.12:                               # %land.lhs.true36
	movq	input, %rax
	cmpl	$0, 1236(%rax)
	jne	.LBB14_14
.LBB14_13:                              # %if.then39
	movslq	-4(%rbp), %rax
	shlq	$5, %rax
	movabsq	$seiSubseqInfo, %rcx
	addq	%rax, %rcx
	movl	$1, 8(%rcx)
	jmp	.LBB14_15
.LBB14_14:                              # %if.else43
	movslq	-4(%rbp), %rax
	shlq	$5, %rax
	movabsq	$seiSubseqInfo, %rcx
	addq	%rax, %rcx
	movl	$0, 8(%rcx)
.LBB14_15:                              # %if.end47
	jmp	.LBB14_16
.LBB14_16:                              # %if.end48
	popq	%rbp
	.cfi_def_cfa %rsp, 8
	retq
.Lfunc_end14:
	.size	UpdateSubseqInfo, .Lfunc_end14-UpdateSubseqInfo
	.cfi_endproc
                                        # -- End function
	.globl	FinalizeSubseqInfo      # -- Begin function FinalizeSubseqInfo
	.p2align	4, 0x90
	.type	FinalizeSubseqInfo,@function
FinalizeSubseqInfo:                     # @FinalizeSubseqInfo
	.cfi_startproc
# %bb.0:                                # %rand_bb
	pushq	%rbp
	.cfi_def_cfa_offset 16
	.cfi_offset %rbp, -16
	movq	%rsp, %rbp
	.cfi_def_cfa_register %rbp
	pushq	%rbx
	pushq	%rax
	.cfi_offset %rbx, -24
	movl	%edi, %ebx
	callq	get_rand
	cmpl	$0, %eax
	jne	.LBB15_7
# %bb.1:                                # %func_FinalizeSubseqInfo.3
	movl	%ebx, %edi
	callq	FinalizeSubseqInfo.3
	addq	$8, %rsp
	popq	%rbx
	popq	%rbp
	.cfi_def_cfa %rsp, 8
	retq
.LBB15_2:                               # %func_FinalizeSubseqInfo.24
	.cfi_def_cfa %rbp, 16
	movl	%ebx, %edi
	callq	FinalizeSubseqInfo.24
	addq	$8, %rsp
	popq	%rbx
	popq	%rbp
	.cfi_def_cfa %rsp, 8
	retq
.LBB15_3:                               # %func_FinalizeSubseqInfo.33
	.cfi_def_cfa %rbp, 16
	movl	%ebx, %edi
	callq	FinalizeSubseqInfo.33
	addq	$8, %rsp
	popq	%rbx
	popq	%rbp
	.cfi_def_cfa %rsp, 8
	retq
.LBB15_4:                               # %func_FinalizeSubseqInfo.43
	.cfi_def_cfa %rbp, 16
	movl	%ebx, %edi
	callq	FinalizeSubseqInfo.43
	addq	$8, %rsp
	popq	%rbx
	popq	%rbp
	.cfi_def_cfa %rsp, 8
	retq
.LBB15_5:                               # %func_FinalizeSubseqInfo.59
	.cfi_def_cfa %rbp, 16
	movl	%ebx, %edi
	callq	FinalizeSubseqInfo.59
	addq	$8, %rsp
	popq	%rbx
	popq	%rbp
	.cfi_def_cfa %rsp, 8
	retq
.LBB15_6:                               # %func_FinalizeSubseqInfo.60
	.cfi_def_cfa %rbp, 16
	movl	%ebx, %edi
	callq	FinalizeSubseqInfo.60
	addq	$8, %rsp
	popq	%rbx
	popq	%rbp
	.cfi_def_cfa %rsp, 8
	retq
.LBB15_7:                               # %ctrl0
	.cfi_def_cfa %rbp, 16
	cmpl	$1, %eax
	je	.LBB15_2
# %bb.8:                                # %ctrl1
	cmpl	$2, %eax
	je	.LBB15_3
# %bb.9:                                # %ctrl2
	cmpl	$3, %eax
	je	.LBB15_4
# %bb.10:                               # %ctrl3
	cmpl	$4, %eax
	je	.LBB15_5
	jmp	.LBB15_6
.Lfunc_end15:
	.size	FinalizeSubseqInfo, .Lfunc_end15-FinalizeSubseqInfo
	.cfi_endproc
                                        # -- End function
	.globl	ClearSubseqInfoPayload  # -- Begin function ClearSubseqInfoPayload
	.p2align	4, 0x90
	.type	ClearSubseqInfoPayload,@function
ClearSubseqInfoPayload:                 # @ClearSubseqInfoPayload
	.cfi_startproc
# %bb.0:                                # %entry
	pushq	%rbp
	.cfi_def_cfa_offset 16
	.cfi_offset %rbp, -16
	movq	%rsp, %rbp
	.cfi_def_cfa_register %rbp
	pushq	%rbx
	pushq	%rax
	.cfi_offset %rbx, -24
	movl	%edi, -12(%rbp)
	movslq	-12(%rbp), %rax
	shlq	$5, %rax
	movabsq	$seiSubseqInfo, %rbx
	movq	%rbx, %rcx
	addq	%rax, %rcx
	movq	24(%rcx), %rax
	movl	$8, 4(%rax)
	movslq	-12(%rbp), %rax
	shlq	$5, %rax
	movq	%rbx, %rcx
	addq	%rax, %rcx
	movq	24(%rcx), %rax
	movl	$0, (%rax)
	movslq	-12(%rbp), %rax
	shlq	$5, %rax
	movq	%rbx, %rcx
	addq	%rax, %rcx
	movq	24(%rcx), %rax
	movb	$0, 8(%rax)
	movslq	-12(%rbp), %rax
	shlq	$5, %rax
	movq	%rbx, %rcx
	addq	%rax, %rcx
	movq	24(%rcx), %rax
	movq	32(%rax), %rdi
	xorl	%esi, %esi
	movl	$65496, %edx            # imm = 0xFFD8
	callq	memset
	movslq	-12(%rbp), %rax
	shlq	$5, %rax
	addq	%rax, %rbx
	movl	$0, 16(%rbx)
	addq	$8, %rsp
	popq	%rbx
	popq	%rbp
	.cfi_def_cfa %rsp, 8
	retq
.Lfunc_end16:
	.size	ClearSubseqInfoPayload, .Lfunc_end16-ClearSubseqInfoPayload
	.cfi_endproc
                                        # -- End function
	.globl	CloseSubseqInfo         # -- Begin function CloseSubseqInfo
	.p2align	4, 0x90
	.type	CloseSubseqInfo,@function
CloseSubseqInfo:                        # @CloseSubseqInfo
	.cfi_startproc
# %bb.0:                                # %entry
	pushq	%rbp
	.cfi_def_cfa_offset 16
	.cfi_offset %rbp, -16
	movq	%rsp, %rbp
	.cfi_def_cfa_register %rbp
	subq	$16, %rsp
	movl	%edi, -4(%rbp)
	movslq	-4(%rbp), %rax
	shlq	$5, %rax
	movabsq	$seiSubseqInfo, %rcx
	movq	%rcx, %rdx
	addq	%rax, %rdx
	movl	$-1, 12(%rdx)
	movslq	-4(%rbp), %rax
	shlq	$5, %rax
	movq	%rcx, %rdx
	addq	%rax, %rdx
	movl	$0, 16(%rdx)
	movslq	-4(%rbp), %rax
	shlq	$5, %rax
	addq	%rax, %rcx
	movq	24(%rcx), %rax
	movq	32(%rax), %rdi
	callq	free
	movslq	-4(%rbp), %rax
	shlq	$5, %rax
	movabsq	$seiSubseqInfo, %rcx
	addq	%rax, %rcx
	movq	24(%rcx), %rdi
	callq	free
	addq	$16, %rsp
	popq	%rbp
	.cfi_def_cfa %rsp, 8
	retq
.Lfunc_end17:
	.size	CloseSubseqInfo, .Lfunc_end17-CloseSubseqInfo
	.cfi_endproc
                                        # -- End function
	.globl	InitSubseqLayerInfo     # -- Begin function InitSubseqLayerInfo
	.p2align	4, 0x90
	.type	InitSubseqLayerInfo,@function
InitSubseqLayerInfo:                    # @InitSubseqLayerInfo
	.cfi_startproc
# %bb.0:                                # %entry
	pushq	%rbp
	.cfi_def_cfa_offset 16
	.cfi_offset %rbp, -16
	movq	%rsp, %rbp
	.cfi_def_cfa_register %rbp
	movl	$1, seiHasSubseqLayerInfo
	movl	$0, seiSubseqLayerInfo+16
	movl	$0, -4(%rbp)
.LBB18_1:                               # %for.cond
                                        # =>This Inner Loop Header: Depth=1
	cmpl	$2, -4(%rbp)
	jge	.LBB18_4
# %bb.2:                                # %for.body
                                        #   in Loop: Header=BB18_1 Depth=1
	movslq	-4(%rbp), %rax
	movw	$0, seiSubseqLayerInfo(,%rax,2)
	movslq	-4(%rbp), %rax
	movw	$0, seiSubseqLayerInfo+4(,%rax,2)
	movl	seiSubseqLayerInfo+16, %eax
	addl	$1, %eax
	movl	%eax, seiSubseqLayerInfo+16
# %bb.3:                                # %for.inc
                                        #   in Loop: Header=BB18_1 Depth=1
	movl	-4(%rbp), %eax
	addl	$1, %eax
	movl	%eax, -4(%rbp)
	jmp	.LBB18_1
.LBB18_4:                               # %for.end
	popq	%rbp
	.cfi_def_cfa %rsp, 8
	retq
.Lfunc_end18:
	.size	InitSubseqLayerInfo, .Lfunc_end18-InitSubseqLayerInfo
	.cfi_endproc
                                        # -- End function
	.globl	CloseSubseqLayerInfo    # -- Begin function CloseSubseqLayerInfo
	.p2align	4, 0x90
	.type	CloseSubseqLayerInfo,@function
CloseSubseqLayerInfo:                   # @CloseSubseqLayerInfo
	.cfi_startproc
# %bb.0:                                # %entry
	pushq	%rbp
	.cfi_def_cfa_offset 16
	.cfi_offset %rbp, -16
	movq	%rsp, %rbp
	.cfi_def_cfa_register %rbp
	popq	%rbp
	.cfi_def_cfa %rsp, 8
	retq
.Lfunc_end19:
	.size	CloseSubseqLayerInfo, .Lfunc_end19-CloseSubseqLayerInfo
	.cfi_endproc
                                        # -- End function
	.globl	FinalizeSubseqLayerInfo # -- Begin function FinalizeSubseqLayerInfo
	.p2align	4, 0x90
	.type	FinalizeSubseqLayerInfo,@function
FinalizeSubseqLayerInfo:                # @FinalizeSubseqLayerInfo
	.cfi_startproc
# %bb.0:                                # %rand_bb
	pushq	%rbp
	.cfi_def_cfa_offset 16
	.cfi_offset %rbp, -16
	movq	%rsp, %rbp
	.cfi_def_cfa_register %rbp
	callq	get_rand
	cmpl	$0, %eax
	jne	.LBB20_2
# %bb.1:                                # %func_FinalizeSubseqLayerInfo.50
	callq	FinalizeSubseqLayerInfo.50
	popq	%rbp
	.cfi_def_cfa %rsp, 8
	retq
.LBB20_2:                               # %func_FinalizeSubseqLayerInfo.51
	.cfi_def_cfa %rbp, 16
	callq	FinalizeSubseqLayerInfo.51
	popq	%rbp
	.cfi_def_cfa %rsp, 8
	retq
.Lfunc_end20:
	.size	FinalizeSubseqLayerInfo, .Lfunc_end20-FinalizeSubseqLayerInfo
	.cfi_endproc
                                        # -- End function
	.globl	InitSubseqChar          # -- Begin function InitSubseqChar
	.p2align	4, 0x90
	.type	InitSubseqChar,@function
InitSubseqChar:                         # @InitSubseqChar
	.cfi_startproc
# %bb.0:                                # %entry
	pushq	%rbp
	.cfi_def_cfa_offset 16
	.cfi_offset %rbp, -16
	movq	%rsp, %rbp
	.cfi_def_cfa_register %rbp
	movl	$48, %edi
	callq	malloc
	movq	%rax, seiSubseqChar+72
	cmpq	$0, seiSubseqChar+72
	jne	.LBB21_2
# %bb.1:                                # %if.then
	movabsq	$.L.str.7, %rdi
	callq	no_mem_exit
.LBB21_2:                               # %if.end
	movl	$65496, %edi            # imm = 0xFFD8
	callq	malloc
	movq	seiSubseqChar+72, %rcx
	movq	%rax, 32(%rcx)
	movq	seiSubseqChar+72, %rax
	cmpq	$0, 32(%rax)
	jne	.LBB21_4
# %bb.3:                                # %if.then4
	movabsq	$.L.str.8, %rdi
	callq	no_mem_exit
.LBB21_4:                               # %if.end5
	callq	ClearSubseqCharPayload
	movq	img, %rax
	movl	72384(%rax), %eax
	movl	%eax, seiSubseqChar
	movq	img, %rax
	movslq	72384(%rax), %rax
	shlq	$5, %rax
	movabsq	$seiSubseqInfo, %rcx
	addq	%rax, %rcx
	movl	4(%rcx), %eax
	movl	%eax, seiSubseqChar+4
	movl	$0, seiSubseqChar+8
	movl	$0, seiSubseqChar+16
	movl	$0, seiSubseqChar+28
	popq	%rbp
	.cfi_def_cfa %rsp, 8
	retq
.Lfunc_end21:
	.size	InitSubseqChar, .Lfunc_end21-InitSubseqChar
	.cfi_endproc
                                        # -- End function
	.globl	ClearSubseqCharPayload  # -- Begin function ClearSubseqCharPayload
	.p2align	4, 0x90
	.type	ClearSubseqCharPayload,@function
ClearSubseqCharPayload:                 # @ClearSubseqCharPayload
	.cfi_startproc
# %bb.0:                                # %entry
	pushq	%rbp
	.cfi_def_cfa_offset 16
	.cfi_offset %rbp, -16
	movq	%rsp, %rbp
	.cfi_def_cfa_register %rbp
	movq	seiSubseqChar+72, %rax
	movq	32(%rax), %rdi
	xorl	%esi, %esi
	movl	$65496, %edx            # imm = 0xFFD8
	callq	memset
	movq	seiSubseqChar+72, %rax
	movl	$8, 4(%rax)
	movq	seiSubseqChar+72, %rax
	movl	$0, (%rax)
	movq	seiSubseqChar+72, %rax
	movb	$0, 8(%rax)
	movl	$0, seiSubseqChar+80
	movl	$0, seiHasSubseqChar
	popq	%rbp
	.cfi_def_cfa %rsp, 8
	retq
.Lfunc_end22:
	.size	ClearSubseqCharPayload, .Lfunc_end22-ClearSubseqCharPayload
	.cfi_endproc
                                        # -- End function
	.globl	UpdateSubseqChar        # -- Begin function UpdateSubseqChar
	.p2align	4, 0x90
	.type	UpdateSubseqChar,@function
UpdateSubseqChar:                       # @UpdateSubseqChar
	.cfi_startproc
# %bb.0:                                # %entry
	pushq	%rbp
	.cfi_def_cfa_offset 16
	.cfi_offset %rbp, -16
	movq	%rsp, %rbp
	.cfi_def_cfa_register %rbp
	movq	img, %rax
	movl	72384(%rax), %eax
	movl	%eax, seiSubseqChar
	movq	img, %rax
	movslq	72384(%rax), %rax
	shlq	$5, %rax
	movabsq	$seiSubseqInfo, %rcx
	addq	%rax, %rcx
	movl	4(%rcx), %eax
	movl	%eax, seiSubseqChar+4
	movl	$0, seiSubseqChar+8
	movl	$0, seiSubseqChar+16
	movl	$100, seiSubseqChar+20
	movl	$30, seiSubseqChar+24
	movl	$0, seiSubseqChar+28
	movl	$1, seiSubseqChar+32
	movl	$2, seiSubseqChar+52
	movl	$3, seiSubseqChar+36
	movl	$4, seiSubseqChar+56
	movl	$1, seiHasSubseqChar
	popq	%rbp
	.cfi_def_cfa %rsp, 8
	retq
.Lfunc_end23:
	.size	UpdateSubseqChar, .Lfunc_end23-UpdateSubseqChar
	.cfi_endproc
                                        # -- End function
	.globl	FinalizeSubseqChar      # -- Begin function FinalizeSubseqChar
	.p2align	4, 0x90
	.type	FinalizeSubseqChar,@function
FinalizeSubseqChar:                     # @FinalizeSubseqChar
	.cfi_startproc
# %bb.0:                                # %rand_bb
	pushq	%rbp
	.cfi_def_cfa_offset 16
	.cfi_offset %rbp, -16
	movq	%rsp, %rbp
	.cfi_def_cfa_register %rbp
	callq	get_rand
	cmpl	$0, %eax
	jne	.LBB24_7
# %bb.1:                                # %func_FinalizeSubseqChar.23
	callq	FinalizeSubseqChar.23
	popq	%rbp
	.cfi_def_cfa %rsp, 8
	retq
.LBB24_2:                               # %func_FinalizeSubseqChar.28
	.cfi_def_cfa %rbp, 16
	callq	FinalizeSubseqChar.28
	popq	%rbp
	.cfi_def_cfa %rsp, 8
	retq
.LBB24_3:                               # %func_FinalizeSubseqChar.35
	.cfi_def_cfa %rbp, 16
	callq	FinalizeSubseqChar.35
	popq	%rbp
	.cfi_def_cfa %rsp, 8
	retq
.LBB24_4:                               # %func_FinalizeSubseqChar.56
	.cfi_def_cfa %rbp, 16
	callq	FinalizeSubseqChar.56
	popq	%rbp
	.cfi_def_cfa %rsp, 8
	retq
.LBB24_5:                               # %func_FinalizeSubseqChar.66
	.cfi_def_cfa %rbp, 16
	callq	FinalizeSubseqChar.66
	popq	%rbp
	.cfi_def_cfa %rsp, 8
	retq
.LBB24_6:                               # %func_FinalizeSubseqChar.69
	.cfi_def_cfa %rbp, 16
	callq	FinalizeSubseqChar.69
	popq	%rbp
	.cfi_def_cfa %rsp, 8
	retq
.LBB24_7:                               # %ctrl0
	.cfi_def_cfa %rbp, 16
	cmpl	$1, %eax
	je	.LBB24_2
# %bb.8:                                # %ctrl1
	cmpl	$2, %eax
	je	.LBB24_3
# %bb.9:                                # %ctrl2
	cmpl	$3, %eax
	je	.LBB24_4
# %bb.10:                               # %ctrl3
	cmpl	$4, %eax
	je	.LBB24_5
	jmp	.LBB24_6
.Lfunc_end24:
	.size	FinalizeSubseqChar, .Lfunc_end24-FinalizeSubseqChar
	.cfi_endproc
                                        # -- End function
	.globl	CloseSubseqChar         # -- Begin function CloseSubseqChar
	.p2align	4, 0x90
	.type	CloseSubseqChar,@function
CloseSubseqChar:                        # @CloseSubseqChar
	.cfi_startproc
# %bb.0:                                # %entry
	pushq	%rbp
	.cfi_def_cfa_offset 16
	.cfi_offset %rbp, -16
	movq	%rsp, %rbp
	.cfi_def_cfa_register %rbp
	cmpq	$0, seiSubseqChar+72
	je	.LBB25_2
# %bb.1:                                # %if.then
	movq	seiSubseqChar+72, %rax
	movq	32(%rax), %rdi
	callq	free
	movq	seiSubseqChar+72, %rdi
	callq	free
.LBB25_2:                               # %if.end
	movq	$0, seiSubseqChar+72
	popq	%rbp
	.cfi_def_cfa %rsp, 8
	retq
.Lfunc_end25:
	.size	CloseSubseqChar, .Lfunc_end25-CloseSubseqChar
	.cfi_endproc
                                        # -- End function
	.globl	InitSceneInformation    # -- Begin function InitSceneInformation
	.p2align	4, 0x90
	.type	InitSceneInformation,@function
InitSceneInformation:                   # @InitSceneInformation
	.cfi_startproc
# %bb.0:                                # %entry
	pushq	%rbp
	.cfi_def_cfa_offset 16
	.cfi_offset %rbp, -16
	movq	%rsp, %rbp
	.cfi_def_cfa_register %rbp
	movl	$1, seiHasSceneInformation
	movl	$0, seiSceneInformation
	movl	$0, seiSceneInformation+4
	movl	$-1, seiSceneInformation+8
	movl	$48, %edi
	callq	malloc
	movq	%rax, seiSceneInformation+16
	cmpq	$0, seiSceneInformation+16
	jne	.LBB26_2
# %bb.1:                                # %if.then
	movabsq	$.L.str.9, %rdi
	callq	no_mem_exit
.LBB26_2:                               # %if.end
	movl	$65496, %edi            # imm = 0xFFD8
	callq	malloc
	movq	seiSceneInformation+16, %rcx
	movq	%rax, 32(%rcx)
	movq	seiSceneInformation+16, %rax
	cmpq	$0, 32(%rax)
	jne	.LBB26_4
# %bb.3:                                # %if.then4
	movabsq	$.L.str.10, %rdi
	callq	no_mem_exit
.LBB26_4:                               # %if.end5
	movq	seiSceneInformation+16, %rax
	movl	$8, 4(%rax)
	movq	seiSceneInformation+16, %rax
	movl	$0, (%rax)
	movq	seiSceneInformation+16, %rax
	movb	$0, 8(%rax)
	movq	seiSceneInformation+16, %rax
	movq	32(%rax), %rdi
	xorl	%esi, %esi
	movl	$65496, %edx            # imm = 0xFFD8
	callq	memset
	popq	%rbp
	.cfi_def_cfa %rsp, 8
	retq
.Lfunc_end26:
	.size	InitSceneInformation, .Lfunc_end26-InitSceneInformation
	.cfi_endproc
                                        # -- End function
	.globl	CloseSceneInformation   # -- Begin function CloseSceneInformation
	.p2align	4, 0x90
	.type	CloseSceneInformation,@function
CloseSceneInformation:                  # @CloseSceneInformation
	.cfi_startproc
# %bb.0:                                # %entry
	pushq	%rbp
	.cfi_def_cfa_offset 16
	.cfi_offset %rbp, -16
	movq	%rsp, %rbp
	.cfi_def_cfa_register %rbp
	cmpq	$0, seiSceneInformation+16
	je	.LBB27_2
# %bb.1:                                # %if.then
	movq	seiSceneInformation+16, %rax
	movq	32(%rax), %rdi
	callq	free
	movq	seiSceneInformation+16, %rdi
	callq	free
.LBB27_2:                               # %if.end
	movq	$0, seiSceneInformation+16
	popq	%rbp
	.cfi_def_cfa %rsp, 8
	retq
.Lfunc_end27:
	.size	CloseSceneInformation, .Lfunc_end27-CloseSceneInformation
	.cfi_endproc
                                        # -- End function
	.globl	FinalizeSceneInformation # -- Begin function FinalizeSceneInformation
	.p2align	4, 0x90
	.type	FinalizeSceneInformation,@function
FinalizeSceneInformation:               # @FinalizeSceneInformation
	.cfi_startproc
# %bb.0:                                # %rand_bb
	pushq	%rbp
	.cfi_def_cfa_offset 16
	.cfi_offset %rbp, -16
	movq	%rsp, %rbp
	.cfi_def_cfa_register %rbp
	callq	get_rand
	cmpl	$0, %eax
	jne	.LBB28_2
# %bb.1:                                # %func_FinalizeSceneInformation.4
	callq	FinalizeSceneInformation.4
	popq	%rbp
	.cfi_def_cfa %rsp, 8
	retq
.LBB28_2:                               # %func_FinalizeSceneInformation.5
	.cfi_def_cfa %rbp, 16
	callq	FinalizeSceneInformation.5
	popq	%rbp
	.cfi_def_cfa %rsp, 8
	retq
.Lfunc_end28:
	.size	FinalizeSceneInformation, .Lfunc_end28-FinalizeSceneInformation
	.cfi_endproc
                                        # -- End function
	.globl	UpdateSceneInformation  # -- Begin function UpdateSceneInformation
	.p2align	4, 0x90
	.type	UpdateSceneInformation,@function
UpdateSceneInformation:                 # @UpdateSceneInformation
	.cfi_startproc
# %bb.0:                                # %rand_bb
	pushq	%rbp
	.cfi_def_cfa_offset 16
	.cfi_offset %rbp, -16
	movq	%rsp, %rbp
	.cfi_def_cfa_register %rbp
	pushq	%r15
	pushq	%r14
	pushq	%r12
	pushq	%rbx
	.cfi_offset %rbx, -48
	.cfi_offset %r12, -40
	.cfi_offset %r14, -32
	.cfi_offset %r15, -24
	movl	%ecx, %r14d
	movl	%edx, %r15d
	movl	%esi, %r12d
	movl	%edi, %ebx
	callq	get_rand
	cmpl	$0, %eax
	jne	.LBB29_9
# %bb.1:                                # %func_UpdateSceneInformation.6
	movl	%ebx, %edi
	movl	%r12d, %esi
	movl	%r15d, %edx
	movl	%r14d, %ecx
	callq	UpdateSceneInformation.6
	popq	%rbx
	popq	%r12
	popq	%r14
	popq	%r15
	popq	%rbp
	.cfi_def_cfa %rsp, 8
	retq
.LBB29_2:                               # %func_UpdateSceneInformation.9
	.cfi_def_cfa %rbp, 16
	movl	%ebx, %edi
	movl	%r12d, %esi
	movl	%r15d, %edx
	movl	%r14d, %ecx
	callq	UpdateSceneInformation.9
	popq	%rbx
	popq	%r12
	popq	%r14
	popq	%r15
	popq	%rbp
	.cfi_def_cfa %rsp, 8
	retq
.LBB29_3:                               # %func_UpdateSceneInformation.26
	.cfi_def_cfa %rbp, 16
	movl	%ebx, %edi
	movl	%r12d, %esi
	movl	%r15d, %edx
	movl	%r14d, %ecx
	callq	UpdateSceneInformation.26
	popq	%rbx
	popq	%r12
	popq	%r14
	popq	%r15
	popq	%rbp
	.cfi_def_cfa %rsp, 8
	retq
.LBB29_4:                               # %func_UpdateSceneInformation.36
	.cfi_def_cfa %rbp, 16
	movl	%ebx, %edi
	movl	%r12d, %esi
	movl	%r15d, %edx
	movl	%r14d, %ecx
	callq	UpdateSceneInformation.36
	popq	%rbx
	popq	%r12
	popq	%r14
	popq	%r15
	popq	%rbp
	.cfi_def_cfa %rsp, 8
	retq
.LBB29_5:                               # %func_UpdateSceneInformation.53
	.cfi_def_cfa %rbp, 16
	movl	%ebx, %edi
	movl	%r12d, %esi
	movl	%r15d, %edx
	movl	%r14d, %ecx
	callq	UpdateSceneInformation.53
	popq	%rbx
	popq	%r12
	popq	%r14
	popq	%r15
	popq	%rbp
	.cfi_def_cfa %rsp, 8
	retq
.LBB29_6:                               # %func_UpdateSceneInformation.68
	.cfi_def_cfa %rbp, 16
	movl	%ebx, %edi
	movl	%r12d, %esi
	movl	%r15d, %edx
	movl	%r14d, %ecx
	callq	UpdateSceneInformation.68
	popq	%rbx
	popq	%r12
	popq	%r14
	popq	%r15
	popq	%rbp
	.cfi_def_cfa %rsp, 8
	retq
.LBB29_7:                               # %func_UpdateSceneInformation.72
	.cfi_def_cfa %rbp, 16
	movl	%ebx, %edi
	movl	%r12d, %esi
	movl	%r15d, %edx
	movl	%r14d, %ecx
	callq	UpdateSceneInformation.72
	popq	%rbx
	popq	%r12
	popq	%r14
	popq	%r15
	popq	%rbp
	.cfi_def_cfa %rsp, 8
	retq
.LBB29_8:                               # %func_UpdateSceneInformation.80
	.cfi_def_cfa %rbp, 16
	movl	%ebx, %edi
	movl	%r12d, %esi
	movl	%r15d, %edx
	movl	%r14d, %ecx
	callq	UpdateSceneInformation.80
	popq	%rbx
	popq	%r12
	popq	%r14
	popq	%r15
	popq	%rbp
	.cfi_def_cfa %rsp, 8
	retq
.LBB29_9:                               # %ctrl0
	.cfi_def_cfa %rbp, 16
	cmpl	$1, %eax
	je	.LBB29_2
# %bb.10:                               # %ctrl1
	cmpl	$2, %eax
	je	.LBB29_3
# %bb.11:                               # %ctrl2
	cmpl	$3, %eax
	je	.LBB29_4
# %bb.12:                               # %ctrl3
	cmpl	$4, %eax
	je	.LBB29_5
# %bb.13:                               # %ctrl4
	cmpl	$5, %eax
	je	.LBB29_6
# %bb.14:                               # %ctrl5
	cmpl	$6, %eax
	je	.LBB29_7
	jmp	.LBB29_8
.Lfunc_end29:
	.size	UpdateSceneInformation, .Lfunc_end29-UpdateSceneInformation
	.cfi_endproc
                                        # -- End function
	.globl	InitPanScanRectInfo     # -- Begin function InitPanScanRectInfo
	.p2align	4, 0x90
	.type	InitPanScanRectInfo,@function
InitPanScanRectInfo:                    # @InitPanScanRectInfo
	.cfi_startproc
# %bb.0:                                # %entry
	pushq	%rbp
	.cfi_def_cfa_offset 16
	.cfi_offset %rbp, -16
	movq	%rsp, %rbp
	.cfi_def_cfa_register %rbp
	movl	$48, %edi
	callq	malloc
	movq	%rax, seiPanScanRectInfo+24
	cmpq	$0, seiPanScanRectInfo+24
	jne	.LBB30_2
# %bb.1:                                # %if.then
	movabsq	$.L.str.11, %rdi
	callq	no_mem_exit
.LBB30_2:                               # %if.end
	movl	$65496, %edi            # imm = 0xFFD8
	callq	malloc
	movq	seiPanScanRectInfo+24, %rcx
	movq	%rax, 32(%rcx)
	movq	seiPanScanRectInfo+24, %rax
	cmpq	$0, 32(%rax)
	jne	.LBB30_4
# %bb.3:                                # %if.then4
	movabsq	$.L.str.12, %rdi
	callq	no_mem_exit
.LBB30_4:                               # %if.end5
	callq	ClearPanScanRectInfoPayload
	movl	$0, seiPanScanRectInfo+4
	movl	$0, seiPanScanRectInfo+8
	movl	$0, seiPanScanRectInfo+12
	movl	$0, seiPanScanRectInfo+16
	popq	%rbp
	.cfi_def_cfa %rsp, 8
	retq
.Lfunc_end30:
	.size	InitPanScanRectInfo, .Lfunc_end30-InitPanScanRectInfo
	.cfi_endproc
                                        # -- End function
	.globl	ClearPanScanRectInfoPayload # -- Begin function ClearPanScanRectInfoPayload
	.p2align	4, 0x90
	.type	ClearPanScanRectInfoPayload,@function
ClearPanScanRectInfoPayload:            # @ClearPanScanRectInfoPayload
	.cfi_startproc
# %bb.0:                                # %entry
	pushq	%rbp
	.cfi_def_cfa_offset 16
	.cfi_offset %rbp, -16
	movq	%rsp, %rbp
	.cfi_def_cfa_register %rbp
	movq	seiPanScanRectInfo+24, %rax
	movq	32(%rax), %rdi
	xorl	%esi, %esi
	movl	$65496, %edx            # imm = 0xFFD8
	callq	memset
	movq	seiPanScanRectInfo+24, %rax
	movl	$8, 4(%rax)
	movq	seiPanScanRectInfo+24, %rax
	movl	$0, (%rax)
	movq	seiPanScanRectInfo+24, %rax
	movb	$0, 8(%rax)
	movl	$0, seiPanScanRectInfo+32
	movl	$1, seiHasPanScanRectInfo
	popq	%rbp
	.cfi_def_cfa %rsp, 8
	retq
.Lfunc_end31:
	.size	ClearPanScanRectInfoPayload, .Lfunc_end31-ClearPanScanRectInfoPayload
	.cfi_endproc
                                        # -- End function
	.globl	UpdatePanScanRectInfo   # -- Begin function UpdatePanScanRectInfo
	.p2align	4, 0x90
	.type	UpdatePanScanRectInfo,@function
UpdatePanScanRectInfo:                  # @UpdatePanScanRectInfo
	.cfi_startproc
# %bb.0:                                # %entry
	pushq	%rbp
	.cfi_def_cfa_offset 16
	.cfi_offset %rbp, -16
	movq	%rsp, %rbp
	.cfi_def_cfa_register %rbp
	movl	$3, seiPanScanRectInfo
	movl	$10, seiPanScanRectInfo+4
	movl	$40, seiPanScanRectInfo+8
	movl	$20, seiPanScanRectInfo+12
	movl	$32, seiPanScanRectInfo+16
	movl	$1, seiHasPanScanRectInfo
	popq	%rbp
	.cfi_def_cfa %rsp, 8
	retq
.Lfunc_end32:
	.size	UpdatePanScanRectInfo, .Lfunc_end32-UpdatePanScanRectInfo
	.cfi_endproc
                                        # -- End function
	.globl	FinalizePanScanRectInfo # -- Begin function FinalizePanScanRectInfo
	.p2align	4, 0x90
	.type	FinalizePanScanRectInfo,@function
FinalizePanScanRectInfo:                # @FinalizePanScanRectInfo
	.cfi_startproc
# %bb.0:                                # %rand_bb
	pushq	%rbp
	.cfi_def_cfa_offset 16
	.cfi_offset %rbp, -16
	movq	%rsp, %rbp
	.cfi_def_cfa_register %rbp
	callq	get_rand
	cmpl	$0, %eax
	jne	.LBB33_2
# %bb.1:                                # %func_FinalizePanScanRectInfo.20
	callq	FinalizePanScanRectInfo.20
	popq	%rbp
	.cfi_def_cfa %rsp, 8
	retq
.LBB33_2:                               # %func_FinalizePanScanRectInfo.22
	.cfi_def_cfa %rbp, 16
	callq	FinalizePanScanRectInfo.22
	popq	%rbp
	.cfi_def_cfa %rsp, 8
	retq
.Lfunc_end33:
	.size	FinalizePanScanRectInfo, .Lfunc_end33-FinalizePanScanRectInfo
	.cfi_endproc
                                        # -- End function
	.globl	ClosePanScanRectInfo    # -- Begin function ClosePanScanRectInfo
	.p2align	4, 0x90
	.type	ClosePanScanRectInfo,@function
ClosePanScanRectInfo:                   # @ClosePanScanRectInfo
	.cfi_startproc
# %bb.0:                                # %entry
	pushq	%rbp
	.cfi_def_cfa_offset 16
	.cfi_offset %rbp, -16
	movq	%rsp, %rbp
	.cfi_def_cfa_register %rbp
	cmpq	$0, seiPanScanRectInfo+24
	je	.LBB34_2
# %bb.1:                                # %if.then
	movq	seiPanScanRectInfo+24, %rax
	movq	32(%rax), %rdi
	callq	free
	movq	seiPanScanRectInfo+24, %rdi
	callq	free
.LBB34_2:                               # %if.end
	movq	$0, seiPanScanRectInfo+24
	popq	%rbp
	.cfi_def_cfa %rsp, 8
	retq
.Lfunc_end34:
	.size	ClosePanScanRectInfo, .Lfunc_end34-ClosePanScanRectInfo
	.cfi_endproc
                                        # -- End function
	.globl	InitUser_data_unregistered # -- Begin function InitUser_data_unregistered
	.p2align	4, 0x90
	.type	InitUser_data_unregistered,@function
InitUser_data_unregistered:             # @InitUser_data_unregistered
	.cfi_startproc
# %bb.0:                                # %entry
	pushq	%rbp
	.cfi_def_cfa_offset 16
	.cfi_offset %rbp, -16
	movq	%rsp, %rbp
	.cfi_def_cfa_register %rbp
	movl	$48, %edi
	callq	malloc
	movq	%rax, seiUser_data_unregistered+16
	cmpq	$0, seiUser_data_unregistered+16
	jne	.LBB35_2
# %bb.1:                                # %if.then
	movabsq	$.L.str.13, %rdi
	callq	no_mem_exit
.LBB35_2:                               # %if.end
	movl	$65496, %edi            # imm = 0xFFD8
	callq	malloc
	movq	seiUser_data_unregistered+16, %rcx
	movq	%rax, 32(%rcx)
	movq	seiUser_data_unregistered+16, %rax
	cmpq	$0, 32(%rax)
	jne	.LBB35_4
# %bb.3:                                # %if.then4
	movabsq	$.L.str.14, %rdi
	callq	no_mem_exit
.LBB35_4:                               # %if.end5
	movl	$65496, %edi            # imm = 0xFFD8
	callq	malloc
	movq	%rax, seiUser_data_unregistered
	cmpq	$0, seiUser_data_unregistered
	jne	.LBB35_6
# %bb.5:                                # %if.then8
	movabsq	$.L.str.15, %rdi
	callq	no_mem_exit
.LBB35_6:                               # %if.end9
	callq	ClearUser_data_unregistered
	popq	%rbp
	.cfi_def_cfa %rsp, 8
	retq
.Lfunc_end35:
	.size	InitUser_data_unregistered, .Lfunc_end35-InitUser_data_unregistered
	.cfi_endproc
                                        # -- End function
	.globl	ClearUser_data_unregistered # -- Begin function ClearUser_data_unregistered
	.p2align	4, 0x90
	.type	ClearUser_data_unregistered,@function
ClearUser_data_unregistered:            # @ClearUser_data_unregistered
	.cfi_startproc
# %bb.0:                                # %entry
	pushq	%rbp
	.cfi_def_cfa_offset 16
	.cfi_offset %rbp, -16
	movq	%rsp, %rbp
	.cfi_def_cfa_register %rbp
	movq	seiUser_data_unregistered+16, %rax
	movq	32(%rax), %rdi
	xorl	%esi, %esi
	movl	$65496, %edx            # imm = 0xFFD8
	callq	memset
	movq	seiUser_data_unregistered+16, %rax
	movl	$8, 4(%rax)
	movq	seiUser_data_unregistered+16, %rax
	movl	$0, (%rax)
	movq	seiUser_data_unregistered+16, %rax
	movb	$0, 8(%rax)
	movl	$0, seiUser_data_unregistered+24
	movq	seiUser_data_unregistered, %rdi
	xorl	%esi, %esi
	movl	$65496, %edx            # imm = 0xFFD8
	callq	memset
	movl	$0, seiUser_data_unregistered+8
	movl	$1, seiHasUser_data_unregistered_info
	popq	%rbp
	.cfi_def_cfa %rsp, 8
	retq
.Lfunc_end36:
	.size	ClearUser_data_unregistered, .Lfunc_end36-ClearUser_data_unregistered
	.cfi_endproc
                                        # -- End function
	.globl	UpdateUser_data_unregistered # -- Begin function UpdateUser_data_unregistered
	.p2align	4, 0x90
	.type	UpdateUser_data_unregistered,@function
UpdateUser_data_unregistered:           # @UpdateUser_data_unregistered
	.cfi_startproc
# %bb.0:                                # %rand_bb
	pushq	%rbp
	.cfi_def_cfa_offset 16
	.cfi_offset %rbp, -16
	movq	%rsp, %rbp
	.cfi_def_cfa_register %rbp
	callq	get_rand
	cmpl	$0, %eax
	jne	.LBB37_7
# %bb.1:                                # %func_UpdateUser_data_unregistered.38
	callq	UpdateUser_data_unregistered.38
	popq	%rbp
	.cfi_def_cfa %rsp, 8
	retq
.LBB37_2:                               # %func_UpdateUser_data_unregistered.71
	.cfi_def_cfa %rbp, 16
	callq	UpdateUser_data_unregistered.71
	popq	%rbp
	.cfi_def_cfa %rsp, 8
	retq
.LBB37_3:                               # %func_UpdateUser_data_unregistered.74
	.cfi_def_cfa %rbp, 16
	callq	UpdateUser_data_unregistered.74
	popq	%rbp
	.cfi_def_cfa %rsp, 8
	retq
.LBB37_4:                               # %func_UpdateUser_data_unregistered.83
	.cfi_def_cfa %rbp, 16
	callq	UpdateUser_data_unregistered.83
	popq	%rbp
	.cfi_def_cfa %rsp, 8
	retq
.LBB37_5:                               # %func_UpdateUser_data_unregistered.85
	.cfi_def_cfa %rbp, 16
	callq	UpdateUser_data_unregistered.85
	popq	%rbp
	.cfi_def_cfa %rsp, 8
	retq
.LBB37_6:                               # %func_UpdateUser_data_unregistered.86
	.cfi_def_cfa %rbp, 16
	callq	UpdateUser_data_unregistered.86
	popq	%rbp
	.cfi_def_cfa %rsp, 8
	retq
.LBB37_7:                               # %ctrl0
	.cfi_def_cfa %rbp, 16
	cmpl	$1, %eax
	je	.LBB37_2
# %bb.8:                                # %ctrl1
	cmpl	$2, %eax
	je	.LBB37_3
# %bb.9:                                # %ctrl2
	cmpl	$3, %eax
	je	.LBB37_4
# %bb.10:                               # %ctrl3
	cmpl	$4, %eax
	je	.LBB37_5
	jmp	.LBB37_6
.Lfunc_end37:
	.size	UpdateUser_data_unregistered, .Lfunc_end37-UpdateUser_data_unregistered
	.cfi_endproc
                                        # -- End function
	.globl	FinalizeUser_data_unregistered # -- Begin function FinalizeUser_data_unregistered
	.p2align	4, 0x90
	.type	FinalizeUser_data_unregistered,@function
FinalizeUser_data_unregistered:         # @FinalizeUser_data_unregistered
	.cfi_startproc
# %bb.0:                                # %rand_bb
	pushq	%rbp
	.cfi_def_cfa_offset 16
	.cfi_offset %rbp, -16
	movq	%rsp, %rbp
	.cfi_def_cfa_register %rbp
	callq	get_rand
	cmpl	$0, %eax
	jne	.LBB38_7
# %bb.1:                                # %func_FinalizeUser_data_unregistered.21
	callq	FinalizeUser_data_unregistered.21
	popq	%rbp
	.cfi_def_cfa %rsp, 8
	retq
.LBB38_2:                               # %func_FinalizeUser_data_unregistered.37
	.cfi_def_cfa %rbp, 16
	callq	FinalizeUser_data_unregistered.37
	popq	%rbp
	.cfi_def_cfa %rsp, 8
	retq
.LBB38_3:                               # %func_FinalizeUser_data_unregistered.58
	.cfi_def_cfa %rbp, 16
	callq	FinalizeUser_data_unregistered.58
	popq	%rbp
	.cfi_def_cfa %rsp, 8
	retq
.LBB38_4:                               # %func_FinalizeUser_data_unregistered.63
	.cfi_def_cfa %rbp, 16
	callq	FinalizeUser_data_unregistered.63
	popq	%rbp
	.cfi_def_cfa %rsp, 8
	retq
.LBB38_5:                               # %func_FinalizeUser_data_unregistered.75
	.cfi_def_cfa %rbp, 16
	callq	FinalizeUser_data_unregistered.75
	popq	%rbp
	.cfi_def_cfa %rsp, 8
	retq
.LBB38_6:                               # %func_FinalizeUser_data_unregistered.76
	.cfi_def_cfa %rbp, 16
	callq	FinalizeUser_data_unregistered.76
	popq	%rbp
	.cfi_def_cfa %rsp, 8
	retq
.LBB38_7:                               # %ctrl0
	.cfi_def_cfa %rbp, 16
	cmpl	$1, %eax
	je	.LBB38_2
# %bb.8:                                # %ctrl1
	cmpl	$2, %eax
	je	.LBB38_3
# %bb.9:                                # %ctrl2
	cmpl	$3, %eax
	je	.LBB38_4
# %bb.10:                               # %ctrl3
	cmpl	$4, %eax
	je	.LBB38_5
	jmp	.LBB38_6
.Lfunc_end38:
	.size	FinalizeUser_data_unregistered, .Lfunc_end38-FinalizeUser_data_unregistered
	.cfi_endproc
                                        # -- End function
	.globl	CloseUser_data_unregistered # -- Begin function CloseUser_data_unregistered
	.p2align	4, 0x90
	.type	CloseUser_data_unregistered,@function
CloseUser_data_unregistered:            # @CloseUser_data_unregistered
	.cfi_startproc
# %bb.0:                                # %entry
	pushq	%rbp
	.cfi_def_cfa_offset 16
	.cfi_offset %rbp, -16
	movq	%rsp, %rbp
	.cfi_def_cfa_register %rbp
	cmpq	$0, seiUser_data_unregistered+16
	je	.LBB39_2
# %bb.1:                                # %if.then
	movq	seiUser_data_unregistered+16, %rax
	movq	32(%rax), %rdi
	callq	free
	movq	seiUser_data_unregistered+16, %rdi
	callq	free
.LBB39_2:                               # %if.end
	movq	$0, seiUser_data_unregistered+16
	cmpq	$0, seiUser_data_unregistered
	je	.LBB39_4
# %bb.3:                                # %if.then2
	movq	seiUser_data_unregistered, %rdi
	callq	free
.LBB39_4:                               # %if.end3
	popq	%rbp
	.cfi_def_cfa %rsp, 8
	retq
.Lfunc_end39:
	.size	CloseUser_data_unregistered, .Lfunc_end39-CloseUser_data_unregistered
	.cfi_endproc
                                        # -- End function
	.globl	InitUser_data_registered_itu_t_t35 # -- Begin function InitUser_data_registered_itu_t_t35
	.p2align	4, 0x90
	.type	InitUser_data_registered_itu_t_t35,@function
InitUser_data_registered_itu_t_t35:     # @InitUser_data_registered_itu_t_t35
	.cfi_startproc
# %bb.0:                                # %entry
	pushq	%rbp
	.cfi_def_cfa_offset 16
	.cfi_offset %rbp, -16
	movq	%rsp, %rbp
	.cfi_def_cfa_register %rbp
	movl	$48, %edi
	callq	malloc
	movq	%rax, seiUser_data_registered_itu_t_t35+24
	cmpq	$0, seiUser_data_registered_itu_t_t35+24
	jne	.LBB40_2
# %bb.1:                                # %if.then
	movabsq	$.L.str.16, %rdi
	callq	no_mem_exit
.LBB40_2:                               # %if.end
	movl	$65496, %edi            # imm = 0xFFD8
	callq	malloc
	movq	seiUser_data_registered_itu_t_t35+24, %rcx
	movq	%rax, 32(%rcx)
	movq	seiUser_data_registered_itu_t_t35+24, %rax
	cmpq	$0, 32(%rax)
	jne	.LBB40_4
# %bb.3:                                # %if.then4
	movabsq	$.L.str.17, %rdi
	callq	no_mem_exit
.LBB40_4:                               # %if.end5
	movl	$65496, %edi            # imm = 0xFFD8
	callq	malloc
	movq	%rax, seiUser_data_registered_itu_t_t35
	cmpq	$0, seiUser_data_registered_itu_t_t35+24
	jne	.LBB40_6
# %bb.5:                                # %if.then8
	movabsq	$.L.str.18, %rdi
	callq	no_mem_exit
.LBB40_6:                               # %if.end9
	callq	ClearUser_data_registered_itu_t_t35
	popq	%rbp
	.cfi_def_cfa %rsp, 8
	retq
.Lfunc_end40:
	.size	InitUser_data_registered_itu_t_t35, .Lfunc_end40-InitUser_data_registered_itu_t_t35
	.cfi_endproc
                                        # -- End function
	.globl	ClearUser_data_registered_itu_t_t35 # -- Begin function ClearUser_data_registered_itu_t_t35
	.p2align	4, 0x90
	.type	ClearUser_data_registered_itu_t_t35,@function
ClearUser_data_registered_itu_t_t35:    # @ClearUser_data_registered_itu_t_t35
	.cfi_startproc
# %bb.0:                                # %entry
	pushq	%rbp
	.cfi_def_cfa_offset 16
	.cfi_offset %rbp, -16
	movq	%rsp, %rbp
	.cfi_def_cfa_register %rbp
	movq	seiUser_data_registered_itu_t_t35+24, %rax
	movq	32(%rax), %rdi
	xorl	%esi, %esi
	movl	$65496, %edx            # imm = 0xFFD8
	callq	memset
	movq	seiUser_data_registered_itu_t_t35+24, %rax
	movl	$8, 4(%rax)
	movq	seiUser_data_registered_itu_t_t35+24, %rax
	movl	$0, (%rax)
	movq	seiUser_data_registered_itu_t_t35+24, %rax
	movb	$0, 8(%rax)
	movl	$0, seiUser_data_registered_itu_t_t35+32
	movq	seiUser_data_registered_itu_t_t35, %rdi
	xorl	%esi, %esi
	movl	$65496, %edx            # imm = 0xFFD8
	callq	memset
	movl	$0, seiUser_data_registered_itu_t_t35+8
	movl	$0, seiUser_data_registered_itu_t_t35+12
	movl	$0, seiUser_data_registered_itu_t_t35+16
	movl	$1, seiHasUser_data_registered_itu_t_t35_info
	popq	%rbp
	.cfi_def_cfa %rsp, 8
	retq
.Lfunc_end41:
	.size	ClearUser_data_registered_itu_t_t35, .Lfunc_end41-ClearUser_data_registered_itu_t_t35
	.cfi_endproc
                                        # -- End function
	.globl	UpdateUser_data_registered_itu_t_t35 # -- Begin function UpdateUser_data_registered_itu_t_t35
	.p2align	4, 0x90
	.type	UpdateUser_data_registered_itu_t_t35,@function
UpdateUser_data_registered_itu_t_t35:   # @UpdateUser_data_registered_itu_t_t35
	.cfi_startproc
# %bb.0:                                # %rand_bb
	pushq	%rbp
	.cfi_def_cfa_offset 16
	.cfi_offset %rbp, -16
	movq	%rsp, %rbp
	.cfi_def_cfa_register %rbp
	callq	get_rand
	cmpl	$0, %eax
	jne	.LBB42_9
# %bb.1:                                # %func_UpdateUser_data_registered_itu_t_t35.14
	callq	UpdateUser_data_registered_itu_t_t35.14
	popq	%rbp
	.cfi_def_cfa %rsp, 8
	retq
.LBB42_2:                               # %func_UpdateUser_data_registered_itu_t_t35.27
	.cfi_def_cfa %rbp, 16
	callq	UpdateUser_data_registered_itu_t_t35.27
	popq	%rbp
	.cfi_def_cfa %rsp, 8
	retq
.LBB42_3:                               # %func_UpdateUser_data_registered_itu_t_t35.29
	.cfi_def_cfa %rbp, 16
	callq	UpdateUser_data_registered_itu_t_t35.29
	popq	%rbp
	.cfi_def_cfa %rsp, 8
	retq
.LBB42_4:                               # %func_UpdateUser_data_registered_itu_t_t35.31
	.cfi_def_cfa %rbp, 16
	callq	UpdateUser_data_registered_itu_t_t35.31
	popq	%rbp
	.cfi_def_cfa %rsp, 8
	retq
.LBB42_5:                               # %func_UpdateUser_data_registered_itu_t_t35.54
	.cfi_def_cfa %rbp, 16
	callq	UpdateUser_data_registered_itu_t_t35.54
	popq	%rbp
	.cfi_def_cfa %rsp, 8
	retq
.LBB42_6:                               # %func_UpdateUser_data_registered_itu_t_t35.57
	.cfi_def_cfa %rbp, 16
	callq	UpdateUser_data_registered_itu_t_t35.57
	popq	%rbp
	.cfi_def_cfa %rsp, 8
	retq
.LBB42_7:                               # %func_UpdateUser_data_registered_itu_t_t35.73
	.cfi_def_cfa %rbp, 16
	callq	UpdateUser_data_registered_itu_t_t35.73
	popq	%rbp
	.cfi_def_cfa %rsp, 8
	retq
.LBB42_8:                               # %func_UpdateUser_data_registered_itu_t_t35.79
	.cfi_def_cfa %rbp, 16
	callq	UpdateUser_data_registered_itu_t_t35.79
	popq	%rbp
	.cfi_def_cfa %rsp, 8
	retq
.LBB42_9:                               # %ctrl0
	.cfi_def_cfa %rbp, 16
	cmpl	$1, %eax
	je	.LBB42_2
# %bb.10:                               # %ctrl1
	cmpl	$2, %eax
	je	.LBB42_3
# %bb.11:                               # %ctrl2
	cmpl	$3, %eax
	je	.LBB42_4
# %bb.12:                               # %ctrl3
	cmpl	$4, %eax
	je	.LBB42_5
# %bb.13:                               # %ctrl4
	cmpl	$5, %eax
	je	.LBB42_6
# %bb.14:                               # %ctrl5
	cmpl	$6, %eax
	je	.LBB42_7
	jmp	.LBB42_8
.Lfunc_end42:
	.size	UpdateUser_data_registered_itu_t_t35, .Lfunc_end42-UpdateUser_data_registered_itu_t_t35
	.cfi_endproc
                                        # -- End function
	.globl	FinalizeUser_data_registered_itu_t_t35 # -- Begin function FinalizeUser_data_registered_itu_t_t35
	.p2align	4, 0x90
	.type	FinalizeUser_data_registered_itu_t_t35,@function
FinalizeUser_data_registered_itu_t_t35: # @FinalizeUser_data_registered_itu_t_t35
	.cfi_startproc
# %bb.0:                                # %rand_bb
	pushq	%rbp
	.cfi_def_cfa_offset 16
	.cfi_offset %rbp, -16
	movq	%rsp, %rbp
	.cfi_def_cfa_register %rbp
	callq	get_rand
	cmpl	$0, %eax
	jne	.LBB43_7
# %bb.1:                                # %func_FinalizeUser_data_registered_itu_t_t35.25
	callq	FinalizeUser_data_registered_itu_t_t35.25
	popq	%rbp
	.cfi_def_cfa %rsp, 8
	retq
.LBB43_2:                               # %func_FinalizeUser_data_registered_itu_t_t35.30
	.cfi_def_cfa %rbp, 16
	callq	FinalizeUser_data_registered_itu_t_t35.30
	popq	%rbp
	.cfi_def_cfa %rsp, 8
	retq
.LBB43_3:                               # %func_FinalizeUser_data_registered_itu_t_t35.45
	.cfi_def_cfa %rbp, 16
	callq	FinalizeUser_data_registered_itu_t_t35.45
	popq	%rbp
	.cfi_def_cfa %rsp, 8
	retq
.LBB43_4:                               # %func_FinalizeUser_data_registered_itu_t_t35.48
	.cfi_def_cfa %rbp, 16
	callq	FinalizeUser_data_registered_itu_t_t35.48
	popq	%rbp
	.cfi_def_cfa %rsp, 8
	retq
.LBB43_5:                               # %func_FinalizeUser_data_registered_itu_t_t35.62
	.cfi_def_cfa %rbp, 16
	callq	FinalizeUser_data_registered_itu_t_t35.62
	popq	%rbp
	.cfi_def_cfa %rsp, 8
	retq
.LBB43_6:                               # %func_FinalizeUser_data_registered_itu_t_t35.78
	.cfi_def_cfa %rbp, 16
	callq	FinalizeUser_data_registered_itu_t_t35.78
	popq	%rbp
	.cfi_def_cfa %rsp, 8
	retq
.LBB43_7:                               # %ctrl0
	.cfi_def_cfa %rbp, 16
	cmpl	$1, %eax
	je	.LBB43_2
# %bb.8:                                # %ctrl1
	cmpl	$2, %eax
	je	.LBB43_3
# %bb.9:                                # %ctrl2
	cmpl	$3, %eax
	je	.LBB43_4
# %bb.10:                               # %ctrl3
	cmpl	$4, %eax
	je	.LBB43_5
	jmp	.LBB43_6
.Lfunc_end43:
	.size	FinalizeUser_data_registered_itu_t_t35, .Lfunc_end43-FinalizeUser_data_registered_itu_t_t35
	.cfi_endproc
                                        # -- End function
	.globl	CloseUser_data_registered_itu_t_t35 # -- Begin function CloseUser_data_registered_itu_t_t35
	.p2align	4, 0x90
	.type	CloseUser_data_registered_itu_t_t35,@function
CloseUser_data_registered_itu_t_t35:    # @CloseUser_data_registered_itu_t_t35
	.cfi_startproc
# %bb.0:                                # %entry
	pushq	%rbp
	.cfi_def_cfa_offset 16
	.cfi_offset %rbp, -16
	movq	%rsp, %rbp
	.cfi_def_cfa_register %rbp
	cmpq	$0, seiUser_data_registered_itu_t_t35+24
	je	.LBB44_2
# %bb.1:                                # %if.then
	movq	seiUser_data_registered_itu_t_t35+24, %rax
	movq	32(%rax), %rdi
	callq	free
	movq	seiUser_data_registered_itu_t_t35+24, %rdi
	callq	free
.LBB44_2:                               # %if.end
	movq	$0, seiUser_data_registered_itu_t_t35+24
	cmpq	$0, seiUser_data_registered_itu_t_t35
	je	.LBB44_4
# %bb.3:                                # %if.then2
	movq	seiUser_data_registered_itu_t_t35, %rdi
	callq	free
.LBB44_4:                               # %if.end3
	popq	%rbp
	.cfi_def_cfa %rsp, 8
	retq
.Lfunc_end44:
	.size	CloseUser_data_registered_itu_t_t35, .Lfunc_end44-CloseUser_data_registered_itu_t_t35
	.cfi_endproc
                                        # -- End function
	.globl	InitRandomAccess        # -- Begin function InitRandomAccess
	.p2align	4, 0x90
	.type	InitRandomAccess,@function
InitRandomAccess:                       # @InitRandomAccess
	.cfi_startproc
# %bb.0:                                # %entry
	pushq	%rbp
	.cfi_def_cfa_offset 16
	.cfi_offset %rbp, -16
	movq	%rsp, %rbp
	.cfi_def_cfa_register %rbp
	movl	$48, %edi
	callq	malloc
	movq	%rax, seiRandomAccess+8
	cmpq	$0, seiRandomAccess+8
	jne	.LBB45_2
# %bb.1:                                # %if.then
	movabsq	$.L.str.19, %rdi
	callq	no_mem_exit
.LBB45_2:                               # %if.end
	movl	$65496, %edi            # imm = 0xFFD8
	callq	malloc
	movq	seiRandomAccess+8, %rcx
	movq	%rax, 32(%rcx)
	movq	seiRandomAccess+8, %rax
	cmpq	$0, 32(%rax)
	jne	.LBB45_4
# %bb.3:                                # %if.then4
	movabsq	$.L.str.20, %rdi
	callq	no_mem_exit
.LBB45_4:                               # %if.end5
	callq	ClearRandomAccess
	popq	%rbp
	.cfi_def_cfa %rsp, 8
	retq
.Lfunc_end45:
	.size	InitRandomAccess, .Lfunc_end45-InitRandomAccess
	.cfi_endproc
                                        # -- End function
	.globl	ClearRandomAccess       # -- Begin function ClearRandomAccess
	.p2align	4, 0x90
	.type	ClearRandomAccess,@function
ClearRandomAccess:                      # @ClearRandomAccess
	.cfi_startproc
# %bb.0:                                # %entry
	pushq	%rbp
	.cfi_def_cfa_offset 16
	.cfi_offset %rbp, -16
	movq	%rsp, %rbp
	.cfi_def_cfa_register %rbp
	movq	seiRandomAccess+8, %rax
	movq	32(%rax), %rdi
	xorl	%esi, %esi
	movl	$65496, %edx            # imm = 0xFFD8
	callq	memset
	movq	seiRandomAccess+8, %rax
	movl	$8, 4(%rax)
	movq	seiRandomAccess+8, %rax
	movl	$0, (%rax)
	movq	seiRandomAccess+8, %rax
	movb	$0, 8(%rax)
	movl	$0, seiRandomAccess+16
	movb	$0, seiRandomAccess
	movb	$0, seiRandomAccess+2
	movb	$0, seiRandomAccess+1
	movl	$0, seiHasRandomAccess_info
	popq	%rbp
	.cfi_def_cfa %rsp, 8
	retq
.Lfunc_end46:
	.size	ClearRandomAccess, .Lfunc_end46-ClearRandomAccess
	.cfi_endproc
                                        # -- End function
	.globl	UpdateRandomAccess      # -- Begin function UpdateRandomAccess
	.p2align	4, 0x90
	.type	UpdateRandomAccess,@function
UpdateRandomAccess:                     # @UpdateRandomAccess
	.cfi_startproc
# %bb.0:                                # %entry
	pushq	%rbp
	.cfi_def_cfa_offset 16
	.cfi_offset %rbp, -16
	movq	%rsp, %rbp
	.cfi_def_cfa_register %rbp
	movq	img, %rax
	cmpl	$2, 24(%rax)
	jne	.LBB47_2
# %bb.1:                                # %if.then
	movb	$0, seiRandomAccess
	movb	$1, seiRandomAccess+1
	movb	$0, seiRandomAccess+2
	movl	$1, seiHasRandomAccess_info
	jmp	.LBB47_3
.LBB47_2:                               # %if.else
	movl	$0, seiHasRandomAccess_info
.LBB47_3:                               # %if.end
	popq	%rbp
	.cfi_def_cfa %rsp, 8
	retq
.Lfunc_end47:
	.size	UpdateRandomAccess, .Lfunc_end47-UpdateRandomAccess
	.cfi_endproc
                                        # -- End function
	.globl	FinalizeRandomAccess    # -- Begin function FinalizeRandomAccess
	.p2align	4, 0x90
	.type	FinalizeRandomAccess,@function
FinalizeRandomAccess:                   # @FinalizeRandomAccess
	.cfi_startproc
# %bb.0:                                # %rand_bb
	pushq	%rbp
	.cfi_def_cfa_offset 16
	.cfi_offset %rbp, -16
	movq	%rsp, %rbp
	.cfi_def_cfa_register %rbp
	callq	get_rand
	cmpl	$0, %eax
	jne	.LBB48_2
# %bb.1:                                # %func_FinalizeRandomAccess.10
	callq	FinalizeRandomAccess.10
	popq	%rbp
	.cfi_def_cfa %rsp, 8
	retq
.LBB48_2:                               # %func_FinalizeRandomAccess.16
	.cfi_def_cfa %rbp, 16
	callq	FinalizeRandomAccess.16
	popq	%rbp
	.cfi_def_cfa %rsp, 8
	retq
.Lfunc_end48:
	.size	FinalizeRandomAccess, .Lfunc_end48-FinalizeRandomAccess
	.cfi_endproc
                                        # -- End function
	.globl	CloseRandomAccess       # -- Begin function CloseRandomAccess
	.p2align	4, 0x90
	.type	CloseRandomAccess,@function
CloseRandomAccess:                      # @CloseRandomAccess
	.cfi_startproc
# %bb.0:                                # %entry
	pushq	%rbp
	.cfi_def_cfa_offset 16
	.cfi_offset %rbp, -16
	movq	%rsp, %rbp
	.cfi_def_cfa_register %rbp
	cmpq	$0, seiRandomAccess+8
	je	.LBB49_2
# %bb.1:                                # %if.then
	movq	seiRandomAccess+8, %rax
	movq	32(%rax), %rdi
	callq	free
	movq	seiRandomAccess+8, %rdi
	callq	free
.LBB49_2:                               # %if.end
	movq	$0, seiRandomAccess+8
	popq	%rbp
	.cfi_def_cfa %rsp, 8
	retq
.Lfunc_end49:
	.size	CloseRandomAccess, .Lfunc_end49-CloseRandomAccess
	.cfi_endproc
                                        # -- End function
	.globl	write_sei_message.1     # -- Begin function write_sei_message.1
	.p2align	4, 0x90
	.type	write_sei_message.1,@function
write_sei_message.1:                    # @write_sei_message.1
	.cfi_startproc
# %bb.0:                                # %entry
	pushq	%rbp
	.cfi_def_cfa_offset 16
	.cfi_offset %rbp, -16
	movq	%rsp, %rbp
	.cfi_def_cfa_register %rbp
	pushq	%rbx
	subq	$40, %rsp
	.cfi_offset %rbx, -24
	movl	$939751218, -36(%rbp)   # imm = 0x38037732
	movl	%edi, -16(%rbp)
	movq	%rsi, -48(%rbp)
	movl	%edx, -28(%rbp)
	movl	%ecx, -32(%rbp)
	movl	-32(%rbp), %eax
	movl	%eax, -20(%rbp)
	movl	-28(%rbp), %eax
	movl	%eax, -24(%rbp)
	movslq	-16(%rbp), %rax
	imulq	$24, %rax, %rax
	movabsq	$sei_message, %rcx
	addq	%rax, %rcx
	movl	4(%rcx), %eax
	movl	%eax, -12(%rbp)
.LBB50_1:                               # %while.cond
                                        # =>This Inner Loop Header: Depth=1
	cmpl	$255, -20(%rbp)
	jle	.LBB50_3
# %bb.2:                                # %while.body
                                        #   in Loop: Header=BB50_1 Depth=1
	movslq	-16(%rbp), %rax
	imulq	$24, %rax, %rax
	movabsq	$sei_message, %rcx
	addq	%rax, %rcx
	movq	16(%rcx), %rax
	movl	-12(%rbp), %ecx
	movl	%ecx, %edx
	addl	$1, %edx
	movl	%edx, -12(%rbp)
	movslq	%ecx, %rcx
	movb	$-1, (%rax,%rcx)
	movl	-20(%rbp), %eax
	subl	$255, %eax
	movl	%eax, -20(%rbp)
	jmp	.LBB50_1
.LBB50_3:                               # %while.end
	movl	-20(%rbp), %eax
	movslq	-16(%rbp), %rcx
	imulq	$24, %rcx, %rcx
	movabsq	$sei_message, %rdx
	addq	%rcx, %rdx
	movq	16(%rdx), %rcx
	movl	-12(%rbp), %edx
	movl	%edx, %esi
	addl	$1, %esi
	movl	%esi, -12(%rbp)
	movslq	%edx, %rdx
	movb	%al, (%rcx,%rdx)
.LBB50_4:                               # %while.cond11
                                        # =>This Inner Loop Header: Depth=1
	cmpl	$255, -24(%rbp)
	jle	.LBB50_6
# %bb.5:                                # %while.body14
                                        #   in Loop: Header=BB50_4 Depth=1
	movslq	-16(%rbp), %rax
	imulq	$24, %rax, %rax
	movabsq	$sei_message, %rcx
	addq	%rax, %rcx
	movq	16(%rcx), %rax
	movl	-12(%rbp), %ecx
	movl	%ecx, %edx
	addl	$1, %edx
	movl	%edx, -12(%rbp)
	movslq	%ecx, %rcx
	movb	$-1, (%rax,%rcx)
	movl	-24(%rbp), %eax
	subl	$255, %eax
	movl	%eax, -24(%rbp)
	jmp	.LBB50_4
.LBB50_6:                               # %while.end22
	movl	-24(%rbp), %eax
	movslq	-16(%rbp), %rcx
	imulq	$24, %rcx, %rcx
	movabsq	$sei_message, %rbx
	movq	%rbx, %rdx
	addq	%rcx, %rdx
	movq	16(%rdx), %rcx
	movl	-12(%rbp), %edx
	movl	%edx, %esi
	addl	$1, %esi
	movl	%esi, -12(%rbp)
	movslq	%edx, %rdx
	movb	%al, (%rcx,%rdx)
	movslq	-16(%rbp), %rax
	imulq	$24, %rax, %rax
	movq	%rbx, %rcx
	addq	%rax, %rcx
	movq	16(%rcx), %rdi
	movslq	-12(%rbp), %rax
	addq	%rax, %rdi
	movq	-48(%rbp), %rsi
	movslq	-28(%rbp), %rdx
	callq	memcpy
	movl	-28(%rbp), %eax
	addl	-12(%rbp), %eax
	movl	%eax, -12(%rbp)
	movl	-12(%rbp), %eax
	movslq	-16(%rbp), %rcx
	imulq	$24, %rcx, %rcx
	addq	%rcx, %rbx
	movl	%eax, 4(%rbx)
	cmpl	$939751218, -36(%rbp)   # imm = 0x38037732
	jne	.LBB50_8
.LBB50_7:
	addq	$40, %rsp
	popq	%rbx
	popq	%rbp
	.cfi_def_cfa %rsp, 8
	retq
.LBB50_8:                               # %func_exit
	.cfi_def_cfa %rbp, 16
	callq	detect_breach
	jmp	.LBB50_7
.Lfunc_end50:
	.size	write_sei_message.1, .Lfunc_end50-write_sei_message.1
	.cfi_endproc
                                        # -- End function
	.globl	write_sei_message.2     # -- Begin function write_sei_message.2
	.p2align	4, 0x90
	.type	write_sei_message.2,@function
write_sei_message.2:                    # @write_sei_message.2
	.cfi_startproc
# %bb.0:                                # %entry
	pushq	%rbp
	.cfi_def_cfa_offset 16
	.cfi_offset %rbp, -16
	movq	%rsp, %rbp
	.cfi_def_cfa_register %rbp
	pushq	%rbx
	subq	$40, %rsp
	.cfi_offset %rbx, -24
	movl	$1471645698, -36(%rbp)  # imm = 0x57B78802
	movl	%edi, -16(%rbp)
	movq	%rsi, -48(%rbp)
	movl	%edx, -28(%rbp)
	movl	%ecx, -32(%rbp)
	movl	-32(%rbp), %eax
	movl	%eax, -20(%rbp)
	movl	-28(%rbp), %eax
	movl	%eax, -24(%rbp)
	movslq	-16(%rbp), %rax
	imulq	$24, %rax, %rax
	movabsq	$sei_message, %rcx
	addq	%rax, %rcx
	movl	4(%rcx), %eax
	movl	%eax, -12(%rbp)
.LBB51_1:                               # %while.cond
                                        # =>This Inner Loop Header: Depth=1
	cmpl	$255, -20(%rbp)
	jle	.LBB51_3
# %bb.2:                                # %while.body
                                        #   in Loop: Header=BB51_1 Depth=1
	movslq	-16(%rbp), %rax
	imulq	$24, %rax, %rax
	movabsq	$sei_message, %rcx
	addq	%rax, %rcx
	movq	16(%rcx), %rax
	movl	-12(%rbp), %ecx
	movl	%ecx, %edx
	addl	$1, %edx
	movl	%edx, -12(%rbp)
	movslq	%ecx, %rcx
	movb	$-1, (%rax,%rcx)
	movl	-20(%rbp), %eax
	subl	$255, %eax
	movl	%eax, -20(%rbp)
	jmp	.LBB51_1
.LBB51_3:                               # %while.end
	movl	-20(%rbp), %eax
	movslq	-16(%rbp), %rcx
	imulq	$24, %rcx, %rcx
	movabsq	$sei_message, %rdx
	addq	%rcx, %rdx
	movq	16(%rdx), %rcx
	movl	-12(%rbp), %edx
	movl	%edx, %esi
	addl	$1, %esi
	movl	%esi, -12(%rbp)
	movslq	%edx, %rdx
	movb	%al, (%rcx,%rdx)
.LBB51_4:                               # %while.cond11
                                        # =>This Inner Loop Header: Depth=1
	cmpl	$255, -24(%rbp)
	jle	.LBB51_6
# %bb.5:                                # %while.body14
                                        #   in Loop: Header=BB51_4 Depth=1
	movslq	-16(%rbp), %rax
	imulq	$24, %rax, %rax
	movabsq	$sei_message, %rcx
	addq	%rax, %rcx
	movq	16(%rcx), %rax
	movl	-12(%rbp), %ecx
	movl	%ecx, %edx
	addl	$1, %edx
	movl	%edx, -12(%rbp)
	movslq	%ecx, %rcx
	movb	$-1, (%rax,%rcx)
	movl	-24(%rbp), %eax
	subl	$255, %eax
	movl	%eax, -24(%rbp)
	jmp	.LBB51_4
.LBB51_6:                               # %while.end22
	movl	-24(%rbp), %eax
	movslq	-16(%rbp), %rcx
	imulq	$24, %rcx, %rcx
	movabsq	$sei_message, %rbx
	movq	%rbx, %rdx
	addq	%rcx, %rdx
	movq	16(%rdx), %rcx
	movl	-12(%rbp), %edx
	movl	%edx, %esi
	addl	$1, %esi
	movl	%esi, -12(%rbp)
	movslq	%edx, %rdx
	movb	%al, (%rcx,%rdx)
	movslq	-16(%rbp), %rax
	imulq	$24, %rax, %rax
	movq	%rbx, %rcx
	addq	%rax, %rcx
	movq	16(%rcx), %rdi
	movslq	-12(%rbp), %rax
	addq	%rax, %rdi
	movq	-48(%rbp), %rsi
	movslq	-28(%rbp), %rdx
	callq	memcpy
	movl	-28(%rbp), %eax
	addl	-12(%rbp), %eax
	movl	%eax, -12(%rbp)
	movl	-12(%rbp), %eax
	movslq	-16(%rbp), %rcx
	imulq	$24, %rcx, %rcx
	addq	%rcx, %rbx
	movl	%eax, 4(%rbx)
	cmpl	$1471645698, -36(%rbp)  # imm = 0x57B78802
	jne	.LBB51_8
.LBB51_7:
	addq	$40, %rsp
	popq	%rbx
	popq	%rbp
	.cfi_def_cfa %rsp, 8
	retq
.LBB51_8:                               # %func_exit
	.cfi_def_cfa %rbp, 16
	callq	detect_breach
	jmp	.LBB51_7
.Lfunc_end51:
	.size	write_sei_message.2, .Lfunc_end51-write_sei_message.2
	.cfi_endproc
                                        # -- End function
	.globl	FinalizeSubseqInfo.3    # -- Begin function FinalizeSubseqInfo.3
	.p2align	4, 0x90
	.type	FinalizeSubseqInfo.3,@function
FinalizeSubseqInfo.3:                   # @FinalizeSubseqInfo.3
	.cfi_startproc
# %bb.0:                                # %entry
	pushq	%rbp
	.cfi_def_cfa_offset 16
	.cfi_offset %rbp, -16
	movq	%rsp, %rbp
	.cfi_def_cfa_register %rbp
	subq	$64, %rsp
	movl	$1114666993, -16(%rbp)  # imm = 0x427077F1
	movl	%edi, -12(%rbp)
	movslq	-12(%rbp), %rax
	shlq	$5, %rax
	movabsq	$seiSubseqInfo, %rcx
	movq	%rcx, %rdx
	addq	%rax, %rdx
	movq	24(%rdx), %rax
	movq	%rax, -8(%rbp)
	movl	$0, -64(%rbp)
	movabsq	$ue_linfo, %rax
	movq	%rax, -32(%rbp)
	movslq	-12(%rbp), %rax
	shlq	$5, %rax
	addq	%rax, %rcx
	movl	(%rcx), %eax
	movl	%eax, -60(%rbp)
	movq	-8(%rbp), %rsi
	leaq	-64(%rbp), %rdi
	callq	writeSyntaxElement2Buf_UVLC
	movslq	-12(%rbp), %rax
	shlq	$5, %rax
	movabsq	$seiSubseqInfo, %rcx
	addq	%rax, %rcx
	movl	4(%rcx), %eax
	movl	%eax, -60(%rbp)
	movq	-8(%rbp), %rsi
	leaq	-64(%rbp), %rdi
	callq	writeSyntaxElement2Buf_UVLC
	movslq	-12(%rbp), %rax
	shlq	$5, %rax
	movabsq	$seiSubseqInfo, %rcx
	addq	%rax, %rcx
	movl	8(%rcx), %eax
	movl	%eax, -44(%rbp)
	movl	$1, -52(%rbp)
	movq	-8(%rbp), %rsi
	leaq	-64(%rbp), %rdi
	callq	writeSyntaxElement2Buf_Fixed
	movslq	-12(%rbp), %rax
	shlq	$5, %rax
	movabsq	$seiSubseqInfo, %rcx
	addq	%rax, %rcx
	movl	12(%rcx), %eax
	movl	%eax, -60(%rbp)
	movq	-8(%rbp), %rsi
	leaq	-64(%rbp), %rdi
	callq	writeSyntaxElement2Buf_UVLC
	movq	-8(%rbp), %rax
	cmpl	$8, 4(%rax)
	je	.LBB52_4
# %bb.1:                                # %if.then
	movq	-8(%rbp), %rax
	movzbl	8(%rax), %ecx
	shll	$1, %ecx
	movb	%cl, 8(%rax)
	movq	-8(%rbp), %rax
	movzbl	8(%rax), %ecx
	orl	$1, %ecx
	movb	%cl, 8(%rax)
	movq	-8(%rbp), %rax
	movl	4(%rax), %ecx
	addl	$-1, %ecx
	movl	%ecx, 4(%rax)
	movq	-8(%rbp), %rax
	cmpl	$0, 4(%rax)
	je	.LBB52_3
# %bb.2:                                # %if.then22
	movq	-8(%rbp), %rax
	movl	4(%rax), %ecx
	movq	-8(%rbp), %rax
	movzbl	8(%rax), %edx
                                        # kill: def $cl killed $ecx
	shll	%cl, %edx
	movb	%dl, 8(%rax)
.LBB52_3:                               # %if.end
	movq	-8(%rbp), %rax
	movl	$8, 4(%rax)
	movq	-8(%rbp), %rax
	movb	8(%rax), %al
	movq	-8(%rbp), %rcx
	movq	32(%rcx), %rcx
	movq	-8(%rbp), %rdx
	movl	(%rdx), %esi
	movl	%esi, %edi
	addl	$1, %edi
	movl	%edi, (%rdx)
	movslq	%esi, %rdx
	movb	%al, (%rcx,%rdx)
	movq	-8(%rbp), %rax
	movb	$0, 8(%rax)
.LBB52_4:                               # %if.end33
	movq	-8(%rbp), %rax
	movl	(%rax), %eax
	movslq	-12(%rbp), %rcx
	shlq	$5, %rcx
	movabsq	$seiSubseqInfo, %rdx
	addq	%rcx, %rdx
	movl	%eax, 16(%rdx)
	cmpl	$1114666993, -16(%rbp)  # imm = 0x427077F1
	jne	.LBB52_6
.LBB52_5:
	addq	$64, %rsp
	popq	%rbp
	.cfi_def_cfa %rsp, 8
	retq
.LBB52_6:                               # %func_exit
	.cfi_def_cfa %rbp, 16
	callq	detect_breach
	jmp	.LBB52_5
.Lfunc_end52:
	.size	FinalizeSubseqInfo.3, .Lfunc_end52-FinalizeSubseqInfo.3
	.cfi_endproc
                                        # -- End function
	.globl	FinalizeSceneInformation.4 # -- Begin function FinalizeSceneInformation.4
	.p2align	4, 0x90
	.type	FinalizeSceneInformation.4,@function
FinalizeSceneInformation.4:             # @FinalizeSceneInformation.4
	.cfi_startproc
# %bb.0:                                # %entry
	pushq	%rbp
	.cfi_def_cfa_offset 16
	.cfi_offset %rbp, -16
	movq	%rsp, %rbp
	.cfi_def_cfa_register %rbp
	subq	$64, %rsp
	movl	$941206223, -12(%rbp)   # imm = 0x3819AACF
	movq	seiSceneInformation+16, %rax
	movq	%rax, -8(%rbp)
	movl	$0, -64(%rbp)
	movabsq	$ue_linfo, %rax
	movq	%rax, -32(%rbp)
	movl	seiSceneInformation, %eax
	movl	%eax, -44(%rbp)
	movl	$8, -52(%rbp)
	movq	-8(%rbp), %rsi
	leaq	-64(%rbp), %rdi
	callq	writeSyntaxElement2Buf_Fixed
	movl	seiSceneInformation+4, %eax
	movl	%eax, -60(%rbp)
	movq	-8(%rbp), %rsi
	leaq	-64(%rbp), %rdi
	callq	writeSyntaxElement2Buf_UVLC
	cmpl	$3, seiSceneInformation+4
	jle	.LBB53_2
# %bb.1:                                # %if.then
	movl	seiSceneInformation+8, %eax
	movl	%eax, -44(%rbp)
	movl	$8, -52(%rbp)
	movq	-8(%rbp), %rsi
	leaq	-64(%rbp), %rdi
	callq	writeSyntaxElement2Buf_Fixed
.LBB53_2:                               # %if.end
	movq	-8(%rbp), %rax
	cmpl	$8, 4(%rax)
	je	.LBB53_6
# %bb.3:                                # %if.then6
	movq	-8(%rbp), %rax
	movzbl	8(%rax), %ecx
	shll	$1, %ecx
	movb	%cl, 8(%rax)
	movq	-8(%rbp), %rax
	movzbl	8(%rax), %ecx
	orl	$1, %ecx
	movb	%cl, 8(%rax)
	movq	-8(%rbp), %rax
	movl	4(%rax), %ecx
	addl	$-1, %ecx
	movl	%ecx, 4(%rax)
	movq	-8(%rbp), %rax
	cmpl	$0, 4(%rax)
	je	.LBB53_5
# %bb.4:                                # %if.then15
	movq	-8(%rbp), %rax
	movl	4(%rax), %ecx
	movq	-8(%rbp), %rax
	movzbl	8(%rax), %edx
                                        # kill: def $cl killed $ecx
	shll	%cl, %edx
	movb	%dl, 8(%rax)
.LBB53_5:                               # %if.end21
	movq	-8(%rbp), %rax
	movl	$8, 4(%rax)
	movq	-8(%rbp), %rax
	movb	8(%rax), %al
	movq	-8(%rbp), %rcx
	movq	32(%rcx), %rcx
	movq	-8(%rbp), %rdx
	movl	(%rdx), %esi
	movl	%esi, %edi
	addl	$1, %edi
	movl	%edi, (%rdx)
	movslq	%esi, %rdx
	movb	%al, (%rcx,%rdx)
	movq	-8(%rbp), %rax
	movb	$0, 8(%rax)
.LBB53_6:                               # %if.end25
	movq	-8(%rbp), %rax
	movl	(%rax), %eax
	movl	%eax, seiSceneInformation+24
	cmpl	$941206223, -12(%rbp)   # imm = 0x3819AACF
	jne	.LBB53_8
.LBB53_7:
	addq	$64, %rsp
	popq	%rbp
	.cfi_def_cfa %rsp, 8
	retq
.LBB53_8:                               # %func_exit
	.cfi_def_cfa %rbp, 16
	callq	detect_breach
	jmp	.LBB53_7
.Lfunc_end53:
	.size	FinalizeSceneInformation.4, .Lfunc_end53-FinalizeSceneInformation.4
	.cfi_endproc
                                        # -- End function
	.globl	FinalizeSceneInformation.5 # -- Begin function FinalizeSceneInformation.5
	.p2align	4, 0x90
	.type	FinalizeSceneInformation.5,@function
FinalizeSceneInformation.5:             # @FinalizeSceneInformation.5
	.cfi_startproc
# %bb.0:                                # %entry
	pushq	%rbp
	.cfi_def_cfa_offset 16
	.cfi_offset %rbp, -16
	movq	%rsp, %rbp
	.cfi_def_cfa_register %rbp
	subq	$64, %rsp
	movl	$231384136, -12(%rbp)   # imm = 0xDCAA448
	movq	seiSceneInformation+16, %rax
	movq	%rax, -8(%rbp)
	movl	$0, -64(%rbp)
	movabsq	$ue_linfo, %rax
	movq	%rax, -32(%rbp)
	movl	seiSceneInformation, %eax
	movl	%eax, -44(%rbp)
	movl	$8, -52(%rbp)
	movq	-8(%rbp), %rsi
	leaq	-64(%rbp), %rdi
	callq	writeSyntaxElement2Buf_Fixed
	movl	seiSceneInformation+4, %eax
	movl	%eax, -60(%rbp)
	movq	-8(%rbp), %rsi
	leaq	-64(%rbp), %rdi
	callq	writeSyntaxElement2Buf_UVLC
	cmpl	$3, seiSceneInformation+4
	jle	.LBB54_2
# %bb.1:                                # %if.then
	movl	seiSceneInformation+8, %eax
	movl	%eax, -44(%rbp)
	movl	$8, -52(%rbp)
	movq	-8(%rbp), %rsi
	leaq	-64(%rbp), %rdi
	callq	writeSyntaxElement2Buf_Fixed
.LBB54_2:                               # %if.end
	movq	-8(%rbp), %rax
	cmpl	$8, 4(%rax)
	je	.LBB54_6
# %bb.3:                                # %if.then6
	movq	-8(%rbp), %rax
	movzbl	8(%rax), %ecx
	shll	$1, %ecx
	movb	%cl, 8(%rax)
	movq	-8(%rbp), %rax
	movzbl	8(%rax), %ecx
	orl	$1, %ecx
	movb	%cl, 8(%rax)
	movq	-8(%rbp), %rax
	movl	4(%rax), %ecx
	addl	$-1, %ecx
	movl	%ecx, 4(%rax)
	movq	-8(%rbp), %rax
	cmpl	$0, 4(%rax)
	je	.LBB54_5
# %bb.4:                                # %if.then15
	movq	-8(%rbp), %rax
	movl	4(%rax), %ecx
	movq	-8(%rbp), %rax
	movzbl	8(%rax), %edx
                                        # kill: def $cl killed $ecx
	shll	%cl, %edx
	movb	%dl, 8(%rax)
.LBB54_5:                               # %if.end21
	movq	-8(%rbp), %rax
	movl	$8, 4(%rax)
	movq	-8(%rbp), %rax
	movb	8(%rax), %al
	movq	-8(%rbp), %rcx
	movq	32(%rcx), %rcx
	movq	-8(%rbp), %rdx
	movl	(%rdx), %esi
	movl	%esi, %edi
	addl	$1, %edi
	movl	%edi, (%rdx)
	movslq	%esi, %rdx
	movb	%al, (%rcx,%rdx)
	movq	-8(%rbp), %rax
	movb	$0, 8(%rax)
.LBB54_6:                               # %if.end25
	movq	-8(%rbp), %rax
	movl	(%rax), %eax
	movl	%eax, seiSceneInformation+24
	cmpl	$231384136, -12(%rbp)   # imm = 0xDCAA448
	jne	.LBB54_8
.LBB54_7:
	addq	$64, %rsp
	popq	%rbp
	.cfi_def_cfa %rsp, 8
	retq
.LBB54_8:                               # %func_exit
	.cfi_def_cfa %rbp, 16
	callq	detect_breach
	jmp	.LBB54_7
.Lfunc_end54:
	.size	FinalizeSceneInformation.5, .Lfunc_end54-FinalizeSceneInformation.5
	.cfi_endproc
                                        # -- End function
	.globl	UpdateSceneInformation.6 # -- Begin function UpdateSceneInformation.6
	.p2align	4, 0x90
	.type	UpdateSceneInformation.6,@function
UpdateSceneInformation.6:               # @UpdateSceneInformation.6
	.cfi_startproc
# %bb.0:                                # %entry
	pushq	%rbp
	.cfi_def_cfa_offset 16
	.cfi_offset %rbp, -16
	movq	%rsp, %rbp
	.cfi_def_cfa_register %rbp
	subq	$32, %rsp
	movl	$1172009202, -12(%rbp)  # imm = 0x45DB70F2
	movl	%edi, -8(%rbp)
	movl	%esi, -20(%rbp)
	movl	%edx, -4(%rbp)
	movl	%ecx, -16(%rbp)
	movl	-8(%rbp), %eax
	movl	%eax, seiHasSceneInformation
	movl	-20(%rbp), %eax
	movl	%eax, seiSceneInformation
	movl	-4(%rbp), %eax
	movl	%eax, seiSceneInformation+4
	cmpl	$3, -4(%rbp)
	jle	.LBB55_2
# %bb.1:                                # %if.then
	movl	-16(%rbp), %eax
	movl	%eax, seiSceneInformation+8
.LBB55_2:                               # %if.end
	cmpl	$1172009202, -12(%rbp)  # imm = 0x45DB70F2
	jne	.LBB55_4
.LBB55_3:
	addq	$32, %rsp
	popq	%rbp
	.cfi_def_cfa %rsp, 8
	retq
.LBB55_4:                               # %func_exit
	.cfi_def_cfa %rbp, 16
	callq	detect_breach
	jmp	.LBB55_3
.Lfunc_end55:
	.size	UpdateSceneInformation.6, .Lfunc_end55-UpdateSceneInformation.6
	.cfi_endproc
                                        # -- End function
	.globl	ComposeSparePictureMessage.7 # -- Begin function ComposeSparePictureMessage.7
	.p2align	4, 0x90
	.type	ComposeSparePictureMessage.7,@function
ComposeSparePictureMessage.7:           # @ComposeSparePictureMessage.7
	.cfi_startproc
# %bb.0:                                # %entry
	pushq	%rbp
	.cfi_def_cfa_offset 16
	.cfi_offset %rbp, -16
	movq	%rsp, %rbp
	.cfi_def_cfa_register %rbp
	subq	$80, %rsp
	movl	$201909108, -16(%rbp)   # imm = 0xC08E374
	movl	%edi, -20(%rbp)
	movl	%esi, -12(%rbp)
	movq	%rdx, -32(%rbp)
	movq	seiSparePicturePayload+16, %rax
	movq	%rax, -8(%rbp)
	movl	$0, -80(%rbp)
	movabsq	$ue_linfo, %rax
	movq	%rax, -48(%rbp)
	movl	-20(%rbp), %eax
	movl	%eax, -76(%rbp)
	movq	-8(%rbp), %rsi
	leaq	-80(%rbp), %rdi
	callq	writeSyntaxElement2Buf_UVLC
	movl	-12(%rbp), %eax
	movl	%eax, -76(%rbp)
	movq	-8(%rbp), %rsi
	leaq	-80(%rbp), %rdi
	callq	writeSyntaxElement2Buf_UVLC
	movq	-8(%rbp), %rdi
	movq	-32(%rbp), %rsi
	callq	AppendTmpbits2Buf
	cmpl	$201909108, -16(%rbp)   # imm = 0xC08E374
	jne	.LBB56_2
.LBB56_1:
	addq	$80, %rsp
	popq	%rbp
	.cfi_def_cfa %rsp, 8
	retq
.LBB56_2:                               # %func_exit
	.cfi_def_cfa %rbp, 16
	callq	detect_breach
	jmp	.LBB56_1
.Lfunc_end56:
	.size	ComposeSparePictureMessage.7, .Lfunc_end56-ComposeSparePictureMessage.7
	.cfi_endproc
                                        # -- End function
	.globl	FinalizeSpareMBMap.8    # -- Begin function FinalizeSpareMBMap.8
	.p2align	4, 0x90
	.type	FinalizeSpareMBMap.8,@function
FinalizeSpareMBMap.8:                   # @FinalizeSpareMBMap.8
	.cfi_startproc
# %bb.0:                                # %entry
	pushq	%rbp
	.cfi_def_cfa_offset 16
	.cfi_offset %rbp, -16
	movq	%rsp, %rbp
	.cfi_def_cfa_register %rbp
	subq	$80, %rsp
	movl	$117045149, -28(%rbp)   # imm = 0x6F9F79D
	movq	img, %rax
	movl	(%rax), %eax
	cltd
	movl	$256, %ecx              # imm = 0x100
	idivl	%ecx
	movl	%edx, -32(%rbp)
	movl	$0, -80(%rbp)
	movabsq	$ue_linfo, %rax
	movq	%rax, -48(%rbp)
	movq	seiSparePicturePayload+16, %rax
	movq	%rax, -24(%rbp)
	movl	$48, %edi
	callq	malloc
	movq	%rax, -8(%rbp)
	cmpq	$0, -8(%rbp)
	jne	.LBB57_2
# %bb.1:                                # %if.then
	movabsq	$.L.str.3, %rdi
	callq	no_mem_exit
.LBB57_2:                               # %if.end
	movl	$65496, %edi            # imm = 0xFFD8
	callq	malloc
	movq	-8(%rbp), %rcx
	movq	%rax, 32(%rcx)
	movq	-8(%rbp), %rax
	cmpq	$0, 32(%rax)
	jne	.LBB57_4
# %bb.3:                                # %if.then4
	movabsq	$.L.str.4, %rdi
	callq	no_mem_exit
.LBB57_4:                               # %if.end5
	movq	-8(%rbp), %rax
	movl	$8, 4(%rax)
	movq	-8(%rbp), %rax
	movl	$0, (%rax)
	movq	-8(%rbp), %rax
	movb	$0, 8(%rax)
	movq	-8(%rbp), %rax
	movq	32(%rax), %rdi
	xorl	%esi, %esi
	movl	$65496, %edx            # imm = 0xFFD8
	callq	memset
	movl	-32(%rbp), %eax
	subl	seiSparePicturePayload, %eax
	movl	%eax, -12(%rbp)
	cmpl	$0, -12(%rbp)
	jge	.LBB57_6
# %bb.5:                                # %if.then8
	movl	-12(%rbp), %eax
	addl	$256, %eax              # imm = 0x100
	movl	%eax, -12(%rbp)
.LBB57_6:                               # %if.end9
	movl	-12(%rbp), %eax
	movl	%eax, -76(%rbp)
	movq	-8(%rbp), %rsi
	leaq	-80(%rbp), %rdi
	callq	writeSyntaxElement2Buf_UVLC
	movl	seiSparePicturePayload+4, %eax
	subl	$1, %eax
	movl	%eax, -76(%rbp)
	movq	-8(%rbp), %rsi
	leaq	-80(%rbp), %rdi
	callq	writeSyntaxElement2Buf_UVLC
	movq	-8(%rbp), %rdi
	movq	-24(%rbp), %rsi
	callq	AppendTmpbits2Buf
	movq	-8(%rbp), %rax
	cmpl	$8, 4(%rax)
	je	.LBB57_10
# %bb.7:                                # %if.then16
	movq	-8(%rbp), %rax
	movzbl	8(%rax), %ecx
	shll	$1, %ecx
	movb	%cl, 8(%rax)
	movq	-8(%rbp), %rax
	movzbl	8(%rax), %ecx
	orl	$1, %ecx
	movb	%cl, 8(%rax)
	movq	-8(%rbp), %rax
	movl	4(%rax), %ecx
	addl	$-1, %ecx
	movl	%ecx, 4(%rax)
	movq	-8(%rbp), %rax
	cmpl	$0, 4(%rax)
	je	.LBB57_9
# %bb.8:                                # %if.then26
	movq	-8(%rbp), %rax
	movl	4(%rax), %ecx
	movq	-8(%rbp), %rax
	movzbl	8(%rax), %edx
                                        # kill: def $cl killed $ecx
	shll	%cl, %edx
	movb	%dl, 8(%rax)
.LBB57_9:                               # %if.end32
	movq	-8(%rbp), %rax
	movl	$8, 4(%rax)
	movq	-8(%rbp), %rax
	movb	8(%rax), %al
	movq	-8(%rbp), %rcx
	movq	32(%rcx), %rcx
	movq	-8(%rbp), %rdx
	movl	(%rdx), %esi
	movl	%esi, %edi
	addl	$1, %edi
	movl	%edi, (%rdx)
	movslq	%esi, %rdx
	movb	%al, (%rcx,%rdx)
	movq	-8(%rbp), %rax
	movb	$0, 8(%rax)
.LBB57_10:                              # %if.end38
	movq	-8(%rbp), %rax
	movl	(%rax), %eax
	movl	%eax, seiSparePicturePayload+8
	movq	-8(%rbp), %rax
	movq	%rax, seiSparePicturePayload+16
	movq	-24(%rbp), %rax
	movq	32(%rax), %rdi
	callq	free
	movq	-24(%rbp), %rdi
	callq	free
	cmpl	$117045149, -28(%rbp)   # imm = 0x6F9F79D
	jne	.LBB57_12
.LBB57_11:
	addq	$80, %rsp
	popq	%rbp
	.cfi_def_cfa %rsp, 8
	retq
.LBB57_12:                              # %func_exit
	.cfi_def_cfa %rbp, 16
	callq	detect_breach
	jmp	.LBB57_11
.Lfunc_end57:
	.size	FinalizeSpareMBMap.8, .Lfunc_end57-FinalizeSpareMBMap.8
	.cfi_endproc
                                        # -- End function
	.globl	UpdateSceneInformation.9 # -- Begin function UpdateSceneInformation.9
	.p2align	4, 0x90
	.type	UpdateSceneInformation.9,@function
UpdateSceneInformation.9:               # @UpdateSceneInformation.9
	.cfi_startproc
# %bb.0:                                # %entry
	pushq	%rbp
	.cfi_def_cfa_offset 16
	.cfi_offset %rbp, -16
	movq	%rsp, %rbp
	.cfi_def_cfa_register %rbp
	subq	$32, %rsp
	movl	$1819591822, -16(%rbp)  # imm = 0x6C74C48E
	movl	%edi, -12(%rbp)
	movl	%esi, -8(%rbp)
	movl	%edx, -4(%rbp)
	movl	%ecx, -20(%rbp)
	movl	-12(%rbp), %eax
	movl	%eax, seiHasSceneInformation
	movl	-8(%rbp), %eax
	movl	%eax, seiSceneInformation
	movl	-4(%rbp), %eax
	movl	%eax, seiSceneInformation+4
	cmpl	$3, -4(%rbp)
	jle	.LBB58_2
# %bb.1:                                # %if.then
	movl	-20(%rbp), %eax
	movl	%eax, seiSceneInformation+8
.LBB58_2:                               # %if.end
	cmpl	$1819591822, -16(%rbp)  # imm = 0x6C74C48E
	jne	.LBB58_4
.LBB58_3:
	addq	$32, %rsp
	popq	%rbp
	.cfi_def_cfa %rsp, 8
	retq
.LBB58_4:                               # %func_exit
	.cfi_def_cfa %rbp, 16
	callq	detect_breach
	jmp	.LBB58_3
.Lfunc_end58:
	.size	UpdateSceneInformation.9, .Lfunc_end58-UpdateSceneInformation.9
	.cfi_endproc
                                        # -- End function
	.globl	FinalizeRandomAccess.10 # -- Begin function FinalizeRandomAccess.10
	.p2align	4, 0x90
	.type	FinalizeRandomAccess.10,@function
FinalizeRandomAccess.10:                # @FinalizeRandomAccess.10
	.cfi_startproc
# %bb.0:                                # %entry
	pushq	%rbp
	.cfi_def_cfa_offset 16
	.cfi_offset %rbp, -16
	movq	%rsp, %rbp
	.cfi_def_cfa_register %rbp
	subq	$64, %rsp
	movl	$1437628940, -12(%rbp)  # imm = 0x55B07A0C
	movq	seiRandomAccess+8, %rax
	movq	%rax, -8(%rbp)
	movl	$0, -64(%rbp)
	movabsq	$ue_linfo, %rax
	movq	%rax, -32(%rbp)
	movzbl	seiRandomAccess, %eax
	movl	%eax, -60(%rbp)
	movq	-8(%rbp), %rsi
	leaq	-64(%rbp), %rdi
	callq	writeSyntaxElement2Buf_UVLC
	movzbl	seiRandomAccess+1, %eax
	movl	%eax, -44(%rbp)
	movl	$1, -52(%rbp)
	movq	-8(%rbp), %rsi
	leaq	-64(%rbp), %rdi
	callq	writeSyntaxElement2Buf_Fixed
	movzbl	seiRandomAccess+2, %eax
	movl	%eax, -44(%rbp)
	movl	$1, -52(%rbp)
	movq	-8(%rbp), %rsi
	leaq	-64(%rbp), %rdi
	callq	writeSyntaxElement2Buf_Fixed
	movq	-8(%rbp), %rax
	cmpl	$8, 4(%rax)
	je	.LBB59_4
# %bb.1:                                # %if.then
	movq	-8(%rbp), %rax
	movzbl	8(%rax), %ecx
	shll	$1, %ecx
	movb	%cl, 8(%rax)
	movq	-8(%rbp), %rax
	movzbl	8(%rax), %ecx
	orl	$1, %ecx
	movb	%cl, 8(%rax)
	movq	-8(%rbp), %rax
	movl	4(%rax), %ecx
	addl	$-1, %ecx
	movl	%ecx, 4(%rax)
	movq	-8(%rbp), %rax
	cmpl	$0, 4(%rax)
	je	.LBB59_3
# %bb.2:                                # %if.then17
	movq	-8(%rbp), %rax
	movl	4(%rax), %ecx
	movq	-8(%rbp), %rax
	movzbl	8(%rax), %edx
                                        # kill: def $cl killed $ecx
	shll	%cl, %edx
	movb	%dl, 8(%rax)
.LBB59_3:                               # %if.end
	movq	-8(%rbp), %rax
	movl	$8, 4(%rax)
	movq	-8(%rbp), %rax
	movb	8(%rax), %al
	movq	-8(%rbp), %rcx
	movq	32(%rcx), %rcx
	movq	-8(%rbp), %rdx
	movl	(%rdx), %esi
	movl	%esi, %edi
	addl	$1, %edi
	movl	%edi, (%rdx)
	movslq	%esi, %rdx
	movb	%al, (%rcx,%rdx)
	movq	-8(%rbp), %rax
	movb	$0, 8(%rax)
.LBB59_4:                               # %if.end26
	movq	-8(%rbp), %rax
	movl	(%rax), %eax
	movl	%eax, seiRandomAccess+16
	cmpl	$1437628940, -12(%rbp)  # imm = 0x55B07A0C
	jne	.LBB59_6
.LBB59_5:
	addq	$64, %rsp
	popq	%rbp
	.cfi_def_cfa %rsp, 8
	retq
.LBB59_6:                               # %func_exit
	.cfi_def_cfa %rbp, 16
	callq	detect_breach
	jmp	.LBB59_5
.Lfunc_end59:
	.size	FinalizeRandomAccess.10, .Lfunc_end59-FinalizeRandomAccess.10
	.cfi_endproc
                                        # -- End function
	.globl	finalize_sei_message.11 # -- Begin function finalize_sei_message.11
	.p2align	4, 0x90
	.type	finalize_sei_message.11,@function
finalize_sei_message.11:                # @finalize_sei_message.11
	.cfi_startproc
# %bb.0:                                # %entry
	pushq	%rbp
	.cfi_def_cfa_offset 16
	.cfi_offset %rbp, -16
	movq	%rsp, %rbp
	.cfi_def_cfa_register %rbp
	subq	$16, %rsp
	movl	$1705889685, -12(%rbp)  # imm = 0x65ADCF95
	movl	%edi, -4(%rbp)
	movslq	-4(%rbp), %rax
	imulq	$24, %rax, %rax
	movabsq	$sei_message, %rcx
	movq	%rcx, %rdx
	addq	%rax, %rdx
	movl	4(%rdx), %eax
	movl	%eax, -8(%rbp)
	movslq	-4(%rbp), %rax
	imulq	$24, %rax, %rax
	movq	%rcx, %rdx
	addq	%rax, %rdx
	movq	16(%rdx), %rax
	movslq	-8(%rbp), %rdx
	movb	$-128, (%rax,%rdx)
	movslq	-4(%rbp), %rax
	imulq	$24, %rax, %rax
	movq	%rcx, %rdx
	addq	%rax, %rdx
	movl	4(%rdx), %eax
	addl	$1, %eax
	movl	%eax, 4(%rdx)
	movslq	-4(%rbp), %rax
	imulq	$24, %rax, %rax
	addq	%rax, %rcx
	movl	$1, (%rcx)
	cmpl	$1705889685, -12(%rbp)  # imm = 0x65ADCF95
	jne	.LBB60_2
.LBB60_1:
	addq	$16, %rsp
	popq	%rbp
	.cfi_def_cfa %rsp, 8
	retq
.LBB60_2:                               # %func_exit
	.cfi_def_cfa %rbp, 16
	callq	detect_breach
	jmp	.LBB60_1
.Lfunc_end60:
	.size	finalize_sei_message.11, .Lfunc_end60-finalize_sei_message.11
	.cfi_endproc
                                        # -- End function
	.globl	finalize_sei_message.12 # -- Begin function finalize_sei_message.12
	.p2align	4, 0x90
	.type	finalize_sei_message.12,@function
finalize_sei_message.12:                # @finalize_sei_message.12
	.cfi_startproc
# %bb.0:                                # %entry
	pushq	%rbp
	.cfi_def_cfa_offset 16
	.cfi_offset %rbp, -16
	movq	%rsp, %rbp
	.cfi_def_cfa_register %rbp
	subq	$16, %rsp
	movl	$2111063788, -8(%rbp)   # imm = 0x7DD446EC
	movl	%edi, -4(%rbp)
	movslq	-4(%rbp), %rax
	imulq	$24, %rax, %rax
	movabsq	$sei_message, %rcx
	movq	%rcx, %rdx
	addq	%rax, %rdx
	movl	4(%rdx), %eax
	movl	%eax, -12(%rbp)
	movslq	-4(%rbp), %rax
	imulq	$24, %rax, %rax
	movq	%rcx, %rdx
	addq	%rax, %rdx
	movq	16(%rdx), %rax
	movslq	-12(%rbp), %rdx
	movb	$-128, (%rax,%rdx)
	movslq	-4(%rbp), %rax
	imulq	$24, %rax, %rax
	movq	%rcx, %rdx
	addq	%rax, %rdx
	movl	4(%rdx), %eax
	addl	$1, %eax
	movl	%eax, 4(%rdx)
	movslq	-4(%rbp), %rax
	imulq	$24, %rax, %rax
	addq	%rax, %rcx
	movl	$1, (%rcx)
	cmpl	$2111063788, -8(%rbp)   # imm = 0x7DD446EC
	jne	.LBB61_2
.LBB61_1:
	addq	$16, %rsp
	popq	%rbp
	.cfi_def_cfa %rsp, 8
	retq
.LBB61_2:                               # %func_exit
	.cfi_def_cfa %rbp, 16
	callq	detect_breach
	jmp	.LBB61_1
.Lfunc_end61:
	.size	finalize_sei_message.12, .Lfunc_end61-finalize_sei_message.12
	.cfi_endproc
                                        # -- End function
	.globl	ComposeSparePictureMessage.13 # -- Begin function ComposeSparePictureMessage.13
	.p2align	4, 0x90
	.type	ComposeSparePictureMessage.13,@function
ComposeSparePictureMessage.13:          # @ComposeSparePictureMessage.13
	.cfi_startproc
# %bb.0:                                # %entry
	pushq	%rbp
	.cfi_def_cfa_offset 16
	.cfi_offset %rbp, -16
	movq	%rsp, %rbp
	.cfi_def_cfa_register %rbp
	subq	$80, %rsp
	movl	$1943851428, -16(%rbp)  # imm = 0x73DCD1A4
	movl	%edi, -20(%rbp)
	movl	%esi, -12(%rbp)
	movq	%rdx, -32(%rbp)
	movq	seiSparePicturePayload+16, %rax
	movq	%rax, -8(%rbp)
	movl	$0, -80(%rbp)
	movabsq	$ue_linfo, %rax
	movq	%rax, -48(%rbp)
	movl	-20(%rbp), %eax
	movl	%eax, -76(%rbp)
	movq	-8(%rbp), %rsi
	leaq	-80(%rbp), %rdi
	callq	writeSyntaxElement2Buf_UVLC
	movl	-12(%rbp), %eax
	movl	%eax, -76(%rbp)
	movq	-8(%rbp), %rsi
	leaq	-80(%rbp), %rdi
	callq	writeSyntaxElement2Buf_UVLC
	movq	-8(%rbp), %rdi
	movq	-32(%rbp), %rsi
	callq	AppendTmpbits2Buf
	cmpl	$1943851428, -16(%rbp)  # imm = 0x73DCD1A4
	jne	.LBB62_2
.LBB62_1:
	addq	$80, %rsp
	popq	%rbp
	.cfi_def_cfa %rsp, 8
	retq
.LBB62_2:                               # %func_exit
	.cfi_def_cfa %rbp, 16
	callq	detect_breach
	jmp	.LBB62_1
.Lfunc_end62:
	.size	ComposeSparePictureMessage.13, .Lfunc_end62-ComposeSparePictureMessage.13
	.cfi_endproc
                                        # -- End function
	.globl	UpdateUser_data_registered_itu_t_t35.14 # -- Begin function UpdateUser_data_registered_itu_t_t35.14
	.p2align	4, 0x90
	.type	UpdateUser_data_registered_itu_t_t35.14,@function
UpdateUser_data_registered_itu_t_t35.14: # @UpdateUser_data_registered_itu_t_t35.14
	.cfi_startproc
# %bb.0:                                # %entry
	pushq	%rbp
	.cfi_def_cfa_offset 16
	.cfi_offset %rbp, -16
	movq	%rsp, %rbp
	.cfi_def_cfa_register %rbp
	subq	$32, %rsp
	movl	$455619716, -20(%rbp)   # imm = 0x1B283484
	movl	$82, -12(%rbp)
	cmpl	$255, -12(%rbp)
	jge	.LBB63_2
# %bb.1:                                # %if.then
	movl	-12(%rbp), %eax
	movl	%eax, seiUser_data_registered_itu_t_t35+12
	jmp	.LBB63_3
.LBB63_2:                               # %if.else
	movl	$255, seiUser_data_registered_itu_t_t35+12
	movl	-12(%rbp), %eax
	subl	$255, %eax
	movl	%eax, seiUser_data_registered_itu_t_t35+16
.LBB63_3:                               # %if.end
	movl	$7, -16(%rbp)
	movl	$0, -4(%rbp)
.LBB63_4:                               # %for.cond
                                        # =>This Inner Loop Header: Depth=1
	movl	-4(%rbp), %eax
	cmpl	-16(%rbp), %eax
	jge	.LBB63_16
# %bb.5:                                # %for.body
                                        #   in Loop: Header=BB63_4 Depth=1
	imull	$3, -4(%rbp), %eax
	movl	%eax, -8(%rbp)
	cmpl	$255, -8(%rbp)
	jge	.LBB63_7
# %bb.6:                                # %cond.true
                                        #   in Loop: Header=BB63_4 Depth=1
	movl	-8(%rbp), %eax
	jmp	.LBB63_8
.LBB63_7:                               # %cond.false
                                        #   in Loop: Header=BB63_4 Depth=1
	movl	$255, %eax
	jmp	.LBB63_8
.LBB63_8:                               # %cond.end
                                        #   in Loop: Header=BB63_4 Depth=1
	xorl	%ecx, %ecx
	cmpl	%eax, %ecx
	jle	.LBB63_10
# %bb.9:                                # %cond.true4
                                        #   in Loop: Header=BB63_4 Depth=1
	xorl	%eax, %eax
	jmp	.LBB63_14
.LBB63_10:                              # %cond.false5
                                        #   in Loop: Header=BB63_4 Depth=1
	cmpl	$255, -8(%rbp)
	jge	.LBB63_12
# %bb.11:                               # %cond.true7
                                        #   in Loop: Header=BB63_4 Depth=1
	movl	-8(%rbp), %eax
	jmp	.LBB63_13
.LBB63_12:                              # %cond.false8
                                        #   in Loop: Header=BB63_4 Depth=1
	movl	$255, %eax
	jmp	.LBB63_13
.LBB63_13:                              # %cond.end9
                                        #   in Loop: Header=BB63_4 Depth=1
.LBB63_14:                              # %cond.end11
                                        #   in Loop: Header=BB63_4 Depth=1
	movq	seiUser_data_registered_itu_t_t35, %rcx
	movslq	-4(%rbp), %rdx
	movb	%al, (%rcx,%rdx)
# %bb.15:                               # %for.inc
                                        #   in Loop: Header=BB63_4 Depth=1
	movl	-4(%rbp), %eax
	addl	$1, %eax
	movl	%eax, -4(%rbp)
	jmp	.LBB63_4
.LBB63_16:                              # %for.end
	movl	-16(%rbp), %eax
	movl	%eax, seiUser_data_registered_itu_t_t35+8
	cmpl	$455619716, -20(%rbp)   # imm = 0x1B283484
	jne	.LBB63_18
.LBB63_17:
	addq	$32, %rsp
	popq	%rbp
	.cfi_def_cfa %rsp, 8
	retq
.LBB63_18:                              # %func_exit
	.cfi_def_cfa %rbp, 16
	callq	detect_breach
	jmp	.LBB63_17
.Lfunc_end63:
	.size	UpdateUser_data_registered_itu_t_t35.14, .Lfunc_end63-UpdateUser_data_registered_itu_t_t35.14
	.cfi_endproc
                                        # -- End function
	.globl	AppendTmpbits2Buf.15    # -- Begin function AppendTmpbits2Buf.15
	.p2align	4, 0x90
	.type	AppendTmpbits2Buf.15,@function
AppendTmpbits2Buf.15:                   # @AppendTmpbits2Buf.15
	.cfi_startproc
# %bb.0:                                # %entry
	pushq	%rbp
	.cfi_def_cfa_offset 16
	.cfi_offset %rbp, -16
	movq	%rsp, %rbp
	.cfi_def_cfa_register %rbp
	subq	$48, %rsp
	movl	$793901567, -44(%rbp)   # imm = 0x2F51F9FF
	movq	%rdi, -16(%rbp)
	movq	%rsi, -40(%rbp)
	movl	$0, -24(%rbp)
.LBB64_1:                               # %for.cond
                                        # =>This Loop Header: Depth=1
                                        #     Child Loop BB64_3 Depth 2
	movl	-24(%rbp), %eax
	movq	-40(%rbp), %rcx
	cmpl	(%rcx), %eax
	jge	.LBB64_12
# %bb.2:                                # %for.body
                                        #   in Loop: Header=BB64_1 Depth=1
	movb	$-128, -1(%rbp)
	movl	$0, -20(%rbp)
.LBB64_3:                               # %for.cond1
                                        #   Parent Loop BB64_1 Depth=1
                                        # =>  This Inner Loop Header: Depth=2
	cmpl	$8, -20(%rbp)
	jge	.LBB64_10
# %bb.4:                                # %for.body3
                                        #   in Loop: Header=BB64_3 Depth=2
	movq	-16(%rbp), %rax
	movzbl	8(%rax), %ecx
	shll	$1, %ecx
	movb	%cl, 8(%rax)
	movq	-40(%rbp), %rax
	movq	32(%rax), %rax
	movslq	-24(%rbp), %rcx
	movzbl	(%rax,%rcx), %eax
	movzbl	-1(%rbp), %ecx
	andl	%ecx, %eax
	cmpl	$0, %eax
	je	.LBB64_6
# %bb.5:                                # %if.then
                                        #   in Loop: Header=BB64_3 Depth=2
	movq	-16(%rbp), %rax
	movzbl	8(%rax), %ecx
	orl	$1, %ecx
	movb	%cl, 8(%rax)
.LBB64_6:                               # %if.end
                                        #   in Loop: Header=BB64_3 Depth=2
	movq	-16(%rbp), %rax
	movl	4(%rax), %ecx
	addl	$-1, %ecx
	movl	%ecx, 4(%rax)
	movzbl	-1(%rbp), %eax
	sarl	$1, %eax
	movb	%al, -1(%rbp)
	movq	-16(%rbp), %rax
	cmpl	$0, 4(%rax)
	jne	.LBB64_8
# %bb.7:                                # %if.then15
                                        #   in Loop: Header=BB64_3 Depth=2
	movq	-16(%rbp), %rax
	movl	$8, 4(%rax)
	movq	-16(%rbp), %rax
	movb	8(%rax), %al
	movq	-16(%rbp), %rcx
	movq	32(%rcx), %rcx
	movq	-16(%rbp), %rdx
	movl	(%rdx), %esi
	movl	%esi, %edi
	addl	$1, %edi
	movl	%edi, (%rdx)
	movslq	%esi, %rdx
	movb	%al, (%rcx,%rdx)
	movq	-16(%rbp), %rax
	movb	$0, 8(%rax)
.LBB64_8:                               # %if.end23
                                        #   in Loop: Header=BB64_3 Depth=2
	jmp	.LBB64_9
.LBB64_9:                               # %for.inc
                                        #   in Loop: Header=BB64_3 Depth=2
	movl	-20(%rbp), %eax
	addl	$1, %eax
	movl	%eax, -20(%rbp)
	jmp	.LBB64_3
.LBB64_10:                              # %for.end
                                        #   in Loop: Header=BB64_1 Depth=1
	jmp	.LBB64_11
.LBB64_11:                              # %for.inc25
                                        #   in Loop: Header=BB64_1 Depth=1
	movl	-24(%rbp), %eax
	addl	$1, %eax
	movl	%eax, -24(%rbp)
	jmp	.LBB64_1
.LBB64_12:                              # %for.end27
	movq	-40(%rbp), %rax
	movl	$8, %ecx
	subl	4(%rax), %ecx
	movl	%ecx, -28(%rbp)
	cmpl	$0, -28(%rbp)
	jle	.LBB64_22
# %bb.13:                               # %if.then31
	movl	-28(%rbp), %ecx
	subl	$1, %ecx
                                        # kill: def $cl killed $ecx
	movl	$1, %eax
	shll	%cl, %eax
	movb	%al, -1(%rbp)
	movl	$0, -20(%rbp)
.LBB64_14:                              # %for.cond35
                                        # =>This Inner Loop Header: Depth=1
	movl	-20(%rbp), %eax
	cmpl	-28(%rbp), %eax
	jge	.LBB64_21
# %bb.15:                               # %for.body38
                                        #   in Loop: Header=BB64_14 Depth=1
	movq	-16(%rbp), %rax
	movzbl	8(%rax), %ecx
	shll	$1, %ecx
	movb	%cl, 8(%rax)
	movq	-40(%rbp), %rax
	movzbl	8(%rax), %eax
	movzbl	-1(%rbp), %ecx
	andl	%ecx, %eax
	cmpl	$0, %eax
	je	.LBB64_17
# %bb.16:                               # %if.then48
                                        #   in Loop: Header=BB64_14 Depth=1
	movq	-16(%rbp), %rax
	movzbl	8(%rax), %ecx
	orl	$1, %ecx
	movb	%cl, 8(%rax)
.LBB64_17:                              # %if.end53
                                        #   in Loop: Header=BB64_14 Depth=1
	movq	-16(%rbp), %rax
	movl	4(%rax), %ecx
	addl	$-1, %ecx
	movl	%ecx, 4(%rax)
	movzbl	-1(%rbp), %eax
	sarl	$1, %eax
	movb	%al, -1(%rbp)
	movq	-16(%rbp), %rax
	cmpl	$0, 4(%rax)
	jne	.LBB64_19
# %bb.18:                               # %if.then62
                                        #   in Loop: Header=BB64_14 Depth=1
	movq	-16(%rbp), %rax
	movl	$8, 4(%rax)
	movq	-16(%rbp), %rax
	movb	8(%rax), %al
	movq	-16(%rbp), %rcx
	movq	32(%rcx), %rcx
	movq	-16(%rbp), %rdx
	movl	(%rdx), %esi
	movl	%esi, %edi
	addl	$1, %edi
	movl	%edi, (%rdx)
	movslq	%esi, %rdx
	movb	%al, (%rcx,%rdx)
	movq	-16(%rbp), %rax
	movb	$0, 8(%rax)
.LBB64_19:                              # %if.end71
                                        #   in Loop: Header=BB64_14 Depth=1
	jmp	.LBB64_20
.LBB64_20:                              # %for.inc72
                                        #   in Loop: Header=BB64_14 Depth=1
	movl	-20(%rbp), %eax
	addl	$1, %eax
	movl	%eax, -20(%rbp)
	jmp	.LBB64_14
.LBB64_21:                              # %for.end74
	jmp	.LBB64_22
.LBB64_22:                              # %if.end75
	cmpl	$793901567, -44(%rbp)   # imm = 0x2F51F9FF
	jne	.LBB64_24
.LBB64_23:
	addq	$48, %rsp
	popq	%rbp
	.cfi_def_cfa %rsp, 8
	retq
.LBB64_24:                              # %func_exit
	.cfi_def_cfa %rbp, 16
	callq	detect_breach
	jmp	.LBB64_23
.Lfunc_end64:
	.size	AppendTmpbits2Buf.15, .Lfunc_end64-AppendTmpbits2Buf.15
	.cfi_endproc
                                        # -- End function
	.globl	FinalizeRandomAccess.16 # -- Begin function FinalizeRandomAccess.16
	.p2align	4, 0x90
	.type	FinalizeRandomAccess.16,@function
FinalizeRandomAccess.16:                # @FinalizeRandomAccess.16
	.cfi_startproc
# %bb.0:                                # %entry
	pushq	%rbp
	.cfi_def_cfa_offset 16
	.cfi_offset %rbp, -16
	movq	%rsp, %rbp
	.cfi_def_cfa_register %rbp
	subq	$64, %rsp
	movl	$791105563, -12(%rbp)   # imm = 0x2F27501B
	movq	seiRandomAccess+8, %rax
	movq	%rax, -8(%rbp)
	movl	$0, -64(%rbp)
	movabsq	$ue_linfo, %rax
	movq	%rax, -32(%rbp)
	movzbl	seiRandomAccess, %eax
	movl	%eax, -60(%rbp)
	movq	-8(%rbp), %rsi
	leaq	-64(%rbp), %rdi
	callq	writeSyntaxElement2Buf_UVLC
	movzbl	seiRandomAccess+1, %eax
	movl	%eax, -44(%rbp)
	movl	$1, -52(%rbp)
	movq	-8(%rbp), %rsi
	leaq	-64(%rbp), %rdi
	callq	writeSyntaxElement2Buf_Fixed
	movzbl	seiRandomAccess+2, %eax
	movl	%eax, -44(%rbp)
	movl	$1, -52(%rbp)
	movq	-8(%rbp), %rsi
	leaq	-64(%rbp), %rdi
	callq	writeSyntaxElement2Buf_Fixed
	movq	-8(%rbp), %rax
	cmpl	$8, 4(%rax)
	je	.LBB65_4
# %bb.1:                                # %if.then
	movq	-8(%rbp), %rax
	movzbl	8(%rax), %ecx
	shll	$1, %ecx
	movb	%cl, 8(%rax)
	movq	-8(%rbp), %rax
	movzbl	8(%rax), %ecx
	orl	$1, %ecx
	movb	%cl, 8(%rax)
	movq	-8(%rbp), %rax
	movl	4(%rax), %ecx
	addl	$-1, %ecx
	movl	%ecx, 4(%rax)
	movq	-8(%rbp), %rax
	cmpl	$0, 4(%rax)
	je	.LBB65_3
# %bb.2:                                # %if.then17
	movq	-8(%rbp), %rax
	movl	4(%rax), %ecx
	movq	-8(%rbp), %rax
	movzbl	8(%rax), %edx
                                        # kill: def $cl killed $ecx
	shll	%cl, %edx
	movb	%dl, 8(%rax)
.LBB65_3:                               # %if.end
	movq	-8(%rbp), %rax
	movl	$8, 4(%rax)
	movq	-8(%rbp), %rax
	movb	8(%rax), %al
	movq	-8(%rbp), %rcx
	movq	32(%rcx), %rcx
	movq	-8(%rbp), %rdx
	movl	(%rdx), %esi
	movl	%esi, %edi
	addl	$1, %edi
	movl	%edi, (%rdx)
	movslq	%esi, %rdx
	movb	%al, (%rcx,%rdx)
	movq	-8(%rbp), %rax
	movb	$0, 8(%rax)
.LBB65_4:                               # %if.end26
	movq	-8(%rbp), %rax
	movl	(%rax), %eax
	movl	%eax, seiRandomAccess+16
	cmpl	$791105563, -12(%rbp)   # imm = 0x2F27501B
	jne	.LBB65_6
.LBB65_5:
	addq	$64, %rsp
	popq	%rbp
	.cfi_def_cfa %rsp, 8
	retq
.LBB65_6:                               # %func_exit
	.cfi_def_cfa %rbp, 16
	callq	detect_breach
	jmp	.LBB65_5
.Lfunc_end65:
	.size	FinalizeRandomAccess.16, .Lfunc_end65-FinalizeRandomAccess.16
	.cfi_endproc
                                        # -- End function
	.globl	write_sei_message.17    # -- Begin function write_sei_message.17
	.p2align	4, 0x90
	.type	write_sei_message.17,@function
write_sei_message.17:                   # @write_sei_message.17
	.cfi_startproc
# %bb.0:                                # %entry
	pushq	%rbp
	.cfi_def_cfa_offset 16
	.cfi_offset %rbp, -16
	movq	%rsp, %rbp
	.cfi_def_cfa_register %rbp
	pushq	%rbx
	subq	$40, %rsp
	.cfi_offset %rbx, -24
	movl	$255533285, -36(%rbp)   # imm = 0xF3B20E5
	movl	%edi, -16(%rbp)
	movq	%rsi, -48(%rbp)
	movl	%edx, -28(%rbp)
	movl	%ecx, -32(%rbp)
	movl	-32(%rbp), %eax
	movl	%eax, -24(%rbp)
	movl	-28(%rbp), %eax
	movl	%eax, -20(%rbp)
	movslq	-16(%rbp), %rax
	imulq	$24, %rax, %rax
	movabsq	$sei_message, %rcx
	addq	%rax, %rcx
	movl	4(%rcx), %eax
	movl	%eax, -12(%rbp)
.LBB66_1:                               # %while.cond
                                        # =>This Inner Loop Header: Depth=1
	cmpl	$255, -24(%rbp)
	jle	.LBB66_3
# %bb.2:                                # %while.body
                                        #   in Loop: Header=BB66_1 Depth=1
	movslq	-16(%rbp), %rax
	imulq	$24, %rax, %rax
	movabsq	$sei_message, %rcx
	addq	%rax, %rcx
	movq	16(%rcx), %rax
	movl	-12(%rbp), %ecx
	movl	%ecx, %edx
	addl	$1, %edx
	movl	%edx, -12(%rbp)
	movslq	%ecx, %rcx
	movb	$-1, (%rax,%rcx)
	movl	-24(%rbp), %eax
	subl	$255, %eax
	movl	%eax, -24(%rbp)
	jmp	.LBB66_1
.LBB66_3:                               # %while.end
	movl	-24(%rbp), %eax
	movslq	-16(%rbp), %rcx
	imulq	$24, %rcx, %rcx
	movabsq	$sei_message, %rdx
	addq	%rcx, %rdx
	movq	16(%rdx), %rcx
	movl	-12(%rbp), %edx
	movl	%edx, %esi
	addl	$1, %esi
	movl	%esi, -12(%rbp)
	movslq	%edx, %rdx
	movb	%al, (%rcx,%rdx)
.LBB66_4:                               # %while.cond11
                                        # =>This Inner Loop Header: Depth=1
	cmpl	$255, -20(%rbp)
	jle	.LBB66_6
# %bb.5:                                # %while.body14
                                        #   in Loop: Header=BB66_4 Depth=1
	movslq	-16(%rbp), %rax
	imulq	$24, %rax, %rax
	movabsq	$sei_message, %rcx
	addq	%rax, %rcx
	movq	16(%rcx), %rax
	movl	-12(%rbp), %ecx
	movl	%ecx, %edx
	addl	$1, %edx
	movl	%edx, -12(%rbp)
	movslq	%ecx, %rcx
	movb	$-1, (%rax,%rcx)
	movl	-20(%rbp), %eax
	subl	$255, %eax
	movl	%eax, -20(%rbp)
	jmp	.LBB66_4
.LBB66_6:                               # %while.end22
	movl	-20(%rbp), %eax
	movslq	-16(%rbp), %rcx
	imulq	$24, %rcx, %rcx
	movabsq	$sei_message, %rbx
	movq	%rbx, %rdx
	addq	%rcx, %rdx
	movq	16(%rdx), %rcx
	movl	-12(%rbp), %edx
	movl	%edx, %esi
	addl	$1, %esi
	movl	%esi, -12(%rbp)
	movslq	%edx, %rdx
	movb	%al, (%rcx,%rdx)
	movslq	-16(%rbp), %rax
	imulq	$24, %rax, %rax
	movq	%rbx, %rcx
	addq	%rax, %rcx
	movq	16(%rcx), %rdi
	movslq	-12(%rbp), %rax
	addq	%rax, %rdi
	movq	-48(%rbp), %rsi
	movslq	-28(%rbp), %rdx
	callq	memcpy
	movl	-28(%rbp), %eax
	addl	-12(%rbp), %eax
	movl	%eax, -12(%rbp)
	movl	-12(%rbp), %eax
	movslq	-16(%rbp), %rcx
	imulq	$24, %rcx, %rcx
	addq	%rcx, %rbx
	movl	%eax, 4(%rbx)
	cmpl	$255533285, -36(%rbp)   # imm = 0xF3B20E5
	jne	.LBB66_8
.LBB66_7:
	addq	$40, %rsp
	popq	%rbx
	popq	%rbp
	.cfi_def_cfa %rsp, 8
	retq
.LBB66_8:                               # %func_exit
	.cfi_def_cfa %rbp, 16
	callq	detect_breach
	jmp	.LBB66_7
.Lfunc_end66:
	.size	write_sei_message.17, .Lfunc_end66-write_sei_message.17
	.cfi_endproc
                                        # -- End function
	.globl	ComposeSparePictureMessage.18 # -- Begin function ComposeSparePictureMessage.18
	.p2align	4, 0x90
	.type	ComposeSparePictureMessage.18,@function
ComposeSparePictureMessage.18:          # @ComposeSparePictureMessage.18
	.cfi_startproc
# %bb.0:                                # %entry
	pushq	%rbp
	.cfi_def_cfa_offset 16
	.cfi_offset %rbp, -16
	movq	%rsp, %rbp
	.cfi_def_cfa_register %rbp
	subq	$80, %rsp
	movl	$1891447182, -16(%rbp)  # imm = 0x70BD318E
	movl	%edi, -20(%rbp)
	movl	%esi, -12(%rbp)
	movq	%rdx, -32(%rbp)
	movq	seiSparePicturePayload+16, %rax
	movq	%rax, -8(%rbp)
	movl	$0, -80(%rbp)
	movabsq	$ue_linfo, %rax
	movq	%rax, -48(%rbp)
	movl	-20(%rbp), %eax
	movl	%eax, -76(%rbp)
	movq	-8(%rbp), %rsi
	leaq	-80(%rbp), %rdi
	callq	writeSyntaxElement2Buf_UVLC
	movl	-12(%rbp), %eax
	movl	%eax, -76(%rbp)
	movq	-8(%rbp), %rsi
	leaq	-80(%rbp), %rdi
	callq	writeSyntaxElement2Buf_UVLC
	movq	-8(%rbp), %rdi
	movq	-32(%rbp), %rsi
	callq	AppendTmpbits2Buf
	cmpl	$1891447182, -16(%rbp)  # imm = 0x70BD318E
	jne	.LBB67_2
.LBB67_1:
	addq	$80, %rsp
	popq	%rbp
	.cfi_def_cfa %rsp, 8
	retq
.LBB67_2:                               # %func_exit
	.cfi_def_cfa %rbp, 16
	callq	detect_breach
	jmp	.LBB67_1
.Lfunc_end67:
	.size	ComposeSparePictureMessage.18, .Lfunc_end67-ComposeSparePictureMessage.18
	.cfi_endproc
                                        # -- End function
	.globl	ComposeSparePictureMessage.19 # -- Begin function ComposeSparePictureMessage.19
	.p2align	4, 0x90
	.type	ComposeSparePictureMessage.19,@function
ComposeSparePictureMessage.19:          # @ComposeSparePictureMessage.19
	.cfi_startproc
# %bb.0:                                # %entry
	pushq	%rbp
	.cfi_def_cfa_offset 16
	.cfi_offset %rbp, -16
	movq	%rsp, %rbp
	.cfi_def_cfa_register %rbp
	subq	$80, %rsp
	movl	$1948295254, -12(%rbp)  # imm = 0x7420A056
	movl	%edi, -16(%rbp)
	movl	%esi, -20(%rbp)
	movq	%rdx, -32(%rbp)
	movq	seiSparePicturePayload+16, %rax
	movq	%rax, -8(%rbp)
	movl	$0, -80(%rbp)
	movabsq	$ue_linfo, %rax
	movq	%rax, -48(%rbp)
	movl	-16(%rbp), %eax
	movl	%eax, -76(%rbp)
	movq	-8(%rbp), %rsi
	leaq	-80(%rbp), %rdi
	callq	writeSyntaxElement2Buf_UVLC
	movl	-20(%rbp), %eax
	movl	%eax, -76(%rbp)
	movq	-8(%rbp), %rsi
	leaq	-80(%rbp), %rdi
	callq	writeSyntaxElement2Buf_UVLC
	movq	-8(%rbp), %rdi
	movq	-32(%rbp), %rsi
	callq	AppendTmpbits2Buf
	cmpl	$1948295254, -12(%rbp)  # imm = 0x7420A056
	jne	.LBB68_2
.LBB68_1:
	addq	$80, %rsp
	popq	%rbp
	.cfi_def_cfa %rsp, 8
	retq
.LBB68_2:                               # %func_exit
	.cfi_def_cfa %rbp, 16
	callq	detect_breach
	jmp	.LBB68_1
.Lfunc_end68:
	.size	ComposeSparePictureMessage.19, .Lfunc_end68-ComposeSparePictureMessage.19
	.cfi_endproc
                                        # -- End function
	.globl	FinalizePanScanRectInfo.20 # -- Begin function FinalizePanScanRectInfo.20
	.p2align	4, 0x90
	.type	FinalizePanScanRectInfo.20,@function
FinalizePanScanRectInfo.20:             # @FinalizePanScanRectInfo.20
	.cfi_startproc
# %bb.0:                                # %entry
	pushq	%rbp
	.cfi_def_cfa_offset 16
	.cfi_offset %rbp, -16
	movq	%rsp, %rbp
	.cfi_def_cfa_register %rbp
	subq	$64, %rsp
	movl	$1274310941, -12(%rbp)  # imm = 0x4BF4711D
	movq	seiPanScanRectInfo+24, %rax
	movq	%rax, -8(%rbp)
	movl	$0, -64(%rbp)
	movabsq	$ue_linfo, %rax
	movq	%rax, -32(%rbp)
	movl	seiPanScanRectInfo, %eax
	movl	%eax, -60(%rbp)
	movq	-8(%rbp), %rsi
	leaq	-64(%rbp), %rdi
	callq	writeSyntaxElement2Buf_UVLC
	movl	seiPanScanRectInfo+4, %eax
	movl	%eax, -60(%rbp)
	movq	-8(%rbp), %rsi
	leaq	-64(%rbp), %rdi
	callq	writeSyntaxElement2Buf_UVLC
	movl	seiPanScanRectInfo+8, %eax
	movl	%eax, -60(%rbp)
	movq	-8(%rbp), %rsi
	leaq	-64(%rbp), %rdi
	callq	writeSyntaxElement2Buf_UVLC
	movl	seiPanScanRectInfo+12, %eax
	movl	%eax, -60(%rbp)
	movq	-8(%rbp), %rsi
	leaq	-64(%rbp), %rdi
	callq	writeSyntaxElement2Buf_UVLC
	movl	seiPanScanRectInfo+16, %eax
	movl	%eax, -60(%rbp)
	movq	-8(%rbp), %rsi
	leaq	-64(%rbp), %rdi
	callq	writeSyntaxElement2Buf_UVLC
	movq	-8(%rbp), %rax
	cmpl	$8, 4(%rax)
	je	.LBB69_4
# %bb.1:                                # %if.then
	movq	-8(%rbp), %rax
	movzbl	8(%rax), %ecx
	shll	$1, %ecx
	movb	%cl, 8(%rax)
	movq	-8(%rbp), %rax
	movzbl	8(%rax), %ecx
	orl	$1, %ecx
	movb	%cl, 8(%rax)
	movq	-8(%rbp), %rax
	movl	4(%rax), %ecx
	addl	$-1, %ecx
	movl	%ecx, 4(%rax)
	movq	-8(%rbp), %rax
	cmpl	$0, 4(%rax)
	je	.LBB69_3
# %bb.2:                                # %if.then17
	movq	-8(%rbp), %rax
	movl	4(%rax), %ecx
	movq	-8(%rbp), %rax
	movzbl	8(%rax), %edx
                                        # kill: def $cl killed $ecx
	shll	%cl, %edx
	movb	%dl, 8(%rax)
.LBB69_3:                               # %if.end
	movq	-8(%rbp), %rax
	movl	$8, 4(%rax)
	movq	-8(%rbp), %rax
	movb	8(%rax), %al
	movq	-8(%rbp), %rcx
	movq	32(%rcx), %rcx
	movq	-8(%rbp), %rdx
	movl	(%rdx), %esi
	movl	%esi, %edi
	addl	$1, %edi
	movl	%edi, (%rdx)
	movslq	%esi, %rdx
	movb	%al, (%rcx,%rdx)
	movq	-8(%rbp), %rax
	movb	$0, 8(%rax)
.LBB69_4:                               # %if.end26
	movq	-8(%rbp), %rax
	movl	(%rax), %eax
	movl	%eax, seiPanScanRectInfo+32
	cmpl	$1274310941, -12(%rbp)  # imm = 0x4BF4711D
	jne	.LBB69_6
.LBB69_5:
	addq	$64, %rsp
	popq	%rbp
	.cfi_def_cfa %rsp, 8
	retq
.LBB69_6:                               # %func_exit
	.cfi_def_cfa %rbp, 16
	callq	detect_breach
	jmp	.LBB69_5
.Lfunc_end69:
	.size	FinalizePanScanRectInfo.20, .Lfunc_end69-FinalizePanScanRectInfo.20
	.cfi_endproc
                                        # -- End function
	.globl	FinalizeUser_data_unregistered.21 # -- Begin function FinalizeUser_data_unregistered.21
	.p2align	4, 0x90
	.type	FinalizeUser_data_unregistered.21,@function
FinalizeUser_data_unregistered.21:      # @FinalizeUser_data_unregistered.21
	.cfi_startproc
# %bb.0:                                # %entry
	pushq	%rbp
	.cfi_def_cfa_offset 16
	.cfi_offset %rbp, -16
	movq	%rsp, %rbp
	.cfi_def_cfa_register %rbp
	subq	$64, %rsp
	movl	$1988128281, -16(%rbp)  # imm = 0x76806E19
	movq	seiUser_data_unregistered+16, %rax
	movq	%rax, -8(%rbp)
	movl	$0, -64(%rbp)
	movabsq	$ue_linfo, %rax
	movq	%rax, -32(%rbp)
	movl	$0, -12(%rbp)
.LBB70_1:                               # %for.cond
                                        # =>This Inner Loop Header: Depth=1
	movl	-12(%rbp), %eax
	cmpl	seiUser_data_unregistered+8, %eax
	jge	.LBB70_4
# %bb.2:                                # %for.body
                                        #   in Loop: Header=BB70_1 Depth=1
	movq	seiUser_data_unregistered, %rax
	movslq	-12(%rbp), %rcx
	movsbl	(%rax,%rcx), %eax
	movl	%eax, -44(%rbp)
	movl	$8, -52(%rbp)
	movq	-8(%rbp), %rsi
	leaq	-64(%rbp), %rdi
	callq	writeSyntaxElement2Buf_Fixed
# %bb.3:                                # %for.inc
                                        #   in Loop: Header=BB70_1 Depth=1
	movl	-12(%rbp), %eax
	addl	$1, %eax
	movl	%eax, -12(%rbp)
	jmp	.LBB70_1
.LBB70_4:                               # %for.end
	movq	-8(%rbp), %rax
	cmpl	$8, 4(%rax)
	je	.LBB70_8
# %bb.5:                                # %if.then
	movq	-8(%rbp), %rax
	movzbl	8(%rax), %ecx
	shll	$1, %ecx
	movb	%cl, 8(%rax)
	movq	-8(%rbp), %rax
	movzbl	8(%rax), %ecx
	orl	$1, %ecx
	movb	%cl, 8(%rax)
	movq	-8(%rbp), %rax
	movl	4(%rax), %ecx
	addl	$-1, %ecx
	movl	%ecx, 4(%rax)
	movq	-8(%rbp), %rax
	cmpl	$0, 4(%rax)
	je	.LBB70_7
# %bb.6:                                # %if.then12
	movq	-8(%rbp), %rax
	movl	4(%rax), %ecx
	movq	-8(%rbp), %rax
	movzbl	8(%rax), %edx
                                        # kill: def $cl killed $ecx
	shll	%cl, %edx
	movb	%dl, 8(%rax)
.LBB70_7:                               # %if.end
	movq	-8(%rbp), %rax
	movl	$8, 4(%rax)
	movq	-8(%rbp), %rax
	movb	8(%rax), %al
	movq	-8(%rbp), %rcx
	movq	32(%rcx), %rcx
	movq	-8(%rbp), %rdx
	movl	(%rdx), %esi
	movl	%esi, %edi
	addl	$1, %edi
	movl	%edi, (%rdx)
	movslq	%esi, %rdx
	movb	%al, (%rcx,%rdx)
	movq	-8(%rbp), %rax
	movb	$0, 8(%rax)
.LBB70_8:                               # %if.end24
	movq	-8(%rbp), %rax
	movl	(%rax), %eax
	movl	%eax, seiUser_data_unregistered+24
	cmpl	$1988128281, -16(%rbp)  # imm = 0x76806E19
	jne	.LBB70_10
.LBB70_9:
	addq	$64, %rsp
	popq	%rbp
	.cfi_def_cfa %rsp, 8
	retq
.LBB70_10:                              # %func_exit
	.cfi_def_cfa %rbp, 16
	callq	detect_breach
	jmp	.LBB70_9
.Lfunc_end70:
	.size	FinalizeUser_data_unregistered.21, .Lfunc_end70-FinalizeUser_data_unregistered.21
	.cfi_endproc
                                        # -- End function
	.globl	FinalizePanScanRectInfo.22 # -- Begin function FinalizePanScanRectInfo.22
	.p2align	4, 0x90
	.type	FinalizePanScanRectInfo.22,@function
FinalizePanScanRectInfo.22:             # @FinalizePanScanRectInfo.22
	.cfi_startproc
# %bb.0:                                # %entry
	pushq	%rbp
	.cfi_def_cfa_offset 16
	.cfi_offset %rbp, -16
	movq	%rsp, %rbp
	.cfi_def_cfa_register %rbp
	subq	$64, %rsp
	movl	$1216227539, -12(%rbp)  # imm = 0x487E28D3
	movq	seiPanScanRectInfo+24, %rax
	movq	%rax, -8(%rbp)
	movl	$0, -64(%rbp)
	movabsq	$ue_linfo, %rax
	movq	%rax, -32(%rbp)
	movl	seiPanScanRectInfo, %eax
	movl	%eax, -60(%rbp)
	movq	-8(%rbp), %rsi
	leaq	-64(%rbp), %rdi
	callq	writeSyntaxElement2Buf_UVLC
	movl	seiPanScanRectInfo+4, %eax
	movl	%eax, -60(%rbp)
	movq	-8(%rbp), %rsi
	leaq	-64(%rbp), %rdi
	callq	writeSyntaxElement2Buf_UVLC
	movl	seiPanScanRectInfo+8, %eax
	movl	%eax, -60(%rbp)
	movq	-8(%rbp), %rsi
	leaq	-64(%rbp), %rdi
	callq	writeSyntaxElement2Buf_UVLC
	movl	seiPanScanRectInfo+12, %eax
	movl	%eax, -60(%rbp)
	movq	-8(%rbp), %rsi
	leaq	-64(%rbp), %rdi
	callq	writeSyntaxElement2Buf_UVLC
	movl	seiPanScanRectInfo+16, %eax
	movl	%eax, -60(%rbp)
	movq	-8(%rbp), %rsi
	leaq	-64(%rbp), %rdi
	callq	writeSyntaxElement2Buf_UVLC
	movq	-8(%rbp), %rax
	cmpl	$8, 4(%rax)
	je	.LBB71_4
# %bb.1:                                # %if.then
	movq	-8(%rbp), %rax
	movzbl	8(%rax), %ecx
	shll	$1, %ecx
	movb	%cl, 8(%rax)
	movq	-8(%rbp), %rax
	movzbl	8(%rax), %ecx
	orl	$1, %ecx
	movb	%cl, 8(%rax)
	movq	-8(%rbp), %rax
	movl	4(%rax), %ecx
	addl	$-1, %ecx
	movl	%ecx, 4(%rax)
	movq	-8(%rbp), %rax
	cmpl	$0, 4(%rax)
	je	.LBB71_3
# %bb.2:                                # %if.then17
	movq	-8(%rbp), %rax
	movl	4(%rax), %ecx
	movq	-8(%rbp), %rax
	movzbl	8(%rax), %edx
                                        # kill: def $cl killed $ecx
	shll	%cl, %edx
	movb	%dl, 8(%rax)
.LBB71_3:                               # %if.end
	movq	-8(%rbp), %rax
	movl	$8, 4(%rax)
	movq	-8(%rbp), %rax
	movb	8(%rax), %al
	movq	-8(%rbp), %rcx
	movq	32(%rcx), %rcx
	movq	-8(%rbp), %rdx
	movl	(%rdx), %esi
	movl	%esi, %edi
	addl	$1, %edi
	movl	%edi, (%rdx)
	movslq	%esi, %rdx
	movb	%al, (%rcx,%rdx)
	movq	-8(%rbp), %rax
	movb	$0, 8(%rax)
.LBB71_4:                               # %if.end26
	movq	-8(%rbp), %rax
	movl	(%rax), %eax
	movl	%eax, seiPanScanRectInfo+32
	cmpl	$1216227539, -12(%rbp)  # imm = 0x487E28D3
	jne	.LBB71_6
.LBB71_5:
	addq	$64, %rsp
	popq	%rbp
	.cfi_def_cfa %rsp, 8
	retq
.LBB71_6:                               # %func_exit
	.cfi_def_cfa %rbp, 16
	callq	detect_breach
	jmp	.LBB71_5
.Lfunc_end71:
	.size	FinalizePanScanRectInfo.22, .Lfunc_end71-FinalizePanScanRectInfo.22
	.cfi_endproc
                                        # -- End function
	.globl	FinalizeSubseqChar.23   # -- Begin function FinalizeSubseqChar.23
	.p2align	4, 0x90
	.type	FinalizeSubseqChar.23,@function
FinalizeSubseqChar.23:                  # @FinalizeSubseqChar.23
	.cfi_startproc
# %bb.0:                                # %entry
	pushq	%rbp
	.cfi_def_cfa_offset 16
	.cfi_offset %rbp, -16
	movq	%rsp, %rbp
	.cfi_def_cfa_register %rbp
	subq	$80, %rsp
	movl	$1085168998, -68(%rbp)  # imm = 0x40AE5D66
	movq	seiSubseqChar+72, %rax
	movq	%rax, -8(%rbp)
	movl	$0, -64(%rbp)
	movabsq	$ue_linfo, %rax
	movq	%rax, -32(%rbp)
	movl	seiSubseqChar, %eax
	movl	%eax, -60(%rbp)
	movq	-8(%rbp), %rsi
	leaq	-64(%rbp), %rdi
	callq	writeSyntaxElement2Buf_UVLC
	movl	seiSubseqChar+4, %eax
	movl	%eax, -60(%rbp)
	movq	-8(%rbp), %rsi
	leaq	-64(%rbp), %rdi
	callq	writeSyntaxElement2Buf_UVLC
	movl	seiSubseqChar+8, %eax
	movl	%eax, -44(%rbp)
	movl	$1, -52(%rbp)
	movq	-8(%rbp), %rsi
	leaq	-64(%rbp), %rdi
	callq	writeSyntaxElement2Buf_Fixed
	cmpl	$0, seiSubseqChar+8
	je	.LBB72_2
# %bb.1:                                # %if.then
	movl	seiSubseqChar+12, %eax
	movl	%eax, -44(%rbp)
	movl	$32, -52(%rbp)
	movq	-8(%rbp), %rsi
	leaq	-64(%rbp), %rdi
	callq	writeSyntaxElement2Buf_Fixed
.LBB72_2:                               # %if.end
	movl	seiSubseqChar+16, %eax
	movl	%eax, -44(%rbp)
	movl	$1, -52(%rbp)
	movq	-8(%rbp), %rsi
	leaq	-64(%rbp), %rdi
	callq	writeSyntaxElement2Buf_Fixed
	cmpl	$0, seiSubseqChar+16
	je	.LBB72_4
# %bb.3:                                # %if.then11
	movl	seiSubseqChar+20, %eax
	movl	%eax, -44(%rbp)
	movl	$16, -52(%rbp)
	movq	-8(%rbp), %rsi
	leaq	-64(%rbp), %rdi
	callq	writeSyntaxElement2Buf_Fixed
	movl	seiSubseqChar+24, %eax
	movl	%eax, -44(%rbp)
	movl	$16, -52(%rbp)
	movq	-8(%rbp), %rsi
	leaq	-64(%rbp), %rdi
	callq	writeSyntaxElement2Buf_Fixed
.LBB72_4:                               # %if.end18
	movl	seiSubseqChar+28, %eax
	movl	%eax, -60(%rbp)
	movq	-8(%rbp), %rsi
	leaq	-64(%rbp), %rdi
	callq	writeSyntaxElement2Buf_UVLC
	movl	$0, -12(%rbp)
.LBB72_5:                               # %for.cond
                                        # =>This Inner Loop Header: Depth=1
	movl	-12(%rbp), %eax
	cmpl	seiSubseqChar+28, %eax
	jge	.LBB72_8
# %bb.6:                                # %for.body
                                        #   in Loop: Header=BB72_5 Depth=1
	movslq	-12(%rbp), %rax
	movl	seiSubseqChar+32(,%rax,4), %eax
	movl	%eax, -60(%rbp)
	movq	-8(%rbp), %rsi
	leaq	-64(%rbp), %rdi
	callq	writeSyntaxElement2Buf_UVLC
	movslq	-12(%rbp), %rax
	movl	seiSubseqChar+52(,%rax,4), %eax
	movl	%eax, -60(%rbp)
	movq	-8(%rbp), %rsi
	leaq	-64(%rbp), %rdi
	callq	writeSyntaxElement2Buf_UVLC
# %bb.7:                                # %for.inc
                                        #   in Loop: Header=BB72_5 Depth=1
	movl	-12(%rbp), %eax
	addl	$1, %eax
	movl	%eax, -12(%rbp)
	jmp	.LBB72_5
.LBB72_8:                               # %for.end
	movq	-8(%rbp), %rax
	cmpl	$8, 4(%rax)
	je	.LBB72_12
# %bb.9:                                # %if.then28
	movq	-8(%rbp), %rax
	movzbl	8(%rax), %ecx
	shll	$1, %ecx
	movb	%cl, 8(%rax)
	movq	-8(%rbp), %rax
	movzbl	8(%rax), %ecx
	orl	$1, %ecx
	movb	%cl, 8(%rax)
	movq	-8(%rbp), %rax
	movl	4(%rax), %ecx
	addl	$-1, %ecx
	movl	%ecx, 4(%rax)
	movq	-8(%rbp), %rax
	cmpl	$0, 4(%rax)
	je	.LBB72_11
# %bb.10:                               # %if.then37
	movq	-8(%rbp), %rax
	movl	4(%rax), %ecx
	movq	-8(%rbp), %rax
	movzbl	8(%rax), %edx
                                        # kill: def $cl killed $ecx
	shll	%cl, %edx
	movb	%dl, 8(%rax)
.LBB72_11:                              # %if.end43
	movq	-8(%rbp), %rax
	movl	$8, 4(%rax)
	movq	-8(%rbp), %rax
	movb	8(%rax), %al
	movq	-8(%rbp), %rcx
	movq	32(%rcx), %rcx
	movq	-8(%rbp), %rdx
	movl	(%rdx), %esi
	movl	%esi, %edi
	addl	$1, %edi
	movl	%edi, (%rdx)
	movslq	%esi, %rdx
	movb	%al, (%rcx,%rdx)
	movq	-8(%rbp), %rax
	movb	$0, 8(%rax)
.LBB72_12:                              # %if.end50
	movq	-8(%rbp), %rax
	movl	(%rax), %eax
	movl	%eax, seiSubseqChar+80
	cmpl	$1085168998, -68(%rbp)  # imm = 0x40AE5D66
	jne	.LBB72_14
.LBB72_13:
	addq	$80, %rsp
	popq	%rbp
	.cfi_def_cfa %rsp, 8
	retq
.LBB72_14:                              # %func_exit
	.cfi_def_cfa %rbp, 16
	callq	detect_breach
	jmp	.LBB72_13
.Lfunc_end72:
	.size	FinalizeSubseqChar.23, .Lfunc_end72-FinalizeSubseqChar.23
	.cfi_endproc
                                        # -- End function
	.globl	FinalizeSubseqInfo.24   # -- Begin function FinalizeSubseqInfo.24
	.p2align	4, 0x90
	.type	FinalizeSubseqInfo.24,@function
FinalizeSubseqInfo.24:                  # @FinalizeSubseqInfo.24
	.cfi_startproc
# %bb.0:                                # %entry
	pushq	%rbp
	.cfi_def_cfa_offset 16
	.cfi_offset %rbp, -16
	movq	%rsp, %rbp
	.cfi_def_cfa_register %rbp
	subq	$64, %rsp
	movl	$890827723, -16(%rbp)   # imm = 0x3518F3CB
	movl	%edi, -12(%rbp)
	movslq	-12(%rbp), %rax
	shlq	$5, %rax
	movabsq	$seiSubseqInfo, %rcx
	movq	%rcx, %rdx
	addq	%rax, %rdx
	movq	24(%rdx), %rax
	movq	%rax, -8(%rbp)
	movl	$0, -64(%rbp)
	movabsq	$ue_linfo, %rax
	movq	%rax, -32(%rbp)
	movslq	-12(%rbp), %rax
	shlq	$5, %rax
	addq	%rax, %rcx
	movl	(%rcx), %eax
	movl	%eax, -60(%rbp)
	movq	-8(%rbp), %rsi
	leaq	-64(%rbp), %rdi
	callq	writeSyntaxElement2Buf_UVLC
	movslq	-12(%rbp), %rax
	shlq	$5, %rax
	movabsq	$seiSubseqInfo, %rcx
	addq	%rax, %rcx
	movl	4(%rcx), %eax
	movl	%eax, -60(%rbp)
	movq	-8(%rbp), %rsi
	leaq	-64(%rbp), %rdi
	callq	writeSyntaxElement2Buf_UVLC
	movslq	-12(%rbp), %rax
	shlq	$5, %rax
	movabsq	$seiSubseqInfo, %rcx
	addq	%rax, %rcx
	movl	8(%rcx), %eax
	movl	%eax, -44(%rbp)
	movl	$1, -52(%rbp)
	movq	-8(%rbp), %rsi
	leaq	-64(%rbp), %rdi
	callq	writeSyntaxElement2Buf_Fixed
	movslq	-12(%rbp), %rax
	shlq	$5, %rax
	movabsq	$seiSubseqInfo, %rcx
	addq	%rax, %rcx
	movl	12(%rcx), %eax
	movl	%eax, -60(%rbp)
	movq	-8(%rbp), %rsi
	leaq	-64(%rbp), %rdi
	callq	writeSyntaxElement2Buf_UVLC
	movq	-8(%rbp), %rax
	cmpl	$8, 4(%rax)
	je	.LBB73_4
# %bb.1:                                # %if.then
	movq	-8(%rbp), %rax
	movzbl	8(%rax), %ecx
	shll	$1, %ecx
	movb	%cl, 8(%rax)
	movq	-8(%rbp), %rax
	movzbl	8(%rax), %ecx
	orl	$1, %ecx
	movb	%cl, 8(%rax)
	movq	-8(%rbp), %rax
	movl	4(%rax), %ecx
	addl	$-1, %ecx
	movl	%ecx, 4(%rax)
	movq	-8(%rbp), %rax
	cmpl	$0, 4(%rax)
	je	.LBB73_3
# %bb.2:                                # %if.then22
	movq	-8(%rbp), %rax
	movl	4(%rax), %ecx
	movq	-8(%rbp), %rax
	movzbl	8(%rax), %edx
                                        # kill: def $cl killed $ecx
	shll	%cl, %edx
	movb	%dl, 8(%rax)
.LBB73_3:                               # %if.end
	movq	-8(%rbp), %rax
	movl	$8, 4(%rax)
	movq	-8(%rbp), %rax
	movb	8(%rax), %al
	movq	-8(%rbp), %rcx
	movq	32(%rcx), %rcx
	movq	-8(%rbp), %rdx
	movl	(%rdx), %esi
	movl	%esi, %edi
	addl	$1, %edi
	movl	%edi, (%rdx)
	movslq	%esi, %rdx
	movb	%al, (%rcx,%rdx)
	movq	-8(%rbp), %rax
	movb	$0, 8(%rax)
.LBB73_4:                               # %if.end33
	movq	-8(%rbp), %rax
	movl	(%rax), %eax
	movslq	-12(%rbp), %rcx
	shlq	$5, %rcx
	movabsq	$seiSubseqInfo, %rdx
	addq	%rcx, %rdx
	movl	%eax, 16(%rdx)
	cmpl	$890827723, -16(%rbp)   # imm = 0x3518F3CB
	jne	.LBB73_6
.LBB73_5:
	addq	$64, %rsp
	popq	%rbp
	.cfi_def_cfa %rsp, 8
	retq
.LBB73_6:                               # %func_exit
	.cfi_def_cfa %rbp, 16
	callq	detect_breach
	jmp	.LBB73_5
.Lfunc_end73:
	.size	FinalizeSubseqInfo.24, .Lfunc_end73-FinalizeSubseqInfo.24
	.cfi_endproc
                                        # -- End function
	.globl	FinalizeUser_data_registered_itu_t_t35.25 # -- Begin function FinalizeUser_data_registered_itu_t_t35.25
	.p2align	4, 0x90
	.type	FinalizeUser_data_registered_itu_t_t35.25,@function
FinalizeUser_data_registered_itu_t_t35.25: # @FinalizeUser_data_registered_itu_t_t35.25
	.cfi_startproc
# %bb.0:                                # %entry
	pushq	%rbp
	.cfi_def_cfa_offset 16
	.cfi_offset %rbp, -16
	movq	%rsp, %rbp
	.cfi_def_cfa_register %rbp
	subq	$64, %rsp
	movl	$975358427, -16(%rbp)   # imm = 0x3A22C9DB
	movq	seiUser_data_registered_itu_t_t35+24, %rax
	movq	%rax, -8(%rbp)
	movl	$0, -64(%rbp)
	movabsq	$ue_linfo, %rax
	movq	%rax, -32(%rbp)
	movl	seiUser_data_registered_itu_t_t35+12, %eax
	movl	%eax, -44(%rbp)
	movl	$8, -52(%rbp)
	movq	-8(%rbp), %rsi
	leaq	-64(%rbp), %rdi
	callq	writeSyntaxElement2Buf_Fixed
	cmpl	$255, seiUser_data_registered_itu_t_t35+12
	jne	.LBB74_2
# %bb.1:                                # %if.then
	movl	seiUser_data_registered_itu_t_t35+16, %eax
	movl	%eax, -44(%rbp)
	movl	$8, -52(%rbp)
	movq	-8(%rbp), %rsi
	leaq	-64(%rbp), %rdi
	callq	writeSyntaxElement2Buf_Fixed
.LBB74_2:                               # %if.end
	movl	$0, -12(%rbp)
.LBB74_3:                               # %for.cond
                                        # =>This Inner Loop Header: Depth=1
	movl	-12(%rbp), %eax
	cmpl	seiUser_data_registered_itu_t_t35+8, %eax
	jge	.LBB74_6
# %bb.4:                                # %for.body
                                        #   in Loop: Header=BB74_3 Depth=1
	movq	seiUser_data_registered_itu_t_t35, %rax
	movslq	-12(%rbp), %rcx
	movsbl	(%rax,%rcx), %eax
	movl	%eax, -44(%rbp)
	movl	$8, -52(%rbp)
	movq	-8(%rbp), %rsi
	leaq	-64(%rbp), %rdi
	callq	writeSyntaxElement2Buf_Fixed
# %bb.5:                                # %for.inc
                                        #   in Loop: Header=BB74_3 Depth=1
	movl	-12(%rbp), %eax
	addl	$1, %eax
	movl	%eax, -12(%rbp)
	jmp	.LBB74_3
.LBB74_6:                               # %for.end
	movq	-8(%rbp), %rax
	cmpl	$8, 4(%rax)
	je	.LBB74_10
# %bb.7:                                # %if.then10
	movq	-8(%rbp), %rax
	movzbl	8(%rax), %ecx
	shll	$1, %ecx
	movb	%cl, 8(%rax)
	movq	-8(%rbp), %rax
	movzbl	8(%rax), %ecx
	orl	$1, %ecx
	movb	%cl, 8(%rax)
	movq	-8(%rbp), %rax
	movl	4(%rax), %ecx
	addl	$-1, %ecx
	movl	%ecx, 4(%rax)
	movq	-8(%rbp), %rax
	cmpl	$0, 4(%rax)
	je	.LBB74_9
# %bb.8:                                # %if.then20
	movq	-8(%rbp), %rax
	movl	4(%rax), %ecx
	movq	-8(%rbp), %rax
	movzbl	8(%rax), %edx
                                        # kill: def $cl killed $ecx
	shll	%cl, %edx
	movb	%dl, 8(%rax)
.LBB74_9:                               # %if.end26
	movq	-8(%rbp), %rax
	movl	$8, 4(%rax)
	movq	-8(%rbp), %rax
	movb	8(%rax), %al
	movq	-8(%rbp), %rcx
	movq	32(%rcx), %rcx
	movq	-8(%rbp), %rdx
	movl	(%rdx), %esi
	movl	%esi, %edi
	addl	$1, %edi
	movl	%edi, (%rdx)
	movslq	%esi, %rdx
	movb	%al, (%rcx,%rdx)
	movq	-8(%rbp), %rax
	movb	$0, 8(%rax)
.LBB74_10:                              # %if.end33
	movq	-8(%rbp), %rax
	movl	(%rax), %eax
	movl	%eax, seiUser_data_registered_itu_t_t35+32
	cmpl	$975358427, -16(%rbp)   # imm = 0x3A22C9DB
	jne	.LBB74_12
.LBB74_11:
	addq	$64, %rsp
	popq	%rbp
	.cfi_def_cfa %rsp, 8
	retq
.LBB74_12:                              # %func_exit
	.cfi_def_cfa %rbp, 16
	callq	detect_breach
	jmp	.LBB74_11
.Lfunc_end74:
	.size	FinalizeUser_data_registered_itu_t_t35.25, .Lfunc_end74-FinalizeUser_data_registered_itu_t_t35.25
	.cfi_endproc
                                        # -- End function
	.globl	UpdateSceneInformation.26 # -- Begin function UpdateSceneInformation.26
	.p2align	4, 0x90
	.type	UpdateSceneInformation.26,@function
UpdateSceneInformation.26:              # @UpdateSceneInformation.26
	.cfi_startproc
# %bb.0:                                # %entry
	pushq	%rbp
	.cfi_def_cfa_offset 16
	.cfi_offset %rbp, -16
	movq	%rsp, %rbp
	.cfi_def_cfa_register %rbp
	subq	$32, %rsp
	movl	$1898314692, -20(%rbp)  # imm = 0x7125FBC4
	movl	%edi, -8(%rbp)
	movl	%esi, -12(%rbp)
	movl	%edx, -4(%rbp)
	movl	%ecx, -16(%rbp)
	movl	-8(%rbp), %eax
	movl	%eax, seiHasSceneInformation
	movl	-12(%rbp), %eax
	movl	%eax, seiSceneInformation
	movl	-4(%rbp), %eax
	movl	%eax, seiSceneInformation+4
	cmpl	$3, -4(%rbp)
	jle	.LBB75_2
# %bb.1:                                # %if.then
	movl	-16(%rbp), %eax
	movl	%eax, seiSceneInformation+8
.LBB75_2:                               # %if.end
	cmpl	$1898314692, -20(%rbp)  # imm = 0x7125FBC4
	jne	.LBB75_4
.LBB75_3:
	addq	$32, %rsp
	popq	%rbp
	.cfi_def_cfa %rsp, 8
	retq
.LBB75_4:                               # %func_exit
	.cfi_def_cfa %rbp, 16
	callq	detect_breach
	jmp	.LBB75_3
.Lfunc_end75:
	.size	UpdateSceneInformation.26, .Lfunc_end75-UpdateSceneInformation.26
	.cfi_endproc
                                        # -- End function
	.globl	UpdateUser_data_registered_itu_t_t35.27 # -- Begin function UpdateUser_data_registered_itu_t_t35.27
	.p2align	4, 0x90
	.type	UpdateUser_data_registered_itu_t_t35.27,@function
UpdateUser_data_registered_itu_t_t35.27: # @UpdateUser_data_registered_itu_t_t35.27
	.cfi_startproc
# %bb.0:                                # %entry
	pushq	%rbp
	.cfi_def_cfa_offset 16
	.cfi_offset %rbp, -16
	movq	%rsp, %rbp
	.cfi_def_cfa_register %rbp
	subq	$32, %rsp
	movl	$1508399051, -20(%rbp)  # imm = 0x59E857CB
	movl	$82, -12(%rbp)
	cmpl	$255, -12(%rbp)
	jge	.LBB76_2
# %bb.1:                                # %if.then
	movl	-12(%rbp), %eax
	movl	%eax, seiUser_data_registered_itu_t_t35+12
	jmp	.LBB76_3
.LBB76_2:                               # %if.else
	movl	$255, seiUser_data_registered_itu_t_t35+12
	movl	-12(%rbp), %eax
	subl	$255, %eax
	movl	%eax, seiUser_data_registered_itu_t_t35+16
.LBB76_3:                               # %if.end
	movl	$7, -16(%rbp)
	movl	$0, -4(%rbp)
.LBB76_4:                               # %for.cond
                                        # =>This Inner Loop Header: Depth=1
	movl	-4(%rbp), %eax
	cmpl	-16(%rbp), %eax
	jge	.LBB76_16
# %bb.5:                                # %for.body
                                        #   in Loop: Header=BB76_4 Depth=1
	imull	$3, -4(%rbp), %eax
	movl	%eax, -8(%rbp)
	cmpl	$255, -8(%rbp)
	jge	.LBB76_7
# %bb.6:                                # %cond.true
                                        #   in Loop: Header=BB76_4 Depth=1
	movl	-8(%rbp), %eax
	jmp	.LBB76_8
.LBB76_7:                               # %cond.false
                                        #   in Loop: Header=BB76_4 Depth=1
	movl	$255, %eax
	jmp	.LBB76_8
.LBB76_8:                               # %cond.end
                                        #   in Loop: Header=BB76_4 Depth=1
	xorl	%ecx, %ecx
	cmpl	%eax, %ecx
	jle	.LBB76_10
# %bb.9:                                # %cond.true4
                                        #   in Loop: Header=BB76_4 Depth=1
	xorl	%eax, %eax
	jmp	.LBB76_14
.LBB76_10:                              # %cond.false5
                                        #   in Loop: Header=BB76_4 Depth=1
	cmpl	$255, -8(%rbp)
	jge	.LBB76_12
# %bb.11:                               # %cond.true7
                                        #   in Loop: Header=BB76_4 Depth=1
	movl	-8(%rbp), %eax
	jmp	.LBB76_13
.LBB76_12:                              # %cond.false8
                                        #   in Loop: Header=BB76_4 Depth=1
	movl	$255, %eax
	jmp	.LBB76_13
.LBB76_13:                              # %cond.end9
                                        #   in Loop: Header=BB76_4 Depth=1
.LBB76_14:                              # %cond.end11
                                        #   in Loop: Header=BB76_4 Depth=1
	movq	seiUser_data_registered_itu_t_t35, %rcx
	movslq	-4(%rbp), %rdx
	movb	%al, (%rcx,%rdx)
# %bb.15:                               # %for.inc
                                        #   in Loop: Header=BB76_4 Depth=1
	movl	-4(%rbp), %eax
	addl	$1, %eax
	movl	%eax, -4(%rbp)
	jmp	.LBB76_4
.LBB76_16:                              # %for.end
	movl	-16(%rbp), %eax
	movl	%eax, seiUser_data_registered_itu_t_t35+8
	cmpl	$1508399051, -20(%rbp)  # imm = 0x59E857CB
	jne	.LBB76_18
.LBB76_17:
	addq	$32, %rsp
	popq	%rbp
	.cfi_def_cfa %rsp, 8
	retq
.LBB76_18:                              # %func_exit
	.cfi_def_cfa %rbp, 16
	callq	detect_breach
	jmp	.LBB76_17
.Lfunc_end76:
	.size	UpdateUser_data_registered_itu_t_t35.27, .Lfunc_end76-UpdateUser_data_registered_itu_t_t35.27
	.cfi_endproc
                                        # -- End function
	.globl	FinalizeSubseqChar.28   # -- Begin function FinalizeSubseqChar.28
	.p2align	4, 0x90
	.type	FinalizeSubseqChar.28,@function
FinalizeSubseqChar.28:                  # @FinalizeSubseqChar.28
	.cfi_startproc
# %bb.0:                                # %entry
	pushq	%rbp
	.cfi_def_cfa_offset 16
	.cfi_offset %rbp, -16
	movq	%rsp, %rbp
	.cfi_def_cfa_register %rbp
	subq	$80, %rsp
	movl	$324172314, -68(%rbp)   # imm = 0x13527A1A
	movq	seiSubseqChar+72, %rax
	movq	%rax, -8(%rbp)
	movl	$0, -64(%rbp)
	movabsq	$ue_linfo, %rax
	movq	%rax, -32(%rbp)
	movl	seiSubseqChar, %eax
	movl	%eax, -60(%rbp)
	movq	-8(%rbp), %rsi
	leaq	-64(%rbp), %rdi
	callq	writeSyntaxElement2Buf_UVLC
	movl	seiSubseqChar+4, %eax
	movl	%eax, -60(%rbp)
	movq	-8(%rbp), %rsi
	leaq	-64(%rbp), %rdi
	callq	writeSyntaxElement2Buf_UVLC
	movl	seiSubseqChar+8, %eax
	movl	%eax, -44(%rbp)
	movl	$1, -52(%rbp)
	movq	-8(%rbp), %rsi
	leaq	-64(%rbp), %rdi
	callq	writeSyntaxElement2Buf_Fixed
	cmpl	$0, seiSubseqChar+8
	je	.LBB77_2
# %bb.1:                                # %if.then
	movl	seiSubseqChar+12, %eax
	movl	%eax, -44(%rbp)
	movl	$32, -52(%rbp)
	movq	-8(%rbp), %rsi
	leaq	-64(%rbp), %rdi
	callq	writeSyntaxElement2Buf_Fixed
.LBB77_2:                               # %if.end
	movl	seiSubseqChar+16, %eax
	movl	%eax, -44(%rbp)
	movl	$1, -52(%rbp)
	movq	-8(%rbp), %rsi
	leaq	-64(%rbp), %rdi
	callq	writeSyntaxElement2Buf_Fixed
	cmpl	$0, seiSubseqChar+16
	je	.LBB77_4
# %bb.3:                                # %if.then11
	movl	seiSubseqChar+20, %eax
	movl	%eax, -44(%rbp)
	movl	$16, -52(%rbp)
	movq	-8(%rbp), %rsi
	leaq	-64(%rbp), %rdi
	callq	writeSyntaxElement2Buf_Fixed
	movl	seiSubseqChar+24, %eax
	movl	%eax, -44(%rbp)
	movl	$16, -52(%rbp)
	movq	-8(%rbp), %rsi
	leaq	-64(%rbp), %rdi
	callq	writeSyntaxElement2Buf_Fixed
.LBB77_4:                               # %if.end18
	movl	seiSubseqChar+28, %eax
	movl	%eax, -60(%rbp)
	movq	-8(%rbp), %rsi
	leaq	-64(%rbp), %rdi
	callq	writeSyntaxElement2Buf_UVLC
	movl	$0, -12(%rbp)
.LBB77_5:                               # %for.cond
                                        # =>This Inner Loop Header: Depth=1
	movl	-12(%rbp), %eax
	cmpl	seiSubseqChar+28, %eax
	jge	.LBB77_8
# %bb.6:                                # %for.body
                                        #   in Loop: Header=BB77_5 Depth=1
	movslq	-12(%rbp), %rax
	movl	seiSubseqChar+32(,%rax,4), %eax
	movl	%eax, -60(%rbp)
	movq	-8(%rbp), %rsi
	leaq	-64(%rbp), %rdi
	callq	writeSyntaxElement2Buf_UVLC
	movslq	-12(%rbp), %rax
	movl	seiSubseqChar+52(,%rax,4), %eax
	movl	%eax, -60(%rbp)
	movq	-8(%rbp), %rsi
	leaq	-64(%rbp), %rdi
	callq	writeSyntaxElement2Buf_UVLC
# %bb.7:                                # %for.inc
                                        #   in Loop: Header=BB77_5 Depth=1
	movl	-12(%rbp), %eax
	addl	$1, %eax
	movl	%eax, -12(%rbp)
	jmp	.LBB77_5
.LBB77_8:                               # %for.end
	movq	-8(%rbp), %rax
	cmpl	$8, 4(%rax)
	je	.LBB77_12
# %bb.9:                                # %if.then28
	movq	-8(%rbp), %rax
	movzbl	8(%rax), %ecx
	shll	$1, %ecx
	movb	%cl, 8(%rax)
	movq	-8(%rbp), %rax
	movzbl	8(%rax), %ecx
	orl	$1, %ecx
	movb	%cl, 8(%rax)
	movq	-8(%rbp), %rax
	movl	4(%rax), %ecx
	addl	$-1, %ecx
	movl	%ecx, 4(%rax)
	movq	-8(%rbp), %rax
	cmpl	$0, 4(%rax)
	je	.LBB77_11
# %bb.10:                               # %if.then37
	movq	-8(%rbp), %rax
	movl	4(%rax), %ecx
	movq	-8(%rbp), %rax
	movzbl	8(%rax), %edx
                                        # kill: def $cl killed $ecx
	shll	%cl, %edx
	movb	%dl, 8(%rax)
.LBB77_11:                              # %if.end43
	movq	-8(%rbp), %rax
	movl	$8, 4(%rax)
	movq	-8(%rbp), %rax
	movb	8(%rax), %al
	movq	-8(%rbp), %rcx
	movq	32(%rcx), %rcx
	movq	-8(%rbp), %rdx
	movl	(%rdx), %esi
	movl	%esi, %edi
	addl	$1, %edi
	movl	%edi, (%rdx)
	movslq	%esi, %rdx
	movb	%al, (%rcx,%rdx)
	movq	-8(%rbp), %rax
	movb	$0, 8(%rax)
.LBB77_12:                              # %if.end50
	movq	-8(%rbp), %rax
	movl	(%rax), %eax
	movl	%eax, seiSubseqChar+80
	cmpl	$324172314, -68(%rbp)   # imm = 0x13527A1A
	jne	.LBB77_14
.LBB77_13:
	addq	$80, %rsp
	popq	%rbp
	.cfi_def_cfa %rsp, 8
	retq
.LBB77_14:                              # %func_exit
	.cfi_def_cfa %rbp, 16
	callq	detect_breach
	jmp	.LBB77_13
.Lfunc_end77:
	.size	FinalizeSubseqChar.28, .Lfunc_end77-FinalizeSubseqChar.28
	.cfi_endproc
                                        # -- End function
	.globl	UpdateUser_data_registered_itu_t_t35.29 # -- Begin function UpdateUser_data_registered_itu_t_t35.29
	.p2align	4, 0x90
	.type	UpdateUser_data_registered_itu_t_t35.29,@function
UpdateUser_data_registered_itu_t_t35.29: # @UpdateUser_data_registered_itu_t_t35.29
	.cfi_startproc
# %bb.0:                                # %entry
	pushq	%rbp
	.cfi_def_cfa_offset 16
	.cfi_offset %rbp, -16
	movq	%rsp, %rbp
	.cfi_def_cfa_register %rbp
	subq	$32, %rsp
	movl	$4761799, -20(%rbp)     # imm = 0x48A8C7
	movl	$82, -12(%rbp)
	cmpl	$255, -12(%rbp)
	jge	.LBB78_2
# %bb.1:                                # %if.then
	movl	-12(%rbp), %eax
	movl	%eax, seiUser_data_registered_itu_t_t35+12
	jmp	.LBB78_3
.LBB78_2:                               # %if.else
	movl	$255, seiUser_data_registered_itu_t_t35+12
	movl	-12(%rbp), %eax
	subl	$255, %eax
	movl	%eax, seiUser_data_registered_itu_t_t35+16
.LBB78_3:                               # %if.end
	movl	$7, -16(%rbp)
	movl	$0, -4(%rbp)
.LBB78_4:                               # %for.cond
                                        # =>This Inner Loop Header: Depth=1
	movl	-4(%rbp), %eax
	cmpl	-16(%rbp), %eax
	jge	.LBB78_16
# %bb.5:                                # %for.body
                                        #   in Loop: Header=BB78_4 Depth=1
	imull	$3, -4(%rbp), %eax
	movl	%eax, -8(%rbp)
	cmpl	$255, -8(%rbp)
	jge	.LBB78_7
# %bb.6:                                # %cond.true
                                        #   in Loop: Header=BB78_4 Depth=1
	movl	-8(%rbp), %eax
	jmp	.LBB78_8
.LBB78_7:                               # %cond.false
                                        #   in Loop: Header=BB78_4 Depth=1
	movl	$255, %eax
	jmp	.LBB78_8
.LBB78_8:                               # %cond.end
                                        #   in Loop: Header=BB78_4 Depth=1
	xorl	%ecx, %ecx
	cmpl	%eax, %ecx
	jle	.LBB78_10
# %bb.9:                                # %cond.true4
                                        #   in Loop: Header=BB78_4 Depth=1
	xorl	%eax, %eax
	jmp	.LBB78_14
.LBB78_10:                              # %cond.false5
                                        #   in Loop: Header=BB78_4 Depth=1
	cmpl	$255, -8(%rbp)
	jge	.LBB78_12
# %bb.11:                               # %cond.true7
                                        #   in Loop: Header=BB78_4 Depth=1
	movl	-8(%rbp), %eax
	jmp	.LBB78_13
.LBB78_12:                              # %cond.false8
                                        #   in Loop: Header=BB78_4 Depth=1
	movl	$255, %eax
	jmp	.LBB78_13
.LBB78_13:                              # %cond.end9
                                        #   in Loop: Header=BB78_4 Depth=1
.LBB78_14:                              # %cond.end11
                                        #   in Loop: Header=BB78_4 Depth=1
	movq	seiUser_data_registered_itu_t_t35, %rcx
	movslq	-4(%rbp), %rdx
	movb	%al, (%rcx,%rdx)
# %bb.15:                               # %for.inc
                                        #   in Loop: Header=BB78_4 Depth=1
	movl	-4(%rbp), %eax
	addl	$1, %eax
	movl	%eax, -4(%rbp)
	jmp	.LBB78_4
.LBB78_16:                              # %for.end
	movl	-16(%rbp), %eax
	movl	%eax, seiUser_data_registered_itu_t_t35+8
	cmpl	$4761799, -20(%rbp)     # imm = 0x48A8C7
	jne	.LBB78_18
.LBB78_17:
	addq	$32, %rsp
	popq	%rbp
	.cfi_def_cfa %rsp, 8
	retq
.LBB78_18:                              # %func_exit
	.cfi_def_cfa %rbp, 16
	callq	detect_breach
	jmp	.LBB78_17
.Lfunc_end78:
	.size	UpdateUser_data_registered_itu_t_t35.29, .Lfunc_end78-UpdateUser_data_registered_itu_t_t35.29
	.cfi_endproc
                                        # -- End function
	.globl	FinalizeUser_data_registered_itu_t_t35.30 # -- Begin function FinalizeUser_data_registered_itu_t_t35.30
	.p2align	4, 0x90
	.type	FinalizeUser_data_registered_itu_t_t35.30,@function
FinalizeUser_data_registered_itu_t_t35.30: # @FinalizeUser_data_registered_itu_t_t35.30
	.cfi_startproc
# %bb.0:                                # %entry
	pushq	%rbp
	.cfi_def_cfa_offset 16
	.cfi_offset %rbp, -16
	movq	%rsp, %rbp
	.cfi_def_cfa_register %rbp
	subq	$64, %rsp
	movl	$1159831632, -16(%rbp)  # imm = 0x4521A050
	movq	seiUser_data_registered_itu_t_t35+24, %rax
	movq	%rax, -8(%rbp)
	movl	$0, -64(%rbp)
	movabsq	$ue_linfo, %rax
	movq	%rax, -32(%rbp)
	movl	seiUser_data_registered_itu_t_t35+12, %eax
	movl	%eax, -44(%rbp)
	movl	$8, -52(%rbp)
	movq	-8(%rbp), %rsi
	leaq	-64(%rbp), %rdi
	callq	writeSyntaxElement2Buf_Fixed
	cmpl	$255, seiUser_data_registered_itu_t_t35+12
	jne	.LBB79_2
# %bb.1:                                # %if.then
	movl	seiUser_data_registered_itu_t_t35+16, %eax
	movl	%eax, -44(%rbp)
	movl	$8, -52(%rbp)
	movq	-8(%rbp), %rsi
	leaq	-64(%rbp), %rdi
	callq	writeSyntaxElement2Buf_Fixed
.LBB79_2:                               # %if.end
	movl	$0, -12(%rbp)
.LBB79_3:                               # %for.cond
                                        # =>This Inner Loop Header: Depth=1
	movl	-12(%rbp), %eax
	cmpl	seiUser_data_registered_itu_t_t35+8, %eax
	jge	.LBB79_6
# %bb.4:                                # %for.body
                                        #   in Loop: Header=BB79_3 Depth=1
	movq	seiUser_data_registered_itu_t_t35, %rax
	movslq	-12(%rbp), %rcx
	movsbl	(%rax,%rcx), %eax
	movl	%eax, -44(%rbp)
	movl	$8, -52(%rbp)
	movq	-8(%rbp), %rsi
	leaq	-64(%rbp), %rdi
	callq	writeSyntaxElement2Buf_Fixed
# %bb.5:                                # %for.inc
                                        #   in Loop: Header=BB79_3 Depth=1
	movl	-12(%rbp), %eax
	addl	$1, %eax
	movl	%eax, -12(%rbp)
	jmp	.LBB79_3
.LBB79_6:                               # %for.end
	movq	-8(%rbp), %rax
	cmpl	$8, 4(%rax)
	je	.LBB79_10
# %bb.7:                                # %if.then10
	movq	-8(%rbp), %rax
	movzbl	8(%rax), %ecx
	shll	$1, %ecx
	movb	%cl, 8(%rax)
	movq	-8(%rbp), %rax
	movzbl	8(%rax), %ecx
	orl	$1, %ecx
	movb	%cl, 8(%rax)
	movq	-8(%rbp), %rax
	movl	4(%rax), %ecx
	addl	$-1, %ecx
	movl	%ecx, 4(%rax)
	movq	-8(%rbp), %rax
	cmpl	$0, 4(%rax)
	je	.LBB79_9
# %bb.8:                                # %if.then20
	movq	-8(%rbp), %rax
	movl	4(%rax), %ecx
	movq	-8(%rbp), %rax
	movzbl	8(%rax), %edx
                                        # kill: def $cl killed $ecx
	shll	%cl, %edx
	movb	%dl, 8(%rax)
.LBB79_9:                               # %if.end26
	movq	-8(%rbp), %rax
	movl	$8, 4(%rax)
	movq	-8(%rbp), %rax
	movb	8(%rax), %al
	movq	-8(%rbp), %rcx
	movq	32(%rcx), %rcx
	movq	-8(%rbp), %rdx
	movl	(%rdx), %esi
	movl	%esi, %edi
	addl	$1, %edi
	movl	%edi, (%rdx)
	movslq	%esi, %rdx
	movb	%al, (%rcx,%rdx)
	movq	-8(%rbp), %rax
	movb	$0, 8(%rax)
.LBB79_10:                              # %if.end33
	movq	-8(%rbp), %rax
	movl	(%rax), %eax
	movl	%eax, seiUser_data_registered_itu_t_t35+32
	cmpl	$1159831632, -16(%rbp)  # imm = 0x4521A050
	jne	.LBB79_12
.LBB79_11:
	addq	$64, %rsp
	popq	%rbp
	.cfi_def_cfa %rsp, 8
	retq
.LBB79_12:                              # %func_exit
	.cfi_def_cfa %rbp, 16
	callq	detect_breach
	jmp	.LBB79_11
.Lfunc_end79:
	.size	FinalizeUser_data_registered_itu_t_t35.30, .Lfunc_end79-FinalizeUser_data_registered_itu_t_t35.30
	.cfi_endproc
                                        # -- End function
	.globl	UpdateUser_data_registered_itu_t_t35.31 # -- Begin function UpdateUser_data_registered_itu_t_t35.31
	.p2align	4, 0x90
	.type	UpdateUser_data_registered_itu_t_t35.31,@function
UpdateUser_data_registered_itu_t_t35.31: # @UpdateUser_data_registered_itu_t_t35.31
	.cfi_startproc
# %bb.0:                                # %entry
	pushq	%rbp
	.cfi_def_cfa_offset 16
	.cfi_offset %rbp, -16
	movq	%rsp, %rbp
	.cfi_def_cfa_register %rbp
	subq	$32, %rsp
	movl	$1082983468, -20(%rbp)  # imm = 0x408D042C
	movl	$82, -12(%rbp)
	cmpl	$255, -12(%rbp)
	jge	.LBB80_2
# %bb.1:                                # %if.then
	movl	-12(%rbp), %eax
	movl	%eax, seiUser_data_registered_itu_t_t35+12
	jmp	.LBB80_3
.LBB80_2:                               # %if.else
	movl	$255, seiUser_data_registered_itu_t_t35+12
	movl	-12(%rbp), %eax
	subl	$255, %eax
	movl	%eax, seiUser_data_registered_itu_t_t35+16
.LBB80_3:                               # %if.end
	movl	$7, -16(%rbp)
	movl	$0, -4(%rbp)
.LBB80_4:                               # %for.cond
                                        # =>This Inner Loop Header: Depth=1
	movl	-4(%rbp), %eax
	cmpl	-16(%rbp), %eax
	jge	.LBB80_16
# %bb.5:                                # %for.body
                                        #   in Loop: Header=BB80_4 Depth=1
	imull	$3, -4(%rbp), %eax
	movl	%eax, -8(%rbp)
	cmpl	$255, -8(%rbp)
	jge	.LBB80_7
# %bb.6:                                # %cond.true
                                        #   in Loop: Header=BB80_4 Depth=1
	movl	-8(%rbp), %eax
	jmp	.LBB80_8
.LBB80_7:                               # %cond.false
                                        #   in Loop: Header=BB80_4 Depth=1
	movl	$255, %eax
	jmp	.LBB80_8
.LBB80_8:                               # %cond.end
                                        #   in Loop: Header=BB80_4 Depth=1
	xorl	%ecx, %ecx
	cmpl	%eax, %ecx
	jle	.LBB80_10
# %bb.9:                                # %cond.true4
                                        #   in Loop: Header=BB80_4 Depth=1
	xorl	%eax, %eax
	jmp	.LBB80_14
.LBB80_10:                              # %cond.false5
                                        #   in Loop: Header=BB80_4 Depth=1
	cmpl	$255, -8(%rbp)
	jge	.LBB80_12
# %bb.11:                               # %cond.true7
                                        #   in Loop: Header=BB80_4 Depth=1
	movl	-8(%rbp), %eax
	jmp	.LBB80_13
.LBB80_12:                              # %cond.false8
                                        #   in Loop: Header=BB80_4 Depth=1
	movl	$255, %eax
	jmp	.LBB80_13
.LBB80_13:                              # %cond.end9
                                        #   in Loop: Header=BB80_4 Depth=1
.LBB80_14:                              # %cond.end11
                                        #   in Loop: Header=BB80_4 Depth=1
	movq	seiUser_data_registered_itu_t_t35, %rcx
	movslq	-4(%rbp), %rdx
	movb	%al, (%rcx,%rdx)
# %bb.15:                               # %for.inc
                                        #   in Loop: Header=BB80_4 Depth=1
	movl	-4(%rbp), %eax
	addl	$1, %eax
	movl	%eax, -4(%rbp)
	jmp	.LBB80_4
.LBB80_16:                              # %for.end
	movl	-16(%rbp), %eax
	movl	%eax, seiUser_data_registered_itu_t_t35+8
	cmpl	$1082983468, -20(%rbp)  # imm = 0x408D042C
	jne	.LBB80_18
.LBB80_17:
	addq	$32, %rsp
	popq	%rbp
	.cfi_def_cfa %rsp, 8
	retq
.LBB80_18:                              # %func_exit
	.cfi_def_cfa %rbp, 16
	callq	detect_breach
	jmp	.LBB80_17
.Lfunc_end80:
	.size	UpdateUser_data_registered_itu_t_t35.31, .Lfunc_end80-UpdateUser_data_registered_itu_t_t35.31
	.cfi_endproc
                                        # -- End function
	.globl	write_sei_message.32    # -- Begin function write_sei_message.32
	.p2align	4, 0x90
	.type	write_sei_message.32,@function
write_sei_message.32:                   # @write_sei_message.32
	.cfi_startproc
# %bb.0:                                # %entry
	pushq	%rbp
	.cfi_def_cfa_offset 16
	.cfi_offset %rbp, -16
	movq	%rsp, %rbp
	.cfi_def_cfa_register %rbp
	pushq	%rbx
	subq	$40, %rsp
	.cfi_offset %rbx, -24
	movl	$201922957, -36(%rbp)   # imm = 0xC09198D
	movl	%edi, -16(%rbp)
	movq	%rsi, -48(%rbp)
	movl	%edx, -28(%rbp)
	movl	%ecx, -32(%rbp)
	movl	-32(%rbp), %eax
	movl	%eax, -20(%rbp)
	movl	-28(%rbp), %eax
	movl	%eax, -24(%rbp)
	movslq	-16(%rbp), %rax
	imulq	$24, %rax, %rax
	movabsq	$sei_message, %rcx
	addq	%rax, %rcx
	movl	4(%rcx), %eax
	movl	%eax, -12(%rbp)
.LBB81_1:                               # %while.cond
                                        # =>This Inner Loop Header: Depth=1
	cmpl	$255, -20(%rbp)
	jle	.LBB81_3
# %bb.2:                                # %while.body
                                        #   in Loop: Header=BB81_1 Depth=1
	movslq	-16(%rbp), %rax
	imulq	$24, %rax, %rax
	movabsq	$sei_message, %rcx
	addq	%rax, %rcx
	movq	16(%rcx), %rax
	movl	-12(%rbp), %ecx
	movl	%ecx, %edx
	addl	$1, %edx
	movl	%edx, -12(%rbp)
	movslq	%ecx, %rcx
	movb	$-1, (%rax,%rcx)
	movl	-20(%rbp), %eax
	subl	$255, %eax
	movl	%eax, -20(%rbp)
	jmp	.LBB81_1
.LBB81_3:                               # %while.end
	movl	-20(%rbp), %eax
	movslq	-16(%rbp), %rcx
	imulq	$24, %rcx, %rcx
	movabsq	$sei_message, %rdx
	addq	%rcx, %rdx
	movq	16(%rdx), %rcx
	movl	-12(%rbp), %edx
	movl	%edx, %esi
	addl	$1, %esi
	movl	%esi, -12(%rbp)
	movslq	%edx, %rdx
	movb	%al, (%rcx,%rdx)
.LBB81_4:                               # %while.cond11
                                        # =>This Inner Loop Header: Depth=1
	cmpl	$255, -24(%rbp)
	jle	.LBB81_6
# %bb.5:                                # %while.body14
                                        #   in Loop: Header=BB81_4 Depth=1
	movslq	-16(%rbp), %rax
	imulq	$24, %rax, %rax
	movabsq	$sei_message, %rcx
	addq	%rax, %rcx
	movq	16(%rcx), %rax
	movl	-12(%rbp), %ecx
	movl	%ecx, %edx
	addl	$1, %edx
	movl	%edx, -12(%rbp)
	movslq	%ecx, %rcx
	movb	$-1, (%rax,%rcx)
	movl	-24(%rbp), %eax
	subl	$255, %eax
	movl	%eax, -24(%rbp)
	jmp	.LBB81_4
.LBB81_6:                               # %while.end22
	movl	-24(%rbp), %eax
	movslq	-16(%rbp), %rcx
	imulq	$24, %rcx, %rcx
	movabsq	$sei_message, %rbx
	movq	%rbx, %rdx
	addq	%rcx, %rdx
	movq	16(%rdx), %rcx
	movl	-12(%rbp), %edx
	movl	%edx, %esi
	addl	$1, %esi
	movl	%esi, -12(%rbp)
	movslq	%edx, %rdx
	movb	%al, (%rcx,%rdx)
	movslq	-16(%rbp), %rax
	imulq	$24, %rax, %rax
	movq	%rbx, %rcx
	addq	%rax, %rcx
	movq	16(%rcx), %rdi
	movslq	-12(%rbp), %rax
	addq	%rax, %rdi
	movq	-48(%rbp), %rsi
	movslq	-28(%rbp), %rdx
	callq	memcpy
	movl	-28(%rbp), %eax
	addl	-12(%rbp), %eax
	movl	%eax, -12(%rbp)
	movl	-12(%rbp), %eax
	movslq	-16(%rbp), %rcx
	imulq	$24, %rcx, %rcx
	addq	%rcx, %rbx
	movl	%eax, 4(%rbx)
	cmpl	$201922957, -36(%rbp)   # imm = 0xC09198D
	jne	.LBB81_8
.LBB81_7:
	addq	$40, %rsp
	popq	%rbx
	popq	%rbp
	.cfi_def_cfa %rsp, 8
	retq
.LBB81_8:                               # %func_exit
	.cfi_def_cfa %rbp, 16
	callq	detect_breach
	jmp	.LBB81_7
.Lfunc_end81:
	.size	write_sei_message.32, .Lfunc_end81-write_sei_message.32
	.cfi_endproc
                                        # -- End function
	.globl	FinalizeSubseqInfo.33   # -- Begin function FinalizeSubseqInfo.33
	.p2align	4, 0x90
	.type	FinalizeSubseqInfo.33,@function
FinalizeSubseqInfo.33:                  # @FinalizeSubseqInfo.33
	.cfi_startproc
# %bb.0:                                # %entry
	pushq	%rbp
	.cfi_def_cfa_offset 16
	.cfi_offset %rbp, -16
	movq	%rsp, %rbp
	.cfi_def_cfa_register %rbp
	subq	$64, %rsp
	movl	$2127936645, -16(%rbp)  # imm = 0x7ED5BC85
	movl	%edi, -12(%rbp)
	movslq	-12(%rbp), %rax
	shlq	$5, %rax
	movabsq	$seiSubseqInfo, %rcx
	movq	%rcx, %rdx
	addq	%rax, %rdx
	movq	24(%rdx), %rax
	movq	%rax, -8(%rbp)
	movl	$0, -64(%rbp)
	movabsq	$ue_linfo, %rax
	movq	%rax, -32(%rbp)
	movslq	-12(%rbp), %rax
	shlq	$5, %rax
	addq	%rax, %rcx
	movl	(%rcx), %eax
	movl	%eax, -60(%rbp)
	movq	-8(%rbp), %rsi
	leaq	-64(%rbp), %rdi
	callq	writeSyntaxElement2Buf_UVLC
	movslq	-12(%rbp), %rax
	shlq	$5, %rax
	movabsq	$seiSubseqInfo, %rcx
	addq	%rax, %rcx
	movl	4(%rcx), %eax
	movl	%eax, -60(%rbp)
	movq	-8(%rbp), %rsi
	leaq	-64(%rbp), %rdi
	callq	writeSyntaxElement2Buf_UVLC
	movslq	-12(%rbp), %rax
	shlq	$5, %rax
	movabsq	$seiSubseqInfo, %rcx
	addq	%rax, %rcx
	movl	8(%rcx), %eax
	movl	%eax, -44(%rbp)
	movl	$1, -52(%rbp)
	movq	-8(%rbp), %rsi
	leaq	-64(%rbp), %rdi
	callq	writeSyntaxElement2Buf_Fixed
	movslq	-12(%rbp), %rax
	shlq	$5, %rax
	movabsq	$seiSubseqInfo, %rcx
	addq	%rax, %rcx
	movl	12(%rcx), %eax
	movl	%eax, -60(%rbp)
	movq	-8(%rbp), %rsi
	leaq	-64(%rbp), %rdi
	callq	writeSyntaxElement2Buf_UVLC
	movq	-8(%rbp), %rax
	cmpl	$8, 4(%rax)
	je	.LBB82_4
# %bb.1:                                # %if.then
	movq	-8(%rbp), %rax
	movzbl	8(%rax), %ecx
	shll	$1, %ecx
	movb	%cl, 8(%rax)
	movq	-8(%rbp), %rax
	movzbl	8(%rax), %ecx
	orl	$1, %ecx
	movb	%cl, 8(%rax)
	movq	-8(%rbp), %rax
	movl	4(%rax), %ecx
	addl	$-1, %ecx
	movl	%ecx, 4(%rax)
	movq	-8(%rbp), %rax
	cmpl	$0, 4(%rax)
	je	.LBB82_3
# %bb.2:                                # %if.then22
	movq	-8(%rbp), %rax
	movl	4(%rax), %ecx
	movq	-8(%rbp), %rax
	movzbl	8(%rax), %edx
                                        # kill: def $cl killed $ecx
	shll	%cl, %edx
	movb	%dl, 8(%rax)
.LBB82_3:                               # %if.end
	movq	-8(%rbp), %rax
	movl	$8, 4(%rax)
	movq	-8(%rbp), %rax
	movb	8(%rax), %al
	movq	-8(%rbp), %rcx
	movq	32(%rcx), %rcx
	movq	-8(%rbp), %rdx
	movl	(%rdx), %esi
	movl	%esi, %edi
	addl	$1, %edi
	movl	%edi, (%rdx)
	movslq	%esi, %rdx
	movb	%al, (%rcx,%rdx)
	movq	-8(%rbp), %rax
	movb	$0, 8(%rax)
.LBB82_4:                               # %if.end33
	movq	-8(%rbp), %rax
	movl	(%rax), %eax
	movslq	-12(%rbp), %rcx
	shlq	$5, %rcx
	movabsq	$seiSubseqInfo, %rdx
	addq	%rcx, %rdx
	movl	%eax, 16(%rdx)
	cmpl	$2127936645, -16(%rbp)  # imm = 0x7ED5BC85
	jne	.LBB82_6
.LBB82_5:
	addq	$64, %rsp
	popq	%rbp
	.cfi_def_cfa %rsp, 8
	retq
.LBB82_6:                               # %func_exit
	.cfi_def_cfa %rbp, 16
	callq	detect_breach
	jmp	.LBB82_5
.Lfunc_end82:
	.size	FinalizeSubseqInfo.33, .Lfunc_end82-FinalizeSubseqInfo.33
	.cfi_endproc
                                        # -- End function
	.globl	write_sei_message.34    # -- Begin function write_sei_message.34
	.p2align	4, 0x90
	.type	write_sei_message.34,@function
write_sei_message.34:                   # @write_sei_message.34
	.cfi_startproc
# %bb.0:                                # %entry
	pushq	%rbp
	.cfi_def_cfa_offset 16
	.cfi_offset %rbp, -16
	movq	%rsp, %rbp
	.cfi_def_cfa_register %rbp
	pushq	%rbx
	subq	$40, %rsp
	.cfi_offset %rbx, -24
	movl	$1147725518, -36(%rbp)  # imm = 0x4468E6CE
	movl	%edi, -16(%rbp)
	movq	%rsi, -48(%rbp)
	movl	%edx, -28(%rbp)
	movl	%ecx, -32(%rbp)
	movl	-32(%rbp), %eax
	movl	%eax, -24(%rbp)
	movl	-28(%rbp), %eax
	movl	%eax, -20(%rbp)
	movslq	-16(%rbp), %rax
	imulq	$24, %rax, %rax
	movabsq	$sei_message, %rcx
	addq	%rax, %rcx
	movl	4(%rcx), %eax
	movl	%eax, -12(%rbp)
.LBB83_1:                               # %while.cond
                                        # =>This Inner Loop Header: Depth=1
	cmpl	$255, -24(%rbp)
	jle	.LBB83_3
# %bb.2:                                # %while.body
                                        #   in Loop: Header=BB83_1 Depth=1
	movslq	-16(%rbp), %rax
	imulq	$24, %rax, %rax
	movabsq	$sei_message, %rcx
	addq	%rax, %rcx
	movq	16(%rcx), %rax
	movl	-12(%rbp), %ecx
	movl	%ecx, %edx
	addl	$1, %edx
	movl	%edx, -12(%rbp)
	movslq	%ecx, %rcx
	movb	$-1, (%rax,%rcx)
	movl	-24(%rbp), %eax
	subl	$255, %eax
	movl	%eax, -24(%rbp)
	jmp	.LBB83_1
.LBB83_3:                               # %while.end
	movl	-24(%rbp), %eax
	movslq	-16(%rbp), %rcx
	imulq	$24, %rcx, %rcx
	movabsq	$sei_message, %rdx
	addq	%rcx, %rdx
	movq	16(%rdx), %rcx
	movl	-12(%rbp), %edx
	movl	%edx, %esi
	addl	$1, %esi
	movl	%esi, -12(%rbp)
	movslq	%edx, %rdx
	movb	%al, (%rcx,%rdx)
.LBB83_4:                               # %while.cond11
                                        # =>This Inner Loop Header: Depth=1
	cmpl	$255, -20(%rbp)
	jle	.LBB83_6
# %bb.5:                                # %while.body14
                                        #   in Loop: Header=BB83_4 Depth=1
	movslq	-16(%rbp), %rax
	imulq	$24, %rax, %rax
	movabsq	$sei_message, %rcx
	addq	%rax, %rcx
	movq	16(%rcx), %rax
	movl	-12(%rbp), %ecx
	movl	%ecx, %edx
	addl	$1, %edx
	movl	%edx, -12(%rbp)
	movslq	%ecx, %rcx
	movb	$-1, (%rax,%rcx)
	movl	-20(%rbp), %eax
	subl	$255, %eax
	movl	%eax, -20(%rbp)
	jmp	.LBB83_4
.LBB83_6:                               # %while.end22
	movl	-20(%rbp), %eax
	movslq	-16(%rbp), %rcx
	imulq	$24, %rcx, %rcx
	movabsq	$sei_message, %rbx
	movq	%rbx, %rdx
	addq	%rcx, %rdx
	movq	16(%rdx), %rcx
	movl	-12(%rbp), %edx
	movl	%edx, %esi
	addl	$1, %esi
	movl	%esi, -12(%rbp)
	movslq	%edx, %rdx
	movb	%al, (%rcx,%rdx)
	movslq	-16(%rbp), %rax
	imulq	$24, %rax, %rax
	movq	%rbx, %rcx
	addq	%rax, %rcx
	movq	16(%rcx), %rdi
	movslq	-12(%rbp), %rax
	addq	%rax, %rdi
	movq	-48(%rbp), %rsi
	movslq	-28(%rbp), %rdx
	callq	memcpy
	movl	-28(%rbp), %eax
	addl	-12(%rbp), %eax
	movl	%eax, -12(%rbp)
	movl	-12(%rbp), %eax
	movslq	-16(%rbp), %rcx
	imulq	$24, %rcx, %rcx
	addq	%rcx, %rbx
	movl	%eax, 4(%rbx)
	cmpl	$1147725518, -36(%rbp)  # imm = 0x4468E6CE
	jne	.LBB83_8
.LBB83_7:
	addq	$40, %rsp
	popq	%rbx
	popq	%rbp
	.cfi_def_cfa %rsp, 8
	retq
.LBB83_8:                               # %func_exit
	.cfi_def_cfa %rbp, 16
	callq	detect_breach
	jmp	.LBB83_7
.Lfunc_end83:
	.size	write_sei_message.34, .Lfunc_end83-write_sei_message.34
	.cfi_endproc
                                        # -- End function
	.globl	FinalizeSubseqChar.35   # -- Begin function FinalizeSubseqChar.35
	.p2align	4, 0x90
	.type	FinalizeSubseqChar.35,@function
FinalizeSubseqChar.35:                  # @FinalizeSubseqChar.35
	.cfi_startproc
# %bb.0:                                # %entry
	pushq	%rbp
	.cfi_def_cfa_offset 16
	.cfi_offset %rbp, -16
	movq	%rsp, %rbp
	.cfi_def_cfa_register %rbp
	subq	$80, %rsp
	movl	$668701411, -68(%rbp)   # imm = 0x27DB92E3
	movq	seiSubseqChar+72, %rax
	movq	%rax, -8(%rbp)
	movl	$0, -64(%rbp)
	movabsq	$ue_linfo, %rax
	movq	%rax, -32(%rbp)
	movl	seiSubseqChar, %eax
	movl	%eax, -60(%rbp)
	movq	-8(%rbp), %rsi
	leaq	-64(%rbp), %rdi
	callq	writeSyntaxElement2Buf_UVLC
	movl	seiSubseqChar+4, %eax
	movl	%eax, -60(%rbp)
	movq	-8(%rbp), %rsi
	leaq	-64(%rbp), %rdi
	callq	writeSyntaxElement2Buf_UVLC
	movl	seiSubseqChar+8, %eax
	movl	%eax, -44(%rbp)
	movl	$1, -52(%rbp)
	movq	-8(%rbp), %rsi
	leaq	-64(%rbp), %rdi
	callq	writeSyntaxElement2Buf_Fixed
	cmpl	$0, seiSubseqChar+8
	je	.LBB84_2
# %bb.1:                                # %if.then
	movl	seiSubseqChar+12, %eax
	movl	%eax, -44(%rbp)
	movl	$32, -52(%rbp)
	movq	-8(%rbp), %rsi
	leaq	-64(%rbp), %rdi
	callq	writeSyntaxElement2Buf_Fixed
.LBB84_2:                               # %if.end
	movl	seiSubseqChar+16, %eax
	movl	%eax, -44(%rbp)
	movl	$1, -52(%rbp)
	movq	-8(%rbp), %rsi
	leaq	-64(%rbp), %rdi
	callq	writeSyntaxElement2Buf_Fixed
	cmpl	$0, seiSubseqChar+16
	je	.LBB84_4
# %bb.3:                                # %if.then11
	movl	seiSubseqChar+20, %eax
	movl	%eax, -44(%rbp)
	movl	$16, -52(%rbp)
	movq	-8(%rbp), %rsi
	leaq	-64(%rbp), %rdi
	callq	writeSyntaxElement2Buf_Fixed
	movl	seiSubseqChar+24, %eax
	movl	%eax, -44(%rbp)
	movl	$16, -52(%rbp)
	movq	-8(%rbp), %rsi
	leaq	-64(%rbp), %rdi
	callq	writeSyntaxElement2Buf_Fixed
.LBB84_4:                               # %if.end18
	movl	seiSubseqChar+28, %eax
	movl	%eax, -60(%rbp)
	movq	-8(%rbp), %rsi
	leaq	-64(%rbp), %rdi
	callq	writeSyntaxElement2Buf_UVLC
	movl	$0, -12(%rbp)
.LBB84_5:                               # %for.cond
                                        # =>This Inner Loop Header: Depth=1
	movl	-12(%rbp), %eax
	cmpl	seiSubseqChar+28, %eax
	jge	.LBB84_8
# %bb.6:                                # %for.body
                                        #   in Loop: Header=BB84_5 Depth=1
	movslq	-12(%rbp), %rax
	movl	seiSubseqChar+32(,%rax,4), %eax
	movl	%eax, -60(%rbp)
	movq	-8(%rbp), %rsi
	leaq	-64(%rbp), %rdi
	callq	writeSyntaxElement2Buf_UVLC
	movslq	-12(%rbp), %rax
	movl	seiSubseqChar+52(,%rax,4), %eax
	movl	%eax, -60(%rbp)
	movq	-8(%rbp), %rsi
	leaq	-64(%rbp), %rdi
	callq	writeSyntaxElement2Buf_UVLC
# %bb.7:                                # %for.inc
                                        #   in Loop: Header=BB84_5 Depth=1
	movl	-12(%rbp), %eax
	addl	$1, %eax
	movl	%eax, -12(%rbp)
	jmp	.LBB84_5
.LBB84_8:                               # %for.end
	movq	-8(%rbp), %rax
	cmpl	$8, 4(%rax)
	je	.LBB84_12
# %bb.9:                                # %if.then28
	movq	-8(%rbp), %rax
	movzbl	8(%rax), %ecx
	shll	$1, %ecx
	movb	%cl, 8(%rax)
	movq	-8(%rbp), %rax
	movzbl	8(%rax), %ecx
	orl	$1, %ecx
	movb	%cl, 8(%rax)
	movq	-8(%rbp), %rax
	movl	4(%rax), %ecx
	addl	$-1, %ecx
	movl	%ecx, 4(%rax)
	movq	-8(%rbp), %rax
	cmpl	$0, 4(%rax)
	je	.LBB84_11
# %bb.10:                               # %if.then37
	movq	-8(%rbp), %rax
	movl	4(%rax), %ecx
	movq	-8(%rbp), %rax
	movzbl	8(%rax), %edx
                                        # kill: def $cl killed $ecx
	shll	%cl, %edx
	movb	%dl, 8(%rax)
.LBB84_11:                              # %if.end43
	movq	-8(%rbp), %rax
	movl	$8, 4(%rax)
	movq	-8(%rbp), %rax
	movb	8(%rax), %al
	movq	-8(%rbp), %rcx
	movq	32(%rcx), %rcx
	movq	-8(%rbp), %rdx
	movl	(%rdx), %esi
	movl	%esi, %edi
	addl	$1, %edi
	movl	%edi, (%rdx)
	movslq	%esi, %rdx
	movb	%al, (%rcx,%rdx)
	movq	-8(%rbp), %rax
	movb	$0, 8(%rax)
.LBB84_12:                              # %if.end50
	movq	-8(%rbp), %rax
	movl	(%rax), %eax
	movl	%eax, seiSubseqChar+80
	cmpl	$668701411, -68(%rbp)   # imm = 0x27DB92E3
	jne	.LBB84_14
.LBB84_13:
	addq	$80, %rsp
	popq	%rbp
	.cfi_def_cfa %rsp, 8
	retq
.LBB84_14:                              # %func_exit
	.cfi_def_cfa %rbp, 16
	callq	detect_breach
	jmp	.LBB84_13
.Lfunc_end84:
	.size	FinalizeSubseqChar.35, .Lfunc_end84-FinalizeSubseqChar.35
	.cfi_endproc
                                        # -- End function
	.globl	UpdateSceneInformation.36 # -- Begin function UpdateSceneInformation.36
	.p2align	4, 0x90
	.type	UpdateSceneInformation.36,@function
UpdateSceneInformation.36:              # @UpdateSceneInformation.36
	.cfi_startproc
# %bb.0:                                # %entry
	pushq	%rbp
	.cfi_def_cfa_offset 16
	.cfi_offset %rbp, -16
	movq	%rsp, %rbp
	.cfi_def_cfa_register %rbp
	subq	$32, %rsp
	movl	$1628624762, -16(%rbp)  # imm = 0x6112D77A
	movl	%edi, -20(%rbp)
	movl	%esi, -8(%rbp)
	movl	%edx, -4(%rbp)
	movl	%ecx, -12(%rbp)
	movl	-20(%rbp), %eax
	movl	%eax, seiHasSceneInformation
	movl	-8(%rbp), %eax
	movl	%eax, seiSceneInformation
	movl	-4(%rbp), %eax
	movl	%eax, seiSceneInformation+4
	cmpl	$3, -4(%rbp)
	jle	.LBB85_2
# %bb.1:                                # %if.then
	movl	-12(%rbp), %eax
	movl	%eax, seiSceneInformation+8
.LBB85_2:                               # %if.end
	cmpl	$1628624762, -16(%rbp)  # imm = 0x6112D77A
	jne	.LBB85_4
.LBB85_3:
	addq	$32, %rsp
	popq	%rbp
	.cfi_def_cfa %rsp, 8
	retq
.LBB85_4:                               # %func_exit
	.cfi_def_cfa %rbp, 16
	callq	detect_breach
	jmp	.LBB85_3
.Lfunc_end85:
	.size	UpdateSceneInformation.36, .Lfunc_end85-UpdateSceneInformation.36
	.cfi_endproc
                                        # -- End function
	.globl	FinalizeUser_data_unregistered.37 # -- Begin function FinalizeUser_data_unregistered.37
	.p2align	4, 0x90
	.type	FinalizeUser_data_unregistered.37,@function
FinalizeUser_data_unregistered.37:      # @FinalizeUser_data_unregistered.37
	.cfi_startproc
# %bb.0:                                # %entry
	pushq	%rbp
	.cfi_def_cfa_offset 16
	.cfi_offset %rbp, -16
	movq	%rsp, %rbp
	.cfi_def_cfa_register %rbp
	subq	$64, %rsp
	movl	$126626125, -16(%rbp)   # imm = 0x78C294D
	movq	seiUser_data_unregistered+16, %rax
	movq	%rax, -8(%rbp)
	movl	$0, -64(%rbp)
	movabsq	$ue_linfo, %rax
	movq	%rax, -32(%rbp)
	movl	$0, -12(%rbp)
.LBB86_1:                               # %for.cond
                                        # =>This Inner Loop Header: Depth=1
	movl	-12(%rbp), %eax
	cmpl	seiUser_data_unregistered+8, %eax
	jge	.LBB86_4
# %bb.2:                                # %for.body
                                        #   in Loop: Header=BB86_1 Depth=1
	movq	seiUser_data_unregistered, %rax
	movslq	-12(%rbp), %rcx
	movsbl	(%rax,%rcx), %eax
	movl	%eax, -44(%rbp)
	movl	$8, -52(%rbp)
	movq	-8(%rbp), %rsi
	leaq	-64(%rbp), %rdi
	callq	writeSyntaxElement2Buf_Fixed
# %bb.3:                                # %for.inc
                                        #   in Loop: Header=BB86_1 Depth=1
	movl	-12(%rbp), %eax
	addl	$1, %eax
	movl	%eax, -12(%rbp)
	jmp	.LBB86_1
.LBB86_4:                               # %for.end
	movq	-8(%rbp), %rax
	cmpl	$8, 4(%rax)
	je	.LBB86_8
# %bb.5:                                # %if.then
	movq	-8(%rbp), %rax
	movzbl	8(%rax), %ecx
	shll	$1, %ecx
	movb	%cl, 8(%rax)
	movq	-8(%rbp), %rax
	movzbl	8(%rax), %ecx
	orl	$1, %ecx
	movb	%cl, 8(%rax)
	movq	-8(%rbp), %rax
	movl	4(%rax), %ecx
	addl	$-1, %ecx
	movl	%ecx, 4(%rax)
	movq	-8(%rbp), %rax
	cmpl	$0, 4(%rax)
	je	.LBB86_7
# %bb.6:                                # %if.then12
	movq	-8(%rbp), %rax
	movl	4(%rax), %ecx
	movq	-8(%rbp), %rax
	movzbl	8(%rax), %edx
                                        # kill: def $cl killed $ecx
	shll	%cl, %edx
	movb	%dl, 8(%rax)
.LBB86_7:                               # %if.end
	movq	-8(%rbp), %rax
	movl	$8, 4(%rax)
	movq	-8(%rbp), %rax
	movb	8(%rax), %al
	movq	-8(%rbp), %rcx
	movq	32(%rcx), %rcx
	movq	-8(%rbp), %rdx
	movl	(%rdx), %esi
	movl	%esi, %edi
	addl	$1, %edi
	movl	%edi, (%rdx)
	movslq	%esi, %rdx
	movb	%al, (%rcx,%rdx)
	movq	-8(%rbp), %rax
	movb	$0, 8(%rax)
.LBB86_8:                               # %if.end24
	movq	-8(%rbp), %rax
	movl	(%rax), %eax
	movl	%eax, seiUser_data_unregistered+24
	cmpl	$126626125, -16(%rbp)   # imm = 0x78C294D
	jne	.LBB86_10
.LBB86_9:
	addq	$64, %rsp
	popq	%rbp
	.cfi_def_cfa %rsp, 8
	retq
.LBB86_10:                              # %func_exit
	.cfi_def_cfa %rbp, 16
	callq	detect_breach
	jmp	.LBB86_9
.Lfunc_end86:
	.size	FinalizeUser_data_unregistered.37, .Lfunc_end86-FinalizeUser_data_unregistered.37
	.cfi_endproc
                                        # -- End function
	.globl	UpdateUser_data_unregistered.38 # -- Begin function UpdateUser_data_unregistered.38
	.p2align	4, 0x90
	.type	UpdateUser_data_unregistered.38,@function
UpdateUser_data_unregistered.38:        # @UpdateUser_data_unregistered.38
	.cfi_startproc
# %bb.0:                                # %entry
	pushq	%rbp
	.cfi_def_cfa_offset 16
	.cfi_offset %rbp, -16
	movq	%rsp, %rbp
	.cfi_def_cfa_register %rbp
	subq	$16, %rsp
	movl	$521243525, -16(%rbp)   # imm = 0x1F118B85
	movl	$7, -12(%rbp)
	movl	$0, -4(%rbp)
.LBB87_1:                               # %for.cond
                                        # =>This Inner Loop Header: Depth=1
	movl	-4(%rbp), %eax
	cmpl	-12(%rbp), %eax
	jge	.LBB87_13
# %bb.2:                                # %for.body
                                        #   in Loop: Header=BB87_1 Depth=1
	movl	-4(%rbp), %eax
	shll	$2, %eax
	movl	%eax, -8(%rbp)
	cmpl	$255, -8(%rbp)
	jge	.LBB87_4
# %bb.3:                                # %cond.true
                                        #   in Loop: Header=BB87_1 Depth=1
	movl	-8(%rbp), %eax
	jmp	.LBB87_5
.LBB87_4:                               # %cond.false
                                        #   in Loop: Header=BB87_1 Depth=1
	movl	$255, %eax
	jmp	.LBB87_5
.LBB87_5:                               # %cond.end
                                        #   in Loop: Header=BB87_1 Depth=1
	xorl	%ecx, %ecx
	cmpl	%eax, %ecx
	jle	.LBB87_7
# %bb.6:                                # %cond.true3
                                        #   in Loop: Header=BB87_1 Depth=1
	xorl	%eax, %eax
	jmp	.LBB87_11
.LBB87_7:                               # %cond.false4
                                        #   in Loop: Header=BB87_1 Depth=1
	cmpl	$255, -8(%rbp)
	jge	.LBB87_9
# %bb.8:                                # %cond.true6
                                        #   in Loop: Header=BB87_1 Depth=1
	movl	-8(%rbp), %eax
	jmp	.LBB87_10
.LBB87_9:                               # %cond.false7
                                        #   in Loop: Header=BB87_1 Depth=1
	movl	$255, %eax
	jmp	.LBB87_10
.LBB87_10:                              # %cond.end8
                                        #   in Loop: Header=BB87_1 Depth=1
.LBB87_11:                              # %cond.end10
                                        #   in Loop: Header=BB87_1 Depth=1
	movq	seiUser_data_unregistered, %rcx
	movslq	-4(%rbp), %rdx
	movb	%al, (%rcx,%rdx)
# %bb.12:                               # %for.inc
                                        #   in Loop: Header=BB87_1 Depth=1
	movl	-4(%rbp), %eax
	addl	$1, %eax
	movl	%eax, -4(%rbp)
	jmp	.LBB87_1
.LBB87_13:                              # %for.end
	movl	-12(%rbp), %eax
	movl	%eax, seiUser_data_unregistered+8
	cmpl	$521243525, -16(%rbp)   # imm = 0x1F118B85
	jne	.LBB87_15
.LBB87_14:
	addq	$16, %rsp
	popq	%rbp
	.cfi_def_cfa %rsp, 8
	retq
.LBB87_15:                              # %func_exit
	.cfi_def_cfa %rbp, 16
	callq	detect_breach
	jmp	.LBB87_14
.Lfunc_end87:
	.size	UpdateUser_data_unregistered.38, .Lfunc_end87-UpdateUser_data_unregistered.38
	.cfi_endproc
                                        # -- End function
	.globl	write_sei_message.39    # -- Begin function write_sei_message.39
	.p2align	4, 0x90
	.type	write_sei_message.39,@function
write_sei_message.39:                   # @write_sei_message.39
	.cfi_startproc
# %bb.0:                                # %entry
	pushq	%rbp
	.cfi_def_cfa_offset 16
	.cfi_offset %rbp, -16
	movq	%rsp, %rbp
	.cfi_def_cfa_register %rbp
	pushq	%rbx
	subq	$40, %rsp
	.cfi_offset %rbx, -24
	movl	$1502077376, -32(%rbp)  # imm = 0x5987E1C0
	movl	%edi, -16(%rbp)
	movq	%rsi, -48(%rbp)
	movl	%edx, -28(%rbp)
	movl	%ecx, -36(%rbp)
	movl	-36(%rbp), %eax
	movl	%eax, -20(%rbp)
	movl	-28(%rbp), %eax
	movl	%eax, -24(%rbp)
	movslq	-16(%rbp), %rax
	imulq	$24, %rax, %rax
	movabsq	$sei_message, %rcx
	addq	%rax, %rcx
	movl	4(%rcx), %eax
	movl	%eax, -12(%rbp)
.LBB88_1:                               # %while.cond
                                        # =>This Inner Loop Header: Depth=1
	cmpl	$255, -20(%rbp)
	jle	.LBB88_3
# %bb.2:                                # %while.body
                                        #   in Loop: Header=BB88_1 Depth=1
	movslq	-16(%rbp), %rax
	imulq	$24, %rax, %rax
	movabsq	$sei_message, %rcx
	addq	%rax, %rcx
	movq	16(%rcx), %rax
	movl	-12(%rbp), %ecx
	movl	%ecx, %edx
	addl	$1, %edx
	movl	%edx, -12(%rbp)
	movslq	%ecx, %rcx
	movb	$-1, (%rax,%rcx)
	movl	-20(%rbp), %eax
	subl	$255, %eax
	movl	%eax, -20(%rbp)
	jmp	.LBB88_1
.LBB88_3:                               # %while.end
	movl	-20(%rbp), %eax
	movslq	-16(%rbp), %rcx
	imulq	$24, %rcx, %rcx
	movabsq	$sei_message, %rdx
	addq	%rcx, %rdx
	movq	16(%rdx), %rcx
	movl	-12(%rbp), %edx
	movl	%edx, %esi
	addl	$1, %esi
	movl	%esi, -12(%rbp)
	movslq	%edx, %rdx
	movb	%al, (%rcx,%rdx)
.LBB88_4:                               # %while.cond11
                                        # =>This Inner Loop Header: Depth=1
	cmpl	$255, -24(%rbp)
	jle	.LBB88_6
# %bb.5:                                # %while.body14
                                        #   in Loop: Header=BB88_4 Depth=1
	movslq	-16(%rbp), %rax
	imulq	$24, %rax, %rax
	movabsq	$sei_message, %rcx
	addq	%rax, %rcx
	movq	16(%rcx), %rax
	movl	-12(%rbp), %ecx
	movl	%ecx, %edx
	addl	$1, %edx
	movl	%edx, -12(%rbp)
	movslq	%ecx, %rcx
	movb	$-1, (%rax,%rcx)
	movl	-24(%rbp), %eax
	subl	$255, %eax
	movl	%eax, -24(%rbp)
	jmp	.LBB88_4
.LBB88_6:                               # %while.end22
	movl	-24(%rbp), %eax
	movslq	-16(%rbp), %rcx
	imulq	$24, %rcx, %rcx
	movabsq	$sei_message, %rbx
	movq	%rbx, %rdx
	addq	%rcx, %rdx
	movq	16(%rdx), %rcx
	movl	-12(%rbp), %edx
	movl	%edx, %esi
	addl	$1, %esi
	movl	%esi, -12(%rbp)
	movslq	%edx, %rdx
	movb	%al, (%rcx,%rdx)
	movslq	-16(%rbp), %rax
	imulq	$24, %rax, %rax
	movq	%rbx, %rcx
	addq	%rax, %rcx
	movq	16(%rcx), %rdi
	movslq	-12(%rbp), %rax
	addq	%rax, %rdi
	movq	-48(%rbp), %rsi
	movslq	-28(%rbp), %rdx
	callq	memcpy
	movl	-28(%rbp), %eax
	addl	-12(%rbp), %eax
	movl	%eax, -12(%rbp)
	movl	-12(%rbp), %eax
	movslq	-16(%rbp), %rcx
	imulq	$24, %rcx, %rcx
	addq	%rcx, %rbx
	movl	%eax, 4(%rbx)
	cmpl	$1502077376, -32(%rbp)  # imm = 0x5987E1C0
	jne	.LBB88_8
.LBB88_7:
	addq	$40, %rsp
	popq	%rbx
	popq	%rbp
	.cfi_def_cfa %rsp, 8
	retq
.LBB88_8:                               # %func_exit
	.cfi_def_cfa %rbp, 16
	callq	detect_breach
	jmp	.LBB88_7
.Lfunc_end88:
	.size	write_sei_message.39, .Lfunc_end88-write_sei_message.39
	.cfi_endproc
                                        # -- End function
	.globl	FinalizeSpareMBMap.40   # -- Begin function FinalizeSpareMBMap.40
	.p2align	4, 0x90
	.type	FinalizeSpareMBMap.40,@function
FinalizeSpareMBMap.40:                  # @FinalizeSpareMBMap.40
	.cfi_startproc
# %bb.0:                                # %entry
	pushq	%rbp
	.cfi_def_cfa_offset 16
	.cfi_offset %rbp, -16
	movq	%rsp, %rbp
	.cfi_def_cfa_register %rbp
	subq	$80, %rsp
	movl	$1650729258, -28(%rbp)  # imm = 0x6264212A
	movq	img, %rax
	movl	(%rax), %eax
	cltd
	movl	$256, %ecx              # imm = 0x100
	idivl	%ecx
	movl	%edx, -32(%rbp)
	movl	$0, -80(%rbp)
	movabsq	$ue_linfo, %rax
	movq	%rax, -48(%rbp)
	movq	seiSparePicturePayload+16, %rax
	movq	%rax, -24(%rbp)
	movl	$48, %edi
	callq	malloc
	movq	%rax, -8(%rbp)
	cmpq	$0, -8(%rbp)
	jne	.LBB89_2
# %bb.1:                                # %if.then
	movabsq	$.L.str.3, %rdi
	callq	no_mem_exit
.LBB89_2:                               # %if.end
	movl	$65496, %edi            # imm = 0xFFD8
	callq	malloc
	movq	-8(%rbp), %rcx
	movq	%rax, 32(%rcx)
	movq	-8(%rbp), %rax
	cmpq	$0, 32(%rax)
	jne	.LBB89_4
# %bb.3:                                # %if.then4
	movabsq	$.L.str.4, %rdi
	callq	no_mem_exit
.LBB89_4:                               # %if.end5
	movq	-8(%rbp), %rax
	movl	$8, 4(%rax)
	movq	-8(%rbp), %rax
	movl	$0, (%rax)
	movq	-8(%rbp), %rax
	movb	$0, 8(%rax)
	movq	-8(%rbp), %rax
	movq	32(%rax), %rdi
	xorl	%esi, %esi
	movl	$65496, %edx            # imm = 0xFFD8
	callq	memset
	movl	-32(%rbp), %eax
	subl	seiSparePicturePayload, %eax
	movl	%eax, -12(%rbp)
	cmpl	$0, -12(%rbp)
	jge	.LBB89_6
# %bb.5:                                # %if.then8
	movl	-12(%rbp), %eax
	addl	$256, %eax              # imm = 0x100
	movl	%eax, -12(%rbp)
.LBB89_6:                               # %if.end9
	movl	-12(%rbp), %eax
	movl	%eax, -76(%rbp)
	movq	-8(%rbp), %rsi
	leaq	-80(%rbp), %rdi
	callq	writeSyntaxElement2Buf_UVLC
	movl	seiSparePicturePayload+4, %eax
	subl	$1, %eax
	movl	%eax, -76(%rbp)
	movq	-8(%rbp), %rsi
	leaq	-80(%rbp), %rdi
	callq	writeSyntaxElement2Buf_UVLC
	movq	-8(%rbp), %rdi
	movq	-24(%rbp), %rsi
	callq	AppendTmpbits2Buf
	movq	-8(%rbp), %rax
	cmpl	$8, 4(%rax)
	je	.LBB89_10
# %bb.7:                                # %if.then16
	movq	-8(%rbp), %rax
	movzbl	8(%rax), %ecx
	shll	$1, %ecx
	movb	%cl, 8(%rax)
	movq	-8(%rbp), %rax
	movzbl	8(%rax), %ecx
	orl	$1, %ecx
	movb	%cl, 8(%rax)
	movq	-8(%rbp), %rax
	movl	4(%rax), %ecx
	addl	$-1, %ecx
	movl	%ecx, 4(%rax)
	movq	-8(%rbp), %rax
	cmpl	$0, 4(%rax)
	je	.LBB89_9
# %bb.8:                                # %if.then26
	movq	-8(%rbp), %rax
	movl	4(%rax), %ecx
	movq	-8(%rbp), %rax
	movzbl	8(%rax), %edx
                                        # kill: def $cl killed $ecx
	shll	%cl, %edx
	movb	%dl, 8(%rax)
.LBB89_9:                               # %if.end32
	movq	-8(%rbp), %rax
	movl	$8, 4(%rax)
	movq	-8(%rbp), %rax
	movb	8(%rax), %al
	movq	-8(%rbp), %rcx
	movq	32(%rcx), %rcx
	movq	-8(%rbp), %rdx
	movl	(%rdx), %esi
	movl	%esi, %edi
	addl	$1, %edi
	movl	%edi, (%rdx)
	movslq	%esi, %rdx
	movb	%al, (%rcx,%rdx)
	movq	-8(%rbp), %rax
	movb	$0, 8(%rax)
.LBB89_10:                              # %if.end38
	movq	-8(%rbp), %rax
	movl	(%rax), %eax
	movl	%eax, seiSparePicturePayload+8
	movq	-8(%rbp), %rax
	movq	%rax, seiSparePicturePayload+16
	movq	-24(%rbp), %rax
	movq	32(%rax), %rdi
	callq	free
	movq	-24(%rbp), %rdi
	callq	free
	cmpl	$1650729258, -28(%rbp)  # imm = 0x6264212A
	jne	.LBB89_12
.LBB89_11:
	addq	$80, %rsp
	popq	%rbp
	.cfi_def_cfa %rsp, 8
	retq
.LBB89_12:                              # %func_exit
	.cfi_def_cfa %rbp, 16
	callq	detect_breach
	jmp	.LBB89_11
.Lfunc_end89:
	.size	FinalizeSpareMBMap.40, .Lfunc_end89-FinalizeSpareMBMap.40
	.cfi_endproc
                                        # -- End function
	.globl	ComposeSparePictureMessage.41 # -- Begin function ComposeSparePictureMessage.41
	.p2align	4, 0x90
	.type	ComposeSparePictureMessage.41,@function
ComposeSparePictureMessage.41:          # @ComposeSparePictureMessage.41
	.cfi_startproc
# %bb.0:                                # %entry
	pushq	%rbp
	.cfi_def_cfa_offset 16
	.cfi_offset %rbp, -16
	movq	%rsp, %rbp
	.cfi_def_cfa_register %rbp
	subq	$80, %rsp
	movl	$1062855067, -12(%rbp)  # imm = 0x3F59E19B
	movl	%edi, -20(%rbp)
	movl	%esi, -16(%rbp)
	movq	%rdx, -32(%rbp)
	movq	seiSparePicturePayload+16, %rax
	movq	%rax, -8(%rbp)
	movl	$0, -80(%rbp)
	movabsq	$ue_linfo, %rax
	movq	%rax, -48(%rbp)
	movl	-20(%rbp), %eax
	movl	%eax, -76(%rbp)
	movq	-8(%rbp), %rsi
	leaq	-80(%rbp), %rdi
	callq	writeSyntaxElement2Buf_UVLC
	movl	-16(%rbp), %eax
	movl	%eax, -76(%rbp)
	movq	-8(%rbp), %rsi
	leaq	-80(%rbp), %rdi
	callq	writeSyntaxElement2Buf_UVLC
	movq	-8(%rbp), %rdi
	movq	-32(%rbp), %rsi
	callq	AppendTmpbits2Buf
	cmpl	$1062855067, -12(%rbp)  # imm = 0x3F59E19B
	jne	.LBB90_2
.LBB90_1:
	addq	$80, %rsp
	popq	%rbp
	.cfi_def_cfa %rsp, 8
	retq
.LBB90_2:                               # %func_exit
	.cfi_def_cfa %rbp, 16
	callq	detect_breach
	jmp	.LBB90_1
.Lfunc_end90:
	.size	ComposeSparePictureMessage.41, .Lfunc_end90-ComposeSparePictureMessage.41
	.cfi_endproc
                                        # -- End function
	.globl	ComposeSparePictureMessage.42 # -- Begin function ComposeSparePictureMessage.42
	.p2align	4, 0x90
	.type	ComposeSparePictureMessage.42,@function
ComposeSparePictureMessage.42:          # @ComposeSparePictureMessage.42
	.cfi_startproc
# %bb.0:                                # %entry
	pushq	%rbp
	.cfi_def_cfa_offset 16
	.cfi_offset %rbp, -16
	movq	%rsp, %rbp
	.cfi_def_cfa_register %rbp
	subq	$80, %rsp
	movl	$844517229, -12(%rbp)   # imm = 0x32564F6D
	movl	%edi, -16(%rbp)
	movl	%esi, -20(%rbp)
	movq	%rdx, -32(%rbp)
	movq	seiSparePicturePayload+16, %rax
	movq	%rax, -8(%rbp)
	movl	$0, -80(%rbp)
	movabsq	$ue_linfo, %rax
	movq	%rax, -48(%rbp)
	movl	-16(%rbp), %eax
	movl	%eax, -76(%rbp)
	movq	-8(%rbp), %rsi
	leaq	-80(%rbp), %rdi
	callq	writeSyntaxElement2Buf_UVLC
	movl	-20(%rbp), %eax
	movl	%eax, -76(%rbp)
	movq	-8(%rbp), %rsi
	leaq	-80(%rbp), %rdi
	callq	writeSyntaxElement2Buf_UVLC
	movq	-8(%rbp), %rdi
	movq	-32(%rbp), %rsi
	callq	AppendTmpbits2Buf
	cmpl	$844517229, -12(%rbp)   # imm = 0x32564F6D
	jne	.LBB91_2
.LBB91_1:
	addq	$80, %rsp
	popq	%rbp
	.cfi_def_cfa %rsp, 8
	retq
.LBB91_2:                               # %func_exit
	.cfi_def_cfa %rbp, 16
	callq	detect_breach
	jmp	.LBB91_1
.Lfunc_end91:
	.size	ComposeSparePictureMessage.42, .Lfunc_end91-ComposeSparePictureMessage.42
	.cfi_endproc
                                        # -- End function
	.globl	FinalizeSubseqInfo.43   # -- Begin function FinalizeSubseqInfo.43
	.p2align	4, 0x90
	.type	FinalizeSubseqInfo.43,@function
FinalizeSubseqInfo.43:                  # @FinalizeSubseqInfo.43
	.cfi_startproc
# %bb.0:                                # %entry
	pushq	%rbp
	.cfi_def_cfa_offset 16
	.cfi_offset %rbp, -16
	movq	%rsp, %rbp
	.cfi_def_cfa_register %rbp
	subq	$64, %rsp
	movl	$1815645486, -16(%rbp)  # imm = 0x6C388D2E
	movl	%edi, -12(%rbp)
	movslq	-12(%rbp), %rax
	shlq	$5, %rax
	movabsq	$seiSubseqInfo, %rcx
	movq	%rcx, %rdx
	addq	%rax, %rdx
	movq	24(%rdx), %rax
	movq	%rax, -8(%rbp)
	movl	$0, -64(%rbp)
	movabsq	$ue_linfo, %rax
	movq	%rax, -32(%rbp)
	movslq	-12(%rbp), %rax
	shlq	$5, %rax
	addq	%rax, %rcx
	movl	(%rcx), %eax
	movl	%eax, -60(%rbp)
	movq	-8(%rbp), %rsi
	leaq	-64(%rbp), %rdi
	callq	writeSyntaxElement2Buf_UVLC
	movslq	-12(%rbp), %rax
	shlq	$5, %rax
	movabsq	$seiSubseqInfo, %rcx
	addq	%rax, %rcx
	movl	4(%rcx), %eax
	movl	%eax, -60(%rbp)
	movq	-8(%rbp), %rsi
	leaq	-64(%rbp), %rdi
	callq	writeSyntaxElement2Buf_UVLC
	movslq	-12(%rbp), %rax
	shlq	$5, %rax
	movabsq	$seiSubseqInfo, %rcx
	addq	%rax, %rcx
	movl	8(%rcx), %eax
	movl	%eax, -44(%rbp)
	movl	$1, -52(%rbp)
	movq	-8(%rbp), %rsi
	leaq	-64(%rbp), %rdi
	callq	writeSyntaxElement2Buf_Fixed
	movslq	-12(%rbp), %rax
	shlq	$5, %rax
	movabsq	$seiSubseqInfo, %rcx
	addq	%rax, %rcx
	movl	12(%rcx), %eax
	movl	%eax, -60(%rbp)
	movq	-8(%rbp), %rsi
	leaq	-64(%rbp), %rdi
	callq	writeSyntaxElement2Buf_UVLC
	movq	-8(%rbp), %rax
	cmpl	$8, 4(%rax)
	je	.LBB92_4
# %bb.1:                                # %if.then
	movq	-8(%rbp), %rax
	movzbl	8(%rax), %ecx
	shll	$1, %ecx
	movb	%cl, 8(%rax)
	movq	-8(%rbp), %rax
	movzbl	8(%rax), %ecx
	orl	$1, %ecx
	movb	%cl, 8(%rax)
	movq	-8(%rbp), %rax
	movl	4(%rax), %ecx
	addl	$-1, %ecx
	movl	%ecx, 4(%rax)
	movq	-8(%rbp), %rax
	cmpl	$0, 4(%rax)
	je	.LBB92_3
# %bb.2:                                # %if.then22
	movq	-8(%rbp), %rax
	movl	4(%rax), %ecx
	movq	-8(%rbp), %rax
	movzbl	8(%rax), %edx
                                        # kill: def $cl killed $ecx
	shll	%cl, %edx
	movb	%dl, 8(%rax)
.LBB92_3:                               # %if.end
	movq	-8(%rbp), %rax
	movl	$8, 4(%rax)
	movq	-8(%rbp), %rax
	movb	8(%rax), %al
	movq	-8(%rbp), %rcx
	movq	32(%rcx), %rcx
	movq	-8(%rbp), %rdx
	movl	(%rdx), %esi
	movl	%esi, %edi
	addl	$1, %edi
	movl	%edi, (%rdx)
	movslq	%esi, %rdx
	movb	%al, (%rcx,%rdx)
	movq	-8(%rbp), %rax
	movb	$0, 8(%rax)
.LBB92_4:                               # %if.end33
	movq	-8(%rbp), %rax
	movl	(%rax), %eax
	movslq	-12(%rbp), %rcx
	shlq	$5, %rcx
	movabsq	$seiSubseqInfo, %rdx
	addq	%rcx, %rdx
	movl	%eax, 16(%rdx)
	cmpl	$1815645486, -16(%rbp)  # imm = 0x6C388D2E
	jne	.LBB92_6
.LBB92_5:
	addq	$64, %rsp
	popq	%rbp
	.cfi_def_cfa %rsp, 8
	retq
.LBB92_6:                               # %func_exit
	.cfi_def_cfa %rbp, 16
	callq	detect_breach
	jmp	.LBB92_5
.Lfunc_end92:
	.size	FinalizeSubseqInfo.43, .Lfunc_end92-FinalizeSubseqInfo.43
	.cfi_endproc
                                        # -- End function
	.globl	write_sei_message.44    # -- Begin function write_sei_message.44
	.p2align	4, 0x90
	.type	write_sei_message.44,@function
write_sei_message.44:                   # @write_sei_message.44
	.cfi_startproc
# %bb.0:                                # %entry
	pushq	%rbp
	.cfi_def_cfa_offset 16
	.cfi_offset %rbp, -16
	movq	%rsp, %rbp
	.cfi_def_cfa_register %rbp
	pushq	%rbx
	subq	$40, %rsp
	.cfi_offset %rbx, -24
	movl	$230058805, -36(%rbp)   # imm = 0xDB66B35
	movl	%edi, -16(%rbp)
	movq	%rsi, -48(%rbp)
	movl	%edx, -28(%rbp)
	movl	%ecx, -32(%rbp)
	movl	-32(%rbp), %eax
	movl	%eax, -24(%rbp)
	movl	-28(%rbp), %eax
	movl	%eax, -20(%rbp)
	movslq	-16(%rbp), %rax
	imulq	$24, %rax, %rax
	movabsq	$sei_message, %rcx
	addq	%rax, %rcx
	movl	4(%rcx), %eax
	movl	%eax, -12(%rbp)
.LBB93_1:                               # %while.cond
                                        # =>This Inner Loop Header: Depth=1
	cmpl	$255, -24(%rbp)
	jle	.LBB93_3
# %bb.2:                                # %while.body
                                        #   in Loop: Header=BB93_1 Depth=1
	movslq	-16(%rbp), %rax
	imulq	$24, %rax, %rax
	movabsq	$sei_message, %rcx
	addq	%rax, %rcx
	movq	16(%rcx), %rax
	movl	-12(%rbp), %ecx
	movl	%ecx, %edx
	addl	$1, %edx
	movl	%edx, -12(%rbp)
	movslq	%ecx, %rcx
	movb	$-1, (%rax,%rcx)
	movl	-24(%rbp), %eax
	subl	$255, %eax
	movl	%eax, -24(%rbp)
	jmp	.LBB93_1
.LBB93_3:                               # %while.end
	movl	-24(%rbp), %eax
	movslq	-16(%rbp), %rcx
	imulq	$24, %rcx, %rcx
	movabsq	$sei_message, %rdx
	addq	%rcx, %rdx
	movq	16(%rdx), %rcx
	movl	-12(%rbp), %edx
	movl	%edx, %esi
	addl	$1, %esi
	movl	%esi, -12(%rbp)
	movslq	%edx, %rdx
	movb	%al, (%rcx,%rdx)
.LBB93_4:                               # %while.cond11
                                        # =>This Inner Loop Header: Depth=1
	cmpl	$255, -20(%rbp)
	jle	.LBB93_6
# %bb.5:                                # %while.body14
                                        #   in Loop: Header=BB93_4 Depth=1
	movslq	-16(%rbp), %rax
	imulq	$24, %rax, %rax
	movabsq	$sei_message, %rcx
	addq	%rax, %rcx
	movq	16(%rcx), %rax
	movl	-12(%rbp), %ecx
	movl	%ecx, %edx
	addl	$1, %edx
	movl	%edx, -12(%rbp)
	movslq	%ecx, %rcx
	movb	$-1, (%rax,%rcx)
	movl	-20(%rbp), %eax
	subl	$255, %eax
	movl	%eax, -20(%rbp)
	jmp	.LBB93_4
.LBB93_6:                               # %while.end22
	movl	-20(%rbp), %eax
	movslq	-16(%rbp), %rcx
	imulq	$24, %rcx, %rcx
	movabsq	$sei_message, %rbx
	movq	%rbx, %rdx
	addq	%rcx, %rdx
	movq	16(%rdx), %rcx
	movl	-12(%rbp), %edx
	movl	%edx, %esi
	addl	$1, %esi
	movl	%esi, -12(%rbp)
	movslq	%edx, %rdx
	movb	%al, (%rcx,%rdx)
	movslq	-16(%rbp), %rax
	imulq	$24, %rax, %rax
	movq	%rbx, %rcx
	addq	%rax, %rcx
	movq	16(%rcx), %rdi
	movslq	-12(%rbp), %rax
	addq	%rax, %rdi
	movq	-48(%rbp), %rsi
	movslq	-28(%rbp), %rdx
	callq	memcpy
	movl	-28(%rbp), %eax
	addl	-12(%rbp), %eax
	movl	%eax, -12(%rbp)
	movl	-12(%rbp), %eax
	movslq	-16(%rbp), %rcx
	imulq	$24, %rcx, %rcx
	addq	%rcx, %rbx
	movl	%eax, 4(%rbx)
	cmpl	$230058805, -36(%rbp)   # imm = 0xDB66B35
	jne	.LBB93_8
.LBB93_7:
	addq	$40, %rsp
	popq	%rbx
	popq	%rbp
	.cfi_def_cfa %rsp, 8
	retq
.LBB93_8:                               # %func_exit
	.cfi_def_cfa %rbp, 16
	callq	detect_breach
	jmp	.LBB93_7
.Lfunc_end93:
	.size	write_sei_message.44, .Lfunc_end93-write_sei_message.44
	.cfi_endproc
                                        # -- End function
	.globl	FinalizeUser_data_registered_itu_t_t35.45 # -- Begin function FinalizeUser_data_registered_itu_t_t35.45
	.p2align	4, 0x90
	.type	FinalizeUser_data_registered_itu_t_t35.45,@function
FinalizeUser_data_registered_itu_t_t35.45: # @FinalizeUser_data_registered_itu_t_t35.45
	.cfi_startproc
# %bb.0:                                # %entry
	pushq	%rbp
	.cfi_def_cfa_offset 16
	.cfi_offset %rbp, -16
	movq	%rsp, %rbp
	.cfi_def_cfa_register %rbp
	subq	$64, %rsp
	movl	$1375972333, -16(%rbp)  # imm = 0x5203ABED
	movq	seiUser_data_registered_itu_t_t35+24, %rax
	movq	%rax, -8(%rbp)
	movl	$0, -64(%rbp)
	movabsq	$ue_linfo, %rax
	movq	%rax, -32(%rbp)
	movl	seiUser_data_registered_itu_t_t35+12, %eax
	movl	%eax, -44(%rbp)
	movl	$8, -52(%rbp)
	movq	-8(%rbp), %rsi
	leaq	-64(%rbp), %rdi
	callq	writeSyntaxElement2Buf_Fixed
	cmpl	$255, seiUser_data_registered_itu_t_t35+12
	jne	.LBB94_2
# %bb.1:                                # %if.then
	movl	seiUser_data_registered_itu_t_t35+16, %eax
	movl	%eax, -44(%rbp)
	movl	$8, -52(%rbp)
	movq	-8(%rbp), %rsi
	leaq	-64(%rbp), %rdi
	callq	writeSyntaxElement2Buf_Fixed
.LBB94_2:                               # %if.end
	movl	$0, -12(%rbp)
.LBB94_3:                               # %for.cond
                                        # =>This Inner Loop Header: Depth=1
	movl	-12(%rbp), %eax
	cmpl	seiUser_data_registered_itu_t_t35+8, %eax
	jge	.LBB94_6
# %bb.4:                                # %for.body
                                        #   in Loop: Header=BB94_3 Depth=1
	movq	seiUser_data_registered_itu_t_t35, %rax
	movslq	-12(%rbp), %rcx
	movsbl	(%rax,%rcx), %eax
	movl	%eax, -44(%rbp)
	movl	$8, -52(%rbp)
	movq	-8(%rbp), %rsi
	leaq	-64(%rbp), %rdi
	callq	writeSyntaxElement2Buf_Fixed
# %bb.5:                                # %for.inc
                                        #   in Loop: Header=BB94_3 Depth=1
	movl	-12(%rbp), %eax
	addl	$1, %eax
	movl	%eax, -12(%rbp)
	jmp	.LBB94_3
.LBB94_6:                               # %for.end
	movq	-8(%rbp), %rax
	cmpl	$8, 4(%rax)
	je	.LBB94_10
# %bb.7:                                # %if.then10
	movq	-8(%rbp), %rax
	movzbl	8(%rax), %ecx
	shll	$1, %ecx
	movb	%cl, 8(%rax)
	movq	-8(%rbp), %rax
	movzbl	8(%rax), %ecx
	orl	$1, %ecx
	movb	%cl, 8(%rax)
	movq	-8(%rbp), %rax
	movl	4(%rax), %ecx
	addl	$-1, %ecx
	movl	%ecx, 4(%rax)
	movq	-8(%rbp), %rax
	cmpl	$0, 4(%rax)
	je	.LBB94_9
# %bb.8:                                # %if.then20
	movq	-8(%rbp), %rax
	movl	4(%rax), %ecx
	movq	-8(%rbp), %rax
	movzbl	8(%rax), %edx
                                        # kill: def $cl killed $ecx
	shll	%cl, %edx
	movb	%dl, 8(%rax)
.LBB94_9:                               # %if.end26
	movq	-8(%rbp), %rax
	movl	$8, 4(%rax)
	movq	-8(%rbp), %rax
	movb	8(%rax), %al
	movq	-8(%rbp), %rcx
	movq	32(%rcx), %rcx
	movq	-8(%rbp), %rdx
	movl	(%rdx), %esi
	movl	%esi, %edi
	addl	$1, %edi
	movl	%edi, (%rdx)
	movslq	%esi, %rdx
	movb	%al, (%rcx,%rdx)
	movq	-8(%rbp), %rax
	movb	$0, 8(%rax)
.LBB94_10:                              # %if.end33
	movq	-8(%rbp), %rax
	movl	(%rax), %eax
	movl	%eax, seiUser_data_registered_itu_t_t35+32
	cmpl	$1375972333, -16(%rbp)  # imm = 0x5203ABED
	jne	.LBB94_12
.LBB94_11:
	addq	$64, %rsp
	popq	%rbp
	.cfi_def_cfa %rsp, 8
	retq
.LBB94_12:                              # %func_exit
	.cfi_def_cfa %rbp, 16
	callq	detect_breach
	jmp	.LBB94_11
.Lfunc_end94:
	.size	FinalizeUser_data_registered_itu_t_t35.45, .Lfunc_end94-FinalizeUser_data_registered_itu_t_t35.45
	.cfi_endproc
                                        # -- End function
	.globl	write_sei_message.46    # -- Begin function write_sei_message.46
	.p2align	4, 0x90
	.type	write_sei_message.46,@function
write_sei_message.46:                   # @write_sei_message.46
	.cfi_startproc
# %bb.0:                                # %entry
	pushq	%rbp
	.cfi_def_cfa_offset 16
	.cfi_offset %rbp, -16
	movq	%rsp, %rbp
	.cfi_def_cfa_register %rbp
	pushq	%rbx
	subq	$40, %rsp
	.cfi_offset %rbx, -24
	movl	$2091305855, -32(%rbp)  # imm = 0x7CA6CB7F
	movl	%edi, -16(%rbp)
	movq	%rsi, -48(%rbp)
	movl	%edx, -28(%rbp)
	movl	%ecx, -36(%rbp)
	movl	-36(%rbp), %eax
	movl	%eax, -20(%rbp)
	movl	-28(%rbp), %eax
	movl	%eax, -24(%rbp)
	movslq	-16(%rbp), %rax
	imulq	$24, %rax, %rax
	movabsq	$sei_message, %rcx
	addq	%rax, %rcx
	movl	4(%rcx), %eax
	movl	%eax, -12(%rbp)
.LBB95_1:                               # %while.cond
                                        # =>This Inner Loop Header: Depth=1
	cmpl	$255, -20(%rbp)
	jle	.LBB95_3
# %bb.2:                                # %while.body
                                        #   in Loop: Header=BB95_1 Depth=1
	movslq	-16(%rbp), %rax
	imulq	$24, %rax, %rax
	movabsq	$sei_message, %rcx
	addq	%rax, %rcx
	movq	16(%rcx), %rax
	movl	-12(%rbp), %ecx
	movl	%ecx, %edx
	addl	$1, %edx
	movl	%edx, -12(%rbp)
	movslq	%ecx, %rcx
	movb	$-1, (%rax,%rcx)
	movl	-20(%rbp), %eax
	subl	$255, %eax
	movl	%eax, -20(%rbp)
	jmp	.LBB95_1
.LBB95_3:                               # %while.end
	movl	-20(%rbp), %eax
	movslq	-16(%rbp), %rcx
	imulq	$24, %rcx, %rcx
	movabsq	$sei_message, %rdx
	addq	%rcx, %rdx
	movq	16(%rdx), %rcx
	movl	-12(%rbp), %edx
	movl	%edx, %esi
	addl	$1, %esi
	movl	%esi, -12(%rbp)
	movslq	%edx, %rdx
	movb	%al, (%rcx,%rdx)
.LBB95_4:                               # %while.cond11
                                        # =>This Inner Loop Header: Depth=1
	cmpl	$255, -24(%rbp)
	jle	.LBB95_6
# %bb.5:                                # %while.body14
                                        #   in Loop: Header=BB95_4 Depth=1
	movslq	-16(%rbp), %rax
	imulq	$24, %rax, %rax
	movabsq	$sei_message, %rcx
	addq	%rax, %rcx
	movq	16(%rcx), %rax
	movl	-12(%rbp), %ecx
	movl	%ecx, %edx
	addl	$1, %edx
	movl	%edx, -12(%rbp)
	movslq	%ecx, %rcx
	movb	$-1, (%rax,%rcx)
	movl	-24(%rbp), %eax
	subl	$255, %eax
	movl	%eax, -24(%rbp)
	jmp	.LBB95_4
.LBB95_6:                               # %while.end22
	movl	-24(%rbp), %eax
	movslq	-16(%rbp), %rcx
	imulq	$24, %rcx, %rcx
	movabsq	$sei_message, %rbx
	movq	%rbx, %rdx
	addq	%rcx, %rdx
	movq	16(%rdx), %rcx
	movl	-12(%rbp), %edx
	movl	%edx, %esi
	addl	$1, %esi
	movl	%esi, -12(%rbp)
	movslq	%edx, %rdx
	movb	%al, (%rcx,%rdx)
	movslq	-16(%rbp), %rax
	imulq	$24, %rax, %rax
	movq	%rbx, %rcx
	addq	%rax, %rcx
	movq	16(%rcx), %rdi
	movslq	-12(%rbp), %rax
	addq	%rax, %rdi
	movq	-48(%rbp), %rsi
	movslq	-28(%rbp), %rdx
	callq	memcpy
	movl	-28(%rbp), %eax
	addl	-12(%rbp), %eax
	movl	%eax, -12(%rbp)
	movl	-12(%rbp), %eax
	movslq	-16(%rbp), %rcx
	imulq	$24, %rcx, %rcx
	addq	%rcx, %rbx
	movl	%eax, 4(%rbx)
	cmpl	$2091305855, -32(%rbp)  # imm = 0x7CA6CB7F
	jne	.LBB95_8
.LBB95_7:
	addq	$40, %rsp
	popq	%rbx
	popq	%rbp
	.cfi_def_cfa %rsp, 8
	retq
.LBB95_8:                               # %func_exit
	.cfi_def_cfa %rbp, 16
	callq	detect_breach
	jmp	.LBB95_7
.Lfunc_end95:
	.size	write_sei_message.46, .Lfunc_end95-write_sei_message.46
	.cfi_endproc
                                        # -- End function
	.globl	CompressSpareMBMap.47   # -- Begin function CompressSpareMBMap.47
	.p2align	4, 0x90
	.type	CompressSpareMBMap.47,@function
CompressSpareMBMap.47:                  # @CompressSpareMBMap.47
	.cfi_startproc
# %bb.0:                                # %entry
	pushq	%rbp
	.cfi_def_cfa_offset 16
	.cfi_offset %rbp, -16
	movq	%rsp, %rbp
	.cfi_def_cfa_register %rbp
	pushq	%rbx
	subq	$152, %rsp
	.cfi_offset %rbx, -24
	movl	$724645274, -84(%rbp)   # imm = 0x2B31359A
	movq	%rdi, -96(%rbp)
	movq	%rsi, -56(%rbp)
	movq	img, %rax
	movl	60(%rax), %eax
	cltd
	movl	$16, %esi
	idivl	%esi
	movl	%eax, %ecx
	movq	img, %rax
	movl	52(%rax), %eax
	cltd
	idivl	%esi
	imull	%eax, %ecx
	movl	%ecx, -76(%rbp)
	movl	$0, -64(%rbp)
	movl	$0, -152(%rbp)
	movabsq	$ue_linfo, %rax
	movq	%rax, -120(%rbp)
	movl	$0, -60(%rbp)
	movl	$0, -72(%rbp)
	movl	$1, -100(%rbp)
	movl	-72(%rbp), %eax
	movl	%eax, -80(%rbp)
	movq	img, %rax
	movl	52(%rax), %eax
	cltd
	idivl	%esi
	subl	$1, %eax
	cltd
	movl	$2, %ecx
	idivl	%ecx
	movl	%eax, -16(%rbp)
	movq	img, %rax
	movl	60(%rax), %eax
	cltd
	idivl	%esi
	subl	$1, %eax
	cltd
	idivl	%ecx
	movl	%eax, -12(%rbp)
	movl	-16(%rbp), %eax
	movl	%eax, -36(%rbp)
	movl	%eax, -40(%rbp)
	movl	-12(%rbp), %eax
	movl	%eax, -48(%rbp)
	movl	%eax, -44(%rbp)
	movl	$0, -24(%rbp)
	movl	$1, -20(%rbp)
	movl	$0, -32(%rbp)
.LBB96_1:                               # %for.cond
                                        # =>This Loop Header: Depth=1
                                        #     Child Loop BB96_3 Depth 2
	movl	-32(%rbp), %ecx
	movq	img, %rax
	movl	60(%rax), %eax
	cltd
	movl	$16, %esi
	idivl	%esi
	cmpl	%eax, %ecx
	jge	.LBB96_58
# %bb.2:                                # %for.body
                                        #   in Loop: Header=BB96_1 Depth=1
	movl	$0, -28(%rbp)
.LBB96_3:                               # %for.cond11
                                        #   Parent Loop BB96_1 Depth=1
                                        # =>  This Inner Loop Header: Depth=2
	movl	-28(%rbp), %ecx
	movq	img, %rax
	movl	52(%rax), %eax
	cltd
	movl	$16, %esi
	idivl	%esi
	cmpl	%eax, %ecx
	jge	.LBB96_56
# %bb.4:                                # %for.body15
                                        #   in Loop: Header=BB96_3 Depth=2
	movq	-96(%rbp), %rax
	movslq	-12(%rbp), %rcx
	movq	(%rax,%rcx,8), %rax
	movslq	-16(%rbp), %rcx
	movzbl	(%rax,%rcx), %eax
	cmpl	-80(%rbp), %eax
	jne	.LBB96_6
# %bb.5:                                # %if.then
                                        #   in Loop: Header=BB96_3 Depth=2
	movl	-60(%rbp), %eax
	addl	$1, %eax
	movl	%eax, -60(%rbp)
	jmp	.LBB96_7
.LBB96_6:                               # %if.else
                                        #   in Loop: Header=BB96_3 Depth=2
	movl	-60(%rbp), %eax
	movl	%eax, -148(%rbp)
	movq	-56(%rbp), %rsi
	leaq	-152(%rbp), %rdi
	callq	writeSyntaxElement2Buf_UVLC
	addl	-64(%rbp), %eax
	movl	%eax, -64(%rbp)
	movl	$0, -60(%rbp)
.LBB96_7:                               # %if.end
                                        #   in Loop: Header=BB96_3 Depth=2
	cmpl	$-1, -24(%rbp)
	jne	.LBB96_18
# %bb.8:                                # %land.lhs.true
                                        #   in Loop: Header=BB96_3 Depth=2
	cmpl	$0, -20(%rbp)
	jne	.LBB96_18
# %bb.9:                                # %if.then24
                                        #   in Loop: Header=BB96_3 Depth=2
	movl	-16(%rbp), %eax
	cmpl	-40(%rbp), %eax
	jle	.LBB96_11
# %bb.10:                               # %if.then27
                                        #   in Loop: Header=BB96_3 Depth=2
	movl	-16(%rbp), %eax
	addl	$-1, %eax
	movl	%eax, -16(%rbp)
	jmp	.LBB96_17
.LBB96_11:                              # %if.else28
                                        #   in Loop: Header=BB96_3 Depth=2
	cmpl	$0, -16(%rbp)
	jne	.LBB96_13
# %bb.12:                               # %if.then31
                                        #   in Loop: Header=BB96_3 Depth=2
	movl	-48(%rbp), %eax
	addl	$1, %eax
	movl	%eax, -12(%rbp)
	movl	-48(%rbp), %eax
	addl	$1, %eax
	movl	%eax, -48(%rbp)
	movl	$1, -24(%rbp)
	movl	$0, -20(%rbp)
	jmp	.LBB96_16
.LBB96_13:                              # %if.else34
                                        #   in Loop: Header=BB96_3 Depth=2
	movl	-16(%rbp), %eax
	cmpl	-40(%rbp), %eax
	jne	.LBB96_15
# %bb.14:                               # %if.then37
                                        #   in Loop: Header=BB96_3 Depth=2
	movl	-16(%rbp), %eax
	addl	$-1, %eax
	movl	%eax, -16(%rbp)
	movl	-40(%rbp), %eax
	addl	$-1, %eax
	movl	%eax, -40(%rbp)
	movl	$0, -24(%rbp)
	movl	$1, -20(%rbp)
.LBB96_15:                              # %if.end40
                                        #   in Loop: Header=BB96_3 Depth=2
	jmp	.LBB96_16
.LBB96_16:                              # %if.end41
                                        #   in Loop: Header=BB96_3 Depth=2
	jmp	.LBB96_17
.LBB96_17:                              # %if.end42
                                        #   in Loop: Header=BB96_3 Depth=2
	jmp	.LBB96_54
.LBB96_18:                              # %if.else43
                                        #   in Loop: Header=BB96_3 Depth=2
	cmpl	$1, -24(%rbp)
	jne	.LBB96_29
# %bb.19:                               # %land.lhs.true46
                                        #   in Loop: Header=BB96_3 Depth=2
	cmpl	$0, -20(%rbp)
	jne	.LBB96_29
# %bb.20:                               # %if.then49
                                        #   in Loop: Header=BB96_3 Depth=2
	movl	-16(%rbp), %eax
	cmpl	-36(%rbp), %eax
	jge	.LBB96_22
# %bb.21:                               # %if.then52
                                        #   in Loop: Header=BB96_3 Depth=2
	movl	-16(%rbp), %eax
	addl	$1, %eax
	movl	%eax, -16(%rbp)
	jmp	.LBB96_28
.LBB96_22:                              # %if.else54
                                        #   in Loop: Header=BB96_3 Depth=2
	movl	-16(%rbp), %ecx
	movq	img, %rax
	movl	52(%rax), %eax
	cltd
	movl	$16, %esi
	idivl	%esi
	subl	$1, %eax
	cmpl	%eax, %ecx
	jne	.LBB96_24
# %bb.23:                               # %if.then60
                                        #   in Loop: Header=BB96_3 Depth=2
	movl	-44(%rbp), %eax
	subl	$1, %eax
	movl	%eax, -12(%rbp)
	movl	-44(%rbp), %eax
	addl	$-1, %eax
	movl	%eax, -44(%rbp)
	movl	$-1, -24(%rbp)
	movl	$0, -20(%rbp)
	jmp	.LBB96_27
.LBB96_24:                              # %if.else63
                                        #   in Loop: Header=BB96_3 Depth=2
	movl	-16(%rbp), %eax
	cmpl	-36(%rbp), %eax
	jne	.LBB96_26
# %bb.25:                               # %if.then66
                                        #   in Loop: Header=BB96_3 Depth=2
	movl	-16(%rbp), %eax
	addl	$1, %eax
	movl	%eax, -16(%rbp)
	movl	-36(%rbp), %eax
	addl	$1, %eax
	movl	%eax, -36(%rbp)
	movl	$0, -24(%rbp)
	movl	$-1, -20(%rbp)
.LBB96_26:                              # %if.end69
                                        #   in Loop: Header=BB96_3 Depth=2
	jmp	.LBB96_27
.LBB96_27:                              # %if.end70
                                        #   in Loop: Header=BB96_3 Depth=2
	jmp	.LBB96_28
.LBB96_28:                              # %if.end71
                                        #   in Loop: Header=BB96_3 Depth=2
	jmp	.LBB96_53
.LBB96_29:                              # %if.else72
                                        #   in Loop: Header=BB96_3 Depth=2
	cmpl	$0, -24(%rbp)
	jne	.LBB96_40
# %bb.30:                               # %land.lhs.true75
                                        #   in Loop: Header=BB96_3 Depth=2
	cmpl	$-1, -20(%rbp)
	jne	.LBB96_40
# %bb.31:                               # %if.then78
                                        #   in Loop: Header=BB96_3 Depth=2
	movl	-12(%rbp), %eax
	cmpl	-44(%rbp), %eax
	jle	.LBB96_33
# %bb.32:                               # %if.then81
                                        #   in Loop: Header=BB96_3 Depth=2
	movl	-12(%rbp), %eax
	addl	$-1, %eax
	movl	%eax, -12(%rbp)
	jmp	.LBB96_39
.LBB96_33:                              # %if.else83
                                        #   in Loop: Header=BB96_3 Depth=2
	cmpl	$0, -12(%rbp)
	jne	.LBB96_35
# %bb.34:                               # %if.then86
                                        #   in Loop: Header=BB96_3 Depth=2
	movl	-40(%rbp), %eax
	subl	$1, %eax
	movl	%eax, -16(%rbp)
	movl	-40(%rbp), %eax
	addl	$-1, %eax
	movl	%eax, -40(%rbp)
	movl	$0, -24(%rbp)
	movl	$1, -20(%rbp)
	jmp	.LBB96_38
.LBB96_35:                              # %if.else89
                                        #   in Loop: Header=BB96_3 Depth=2
	movl	-12(%rbp), %eax
	cmpl	-44(%rbp), %eax
	jne	.LBB96_37
# %bb.36:                               # %if.then92
                                        #   in Loop: Header=BB96_3 Depth=2
	movl	-12(%rbp), %eax
	addl	$-1, %eax
	movl	%eax, -12(%rbp)
	movl	-44(%rbp), %eax
	addl	$-1, %eax
	movl	%eax, -44(%rbp)
	movl	$-1, -24(%rbp)
	movl	$0, -20(%rbp)
.LBB96_37:                              # %if.end95
                                        #   in Loop: Header=BB96_3 Depth=2
	jmp	.LBB96_38
.LBB96_38:                              # %if.end96
                                        #   in Loop: Header=BB96_3 Depth=2
	jmp	.LBB96_39
.LBB96_39:                              # %if.end97
                                        #   in Loop: Header=BB96_3 Depth=2
	jmp	.LBB96_52
.LBB96_40:                              # %if.else98
                                        #   in Loop: Header=BB96_3 Depth=2
	cmpl	$0, -24(%rbp)
	jne	.LBB96_51
# %bb.41:                               # %land.lhs.true101
                                        #   in Loop: Header=BB96_3 Depth=2
	cmpl	$1, -20(%rbp)
	jne	.LBB96_51
# %bb.42:                               # %if.then104
                                        #   in Loop: Header=BB96_3 Depth=2
	movl	-12(%rbp), %eax
	cmpl	-48(%rbp), %eax
	jge	.LBB96_44
# %bb.43:                               # %if.then107
                                        #   in Loop: Header=BB96_3 Depth=2
	movl	-12(%rbp), %eax
	addl	$1, %eax
	movl	%eax, -12(%rbp)
	jmp	.LBB96_50
.LBB96_44:                              # %if.else109
                                        #   in Loop: Header=BB96_3 Depth=2
	movl	-12(%rbp), %ecx
	movq	img, %rax
	movl	60(%rax), %eax
	cltd
	movl	$16, %esi
	idivl	%esi
	subl	$1, %eax
	cmpl	%eax, %ecx
	jne	.LBB96_46
# %bb.45:                               # %if.then115
                                        #   in Loop: Header=BB96_3 Depth=2
	movl	-36(%rbp), %eax
	addl	$1, %eax
	movl	%eax, -16(%rbp)
	movl	-36(%rbp), %eax
	addl	$1, %eax
	movl	%eax, -36(%rbp)
	movl	$0, -24(%rbp)
	movl	$-1, -20(%rbp)
	jmp	.LBB96_49
.LBB96_46:                              # %if.else118
                                        #   in Loop: Header=BB96_3 Depth=2
	movl	-12(%rbp), %eax
	cmpl	-48(%rbp), %eax
	jne	.LBB96_48
# %bb.47:                               # %if.then121
                                        #   in Loop: Header=BB96_3 Depth=2
	movl	-12(%rbp), %eax
	addl	$1, %eax
	movl	%eax, -12(%rbp)
	movl	-48(%rbp), %eax
	addl	$1, %eax
	movl	%eax, -48(%rbp)
	movl	$1, -24(%rbp)
	movl	$0, -20(%rbp)
.LBB96_48:                              # %if.end124
                                        #   in Loop: Header=BB96_3 Depth=2
	jmp	.LBB96_49
.LBB96_49:                              # %if.end125
                                        #   in Loop: Header=BB96_3 Depth=2
	jmp	.LBB96_50
.LBB96_50:                              # %if.end126
                                        #   in Loop: Header=BB96_3 Depth=2
	jmp	.LBB96_51
.LBB96_51:                              # %if.end127
                                        #   in Loop: Header=BB96_3 Depth=2
	jmp	.LBB96_52
.LBB96_52:                              # %if.end128
                                        #   in Loop: Header=BB96_3 Depth=2
	jmp	.LBB96_53
.LBB96_53:                              # %if.end129
                                        #   in Loop: Header=BB96_3 Depth=2
	jmp	.LBB96_54
.LBB96_54:                              # %if.end130
                                        #   in Loop: Header=BB96_3 Depth=2
	jmp	.LBB96_55
.LBB96_55:                              # %for.inc
                                        #   in Loop: Header=BB96_3 Depth=2
	movl	-28(%rbp), %eax
	addl	$1, %eax
	movl	%eax, -28(%rbp)
	jmp	.LBB96_3
.LBB96_56:                              # %for.end
                                        #   in Loop: Header=BB96_1 Depth=1
	jmp	.LBB96_57
.LBB96_57:                              # %for.inc132
                                        #   in Loop: Header=BB96_1 Depth=1
	movl	-32(%rbp), %eax
	addl	$1, %eax
	movl	%eax, -32(%rbp)
	jmp	.LBB96_1
.LBB96_58:                              # %for.end134
	cmpl	$0, -60(%rbp)
	je	.LBB96_60
# %bb.59:                               # %if.then137
	movl	-60(%rbp), %eax
	movl	%eax, -148(%rbp)
	movq	-56(%rbp), %rsi
	leaq	-152(%rbp), %rdi
	callq	writeSyntaxElement2Buf_UVLC
	addl	-64(%rbp), %eax
	movl	%eax, -64(%rbp)
.LBB96_60:                              # %if.end141
	xorl	%eax, %eax
	movl	-64(%rbp), %ecx
	movl	-76(%rbp), %edx
	cmpl	%edx, %ecx
	movl	$1, %ecx
	cmovll	%ecx, %eax
	movl	%eax, -68(%rbp)
	cmpl	$0, -68(%rbp)
	jne	.LBB96_74
# %bb.61:                               # %if.then144
	movq	-56(%rbp), %rax
	movb	$0, 8(%rax)
	movq	-56(%rbp), %rax
	movl	$8, 4(%rax)
	movq	-56(%rbp), %rax
	movl	$0, (%rax)
	movl	$0, -32(%rbp)
.LBB96_62:                              # %for.cond145
                                        # =>This Loop Header: Depth=1
                                        #     Child Loop BB96_64 Depth 2
	movl	-32(%rbp), %ecx
	movq	img, %rax
	movl	60(%rax), %eax
	cltd
	movl	$16, %esi
	idivl	%esi
	cmpl	%eax, %ecx
	jge	.LBB96_73
# %bb.63:                               # %for.body150
                                        #   in Loop: Header=BB96_62 Depth=1
	movl	$0, -28(%rbp)
.LBB96_64:                              # %for.cond151
                                        #   Parent Loop BB96_62 Depth=1
                                        # =>  This Inner Loop Header: Depth=2
	movl	-28(%rbp), %ecx
	movq	img, %rax
	movl	52(%rax), %eax
	cltd
	movl	$16, %esi
	idivl	%esi
	cmpl	%eax, %ecx
	jge	.LBB96_71
# %bb.65:                               # %for.body156
                                        #   in Loop: Header=BB96_64 Depth=2
	movq	-56(%rbp), %rax
	movzbl	8(%rax), %ecx
	shll	$1, %ecx
	movb	%cl, 8(%rax)
	movq	-96(%rbp), %rax
	movslq	-32(%rbp), %rcx
	movq	(%rax,%rcx,8), %rax
	movslq	-28(%rbp), %rcx
	cmpb	$0, (%rax,%rcx)
	je	.LBB96_67
# %bb.66:                               # %if.then165
                                        #   in Loop: Header=BB96_64 Depth=2
	movq	-56(%rbp), %rax
	movzbl	8(%rax), %ecx
	orl	$1, %ecx
	movb	%cl, 8(%rax)
.LBB96_67:                              # %if.end169
                                        #   in Loop: Header=BB96_64 Depth=2
	movq	-56(%rbp), %rax
	movl	4(%rax), %ecx
	addl	$-1, %ecx
	movl	%ecx, 4(%rax)
	movq	-56(%rbp), %rax
	cmpl	$0, 4(%rax)
	jne	.LBB96_69
# %bb.68:                               # %if.then175
                                        #   in Loop: Header=BB96_64 Depth=2
	movq	-56(%rbp), %rax
	movl	$8, 4(%rax)
	movq	-56(%rbp), %rax
	movb	8(%rax), %al
	movq	-56(%rbp), %rcx
	movq	32(%rcx), %rcx
	movq	-56(%rbp), %rdx
	movl	(%rdx), %esi
	movl	%esi, %edi
	addl	$1, %edi
	movl	%edi, (%rdx)
	movslq	%esi, %rdx
	movb	%al, (%rcx,%rdx)
	movq	-56(%rbp), %rax
	movb	$0, 8(%rax)
.LBB96_69:                              # %if.end183
                                        #   in Loop: Header=BB96_64 Depth=2
	jmp	.LBB96_70
.LBB96_70:                              # %for.inc184
                                        #   in Loop: Header=BB96_64 Depth=2
	movl	-28(%rbp), %eax
	addl	$1, %eax
	movl	%eax, -28(%rbp)
	jmp	.LBB96_64
.LBB96_71:                              # %for.end186
                                        #   in Loop: Header=BB96_62 Depth=1
	jmp	.LBB96_72
.LBB96_72:                              # %for.inc187
                                        #   in Loop: Header=BB96_62 Depth=1
	movl	-32(%rbp), %eax
	addl	$1, %eax
	movl	%eax, -32(%rbp)
	jmp	.LBB96_62
.LBB96_73:                              # %for.end189
	jmp	.LBB96_74
.LBB96_74:                              # %if.end190
	movl	-68(%rbp), %ebx
	cmpl	$724645274, -84(%rbp)   # imm = 0x2B31359A
	jne	.LBB96_76
.LBB96_75:
	movl	%ebx, %eax
	addq	$152, %rsp
	popq	%rbx
	popq	%rbp
	.cfi_def_cfa %rsp, 8
	retq
.LBB96_76:                              # %func_exit
	.cfi_def_cfa %rbp, 16
	callq	detect_breach
	jmp	.LBB96_75
.Lfunc_end96:
	.size	CompressSpareMBMap.47, .Lfunc_end96-CompressSpareMBMap.47
	.cfi_endproc
                                        # -- End function
	.globl	FinalizeUser_data_registered_itu_t_t35.48 # -- Begin function FinalizeUser_data_registered_itu_t_t35.48
	.p2align	4, 0x90
	.type	FinalizeUser_data_registered_itu_t_t35.48,@function
FinalizeUser_data_registered_itu_t_t35.48: # @FinalizeUser_data_registered_itu_t_t35.48
	.cfi_startproc
# %bb.0:                                # %entry
	pushq	%rbp
	.cfi_def_cfa_offset 16
	.cfi_offset %rbp, -16
	movq	%rsp, %rbp
	.cfi_def_cfa_register %rbp
	subq	$64, %rsp
	movl	$1934798027, -16(%rbp)  # imm = 0x7352ACCB
	movq	seiUser_data_registered_itu_t_t35+24, %rax
	movq	%rax, -8(%rbp)
	movl	$0, -64(%rbp)
	movabsq	$ue_linfo, %rax
	movq	%rax, -32(%rbp)
	movl	seiUser_data_registered_itu_t_t35+12, %eax
	movl	%eax, -44(%rbp)
	movl	$8, -52(%rbp)
	movq	-8(%rbp), %rsi
	leaq	-64(%rbp), %rdi
	callq	writeSyntaxElement2Buf_Fixed
	cmpl	$255, seiUser_data_registered_itu_t_t35+12
	jne	.LBB97_2
# %bb.1:                                # %if.then
	movl	seiUser_data_registered_itu_t_t35+16, %eax
	movl	%eax, -44(%rbp)
	movl	$8, -52(%rbp)
	movq	-8(%rbp), %rsi
	leaq	-64(%rbp), %rdi
	callq	writeSyntaxElement2Buf_Fixed
.LBB97_2:                               # %if.end
	movl	$0, -12(%rbp)
.LBB97_3:                               # %for.cond
                                        # =>This Inner Loop Header: Depth=1
	movl	-12(%rbp), %eax
	cmpl	seiUser_data_registered_itu_t_t35+8, %eax
	jge	.LBB97_6
# %bb.4:                                # %for.body
                                        #   in Loop: Header=BB97_3 Depth=1
	movq	seiUser_data_registered_itu_t_t35, %rax
	movslq	-12(%rbp), %rcx
	movsbl	(%rax,%rcx), %eax
	movl	%eax, -44(%rbp)
	movl	$8, -52(%rbp)
	movq	-8(%rbp), %rsi
	leaq	-64(%rbp), %rdi
	callq	writeSyntaxElement2Buf_Fixed
# %bb.5:                                # %for.inc
                                        #   in Loop: Header=BB97_3 Depth=1
	movl	-12(%rbp), %eax
	addl	$1, %eax
	movl	%eax, -12(%rbp)
	jmp	.LBB97_3
.LBB97_6:                               # %for.end
	movq	-8(%rbp), %rax
	cmpl	$8, 4(%rax)
	je	.LBB97_10
# %bb.7:                                # %if.then10
	movq	-8(%rbp), %rax
	movzbl	8(%rax), %ecx
	shll	$1, %ecx
	movb	%cl, 8(%rax)
	movq	-8(%rbp), %rax
	movzbl	8(%rax), %ecx
	orl	$1, %ecx
	movb	%cl, 8(%rax)
	movq	-8(%rbp), %rax
	movl	4(%rax), %ecx
	addl	$-1, %ecx
	movl	%ecx, 4(%rax)
	movq	-8(%rbp), %rax
	cmpl	$0, 4(%rax)
	je	.LBB97_9
# %bb.8:                                # %if.then20
	movq	-8(%rbp), %rax
	movl	4(%rax), %ecx
	movq	-8(%rbp), %rax
	movzbl	8(%rax), %edx
                                        # kill: def $cl killed $ecx
	shll	%cl, %edx
	movb	%dl, 8(%rax)
.LBB97_9:                               # %if.end26
	movq	-8(%rbp), %rax
	movl	$8, 4(%rax)
	movq	-8(%rbp), %rax
	movb	8(%rax), %al
	movq	-8(%rbp), %rcx
	movq	32(%rcx), %rcx
	movq	-8(%rbp), %rdx
	movl	(%rdx), %esi
	movl	%esi, %edi
	addl	$1, %edi
	movl	%edi, (%rdx)
	movslq	%esi, %rdx
	movb	%al, (%rcx,%rdx)
	movq	-8(%rbp), %rax
	movb	$0, 8(%rax)
.LBB97_10:                              # %if.end33
	movq	-8(%rbp), %rax
	movl	(%rax), %eax
	movl	%eax, seiUser_data_registered_itu_t_t35+32
	cmpl	$1934798027, -16(%rbp)  # imm = 0x7352ACCB
	jne	.LBB97_12
.LBB97_11:
	addq	$64, %rsp
	popq	%rbp
	.cfi_def_cfa %rsp, 8
	retq
.LBB97_12:                              # %func_exit
	.cfi_def_cfa %rbp, 16
	callq	detect_breach
	jmp	.LBB97_11
.Lfunc_end97:
	.size	FinalizeUser_data_registered_itu_t_t35.48, .Lfunc_end97-FinalizeUser_data_registered_itu_t_t35.48
	.cfi_endproc
                                        # -- End function
	.globl	AppendTmpbits2Buf.49    # -- Begin function AppendTmpbits2Buf.49
	.p2align	4, 0x90
	.type	AppendTmpbits2Buf.49,@function
AppendTmpbits2Buf.49:                   # @AppendTmpbits2Buf.49
	.cfi_startproc
# %bb.0:                                # %entry
	pushq	%rbp
	.cfi_def_cfa_offset 16
	.cfi_offset %rbp, -16
	movq	%rsp, %rbp
	.cfi_def_cfa_register %rbp
	subq	$48, %rsp
	movl	$1073625910, -44(%rbp)  # imm = 0x3FFE3B36
	movq	%rdi, -16(%rbp)
	movq	%rsi, -40(%rbp)
	movl	$0, -24(%rbp)
.LBB98_1:                               # %for.cond
                                        # =>This Loop Header: Depth=1
                                        #     Child Loop BB98_3 Depth 2
	movl	-24(%rbp), %eax
	movq	-40(%rbp), %rcx
	cmpl	(%rcx), %eax
	jge	.LBB98_12
# %bb.2:                                # %for.body
                                        #   in Loop: Header=BB98_1 Depth=1
	movb	$-128, -1(%rbp)
	movl	$0, -20(%rbp)
.LBB98_3:                               # %for.cond1
                                        #   Parent Loop BB98_1 Depth=1
                                        # =>  This Inner Loop Header: Depth=2
	cmpl	$8, -20(%rbp)
	jge	.LBB98_10
# %bb.4:                                # %for.body3
                                        #   in Loop: Header=BB98_3 Depth=2
	movq	-16(%rbp), %rax
	movzbl	8(%rax), %ecx
	shll	$1, %ecx
	movb	%cl, 8(%rax)
	movq	-40(%rbp), %rax
	movq	32(%rax), %rax
	movslq	-24(%rbp), %rcx
	movzbl	(%rax,%rcx), %eax
	movzbl	-1(%rbp), %ecx
	andl	%ecx, %eax
	cmpl	$0, %eax
	je	.LBB98_6
# %bb.5:                                # %if.then
                                        #   in Loop: Header=BB98_3 Depth=2
	movq	-16(%rbp), %rax
	movzbl	8(%rax), %ecx
	orl	$1, %ecx
	movb	%cl, 8(%rax)
.LBB98_6:                               # %if.end
                                        #   in Loop: Header=BB98_3 Depth=2
	movq	-16(%rbp), %rax
	movl	4(%rax), %ecx
	addl	$-1, %ecx
	movl	%ecx, 4(%rax)
	movzbl	-1(%rbp), %eax
	sarl	$1, %eax
	movb	%al, -1(%rbp)
	movq	-16(%rbp), %rax
	cmpl	$0, 4(%rax)
	jne	.LBB98_8
# %bb.7:                                # %if.then15
                                        #   in Loop: Header=BB98_3 Depth=2
	movq	-16(%rbp), %rax
	movl	$8, 4(%rax)
	movq	-16(%rbp), %rax
	movb	8(%rax), %al
	movq	-16(%rbp), %rcx
	movq	32(%rcx), %rcx
	movq	-16(%rbp), %rdx
	movl	(%rdx), %esi
	movl	%esi, %edi
	addl	$1, %edi
	movl	%edi, (%rdx)
	movslq	%esi, %rdx
	movb	%al, (%rcx,%rdx)
	movq	-16(%rbp), %rax
	movb	$0, 8(%rax)
.LBB98_8:                               # %if.end23
                                        #   in Loop: Header=BB98_3 Depth=2
	jmp	.LBB98_9
.LBB98_9:                               # %for.inc
                                        #   in Loop: Header=BB98_3 Depth=2
	movl	-20(%rbp), %eax
	addl	$1, %eax
	movl	%eax, -20(%rbp)
	jmp	.LBB98_3
.LBB98_10:                              # %for.end
                                        #   in Loop: Header=BB98_1 Depth=1
	jmp	.LBB98_11
.LBB98_11:                              # %for.inc25
                                        #   in Loop: Header=BB98_1 Depth=1
	movl	-24(%rbp), %eax
	addl	$1, %eax
	movl	%eax, -24(%rbp)
	jmp	.LBB98_1
.LBB98_12:                              # %for.end27
	movq	-40(%rbp), %rax
	movl	$8, %ecx
	subl	4(%rax), %ecx
	movl	%ecx, -28(%rbp)
	cmpl	$0, -28(%rbp)
	jle	.LBB98_22
# %bb.13:                               # %if.then31
	movl	-28(%rbp), %ecx
	subl	$1, %ecx
                                        # kill: def $cl killed $ecx
	movl	$1, %eax
	shll	%cl, %eax
	movb	%al, -1(%rbp)
	movl	$0, -20(%rbp)
.LBB98_14:                              # %for.cond35
                                        # =>This Inner Loop Header: Depth=1
	movl	-20(%rbp), %eax
	cmpl	-28(%rbp), %eax
	jge	.LBB98_21
# %bb.15:                               # %for.body38
                                        #   in Loop: Header=BB98_14 Depth=1
	movq	-16(%rbp), %rax
	movzbl	8(%rax), %ecx
	shll	$1, %ecx
	movb	%cl, 8(%rax)
	movq	-40(%rbp), %rax
	movzbl	8(%rax), %eax
	movzbl	-1(%rbp), %ecx
	andl	%ecx, %eax
	cmpl	$0, %eax
	je	.LBB98_17
# %bb.16:                               # %if.then48
                                        #   in Loop: Header=BB98_14 Depth=1
	movq	-16(%rbp), %rax
	movzbl	8(%rax), %ecx
	orl	$1, %ecx
	movb	%cl, 8(%rax)
.LBB98_17:                              # %if.end53
                                        #   in Loop: Header=BB98_14 Depth=1
	movq	-16(%rbp), %rax
	movl	4(%rax), %ecx
	addl	$-1, %ecx
	movl	%ecx, 4(%rax)
	movzbl	-1(%rbp), %eax
	sarl	$1, %eax
	movb	%al, -1(%rbp)
	movq	-16(%rbp), %rax
	cmpl	$0, 4(%rax)
	jne	.LBB98_19
# %bb.18:                               # %if.then62
                                        #   in Loop: Header=BB98_14 Depth=1
	movq	-16(%rbp), %rax
	movl	$8, 4(%rax)
	movq	-16(%rbp), %rax
	movb	8(%rax), %al
	movq	-16(%rbp), %rcx
	movq	32(%rcx), %rcx
	movq	-16(%rbp), %rdx
	movl	(%rdx), %esi
	movl	%esi, %edi
	addl	$1, %edi
	movl	%edi, (%rdx)
	movslq	%esi, %rdx
	movb	%al, (%rcx,%rdx)
	movq	-16(%rbp), %rax
	movb	$0, 8(%rax)
.LBB98_19:                              # %if.end71
                                        #   in Loop: Header=BB98_14 Depth=1
	jmp	.LBB98_20
.LBB98_20:                              # %for.inc72
                                        #   in Loop: Header=BB98_14 Depth=1
	movl	-20(%rbp), %eax
	addl	$1, %eax
	movl	%eax, -20(%rbp)
	jmp	.LBB98_14
.LBB98_21:                              # %for.end74
	jmp	.LBB98_22
.LBB98_22:                              # %if.end75
	cmpl	$1073625910, -44(%rbp)  # imm = 0x3FFE3B36
	jne	.LBB98_24
.LBB98_23:
	addq	$48, %rsp
	popq	%rbp
	.cfi_def_cfa %rsp, 8
	retq
.LBB98_24:                              # %func_exit
	.cfi_def_cfa %rbp, 16
	callq	detect_breach
	jmp	.LBB98_23
.Lfunc_end98:
	.size	AppendTmpbits2Buf.49, .Lfunc_end98-AppendTmpbits2Buf.49
	.cfi_endproc
                                        # -- End function
	.globl	FinalizeSubseqLayerInfo.50 # -- Begin function FinalizeSubseqLayerInfo.50
	.p2align	4, 0x90
	.type	FinalizeSubseqLayerInfo.50,@function
FinalizeSubseqLayerInfo.50:             # @FinalizeSubseqLayerInfo.50
	.cfi_startproc
# %bb.0:                                # %entry
	pushq	%rbp
	.cfi_def_cfa_offset 16
	.cfi_offset %rbp, -16
	movq	%rsp, %rbp
	.cfi_def_cfa_register %rbp
	subq	$16, %rsp
	movl	$1679568370, -12(%rbp)  # imm = 0x641C2DF2
	movl	$0, -4(%rbp)
	movl	$0, seiSubseqLayerInfo+20
	movl	$0, -8(%rbp)
.LBB99_1:                               # %for.cond
                                        # =>This Inner Loop Header: Depth=1
	movl	-8(%rbp), %eax
	cmpl	seiSubseqLayerInfo+16, %eax
	jge	.LBB99_4
# %bb.2:                                # %for.body
                                        #   in Loop: Header=BB99_1 Depth=1
	movslq	-8(%rbp), %rax
	movw	seiSubseqLayerInfo(,%rax,2), %ax
	movslq	-4(%rbp), %rcx
	movw	%ax, seiSubseqLayerInfo+8(,%rcx)
	movl	-4(%rbp), %eax
	addl	$2, %eax
	movl	%eax, -4(%rbp)
	movslq	-8(%rbp), %rax
	movw	seiSubseqLayerInfo+4(,%rax,2), %ax
	movslq	-4(%rbp), %rcx
	movw	%ax, seiSubseqLayerInfo+8(,%rcx)
	movl	-4(%rbp), %eax
	addl	$2, %eax
	movl	%eax, -4(%rbp)
	movl	seiSubseqLayerInfo+20, %eax
	addl	$4, %eax
	movl	%eax, seiSubseqLayerInfo+20
# %bb.3:                                # %for.inc
                                        #   in Loop: Header=BB99_1 Depth=1
	movl	-8(%rbp), %eax
	addl	$1, %eax
	movl	%eax, -8(%rbp)
	jmp	.LBB99_1
.LBB99_4:                               # %for.end
	cmpl	$1679568370, -12(%rbp)  # imm = 0x641C2DF2
	jne	.LBB99_6
.LBB99_5:
	addq	$16, %rsp
	popq	%rbp
	.cfi_def_cfa %rsp, 8
	retq
.LBB99_6:                               # %func_exit
	.cfi_def_cfa %rbp, 16
	callq	detect_breach
	jmp	.LBB99_5
.Lfunc_end99:
	.size	FinalizeSubseqLayerInfo.50, .Lfunc_end99-FinalizeSubseqLayerInfo.50
	.cfi_endproc
                                        # -- End function
	.globl	FinalizeSubseqLayerInfo.51 # -- Begin function FinalizeSubseqLayerInfo.51
	.p2align	4, 0x90
	.type	FinalizeSubseqLayerInfo.51,@function
FinalizeSubseqLayerInfo.51:             # @FinalizeSubseqLayerInfo.51
	.cfi_startproc
# %bb.0:                                # %entry
	pushq	%rbp
	.cfi_def_cfa_offset 16
	.cfi_offset %rbp, -16
	movq	%rsp, %rbp
	.cfi_def_cfa_register %rbp
	subq	$16, %rsp
	movl	$225640615, -12(%rbp)   # imm = 0xD7300A7
	movl	$0, -4(%rbp)
	movl	$0, seiSubseqLayerInfo+20
	movl	$0, -8(%rbp)
.LBB100_1:                              # %for.cond
                                        # =>This Inner Loop Header: Depth=1
	movl	-8(%rbp), %eax
	cmpl	seiSubseqLayerInfo+16, %eax
	jge	.LBB100_4
# %bb.2:                                # %for.body
                                        #   in Loop: Header=BB100_1 Depth=1
	movslq	-8(%rbp), %rax
	movw	seiSubseqLayerInfo(,%rax,2), %ax
	movslq	-4(%rbp), %rcx
	movw	%ax, seiSubseqLayerInfo+8(,%rcx)
	movl	-4(%rbp), %eax
	addl	$2, %eax
	movl	%eax, -4(%rbp)
	movslq	-8(%rbp), %rax
	movw	seiSubseqLayerInfo+4(,%rax,2), %ax
	movslq	-4(%rbp), %rcx
	movw	%ax, seiSubseqLayerInfo+8(,%rcx)
	movl	-4(%rbp), %eax
	addl	$2, %eax
	movl	%eax, -4(%rbp)
	movl	seiSubseqLayerInfo+20, %eax
	addl	$4, %eax
	movl	%eax, seiSubseqLayerInfo+20
# %bb.3:                                # %for.inc
                                        #   in Loop: Header=BB100_1 Depth=1
	movl	-8(%rbp), %eax
	addl	$1, %eax
	movl	%eax, -8(%rbp)
	jmp	.LBB100_1
.LBB100_4:                              # %for.end
	cmpl	$225640615, -12(%rbp)   # imm = 0xD7300A7
	jne	.LBB100_6
.LBB100_5:
	addq	$16, %rsp
	popq	%rbp
	.cfi_def_cfa %rsp, 8
	retq
.LBB100_6:                              # %func_exit
	.cfi_def_cfa %rbp, 16
	callq	detect_breach
	jmp	.LBB100_5
.Lfunc_end100:
	.size	FinalizeSubseqLayerInfo.51, .Lfunc_end100-FinalizeSubseqLayerInfo.51
	.cfi_endproc
                                        # -- End function
	.globl	FinalizeSpareMBMap.52   # -- Begin function FinalizeSpareMBMap.52
	.p2align	4, 0x90
	.type	FinalizeSpareMBMap.52,@function
FinalizeSpareMBMap.52:                  # @FinalizeSpareMBMap.52
	.cfi_startproc
# %bb.0:                                # %entry
	pushq	%rbp
	.cfi_def_cfa_offset 16
	.cfi_offset %rbp, -16
	movq	%rsp, %rbp
	.cfi_def_cfa_register %rbp
	subq	$80, %rsp
	movl	$1105346221, -32(%rbp)  # imm = 0x41E23EAD
	movq	img, %rax
	movl	(%rax), %eax
	cltd
	movl	$256, %ecx              # imm = 0x100
	idivl	%ecx
	movl	%edx, -28(%rbp)
	movl	$0, -80(%rbp)
	movabsq	$ue_linfo, %rax
	movq	%rax, -48(%rbp)
	movq	seiSparePicturePayload+16, %rax
	movq	%rax, -24(%rbp)
	movl	$48, %edi
	callq	malloc
	movq	%rax, -8(%rbp)
	cmpq	$0, -8(%rbp)
	jne	.LBB101_2
# %bb.1:                                # %if.then
	movabsq	$.L.str.3, %rdi
	callq	no_mem_exit
.LBB101_2:                              # %if.end
	movl	$65496, %edi            # imm = 0xFFD8
	callq	malloc
	movq	-8(%rbp), %rcx
	movq	%rax, 32(%rcx)
	movq	-8(%rbp), %rax
	cmpq	$0, 32(%rax)
	jne	.LBB101_4
# %bb.3:                                # %if.then4
	movabsq	$.L.str.4, %rdi
	callq	no_mem_exit
.LBB101_4:                              # %if.end5
	movq	-8(%rbp), %rax
	movl	$8, 4(%rax)
	movq	-8(%rbp), %rax
	movl	$0, (%rax)
	movq	-8(%rbp), %rax
	movb	$0, 8(%rax)
	movq	-8(%rbp), %rax
	movq	32(%rax), %rdi
	xorl	%esi, %esi
	movl	$65496, %edx            # imm = 0xFFD8
	callq	memset
	movl	-28(%rbp), %eax
	subl	seiSparePicturePayload, %eax
	movl	%eax, -12(%rbp)
	cmpl	$0, -12(%rbp)
	jge	.LBB101_6
# %bb.5:                                # %if.then8
	movl	-12(%rbp), %eax
	addl	$256, %eax              # imm = 0x100
	movl	%eax, -12(%rbp)
.LBB101_6:                              # %if.end9
	movl	-12(%rbp), %eax
	movl	%eax, -76(%rbp)
	movq	-8(%rbp), %rsi
	leaq	-80(%rbp), %rdi
	callq	writeSyntaxElement2Buf_UVLC
	movl	seiSparePicturePayload+4, %eax
	subl	$1, %eax
	movl	%eax, -76(%rbp)
	movq	-8(%rbp), %rsi
	leaq	-80(%rbp), %rdi
	callq	writeSyntaxElement2Buf_UVLC
	movq	-8(%rbp), %rdi
	movq	-24(%rbp), %rsi
	callq	AppendTmpbits2Buf
	movq	-8(%rbp), %rax
	cmpl	$8, 4(%rax)
	je	.LBB101_10
# %bb.7:                                # %if.then16
	movq	-8(%rbp), %rax
	movzbl	8(%rax), %ecx
	shll	$1, %ecx
	movb	%cl, 8(%rax)
	movq	-8(%rbp), %rax
	movzbl	8(%rax), %ecx
	orl	$1, %ecx
	movb	%cl, 8(%rax)
	movq	-8(%rbp), %rax
	movl	4(%rax), %ecx
	addl	$-1, %ecx
	movl	%ecx, 4(%rax)
	movq	-8(%rbp), %rax
	cmpl	$0, 4(%rax)
	je	.LBB101_9
# %bb.8:                                # %if.then26
	movq	-8(%rbp), %rax
	movl	4(%rax), %ecx
	movq	-8(%rbp), %rax
	movzbl	8(%rax), %edx
                                        # kill: def $cl killed $ecx
	shll	%cl, %edx
	movb	%dl, 8(%rax)
.LBB101_9:                              # %if.end32
	movq	-8(%rbp), %rax
	movl	$8, 4(%rax)
	movq	-8(%rbp), %rax
	movb	8(%rax), %al
	movq	-8(%rbp), %rcx
	movq	32(%rcx), %rcx
	movq	-8(%rbp), %rdx
	movl	(%rdx), %esi
	movl	%esi, %edi
	addl	$1, %edi
	movl	%edi, (%rdx)
	movslq	%esi, %rdx
	movb	%al, (%rcx,%rdx)
	movq	-8(%rbp), %rax
	movb	$0, 8(%rax)
.LBB101_10:                             # %if.end38
	movq	-8(%rbp), %rax
	movl	(%rax), %eax
	movl	%eax, seiSparePicturePayload+8
	movq	-8(%rbp), %rax
	movq	%rax, seiSparePicturePayload+16
	movq	-24(%rbp), %rax
	movq	32(%rax), %rdi
	callq	free
	movq	-24(%rbp), %rdi
	callq	free
	cmpl	$1105346221, -32(%rbp)  # imm = 0x41E23EAD
	jne	.LBB101_12
.LBB101_11:
	addq	$80, %rsp
	popq	%rbp
	.cfi_def_cfa %rsp, 8
	retq
.LBB101_12:                             # %func_exit
	.cfi_def_cfa %rbp, 16
	callq	detect_breach
	jmp	.LBB101_11
.Lfunc_end101:
	.size	FinalizeSpareMBMap.52, .Lfunc_end101-FinalizeSpareMBMap.52
	.cfi_endproc
                                        # -- End function
	.globl	UpdateSceneInformation.53 # -- Begin function UpdateSceneInformation.53
	.p2align	4, 0x90
	.type	UpdateSceneInformation.53,@function
UpdateSceneInformation.53:              # @UpdateSceneInformation.53
	.cfi_startproc
# %bb.0:                                # %entry
	pushq	%rbp
	.cfi_def_cfa_offset 16
	.cfi_offset %rbp, -16
	movq	%rsp, %rbp
	.cfi_def_cfa_register %rbp
	subq	$32, %rsp
	movl	$1815091634, -16(%rbp)  # imm = 0x6C3019B2
	movl	%edi, -20(%rbp)
	movl	%esi, -12(%rbp)
	movl	%edx, -4(%rbp)
	movl	%ecx, -8(%rbp)
	movl	-20(%rbp), %eax
	movl	%eax, seiHasSceneInformation
	movl	-12(%rbp), %eax
	movl	%eax, seiSceneInformation
	movl	-4(%rbp), %eax
	movl	%eax, seiSceneInformation+4
	cmpl	$3, -4(%rbp)
	jle	.LBB102_2
# %bb.1:                                # %if.then
	movl	-8(%rbp), %eax
	movl	%eax, seiSceneInformation+8
.LBB102_2:                              # %if.end
	cmpl	$1815091634, -16(%rbp)  # imm = 0x6C3019B2
	jne	.LBB102_4
.LBB102_3:
	addq	$32, %rsp
	popq	%rbp
	.cfi_def_cfa %rsp, 8
	retq
.LBB102_4:                              # %func_exit
	.cfi_def_cfa %rbp, 16
	callq	detect_breach
	jmp	.LBB102_3
.Lfunc_end102:
	.size	UpdateSceneInformation.53, .Lfunc_end102-UpdateSceneInformation.53
	.cfi_endproc
                                        # -- End function
	.globl	UpdateUser_data_registered_itu_t_t35.54 # -- Begin function UpdateUser_data_registered_itu_t_t35.54
	.p2align	4, 0x90
	.type	UpdateUser_data_registered_itu_t_t35.54,@function
UpdateUser_data_registered_itu_t_t35.54: # @UpdateUser_data_registered_itu_t_t35.54
	.cfi_startproc
# %bb.0:                                # %entry
	pushq	%rbp
	.cfi_def_cfa_offset 16
	.cfi_offset %rbp, -16
	movq	%rsp, %rbp
	.cfi_def_cfa_register %rbp
	subq	$32, %rsp
	movl	$1405061589, -20(%rbp)  # imm = 0x53BF89D5
	movl	$82, -12(%rbp)
	cmpl	$255, -12(%rbp)
	jge	.LBB103_2
# %bb.1:                                # %if.then
	movl	-12(%rbp), %eax
	movl	%eax, seiUser_data_registered_itu_t_t35+12
	jmp	.LBB103_3
.LBB103_2:                              # %if.else
	movl	$255, seiUser_data_registered_itu_t_t35+12
	movl	-12(%rbp), %eax
	subl	$255, %eax
	movl	%eax, seiUser_data_registered_itu_t_t35+16
.LBB103_3:                              # %if.end
	movl	$7, -16(%rbp)
	movl	$0, -4(%rbp)
.LBB103_4:                              # %for.cond
                                        # =>This Inner Loop Header: Depth=1
	movl	-4(%rbp), %eax
	cmpl	-16(%rbp), %eax
	jge	.LBB103_16
# %bb.5:                                # %for.body
                                        #   in Loop: Header=BB103_4 Depth=1
	imull	$3, -4(%rbp), %eax
	movl	%eax, -8(%rbp)
	cmpl	$255, -8(%rbp)
	jge	.LBB103_7
# %bb.6:                                # %cond.true
                                        #   in Loop: Header=BB103_4 Depth=1
	movl	-8(%rbp), %eax
	jmp	.LBB103_8
.LBB103_7:                              # %cond.false
                                        #   in Loop: Header=BB103_4 Depth=1
	movl	$255, %eax
	jmp	.LBB103_8
.LBB103_8:                              # %cond.end
                                        #   in Loop: Header=BB103_4 Depth=1
	xorl	%ecx, %ecx
	cmpl	%eax, %ecx
	jle	.LBB103_10
# %bb.9:                                # %cond.true4
                                        #   in Loop: Header=BB103_4 Depth=1
	xorl	%eax, %eax
	jmp	.LBB103_14
.LBB103_10:                             # %cond.false5
                                        #   in Loop: Header=BB103_4 Depth=1
	cmpl	$255, -8(%rbp)
	jge	.LBB103_12
# %bb.11:                               # %cond.true7
                                        #   in Loop: Header=BB103_4 Depth=1
	movl	-8(%rbp), %eax
	jmp	.LBB103_13
.LBB103_12:                             # %cond.false8
                                        #   in Loop: Header=BB103_4 Depth=1
	movl	$255, %eax
	jmp	.LBB103_13
.LBB103_13:                             # %cond.end9
                                        #   in Loop: Header=BB103_4 Depth=1
.LBB103_14:                             # %cond.end11
                                        #   in Loop: Header=BB103_4 Depth=1
	movq	seiUser_data_registered_itu_t_t35, %rcx
	movslq	-4(%rbp), %rdx
	movb	%al, (%rcx,%rdx)
# %bb.15:                               # %for.inc
                                        #   in Loop: Header=BB103_4 Depth=1
	movl	-4(%rbp), %eax
	addl	$1, %eax
	movl	%eax, -4(%rbp)
	jmp	.LBB103_4
.LBB103_16:                             # %for.end
	movl	-16(%rbp), %eax
	movl	%eax, seiUser_data_registered_itu_t_t35+8
	cmpl	$1405061589, -20(%rbp)  # imm = 0x53BF89D5
	jne	.LBB103_18
.LBB103_17:
	addq	$32, %rsp
	popq	%rbp
	.cfi_def_cfa %rsp, 8
	retq
.LBB103_18:                             # %func_exit
	.cfi_def_cfa %rbp, 16
	callq	detect_breach
	jmp	.LBB103_17
.Lfunc_end103:
	.size	UpdateUser_data_registered_itu_t_t35.54, .Lfunc_end103-UpdateUser_data_registered_itu_t_t35.54
	.cfi_endproc
                                        # -- End function
	.globl	FinalizeSpareMBMap.55   # -- Begin function FinalizeSpareMBMap.55
	.p2align	4, 0x90
	.type	FinalizeSpareMBMap.55,@function
FinalizeSpareMBMap.55:                  # @FinalizeSpareMBMap.55
	.cfi_startproc
# %bb.0:                                # %entry
	pushq	%rbp
	.cfi_def_cfa_offset 16
	.cfi_offset %rbp, -16
	movq	%rsp, %rbp
	.cfi_def_cfa_register %rbp
	subq	$80, %rsp
	movl	$522953537, -28(%rbp)   # imm = 0x1F2BA341
	movq	img, %rax
	movl	(%rax), %eax
	cltd
	movl	$256, %ecx              # imm = 0x100
	idivl	%ecx
	movl	%edx, -32(%rbp)
	movl	$0, -80(%rbp)
	movabsq	$ue_linfo, %rax
	movq	%rax, -48(%rbp)
	movq	seiSparePicturePayload+16, %rax
	movq	%rax, -24(%rbp)
	movl	$48, %edi
	callq	malloc
	movq	%rax, -8(%rbp)
	cmpq	$0, -8(%rbp)
	jne	.LBB104_2
# %bb.1:                                # %if.then
	movabsq	$.L.str.3, %rdi
	callq	no_mem_exit
.LBB104_2:                              # %if.end
