	.text
	.file	"sei.c"
	.globl	InitSEIMessages         # -- Begin function InitSEIMessages
	.p2align	4, 0x90
	.type	InitSEIMessages,@function
InitSEIMessages:                        # @InitSEIMessages
	.cfi_startproc
# %bb.0:                                # %entry
	pushq	%rbp
	.cfi_def_cfa_offset 16
	.cfi_offset %rbp, -16
	movq	%rsp, %rbp
	.cfi_def_cfa_register %rbp
	subq	$16, %rsp
	movl	$0, -4(%rbp)
.LBB0_1:                                # %for.cond
                                        # =>This Inner Loop Header: Depth=1
	cmpl	$2, -4(%rbp)
	jge	.LBB0_6
# %bb.2:                                # %for.body
                                        #   in Loop: Header=BB0_1 Depth=1
	movl	$65496, %edi            # imm = 0xFFD8
	callq	malloc
	movslq	-4(%rbp), %rcx
	imulq	$24, %rcx, %rcx
	movabsq	$sei_message, %rdx
	movq	%rdx, %rsi
	addq	%rcx, %rsi
	movq	%rax, 16(%rsi)
	movslq	-4(%rbp), %rax
	imulq	$24, %rax, %rax
	addq	%rax, %rdx
	cmpq	$0, 16(%rdx)
	jne	.LBB0_4
# %bb.3:                                # %if.then
                                        #   in Loop: Header=BB0_1 Depth=1
	movabsq	$.L.str, %rdi
	callq	no_mem_exit
.LBB0_4:                                # %if.end
                                        #   in Loop: Header=BB0_1 Depth=1
	movslq	-4(%rbp), %rax
	imulq	$24, %rax, %rax
	movabsq	$sei_message, %rcx
	addq	%rax, %rcx
	movb	$5, 8(%rcx)
	movl	-4(%rbp), %edi
	callq	clear_sei_message
# %bb.5:                                # %for.inc
                                        #   in Loop: Header=BB0_1 Depth=1
	movl	-4(%rbp), %eax
	addl	$1, %eax
	movl	%eax, -4(%rbp)
	jmp	.LBB0_1
.LBB0_6:                                # %for.end
	movq	$0, seiSparePicturePayload+16
	callq	InitSparePicture
	callq	InitSubseqChar
	movq	input, %rax
	cmpl	$0, 2912(%rax)
	je	.LBB0_8
# %bb.7:                                # %if.then8
	callq	InitSubseqLayerInfo
.LBB0_8:                                # %if.end9
	callq	InitSceneInformation
	callq	InitPanScanRectInfo
	callq	InitUser_data_unregistered
	callq	InitUser_data_registered_itu_t_t35
	callq	InitRandomAccess
	addq	$16, %rsp
	popq	%rbp
	.cfi_def_cfa %rsp, 8
	retq
.Lfunc_end0:
	.size	InitSEIMessages, .Lfunc_end0-InitSEIMessages
	.cfi_endproc
                                        # -- End function
	.globl	clear_sei_message       # -- Begin function clear_sei_message
	.p2align	4, 0x90
	.type	clear_sei_message,@function
clear_sei_message:                      # @clear_sei_message
	.cfi_startproc
# %bb.0:                                # %entry
	pushq	%rbp
	.cfi_def_cfa_offset 16
	.cfi_offset %rbp, -16
	movq	%rsp, %rbp
	.cfi_def_cfa_register %rbp
	pushq	%rbx
	pushq	%rax
	.cfi_offset %rbx, -24
	movl	%edi, -12(%rbp)
	movslq	-12(%rbp), %rax
	imulq	$24, %rax, %rax
	movabsq	$sei_message, %rbx
	movq	%rbx, %rcx
	addq	%rax, %rcx
	movq	16(%rcx), %rdi
	xorl	%esi, %esi
	movl	$65496, %edx            # imm = 0xFFD8
	callq	memset
	movslq	-12(%rbp), %rax
	imulq	$24, %rax, %rax
	movq	%rbx, %rcx
	addq	%rax, %rcx
	movl	$0, 4(%rcx)
	movslq	-12(%rbp), %rax
	imulq	$24, %rax, %rax
	addq	%rax, %rbx
	movl	$0, (%rbx)
	addq	$8, %rsp
	popq	%rbx
	popq	%rbp
	.cfi_def_cfa %rsp, 8
	retq
.Lfunc_end1:
	.size	clear_sei_message, .Lfunc_end1-clear_sei_message
	.cfi_endproc
                                        # -- End function
	.globl	CloseSEIMessages        # -- Begin function CloseSEIMessages
	.p2align	4, 0x90
	.type	CloseSEIMessages,@function
CloseSEIMessages:                       # @CloseSEIMessages
	.cfi_startproc
# %bb.0:                                # %entry
	pushq	%rbp
	.cfi_def_cfa_offset 16
	.cfi_offset %rbp, -16
	movq	%rsp, %rbp
	.cfi_def_cfa_register %rbp
	subq	$16, %rsp
	movq	input, %rax
	cmpl	$0, 2912(%rax)
	je	.LBB2_2
# %bb.1:                                # %if.then
	callq	CloseSubseqLayerInfo
.LBB2_2:                                # %if.end
	callq	CloseSubseqChar
	callq	CloseSparePicture
	callq	CloseSceneInformation
	callq	ClosePanScanRectInfo
	callq	CloseUser_data_unregistered
	callq	CloseUser_data_registered_itu_t_t35
	callq	CloseRandomAccess
	movl	$0, -4(%rbp)
.LBB2_3:                                # %for.cond
                                        # =>This Inner Loop Header: Depth=1
	cmpl	$2, -4(%rbp)
	jge	.LBB2_8
# %bb.4:                                # %for.body
                                        #   in Loop: Header=BB2_3 Depth=1
	movslq	-4(%rbp), %rax
	imulq	$24, %rax, %rax
	movabsq	$sei_message, %rcx
	addq	%rax, %rcx
	cmpq	$0, 16(%rcx)
	je	.LBB2_6
# %bb.5:                                # %if.then2
                                        #   in Loop: Header=BB2_3 Depth=1
	movslq	-4(%rbp), %rax
	imulq	$24, %rax, %rax
	movabsq	$sei_message, %rcx
	addq	%rax, %rcx
	movq	16(%rcx), %rdi
	callq	free
.LBB2_6:                                # %if.end6
                                        #   in Loop: Header=BB2_3 Depth=1
	movslq	-4(%rbp), %rax
	imulq	$24, %rax, %rax
	movabsq	$sei_message, %rcx
	addq	%rax, %rcx
	movq	$0, 16(%rcx)
# %bb.7:                                # %for.inc
                                        #   in Loop: Header=BB2_3 Depth=1
	movl	-4(%rbp), %eax
	addl	$1, %eax
	movl	%eax, -4(%rbp)
	jmp	.LBB2_3
.LBB2_8:                                # %for.end
	addq	$16, %rsp
	popq	%rbp
	.cfi_def_cfa %rsp, 8
	retq
.Lfunc_end2:
	.size	CloseSEIMessages, .Lfunc_end2-CloseSEIMessages
	.cfi_endproc
                                        # -- End function
	.globl	HaveAggregationSEI      # -- Begin function HaveAggregationSEI
	.p2align	4, 0x90
	.type	HaveAggregationSEI,@function
HaveAggregationSEI:                     # @HaveAggregationSEI
	.cfi_startproc
# %bb.0:                                # %entry
	pushq	%rbp
	.cfi_def_cfa_offset 16
	.cfi_offset %rbp, -16
	movq	%rsp, %rbp
	.cfi_def_cfa_register %rbp
	cmpl	$0, sei_message+24
	je	.LBB3_3
# %bb.1:                                # %land.lhs.true
	movq	img, %rax
	cmpl	$1, 24(%rax)
	je	.LBB3_3
# %bb.2:                                # %if.then
	movl	$1, -4(%rbp)
	jmp	.LBB3_21
.LBB3_3:                                # %if.end
	cmpl	$0, seiHasSubseqInfo
	je	.LBB3_5
# %bb.4:                                # %if.then2
	movl	$1, -4(%rbp)
	jmp	.LBB3_21
.LBB3_5:                                # %if.end3
	cmpl	$0, seiHasSubseqLayerInfo
	je	.LBB3_8
# %bb.6:                                # %land.lhs.true5
	movq	img, %rax
	cmpl	$0, (%rax)
	jne	.LBB3_8
# %bb.7:                                # %if.then7
	movl	$1, -4(%rbp)
	jmp	.LBB3_21
.LBB3_8:                                # %if.end8
	cmpl	$0, seiHasSubseqChar
	je	.LBB3_10
# %bb.9:                                # %if.then10
	movl	$1, -4(%rbp)
	jmp	.LBB3_21
.LBB3_10:                               # %if.end11
	cmpl	$0, seiHasSceneInformation
	je	.LBB3_12
# %bb.11:                               # %if.then13
	movl	$1, -4(%rbp)
	jmp	.LBB3_21
.LBB3_12:                               # %if.end14
	cmpl	$0, seiHasPanScanRectInfo
	je	.LBB3_14
# %bb.13:                               # %if.then16
	movl	$1, -4(%rbp)
	jmp	.LBB3_21
.LBB3_14:                               # %if.end17
	cmpl	$0, seiHasUser_data_unregistered_info
	je	.LBB3_16
# %bb.15:                               # %if.then19
	movl	$1, -4(%rbp)
	jmp	.LBB3_21
.LBB3_16:                               # %if.end20
	cmpl	$0, seiHasUser_data_registered_itu_t_t35_info
	je	.LBB3_18
# %bb.17:                               # %if.then22
	movl	$1, -4(%rbp)
	jmp	.LBB3_21
.LBB3_18:                               # %if.end23
	cmpl	$0, seiHasRandomAccess_info
	je	.LBB3_20
# %bb.19:                               # %if.then25
	movl	$1, -4(%rbp)
	jmp	.LBB3_21
.LBB3_20:                               # %if.end26
	movl	$0, -4(%rbp)
.LBB3_21:                               # %return
	movl	-4(%rbp), %eax
	popq	%rbp
	.cfi_def_cfa %rsp, 8
	retq
.Lfunc_end3:
	.size	HaveAggregationSEI, .Lfunc_end3-HaveAggregationSEI
	.cfi_endproc
                                        # -- End function
	.globl	write_sei_message       # -- Begin function write_sei_message
	.p2align	4, 0x90
	.type	write_sei_message,@function
write_sei_message:                      # @write_sei_message
	.cfi_startproc
# %bb.0:                                # %rand_bb
	pushq	%rbp
	.cfi_def_cfa_offset 16
	.cfi_offset %rbp, -16
	movq	%rsp, %rbp
	.cfi_def_cfa_register %rbp
	pushq	%r15
	pushq	%r14
	pushq	%r12
	pushq	%rbx
	.cfi_offset %rbx, -48
	.cfi_offset %r12, -40
	.cfi_offset %r14, -32
	.cfi_offset %r15, -24
	movl	%ecx, %r14d
	movl	%edx, %r15d
	movq	%rsi, %r12
	movl	%edi, %ebx
	callq	get_urand
	cmpl	$0, %eax
	jne	.LBB4_17
# %bb.1:                                # %func_write_sei_message.1
	movl	%ebx, %edi
	movq	%r12, %rsi
	movl	%r15d, %edx
	movl	%r14d, %ecx
	callq	write_sei_message.1
	popq	%rbx
	popq	%r12
	popq	%r14
	popq	%r15
	popq	%rbp
	.cfi_def_cfa %rsp, 8
	retq
.LBB4_2:                                # %func_write_sei_message.2
	.cfi_def_cfa %rbp, 16
	movl	%ebx, %edi
	movq	%r12, %rsi
	movl	%r15d, %edx
	movl	%r14d, %ecx
	callq	write_sei_message.2
	popq	%rbx
	popq	%r12
	popq	%r14
	popq	%r15
	popq	%rbp
	.cfi_def_cfa %rsp, 8
	retq
.LBB4_3:                                # %func_write_sei_message.4
	.cfi_def_cfa %rbp, 16
	movl	%ebx, %edi
	movq	%r12, %rsi
	movl	%r15d, %edx
	movl	%r14d, %ecx
	callq	write_sei_message.4
	popq	%rbx
	popq	%r12
	popq	%r14
	popq	%r15
	popq	%rbp
	.cfi_def_cfa %rsp, 8
	retq
.LBB4_4:                                # %func_write_sei_message.52
	.cfi_def_cfa %rbp, 16
	movl	%ebx, %edi
	movq	%r12, %rsi
	movl	%r15d, %edx
	movl	%r14d, %ecx
	callq	write_sei_message.52
	popq	%rbx
	popq	%r12
	popq	%r14
	popq	%r15
	popq	%rbp
	.cfi_def_cfa %rsp, 8
	retq
.LBB4_5:                                # %func_write_sei_message.83
	.cfi_def_cfa %rbp, 16
	movl	%ebx, %edi
	movq	%r12, %rsi
	movl	%r15d, %edx
	movl	%r14d, %ecx
	callq	write_sei_message.83
	popq	%rbx
	popq	%r12
	popq	%r14
	popq	%r15
	popq	%rbp
	.cfi_def_cfa %rsp, 8
	retq
.LBB4_6:                                # %func_write_sei_message.90
	.cfi_def_cfa %rbp, 16
	movl	%ebx, %edi
	movq	%r12, %rsi
	movl	%r15d, %edx
	movl	%r14d, %ecx
	callq	write_sei_message.90
	popq	%rbx
	popq	%r12
	popq	%r14
	popq	%r15
	popq	%rbp
	.cfi_def_cfa %rsp, 8
	retq
.LBB4_7:                                # %func_write_sei_message.101
	.cfi_def_cfa %rbp, 16
	movl	%ebx, %edi
	movq	%r12, %rsi
	movl	%r15d, %edx
	movl	%r14d, %ecx
	callq	write_sei_message.101
	popq	%rbx
	popq	%r12
	popq	%r14
	popq	%r15
	popq	%rbp
	.cfi_def_cfa %rsp, 8
	retq
.LBB4_8:                                # %func_write_sei_message.111
	.cfi_def_cfa %rbp, 16
	movl	%ebx, %edi
	movq	%r12, %rsi
	movl	%r15d, %edx
	movl	%r14d, %ecx
	callq	write_sei_message.111
	popq	%rbx
	popq	%r12
	popq	%r14
	popq	%r15
	popq	%rbp
	.cfi_def_cfa %rsp, 8
	retq
.LBB4_9:                                # %func_write_sei_message.128
	.cfi_def_cfa %rbp, 16
	movl	%ebx, %edi
	movq	%r12, %rsi
	movl	%r15d, %edx
	movl	%r14d, %ecx
	callq	write_sei_message.128
	popq	%rbx
	popq	%r12
	popq	%r14
	popq	%r15
	popq	%rbp
	.cfi_def_cfa %rsp, 8
	retq
.LBB4_10:                               # %func_write_sei_message.129
	.cfi_def_cfa %rbp, 16
	movl	%ebx, %edi
	movq	%r12, %rsi
	movl	%r15d, %edx
	movl	%r14d, %ecx
	callq	write_sei_message.129
	popq	%rbx
	popq	%r12
	popq	%r14
	popq	%r15
	popq	%rbp
	.cfi_def_cfa %rsp, 8
	retq
.LBB4_11:                               # %func_write_sei_message.135
	.cfi_def_cfa %rbp, 16
	movl	%ebx, %edi
	movq	%r12, %rsi
	movl	%r15d, %edx
	movl	%r14d, %ecx
	callq	write_sei_message.135
	popq	%rbx
	popq	%r12
	popq	%r14
	popq	%r15
	popq	%rbp
	.cfi_def_cfa %rsp, 8
	retq
.LBB4_12:                               # %func_write_sei_message.137
	.cfi_def_cfa %rbp, 16
	movl	%ebx, %edi
	movq	%r12, %rsi
	movl	%r15d, %edx
	movl	%r14d, %ecx
	callq	write_sei_message.137
	popq	%rbx
	popq	%r12
	popq	%r14
	popq	%r15
	popq	%rbp
	.cfi_def_cfa %rsp, 8
	retq
.LBB4_13:                               # %func_write_sei_message.139
	.cfi_def_cfa %rbp, 16
	movl	%ebx, %edi
	movq	%r12, %rsi
	movl	%r15d, %edx
	movl	%r14d, %ecx
	callq	write_sei_message.139
	popq	%rbx
	popq	%r12
	popq	%r14
	popq	%r15
	popq	%rbp
	.cfi_def_cfa %rsp, 8
	retq
.LBB4_14:                               # %func_write_sei_message.141
	.cfi_def_cfa %rbp, 16
	movl	%ebx, %edi
	movq	%r12, %rsi
	movl	%r15d, %edx
	movl	%r14d, %ecx
	callq	write_sei_message.141
	popq	%rbx
	popq	%r12
	popq	%r14
	popq	%r15
	popq	%rbp
	.cfi_def_cfa %rsp, 8
	retq
.LBB4_15:                               # %func_write_sei_message.143
	.cfi_def_cfa %rbp, 16
	movl	%ebx, %edi
	movq	%r12, %rsi
	movl	%r15d, %edx
	movl	%r14d, %ecx
	callq	write_sei_message.143
	popq	%rbx
	popq	%r12
	popq	%r14
	popq	%r15
	popq	%rbp
	.cfi_def_cfa %rsp, 8
	retq
.LBB4_16:                               # %func_write_sei_message.146
	.cfi_def_cfa %rbp, 16
	movl	%ebx, %edi
	movq	%r12, %rsi
	movl	%r15d, %edx
	movl	%r14d, %ecx
	callq	write_sei_message.146
	popq	%rbx
	popq	%r12
	popq	%r14
	popq	%r15
	popq	%rbp
	.cfi_def_cfa %rsp, 8
	retq
.LBB4_17:                               # %ctrl0
	.cfi_def_cfa %rbp, 16
	cmpl	$1, %eax
	je	.LBB4_2
# %bb.18:                               # %ctrl1
	cmpl	$2, %eax
	je	.LBB4_3
# %bb.19:                               # %ctrl2
	cmpl	$3, %eax
	je	.LBB4_4
# %bb.20:                               # %ctrl3
	cmpl	$4, %eax
	je	.LBB4_5
# %bb.21:                               # %ctrl4
	cmpl	$5, %eax
	je	.LBB4_6
# %bb.22:                               # %ctrl5
	cmpl	$6, %eax
	je	.LBB4_7
# %bb.23:                               # %ctrl6
	cmpl	$7, %eax
	je	.LBB4_8
# %bb.24:                               # %ctrl7
	cmpl	$8, %eax
	je	.LBB4_9
# %bb.25:                               # %ctrl8
	cmpl	$9, %eax
	je	.LBB4_10
# %bb.26:                               # %ctrl9
	cmpl	$10, %eax
	je	.LBB4_11
# %bb.27:                               # %ctrl10
	cmpl	$11, %eax
	je	.LBB4_12
# %bb.28:                               # %ctrl11
	cmpl	$12, %eax
	je	.LBB4_13
# %bb.29:                               # %ctrl12
	cmpl	$13, %eax
	je	.LBB4_14
# %bb.30:                               # %ctrl13
	cmpl	$14, %eax
	je	.LBB4_15
	jmp	.LBB4_16
.Lfunc_end4:
	.size	write_sei_message, .Lfunc_end4-write_sei_message
	.cfi_endproc
                                        # -- End function
	.globl	finalize_sei_message    # -- Begin function finalize_sei_message
	.p2align	4, 0x90
	.type	finalize_sei_message,@function
finalize_sei_message:                   # @finalize_sei_message
	.cfi_startproc
# %bb.0:                                # %rand_bb
	pushq	%rbp
	.cfi_def_cfa_offset 16
	.cfi_offset %rbp, -16
	movq	%rsp, %rbp
	.cfi_def_cfa_register %rbp
	pushq	%rbx
	pushq	%rax
	.cfi_offset %rbx, -24
	movl	%edi, %ebx
	callq	get_urand
	cmpl	$0, %eax
	jne	.LBB5_2
# %bb.1:                                # %func_finalize_sei_message.9
	movl	%ebx, %edi
	callq	finalize_sei_message.9
	addq	$8, %rsp
	popq	%rbx
	popq	%rbp
	.cfi_def_cfa %rsp, 8
	retq
.LBB5_2:                                # %func_finalize_sei_message.84
	.cfi_def_cfa %rbp, 16
	movl	%ebx, %edi
	callq	finalize_sei_message.84
	addq	$8, %rsp
	popq	%rbx
	popq	%rbp
	.cfi_def_cfa %rsp, 8
	retq
.Lfunc_end5:
	.size	finalize_sei_message, .Lfunc_end5-finalize_sei_message
	.cfi_endproc
                                        # -- End function
	.globl	AppendTmpbits2Buf       # -- Begin function AppendTmpbits2Buf
	.p2align	4, 0x90
	.type	AppendTmpbits2Buf,@function
AppendTmpbits2Buf:                      # @AppendTmpbits2Buf
	.cfi_startproc
# %bb.0:                                # %rand_bb
	pushq	%rbp
	.cfi_def_cfa_offset 16
	.cfi_offset %rbp, -16
	movq	%rsp, %rbp
	.cfi_def_cfa_register %rbp
	pushq	%r14
	pushq	%rbx
	.cfi_offset %rbx, -32
	.cfi_offset %r14, -24
	movq	%rsi, %r14
	movq	%rdi, %rbx
	callq	get_urand
	cmpl	$0, %eax
	jne	.LBB6_17
# %bb.1:                                # %func_AppendTmpbits2Buf.15
	movq	%rbx, %rdi
	movq	%r14, %rsi
	callq	AppendTmpbits2Buf.15
	popq	%rbx
	popq	%r14
	popq	%rbp
	.cfi_def_cfa %rsp, 8
	retq
.LBB6_2:                                # %func_AppendTmpbits2Buf.17
	.cfi_def_cfa %rbp, 16
	movq	%rbx, %rdi
	movq	%r14, %rsi
	callq	AppendTmpbits2Buf.17
	popq	%rbx
	popq	%r14
	popq	%rbp
	.cfi_def_cfa %rsp, 8
	retq
.LBB6_3:                                # %func_AppendTmpbits2Buf.44
	.cfi_def_cfa %rbp, 16
	movq	%rbx, %rdi
	movq	%r14, %rsi
	callq	AppendTmpbits2Buf.44
	popq	%rbx
	popq	%r14
	popq	%rbp
	.cfi_def_cfa %rsp, 8
	retq
.LBB6_4:                                # %func_AppendTmpbits2Buf.48
	.cfi_def_cfa %rbp, 16
	movq	%rbx, %rdi
	movq	%r14, %rsi
	callq	AppendTmpbits2Buf.48
	popq	%rbx
	popq	%r14
	popq	%rbp
	.cfi_def_cfa %rsp, 8
	retq
.LBB6_5:                                # %func_AppendTmpbits2Buf.54
	.cfi_def_cfa %rbp, 16
	movq	%rbx, %rdi
	movq	%r14, %rsi
	callq	AppendTmpbits2Buf.54
	popq	%rbx
	popq	%r14
	popq	%rbp
	.cfi_def_cfa %rsp, 8
	retq
.LBB6_6:                                # %func_AppendTmpbits2Buf.65
	.cfi_def_cfa %rbp, 16
	movq	%rbx, %rdi
	movq	%r14, %rsi
	callq	AppendTmpbits2Buf.65
	popq	%rbx
	popq	%r14
	popq	%rbp
	.cfi_def_cfa %rsp, 8
	retq
.LBB6_7:                                # %func_AppendTmpbits2Buf.70
	.cfi_def_cfa %rbp, 16
	movq	%rbx, %rdi
	movq	%r14, %rsi
	callq	AppendTmpbits2Buf.70
	popq	%rbx
	popq	%r14
	popq	%rbp
	.cfi_def_cfa %rsp, 8
	retq
.LBB6_8:                                # %func_AppendTmpbits2Buf.96
	.cfi_def_cfa %rbp, 16
	movq	%rbx, %rdi
	movq	%r14, %rsi
	callq	AppendTmpbits2Buf.96
	popq	%rbx
	popq	%r14
	popq	%rbp
	.cfi_def_cfa %rsp, 8
	retq
.LBB6_9:                                # %func_AppendTmpbits2Buf.98
	.cfi_def_cfa %rbp, 16
	movq	%rbx, %rdi
	movq	%r14, %rsi
	callq	AppendTmpbits2Buf.98
	popq	%rbx
	popq	%r14
	popq	%rbp
	.cfi_def_cfa %rsp, 8
	retq
.LBB6_10:                               # %func_AppendTmpbits2Buf.104
	.cfi_def_cfa %rbp, 16
	movq	%rbx, %rdi
	movq	%r14, %rsi
	callq	AppendTmpbits2Buf.104
	popq	%rbx
	popq	%r14
	popq	%rbp
	.cfi_def_cfa %rsp, 8
	retq
.LBB6_11:                               # %func_AppendTmpbits2Buf.116
	.cfi_def_cfa %rbp, 16
	movq	%rbx, %rdi
	movq	%r14, %rsi
	callq	AppendTmpbits2Buf.116
	popq	%rbx
	popq	%r14
	popq	%rbp
	.cfi_def_cfa %rsp, 8
	retq
.LBB6_12:                               # %func_AppendTmpbits2Buf.124
	.cfi_def_cfa %rbp, 16
	movq	%rbx, %rdi
	movq	%r14, %rsi
	callq	AppendTmpbits2Buf.124
	popq	%rbx
	popq	%r14
	popq	%rbp
	.cfi_def_cfa %rsp, 8
	retq
.LBB6_13:                               # %func_AppendTmpbits2Buf.126
	.cfi_def_cfa %rbp, 16
	movq	%rbx, %rdi
	movq	%r14, %rsi
	callq	AppendTmpbits2Buf.126
	popq	%rbx
	popq	%r14
	popq	%rbp
	.cfi_def_cfa %rsp, 8
	retq
.LBB6_14:                               # %func_AppendTmpbits2Buf.144
	.cfi_def_cfa %rbp, 16
	movq	%rbx, %rdi
	movq	%r14, %rsi
	callq	AppendTmpbits2Buf.144
	popq	%rbx
	popq	%r14
	popq	%rbp
	.cfi_def_cfa %rsp, 8
	retq
.LBB6_15:                               # %func_AppendTmpbits2Buf.148
	.cfi_def_cfa %rbp, 16
	movq	%rbx, %rdi
	movq	%r14, %rsi
	callq	AppendTmpbits2Buf.148
	popq	%rbx
	popq	%r14
	popq	%rbp
	.cfi_def_cfa %rsp, 8
	retq
.LBB6_16:                               # %func_AppendTmpbits2Buf.151
	.cfi_def_cfa %rbp, 16
	movq	%rbx, %rdi
	movq	%r14, %rsi
	callq	AppendTmpbits2Buf.151
	popq	%rbx
	popq	%r14
	popq	%rbp
	.cfi_def_cfa %rsp, 8
	retq
.LBB6_17:                               # %ctrl0
	.cfi_def_cfa %rbp, 16
	cmpl	$1, %eax
	je	.LBB6_2
# %bb.18:                               # %ctrl1
	cmpl	$2, %eax
	je	.LBB6_3
# %bb.19:                               # %ctrl2
	cmpl	$3, %eax
	je	.LBB6_4
# %bb.20:                               # %ctrl3
	cmpl	$4, %eax
	je	.LBB6_5
# %bb.21:                               # %ctrl4
	cmpl	$5, %eax
	je	.LBB6_6
# %bb.22:                               # %ctrl5
	cmpl	$6, %eax
	je	.LBB6_7
# %bb.23:                               # %ctrl6
	cmpl	$7, %eax
	je	.LBB6_8
# %bb.24:                               # %ctrl7
	cmpl	$8, %eax
	je	.LBB6_9
# %bb.25:                               # %ctrl8
	cmpl	$9, %eax
	je	.LBB6_10
# %bb.26:                               # %ctrl9
	cmpl	$10, %eax
	je	.LBB6_11
# %bb.27:                               # %ctrl10
	cmpl	$11, %eax
	je	.LBB6_12
# %bb.28:                               # %ctrl11
	cmpl	$12, %eax
	je	.LBB6_13
# %bb.29:                               # %ctrl12
	cmpl	$13, %eax
	je	.LBB6_14
# %bb.30:                               # %ctrl13
	cmpl	$14, %eax
	je	.LBB6_15
	jmp	.LBB6_16
.Lfunc_end6:
	.size	AppendTmpbits2Buf, .Lfunc_end6-AppendTmpbits2Buf
	.cfi_endproc
                                        # -- End function
	.globl	InitSparePicture        # -- Begin function InitSparePicture
	.p2align	4, 0x90
	.type	InitSparePicture,@function
InitSparePicture:                       # @InitSparePicture
	.cfi_startproc
# %bb.0:                                # %entry
	pushq	%rbp
	.cfi_def_cfa_offset 16
	.cfi_offset %rbp, -16
	movq	%rsp, %rbp
	.cfi_def_cfa_register %rbp
	cmpq	$0, seiSparePicturePayload+16
	je	.LBB7_2
# %bb.1:                                # %if.then
	callq	CloseSparePicture
.LBB7_2:                                # %if.end
	movl	$48, %edi
	callq	malloc
	movq	%rax, seiSparePicturePayload+16
	cmpq	$0, seiSparePicturePayload+16
	jne	.LBB7_4
# %bb.3:                                # %if.then2
	movabsq	$.L.str.1, %rdi
	callq	no_mem_exit
.LBB7_4:                                # %if.end3
	movl	$65496, %edi            # imm = 0xFFD8
	callq	malloc
	movq	seiSparePicturePayload+16, %rcx
	movq	%rax, 32(%rcx)
	movq	seiSparePicturePayload+16, %rax
	cmpq	$0, 32(%rax)
	jne	.LBB7_6
# %bb.5:                                # %if.then7
	movabsq	$.L.str.2, %rdi
	callq	no_mem_exit
.LBB7_6:                                # %if.end8
	movq	seiSparePicturePayload+16, %rax
	movq	32(%rax), %rdi
	xorl	%esi, %esi
	movl	$65496, %edx            # imm = 0xFFD8
	callq	memset
	movl	$0, seiSparePicturePayload+4
	movl	$0, seiSparePicturePayload
	movq	seiSparePicturePayload+16, %rax
	movl	$8, 4(%rax)
	movq	seiSparePicturePayload+16, %rax
	movl	$0, (%rax)
	movq	seiSparePicturePayload+16, %rax
	movb	$0, 8(%rax)
	popq	%rbp
	.cfi_def_cfa %rsp, 8
	retq
.Lfunc_end7:
	.size	InitSparePicture, .Lfunc_end7-InitSparePicture
	.cfi_endproc
                                        # -- End function
	.globl	CloseSparePicture       # -- Begin function CloseSparePicture
	.p2align	4, 0x90
	.type	CloseSparePicture,@function
CloseSparePicture:                      # @CloseSparePicture
	.cfi_startproc
# %bb.0:                                # %entry
	pushq	%rbp
	.cfi_def_cfa_offset 16
	.cfi_offset %rbp, -16
	movq	%rsp, %rbp
	.cfi_def_cfa_register %rbp
	movq	seiSparePicturePayload+16, %rax
	cmpq	$0, 32(%rax)
	je	.LBB8_2
# %bb.1:                                # %if.then
	movq	seiSparePicturePayload+16, %rax
	movq	32(%rax), %rdi
	callq	free
.LBB8_2:                                # %if.end
	movq	seiSparePicturePayload+16, %rax
	movq	$0, 32(%rax)
	cmpq	$0, seiSparePicturePayload+16
	je	.LBB8_4
# %bb.3:                                # %if.then4
	movq	seiSparePicturePayload+16, %rdi
	callq	free
.LBB8_4:                                # %if.end5
	movq	$0, seiSparePicturePayload+16
	movl	$0, seiSparePicturePayload+4
	movl	$0, seiSparePicturePayload
	popq	%rbp
	.cfi_def_cfa %rsp, 8
	retq
.Lfunc_end8:
	.size	CloseSparePicture, .Lfunc_end8-CloseSparePicture
	.cfi_endproc
                                        # -- End function
	.globl	CalculateSparePicture   # -- Begin function CalculateSparePicture
	.p2align	4, 0x90
	.type	CalculateSparePicture,@function
CalculateSparePicture:                  # @CalculateSparePicture
	.cfi_startproc
# %bb.0:                                # %entry
	pushq	%rbp
	.cfi_def_cfa_offset 16
	.cfi_offset %rbp, -16
	movq	%rsp, %rbp
	.cfi_def_cfa_register %rbp
	popq	%rbp
	.cfi_def_cfa %rsp, 8
	retq
.Lfunc_end9:
	.size	CalculateSparePicture, .Lfunc_end9-CalculateSparePicture
	.cfi_endproc
                                        # -- End function
	.globl	ComposeSparePictureMessage # -- Begin function ComposeSparePictureMessage
	.p2align	4, 0x90
	.type	ComposeSparePictureMessage,@function
ComposeSparePictureMessage:             # @ComposeSparePictureMessage
	.cfi_startproc
# %bb.0:                                # %rand_bb
	pushq	%rbp
	.cfi_def_cfa_offset 16
	.cfi_offset %rbp, -16
	movq	%rsp, %rbp
	.cfi_def_cfa_register %rbp
	pushq	%r15
	pushq	%r14
	pushq	%rbx
	pushq	%rax
	.cfi_offset %rbx, -40
	.cfi_offset %r14, -32
	.cfi_offset %r15, -24
	movq	%rdx, %r14
	movl	%esi, %r15d
	movl	%edi, %ebx
	callq	get_urand
	cmpl	$0, %eax
	jne	.LBB10_17
# %bb.1:                                # %func_ComposeSparePictureMessage.6
	movl	%ebx, %edi
	movl	%r15d, %esi
	movq	%r14, %rdx
	callq	ComposeSparePictureMessage.6
	addq	$8, %rsp
	popq	%rbx
	popq	%r14
	popq	%r15
	popq	%rbp
	.cfi_def_cfa %rsp, 8
	retq
.LBB10_2:                               # %func_ComposeSparePictureMessage.28
	.cfi_def_cfa %rbp, 16
	movl	%ebx, %edi
	movl	%r15d, %esi
	movq	%r14, %rdx
	callq	ComposeSparePictureMessage.28
	addq	$8, %rsp
	popq	%rbx
	popq	%r14
	popq	%r15
	popq	%rbp
	.cfi_def_cfa %rsp, 8
	retq
.LBB10_3:                               # %func_ComposeSparePictureMessage.32
	.cfi_def_cfa %rbp, 16
	movl	%ebx, %edi
	movl	%r15d, %esi
	movq	%r14, %rdx
	callq	ComposeSparePictureMessage.32
	addq	$8, %rsp
	popq	%rbx
	popq	%r14
	popq	%r15
	popq	%rbp
	.cfi_def_cfa %rsp, 8
	retq
.LBB10_4:                               # %func_ComposeSparePictureMessage.36
	.cfi_def_cfa %rbp, 16
	movl	%ebx, %edi
	movl	%r15d, %esi
	movq	%r14, %rdx
	callq	ComposeSparePictureMessage.36
	addq	$8, %rsp
	popq	%rbx
	popq	%r14
	popq	%r15
	popq	%rbp
	.cfi_def_cfa %rsp, 8
	retq
.LBB10_5:                               # %func_ComposeSparePictureMessage.39
	.cfi_def_cfa %rbp, 16
	movl	%ebx, %edi
	movl	%r15d, %esi
	movq	%r14, %rdx
	callq	ComposeSparePictureMessage.39
	addq	$8, %rsp
	popq	%rbx
	popq	%r14
	popq	%r15
	popq	%rbp
	.cfi_def_cfa %rsp, 8
	retq
.LBB10_6:                               # %func_ComposeSparePictureMessage.68
	.cfi_def_cfa %rbp, 16
	movl	%ebx, %edi
	movl	%r15d, %esi
	movq	%r14, %rdx
	callq	ComposeSparePictureMessage.68
	addq	$8, %rsp
	popq	%rbx
	popq	%r14
	popq	%r15
	popq	%rbp
	.cfi_def_cfa %rsp, 8
	retq
.LBB10_7:                               # %func_ComposeSparePictureMessage.78
	.cfi_def_cfa %rbp, 16
	movl	%ebx, %edi
	movl	%r15d, %esi
	movq	%r14, %rdx
	callq	ComposeSparePictureMessage.78
	addq	$8, %rsp
	popq	%rbx
	popq	%r14
	popq	%r15
	popq	%rbp
	.cfi_def_cfa %rsp, 8
	retq
.LBB10_8:                               # %func_ComposeSparePictureMessage.88
	.cfi_def_cfa %rbp, 16
	movl	%ebx, %edi
	movl	%r15d, %esi
	movq	%r14, %rdx
	callq	ComposeSparePictureMessage.88
	addq	$8, %rsp
	popq	%rbx
	popq	%r14
	popq	%r15
	popq	%rbp
	.cfi_def_cfa %rsp, 8
	retq
.LBB10_9:                               # %func_ComposeSparePictureMessage.92
	.cfi_def_cfa %rbp, 16
	movl	%ebx, %edi
	movl	%r15d, %esi
	movq	%r14, %rdx
	callq	ComposeSparePictureMessage.92
	addq	$8, %rsp
	popq	%rbx
	popq	%r14
	popq	%r15
	popq	%rbp
	.cfi_def_cfa %rsp, 8
	retq
.LBB10_10:                              # %func_ComposeSparePictureMessage.107
	.cfi_def_cfa %rbp, 16
	movl	%ebx, %edi
	movl	%r15d, %esi
	movq	%r14, %rdx
	callq	ComposeSparePictureMessage.107
	addq	$8, %rsp
	popq	%rbx
	popq	%r14
	popq	%r15
	popq	%rbp
	.cfi_def_cfa %rsp, 8
	retq
.LBB10_11:                              # %func_ComposeSparePictureMessage.112
	.cfi_def_cfa %rbp, 16
	movl	%ebx, %edi
	movl	%r15d, %esi
	movq	%r14, %rdx
	callq	ComposeSparePictureMessage.112
	addq	$8, %rsp
	popq	%rbx
	popq	%r14
	popq	%r15
	popq	%rbp
	.cfi_def_cfa %rsp, 8
	retq
.LBB10_12:                              # %func_ComposeSparePictureMessage.118
	.cfi_def_cfa %rbp, 16
	movl	%ebx, %edi
	movl	%r15d, %esi
	movq	%r14, %rdx
	callq	ComposeSparePictureMessage.118
	addq	$8, %rsp
	popq	%rbx
	popq	%r14
	popq	%r15
	popq	%rbp
	.cfi_def_cfa %rsp, 8
	retq
.LBB10_13:                              # %func_ComposeSparePictureMessage.120
	.cfi_def_cfa %rbp, 16
	movl	%ebx, %edi
	movl	%r15d, %esi
	movq	%r14, %rdx
	callq	ComposeSparePictureMessage.120
	addq	$8, %rsp
	popq	%rbx
	popq	%r14
	popq	%r15
	popq	%rbp
	.cfi_def_cfa %rsp, 8
	retq
.LBB10_14:                              # %func_ComposeSparePictureMessage.121
	.cfi_def_cfa %rbp, 16
	movl	%ebx, %edi
	movl	%r15d, %esi
	movq	%r14, %rdx
	callq	ComposeSparePictureMessage.121
	addq	$8, %rsp
	popq	%rbx
	popq	%r14
	popq	%r15
	popq	%rbp
	.cfi_def_cfa %rsp, 8
	retq
.LBB10_15:                              # %func_ComposeSparePictureMessage.123
	.cfi_def_cfa %rbp, 16
	movl	%ebx, %edi
	movl	%r15d, %esi
	movq	%r14, %rdx
	callq	ComposeSparePictureMessage.123
	addq	$8, %rsp
	popq	%rbx
	popq	%r14
	popq	%r15
	popq	%rbp
	.cfi_def_cfa %rsp, 8
	retq
.LBB10_16:                              # %func_ComposeSparePictureMessage.131
	.cfi_def_cfa %rbp, 16
	movl	%ebx, %edi
	movl	%r15d, %esi
	movq	%r14, %rdx
	callq	ComposeSparePictureMessage.131
	addq	$8, %rsp
	popq	%rbx
	popq	%r14
	popq	%r15
	popq	%rbp
	.cfi_def_cfa %rsp, 8
	retq
.LBB10_17:                              # %ctrl0
	.cfi_def_cfa %rbp, 16
	cmpl	$1, %eax
	je	.LBB10_2
# %bb.18:                               # %ctrl1
	cmpl	$2, %eax
	je	.LBB10_3
# %bb.19:                               # %ctrl2
	cmpl	$3, %eax
	je	.LBB10_4
# %bb.20:                               # %ctrl3
	cmpl	$4, %eax
	je	.LBB10_5
# %bb.21:                               # %ctrl4
	cmpl	$5, %eax
	je	.LBB10_6
# %bb.22:                               # %ctrl5
	cmpl	$6, %eax
	je	.LBB10_7
# %bb.23:                               # %ctrl6
	cmpl	$7, %eax
	je	.LBB10_8
# %bb.24:                               # %ctrl7
	cmpl	$8, %eax
	je	.LBB10_9
# %bb.25:                               # %ctrl8
	cmpl	$9, %eax
	je	.LBB10_10
# %bb.26:                               # %ctrl9
	cmpl	$10, %eax
	je	.LBB10_11
# %bb.27:                               # %ctrl10
	cmpl	$11, %eax
	je	.LBB10_12
# %bb.28:                               # %ctrl11
	cmpl	$12, %eax
	je	.LBB10_13
# %bb.29:                               # %ctrl12
	cmpl	$13, %eax
	je	.LBB10_14
# %bb.30:                               # %ctrl13
	cmpl	$14, %eax
	je	.LBB10_15
	jmp	.LBB10_16
.Lfunc_end10:
	.size	ComposeSparePictureMessage, .Lfunc_end10-ComposeSparePictureMessage
	.cfi_endproc
                                        # -- End function
	.globl	CompressSpareMBMap      # -- Begin function CompressSpareMBMap
	.p2align	4, 0x90
	.type	CompressSpareMBMap,@function
CompressSpareMBMap:                     # @CompressSpareMBMap
	.cfi_startproc
# %bb.0:                                # %rand_bb
	pushq	%rbp
	.cfi_def_cfa_offset 16
	.cfi_offset %rbp, -16
	movq	%rsp, %rbp
	.cfi_def_cfa_register %rbp
	pushq	%r14
	pushq	%rbx
	.cfi_offset %rbx, -32
	.cfi_offset %r14, -24
	movq	%rsi, %r14
	movq	%rdi, %rbx
	callq	get_urand
	cmpl	$0, %eax
	jne	.LBB11_17
# %bb.1:                                # %func_CompressSpareMBMap.21
	movq	%rbx, %rdi
	movq	%r14, %rsi
	callq	CompressSpareMBMap.21
	popq	%rbx
	popq	%r14
	popq	%rbp
	.cfi_def_cfa %rsp, 8
	retq
.LBB11_2:                               # %func_CompressSpareMBMap.23
	.cfi_def_cfa %rbp, 16
	movq	%rbx, %rdi
	movq	%r14, %rsi
	callq	CompressSpareMBMap.23
	popq	%rbx
	popq	%r14
	popq	%rbp
	.cfi_def_cfa %rsp, 8
	retq
.LBB11_3:                               # %func_CompressSpareMBMap.61
	.cfi_def_cfa %rbp, 16
	movq	%rbx, %rdi
	movq	%r14, %rsi
	callq	CompressSpareMBMap.61
	popq	%rbx
	popq	%r14
	popq	%rbp
	.cfi_def_cfa %rsp, 8
	retq
.LBB11_4:                               # %func_CompressSpareMBMap.69
	.cfi_def_cfa %rbp, 16
	movq	%rbx, %rdi
	movq	%r14, %rsi
	callq	CompressSpareMBMap.69
	popq	%rbx
	popq	%r14
	popq	%rbp
	.cfi_def_cfa %rsp, 8
	retq
.LBB11_5:                               # %func_CompressSpareMBMap.77
	.cfi_def_cfa %rbp, 16
	movq	%rbx, %rdi
	movq	%r14, %rsi
	callq	CompressSpareMBMap.77
	popq	%rbx
	popq	%r14
	popq	%rbp
	.cfi_def_cfa %rsp, 8
	retq
.LBB11_6:                               # %func_CompressSpareMBMap.91
	.cfi_def_cfa %rbp, 16
	movq	%rbx, %rdi
	movq	%r14, %rsi
	callq	CompressSpareMBMap.91
	popq	%rbx
	popq	%r14
	popq	%rbp
	.cfi_def_cfa %rsp, 8
	retq
.LBB11_7:                               # %func_CompressSpareMBMap.106
	.cfi_def_cfa %rbp, 16
	movq	%rbx, %rdi
	movq	%r14, %rsi
	callq	CompressSpareMBMap.106
	popq	%rbx
	popq	%r14
	popq	%rbp
	.cfi_def_cfa %rsp, 8
	retq
.LBB11_8:                               # %func_CompressSpareMBMap.110
	.cfi_def_cfa %rbp, 16
	movq	%rbx, %rdi
	movq	%r14, %rsi
	callq	CompressSpareMBMap.110
	popq	%rbx
	popq	%r14
	popq	%rbp
	.cfi_def_cfa %rsp, 8
	retq
.LBB11_9:                               # %func_CompressSpareMBMap.115
	.cfi_def_cfa %rbp, 16
	movq	%rbx, %rdi
	movq	%r14, %rsi
	callq	CompressSpareMBMap.115
	popq	%rbx
	popq	%r14
	popq	%rbp
	.cfi_def_cfa %rsp, 8
	retq
.LBB11_10:                              # %func_CompressSpareMBMap.122
	.cfi_def_cfa %rbp, 16
	movq	%rbx, %rdi
	movq	%r14, %rsi
	callq	CompressSpareMBMap.122
	popq	%rbx
	popq	%r14
	popq	%rbp
	.cfi_def_cfa %rsp, 8
	retq
.LBB11_11:                              # %func_CompressSpareMBMap.134
	.cfi_def_cfa %rbp, 16
	movq	%rbx, %rdi
	movq	%r14, %rsi
	callq	CompressSpareMBMap.134
	popq	%rbx
	popq	%r14
	popq	%rbp
	.cfi_def_cfa %rsp, 8
	retq
.LBB11_12:                              # %func_CompressSpareMBMap.136
	.cfi_def_cfa %rbp, 16
	movq	%rbx, %rdi
	movq	%r14, %rsi
	callq	CompressSpareMBMap.136
	popq	%rbx
	popq	%r14
	popq	%rbp
	.cfi_def_cfa %rsp, 8
	retq
.LBB11_13:                              # %func_CompressSpareMBMap.138
	.cfi_def_cfa %rbp, 16
	movq	%rbx, %rdi
	movq	%r14, %rsi
	callq	CompressSpareMBMap.138
	popq	%rbx
	popq	%r14
	popq	%rbp
	.cfi_def_cfa %rsp, 8
	retq
.LBB11_14:                              # %func_CompressSpareMBMap.145
	.cfi_def_cfa %rbp, 16
	movq	%rbx, %rdi
	movq	%r14, %rsi
	callq	CompressSpareMBMap.145
	popq	%rbx
	popq	%r14
	popq	%rbp
	.cfi_def_cfa %rsp, 8
	retq
.LBB11_15:                              # %func_CompressSpareMBMap.147
	.cfi_def_cfa %rbp, 16
	movq	%rbx, %rdi
	movq	%r14, %rsi
	callq	CompressSpareMBMap.147
	popq	%rbx
	popq	%r14
	popq	%rbp
	.cfi_def_cfa %rsp, 8
	retq
.LBB11_16:                              # %func_CompressSpareMBMap.149
	.cfi_def_cfa %rbp, 16
	movq	%rbx, %rdi
	movq	%r14, %rsi
	callq	CompressSpareMBMap.149
	popq	%rbx
	popq	%r14
	popq	%rbp
	.cfi_def_cfa %rsp, 8
	retq
.LBB11_17:                              # %ctrl0
	.cfi_def_cfa %rbp, 16
	cmpl	$1, %eax
	je	.LBB11_2
# %bb.18:                               # %ctrl1
	cmpl	$2, %eax
	je	.LBB11_3
# %bb.19:                               # %ctrl2
	cmpl	$3, %eax
	je	.LBB11_4
# %bb.20:                               # %ctrl3
	cmpl	$4, %eax
	je	.LBB11_5
# %bb.21:                               # %ctrl4
	cmpl	$5, %eax
	je	.LBB11_6
# %bb.22:                               # %ctrl5
	cmpl	$6, %eax
	je	.LBB11_7
# %bb.23:                               # %ctrl6
	cmpl	$7, %eax
	je	.LBB11_8
# %bb.24:                               # %ctrl7
	cmpl	$8, %eax
	je	.LBB11_9
# %bb.25:                               # %ctrl8
	cmpl	$9, %eax
	je	.LBB11_10
# %bb.26:                               # %ctrl9
	cmpl	$10, %eax
	je	.LBB11_11
# %bb.27:                               # %ctrl10
	cmpl	$11, %eax
	je	.LBB11_12
# %bb.28:                               # %ctrl11
	cmpl	$12, %eax
	je	.LBB11_13
# %bb.29:                               # %ctrl12
	cmpl	$13, %eax
	je	.LBB11_14
# %bb.30:                               # %ctrl13
	cmpl	$14, %eax
	je	.LBB11_15
	jmp	.LBB11_16
.Lfunc_end11:
	.size	CompressSpareMBMap, .Lfunc_end11-CompressSpareMBMap
	.cfi_endproc
                                        # -- End function
	.globl	FinalizeSpareMBMap      # -- Begin function FinalizeSpareMBMap
	.p2align	4, 0x90
	.type	FinalizeSpareMBMap,@function
FinalizeSpareMBMap:                     # @FinalizeSpareMBMap
	.cfi_startproc
# %bb.0:                                # %rand_bb
	pushq	%rbp
	.cfi_def_cfa_offset 16
	.cfi_offset %rbp, -16
	movq	%rsp, %rbp
	.cfi_def_cfa_register %rbp
	callq	get_urand
	cmpl	$0, %eax
	jne	.LBB12_17
# %bb.1:                                # %func_FinalizeSpareMBMap.38
	callq	FinalizeSpareMBMap.38
	popq	%rbp
	.cfi_def_cfa %rsp, 8
	retq
.LBB12_2:                               # %func_FinalizeSpareMBMap.40
	.cfi_def_cfa %rbp, 16
	callq	FinalizeSpareMBMap.40
	popq	%rbp
	.cfi_def_cfa %rsp, 8
	retq
.LBB12_3:                               # %func_FinalizeSpareMBMap.63
	.cfi_def_cfa %rbp, 16
	callq	FinalizeSpareMBMap.63
	popq	%rbp
	.cfi_def_cfa %rsp, 8
	retq
.LBB12_4:                               # %func_FinalizeSpareMBMap.66
	.cfi_def_cfa %rbp, 16
	callq	FinalizeSpareMBMap.66
	popq	%rbp
	.cfi_def_cfa %rsp, 8
	retq
.LBB12_5:                               # %func_FinalizeSpareMBMap.72
	.cfi_def_cfa %rbp, 16
	callq	FinalizeSpareMBMap.72
	popq	%rbp
	.cfi_def_cfa %rsp, 8
	retq
.LBB12_6:                               # %func_FinalizeSpareMBMap.75
	.cfi_def_cfa %rbp, 16
	callq	FinalizeSpareMBMap.75
	popq	%rbp
	.cfi_def_cfa %rsp, 8
	retq
.LBB12_7:                               # %func_FinalizeSpareMBMap.76
	.cfi_def_cfa %rbp, 16
	callq	FinalizeSpareMBMap.76
	popq	%rbp
	.cfi_def_cfa %rsp, 8
	retq
.LBB12_8:                               # %func_FinalizeSpareMBMap.87
	.cfi_def_cfa %rbp, 16
	callq	FinalizeSpareMBMap.87
	popq	%rbp
	.cfi_def_cfa %rsp, 8
	retq
.LBB12_9:                               # %func_FinalizeSpareMBMap.93
	.cfi_def_cfa %rbp, 16
	callq	FinalizeSpareMBMap.93
	popq	%rbp
	.cfi_def_cfa %rsp, 8
	retq
.LBB12_10:                              # %func_FinalizeSpareMBMap.94
	.cfi_def_cfa %rbp, 16
	callq	FinalizeSpareMBMap.94
	popq	%rbp
	.cfi_def_cfa %rsp, 8
	retq
.LBB12_11:                              # %func_FinalizeSpareMBMap.99
	.cfi_def_cfa %rbp, 16
	callq	FinalizeSpareMBMap.99
	popq	%rbp
	.cfi_def_cfa %rsp, 8
	retq
.LBB12_12:                              # %func_FinalizeSpareMBMap.105
	.cfi_def_cfa %rbp, 16
	callq	FinalizeSpareMBMap.105
	popq	%rbp
	.cfi_def_cfa %rsp, 8
	retq
.LBB12_13:                              # %func_FinalizeSpareMBMap.108
	.cfi_def_cfa %rbp, 16
	callq	FinalizeSpareMBMap.108
	popq	%rbp
	.cfi_def_cfa %rsp, 8
	retq
.LBB12_14:                              # %func_FinalizeSpareMBMap.109
	.cfi_def_cfa %rbp, 16
	callq	FinalizeSpareMBMap.109
	popq	%rbp
	.cfi_def_cfa %rsp, 8
	retq
.LBB12_15:                              # %func_FinalizeSpareMBMap.117
	.cfi_def_cfa %rbp, 16
	callq	FinalizeSpareMBMap.117
	popq	%rbp
	.cfi_def_cfa %rsp, 8
	retq
.LBB12_16:                              # %func_FinalizeSpareMBMap.127
	.cfi_def_cfa %rbp, 16
	callq	FinalizeSpareMBMap.127
	popq	%rbp
	.cfi_def_cfa %rsp, 8
	retq
.LBB12_17:                              # %ctrl0
	.cfi_def_cfa %rbp, 16
	cmpl	$1, %eax
	je	.LBB12_2
# %bb.18:                               # %ctrl1
	cmpl	$2, %eax
	je	.LBB12_3
# %bb.19:                               # %ctrl2
	cmpl	$3, %eax
	je	.LBB12_4
# %bb.20:                               # %ctrl3
	cmpl	$4, %eax
	je	.LBB12_5
# %bb.21:                               # %ctrl4
	cmpl	$5, %eax
	je	.LBB12_6
# %bb.22:                               # %ctrl5
	cmpl	$6, %eax
	je	.LBB12_7
# %bb.23:                               # %ctrl6
	cmpl	$7, %eax
	je	.LBB12_8
# %bb.24:                               # %ctrl7
	cmpl	$8, %eax
	je	.LBB12_9
# %bb.25:                               # %ctrl8
	cmpl	$9, %eax
	je	.LBB12_10
# %bb.26:                               # %ctrl9
	cmpl	$10, %eax
	je	.LBB12_11
# %bb.27:                               # %ctrl10
	cmpl	$11, %eax
	je	.LBB12_12
# %bb.28:                               # %ctrl11
	cmpl	$12, %eax
	je	.LBB12_13
# %bb.29:                               # %ctrl12
	cmpl	$13, %eax
	je	.LBB12_14
# %bb.30:                               # %ctrl13
	cmpl	$14, %eax
	je	.LBB12_15
	jmp	.LBB12_16
.Lfunc_end12:
	.size	FinalizeSpareMBMap, .Lfunc_end12-FinalizeSpareMBMap
	.cfi_endproc
                                        # -- End function
	.globl	InitSubseqInfo          # -- Begin function InitSubseqInfo
	.p2align	4, 0x90
	.type	InitSubseqInfo,@function
InitSubseqInfo:                         # @InitSubseqInfo
	.cfi_startproc
# %bb.0:                                # %entry
	pushq	%rbp
	.cfi_def_cfa_offset 16
	.cfi_offset %rbp, -16
	movq	%rsp, %rbp
	.cfi_def_cfa_register %rbp
	subq	$16, %rsp
	movl	%edi, -4(%rbp)
	movl	$1, seiHasSubseqInfo
	movl	-4(%rbp), %eax
	movslq	-4(%rbp), %rcx
	shlq	$5, %rcx
	movabsq	$seiSubseqInfo, %rdx
	movq	%rdx, %rsi
	addq	%rcx, %rsi
	movl	%eax, (%rsi)
	movw	InitSubseqInfo.id, %ax
	movw	%ax, %cx
	addw	$1, %cx
	movw	%cx, InitSubseqInfo.id
	movzwl	%ax, %eax
	movslq	-4(%rbp), %rcx
	shlq	$5, %rcx
	movq	%rdx, %rsi
	addq	%rcx, %rsi
	movl	%eax, 4(%rsi)
	movslq	-4(%rbp), %rax
	shlq	$5, %rax
	movq	%rdx, %rcx
	addq	%rax, %rcx
	movl	$0, 8(%rcx)
	movslq	-4(%rbp), %rax
	shlq	$5, %rax
	movq	%rdx, %rcx
	addq	%rax, %rcx
	movl	$-1, 12(%rcx)
	movslq	-4(%rbp), %rax
	shlq	$5, %rax
	addq	%rax, %rdx
	movl	$0, 16(%rdx)
	movl	$48, %edi
	callq	malloc
	movslq	-4(%rbp), %rcx
	shlq	$5, %rcx
	movabsq	$seiSubseqInfo, %rdx
	movq	%rdx, %rsi
	addq	%rcx, %rsi
	movq	%rax, 24(%rsi)
	movslq	-4(%rbp), %rax
	shlq	$5, %rax
	addq	%rax, %rdx
	cmpq	$0, 24(%rdx)
	jne	.LBB13_2
# %bb.1:                                # %if.then
	movabsq	$.L.str.5, %rdi
	callq	no_mem_exit
.LBB13_2:                               # %if.end
	movl	$65496, %edi            # imm = 0xFFD8
	callq	malloc
	movslq	-4(%rbp), %rcx
	shlq	$5, %rcx
	movabsq	$seiSubseqInfo, %rdx
	movq	%rdx, %rsi
	addq	%rcx, %rsi
	movq	24(%rsi), %rcx
	movq	%rax, 32(%rcx)
	movslq	-4(%rbp), %rax
	shlq	$5, %rax
	addq	%rax, %rdx
	movq	24(%rdx), %rax
	cmpq	$0, 32(%rax)
	jne	.LBB13_4
# %bb.3:                                # %if.then25
	movabsq	$.L.str.6, %rdi
	callq	no_mem_exit
.LBB13_4:                               # %if.end26
	movslq	-4(%rbp), %rax
	shlq	$5, %rax
	movabsq	$seiSubseqInfo, %rcx
	movq	%rcx, %rdx
	addq	%rax, %rdx
	movq	24(%rdx), %rax
	movl	$8, 4(%rax)
	movslq	-4(%rbp), %rax
	shlq	$5, %rax
	movq	%rcx, %rdx
	addq	%rax, %rdx
	movq	24(%rdx), %rax
	movl	$0, (%rax)
	movslq	-4(%rbp), %rax
	shlq	$5, %rax
	movq	%rcx, %rdx
	addq	%rax, %rdx
	movq	24(%rdx), %rax
	movb	$0, 8(%rax)
	movslq	-4(%rbp), %rax
	shlq	$5, %rax
	addq	%rax, %rcx
	movq	24(%rcx), %rax
	movq	32(%rax), %rdi
	xorl	%esi, %esi
	movl	$65496, %edx            # imm = 0xFFD8
	callq	memset
	addq	$16, %rsp
	popq	%rbp
	.cfi_def_cfa %rsp, 8
	retq
.Lfunc_end13:
	.size	InitSubseqInfo, .Lfunc_end13-InitSubseqInfo
	.cfi_endproc
                                        # -- End function
	.globl	UpdateSubseqInfo        # -- Begin function UpdateSubseqInfo
	.p2align	4, 0x90
	.type	UpdateSubseqInfo,@function
UpdateSubseqInfo:                       # @UpdateSubseqInfo
	.cfi_startproc
# %bb.0:                                # %entry
	pushq	%rbp
	.cfi_def_cfa_offset 16
	.cfi_offset %rbp, -16
	movq	%rsp, %rbp
	.cfi_def_cfa_register %rbp
	movl	%edi, -4(%rbp)
	movq	img, %rax
	cmpl	$1, 24(%rax)
	je	.LBB14_2
# %bb.1:                                # %if.then
	movslq	-4(%rbp), %rax
	shlq	$5, %rax
	movabsq	$seiSubseqInfo, %rcx
	movq	%rcx, %rdx
	addq	%rax, %rdx
	movl	12(%rdx), %eax
	addl	$1, %eax
	movl	%eax, 12(%rdx)
	movslq	-4(%rbp), %rax
	shlq	$5, %rax
	movq	%rcx, %rdx
	addq	%rax, %rdx
	movl	12(%rdx), %eax
	andl	$255, %eax
	movslq	-4(%rbp), %rdx
	shlq	$5, %rdx
	addq	%rdx, %rcx
	movl	%eax, 12(%rcx)
.LBB14_2:                               # %if.end
	cmpl	$0, -4(%rbp)
	jne	.LBB14_7
# %bb.3:                                # %if.then8
	movq	img, %rax
	movl	(%rax), %eax
	movq	input, %rcx
	movl	8(%rcx), %ecx
	subl	$1, %ecx
	cmpl	%ecx, %eax
	jne	.LBB14_5
# %bb.4:                                # %if.then10
	movslq	-4(%rbp), %rax
	shlq	$5, %rax
	movabsq	$seiSubseqInfo, %rcx
	addq	%rax, %rcx
	movl	$1, 8(%rcx)
	jmp	.LBB14_6
.LBB14_5:                               # %if.else
	movslq	-4(%rbp), %rax
	shlq	$5, %rax
	movabsq	$seiSubseqInfo, %rcx
	addq	%rax, %rcx
	movl	$0, 8(%rcx)
.LBB14_6:                               # %if.end16
	jmp	.LBB14_7
.LBB14_7:                               # %if.end17
	cmpl	$1, -4(%rbp)
	jne	.LBB14_16
# %bb.8:                                # %if.then19
	movq	img, %rax
	movl	(%rax), %eax
	subl	start_frame_no_in_this_IGOP, %eax
	movq	input, %rcx
	movl	2912(%rcx), %ecx
	addl	$1, %ecx
	cltd
	idivl	%ecx
	cmpl	$0, %edx
	jne	.LBB14_11
# %bb.9:                                # %land.lhs.true
	movq	input, %rax
	cmpl	$0, 1236(%rax)
	je	.LBB14_11
# %bb.10:                               # %land.lhs.true25
	movq	img, %rax
	movl	(%rax), %eax
	subl	start_frame_no_in_this_IGOP, %eax
	cmpl	$0, %eax
	jg	.LBB14_13
.LBB14_11:                              # %lor.lhs.false
	movq	img, %rax
	movl	(%rax), %eax
	subl	start_frame_no_in_this_IGOP, %eax
	movq	input, %rcx
	movl	2912(%rcx), %ecx
	addl	$1, %ecx
	cltd
	idivl	%ecx
	movq	input, %rax
	cmpl	2912(%rax), %edx
	jne	.LBB14_14
# %bb.12:                               # %land.lhs.true36
	movq	input, %rax
	cmpl	$0, 1236(%rax)
	jne	.LBB14_14
.LBB14_13:                              # %if.then39
	movslq	-4(%rbp), %rax
	shlq	$5, %rax
	movabsq	$seiSubseqInfo, %rcx
	addq	%rax, %rcx
	movl	$1, 8(%rcx)
	jmp	.LBB14_15
.LBB14_14:                              # %if.else43
	movslq	-4(%rbp), %rax
	shlq	$5, %rax
	movabsq	$seiSubseqInfo, %rcx
	addq	%rax, %rcx
	movl	$0, 8(%rcx)
.LBB14_15:                              # %if.end47
	jmp	.LBB14_16
.LBB14_16:                              # %if.end48
	popq	%rbp
	.cfi_def_cfa %rsp, 8
	retq
.Lfunc_end14:
	.size	UpdateSubseqInfo, .Lfunc_end14-UpdateSubseqInfo
	.cfi_endproc
                                        # -- End function
	.globl	FinalizeSubseqInfo      # -- Begin function FinalizeSubseqInfo
	.p2align	4, 0x90
	.type	FinalizeSubseqInfo,@function
FinalizeSubseqInfo:                     # @FinalizeSubseqInfo
	.cfi_startproc
# %bb.0:                                # %rand_bb
	pushq	%rbp
	.cfi_def_cfa_offset 16
	.cfi_offset %rbp, -16
	movq	%rsp, %rbp
	.cfi_def_cfa_register %rbp
	pushq	%rbx
	pushq	%rax
	.cfi_offset %rbx, -24
	movl	%edi, %ebx
	callq	get_urand
	cmpl	$0, %eax
	jne	.LBB15_7
# %bb.1:                                # %func_FinalizeSubseqInfo.7
	movl	%ebx, %edi
	callq	FinalizeSubseqInfo.7
	addq	$8, %rsp
	popq	%rbx
	popq	%rbp
	.cfi_def_cfa %rsp, 8
	retq
.LBB15_2:                               # %func_FinalizeSubseqInfo.13
	.cfi_def_cfa %rbp, 16
	movl	%ebx, %edi
	callq	FinalizeSubseqInfo.13
	addq	$8, %rsp
	popq	%rbx
	popq	%rbp
	.cfi_def_cfa %rsp, 8
	retq
.LBB15_3:                               # %func_FinalizeSubseqInfo.27
	.cfi_def_cfa %rbp, 16
	movl	%ebx, %edi
	callq	FinalizeSubseqInfo.27
	addq	$8, %rsp
	popq	%rbx
	popq	%rbp
	.cfi_def_cfa %rsp, 8
	retq
.LBB15_4:                               # %func_FinalizeSubseqInfo.34
	.cfi_def_cfa %rbp, 16
	movl	%ebx, %edi
	callq	FinalizeSubseqInfo.34
	addq	$8, %rsp
	popq	%rbx
	popq	%rbp
	.cfi_def_cfa %rsp, 8
	retq
.LBB15_5:                               # %func_FinalizeSubseqInfo.47
	.cfi_def_cfa %rbp, 16
	movl	%ebx, %edi
	callq	FinalizeSubseqInfo.47
	addq	$8, %rsp
	popq	%rbx
	popq	%rbp
	.cfi_def_cfa %rsp, 8
	retq
.LBB15_6:                               # %func_FinalizeSubseqInfo.57
	.cfi_def_cfa %rbp, 16
	movl	%ebx, %edi
	callq	FinalizeSubseqInfo.57
	addq	$8, %rsp
	popq	%rbx
	popq	%rbp
	.cfi_def_cfa %rsp, 8
	retq
.LBB15_7:                               # %ctrl0
	.cfi_def_cfa %rbp, 16
	cmpl	$1, %eax
	je	.LBB15_2
# %bb.8:                                # %ctrl1
	cmpl	$2, %eax
	je	.LBB15_3
# %bb.9:                                # %ctrl2
	cmpl	$3, %eax
	je	.LBB15_4
# %bb.10:                               # %ctrl3
	cmpl	$4, %eax
	je	.LBB15_5
	jmp	.LBB15_6
.Lfunc_end15:
	.size	FinalizeSubseqInfo, .Lfunc_end15-FinalizeSubseqInfo
	.cfi_endproc
                                        # -- End function
	.globl	ClearSubseqInfoPayload  # -- Begin function ClearSubseqInfoPayload
	.p2align	4, 0x90
	.type	ClearSubseqInfoPayload,@function
ClearSubseqInfoPayload:                 # @ClearSubseqInfoPayload
	.cfi_startproc
# %bb.0:                                # %entry
	pushq	%rbp
	.cfi_def_cfa_offset 16
	.cfi_offset %rbp, -16
	movq	%rsp, %rbp
	.cfi_def_cfa_register %rbp
	pushq	%rbx
	pushq	%rax
	.cfi_offset %rbx, -24
	movl	%edi, -12(%rbp)
	movslq	-12(%rbp), %rax
	shlq	$5, %rax
	movabsq	$seiSubseqInfo, %rbx
	movq	%rbx, %rcx
	addq	%rax, %rcx
	movq	24(%rcx), %rax
	movl	$8, 4(%rax)
	movslq	-12(%rbp), %rax
	shlq	$5, %rax
	movq	%rbx, %rcx
	addq	%rax, %rcx
	movq	24(%rcx), %rax
	movl	$0, (%rax)
	movslq	-12(%rbp), %rax
	shlq	$5, %rax
	movq	%rbx, %rcx
	addq	%rax, %rcx
	movq	24(%rcx), %rax
	movb	$0, 8(%rax)
	movslq	-12(%rbp), %rax
	shlq	$5, %rax
	movq	%rbx, %rcx
	addq	%rax, %rcx
	movq	24(%rcx), %rax
	movq	32(%rax), %rdi
	xorl	%esi, %esi
	movl	$65496, %edx            # imm = 0xFFD8
	callq	memset
	movslq	-12(%rbp), %rax
	shlq	$5, %rax
	addq	%rax, %rbx
	movl	$0, 16(%rbx)
	addq	$8, %rsp
	popq	%rbx
	popq	%rbp
	.cfi_def_cfa %rsp, 8
	retq
.Lfunc_end16:
	.size	ClearSubseqInfoPayload, .Lfunc_end16-ClearSubseqInfoPayload
	.cfi_endproc
                                        # -- End function
	.globl	CloseSubseqInfo         # -- Begin function CloseSubseqInfo
	.p2align	4, 0x90
	.type	CloseSubseqInfo,@function
CloseSubseqInfo:                        # @CloseSubseqInfo
	.cfi_startproc
# %bb.0:                                # %entry
	pushq	%rbp
	.cfi_def_cfa_offset 16
	.cfi_offset %rbp, -16
	movq	%rsp, %rbp
	.cfi_def_cfa_register %rbp
	subq	$16, %rsp
	movl	%edi, -4(%rbp)
	movslq	-4(%rbp), %rax
	shlq	$5, %rax
	movabsq	$seiSubseqInfo, %rcx
	movq	%rcx, %rdx
	addq	%rax, %rdx
	movl	$-1, 12(%rdx)
	movslq	-4(%rbp), %rax
	shlq	$5, %rax
	movq	%rcx, %rdx
	addq	%rax, %rdx
	movl	$0, 16(%rdx)
	movslq	-4(%rbp), %rax
	shlq	$5, %rax
	addq	%rax, %rcx
	movq	24(%rcx), %rax
	movq	32(%rax), %rdi
	callq	free
	movslq	-4(%rbp), %rax
	shlq	$5, %rax
	movabsq	$seiSubseqInfo, %rcx
	addq	%rax, %rcx
	movq	24(%rcx), %rdi
	callq	free
	addq	$16, %rsp
	popq	%rbp
	.cfi_def_cfa %rsp, 8
	retq
.Lfunc_end17:
	.size	CloseSubseqInfo, .Lfunc_end17-CloseSubseqInfo
	.cfi_endproc
                                        # -- End function
	.globl	InitSubseqLayerInfo     # -- Begin function InitSubseqLayerInfo
	.p2align	4, 0x90
	.type	InitSubseqLayerInfo,@function
InitSubseqLayerInfo:                    # @InitSubseqLayerInfo
	.cfi_startproc
# %bb.0:                                # %entry
	pushq	%rbp
	.cfi_def_cfa_offset 16
	.cfi_offset %rbp, -16
	movq	%rsp, %rbp
	.cfi_def_cfa_register %rbp
	movl	$1, seiHasSubseqLayerInfo
	movl	$0, seiSubseqLayerInfo+16
	movl	$0, -4(%rbp)
.LBB18_1:                               # %for.cond
                                        # =>This Inner Loop Header: Depth=1
	cmpl	$2, -4(%rbp)
	jge	.LBB18_4
# %bb.2:                                # %for.body
                                        #   in Loop: Header=BB18_1 Depth=1
	movslq	-4(%rbp), %rax
	movw	$0, seiSubseqLayerInfo(,%rax,2)
	movslq	-4(%rbp), %rax
	movw	$0, seiSubseqLayerInfo+4(,%rax,2)
	movl	seiSubseqLayerInfo+16, %eax
	addl	$1, %eax
	movl	%eax, seiSubseqLayerInfo+16
# %bb.3:                                # %for.inc
                                        #   in Loop: Header=BB18_1 Depth=1
	movl	-4(%rbp), %eax
	addl	$1, %eax
	movl	%eax, -4(%rbp)
	jmp	.LBB18_1
.LBB18_4:                               # %for.end
	popq	%rbp
	.cfi_def_cfa %rsp, 8
	retq
.Lfunc_end18:
	.size	InitSubseqLayerInfo, .Lfunc_end18-InitSubseqLayerInfo
	.cfi_endproc
                                        # -- End function
	.globl	CloseSubseqLayerInfo    # -- Begin function CloseSubseqLayerInfo
	.p2align	4, 0x90
	.type	CloseSubseqLayerInfo,@function
CloseSubseqLayerInfo:                   # @CloseSubseqLayerInfo
	.cfi_startproc
# %bb.0:                                # %entry
	pushq	%rbp
	.cfi_def_cfa_offset 16
	.cfi_offset %rbp, -16
	movq	%rsp, %rbp
	.cfi_def_cfa_register %rbp
	popq	%rbp
	.cfi_def_cfa %rsp, 8
	retq
.Lfunc_end19:
	.size	CloseSubseqLayerInfo, .Lfunc_end19-CloseSubseqLayerInfo
	.cfi_endproc
                                        # -- End function
	.globl	FinalizeSubseqLayerInfo # -- Begin function FinalizeSubseqLayerInfo
	.p2align	4, 0x90
	.type	FinalizeSubseqLayerInfo,@function
FinalizeSubseqLayerInfo:                # @FinalizeSubseqLayerInfo
	.cfi_startproc
# %bb.0:                                # %rand_bb
	pushq	%rbp
	.cfi_def_cfa_offset 16
	.cfi_offset %rbp, -16
	movq	%rsp, %rbp
	.cfi_def_cfa_register %rbp
	callq	get_urand
	cmpl	$0, %eax
	jne	.LBB20_2
# %bb.1:                                # %func_FinalizeSubseqLayerInfo.10
	callq	FinalizeSubseqLayerInfo.10
	popq	%rbp
	.cfi_def_cfa %rsp, 8
	retq
.LBB20_2:                               # %func_FinalizeSubseqLayerInfo.18
	.cfi_def_cfa %rbp, 16
	callq	FinalizeSubseqLayerInfo.18
	popq	%rbp
	.cfi_def_cfa %rsp, 8
	retq
.Lfunc_end20:
	.size	FinalizeSubseqLayerInfo, .Lfunc_end20-FinalizeSubseqLayerInfo
	.cfi_endproc
                                        # -- End function
	.globl	InitSubseqChar          # -- Begin function InitSubseqChar
	.p2align	4, 0x90
	.type	InitSubseqChar,@function
InitSubseqChar:                         # @InitSubseqChar
	.cfi_startproc
# %bb.0:                                # %entry
	pushq	%rbp
	.cfi_def_cfa_offset 16
	.cfi_offset %rbp, -16
	movq	%rsp, %rbp
	.cfi_def_cfa_register %rbp
	movl	$48, %edi
	callq	malloc
	movq	%rax, seiSubseqChar+72
	cmpq	$0, seiSubseqChar+72
	jne	.LBB21_2
# %bb.1:                                # %if.then
	movabsq	$.L.str.7, %rdi
	callq	no_mem_exit
.LBB21_2:                               # %if.end
	movl	$65496, %edi            # imm = 0xFFD8
	callq	malloc
	movq	seiSubseqChar+72, %rcx
	movq	%rax, 32(%rcx)
	movq	seiSubseqChar+72, %rax
	cmpq	$0, 32(%rax)
	jne	.LBB21_4
# %bb.3:                                # %if.then4
	movabsq	$.L.str.8, %rdi
	callq	no_mem_exit
.LBB21_4:                               # %if.end5
	callq	ClearSubseqCharPayload
	movq	img, %rax
	movl	72384(%rax), %eax
	movl	%eax, seiSubseqChar
	movq	img, %rax
	movslq	72384(%rax), %rax
	shlq	$5, %rax
	movabsq	$seiSubseqInfo, %rcx
	addq	%rax, %rcx
	movl	4(%rcx), %eax
	movl	%eax, seiSubseqChar+4
	movl	$0, seiSubseqChar+8
	movl	$0, seiSubseqChar+16
	movl	$0, seiSubseqChar+28
	popq	%rbp
	.cfi_def_cfa %rsp, 8
	retq
.Lfunc_end21:
	.size	InitSubseqChar, .Lfunc_end21-InitSubseqChar
	.cfi_endproc
                                        # -- End function
	.globl	ClearSubseqCharPayload  # -- Begin function ClearSubseqCharPayload
	.p2align	4, 0x90
	.type	ClearSubseqCharPayload,@function
ClearSubseqCharPayload:                 # @ClearSubseqCharPayload
	.cfi_startproc
# %bb.0:                                # %entry
	pushq	%rbp
	.cfi_def_cfa_offset 16
	.cfi_offset %rbp, -16
	movq	%rsp, %rbp
	.cfi_def_cfa_register %rbp
	movq	seiSubseqChar+72, %rax
	movq	32(%rax), %rdi
	xorl	%esi, %esi
	movl	$65496, %edx            # imm = 0xFFD8
	callq	memset
	movq	seiSubseqChar+72, %rax
	movl	$8, 4(%rax)
	movq	seiSubseqChar+72, %rax
	movl	$0, (%rax)
	movq	seiSubseqChar+72, %rax
	movb	$0, 8(%rax)
	movl	$0, seiSubseqChar+80
	movl	$0, seiHasSubseqChar
	popq	%rbp
	.cfi_def_cfa %rsp, 8
	retq
.Lfunc_end22:
	.size	ClearSubseqCharPayload, .Lfunc_end22-ClearSubseqCharPayload
	.cfi_endproc
                                        # -- End function
	.globl	UpdateSubseqChar        # -- Begin function UpdateSubseqChar
	.p2align	4, 0x90
	.type	UpdateSubseqChar,@function
UpdateSubseqChar:                       # @UpdateSubseqChar
	.cfi_startproc
# %bb.0:                                # %entry
	pushq	%rbp
	.cfi_def_cfa_offset 16
	.cfi_offset %rbp, -16
	movq	%rsp, %rbp
	.cfi_def_cfa_register %rbp
	movq	img, %rax
	movl	72384(%rax), %eax
	movl	%eax, seiSubseqChar
	movq	img, %rax
	movslq	72384(%rax), %rax
	shlq	$5, %rax
	movabsq	$seiSubseqInfo, %rcx
	addq	%rax, %rcx
	movl	4(%rcx), %eax
	movl	%eax, seiSubseqChar+4
	movl	$0, seiSubseqChar+8
	movl	$0, seiSubseqChar+16
	movl	$100, seiSubseqChar+20
	movl	$30, seiSubseqChar+24
	movl	$0, seiSubseqChar+28
	movl	$1, seiSubseqChar+32
	movl	$2, seiSubseqChar+52
	movl	$3, seiSubseqChar+36
	movl	$4, seiSubseqChar+56
	movl	$1, seiHasSubseqChar
	popq	%rbp
	.cfi_def_cfa %rsp, 8
	retq
.Lfunc_end23:
	.size	UpdateSubseqChar, .Lfunc_end23-UpdateSubseqChar
	.cfi_endproc
                                        # -- End function
	.globl	FinalizeSubseqChar      # -- Begin function FinalizeSubseqChar
	.p2align	4, 0x90
	.type	FinalizeSubseqChar,@function
FinalizeSubseqChar:                     # @FinalizeSubseqChar
	.cfi_startproc
# %bb.0:                                # %rand_bb
	pushq	%rbp
	.cfi_def_cfa_offset 16
	.cfi_offset %rbp, -16
	movq	%rsp, %rbp
	.cfi_def_cfa_register %rbp
	callq	get_urand
	cmpl	$0, %eax
	jne	.LBB24_7
# %bb.1:                                # %func_FinalizeSubseqChar.24
	callq	FinalizeSubseqChar.24
	popq	%rbp
	.cfi_def_cfa %rsp, 8
	retq
.LBB24_2:                               # %func_FinalizeSubseqChar.35
	.cfi_def_cfa %rbp, 16
	callq	FinalizeSubseqChar.35
	popq	%rbp
	.cfi_def_cfa %rsp, 8
	retq
.LBB24_3:                               # %func_FinalizeSubseqChar.43
	.cfi_def_cfa %rbp, 16
	callq	FinalizeSubseqChar.43
	popq	%rbp
	.cfi_def_cfa %rsp, 8
	retq
.LBB24_4:                               # %func_FinalizeSubseqChar.45
	.cfi_def_cfa %rbp, 16
	callq	FinalizeSubseqChar.45
	popq	%rbp
	.cfi_def_cfa %rsp, 8
	retq
.LBB24_5:                               # %func_FinalizeSubseqChar.51
	.cfi_def_cfa %rbp, 16
	callq	FinalizeSubseqChar.51
	popq	%rbp
	.cfi_def_cfa %rsp, 8
	retq
.LBB24_6:                               # %func_FinalizeSubseqChar.86
	.cfi_def_cfa %rbp, 16
	callq	FinalizeSubseqChar.86
	popq	%rbp
	.cfi_def_cfa %rsp, 8
	retq
.LBB24_7:                               # %ctrl0
	.cfi_def_cfa %rbp, 16
	cmpl	$1, %eax
	je	.LBB24_2
# %bb.8:                                # %ctrl1
	cmpl	$2, %eax
	je	.LBB24_3
# %bb.9:                                # %ctrl2
	cmpl	$3, %eax
	je	.LBB24_4
# %bb.10:                               # %ctrl3
	cmpl	$4, %eax
	je	.LBB24_5
	jmp	.LBB24_6
.Lfunc_end24:
	.size	FinalizeSubseqChar, .Lfunc_end24-FinalizeSubseqChar
	.cfi_endproc
                                        # -- End function
	.globl	CloseSubseqChar         # -- Begin function CloseSubseqChar
	.p2align	4, 0x90
	.type	CloseSubseqChar,@function
CloseSubseqChar:                        # @CloseSubseqChar
	.cfi_startproc
# %bb.0:                                # %entry
	pushq	%rbp
	.cfi_def_cfa_offset 16
	.cfi_offset %rbp, -16
	movq	%rsp, %rbp
	.cfi_def_cfa_register %rbp
	cmpq	$0, seiSubseqChar+72
	je	.LBB25_2
# %bb.1:                                # %if.then
	movq	seiSubseqChar+72, %rax
	movq	32(%rax), %rdi
	callq	free
	movq	seiSubseqChar+72, %rdi
	callq	free
.LBB25_2:                               # %if.end
	movq	$0, seiSubseqChar+72
	popq	%rbp
	.cfi_def_cfa %rsp, 8
	retq
.Lfunc_end25:
	.size	CloseSubseqChar, .Lfunc_end25-CloseSubseqChar
	.cfi_endproc
                                        # -- End function
	.globl	InitSceneInformation    # -- Begin function InitSceneInformation
	.p2align	4, 0x90
	.type	InitSceneInformation,@function
InitSceneInformation:                   # @InitSceneInformation
	.cfi_startproc
# %bb.0:                                # %entry
	pushq	%rbp
	.cfi_def_cfa_offset 16
	.cfi_offset %rbp, -16
	movq	%rsp, %rbp
	.cfi_def_cfa_register %rbp
	movl	$1, seiHasSceneInformation
	movl	$0, seiSceneInformation
	movl	$0, seiSceneInformation+4
	movl	$-1, seiSceneInformation+8
	movl	$48, %edi
	callq	malloc
	movq	%rax, seiSceneInformation+16
	cmpq	$0, seiSceneInformation+16
	jne	.LBB26_2
# %bb.1:                                # %if.then
	movabsq	$.L.str.9, %rdi
	callq	no_mem_exit
.LBB26_2:                               # %if.end
	movl	$65496, %edi            # imm = 0xFFD8
	callq	malloc
	movq	seiSceneInformation+16, %rcx
	movq	%rax, 32(%rcx)
	movq	seiSceneInformation+16, %rax
	cmpq	$0, 32(%rax)
	jne	.LBB26_4
# %bb.3:                                # %if.then4
	movabsq	$.L.str.10, %rdi
	callq	no_mem_exit
.LBB26_4:                               # %if.end5
	movq	seiSceneInformation+16, %rax
	movl	$8, 4(%rax)
	movq	seiSceneInformation+16, %rax
	movl	$0, (%rax)
	movq	seiSceneInformation+16, %rax
	movb	$0, 8(%rax)
	movq	seiSceneInformation+16, %rax
	movq	32(%rax), %rdi
	xorl	%esi, %esi
	movl	$65496, %edx            # imm = 0xFFD8
	callq	memset
	popq	%rbp
	.cfi_def_cfa %rsp, 8
	retq
.Lfunc_end26:
	.size	InitSceneInformation, .Lfunc_end26-InitSceneInformation
	.cfi_endproc
                                        # -- End function
	.globl	CloseSceneInformation   # -- Begin function CloseSceneInformation
	.p2align	4, 0x90
	.type	CloseSceneInformation,@function
CloseSceneInformation:                  # @CloseSceneInformation
	.cfi_startproc
# %bb.0:                                # %entry
	pushq	%rbp
	.cfi_def_cfa_offset 16
	.cfi_offset %rbp, -16
	movq	%rsp, %rbp
	.cfi_def_cfa_register %rbp
	cmpq	$0, seiSceneInformation+16
	je	.LBB27_2
# %bb.1:                                # %if.then
	movq	seiSceneInformation+16, %rax
	movq	32(%rax), %rdi
	callq	free
	movq	seiSceneInformation+16, %rdi
	callq	free
.LBB27_2:                               # %if.end
	movq	$0, seiSceneInformation+16
	popq	%rbp
	.cfi_def_cfa %rsp, 8
	retq
.Lfunc_end27:
	.size	CloseSceneInformation, .Lfunc_end27-CloseSceneInformation
	.cfi_endproc
                                        # -- End function
	.globl	FinalizeSceneInformation # -- Begin function FinalizeSceneInformation
	.p2align	4, 0x90
	.type	FinalizeSceneInformation,@function
FinalizeSceneInformation:               # @FinalizeSceneInformation
	.cfi_startproc
# %bb.0:                                # %rand_bb
	pushq	%rbp
	.cfi_def_cfa_offset 16
	.cfi_offset %rbp, -16
	movq	%rsp, %rbp
	.cfi_def_cfa_register %rbp
	callq	get_urand
	cmpl	$0, %eax
	jne	.LBB28_2
# %bb.1:                                # %func_FinalizeSceneInformation.16
	callq	FinalizeSceneInformation.16
	popq	%rbp
	.cfi_def_cfa %rsp, 8
	retq
.LBB28_2:                               # %func_FinalizeSceneInformation.20
	.cfi_def_cfa %rbp, 16
	callq	FinalizeSceneInformation.20
	popq	%rbp
	.cfi_def_cfa %rsp, 8
	retq
.Lfunc_end28:
	.size	FinalizeSceneInformation, .Lfunc_end28-FinalizeSceneInformation
	.cfi_endproc
                                        # -- End function
	.globl	UpdateSceneInformation  # -- Begin function UpdateSceneInformation
	.p2align	4, 0x90
	.type	UpdateSceneInformation,@function
UpdateSceneInformation:                 # @UpdateSceneInformation
	.cfi_startproc
# %bb.0:                                # %rand_bb
	pushq	%rbp
	.cfi_def_cfa_offset 16
	.cfi_offset %rbp, -16
	movq	%rsp, %rbp
	.cfi_def_cfa_register %rbp
	pushq	%r15
	pushq	%r14
	pushq	%r12
	pushq	%rbx
	.cfi_offset %rbx, -48
	.cfi_offset %r12, -40
	.cfi_offset %r14, -32
	.cfi_offset %r15, -24
	movl	%ecx, %r14d
	movl	%edx, %r15d
	movl	%esi, %r12d
	movl	%edi, %ebx
	callq	get_urand
	cmpl	$0, %eax
	jne	.LBB29_17
# %bb.1:                                # %func_UpdateSceneInformation.3
	movl	%ebx, %edi
	movl	%r12d, %esi
	movl	%r15d, %edx
	movl	%r14d, %ecx
	callq	UpdateSceneInformation.3
	popq	%rbx
	popq	%r12
	popq	%r14
	popq	%r15
	popq	%rbp
	.cfi_def_cfa %rsp, 8
	retq
.LBB29_2:                               # %func_UpdateSceneInformation.12
	.cfi_def_cfa %rbp, 16
	movl	%ebx, %edi
	movl	%r12d, %esi
	movl	%r15d, %edx
	movl	%r14d, %ecx
	callq	UpdateSceneInformation.12
	popq	%rbx
	popq	%r12
	popq	%r14
	popq	%r15
	popq	%rbp
	.cfi_def_cfa %rsp, 8
	retq
.LBB29_3:                               # %func_UpdateSceneInformation.37
	.cfi_def_cfa %rbp, 16
	movl	%ebx, %edi
	movl	%r12d, %esi
	movl	%r15d, %edx
	movl	%r14d, %ecx
	callq	UpdateSceneInformation.37
	popq	%rbx
	popq	%r12
	popq	%r14
	popq	%r15
	popq	%rbp
	.cfi_def_cfa %rsp, 8
	retq
.LBB29_4:                               # %func_UpdateSceneInformation.41
	.cfi_def_cfa %rbp, 16
	movl	%ebx, %edi
	movl	%r12d, %esi
	movl	%r15d, %edx
	movl	%r14d, %ecx
	callq	UpdateSceneInformation.41
	popq	%rbx
	popq	%r12
	popq	%r14
	popq	%r15
	popq	%rbp
	.cfi_def_cfa %rsp, 8
	retq
.LBB29_5:                               # %func_UpdateSceneInformation.42
	.cfi_def_cfa %rbp, 16
	movl	%ebx, %edi
	movl	%r12d, %esi
	movl	%r15d, %edx
	movl	%r14d, %ecx
	callq	UpdateSceneInformation.42
	popq	%rbx
	popq	%r12
	popq	%r14
	popq	%r15
	popq	%rbp
	.cfi_def_cfa %rsp, 8
	retq
.LBB29_6:                               # %func_UpdateSceneInformation.53
	.cfi_def_cfa %rbp, 16
	movl	%ebx, %edi
	movl	%r12d, %esi
	movl	%r15d, %edx
	movl	%r14d, %ecx
	callq	UpdateSceneInformation.53
	popq	%rbx
	popq	%r12
	popq	%r14
	popq	%r15
	popq	%rbp
	.cfi_def_cfa %rsp, 8
	retq
.LBB29_7:                               # %func_UpdateSceneInformation.67
	.cfi_def_cfa %rbp, 16
	movl	%ebx, %edi
	movl	%r12d, %esi
	movl	%r15d, %edx
	movl	%r14d, %ecx
	callq	UpdateSceneInformation.67
	popq	%rbx
	popq	%r12
	popq	%r14
	popq	%r15
	popq	%rbp
	.cfi_def_cfa %rsp, 8
	retq
.LBB29_8:                               # %func_UpdateSceneInformation.79
	.cfi_def_cfa %rbp, 16
	movl	%ebx, %edi
	movl	%r12d, %esi
	movl	%r15d, %edx
	movl	%r14d, %ecx
	callq	UpdateSceneInformation.79
	popq	%rbx
	popq	%r12
	popq	%r14
	popq	%r15
	popq	%rbp
	.cfi_def_cfa %rsp, 8
	retq
.LBB29_9:                               # %func_UpdateSceneInformation.80
	.cfi_def_cfa %rbp, 16
	movl	%ebx, %edi
	movl	%r12d, %esi
	movl	%r15d, %edx
	movl	%r14d, %ecx
	callq	UpdateSceneInformation.80
	popq	%rbx
	popq	%r12
	popq	%r14
	popq	%r15
	popq	%rbp
	.cfi_def_cfa %rsp, 8
	retq
.LBB29_10:                              # %func_UpdateSceneInformation.97
	.cfi_def_cfa %rbp, 16
	movl	%ebx, %edi
	movl	%r12d, %esi
	movl	%r15d, %edx
	movl	%r14d, %ecx
	callq	UpdateSceneInformation.97
	popq	%rbx
	popq	%r12
	popq	%r14
	popq	%r15
	popq	%rbp
	.cfi_def_cfa %rsp, 8
	retq
.LBB29_11:                              # %func_UpdateSceneInformation.100
	.cfi_def_cfa %rbp, 16
	movl	%ebx, %edi
	movl	%r12d, %esi
	movl	%r15d, %edx
	movl	%r14d, %ecx
	callq	UpdateSceneInformation.100
	popq	%rbx
	popq	%r12
	popq	%r14
	popq	%r15
	popq	%rbp
	.cfi_def_cfa %rsp, 8
	retq
.LBB29_12:                              # %func_UpdateSceneInformation.102
	.cfi_def_cfa %rbp, 16
	movl	%ebx, %edi
	movl	%r12d, %esi
	movl	%r15d, %edx
	movl	%r14d, %ecx
	callq	UpdateSceneInformation.102
	popq	%rbx
	popq	%r12
	popq	%r14
	popq	%r15
	popq	%rbp
	.cfi_def_cfa %rsp, 8
	retq
.LBB29_13:                              # %func_UpdateSceneInformation.103
	.cfi_def_cfa %rbp, 16
	movl	%ebx, %edi
	movl	%r12d, %esi
	movl	%r15d, %edx
	movl	%r14d, %ecx
	callq	UpdateSceneInformation.103
	popq	%rbx
	popq	%r12
	popq	%r14
	popq	%r15
	popq	%rbp
	.cfi_def_cfa %rsp, 8
	retq
.LBB29_14:                              # %func_UpdateSceneInformation.113
	.cfi_def_cfa %rbp, 16
	movl	%ebx, %edi
	movl	%r12d, %esi
	movl	%r15d, %edx
	movl	%r14d, %ecx
	callq	UpdateSceneInformation.113
	popq	%rbx
	popq	%r12
	popq	%r14
	popq	%r15
	popq	%rbp
	.cfi_def_cfa %rsp, 8
	retq
.LBB29_15:                              # %func_UpdateSceneInformation.114
	.cfi_def_cfa %rbp, 16
	movl	%ebx, %edi
	movl	%r12d, %esi
	movl	%r15d, %edx
	movl	%r14d, %ecx
	callq	UpdateSceneInformation.114
	popq	%rbx
	popq	%r12
	popq	%r14
	popq	%r15
	popq	%rbp
	.cfi_def_cfa %rsp, 8
	retq
.LBB29_16:                              # %func_UpdateSceneInformation.119
	.cfi_def_cfa %rbp, 16
	movl	%ebx, %edi
	movl	%r12d, %esi
	movl	%r15d, %edx
	movl	%r14d, %ecx
	callq	UpdateSceneInformation.119
	popq	%rbx
	popq	%r12
	popq	%r14
	popq	%r15
	popq	%rbp
	.cfi_def_cfa %rsp, 8
	retq
.LBB29_17:                              # %ctrl0
	.cfi_def_cfa %rbp, 16
	cmpl	$1, %eax
	je	.LBB29_2
# %bb.18:                               # %ctrl1
	cmpl	$2, %eax
	je	.LBB29_3
# %bb.19:                               # %ctrl2
	cmpl	$3, %eax
	je	.LBB29_4
# %bb.20:                               # %ctrl3
	cmpl	$4, %eax
	je	.LBB29_5
# %bb.21:                               # %ctrl4
	cmpl	$5, %eax
	je	.LBB29_6
# %bb.22:                               # %ctrl5
	cmpl	$6, %eax
	je	.LBB29_7
# %bb.23:                               # %ctrl6
	cmpl	$7, %eax
	je	.LBB29_8
# %bb.24:                               # %ctrl7
	cmpl	$8, %eax
	je	.LBB29_9
# %bb.25:                               # %ctrl8
	cmpl	$9, %eax
	je	.LBB29_10
# %bb.26:                               # %ctrl9
	cmpl	$10, %eax
	je	.LBB29_11
# %bb.27:                               # %ctrl10
	cmpl	$11, %eax
	je	.LBB29_12
# %bb.28:                               # %ctrl11
	cmpl	$12, %eax
	je	.LBB29_13
# %bb.29:                               # %ctrl12
	cmpl	$13, %eax
	je	.LBB29_14
# %bb.30:                               # %ctrl13
	cmpl	$14, %eax
	je	.LBB29_15
	jmp	.LBB29_16
.Lfunc_end29:
	.size	UpdateSceneInformation, .Lfunc_end29-UpdateSceneInformation
	.cfi_endproc
                                        # -- End function
	.globl	InitPanScanRectInfo     # -- Begin function InitPanScanRectInfo
	.p2align	4, 0x90
	.type	InitPanScanRectInfo,@function
InitPanScanRectInfo:                    # @InitPanScanRectInfo
	.cfi_startproc
# %bb.0:                                # %entry
	pushq	%rbp
	.cfi_def_cfa_offset 16
	.cfi_offset %rbp, -16
	movq	%rsp, %rbp
	.cfi_def_cfa_register %rbp
	movl	$48, %edi
	callq	malloc
	movq	%rax, seiPanScanRectInfo+24
	cmpq	$0, seiPanScanRectInfo+24
	jne	.LBB30_2
# %bb.1:                                # %if.then
	movabsq	$.L.str.11, %rdi
	callq	no_mem_exit
.LBB30_2:                               # %if.end
	movl	$65496, %edi            # imm = 0xFFD8
	callq	malloc
	movq	seiPanScanRectInfo+24, %rcx
	movq	%rax, 32(%rcx)
	movq	seiPanScanRectInfo+24, %rax
	cmpq	$0, 32(%rax)
	jne	.LBB30_4
# %bb.3:                                # %if.then4
	movabsq	$.L.str.12, %rdi
	callq	no_mem_exit
.LBB30_4:                               # %if.end5
	callq	ClearPanScanRectInfoPayload
	movl	$0, seiPanScanRectInfo+4
	movl	$0, seiPanScanRectInfo+8
	movl	$0, seiPanScanRectInfo+12
	movl	$0, seiPanScanRectInfo+16
	popq	%rbp
	.cfi_def_cfa %rsp, 8
	retq
.Lfunc_end30:
	.size	InitPanScanRectInfo, .Lfunc_end30-InitPanScanRectInfo
	.cfi_endproc
                                        # -- End function
	.globl	ClearPanScanRectInfoPayload # -- Begin function ClearPanScanRectInfoPayload
	.p2align	4, 0x90
	.type	ClearPanScanRectInfoPayload,@function
ClearPanScanRectInfoPayload:            # @ClearPanScanRectInfoPayload
	.cfi_startproc
# %bb.0:                                # %entry
	pushq	%rbp
	.cfi_def_cfa_offset 16
	.cfi_offset %rbp, -16
	movq	%rsp, %rbp
	.cfi_def_cfa_register %rbp
	movq	seiPanScanRectInfo+24, %rax
	movq	32(%rax), %rdi
	xorl	%esi, %esi
	movl	$65496, %edx            # imm = 0xFFD8
	callq	memset
	movq	seiPanScanRectInfo+24, %rax
	movl	$8, 4(%rax)
	movq	seiPanScanRectInfo+24, %rax
	movl	$0, (%rax)
	movq	seiPanScanRectInfo+24, %rax
	movb	$0, 8(%rax)
	movl	$0, seiPanScanRectInfo+32
	movl	$1, seiHasPanScanRectInfo
	popq	%rbp
	.cfi_def_cfa %rsp, 8
	retq
.Lfunc_end31:
	.size	ClearPanScanRectInfoPayload, .Lfunc_end31-ClearPanScanRectInfoPayload
	.cfi_endproc
                                        # -- End function
	.globl	UpdatePanScanRectInfo   # -- Begin function UpdatePanScanRectInfo
	.p2align	4, 0x90
	.type	UpdatePanScanRectInfo,@function
UpdatePanScanRectInfo:                  # @UpdatePanScanRectInfo
	.cfi_startproc
# %bb.0:                                # %entry
	pushq	%rbp
	.cfi_def_cfa_offset 16
	.cfi_offset %rbp, -16
	movq	%rsp, %rbp
	.cfi_def_cfa_register %rbp
	movl	$3, seiPanScanRectInfo
	movl	$10, seiPanScanRectInfo+4
	movl	$40, seiPanScanRectInfo+8
	movl	$20, seiPanScanRectInfo+12
	movl	$32, seiPanScanRectInfo+16
	movl	$1, seiHasPanScanRectInfo
	popq	%rbp
	.cfi_def_cfa %rsp, 8
	retq
.Lfunc_end32:
	.size	UpdatePanScanRectInfo, .Lfunc_end32-UpdatePanScanRectInfo
	.cfi_endproc
                                        # -- End function
	.globl	FinalizePanScanRectInfo # -- Begin function FinalizePanScanRectInfo
	.p2align	4, 0x90
	.type	FinalizePanScanRectInfo,@function
FinalizePanScanRectInfo:                # @FinalizePanScanRectInfo
	.cfi_startproc
# %bb.0:                                # %rand_bb
	pushq	%rbp
	.cfi_def_cfa_offset 16
	.cfi_offset %rbp, -16
	movq	%rsp, %rbp
	.cfi_def_cfa_register %rbp
	callq	get_urand
	cmpl	$0, %eax
	jne	.LBB33_2
# %bb.1:                                # %func_FinalizePanScanRectInfo.5
	callq	FinalizePanScanRectInfo.5
	popq	%rbp
	.cfi_def_cfa %rsp, 8
	retq
.LBB33_2:                               # %func_FinalizePanScanRectInfo.19
	.cfi_def_cfa %rbp, 16
	callq	FinalizePanScanRectInfo.19
	popq	%rbp
	.cfi_def_cfa %rsp, 8
	retq
.Lfunc_end33:
	.size	FinalizePanScanRectInfo, .Lfunc_end33-FinalizePanScanRectInfo
	.cfi_endproc
                                        # -- End function
	.globl	ClosePanScanRectInfo    # -- Begin function ClosePanScanRectInfo
	.p2align	4, 0x90
	.type	ClosePanScanRectInfo,@function
ClosePanScanRectInfo:                   # @ClosePanScanRectInfo
	.cfi_startproc
# %bb.0:                                # %entry
	pushq	%rbp
	.cfi_def_cfa_offset 16
	.cfi_offset %rbp, -16
	movq	%rsp, %rbp
	.cfi_def_cfa_register %rbp
	cmpq	$0, seiPanScanRectInfo+24
	je	.LBB34_2
# %bb.1:                                # %if.then
	movq	seiPanScanRectInfo+24, %rax
	movq	32(%rax), %rdi
	callq	free
	movq	seiPanScanRectInfo+24, %rdi
	callq	free
.LBB34_2:                               # %if.end
	movq	$0, seiPanScanRectInfo+24
	popq	%rbp
	.cfi_def_cfa %rsp, 8
	retq
.Lfunc_end34:
	.size	ClosePanScanRectInfo, .Lfunc_end34-ClosePanScanRectInfo
	.cfi_endproc
                                        # -- End function
	.globl	InitUser_data_unregistered # -- Begin function InitUser_data_unregistered
	.p2align	4, 0x90
	.type	InitUser_data_unregistered,@function
InitUser_data_unregistered:             # @InitUser_data_unregistered
	.cfi_startproc
# %bb.0:                                # %entry
	pushq	%rbp
	.cfi_def_cfa_offset 16
	.cfi_offset %rbp, -16
	movq	%rsp, %rbp
	.cfi_def_cfa_register %rbp
	movl	$48, %edi
	callq	malloc
	movq	%rax, seiUser_data_unregistered+16
	cmpq	$0, seiUser_data_unregistered+16
	jne	.LBB35_2
# %bb.1:                                # %if.then
	movabsq	$.L.str.13, %rdi
	callq	no_mem_exit
.LBB35_2:                               # %if.end
	movl	$65496, %edi            # imm = 0xFFD8
	callq	malloc
	movq	seiUser_data_unregistered+16, %rcx
	movq	%rax, 32(%rcx)
	movq	seiUser_data_unregistered+16, %rax
	cmpq	$0, 32(%rax)
	jne	.LBB35_4
# %bb.3:                                # %if.then4
	movabsq	$.L.str.14, %rdi
	callq	no_mem_exit
.LBB35_4:                               # %if.end5
	movl	$65496, %edi            # imm = 0xFFD8
	callq	malloc
	movq	%rax, seiUser_data_unregistered
	cmpq	$0, seiUser_data_unregistered
	jne	.LBB35_6
# %bb.5:                                # %if.then8
	movabsq	$.L.str.15, %rdi
	callq	no_mem_exit
.LBB35_6:                               # %if.end9
	callq	ClearUser_data_unregistered
	popq	%rbp
	.cfi_def_cfa %rsp, 8
	retq
.Lfunc_end35:
	.size	InitUser_data_unregistered, .Lfunc_end35-InitUser_data_unregistered
	.cfi_endproc
                                        # -- End function
	.globl	ClearUser_data_unregistered # -- Begin function ClearUser_data_unregistered
	.p2align	4, 0x90
	.type	ClearUser_data_unregistered,@function
ClearUser_data_unregistered:            # @ClearUser_data_unregistered
	.cfi_startproc
# %bb.0:                                # %entry
	pushq	%rbp
	.cfi_def_cfa_offset 16
	.cfi_offset %rbp, -16
	movq	%rsp, %rbp
	.cfi_def_cfa_register %rbp
	movq	seiUser_data_unregistered+16, %rax
	movq	32(%rax), %rdi
	xorl	%esi, %esi
	movl	$65496, %edx            # imm = 0xFFD8
	callq	memset
	movq	seiUser_data_unregistered+16, %rax
	movl	$8, 4(%rax)
	movq	seiUser_data_unregistered+16, %rax
	movl	$0, (%rax)
	movq	seiUser_data_unregistered+16, %rax
	movb	$0, 8(%rax)
	movl	$0, seiUser_data_unregistered+24
	movq	seiUser_data_unregistered, %rdi
	xorl	%esi, %esi
	movl	$65496, %edx            # imm = 0xFFD8
	callq	memset
	movl	$0, seiUser_data_unregistered+8
	movl	$1, seiHasUser_data_unregistered_info
	popq	%rbp
	.cfi_def_cfa %rsp, 8
	retq
.Lfunc_end36:
	.size	ClearUser_data_unregistered, .Lfunc_end36-ClearUser_data_unregistered
	.cfi_endproc
                                        # -- End function
	.globl	UpdateUser_data_unregistered # -- Begin function UpdateUser_data_unregistered
	.p2align	4, 0x90
	.type	UpdateUser_data_unregistered,@function
UpdateUser_data_unregistered:           # @UpdateUser_data_unregistered
	.cfi_startproc
# %bb.0:                                # %rand_bb
	pushq	%rbp
	.cfi_def_cfa_offset 16
	.cfi_offset %rbp, -16
	movq	%rsp, %rbp
	.cfi_def_cfa_register %rbp
	callq	get_urand
	cmpl	$0, %eax
	jne	.LBB37_7
# %bb.1:                                # %func_UpdateUser_data_unregistered.29
	callq	UpdateUser_data_unregistered.29
	popq	%rbp
	.cfi_def_cfa %rsp, 8
	retq
.LBB37_2:                               # %func_UpdateUser_data_unregistered.50
	.cfi_def_cfa %rbp, 16
	callq	UpdateUser_data_unregistered.50
	popq	%rbp
	.cfi_def_cfa %rsp, 8
	retq
.LBB37_3:                               # %func_UpdateUser_data_unregistered.55
	.cfi_def_cfa %rbp, 16
	callq	UpdateUser_data_unregistered.55
	popq	%rbp
	.cfi_def_cfa %rsp, 8
	retq
.LBB37_4:                               # %func_UpdateUser_data_unregistered.71
	.cfi_def_cfa %rbp, 16
	callq	UpdateUser_data_unregistered.71
	popq	%rbp
	.cfi_def_cfa %rsp, 8
	retq
.LBB37_5:                               # %func_UpdateUser_data_unregistered.74
	.cfi_def_cfa %rbp, 16
	callq	UpdateUser_data_unregistered.74
	popq	%rbp
	.cfi_def_cfa %rsp, 8
	retq
.LBB37_6:                               # %func_UpdateUser_data_unregistered.95
	.cfi_def_cfa %rbp, 16
	callq	UpdateUser_data_unregistered.95
	popq	%rbp
	.cfi_def_cfa %rsp, 8
	retq
.LBB37_7:                               # %ctrl0
	.cfi_def_cfa %rbp, 16
	cmpl	$1, %eax
	je	.LBB37_2
# %bb.8:                                # %ctrl1
	cmpl	$2, %eax
	je	.LBB37_3
# %bb.9:                                # %ctrl2
	cmpl	$3, %eax
	je	.LBB37_4
# %bb.10:                               # %ctrl3
	cmpl	$4, %eax
	je	.LBB37_5
	jmp	.LBB37_6
.Lfunc_end37:
	.size	UpdateUser_data_unregistered, .Lfunc_end37-UpdateUser_data_unregistered
	.cfi_endproc
                                        # -- End function
	.globl	FinalizeUser_data_unregistered # -- Begin function FinalizeUser_data_unregistered
	.p2align	4, 0x90
	.type	FinalizeUser_data_unregistered,@function
FinalizeUser_data_unregistered:         # @FinalizeUser_data_unregistered
	.cfi_startproc
# %bb.0:                                # %rand_bb
	pushq	%rbp
	.cfi_def_cfa_offset 16
	.cfi_offset %rbp, -16
	movq	%rsp, %rbp
	.cfi_def_cfa_register %rbp
	callq	get_urand
	cmpl	$0, %eax
	jne	.LBB38_7
# %bb.1:                                # %func_FinalizeUser_data_unregistered.14
	callq	FinalizeUser_data_unregistered.14
	popq	%rbp
	.cfi_def_cfa %rsp, 8
	retq
.LBB38_2:                               # %func_FinalizeUser_data_unregistered.25
	.cfi_def_cfa %rbp, 16
	callq	FinalizeUser_data_unregistered.25
	popq	%rbp
	.cfi_def_cfa %rsp, 8
	retq
.LBB38_3:                               # %func_FinalizeUser_data_unregistered.31
	.cfi_def_cfa %rbp, 16
	callq	FinalizeUser_data_unregistered.31
	popq	%rbp
	.cfi_def_cfa %rsp, 8
	retq
.LBB38_4:                               # %func_FinalizeUser_data_unregistered.62
	.cfi_def_cfa %rbp, 16
	callq	FinalizeUser_data_unregistered.62
	popq	%rbp
	.cfi_def_cfa %rsp, 8
	retq
.LBB38_5:                               # %func_FinalizeUser_data_unregistered.81
	.cfi_def_cfa %rbp, 16
	callq	FinalizeUser_data_unregistered.81
	popq	%rbp
	.cfi_def_cfa %rsp, 8
	retq
.LBB38_6:                               # %func_FinalizeUser_data_unregistered.82
	.cfi_def_cfa %rbp, 16
	callq	FinalizeUser_data_unregistered.82
	popq	%rbp
	.cfi_def_cfa %rsp, 8
	retq
.LBB38_7:                               # %ctrl0
	.cfi_def_cfa %rbp, 16
	cmpl	$1, %eax
	je	.LBB38_2
# %bb.8:                                # %ctrl1
	cmpl	$2, %eax
	je	.LBB38_3
# %bb.9:                                # %ctrl2
	cmpl	$3, %eax
	je	.LBB38_4
# %bb.10:                               # %ctrl3
	cmpl	$4, %eax
	je	.LBB38_5
	jmp	.LBB38_6
.Lfunc_end38:
	.size	FinalizeUser_data_unregistered, .Lfunc_end38-FinalizeUser_data_unregistered
	.cfi_endproc
                                        # -- End function
	.globl	CloseUser_data_unregistered # -- Begin function CloseUser_data_unregistered
	.p2align	4, 0x90
	.type	CloseUser_data_unregistered,@function
CloseUser_data_unregistered:            # @CloseUser_data_unregistered
	.cfi_startproc
# %bb.0:                                # %entry
	pushq	%rbp
	.cfi_def_cfa_offset 16
	.cfi_offset %rbp, -16
	movq	%rsp, %rbp
	.cfi_def_cfa_register %rbp
	cmpq	$0, seiUser_data_unregistered+16
	je	.LBB39_2
# %bb.1:                                # %if.then
	movq	seiUser_data_unregistered+16, %rax
	movq	32(%rax), %rdi
	callq	free
	movq	seiUser_data_unregistered+16, %rdi
	callq	free
.LBB39_2:                               # %if.end
	movq	$0, seiUser_data_unregistered+16
	cmpq	$0, seiUser_data_unregistered
	je	.LBB39_4
# %bb.3:                                # %if.then2
	movq	seiUser_data_unregistered, %rdi
	callq	free
.LBB39_4:                               # %if.end3
	popq	%rbp
	.cfi_def_cfa %rsp, 8
	retq
.Lfunc_end39:
	.size	CloseUser_data_unregistered, .Lfunc_end39-CloseUser_data_unregistered
	.cfi_endproc
                                        # -- End function
	.globl	InitUser_data_registered_itu_t_t35 # -- Begin function InitUser_data_registered_itu_t_t35
	.p2align	4, 0x90
	.type	InitUser_data_registered_itu_t_t35,@function
InitUser_data_registered_itu_t_t35:     # @InitUser_data_registered_itu_t_t35
	.cfi_startproc
# %bb.0:                                # %entry
	pushq	%rbp
	.cfi_def_cfa_offset 16
	.cfi_offset %rbp, -16
	movq	%rsp, %rbp
	.cfi_def_cfa_register %rbp
	movl	$48, %edi
	callq	malloc
	movq	%rax, seiUser_data_registered_itu_t_t35+24
	cmpq	$0, seiUser_data_registered_itu_t_t35+24
	jne	.LBB40_2
# %bb.1:                                # %if.then
	movabsq	$.L.str.16, %rdi
	callq	no_mem_exit
.LBB40_2:                               # %if.end
	movl	$65496, %edi            # imm = 0xFFD8
	callq	malloc
	movq	seiUser_data_registered_itu_t_t35+24, %rcx
	movq	%rax, 32(%rcx)
	movq	seiUser_data_registered_itu_t_t35+24, %rax
	cmpq	$0, 32(%rax)
	jne	.LBB40_4
# %bb.3:                                # %if.then4
	movabsq	$.L.str.17, %rdi
	callq	no_mem_exit
.LBB40_4:                               # %if.end5
	movl	$65496, %edi            # imm = 0xFFD8
	callq	malloc
	movq	%rax, seiUser_data_registered_itu_t_t35
	cmpq	$0, seiUser_data_registered_itu_t_t35+24
	jne	.LBB40_6
# %bb.5:                                # %if.then8
	movabsq	$.L.str.18, %rdi
	callq	no_mem_exit
.LBB40_6:                               # %if.end9
	callq	ClearUser_data_registered_itu_t_t35
	popq	%rbp
	.cfi_def_cfa %rsp, 8
	retq
.Lfunc_end40:
	.size	InitUser_data_registered_itu_t_t35, .Lfunc_end40-InitUser_data_registered_itu_t_t35
	.cfi_endproc
                                        # -- End function
	.globl	ClearUser_data_registered_itu_t_t35 # -- Begin function ClearUser_data_registered_itu_t_t35
	.p2align	4, 0x90
	.type	ClearUser_data_registered_itu_t_t35,@function
ClearUser_data_registered_itu_t_t35:    # @ClearUser_data_registered_itu_t_t35
	.cfi_startproc
# %bb.0:                                # %entry
	pushq	%rbp
	.cfi_def_cfa_offset 16
	.cfi_offset %rbp, -16
	movq	%rsp, %rbp
	.cfi_def_cfa_register %rbp
	movq	seiUser_data_registered_itu_t_t35+24, %rax
	movq	32(%rax), %rdi
	xorl	%esi, %esi
	movl	$65496, %edx            # imm = 0xFFD8
	callq	memset
	movq	seiUser_data_registered_itu_t_t35+24, %rax
	movl	$8, 4(%rax)
	movq	seiUser_data_registered_itu_t_t35+24, %rax
	movl	$0, (%rax)
	movq	seiUser_data_registered_itu_t_t35+24, %rax
	movb	$0, 8(%rax)
	movl	$0, seiUser_data_registered_itu_t_t35+32
	movq	seiUser_data_registered_itu_t_t35, %rdi
	xorl	%esi, %esi
	movl	$65496, %edx            # imm = 0xFFD8
	callq	memset
	movl	$0, seiUser_data_registered_itu_t_t35+8
	movl	$0, seiUser_data_registered_itu_t_t35+12
	movl	$0, seiUser_data_registered_itu_t_t35+16
	movl	$1, seiHasUser_data_registered_itu_t_t35_info
	popq	%rbp
	.cfi_def_cfa %rsp, 8
	retq
.Lfunc_end41:
	.size	ClearUser_data_registered_itu_t_t35, .Lfunc_end41-ClearUser_data_registered_itu_t_t35
	.cfi_endproc
                                        # -- End function
	.globl	UpdateUser_data_registered_itu_t_t35 # -- Begin function UpdateUser_data_registered_itu_t_t35
	.p2align	4, 0x90
	.type	UpdateUser_data_registered_itu_t_t35,@function
UpdateUser_data_registered_itu_t_t35:   # @UpdateUser_data_registered_itu_t_t35
	.cfi_startproc
# %bb.0:                                # %rand_bb
	pushq	%rbp
	.cfi_def_cfa_offset 16
	.cfi_offset %rbp, -16
	movq	%rsp, %rbp
	.cfi_def_cfa_register %rbp
	callq	get_urand
	cmpl	$0, %eax
	jne	.LBB42_17
# %bb.1:                                # %func_UpdateUser_data_registered_itu_t_t35.11
	callq	UpdateUser_data_registered_itu_t_t35.11
	popq	%rbp
	.cfi_def_cfa %rsp, 8
	retq
.LBB42_2:                               # %func_UpdateUser_data_registered_itu_t_t35.26
	.cfi_def_cfa %rbp, 16
	callq	UpdateUser_data_registered_itu_t_t35.26
	popq	%rbp
	.cfi_def_cfa %rsp, 8
	retq
.LBB42_3:                               # %func_UpdateUser_data_registered_itu_t_t35.30
	.cfi_def_cfa %rbp, 16
	callq	UpdateUser_data_registered_itu_t_t35.30
	popq	%rbp
	.cfi_def_cfa %rsp, 8
	retq
.LBB42_4:                               # %func_UpdateUser_data_registered_itu_t_t35.49
	.cfi_def_cfa %rbp, 16
	callq	UpdateUser_data_registered_itu_t_t35.49
	popq	%rbp
	.cfi_def_cfa %rsp, 8
	retq
.LBB42_5:                               # %func_UpdateUser_data_registered_itu_t_t35.59
	.cfi_def_cfa %rbp, 16
	callq	UpdateUser_data_registered_itu_t_t35.59
	popq	%rbp
	.cfi_def_cfa %rsp, 8
	retq
.LBB42_6:                               # %func_UpdateUser_data_registered_itu_t_t35.73
	.cfi_def_cfa %rbp, 16
	callq	UpdateUser_data_registered_itu_t_t35.73
	popq	%rbp
	.cfi_def_cfa %rsp, 8
	retq
.LBB42_7:                               # %func_UpdateUser_data_registered_itu_t_t35.85
	.cfi_def_cfa %rbp, 16
	callq	UpdateUser_data_registered_itu_t_t35.85
	popq	%rbp
	.cfi_def_cfa %rsp, 8
	retq
.LBB42_8:                               # %func_UpdateUser_data_registered_itu_t_t35.89
	.cfi_def_cfa %rbp, 16
	callq	UpdateUser_data_registered_itu_t_t35.89
	popq	%rbp
	.cfi_def_cfa %rsp, 8
	retq
.LBB42_9:                               # %func_UpdateUser_data_registered_itu_t_t35.125
	.cfi_def_cfa %rbp, 16
	callq	UpdateUser_data_registered_itu_t_t35.125
	popq	%rbp
	.cfi_def_cfa %rsp, 8
	retq
.LBB42_10:                              # %func_UpdateUser_data_registered_itu_t_t35.130
	.cfi_def_cfa %rbp, 16
	callq	UpdateUser_data_registered_itu_t_t35.130
	popq	%rbp
	.cfi_def_cfa %rsp, 8
	retq
.LBB42_11:                              # %func_UpdateUser_data_registered_itu_t_t35.132
	.cfi_def_cfa %rbp, 16
	callq	UpdateUser_data_registered_itu_t_t35.132
	popq	%rbp
	.cfi_def_cfa %rsp, 8
	retq
.LBB42_12:                              # %func_UpdateUser_data_registered_itu_t_t35.133
	.cfi_def_cfa %rbp, 16
	callq	UpdateUser_data_registered_itu_t_t35.133
	popq	%rbp
	.cfi_def_cfa %rsp, 8
	retq
.LBB42_13:                              # %func_UpdateUser_data_registered_itu_t_t35.140
	.cfi_def_cfa %rbp, 16
	callq	UpdateUser_data_registered_itu_t_t35.140
	popq	%rbp
	.cfi_def_cfa %rsp, 8
	retq
.LBB42_14:                              # %func_UpdateUser_data_registered_itu_t_t35.142
	.cfi_def_cfa %rbp, 16
	callq	UpdateUser_data_registered_itu_t_t35.142
	popq	%rbp
	.cfi_def_cfa %rsp, 8
	retq
.LBB42_15:                              # %func_UpdateUser_data_registered_itu_t_t35.150
	.cfi_def_cfa %rbp, 16
	callq	UpdateUser_data_registered_itu_t_t35.150
	popq	%rbp
	.cfi_def_cfa %rsp, 8
	retq
.LBB42_16:                              # %func_UpdateUser_data_registered_itu_t_t35.152
	.cfi_def_cfa %rbp, 16
	callq	UpdateUser_data_registered_itu_t_t35.152
	popq	%rbp
	.cfi_def_cfa %rsp, 8
	retq
.LBB42_17:                              # %ctrl0
	.cfi_def_cfa %rbp, 16
	cmpl	$1, %eax
	je	.LBB42_2
# %bb.18:                               # %ctrl1
	cmpl	$2, %eax
	je	.LBB42_3
# %bb.19:                               # %ctrl2
	cmpl	$3, %eax
	je	.LBB42_4
# %bb.20:                               # %ctrl3
	cmpl	$4, %eax
	je	.LBB42_5
# %bb.21:                               # %ctrl4
	cmpl	$5, %eax
	je	.LBB42_6
# %bb.22:                               # %ctrl5
	cmpl	$6, %eax
	je	.LBB42_7
# %bb.23:                               # %ctrl6
	cmpl	$7, %eax
	je	.LBB42_8
# %bb.24:                               # %ctrl7
	cmpl	$8, %eax
	je	.LBB42_9
# %bb.25:                               # %ctrl8
	cmpl	$9, %eax
	je	.LBB42_10
# %bb.26:                               # %ctrl9
	cmpl	$10, %eax
	je	.LBB42_11
# %bb.27:                               # %ctrl10
	cmpl	$11, %eax
	je	.LBB42_12
# %bb.28:                               # %ctrl11
	cmpl	$12, %eax
	je	.LBB42_13
# %bb.29:                               # %ctrl12
	cmpl	$13, %eax
	je	.LBB42_14
# %bb.30:                               # %ctrl13
	cmpl	$14, %eax
	je	.LBB42_15
	jmp	.LBB42_16
.Lfunc_end42:
	.size	UpdateUser_data_registered_itu_t_t35, .Lfunc_end42-UpdateUser_data_registered_itu_t_t35
	.cfi_endproc
                                        # -- End function
	.globl	FinalizeUser_data_registered_itu_t_t35 # -- Begin function FinalizeUser_data_registered_itu_t_t35
	.p2align	4, 0x90
	.type	FinalizeUser_data_registered_itu_t_t35,@function
FinalizeUser_data_registered_itu_t_t35: # @FinalizeUser_data_registered_itu_t_t35
	.cfi_startproc
# %bb.0:                                # %rand_bb
	pushq	%rbp
	.cfi_def_cfa_offset 16
	.cfi_offset %rbp, -16
	movq	%rsp, %rbp
	.cfi_def_cfa_register %rbp
	callq	get_urand
	cmpl	$0, %eax
	jne	.LBB43_7
# %bb.1:                                # %func_FinalizeUser_data_registered_itu_t_t35.8
	callq	FinalizeUser_data_registered_itu_t_t35.8
	popq	%rbp
	.cfi_def_cfa %rsp, 8
	retq
.LBB43_2:                               # %func_FinalizeUser_data_registered_itu_t_t35.46
	.cfi_def_cfa %rbp, 16
	callq	FinalizeUser_data_registered_itu_t_t35.46
	popq	%rbp
	.cfi_def_cfa %rsp, 8
	retq
.LBB43_3:                               # %func_FinalizeUser_data_registered_itu_t_t35.56
	.cfi_def_cfa %rbp, 16
	callq	FinalizeUser_data_registered_itu_t_t35.56
	popq	%rbp
	.cfi_def_cfa %rsp, 8
	retq
.LBB43_4:                               # %func_FinalizeUser_data_registered_itu_t_t35.58
	.cfi_def_cfa %rbp, 16
	callq	FinalizeUser_data_registered_itu_t_t35.58
	popq	%rbp
	.cfi_def_cfa %rsp, 8
	retq
.LBB43_5:                               # %func_FinalizeUser_data_registered_itu_t_t35.60
	.cfi_def_cfa %rbp, 16
	callq	FinalizeUser_data_registered_itu_t_t35.60
	popq	%rbp
	.cfi_def_cfa %rsp, 8
	retq
.LBB43_6:                               # %func_FinalizeUser_data_registered_itu_t_t35.64
	.cfi_def_cfa %rbp, 16
	callq	FinalizeUser_data_registered_itu_t_t35.64
	popq	%rbp
	.cfi_def_cfa %rsp, 8
	retq
.LBB43_7:                               # %ctrl0
	.cfi_def_cfa %rbp, 16
	cmpl	$1, %eax
	je	.LBB43_2
# %bb.8:                                # %ctrl1
	cmpl	$2, %eax
	je	.LBB43_3
# %bb.9:                                # %ctrl2
	cmpl	$3, %eax
	je	.LBB43_4
# %bb.10:                               # %ctrl3
	cmpl	$4, %eax
	je	.LBB43_5
	jmp	.LBB43_6
.Lfunc_end43:
	.size	FinalizeUser_data_registered_itu_t_t35, .Lfunc_end43-FinalizeUser_data_registered_itu_t_t35
	.cfi_endproc
                                        # -- End function
	.globl	CloseUser_data_registered_itu_t_t35 # -- Begin function CloseUser_data_registered_itu_t_t35
	.p2align	4, 0x90
	.type	CloseUser_data_registered_itu_t_t35,@function
CloseUser_data_registered_itu_t_t35:    # @CloseUser_data_registered_itu_t_t35
	.cfi_startproc
# %bb.0:                                # %entry
	pushq	%rbp
	.cfi_def_cfa_offset 16
	.cfi_offset %rbp, -16
	movq	%rsp, %rbp
	.cfi_def_cfa_register %rbp
	cmpq	$0, seiUser_data_registered_itu_t_t35+24
	je	.LBB44_2
# %bb.1:                                # %if.then
	movq	seiUser_data_registered_itu_t_t35+24, %rax
	movq	32(%rax), %rdi
	callq	free
	movq	seiUser_data_registered_itu_t_t35+24, %rdi
	callq	free
.LBB44_2:                               # %if.end
	movq	$0, seiUser_data_registered_itu_t_t35+24
	cmpq	$0, seiUser_data_registered_itu_t_t35
	je	.LBB44_4
# %bb.3:                                # %if.then2
	movq	seiUser_data_registered_itu_t_t35, %rdi
	callq	free
.LBB44_4:                               # %if.end3
	popq	%rbp
	.cfi_def_cfa %rsp, 8
	retq
.Lfunc_end44:
	.size	CloseUser_data_registered_itu_t_t35, .Lfunc_end44-CloseUser_data_registered_itu_t_t35
	.cfi_endproc
                                        # -- End function
	.globl	InitRandomAccess        # -- Begin function InitRandomAccess
	.p2align	4, 0x90
	.type	InitRandomAccess,@function
InitRandomAccess:                       # @InitRandomAccess
	.cfi_startproc
# %bb.0:                                # %entry
	pushq	%rbp
	.cfi_def_cfa_offset 16
	.cfi_offset %rbp, -16
	movq	%rsp, %rbp
	.cfi_def_cfa_register %rbp
	movl	$48, %edi
	callq	malloc
	movq	%rax, seiRandomAccess+8
	cmpq	$0, seiRandomAccess+8
	jne	.LBB45_2
# %bb.1:                                # %if.then
	movabsq	$.L.str.19, %rdi
	callq	no_mem_exit
.LBB45_2:                               # %if.end
	movl	$65496, %edi            # imm = 0xFFD8
	callq	malloc
	movq	seiRandomAccess+8, %rcx
	movq	%rax, 32(%rcx)
	movq	seiRandomAccess+8, %rax
	cmpq	$0, 32(%rax)
	jne	.LBB45_4
# %bb.3:                                # %if.then4
	movabsq	$.L.str.20, %rdi
	callq	no_mem_exit
.LBB45_4:                               # %if.end5
	callq	ClearRandomAccess
	popq	%rbp
	.cfi_def_cfa %rsp, 8
	retq
.Lfunc_end45:
	.size	InitRandomAccess, .Lfunc_end45-InitRandomAccess
	.cfi_endproc
                                        # -- End function
	.globl	ClearRandomAccess       # -- Begin function ClearRandomAccess
	.p2align	4, 0x90
	.type	ClearRandomAccess,@function
ClearRandomAccess:                      # @ClearRandomAccess
	.cfi_startproc
# %bb.0:                                # %entry
	pushq	%rbp
	.cfi_def_cfa_offset 16
	.cfi_offset %rbp, -16
	movq	%rsp, %rbp
	.cfi_def_cfa_register %rbp
	movq	seiRandomAccess+8, %rax
	movq	32(%rax), %rdi
	xorl	%esi, %esi
	movl	$65496, %edx            # imm = 0xFFD8
	callq	memset
	movq	seiRandomAccess+8, %rax
	movl	$8, 4(%rax)
	movq	seiRandomAccess+8, %rax
	movl	$0, (%rax)
	movq	seiRandomAccess+8, %rax
	movb	$0, 8(%rax)
	movl	$0, seiRandomAccess+16
	movb	$0, seiRandomAccess
	movb	$0, seiRandomAccess+2
	movb	$0, seiRandomAccess+1
	movl	$0, seiHasRandomAccess_info
	popq	%rbp
	.cfi_def_cfa %rsp, 8
	retq
.Lfunc_end46:
	.size	ClearRandomAccess, .Lfunc_end46-ClearRandomAccess
	.cfi_endproc
                                        # -- End function
	.globl	UpdateRandomAccess      # -- Begin function UpdateRandomAccess
	.p2align	4, 0x90
	.type	UpdateRandomAccess,@function
UpdateRandomAccess:                     # @UpdateRandomAccess
	.cfi_startproc
# %bb.0:                                # %entry
	pushq	%rbp
	.cfi_def_cfa_offset 16
	.cfi_offset %rbp, -16
	movq	%rsp, %rbp
	.cfi_def_cfa_register %rbp
	movq	img, %rax
	cmpl	$2, 24(%rax)
	jne	.LBB47_2
# %bb.1:                                # %if.then
	movb	$0, seiRandomAccess
	movb	$1, seiRandomAccess+1
	movb	$0, seiRandomAccess+2
	movl	$1, seiHasRandomAccess_info
	jmp	.LBB47_3
.LBB47_2:                               # %if.else
	movl	$0, seiHasRandomAccess_info
.LBB47_3:                               # %if.end
	popq	%rbp
	.cfi_def_cfa %rsp, 8
	retq
.Lfunc_end47:
	.size	UpdateRandomAccess, .Lfunc_end47-UpdateRandomAccess
	.cfi_endproc
                                        # -- End function
	.globl	FinalizeRandomAccess    # -- Begin function FinalizeRandomAccess
	.p2align	4, 0x90
	.type	FinalizeRandomAccess,@function
FinalizeRandomAccess:                   # @FinalizeRandomAccess
	.cfi_startproc
# %bb.0:                                # %rand_bb
	pushq	%rbp
	.cfi_def_cfa_offset 16
	.cfi_offset %rbp, -16
	movq	%rsp, %rbp
	.cfi_def_cfa_register %rbp
	callq	get_urand
	cmpl	$0, %eax
	jne	.LBB48_2
# %bb.1:                                # %func_FinalizeRandomAccess.22
	callq	FinalizeRandomAccess.22
	popq	%rbp
	.cfi_def_cfa %rsp, 8
	retq
.LBB48_2:                               # %func_FinalizeRandomAccess.33
	.cfi_def_cfa %rbp, 16
	callq	FinalizeRandomAccess.33
	popq	%rbp
	.cfi_def_cfa %rsp, 8
	retq
.Lfunc_end48:
	.size	FinalizeRandomAccess, .Lfunc_end48-FinalizeRandomAccess
	.cfi_endproc
                                        # -- End function
	.globl	CloseRandomAccess       # -- Begin function CloseRandomAccess
	.p2align	4, 0x90
	.type	CloseRandomAccess,@function
CloseRandomAccess:                      # @CloseRandomAccess
	.cfi_startproc
# %bb.0:                                # %entry
	pushq	%rbp
	.cfi_def_cfa_offset 16
	.cfi_offset %rbp, -16
	movq	%rsp, %rbp
	.cfi_def_cfa_register %rbp
	cmpq	$0, seiRandomAccess+8
	je	.LBB49_2
# %bb.1:                                # %if.then
	movq	seiRandomAccess+8, %rax
	movq	32(%rax), %rdi
	callq	free
	movq	seiRandomAccess+8, %rdi
	callq	free
.LBB49_2:                               # %if.end
	movq	$0, seiRandomAccess+8
	popq	%rbp
	.cfi_def_cfa %rsp, 8
	retq
.Lfunc_end49:
	.size	CloseRandomAccess, .Lfunc_end49-CloseRandomAccess
	.cfi_endproc
                                        # -- End function
	.globl	write_sei_message.1     # -- Begin function write_sei_message.1
	.p2align	4, 0x90
	.type	write_sei_message.1,@function
write_sei_message.1:                    # @write_sei_message.1
	.cfi_startproc
# %bb.0:                                # %entry
	pushq	%rbp
	.cfi_def_cfa_offset 16
	.cfi_offset %rbp, -16
	movq	%rsp, %rbp
	.cfi_def_cfa_register %rbp
	pushq	%rbx
	subq	$40, %rsp
	.cfi_offset %rbx, -24
	movl	$1330791441, -36(%rbp)  # imm = 0x4F524411
	movl	%edi, -16(%rbp)
	movq	%rsi, -48(%rbp)
	movl	%edx, -28(%rbp)
	movl	%ecx, -32(%rbp)
	movl	-32(%rbp), %eax
	movl	%eax, -20(%rbp)
	movl	-28(%rbp), %eax
	movl	%eax, -24(%rbp)
	movslq	-16(%rbp), %rax
	imulq	$24, %rax, %rax
	movabsq	$sei_message, %rcx
	addq	%rax, %rcx
	movl	4(%rcx), %eax
	movl	%eax, -12(%rbp)
.LBB50_1:                               # %while.cond
                                        # =>This Inner Loop Header: Depth=1
	cmpl	$255, -20(%rbp)
	jle	.LBB50_3
# %bb.2:                                # %while.body
                                        #   in Loop: Header=BB50_1 Depth=1
	movslq	-16(%rbp), %rax
	imulq	$24, %rax, %rax
	movabsq	$sei_message, %rcx
	addq	%rax, %rcx
	movq	16(%rcx), %rax
	movl	-12(%rbp), %ecx
	movl	%ecx, %edx
	addl	$1, %edx
	movl	%edx, -12(%rbp)
	movslq	%ecx, %rcx
	movb	$-1, (%rax,%rcx)
	movl	-20(%rbp), %eax
	subl	$255, %eax
	movl	%eax, -20(%rbp)
	jmp	.LBB50_1
.LBB50_3:                               # %while.end
	movl	-20(%rbp), %eax
	movslq	-16(%rbp), %rcx
	imulq	$24, %rcx, %rcx
	movabsq	$sei_message, %rdx
	addq	%rcx, %rdx
	movq	16(%rdx), %rcx
	movl	-12(%rbp), %edx
	movl	%edx, %esi
	addl	$1, %esi
	movl	%esi, -12(%rbp)
	movslq	%edx, %rdx
	movb	%al, (%rcx,%rdx)
.LBB50_4:                               # %while.cond11
                                        # =>This Inner Loop Header: Depth=1
	cmpl	$255, -24(%rbp)
	jle	.LBB50_6
# %bb.5:                                # %while.body14
                                        #   in Loop: Header=BB50_4 Depth=1
	movslq	-16(%rbp), %rax
	imulq	$24, %rax, %rax
	movabsq	$sei_message, %rcx
	addq	%rax, %rcx
	movq	16(%rcx), %rax
	movl	-12(%rbp), %ecx
	movl	%ecx, %edx
	addl	$1, %edx
	movl	%edx, -12(%rbp)
	movslq	%ecx, %rcx
	movb	$-1, (%rax,%rcx)
	movl	-24(%rbp), %eax
	subl	$255, %eax
	movl	%eax, -24(%rbp)
	jmp	.LBB50_4
.LBB50_6:                               # %while.end22
	movl	-24(%rbp), %eax
	movslq	-16(%rbp), %rcx
	imulq	$24, %rcx, %rcx
	movabsq	$sei_message, %rbx
	movq	%rbx, %rdx
	addq	%rcx, %rdx
	movq	16(%rdx), %rcx
	movl	-12(%rbp), %edx
	movl	%edx, %esi
	addl	$1, %esi
	movl	%esi, -12(%rbp)
	movslq	%edx, %rdx
	movb	%al, (%rcx,%rdx)
	movslq	-16(%rbp), %rax
	imulq	$24, %rax, %rax
	movq	%rbx, %rcx
	addq	%rax, %rcx
	movq	16(%rcx), %rdi
	movslq	-12(%rbp), %rax
	addq	%rax, %rdi
	movq	-48(%rbp), %rsi
	movslq	-28(%rbp), %rdx
	callq	memcpy
	movl	-28(%rbp), %eax
	addl	-12(%rbp), %eax
	movl	%eax, -12(%rbp)
	movl	-12(%rbp), %eax
	movslq	-16(%rbp), %rcx
	imulq	$24, %rcx, %rcx
	addq	%rcx, %rbx
	movl	%eax, 4(%rbx)
	cmpl	$1330791441, -36(%rbp)  # imm = 0x4F524411
	jne	.LBB50_8
.LBB50_7:
	addq	$40, %rsp
	popq	%rbx
	popq	%rbp
	.cfi_def_cfa %rsp, 8
	retq
.LBB50_8:                               # %func_exit
	.cfi_def_cfa %rbp, 16
	callq	detect_breach
	jmp	.LBB50_7
.Lfunc_end50:
	.size	write_sei_message.1, .Lfunc_end50-write_sei_message.1
	.cfi_endproc
                                        # -- End function
	.globl	write_sei_message.2     # -- Begin function write_sei_message.2
	.p2align	4, 0x90
	.type	write_sei_message.2,@function
write_sei_message.2:                    # @write_sei_message.2
	.cfi_startproc
# %bb.0:                                # %entry
	pushq	%rbp
	.cfi_def_cfa_offset 16
	.cfi_offset %rbp, -16
	movq	%rsp, %rbp
	.cfi_def_cfa_register %rbp
	pushq	%rbx
	subq	$40, %rsp
	.cfi_offset %rbx, -24
	movl	$306616640, -32(%rbp)   # imm = 0x12469940
	movl	%edi, -16(%rbp)
	movq	%rsi, -48(%rbp)
	movl	%edx, -28(%rbp)
	movl	%ecx, -36(%rbp)
	movl	-36(%rbp), %eax
	movl	%eax, -24(%rbp)
	movl	-28(%rbp), %eax
	movl	%eax, -20(%rbp)
	movslq	-16(%rbp), %rax
	imulq	$24, %rax, %rax
	movabsq	$sei_message, %rcx
	addq	%rax, %rcx
	movl	4(%rcx), %eax
	movl	%eax, -12(%rbp)
.LBB51_1:                               # %while.cond
                                        # =>This Inner Loop Header: Depth=1
	cmpl	$255, -24(%rbp)
	jle	.LBB51_3
# %bb.2:                                # %while.body
                                        #   in Loop: Header=BB51_1 Depth=1
	movslq	-16(%rbp), %rax
	imulq	$24, %rax, %rax
	movabsq	$sei_message, %rcx
	addq	%rax, %rcx
	movq	16(%rcx), %rax
	movl	-12(%rbp), %ecx
	movl	%ecx, %edx
	addl	$1, %edx
	movl	%edx, -12(%rbp)
	movslq	%ecx, %rcx
	movb	$-1, (%rax,%rcx)
	movl	-24(%rbp), %eax
	subl	$255, %eax
	movl	%eax, -24(%rbp)
	jmp	.LBB51_1
.LBB51_3:                               # %while.end
	movl	-24(%rbp), %eax
	movslq	-16(%rbp), %rcx
	imulq	$24, %rcx, %rcx
	movabsq	$sei_message, %rdx
	addq	%rcx, %rdx
	movq	16(%rdx), %rcx
	movl	-12(%rbp), %edx
	movl	%edx, %esi
	addl	$1, %esi
	movl	%esi, -12(%rbp)
	movslq	%edx, %rdx
	movb	%al, (%rcx,%rdx)
.LBB51_4:                               # %while.cond11
                                        # =>This Inner Loop Header: Depth=1
	cmpl	$255, -20(%rbp)
	jle	.LBB51_6
# %bb.5:                                # %while.body14
                                        #   in Loop: Header=BB51_4 Depth=1
	movslq	-16(%rbp), %rax
	imulq	$24, %rax, %rax
	movabsq	$sei_message, %rcx
	addq	%rax, %rcx
	movq	16(%rcx), %rax
	movl	-12(%rbp), %ecx
	movl	%ecx, %edx
	addl	$1, %edx
	movl	%edx, -12(%rbp)
	movslq	%ecx, %rcx
	movb	$-1, (%rax,%rcx)
	movl	-20(%rbp), %eax
	subl	$255, %eax
	movl	%eax, -20(%rbp)
	jmp	.LBB51_4
.LBB51_6:                               # %while.end22
	movl	-20(%rbp), %eax
	movslq	-16(%rbp), %rcx
	imulq	$24, %rcx, %rcx
	movabsq	$sei_message, %rbx
	movq	%rbx, %rdx
	addq	%rcx, %rdx
	movq	16(%rdx), %rcx
	movl	-12(%rbp), %edx
	movl	%edx, %esi
	addl	$1, %esi
	movl	%esi, -12(%rbp)
	movslq	%edx, %rdx
	movb	%al, (%rcx,%rdx)
	movslq	-16(%rbp), %rax
	imulq	$24, %rax, %rax
	movq	%rbx, %rcx
	addq	%rax, %rcx
	movq	16(%rcx), %rdi
	movslq	-12(%rbp), %rax
	addq	%rax, %rdi
	movq	-48(%rbp), %rsi
	movslq	-28(%rbp), %rdx
	callq	memcpy
	movl	-28(%rbp), %eax
	addl	-12(%rbp), %eax
	movl	%eax, -12(%rbp)
	movl	-12(%rbp), %eax
	movslq	-16(%rbp), %rcx
	imulq	$24, %rcx, %rcx
	addq	%rcx, %rbx
	movl	%eax, 4(%rbx)
	cmpl	$306616640, -32(%rbp)   # imm = 0x12469940
	jne	.LBB51_8
.LBB51_7:
	addq	$40, %rsp
	popq	%rbx
	popq	%rbp
	.cfi_def_cfa %rsp, 8
	retq
.LBB51_8:                               # %func_exit
	.cfi_def_cfa %rbp, 16
	callq	detect_breach
	jmp	.LBB51_7
.Lfunc_end51:
	.size	write_sei_message.2, .Lfunc_end51-write_sei_message.2
	.cfi_endproc
                                        # -- End function
	.globl	UpdateSceneInformation.3 # -- Begin function UpdateSceneInformation.3
	.p2align	4, 0x90
	.type	UpdateSceneInformation.3,@function
UpdateSceneInformation.3:               # @UpdateSceneInformation.3
	.cfi_startproc
# %bb.0:                                # %entry
	pushq	%rbp
	.cfi_def_cfa_offset 16
	.cfi_offset %rbp, -16
	movq	%rsp, %rbp
	.cfi_def_cfa_register %rbp
	subq	$32, %rsp
	movl	$478996008, -16(%rbp)   # imm = 0x1C8CE628
	movl	%edi, -8(%rbp)
	movl	%esi, -12(%rbp)
	movl	%edx, -4(%rbp)
	movl	%ecx, -20(%rbp)
	movl	-8(%rbp), %eax
	movl	%eax, seiHasSceneInformation
	movl	-12(%rbp), %eax
	movl	%eax, seiSceneInformation
	movl	-4(%rbp), %eax
	movl	%eax, seiSceneInformation+4
	cmpl	$3, -4(%rbp)
	jle	.LBB52_2
# %bb.1:                                # %if.then
	movl	-20(%rbp), %eax
	movl	%eax, seiSceneInformation+8
.LBB52_2:                               # %if.end
	cmpl	$478996008, -16(%rbp)   # imm = 0x1C8CE628
	jne	.LBB52_4
.LBB52_3:
	addq	$32, %rsp
	popq	%rbp
	.cfi_def_cfa %rsp, 8
	retq
.LBB52_4:                               # %func_exit
	.cfi_def_cfa %rbp, 16
	callq	detect_breach
	jmp	.LBB52_3
.Lfunc_end52:
	.size	UpdateSceneInformation.3, .Lfunc_end52-UpdateSceneInformation.3
	.cfi_endproc
                                        # -- End function
	.globl	write_sei_message.4     # -- Begin function write_sei_message.4
	.p2align	4, 0x90
	.type	write_sei_message.4,@function
write_sei_message.4:                    # @write_sei_message.4
	.cfi_startproc
# %bb.0:                                # %entry
	pushq	%rbp
	.cfi_def_cfa_offset 16
	.cfi_offset %rbp, -16
	movq	%rsp, %rbp
	.cfi_def_cfa_register %rbp
	pushq	%rbx
	subq	$40, %rsp
	.cfi_offset %rbx, -24
	movl	$1854174810, -32(%rbp)  # imm = 0x6E84765A
	movl	%edi, -16(%rbp)
	movq	%rsi, -48(%rbp)
	movl	%edx, -28(%rbp)
	movl	%ecx, -36(%rbp)
	movl	-36(%rbp), %eax
	movl	%eax, -24(%rbp)
	movl	-28(%rbp), %eax
	movl	%eax, -20(%rbp)
	movslq	-16(%rbp), %rax
	imulq	$24, %rax, %rax
	movabsq	$sei_message, %rcx
	addq	%rax, %rcx
	movl	4(%rcx), %eax
	movl	%eax, -12(%rbp)
.LBB53_1:                               # %while.cond
                                        # =>This Inner Loop Header: Depth=1
	cmpl	$255, -24(%rbp)
	jle	.LBB53_3
# %bb.2:                                # %while.body
                                        #   in Loop: Header=BB53_1 Depth=1
	movslq	-16(%rbp), %rax
	imulq	$24, %rax, %rax
	movabsq	$sei_message, %rcx
	addq	%rax, %rcx
	movq	16(%rcx), %rax
	movl	-12(%rbp), %ecx
	movl	%ecx, %edx
	addl	$1, %edx
	movl	%edx, -12(%rbp)
	movslq	%ecx, %rcx
	movb	$-1, (%rax,%rcx)
	movl	-24(%rbp), %eax
	subl	$255, %eax
	movl	%eax, -24(%rbp)
	jmp	.LBB53_1
.LBB53_3:                               # %while.end
	movl	-24(%rbp), %eax
	movslq	-16(%rbp), %rcx
	imulq	$24, %rcx, %rcx
	movabsq	$sei_message, %rdx
	addq	%rcx, %rdx
	movq	16(%rdx), %rcx
	movl	-12(%rbp), %edx
	movl	%edx, %esi
	addl	$1, %esi
	movl	%esi, -12(%rbp)
	movslq	%edx, %rdx
	movb	%al, (%rcx,%rdx)
.LBB53_4:                               # %while.cond11
                                        # =>This Inner Loop Header: Depth=1
	cmpl	$255, -20(%rbp)
	jle	.LBB53_6
# %bb.5:                                # %while.body14
                                        #   in Loop: Header=BB53_4 Depth=1
	movslq	-16(%rbp), %rax
	imulq	$24, %rax, %rax
	movabsq	$sei_message, %rcx
	addq	%rax, %rcx
	movq	16(%rcx), %rax
	movl	-12(%rbp), %ecx
	movl	%ecx, %edx
	addl	$1, %edx
	movl	%edx, -12(%rbp)
	movslq	%ecx, %rcx
	movb	$-1, (%rax,%rcx)
	movl	-20(%rbp), %eax
	subl	$255, %eax
	movl	%eax, -20(%rbp)
	jmp	.LBB53_4
.LBB53_6:                               # %while.end22
	movl	-20(%rbp), %eax
	movslq	-16(%rbp), %rcx
	imulq	$24, %rcx, %rcx
	movabsq	$sei_message, %rbx
	movq	%rbx, %rdx
	addq	%rcx, %rdx
	movq	16(%rdx), %rcx
	movl	-12(%rbp), %edx
	movl	%edx, %esi
	addl	$1, %esi
	movl	%esi, -12(%rbp)
	movslq	%edx, %rdx
	movb	%al, (%rcx,%rdx)
	movslq	-16(%rbp), %rax
	imulq	$24, %rax, %rax
	movq	%rbx, %rcx
	addq	%rax, %rcx
	movq	16(%rcx), %rdi
	movslq	-12(%rbp), %rax
	addq	%rax, %rdi
	movq	-48(%rbp), %rsi
	movslq	-28(%rbp), %rdx
	callq	memcpy
	movl	-28(%rbp), %eax
	addl	-12(%rbp), %eax
	movl	%eax, -12(%rbp)
	movl	-12(%rbp), %eax
	movslq	-16(%rbp), %rcx
	imulq	$24, %rcx, %rcx
	addq	%rcx, %rbx
	movl	%eax, 4(%rbx)
	cmpl	$1854174810, -32(%rbp)  # imm = 0x6E84765A
	jne	.LBB53_8
.LBB53_7:
	addq	$40, %rsp
	popq	%rbx
	popq	%rbp
	.cfi_def_cfa %rsp, 8
	retq
.LBB53_8:                               # %func_exit
	.cfi_def_cfa %rbp, 16
	callq	detect_breach
	jmp	.LBB53_7
.Lfunc_end53:
	.size	write_sei_message.4, .Lfunc_end53-write_sei_message.4
	.cfi_endproc
                                        # -- End function
	.globl	FinalizePanScanRectInfo.5 # -- Begin function FinalizePanScanRectInfo.5
	.p2align	4, 0x90
	.type	FinalizePanScanRectInfo.5,@function
FinalizePanScanRectInfo.5:              # @FinalizePanScanRectInfo.5
	.cfi_startproc
# %bb.0:                                # %entry
	pushq	%rbp
	.cfi_def_cfa_offset 16
	.cfi_offset %rbp, -16
	movq	%rsp, %rbp
	.cfi_def_cfa_register %rbp
	subq	$64, %rsp
	movl	$1887919158, -12(%rbp)  # imm = 0x70875C36
	movq	seiPanScanRectInfo+24, %rax
	movq	%rax, -8(%rbp)
	movl	$0, -64(%rbp)
	movabsq	$ue_linfo, %rax
	movq	%rax, -32(%rbp)
	movl	seiPanScanRectInfo, %eax
	movl	%eax, -60(%rbp)
	movq	-8(%rbp), %rsi
	leaq	-64(%rbp), %rdi
	callq	writeSyntaxElement2Buf_UVLC
	movl	seiPanScanRectInfo+4, %eax
	movl	%eax, -60(%rbp)
	movq	-8(%rbp), %rsi
	leaq	-64(%rbp), %rdi
	callq	writeSyntaxElement2Buf_UVLC
	movl	seiPanScanRectInfo+8, %eax
	movl	%eax, -60(%rbp)
	movq	-8(%rbp), %rsi
	leaq	-64(%rbp), %rdi
	callq	writeSyntaxElement2Buf_UVLC
	movl	seiPanScanRectInfo+12, %eax
	movl	%eax, -60(%rbp)
	movq	-8(%rbp), %rsi
	leaq	-64(%rbp), %rdi
	callq	writeSyntaxElement2Buf_UVLC
	movl	seiPanScanRectInfo+16, %eax
	movl	%eax, -60(%rbp)
	movq	-8(%rbp), %rsi
	leaq	-64(%rbp), %rdi
	callq	writeSyntaxElement2Buf_UVLC
	movq	-8(%rbp), %rax
	cmpl	$8, 4(%rax)
	je	.LBB54_4
# %bb.1:                                # %if.then
	movq	-8(%rbp), %rax
	movzbl	8(%rax), %ecx
	shll	$1, %ecx
	movb	%cl, 8(%rax)
	movq	-8(%rbp), %rax
	movzbl	8(%rax), %ecx
	orl	$1, %ecx
	movb	%cl, 8(%rax)
	movq	-8(%rbp), %rax
	movl	4(%rax), %ecx
	addl	$-1, %ecx
	movl	%ecx, 4(%rax)
	movq	-8(%rbp), %rax
	cmpl	$0, 4(%rax)
	je	.LBB54_3
# %bb.2:                                # %if.then17
	movq	-8(%rbp), %rax
	movl	4(%rax), %ecx
	movq	-8(%rbp), %rax
	movzbl	8(%rax), %edx
                                        # kill: def $cl killed $ecx
	shll	%cl, %edx
	movb	%dl, 8(%rax)
.LBB54_3:                               # %if.end
	movq	-8(%rbp), %rax
	movl	$8, 4(%rax)
	movq	-8(%rbp), %rax
	movb	8(%rax), %al
	movq	-8(%rbp), %rcx
	movq	32(%rcx), %rcx
	movq	-8(%rbp), %rdx
	movl	(%rdx), %esi
	movl	%esi, %edi
	addl	$1, %edi
	movl	%edi, (%rdx)
	movslq	%esi, %rdx
	movb	%al, (%rcx,%rdx)
	movq	-8(%rbp), %rax
	movb	$0, 8(%rax)
.LBB54_4:                               # %if.end26
	movq	-8(%rbp), %rax
	movl	(%rax), %eax
	movl	%eax, seiPanScanRectInfo+32
	cmpl	$1887919158, -12(%rbp)  # imm = 0x70875C36
	jne	.LBB54_6
.LBB54_5:
	addq	$64, %rsp
	popq	%rbp
	.cfi_def_cfa %rsp, 8
	retq
.LBB54_6:                               # %func_exit
	.cfi_def_cfa %rbp, 16
	callq	detect_breach
	jmp	.LBB54_5
.Lfunc_end54:
	.size	FinalizePanScanRectInfo.5, .Lfunc_end54-FinalizePanScanRectInfo.5
	.cfi_endproc
                                        # -- End function
	.globl	ComposeSparePictureMessage.6 # -- Begin function ComposeSparePictureMessage.6
	.p2align	4, 0x90
	.type	ComposeSparePictureMessage.6,@function
ComposeSparePictureMessage.6:           # @ComposeSparePictureMessage.6
	.cfi_startproc
# %bb.0:                                # %entry
	pushq	%rbp
	.cfi_def_cfa_offset 16
	.cfi_offset %rbp, -16
	movq	%rsp, %rbp
	.cfi_def_cfa_register %rbp
	subq	$80, %rsp
	movl	$1004777621, -12(%rbp)  # imm = 0x3BE3B095
	movl	%edi, -16(%rbp)
	movl	%esi, -20(%rbp)
	movq	%rdx, -32(%rbp)
	movq	seiSparePicturePayload+16, %rax
	movq	%rax, -8(%rbp)
	movl	$0, -80(%rbp)
	movabsq	$ue_linfo, %rax
	movq	%rax, -48(%rbp)
	movl	-16(%rbp), %eax
	movl	%eax, -76(%rbp)
	movq	-8(%rbp), %rsi
	leaq	-80(%rbp), %rdi
	callq	writeSyntaxElement2Buf_UVLC
	movl	-20(%rbp), %eax
	movl	%eax, -76(%rbp)
	movq	-8(%rbp), %rsi
	leaq	-80(%rbp), %rdi
	callq	writeSyntaxElement2Buf_UVLC
	movq	-8(%rbp), %rdi
	movq	-32(%rbp), %rsi
	callq	AppendTmpbits2Buf
	cmpl	$1004777621, -12(%rbp)  # imm = 0x3BE3B095
	jne	.LBB55_2
.LBB55_1:
	addq	$80, %rsp
	popq	%rbp
	.cfi_def_cfa %rsp, 8
	retq
.LBB55_2:                               # %func_exit
	.cfi_def_cfa %rbp, 16
	callq	detect_breach
	jmp	.LBB55_1
.Lfunc_end55:
	.size	ComposeSparePictureMessage.6, .Lfunc_end55-ComposeSparePictureMessage.6
	.cfi_endproc
                                        # -- End function
	.globl	FinalizeSubseqInfo.7    # -- Begin function FinalizeSubseqInfo.7
	.p2align	4, 0x90
	.type	FinalizeSubseqInfo.7,@function
FinalizeSubseqInfo.7:                   # @FinalizeSubseqInfo.7
	.cfi_startproc
# %bb.0:                                # %entry
	pushq	%rbp
	.cfi_def_cfa_offset 16
	.cfi_offset %rbp, -16
	movq	%rsp, %rbp
	.cfi_def_cfa_register %rbp
	subq	$64, %rsp
	movl	$1455253007, -16(%rbp)  # imm = 0x56BD660F
	movl	%edi, -12(%rbp)
	movslq	-12(%rbp), %rax
	shlq	$5, %rax
	movabsq	$seiSubseqInfo, %rcx
	movq	%rcx, %rdx
	addq	%rax, %rdx
	movq	24(%rdx), %rax
	movq	%rax, -8(%rbp)
	movl	$0, -64(%rbp)
	movabsq	$ue_linfo, %rax
	movq	%rax, -32(%rbp)
	movslq	-12(%rbp), %rax
	shlq	$5, %rax
	addq	%rax, %rcx
	movl	(%rcx), %eax
	movl	%eax, -60(%rbp)
	movq	-8(%rbp), %rsi
	leaq	-64(%rbp), %rdi
	callq	writeSyntaxElement2Buf_UVLC
	movslq	-12(%rbp), %rax
	shlq	$5, %rax
	movabsq	$seiSubseqInfo, %rcx
	addq	%rax, %rcx
	movl	4(%rcx), %eax
	movl	%eax, -60(%rbp)
	movq	-8(%rbp), %rsi
	leaq	-64(%rbp), %rdi
	callq	writeSyntaxElement2Buf_UVLC
	movslq	-12(%rbp), %rax
	shlq	$5, %rax
	movabsq	$seiSubseqInfo, %rcx
	addq	%rax, %rcx
	movl	8(%rcx), %eax
	movl	%eax, -44(%rbp)
	movl	$1, -52(%rbp)
	movq	-8(%rbp), %rsi
	leaq	-64(%rbp), %rdi
	callq	writeSyntaxElement2Buf_Fixed
	movslq	-12(%rbp), %rax
	shlq	$5, %rax
	movabsq	$seiSubseqInfo, %rcx
	addq	%rax, %rcx
	movl	12(%rcx), %eax
	movl	%eax, -60(%rbp)
	movq	-8(%rbp), %rsi
	leaq	-64(%rbp), %rdi
	callq	writeSyntaxElement2Buf_UVLC
	movq	-8(%rbp), %rax
	cmpl	$8, 4(%rax)
	je	.LBB56_4
# %bb.1:                                # %if.then
	movq	-8(%rbp), %rax
	movzbl	8(%rax), %ecx
	shll	$1, %ecx
	movb	%cl, 8(%rax)
	movq	-8(%rbp), %rax
	movzbl	8(%rax), %ecx
	orl	$1, %ecx
	movb	%cl, 8(%rax)
	movq	-8(%rbp), %rax
	movl	4(%rax), %ecx
	addl	$-1, %ecx
	movl	%ecx, 4(%rax)
	movq	-8(%rbp), %rax
	cmpl	$0, 4(%rax)
	je	.LBB56_3
# %bb.2:                                # %if.then22
	movq	-8(%rbp), %rax
	movl	4(%rax), %ecx
	movq	-8(%rbp), %rax
	movzbl	8(%rax), %edx
                                        # kill: def $cl killed $ecx
	shll	%cl, %edx
	movb	%dl, 8(%rax)
.LBB56_3:                               # %if.end
	movq	-8(%rbp), %rax
	movl	$8, 4(%rax)
	movq	-8(%rbp), %rax
	movb	8(%rax), %al
	movq	-8(%rbp), %rcx
	movq	32(%rcx), %rcx
	movq	-8(%rbp), %rdx
	movl	(%rdx), %esi
	movl	%esi, %edi
	addl	$1, %edi
	movl	%edi, (%rdx)
	movslq	%esi, %rdx
	movb	%al, (%rcx,%rdx)
	movq	-8(%rbp), %rax
	movb	$0, 8(%rax)
.LBB56_4:                               # %if.end33
	movq	-8(%rbp), %rax
	movl	(%rax), %eax
	movslq	-12(%rbp), %rcx
	shlq	$5, %rcx
	movabsq	$seiSubseqInfo, %rdx
	addq	%rcx, %rdx
	movl	%eax, 16(%rdx)
	cmpl	$1455253007, -16(%rbp)  # imm = 0x56BD660F
	jne	.LBB56_6
.LBB56_5:
	addq	$64, %rsp
	popq	%rbp
	.cfi_def_cfa %rsp, 8
	retq
.LBB56_6:                               # %func_exit
	.cfi_def_cfa %rbp, 16
	callq	detect_breach
	jmp	.LBB56_5
.Lfunc_end56:
	.size	FinalizeSubseqInfo.7, .Lfunc_end56-FinalizeSubseqInfo.7
	.cfi_endproc
                                        # -- End function
	.globl	FinalizeUser_data_registered_itu_t_t35.8 # -- Begin function FinalizeUser_data_registered_itu_t_t35.8
	.p2align	4, 0x90
	.type	FinalizeUser_data_registered_itu_t_t35.8,@function
FinalizeUser_data_registered_itu_t_t35.8: # @FinalizeUser_data_registered_itu_t_t35.8
	.cfi_startproc
# %bb.0:                                # %entry
	pushq	%rbp
	.cfi_def_cfa_offset 16
	.cfi_offset %rbp, -16
	movq	%rsp, %rbp
	.cfi_def_cfa_register %rbp
	subq	$64, %rsp
	movl	$249165010, -16(%rbp)   # imm = 0xED9F4D2
	movq	seiUser_data_registered_itu_t_t35+24, %rax
	movq	%rax, -8(%rbp)
	movl	$0, -64(%rbp)
	movabsq	$ue_linfo, %rax
	movq	%rax, -32(%rbp)
	movl	seiUser_data_registered_itu_t_t35+12, %eax
	movl	%eax, -44(%rbp)
	movl	$8, -52(%rbp)
	movq	-8(%rbp), %rsi
	leaq	-64(%rbp), %rdi
	callq	writeSyntaxElement2Buf_Fixed
	cmpl	$255, seiUser_data_registered_itu_t_t35+12
	jne	.LBB57_2
# %bb.1:                                # %if.then
	movl	seiUser_data_registered_itu_t_t35+16, %eax
	movl	%eax, -44(%rbp)
	movl	$8, -52(%rbp)
	movq	-8(%rbp), %rsi
	leaq	-64(%rbp), %rdi
	callq	writeSyntaxElement2Buf_Fixed
.LBB57_2:                               # %if.end
	movl	$0, -12(%rbp)
.LBB57_3:                               # %for.cond
                                        # =>This Inner Loop Header: Depth=1
	movl	-12(%rbp), %eax
	cmpl	seiUser_data_registered_itu_t_t35+8, %eax
	jge	.LBB57_6
# %bb.4:                                # %for.body
                                        #   in Loop: Header=BB57_3 Depth=1
	movq	seiUser_data_registered_itu_t_t35, %rax
	movslq	-12(%rbp), %rcx
	movsbl	(%rax,%rcx), %eax
	movl	%eax, -44(%rbp)
	movl	$8, -52(%rbp)
	movq	-8(%rbp), %rsi
	leaq	-64(%rbp), %rdi
	callq	writeSyntaxElement2Buf_Fixed
# %bb.5:                                # %for.inc
                                        #   in Loop: Header=BB57_3 Depth=1
	movl	-12(%rbp), %eax
	addl	$1, %eax
	movl	%eax, -12(%rbp)
	jmp	.LBB57_3
.LBB57_6:                               # %for.end
	movq	-8(%rbp), %rax
	cmpl	$8, 4(%rax)
	je	.LBB57_10
# %bb.7:                                # %if.then10
	movq	-8(%rbp), %rax
	movzbl	8(%rax), %ecx
	shll	$1, %ecx
	movb	%cl, 8(%rax)
	movq	-8(%rbp), %rax
	movzbl	8(%rax), %ecx
	orl	$1, %ecx
	movb	%cl, 8(%rax)
	movq	-8(%rbp), %rax
	movl	4(%rax), %ecx
	addl	$-1, %ecx
	movl	%ecx, 4(%rax)
	movq	-8(%rbp), %rax
	cmpl	$0, 4(%rax)
	je	.LBB57_9
# %bb.8:                                # %if.then20
	movq	-8(%rbp), %rax
	movl	4(%rax), %ecx
	movq	-8(%rbp), %rax
	movzbl	8(%rax), %edx
                                        # kill: def $cl killed $ecx
	shll	%cl, %edx
	movb	%dl, 8(%rax)
.LBB57_9:                               # %if.end26
	movq	-8(%rbp), %rax
	movl	$8, 4(%rax)
	movq	-8(%rbp), %rax
	movb	8(%rax), %al
	movq	-8(%rbp), %rcx
	movq	32(%rcx), %rcx
	movq	-8(%rbp), %rdx
	movl	(%rdx), %esi
	movl	%esi, %edi
	addl	$1, %edi
	movl	%edi, (%rdx)
	movslq	%esi, %rdx
	movb	%al, (%rcx,%rdx)
	movq	-8(%rbp), %rax
	movb	$0, 8(%rax)
.LBB57_10:                              # %if.end33
	movq	-8(%rbp), %rax
	movl	(%rax), %eax
	movl	%eax, seiUser_data_registered_itu_t_t35+32
	cmpl	$249165010, -16(%rbp)   # imm = 0xED9F4D2
	jne	.LBB57_12
.LBB57_11:
	addq	$64, %rsp
	popq	%rbp
	.cfi_def_cfa %rsp, 8
	retq
.LBB57_12:                              # %func_exit
	.cfi_def_cfa %rbp, 16
	callq	detect_breach
	jmp	.LBB57_11
.Lfunc_end57:
	.size	FinalizeUser_data_registered_itu_t_t35.8, .Lfunc_end57-FinalizeUser_data_registered_itu_t_t35.8
	.cfi_endproc
                                        # -- End function
	.globl	finalize_sei_message.9  # -- Begin function finalize_sei_message.9
	.p2align	4, 0x90
	.type	finalize_sei_message.9,@function
finalize_sei_message.9:                 # @finalize_sei_message.9
	.cfi_startproc
# %bb.0:                                # %entry
	pushq	%rbp
	.cfi_def_cfa_offset 16
	.cfi_offset %rbp, -16
	movq	%rsp, %rbp
	.cfi_def_cfa_register %rbp
	subq	$16, %rsp
	movl	$1806650104, -12(%rbp)  # imm = 0x6BAF4AF8
	movl	%edi, -4(%rbp)
	movslq	-4(%rbp), %rax
	imulq	$24, %rax, %rax
	movabsq	$sei_message, %rcx
	movq	%rcx, %rdx
	addq	%rax, %rdx
	movl	4(%rdx), %eax
	movl	%eax, -8(%rbp)
	movslq	-4(%rbp), %rax
	imulq	$24, %rax, %rax
	movq	%rcx, %rdx
	addq	%rax, %rdx
	movq	16(%rdx), %rax
	movslq	-8(%rbp), %rdx
	movb	$-128, (%rax,%rdx)
	movslq	-4(%rbp), %rax
	imulq	$24, %rax, %rax
	movq	%rcx, %rdx
	addq	%rax, %rdx
	movl	4(%rdx), %eax
	addl	$1, %eax
	movl	%eax, 4(%rdx)
	movslq	-4(%rbp), %rax
	imulq	$24, %rax, %rax
	addq	%rax, %rcx
	movl	$1, (%rcx)
	cmpl	$1806650104, -12(%rbp)  # imm = 0x6BAF4AF8
	jne	.LBB58_2
.LBB58_1:
	addq	$16, %rsp
	popq	%rbp
	.cfi_def_cfa %rsp, 8
	retq
.LBB58_2:                               # %func_exit
	.cfi_def_cfa %rbp, 16
	callq	detect_breach
	jmp	.LBB58_1
.Lfunc_end58:
	.size	finalize_sei_message.9, .Lfunc_end58-finalize_sei_message.9
	.cfi_endproc
                                        # -- End function
	.globl	FinalizeSubseqLayerInfo.10 # -- Begin function FinalizeSubseqLayerInfo.10
	.p2align	4, 0x90
	.type	FinalizeSubseqLayerInfo.10,@function
FinalizeSubseqLayerInfo.10:             # @FinalizeSubseqLayerInfo.10
	.cfi_startproc
# %bb.0:                                # %entry
	pushq	%rbp
	.cfi_def_cfa_offset 16
	.cfi_offset %rbp, -16
	movq	%rsp, %rbp
	.cfi_def_cfa_register %rbp
	subq	$16, %rsp
	movl	$361494103, -12(%rbp)   # imm = 0x158BF657
	movl	$0, -4(%rbp)
	movl	$0, seiSubseqLayerInfo+20
	movl	$0, -8(%rbp)
.LBB59_1:                               # %for.cond
                                        # =>This Inner Loop Header: Depth=1
	movl	-8(%rbp), %eax
	cmpl	seiSubseqLayerInfo+16, %eax
	jge	.LBB59_4
# %bb.2:                                # %for.body
                                        #   in Loop: Header=BB59_1 Depth=1
	movslq	-8(%rbp), %rax
	movw	seiSubseqLayerInfo(,%rax,2), %ax
	movslq	-4(%rbp), %rcx
	movw	%ax, seiSubseqLayerInfo+8(,%rcx)
	movl	-4(%rbp), %eax
	addl	$2, %eax
	movl	%eax, -4(%rbp)
	movslq	-8(%rbp), %rax
	movw	seiSubseqLayerInfo+4(,%rax,2), %ax
	movslq	-4(%rbp), %rcx
	movw	%ax, seiSubseqLayerInfo+8(,%rcx)
	movl	-4(%rbp), %eax
	addl	$2, %eax
	movl	%eax, -4(%rbp)
	movl	seiSubseqLayerInfo+20, %eax
	addl	$4, %eax
	movl	%eax, seiSubseqLayerInfo+20
# %bb.3:                                # %for.inc
                                        #   in Loop: Header=BB59_1 Depth=1
	movl	-8(%rbp), %eax
	addl	$1, %eax
	movl	%eax, -8(%rbp)
	jmp	.LBB59_1
.LBB59_4:                               # %for.end
	cmpl	$361494103, -12(%rbp)   # imm = 0x158BF657
	jne	.LBB59_6
.LBB59_5:
	addq	$16, %rsp
	popq	%rbp
	.cfi_def_cfa %rsp, 8
	retq
.LBB59_6:                               # %func_exit
	.cfi_def_cfa %rbp, 16
	callq	detect_breach
	jmp	.LBB59_5
.Lfunc_end59:
	.size	FinalizeSubseqLayerInfo.10, .Lfunc_end59-FinalizeSubseqLayerInfo.10
	.cfi_endproc
                                        # -- End function
	.globl	UpdateUser_data_registered_itu_t_t35.11 # -- Begin function UpdateUser_data_registered_itu_t_t35.11
	.p2align	4, 0x90
	.type	UpdateUser_data_registered_itu_t_t35.11,@function
UpdateUser_data_registered_itu_t_t35.11: # @UpdateUser_data_registered_itu_t_t35.11
	.cfi_startproc
# %bb.0:                                # %entry
	pushq	%rbp
	.cfi_def_cfa_offset 16
	.cfi_offset %rbp, -16
	movq	%rsp, %rbp
	.cfi_def_cfa_register %rbp
	subq	$32, %rsp
	movl	$1945717876, -20(%rbp)  # imm = 0x73F94C74
	movl	$82, -12(%rbp)
	cmpl	$255, -12(%rbp)
	jge	.LBB60_2
# %bb.1:                                # %if.then
	movl	-12(%rbp), %eax
	movl	%eax, seiUser_data_registered_itu_t_t35+12
	jmp	.LBB60_3
.LBB60_2:                               # %if.else
	movl	$255, seiUser_data_registered_itu_t_t35+12
	movl	-12(%rbp), %eax
	subl	$255, %eax
	movl	%eax, seiUser_data_registered_itu_t_t35+16
.LBB60_3:                               # %if.end
	movl	$7, -16(%rbp)
	movl	$0, -4(%rbp)
.LBB60_4:                               # %for.cond
                                        # =>This Inner Loop Header: Depth=1
	movl	-4(%rbp), %eax
	cmpl	-16(%rbp), %eax
	jge	.LBB60_16
# %bb.5:                                # %for.body
                                        #   in Loop: Header=BB60_4 Depth=1
	imull	$3, -4(%rbp), %eax
	movl	%eax, -8(%rbp)
	cmpl	$255, -8(%rbp)
	jge	.LBB60_7
# %bb.6:                                # %cond.true
                                        #   in Loop: Header=BB60_4 Depth=1
	movl	-8(%rbp), %eax
	jmp	.LBB60_8
.LBB60_7:                               # %cond.false
                                        #   in Loop: Header=BB60_4 Depth=1
	movl	$255, %eax
	jmp	.LBB60_8
.LBB60_8:                               # %cond.end
                                        #   in Loop: Header=BB60_4 Depth=1
	xorl	%ecx, %ecx
	cmpl	%eax, %ecx
	jle	.LBB60_10
# %bb.9:                                # %cond.true4
                                        #   in Loop: Header=BB60_4 Depth=1
	xorl	%eax, %eax
	jmp	.LBB60_14
.LBB60_10:                              # %cond.false5
                                        #   in Loop: Header=BB60_4 Depth=1
	cmpl	$255, -8(%rbp)
	jge	.LBB60_12
# %bb.11:                               # %cond.true7
                                        #   in Loop: Header=BB60_4 Depth=1
	movl	-8(%rbp), %eax
	jmp	.LBB60_13
.LBB60_12:                              # %cond.false8
                                        #   in Loop: Header=BB60_4 Depth=1
	movl	$255, %eax
	jmp	.LBB60_13
.LBB60_13:                              # %cond.end9
                                        #   in Loop: Header=BB60_4 Depth=1
.LBB60_14:                              # %cond.end11
                                        #   in Loop: Header=BB60_4 Depth=1
	movq	seiUser_data_registered_itu_t_t35, %rcx
	movslq	-4(%rbp), %rdx
	movb	%al, (%rcx,%rdx)
# %bb.15:                               # %for.inc
                                        #   in Loop: Header=BB60_4 Depth=1
	movl	-4(%rbp), %eax
	addl	$1, %eax
	movl	%eax, -4(%rbp)
	jmp	.LBB60_4
.LBB60_16:                              # %for.end
	movl	-16(%rbp), %eax
	movl	%eax, seiUser_data_registered_itu_t_t35+8
	cmpl	$1945717876, -20(%rbp)  # imm = 0x73F94C74
	jne	.LBB60_18
.LBB60_17:
	addq	$32, %rsp
	popq	%rbp
	.cfi_def_cfa %rsp, 8
	retq
.LBB60_18:                              # %func_exit
	.cfi_def_cfa %rbp, 16
	callq	detect_breach
	jmp	.LBB60_17
.Lfunc_end60:
	.size	UpdateUser_data_registered_itu_t_t35.11, .Lfunc_end60-UpdateUser_data_registered_itu_t_t35.11
	.cfi_endproc
                                        # -- End function
	.globl	UpdateSceneInformation.12 # -- Begin function UpdateSceneInformation.12
	.p2align	4, 0x90
	.type	UpdateSceneInformation.12,@function
UpdateSceneInformation.12:              # @UpdateSceneInformation.12
	.cfi_startproc
# %bb.0:                                # %entry
	pushq	%rbp
	.cfi_def_cfa_offset 16
	.cfi_offset %rbp, -16
	movq	%rsp, %rbp
	.cfi_def_cfa_register %rbp
	subq	$32, %rsp
	movl	$1910398651, -20(%rbp)  # imm = 0x71DE5EBB
	movl	%edi, -12(%rbp)
	movl	%esi, -8(%rbp)
	movl	%edx, -4(%rbp)
	movl	%ecx, -16(%rbp)
	movl	-12(%rbp), %eax
	movl	%eax, seiHasSceneInformation
	movl	-8(%rbp), %eax
	movl	%eax, seiSceneInformation
	movl	-4(%rbp), %eax
	movl	%eax, seiSceneInformation+4
	cmpl	$3, -4(%rbp)
	jle	.LBB61_2
# %bb.1:                                # %if.then
	movl	-16(%rbp), %eax
	movl	%eax, seiSceneInformation+8
.LBB61_2:                               # %if.end
	cmpl	$1910398651, -20(%rbp)  # imm = 0x71DE5EBB
	jne	.LBB61_4
.LBB61_3:
	addq	$32, %rsp
	popq	%rbp
	.cfi_def_cfa %rsp, 8
	retq
.LBB61_4:                               # %func_exit
	.cfi_def_cfa %rbp, 16
	callq	detect_breach
	jmp	.LBB61_3
.Lfunc_end61:
	.size	UpdateSceneInformation.12, .Lfunc_end61-UpdateSceneInformation.12
	.cfi_endproc
                                        # -- End function
	.globl	FinalizeSubseqInfo.13   # -- Begin function FinalizeSubseqInfo.13
	.p2align	4, 0x90
	.type	FinalizeSubseqInfo.13,@function
FinalizeSubseqInfo.13:                  # @FinalizeSubseqInfo.13
	.cfi_startproc
# %bb.0:                                # %entry
	pushq	%rbp
	.cfi_def_cfa_offset 16
	.cfi_offset %rbp, -16
	movq	%rsp, %rbp
	.cfi_def_cfa_register %rbp
	subq	$64, %rsp
	movl	$2065415531, -16(%rbp)  # imm = 0x7B1BBD6B
	movl	%edi, -12(%rbp)
	movslq	-12(%rbp), %rax
	shlq	$5, %rax
	movabsq	$seiSubseqInfo, %rcx
	movq	%rcx, %rdx
	addq	%rax, %rdx
	movq	24(%rdx), %rax
	movq	%rax, -8(%rbp)
	movl	$0, -64(%rbp)
	movabsq	$ue_linfo, %rax
	movq	%rax, -32(%rbp)
	movslq	-12(%rbp), %rax
	shlq	$5, %rax
	addq	%rax, %rcx
	movl	(%rcx), %eax
	movl	%eax, -60(%rbp)
	movq	-8(%rbp), %rsi
	leaq	-64(%rbp), %rdi
	callq	writeSyntaxElement2Buf_UVLC
	movslq	-12(%rbp), %rax
	shlq	$5, %rax
	movabsq	$seiSubseqInfo, %rcx
	addq	%rax, %rcx
	movl	4(%rcx), %eax
	movl	%eax, -60(%rbp)
	movq	-8(%rbp), %rsi
	leaq	-64(%rbp), %rdi
	callq	writeSyntaxElement2Buf_UVLC
	movslq	-12(%rbp), %rax
	shlq	$5, %rax
	movabsq	$seiSubseqInfo, %rcx
	addq	%rax, %rcx
	movl	8(%rcx), %eax
	movl	%eax, -44(%rbp)
	movl	$1, -52(%rbp)
	movq	-8(%rbp), %rsi
	leaq	-64(%rbp), %rdi
	callq	writeSyntaxElement2Buf_Fixed
	movslq	-12(%rbp), %rax
	shlq	$5, %rax
	movabsq	$seiSubseqInfo, %rcx
	addq	%rax, %rcx
	movl	12(%rcx), %eax
	movl	%eax, -60(%rbp)
	movq	-8(%rbp), %rsi
	leaq	-64(%rbp), %rdi
	callq	writeSyntaxElement2Buf_UVLC
	movq	-8(%rbp), %rax
	cmpl	$8, 4(%rax)
	je	.LBB62_4
# %bb.1:                                # %if.then
	movq	-8(%rbp), %rax
	movzbl	8(%rax), %ecx
	shll	$1, %ecx
	movb	%cl, 8(%rax)
	movq	-8(%rbp), %rax
	movzbl	8(%rax), %ecx
	orl	$1, %ecx
	movb	%cl, 8(%rax)
	movq	-8(%rbp), %rax
	movl	4(%rax), %ecx
	addl	$-1, %ecx
	movl	%ecx, 4(%rax)
	movq	-8(%rbp), %rax
	cmpl	$0, 4(%rax)
	je	.LBB62_3
# %bb.2:                                # %if.then22
	movq	-8(%rbp), %rax
	movl	4(%rax), %ecx
	movq	-8(%rbp), %rax
	movzbl	8(%rax), %edx
                                        # kill: def $cl killed $ecx
	shll	%cl, %edx
	movb	%dl, 8(%rax)
.LBB62_3:                               # %if.end
	movq	-8(%rbp), %rax
	movl	$8, 4(%rax)
	movq	-8(%rbp), %rax
	movb	8(%rax), %al
	movq	-8(%rbp), %rcx
	movq	32(%rcx), %rcx
	movq	-8(%rbp), %rdx
	movl	(%rdx), %esi
	movl	%esi, %edi
	addl	$1, %edi
	movl	%edi, (%rdx)
	movslq	%esi, %rdx
	movb	%al, (%rcx,%rdx)
	movq	-8(%rbp), %rax
	movb	$0, 8(%rax)
.LBB62_4:                               # %if.end33
	movq	-8(%rbp), %rax
	movl	(%rax), %eax
	movslq	-12(%rbp), %rcx
	shlq	$5, %rcx
	movabsq	$seiSubseqInfo, %rdx
	addq	%rcx, %rdx
	movl	%eax, 16(%rdx)
	cmpl	$2065415531, -16(%rbp)  # imm = 0x7B1BBD6B
	jne	.LBB62_6
.LBB62_5:
	addq	$64, %rsp
	popq	%rbp
	.cfi_def_cfa %rsp, 8
	retq
.LBB62_6:                               # %func_exit
	.cfi_def_cfa %rbp, 16
	callq	detect_breach
	jmp	.LBB62_5
.Lfunc_end62:
	.size	FinalizeSubseqInfo.13, .Lfunc_end62-FinalizeSubseqInfo.13
	.cfi_endproc
                                        # -- End function
	.globl	FinalizeUser_data_unregistered.14 # -- Begin function FinalizeUser_data_unregistered.14
	.p2align	4, 0x90
	.type	FinalizeUser_data_unregistered.14,@function
FinalizeUser_data_unregistered.14:      # @FinalizeUser_data_unregistered.14
	.cfi_startproc
# %bb.0:                                # %entry
	pushq	%rbp
	.cfi_def_cfa_offset 16
	.cfi_offset %rbp, -16
	movq	%rsp, %rbp
	.cfi_def_cfa_register %rbp
	subq	$64, %rsp
	movl	$1411658808, -16(%rbp)  # imm = 0x54243438
	movq	seiUser_data_unregistered+16, %rax
	movq	%rax, -8(%rbp)
	movl	$0, -64(%rbp)
	movabsq	$ue_linfo, %rax
	movq	%rax, -32(%rbp)
	movl	$0, -12(%rbp)
.LBB63_1:                               # %for.cond
                                        # =>This Inner Loop Header: Depth=1
	movl	-12(%rbp), %eax
	cmpl	seiUser_data_unregistered+8, %eax
	jge	.LBB63_4
# %bb.2:                                # %for.body
                                        #   in Loop: Header=BB63_1 Depth=1
	movq	seiUser_data_unregistered, %rax
	movslq	-12(%rbp), %rcx
	movsbl	(%rax,%rcx), %eax
	movl	%eax, -44(%rbp)
	movl	$8, -52(%rbp)
	movq	-8(%rbp), %rsi
	leaq	-64(%rbp), %rdi
	callq	writeSyntaxElement2Buf_Fixed
# %bb.3:                                # %for.inc
                                        #   in Loop: Header=BB63_1 Depth=1
	movl	-12(%rbp), %eax
	addl	$1, %eax
	movl	%eax, -12(%rbp)
	jmp	.LBB63_1
.LBB63_4:                               # %for.end
	movq	-8(%rbp), %rax
	cmpl	$8, 4(%rax)
	je	.LBB63_8
# %bb.5:                                # %if.then
	movq	-8(%rbp), %rax
	movzbl	8(%rax), %ecx
	shll	$1, %ecx
	movb	%cl, 8(%rax)
	movq	-8(%rbp), %rax
	movzbl	8(%rax), %ecx
	orl	$1, %ecx
	movb	%cl, 8(%rax)
	movq	-8(%rbp), %rax
	movl	4(%rax), %ecx
	addl	$-1, %ecx
	movl	%ecx, 4(%rax)
	movq	-8(%rbp), %rax
	cmpl	$0, 4(%rax)
	je	.LBB63_7
# %bb.6:                                # %if.then12
	movq	-8(%rbp), %rax
	movl	4(%rax), %ecx
	movq	-8(%rbp), %rax
	movzbl	8(%rax), %edx
                                        # kill: def $cl killed $ecx
	shll	%cl, %edx
	movb	%dl, 8(%rax)
.LBB63_7:                               # %if.end
	movq	-8(%rbp), %rax
	movl	$8, 4(%rax)
	movq	-8(%rbp), %rax
	movb	8(%rax), %al
	movq	-8(%rbp), %rcx
	movq	32(%rcx), %rcx
	movq	-8(%rbp), %rdx
	movl	(%rdx), %esi
	movl	%esi, %edi
	addl	$1, %edi
	movl	%edi, (%rdx)
	movslq	%esi, %rdx
	movb	%al, (%rcx,%rdx)
	movq	-8(%rbp), %rax
	movb	$0, 8(%rax)
.LBB63_8:                               # %if.end24
	movq	-8(%rbp), %rax
	movl	(%rax), %eax
	movl	%eax, seiUser_data_unregistered+24
	cmpl	$1411658808, -16(%rbp)  # imm = 0x54243438
	jne	.LBB63_10
.LBB63_9:
	addq	$64, %rsp
	popq	%rbp
	.cfi_def_cfa %rsp, 8
	retq
.LBB63_10:                              # %func_exit
	.cfi_def_cfa %rbp, 16
	callq	detect_breach
	jmp	.LBB63_9
.Lfunc_end63:
	.size	FinalizeUser_data_unregistered.14, .Lfunc_end63-FinalizeUser_data_unregistered.14
	.cfi_endproc
                                        # -- End function
	.globl	AppendTmpbits2Buf.15    # -- Begin function AppendTmpbits2Buf.15
	.p2align	4, 0x90
	.type	AppendTmpbits2Buf.15,@function
AppendTmpbits2Buf.15:                   # @AppendTmpbits2Buf.15
	.cfi_startproc
# %bb.0:                                # %entry
	pushq	%rbp
	.cfi_def_cfa_offset 16
	.cfi_offset %rbp, -16
	movq	%rsp, %rbp
	.cfi_def_cfa_register %rbp
	subq	$48, %rsp
	movl	$755948513, -44(%rbp)   # imm = 0x2D0EDBE1
	movq	%rdi, -16(%rbp)
	movq	%rsi, -40(%rbp)
	movl	$0, -24(%rbp)
.LBB64_1:                               # %for.cond
                                        # =>This Loop Header: Depth=1
                                        #     Child Loop BB64_3 Depth 2
	movl	-24(%rbp), %eax
	movq	-40(%rbp), %rcx
	cmpl	(%rcx), %eax
	jge	.LBB64_12
# %bb.2:                                # %for.body
                                        #   in Loop: Header=BB64_1 Depth=1
	movb	$-128, -1(%rbp)
	movl	$0, -20(%rbp)
.LBB64_3:                               # %for.cond1
                                        #   Parent Loop BB64_1 Depth=1
                                        # =>  This Inner Loop Header: Depth=2
	cmpl	$8, -20(%rbp)
	jge	.LBB64_10
# %bb.4:                                # %for.body3
                                        #   in Loop: Header=BB64_3 Depth=2
	movq	-16(%rbp), %rax
	movzbl	8(%rax), %ecx
	shll	$1, %ecx
	movb	%cl, 8(%rax)
	movq	-40(%rbp), %rax
	movq	32(%rax), %rax
	movslq	-24(%rbp), %rcx
	movzbl	(%rax,%rcx), %eax
	movzbl	-1(%rbp), %ecx
	andl	%ecx, %eax
	cmpl	$0, %eax
	je	.LBB64_6
# %bb.5:                                # %if.then
                                        #   in Loop: Header=BB64_3 Depth=2
	movq	-16(%rbp), %rax
	movzbl	8(%rax), %ecx
	orl	$1, %ecx
	movb	%cl, 8(%rax)
.LBB64_6:                               # %if.end
                                        #   in Loop: Header=BB64_3 Depth=2
	movq	-16(%rbp), %rax
	movl	4(%rax), %ecx
	addl	$-1, %ecx
	movl	%ecx, 4(%rax)
	movzbl	-1(%rbp), %eax
	sarl	$1, %eax
	movb	%al, -1(%rbp)
	movq	-16(%rbp), %rax
	cmpl	$0, 4(%rax)
	jne	.LBB64_8
# %bb.7:                                # %if.then15
                                        #   in Loop: Header=BB64_3 Depth=2
	movq	-16(%rbp), %rax
	movl	$8, 4(%rax)
	movq	-16(%rbp), %rax
	movb	8(%rax), %al
	movq	-16(%rbp), %rcx
	movq	32(%rcx), %rcx
	movq	-16(%rbp), %rdx
	movl	(%rdx), %esi
	movl	%esi, %edi
	addl	$1, %edi
	movl	%edi, (%rdx)
	movslq	%esi, %rdx
	movb	%al, (%rcx,%rdx)
	movq	-16(%rbp), %rax
	movb	$0, 8(%rax)
.LBB64_8:                               # %if.end23
                                        #   in Loop: Header=BB64_3 Depth=2
	jmp	.LBB64_9
.LBB64_9:                               # %for.inc
                                        #   in Loop: Header=BB64_3 Depth=2
	movl	-20(%rbp), %eax
	addl	$1, %eax
	movl	%eax, -20(%rbp)
	jmp	.LBB64_3
.LBB64_10:                              # %for.end
                                        #   in Loop: Header=BB64_1 Depth=1
	jmp	.LBB64_11
.LBB64_11:                              # %for.inc25
                                        #   in Loop: Header=BB64_1 Depth=1
	movl	-24(%rbp), %eax
	addl	$1, %eax
	movl	%eax, -24(%rbp)
	jmp	.LBB64_1
.LBB64_12:                              # %for.end27
	movq	-40(%rbp), %rax
	movl	$8, %ecx
	subl	4(%rax), %ecx
	movl	%ecx, -28(%rbp)
	cmpl	$0, -28(%rbp)
	jle	.LBB64_22
# %bb.13:                               # %if.then31
	movl	-28(%rbp), %ecx
	subl	$1, %ecx
                                        # kill: def $cl killed $ecx
	movl	$1, %eax
	shll	%cl, %eax
	movb	%al, -1(%rbp)
	movl	$0, -20(%rbp)
.LBB64_14:                              # %for.cond35
                                        # =>This Inner Loop Header: Depth=1
	movl	-20(%rbp), %eax
	cmpl	-28(%rbp), %eax
	jge	.LBB64_21
# %bb.15:                               # %for.body38
                                        #   in Loop: Header=BB64_14 Depth=1
	movq	-16(%rbp), %rax
	movzbl	8(%rax), %ecx
	shll	$1, %ecx
	movb	%cl, 8(%rax)
	movq	-40(%rbp), %rax
	movzbl	8(%rax), %eax
	movzbl	-1(%rbp), %ecx
	andl	%ecx, %eax
	cmpl	$0, %eax
	je	.LBB64_17
# %bb.16:                               # %if.then48
                                        #   in Loop: Header=BB64_14 Depth=1
	movq	-16(%rbp), %rax
	movzbl	8(%rax), %ecx
	orl	$1, %ecx
	movb	%cl, 8(%rax)
.LBB64_17:                              # %if.end53
                                        #   in Loop: Header=BB64_14 Depth=1
	movq	-16(%rbp), %rax
	movl	4(%rax), %ecx
	addl	$-1, %ecx
	movl	%ecx, 4(%rax)
	movzbl	-1(%rbp), %eax
	sarl	$1, %eax
	movb	%al, -1(%rbp)
	movq	-16(%rbp), %rax
	cmpl	$0, 4(%rax)
	jne	.LBB64_19
# %bb.18:                               # %if.then62
                                        #   in Loop: Header=BB64_14 Depth=1
	movq	-16(%rbp), %rax
	movl	$8, 4(%rax)
	movq	-16(%rbp), %rax
	movb	8(%rax), %al
	movq	-16(%rbp), %rcx
	movq	32(%rcx), %rcx
	movq	-16(%rbp), %rdx
	movl	(%rdx), %esi
	movl	%esi, %edi
	addl	$1, %edi
	movl	%edi, (%rdx)
	movslq	%esi, %rdx
	movb	%al, (%rcx,%rdx)
	movq	-16(%rbp), %rax
	movb	$0, 8(%rax)
.LBB64_19:                              # %if.end71
                                        #   in Loop: Header=BB64_14 Depth=1
	jmp	.LBB64_20
.LBB64_20:                              # %for.inc72
                                        #   in Loop: Header=BB64_14 Depth=1
	movl	-20(%rbp), %eax
	addl	$1, %eax
	movl	%eax, -20(%rbp)
	jmp	.LBB64_14
.LBB64_21:                              # %for.end74
	jmp	.LBB64_22
.LBB64_22:                              # %if.end75
	cmpl	$755948513, -44(%rbp)   # imm = 0x2D0EDBE1
	jne	.LBB64_24
.LBB64_23:
	addq	$48, %rsp
	popq	%rbp
	.cfi_def_cfa %rsp, 8
	retq
.LBB64_24:                              # %func_exit
	.cfi_def_cfa %rbp, 16
	callq	detect_breach
	jmp	.LBB64_23
.Lfunc_end64:
	.size	AppendTmpbits2Buf.15, .Lfunc_end64-AppendTmpbits2Buf.15
	.cfi_endproc
                                        # -- End function
	.globl	FinalizeSceneInformation.16 # -- Begin function FinalizeSceneInformation.16
	.p2align	4, 0x90
	.type	FinalizeSceneInformation.16,@function
FinalizeSceneInformation.16:            # @FinalizeSceneInformation.16
	.cfi_startproc
# %bb.0:                                # %entry
	pushq	%rbp
	.cfi_def_cfa_offset 16
	.cfi_offset %rbp, -16
	movq	%rsp, %rbp
	.cfi_def_cfa_register %rbp
	subq	$64, %rsp
	movl	$1365818877, -12(%rbp)  # imm = 0x5168BDFD
	movq	seiSceneInformation+16, %rax
	movq	%rax, -8(%rbp)
	movl	$0, -64(%rbp)
	movabsq	$ue_linfo, %rax
	movq	%rax, -32(%rbp)
	movl	seiSceneInformation, %eax
	movl	%eax, -44(%rbp)
	movl	$8, -52(%rbp)
	movq	-8(%rbp), %rsi
	leaq	-64(%rbp), %rdi
	callq	writeSyntaxElement2Buf_Fixed
	movl	seiSceneInformation+4, %eax
	movl	%eax, -60(%rbp)
	movq	-8(%rbp), %rsi
	leaq	-64(%rbp), %rdi
	callq	writeSyntaxElement2Buf_UVLC
	cmpl	$3, seiSceneInformation+4
	jle	.LBB65_2
# %bb.1:                                # %if.then
	movl	seiSceneInformation+8, %eax
	movl	%eax, -44(%rbp)
	movl	$8, -52(%rbp)
	movq	-8(%rbp), %rsi
	leaq	-64(%rbp), %rdi
	callq	writeSyntaxElement2Buf_Fixed
.LBB65_2:                               # %if.end
	movq	-8(%rbp), %rax
	cmpl	$8, 4(%rax)
	je	.LBB65_6
# %bb.3:                                # %if.then6
	movq	-8(%rbp), %rax
	movzbl	8(%rax), %ecx
	shll	$1, %ecx
	movb	%cl, 8(%rax)
	movq	-8(%rbp), %rax
	movzbl	8(%rax), %ecx
	orl	$1, %ecx
	movb	%cl, 8(%rax)
	movq	-8(%rbp), %rax
	movl	4(%rax), %ecx
	addl	$-1, %ecx
	movl	%ecx, 4(%rax)
	movq	-8(%rbp), %rax
	cmpl	$0, 4(%rax)
	je	.LBB65_5
# %bb.4:                                # %if.then15
	movq	-8(%rbp), %rax
	movl	4(%rax), %ecx
	movq	-8(%rbp), %rax
	movzbl	8(%rax), %edx
                                        # kill: def $cl killed $ecx
	shll	%cl, %edx
	movb	%dl, 8(%rax)
.LBB65_5:                               # %if.end21
	movq	-8(%rbp), %rax
	movl	$8, 4(%rax)
	movq	-8(%rbp), %rax
	movb	8(%rax), %al
	movq	-8(%rbp), %rcx
	movq	32(%rcx), %rcx
	movq	-8(%rbp), %rdx
	movl	(%rdx), %esi
	movl	%esi, %edi
	addl	$1, %edi
	movl	%edi, (%rdx)
	movslq	%esi, %rdx
	movb	%al, (%rcx,%rdx)
	movq	-8(%rbp), %rax
	movb	$0, 8(%rax)
.LBB65_6:                               # %if.end25
	movq	-8(%rbp), %rax
	movl	(%rax), %eax
	movl	%eax, seiSceneInformation+24
	cmpl	$1365818877, -12(%rbp)  # imm = 0x5168BDFD
	jne	.LBB65_8
.LBB65_7:
	addq	$64, %rsp
	popq	%rbp
	.cfi_def_cfa %rsp, 8
	retq
.LBB65_8:                               # %func_exit
	.cfi_def_cfa %rbp, 16
	callq	detect_breach
	jmp	.LBB65_7
.Lfunc_end65:
	.size	FinalizeSceneInformation.16, .Lfunc_end65-FinalizeSceneInformation.16
	.cfi_endproc
                                        # -- End function
	.globl	AppendTmpbits2Buf.17    # -- Begin function AppendTmpbits2Buf.17
	.p2align	4, 0x90
	.type	AppendTmpbits2Buf.17,@function
AppendTmpbits2Buf.17:                   # @AppendTmpbits2Buf.17
	.cfi_startproc
# %bb.0:                                # %entry
	pushq	%rbp
	.cfi_def_cfa_offset 16
	.cfi_offset %rbp, -16
	movq	%rsp, %rbp
	.cfi_def_cfa_register %rbp
	subq	$48, %rsp
	movl	$2018848494, -44(%rbp)  # imm = 0x78552EEE
	movq	%rdi, -16(%rbp)
	movq	%rsi, -40(%rbp)
	movl	$0, -24(%rbp)
.LBB66_1:                               # %for.cond
                                        # =>This Loop Header: Depth=1
                                        #     Child Loop BB66_3 Depth 2
	movl	-24(%rbp), %eax
	movq	-40(%rbp), %rcx
	cmpl	(%rcx), %eax
	jge	.LBB66_12
# %bb.2:                                # %for.body
                                        #   in Loop: Header=BB66_1 Depth=1
	movb	$-128, -1(%rbp)
	movl	$0, -20(%rbp)
.LBB66_3:                               # %for.cond1
                                        #   Parent Loop BB66_1 Depth=1
                                        # =>  This Inner Loop Header: Depth=2
	cmpl	$8, -20(%rbp)
	jge	.LBB66_10
# %bb.4:                                # %for.body3
                                        #   in Loop: Header=BB66_3 Depth=2
	movq	-16(%rbp), %rax
	movzbl	8(%rax), %ecx
	shll	$1, %ecx
	movb	%cl, 8(%rax)
	movq	-40(%rbp), %rax
	movq	32(%rax), %rax
	movslq	-24(%rbp), %rcx
	movzbl	(%rax,%rcx), %eax
	movzbl	-1(%rbp), %ecx
	andl	%ecx, %eax
	cmpl	$0, %eax
	je	.LBB66_6
# %bb.5:                                # %if.then
                                        #   in Loop: Header=BB66_3 Depth=2
	movq	-16(%rbp), %rax
	movzbl	8(%rax), %ecx
	orl	$1, %ecx
	movb	%cl, 8(%rax)
.LBB66_6:                               # %if.end
                                        #   in Loop: Header=BB66_3 Depth=2
	movq	-16(%rbp), %rax
	movl	4(%rax), %ecx
	addl	$-1, %ecx
	movl	%ecx, 4(%rax)
	movzbl	-1(%rbp), %eax
	sarl	$1, %eax
	movb	%al, -1(%rbp)
	movq	-16(%rbp), %rax
	cmpl	$0, 4(%rax)
	jne	.LBB66_8
# %bb.7:                                # %if.then15
                                        #   in Loop: Header=BB66_3 Depth=2
	movq	-16(%rbp), %rax
	movl	$8, 4(%rax)
	movq	-16(%rbp), %rax
	movb	8(%rax), %al
	movq	-16(%rbp), %rcx
	movq	32(%rcx), %rcx
	movq	-16(%rbp), %rdx
	movl	(%rdx), %esi
	movl	%esi, %edi
	addl	$1, %edi
	movl	%edi, (%rdx)
	movslq	%esi, %rdx
	movb	%al, (%rcx,%rdx)
	movq	-16(%rbp), %rax
	movb	$0, 8(%rax)
.LBB66_8:                               # %if.end23
                                        #   in Loop: Header=BB66_3 Depth=2
	jmp	.LBB66_9
.LBB66_9:                               # %for.inc
                                        #   in Loop: Header=BB66_3 Depth=2
	movl	-20(%rbp), %eax
	addl	$1, %eax
	movl	%eax, -20(%rbp)
	jmp	.LBB66_3
.LBB66_10:                              # %for.end
                                        #   in Loop: Header=BB66_1 Depth=1
	jmp	.LBB66_11
.LBB66_11:                              # %for.inc25
                                        #   in Loop: Header=BB66_1 Depth=1
	movl	-24(%rbp), %eax
	addl	$1, %eax
	movl	%eax, -24(%rbp)
	jmp	.LBB66_1
.LBB66_12:                              # %for.end27
	movq	-40(%rbp), %rax
	movl	$8, %ecx
	subl	4(%rax), %ecx
	movl	%ecx, -28(%rbp)
	cmpl	$0, -28(%rbp)
	jle	.LBB66_22
# %bb.13:                               # %if.then31
	movl	-28(%rbp), %ecx
	subl	$1, %ecx
                                        # kill: def $cl killed $ecx
	movl	$1, %eax
	shll	%cl, %eax
	movb	%al, -1(%rbp)
	movl	$0, -20(%rbp)
.LBB66_14:                              # %for.cond35
                                        # =>This Inner Loop Header: Depth=1
	movl	-20(%rbp), %eax
	cmpl	-28(%rbp), %eax
	jge	.LBB66_21
# %bb.15:                               # %for.body38
                                        #   in Loop: Header=BB66_14 Depth=1
	movq	-16(%rbp), %rax
	movzbl	8(%rax), %ecx
	shll	$1, %ecx
	movb	%cl, 8(%rax)
	movq	-40(%rbp), %rax
	movzbl	8(%rax), %eax
	movzbl	-1(%rbp), %ecx
	andl	%ecx, %eax
	cmpl	$0, %eax
	je	.LBB66_17
# %bb.16:                               # %if.then48
                                        #   in Loop: Header=BB66_14 Depth=1
	movq	-16(%rbp), %rax
	movzbl	8(%rax), %ecx
	orl	$1, %ecx
	movb	%cl, 8(%rax)
.LBB66_17:                              # %if.end53
                                        #   in Loop: Header=BB66_14 Depth=1
	movq	-16(%rbp), %rax
	movl	4(%rax), %ecx
	addl	$-1, %ecx
	movl	%ecx, 4(%rax)
	movzbl	-1(%rbp), %eax
	sarl	$1, %eax
	movb	%al, -1(%rbp)
	movq	-16(%rbp), %rax
	cmpl	$0, 4(%rax)
	jne	.LBB66_19
# %bb.18:                               # %if.then62
                                        #   in Loop: Header=BB66_14 Depth=1
	movq	-16(%rbp), %rax
	movl	$8, 4(%rax)
	movq	-16(%rbp), %rax
	movb	8(%rax), %al
	movq	-16(%rbp), %rcx
	movq	32(%rcx), %rcx
	movq	-16(%rbp), %rdx
	movl	(%rdx), %esi
	movl	%esi, %edi
	addl	$1, %edi
	movl	%edi, (%rdx)
	movslq	%esi, %rdx
	movb	%al, (%rcx,%rdx)
	movq	-16(%rbp), %rax
	movb	$0, 8(%rax)
.LBB66_19:                              # %if.end71
                                        #   in Loop: Header=BB66_14 Depth=1
	jmp	.LBB66_20
.LBB66_20:                              # %for.inc72
                                        #   in Loop: Header=BB66_14 Depth=1
	movl	-20(%rbp), %eax
	addl	$1, %eax
	movl	%eax, -20(%rbp)
	jmp	.LBB66_14
.LBB66_21:                              # %for.end74
	jmp	.LBB66_22
.LBB66_22:                              # %if.end75
	cmpl	$2018848494, -44(%rbp)  # imm = 0x78552EEE
	jne	.LBB66_24
.LBB66_23:
	addq	$48, %rsp
	popq	%rbp
	.cfi_def_cfa %rsp, 8
	retq
.LBB66_24:                              # %func_exit
	.cfi_def_cfa %rbp, 16
	callq	detect_breach
	jmp	.LBB66_23
.Lfunc_end66:
	.size	AppendTmpbits2Buf.17, .Lfunc_end66-AppendTmpbits2Buf.17
	.cfi_endproc
                                        # -- End function
	.globl	FinalizeSubseqLayerInfo.18 # -- Begin function FinalizeSubseqLayerInfo.18
	.p2align	4, 0x90
	.type	FinalizeSubseqLayerInfo.18,@function
FinalizeSubseqLayerInfo.18:             # @FinalizeSubseqLayerInfo.18
	.cfi_startproc
# %bb.0:                                # %entry
	pushq	%rbp
	.cfi_def_cfa_offset 16
	.cfi_offset %rbp, -16
	movq	%rsp, %rbp
	.cfi_def_cfa_register %rbp
	subq	$16, %rsp
	movl	$212262907, -12(%rbp)   # imm = 0xCA6DFFB
	movl	$0, -4(%rbp)
	movl	$0, seiSubseqLayerInfo+20
	movl	$0, -8(%rbp)
.LBB67_1:                               # %for.cond
                                        # =>This Inner Loop Header: Depth=1
	movl	-8(%rbp), %eax
	cmpl	seiSubseqLayerInfo+16, %eax
	jge	.LBB67_4
# %bb.2:                                # %for.body
                                        #   in Loop: Header=BB67_1 Depth=1
	movslq	-8(%rbp), %rax
	movw	seiSubseqLayerInfo(,%rax,2), %ax
	movslq	-4(%rbp), %rcx
	movw	%ax, seiSubseqLayerInfo+8(,%rcx)
	movl	-4(%rbp), %eax
	addl	$2, %eax
	movl	%eax, -4(%rbp)
	movslq	-8(%rbp), %rax
	movw	seiSubseqLayerInfo+4(,%rax,2), %ax
	movslq	-4(%rbp), %rcx
	movw	%ax, seiSubseqLayerInfo+8(,%rcx)
	movl	-4(%rbp), %eax
	addl	$2, %eax
	movl	%eax, -4(%rbp)
	movl	seiSubseqLayerInfo+20, %eax
	addl	$4, %eax
	movl	%eax, seiSubseqLayerInfo+20
# %bb.3:                                # %for.inc
                                        #   in Loop: Header=BB67_1 Depth=1
	movl	-8(%rbp), %eax
	addl	$1, %eax
	movl	%eax, -8(%rbp)
	jmp	.LBB67_1
.LBB67_4:                               # %for.end
	cmpl	$212262907, -12(%rbp)   # imm = 0xCA6DFFB
	jne	.LBB67_6
.LBB67_5:
	addq	$16, %rsp
	popq	%rbp
	.cfi_def_cfa %rsp, 8
	retq
.LBB67_6:                               # %func_exit
	.cfi_def_cfa %rbp, 16
	callq	detect_breach
	jmp	.LBB67_5
.Lfunc_end67:
	.size	FinalizeSubseqLayerInfo.18, .Lfunc_end67-FinalizeSubseqLayerInfo.18
	.cfi_endproc
                                        # -- End function
	.globl	FinalizePanScanRectInfo.19 # -- Begin function FinalizePanScanRectInfo.19
	.p2align	4, 0x90
	.type	FinalizePanScanRectInfo.19,@function
FinalizePanScanRectInfo.19:             # @FinalizePanScanRectInfo.19
	.cfi_startproc
# %bb.0:                                # %entry
	pushq	%rbp
	.cfi_def_cfa_offset 16
	.cfi_offset %rbp, -16
	movq	%rsp, %rbp
	.cfi_def_cfa_register %rbp
	subq	$64, %rsp
	movl	$484365134, -12(%rbp)   # imm = 0x1CDED34E
	movq	seiPanScanRectInfo+24, %rax
	movq	%rax, -8(%rbp)
	movl	$0, -64(%rbp)
	movabsq	$ue_linfo, %rax
	movq	%rax, -32(%rbp)
	movl	seiPanScanRectInfo, %eax
	movl	%eax, -60(%rbp)
	movq	-8(%rbp), %rsi
	leaq	-64(%rbp), %rdi
	callq	writeSyntaxElement2Buf_UVLC
	movl	seiPanScanRectInfo+4, %eax
	movl	%eax, -60(%rbp)
	movq	-8(%rbp), %rsi
	leaq	-64(%rbp), %rdi
	callq	writeSyntaxElement2Buf_UVLC
	movl	seiPanScanRectInfo+8, %eax
	movl	%eax, -60(%rbp)
	movq	-8(%rbp), %rsi
	leaq	-64(%rbp), %rdi
	callq	writeSyntaxElement2Buf_UVLC
	movl	seiPanScanRectInfo+12, %eax
	movl	%eax, -60(%rbp)
	movq	-8(%rbp), %rsi
	leaq	-64(%rbp), %rdi
	callq	writeSyntaxElement2Buf_UVLC
	movl	seiPanScanRectInfo+16, %eax
	movl	%eax, -60(%rbp)
	movq	-8(%rbp), %rsi
	leaq	-64(%rbp), %rdi
	callq	writeSyntaxElement2Buf_UVLC
	movq	-8(%rbp), %rax
	cmpl	$8, 4(%rax)
	je	.LBB68_4
# %bb.1:                                # %if.then
	movq	-8(%rbp), %rax
	movzbl	8(%rax), %ecx
	shll	$1, %ecx
	movb	%cl, 8(%rax)
	movq	-8(%rbp), %rax
	movzbl	8(%rax), %ecx
	orl	$1, %ecx
	movb	%cl, 8(%rax)
	movq	-8(%rbp), %rax
	movl	4(%rax), %ecx
	addl	$-1, %ecx
	movl	%ecx, 4(%rax)
	movq	-8(%rbp), %rax
	cmpl	$0, 4(%rax)
	je	.LBB68_3
# %bb.2:                                # %if.then17
	movq	-8(%rbp), %rax
	movl	4(%rax), %ecx
	movq	-8(%rbp), %rax
	movzbl	8(%rax), %edx
                                        # kill: def $cl killed $ecx
	shll	%cl, %edx
	movb	%dl, 8(%rax)
.LBB68_3:                               # %if.end
	movq	-8(%rbp), %rax
	movl	$8, 4(%rax)
	movq	-8(%rbp), %rax
	movb	8(%rax), %al
	movq	-8(%rbp), %rcx
	movq	32(%rcx), %rcx
	movq	-8(%rbp), %rdx
	movl	(%rdx), %esi
	movl	%esi, %edi
	addl	$1, %edi
	movl	%edi, (%rdx)
	movslq	%esi, %rdx
	movb	%al, (%rcx,%rdx)
	movq	-8(%rbp), %rax
	movb	$0, 8(%rax)
.LBB68_4:                               # %if.end26
	movq	-8(%rbp), %rax
	movl	(%rax), %eax
	movl	%eax, seiPanScanRectInfo+32
	cmpl	$484365134, -12(%rbp)   # imm = 0x1CDED34E
	jne	.LBB68_6
.LBB68_5:
	addq	$64, %rsp
	popq	%rbp
	.cfi_def_cfa %rsp, 8
	retq
.LBB68_6:                               # %func_exit
	.cfi_def_cfa %rbp, 16
	callq	detect_breach
	jmp	.LBB68_5
.Lfunc_end68:
	.size	FinalizePanScanRectInfo.19, .Lfunc_end68-FinalizePanScanRectInfo.19
	.cfi_endproc
                                        # -- End function
	.globl	FinalizeSceneInformation.20 # -- Begin function FinalizeSceneInformation.20
	.p2align	4, 0x90
	.type	FinalizeSceneInformation.20,@function
FinalizeSceneInformation.20:            # @FinalizeSceneInformation.20
	.cfi_startproc
# %bb.0:                                # %entry
	pushq	%rbp
	.cfi_def_cfa_offset 16
	.cfi_offset %rbp, -16
	movq	%rsp, %rbp
	.cfi_def_cfa_register %rbp
	subq	$64, %rsp
	movl	$669637849, -12(%rbp)   # imm = 0x27E9DCD9
	movq	seiSceneInformation+16, %rax
	movq	%rax, -8(%rbp)
	movl	$0, -64(%rbp)
	movabsq	$ue_linfo, %rax
	movq	%rax, -32(%rbp)
	movl	seiSceneInformation, %eax
	movl	%eax, -44(%rbp)
	movl	$8, -52(%rbp)
	movq	-8(%rbp), %rsi
	leaq	-64(%rbp), %rdi
	callq	writeSyntaxElement2Buf_Fixed
	movl	seiSceneInformation+4, %eax
	movl	%eax, -60(%rbp)
	movq	-8(%rbp), %rsi
	leaq	-64(%rbp), %rdi
	callq	writeSyntaxElement2Buf_UVLC
	cmpl	$3, seiSceneInformation+4
	jle	.LBB69_2
# %bb.1:                                # %if.then
	movl	seiSceneInformation+8, %eax
	movl	%eax, -44(%rbp)
	movl	$8, -52(%rbp)
	movq	-8(%rbp), %rsi
	leaq	-64(%rbp), %rdi
	callq	writeSyntaxElement2Buf_Fixed
.LBB69_2:                               # %if.end
	movq	-8(%rbp), %rax
	cmpl	$8, 4(%rax)
	je	.LBB69_6
# %bb.3:                                # %if.then6
	movq	-8(%rbp), %rax
	movzbl	8(%rax), %ecx
	shll	$1, %ecx
	movb	%cl, 8(%rax)
	movq	-8(%rbp), %rax
	movzbl	8(%rax), %ecx
	orl	$1, %ecx
	movb	%cl, 8(%rax)
	movq	-8(%rbp), %rax
	movl	4(%rax), %ecx
	addl	$-1, %ecx
	movl	%ecx, 4(%rax)
	movq	-8(%rbp), %rax
	cmpl	$0, 4(%rax)
	je	.LBB69_5
# %bb.4:                                # %if.then15
	movq	-8(%rbp), %rax
	movl	4(%rax), %ecx
	movq	-8(%rbp), %rax
	movzbl	8(%rax), %edx
                                        # kill: def $cl killed $ecx
	shll	%cl, %edx
	movb	%dl, 8(%rax)
.LBB69_5:                               # %if.end21
	movq	-8(%rbp), %rax
	movl	$8, 4(%rax)
	movq	-8(%rbp), %rax
	movb	8(%rax), %al
	movq	-8(%rbp), %rcx
	movq	32(%rcx), %rcx
	movq	-8(%rbp), %rdx
	movl	(%rdx), %esi
	movl	%esi, %edi
	addl	$1, %edi
	movl	%edi, (%rdx)
	movslq	%esi, %rdx
	movb	%al, (%rcx,%rdx)
	movq	-8(%rbp), %rax
	movb	$0, 8(%rax)
.LBB69_6:                               # %if.end25
	movq	-8(%rbp), %rax
	movl	(%rax), %eax
	movl	%eax, seiSceneInformation+24
	cmpl	$669637849, -12(%rbp)   # imm = 0x27E9DCD9
	jne	.LBB69_8
.LBB69_7:
	addq	$64, %rsp
	popq	%rbp
	.cfi_def_cfa %rsp, 8
	retq
.LBB69_8:                               # %func_exit
	.cfi_def_cfa %rbp, 16
	callq	detect_breach
	jmp	.LBB69_7
.Lfunc_end69:
	.size	FinalizeSceneInformation.20, .Lfunc_end69-FinalizeSceneInformation.20
	.cfi_endproc
                                        # -- End function
	.globl	CompressSpareMBMap.21   # -- Begin function CompressSpareMBMap.21
	.p2align	4, 0x90
	.type	CompressSpareMBMap.21,@function
CompressSpareMBMap.21:                  # @CompressSpareMBMap.21
	.cfi_startproc
# %bb.0:                                # %entry
	pushq	%rbp
	.cfi_def_cfa_offset 16
	.cfi_offset %rbp, -16
	movq	%rsp, %rbp
	.cfi_def_cfa_register %rbp
	pushq	%rbx
	subq	$152, %rsp
	.cfi_offset %rbx, -24
	movl	$527958436, -76(%rbp)   # imm = 0x1F7801A4
	movq	%rdi, -96(%rbp)
	movq	%rsi, -56(%rbp)
	movq	img, %rax
	movl	60(%rax), %eax
	cltd
	movl	$16, %esi
	idivl	%esi
	movl	%eax, %ecx
	movq	img, %rax
	movl	52(%rax), %eax
	cltd
	idivl	%esi
	imull	%eax, %ecx
	movl	%ecx, -84(%rbp)
	movl	$0, -64(%rbp)
	movl	$0, -152(%rbp)
	movabsq	$ue_linfo, %rax
	movq	%rax, -120(%rbp)
	movl	$0, -60(%rbp)
	movl	$0, -72(%rbp)
	movl	$1, -100(%rbp)
	movl	-72(%rbp), %eax
	movl	%eax, -80(%rbp)
	movq	img, %rax
	movl	52(%rax), %eax
	cltd
	idivl	%esi
	subl	$1, %eax
	cltd
	movl	$2, %ecx
	idivl	%ecx
	movl	%eax, -12(%rbp)
	movq	img, %rax
	movl	60(%rax), %eax
	cltd
	idivl	%esi
	subl	$1, %eax
	cltd
	idivl	%ecx
	movl	%eax, -16(%rbp)
	movl	-12(%rbp), %eax
	movl	%eax, -36(%rbp)
	movl	%eax, -40(%rbp)
	movl	-16(%rbp), %eax
	movl	%eax, -44(%rbp)
	movl	%eax, -48(%rbp)
	movl	$0, -20(%rbp)
	movl	$1, -24(%rbp)
	movl	$0, -32(%rbp)
.LBB70_1:                               # %for.cond
                                        # =>This Loop Header: Depth=1
                                        #     Child Loop BB70_3 Depth 2
	movl	-32(%rbp), %ecx
	movq	img, %rax
	movl	60(%rax), %eax
	cltd
	movl	$16, %esi
	idivl	%esi
	cmpl	%eax, %ecx
	jge	.LBB70_58
# %bb.2:                                # %for.body
                                        #   in Loop: Header=BB70_1 Depth=1
	movl	$0, -28(%rbp)
.LBB70_3:                               # %for.cond11
                                        #   Parent Loop BB70_1 Depth=1
                                        # =>  This Inner Loop Header: Depth=2
	movl	-28(%rbp), %ecx
	movq	img, %rax
	movl	52(%rax), %eax
	cltd
	movl	$16, %esi
	idivl	%esi
	cmpl	%eax, %ecx
	jge	.LBB70_56
# %bb.4:                                # %for.body15
                                        #   in Loop: Header=BB70_3 Depth=2
	movq	-96(%rbp), %rax
	movslq	-16(%rbp), %rcx
	movq	(%rax,%rcx,8), %rax
	movslq	-12(%rbp), %rcx
	movzbl	(%rax,%rcx), %eax
	cmpl	-80(%rbp), %eax
	jne	.LBB70_6
# %bb.5:                                # %if.then
                                        #   in Loop: Header=BB70_3 Depth=2
	movl	-60(%rbp), %eax
	addl	$1, %eax
	movl	%eax, -60(%rbp)
	jmp	.LBB70_7
.LBB70_6:                               # %if.else
                                        #   in Loop: Header=BB70_3 Depth=2
	movl	-60(%rbp), %eax
	movl	%eax, -148(%rbp)
	movq	-56(%rbp), %rsi
	leaq	-152(%rbp), %rdi
	callq	writeSyntaxElement2Buf_UVLC
	addl	-64(%rbp), %eax
	movl	%eax, -64(%rbp)
	movl	$0, -60(%rbp)
.LBB70_7:                               # %if.end
                                        #   in Loop: Header=BB70_3 Depth=2
	cmpl	$-1, -20(%rbp)
	jne	.LBB70_18
# %bb.8:                                # %land.lhs.true
                                        #   in Loop: Header=BB70_3 Depth=2
	cmpl	$0, -24(%rbp)
	jne	.LBB70_18
# %bb.9:                                # %if.then24
                                        #   in Loop: Header=BB70_3 Depth=2
	movl	-12(%rbp), %eax
	cmpl	-40(%rbp), %eax
	jle	.LBB70_11
# %bb.10:                               # %if.then27
                                        #   in Loop: Header=BB70_3 Depth=2
	movl	-12(%rbp), %eax
	addl	$-1, %eax
	movl	%eax, -12(%rbp)
	jmp	.LBB70_17
.LBB70_11:                              # %if.else28
                                        #   in Loop: Header=BB70_3 Depth=2
	cmpl	$0, -12(%rbp)
	jne	.LBB70_13
# %bb.12:                               # %if.then31
                                        #   in Loop: Header=BB70_3 Depth=2
	movl	-44(%rbp), %eax
	addl	$1, %eax
	movl	%eax, -16(%rbp)
	movl	-44(%rbp), %eax
	addl	$1, %eax
	movl	%eax, -44(%rbp)
	movl	$1, -20(%rbp)
	movl	$0, -24(%rbp)
	jmp	.LBB70_16
.LBB70_13:                              # %if.else34
                                        #   in Loop: Header=BB70_3 Depth=2
	movl	-12(%rbp), %eax
	cmpl	-40(%rbp), %eax
	jne	.LBB70_15
# %bb.14:                               # %if.then37
                                        #   in Loop: Header=BB70_3 Depth=2
	movl	-12(%rbp), %eax
	addl	$-1, %eax
	movl	%eax, -12(%rbp)
	movl	-40(%rbp), %eax
	addl	$-1, %eax
	movl	%eax, -40(%rbp)
	movl	$0, -20(%rbp)
	movl	$1, -24(%rbp)
.LBB70_15:                              # %if.end40
                                        #   in Loop: Header=BB70_3 Depth=2
	jmp	.LBB70_16
.LBB70_16:                              # %if.end41
                                        #   in Loop: Header=BB70_3 Depth=2
	jmp	.LBB70_17
.LBB70_17:                              # %if.end42
                                        #   in Loop: Header=BB70_3 Depth=2
	jmp	.LBB70_54
.LBB70_18:                              # %if.else43
                                        #   in Loop: Header=BB70_3 Depth=2
	cmpl	$1, -20(%rbp)
	jne	.LBB70_29
# %bb.19:                               # %land.lhs.true46
                                        #   in Loop: Header=BB70_3 Depth=2
	cmpl	$0, -24(%rbp)
	jne	.LBB70_29
# %bb.20:                               # %if.then49
                                        #   in Loop: Header=BB70_3 Depth=2
	movl	-12(%rbp), %eax
	cmpl	-36(%rbp), %eax
	jge	.LBB70_22
# %bb.21:                               # %if.then52
                                        #   in Loop: Header=BB70_3 Depth=2
	movl	-12(%rbp), %eax
	addl	$1, %eax
	movl	%eax, -12(%rbp)
	jmp	.LBB70_28
.LBB70_22:                              # %if.else54
                                        #   in Loop: Header=BB70_3 Depth=2
	movl	-12(%rbp), %ecx
	movq	img, %rax
	movl	52(%rax), %eax
	cltd
	movl	$16, %esi
	idivl	%esi
	subl	$1, %eax
	cmpl	%eax, %ecx
	jne	.LBB70_24
# %bb.23:                               # %if.then60
                                        #   in Loop: Header=BB70_3 Depth=2
	movl	-48(%rbp), %eax
	subl	$1, %eax
	movl	%eax, -16(%rbp)
	movl	-48(%rbp), %eax
	addl	$-1, %eax
	movl	%eax, -48(%rbp)
	movl	$-1, -20(%rbp)
	movl	$0, -24(%rbp)
	jmp	.LBB70_27
.LBB70_24:                              # %if.else63
                                        #   in Loop: Header=BB70_3 Depth=2
	movl	-12(%rbp), %eax
	cmpl	-36(%rbp), %eax
	jne	.LBB70_26
# %bb.25:                               # %if.then66
                                        #   in Loop: Header=BB70_3 Depth=2
	movl	-12(%rbp), %eax
	addl	$1, %eax
	movl	%eax, -12(%rbp)
	movl	-36(%rbp), %eax
	addl	$1, %eax
	movl	%eax, -36(%rbp)
	movl	$0, -20(%rbp)
	movl	$-1, -24(%rbp)
.LBB70_26:                              # %if.end69
                                        #   in Loop: Header=BB70_3 Depth=2
	jmp	.LBB70_27
.LBB70_27:                              # %if.end70
                                        #   in Loop: Header=BB70_3 Depth=2
	jmp	.LBB70_28
.LBB70_28:                              # %if.end71
                                        #   in Loop: Header=BB70_3 Depth=2
	jmp	.LBB70_53
.LBB70_29:                              # %if.else72
                                        #   in Loop: Header=BB70_3 Depth=2
	cmpl	$0, -20(%rbp)
	jne	.LBB70_40
# %bb.30:                               # %land.lhs.true75
                                        #   in Loop: Header=BB70_3 Depth=2
	cmpl	$-1, -24(%rbp)
	jne	.LBB70_40
# %bb.31:                               # %if.then78
                                        #   in Loop: Header=BB70_3 Depth=2
	movl	-16(%rbp), %eax
	cmpl	-48(%rbp), %eax
	jle	.LBB70_33
# %bb.32:                               # %if.then81
                                        #   in Loop: Header=BB70_3 Depth=2
	movl	-16(%rbp), %eax
	addl	$-1, %eax
	movl	%eax, -16(%rbp)
	jmp	.LBB70_39
.LBB70_33:                              # %if.else83
                                        #   in Loop: Header=BB70_3 Depth=2
	cmpl	$0, -16(%rbp)
	jne	.LBB70_35
# %bb.34:                               # %if.then86
                                        #   in Loop: Header=BB70_3 Depth=2
	movl	-40(%rbp), %eax
	subl	$1, %eax
	movl	%eax, -12(%rbp)
	movl	-40(%rbp), %eax
	addl	$-1, %eax
	movl	%eax, -40(%rbp)
	movl	$0, -20(%rbp)
	movl	$1, -24(%rbp)
	jmp	.LBB70_38
.LBB70_35:                              # %if.else89
                                        #   in Loop: Header=BB70_3 Depth=2
	movl	-16(%rbp), %eax
	cmpl	-48(%rbp), %eax
	jne	.LBB70_37
# %bb.36:                               # %if.then92
                                        #   in Loop: Header=BB70_3 Depth=2
	movl	-16(%rbp), %eax
	addl	$-1, %eax
	movl	%eax, -16(%rbp)
	movl	-48(%rbp), %eax
	addl	$-1, %eax
	movl	%eax, -48(%rbp)
	movl	$-1, -20(%rbp)
	movl	$0, -24(%rbp)
.LBB70_37:                              # %if.end95
                                        #   in Loop: Header=BB70_3 Depth=2
	jmp	.LBB70_38
.LBB70_38:                              # %if.end96
                                        #   in Loop: Header=BB70_3 Depth=2
	jmp	.LBB70_39
.LBB70_39:                              # %if.end97
                                        #   in Loop: Header=BB70_3 Depth=2
	jmp	.LBB70_52
.LBB70_40:                              # %if.else98
                                        #   in Loop: Header=BB70_3 Depth=2
	cmpl	$0, -20(%rbp)
	jne	.LBB70_51
# %bb.41:                               # %land.lhs.true101
                                        #   in Loop: Header=BB70_3 Depth=2
	cmpl	$1, -24(%rbp)
	jne	.LBB70_51
# %bb.42:                               # %if.then104
                                        #   in Loop: Header=BB70_3 Depth=2
	movl	-16(%rbp), %eax
	cmpl	-44(%rbp), %eax
	jge	.LBB70_44
# %bb.43:                               # %if.then107
                                        #   in Loop: Header=BB70_3 Depth=2
	movl	-16(%rbp), %eax
	addl	$1, %eax
	movl	%eax, -16(%rbp)
	jmp	.LBB70_50
.LBB70_44:                              # %if.else109
                                        #   in Loop: Header=BB70_3 Depth=2
	movl	-16(%rbp), %ecx
	movq	img, %rax
	movl	60(%rax), %eax
	cltd
	movl	$16, %esi
	idivl	%esi
	subl	$1, %eax
	cmpl	%eax, %ecx
	jne	.LBB70_46
# %bb.45:                               # %if.then115
                                        #   in Loop: Header=BB70_3 Depth=2
	movl	-36(%rbp), %eax
	addl	$1, %eax
	movl	%eax, -12(%rbp)
	movl	-36(%rbp), %eax
	addl	$1, %eax
	movl	%eax, -36(%rbp)
	movl	$0, -20(%rbp)
	movl	$-1, -24(%rbp)
	jmp	.LBB70_49
.LBB70_46:                              # %if.else118
                                        #   in Loop: Header=BB70_3 Depth=2
	movl	-16(%rbp), %eax
	cmpl	-44(%rbp), %eax
	jne	.LBB70_48
# %bb.47:                               # %if.then121
                                        #   in Loop: Header=BB70_3 Depth=2
	movl	-16(%rbp), %eax
	addl	$1, %eax
	movl	%eax, -16(%rbp)
	movl	-44(%rbp), %eax
	addl	$1, %eax
	movl	%eax, -44(%rbp)
	movl	$1, -20(%rbp)
	movl	$0, -24(%rbp)
.LBB70_48:                              # %if.end124
                                        #   in Loop: Header=BB70_3 Depth=2
	jmp	.LBB70_49
.LBB70_49:                              # %if.end125
                                        #   in Loop: Header=BB70_3 Depth=2
	jmp	.LBB70_50
.LBB70_50:                              # %if.end126
                                        #   in Loop: Header=BB70_3 Depth=2
	jmp	.LBB70_51
.LBB70_51:                              # %if.end127
                                        #   in Loop: Header=BB70_3 Depth=2
	jmp	.LBB70_52
.LBB70_52:                              # %if.end128
                                        #   in Loop: Header=BB70_3 Depth=2
	jmp	.LBB70_53
.LBB70_53:                              # %if.end129
                                        #   in Loop: Header=BB70_3 Depth=2
	jmp	.LBB70_54
.LBB70_54:                              # %if.end130
                                        #   in Loop: Header=BB70_3 Depth=2
	jmp	.LBB70_55
.LBB70_55:                              # %for.inc
                                        #   in Loop: Header=BB70_3 Depth=2
	movl	-28(%rbp), %eax
	addl	$1, %eax
	movl	%eax, -28(%rbp)
	jmp	.LBB70_3
.LBB70_56:                              # %for.end
                                        #   in Loop: Header=BB70_1 Depth=1
	jmp	.LBB70_57
.LBB70_57:                              # %for.inc132
                                        #   in Loop: Header=BB70_1 Depth=1
	movl	-32(%rbp), %eax
	addl	$1, %eax
	movl	%eax, -32(%rbp)
	jmp	.LBB70_1
.LBB70_58:                              # %for.end134
	cmpl	$0, -60(%rbp)
	je	.LBB70_60
# %bb.59:                               # %if.then137
	movl	-60(%rbp), %eax
	movl	%eax, -148(%rbp)
	movq	-56(%rbp), %rsi
	leaq	-152(%rbp), %rdi
	callq	writeSyntaxElement2Buf_UVLC
	addl	-64(%rbp), %eax
	movl	%eax, -64(%rbp)
.LBB70_60:                              # %if.end141
	xorl	%eax, %eax
	movl	-64(%rbp), %ecx
	movl	-84(%rbp), %edx
	cmpl	%edx, %ecx
	movl	$1, %ecx
	cmovll	%ecx, %eax
	movl	%eax, -68(%rbp)
	cmpl	$0, -68(%rbp)
	jne	.LBB70_74
# %bb.61:                               # %if.then144
	movq	-56(%rbp), %rax
	movb	$0, 8(%rax)
	movq	-56(%rbp), %rax
	movl	$8, 4(%rax)
	movq	-56(%rbp), %rax
	movl	$0, (%rax)
	movl	$0, -32(%rbp)
.LBB70_62:                              # %for.cond145
                                        # =>This Loop Header: Depth=1
                                        #     Child Loop BB70_64 Depth 2
	movl	-32(%rbp), %ecx
	movq	img, %rax
	movl	60(%rax), %eax
	cltd
	movl	$16, %esi
	idivl	%esi
	cmpl	%eax, %ecx
	jge	.LBB70_73
# %bb.63:                               # %for.body150
                                        #   in Loop: Header=BB70_62 Depth=1
	movl	$0, -28(%rbp)
.LBB70_64:                              # %for.cond151
                                        #   Parent Loop BB70_62 Depth=1
                                        # =>  This Inner Loop Header: Depth=2
	movl	-28(%rbp), %ecx
	movq	img, %rax
	movl	52(%rax), %eax
	cltd
	movl	$16, %esi
	idivl	%esi
	cmpl	%eax, %ecx
	jge	.LBB70_71
# %bb.65:                               # %for.body156
                                        #   in Loop: Header=BB70_64 Depth=2
	movq	-56(%rbp), %rax
	movzbl	8(%rax), %ecx
	shll	$1, %ecx
	movb	%cl, 8(%rax)
	movq	-96(%rbp), %rax
	movslq	-32(%rbp), %rcx
	movq	(%rax,%rcx,8), %rax
	movslq	-28(%rbp), %rcx
	cmpb	$0, (%rax,%rcx)
	je	.LBB70_67
# %bb.66:                               # %if.then165
                                        #   in Loop: Header=BB70_64 Depth=2
	movq	-56(%rbp), %rax
	movzbl	8(%rax), %ecx
	orl	$1, %ecx
	movb	%cl, 8(%rax)
.LBB70_67:                              # %if.end169
                                        #   in Loop: Header=BB70_64 Depth=2
	movq	-56(%rbp), %rax
	movl	4(%rax), %ecx
	addl	$-1, %ecx
	movl	%ecx, 4(%rax)
	movq	-56(%rbp), %rax
	cmpl	$0, 4(%rax)
	jne	.LBB70_69
# %bb.68:                               # %if.then175
                                        #   in Loop: Header=BB70_64 Depth=2
	movq	-56(%rbp), %rax
	movl	$8, 4(%rax)
	movq	-56(%rbp), %rax
	movb	8(%rax), %al
	movq	-56(%rbp), %rcx
	movq	32(%rcx), %rcx
	movq	-56(%rbp), %rdx
	movl	(%rdx), %esi
	movl	%esi, %edi
	addl	$1, %edi
	movl	%edi, (%rdx)
	movslq	%esi, %rdx
	movb	%al, (%rcx,%rdx)
	movq	-56(%rbp), %rax
	movb	$0, 8(%rax)
.LBB70_69:                              # %if.end183
                                        #   in Loop: Header=BB70_64 Depth=2
	jmp	.LBB70_70
.LBB70_70:                              # %for.inc184
                                        #   in Loop: Header=BB70_64 Depth=2
	movl	-28(%rbp), %eax
	addl	$1, %eax
	movl	%eax, -28(%rbp)
	jmp	.LBB70_64
.LBB70_71:                              # %for.end186
                                        #   in Loop: Header=BB70_62 Depth=1
	jmp	.LBB70_72
.LBB70_72:                              # %for.inc187
                                        #   in Loop: Header=BB70_62 Depth=1
	movl	-32(%rbp), %eax
	addl	$1, %eax
	movl	%eax, -32(%rbp)
	jmp	.LBB70_62
.LBB70_73:                              # %for.end189
	jmp	.LBB70_74
.LBB70_74:                              # %if.end190
	movl	-68(%rbp), %ebx
	cmpl	$527958436, -76(%rbp)   # imm = 0x1F7801A4
	jne	.LBB70_76
.LBB70_75:
	movl	%ebx, %eax
	addq	$152, %rsp
	popq	%rbx
	popq	%rbp
	.cfi_def_cfa %rsp, 8
	retq
.LBB70_76:                              # %func_exit
	.cfi_def_cfa %rbp, 16
	callq	detect_breach
	jmp	.LBB70_75
.Lfunc_end70:
	.size	CompressSpareMBMap.21, .Lfunc_end70-CompressSpareMBMap.21
	.cfi_endproc
                                        # -- End function
	.globl	FinalizeRandomAccess.22 # -- Begin function FinalizeRandomAccess.22
	.p2align	4, 0x90
	.type	FinalizeRandomAccess.22,@function
FinalizeRandomAccess.22:                # @FinalizeRandomAccess.22
	.cfi_startproc
# %bb.0:                                # %entry
	pushq	%rbp
	.cfi_def_cfa_offset 16
	.cfi_offset %rbp, -16
	movq	%rsp, %rbp
	.cfi_def_cfa_register %rbp
	subq	$64, %rsp
	movl	$313453842, -12(%rbp)   # imm = 0x12AEED12
	movq	seiRandomAccess+8, %rax
	movq	%rax, -8(%rbp)
	movl	$0, -64(%rbp)
	movabsq	$ue_linfo, %rax
	movq	%rax, -32(%rbp)
	movzbl	seiRandomAccess, %eax
	movl	%eax, -60(%rbp)
	movq	-8(%rbp), %rsi
	leaq	-64(%rbp), %rdi
	callq	writeSyntaxElement2Buf_UVLC
	movzbl	seiRandomAccess+1, %eax
	movl	%eax, -44(%rbp)
	movl	$1, -52(%rbp)
	movq	-8(%rbp), %rsi
	leaq	-64(%rbp), %rdi
	callq	writeSyntaxElement2Buf_Fixed
	movzbl	seiRandomAccess+2, %eax
	movl	%eax, -44(%rbp)
	movl	$1, -52(%rbp)
	movq	-8(%rbp), %rsi
	leaq	-64(%rbp), %rdi
	callq	writeSyntaxElement2Buf_Fixed
	movq	-8(%rbp), %rax
	cmpl	$8, 4(%rax)
	je	.LBB71_4
# %bb.1:                                # %if.then
	movq	-8(%rbp), %rax
	movzbl	8(%rax), %ecx
	shll	$1, %ecx
	movb	%cl, 8(%rax)
	movq	-8(%rbp), %rax
	movzbl	8(%rax), %ecx
	orl	$1, %ecx
	movb	%cl, 8(%rax)
	movq	-8(%rbp), %rax
	movl	4(%rax), %ecx
	addl	$-1, %ecx
	movl	%ecx, 4(%rax)
	movq	-8(%rbp), %rax
	cmpl	$0, 4(%rax)
	je	.LBB71_3
# %bb.2:                                # %if.then17
	movq	-8(%rbp), %rax
	movl	4(%rax), %ecx
	movq	-8(%rbp), %rax
	movzbl	8(%rax), %edx
                                        # kill: def $cl killed $ecx
	shll	%cl, %edx
	movb	%dl, 8(%rax)
.LBB71_3:                               # %if.end
	movq	-8(%rbp), %rax
	movl	$8, 4(%rax)
	movq	-8(%rbp), %rax
	movb	8(%rax), %al
	movq	-8(%rbp), %rcx
	movq	32(%rcx), %rcx
	movq	-8(%rbp), %rdx
	movl	(%rdx), %esi
	movl	%esi, %edi
	addl	$1, %edi
	movl	%edi, (%rdx)
	movslq	%esi, %rdx
	movb	%al, (%rcx,%rdx)
	movq	-8(%rbp), %rax
	movb	$0, 8(%rax)
.LBB71_4:                               # %if.end26
	movq	-8(%rbp), %rax
	movl	(%rax), %eax
	movl	%eax, seiRandomAccess+16
	cmpl	$313453842, -12(%rbp)   # imm = 0x12AEED12
	jne	.LBB71_6
.LBB71_5:
	addq	$64, %rsp
	popq	%rbp
	.cfi_def_cfa %rsp, 8
	retq
.LBB71_6:                               # %func_exit
	.cfi_def_cfa %rbp, 16
	callq	detect_breach
	jmp	.LBB71_5
.Lfunc_end71:
	.size	FinalizeRandomAccess.22, .Lfunc_end71-FinalizeRandomAccess.22
	.cfi_endproc
                                        # -- End function
	.globl	CompressSpareMBMap.23   # -- Begin function CompressSpareMBMap.23
	.p2align	4, 0x90
	.type	CompressSpareMBMap.23,@function
CompressSpareMBMap.23:                  # @CompressSpareMBMap.23
	.cfi_startproc
# %bb.0:                                # %entry
	pushq	%rbp
	.cfi_def_cfa_offset 16
	.cfi_offset %rbp, -16
	movq	%rsp, %rbp
	.cfi_def_cfa_register %rbp
	pushq	%rbx
	subq	$152, %rsp
	.cfi_offset %rbx, -24
	movl	$1296196273, -80(%rbp)  # imm = 0x4D4262B1
	movq	%rdi, -96(%rbp)
	movq	%rsi, -56(%rbp)
	movq	img, %rax
	movl	60(%rax), %eax
	cltd
	movl	$16, %esi
	idivl	%esi
	movl	%eax, %ecx
	movq	img, %rax
	movl	52(%rax), %eax
	cltd
	idivl	%esi
	imull	%eax, %ecx
	movl	%ecx, -72(%rbp)
	movl	$0, -64(%rbp)
	movl	$0, -152(%rbp)
	movabsq	$ue_linfo, %rax
	movq	%rax, -120(%rbp)
	movl	$0, -60(%rbp)
	movl	$0, -84(%rbp)
	movl	$1, -100(%rbp)
	movl	-84(%rbp), %eax
	movl	%eax, -76(%rbp)
	movq	img, %rax
	movl	52(%rax), %eax
	cltd
	idivl	%esi
	subl	$1, %eax
	cltd
	movl	$2, %ecx
	idivl	%ecx
	movl	%eax, -12(%rbp)
	movq	img, %rax
	movl	60(%rax), %eax
	cltd
	idivl	%esi
	subl	$1, %eax
	cltd
	idivl	%ecx
	movl	%eax, -16(%rbp)
	movl	-12(%rbp), %eax
	movl	%eax, -44(%rbp)
	movl	%eax, -40(%rbp)
	movl	-16(%rbp), %eax
	movl	%eax, -48(%rbp)
	movl	%eax, -36(%rbp)
	movl	$0, -20(%rbp)
	movl	$1, -24(%rbp)
	movl	$0, -32(%rbp)
.LBB72_1:                               # %for.cond
                                        # =>This Loop Header: Depth=1
                                        #     Child Loop BB72_3 Depth 2
	movl	-32(%rbp), %ecx
	movq	img, %rax
	movl	60(%rax), %eax
	cltd
	movl	$16, %esi
	idivl	%esi
	cmpl	%eax, %ecx
	jge	.LBB72_58
# %bb.2:                                # %for.body
                                        #   in Loop: Header=BB72_1 Depth=1
	movl	$0, -28(%rbp)
.LBB72_3:                               # %for.cond11
                                        #   Parent Loop BB72_1 Depth=1
                                        # =>  This Inner Loop Header: Depth=2
	movl	-28(%rbp), %ecx
	movq	img, %rax
	movl	52(%rax), %eax
	cltd
	movl	$16, %esi
	idivl	%esi
	cmpl	%eax, %ecx
	jge	.LBB72_56
# %bb.4:                                # %for.body15
                                        #   in Loop: Header=BB72_3 Depth=2
	movq	-96(%rbp), %rax
	movslq	-16(%rbp), %rcx
	movq	(%rax,%rcx,8), %rax
	movslq	-12(%rbp), %rcx
	movzbl	(%rax,%rcx), %eax
	cmpl	-76(%rbp), %eax
	jne	.LBB72_6
# %bb.5:                                # %if.then
                                        #   in Loop: Header=BB72_3 Depth=2
	movl	-60(%rbp), %eax
	addl	$1, %eax
	movl	%eax, -60(%rbp)
	jmp	.LBB72_7
.LBB72_6:                               # %if.else
                                        #   in Loop: Header=BB72_3 Depth=2
	movl	-60(%rbp), %eax
	movl	%eax, -148(%rbp)
	movq	-56(%rbp), %rsi
	leaq	-152(%rbp), %rdi
	callq	writeSyntaxElement2Buf_UVLC
	addl	-64(%rbp), %eax
	movl	%eax, -64(%rbp)
	movl	$0, -60(%rbp)
.LBB72_7:                               # %if.end
                                        #   in Loop: Header=BB72_3 Depth=2
	cmpl	$-1, -20(%rbp)
	jne	.LBB72_18
# %bb.8:                                # %land.lhs.true
                                        #   in Loop: Header=BB72_3 Depth=2
	cmpl	$0, -24(%rbp)
	jne	.LBB72_18
# %bb.9:                                # %if.then24
                                        #   in Loop: Header=BB72_3 Depth=2
	movl	-12(%rbp), %eax
	cmpl	-40(%rbp), %eax
	jle	.LBB72_11
# %bb.10:                               # %if.then27
                                        #   in Loop: Header=BB72_3 Depth=2
	movl	-12(%rbp), %eax
	addl	$-1, %eax
	movl	%eax, -12(%rbp)
	jmp	.LBB72_17
.LBB72_11:                              # %if.else28
                                        #   in Loop: Header=BB72_3 Depth=2
	cmpl	$0, -12(%rbp)
	jne	.LBB72_13
# %bb.12:                               # %if.then31
                                        #   in Loop: Header=BB72_3 Depth=2
	movl	-48(%rbp), %eax
	addl	$1, %eax
	movl	%eax, -16(%rbp)
	movl	-48(%rbp), %eax
	addl	$1, %eax
	movl	%eax, -48(%rbp)
	movl	$1, -20(%rbp)
	movl	$0, -24(%rbp)
	jmp	.LBB72_16
.LBB72_13:                              # %if.else34
                                        #   in Loop: Header=BB72_3 Depth=2
	movl	-12(%rbp), %eax
	cmpl	-40(%rbp), %eax
	jne	.LBB72_15
# %bb.14:                               # %if.then37
                                        #   in Loop: Header=BB72_3 Depth=2
	movl	-12(%rbp), %eax
	addl	$-1, %eax
	movl	%eax, -12(%rbp)
	movl	-40(%rbp), %eax
	addl	$-1, %eax
	movl	%eax, -40(%rbp)
	movl	$0, -20(%rbp)
	movl	$1, -24(%rbp)
.LBB72_15:                              # %if.end40
                                        #   in Loop: Header=BB72_3 Depth=2
	jmp	.LBB72_16
.LBB72_16:                              # %if.end41
                                        #   in Loop: Header=BB72_3 Depth=2
	jmp	.LBB72_17
.LBB72_17:                              # %if.end42
                                        #   in Loop: Header=BB72_3 Depth=2
	jmp	.LBB72_54
.LBB72_18:                              # %if.else43
                                        #   in Loop: Header=BB72_3 Depth=2
	cmpl	$1, -20(%rbp)
	jne	.LBB72_29
# %bb.19:                               # %land.lhs.true46
                                        #   in Loop: Header=BB72_3 Depth=2
	cmpl	$0, -24(%rbp)
	jne	.LBB72_29
# %bb.20:                               # %if.then49
                                        #   in Loop: Header=BB72_3 Depth=2
	movl	-12(%rbp), %eax
	cmpl	-44(%rbp), %eax
	jge	.LBB72_22
# %bb.21:                               # %if.then52
                                        #   in Loop: Header=BB72_3 Depth=2
	movl	-12(%rbp), %eax
	addl	$1, %eax
	movl	%eax, -12(%rbp)
	jmp	.LBB72_28
.LBB72_22:                              # %if.else54
                                        #   in Loop: Header=BB72_3 Depth=2
	movl	-12(%rbp), %ecx
	movq	img, %rax
	movl	52(%rax), %eax
	cltd
	movl	$16, %esi
	idivl	%esi
	subl	$1, %eax
	cmpl	%eax, %ecx
	jne	.LBB72_24
# %bb.23:                               # %if.then60
                                        #   in Loop: Header=BB72_3 Depth=2
	movl	-36(%rbp), %eax
	subl	$1, %eax
	movl	%eax, -16(%rbp)
	movl	-36(%rbp), %eax
	addl	$-1, %eax
	movl	%eax, -36(%rbp)
	movl	$-1, -20(%rbp)
	movl	$0, -24(%rbp)
	jmp	.LBB72_27
.LBB72_24:                              # %if.else63
                                        #   in Loop: Header=BB72_3 Depth=2
	movl	-12(%rbp), %eax
	cmpl	-44(%rbp), %eax
	jne	.LBB72_26
# %bb.25:                               # %if.then66
                                        #   in Loop: Header=BB72_3 Depth=2
	movl	-12(%rbp), %eax
	addl	$1, %eax
	movl	%eax, -12(%rbp)
	movl	-44(%rbp), %eax
	addl	$1, %eax
	movl	%eax, -44(%rbp)
	movl	$0, -20(%rbp)
	movl	$-1, -24(%rbp)
.LBB72_26:                              # %if.end69
                                        #   in Loop: Header=BB72_3 Depth=2
	jmp	.LBB72_27
.LBB72_27:                              # %if.end70
                                        #   in Loop: Header=BB72_3 Depth=2
	jmp	.LBB72_28
.LBB72_28:                              # %if.end71
                                        #   in Loop: Header=BB72_3 Depth=2
	jmp	.LBB72_53
.LBB72_29:                              # %if.else72
                                        #   in Loop: Header=BB72_3 Depth=2
	cmpl	$0, -20(%rbp)
	jne	.LBB72_40
# %bb.30:                               # %land.lhs.true75
                                        #   in Loop: Header=BB72_3 Depth=2
	cmpl	$-1, -24(%rbp)
	jne	.LBB72_40
# %bb.31:                               # %if.then78
                                        #   in Loop: Header=BB72_3 Depth=2
	movl	-16(%rbp), %eax
	cmpl	-36(%rbp), %eax
	jle	.LBB72_33
# %bb.32:                               # %if.then81
                                        #   in Loop: Header=BB72_3 Depth=2
	movl	-16(%rbp), %eax
	addl	$-1, %eax
	movl	%eax, -16(%rbp)
	jmp	.LBB72_39
.LBB72_33:                              # %if.else83
                                        #   in Loop: Header=BB72_3 Depth=2
	cmpl	$0, -16(%rbp)
	jne	.LBB72_35
# %bb.34:                               # %if.then86
                                        #   in Loop: Header=BB72_3 Depth=2
	movl	-40(%rbp), %eax
	subl	$1, %eax
	movl	%eax, -12(%rbp)
	movl	-40(%rbp), %eax
	addl	$-1, %eax
	movl	%eax, -40(%rbp)
	movl	$0, -20(%rbp)
	movl	$1, -24(%rbp)
	jmp	.LBB72_38
.LBB72_35:                              # %if.else89
                                        #   in Loop: Header=BB72_3 Depth=2
	movl	-16(%rbp), %eax
	cmpl	-36(%rbp), %eax
	jne	.LBB72_37
# %bb.36:                               # %if.then92
                                        #   in Loop: Header=BB72_3 Depth=2
	movl	-16(%rbp), %eax
	addl	$-1, %eax
	movl	%eax, -16(%rbp)
	movl	-36(%rbp), %eax
	addl	$-1, %eax
	movl	%eax, -36(%rbp)
	movl	$-1, -20(%rbp)
	movl	$0, -24(%rbp)
.LBB72_37:                              # %if.end95
                                        #   in Loop: Header=BB72_3 Depth=2
	jmp	.LBB72_38
.LBB72_38:                              # %if.end96
                                        #   in Loop: Header=BB72_3 Depth=2
	jmp	.LBB72_39
.LBB72_39:                              # %if.end97
                                        #   in Loop: Header=BB72_3 Depth=2
	jmp	.LBB72_52
.LBB72_40:                              # %if.else98
                                        #   in Loop: Header=BB72_3 Depth=2
	cmpl	$0, -20(%rbp)
	jne	.LBB72_51
# %bb.41:                               # %land.lhs.true101
                                        #   in Loop: Header=BB72_3 Depth=2
	cmpl	$1, -24(%rbp)
	jne	.LBB72_51
# %bb.42:                               # %if.then104
                                        #   in Loop: Header=BB72_3 Depth=2
	movl	-16(%rbp), %eax
	cmpl	-48(%rbp), %eax
	jge	.LBB72_44
# %bb.43:                               # %if.then107
                                        #   in Loop: Header=BB72_3 Depth=2
	movl	-16(%rbp), %eax
	addl	$1, %eax
	movl	%eax, -16(%rbp)
	jmp	.LBB72_50
.LBB72_44:                              # %if.else109
                                        #   in Loop: Header=BB72_3 Depth=2
	movl	-16(%rbp), %ecx
	movq	img, %rax
	movl	60(%rax), %eax
	cltd
	movl	$16, %esi
	idivl	%esi
	subl	$1, %eax
	cmpl	%eax, %ecx
	jne	.LBB72_46
# %bb.45:                               # %if.then115
                                        #   in Loop: Header=BB72_3 Depth=2
	movl	-44(%rbp), %eax
	addl	$1, %eax
	movl	%eax, -12(%rbp)
	movl	-44(%rbp), %eax
	addl	$1, %eax
	movl	%eax, -44(%rbp)
	movl	$0, -20(%rbp)
	movl	$-1, -24(%rbp)
	jmp	.LBB72_49
.LBB72_46:                              # %if.else118
                                        #   in Loop: Header=BB72_3 Depth=2
	movl	-16(%rbp), %eax
	cmpl	-48(%rbp), %eax
	jne	.LBB72_48
# %bb.47:                               # %if.then121
                                        #   in Loop: Header=BB72_3 Depth=2
	movl	-16(%rbp), %eax
	addl	$1, %eax
	movl	%eax, -16(%rbp)
	movl	-48(%rbp), %eax
	addl	$1, %eax
	movl	%eax, -48(%rbp)
	movl	$1, -20(%rbp)
	movl	$0, -24(%rbp)
.LBB72_48:                              # %if.end124
                                        #   in Loop: Header=BB72_3 Depth=2
	jmp	.LBB72_49
.LBB72_49:                              # %if.end125
                                        #   in Loop: Header=BB72_3 Depth=2
	jmp	.LBB72_50
.LBB72_50:                              # %if.end126
                                        #   in Loop: Header=BB72_3 Depth=2
	jmp	.LBB72_51
.LBB72_51:                              # %if.end127
                                        #   in Loop: Header=BB72_3 Depth=2
	jmp	.LBB72_52
.LBB72_52:                              # %if.end128
                                        #   in Loop: Header=BB72_3 Depth=2
	jmp	.LBB72_53
.LBB72_53:                              # %if.end129
                                        #   in Loop: Header=BB72_3 Depth=2
	jmp	.LBB72_54
.LBB72_54:                              # %if.end130
                                        #   in Loop: Header=BB72_3 Depth=2
	jmp	.LBB72_55
.LBB72_55:                              # %for.inc
                                        #   in Loop: Header=BB72_3 Depth=2
	movl	-28(%rbp), %eax
	addl	$1, %eax
	movl	%eax, -28(%rbp)
	jmp	.LBB72_3
.LBB72_56:                              # %for.end
                                        #   in Loop: Header=BB72_1 Depth=1
	jmp	.LBB72_57
.LBB72_57:                              # %for.inc132
                                        #   in Loop: Header=BB72_1 Depth=1
	movl	-32(%rbp), %eax
	addl	$1, %eax
	movl	%eax, -32(%rbp)
	jmp	.LBB72_1
.LBB72_58:                              # %for.end134
	cmpl	$0, -60(%rbp)
	je	.LBB72_60
# %bb.59:                               # %if.then137
	movl	-60(%rbp), %eax
	movl	%eax, -148(%rbp)
	movq	-56(%rbp), %rsi
	leaq	-152(%rbp), %rdi
	callq	writeSyntaxElement2Buf_UVLC
	addl	-64(%rbp), %eax
	movl	%eax, -64(%rbp)
.LBB72_60:                              # %if.end141
	xorl	%eax, %eax
	movl	-64(%rbp), %ecx
	movl	-72(%rbp), %edx
	cmpl	%edx, %ecx
	movl	$1, %ecx
	cmovll	%ecx, %eax
	movl	%eax, -68(%rbp)
	cmpl	$0, -68(%rbp)
	jne	.LBB72_74
# %bb.61:                               # %if.then144
	movq	-56(%rbp), %rax
	movb	$0, 8(%rax)
	movq	-56(%rbp), %rax
	movl	$8, 4(%rax)
	movq	-56(%rbp), %rax
	movl	$0, (%rax)
	movl	$0, -32(%rbp)
.LBB72_62:                              # %for.cond145
                                        # =>This Loop Header: Depth=1
                                        #     Child Loop BB72_64 Depth 2
	movl	-32(%rbp), %ecx
	movq	img, %rax
	movl	60(%rax), %eax
	cltd
	movl	$16, %esi
	idivl	%esi
	cmpl	%eax, %ecx
	jge	.LBB72_73
# %bb.63:                               # %for.body150
                                        #   in Loop: Header=BB72_62 Depth=1
	movl	$0, -28(%rbp)
.LBB72_64:                              # %for.cond151
                                        #   Parent Loop BB72_62 Depth=1
                                        # =>  This Inner Loop Header: Depth=2
	movl	-28(%rbp), %ecx
	movq	img, %rax
	movl	52(%rax), %eax
	cltd
	movl	$16, %esi
	idivl	%esi
	cmpl	%eax, %ecx
	jge	.LBB72_71
# %bb.65:                               # %for.body156
                                        #   in Loop: Header=BB72_64 Depth=2
	movq	-56(%rbp), %rax
	movzbl	8(%rax), %ecx
	shll	$1, %ecx
	movb	%cl, 8(%rax)
	movq	-96(%rbp), %rax
	movslq	-32(%rbp), %rcx
	movq	(%rax,%rcx,8), %rax
	movslq	-28(%rbp), %rcx
	cmpb	$0, (%rax,%rcx)
	je	.LBB72_67
# %bb.66:                               # %if.then165
                                        #   in Loop: Header=BB72_64 Depth=2
	movq	-56(%rbp), %rax
	movzbl	8(%rax), %ecx
	orl	$1, %ecx
	movb	%cl, 8(%rax)
.LBB72_67:                              # %if.end169
                                        #   in Loop: Header=BB72_64 Depth=2
	movq	-56(%rbp), %rax
	movl	4(%rax), %ecx
	addl	$-1, %ecx
	movl	%ecx, 4(%rax)
	movq	-56(%rbp), %rax
	cmpl	$0, 4(%rax)
	jne	.LBB72_69
# %bb.68:                               # %if.then175
                                        #   in Loop: Header=BB72_64 Depth=2
	movq	-56(%rbp), %rax
	movl	$8, 4(%rax)
	movq	-56(%rbp), %rax
	movb	8(%rax), %al
	movq	-56(%rbp), %rcx
	movq	32(%rcx), %rcx
	movq	-56(%rbp), %rdx
	movl	(%rdx), %esi
	movl	%esi, %edi
	addl	$1, %edi
	movl	%edi, (%rdx)
	movslq	%esi, %rdx
	movb	%al, (%rcx,%rdx)
	movq	-56(%rbp), %rax
	movb	$0, 8(%rax)
.LBB72_69:                              # %if.end183
                                        #   in Loop: Header=BB72_64 Depth=2
	jmp	.LBB72_70
.LBB72_70:                              # %for.inc184
                                        #   in Loop: Header=BB72_64 Depth=2
	movl	-28(%rbp), %eax
	addl	$1, %eax
	movl	%eax, -28(%rbp)
	jmp	.LBB72_64
.LBB72_71:                              # %for.end186
                                        #   in Loop: Header=BB72_62 Depth=1
	jmp	.LBB72_72
.LBB72_72:                              # %for.inc187
                                        #   in Loop: Header=BB72_62 Depth=1
	movl	-32(%rbp), %eax
	addl	$1, %eax
	movl	%eax, -32(%rbp)
	jmp	.LBB72_62
.LBB72_73:                              # %for.end189
	jmp	.LBB72_74
.LBB72_74:                              # %if.end190
	movl	-68(%rbp), %ebx
	cmpl	$1296196273, -80(%rbp)  # imm = 0x4D4262B1
	jne	.LBB72_76
.LBB72_75:
	movl	%ebx, %eax
	addq	$152, %rsp
	popq	%rbx
	popq	%rbp
	.cfi_def_cfa %rsp, 8
	retq
.LBB72_76:                              # %func_exit
	.cfi_def_cfa %rbp, 16
	callq	detect_breach
	jmp	.LBB72_75
.Lfunc_end72:
	.size	CompressSpareMBMap.23, .Lfunc_end72-CompressSpareMBMap.23
	.cfi_endproc
                                        # -- End function
	.globl	FinalizeSubseqChar.24   # -- Begin function FinalizeSubseqChar.24
	.p2align	4, 0x90
	.type	FinalizeSubseqChar.24,@function
FinalizeSubseqChar.24:                  # @FinalizeSubseqChar.24
	.cfi_startproc
# %bb.0:                                # %entry
	pushq	%rbp
	.cfi_def_cfa_offset 16
	.cfi_offset %rbp, -16
	movq	%rsp, %rbp
	.cfi_def_cfa_register %rbp
	subq	$80, %rsp
	movl	$700992472, -68(%rbp)   # imm = 0x29C84BD8
	movq	seiSubseqChar+72, %rax
	movq	%rax, -8(%rbp)
	movl	$0, -64(%rbp)
	movabsq	$ue_linfo, %rax
	movq	%rax, -32(%rbp)
	movl	seiSubseqChar, %eax
	movl	%eax, -60(%rbp)
	movq	-8(%rbp), %rsi
	leaq	-64(%rbp), %rdi
	callq	writeSyntaxElement2Buf_UVLC
	movl	seiSubseqChar+4, %eax
	movl	%eax, -60(%rbp)
	movq	-8(%rbp), %rsi
	leaq	-64(%rbp), %rdi
	callq	writeSyntaxElement2Buf_UVLC
	movl	seiSubseqChar+8, %eax
	movl	%eax, -44(%rbp)
	movl	$1, -52(%rbp)
	movq	-8(%rbp), %rsi
	leaq	-64(%rbp), %rdi
	callq	writeSyntaxElement2Buf_Fixed
	cmpl	$0, seiSubseqChar+8
	je	.LBB73_2
# %bb.1:                                # %if.then
	movl	seiSubseqChar+12, %eax
	movl	%eax, -44(%rbp)
	movl	$32, -52(%rbp)
	movq	-8(%rbp), %rsi
	leaq	-64(%rbp), %rdi
	callq	writeSyntaxElement2Buf_Fixed
.LBB73_2:                               # %if.end
	movl	seiSubseqChar+16, %eax
	movl	%eax, -44(%rbp)
	movl	$1, -52(%rbp)
	movq	-8(%rbp), %rsi
	leaq	-64(%rbp), %rdi
	callq	writeSyntaxElement2Buf_Fixed
	cmpl	$0, seiSubseqChar+16
	je	.LBB73_4
# %bb.3:                                # %if.then11
	movl	seiSubseqChar+20, %eax
	movl	%eax, -44(%rbp)
	movl	$16, -52(%rbp)
	movq	-8(%rbp), %rsi
	leaq	-64(%rbp), %rdi
	callq	writeSyntaxElement2Buf_Fixed
	movl	seiSubseqChar+24, %eax
	movl	%eax, -44(%rbp)
	movl	$16, -52(%rbp)
	movq	-8(%rbp), %rsi
	leaq	-64(%rbp), %rdi
	callq	writeSyntaxElement2Buf_Fixed
.LBB73_4:                               # %if.end18
	movl	seiSubseqChar+28, %eax
	movl	%eax, -60(%rbp)
	movq	-8(%rbp), %rsi
	leaq	-64(%rbp), %rdi
	callq	writeSyntaxElement2Buf_UVLC
	movl	$0, -12(%rbp)
.LBB73_5:                               # %for.cond
                                        # =>This Inner Loop Header: Depth=1
	movl	-12(%rbp), %eax
	cmpl	seiSubseqChar+28, %eax
	jge	.LBB73_8
# %bb.6:                                # %for.body
                                        #   in Loop: Header=BB73_5 Depth=1
	movslq	-12(%rbp), %rax
	movl	seiSubseqChar+32(,%rax,4), %eax
	movl	%eax, -60(%rbp)
	movq	-8(%rbp), %rsi
	leaq	-64(%rbp), %rdi
	callq	writeSyntaxElement2Buf_UVLC
	movslq	-12(%rbp), %rax
	movl	seiSubseqChar+52(,%rax,4), %eax
	movl	%eax, -60(%rbp)
	movq	-8(%rbp), %rsi
	leaq	-64(%rbp), %rdi
	callq	writeSyntaxElement2Buf_UVLC
# %bb.7:                                # %for.inc
                                        #   in Loop: Header=BB73_5 Depth=1
	movl	-12(%rbp), %eax
	addl	$1, %eax
	movl	%eax, -12(%rbp)
	jmp	.LBB73_5
.LBB73_8:                               # %for.end
	movq	-8(%rbp), %rax
	cmpl	$8, 4(%rax)
	je	.LBB73_12
# %bb.9:                                # %if.then28
	movq	-8(%rbp), %rax
	movzbl	8(%rax), %ecx
	shll	$1, %ecx
	movb	%cl, 8(%rax)
	movq	-8(%rbp), %rax
	movzbl	8(%rax), %ecx
	orl	$1, %ecx
	movb	%cl, 8(%rax)
	movq	-8(%rbp), %rax
	movl	4(%rax), %ecx
	addl	$-1, %ecx
	movl	%ecx, 4(%rax)
	movq	-8(%rbp), %rax
	cmpl	$0, 4(%rax)
	je	.LBB73_11
# %bb.10:                               # %if.then37
	movq	-8(%rbp), %rax
	movl	4(%rax), %ecx
	movq	-8(%rbp), %rax
	movzbl	8(%rax), %edx
                                        # kill: def $cl killed $ecx
	shll	%cl, %edx
	movb	%dl, 8(%rax)
.LBB73_11:                              # %if.end43
	movq	-8(%rbp), %rax
	movl	$8, 4(%rax)
	movq	-8(%rbp), %rax
	movb	8(%rax), %al
	movq	-8(%rbp), %rcx
	movq	32(%rcx), %rcx
	movq	-8(%rbp), %rdx
	movl	(%rdx), %esi
	movl	%esi, %edi
	addl	$1, %edi
	movl	%edi, (%rdx)
	movslq	%esi, %rdx
	movb	%al, (%rcx,%rdx)
	movq	-8(%rbp), %rax
	movb	$0, 8(%rax)
.LBB73_12:                              # %if.end50
	movq	-8(%rbp), %rax
	movl	(%rax), %eax
	movl	%eax, seiSubseqChar+80
	cmpl	$700992472, -68(%rbp)   # imm = 0x29C84BD8
	jne	.LBB73_14
.LBB73_13:
	addq	$80, %rsp
	popq	%rbp
	.cfi_def_cfa %rsp, 8
	retq
.LBB73_14:                              # %func_exit
	.cfi_def_cfa %rbp, 16
	callq	detect_breach
	jmp	.LBB73_13
.Lfunc_end73:
	.size	FinalizeSubseqChar.24, .Lfunc_end73-FinalizeSubseqChar.24
	.cfi_endproc
                                        # -- End function
	.globl	FinalizeUser_data_unregistered.25 # -- Begin function FinalizeUser_data_unregistered.25
	.p2align	4, 0x90
	.type	FinalizeUser_data_unregistered.25,@function
FinalizeUser_data_unregistered.25:      # @FinalizeUser_data_unregistered.25
	.cfi_startproc
# %bb.0:                                # %entry
	pushq	%rbp
	.cfi_def_cfa_offset 16
	.cfi_offset %rbp, -16
	movq	%rsp, %rbp
	.cfi_def_cfa_register %rbp
	subq	$64, %rsp
	movl	$928444731, -16(%rbp)   # imm = 0x3756F13B
	movq	seiUser_data_unregistered+16, %rax
	movq	%rax, -8(%rbp)
	movl	$0, -64(%rbp)
	movabsq	$ue_linfo, %rax
	movq	%rax, -32(%rbp)
	movl	$0, -12(%rbp)
.LBB74_1:                               # %for.cond
                                        # =>This Inner Loop Header: Depth=1
	movl	-12(%rbp), %eax
	cmpl	seiUser_data_unregistered+8, %eax
	jge	.LBB74_4
# %bb.2:                                # %for.body
                                        #   in Loop: Header=BB74_1 Depth=1
	movq	seiUser_data_unregistered, %rax
	movslq	-12(%rbp), %rcx
	movsbl	(%rax,%rcx), %eax
	movl	%eax, -44(%rbp)
	movl	$8, -52(%rbp)
	movq	-8(%rbp), %rsi
	leaq	-64(%rbp), %rdi
	callq	writeSyntaxElement2Buf_Fixed
# %bb.3:                                # %for.inc
                                        #   in Loop: Header=BB74_1 Depth=1
	movl	-12(%rbp), %eax
	addl	$1, %eax
	movl	%eax, -12(%rbp)
	jmp	.LBB74_1
.LBB74_4:                               # %for.end
	movq	-8(%rbp), %rax
	cmpl	$8, 4(%rax)
	je	.LBB74_8
# %bb.5:                                # %if.then
	movq	-8(%rbp), %rax
	movzbl	8(%rax), %ecx
	shll	$1, %ecx
	movb	%cl, 8(%rax)
	movq	-8(%rbp), %rax
	movzbl	8(%rax), %ecx
	orl	$1, %ecx
	movb	%cl, 8(%rax)
	movq	-8(%rbp), %rax
	movl	4(%rax), %ecx
	addl	$-1, %ecx
	movl	%ecx, 4(%rax)
	movq	-8(%rbp), %rax
	cmpl	$0, 4(%rax)
	je	.LBB74_7
# %bb.6:                                # %if.then12
	movq	-8(%rbp), %rax
	movl	4(%rax), %ecx
	movq	-8(%rbp), %rax
	movzbl	8(%rax), %edx
                                        # kill: def $cl killed $ecx
	shll	%cl, %edx
	movb	%dl, 8(%rax)
.LBB74_7:                               # %if.end
	movq	-8(%rbp), %rax
	movl	$8, 4(%rax)
	movq	-8(%rbp), %rax
	movb	8(%rax), %al
	movq	-8(%rbp), %rcx
	movq	32(%rcx), %rcx
	movq	-8(%rbp), %rdx
	movl	(%rdx), %esi
	movl	%esi, %edi
	addl	$1, %edi
	movl	%edi, (%rdx)
	movslq	%esi, %rdx
	movb	%al, (%rcx,%rdx)
	movq	-8(%rbp), %rax
	movb	$0, 8(%rax)
.LBB74_8:                               # %if.end24
	movq	-8(%rbp), %rax
	movl	(%rax), %eax
	movl	%eax, seiUser_data_unregistered+24
	cmpl	$928444731, -16(%rbp)   # imm = 0x3756F13B
	jne	.LBB74_10
.LBB74_9:
	addq	$64, %rsp
	popq	%rbp
	.cfi_def_cfa %rsp, 8
	retq
.LBB74_10:                              # %func_exit
	.cfi_def_cfa %rbp, 16
	callq	detect_breach
	jmp	.LBB74_9
.Lfunc_end74:
	.size	FinalizeUser_data_unregistered.25, .Lfunc_end74-FinalizeUser_data_unregistered.25
	.cfi_endproc
                                        # -- End function
	.globl	UpdateUser_data_registered_itu_t_t35.26 # -- Begin function UpdateUser_data_registered_itu_t_t35.26
	.p2align	4, 0x90
	.type	UpdateUser_data_registered_itu_t_t35.26,@function
UpdateUser_data_registered_itu_t_t35.26: # @UpdateUser_data_registered_itu_t_t35.26
	.cfi_startproc
# %bb.0:                                # %entry
	pushq	%rbp
	.cfi_def_cfa_offset 16
	.cfi_offset %rbp, -16
	movq	%rsp, %rbp
	.cfi_def_cfa_register %rbp
	subq	$32, %rsp
	movl	$1501430432, -20(%rbp)  # imm = 0x597E02A0
	movl	$82, -12(%rbp)
	cmpl	$255, -12(%rbp)
	jge	.LBB75_2
# %bb.1:                                # %if.then
	movl	-12(%rbp), %eax
	movl	%eax, seiUser_data_registered_itu_t_t35+12
	jmp	.LBB75_3
.LBB75_2:                               # %if.else
	movl	$255, seiUser_data_registered_itu_t_t35+12
	movl	-12(%rbp), %eax
	subl	$255, %eax
	movl	%eax, seiUser_data_registered_itu_t_t35+16
.LBB75_3:                               # %if.end
	movl	$7, -16(%rbp)
	movl	$0, -4(%rbp)
.LBB75_4:                               # %for.cond
                                        # =>This Inner Loop Header: Depth=1
	movl	-4(%rbp), %eax
	cmpl	-16(%rbp), %eax
	jge	.LBB75_16
# %bb.5:                                # %for.body
                                        #   in Loop: Header=BB75_4 Depth=1
	imull	$3, -4(%rbp), %eax
	movl	%eax, -8(%rbp)
	cmpl	$255, -8(%rbp)
	jge	.LBB75_7
# %bb.6:                                # %cond.true
                                        #   in Loop: Header=BB75_4 Depth=1
	movl	-8(%rbp), %eax
	jmp	.LBB75_8
.LBB75_7:                               # %cond.false
                                        #   in Loop: Header=BB75_4 Depth=1
	movl	$255, %eax
	jmp	.LBB75_8
.LBB75_8:                               # %cond.end
                                        #   in Loop: Header=BB75_4 Depth=1
	xorl	%ecx, %ecx
	cmpl	%eax, %ecx
	jle	.LBB75_10
# %bb.9:                                # %cond.true4
                                        #   in Loop: Header=BB75_4 Depth=1
	xorl	%eax, %eax
	jmp	.LBB75_14
.LBB75_10:                              # %cond.false5
                                        #   in Loop: Header=BB75_4 Depth=1
	cmpl	$255, -8(%rbp)
	jge	.LBB75_12
# %bb.11:                               # %cond.true7
                                        #   in Loop: Header=BB75_4 Depth=1
	movl	-8(%rbp), %eax
	jmp	.LBB75_13
.LBB75_12:                              # %cond.false8
                                        #   in Loop: Header=BB75_4 Depth=1
	movl	$255, %eax
	jmp	.LBB75_13
.LBB75_13:                              # %cond.end9
                                        #   in Loop: Header=BB75_4 Depth=1
.LBB75_14:                              # %cond.end11
                                        #   in Loop: Header=BB75_4 Depth=1
	movq	seiUser_data_registered_itu_t_t35, %rcx
	movslq	-4(%rbp), %rdx
	movb	%al, (%rcx,%rdx)
# %bb.15:                               # %for.inc
                                        #   in Loop: Header=BB75_4 Depth=1
	movl	-4(%rbp), %eax
	addl	$1, %eax
	movl	%eax, -4(%rbp)
	jmp	.LBB75_4
.LBB75_16:                              # %for.end
	movl	-16(%rbp), %eax
	movl	%eax, seiUser_data_registered_itu_t_t35+8
	cmpl	$1501430432, -20(%rbp)  # imm = 0x597E02A0
	jne	.LBB75_18
.LBB75_17:
	addq	$32, %rsp
	popq	%rbp
	.cfi_def_cfa %rsp, 8
	retq
.LBB75_18:                              # %func_exit
	.cfi_def_cfa %rbp, 16
	callq	detect_breach
	jmp	.LBB75_17
.Lfunc_end75:
	.size	UpdateUser_data_registered_itu_t_t35.26, .Lfunc_end75-UpdateUser_data_registered_itu_t_t35.26
	.cfi_endproc
                                        # -- End function
	.globl	FinalizeSubseqInfo.27   # -- Begin function FinalizeSubseqInfo.27
	.p2align	4, 0x90
	.type	FinalizeSubseqInfo.27,@function
FinalizeSubseqInfo.27:                  # @FinalizeSubseqInfo.27
	.cfi_startproc
# %bb.0:                                # %entry
	pushq	%rbp
	.cfi_def_cfa_offset 16
	.cfi_offset %rbp, -16
	movq	%rsp, %rbp
	.cfi_def_cfa_register %rbp
	subq	$64, %rsp
	movl	$434189468, -16(%rbp)   # imm = 0x19E1349C
	movl	%edi, -12(%rbp)
	movslq	-12(%rbp), %rax
	shlq	$5, %rax
	movabsq	$seiSubseqInfo, %rcx
	movq	%rcx, %rdx
	addq	%rax, %rdx
	movq	24(%rdx), %rax
	movq	%rax, -8(%rbp)
	movl	$0, -64(%rbp)
	movabsq	$ue_linfo, %rax
	movq	%rax, -32(%rbp)
	movslq	-12(%rbp), %rax
	shlq	$5, %rax
	addq	%rax, %rcx
	movl	(%rcx), %eax
	movl	%eax, -60(%rbp)
	movq	-8(%rbp), %rsi
	leaq	-64(%rbp), %rdi
	callq	writeSyntaxElement2Buf_UVLC
	movslq	-12(%rbp), %rax
	shlq	$5, %rax
	movabsq	$seiSubseqInfo, %rcx
	addq	%rax, %rcx
	movl	4(%rcx), %eax
	movl	%eax, -60(%rbp)
	movq	-8(%rbp), %rsi
	leaq	-64(%rbp), %rdi
	callq	writeSyntaxElement2Buf_UVLC
	movslq	-12(%rbp), %rax
	shlq	$5, %rax
	movabsq	$seiSubseqInfo, %rcx
	addq	%rax, %rcx
	movl	8(%rcx), %eax
	movl	%eax, -44(%rbp)
	movl	$1, -52(%rbp)
	movq	-8(%rbp), %rsi
	leaq	-64(%rbp), %rdi
	callq	writeSyntaxElement2Buf_Fixed
	movslq	-12(%rbp), %rax
	shlq	$5, %rax
	movabsq	$seiSubseqInfo, %rcx
	addq	%rax, %rcx
	movl	12(%rcx), %eax
	movl	%eax, -60(%rbp)
	movq	-8(%rbp), %rsi
	leaq	-64(%rbp), %rdi
	callq	writeSyntaxElement2Buf_UVLC
	movq	-8(%rbp), %rax
	cmpl	$8, 4(%rax)
	je	.LBB76_4
# %bb.1:                                # %if.then
	movq	-8(%rbp), %rax
	movzbl	8(%rax), %ecx
	shll	$1, %ecx
	movb	%cl, 8(%rax)
	movq	-8(%rbp), %rax
	movzbl	8(%rax), %ecx
	orl	$1, %ecx
	movb	%cl, 8(%rax)
	movq	-8(%rbp), %rax
	movl	4(%rax), %ecx
	addl	$-1, %ecx
	movl	%ecx, 4(%rax)
	movq	-8(%rbp), %rax
	cmpl	$0, 4(%rax)
	je	.LBB76_3
# %bb.2:                                # %if.then22
	movq	-8(%rbp), %rax
	movl	4(%rax), %ecx
	movq	-8(%rbp), %rax
	movzbl	8(%rax), %edx
                                        # kill: def $cl killed $ecx
	shll	%cl, %edx
	movb	%dl, 8(%rax)
.LBB76_3:                               # %if.end
	movq	-8(%rbp), %rax
	movl	$8, 4(%rax)
	movq	-8(%rbp), %rax
	movb	8(%rax), %al
	movq	-8(%rbp), %rcx
	movq	32(%rcx), %rcx
	movq	-8(%rbp), %rdx
	movl	(%rdx), %esi
	movl	%esi, %edi
	addl	$1, %edi
	movl	%edi, (%rdx)
	movslq	%esi, %rdx
	movb	%al, (%rcx,%rdx)
	movq	-8(%rbp), %rax
	movb	$0, 8(%rax)
.LBB76_4:                               # %if.end33
	movq	-8(%rbp), %rax
	movl	(%rax), %eax
	movslq	-12(%rbp), %rcx
	shlq	$5, %rcx
	movabsq	$seiSubseqInfo, %rdx
	addq	%rcx, %rdx
	movl	%eax, 16(%rdx)
	cmpl	$434189468, -16(%rbp)   # imm = 0x19E1349C
	jne	.LBB76_6
.LBB76_5:
	addq	$64, %rsp
	popq	%rbp
	.cfi_def_cfa %rsp, 8
	retq
.LBB76_6:                               # %func_exit
	.cfi_def_cfa %rbp, 16
	callq	detect_breach
	jmp	.LBB76_5
.Lfunc_end76:
	.size	FinalizeSubseqInfo.27, .Lfunc_end76-FinalizeSubseqInfo.27
	.cfi_endproc
                                        # -- End function
	.globl	ComposeSparePictureMessage.28 # -- Begin function ComposeSparePictureMessage.28
	.p2align	4, 0x90
	.type	ComposeSparePictureMessage.28,@function
ComposeSparePictureMessage.28:          # @ComposeSparePictureMessage.28
	.cfi_startproc
# %bb.0:                                # %entry
	pushq	%rbp
	.cfi_def_cfa_offset 16
	.cfi_offset %rbp, -16
	movq	%rsp, %rbp
	.cfi_def_cfa_register %rbp
	subq	$80, %rsp
	movl	$2110620012, -16(%rbp)  # imm = 0x7DCD816C
	movl	%edi, -20(%rbp)
	movl	%esi, -12(%rbp)
	movq	%rdx, -32(%rbp)
	movq	seiSparePicturePayload+16, %rax
	movq	%rax, -8(%rbp)
	movl	$0, -80(%rbp)
	movabsq	$ue_linfo, %rax
	movq	%rax, -48(%rbp)
	movl	-20(%rbp), %eax
	movl	%eax, -76(%rbp)
	movq	-8(%rbp), %rsi
	leaq	-80(%rbp), %rdi
	callq	writeSyntaxElement2Buf_UVLC
	movl	-12(%rbp), %eax
	movl	%eax, -76(%rbp)
	movq	-8(%rbp), %rsi
	leaq	-80(%rbp), %rdi
	callq	writeSyntaxElement2Buf_UVLC
	movq	-8(%rbp), %rdi
	movq	-32(%rbp), %rsi
	callq	AppendTmpbits2Buf
	cmpl	$2110620012, -16(%rbp)  # imm = 0x7DCD816C
	jne	.LBB77_2
.LBB77_1:
	addq	$80, %rsp
	popq	%rbp
	.cfi_def_cfa %rsp, 8
	retq
.LBB77_2:                               # %func_exit
	.cfi_def_cfa %rbp, 16
	callq	detect_breach
	jmp	.LBB77_1
.Lfunc_end77:
	.size	ComposeSparePictureMessage.28, .Lfunc_end77-ComposeSparePictureMessage.28
	.cfi_endproc
                                        # -- End function
	.globl	UpdateUser_data_unregistered.29 # -- Begin function UpdateUser_data_unregistered.29
	.p2align	4, 0x90
	.type	UpdateUser_data_unregistered.29,@function
UpdateUser_data_unregistered.29:        # @UpdateUser_data_unregistered.29
	.cfi_startproc
# %bb.0:                                # %entry
	pushq	%rbp
	.cfi_def_cfa_offset 16
	.cfi_offset %rbp, -16
	movq	%rsp, %rbp
	.cfi_def_cfa_register %rbp
	subq	$16, %rsp
	movl	$1947746375, -16(%rbp)  # imm = 0x74184047
	movl	$7, -12(%rbp)
	movl	$0, -4(%rbp)
.LBB78_1:                               # %for.cond
                                        # =>This Inner Loop Header: Depth=1
	movl	-4(%rbp), %eax
	cmpl	-12(%rbp), %eax
	jge	.LBB78_13
# %bb.2:                                # %for.body
                                        #   in Loop: Header=BB78_1 Depth=1
	movl	-4(%rbp), %eax
	shll	$2, %eax
	movl	%eax, -8(%rbp)
	cmpl	$255, -8(%rbp)
	jge	.LBB78_4
# %bb.3:                                # %cond.true
                                        #   in Loop: Header=BB78_1 Depth=1
	movl	-8(%rbp), %eax
	jmp	.LBB78_5
.LBB78_4:                               # %cond.false
                                        #   in Loop: Header=BB78_1 Depth=1
	movl	$255, %eax
	jmp	.LBB78_5
.LBB78_5:                               # %cond.end
                                        #   in Loop: Header=BB78_1 Depth=1
	xorl	%ecx, %ecx
	cmpl	%eax, %ecx
	jle	.LBB78_7
# %bb.6:                                # %cond.true3
                                        #   in Loop: Header=BB78_1 Depth=1
	xorl	%eax, %eax
	jmp	.LBB78_11
.LBB78_7:                               # %cond.false4
                                        #   in Loop: Header=BB78_1 Depth=1
	cmpl	$255, -8(%rbp)
	jge	.LBB78_9
# %bb.8:                                # %cond.true6
                                        #   in Loop: Header=BB78_1 Depth=1
	movl	-8(%rbp), %eax
	jmp	.LBB78_10
.LBB78_9:                               # %cond.false7
                                        #   in Loop: Header=BB78_1 Depth=1
	movl	$255, %eax
	jmp	.LBB78_10
.LBB78_10:                              # %cond.end8
                                        #   in Loop: Header=BB78_1 Depth=1
.LBB78_11:                              # %cond.end10
                                        #   in Loop: Header=BB78_1 Depth=1
	movq	seiUser_data_unregistered, %rcx
	movslq	-4(%rbp), %rdx
	movb	%al, (%rcx,%rdx)
# %bb.12:                               # %for.inc
                                        #   in Loop: Header=BB78_1 Depth=1
	movl	-4(%rbp), %eax
	addl	$1, %eax
	movl	%eax, -4(%rbp)
	jmp	.LBB78_1
.LBB78_13:                              # %for.end
	movl	-12(%rbp), %eax
	movl	%eax, seiUser_data_unregistered+8
	cmpl	$1947746375, -16(%rbp)  # imm = 0x74184047
	jne	.LBB78_15
.LBB78_14:
	addq	$16, %rsp
	popq	%rbp
	.cfi_def_cfa %rsp, 8
	retq
.LBB78_15:                              # %func_exit
	.cfi_def_cfa %rbp, 16
	callq	detect_breach
	jmp	.LBB78_14
.Lfunc_end78:
	.size	UpdateUser_data_unregistered.29, .Lfunc_end78-UpdateUser_data_unregistered.29
	.cfi_endproc
                                        # -- End function
	.globl	UpdateUser_data_registered_itu_t_t35.30 # -- Begin function UpdateUser_data_registered_itu_t_t35.30
	.p2align	4, 0x90
	.type	UpdateUser_data_registered_itu_t_t35.30,@function
UpdateUser_data_registered_itu_t_t35.30: # @UpdateUser_data_registered_itu_t_t35.30
	.cfi_startproc
# %bb.0:                                # %entry
	pushq	%rbp
	.cfi_def_cfa_offset 16
	.cfi_offset %rbp, -16
	movq	%rsp, %rbp
	.cfi_def_cfa_register %rbp
	subq	$32, %rsp
	movl	$142366916, -20(%rbp)   # imm = 0x87C58C4
	movl	$82, -12(%rbp)
	cmpl	$255, -12(%rbp)
	jge	.LBB79_2
# %bb.1:                                # %if.then
	movl	-12(%rbp), %eax
	movl	%eax, seiUser_data_registered_itu_t_t35+12
	jmp	.LBB79_3
.LBB79_2:                               # %if.else
	movl	$255, seiUser_data_registered_itu_t_t35+12
	movl	-12(%rbp), %eax
	subl	$255, %eax
	movl	%eax, seiUser_data_registered_itu_t_t35+16
.LBB79_3:                               # %if.end
	movl	$7, -16(%rbp)
	movl	$0, -4(%rbp)
.LBB79_4:                               # %for.cond
                                        # =>This Inner Loop Header: Depth=1
	movl	-4(%rbp), %eax
	cmpl	-16(%rbp), %eax
	jge	.LBB79_16
# %bb.5:                                # %for.body
                                        #   in Loop: Header=BB79_4 Depth=1
	imull	$3, -4(%rbp), %eax
	movl	%eax, -8(%rbp)
	cmpl	$255, -8(%rbp)
	jge	.LBB79_7
# %bb.6:                                # %cond.true
                                        #   in Loop: Header=BB79_4 Depth=1
	movl	-8(%rbp), %eax
	jmp	.LBB79_8
.LBB79_7:                               # %cond.false
                                        #   in Loop: Header=BB79_4 Depth=1
	movl	$255, %eax
	jmp	.LBB79_8
.LBB79_8:                               # %cond.end
                                        #   in Loop: Header=BB79_4 Depth=1
	xorl	%ecx, %ecx
	cmpl	%eax, %ecx
	jle	.LBB79_10
# %bb.9:                                # %cond.true4
                                        #   in Loop: Header=BB79_4 Depth=1
	xorl	%eax, %eax
	jmp	.LBB79_14
.LBB79_10:                              # %cond.false5
                                        #   in Loop: Header=BB79_4 Depth=1
	cmpl	$255, -8(%rbp)
	jge	.LBB79_12
# %bb.11:                               # %cond.true7
                                        #   in Loop: Header=BB79_4 Depth=1
	movl	-8(%rbp), %eax
	jmp	.LBB79_13
.LBB79_12:                              # %cond.false8
                                        #   in Loop: Header=BB79_4 Depth=1
	movl	$255, %eax
	jmp	.LBB79_13
.LBB79_13:                              # %cond.end9
                                        #   in Loop: Header=BB79_4 Depth=1
.LBB79_14:                              # %cond.end11
                                        #   in Loop: Header=BB79_4 Depth=1
	movq	seiUser_data_registered_itu_t_t35, %rcx
	movslq	-4(%rbp), %rdx
	movb	%al, (%rcx,%rdx)
# %bb.15:                               # %for.inc
                                        #   in Loop: Header=BB79_4 Depth=1
	movl	-4(%rbp), %eax
	addl	$1, %eax
	movl	%eax, -4(%rbp)
	jmp	.LBB79_4
.LBB79_16:                              # %for.end
	movl	-16(%rbp), %eax
	movl	%eax, seiUser_data_registered_itu_t_t35+8
	cmpl	$142366916, -20(%rbp)   # imm = 0x87C58C4
	jne	.LBB79_18
.LBB79_17:
	addq	$32, %rsp
	popq	%rbp
	.cfi_def_cfa %rsp, 8
	retq
.LBB79_18:                              # %func_exit
	.cfi_def_cfa %rbp, 16
	callq	detect_breach
	jmp	.LBB79_17
.Lfunc_end79:
	.size	UpdateUser_data_registered_itu_t_t35.30, .Lfunc_end79-UpdateUser_data_registered_itu_t_t35.30
	.cfi_endproc
                                        # -- End function
	.globl	FinalizeUser_data_unregistered.31 # -- Begin function FinalizeUser_data_unregistered.31
	.p2align	4, 0x90
	.type	FinalizeUser_data_unregistered.31,@function
FinalizeUser_data_unregistered.31:      # @FinalizeUser_data_unregistered.31
	.cfi_startproc
# %bb.0:                                # %entry
	pushq	%rbp
	.cfi_def_cfa_offset 16
	.cfi_offset %rbp, -16
	movq	%rsp, %rbp
	.cfi_def_cfa_register %rbp
	subq	$64, %rsp
	movl	$2024833844, -16(%rbp)  # imm = 0x78B08334
	movq	seiUser_data_unregistered+16, %rax
	movq	%rax, -8(%rbp)
	movl	$0, -64(%rbp)
	movabsq	$ue_linfo, %rax
	movq	%rax, -32(%rbp)
	movl	$0, -12(%rbp)
.LBB80_1:                               # %for.cond
                                        # =>This Inner Loop Header: Depth=1
	movl	-12(%rbp), %eax
	cmpl	seiUser_data_unregistered+8, %eax
	jge	.LBB80_4
# %bb.2:                                # %for.body
                                        #   in Loop: Header=BB80_1 Depth=1
	movq	seiUser_data_unregistered, %rax
	movslq	-12(%rbp), %rcx
	movsbl	(%rax,%rcx), %eax
	movl	%eax, -44(%rbp)
	movl	$8, -52(%rbp)
	movq	-8(%rbp), %rsi
	leaq	-64(%rbp), %rdi
	callq	writeSyntaxElement2Buf_Fixed
# %bb.3:                                # %for.inc
                                        #   in Loop: Header=BB80_1 Depth=1
	movl	-12(%rbp), %eax
	addl	$1, %eax
	movl	%eax, -12(%rbp)
	jmp	.LBB80_1
.LBB80_4:                               # %for.end
	movq	-8(%rbp), %rax
	cmpl	$8, 4(%rax)
	je	.LBB80_8
# %bb.5:                                # %if.then
	movq	-8(%rbp), %rax
	movzbl	8(%rax), %ecx
	shll	$1, %ecx
	movb	%cl, 8(%rax)
	movq	-8(%rbp), %rax
	movzbl	8(%rax), %ecx
	orl	$1, %ecx
	movb	%cl, 8(%rax)
	movq	-8(%rbp), %rax
	movl	4(%rax), %ecx
	addl	$-1, %ecx
	movl	%ecx, 4(%rax)
	movq	-8(%rbp), %rax
	cmpl	$0, 4(%rax)
	je	.LBB80_7
# %bb.6:                                # %if.then12
	movq	-8(%rbp), %rax
	movl	4(%rax), %ecx
	movq	-8(%rbp), %rax
	movzbl	8(%rax), %edx
                                        # kill: def $cl killed $ecx
	shll	%cl, %edx
	movb	%dl, 8(%rax)
.LBB80_7:                               # %if.end
	movq	-8(%rbp), %rax
	movl	$8, 4(%rax)
	movq	-8(%rbp), %rax
	movb	8(%rax), %al
	movq	-8(%rbp), %rcx
	movq	32(%rcx), %rcx
	movq	-8(%rbp), %rdx
	movl	(%rdx), %esi
	movl	%esi, %edi
	addl	$1, %edi
	movl	%edi, (%rdx)
	movslq	%esi, %rdx
	movb	%al, (%rcx,%rdx)
	movq	-8(%rbp), %rax
	movb	$0, 8(%rax)
.LBB80_8:                               # %if.end24
	movq	-8(%rbp), %rax
	movl	(%rax), %eax
	movl	%eax, seiUser_data_unregistered+24
	cmpl	$2024833844, -16(%rbp)  # imm = 0x78B08334
	jne	.LBB80_10
.LBB80_9:
	addq	$64, %rsp
	popq	%rbp
	.cfi_def_cfa %rsp, 8
	retq
.LBB80_10:                              # %func_exit
	.cfi_def_cfa %rbp, 16
	callq	detect_breach
	jmp	.LBB80_9
.Lfunc_end80:
	.size	FinalizeUser_data_unregistered.31, .Lfunc_end80-FinalizeUser_data_unregistered.31
	.cfi_endproc
                                        # -- End function
	.globl	ComposeSparePictureMessage.32 # -- Begin function ComposeSparePictureMessage.32
	.p2align	4, 0x90
	.type	ComposeSparePictureMessage.32,@function
ComposeSparePictureMessage.32:          # @ComposeSparePictureMessage.32
	.cfi_startproc
# %bb.0:                                # %entry
	pushq	%rbp
	.cfi_def_cfa_offset 16
	.cfi_offset %rbp, -16
	movq	%rsp, %rbp
	.cfi_def_cfa_register %rbp
	subq	$80, %rsp
	movl	$628002766, -16(%rbp)   # imm = 0x256E8FCE
	movl	%edi, -20(%rbp)
	movl	%esi, -12(%rbp)
	movq	%rdx, -32(%rbp)
	movq	seiSparePicturePayload+16, %rax
	movq	%rax, -8(%rbp)
	movl	$0, -80(%rbp)
	movabsq	$ue_linfo, %rax
	movq	%rax, -48(%rbp)
	movl	-20(%rbp), %eax
	movl	%eax, -76(%rbp)
	movq	-8(%rbp), %rsi
	leaq	-80(%rbp), %rdi
	callq	writeSyntaxElement2Buf_UVLC
	movl	-12(%rbp), %eax
	movl	%eax, -76(%rbp)
	movq	-8(%rbp), %rsi
	leaq	-80(%rbp), %rdi
	callq	writeSyntaxElement2Buf_UVLC
	movq	-8(%rbp), %rdi
	movq	-32(%rbp), %rsi
	callq	AppendTmpbits2Buf
	cmpl	$628002766, -16(%rbp)   # imm = 0x256E8FCE
	jne	.LBB81_2
.LBB81_1:
	addq	$80, %rsp
	popq	%rbp
	.cfi_def_cfa %rsp, 8
	retq
.LBB81_2:                               # %func_exit
	.cfi_def_cfa %rbp, 16
	callq	detect_breach
	jmp	.LBB81_1
.Lfunc_end81:
	.size	ComposeSparePictureMessage.32, .Lfunc_end81-ComposeSparePictureMessage.32
	.cfi_endproc
                                        # -- End function
	.globl	FinalizeRandomAccess.33 # -- Begin function FinalizeRandomAccess.33
	.p2align	4, 0x90
	.type	FinalizeRandomAccess.33,@function
FinalizeRandomAccess.33:                # @FinalizeRandomAccess.33
	.cfi_startproc
# %bb.0:                                # %entry
	pushq	%rbp
	.cfi_def_cfa_offset 16
	.cfi_offset %rbp, -16
	movq	%rsp, %rbp
	.cfi_def_cfa_register %rbp
	subq	$64, %rsp
	movl	$1472395815, -12(%rbp)  # imm = 0x57C2FA27
	movq	seiRandomAccess+8, %rax
	movq	%rax, -8(%rbp)
	movl	$0, -64(%rbp)
	movabsq	$ue_linfo, %rax
	movq	%rax, -32(%rbp)
	movzbl	seiRandomAccess, %eax
	movl	%eax, -60(%rbp)
	movq	-8(%rbp), %rsi
	leaq	-64(%rbp), %rdi
	callq	writeSyntaxElement2Buf_UVLC
	movzbl	seiRandomAccess+1, %eax
	movl	%eax, -44(%rbp)
	movl	$1, -52(%rbp)
	movq	-8(%rbp), %rsi
	leaq	-64(%rbp), %rdi
	callq	writeSyntaxElement2Buf_Fixed
	movzbl	seiRandomAccess+2, %eax
	movl	%eax, -44(%rbp)
	movl	$1, -52(%rbp)
	movq	-8(%rbp), %rsi
	leaq	-64(%rbp), %rdi
	callq	writeSyntaxElement2Buf_Fixed
	movq	-8(%rbp), %rax
	cmpl	$8, 4(%rax)
	je	.LBB82_4
# %bb.1:                                # %if.then
	movq	-8(%rbp), %rax
	movzbl	8(%rax), %ecx
	shll	$1, %ecx
	movb	%cl, 8(%rax)
	movq	-8(%rbp), %rax
	movzbl	8(%rax), %ecx
	orl	$1, %ecx
	movb	%cl, 8(%rax)
	movq	-8(%rbp), %rax
	movl	4(%rax), %ecx
	addl	$-1, %ecx
	movl	%ecx, 4(%rax)
	movq	-8(%rbp), %rax
	cmpl	$0, 4(%rax)
	je	.LBB82_3
# %bb.2:                                # %if.then17
	movq	-8(%rbp), %rax
	movl	4(%rax), %ecx
	movq	-8(%rbp), %rax
	movzbl	8(%rax), %edx
                                        # kill: def $cl killed $ecx
	shll	%cl, %edx
	movb	%dl, 8(%rax)
.LBB82_3:                               # %if.end
	movq	-8(%rbp), %rax
	movl	$8, 4(%rax)
	movq	-8(%rbp), %rax
	movb	8(%rax), %al
	movq	-8(%rbp), %rcx
	movq	32(%rcx), %rcx
	movq	-8(%rbp), %rdx
	movl	(%rdx), %esi
	movl	%esi, %edi
	addl	$1, %edi
	movl	%edi, (%rdx)
	movslq	%esi, %rdx
	movb	%al, (%rcx,%rdx)
	movq	-8(%rbp), %rax
	movb	$0, 8(%rax)
.LBB82_4:                               # %if.end26
	movq	-8(%rbp), %rax
	movl	(%rax), %eax
	movl	%eax, seiRandomAccess+16
	cmpl	$1472395815, -12(%rbp)  # imm = 0x57C2FA27
	jne	.LBB82_6
.LBB82_5:
	addq	$64, %rsp
	popq	%rbp
	.cfi_def_cfa %rsp, 8
	retq
.LBB82_6:                               # %func_exit
	.cfi_def_cfa %rbp, 16
	callq	detect_breach
	jmp	.LBB82_5
.Lfunc_end82:
	.size	FinalizeRandomAccess.33, .Lfunc_end82-FinalizeRandomAccess.33
	.cfi_endproc
                                        # -- End function
	.globl	FinalizeSubseqInfo.34   # -- Begin function FinalizeSubseqInfo.34
	.p2align	4, 0x90
	.type	FinalizeSubseqInfo.34,@function
FinalizeSubseqInfo.34:                  # @FinalizeSubseqInfo.34
	.cfi_startproc
# %bb.0:                                # %entry
	pushq	%rbp
	.cfi_def_cfa_offset 16
	.cfi_offset %rbp, -16
	movq	%rsp, %rbp
	.cfi_def_cfa_register %rbp
	subq	$64, %rsp
	movl	$967934680, -16(%rbp)   # imm = 0x39B182D8
	movl	%edi, -12(%rbp)
	movslq	-12(%rbp), %rax
	shlq	$5, %rax
	movabsq	$seiSubseqInfo, %rcx
	movq	%rcx, %rdx
	addq	%rax, %rdx
	movq	24(%rdx), %rax
	movq	%rax, -8(%rbp)
	movl	$0, -64(%rbp)
	movabsq	$ue_linfo, %rax
	movq	%rax, -32(%rbp)
	movslq	-12(%rbp), %rax
	shlq	$5, %rax
	addq	%rax, %rcx
	movl	(%rcx), %eax
	movl	%eax, -60(%rbp)
	movq	-8(%rbp), %rsi
	leaq	-64(%rbp), %rdi
	callq	writeSyntaxElement2Buf_UVLC
	movslq	-12(%rbp), %rax
	shlq	$5, %rax
	movabsq	$seiSubseqInfo, %rcx
	addq	%rax, %rcx
	movl	4(%rcx), %eax
	movl	%eax, -60(%rbp)
	movq	-8(%rbp), %rsi
	leaq	-64(%rbp), %rdi
	callq	writeSyntaxElement2Buf_UVLC
	movslq	-12(%rbp), %rax
	shlq	$5, %rax
	movabsq	$seiSubseqInfo, %rcx
	addq	%rax, %rcx
	movl	8(%rcx), %eax
	movl	%eax, -44(%rbp)
	movl	$1, -52(%rbp)
	movq	-8(%rbp), %rsi
	leaq	-64(%rbp), %rdi
	callq	writeSyntaxElement2Buf_Fixed
	movslq	-12(%rbp), %rax
	shlq	$5, %rax
	movabsq	$seiSubseqInfo, %rcx
	addq	%rax, %rcx
	movl	12(%rcx), %eax
	movl	%eax, -60(%rbp)
	movq	-8(%rbp), %rsi
	leaq	-64(%rbp), %rdi
	callq	writeSyntaxElement2Buf_UVLC
	movq	-8(%rbp), %rax
	cmpl	$8, 4(%rax)
	je	.LBB83_4
# %bb.1:                                # %if.then
	movq	-8(%rbp), %rax
	movzbl	8(%rax), %ecx
	shll	$1, %ecx
	movb	%cl, 8(%rax)
	movq	-8(%rbp), %rax
	movzbl	8(%rax), %ecx
	orl	$1, %ecx
	movb	%cl, 8(%rax)
	movq	-8(%rbp), %rax
	movl	4(%rax), %ecx
	addl	$-1, %ecx
	movl	%ecx, 4(%rax)
	movq	-8(%rbp), %rax
	cmpl	$0, 4(%rax)
	je	.LBB83_3
# %bb.2:                                # %if.then22
	movq	-8(%rbp), %rax
	movl	4(%rax), %ecx
	movq	-8(%rbp), %rax
	movzbl	8(%rax), %edx
                                        # kill: def $cl killed $ecx
	shll	%cl, %edx
	movb	%dl, 8(%rax)
.LBB83_3:                               # %if.end
	movq	-8(%rbp), %rax
	movl	$8, 4(%rax)
	movq	-8(%rbp), %rax
	movb	8(%rax), %al
	movq	-8(%rbp), %rcx
	movq	32(%rcx), %rcx
	movq	-8(%rbp), %rdx
	movl	(%rdx), %esi
	movl	%esi, %edi
	addl	$1, %edi
	movl	%edi, (%rdx)
	movslq	%esi, %rdx
	movb	%al, (%rcx,%rdx)
	movq	-8(%rbp), %rax
	movb	$0, 8(%rax)
.LBB83_4:                               # %if.end33
	movq	-8(%rbp), %rax
	movl	(%rax), %eax
	movslq	-12(%rbp), %rcx
	shlq	$5, %rcx
	movabsq	$seiSubseqInfo, %rdx
	addq	%rcx, %rdx
	movl	%eax, 16(%rdx)
	cmpl	$967934680, -16(%rbp)   # imm = 0x39B182D8
	jne	.LBB83_6
.LBB83_5:
	addq	$64, %rsp
	popq	%rbp
	.cfi_def_cfa %rsp, 8
	retq
.LBB83_6:                               # %func_exit
	.cfi_def_cfa %rbp, 16
	callq	detect_breach
	jmp	.LBB83_5
.Lfunc_end83:
	.size	FinalizeSubseqInfo.34, .Lfunc_end83-FinalizeSubseqInfo.34
	.cfi_endproc
                                        # -- End function
	.globl	FinalizeSubseqChar.35   # -- Begin function FinalizeSubseqChar.35
	.p2align	4, 0x90
	.type	FinalizeSubseqChar.35,@function
FinalizeSubseqChar.35:                  # @FinalizeSubseqChar.35
	.cfi_startproc
# %bb.0:                                # %entry
	pushq	%rbp
	.cfi_def_cfa_offset 16
	.cfi_offset %rbp, -16
	movq	%rsp, %rbp
	.cfi_def_cfa_register %rbp
	subq	$80, %rsp
	movl	$1108434785, -68(%rbp)  # imm = 0x42115F61
	movq	seiSubseqChar+72, %rax
	movq	%rax, -8(%rbp)
	movl	$0, -64(%rbp)
	movabsq	$ue_linfo, %rax
	movq	%rax, -32(%rbp)
	movl	seiSubseqChar, %eax
	movl	%eax, -60(%rbp)
	movq	-8(%rbp), %rsi
	leaq	-64(%rbp), %rdi
	callq	writeSyntaxElement2Buf_UVLC
	movl	seiSubseqChar+4, %eax
	movl	%eax, -60(%rbp)
	movq	-8(%rbp), %rsi
	leaq	-64(%rbp), %rdi
	callq	writeSyntaxElement2Buf_UVLC
	movl	seiSubseqChar+8, %eax
	movl	%eax, -44(%rbp)
	movl	$1, -52(%rbp)
	movq	-8(%rbp), %rsi
	leaq	-64(%rbp), %rdi
	callq	writeSyntaxElement2Buf_Fixed
	cmpl	$0, seiSubseqChar+8
	je	.LBB84_2
# %bb.1:                                # %if.then
	movl	seiSubseqChar+12, %eax
	movl	%eax, -44(%rbp)
	movl	$32, -52(%rbp)
	movq	-8(%rbp), %rsi
	leaq	-64(%rbp), %rdi
	callq	writeSyntaxElement2Buf_Fixed
.LBB84_2:                               # %if.end
	movl	seiSubseqChar+16, %eax
	movl	%eax, -44(%rbp)
	movl	$1, -52(%rbp)
	movq	-8(%rbp), %rsi
	leaq	-64(%rbp), %rdi
	callq	writeSyntaxElement2Buf_Fixed
	cmpl	$0, seiSubseqChar+16
	je	.LBB84_4
# %bb.3:                                # %if.then11
	movl	seiSubseqChar+20, %eax
	movl	%eax, -44(%rbp)
	movl	$16, -52(%rbp)
	movq	-8(%rbp), %rsi
	leaq	-64(%rbp), %rdi
	callq	writeSyntaxElement2Buf_Fixed
	movl	seiSubseqChar+24, %eax
	movl	%eax, -44(%rbp)
	movl	$16, -52(%rbp)
	movq	-8(%rbp), %rsi
	leaq	-64(%rbp), %rdi
	callq	writeSyntaxElement2Buf_Fixed
.LBB84_4:                               # %if.end18
	movl	seiSubseqChar+28, %eax
	movl	%eax, -60(%rbp)
	movq	-8(%rbp), %rsi
	leaq	-64(%rbp), %rdi
	callq	writeSyntaxElement2Buf_UVLC
	movl	$0, -12(%rbp)
.LBB84_5:                               # %for.cond
                                        # =>This Inner Loop Header: Depth=1
	movl	-12(%rbp), %eax
	cmpl	seiSubseqChar+28, %eax
	jge	.LBB84_8
# %bb.6:                                # %for.body
                                        #   in Loop: Header=BB84_5 Depth=1
	movslq	-12(%rbp), %rax
	movl	seiSubseqChar+32(,%rax,4), %eax
	movl	%eax, -60(%rbp)
	movq	-8(%rbp), %rsi
	leaq	-64(%rbp), %rdi
	callq	writeSyntaxElement2Buf_UVLC
	movslq	-12(%rbp), %rax
	movl	seiSubseqChar+52(,%rax,4), %eax
	movl	%eax, -60(%rbp)
	movq	-8(%rbp), %rsi
	leaq	-64(%rbp), %rdi
	callq	writeSyntaxElement2Buf_UVLC
# %bb.7:                                # %for.inc
                                        #   in Loop: Header=BB84_5 Depth=1
	movl	-12(%rbp), %eax
	addl	$1, %eax
	movl	%eax, -12(%rbp)
	jmp	.LBB84_5
.LBB84_8:                               # %for.end
	movq	-8(%rbp), %rax
	cmpl	$8, 4(%rax)
	je	.LBB84_12
# %bb.9:                                # %if.then28
	movq	-8(%rbp), %rax
	movzbl	8(%rax), %ecx
	shll	$1, %ecx
	movb	%cl, 8(%rax)
	movq	-8(%rbp), %rax
	movzbl	8(%rax), %ecx
	orl	$1, %ecx
	movb	%cl, 8(%rax)
	movq	-8(%rbp), %rax
	movl	4(%rax), %ecx
	addl	$-1, %ecx
	movl	%ecx, 4(%rax)
	movq	-8(%rbp), %rax
	cmpl	$0, 4(%rax)
	je	.LBB84_11
# %bb.10:                               # %if.then37
	movq	-8(%rbp), %rax
	movl	4(%rax), %ecx
	movq	-8(%rbp), %rax
	movzbl	8(%rax), %edx
                                        # kill: def $cl killed $ecx
	shll	%cl, %edx
	movb	%dl, 8(%rax)
.LBB84_11:                              # %if.end43
	movq	-8(%rbp), %rax
	movl	$8, 4(%rax)
	movq	-8(%rbp), %rax
	movb	8(%rax), %al
	movq	-8(%rbp), %rcx
	movq	32(%rcx), %rcx
	movq	-8(%rbp), %rdx
	movl	(%rdx), %esi
	movl	%esi, %edi
	addl	$1, %edi
	movl	%edi, (%rdx)
	movslq	%esi, %rdx
	movb	%al, (%rcx,%rdx)
	movq	-8(%rbp), %rax
	movb	$0, 8(%rax)
.LBB84_12:                              # %if.end50
	movq	-8(%rbp), %rax
	movl	(%rax), %eax
	movl	%eax, seiSubseqChar+80
	cmpl	$1108434785, -68(%rbp)  # imm = 0x42115F61
	jne	.LBB84_14
.LBB84_13:
	addq	$80, %rsp
	popq	%rbp
	.cfi_def_cfa %rsp, 8
	retq
.LBB84_14:                              # %func_exit
	.cfi_def_cfa %rbp, 16
	callq	detect_breach
	jmp	.LBB84_13
.Lfunc_end84:
	.size	FinalizeSubseqChar.35, .Lfunc_end84-FinalizeSubseqChar.35
	.cfi_endproc
                                        # -- End function
	.globl	ComposeSparePictureMessage.36 # -- Begin function ComposeSparePictureMessage.36
	.p2align	4, 0x90
	.type	ComposeSparePictureMessage.36,@function
ComposeSparePictureMessage.36:          # @ComposeSparePictureMessage.36
	.cfi_startproc
# %bb.0:                                # %entry
	pushq	%rbp
	.cfi_def_cfa_offset 16
	.cfi_offset %rbp, -16
	movq	%rsp, %rbp
	.cfi_def_cfa_register %rbp
	subq	$80, %rsp
	movl	$1831349959, -16(%rbp)  # imm = 0x6D282EC7
	movl	%edi, -20(%rbp)
	movl	%esi, -12(%rbp)
	movq	%rdx, -32(%rbp)
	movq	seiSparePicturePayload+16, %rax
	movq	%rax, -8(%rbp)
	movl	$0, -80(%rbp)
	movabsq	$ue_linfo, %rax
	movq	%rax, -48(%rbp)
	movl	-20(%rbp), %eax
	movl	%eax, -76(%rbp)
	movq	-8(%rbp), %rsi
	leaq	-80(%rbp), %rdi
	callq	writeSyntaxElement2Buf_UVLC
	movl	-12(%rbp), %eax
	movl	%eax, -76(%rbp)
	movq	-8(%rbp), %rsi
	leaq	-80(%rbp), %rdi
	callq	writeSyntaxElement2Buf_UVLC
	movq	-8(%rbp), %rdi
	movq	-32(%rbp), %rsi
	callq	AppendTmpbits2Buf
	cmpl	$1831349959, -16(%rbp)  # imm = 0x6D282EC7
	jne	.LBB85_2
.LBB85_1:
	addq	$80, %rsp
	popq	%rbp
	.cfi_def_cfa %rsp, 8
	retq
.LBB85_2:                               # %func_exit
	.cfi_def_cfa %rbp, 16
	callq	detect_breach
	jmp	.LBB85_1
.Lfunc_end85:
	.size	ComposeSparePictureMessage.36, .Lfunc_end85-ComposeSparePictureMessage.36
	.cfi_endproc
                                        # -- End function
	.globl	UpdateSceneInformation.37 # -- Begin function UpdateSceneInformation.37
	.p2align	4, 0x90
	.type	UpdateSceneInformation.37,@function
UpdateSceneInformation.37:              # @UpdateSceneInformation.37
	.cfi_startproc
# %bb.0:                                # %entry
	pushq	%rbp
	.cfi_def_cfa_offset 16
	.cfi_offset %rbp, -16
	movq	%rsp, %rbp
	.cfi_def_cfa_register %rbp
	subq	$32, %rsp
	movl	$2070735222, -12(%rbp)  # imm = 0x7B6CE976
	movl	%edi, -20(%rbp)
	movl	%esi, -16(%rbp)
	movl	%edx, -4(%rbp)
	movl	%ecx, -8(%rbp)
	movl	-20(%rbp), %eax
	movl	%eax, seiHasSceneInformation
	movl	-16(%rbp), %eax
	movl	%eax, seiSceneInformation
	movl	-4(%rbp), %eax
	movl	%eax, seiSceneInformation+4
	cmpl	$3, -4(%rbp)
	jle	.LBB86_2
# %bb.1:                                # %if.then
	movl	-8(%rbp), %eax
	movl	%eax, seiSceneInformation+8
.LBB86_2:                               # %if.end
	cmpl	$2070735222, -12(%rbp)  # imm = 0x7B6CE976
	jne	.LBB86_4
.LBB86_3:
	addq	$32, %rsp
	popq	%rbp
	.cfi_def_cfa %rsp, 8
	retq
.LBB86_4:                               # %func_exit
	.cfi_def_cfa %rbp, 16
	callq	detect_breach
	jmp	.LBB86_3
.Lfunc_end86:
	.size	UpdateSceneInformation.37, .Lfunc_end86-UpdateSceneInformation.37
	.cfi_endproc
                                        # -- End function
	.globl	FinalizeSpareMBMap.38   # -- Begin function FinalizeSpareMBMap.38
	.p2align	4, 0x90
	.type	FinalizeSpareMBMap.38,@function
FinalizeSpareMBMap.38:                  # @FinalizeSpareMBMap.38
	.cfi_startproc
# %bb.0:                                # %entry
	pushq	%rbp
	.cfi_def_cfa_offset 16
	.cfi_offset %rbp, -16
	movq	%rsp, %rbp
	.cfi_def_cfa_register %rbp
	subq	$80, %rsp
	movl	$1471203412, -32(%rbp)  # imm = 0x57B0C854
	movq	img, %rax
	movl	(%rax), %eax
	cltd
	movl	$256, %ecx              # imm = 0x100
	idivl	%ecx
	movl	%edx, -28(%rbp)
	movl	$0, -80(%rbp)
	movabsq	$ue_linfo, %rax
	movq	%rax, -48(%rbp)
	movq	seiSparePicturePayload+16, %rax
	movq	%rax, -24(%rbp)
	movl	$48, %edi
	callq	malloc
	movq	%rax, -8(%rbp)
	cmpq	$0, -8(%rbp)
	jne	.LBB87_2
# %bb.1:                                # %if.then
	movabsq	$.L.str.3, %rdi
	callq	no_mem_exit
.LBB87_2:                               # %if.end
	movl	$65496, %edi            # imm = 0xFFD8
	callq	malloc
	movq	-8(%rbp), %rcx
	movq	%rax, 32(%rcx)
	movq	-8(%rbp), %rax
	cmpq	$0, 32(%rax)
	jne	.LBB87_4
# %bb.3:                                # %if.then4
	movabsq	$.L.str.4, %rdi
	callq	no_mem_exit
.LBB87_4:                               # %if.end5
	movq	-8(%rbp), %rax
	movl	$8, 4(%rax)
	movq	-8(%rbp), %rax
	movl	$0, (%rax)
	movq	-8(%rbp), %rax
	movb	$0, 8(%rax)
	movq	-8(%rbp), %rax
	movq	32(%rax), %rdi
	xorl	%esi, %esi
	movl	$65496, %edx            # imm = 0xFFD8
	callq	memset
	movl	-28(%rbp), %eax
	subl	seiSparePicturePayload, %eax
	movl	%eax, -12(%rbp)
	cmpl	$0, -12(%rbp)
	jge	.LBB87_6
# %bb.5:                                # %if.then8
	movl	-12(%rbp), %eax
	addl	$256, %eax              # imm = 0x100
	movl	%eax, -12(%rbp)
.LBB87_6:                               # %if.end9
	movl	-12(%rbp), %eax
	movl	%eax, -76(%rbp)
	movq	-8(%rbp), %rsi
	leaq	-80(%rbp), %rdi
	callq	writeSyntaxElement2Buf_UVLC
	movl	seiSparePicturePayload+4, %eax
	subl	$1, %eax
	movl	%eax, -76(%rbp)
	movq	-8(%rbp), %rsi
	leaq	-80(%rbp), %rdi
	callq	writeSyntaxElement2Buf_UVLC
	movq	-8(%rbp), %rdi
	movq	-24(%rbp), %rsi
	callq	AppendTmpbits2Buf
	movq	-8(%rbp), %rax
	cmpl	$8, 4(%rax)
	je	.LBB87_10
# %bb.7:                                # %if.then16
	movq	-8(%rbp), %rax
	movzbl	8(%rax), %ecx
	shll	$1, %ecx
	movb	%cl, 8(%rax)
	movq	-8(%rbp), %rax
	movzbl	8(%rax), %ecx
	orl	$1, %ecx
	movb	%cl, 8(%rax)
	movq	-8(%rbp), %rax
	movl	4(%rax), %ecx
	addl	$-1, %ecx
	movl	%ecx, 4(%rax)
	movq	-8(%rbp), %rax
	cmpl	$0, 4(%rax)
	je	.LBB87_9
# %bb.8:                                # %if.then26
	movq	-8(%rbp), %rax
	movl	4(%rax), %ecx
	movq	-8(%rbp), %rax
	movzbl	8(%rax), %edx
                                        # kill: def $cl killed $ecx
	shll	%cl, %edx
	movb	%dl, 8(%rax)
.LBB87_9:                               # %if.end32
	movq	-8(%rbp), %rax
	movl	$8, 4(%rax)
	movq	-8(%rbp), %rax
	movb	8(%rax), %al
	movq	-8(%rbp), %rcx
	movq	32(%rcx), %rcx
	movq	-8(%rbp), %rdx
	movl	(%rdx), %esi
	movl	%esi, %edi
	addl	$1, %edi
	movl	%edi, (%rdx)
	movslq	%esi, %rdx
	movb	%al, (%rcx,%rdx)
	movq	-8(%rbp), %rax
	movb	$0, 8(%rax)
.LBB87_10:                              # %if.end38
	movq	-8(%rbp), %rax
	movl	(%rax), %eax
	movl	%eax, seiSparePicturePayload+8
	movq	-8(%rbp), %rax
	movq	%rax, seiSparePicturePayload+16
	movq	-24(%rbp), %rax
	movq	32(%rax), %rdi
	callq	free
	movq	-24(%rbp), %rdi
	callq	free
	cmpl	$1471203412, -32(%rbp)  # imm = 0x57B0C854
	jne	.LBB87_12
.LBB87_11:
	addq	$80, %rsp
	popq	%rbp
	.cfi_def_cfa %rsp, 8
	retq
.LBB87_12:                              # %func_exit
	.cfi_def_cfa %rbp, 16
	callq	detect_breach
	jmp	.LBB87_11
.Lfunc_end87:
	.size	FinalizeSpareMBMap.38, .Lfunc_end87-FinalizeSpareMBMap.38
	.cfi_endproc
                                        # -- End function
	.globl	ComposeSparePictureMessage.39 # -- Begin function ComposeSparePictureMessage.39
	.p2align	4, 0x90
	.type	ComposeSparePictureMessage.39,@function
ComposeSparePictureMessage.39:          # @ComposeSparePictureMessage.39
	.cfi_startproc
# %bb.0:                                # %entry
	pushq	%rbp
	.cfi_def_cfa_offset 16
	.cfi_offset %rbp, -16
	movq	%rsp, %rbp
	.cfi_def_cfa_register %rbp
	subq	$80, %rsp
	movl	$1906823074, -12(%rbp)  # imm = 0x71A7CFA2
	movl	%edi, -16(%rbp)
	movl	%esi, -20(%rbp)
	movq	%rdx, -32(%rbp)
	movq	seiSparePicturePayload+16, %rax
	movq	%rax, -8(%rbp)
	movl	$0, -80(%rbp)
	movabsq	$ue_linfo, %rax
	movq	%rax, -48(%rbp)
	movl	-16(%rbp), %eax
	movl	%eax, -76(%rbp)
	movq	-8(%rbp), %rsi
	leaq	-80(%rbp), %rdi
	callq	writeSyntaxElement2Buf_UVLC
	movl	-20(%rbp), %eax
	movl	%eax, -76(%rbp)
	movq	-8(%rbp), %rsi
	leaq	-80(%rbp), %rdi
	callq	writeSyntaxElement2Buf_UVLC
	movq	-8(%rbp), %rdi
	movq	-32(%rbp), %rsi
	callq	AppendTmpbits2Buf
	cmpl	$1906823074, -12(%rbp)  # imm = 0x71A7CFA2
	jne	.LBB88_2
.LBB88_1:
	addq	$80, %rsp
	popq	%rbp
	.cfi_def_cfa %rsp, 8
	retq
.LBB88_2:                               # %func_exit
	.cfi_def_cfa %rbp, 16
	callq	detect_breach
	jmp	.LBB88_1
.Lfunc_end88:
	.size	ComposeSparePictureMessage.39, .Lfunc_end88-ComposeSparePictureMessage.39
	.cfi_endproc
                                        # -- End function
	.globl	FinalizeSpareMBMap.40   # -- Begin function FinalizeSpareMBMap.40
	.p2align	4, 0x90
	.type	FinalizeSpareMBMap.40,@function
FinalizeSpareMBMap.40:                  # @FinalizeSpareMBMap.40
	.cfi_startproc
# %bb.0:                                # %entry
	pushq	%rbp
	.cfi_def_cfa_offset 16
	.cfi_offset %rbp, -16
	movq	%rsp, %rbp
	.cfi_def_cfa_register %rbp
	subq	$80, %rsp
	movl	$697381879, -32(%rbp)   # imm = 0x299133F7
	movq	img, %rax
	movl	(%rax), %eax
	cltd
	movl	$256, %ecx              # imm = 0x100
	idivl	%ecx
	movl	%edx, -28(%rbp)
	movl	$0, -80(%rbp)
	movabsq	$ue_linfo, %rax
	movq	%rax, -48(%rbp)
	movq	seiSparePicturePayload+16, %rax
	movq	%rax, -24(%rbp)
	movl	$48, %edi
	callq	malloc
	movq	%rax, -8(%rbp)
	cmpq	$0, -8(%rbp)
	jne	.LBB89_2
# %bb.1:                                # %if.then
	movabsq	$.L.str.3, %rdi
	callq	no_mem_exit
.LBB89_2:                               # %if.end
	movl	$65496, %edi            # imm = 0xFFD8
	callq	malloc
	movq	-8(%rbp), %rcx
	movq	%rax, 32(%rcx)
	movq	-8(%rbp), %rax
	cmpq	$0, 32(%rax)
	jne	.LBB89_4
# %bb.3:                                # %if.then4
	movabsq	$.L.str.4, %rdi
	callq	no_mem_exit
.LBB89_4:                               # %if.end5
	movq	-8(%rbp), %rax
	movl	$8, 4(%rax)
	movq	-8(%rbp), %rax
	movl	$0, (%rax)
	movq	-8(%rbp), %rax
	movb	$0, 8(%rax)
	movq	-8(%rbp), %rax
	movq	32(%rax), %rdi
	xorl	%esi, %esi
	movl	$65496, %edx            # imm = 0xFFD8
	callq	memset
	movl	-28(%rbp), %eax
	subl	seiSparePicturePayload, %eax
	movl	%eax, -12(%rbp)
	cmpl	$0, -12(%rbp)
	jge	.LBB89_6
# %bb.5:                                # %if.then8
	movl	-12(%rbp), %eax
	addl	$256, %eax              # imm = 0x100
	movl	%eax, -12(%rbp)
.LBB89_6:                               # %if.end9
	movl	-12(%rbp), %eax
	movl	%eax, -76(%rbp)
	movq	-8(%rbp), %rsi
	leaq	-80(%rbp), %rdi
	callq	writeSyntaxElement2Buf_UVLC
	movl	seiSparePicturePayload+4, %eax
	subl	$1, %eax
	movl	%eax, -76(%rbp)
	movq	-8(%rbp), %rsi
	leaq	-80(%rbp), %rdi
	callq	writeSyntaxElement2Buf_UVLC
	movq	-8(%rbp), %rdi
	movq	-24(%rbp), %rsi
	callq	AppendTmpbits2Buf
	movq	-8(%rbp), %rax
	cmpl	$8, 4(%rax)
	je	.LBB89_10
# %bb.7:                                # %if.then16
	movq	-8(%rbp), %rax
	movzbl	8(%rax), %ecx
	shll	$1, %ecx
	movb	%cl, 8(%rax)
	movq	-8(%rbp), %rax
	movzbl	8(%rax), %ecx
	orl	$1, %ecx
	movb	%cl, 8(%rax)
	movq	-8(%rbp), %rax
	movl	4(%rax), %ecx
	addl	$-1, %ecx
	movl	%ecx, 4(%rax)
	movq	-8(%rbp), %rax
	cmpl	$0, 4(%rax)
	je	.LBB89_9
# %bb.8:                                # %if.then26
	movq	-8(%rbp), %rax
	movl	4(%rax), %ecx
	movq	-8(%rbp), %rax
	movzbl	8(%rax), %edx
                                        # kill: def $cl killed $ecx
	shll	%cl, %edx
	movb	%dl, 8(%rax)
.LBB89_9:                               # %if.end32
	movq	-8(%rbp), %rax
	movl	$8, 4(%rax)
	movq	-8(%rbp), %rax
	movb	8(%rax), %al
	movq	-8(%rbp), %rcx
	movq	32(%rcx), %rcx
	movq	-8(%rbp), %rdx
	movl	(%rdx), %esi
	movl	%esi, %edi
	addl	$1, %edi
	movl	%edi, (%rdx)
	movslq	%esi, %rdx
	movb	%al, (%rcx,%rdx)
	movq	-8(%rbp), %rax
	movb	$0, 8(%rax)
.LBB89_10:                              # %if.end38
	movq	-8(%rbp), %rax
	movl	(%rax), %eax
	movl	%eax, seiSparePicturePayload+8
	movq	-8(%rbp), %rax
	movq	%rax, seiSparePicturePayload+16
	movq	-24(%rbp), %rax
	movq	32(%rax), %rdi
	callq	free
	movq	-24(%rbp), %rdi
	callq	free
	cmpl	$697381879, -32(%rbp)   # imm = 0x299133F7
	jne	.LBB89_12
.LBB89_11:
	addq	$80, %rsp
	popq	%rbp
	.cfi_def_cfa %rsp, 8
	retq
.LBB89_12:                              # %func_exit
	.cfi_def_cfa %rbp, 16
	callq	detect_breach
	jmp	.LBB89_11
.Lfunc_end89:
	.size	FinalizeSpareMBMap.40, .Lfunc_end89-FinalizeSpareMBMap.40
	.cfi_endproc
                                        # -- End function
	.globl	UpdateSceneInformation.41 # -- Begin function UpdateSceneInformation.41
	.p2align	4, 0x90
	.type	UpdateSceneInformation.41,@function
UpdateSceneInformation.41:              # @UpdateSceneInformation.41
	.cfi_startproc
# %bb.0:                                # %entry
	pushq	%rbp
	.cfi_def_cfa_offset 16
	.cfi_offset %rbp, -16
	movq	%rsp, %rbp
	.cfi_def_cfa_register %rbp
	subq	$32, %rsp
	movl	$1536738849, -16(%rbp)  # imm = 0x5B98C621
	movl	%edi, -8(%rbp)
	movl	%esi, -12(%rbp)
	movl	%edx, -4(%rbp)
	movl	%ecx, -20(%rbp)
	movl	-8(%rbp), %eax
	movl	%eax, seiHasSceneInformation
	movl	-12(%rbp), %eax
	movl	%eax, seiSceneInformation
	movl	-4(%rbp), %eax
	movl	%eax, seiSceneInformation+4
	cmpl	$3, -4(%rbp)
	jle	.LBB90_2
# %bb.1:                                # %if.then
	movl	-20(%rbp), %eax
	movl	%eax, seiSceneInformation+8
.LBB90_2:                               # %if.end
	cmpl	$1536738849, -16(%rbp)  # imm = 0x5B98C621
	jne	.LBB90_4
.LBB90_3:
	addq	$32, %rsp
	popq	%rbp
	.cfi_def_cfa %rsp, 8
	retq
.LBB90_4:                               # %func_exit
	.cfi_def_cfa %rbp, 16
	callq	detect_breach
	jmp	.LBB90_3
.Lfunc_end90:
	.size	UpdateSceneInformation.41, .Lfunc_end90-UpdateSceneInformation.41
	.cfi_endproc
                                        # -- End function
	.globl	UpdateSceneInformation.42 # -- Begin function UpdateSceneInformation.42
	.p2align	4, 0x90
	.type	UpdateSceneInformation.42,@function
UpdateSceneInformation.42:              # @UpdateSceneInformation.42
	.cfi_startproc
# %bb.0:                                # %entry
	pushq	%rbp
	.cfi_def_cfa_offset 16
	.cfi_offset %rbp, -16
	movq	%rsp, %rbp
	.cfi_def_cfa_register %rbp
	subq	$32, %rsp
	movl	$2000372660, -12(%rbp)  # imm = 0x773B43B4
	movl	%edi, -20(%rbp)
	movl	%esi, -8(%rbp)
	movl	%edx, -4(%rbp)
	movl	%ecx, -16(%rbp)
	movl	-20(%rbp), %eax
	movl	%eax, seiHasSceneInformation
	movl	-8(%rbp), %eax
	movl	%eax, seiSceneInformation
	movl	-4(%rbp), %eax
	movl	%eax, seiSceneInformation+4
	cmpl	$3, -4(%rbp)
	jle	.LBB91_2
# %bb.1:                                # %if.then
	movl	-16(%rbp), %eax
	movl	%eax, seiSceneInformation+8
.LBB91_2:                               # %if.end
	cmpl	$2000372660, -12(%rbp)  # imm = 0x773B43B4
	jne	.LBB91_4
.LBB91_3:
	addq	$32, %rsp
	popq	%rbp
	.cfi_def_cfa %rsp, 8
	retq
.LBB91_4:                               # %func_exit
	.cfi_def_cfa %rbp, 16
	callq	detect_breach
	jmp	.LBB91_3
.Lfunc_end91:
	.size	UpdateSceneInformation.42, .Lfunc_end91-UpdateSceneInformation.42
	.cfi_endproc
                                        # -- End function
	.globl	FinalizeSubseqChar.43   # -- Begin function FinalizeSubseqChar.43
	.p2align	4, 0x90
	.type	FinalizeSubseqChar.43,@function
FinalizeSubseqChar.43:                  # @FinalizeSubseqChar.43
	.cfi_startproc
# %bb.0:                                # %entry
	pushq	%rbp
	.cfi_def_cfa_offset 16
	.cfi_offset %rbp, -16
	movq	%rsp, %rbp
	.cfi_def_cfa_register %rbp
	subq	$80, %rsp
	movl	$1554189274, -68(%rbp)  # imm = 0x5CA30BDA
	movq	seiSubseqChar+72, %rax
	movq	%rax, -8(%rbp)
	movl	$0, -64(%rbp)
	movabsq	$ue_linfo, %rax
	movq	%rax, -32(%rbp)
	movl	seiSubseqChar, %eax
	movl	%eax, -60(%rbp)
	movq	-8(%rbp), %rsi
	leaq	-64(%rbp), %rdi
	callq	writeSyntaxElement2Buf_UVLC
	movl	seiSubseqChar+4, %eax
	movl	%eax, -60(%rbp)
	movq	-8(%rbp), %rsi
	leaq	-64(%rbp), %rdi
	callq	writeSyntaxElement2Buf_UVLC
	movl	seiSubseqChar+8, %eax
	movl	%eax, -44(%rbp)
	movl	$1, -52(%rbp)
	movq	-8(%rbp), %rsi
	leaq	-64(%rbp), %rdi
	callq	writeSyntaxElement2Buf_Fixed
	cmpl	$0, seiSubseqChar+8
	je	.LBB92_2
# %bb.1:                                # %if.then
	movl	seiSubseqChar+12, %eax
	movl	%eax, -44(%rbp)
	movl	$32, -52(%rbp)
	movq	-8(%rbp), %rsi
	leaq	-64(%rbp), %rdi
	callq	writeSyntaxElement2Buf_Fixed
.LBB92_2:                               # %if.end
	movl	seiSubseqChar+16, %eax
	movl	%eax, -44(%rbp)
	movl	$1, -52(%rbp)
	movq	-8(%rbp), %rsi
	leaq	-64(%rbp), %rdi
	callq	writeSyntaxElement2Buf_Fixed
	cmpl	$0, seiSubseqChar+16
	je	.LBB92_4
# %bb.3:                                # %if.then11
	movl	seiSubseqChar+20, %eax
	movl	%eax, -44(%rbp)
	movl	$16, -52(%rbp)
	movq	-8(%rbp), %rsi
	leaq	-64(%rbp), %rdi
	callq	writeSyntaxElement2Buf_Fixed
	movl	seiSubseqChar+24, %eax
	movl	%eax, -44(%rbp)
	movl	$16, -52(%rbp)
	movq	-8(%rbp), %rsi
	leaq	-64(%rbp), %rdi
	callq	writeSyntaxElement2Buf_Fixed
.LBB92_4:                               # %if.end18
	movl	seiSubseqChar+28, %eax
	movl	%eax, -60(%rbp)
	movq	-8(%rbp), %rsi
	leaq	-64(%rbp), %rdi
	callq	writeSyntaxElement2Buf_UVLC
	movl	$0, -12(%rbp)
.LBB92_5:                               # %for.cond
                                        # =>This Inner Loop Header: Depth=1
	movl	-12(%rbp), %eax
	cmpl	seiSubseqChar+28, %eax
	jge	.LBB92_8
# %bb.6:                                # %for.body
                                        #   in Loop: Header=BB92_5 Depth=1
	movslq	-12(%rbp), %rax
	movl	seiSubseqChar+32(,%rax,4), %eax
	movl	%eax, -60(%rbp)
	movq	-8(%rbp), %rsi
	leaq	-64(%rbp), %rdi
	callq	writeSyntaxElement2Buf_UVLC
	movslq	-12(%rbp), %rax
	movl	seiSubseqChar+52(,%rax,4), %eax
	movl	%eax, -60(%rbp)
	movq	-8(%rbp), %rsi
	leaq	-64(%rbp), %rdi
	callq	writeSyntaxElement2Buf_UVLC
# %bb.7:                                # %for.inc
                                        #   in Loop: Header=BB92_5 Depth=1
	movl	-12(%rbp), %eax
	addl	$1, %eax
	movl	%eax, -12(%rbp)
	jmp	.LBB92_5
.LBB92_8:                               # %for.end
	movq	-8(%rbp), %rax
	cmpl	$8, 4(%rax)
	je	.LBB92_12
# %bb.9:                                # %if.then28
	movq	-8(%rbp), %rax
	movzbl	8(%rax), %ecx
	shll	$1, %ecx
	movb	%cl, 8(%rax)
	movq	-8(%rbp), %rax
	movzbl	8(%rax), %ecx
	orl	$1, %ecx
	movb	%cl, 8(%rax)
	movq	-8(%rbp), %rax
	movl	4(%rax), %ecx
	addl	$-1, %ecx
	movl	%ecx, 4(%rax)
	movq	-8(%rbp), %rax
	cmpl	$0, 4(%rax)
	je	.LBB92_11
# %bb.10:                               # %if.then37
	movq	-8(%rbp), %rax
	movl	4(%rax), %ecx
	movq	-8(%rbp), %rax
	movzbl	8(%rax), %edx
                                        # kill: def $cl killed $ecx
	shll	%cl, %edx
	movb	%dl, 8(%rax)
.LBB92_11:                              # %if.end43
	movq	-8(%rbp), %rax
	movl	$8, 4(%rax)
	movq	-8(%rbp), %rax
	movb	8(%rax), %al
	movq	-8(%rbp), %rcx
	movq	32(%rcx), %rcx
	movq	-8(%rbp), %rdx
	movl	(%rdx), %esi
	movl	%esi, %edi
	addl	$1, %edi
	movl	%edi, (%rdx)
	movslq	%esi, %rdx
	movb	%al, (%rcx,%rdx)
	movq	-8(%rbp), %rax
	movb	$0, 8(%rax)
.LBB92_12:                              # %if.end50
	movq	-8(%rbp), %rax
	movl	(%rax), %eax
	movl	%eax, seiSubseqChar+80
	cmpl	$1554189274, -68(%rbp)  # imm = 0x5CA30BDA
	jne	.LBB92_14
.LBB92_13:
	addq	$80, %rsp
	popq	%rbp
	.cfi_def_cfa %rsp, 8
	retq
.LBB92_14:                              # %func_exit
	.cfi_def_cfa %rbp, 16
	callq	detect_breach
	jmp	.LBB92_13
.Lfunc_end92:
	.size	FinalizeSubseqChar.43, .Lfunc_end92-FinalizeSubseqChar.43
	.cfi_endproc
                                        # -- End function
	.globl	AppendTmpbits2Buf.44    # -- Begin function AppendTmpbits2Buf.44
	.p2align	4, 0x90
	.type	AppendTmpbits2Buf.44,@function
AppendTmpbits2Buf.44:                   # @AppendTmpbits2Buf.44
	.cfi_startproc
# %bb.0:                                # %entry
	pushq	%rbp
	.cfi_def_cfa_offset 16
	.cfi_offset %rbp, -16
	movq	%rsp, %rbp
	.cfi_def_cfa_register %rbp
	subq	$48, %rsp
	movl	$523250579, -44(%rbp)   # imm = 0x1F302B93
	movq	%rdi, -16(%rbp)
	movq	%rsi, -40(%rbp)
	movl	$0, -24(%rbp)
.LBB93_1:                               # %for.cond
                                        # =>This Loop Header: Depth=1
                                        #     Child Loop BB93_3 Depth 2
	movl	-24(%rbp), %eax
	movq	-40(%rbp), %rcx
	cmpl	(%rcx), %eax
	jge	.LBB93_12
# %bb.2:                                # %for.body
                                        #   in Loop: Header=BB93_1 Depth=1
	movb	$-128, -1(%rbp)
	movl	$0, -20(%rbp)
.LBB93_3:                               # %for.cond1
                                        #   Parent Loop BB93_1 Depth=1
                                        # =>  This Inner Loop Header: Depth=2
	cmpl	$8, -20(%rbp)
	jge	.LBB93_10
# %bb.4:                                # %for.body3
                                        #   in Loop: Header=BB93_3 Depth=2
	movq	-16(%rbp), %rax
	movzbl	8(%rax), %ecx
	shll	$1, %ecx
	movb	%cl, 8(%rax)
	movq	-40(%rbp), %rax
	movq	32(%rax), %rax
	movslq	-24(%rbp), %rcx
	movzbl	(%rax,%rcx), %eax
	movzbl	-1(%rbp), %ecx
	andl	%ecx, %eax
	cmpl	$0, %eax
	je	.LBB93_6
# %bb.5:                                # %if.then
                                        #   in Loop: Header=BB93_3 Depth=2
	movq	-16(%rbp), %rax
	movzbl	8(%rax), %ecx
	orl	$1, %ecx
	movb	%cl, 8(%rax)
.LBB93_6:                               # %if.end
                                        #   in Loop: Header=BB93_3 Depth=2
	movq	-16(%rbp), %rax
	movl	4(%rax), %ecx
	addl	$-1, %ecx
	movl	%ecx, 4(%rax)
	movzbl	-1(%rbp), %eax
	sarl	$1, %eax
	movb	%al, -1(%rbp)
	movq	-16(%rbp), %rax
	cmpl	$0, 4(%rax)
	jne	.LBB93_8
# %bb.7:                                # %if.then15
                                        #   in Loop: Header=BB93_3 Depth=2
	movq	-16(%rbp), %rax
	movl	$8, 4(%rax)
	movq	-16(%rbp), %rax
	movb	8(%rax), %al
	movq	-16(%rbp), %rcx
	movq	32(%rcx), %rcx
	movq	-16(%rbp), %rdx
	movl	(%rdx), %esi
	movl	%esi, %edi
	addl	$1, %edi
	movl	%edi, (%rdx)
	movslq	%esi, %rdx
	movb	%al, (%rcx,%rdx)
	movq	-16(%rbp), %rax
	movb	$0, 8(%rax)
.LBB93_8:                               # %if.end23
                                        #   in Loop: Header=BB93_3 Depth=2
	jmp	.LBB93_9
.LBB93_9:                               # %for.inc
                                        #   in Loop: Header=BB93_3 Depth=2
	movl	-20(%rbp), %eax
	addl	$1, %eax
	movl	%eax, -20(%rbp)
	jmp	.LBB93_3
.LBB93_10:                              # %for.end
                                        #   in Loop: Header=BB93_1 Depth=1
	jmp	.LBB93_11
.LBB93_11:                              # %for.inc25
                                        #   in Loop: Header=BB93_1 Depth=1
	movl	-24(%rbp), %eax
	addl	$1, %eax
	movl	%eax, -24(%rbp)
	jmp	.LBB93_1
.LBB93_12:                              # %for.end27
	movq	-40(%rbp), %rax
	movl	$8, %ecx
	subl	4(%rax), %ecx
	movl	%ecx, -28(%rbp)
	cmpl	$0, -28(%rbp)
	jle	.LBB93_22
# %bb.13:                               # %if.then31
	movl	-28(%rbp), %ecx
	subl	$1, %ecx
                                        # kill: def $cl killed $ecx
	movl	$1, %eax
	shll	%cl, %eax
	movb	%al, -1(%rbp)
	movl	$0, -20(%rbp)
.LBB93_14:                              # %for.cond35
                                        # =>This Inner Loop Header: Depth=1
	movl	-20(%rbp), %eax
	cmpl	-28(%rbp), %eax
	jge	.LBB93_21
# %bb.15:                               # %for.body38
                                        #   in Loop: Header=BB93_14 Depth=1
	movq	-16(%rbp), %rax
	movzbl	8(%rax), %ecx
	shll	$1, %ecx
	movb	%cl, 8(%rax)
	movq	-40(%rbp), %rax
	movzbl	8(%rax), %eax
	movzbl	-1(%rbp), %ecx
	andl	%ecx, %eax
	cmpl	$0, %eax
	je	.LBB93_17
# %bb.16:                               # %if.then48
                                        #   in Loop: Header=BB93_14 Depth=1
	movq	-16(%rbp), %rax
	movzbl	8(%rax), %ecx
	orl	$1, %ecx
	movb	%cl, 8(%rax)
.LBB93_17:                              # %if.end53
                                        #   in Loop: Header=BB93_14 Depth=1
	movq	-16(%rbp), %rax
	movl	4(%rax), %ecx
	addl	$-1, %ecx
	movl	%ecx, 4(%rax)
	movzbl	-1(%rbp), %eax
	sarl	$1, %eax
	movb	%al, -1(%rbp)
	movq	-16(%rbp), %rax
	cmpl	$0, 4(%rax)
	jne	.LBB93_19
# %bb.18:                               # %if.then62
                                        #   in Loop: Header=BB93_14 Depth=1
	movq	-16(%rbp), %rax
	movl	$8, 4(%rax)
	movq	-16(%rbp), %rax
	movb	8(%rax), %al
	movq	-16(%rbp), %rcx
	movq	32(%rcx), %rcx
	movq	-16(%rbp), %rdx
	movl	(%rdx), %esi
	movl	%esi, %edi
	addl	$1, %edi
	movl	%edi, (%rdx)
	movslq	%esi, %rdx
	movb	%al, (%rcx,%rdx)
	movq	-16(%rbp), %rax
	movb	$0, 8(%rax)
.LBB93_19:                              # %if.end71
