	.text
	.file	"slice.c"
	.globl	init_ref_pic_list_reordering # -- Begin function init_ref_pic_list_reordering
	.p2align	4, 0x90
	.type	init_ref_pic_list_reordering,@function
init_ref_pic_list_reordering:           # @init_ref_pic_list_reordering
	.cfi_startproc
# %bb.0:                                # %entry
	pushq	%rbp
	.cfi_def_cfa_offset 16
	.cfi_offset %rbp, -16
	movq	%rsp, %rbp
	.cfi_def_cfa_register %rbp
	movq	img, %rax
	movq	14160(%rax), %rax
	movq	%rax, -8(%rbp)
	movq	-8(%rbp), %rax
	movl	$0, 56(%rax)
	movq	-8(%rbp), %rax
	movl	$0, 88(%rax)
	popq	%rbp
	.cfi_def_cfa %rsp, 8
	retq
.Lfunc_end0:
	.size	init_ref_pic_list_reordering, .Lfunc_end0-init_ref_pic_list_reordering
	.cfi_endproc
                                        # -- End function
	.globl	start_slice             # -- Begin function start_slice
	.p2align	4, 0x90
	.type	start_slice,@function
start_slice:                            # @start_slice
	.cfi_startproc
# %bb.0:                                # %rand_bb
	pushq	%rbp
	.cfi_def_cfa_offset 16
	.cfi_offset %rbp, -16
	movq	%rsp, %rbp
	.cfi_def_cfa_register %rbp
	callq	get_rand
	cmpl	$0, %eax
	jne	.LBB1_17
# %bb.1:                                # %func_start_slice.8
	callq	start_slice.8
	popq	%rbp
	.cfi_def_cfa %rsp, 8
	retq
.LBB1_2:                                # %func_start_slice.10
	.cfi_def_cfa %rbp, 16
	callq	start_slice.10
	popq	%rbp
	.cfi_def_cfa %rsp, 8
	retq
.LBB1_3:                                # %func_start_slice.20
	.cfi_def_cfa %rbp, 16
	callq	start_slice.20
	popq	%rbp
	.cfi_def_cfa %rsp, 8
	retq
.LBB1_4:                                # %func_start_slice.22
	.cfi_def_cfa %rbp, 16
	callq	start_slice.22
	popq	%rbp
	.cfi_def_cfa %rsp, 8
	retq
.LBB1_5:                                # %func_start_slice.40
	.cfi_def_cfa %rbp, 16
	callq	start_slice.40
	popq	%rbp
	.cfi_def_cfa %rsp, 8
	retq
.LBB1_6:                                # %func_start_slice.42
	.cfi_def_cfa %rbp, 16
	callq	start_slice.42
	popq	%rbp
	.cfi_def_cfa %rsp, 8
	retq
.LBB1_7:                                # %func_start_slice.43
	.cfi_def_cfa %rbp, 16
	callq	start_slice.43
	popq	%rbp
	.cfi_def_cfa %rsp, 8
	retq
.LBB1_8:                                # %func_start_slice.47
	.cfi_def_cfa %rbp, 16
	callq	start_slice.47
	popq	%rbp
	.cfi_def_cfa %rsp, 8
	retq
.LBB1_9:                                # %func_start_slice.53
	.cfi_def_cfa %rbp, 16
	callq	start_slice.53
	popq	%rbp
	.cfi_def_cfa %rsp, 8
	retq
.LBB1_10:                               # %func_start_slice.55
	.cfi_def_cfa %rbp, 16
	callq	start_slice.55
	popq	%rbp
	.cfi_def_cfa %rsp, 8
	retq
.LBB1_11:                               # %func_start_slice.57
	.cfi_def_cfa %rbp, 16
	callq	start_slice.57
	popq	%rbp
	.cfi_def_cfa %rsp, 8
	retq
.LBB1_12:                               # %func_start_slice.77
	.cfi_def_cfa %rbp, 16
	callq	start_slice.77
	popq	%rbp
	.cfi_def_cfa %rsp, 8
	retq
.LBB1_13:                               # %func_start_slice.79
	.cfi_def_cfa %rbp, 16
	callq	start_slice.79
	popq	%rbp
	.cfi_def_cfa %rsp, 8
	retq
.LBB1_14:                               # %func_start_slice.80
	.cfi_def_cfa %rbp, 16
	callq	start_slice.80
	popq	%rbp
	.cfi_def_cfa %rsp, 8
	retq
.LBB1_15:                               # %func_start_slice.81
	.cfi_def_cfa %rbp, 16
	callq	start_slice.81
	popq	%rbp
	.cfi_def_cfa %rsp, 8
	retq
.LBB1_16:                               # %func_start_slice.83
	.cfi_def_cfa %rbp, 16
	callq	start_slice.83
	popq	%rbp
	.cfi_def_cfa %rsp, 8
	retq
.LBB1_17:                               # %ctrl0
	.cfi_def_cfa %rbp, 16
	cmpl	$1, %eax
	je	.LBB1_2
# %bb.18:                               # %ctrl1
	cmpl	$2, %eax
	je	.LBB1_3
# %bb.19:                               # %ctrl2
	cmpl	$3, %eax
	je	.LBB1_4
# %bb.20:                               # %ctrl3
	cmpl	$4, %eax
	je	.LBB1_5
# %bb.21:                               # %ctrl4
	cmpl	$5, %eax
	je	.LBB1_6
# %bb.22:                               # %ctrl5
	cmpl	$6, %eax
	je	.LBB1_7
# %bb.23:                               # %ctrl6
	cmpl	$7, %eax
	je	.LBB1_8
# %bb.24:                               # %ctrl7
	cmpl	$8, %eax
	je	.LBB1_9
# %bb.25:                               # %ctrl8
	cmpl	$9, %eax
	je	.LBB1_10
# %bb.26:                               # %ctrl9
	cmpl	$10, %eax
	je	.LBB1_11
# %bb.27:                               # %ctrl10
	cmpl	$11, %eax
	je	.LBB1_12
# %bb.28:                               # %ctrl11
	cmpl	$12, %eax
	je	.LBB1_13
# %bb.29:                               # %ctrl12
	cmpl	$13, %eax
	je	.LBB1_14
# %bb.30:                               # %ctrl13
	cmpl	$14, %eax
	je	.LBB1_15
	jmp	.LBB1_16
.Lfunc_end1:
	.size	start_slice, .Lfunc_end1-start_slice
	.cfi_endproc
                                        # -- End function
	.globl	terminate_slice         # -- Begin function terminate_slice
	.p2align	4, 0x90
	.type	terminate_slice,@function
terminate_slice:                        # @terminate_slice
	.cfi_startproc
# %bb.0:                                # %rand_bb
	pushq	%rbp
	.cfi_def_cfa_offset 16
	.cfi_offset %rbp, -16
	movq	%rsp, %rbp
	.cfi_def_cfa_register %rbp
	callq	get_rand
	cmpl	$0, %eax
	jne	.LBB2_17
# %bb.1:                                # %func_terminate_slice.28
	callq	terminate_slice.28
	popq	%rbp
	.cfi_def_cfa %rsp, 8
	retq
.LBB2_2:                                # %func_terminate_slice.31
	.cfi_def_cfa %rbp, 16
	callq	terminate_slice.31
	popq	%rbp
	.cfi_def_cfa %rsp, 8
	retq
.LBB2_3:                                # %func_terminate_slice.33
	.cfi_def_cfa %rbp, 16
	callq	terminate_slice.33
	popq	%rbp
	.cfi_def_cfa %rsp, 8
	retq
.LBB2_4:                                # %func_terminate_slice.41
	.cfi_def_cfa %rbp, 16
	callq	terminate_slice.41
	popq	%rbp
	.cfi_def_cfa %rsp, 8
	retq
.LBB2_5:                                # %func_terminate_slice.51
	.cfi_def_cfa %rbp, 16
	callq	terminate_slice.51
	popq	%rbp
	.cfi_def_cfa %rsp, 8
	retq
.LBB2_6:                                # %func_terminate_slice.73
	.cfi_def_cfa %rbp, 16
	callq	terminate_slice.73
	popq	%rbp
	.cfi_def_cfa %rsp, 8
	retq
.LBB2_7:                                # %func_terminate_slice.82
	.cfi_def_cfa %rbp, 16
	callq	terminate_slice.82
	popq	%rbp
	.cfi_def_cfa %rsp, 8
	retq
.LBB2_8:                                # %func_terminate_slice.86
	.cfi_def_cfa %rbp, 16
	callq	terminate_slice.86
	popq	%rbp
	.cfi_def_cfa %rsp, 8
	retq
.LBB2_9:                                # %func_terminate_slice.88
	.cfi_def_cfa %rbp, 16
	callq	terminate_slice.88
	popq	%rbp
	.cfi_def_cfa %rsp, 8
	retq
.LBB2_10:                               # %func_terminate_slice.89
	.cfi_def_cfa %rbp, 16
	callq	terminate_slice.89
	popq	%rbp
	.cfi_def_cfa %rsp, 8
	retq
.LBB2_11:                               # %func_terminate_slice.93
	.cfi_def_cfa %rbp, 16
	callq	terminate_slice.93
	popq	%rbp
	.cfi_def_cfa %rsp, 8
	retq
.LBB2_12:                               # %func_terminate_slice.96
	.cfi_def_cfa %rbp, 16
	callq	terminate_slice.96
	popq	%rbp
	.cfi_def_cfa %rsp, 8
	retq
.LBB2_13:                               # %func_terminate_slice.100
	.cfi_def_cfa %rbp, 16
	callq	terminate_slice.100
	popq	%rbp
	.cfi_def_cfa %rsp, 8
	retq
.LBB2_14:                               # %func_terminate_slice.103
	.cfi_def_cfa %rbp, 16
	callq	terminate_slice.103
	popq	%rbp
	.cfi_def_cfa %rsp, 8
	retq
.LBB2_15:                               # %func_terminate_slice.104
	.cfi_def_cfa %rbp, 16
	callq	terminate_slice.104
	popq	%rbp
	.cfi_def_cfa %rsp, 8
	retq
.LBB2_16:                               # %func_terminate_slice.108
	.cfi_def_cfa %rbp, 16
	callq	terminate_slice.108
	popq	%rbp
	.cfi_def_cfa %rsp, 8
	retq
.LBB2_17:                               # %ctrl0
	.cfi_def_cfa %rbp, 16
	cmpl	$1, %eax
	je	.LBB2_2
# %bb.18:                               # %ctrl1
	cmpl	$2, %eax
	je	.LBB2_3
# %bb.19:                               # %ctrl2
	cmpl	$3, %eax
	je	.LBB2_4
# %bb.20:                               # %ctrl3
	cmpl	$4, %eax
	je	.LBB2_5
# %bb.21:                               # %ctrl4
	cmpl	$5, %eax
	je	.LBB2_6
# %bb.22:                               # %ctrl5
	cmpl	$6, %eax
	je	.LBB2_7
# %bb.23:                               # %ctrl6
	cmpl	$7, %eax
	je	.LBB2_8
# %bb.24:                               # %ctrl7
	cmpl	$8, %eax
	je	.LBB2_9
# %bb.25:                               # %ctrl8
	cmpl	$9, %eax
	je	.LBB2_10
# %bb.26:                               # %ctrl9
	cmpl	$10, %eax
	je	.LBB2_11
# %bb.27:                               # %ctrl10
	cmpl	$11, %eax
	je	.LBB2_12
# %bb.28:                               # %ctrl11
	cmpl	$12, %eax
	je	.LBB2_13
# %bb.29:                               # %ctrl12
	cmpl	$13, %eax
	je	.LBB2_14
# %bb.30:                               # %ctrl13
	cmpl	$14, %eax
	je	.LBB2_15
	jmp	.LBB2_16
.Lfunc_end2:
	.size	terminate_slice, .Lfunc_end2-terminate_slice
	.cfi_endproc
                                        # -- End function
	.globl	encode_one_slice        # -- Begin function encode_one_slice
	.p2align	4, 0x90
	.type	encode_one_slice,@function
encode_one_slice:                       # @encode_one_slice
	.cfi_startproc
# %bb.0:                                # %rand_bb
	pushq	%rbp
	.cfi_def_cfa_offset 16
	.cfi_offset %rbp, -16
	movq	%rsp, %rbp
	.cfi_def_cfa_register %rbp
	pushq	%r14
	pushq	%rbx
	.cfi_offset %rbx, -32
	.cfi_offset %r14, -24
	movq	%rsi, %r14
	movl	%edi, %ebx
	callq	get_rand
	cmpl	$0, %eax
	jne	.LBB3_17
# %bb.1:                                # %func_encode_one_slice.1
	movl	%ebx, %edi
	movq	%r14, %rsi
	callq	encode_one_slice.1
	popq	%rbx
	popq	%r14
	popq	%rbp
	.cfi_def_cfa %rsp, 8
	retq
.LBB3_2:                                # %func_encode_one_slice.34
	.cfi_def_cfa %rbp, 16
	movl	%ebx, %edi
	movq	%r14, %rsi
	callq	encode_one_slice.34
	popq	%rbx
	popq	%r14
	popq	%rbp
	.cfi_def_cfa %rsp, 8
	retq
.LBB3_3:                                # %func_encode_one_slice.35
	.cfi_def_cfa %rbp, 16
	movl	%ebx, %edi
	movq	%r14, %rsi
	callq	encode_one_slice.35
	popq	%rbx
	popq	%r14
	popq	%rbp
	.cfi_def_cfa %rsp, 8
	retq
.LBB3_4:                                # %func_encode_one_slice.39
	.cfi_def_cfa %rbp, 16
	movl	%ebx, %edi
	movq	%r14, %rsi
	callq	encode_one_slice.39
	popq	%rbx
	popq	%r14
	popq	%rbp
	.cfi_def_cfa %rsp, 8
	retq
.LBB3_5:                                # %func_encode_one_slice.45
	.cfi_def_cfa %rbp, 16
	movl	%ebx, %edi
	movq	%r14, %rsi
	callq	encode_one_slice.45
	popq	%rbx
	popq	%r14
	popq	%rbp
	.cfi_def_cfa %rsp, 8
	retq
.LBB3_6:                                # %func_encode_one_slice.46
	.cfi_def_cfa %rbp, 16
	movl	%ebx, %edi
	movq	%r14, %rsi
	callq	encode_one_slice.46
	popq	%rbx
	popq	%r14
	popq	%rbp
	.cfi_def_cfa %rsp, 8
	retq
.LBB3_7:                                # %func_encode_one_slice.54
	.cfi_def_cfa %rbp, 16
	movl	%ebx, %edi
	movq	%r14, %rsi
	callq	encode_one_slice.54
	popq	%rbx
	popq	%r14
	popq	%rbp
	.cfi_def_cfa %rsp, 8
	retq
.LBB3_8:                                # %func_encode_one_slice.85
	.cfi_def_cfa %rbp, 16
	movl	%ebx, %edi
	movq	%r14, %rsi
	callq	encode_one_slice.85
	popq	%rbx
	popq	%r14
	popq	%rbp
	.cfi_def_cfa %rsp, 8
	retq
.LBB3_9:                                # %func_encode_one_slice.87
	.cfi_def_cfa %rbp, 16
	movl	%ebx, %edi
	movq	%r14, %rsi
	callq	encode_one_slice.87
	popq	%rbx
	popq	%r14
	popq	%rbp
	.cfi_def_cfa %rsp, 8
	retq
.LBB3_10:                               # %func_encode_one_slice.92
	.cfi_def_cfa %rbp, 16
	movl	%ebx, %edi
	movq	%r14, %rsi
	callq	encode_one_slice.92
	popq	%rbx
	popq	%r14
	popq	%rbp
	.cfi_def_cfa %rsp, 8
	retq
.LBB3_11:                               # %func_encode_one_slice.94
	.cfi_def_cfa %rbp, 16
	movl	%ebx, %edi
	movq	%r14, %rsi
	callq	encode_one_slice.94
	popq	%rbx
	popq	%r14
	popq	%rbp
	.cfi_def_cfa %rsp, 8
	retq
.LBB3_12:                               # %func_encode_one_slice.95
	.cfi_def_cfa %rbp, 16
	movl	%ebx, %edi
	movq	%r14, %rsi
	callq	encode_one_slice.95
	popq	%rbx
	popq	%r14
	popq	%rbp
	.cfi_def_cfa %rsp, 8
	retq
.LBB3_13:                               # %func_encode_one_slice.99
	.cfi_def_cfa %rbp, 16
	movl	%ebx, %edi
	movq	%r14, %rsi
	callq	encode_one_slice.99
	popq	%rbx
	popq	%r14
	popq	%rbp
	.cfi_def_cfa %rsp, 8
	retq
.LBB3_14:                               # %func_encode_one_slice.105
	.cfi_def_cfa %rbp, 16
	movl	%ebx, %edi
	movq	%r14, %rsi
	callq	encode_one_slice.105
	popq	%rbx
	popq	%r14
	popq	%rbp
	.cfi_def_cfa %rsp, 8
	retq
.LBB3_15:                               # %func_encode_one_slice.106
	.cfi_def_cfa %rbp, 16
	movl	%ebx, %edi
	movq	%r14, %rsi
	callq	encode_one_slice.106
	popq	%rbx
	popq	%r14
	popq	%rbp
	.cfi_def_cfa %rsp, 8
	retq
.LBB3_16:                               # %func_encode_one_slice.107
	.cfi_def_cfa %rbp, 16
	movl	%ebx, %edi
	movq	%r14, %rsi
	callq	encode_one_slice.107
	popq	%rbx
	popq	%r14
	popq	%rbp
	.cfi_def_cfa %rsp, 8
	retq
.LBB3_17:                               # %ctrl0
	.cfi_def_cfa %rbp, 16
	cmpl	$1, %eax
	je	.LBB3_2
# %bb.18:                               # %ctrl1
	cmpl	$2, %eax
	je	.LBB3_3
# %bb.19:                               # %ctrl2
	cmpl	$3, %eax
	je	.LBB3_4
# %bb.20:                               # %ctrl3
	cmpl	$4, %eax
	je	.LBB3_5
# %bb.21:                               # %ctrl4
	cmpl	$5, %eax
	je	.LBB3_6
# %bb.22:                               # %ctrl5
	cmpl	$6, %eax
	je	.LBB3_7
# %bb.23:                               # %ctrl6
	cmpl	$7, %eax
	je	.LBB3_8
# %bb.24:                               # %ctrl7
	cmpl	$8, %eax
	je	.LBB3_9
# %bb.25:                               # %ctrl8
	cmpl	$9, %eax
	je	.LBB3_10
# %bb.26:                               # %ctrl9
	cmpl	$10, %eax
	je	.LBB3_11
# %bb.27:                               # %ctrl10
	cmpl	$11, %eax
	je	.LBB3_12
# %bb.28:                               # %ctrl11
	cmpl	$12, %eax
	je	.LBB3_13
# %bb.29:                               # %ctrl12
	cmpl	$13, %eax
	je	.LBB3_14
# %bb.30:                               # %ctrl13
	cmpl	$14, %eax
	je	.LBB3_15
	jmp	.LBB3_16
.Lfunc_end3:
	.size	encode_one_slice, .Lfunc_end3-encode_one_slice
	.cfi_endproc
                                        # -- End function
	.p2align	4, 0x90         # -- Begin function init_slice
	.type	init_slice,@function
init_slice:                             # @init_slice
	.cfi_startproc
# %bb.0:                                # %rand_bb
	pushq	%rbp
	.cfi_def_cfa_offset 16
	.cfi_offset %rbp, -16
	movq	%rsp, %rbp
	.cfi_def_cfa_register %rbp
	pushq	%rbx
	pushq	%rax
	.cfi_offset %rbx, -24
	movl	%edi, %ebx
	callq	get_rand
	cmpl	$0, %eax
	jne	.LBB4_17
# %bb.1:                                # %func_init_slice.9
	movl	%ebx, %edi
	callq	init_slice.9
	addq	$8, %rsp
	popq	%rbx
	popq	%rbp
	.cfi_def_cfa %rsp, 8
	retq
.LBB4_2:                                # %func_init_slice.19
	.cfi_def_cfa %rbp, 16
	movl	%ebx, %edi
	callq	init_slice.19
	addq	$8, %rsp
	popq	%rbx
	popq	%rbp
	.cfi_def_cfa %rsp, 8
	retq
.LBB4_3:                                # %func_init_slice.21
	.cfi_def_cfa %rbp, 16
	movl	%ebx, %edi
	callq	init_slice.21
	addq	$8, %rsp
	popq	%rbx
	popq	%rbp
	.cfi_def_cfa %rsp, 8
	retq
.LBB4_4:                                # %func_init_slice.48
	.cfi_def_cfa %rbp, 16
	movl	%ebx, %edi
	callq	init_slice.48
	addq	$8, %rsp
	popq	%rbx
	popq	%rbp
	.cfi_def_cfa %rsp, 8
	retq
.LBB4_5:                                # %func_init_slice.50
	.cfi_def_cfa %rbp, 16
	movl	%ebx, %edi
	callq	init_slice.50
	addq	$8, %rsp
	popq	%rbx
	popq	%rbp
	.cfi_def_cfa %rsp, 8
	retq
.LBB4_6:                                # %func_init_slice.59
	.cfi_def_cfa %rbp, 16
	movl	%ebx, %edi
	callq	init_slice.59
	addq	$8, %rsp
	popq	%rbx
	popq	%rbp
	.cfi_def_cfa %rsp, 8
	retq
.LBB4_7:                                # %func_init_slice.68
	.cfi_def_cfa %rbp, 16
	movl	%ebx, %edi
	callq	init_slice.68
	addq	$8, %rsp
	popq	%rbx
	popq	%rbp
	.cfi_def_cfa %rsp, 8
	retq
.LBB4_8:                                # %func_init_slice.69
	.cfi_def_cfa %rbp, 16
	movl	%ebx, %edi
	callq	init_slice.69
	addq	$8, %rsp
	popq	%rbx
	popq	%rbp
	.cfi_def_cfa %rsp, 8
	retq
.LBB4_9:                                # %func_init_slice.72
	.cfi_def_cfa %rbp, 16
	movl	%ebx, %edi
	callq	init_slice.72
	addq	$8, %rsp
	popq	%rbx
	popq	%rbp
	.cfi_def_cfa %rsp, 8
	retq
.LBB4_10:                               # %func_init_slice.84
	.cfi_def_cfa %rbp, 16
	movl	%ebx, %edi
	callq	init_slice.84
	addq	$8, %rsp
	popq	%rbx
	popq	%rbp
	.cfi_def_cfa %rsp, 8
	retq
.LBB4_11:                               # %func_init_slice.90
	.cfi_def_cfa %rbp, 16
	movl	%ebx, %edi
	callq	init_slice.90
	addq	$8, %rsp
	popq	%rbx
	popq	%rbp
	.cfi_def_cfa %rsp, 8
	retq
.LBB4_12:                               # %func_init_slice.91
	.cfi_def_cfa %rbp, 16
	movl	%ebx, %edi
	callq	init_slice.91
	addq	$8, %rsp
	popq	%rbx
	popq	%rbp
	.cfi_def_cfa %rsp, 8
	retq
.LBB4_13:                               # %func_init_slice.97
	.cfi_def_cfa %rbp, 16
	movl	%ebx, %edi
	callq	init_slice.97
	addq	$8, %rsp
	popq	%rbx
	popq	%rbp
	.cfi_def_cfa %rsp, 8
	retq
.LBB4_14:                               # %func_init_slice.98
	.cfi_def_cfa %rbp, 16
	movl	%ebx, %edi
	callq	init_slice.98
	addq	$8, %rsp
	popq	%rbx
	popq	%rbp
	.cfi_def_cfa %rsp, 8
	retq
.LBB4_15:                               # %func_init_slice.101
	.cfi_def_cfa %rbp, 16
	movl	%ebx, %edi
	callq	init_slice.101
	addq	$8, %rsp
	popq	%rbx
	popq	%rbp
	.cfi_def_cfa %rsp, 8
	retq
.LBB4_16:                               # %func_init_slice.102
	.cfi_def_cfa %rbp, 16
	movl	%ebx, %edi
	callq	init_slice.102
	addq	$8, %rsp
	popq	%rbx
	popq	%rbp
	.cfi_def_cfa %rsp, 8
	retq
.LBB4_17:                               # %ctrl0
	.cfi_def_cfa %rbp, 16
	cmpl	$1, %eax
	je	.LBB4_2
# %bb.18:                               # %ctrl1
	cmpl	$2, %eax
	je	.LBB4_3
# %bb.19:                               # %ctrl2
	cmpl	$3, %eax
	je	.LBB4_4
# %bb.20:                               # %ctrl3
	cmpl	$4, %eax
	je	.LBB4_5
# %bb.21:                               # %ctrl4
	cmpl	$5, %eax
	je	.LBB4_6
# %bb.22:                               # %ctrl5
	cmpl	$6, %eax
	je	.LBB4_7
# %bb.23:                               # %ctrl6
	cmpl	$7, %eax
	je	.LBB4_8
# %bb.24:                               # %ctrl7
	cmpl	$8, %eax
	je	.LBB4_9
# %bb.25:                               # %ctrl8
	cmpl	$9, %eax
	je	.LBB4_10
# %bb.26:                               # %ctrl9
	cmpl	$10, %eax
	je	.LBB4_11
# %bb.27:                               # %ctrl10
	cmpl	$11, %eax
	je	.LBB4_12
# %bb.28:                               # %ctrl11
	cmpl	$12, %eax
	je	.LBB4_13
# %bb.29:                               # %ctrl12
	cmpl	$13, %eax
	je	.LBB4_14
# %bb.30:                               # %ctrl13
	cmpl	$14, %eax
	je	.LBB4_15
	jmp	.LBB4_16
.Lfunc_end4:
	.size	init_slice, .Lfunc_end4-init_slice
	.cfi_endproc
                                        # -- End function
	.globl	free_slice_list         # -- Begin function free_slice_list
	.p2align	4, 0x90
	.type	free_slice_list,@function
free_slice_list:                        # @free_slice_list
	.cfi_startproc
# %bb.0:                                # %rand_bb
	pushq	%rbp
	.cfi_def_cfa_offset 16
	.cfi_offset %rbp, -16
	movq	%rsp, %rbp
	.cfi_def_cfa_register %rbp
	pushq	%rbx
	pushq	%rax
	.cfi_offset %rbx, -24
	movq	%rdi, %rbx
	callq	get_rand
	cmpl	$0, %eax
	jne	.LBB5_2
# %bb.1:                                # %func_free_slice_list.5
	movq	%rbx, %rdi
	callq	free_slice_list.5
	addq	$8, %rsp
	popq	%rbx
	popq	%rbp
	.cfi_def_cfa %rsp, 8
	retq
.LBB5_2:                                # %func_free_slice_list.13
	.cfi_def_cfa %rbp, 16
	movq	%rbx, %rdi
	callq	free_slice_list.13
	addq	$8, %rsp
	popq	%rbx
	popq	%rbp
	.cfi_def_cfa %rsp, 8
	retq
.Lfunc_end5:
	.size	free_slice_list, .Lfunc_end5-free_slice_list
	.cfi_endproc
                                        # -- End function
	.p2align	4, 0x90         # -- Begin function free_slice
	.type	free_slice,@function
free_slice:                             # @free_slice
	.cfi_startproc
# %bb.0:                                # %rand_bb
	pushq	%rbp
	.cfi_def_cfa_offset 16
	.cfi_offset %rbp, -16
	movq	%rsp, %rbp
	.cfi_def_cfa_register %rbp
	pushq	%rbx
	pushq	%rax
	.cfi_offset %rbx, -24
	movq	%rdi, %rbx
	callq	get_rand
	cmpl	$0, %eax
	jne	.LBB6_7
# %bb.1:                                # %func_free_slice.4
	movq	%rbx, %rdi
	callq	free_slice.4
	addq	$8, %rsp
	popq	%rbx
	popq	%rbp
	.cfi_def_cfa %rsp, 8
	retq
.LBB6_2:                                # %func_free_slice.14
	.cfi_def_cfa %rbp, 16
	movq	%rbx, %rdi
	callq	free_slice.14
	addq	$8, %rsp
	popq	%rbx
	popq	%rbp
	.cfi_def_cfa %rsp, 8
	retq
.LBB6_3:                                # %func_free_slice.15
	.cfi_def_cfa %rbp, 16
	movq	%rbx, %rdi
	callq	free_slice.15
	addq	$8, %rsp
	popq	%rbx
	popq	%rbp
	.cfi_def_cfa %rsp, 8
	retq
.LBB6_4:                                # %func_free_slice.18
	.cfi_def_cfa %rbp, 16
	movq	%rbx, %rdi
	callq	free_slice.18
	addq	$8, %rsp
	popq	%rbx
	popq	%rbp
	.cfi_def_cfa %rsp, 8
	retq
.LBB6_5:                                # %func_free_slice.23
	.cfi_def_cfa %rbp, 16
	movq	%rbx, %rdi
	callq	free_slice.23
	addq	$8, %rsp
	popq	%rbx
	popq	%rbp
	.cfi_def_cfa %rsp, 8
	retq
.LBB6_6:                                # %func_free_slice.30
	.cfi_def_cfa %rbp, 16
	movq	%rbx, %rdi
	callq	free_slice.30
	addq	$8, %rsp
	popq	%rbx
	popq	%rbp
	.cfi_def_cfa %rsp, 8
	retq
.LBB6_7:                                # %ctrl0
	.cfi_def_cfa %rbp, 16
	cmpl	$1, %eax
	je	.LBB6_2
# %bb.8:                                # %ctrl1
	cmpl	$2, %eax
	je	.LBB6_3
# %bb.9:                                # %ctrl2
	cmpl	$3, %eax
	je	.LBB6_4
# %bb.10:                               # %ctrl3
	cmpl	$4, %eax
	je	.LBB6_5
	jmp	.LBB6_6
.Lfunc_end6:
	.size	free_slice, .Lfunc_end6-free_slice
	.cfi_endproc
                                        # -- End function
	.globl	modify_redundant_pic_cnt # -- Begin function modify_redundant_pic_cnt
	.p2align	4, 0x90
	.type	modify_redundant_pic_cnt,@function
modify_redundant_pic_cnt:               # @modify_redundant_pic_cnt
	.cfi_startproc
# %bb.0:                                # %rand_bb
	pushq	%rbp
	.cfi_def_cfa_offset 16
	.cfi_offset %rbp, -16
	movq	%rsp, %rbp
	.cfi_def_cfa_register %rbp
	pushq	%rbx
	pushq	%rax
	.cfi_offset %rbx, -24
	movq	%rdi, %rbx
	callq	get_rand
	cmpl	$0, %eax
	jne	.LBB7_2
# %bb.1:                                # %func_modify_redundant_pic_cnt.2
	movq	%rbx, %rdi
	callq	modify_redundant_pic_cnt.2
	addq	$8, %rsp
	popq	%rbx
	popq	%rbp
	.cfi_def_cfa %rsp, 8
	retq
.LBB7_2:                                # %func_modify_redundant_pic_cnt.11
	.cfi_def_cfa %rbp, 16
	movq	%rbx, %rdi
	callq	modify_redundant_pic_cnt.11
	addq	$8, %rsp
	popq	%rbx
	popq	%rbp
	.cfi_def_cfa %rsp, 8
	retq
.Lfunc_end7:
	.size	modify_redundant_pic_cnt, .Lfunc_end7-modify_redundant_pic_cnt
	.cfi_endproc
                                        # -- End function
	.globl	poc_ref_pic_reorder     # -- Begin function poc_ref_pic_reorder
	.p2align	4, 0x90
	.type	poc_ref_pic_reorder,@function
poc_ref_pic_reorder:                    # @poc_ref_pic_reorder
	.cfi_startproc
# %bb.0:                                # %rand_bb
	pushq	%rbp
	.cfi_def_cfa_offset 16
	.cfi_offset %rbp, -16
	movq	%rsp, %rbp
	.cfi_def_cfa_register %rbp
	pushq	%r15
	pushq	%r14
	pushq	%r13
	pushq	%r12
	pushq	%rbx
	subq	$24, %rsp
	.cfi_offset %rbx, -56
	.cfi_offset %r12, -48
	.cfi_offset %r13, -40
	.cfi_offset %r14, -32
	.cfi_offset %r15, -24
	movl	%r9d, -44(%rbp)         # 4-byte Spill
	movq	%r8, %r13
	movq	%rcx, %rbx
	movq	%rdx, %r14
	movl	%esi, %r15d
	movq	%rdi, %r12
	callq	get_rand
	cmpl	$0, %eax
	jne	.LBB8_17
# %bb.1:                                # %func_poc_ref_pic_reorder.16
	movq	%r12, %rdi
	movl	%r15d, %esi
	movq	%r14, %rdx
	movq	%rbx, %rcx
	movq	%r13, %r8
	movl	-44(%rbp), %r9d         # 4-byte Reload
	movl	16(%rbp), %eax
	movl	%eax, (%rsp)
	callq	poc_ref_pic_reorder.16
	addq	$24, %rsp
	popq	%rbx
	popq	%r12
	popq	%r13
	popq	%r14
	popq	%r15
	popq	%rbp
	.cfi_def_cfa %rsp, 8
	retq
.LBB8_2:                                # %func_poc_ref_pic_reorder.25
	.cfi_def_cfa %rbp, 16
	movl	%r15d, %esi
	movl	%r12d, %r9d
	movl	16(%rbp), %eax
	movl	%eax, (%rsp)
	callq	poc_ref_pic_reorder.25
	addq	$24, %rsp
	popq	%rbx
	popq	%r12
	popq	%r13
	popq	%r14
	popq	%r15
	popq	%rbp
	.cfi_def_cfa %rsp, 8
	retq
.LBB8_3:                                # %func_poc_ref_pic_reorder.27
	.cfi_def_cfa %rbp, 16
	movq	%r10, %rdi
	movq	%rbx, %rdx
	movq	%r14, %rcx
	movq	%r13, %r8
	movl	%r11d, (%rsp)
	callq	poc_ref_pic_reorder.27
	addq	$24, %rsp
	popq	%rbx
	popq	%r12
	popq	%r13
	popq	%r14
	popq	%r15
	popq	%rbp
	.cfi_def_cfa %rsp, 8
	retq
.LBB8_4:                                # %func_poc_ref_pic_reorder.29
	.cfi_def_cfa %rbp, 16
	movq	%r10, %rdi
	movl	-48(%rbp), %esi         # 4-byte Reload
	movq	%rbx, %rdx
	movq	%r14, %rcx
	movq	%r13, %r8
	movl	-44(%rbp), %r9d         # 4-byte Reload
	movl	%r11d, (%rsp)
	callq	poc_ref_pic_reorder.29
	addq	$24, %rsp
	popq	%rbx
	popq	%r12
	popq	%r13
	popq	%r14
	popq	%r15
	popq	%rbp
	.cfi_def_cfa %rsp, 8
	retq
.LBB8_5:                                # %func_poc_ref_pic_reorder.36
	.cfi_def_cfa %rbp, 16
	movq	%r10, %rdi
	movl	-48(%rbp), %esi         # 4-byte Reload
	movq	%rbx, %rdx
	movq	%r14, %rcx
	movq	%r9, %r8
	movl	-44(%rbp), %r9d         # 4-byte Reload
	movl	%r11d, (%rsp)
	callq	poc_ref_pic_reorder.36
	addq	$24, %rsp
	popq	%rbx
	popq	%r12
	popq	%r13
	popq	%r14
	popq	%r15
	popq	%rbp
	.cfi_def_cfa %rsp, 8
	retq
.LBB8_6:                                # %func_poc_ref_pic_reorder.56
	.cfi_def_cfa %rbp, 16
	movq	%r10, %rdi
	movl	-48(%rbp), %esi         # 4-byte Reload
	movq	%rbx, %rdx
	movq	%r13, %rcx
	movq	%r9, %r8
	movl	-44(%rbp), %r9d         # 4-byte Reload
	movl	%r11d, (%rsp)
	callq	poc_ref_pic_reorder.56
	addq	$24, %rsp
	popq	%rbx
	popq	%r12
	popq	%r13
	popq	%r14
	popq	%r15
	popq	%rbp
	.cfi_def_cfa %rsp, 8
	retq
.LBB8_7:                                # %func_poc_ref_pic_reorder.58
	.cfi_def_cfa %rbp, 16
	movq	%r10, %rdi
	movl	-48(%rbp), %esi         # 4-byte Reload
	movq	%r14, %rdx
	movq	%r13, %rcx
	movq	%r9, %r8
	movl	-44(%rbp), %r9d         # 4-byte Reload
	movl	%r11d, (%rsp)
	callq	poc_ref_pic_reorder.58
	addq	$24, %rsp
	popq	%rbx
	popq	%r12
	popq	%r13
	popq	%r14
	popq	%r15
	popq	%rbp
	.cfi_def_cfa %rsp, 8
	retq
.LBB8_8:                                # %func_poc_ref_pic_reorder.61
	.cfi_def_cfa %rbp, 16
	movq	%r10, %rdi
	movl	%ebx, %esi
	movq	%r14, %rdx
	movq	%r13, %rcx
	movq	%r9, %r8
	movl	-44(%rbp), %r9d         # 4-byte Reload
	movl	%r11d, (%rsp)
	callq	poc_ref_pic_reorder.61
	addq	$24, %rsp
	popq	%rbx
	popq	%r12
	popq	%r13
	popq	%r14
	popq	%r15
	popq	%rbp
	.cfi_def_cfa %rsp, 8
	retq
.LBB8_9:                                # %func_poc_ref_pic_reorder.62
	.cfi_def_cfa %rbp, 16
	movq	%r10, %rdi
	movl	%ebx, %esi
	movq	%r14, %rdx
	movq	%r13, %rcx
	movq	%r9, %r8
	movl	-44(%rbp), %r9d         # 4-byte Reload
	movl	%r11d, (%rsp)
	callq	poc_ref_pic_reorder.62
	addq	$24, %rsp
	popq	%rbx
	popq	%r12
	popq	%r13
	popq	%r14
	popq	%r15
	popq	%rbp
	.cfi_def_cfa %rsp, 8
	retq
.LBB8_10:                               # %func_poc_ref_pic_reorder.63
	.cfi_def_cfa %rbp, 16
	movq	%r10, %rdi
	movl	%ebx, %esi
	movq	%r14, %rdx
	movq	%r13, %rcx
	movq	%r9, %r8
	movl	-44(%rbp), %r9d         # 4-byte Reload
	movl	%r11d, (%rsp)
	callq	poc_ref_pic_reorder.63
	addq	$24, %rsp
	popq	%rbx
	popq	%r12
	popq	%r13
	popq	%r14
	popq	%r15
	popq	%rbp
	.cfi_def_cfa %rsp, 8
	retq
.LBB8_11:                               # %func_poc_ref_pic_reorder.65
	.cfi_def_cfa %rbp, 16
	movq	%r10, %rdi
	movl	%ebx, %esi
	movq	%r14, %rdx
	movq	%r13, %rcx
	movq	%r9, %r8
	movl	-44(%rbp), %r9d         # 4-byte Reload
	movl	%r11d, (%rsp)
	callq	poc_ref_pic_reorder.65
	addq	$24, %rsp
	popq	%rbx
	popq	%r12
	popq	%r13
	popq	%r14
	popq	%r15
	popq	%rbp
	.cfi_def_cfa %rsp, 8
	retq
.LBB8_12:                               # %func_poc_ref_pic_reorder.66
	.cfi_def_cfa %rbp, 16
	movq	%r10, %rdi
	movl	%ebx, %esi
	movq	%r14, %rdx
	movq	%r13, %rcx
	movq	%r9, %r8
	movl	-44(%rbp), %r9d         # 4-byte Reload
	movl	%r11d, (%rsp)
	callq	poc_ref_pic_reorder.66
	addq	$24, %rsp
	popq	%rbx
	popq	%r12
	popq	%r13
	popq	%r14
	popq	%r15
	popq	%rbp
	.cfi_def_cfa %rsp, 8
	retq
.LBB8_13:                               # %func_poc_ref_pic_reorder.67
	.cfi_def_cfa %rbp, 16
	movq	%r10, %rdi
	movl	%ebx, %esi
	movq	%r14, %rdx
	movq	%r13, %rcx
	movq	%r9, %r8
	movl	-44(%rbp), %r9d         # 4-byte Reload
	movl	%r11d, (%rsp)
	callq	poc_ref_pic_reorder.67
	addq	$24, %rsp
	popq	%rbx
	popq	%r12
	popq	%r13
	popq	%r14
	popq	%r15
	popq	%rbp
	.cfi_def_cfa %rsp, 8
	retq
.LBB8_14:                               # %func_poc_ref_pic_reorder.70
	.cfi_def_cfa %rbp, 16
	movq	%r10, %rdi
	movl	%ebx, %esi
	movq	%r14, %rdx
	movq	%r13, %rcx
	movq	%r9, %r8
	movl	-44(%rbp), %r9d         # 4-byte Reload
	movl	%r11d, (%rsp)
	callq	poc_ref_pic_reorder.70
	addq	$24, %rsp
	popq	%rbx
	popq	%r12
	popq	%r13
	popq	%r14
	popq	%r15
	popq	%rbp
	.cfi_def_cfa %rsp, 8
	retq
.LBB8_15:                               # %func_poc_ref_pic_reorder.74
	.cfi_def_cfa %rbp, 16
	movl	%r15d, %esi
	movl	%r12d, %r9d
	movl	16(%rbp), %eax
	movl	%eax, (%rsp)
	callq	poc_ref_pic_reorder.74
	addq	$24, %rsp
	popq	%rbx
	popq	%r12
	popq	%r13
	popq	%r14
	popq	%r15
	popq	%rbp
	.cfi_def_cfa %rsp, 8
	retq
.LBB8_16:                               # %func_poc_ref_pic_reorder.78
	.cfi_def_cfa %rbp, 16
	movl	%r15d, %esi
	movl	%r12d, %r9d
	movl	16(%rbp), %eax
	movl	%eax, (%rsp)
	callq	poc_ref_pic_reorder.78
	addq	$24, %rsp
	popq	%rbx
	popq	%r12
	popq	%r13
	popq	%r14
	popq	%r15
	popq	%rbp
	.cfi_def_cfa %rsp, 8
	retq
.LBB8_17:                               # %ctrl0
	.cfi_def_cfa %rbp, 16
	movq	%r12, %rdi
	movq	%r14, %rdx
	movq	%rbx, %rcx
	movq	%r13, %r8
	movl	-44(%rbp), %r12d        # 4-byte Reload
	cmpl	$1, %eax
	je	.LBB8_2
# %bb.18:                               # %ctrl1
	cmpl	$2, %eax
	movl	16(%rbp), %r11d
	movl	%r12d, %r9d
	movq	%r8, %r13
	movq	%rcx, %r14
	movq	%rdx, %rbx
	movl	%r15d, %esi
	movq	%rdi, %r10
	je	.LBB8_3
# %bb.19:                               # %ctrl2
	movl	%esi, -48(%rbp)         # 4-byte Spill
	cmpl	$3, %eax
	je	.LBB8_4
# %bb.20:                               # %ctrl3
	cmpl	$4, %eax
	movq	%r13, %r9
	je	.LBB8_5
# %bb.21:                               # %ctrl4
	cmpl	$5, %eax
	movq	%r14, %r13
	je	.LBB8_6
# %bb.22:                               # %ctrl5
	cmpl	$6, %eax
	movq	%rbx, %r14
	je	.LBB8_7
# %bb.23:                               # %ctrl6
	cmpl	$7, %eax
	movl	-48(%rbp), %ebx         # 4-byte Reload
	je	.LBB8_8
# %bb.24:                               # %ctrl7
	cmpl	$8, %eax
	je	.LBB8_9
# %bb.25:                               # %ctrl8
	cmpl	$9, %eax
	je	.LBB8_10
# %bb.26:                               # %ctrl9
	cmpl	$10, %eax
	je	.LBB8_11
# %bb.27:                               # %ctrl10
	cmpl	$11, %eax
	je	.LBB8_12
# %bb.28:                               # %ctrl11
	cmpl	$12, %eax
	je	.LBB8_13
# %bb.29:                               # %ctrl12
	cmpl	$13, %eax
	je	.LBB8_14
# %bb.30:                               # %ctrl13
	cmpl	$14, %eax
	je	.LBB8_15
	jmp	.LBB8_16
.Lfunc_end8:
	.size	poc_ref_pic_reorder, .Lfunc_end8-poc_ref_pic_reorder
	.cfi_endproc
                                        # -- End function
	.p2align	4, 0x90         # -- Begin function malloc_slice
	.type	malloc_slice,@function
malloc_slice:                           # @malloc_slice
	.cfi_startproc
# %bb.0:                                # %rand_bb
	pushq	%rbp
	.cfi_def_cfa_offset 16
	.cfi_offset %rbp, -16
	movq	%rsp, %rbp
	.cfi_def_cfa_register %rbp
	callq	get_rand
	cmpl	$0, %eax
	jne	.LBB9_17
# %bb.1:                                # %func_malloc_slice.3
	callq	malloc_slice.3
	popq	%rbp
	.cfi_def_cfa %rsp, 8
	retq
.LBB9_2:                                # %func_malloc_slice.12
	.cfi_def_cfa %rbp, 16
	callq	malloc_slice.12
	popq	%rbp
	.cfi_def_cfa %rsp, 8
	retq
.LBB9_3:                                # %func_malloc_slice.17
	.cfi_def_cfa %rbp, 16
	callq	malloc_slice.17
	popq	%rbp
	.cfi_def_cfa %rsp, 8
	retq
.LBB9_4:                                # %func_malloc_slice.24
	.cfi_def_cfa %rbp, 16
	callq	malloc_slice.24
	popq	%rbp
	.cfi_def_cfa %rsp, 8
	retq
.LBB9_5:                                # %func_malloc_slice.26
	.cfi_def_cfa %rbp, 16
	callq	malloc_slice.26
	popq	%rbp
	.cfi_def_cfa %rsp, 8
	retq
.LBB9_6:                                # %func_malloc_slice.32
	.cfi_def_cfa %rbp, 16
	callq	malloc_slice.32
	popq	%rbp
	.cfi_def_cfa %rsp, 8
	retq
.LBB9_7:                                # %func_malloc_slice.37
	.cfi_def_cfa %rbp, 16
	callq	malloc_slice.37
	popq	%rbp
	.cfi_def_cfa %rsp, 8
	retq
.LBB9_8:                                # %func_malloc_slice.38
	.cfi_def_cfa %rbp, 16
	callq	malloc_slice.38
	popq	%rbp
	.cfi_def_cfa %rsp, 8
	retq
.LBB9_9:                                # %func_malloc_slice.44
	.cfi_def_cfa %rbp, 16
	callq	malloc_slice.44
	popq	%rbp
	.cfi_def_cfa %rsp, 8
	retq
.LBB9_10:                               # %func_malloc_slice.49
	.cfi_def_cfa %rbp, 16
	callq	malloc_slice.49
	popq	%rbp
	.cfi_def_cfa %rsp, 8
	retq
.LBB9_11:                               # %func_malloc_slice.52
	.cfi_def_cfa %rbp, 16
	callq	malloc_slice.52
	popq	%rbp
	.cfi_def_cfa %rsp, 8
	retq
.LBB9_12:                               # %func_malloc_slice.60
	.cfi_def_cfa %rbp, 16
	callq	malloc_slice.60
	popq	%rbp
	.cfi_def_cfa %rsp, 8
	retq
.LBB9_13:                               # %func_malloc_slice.64
	.cfi_def_cfa %rbp, 16
	callq	malloc_slice.64
	popq	%rbp
	.cfi_def_cfa %rsp, 8
	retq
.LBB9_14:                               # %func_malloc_slice.71
	.cfi_def_cfa %rbp, 16
	callq	malloc_slice.71
	popq	%rbp
	.cfi_def_cfa %rsp, 8
	retq
.LBB9_15:                               # %func_malloc_slice.75
	.cfi_def_cfa %rbp, 16
	callq	malloc_slice.75
	popq	%rbp
	.cfi_def_cfa %rsp, 8
	retq
.LBB9_16:                               # %func_malloc_slice.76
	.cfi_def_cfa %rbp, 16
	callq	malloc_slice.76
	popq	%rbp
	.cfi_def_cfa %rsp, 8
	retq
.LBB9_17:                               # %ctrl0
	.cfi_def_cfa %rbp, 16
	cmpl	$1, %eax
	je	.LBB9_2
# %bb.18:                               # %ctrl1
	cmpl	$2, %eax
	je	.LBB9_3
# %bb.19:                               # %ctrl2
	cmpl	$3, %eax
	je	.LBB9_4
# %bb.20:                               # %ctrl3
	cmpl	$4, %eax
	je	.LBB9_5
# %bb.21:                               # %ctrl4
	cmpl	$5, %eax
	je	.LBB9_6
# %bb.22:                               # %ctrl5
	cmpl	$6, %eax
	je	.LBB9_7
# %bb.23:                               # %ctrl6
	cmpl	$7, %eax
	je	.LBB9_8
# %bb.24:                               # %ctrl7
	cmpl	$8, %eax
	je	.LBB9_9
# %bb.25:                               # %ctrl8
	cmpl	$9, %eax
	je	.LBB9_10
# %bb.26:                               # %ctrl9
	cmpl	$10, %eax
	je	.LBB9_11
# %bb.27:                               # %ctrl10
	cmpl	$11, %eax
	je	.LBB9_12
# %bb.28:                               # %ctrl11
	cmpl	$12, %eax
	je	.LBB9_13
# %bb.29:                               # %ctrl12
	cmpl	$13, %eax
	je	.LBB9_14
# %bb.30:                               # %ctrl13
	cmpl	$14, %eax
	je	.LBB9_15
	jmp	.LBB9_16
.Lfunc_end9:
	.size	malloc_slice, .Lfunc_end9-malloc_slice
	.cfi_endproc
                                        # -- End function
	.p2align	4, 0x90         # -- Begin function set_ref_pic_num
	.type	set_ref_pic_num,@function
set_ref_pic_num:                        # @set_ref_pic_num
	.cfi_startproc
# %bb.0:                                # %rand_bb
	pushq	%rbp
	.cfi_def_cfa_offset 16
	.cfi_offset %rbp, -16
	movq	%rsp, %rbp
	.cfi_def_cfa_register %rbp
	callq	get_rand
	cmpl	$0, %eax
	jne	.LBB10_2
# %bb.1:                                # %func_set_ref_pic_num.6
	callq	set_ref_pic_num.6
	popq	%rbp
	.cfi_def_cfa %rsp, 8
	retq
.LBB10_2:                               # %func_set_ref_pic_num.7
	.cfi_def_cfa %rbp, 16
	callq	set_ref_pic_num.7
	popq	%rbp
	.cfi_def_cfa %rsp, 8
	retq
.Lfunc_end10:
	.size	set_ref_pic_num, .Lfunc_end10-set_ref_pic_num
	.cfi_endproc
                                        # -- End function
	.globl	encode_one_slice.1      # -- Begin function encode_one_slice.1
	.p2align	4, 0x90
	.type	encode_one_slice.1,@function
encode_one_slice.1:                     # @encode_one_slice.1
	.cfi_startproc
# %bb.0:                                # %entry
	pushq	%rbp
	.cfi_def_cfa_offset 16
	.cfi_offset %rbp, -16
	movq	%rsp, %rbp
	.cfi_def_cfa_register %rbp
	pushq	%rbx
	subq	$56, %rsp
	.cfi_offset %rbx, -24
	movl	$868583091, -56(%rbp)   # imm = 0x33C586B3
	movl	%edi, -52(%rbp)
	movq	%rsi, -64(%rbp)
	movl	$0, -20(%rbp)
	movl	$0, -16(%rbp)
	movq	img, %rax
	movl	$0, 120(%rax)
	movl	-52(%rbp), %edi
	callq	FmoGetFirstMacroblockInSlice
	movl	%eax, -12(%rbp)
	movl	-12(%rbp), %edi
	callq	init_slice
	movq	img, %rax
	movq	14160(%rax), %rax
	movq	24(%rax), %rax
	movq	(%rax), %rax
	movl	(%rax), %eax
	movl	%eax, Bytes_After_Header
	movq	input, %rax
	cmpl	$1, 2356(%rax)
	jne	.LBB11_2
# %bb.1:                                # %if.then
	movb	$0, %al
	callq	SetCtxModelNumber
.LBB11_2:                               # %if.end
	callq	start_slice
	movl	%eax, -28(%rbp)
	movl	-28(%rbp), %eax
	movq	img, %rcx
	addl	72524(%rcx), %eax
	movl	%eax, 72524(%rcx)
	movq	img, %rax
	movl	72620(%rax), %eax
	movq	img, %rcx
	cmpl	72608(%rcx), %eax
	jge	.LBB11_4
# %bb.3:                                # %if.then3
	movl	-28(%rbp), %eax
	movq	img, %rcx
	addl	72532(%rcx), %eax
	movl	%eax, 72532(%rcx)
.LBB11_4:                               # %if.end5
	movl	-28(%rbp), %eax
	movq	stats, %rcx
	addl	24(%rcx), %eax
	movl	%eax, 24(%rcx)
	movl	-28(%rbp), %eax
	movq	stats, %rcx
	movq	img, %rdx
	movslq	24(%rdx), %rdx
	addl	1368(%rcx,%rdx,4), %eax
	movl	%eax, 1368(%rcx,%rdx,4)
.LBB11_5:                               # %while.cond
                                        # =>This Inner Loop Header: Depth=1
	cmpl	$0, -20(%rbp)
	jne	.LBB11_33
# %bb.6:                                # %while.body
                                        #   in Loop: Header=BB11_5 Depth=1
	movq	img, %rax
	cmpl	$0, 72400(%rax)
	jne	.LBB11_15
# %bb.7:                                # %if.then10
                                        #   in Loop: Header=BB11_5 Depth=1
	movl	$0, -24(%rbp)
	movabsq	$rddata_top_frame_mb, %rax
	movq	%rax, rdopt
	movl	-12(%rbp), %edi
	xorl	%esi, %esi
	callq	start_macroblock
	callq	encode_one_macroblock
	movl	$1, %edi
	callq	write_one_macroblock
	leaq	-20(%rbp), %rdi
	leaq	-24(%rbp), %rsi
	callq	terminate_macroblock
	cmpl	$0, -24(%rbp)
	jne	.LBB11_11
# %bb.8:                                # %if.then12
                                        #   in Loop: Header=BB11_5 Depth=1
	movl	-12(%rbp), %edi
	callq	FmoGetNextMBNr
	movl	%eax, -12(%rbp)
	cmpl	$-1, -12(%rbp)
	jne	.LBB11_10
# %bb.9:                                # %if.then15
                                        #   in Loop: Header=BB11_5 Depth=1
	movl	$1, -20(%rbp)
.LBB11_10:                              # %if.end16
                                        #   in Loop: Header=BB11_5 Depth=1
	movl	-16(%rbp), %eax
	addl	$1, %eax
	movl	%eax, -16(%rbp)
	movl	-12(%rbp), %edi
	movb	$0, %al
	callq	proceed2nextMacroblock
	jmp	.LBB11_14
.LBB11_11:                              # %if.else
                                        #   in Loop: Header=BB11_5 Depth=1
	movq	img, %rax
	movl	12(%rax), %edi
	callq	FmoGetPreviousMBNr
	movq	img, %rcx
	movl	%eax, 12(%rcx)
	movq	img, %rax
	cmpl	$-1, 12(%rax)
	jne	.LBB11_13
# %bb.12:                               # %if.then21
                                        #   in Loop: Header=BB11_5 Depth=1
	movabsq	$errortext, %rdi
	movl	$300, %esi              # imm = 0x12C
	movabsq	$.L.str, %rdx
	movb	$0, %al
	callq	snprintf
	movabsq	$errortext, %rdi
	movl	$300, %esi              # imm = 0x12C
	callq	error
.LBB11_13:                              # %if.end23
                                        #   in Loop: Header=BB11_5 Depth=1
	jmp	.LBB11_14
.LBB11_14:                              # %if.end24
                                        #   in Loop: Header=BB11_5 Depth=1
	jmp	.LBB11_32
.LBB11_15:                              # %if.else25
                                        #   in Loop: Header=BB11_5 Depth=1
	movq	input, %rax
	cmpl	$2, 2884(%rax)
	jne	.LBB11_17
# %bb.16:                               # %if.then27
                                        #   in Loop: Header=BB11_5 Depth=1
	movl	$0, -24(%rbp)
	movq	img, %rax
	movl	$0, 72008(%rax)
	movq	img, %rax
	movl	$0, 72012(%rax)
	movq	img, %rax
	movl	$0, 72624(%rax)
	movq	img, %rax
	movl	$0, 72628(%rax)
	movl	-12(%rbp), %edi
	xorl	%esi, %esi
	callq	start_macroblock
	movabsq	$rddata_top_frame_mb, %rax
	movq	%rax, rdopt
	callq	encode_one_macroblock
	movq	rdopt, %rax
	vmovsd	(%rax), %xmm0           # xmm0 = mem[0],zero
	vmovsd	%xmm0, -48(%rbp)
	movq	img, %rax
	movl	$1, 72628(%rax)
	movq	img, %rax
	movl	$0, 72008(%rax)
	movl	-12(%rbp), %edi
	addl	$1, %edi
	xorl	%esi, %esi
	callq	start_macroblock
	movabsq	$rddata_bot_frame_mb, %rax
	movq	%rax, rdopt
	callq	encode_one_macroblock
	movq	rdopt, %rax
	vmovsd	(%rax), %xmm0           # xmm0 = mem[0],zero
	vaddsd	-48(%rbp), %xmm0, %xmm0
	vmovsd	%xmm0, -48(%rbp)
.LBB11_17:                              # %if.end33
                                        #   in Loop: Header=BB11_5 Depth=1
	movq	input, %rax
	cmpl	$2, 2884(%rax)
	je	.LBB11_19
# %bb.18:                               # %lor.lhs.false
                                        #   in Loop: Header=BB11_5 Depth=1
	movq	input, %rax
	cmpl	$1, 2884(%rax)
	jne	.LBB11_20
.LBB11_19:                              # %if.then38
                                        #   in Loop: Header=BB11_5 Depth=1
	movq	img, %rax
	movl	$0, 72628(%rax)
	movq	img, %rax
	movl	$1, 72008(%rax)
	movq	img, %rax
	movl	$1, 72012(%rax)
	movq	img, %rax
	movl	72376(%rax), %ecx
	shll	$1, %ecx
	movl	%ecx, 72376(%rax)
	movq	input, %rax
	movl	36(%rax), %ecx
	shll	$1, %ecx
	movl	%ecx, 36(%rax)
	movq	img, %rax
	movl	72000(%rax), %ecx
	shll	$1, %ecx
	movl	%ecx, 72000(%rax)
	movq	img, %rax
	movl	72000(%rax), %ecx
	addl	$1, %ecx
	movl	%ecx, 72000(%rax)
	movl	-12(%rbp), %edi
	movl	$1, %esi
	callq	start_macroblock
	movabsq	$rddata_top_field_mb, %rax
	movq	%rax, rdopt
	callq	encode_one_macroblock
	movq	rdopt, %rax
	vmovsd	(%rax), %xmm0           # xmm0 = mem[0],zero
	vmovsd	%xmm0, -40(%rbp)
	movq	img, %rax
	movl	$1, 72628(%rax)
	movq	img, %rax
	movl	$0, 72012(%rax)
	movl	-12(%rbp), %edi
	addl	$1, %edi
	movl	$1, %esi
	callq	start_macroblock
	movabsq	$rddata_bot_field_mb, %rax
	movq	%rax, rdopt
	callq	encode_one_macroblock
	movq	rdopt, %rax
	vmovsd	(%rax), %xmm0           # xmm0 = mem[0],zero
	vaddsd	-40(%rbp), %xmm0, %xmm0
	vmovsd	%xmm0, -40(%rbp)
.LBB11_20:                              # %if.end52
                                        #   in Loop: Header=BB11_5 Depth=1
	movq	img, %rax
	movl	$0, 72632(%rax)
	movq	input, %rax
	cmpl	$2, 2884(%rax)
	jne	.LBB11_23
# %bb.21:                               # %land.lhs.true
                                        #   in Loop: Header=BB11_5 Depth=1
	vmovsd	-48(%rbp), %xmm0        # xmm0 = mem[0],zero
	vmovsd	-40(%rbp), %xmm1        # xmm1 = mem[0],zero
	vucomisd	%xmm0, %xmm1
	jbe	.LBB11_23
# %bb.22:                               # %if.then56
                                        #   in Loop: Header=BB11_5 Depth=1
	movq	img, %rax
	movl	$0, 72008(%rax)
	movq	img, %rax
	movl	72376(%rax), %ecx
	sarl	$1, %ecx
	movl	%ecx, 72376(%rax)
	movq	input, %rax
	movl	36(%rax), %ecx
	sarl	$1, %ecx
	movl	%ecx, 36(%rax)
	movl	$0, MBPairIsField
	movq	img, %rax
	movl	72000(%rax), %ecx
	subl	$1, %ecx
	movl	%ecx, 72000(%rax)
	movq	img, %rax
	movl	72000(%rax), %ecx
	sarl	$1, %ecx
	movl	%ecx, 72000(%rax)
	movq	img, %rax
	movl	$1, 72632(%rax)
	jmp	.LBB11_24
.LBB11_23:                              # %if.else65
                                        #   in Loop: Header=BB11_5 Depth=1
	movq	img, %rax
	movl	$1, 72008(%rax)
	movl	$1, MBPairIsField
.LBB11_24:                              # %if.end67
                                        #   in Loop: Header=BB11_5 Depth=1
	movq	img, %rax
	movl	$1, 72624(%rax)
	cmpl	$0, MBPairIsField
	je	.LBB11_26
# %bb.25:                               # %if.then70
                                        #   in Loop: Header=BB11_5 Depth=1
	movq	img, %rax
	movl	$1, 72012(%rax)
	jmp	.LBB11_27
.LBB11_26:                              # %if.else72
                                        #   in Loop: Header=BB11_5 Depth=1
	movq	img, %rax
	movl	$0, 72012(%rax)
.LBB11_27:                              # %if.end74
                                        #   in Loop: Header=BB11_5 Depth=1
	movq	img, %rax
	movl	$0, 72628(%rax)
	movl	-12(%rbp), %edi
	movq	img, %rax
	movl	72008(%rax), %esi
	callq	start_macroblock
	movq	img, %rax
	movl	72008(%rax), %eax
	cmpl	$0, %eax
	movabsq	$rddata_top_field_mb, %rax
	movabsq	$rddata_top_frame_mb, %rcx
	cmovneq	%rax, %rcx
	movq	%rcx, rdopt
	xorl	%edi, %edi
	callq	copy_rdopt_data
	movl	$1, %edi
	callq	write_one_macroblock
	movl	-16(%rbp), %eax
	addl	$1, %eax
	movl	%eax, -16(%rbp)
	leaq	-20(%rbp), %rdi
	leaq	-24(%rbp), %rsi
	callq	terminate_macroblock
	movl	-12(%rbp), %edi
	movb	$0, %al
	callq	proceed2nextMacroblock
	movq	img, %rax
	movl	$1, 72628(%rax)
	movq	img, %rax
	movl	$0, 72012(%rax)
	movl	-12(%rbp), %edi
	addl	$1, %edi
	movq	img, %rax
	movl	72008(%rax), %esi
	callq	start_macroblock
	movq	img, %rax
	movl	72008(%rax), %eax
	cmpl	$0, %eax
	movabsq	$rddata_bot_field_mb, %rax
	movabsq	$rddata_bot_frame_mb, %rcx
	cmovneq	%rax, %rcx
	movq	%rcx, rdopt
	movl	$1, %edi
	callq	copy_rdopt_data
	xorl	%edi, %edi
	callq	write_one_macroblock
	movl	-16(%rbp), %eax
	addl	$1, %eax
	movl	%eax, -16(%rbp)
	leaq	-20(%rbp), %rdi
	leaq	-24(%rbp), %rsi
	callq	terminate_macroblock
	movl	-12(%rbp), %edi
	movb	$0, %al
	callq	proceed2nextMacroblock
	cmpl	$0, MBPairIsField
	je	.LBB11_29
# %bb.28:                               # %if.then89
                                        #   in Loop: Header=BB11_5 Depth=1
	movq	img, %rax
	movl	72376(%rax), %ecx
	sarl	$1, %ecx
	movl	%ecx, 72376(%rax)
	movq	input, %rax
	movl	36(%rax), %ecx
	sarl	$1, %ecx
	movl	%ecx, 36(%rax)
	movq	img, %rax
	movl	72000(%rax), %ecx
	subl	$1, %ecx
	movl	%ecx, 72000(%rax)
	movq	img, %rax
	movl	72000(%rax), %ecx
	sarl	$1, %ecx
	movl	%ecx, 72000(%rax)
.LBB11_29:                              # %if.end98
                                        #   in Loop: Header=BB11_5 Depth=1
	movq	img, %rax
	movl	$0, 72012(%rax)
	movq	img, %rax
	movl	$0, 72008(%rax)
	movl	-12(%rbp), %edi
	callq	FmoGetNextMBNr
	movl	%eax, -12(%rbp)
	movl	-12(%rbp), %edi
	callq	FmoGetNextMBNr
	movl	%eax, -12(%rbp)
	movl	-12(%rbp), %ebx
	movl	-12(%rbp), %edi
	callq	FmoMB2SliceGroup
	movl	%eax, %edi
	callq	FmoGetLastCodedMBOfSliceGroup
	cmpl	%eax, %ebx
	jne	.LBB11_31
# %bb.30:                               # %if.then106
                                        #   in Loop: Header=BB11_5 Depth=1
	movl	$1, -20(%rbp)
.LBB11_31:                              # %if.end107
                                        #   in Loop: Header=BB11_5 Depth=1
	jmp	.LBB11_32
.LBB11_32:                              # %if.end108
                                        #   in Loop: Header=BB11_5 Depth=1
	jmp	.LBB11_5
.LBB11_33:                              # %while.end
	callq	terminate_slice
	movl	-16(%rbp), %ebx
	cmpl	$868583091, -56(%rbp)   # imm = 0x33C586B3
	jne	.LBB11_35
.LBB11_34:
	movl	%ebx, %eax
	addq	$56, %rsp
	popq	%rbx
	popq	%rbp
	.cfi_def_cfa %rsp, 8
	retq
.LBB11_35:                              # %func_exit
	.cfi_def_cfa %rbp, 16
	callq	detect_breach
	jmp	.LBB11_34
.Lfunc_end11:
	.size	encode_one_slice.1, .Lfunc_end11-encode_one_slice.1
	.cfi_endproc
                                        # -- End function
	.globl	modify_redundant_pic_cnt.2 # -- Begin function modify_redundant_pic_cnt.2
	.p2align	4, 0x90
	.type	modify_redundant_pic_cnt.2,@function
modify_redundant_pic_cnt.2:             # @modify_redundant_pic_cnt.2
	.cfi_startproc
# %bb.0:                                # %entry
	pushq	%rbp
	.cfi_def_cfa_offset 16
	.cfi_offset %rbp, -16
	movq	%rsp, %rbp
	.cfi_def_cfa_register %rbp
	subq	$16, %rsp
	movl	$1450768141, -8(%rbp)   # imm = 0x5678F70D
	movq	%rdi, -16(%rbp)
	movl	rpc_bits_to_go, %ecx
	subl	$1, %ecx
                                        # kill: def $cl killed $ecx
	movl	$1, %eax
	shll	%cl, %eax
	movb	%al, -1(%rbp)
	movzbl	-1(%rbp), %eax
	movq	-16(%rbp), %rcx
	movslq	rpc_bytes_to_go, %rdx
	movzbl	(%rcx,%rdx), %esi
	orl	%eax, %esi
	movb	%sil, (%rcx,%rdx)
	cmpl	$1450768141, -8(%rbp)   # imm = 0x5678F70D
	jne	.LBB12_2
.LBB12_1:
	addq	$16, %rsp
	popq	%rbp
	.cfi_def_cfa %rsp, 8
	retq
.LBB12_2:                               # %func_exit
	.cfi_def_cfa %rbp, 16
	callq	detect_breach
	jmp	.LBB12_1
.Lfunc_end12:
	.size	modify_redundant_pic_cnt.2, .Lfunc_end12-modify_redundant_pic_cnt.2
	.cfi_endproc
                                        # -- End function
	.p2align	4, 0x90         # -- Begin function malloc_slice.3
	.type	malloc_slice.3,@function
malloc_slice.3:                         # @malloc_slice.3
	.cfi_startproc
# %bb.0:                                # %entry
	pushq	%rbp
	.cfi_def_cfa_offset 16
	.cfi_offset %rbp, -16
	movq	%rsp, %rbp
	.cfi_def_cfa_register %rbp
	pushq	%rbx
	subq	$40, %rsp
	.cfi_offset %rbx, -24
	movl	$604801604, -24(%rbp)   # imm = 0x240C8A44
	movq	img, %rax
	movl	52(%rax), %eax
	movq	img, %rcx
	imull	60(%rcx), %eax
	shll	$2, %eax
	movl	%eax, -28(%rbp)
	movl	$1, %edi
	movl	$152, %esi
	callq	calloc
	movq	%rax, -16(%rbp)
	cmpq	$0, %rax
	jne	.LBB13_2
# %bb.1:                                # %if.then
	movabsq	$.L.str.2, %rdi
	callq	no_mem_exit
.LBB13_2:                               # %if.end
	movq	input, %rax
	cmpl	$1, 2356(%rax)
	jne	.LBB13_4
# %bb.3:                                # %if.then3
	callq	create_contexts_MotionInfo
	movq	-16(%rbp), %rcx
	movq	%rax, 32(%rcx)
	callq	create_contexts_TextureInfo
	movq	-16(%rbp), %rcx
	movq	%rax, 40(%rcx)
.LBB13_4:                               # %if.end6
	movq	input, %rax
	movl	2364(%rax), %eax
	cmpl	$0, %eax
	movl	$1, %eax
	movl	$3, %ecx
	cmovel	%eax, %ecx
	movq	-16(%rbp), %rax
	movl	%ecx, 16(%rax)
	movq	img, %rax
	movq	14152(%rax), %rax
	cmpl	$0, 4(%rax)
	je	.LBB13_6
# %bb.5:                                # %if.then8
	movq	-16(%rbp), %rax
	movl	$1, 16(%rax)
.LBB13_6:                               # %if.end10
	movabsq	$assignSE2partition_NoDP, %rax
	movq	%rax, assignSE2partition
	movq	img, %rax
	movq	14152(%rax), %rax
	cmpl	$0, 4(%rax)
	jne	.LBB13_9
# %bb.7:                                # %land.lhs.true
	movq	input, %rax
	cmpl	$1, 2364(%rax)
	jne	.LBB13_9
# %bb.8:                                # %if.then16
	movabsq	$assignSE2partition_DP, %rax
	movq	%rax, assignSE2partition+8
	jmp	.LBB13_10
.LBB13_9:                               # %if.else
	movabsq	$assignSE2partition_NoDP, %rax
	movq	%rax, assignSE2partition+8
.LBB13_10:                              # %if.end17
	movq	-16(%rbp), %rax
	movl	$0, 20(%rax)
	movq	-16(%rbp), %rax
	movslq	16(%rax), %rdi
	movl	$120, %esi
	callq	calloc
	movq	-16(%rbp), %rcx
	movq	%rax, 24(%rcx)
	cmpq	$0, %rax
	jne	.LBB13_12
# %bb.11:                               # %if.then22
	movabsq	$.L.str.3, %rdi
	callq	no_mem_exit
.LBB13_12:                              # %if.end23
	movl	$0, -20(%rbp)
.LBB13_13:                              # %for.cond
                                        # =>This Inner Loop Header: Depth=1
	movl	-20(%rbp), %eax
	movq	-16(%rbp), %rcx
	cmpl	16(%rcx), %eax
	jge	.LBB13_20
# %bb.14:                               # %for.body
                                        #   in Loop: Header=BB13_13 Depth=1
	movq	-16(%rbp), %rax
	movq	24(%rax), %rax
	movslq	-20(%rbp), %rcx
	imulq	$120, %rcx, %rcx
	addq	%rcx, %rax
	movq	%rax, -40(%rbp)
	movl	$1, %edi
	movl	$48, %esi
	callq	calloc
	movq	-40(%rbp), %rcx
	movq	%rax, (%rcx)
	cmpq	$0, %rax
	jne	.LBB13_16
# %bb.15:                               # %if.then31
                                        #   in Loop: Header=BB13_13 Depth=1
	movabsq	$.L.str.4, %rdi
	callq	no_mem_exit
.LBB13_16:                              # %if.end32
                                        #   in Loop: Header=BB13_13 Depth=1
	movslq	-28(%rbp), %rdi
	movl	$1, %esi
	callq	calloc
	movq	-40(%rbp), %rcx
	movq	(%rcx), %rcx
	movq	%rax, 32(%rcx)
	cmpq	$0, %rax
	jne	.LBB13_18
# %bb.17:                               # %if.then38
                                        #   in Loop: Header=BB13_13 Depth=1
	movabsq	$.L.str.5, %rdi
	callq	no_mem_exit
.LBB13_18:                              # %if.end39
                                        #   in Loop: Header=BB13_13 Depth=1
	jmp	.LBB13_19
.LBB13_19:                              # %for.inc
                                        #   in Loop: Header=BB13_13 Depth=1
	movl	-20(%rbp), %eax
	addl	$1, %eax
	movl	%eax, -20(%rbp)
	jmp	.LBB13_13
.LBB13_20:                              # %for.end
	movq	-16(%rbp), %rbx
	cmpl	$604801604, -24(%rbp)   # imm = 0x240C8A44
	jne	.LBB13_22
.LBB13_21:
	movq	%rbx, %rax
	addq	$40, %rsp
	popq	%rbx
	popq	%rbp
	.cfi_def_cfa %rsp, 8
	retq
.LBB13_22:                              # %func_exit
	.cfi_def_cfa %rbp, 16
	callq	detect_breach
	jmp	.LBB13_21
.Lfunc_end13:
	.size	malloc_slice.3, .Lfunc_end13-malloc_slice.3
	.cfi_endproc
                                        # -- End function
	.p2align	4, 0x90         # -- Begin function free_slice.4
	.type	free_slice.4,@function
free_slice.4:                           # @free_slice.4
	.cfi_startproc
# %bb.0:                                # %entry
	pushq	%rbp
	.cfi_def_cfa_offset 16
	.cfi_offset %rbp, -16
	movq	%rsp, %rbp
	.cfi_def_cfa_register %rbp
	subq	$32, %rsp
	movl	$2018868166, -28(%rbp)  # imm = 0x78557BC6
	movq	%rdi, -16(%rbp)
	cmpq	$0, -16(%rbp)
	je	.LBB14_16
# %bb.1:                                # %if.then
	movl	$0, -4(%rbp)
.LBB14_2:                               # %for.cond
                                        # =>This Inner Loop Header: Depth=1
	movl	-4(%rbp), %eax
	movq	-16(%rbp), %rcx
	cmpl	16(%rcx), %eax
	jge	.LBB14_11
# %bb.3:                                # %for.body
                                        #   in Loop: Header=BB14_2 Depth=1
	movq	-16(%rbp), %rax
	movq	24(%rax), %rax
	movslq	-4(%rbp), %rcx
	imulq	$120, %rcx, %rcx
	addq	%rcx, %rax
	movq	%rax, -24(%rbp)
	cmpq	$0, -24(%rbp)
	je	.LBB14_9
# %bb.4:                                # %if.then3
                                        #   in Loop: Header=BB14_2 Depth=1
	movq	-24(%rbp), %rax
	movq	(%rax), %rax
	cmpq	$0, 32(%rax)
	je	.LBB14_6
# %bb.5:                                # %if.then5
                                        #   in Loop: Header=BB14_2 Depth=1
	movq	-24(%rbp), %rax
	movq	(%rax), %rax
	movq	32(%rax), %rdi
	callq	free
.LBB14_6:                               # %if.end
                                        #   in Loop: Header=BB14_2 Depth=1
	movq	-24(%rbp), %rax
	cmpq	$0, (%rax)
	je	.LBB14_8
# %bb.7:                                # %if.then10
                                        #   in Loop: Header=BB14_2 Depth=1
	movq	-24(%rbp), %rax
	movq	(%rax), %rdi
	callq	free
.LBB14_8:                               # %if.end12
                                        #   in Loop: Header=BB14_2 Depth=1
	jmp	.LBB14_9
.LBB14_9:                               # %if.end13
                                        #   in Loop: Header=BB14_2 Depth=1
	jmp	.LBB14_10
.LBB14_10:                              # %for.inc
                                        #   in Loop: Header=BB14_2 Depth=1
	movl	-4(%rbp), %eax
	addl	$1, %eax
	movl	%eax, -4(%rbp)
	jmp	.LBB14_2
.LBB14_11:                              # %for.end
	movq	-16(%rbp), %rax
	cmpq	$0, 24(%rax)
	je	.LBB14_13
# %bb.12:                               # %if.then16
	movq	-16(%rbp), %rax
	movq	24(%rax), %rdi
	callq	free
.LBB14_13:                              # %if.end18
	movq	input, %rax
	cmpl	$1, 2356(%rax)
	jne	.LBB14_15
# %bb.14:                               # %if.then20
	movq	-16(%rbp), %rax
	movq	32(%rax), %rdi
	callq	delete_contexts_MotionInfo
	movq	-16(%rbp), %rax
	movq	40(%rax), %rdi
	callq	delete_contexts_TextureInfo
.LBB14_15:                              # %if.end21
	movq	-16(%rbp), %rdi
	callq	free
.LBB14_16:                              # %if.end22
	cmpl	$2018868166, -28(%rbp)  # imm = 0x78557BC6
	jne	.LBB14_18
.LBB14_17:
	addq	$32, %rsp
	popq	%rbp
	.cfi_def_cfa %rsp, 8
	retq
.LBB14_18:                              # %func_exit
	.cfi_def_cfa %rbp, 16
	callq	detect_breach
	jmp	.LBB14_17
.Lfunc_end14:
	.size	free_slice.4, .Lfunc_end14-free_slice.4
	.cfi_endproc
                                        # -- End function
	.globl	free_slice_list.5       # -- Begin function free_slice_list.5
	.p2align	4, 0x90
	.type	free_slice_list.5,@function
free_slice_list.5:                      # @free_slice_list.5
	.cfi_startproc
# %bb.0:                                # %entry
	pushq	%rbp
	.cfi_def_cfa_offset 16
	.cfi_offset %rbp, -16
	movq	%rsp, %rbp
	.cfi_def_cfa_register %rbp
	subq	$32, %rsp
	movl	$1651382846, -20(%rbp)  # imm = 0x626E1A3E
	movq	%rdi, -16(%rbp)
	movl	$0, -4(%rbp)
.LBB15_1:                               # %for.cond
                                        # =>This Inner Loop Header: Depth=1
	movl	-4(%rbp), %eax
	movq	-16(%rbp), %rcx
	cmpl	(%rcx), %eax
	jge	.LBB15_4
# %bb.2:                                # %for.body
                                        #   in Loop: Header=BB15_1 Depth=1
	movq	-16(%rbp), %rax
	movslq	-4(%rbp), %rcx
	movq	8(%rax,%rcx,8), %rdi
	callq	free_slice
	movq	-16(%rbp), %rax
	movslq	-4(%rbp), %rcx
	movq	$0, 8(%rax,%rcx,8)
# %bb.3:                                # %for.inc
                                        #   in Loop: Header=BB15_1 Depth=1
	movl	-4(%rbp), %eax
	addl	$1, %eax
	movl	%eax, -4(%rbp)
	jmp	.LBB15_1
.LBB15_4:                               # %for.end
	cmpl	$1651382846, -20(%rbp)  # imm = 0x626E1A3E
	jne	.LBB15_6
.LBB15_5:
	addq	$32, %rsp
	popq	%rbp
	.cfi_def_cfa %rsp, 8
	retq
.LBB15_6:                               # %func_exit
	.cfi_def_cfa %rbp, 16
	callq	detect_breach
	jmp	.LBB15_5
.Lfunc_end15:
	.size	free_slice_list.5, .Lfunc_end15-free_slice_list.5
	.cfi_endproc
                                        # -- End function
	.p2align	4, 0x90         # -- Begin function set_ref_pic_num.6
	.type	set_ref_pic_num.6,@function
set_ref_pic_num.6:                      # @set_ref_pic_num.6
	.cfi_startproc
# %bb.0:                                # %entry
	pushq	%rbp
	.cfi_def_cfa_offset 16
	.cfi_offset %rbp, -16
	movq	%rsp, %rbp
	.cfi_def_cfa_register %rbp
	subq	$16, %rsp
	movl	$845127652, -12(%rbp)   # imm = 0x325F9FE4
	movl	$0, -4(%rbp)
.LBB16_1:                               # %for.cond
                                        # =>This Inner Loop Header: Depth=1
	movl	-4(%rbp), %eax
	cmpl	listXsize, %eax
	jge	.LBB16_4
# %bb.2:                                # %for.body
                                        #   in Loop: Header=BB16_1 Depth=1
	xorl	%eax, %eax
	movq	listX, %rcx
	movslq	-4(%rbp), %rdx
	movq	(%rcx,%rdx,8), %rcx
	movl	4(%rcx), %ecx
	shll	$1, %ecx
	movq	listX, %rdx
	movslq	-4(%rbp), %rsi
	movq	(%rdx,%rsi,8), %rdx
	movl	(%rdx), %edx
	cmpl	$2, %edx
	movl	$1, %edx
	cmovel	%edx, %eax
	addl	%eax, %ecx
	movslq	%ecx, %rax
	movq	enc_picture, %rcx
	movslq	-4(%rbp), %rdx
	movq	%rax, 24(%rcx,%rdx,8)
	movq	listX, %rax
	movslq	-4(%rbp), %rcx
	movq	(%rax,%rcx,8), %rax
	movl	16(%rax), %eax
	shll	$1, %eax
	cltq
	movq	enc_picture, %rcx
	movslq	-4(%rbp), %rdx
	movq	%rax, 1608(%rcx,%rdx,8)
	movq	listX, %rax
	movslq	-4(%rbp), %rcx
	movq	(%rax,%rcx,8), %rax
	movl	8(%rax), %eax
	shll	$1, %eax
	cltq
	movq	enc_picture, %rcx
	movslq	-4(%rbp), %rdx
	movq	%rax, 3192(%rcx,%rdx,8)
	movq	listX, %rax
	movslq	-4(%rbp), %rcx
	movq	(%rax,%rcx,8), %rax
	movl	12(%rax), %eax
	shll	$1, %eax
	addl	$1, %eax
	cltq
	movq	enc_picture, %rcx
	movslq	-4(%rbp), %rdx
	movq	%rax, 4776(%rcx,%rdx,8)
# %bb.3:                                # %for.inc
                                        #   in Loop: Header=BB16_1 Depth=1
	movl	-4(%rbp), %eax
	addl	$1, %eax
	movl	%eax, -4(%rbp)
	jmp	.LBB16_1
.LBB16_4:                               # %for.end
	movl	$0, -4(%rbp)
.LBB16_5:                               # %for.cond29
                                        # =>This Inner Loop Header: Depth=1
	movl	-4(%rbp), %eax
	cmpl	listXsize+4, %eax
	jge	.LBB16_8
# %bb.6:                                # %for.body32
                                        #   in Loop: Header=BB16_5 Depth=1
	xorl	%eax, %eax
	movq	listX+8, %rcx
	movslq	-4(%rbp), %rdx
	movq	(%rcx,%rdx,8), %rcx
	movl	4(%rcx), %ecx
	shll	$1, %ecx
	movq	listX+8, %rdx
	movslq	-4(%rbp), %rsi
	movq	(%rdx,%rsi,8), %rdx
	movl	(%rdx), %edx
	cmpl	$2, %edx
	movl	$1, %edx
	cmovel	%edx, %eax
	addl	%eax, %ecx
	movslq	%ecx, %rax
	movq	enc_picture, %rcx
	movslq	-4(%rbp), %rdx
	movq	%rax, 288(%rcx,%rdx,8)
	movq	listX+8, %rax
	movslq	-4(%rbp), %rcx
	movq	(%rax,%rcx,8), %rax
	movl	16(%rax), %eax
	shll	$1, %eax
	cltq
	movq	enc_picture, %rcx
	movslq	-4(%rbp), %rdx
	movq	%rax, 1872(%rcx,%rdx,8)
	movq	listX+8, %rax
	movslq	-4(%rbp), %rcx
	movq	(%rax,%rcx,8), %rax
	movl	8(%rax), %eax
	shll	$1, %eax
	cltq
	movq	enc_picture, %rcx
	movslq	-4(%rbp), %rdx
	movq	%rax, 3456(%rcx,%rdx,8)
	movq	listX+8, %rax
	movslq	-4(%rbp), %rcx
	movq	(%rax,%rcx,8), %rax
	movl	12(%rax), %eax
	shll	$1, %eax
	addl	$1, %eax
	cltq
	movq	enc_picture, %rcx
	movslq	-4(%rbp), %rdx
	movq	%rax, 5040(%rcx,%rdx,8)
# %bb.7:                                # %for.inc77
                                        #   in Loop: Header=BB16_5 Depth=1
	movl	-4(%rbp), %eax
	addl	$1, %eax
	movl	%eax, -4(%rbp)
	jmp	.LBB16_5
.LBB16_8:                               # %for.end79
	movq	active_sps, %rax
	cmpl	$0, 1148(%rax)
	jne	.LBB16_20
# %bb.9:                                # %if.then
	movq	img, %rax
	cmpl	$0, 28(%rax)
	jne	.LBB16_19
# %bb.10:                               # %if.then83
	movl	$2, -8(%rbp)
.LBB16_11:                              # %for.cond84
                                        # =>This Loop Header: Depth=1
                                        #     Child Loop BB16_13 Depth 2
	cmpl	$6, -8(%rbp)
	jge	.LBB16_18
# %bb.12:                               # %for.body87
                                        #   in Loop: Header=BB16_11 Depth=1
	movl	$0, -4(%rbp)
.LBB16_13:                              # %for.cond88
                                        #   Parent Loop BB16_11 Depth=1
                                        # =>  This Inner Loop Header: Depth=2
	movl	-4(%rbp), %eax
	movslq	-8(%rbp), %rcx
	cmpl	listXsize(,%rcx,4), %eax
	jge	.LBB16_16
# %bb.14:                               # %for.body93
                                        #   in Loop: Header=BB16_13 Depth=2
	xorl	%eax, %eax
	movslq	-8(%rbp), %rcx
	movq	listX(,%rcx,8), %rcx
	movslq	-4(%rbp), %rdx
	movq	(%rcx,%rdx,8), %rcx
	movl	4(%rcx), %ecx
	shll	$1, %ecx
	movslq	-8(%rbp), %rdx
	movq	listX(,%rdx,8), %rdx
	movslq	-4(%rbp), %rsi
	movq	(%rdx,%rsi,8), %rdx
	movl	(%rdx), %edx
	cmpl	$2, %edx
	movl	$1, %edx
	cmovel	%edx, %eax
	addl	%eax, %ecx
	movslq	%ecx, %rax
	movq	enc_picture, %rcx
	addq	$24, %rcx
	movslq	-8(%rbp), %rdx
	imulq	$264, %rdx, %rdx        # imm = 0x108
	addq	%rdx, %rcx
	movslq	-4(%rbp), %rdx
	movq	%rax, (%rcx,%rdx,8)
	movslq	-8(%rbp), %rax
	movq	listX(,%rax,8), %rax
	movslq	-4(%rbp), %rcx
	movq	(%rax,%rcx,8), %rax
	movl	16(%rax), %eax
	shll	$1, %eax
	cltq
	movq	enc_picture, %rcx
	addq	$1608, %rcx             # imm = 0x648
	movslq	-8(%rbp), %rdx
	imulq	$264, %rdx, %rdx        # imm = 0x108
	addq	%rdx, %rcx
	movslq	-4(%rbp), %rdx
	movq	%rax, (%rcx,%rdx,8)
	movslq	-8(%rbp), %rax
	movq	listX(,%rax,8), %rax
	movslq	-4(%rbp), %rcx
	movq	(%rax,%rcx,8), %rax
	movl	8(%rax), %eax
	shll	$1, %eax
	cltq
	movq	enc_picture, %rcx
	addq	$3192, %rcx             # imm = 0xC78
	movslq	-8(%rbp), %rdx
	imulq	$264, %rdx, %rdx        # imm = 0x108
	addq	%rdx, %rcx
	movslq	-4(%rbp), %rdx
	movq	%rax, (%rcx,%rdx,8)
	movslq	-8(%rbp), %rax
	movq	listX(,%rax,8), %rax
	movslq	-4(%rbp), %rcx
	movq	(%rax,%rcx,8), %rax
	movl	12(%rax), %eax
	shll	$1, %eax
	addl	$1, %eax
	cltq
	movq	enc_picture, %rcx
	addq	$4776, %rcx             # imm = 0x12A8
	movslq	-8(%rbp), %rdx
	imulq	$264, %rdx, %rdx        # imm = 0x108
	addq	%rdx, %rcx
	movslq	-4(%rbp), %rdx
	movq	%rax, (%rcx,%rdx,8)
# %bb.15:                               # %for.inc152
                                        #   in Loop: Header=BB16_13 Depth=2
	movl	-4(%rbp), %eax
	addl	$1, %eax
	movl	%eax, -4(%rbp)
	jmp	.LBB16_13
.LBB16_16:                              # %for.end154
                                        #   in Loop: Header=BB16_11 Depth=1
	jmp	.LBB16_17
.LBB16_17:                              # %for.inc155
                                        #   in Loop: Header=BB16_11 Depth=1
	movl	-8(%rbp), %eax
	addl	$1, %eax
	movl	%eax, -8(%rbp)
	jmp	.LBB16_11
.LBB16_18:                              # %for.end157
	jmp	.LBB16_19
.LBB16_19:                              # %if.end
	jmp	.LBB16_20
.LBB16_20:                              # %if.end158
	cmpl	$845127652, -12(%rbp)   # imm = 0x325F9FE4
	jne	.LBB16_22
.LBB16_21:
	addq	$16, %rsp
	popq	%rbp
	.cfi_def_cfa %rsp, 8
	retq
.LBB16_22:                              # %func_exit
	.cfi_def_cfa %rbp, 16
	callq	detect_breach
	jmp	.LBB16_21
.Lfunc_end16:
	.size	set_ref_pic_num.6, .Lfunc_end16-set_ref_pic_num.6
	.cfi_endproc
                                        # -- End function
	.p2align	4, 0x90         # -- Begin function set_ref_pic_num.7
	.type	set_ref_pic_num.7,@function
set_ref_pic_num.7:                      # @set_ref_pic_num.7
	.cfi_startproc
# %bb.0:                                # %entry
	pushq	%rbp
	.cfi_def_cfa_offset 16
	.cfi_offset %rbp, -16
	movq	%rsp, %rbp
	.cfi_def_cfa_register %rbp
	subq	$16, %rsp
	movl	$1708999114, -12(%rbp)  # imm = 0x65DD41CA
	movl	$0, -4(%rbp)
.LBB17_1:                               # %for.cond
                                        # =>This Inner Loop Header: Depth=1
	movl	-4(%rbp), %eax
	cmpl	listXsize, %eax
	jge	.LBB17_4
# %bb.2:                                # %for.body
                                        #   in Loop: Header=BB17_1 Depth=1
	xorl	%eax, %eax
	movq	listX, %rcx
	movslq	-4(%rbp), %rdx
	movq	(%rcx,%rdx,8), %rcx
	movl	4(%rcx), %ecx
	shll	$1, %ecx
	movq	listX, %rdx
	movslq	-4(%rbp), %rsi
	movq	(%rdx,%rsi,8), %rdx
	movl	(%rdx), %edx
	cmpl	$2, %edx
	movl	$1, %edx
	cmovel	%edx, %eax
	addl	%eax, %ecx
	movslq	%ecx, %rax
	movq	enc_picture, %rcx
	movslq	-4(%rbp), %rdx
	movq	%rax, 24(%rcx,%rdx,8)
	movq	listX, %rax
	movslq	-4(%rbp), %rcx
	movq	(%rax,%rcx,8), %rax
	movl	16(%rax), %eax
	shll	$1, %eax
	cltq
	movq	enc_picture, %rcx
	movslq	-4(%rbp), %rdx
	movq	%rax, 1608(%rcx,%rdx,8)
	movq	listX, %rax
	movslq	-4(%rbp), %rcx
	movq	(%rax,%rcx,8), %rax
	movl	8(%rax), %eax
	shll	$1, %eax
	cltq
	movq	enc_picture, %rcx
	movslq	-4(%rbp), %rdx
	movq	%rax, 3192(%rcx,%rdx,8)
	movq	listX, %rax
	movslq	-4(%rbp), %rcx
	movq	(%rax,%rcx,8), %rax
	movl	12(%rax), %eax
	shll	$1, %eax
	addl	$1, %eax
	cltq
	movq	enc_picture, %rcx
	movslq	-4(%rbp), %rdx
	movq	%rax, 4776(%rcx,%rdx,8)
# %bb.3:                                # %for.inc
                                        #   in Loop: Header=BB17_1 Depth=1
	movl	-4(%rbp), %eax
	addl	$1, %eax
	movl	%eax, -4(%rbp)
	jmp	.LBB17_1
.LBB17_4:                               # %for.end
	movl	$0, -4(%rbp)
.LBB17_5:                               # %for.cond29
                                        # =>This Inner Loop Header: Depth=1
	movl	-4(%rbp), %eax
	cmpl	listXsize+4, %eax
	jge	.LBB17_8
# %bb.6:                                # %for.body32
                                        #   in Loop: Header=BB17_5 Depth=1
	xorl	%eax, %eax
	movq	listX+8, %rcx
	movslq	-4(%rbp), %rdx
	movq	(%rcx,%rdx,8), %rcx
	movl	4(%rcx), %ecx
	shll	$1, %ecx
	movq	listX+8, %rdx
	movslq	-4(%rbp), %rsi
	movq	(%rdx,%rsi,8), %rdx
	movl	(%rdx), %edx
	cmpl	$2, %edx
	movl	$1, %edx
	cmovel	%edx, %eax
	addl	%eax, %ecx
	movslq	%ecx, %rax
	movq	enc_picture, %rcx
	movslq	-4(%rbp), %rdx
	movq	%rax, 288(%rcx,%rdx,8)
	movq	listX+8, %rax
	movslq	-4(%rbp), %rcx
	movq	(%rax,%rcx,8), %rax
	movl	16(%rax), %eax
	shll	$1, %eax
	cltq
	movq	enc_picture, %rcx
	movslq	-4(%rbp), %rdx
	movq	%rax, 1872(%rcx,%rdx,8)
	movq	listX+8, %rax
	movslq	-4(%rbp), %rcx
	movq	(%rax,%rcx,8), %rax
	movl	8(%rax), %eax
	shll	$1, %eax
	cltq
	movq	enc_picture, %rcx
	movslq	-4(%rbp), %rdx
	movq	%rax, 3456(%rcx,%rdx,8)
	movq	listX+8, %rax
	movslq	-4(%rbp), %rcx
	movq	(%rax,%rcx,8), %rax
	movl	12(%rax), %eax
	shll	$1, %eax
	addl	$1, %eax
	cltq
	movq	enc_picture, %rcx
	movslq	-4(%rbp), %rdx
	movq	%rax, 5040(%rcx,%rdx,8)
# %bb.7:                                # %for.inc77
                                        #   in Loop: Header=BB17_5 Depth=1
	movl	-4(%rbp), %eax
	addl	$1, %eax
	movl	%eax, -4(%rbp)
	jmp	.LBB17_5
.LBB17_8:                               # %for.end79
	movq	active_sps, %rax
	cmpl	$0, 1148(%rax)
	jne	.LBB17_20
# %bb.9:                                # %if.then
	movq	img, %rax
	cmpl	$0, 28(%rax)
	jne	.LBB17_19
# %bb.10:                               # %if.then83
	movl	$2, -8(%rbp)
.LBB17_11:                              # %for.cond84
                                        # =>This Loop Header: Depth=1
                                        #     Child Loop BB17_13 Depth 2
	cmpl	$6, -8(%rbp)
	jge	.LBB17_18
# %bb.12:                               # %for.body87
                                        #   in Loop: Header=BB17_11 Depth=1
	movl	$0, -4(%rbp)
.LBB17_13:                              # %for.cond88
                                        #   Parent Loop BB17_11 Depth=1
                                        # =>  This Inner Loop Header: Depth=2
	movl	-4(%rbp), %eax
	movslq	-8(%rbp), %rcx
	cmpl	listXsize(,%rcx,4), %eax
	jge	.LBB17_16
# %bb.14:                               # %for.body93
                                        #   in Loop: Header=BB17_13 Depth=2
	xorl	%eax, %eax
	movslq	-8(%rbp), %rcx
	movq	listX(,%rcx,8), %rcx
	movslq	-4(%rbp), %rdx
	movq	(%rcx,%rdx,8), %rcx
	movl	4(%rcx), %ecx
	shll	$1, %ecx
	movslq	-8(%rbp), %rdx
	movq	listX(,%rdx,8), %rdx
	movslq	-4(%rbp), %rsi
	movq	(%rdx,%rsi,8), %rdx
	movl	(%rdx), %edx
	cmpl	$2, %edx
	movl	$1, %edx
	cmovel	%edx, %eax
	addl	%eax, %ecx
	movslq	%ecx, %rax
	movq	enc_picture, %rcx
	addq	$24, %rcx
	movslq	-8(%rbp), %rdx
	imulq	$264, %rdx, %rdx        # imm = 0x108
	addq	%rdx, %rcx
	movslq	-4(%rbp), %rdx
	movq	%rax, (%rcx,%rdx,8)
	movslq	-8(%rbp), %rax
	movq	listX(,%rax,8), %rax
	movslq	-4(%rbp), %rcx
	movq	(%rax,%rcx,8), %rax
	movl	16(%rax), %eax
	shll	$1, %eax
	cltq
	movq	enc_picture, %rcx
	addq	$1608, %rcx             # imm = 0x648
	movslq	-8(%rbp), %rdx
	imulq	$264, %rdx, %rdx        # imm = 0x108
	addq	%rdx, %rcx
	movslq	-4(%rbp), %rdx
	movq	%rax, (%rcx,%rdx,8)
	movslq	-8(%rbp), %rax
	movq	listX(,%rax,8), %rax
	movslq	-4(%rbp), %rcx
	movq	(%rax,%rcx,8), %rax
	movl	8(%rax), %eax
	shll	$1, %eax
	cltq
	movq	enc_picture, %rcx
	addq	$3192, %rcx             # imm = 0xC78
	movslq	-8(%rbp), %rdx
	imulq	$264, %rdx, %rdx        # imm = 0x108
	addq	%rdx, %rcx
	movslq	-4(%rbp), %rdx
	movq	%rax, (%rcx,%rdx,8)
	movslq	-8(%rbp), %rax
	movq	listX(,%rax,8), %rax
	movslq	-4(%rbp), %rcx
	movq	(%rax,%rcx,8), %rax
	movl	12(%rax), %eax
	shll	$1, %eax
	addl	$1, %eax
	cltq
	movq	enc_picture, %rcx
	addq	$4776, %rcx             # imm = 0x12A8
	movslq	-8(%rbp), %rdx
	imulq	$264, %rdx, %rdx        # imm = 0x108
	addq	%rdx, %rcx
	movslq	-4(%rbp), %rdx
	movq	%rax, (%rcx,%rdx,8)
# %bb.15:                               # %for.inc152
                                        #   in Loop: Header=BB17_13 Depth=2
	movl	-4(%rbp), %eax
	addl	$1, %eax
	movl	%eax, -4(%rbp)
	jmp	.LBB17_13
.LBB17_16:                              # %for.end154
                                        #   in Loop: Header=BB17_11 Depth=1
	jmp	.LBB17_17
.LBB17_17:                              # %for.inc155
                                        #   in Loop: Header=BB17_11 Depth=1
	movl	-8(%rbp), %eax
	addl	$1, %eax
	movl	%eax, -8(%rbp)
	jmp	.LBB17_11
.LBB17_18:                              # %for.end157
	jmp	.LBB17_19
.LBB17_19:                              # %if.end
	jmp	.LBB17_20
.LBB17_20:                              # %if.end158
	cmpl	$1708999114, -12(%rbp)  # imm = 0x65DD41CA
	jne	.LBB17_22
.LBB17_21:
	addq	$16, %rsp
	popq	%rbp
	.cfi_def_cfa %rsp, 8
	retq
.LBB17_22:                              # %func_exit
	.cfi_def_cfa %rbp, 16
	callq	detect_breach
	jmp	.LBB17_21
.Lfunc_end17:
	.size	set_ref_pic_num.7, .Lfunc_end17-set_ref_pic_num.7
	.cfi_endproc
                                        # -- End function
	.globl	start_slice.8           # -- Begin function start_slice.8
	.p2align	4, 0x90
	.type	start_slice.8,@function
start_slice.8:                          # @start_slice.8
	.cfi_startproc
# %bb.0:                                # %entry
	pushq	%rbp
	.cfi_def_cfa_offset 16
	.cfi_offset %rbp, -16
	movq	%rsp, %rbp
	.cfi_def_cfa_register %rbp
	pushq	%rbx
	subq	$40, %rsp
	.cfi_offset %rbx, -24
	movl	$924449134, -32(%rbp)   # imm = 0x3719F96E
	movq	img, %rax
	movq	14160(%rax), %rax
	movq	%rax, -40(%rbp)
	movl	$0, -12(%rbp)
	movq	input, %rax
	movl	2364(%rax), %eax
	cmpl	$0, %eax
	movl	$1, %eax
	movl	$3, %ecx
	cmovel	%eax, %ecx
	movl	%ecx, -28(%rbp)
	movq	img, %rax
	movq	14152(%rax), %rax
	cmpl	$0, 4(%rax)
	je	.LBB18_2
# %bb.1:                                # %if.then
	movl	$1, -28(%rbp)
.LBB18_2:                               # %if.end
	movq	img, %rax
	movl	71792(%rax), %edi
	callq	RTPUpdateTimestamp
	movl	$0, -16(%rbp)
.LBB18_3:                               # %for.cond
                                        # =>This Inner Loop Header: Depth=1
	movl	-16(%rbp), %eax
	cmpl	-28(%rbp), %eax
	jge	.LBB18_14
# %bb.4:                                # %for.body
                                        #   in Loop: Header=BB18_3 Depth=1
	movq	-40(%rbp), %rax
	movq	24(%rax), %rax
	movslq	-16(%rbp), %rcx
	imulq	$120, %rcx, %rcx
	addq	%rcx, %rax
	movq	(%rax), %rax
	movq	%rax, -24(%rbp)
	movq	-24(%rbp), %rax
	movl	$0, 40(%rax)
	cmpl	$0, -16(%rbp)
	jne	.LBB18_6
# %bb.5:                                # %if.then3
                                        #   in Loop: Header=BB18_3 Depth=1
	xorl	%edi, %edi
	movb	$0, %al
	callq	SliceHeader
	addl	-12(%rbp), %eax
	movl	%eax, -12(%rbp)
	jmp	.LBB18_7
.LBB18_6:                               # %if.else
                                        #   in Loop: Header=BB18_3 Depth=1
	movl	-16(%rbp), %edi
	movb	$0, %al
	callq	Partition_BC_Header
	addl	-12(%rbp), %eax
	movl	%eax, -12(%rbp)
.LBB18_7:                               # %if.end6
                                        #   in Loop: Header=BB18_3 Depth=1
	movq	input, %rax
	cmpl	$1, 2356(%rax)
	jne	.LBB18_11
# %bb.8:                                # %if.then8
                                        #   in Loop: Header=BB18_3 Depth=1
	movq	-40(%rbp), %rax
	movq	24(%rax), %rax
	movslq	-16(%rbp), %rcx
	imulq	$120, %rcx, %rcx
	addq	%rcx, %rax
	addq	$8, %rax
	movq	%rax, -48(%rbp)
	movq	-24(%rbp), %rax
	cmpl	$8, 4(%rax)
	je	.LBB18_10
# %bb.9:                                # %if.then13
                                        #   in Loop: Header=BB18_3 Depth=1
	movq	-24(%rbp), %rax
	movl	4(%rax), %eax
	addl	-12(%rbp), %eax
	movl	%eax, -12(%rbp)
.LBB18_10:                              # %if.end16
                                        #   in Loop: Header=BB18_3 Depth=1
	movq	-24(%rbp), %rdi
	callq	writeVlcByteAlign
	movq	-48(%rbp), %rdi
	movq	-24(%rbp), %rax
	movq	32(%rax), %rsi
	movq	-24(%rbp), %rdx
	movq	img, %rax
	movl	24(%rax), %ecx
	callq	arienco_start_encoding
	movb	$0, %al
	callq	cabac_new_slice
	jmp	.LBB18_12
.LBB18_11:                              # %if.else17
                                        #   in Loop: Header=BB18_3 Depth=1
	movb	$0, %al
	callq	CAVLC_init
.LBB18_12:                              # %if.end18
                                        #   in Loop: Header=BB18_3 Depth=1
	jmp	.LBB18_13
.LBB18_13:                              # %for.inc
                                        #   in Loop: Header=BB18_3 Depth=1
	movl	-16(%rbp), %eax
	addl	$1, %eax
	movl	%eax, -16(%rbp)
	jmp	.LBB18_3
.LBB18_14:                              # %for.end
	movq	input, %rax
	cmpl	$1, 2356(%rax)
	jne	.LBB18_16
# %bb.15:                               # %if.then21
	movb	$0, %al
	callq	init_contexts
.LBB18_16:                              # %if.end22
	movl	-12(%rbp), %ebx
	cmpl	$924449134, -32(%rbp)   # imm = 0x3719F96E
	jne	.LBB18_18
.LBB18_17:
	movl	%ebx, %eax
	addq	$40, %rsp
	popq	%rbx
	popq	%rbp
	.cfi_def_cfa %rsp, 8
	retq
.LBB18_18:                              # %func_exit
	.cfi_def_cfa %rbp, 16
	callq	detect_breach
	jmp	.LBB18_17
.Lfunc_end18:
	.size	start_slice.8, .Lfunc_end18-start_slice.8
	.cfi_endproc
                                        # -- End function
	.p2align	4, 0x90         # -- Begin function init_slice.9
	.type	init_slice.9,@function
init_slice.9:                           # @init_slice.9
	.cfi_startproc
# %bb.0:                                # %entry
	pushq	%rbp
	.cfi_def_cfa_offset 16
	.cfi_offset %rbp, -16
	movq	%rsp, %rbp
	.cfi_def_cfa_register %rbp
	subq	$80, %rsp
	movl	$1578514429, -60(%rbp)  # imm = 0x5E1637FD
	movl	%edi, -36(%rbp)
	movq	img, %rax
	movq	14152(%rax), %rax
	movq	%rax, -32(%rbp)
	movl	-36(%rbp), %eax
	movq	img, %rcx
	movl	%eax, 12(%rcx)
	movq	-32(%rbp), %rax
	movl	(%rax), %ecx
	addl	$1, %ecx
	movl	%ecx, (%rax)
	movq	-32(%rbp), %rax
	cmpl	$100, (%rax)
	jl	.LBB19_2
# %bb.1:                                # %if.then
	movabsq	$.L.str.1, %rdi
	movl	$4294967295, %esi       # imm = 0xFFFFFFFF
	callq	error
.LBB19_2:                               # %if.end
	callq	malloc_slice
	movq	-32(%rbp), %rcx
	movq	-32(%rbp), %rdx
	movl	(%rdx), %edx
	subl	$1, %edx
	movslq	%edx, %rdx
	movq	%rax, 8(%rcx,%rdx,8)
	movq	-32(%rbp), %rax
	movq	-32(%rbp), %rcx
	movl	(%rcx), %ecx
	subl	$1, %ecx
	movslq	%ecx, %rcx
	movq	8(%rax,%rcx,8), %rax
	movq	%rax, -16(%rbp)
	movq	-16(%rbp), %rax
	movq	img, %rcx
	movq	%rax, 14160(%rcx)
	movq	img, %rax
	movl	71792(%rax), %eax
	cltd
	movl	$256, %ecx              # imm = 0x100
	idivl	%ecx
	movq	-16(%rbp), %rax
	movl	%edx, (%rax)
	movq	img, %rax
	movl	40(%rax), %eax
	movq	-16(%rbp), %rcx
	movl	%eax, 4(%rcx)
	movl	-36(%rbp), %eax
	movq	-16(%rbp), %rcx
	movl	%eax, 12(%rcx)
	movq	-16(%rbp), %rax
	movabsq	$dummy_slice_too_big, %rcx
	movq	%rcx, 120(%rax)
	movl	$0, -20(%rbp)
.LBB19_3:                               # %for.cond
                                        # =>This Inner Loop Header: Depth=1
	movl	-20(%rbp), %eax
	movq	-16(%rbp), %rcx
	cmpl	16(%rcx), %eax
	jge	.LBB19_9
# %bb.4:                                # %for.body
                                        #   in Loop: Header=BB19_3 Depth=1
	movq	-16(%rbp), %rax
	movq	24(%rax), %rax
	movslq	-20(%rbp), %rcx
	imulq	$120, %rcx, %rcx
	addq	%rcx, %rax
	movq	%rax, -48(%rbp)
	movq	input, %rax
	cmpl	$0, 2356(%rax)
	jne	.LBB19_6
# %bb.5:                                # %if.then13
                                        #   in Loop: Header=BB19_3 Depth=1
	movq	-48(%rbp), %rax
	movabsq	$writeSyntaxElement_UVLC, %rcx
	movq	%rcx, 112(%rax)
	jmp	.LBB19_7
.LBB19_6:                               # %if.else
                                        #   in Loop: Header=BB19_3 Depth=1
	movq	-48(%rbp), %rax
	movabsq	$writeSyntaxElement_CABAC, %rcx
	movq	%rcx, 112(%rax)
.LBB19_7:                               # %if.end15
                                        #   in Loop: Header=BB19_3 Depth=1
	movq	-48(%rbp), %rax
	movq	(%rax), %rax
	movq	%rax, -56(%rbp)
	movq	-56(%rbp), %rax
	movl	$8, 4(%rax)
	movq	-56(%rbp), %rax
	movl	$0, (%rax)
	movq	-56(%rbp), %rax
	movb	$0, 8(%rax)
# %bb.8:                                # %for.inc
                                        #   in Loop: Header=BB19_3 Depth=1
	movl	-20(%rbp), %eax
	addl	$1, %eax
	movl	%eax, -20(%rbp)
	jmp	.LBB19_3
.LBB19_9:                               # %for.end
	movq	active_pps, %rax
	movl	184(%rax), %eax
	addl	$1, %eax
	movq	img, %rcx
	movl	%eax, 72000(%rcx)
	movq	active_pps, %rax
	movl	188(%rax), %eax
	addl	$1, %eax
	movq	img, %rcx
	movl	%eax, 72004(%rcx)
	movq	img, %rax
	movl	24(%rax), %edi
	movq	img, %rax
	movl	28(%rax), %esi
	callq	init_lists
	movl	listXsize, %eax
	movq	img, %rcx
	movl	%eax, 72000(%rcx)
	movl	listXsize+4, %eax
	movq	img, %rcx
	movl	%eax, 72004(%rcx)
	movq	img, %rax
	cmpl	$0, 24(%rax)
	je	.LBB19_11
# %bb.10:                               # %lor.lhs.false
	movq	img, %rax
	cmpl	$3, 24(%rax)
	jne	.LBB19_19
.LBB19_11:                              # %land.lhs.true
	movq	input, %rax
	cmpl	$0, 40(%rax)
	je	.LBB19_19
# %bb.12:                               # %if.then24
	movq	img, %rax
	movl	72000(%rax), %eax
	movq	input, %rcx
	cmpl	40(%rcx), %eax
	jge	.LBB19_14
# %bb.13:                               # %cond.true
	movq	img, %rax
	movl	72000(%rax), %eax
	jmp	.LBB19_15
.LBB19_14:                              # %cond.false
	movq	input, %rax
	movl	40(%rax), %eax
.LBB19_15:                              # %cond.end
	movq	img, %rcx
	movl	%eax, 72000(%rcx)
	movl	listXsize, %eax
	movq	input, %rcx
	cmpl	40(%rcx), %eax
	jge	.LBB19_17
# %bb.16:                               # %cond.true33
	movl	listXsize, %eax
	jmp	.LBB19_18
.LBB19_17:                              # %cond.false34
	movq	input, %rax
	movl	40(%rax), %eax
.LBB19_18:                              # %cond.end36
	movl	%eax, listXsize
.LBB19_19:                              # %if.end38
	movq	img, %rax
	cmpl	$1, 24(%rax)
	jne	.LBB19_37
# %bb.20:                               # %if.then41
	movq	input, %rax
	cmpl	$0, 44(%rax)
	je	.LBB19_28
# %bb.21:                               # %if.then43
	movq	img, %rax
	movl	72000(%rax), %eax
	movq	input, %rcx
	cmpl	44(%rcx), %eax
	jge	.LBB19_23
# %bb.22:                               # %cond.true47
	movq	img, %rax
	movl	72000(%rax), %eax
	jmp	.LBB19_24
.LBB19_23:                              # %cond.false49
	movq	input, %rax
	movl	44(%rax), %eax
.LBB19_24:                              # %cond.end51
	movq	img, %rcx
	movl	%eax, 72000(%rcx)
	movl	listXsize, %eax
	movq	input, %rcx
	cmpl	44(%rcx), %eax
	jge	.LBB19_26
# %bb.25:                               # %cond.true56
	movl	listXsize, %eax
	jmp	.LBB19_27
.LBB19_26:                              # %cond.false57
	movq	input, %rax
	movl	44(%rax), %eax
.LBB19_27:                              # %cond.end59
	movl	%eax, listXsize
.LBB19_28:                              # %if.end61
	movq	input, %rax
	cmpl	$0, 48(%rax)
	je	.LBB19_36
# %bb.29:                               # %if.then63
	movq	img, %rax
	movl	72004(%rax), %eax
	movq	input, %rcx
	cmpl	48(%rcx), %eax
	jge	.LBB19_31
# %bb.30:                               # %cond.true67
	movq	img, %rax
	movl	72004(%rax), %eax
	jmp	.LBB19_32
.LBB19_31:                              # %cond.false69
	movq	input, %rax
	movl	48(%rax), %eax
.LBB19_32:                              # %cond.end71
	movq	img, %rcx
	movl	%eax, 72004(%rcx)
	movl	listXsize+4, %eax
	movq	input, %rcx
	cmpl	48(%rcx), %eax
	jge	.LBB19_34
# %bb.33:                               # %cond.true76
	movl	listXsize+4, %eax
	jmp	.LBB19_35
.LBB19_34:                              # %cond.false77
	movq	input, %rax
	movl	48(%rax), %eax
.LBB19_35:                              # %cond.end79
	movl	%eax, listXsize+4
.LBB19_36:                              # %if.end81
	jmp	.LBB19_37
.LBB19_37:                              # %if.end82
	movq	img, %rax
	cmpl	$0, 72496(%rax)
	je	.LBB19_42
# %bb.38:                               # %land.lhs.true84
	movq	input, %rax
	cmpl	$0, 1320(%rax)
	je	.LBB19_42
# %bb.39:                               # %land.lhs.true86
	movq	input, %rax
	cmpl	$0, 2352(%rax)
	je	.LBB19_42
# %bb.40:                               # %land.lhs.true88
	movl	dpb+28, %eax
	cmpl	dpb+24, %eax
	jne	.LBB19_42
# %bb.41:                               # %if.then90
	movq	img, %rax
	movl	72464(%rax), %edi
	callq	poc_based_ref_management
.LBB19_42:                              # %if.end91
	callq	init_ref_pic_list_reordering
	movq	img, %rax
	cmpl	$0, 24(%rax)
	jne	.LBB19_64
# %bb.43:                               # %land.lhs.true94
	movq	input, %rax
	cmpl	$0, 1320(%rax)
	je	.LBB19_64
# %bb.44:                               # %land.lhs.true97
	movq	input, %rax
	cmpl	$0, 2348(%rax)
	je	.LBB19_64
# %bb.45:                               # %if.then99
	movq	-16(%rbp), %rdi
	callq	alloc_ref_pic_list_reordering_buffer
	movq	img, %rax
	cmpl	$2, 24(%rax)
	je	.LBB19_58
# %bb.46:                               # %land.lhs.true103
	movq	img, %rax
	cmpl	$4, 24(%rax)
	je	.LBB19_58
# %bb.47:                               # %if.then106
	movl	$0, -4(%rbp)
.LBB19_48:                              # %for.cond107
                                        # =>This Inner Loop Header: Depth=1
	movl	-4(%rbp), %eax
	movq	img, %rcx
	movl	72000(%rcx), %ecx
	addl	$1, %ecx
	cmpl	%ecx, %eax
	jge	.LBB19_51
# %bb.49:                               # %for.body111
                                        #   in Loop: Header=BB19_48 Depth=1
	movq	-16(%rbp), %rax
	movq	64(%rax), %rax
	movslq	-4(%rbp), %rcx
	movl	$3, (%rax,%rcx,4)
	movq	-16(%rbp), %rax
	movq	72(%rax), %rax
	movslq	-4(%rbp), %rcx
	movl	$0, (%rax,%rcx,4)
	movq	-16(%rbp), %rax
	movq	80(%rax), %rax
	movslq	-4(%rbp), %rcx
	movl	$0, (%rax,%rcx,4)
# %bb.50:                               # %for.inc118
                                        #   in Loop: Header=BB19_48 Depth=1
	movl	-4(%rbp), %eax
	addl	$1, %eax
	movl	%eax, -4(%rbp)
	jmp	.LBB19_48
.LBB19_51:                              # %for.end120
	movq	img, %rax
	cmpl	$1, 24(%rax)
	jne	.LBB19_57
# %bb.52:                               # %if.then123
	movl	$0, -4(%rbp)
.LBB19_53:                              # %for.cond124
                                        # =>This Inner Loop Header: Depth=1
	movl	-4(%rbp), %eax
	movq	img, %rcx
	movl	72004(%rcx), %ecx
	addl	$1, %ecx
	cmpl	%ecx, %eax
	jge	.LBB19_56
# %bb.54:                               # %for.body128
                                        #   in Loop: Header=BB19_53 Depth=1
	movq	-16(%rbp), %rax
	movq	96(%rax), %rax
	movslq	-4(%rbp), %rcx
	movl	$3, (%rax,%rcx,4)
	movq	-16(%rbp), %rax
	movq	104(%rax), %rax
	movslq	-4(%rbp), %rcx
	movl	$0, (%rax,%rcx,4)
	movq	-16(%rbp), %rax
	movq	112(%rax), %rax
	movslq	-4(%rbp), %rcx
	movl	$0, (%rax,%rcx,4)
# %bb.55:                               # %for.inc135
                                        #   in Loop: Header=BB19_53 Depth=1
	movl	-4(%rbp), %eax
	addl	$1, %eax
	movl	%eax, -4(%rbp)
	jmp	.LBB19_53
.LBB19_56:                              # %for.end137
	jmp	.LBB19_57
.LBB19_57:                              # %if.end138
	jmp	.LBB19_58
.LBB19_58:                              # %if.end139
	movq	img, %rax
	cmpl	$2, 24(%rax)
	je	.LBB19_63
# %bb.59:                               # %land.lhs.true142
	movq	img, %rax
	cmpl	$4, 24(%rax)
	je	.LBB19_63
# %bb.60:                               # %if.then145
	movq	img, %rax
	movl	72000(%rax), %eax
	movl	%eax, -24(%rbp)
	movq	listX, %rdi
	movl	-24(%rbp), %esi
	movq	-16(%rbp), %rax
	movq	64(%rax), %rdx
	movq	-16(%rbp), %rax
	movq	72(%rax), %rcx
	movq	-16(%rbp), %rax
	movq	80(%rax), %r8
	xorl	%r9d, %r9d
	movl	$0, (%rsp)
	callq	poc_ref_pic_reorder
	movq	listX, %rdi
	movq	img, %rax
	movl	72000(%rax), %edx
	subl	$1, %edx
	movq	-16(%rbp), %rax
	movq	64(%rax), %rcx
	movq	-16(%rbp), %rax
	movq	72(%rax), %r8
	movq	-16(%rbp), %rax
	movq	80(%rax), %r9
	movabsq	$listXsize, %rsi
	callq	reorder_ref_pic_list
	movq	img, %rax
	cmpl	$1, 24(%rax)
	jne	.LBB19_62
# %bb.61:                               # %if.then157
	movq	img, %rax
	movl	72004(%rax), %eax
	movl	%eax, -24(%rbp)
	movq	listX+8, %rdi
	movl	-24(%rbp), %esi
	movq	-16(%rbp), %rax
	movq	96(%rax), %rdx
	movq	-16(%rbp), %rax
	movq	104(%rax), %rcx
	movq	-16(%rbp), %rax
	movq	112(%rax), %r8
	xorl	%r9d, %r9d
	movl	$1, (%rsp)
	callq	poc_ref_pic_reorder
	movabsq	$listXsize, %rsi
	addq	$4, %rsi
	movq	listX+8, %rdi
	movq	img, %rax
	movl	72004(%rax), %edx
	subl	$1, %edx
	movq	-16(%rbp), %rax
	movq	96(%rax), %rcx
	movq	-16(%rbp), %rax
	movq	104(%rax), %r8
	movq	-16(%rbp), %rax
	movq	112(%rax), %r9
	callq	reorder_ref_pic_list
.LBB19_62:                              # %if.end167
	jmp	.LBB19_63
.LBB19_63:                              # %if.end168
	jmp	.LBB19_64
.LBB19_64:                              # %if.end169
	movq	img, %rax
	cmpl	$0, 28(%rax)
	jne	.LBB19_66
# %bb.65:                               # %if.then172
	movb	$0, %al
	callq	init_mbaff_lists
.LBB19_66:                              # %if.end173
	movq	img, %rax
	cmpl	$2, 24(%rax)
	je	.LBB19_82
# %bb.67:                               # %land.lhs.true176
	movq	active_pps, %rax
	cmpl	$1, 192(%rax)
	je	.LBB19_70
# %bb.68:                               # %lor.lhs.false178
	movq	active_pps, %rax
	cmpl	$0, 196(%rax)
	jbe	.LBB19_82
# %bb.69:                               # %land.lhs.true180
	movq	img, %rax
	cmpl	$1, 24(%rax)
	jne	.LBB19_82
.LBB19_70:                              # %if.then183
	movq	img, %rax
	cmpl	$0, 24(%rax)
	je	.LBB19_72
# %bb.71:                               # %lor.lhs.false186
	movq	img, %rax
	cmpl	$3, 24(%rax)
	jne	.LBB19_80
.LBB19_72:                              # %if.then189
	movq	input, %rax
	cmpl	$0, 60(%rax)
	je	.LBB19_78
# %bb.73:                               # %land.lhs.true191
	movq	input, %rax
	cmpl	$0, 1296(%rax)
	je	.LBB19_78
# %bb.74:                               # %if.then193
	movq	enc_picture, %rax
	cmpq	enc_frame_picture2, %rax
	jne	.LBB19_76
# %bb.75:                               # %if.then195
	xorl	%edi, %edi
	callq	estimate_weighting_factor_P_slice
	jmp	.LBB19_77
.LBB19_76:                              # %if.else196
	movl	$1, %edi
	callq	estimate_weighting_factor_P_slice
.LBB19_77:                              # %if.end197
	jmp	.LBB19_79
.LBB19_78:                              # %if.else198
	xorl	%edi, %edi
	callq	estimate_weighting_factor_P_slice
.LBB19_79:                              # %if.end199
	jmp	.LBB19_81
.LBB19_80:                              # %if.else200
	movb	$0, %al
	callq	estimate_weighting_factor_B_slice
.LBB19_81:                              # %if.end201
	jmp	.LBB19_82
.LBB19_82:                              # %if.end202
	callq	set_ref_pic_num
	movq	img, %rax
	cmpl	$1, 24(%rax)
	jne	.LBB19_84
# %bb.83:                               # %if.then205
	movq	Co_located, %rdi
	movabsq	$listX, %rsi
	callq	compute_colocated
.LBB19_84:                              # %if.end206
	cmpl	$1578514429, -60(%rbp)  # imm = 0x5E1637FD
	jne	.LBB19_86
.LBB19_85:
	addq	$80, %rsp
	popq	%rbp
	.cfi_def_cfa %rsp, 8
	retq
.LBB19_86:                              # %func_exit
	.cfi_def_cfa %rbp, 16
	callq	detect_breach
	jmp	.LBB19_85
.Lfunc_end19:
	.size	init_slice.9, .Lfunc_end19-init_slice.9
	.cfi_endproc
                                        # -- End function
	.globl	start_slice.10          # -- Begin function start_slice.10
	.p2align	4, 0x90
	.type	start_slice.10,@function
start_slice.10:                         # @start_slice.10
	.cfi_startproc
# %bb.0:                                # %entry
	pushq	%rbp
	.cfi_def_cfa_offset 16
	.cfi_offset %rbp, -16
	movq	%rsp, %rbp
	.cfi_def_cfa_register %rbp
	pushq	%rbx
	subq	$40, %rsp
	.cfi_offset %rbx, -24
	movl	$542007036, -32(%rbp)   # imm = 0x204E5EFC
	movq	img, %rax
	movq	14160(%rax), %rax
	movq	%rax, -40(%rbp)
	movl	$0, -12(%rbp)
	movq	input, %rax
	movl	2364(%rax), %eax
	cmpl	$0, %eax
	movl	$1, %eax
	movl	$3, %ecx
	cmovel	%eax, %ecx
	movl	%ecx, -28(%rbp)
	movq	img, %rax
	movq	14152(%rax), %rax
	cmpl	$0, 4(%rax)
	je	.LBB20_2
# %bb.1:                                # %if.then
	movl	$1, -28(%rbp)
.LBB20_2:                               # %if.end
	movq	img, %rax
	movl	71792(%rax), %edi
	callq	RTPUpdateTimestamp
	movl	$0, -16(%rbp)
.LBB20_3:                               # %for.cond
                                        # =>This Inner Loop Header: Depth=1
	movl	-16(%rbp), %eax
	cmpl	-28(%rbp), %eax
	jge	.LBB20_14
# %bb.4:                                # %for.body
                                        #   in Loop: Header=BB20_3 Depth=1
	movq	-40(%rbp), %rax
	movq	24(%rax), %rax
	movslq	-16(%rbp), %rcx
	imulq	$120, %rcx, %rcx
	addq	%rcx, %rax
	movq	(%rax), %rax
	movq	%rax, -24(%rbp)
	movq	-24(%rbp), %rax
	movl	$0, 40(%rax)
	cmpl	$0, -16(%rbp)
	jne	.LBB20_6
# %bb.5:                                # %if.then3
                                        #   in Loop: Header=BB20_3 Depth=1
	xorl	%edi, %edi
	movb	$0, %al
	callq	SliceHeader
	addl	-12(%rbp), %eax
	movl	%eax, -12(%rbp)
	jmp	.LBB20_7
.LBB20_6:                               # %if.else
                                        #   in Loop: Header=BB20_3 Depth=1
	movl	-16(%rbp), %edi
	movb	$0, %al
	callq	Partition_BC_Header
	addl	-12(%rbp), %eax
	movl	%eax, -12(%rbp)
.LBB20_7:                               # %if.end6
                                        #   in Loop: Header=BB20_3 Depth=1
	movq	input, %rax
	cmpl	$1, 2356(%rax)
	jne	.LBB20_11
# %bb.8:                                # %if.then8
                                        #   in Loop: Header=BB20_3 Depth=1
	movq	-40(%rbp), %rax
	movq	24(%rax), %rax
	movslq	-16(%rbp), %rcx
	imulq	$120, %rcx, %rcx
	addq	%rcx, %rax
	addq	$8, %rax
	movq	%rax, -48(%rbp)
	movq	-24(%rbp), %rax
	cmpl	$8, 4(%rax)
	je	.LBB20_10
# %bb.9:                                # %if.then13
                                        #   in Loop: Header=BB20_3 Depth=1
	movq	-24(%rbp), %rax
	movl	4(%rax), %eax
	addl	-12(%rbp), %eax
	movl	%eax, -12(%rbp)
.LBB20_10:                              # %if.end16
                                        #   in Loop: Header=BB20_3 Depth=1
	movq	-24(%rbp), %rdi
	callq	writeVlcByteAlign
	movq	-48(%rbp), %rdi
	movq	-24(%rbp), %rax
	movq	32(%rax), %rsi
	movq	-24(%rbp), %rdx
	movq	img, %rax
	movl	24(%rax), %ecx
	callq	arienco_start_encoding
	movb	$0, %al
	callq	cabac_new_slice
	jmp	.LBB20_12
.LBB20_11:                              # %if.else17
                                        #   in Loop: Header=BB20_3 Depth=1
	movb	$0, %al
	callq	CAVLC_init
.LBB20_12:                              # %if.end18
                                        #   in Loop: Header=BB20_3 Depth=1
	jmp	.LBB20_13
.LBB20_13:                              # %for.inc
                                        #   in Loop: Header=BB20_3 Depth=1
	movl	-16(%rbp), %eax
	addl	$1, %eax
	movl	%eax, -16(%rbp)
	jmp	.LBB20_3
.LBB20_14:                              # %for.end
	movq	input, %rax
	cmpl	$1, 2356(%rax)
	jne	.LBB20_16
# %bb.15:                               # %if.then21
	movb	$0, %al
	callq	init_contexts
.LBB20_16:                              # %if.end22
	movl	-12(%rbp), %ebx
	cmpl	$542007036, -32(%rbp)   # imm = 0x204E5EFC
	jne	.LBB20_18
.LBB20_17:
	movl	%ebx, %eax
	addq	$40, %rsp
	popq	%rbx
	popq	%rbp
	.cfi_def_cfa %rsp, 8
	retq
.LBB20_18:                              # %func_exit
	.cfi_def_cfa %rbp, 16
	callq	detect_breach
	jmp	.LBB20_17
.Lfunc_end20:
	.size	start_slice.10, .Lfunc_end20-start_slice.10
	.cfi_endproc
                                        # -- End function
	.globl	modify_redundant_pic_cnt.11 # -- Begin function modify_redundant_pic_cnt.11
	.p2align	4, 0x90
	.type	modify_redundant_pic_cnt.11,@function
modify_redundant_pic_cnt.11:            # @modify_redundant_pic_cnt.11
	.cfi_startproc
# %bb.0:                                # %entry
	pushq	%rbp
	.cfi_def_cfa_offset 16
	.cfi_offset %rbp, -16
	movq	%rsp, %rbp
	.cfi_def_cfa_register %rbp
	subq	$16, %rsp
	movl	$194310151, -8(%rbp)    # imm = 0xB94F007
	movq	%rdi, -16(%rbp)
	movl	rpc_bits_to_go, %ecx
	subl	$1, %ecx
                                        # kill: def $cl killed $ecx
	movl	$1, %eax
	shll	%cl, %eax
	movb	%al, -1(%rbp)
	movzbl	-1(%rbp), %eax
	movq	-16(%rbp), %rcx
	movslq	rpc_bytes_to_go, %rdx
	movzbl	(%rcx,%rdx), %esi
	orl	%eax, %esi
	movb	%sil, (%rcx,%rdx)
	cmpl	$194310151, -8(%rbp)    # imm = 0xB94F007
	jne	.LBB21_2
.LBB21_1:
	addq	$16, %rsp
	popq	%rbp
	.cfi_def_cfa %rsp, 8
	retq
.LBB21_2:                               # %func_exit
	.cfi_def_cfa %rbp, 16
	callq	detect_breach
	jmp	.LBB21_1
.Lfunc_end21:
	.size	modify_redundant_pic_cnt.11, .Lfunc_end21-modify_redundant_pic_cnt.11
	.cfi_endproc
                                        # -- End function
	.p2align	4, 0x90         # -- Begin function malloc_slice.12
	.type	malloc_slice.12,@function
malloc_slice.12:                        # @malloc_slice.12
	.cfi_startproc
# %bb.0:                                # %entry
	pushq	%rbp
	.cfi_def_cfa_offset 16
	.cfi_offset %rbp, -16
	movq	%rsp, %rbp
	.cfi_def_cfa_register %rbp
	pushq	%rbx
	subq	$40, %rsp
	.cfi_offset %rbx, -24
	movl	$422697683, -28(%rbp)   # imm = 0x1931DAD3
	movq	img, %rax
	movl	52(%rax), %eax
	movq	img, %rcx
	imull	60(%rcx), %eax
	shll	$2, %eax
	movl	%eax, -24(%rbp)
	movl	$1, %edi
	movl	$152, %esi
	callq	calloc
	movq	%rax, -16(%rbp)
	cmpq	$0, %rax
	jne	.LBB22_2
# %bb.1:                                # %if.then
	movabsq	$.L.str.2, %rdi
	callq	no_mem_exit
.LBB22_2:                               # %if.end
	movq	input, %rax
	cmpl	$1, 2356(%rax)
	jne	.LBB22_4
# %bb.3:                                # %if.then3
	callq	create_contexts_MotionInfo
	movq	-16(%rbp), %rcx
	movq	%rax, 32(%rcx)
	callq	create_contexts_TextureInfo
	movq	-16(%rbp), %rcx
	movq	%rax, 40(%rcx)
.LBB22_4:                               # %if.end6
	movq	input, %rax
	movl	2364(%rax), %eax
	cmpl	$0, %eax
	movl	$1, %eax
	movl	$3, %ecx
	cmovel	%eax, %ecx
	movq	-16(%rbp), %rax
	movl	%ecx, 16(%rax)
	movq	img, %rax
	movq	14152(%rax), %rax
	cmpl	$0, 4(%rax)
	je	.LBB22_6
# %bb.5:                                # %if.then8
	movq	-16(%rbp), %rax
	movl	$1, 16(%rax)
.LBB22_6:                               # %if.end10
	movabsq	$assignSE2partition_NoDP, %rax
	movq	%rax, assignSE2partition
	movq	img, %rax
	movq	14152(%rax), %rax
	cmpl	$0, 4(%rax)
	jne	.LBB22_9
# %bb.7:                                # %land.lhs.true
	movq	input, %rax
	cmpl	$1, 2364(%rax)
	jne	.LBB22_9
# %bb.8:                                # %if.then16
	movabsq	$assignSE2partition_DP, %rax
	movq	%rax, assignSE2partition+8
	jmp	.LBB22_10
.LBB22_9:                               # %if.else
	movabsq	$assignSE2partition_NoDP, %rax
	movq	%rax, assignSE2partition+8
.LBB22_10:                              # %if.end17
	movq	-16(%rbp), %rax
	movl	$0, 20(%rax)
	movq	-16(%rbp), %rax
	movslq	16(%rax), %rdi
	movl	$120, %esi
	callq	calloc
	movq	-16(%rbp), %rcx
	movq	%rax, 24(%rcx)
	cmpq	$0, %rax
	jne	.LBB22_12
# %bb.11:                               # %if.then22
	movabsq	$.L.str.3, %rdi
	callq	no_mem_exit
.LBB22_12:                              # %if.end23
	movl	$0, -20(%rbp)
.LBB22_13:                              # %for.cond
                                        # =>This Inner Loop Header: Depth=1
	movl	-20(%rbp), %eax
	movq	-16(%rbp), %rcx
	cmpl	16(%rcx), %eax
	jge	.LBB22_20
# %bb.14:                               # %for.body
                                        #   in Loop: Header=BB22_13 Depth=1
	movq	-16(%rbp), %rax
	movq	24(%rax), %rax
	movslq	-20(%rbp), %rcx
	imulq	$120, %rcx, %rcx
	addq	%rcx, %rax
	movq	%rax, -40(%rbp)
	movl	$1, %edi
	movl	$48, %esi
	callq	calloc
	movq	-40(%rbp), %rcx
	movq	%rax, (%rcx)
	cmpq	$0, %rax
	jne	.LBB22_16
# %bb.15:                               # %if.then31
                                        #   in Loop: Header=BB22_13 Depth=1
	movabsq	$.L.str.4, %rdi
	callq	no_mem_exit
.LBB22_16:                              # %if.end32
                                        #   in Loop: Header=BB22_13 Depth=1
	movslq	-24(%rbp), %rdi
	movl	$1, %esi
	callq	calloc
	movq	-40(%rbp), %rcx
	movq	(%rcx), %rcx
	movq	%rax, 32(%rcx)
	cmpq	$0, %rax
	jne	.LBB22_18
# %bb.17:                               # %if.then38
                                        #   in Loop: Header=BB22_13 Depth=1
	movabsq	$.L.str.5, %rdi
	callq	no_mem_exit
.LBB22_18:                              # %if.end39
                                        #   in Loop: Header=BB22_13 Depth=1
	jmp	.LBB22_19
.LBB22_19:                              # %for.inc
                                        #   in Loop: Header=BB22_13 Depth=1
	movl	-20(%rbp), %eax
	addl	$1, %eax
	movl	%eax, -20(%rbp)
	jmp	.LBB22_13
.LBB22_20:                              # %for.end
	movq	-16(%rbp), %rbx
	cmpl	$422697683, -28(%rbp)   # imm = 0x1931DAD3
	jne	.LBB22_22
.LBB22_21:
	movq	%rbx, %rax
	addq	$40, %rsp
	popq	%rbx
	popq	%rbp
	.cfi_def_cfa %rsp, 8
	retq
.LBB22_22:                              # %func_exit
	.cfi_def_cfa %rbp, 16
	callq	detect_breach
	jmp	.LBB22_21
.Lfunc_end22:
	.size	malloc_slice.12, .Lfunc_end22-malloc_slice.12
	.cfi_endproc
                                        # -- End function
	.globl	free_slice_list.13      # -- Begin function free_slice_list.13
	.p2align	4, 0x90
	.type	free_slice_list.13,@function
free_slice_list.13:                     # @free_slice_list.13
	.cfi_startproc
# %bb.0:                                # %entry
	pushq	%rbp
	.cfi_def_cfa_offset 16
	.cfi_offset %rbp, -16
	movq	%rsp, %rbp
	.cfi_def_cfa_register %rbp
	subq	$32, %rsp
	movl	$1771235550, -20(%rbp)  # imm = 0x6992E8DE
	movq	%rdi, -16(%rbp)
	movl	$0, -4(%rbp)
.LBB23_1:                               # %for.cond
                                        # =>This Inner Loop Header: Depth=1
	movl	-4(%rbp), %eax
	movq	-16(%rbp), %rcx
	cmpl	(%rcx), %eax
	jge	.LBB23_4
# %bb.2:                                # %for.body
                                        #   in Loop: Header=BB23_1 Depth=1
	movq	-16(%rbp), %rax
	movslq	-4(%rbp), %rcx
	movq	8(%rax,%rcx,8), %rdi
	callq	free_slice
	movq	-16(%rbp), %rax
	movslq	-4(%rbp), %rcx
	movq	$0, 8(%rax,%rcx,8)
# %bb.3:                                # %for.inc
                                        #   in Loop: Header=BB23_1 Depth=1
	movl	-4(%rbp), %eax
	addl	$1, %eax
	movl	%eax, -4(%rbp)
	jmp	.LBB23_1
.LBB23_4:                               # %for.end
	cmpl	$1771235550, -20(%rbp)  # imm = 0x6992E8DE
	jne	.LBB23_6
.LBB23_5:
	addq	$32, %rsp
	popq	%rbp
	.cfi_def_cfa %rsp, 8
	retq
.LBB23_6:                               # %func_exit
	.cfi_def_cfa %rbp, 16
	callq	detect_breach
	jmp	.LBB23_5
.Lfunc_end23:
	.size	free_slice_list.13, .Lfunc_end23-free_slice_list.13
	.cfi_endproc
                                        # -- End function
	.p2align	4, 0x90         # -- Begin function free_slice.14
	.type	free_slice.14,@function
free_slice.14:                          # @free_slice.14
	.cfi_startproc
# %bb.0:                                # %entry
	pushq	%rbp
	.cfi_def_cfa_offset 16
	.cfi_offset %rbp, -16
	movq	%rsp, %rbp
	.cfi_def_cfa_register %rbp
	subq	$32, %rsp
	movl	$43522702, -28(%rbp)    # imm = 0x2981A8E
	movq	%rdi, -16(%rbp)
	cmpq	$0, -16(%rbp)
	je	.LBB24_16
# %bb.1:                                # %if.then
	movl	$0, -4(%rbp)
.LBB24_2:                               # %for.cond
                                        # =>This Inner Loop Header: Depth=1
	movl	-4(%rbp), %eax
	movq	-16(%rbp), %rcx
	cmpl	16(%rcx), %eax
	jge	.LBB24_11
# %bb.3:                                # %for.body
                                        #   in Loop: Header=BB24_2 Depth=1
	movq	-16(%rbp), %rax
	movq	24(%rax), %rax
	movslq	-4(%rbp), %rcx
	imulq	$120, %rcx, %rcx
	addq	%rcx, %rax
	movq	%rax, -24(%rbp)
	cmpq	$0, -24(%rbp)
	je	.LBB24_9
# %bb.4:                                # %if.then3
                                        #   in Loop: Header=BB24_2 Depth=1
	movq	-24(%rbp), %rax
	movq	(%rax), %rax
	cmpq	$0, 32(%rax)
	je	.LBB24_6
# %bb.5:                                # %if.then5
                                        #   in Loop: Header=BB24_2 Depth=1
	movq	-24(%rbp), %rax
	movq	(%rax), %rax
	movq	32(%rax), %rdi
	callq	free
.LBB24_6:                               # %if.end
                                        #   in Loop: Header=BB24_2 Depth=1
	movq	-24(%rbp), %rax
	cmpq	$0, (%rax)
	je	.LBB24_8
# %bb.7:                                # %if.then10
                                        #   in Loop: Header=BB24_2 Depth=1
	movq	-24(%rbp), %rax
	movq	(%rax), %rdi
	callq	free
.LBB24_8:                               # %if.end12
                                        #   in Loop: Header=BB24_2 Depth=1
	jmp	.LBB24_9
.LBB24_9:                               # %if.end13
                                        #   in Loop: Header=BB24_2 Depth=1
	jmp	.LBB24_10
.LBB24_10:                              # %for.inc
                                        #   in Loop: Header=BB24_2 Depth=1
	movl	-4(%rbp), %eax
	addl	$1, %eax
	movl	%eax, -4(%rbp)
	jmp	.LBB24_2
.LBB24_11:                              # %for.end
	movq	-16(%rbp), %rax
	cmpq	$0, 24(%rax)
	je	.LBB24_13
# %bb.12:                               # %if.then16
	movq	-16(%rbp), %rax
	movq	24(%rax), %rdi
	callq	free
.LBB24_13:                              # %if.end18
	movq	input, %rax
	cmpl	$1, 2356(%rax)
	jne	.LBB24_15
# %bb.14:                               # %if.then20
	movq	-16(%rbp), %rax
	movq	32(%rax), %rdi
	callq	delete_contexts_MotionInfo
	movq	-16(%rbp), %rax
	movq	40(%rax), %rdi
	callq	delete_contexts_TextureInfo
.LBB24_15:                              # %if.end21
	movq	-16(%rbp), %rdi
	callq	free
.LBB24_16:                              # %if.end22
	cmpl	$43522702, -28(%rbp)    # imm = 0x2981A8E
	jne	.LBB24_18
.LBB24_17:
	addq	$32, %rsp
	popq	%rbp
	.cfi_def_cfa %rsp, 8
	retq
.LBB24_18:                              # %func_exit
	.cfi_def_cfa %rbp, 16
	callq	detect_breach
	jmp	.LBB24_17
.Lfunc_end24:
	.size	free_slice.14, .Lfunc_end24-free_slice.14
	.cfi_endproc
                                        # -- End function
	.p2align	4, 0x90         # -- Begin function free_slice.15
	.type	free_slice.15,@function
free_slice.15:                          # @free_slice.15
	.cfi_startproc
# %bb.0:                                # %entry
	pushq	%rbp
	.cfi_def_cfa_offset 16
	.cfi_offset %rbp, -16
	movq	%rsp, %rbp
	.cfi_def_cfa_register %rbp
	subq	$32, %rsp
	movl	$1833203924, -28(%rbp)  # imm = 0x6D4478D4
	movq	%rdi, -16(%rbp)
	cmpq	$0, -16(%rbp)
	je	.LBB25_16
# %bb.1:                                # %if.then
	movl	$0, -4(%rbp)
.LBB25_2:                               # %for.cond
                                        # =>This Inner Loop Header: Depth=1
	movl	-4(%rbp), %eax
	movq	-16(%rbp), %rcx
	cmpl	16(%rcx), %eax
	jge	.LBB25_11
# %bb.3:                                # %for.body
                                        #   in Loop: Header=BB25_2 Depth=1
	movq	-16(%rbp), %rax
	movq	24(%rax), %rax
	movslq	-4(%rbp), %rcx
	imulq	$120, %rcx, %rcx
	addq	%rcx, %rax
	movq	%rax, -24(%rbp)
	cmpq	$0, -24(%rbp)
	je	.LBB25_9
# %bb.4:                                # %if.then3
                                        #   in Loop: Header=BB25_2 Depth=1
	movq	-24(%rbp), %rax
	movq	(%rax), %rax
	cmpq	$0, 32(%rax)
	je	.LBB25_6
# %bb.5:                                # %if.then5
                                        #   in Loop: Header=BB25_2 Depth=1
	movq	-24(%rbp), %rax
	movq	(%rax), %rax
	movq	32(%rax), %rdi
	callq	free
.LBB25_6:                               # %if.end
                                        #   in Loop: Header=BB25_2 Depth=1
	movq	-24(%rbp), %rax
	cmpq	$0, (%rax)
	je	.LBB25_8
# %bb.7:                                # %if.then10
                                        #   in Loop: Header=BB25_2 Depth=1
	movq	-24(%rbp), %rax
	movq	(%rax), %rdi
	callq	free
.LBB25_8:                               # %if.end12
                                        #   in Loop: Header=BB25_2 Depth=1
	jmp	.LBB25_9
.LBB25_9:                               # %if.end13
                                        #   in Loop: Header=BB25_2 Depth=1
	jmp	.LBB25_10
.LBB25_10:                              # %for.inc
                                        #   in Loop: Header=BB25_2 Depth=1
	movl	-4(%rbp), %eax
	addl	$1, %eax
	movl	%eax, -4(%rbp)
	jmp	.LBB25_2
.LBB25_11:                              # %for.end
	movq	-16(%rbp), %rax
	cmpq	$0, 24(%rax)
	je	.LBB25_13
# %bb.12:                               # %if.then16
	movq	-16(%rbp), %rax
	movq	24(%rax), %rdi
	callq	free
.LBB25_13:                              # %if.end18
	movq	input, %rax
	cmpl	$1, 2356(%rax)
	jne	.LBB25_15
# %bb.14:                               # %if.then20
	movq	-16(%rbp), %rax
	movq	32(%rax), %rdi
	callq	delete_contexts_MotionInfo
	movq	-16(%rbp), %rax
	movq	40(%rax), %rdi
	callq	delete_contexts_TextureInfo
.LBB25_15:                              # %if.end21
	movq	-16(%rbp), %rdi
	callq	free
.LBB25_16:                              # %if.end22
	cmpl	$1833203924, -28(%rbp)  # imm = 0x6D4478D4
	jne	.LBB25_18
.LBB25_17:
	addq	$32, %rsp
	popq	%rbp
	.cfi_def_cfa %rsp, 8
	retq
.LBB25_18:                              # %func_exit
	.cfi_def_cfa %rbp, 16
	callq	detect_breach
	jmp	.LBB25_17
.Lfunc_end25:
	.size	free_slice.15, .Lfunc_end25-free_slice.15
	.cfi_endproc
                                        # -- End function
	.globl	poc_ref_pic_reorder.16  # -- Begin function poc_ref_pic_reorder.16
	.p2align	4, 0x90
	.type	poc_ref_pic_reorder.16,@function
poc_ref_pic_reorder.16:                 # @poc_ref_pic_reorder.16
	.cfi_startproc
# %bb.0:                                # %entry
	pushq	%rbp
	.cfi_def_cfa_offset 16
	.cfi_offset %rbp, -16
	movq	%rsp, %rbp
	.cfi_def_cfa_register %rbp
	subq	$736, %rsp              # imm = 0x2E0
	movl	16(%rbp), %eax
	movl	$612684907, -72(%rbp)   # imm = 0x2484D46B
	movq	%rdi, -80(%rbp)
	movl	%esi, -12(%rbp)
	movq	%rdx, -64(%rbp)
	movq	%rcx, -56(%rbp)
	movq	%r8, -96(%rbp)
	movl	%r9d, -84(%rbp)
	movl	log2_max_frame_num_minus4, %ecx
	addl	$4, %ecx
                                        # kill: def $cl killed $ecx
	movl	$1, %eax
	shll	%cl, %eax
	movl	%eax, -44(%rbp)
	movq	img, %rax
	cmpl	$0, 28(%rax)
	jne	.LBB26_2
# %bb.1:                                # %if.then
	movl	-44(%rbp), %eax
	movl	%eax, -40(%rbp)
	movq	img, %rax
	movl	72464(%rax), %eax
	movl	%eax, -28(%rbp)
	jmp	.LBB26_3
.LBB26_2:                               # %if.else
	movl	-44(%rbp), %eax
	shll	$1, %eax
	movl	%eax, -40(%rbp)
	movq	img, %rax
	movl	72464(%rax), %eax
	shll	$1, %eax
	addl	$1, %eax
	movl	%eax, -28(%rbp)
.LBB26_3:                               # %if.end
	movl	-28(%rbp), %eax
	movl	%eax, -32(%rbp)
	movl	$0, -4(%rbp)
.LBB26_4:                               # %for.cond
                                        # =>This Inner Loop Header: Depth=1
	movl	-4(%rbp), %eax
	cmpl	-12(%rbp), %eax
	jae	.LBB26_7
# %bb.5:                                # %for.body
                                        #   in Loop: Header=BB26_4 Depth=1
	movq	-80(%rbp), %rax
	movl	-4(%rbp), %ecx
	movq	(%rax,%rcx,8), %rax
	movl	6364(%rax), %eax
	movl	-4(%rbp), %ecx
	movl	%eax, -608(%rbp,%rcx,4)
# %bb.6:                                # %for.inc
                                        #   in Loop: Header=BB26_4 Depth=1
	movl	-4(%rbp), %eax
	addl	$1, %eax
	movl	%eax, -4(%rbp)
	jmp	.LBB26_4
.LBB26_7:                               # %for.end
	movl	$0, -4(%rbp)
.LBB26_8:                               # %for.cond7
                                        # =>This Inner Loop Header: Depth=1
	movl	-4(%rbp), %eax
	cmpl	dpb+32, %eax
	jae	.LBB26_24
# %bb.9:                                # %for.body9
                                        #   in Loop: Header=BB26_8 Depth=1
	movq	dpb+8, %rax
	movl	-4(%rbp), %ecx
	movq	(%rax,%rcx,8), %rax
	movq	40(%rax), %rax
	movl	6364(%rax), %eax
	movl	-4(%rbp), %ecx
	movl	%eax, -224(%rbp,%rcx,4)
	movq	dpb+8, %rax
	movl	-4(%rbp), %ecx
	movq	(%rax,%rcx,8), %rax
	cmpl	$3, (%rax)
	jne	.LBB26_22
# %bb.10:                               # %land.lhs.true
                                        #   in Loop: Header=BB26_8 Depth=1
	movq	dpb+8, %rax
	movl	-4(%rbp), %ecx
	movq	(%rax,%rcx,8), %rax
	movq	40(%rax), %rax
	cmpl	$0, 6380(%rax)
	je	.LBB26_22
# %bb.11:                               # %land.lhs.true21
                                        #   in Loop: Header=BB26_8 Depth=1
	movq	dpb+8, %rax
	movl	-4(%rbp), %ecx
	movq	(%rax,%rcx,8), %rax
	movq	40(%rax), %rax
	cmpl	$0, 6376(%rax)
	jne	.LBB26_22
# %bb.12:                               # %if.then26
                                        #   in Loop: Header=BB26_8 Depth=1
	movq	dpb+8, %rax
	movl	-4(%rbp), %ecx
	movq	(%rax,%rcx,8), %rax
	movq	40(%rax), %rax
	movl	4(%rax), %edi
	movq	enc_picture, %rax
	subl	4(%rax), %edi
	callq	abs
	movl	%eax, -68(%rbp)
	movl	-68(%rbp), %eax
	movl	-4(%rbp), %ecx
	movl	%eax, -480(%rbp,%rcx,4)
	cmpl	$0, 16(%rbp)
	jne	.LBB26_17
# %bb.13:                               # %if.then34
                                        #   in Loop: Header=BB26_8 Depth=1
	movq	enc_picture, %rax
	movl	4(%rax), %eax
	movq	dpb+8, %rcx
	movl	-4(%rbp), %edx
	movq	(%rcx,%rdx,8), %rcx
	movq	40(%rcx), %rcx
	cmpl	4(%rcx), %eax
	jge	.LBB26_15
# %bb.14:                               # %if.then41
                                        #   in Loop: Header=BB26_8 Depth=1
	movl	-4(%rbp), %eax
	movl	$1, -352(%rbp,%rax,4)
	jmp	.LBB26_16
.LBB26_15:                              # %if.else44
                                        #   in Loop: Header=BB26_8 Depth=1
	movl	-4(%rbp), %eax
	movl	$-1, -352(%rbp,%rax,4)
.LBB26_16:                              # %if.end47
                                        #   in Loop: Header=BB26_8 Depth=1
	jmp	.LBB26_21
.LBB26_17:                              # %if.else48
                                        #   in Loop: Header=BB26_8 Depth=1
	movq	enc_picture, %rax
	movl	4(%rax), %eax
	movq	dpb+8, %rcx
	movl	-4(%rbp), %edx
	movq	(%rcx,%rdx,8), %rcx
	movq	40(%rcx), %rcx
	cmpl	4(%rcx), %eax
	jle	.LBB26_19
# %bb.18:                               # %if.then55
                                        #   in Loop: Header=BB26_8 Depth=1
	movl	-4(%rbp), %eax
	movl	$1, -352(%rbp,%rax,4)
	jmp	.LBB26_20
.LBB26_19:                              # %if.else58
                                        #   in Loop: Header=BB26_8 Depth=1
	movl	-4(%rbp), %eax
	movl	$-1, -352(%rbp,%rax,4)
.LBB26_20:                              # %if.end61
                                        #   in Loop: Header=BB26_8 Depth=1
	jmp	.LBB26_21
.LBB26_21:                              # %if.end62
                                        #   in Loop: Header=BB26_8 Depth=1
	jmp	.LBB26_22
.LBB26_22:                              # %if.end63
                                        #   in Loop: Header=BB26_8 Depth=1
	jmp	.LBB26_23
.LBB26_23:                              # %for.inc64
                                        #   in Loop: Header=BB26_8 Depth=1
	movl	-4(%rbp), %eax
	addl	$1, %eax
	movl	%eax, -4(%rbp)
	jmp	.LBB26_8
.LBB26_24:                              # %for.end66
	movl	$0, -4(%rbp)
.LBB26_25:                              # %for.cond67
                                        # =>This Loop Header: Depth=1
                                        #     Child Loop BB26_27 Depth 2
	movl	-4(%rbp), %eax
	movl	dpb+32, %ecx
	subl	$1, %ecx
	cmpl	%ecx, %eax
	jae	.LBB26_36
# %bb.26:                               # %for.body70
                                        #   in Loop: Header=BB26_25 Depth=1
	movl	-4(%rbp), %eax
	addl	$1, %eax
	movl	%eax, -8(%rbp)
.LBB26_27:                              # %for.cond72
                                        #   Parent Loop BB26_25 Depth=1
                                        # =>  This Inner Loop Header: Depth=2
	movl	-8(%rbp), %eax
	cmpl	dpb+32, %eax
	jae	.LBB26_34
# %bb.28:                               # %for.body74
                                        #   in Loop: Header=BB26_27 Depth=2
	movl	-4(%rbp), %eax
	movl	-480(%rbp,%rax,4), %eax
	movl	-8(%rbp), %ecx
	cmpl	-480(%rbp,%rcx,4), %eax
	jg	.LBB26_31
# %bb.29:                               # %lor.lhs.false
                                        #   in Loop: Header=BB26_27 Depth=2
	movl	-4(%rbp), %eax
	movl	-480(%rbp,%rax,4), %eax
	movl	-8(%rbp), %ecx
	cmpl	-480(%rbp,%rcx,4), %eax
	jne	.LBB26_32
# %bb.30:                               # %land.lhs.true85
                                        #   in Loop: Header=BB26_27 Depth=2
	movl	-8(%rbp), %eax
	movl	-352(%rbp,%rax,4), %eax
	movl	-4(%rbp), %ecx
	cmpl	-352(%rbp,%rcx,4), %eax
	jle	.LBB26_32
.LBB26_31:                              # %if.then91
                                        #   in Loop: Header=BB26_27 Depth=2
	movl	-4(%rbp), %eax
	movl	-480(%rbp,%rax,4), %eax
	movl	%eax, -16(%rbp)
	movl	-8(%rbp), %eax
	movl	-480(%rbp,%rax,4), %eax
	movl	-4(%rbp), %ecx
	movl	%eax, -480(%rbp,%rcx,4)
	movl	-16(%rbp), %eax
	movl	-8(%rbp), %ecx
	movl	%eax, -480(%rbp,%rcx,4)
	movl	-4(%rbp), %eax
	movl	-224(%rbp,%rax,4), %eax
	movl	%eax, -16(%rbp)
	movl	-8(%rbp), %eax
	movl	-224(%rbp,%rax,4), %eax
	movl	-4(%rbp), %ecx
	movl	%eax, -224(%rbp,%rcx,4)
	movl	-16(%rbp), %eax
	movl	-8(%rbp), %ecx
	movl	%eax, -224(%rbp,%rcx,4)
	movl	-4(%rbp), %eax
	movl	-352(%rbp,%rax,4), %eax
	movl	%eax, -16(%rbp)
	movl	-8(%rbp), %eax
	movl	-352(%rbp,%rax,4), %eax
	movl	-4(%rbp), %ecx
	movl	%eax, -352(%rbp,%rcx,4)
	movl	-16(%rbp), %eax
	movl	-8(%rbp), %ecx
	movl	%eax, -352(%rbp,%rcx,4)
.LBB26_32:                              # %if.end116
                                        #   in Loop: Header=BB26_27 Depth=2
	jmp	.LBB26_33
.LBB26_33:                              # %for.inc117
                                        #   in Loop: Header=BB26_27 Depth=2
	movl	-8(%rbp), %eax
	addl	$1, %eax
	movl	%eax, -8(%rbp)
	jmp	.LBB26_27
.LBB26_34:                              # %for.end119
                                        #   in Loop: Header=BB26_25 Depth=1
	jmp	.LBB26_35
.LBB26_35:                              # %for.inc120
                                        #   in Loop: Header=BB26_25 Depth=1
	movl	-4(%rbp), %eax
	addl	$1, %eax
	movl	%eax, -4(%rbp)
	jmp	.LBB26_25
.LBB26_36:                              # %for.end122
	movl	$1, -48(%rbp)
	movl	$0, -4(%rbp)
.LBB26_37:                              # %for.cond123
                                        # =>This Inner Loop Header: Depth=1
	movl	-4(%rbp), %eax
	cmpl	-12(%rbp), %eax
	jae	.LBB26_42
# %bb.38:                               # %for.body125
                                        #   in Loop: Header=BB26_37 Depth=1
	movl	-4(%rbp), %eax
	movl	-608(%rbp,%rax,4), %eax
	movl	-4(%rbp), %ecx
	cmpl	-224(%rbp,%rcx,4), %eax
	je	.LBB26_40
# %bb.39:                               # %if.then131
                                        #   in Loop: Header=BB26_37 Depth=1
	movl	$0, -48(%rbp)
.LBB26_40:                              # %if.end132
                                        #   in Loop: Header=BB26_37 Depth=1
	jmp	.LBB26_41
.LBB26_41:                              # %for.inc133
                                        #   in Loop: Header=BB26_37 Depth=1
	movl	-4(%rbp), %eax
	addl	$1, %eax
	movl	%eax, -4(%rbp)
	jmp	.LBB26_37
.LBB26_42:                              # %for.end135
	cmpl	$0, -48(%rbp)
	jne	.LBB26_80
# %bb.43:                               # %if.then137
	movl	$0, -4(%rbp)
.LBB26_44:                              # %for.cond138
                                        # =>This Loop Header: Depth=1
                                        #     Child Loop BB26_51 Depth 2
                                        #     Child Loop BB26_57 Depth 2
                                        #     Child Loop BB26_66 Depth 2
	movl	-4(%rbp), %eax
	cmpl	-12(%rbp), %eax
	jae	.LBB26_71
# %bb.45:                               # %for.body140
                                        #   in Loop: Header=BB26_44 Depth=1
	movl	-4(%rbp), %eax
	movl	-224(%rbp,%rax,4), %eax
	subl	-32(%rbp), %eax
	movl	%eax, -20(%rbp)
	cmpl	$0, -20(%rbp)
	jg	.LBB26_49
# %bb.46:                               # %if.then145
                                        #   in Loop: Header=BB26_44 Depth=1
	movq	-64(%rbp), %rax
	movl	-4(%rbp), %ecx
	movl	$0, (%rax,%rcx,4)
	movl	-20(%rbp), %edi
	callq	abs
	subl	$1, %eax
	movq	-56(%rbp), %rcx
	movl	-4(%rbp), %edx
	movl	%eax, (%rcx,%rdx,4)
	movq	-56(%rbp), %rax
	movl	-4(%rbp), %ecx
	cmpl	$0, (%rax,%rcx,4)
	jge	.LBB26_48
# %bb.47:                               # %if.then155
                                        #   in Loop: Header=BB26_44 Depth=1
	movl	-40(%rbp), %eax
	subl	$1, %eax
	movq	-56(%rbp), %rcx
	movl	-4(%rbp), %edx
	movl	%eax, (%rcx,%rdx,4)
.LBB26_48:                              # %if.end159
                                        #   in Loop: Header=BB26_44 Depth=1
	jmp	.LBB26_50
.LBB26_49:                              # %if.else160
                                        #   in Loop: Header=BB26_44 Depth=1
	movq	-64(%rbp), %rax
	movl	-4(%rbp), %ecx
	movl	$1, (%rax,%rcx,4)
	movl	-20(%rbp), %edi
	callq	abs
	subl	$1, %eax
	movq	-56(%rbp), %rcx
	movl	-4(%rbp), %edx
	movl	%eax, (%rcx,%rdx,4)
.LBB26_50:                              # %if.end167
                                        #   in Loop: Header=BB26_44 Depth=1
	movl	-4(%rbp), %eax
	movl	-224(%rbp,%rax,4), %eax
	movl	%eax, -32(%rbp)
	movl	-4(%rbp), %eax
	movl	-224(%rbp,%rax,4), %eax
	movl	-4(%rbp), %ecx
	movl	%eax, -736(%rbp,%rcx,4)
	movl	-4(%rbp), %eax
	movl	%eax, -24(%rbp)
	movl	-4(%rbp), %eax
	movl	%eax, -8(%rbp)
.LBB26_51:                              # %for.cond174
                                        #   Parent Loop BB26_44 Depth=1
                                        # =>  This Inner Loop Header: Depth=2
	movl	-8(%rbp), %eax
	cmpl	-12(%rbp), %eax
	jae	.LBB26_56
# %bb.52:                               # %for.body176
                                        #   in Loop: Header=BB26_51 Depth=2
	movl	-8(%rbp), %eax
	movl	-608(%rbp,%rax,4), %eax
	movl	-4(%rbp), %ecx
	cmpl	-224(%rbp,%rcx,4), %eax
	je	.LBB26_54
# %bb.53:                               # %if.then182
                                        #   in Loop: Header=BB26_51 Depth=2
	movl	-24(%rbp), %eax
	addl	$1, %eax
	movl	%eax, -24(%rbp)
	movl	-8(%rbp), %eax
	movl	-608(%rbp,%rax,4), %eax
	movl	-24(%rbp), %ecx
	movl	%eax, -736(%rbp,%rcx,4)
.LBB26_54:                              # %if.end188
                                        #   in Loop: Header=BB26_51 Depth=2
	jmp	.LBB26_55
.LBB26_55:                              # %for.inc189
                                        #   in Loop: Header=BB26_51 Depth=2
	movl	-8(%rbp), %eax
	addl	$1, %eax
	movl	%eax, -8(%rbp)
	jmp	.LBB26_51
.LBB26_56:                              # %for.end191
                                        #   in Loop: Header=BB26_44 Depth=1
	movl	$1, -36(%rbp)
	movl	-4(%rbp), %eax
	addl	$1, %eax
	movl	%eax, -8(%rbp)
.LBB26_57:                              # %for.cond193
                                        #   Parent Loop BB26_44 Depth=1
                                        # =>  This Inner Loop Header: Depth=2
	movl	-8(%rbp), %eax
	cmpl	-12(%rbp), %eax
	jae	.LBB26_62
# %bb.58:                               # %for.body195
                                        #   in Loop: Header=BB26_57 Depth=2
	movl	-8(%rbp), %eax
	movl	-736(%rbp,%rax,4), %eax
	movl	-8(%rbp), %ecx
	cmpl	-224(%rbp,%rcx,4), %eax
	je	.LBB26_60
# %bb.59:                               # %if.then201
                                        #   in Loop: Header=BB26_44 Depth=1
	movl	$0, -36(%rbp)
	jmp	.LBB26_63
.LBB26_60:                              # %if.end202
                                        #   in Loop: Header=BB26_57 Depth=2
	jmp	.LBB26_61
.LBB26_61:                              # %for.inc203
                                        #   in Loop: Header=BB26_57 Depth=2
	movl	-8(%rbp), %eax
	addl	$1, %eax
	movl	%eax, -8(%rbp)
	jmp	.LBB26_57
.LBB26_62:                              # %for.end205.loopexit
                                        #   in Loop: Header=BB26_44 Depth=1
	jmp	.LBB26_63
.LBB26_63:                              # %for.end205
                                        #   in Loop: Header=BB26_44 Depth=1
	cmpl	$1, -36(%rbp)
	jne	.LBB26_65
# %bb.64:                               # %if.then207
	movl	-4(%rbp), %eax
	addl	$1, %eax
	movl	%eax, -4(%rbp)
	jmp	.LBB26_72
.LBB26_65:                              # %if.end209
                                        #   in Loop: Header=BB26_44 Depth=1
	movl	$0, -8(%rbp)
.LBB26_66:                              # %for.cond210
                                        #   Parent Loop BB26_44 Depth=1
                                        # =>  This Inner Loop Header: Depth=2
	movl	-8(%rbp), %eax
	cmpl	-12(%rbp), %eax
	jae	.LBB26_69
# %bb.67:                               # %for.body212
                                        #   in Loop: Header=BB26_66 Depth=2
	movl	-8(%rbp), %eax
	movl	-736(%rbp,%rax,4), %eax
	movl	-8(%rbp), %ecx
	movl	%eax, -608(%rbp,%rcx,4)
# %bb.68:                               # %for.inc217
                                        #   in Loop: Header=BB26_66 Depth=2
	movl	-8(%rbp), %eax
	addl	$1, %eax
	movl	%eax, -8(%rbp)
	jmp	.LBB26_66
.LBB26_69:                              # %for.end219
                                        #   in Loop: Header=BB26_44 Depth=1
	jmp	.LBB26_70
.LBB26_70:                              # %for.inc220
                                        #   in Loop: Header=BB26_44 Depth=1
	movl	-4(%rbp), %eax
	addl	$1, %eax
	movl	%eax, -4(%rbp)
	jmp	.LBB26_44
.LBB26_71:                              # %for.end222.loopexit
	jmp	.LBB26_72
.LBB26_72:                              # %for.end222
	movq	-64(%rbp), %rax
	movl	-4(%rbp), %ecx
	movl	$3, (%rax,%rcx,4)
	movl	$0, -8(%rbp)
.LBB26_73:                              # %for.cond225
                                        # =>This Inner Loop Header: Depth=1
	movl	-8(%rbp), %eax
	cmpl	-12(%rbp), %eax
	jae	.LBB26_76
# %bb.74:                               # %for.body227
                                        #   in Loop: Header=BB26_73 Depth=1
	movl	-8(%rbp), %eax
	movl	-736(%rbp,%rax,4), %eax
	movl	-8(%rbp), %ecx
	movl	%eax, -608(%rbp,%rcx,4)
# %bb.75:                               # %for.inc232
                                        #   in Loop: Header=BB26_73 Depth=1
	movl	-8(%rbp), %eax
	addl	$1, %eax
	movl	%eax, -8(%rbp)
	jmp	.LBB26_73
.LBB26_76:                              # %for.end234
	cmpl	$0, 16(%rbp)
	jne	.LBB26_78
# %bb.77:                               # %if.then236
	movq	img, %rax
	movq	14160(%rax), %rax
	movl	$1, 56(%rax)
	jmp	.LBB26_79
.LBB26_78:                              # %if.else237
	movq	img, %rax
	movq	14160(%rax), %rax
	movl	$1, 88(%rax)
.LBB26_79:                              # %if.end239
	jmp	.LBB26_80
.LBB26_80:                              # %if.end240
	cmpl	$612684907, -72(%rbp)   # imm = 0x2484D46B
	jne	.LBB26_82
.LBB26_81:
	addq	$736, %rsp              # imm = 0x2E0
	popq	%rbp
	.cfi_def_cfa %rsp, 8
	retq
.LBB26_82:                              # %func_exit
	.cfi_def_cfa %rbp, 16
	callq	detect_breach
	jmp	.LBB26_81
.Lfunc_end26:
	.size	poc_ref_pic_reorder.16, .Lfunc_end26-poc_ref_pic_reorder.16
	.cfi_endproc
                                        # -- End function
	.p2align	4, 0x90         # -- Begin function malloc_slice.17
	.type	malloc_slice.17,@function
malloc_slice.17:                        # @malloc_slice.17
	.cfi_startproc
# %bb.0:                                # %entry
	pushq	%rbp
	.cfi_def_cfa_offset 16
	.cfi_offset %rbp, -16
	movq	%rsp, %rbp
	.cfi_def_cfa_register %rbp
	pushq	%rbx
	subq	$40, %rsp
	.cfi_offset %rbx, -24
	movl	$465490029, -28(%rbp)   # imm = 0x1BBED06D
	movq	img, %rax
	movl	52(%rax), %eax
	movq	img, %rcx
	imull	60(%rcx), %eax
	shll	$2, %eax
	movl	%eax, -24(%rbp)
	movl	$1, %edi
	movl	$152, %esi
	callq	calloc
	movq	%rax, -16(%rbp)
	cmpq	$0, %rax
	jne	.LBB27_2
# %bb.1:                                # %if.then
	movabsq	$.L.str.2, %rdi
	callq	no_mem_exit
.LBB27_2:                               # %if.end
	movq	input, %rax
	cmpl	$1, 2356(%rax)
	jne	.LBB27_4
# %bb.3:                                # %if.then3
	callq	create_contexts_MotionInfo
	movq	-16(%rbp), %rcx
	movq	%rax, 32(%rcx)
	callq	create_contexts_TextureInfo
	movq	-16(%rbp), %rcx
	movq	%rax, 40(%rcx)
.LBB27_4:                               # %if.end6
	movq	input, %rax
	movl	2364(%rax), %eax
	cmpl	$0, %eax
	movl	$1, %eax
	movl	$3, %ecx
	cmovel	%eax, %ecx
	movq	-16(%rbp), %rax
	movl	%ecx, 16(%rax)
	movq	img, %rax
	movq	14152(%rax), %rax
	cmpl	$0, 4(%rax)
	je	.LBB27_6
# %bb.5:                                # %if.then8
	movq	-16(%rbp), %rax
	movl	$1, 16(%rax)
.LBB27_6:                               # %if.end10
	movabsq	$assignSE2partition_NoDP, %rax
	movq	%rax, assignSE2partition
	movq	img, %rax
	movq	14152(%rax), %rax
	cmpl	$0, 4(%rax)
	jne	.LBB27_9
# %bb.7:                                # %land.lhs.true
	movq	input, %rax
	cmpl	$1, 2364(%rax)
	jne	.LBB27_9
# %bb.8:                                # %if.then16
	movabsq	$assignSE2partition_DP, %rax
	movq	%rax, assignSE2partition+8
	jmp	.LBB27_10
.LBB27_9:                               # %if.else
	movabsq	$assignSE2partition_NoDP, %rax
	movq	%rax, assignSE2partition+8
.LBB27_10:                              # %if.end17
	movq	-16(%rbp), %rax
	movl	$0, 20(%rax)
	movq	-16(%rbp), %rax
	movslq	16(%rax), %rdi
	movl	$120, %esi
	callq	calloc
	movq	-16(%rbp), %rcx
	movq	%rax, 24(%rcx)
	cmpq	$0, %rax
	jne	.LBB27_12
# %bb.11:                               # %if.then22
	movabsq	$.L.str.3, %rdi
	callq	no_mem_exit
.LBB27_12:                              # %if.end23
	movl	$0, -20(%rbp)
.LBB27_13:                              # %for.cond
                                        # =>This Inner Loop Header: Depth=1
	movl	-20(%rbp), %eax
	movq	-16(%rbp), %rcx
	cmpl	16(%rcx), %eax
	jge	.LBB27_20
# %bb.14:                               # %for.body
                                        #   in Loop: Header=BB27_13 Depth=1
	movq	-16(%rbp), %rax
	movq	24(%rax), %rax
	movslq	-20(%rbp), %rcx
	imulq	$120, %rcx, %rcx
	addq	%rcx, %rax
	movq	%rax, -40(%rbp)
	movl	$1, %edi
	movl	$48, %esi
	callq	calloc
	movq	-40(%rbp), %rcx
	movq	%rax, (%rcx)
	cmpq	$0, %rax
	jne	.LBB27_16
# %bb.15:                               # %if.then31
                                        #   in Loop: Header=BB27_13 Depth=1
	movabsq	$.L.str.4, %rdi
	callq	no_mem_exit
.LBB27_16:                              # %if.end32
                                        #   in Loop: Header=BB27_13 Depth=1
	movslq	-24(%rbp), %rdi
	movl	$1, %esi
	callq	calloc
	movq	-40(%rbp), %rcx
	movq	(%rcx), %rcx
	movq	%rax, 32(%rcx)
	cmpq	$0, %rax
	jne	.LBB27_18
# %bb.17:                               # %if.then38
                                        #   in Loop: Header=BB27_13 Depth=1
	movabsq	$.L.str.5, %rdi
	callq	no_mem_exit
.LBB27_18:                              # %if.end39
                                        #   in Loop: Header=BB27_13 Depth=1
	jmp	.LBB27_19
.LBB27_19:                              # %for.inc
                                        #   in Loop: Header=BB27_13 Depth=1
	movl	-20(%rbp), %eax
	addl	$1, %eax
	movl	%eax, -20(%rbp)
	jmp	.LBB27_13
.LBB27_20:                              # %for.end
	movq	-16(%rbp), %rbx
	cmpl	$465490029, -28(%rbp)   # imm = 0x1BBED06D
	jne	.LBB27_22
.LBB27_21:
	movq	%rbx, %rax
	addq	$40, %rsp
	popq	%rbx
	popq	%rbp
	.cfi_def_cfa %rsp, 8
	retq
.LBB27_22:                              # %func_exit
	.cfi_def_cfa %rbp, 16
	callq	detect_breach
	jmp	.LBB27_21
.Lfunc_end27:
	.size	malloc_slice.17, .Lfunc_end27-malloc_slice.17
	.cfi_endproc
                                        # -- End function
	.p2align	4, 0x90         # -- Begin function free_slice.18
	.type	free_slice.18,@function
free_slice.18:                          # @free_slice.18
	.cfi_startproc
# %bb.0:                                # %entry
	pushq	%rbp
	.cfi_def_cfa_offset 16
	.cfi_offset %rbp, -16
	movq	%rsp, %rbp
	.cfi_def_cfa_register %rbp
	subq	$32, %rsp
	movl	$1564256152, -28(%rbp)  # imm = 0x5D3CA798
	movq	%rdi, -16(%rbp)
	cmpq	$0, -16(%rbp)
	je	.LBB28_16
# %bb.1:                                # %if.then
	movl	$0, -4(%rbp)
.LBB28_2:                               # %for.cond
                                        # =>This Inner Loop Header: Depth=1
	movl	-4(%rbp), %eax
	movq	-16(%rbp), %rcx
	cmpl	16(%rcx), %eax
	jge	.LBB28_11
# %bb.3:                                # %for.body
                                        #   in Loop: Header=BB28_2 Depth=1
	movq	-16(%rbp), %rax
	movq	24(%rax), %rax
	movslq	-4(%rbp), %rcx
	imulq	$120, %rcx, %rcx
	addq	%rcx, %rax
	movq	%rax, -24(%rbp)
	cmpq	$0, -24(%rbp)
	je	.LBB28_9
# %bb.4:                                # %if.then3
                                        #   in Loop: Header=BB28_2 Depth=1
	movq	-24(%rbp), %rax
	movq	(%rax), %rax
	cmpq	$0, 32(%rax)
	je	.LBB28_6
# %bb.5:                                # %if.then5
                                        #   in Loop: Header=BB28_2 Depth=1
	movq	-24(%rbp), %rax
	movq	(%rax), %rax
	movq	32(%rax), %rdi
	callq	free
.LBB28_6:                               # %if.end
                                        #   in Loop: Header=BB28_2 Depth=1
	movq	-24(%rbp), %rax
	cmpq	$0, (%rax)
	je	.LBB28_8
# %bb.7:                                # %if.then10
                                        #   in Loop: Header=BB28_2 Depth=1
	movq	-24(%rbp), %rax
	movq	(%rax), %rdi
	callq	free
.LBB28_8:                               # %if.end12
                                        #   in Loop: Header=BB28_2 Depth=1
	jmp	.LBB28_9
.LBB28_9:                               # %if.end13
                                        #   in Loop: Header=BB28_2 Depth=1
	jmp	.LBB28_10
.LBB28_10:                              # %for.inc
                                        #   in Loop: Header=BB28_2 Depth=1
	movl	-4(%rbp), %eax
	addl	$1, %eax
	movl	%eax, -4(%rbp)
	jmp	.LBB28_2
.LBB28_11:                              # %for.end
	movq	-16(%rbp), %rax
	cmpq	$0, 24(%rax)
	je	.LBB28_13
# %bb.12:                               # %if.then16
	movq	-16(%rbp), %rax
	movq	24(%rax), %rdi
	callq	free
.LBB28_13:                              # %if.end18
	movq	input, %rax
	cmpl	$1, 2356(%rax)
	jne	.LBB28_15
# %bb.14:                               # %if.then20
	movq	-16(%rbp), %rax
	movq	32(%rax), %rdi
	callq	delete_contexts_MotionInfo
	movq	-16(%rbp), %rax
	movq	40(%rax), %rdi
	callq	delete_contexts_TextureInfo
.LBB28_15:                              # %if.end21
	movq	-16(%rbp), %rdi
	callq	free
.LBB28_16:                              # %if.end22
	cmpl	$1564256152, -28(%rbp)  # imm = 0x5D3CA798
	jne	.LBB28_18
.LBB28_17:
	addq	$32, %rsp
	popq	%rbp
	.cfi_def_cfa %rsp, 8
	retq
.LBB28_18:                              # %func_exit
	.cfi_def_cfa %rbp, 16
	callq	detect_breach
	jmp	.LBB28_17
.Lfunc_end28:
	.size	free_slice.18, .Lfunc_end28-free_slice.18
	.cfi_endproc
                                        # -- End function
	.p2align	4, 0x90         # -- Begin function init_slice.19
	.type	init_slice.19,@function
init_slice.19:                          # @init_slice.19
	.cfi_startproc
# %bb.0:                                # %entry
	pushq	%rbp
	.cfi_def_cfa_offset 16
	.cfi_offset %rbp, -16
	movq	%rsp, %rbp
	.cfi_def_cfa_register %rbp
	subq	$80, %rsp
	movl	$101879816, -60(%rbp)   # imm = 0x6129008
	movl	%edi, -36(%rbp)
	movq	img, %rax
	movq	14152(%rax), %rax
	movq	%rax, -32(%rbp)
	movl	-36(%rbp), %eax
	movq	img, %rcx
	movl	%eax, 12(%rcx)
	movq	-32(%rbp), %rax
	movl	(%rax), %ecx
	addl	$1, %ecx
	movl	%ecx, (%rax)
	movq	-32(%rbp), %rax
	cmpl	$100, (%rax)
	jl	.LBB29_2
# %bb.1:                                # %if.then
	movabsq	$.L.str.1, %rdi
	movl	$4294967295, %esi       # imm = 0xFFFFFFFF
	callq	error
.LBB29_2:                               # %if.end
	callq	malloc_slice
	movq	-32(%rbp), %rcx
	movq	-32(%rbp), %rdx
	movl	(%rdx), %edx
	subl	$1, %edx
	movslq	%edx, %rdx
	movq	%rax, 8(%rcx,%rdx,8)
	movq	-32(%rbp), %rax
	movq	-32(%rbp), %rcx
	movl	(%rcx), %ecx
	subl	$1, %ecx
	movslq	%ecx, %rcx
	movq	8(%rax,%rcx,8), %rax
	movq	%rax, -16(%rbp)
	movq	-16(%rbp), %rax
	movq	img, %rcx
	movq	%rax, 14160(%rcx)
	movq	img, %rax
	movl	71792(%rax), %eax
	cltd
	movl	$256, %ecx              # imm = 0x100
	idivl	%ecx
	movq	-16(%rbp), %rax
	movl	%edx, (%rax)
	movq	img, %rax
	movl	40(%rax), %eax
	movq	-16(%rbp), %rcx
	movl	%eax, 4(%rcx)
	movl	-36(%rbp), %eax
	movq	-16(%rbp), %rcx
	movl	%eax, 12(%rcx)
	movq	-16(%rbp), %rax
	movabsq	$dummy_slice_too_big, %rcx
	movq	%rcx, 120(%rax)
	movl	$0, -20(%rbp)
.LBB29_3:                               # %for.cond
                                        # =>This Inner Loop Header: Depth=1
	movl	-20(%rbp), %eax
	movq	-16(%rbp), %rcx
	cmpl	16(%rcx), %eax
	jge	.LBB29_9
# %bb.4:                                # %for.body
                                        #   in Loop: Header=BB29_3 Depth=1
	movq	-16(%rbp), %rax
	movq	24(%rax), %rax
	movslq	-20(%rbp), %rcx
	imulq	$120, %rcx, %rcx
	addq	%rcx, %rax
	movq	%rax, -56(%rbp)
	movq	input, %rax
	cmpl	$0, 2356(%rax)
	jne	.LBB29_6
# %bb.5:                                # %if.then13
                                        #   in Loop: Header=BB29_3 Depth=1
	movq	-56(%rbp), %rax
	movabsq	$writeSyntaxElement_UVLC, %rcx
	movq	%rcx, 112(%rax)
	jmp	.LBB29_7
.LBB29_6:                               # %if.else
                                        #   in Loop: Header=BB29_3 Depth=1
	movq	-56(%rbp), %rax
	movabsq	$writeSyntaxElement_CABAC, %rcx
	movq	%rcx, 112(%rax)
.LBB29_7:                               # %if.end15
                                        #   in Loop: Header=BB29_3 Depth=1
	movq	-56(%rbp), %rax
	movq	(%rax), %rax
	movq	%rax, -48(%rbp)
	movq	-48(%rbp), %rax
	movl	$8, 4(%rax)
	movq	-48(%rbp), %rax
	movl	$0, (%rax)
	movq	-48(%rbp), %rax
	movb	$0, 8(%rax)
# %bb.8:                                # %for.inc
                                        #   in Loop: Header=BB29_3 Depth=1
	movl	-20(%rbp), %eax
	addl	$1, %eax
	movl	%eax, -20(%rbp)
	jmp	.LBB29_3
.LBB29_9:                               # %for.end
	movq	active_pps, %rax
	movl	184(%rax), %eax
	addl	$1, %eax
	movq	img, %rcx
	movl	%eax, 72000(%rcx)
	movq	active_pps, %rax
	movl	188(%rax), %eax
	addl	$1, %eax
	movq	img, %rcx
	movl	%eax, 72004(%rcx)
	movq	img, %rax
	movl	24(%rax), %edi
	movq	img, %rax
	movl	28(%rax), %esi
	callq	init_lists
	movl	listXsize, %eax
	movq	img, %rcx
	movl	%eax, 72000(%rcx)
	movl	listXsize+4, %eax
	movq	img, %rcx
	movl	%eax, 72004(%rcx)
	movq	img, %rax
	cmpl	$0, 24(%rax)
	je	.LBB29_11
# %bb.10:                               # %lor.lhs.false
	movq	img, %rax
	cmpl	$3, 24(%rax)
	jne	.LBB29_19
.LBB29_11:                              # %land.lhs.true
	movq	input, %rax
	cmpl	$0, 40(%rax)
	je	.LBB29_19
# %bb.12:                               # %if.then24
	movq	img, %rax
	movl	72000(%rax), %eax
	movq	input, %rcx
	cmpl	40(%rcx), %eax
	jge	.LBB29_14
# %bb.13:                               # %cond.true
	movq	img, %rax
	movl	72000(%rax), %eax
	jmp	.LBB29_15
.LBB29_14:                              # %cond.false
	movq	input, %rax
	movl	40(%rax), %eax
.LBB29_15:                              # %cond.end
	movq	img, %rcx
	movl	%eax, 72000(%rcx)
	movl	listXsize, %eax
	movq	input, %rcx
	cmpl	40(%rcx), %eax
	jge	.LBB29_17
# %bb.16:                               # %cond.true33
	movl	listXsize, %eax
	jmp	.LBB29_18
.LBB29_17:                              # %cond.false34
	movq	input, %rax
	movl	40(%rax), %eax
.LBB29_18:                              # %cond.end36
	movl	%eax, listXsize
.LBB29_19:                              # %if.end38
	movq	img, %rax
	cmpl	$1, 24(%rax)
	jne	.LBB29_37
# %bb.20:                               # %if.then41
	movq	input, %rax
	cmpl	$0, 44(%rax)
	je	.LBB29_28
# %bb.21:                               # %if.then43
	movq	img, %rax
	movl	72000(%rax), %eax
	movq	input, %rcx
	cmpl	44(%rcx), %eax
	jge	.LBB29_23
# %bb.22:                               # %cond.true47
	movq	img, %rax
	movl	72000(%rax), %eax
	jmp	.LBB29_24
.LBB29_23:                              # %cond.false49
	movq	input, %rax
	movl	44(%rax), %eax
.LBB29_24:                              # %cond.end51
	movq	img, %rcx
	movl	%eax, 72000(%rcx)
	movl	listXsize, %eax
	movq	input, %rcx
	cmpl	44(%rcx), %eax
	jge	.LBB29_26
# %bb.25:                               # %cond.true56
	movl	listXsize, %eax
	jmp	.LBB29_27
.LBB29_26:                              # %cond.false57
	movq	input, %rax
	movl	44(%rax), %eax
.LBB29_27:                              # %cond.end59
	movl	%eax, listXsize
.LBB29_28:                              # %if.end61
	movq	input, %rax
	cmpl	$0, 48(%rax)
	je	.LBB29_36
# %bb.29:                               # %if.then63
	movq	img, %rax
	movl	72004(%rax), %eax
	movq	input, %rcx
	cmpl	48(%rcx), %eax
	jge	.LBB29_31
# %bb.30:                               # %cond.true67
	movq	img, %rax
	movl	72004(%rax), %eax
	jmp	.LBB29_32
.LBB29_31:                              # %cond.false69
	movq	input, %rax
	movl	48(%rax), %eax
.LBB29_32:                              # %cond.end71
	movq	img, %rcx
	movl	%eax, 72004(%rcx)
	movl	listXsize+4, %eax
	movq	input, %rcx
	cmpl	48(%rcx), %eax
	jge	.LBB29_34
# %bb.33:                               # %cond.true76
	movl	listXsize+4, %eax
	jmp	.LBB29_35
.LBB29_34:                              # %cond.false77
	movq	input, %rax
	movl	48(%rax), %eax
.LBB29_35:                              # %cond.end79
	movl	%eax, listXsize+4
.LBB29_36:                              # %if.end81
	jmp	.LBB29_37
.LBB29_37:                              # %if.end82
	movq	img, %rax
	cmpl	$0, 72496(%rax)
	je	.LBB29_42
# %bb.38:                               # %land.lhs.true84
	movq	input, %rax
	cmpl	$0, 1320(%rax)
	je	.LBB29_42
# %bb.39:                               # %land.lhs.true86
	movq	input, %rax
	cmpl	$0, 2352(%rax)
	je	.LBB29_42
# %bb.40:                               # %land.lhs.true88
	movl	dpb+28, %eax
	cmpl	dpb+24, %eax
	jne	.LBB29_42
# %bb.41:                               # %if.then90
	movq	img, %rax
	movl	72464(%rax), %edi
	callq	poc_based_ref_management
.LBB29_42:                              # %if.end91
	callq	init_ref_pic_list_reordering
	movq	img, %rax
	cmpl	$0, 24(%rax)
	jne	.LBB29_64
# %bb.43:                               # %land.lhs.true94
	movq	input, %rax
	cmpl	$0, 1320(%rax)
	je	.LBB29_64
# %bb.44:                               # %land.lhs.true97
	movq	input, %rax
	cmpl	$0, 2348(%rax)
	je	.LBB29_64
# %bb.45:                               # %if.then99
	movq	-16(%rbp), %rdi
	callq	alloc_ref_pic_list_reordering_buffer
	movq	img, %rax
	cmpl	$2, 24(%rax)
	je	.LBB29_58
# %bb.46:                               # %land.lhs.true103
	movq	img, %rax
	cmpl	$4, 24(%rax)
	je	.LBB29_58
# %bb.47:                               # %if.then106
	movl	$0, -4(%rbp)
.LBB29_48:                              # %for.cond107
                                        # =>This Inner Loop Header: Depth=1
	movl	-4(%rbp), %eax
	movq	img, %rcx
	movl	72000(%rcx), %ecx
	addl	$1, %ecx
	cmpl	%ecx, %eax
	jge	.LBB29_51
# %bb.49:                               # %for.body111
                                        #   in Loop: Header=BB29_48 Depth=1
	movq	-16(%rbp), %rax
	movq	64(%rax), %rax
	movslq	-4(%rbp), %rcx
	movl	$3, (%rax,%rcx,4)
	movq	-16(%rbp), %rax
	movq	72(%rax), %rax
	movslq	-4(%rbp), %rcx
	movl	$0, (%rax,%rcx,4)
	movq	-16(%rbp), %rax
	movq	80(%rax), %rax
	movslq	-4(%rbp), %rcx
	movl	$0, (%rax,%rcx,4)
# %bb.50:                               # %for.inc118
                                        #   in Loop: Header=BB29_48 Depth=1
	movl	-4(%rbp), %eax
	addl	$1, %eax
	movl	%eax, -4(%rbp)
	jmp	.LBB29_48
.LBB29_51:                              # %for.end120
	movq	img, %rax
	cmpl	$1, 24(%rax)
	jne	.LBB29_57
# %bb.52:                               # %if.then123
	movl	$0, -4(%rbp)
.LBB29_53:                              # %for.cond124
                                        # =>This Inner Loop Header: Depth=1
	movl	-4(%rbp), %eax
	movq	img, %rcx
	movl	72004(%rcx), %ecx
	addl	$1, %ecx
	cmpl	%ecx, %eax
	jge	.LBB29_56
# %bb.54:                               # %for.body128
                                        #   in Loop: Header=BB29_53 Depth=1
	movq	-16(%rbp), %rax
	movq	96(%rax), %rax
	movslq	-4(%rbp), %rcx
	movl	$3, (%rax,%rcx,4)
	movq	-16(%rbp), %rax
	movq	104(%rax), %rax
	movslq	-4(%rbp), %rcx
	movl	$0, (%rax,%rcx,4)
	movq	-16(%rbp), %rax
	movq	112(%rax), %rax
	movslq	-4(%rbp), %rcx
	movl	$0, (%rax,%rcx,4)
# %bb.55:                               # %for.inc135
                                        #   in Loop: Header=BB29_53 Depth=1
	movl	-4(%rbp), %eax
	addl	$1, %eax
	movl	%eax, -4(%rbp)
	jmp	.LBB29_53
.LBB29_56:                              # %for.end137
	jmp	.LBB29_57
.LBB29_57:                              # %if.end138
	jmp	.LBB29_58
.LBB29_58:                              # %if.end139
	movq	img, %rax
	cmpl	$2, 24(%rax)
	je	.LBB29_63
# %bb.59:                               # %land.lhs.true142
	movq	img, %rax
	cmpl	$4, 24(%rax)
	je	.LBB29_63
# %bb.60:                               # %if.then145
	movq	img, %rax
	movl	72000(%rax), %eax
	movl	%eax, -24(%rbp)
	movq	listX, %rdi
	movl	-24(%rbp), %esi
	movq	-16(%rbp), %rax
	movq	64(%rax), %rdx
	movq	-16(%rbp), %rax
	movq	72(%rax), %rcx
	movq	-16(%rbp), %rax
	movq	80(%rax), %r8
	xorl	%r9d, %r9d
	movl	$0, (%rsp)
	callq	poc_ref_pic_reorder
	movq	listX, %rdi
	movq	img, %rax
	movl	72000(%rax), %edx
	subl	$1, %edx
	movq	-16(%rbp), %rax
	movq	64(%rax), %rcx
	movq	-16(%rbp), %rax
	movq	72(%rax), %r8
	movq	-16(%rbp), %rax
	movq	80(%rax), %r9
	movabsq	$listXsize, %rsi
	callq	reorder_ref_pic_list
	movq	img, %rax
	cmpl	$1, 24(%rax)
	jne	.LBB29_62
# %bb.61:                               # %if.then157
	movq	img, %rax
	movl	72004(%rax), %eax
	movl	%eax, -24(%rbp)
	movq	listX+8, %rdi
	movl	-24(%rbp), %esi
	movq	-16(%rbp), %rax
	movq	96(%rax), %rdx
	movq	-16(%rbp), %rax
	movq	104(%rax), %rcx
	movq	-16(%rbp), %rax
	movq	112(%rax), %r8
	xorl	%r9d, %r9d
	movl	$1, (%rsp)
	callq	poc_ref_pic_reorder
	movabsq	$listXsize, %rsi
	addq	$4, %rsi
	movq	listX+8, %rdi
	movq	img, %rax
	movl	72004(%rax), %edx
	subl	$1, %edx
	movq	-16(%rbp), %rax
	movq	96(%rax), %rcx
	movq	-16(%rbp), %rax
	movq	104(%rax), %r8
	movq	-16(%rbp), %rax
	movq	112(%rax), %r9
	callq	reorder_ref_pic_list
.LBB29_62:                              # %if.end167
	jmp	.LBB29_63
.LBB29_63:                              # %if.end168
	jmp	.LBB29_64
.LBB29_64:                              # %if.end169
	movq	img, %rax
	cmpl	$0, 28(%rax)
	jne	.LBB29_66
# %bb.65:                               # %if.then172
	movb	$0, %al
	callq	init_mbaff_lists
.LBB29_66:                              # %if.end173
	movq	img, %rax
	cmpl	$2, 24(%rax)
	je	.LBB29_82
# %bb.67:                               # %land.lhs.true176
	movq	active_pps, %rax
	cmpl	$1, 192(%rax)
	je	.LBB29_70
# %bb.68:                               # %lor.lhs.false178
	movq	active_pps, %rax
	cmpl	$0, 196(%rax)
	jbe	.LBB29_82
# %bb.69:                               # %land.lhs.true180
	movq	img, %rax
	cmpl	$1, 24(%rax)
	jne	.LBB29_82
.LBB29_70:                              # %if.then183
	movq	img, %rax
	cmpl	$0, 24(%rax)
	je	.LBB29_72
# %bb.71:                               # %lor.lhs.false186
	movq	img, %rax
	cmpl	$3, 24(%rax)
	jne	.LBB29_80
.LBB29_72:                              # %if.then189
	movq	input, %rax
	cmpl	$0, 60(%rax)
	je	.LBB29_78
# %bb.73:                               # %land.lhs.true191
	movq	input, %rax
	cmpl	$0, 1296(%rax)
	je	.LBB29_78
# %bb.74:                               # %if.then193
	movq	enc_picture, %rax
	cmpq	enc_frame_picture2, %rax
	jne	.LBB29_76
# %bb.75:                               # %if.then195
	xorl	%edi, %edi
	callq	estimate_weighting_factor_P_slice
	jmp	.LBB29_77
.LBB29_76:                              # %if.else196
	movl	$1, %edi
	callq	estimate_weighting_factor_P_slice
.LBB29_77:                              # %if.end197
	jmp	.LBB29_79
.LBB29_78:                              # %if.else198
	xorl	%edi, %edi
	callq	estimate_weighting_factor_P_slice
.LBB29_79:                              # %if.end199
	jmp	.LBB29_81
.LBB29_80:                              # %if.else200
	movb	$0, %al
	callq	estimate_weighting_factor_B_slice
.LBB29_81:                              # %if.end201
	jmp	.LBB29_82
.LBB29_82:                              # %if.end202
	callq	set_ref_pic_num
	movq	img, %rax
	cmpl	$1, 24(%rax)
	jne	.LBB29_84
# %bb.83:                               # %if.then205
	movq	Co_located, %rdi
	movabsq	$listX, %rsi
	callq	compute_colocated
.LBB29_84:                              # %if.end206
	cmpl	$101879816, -60(%rbp)   # imm = 0x6129008
	jne	.LBB29_86
.LBB29_85:
	addq	$80, %rsp
	popq	%rbp
	.cfi_def_cfa %rsp, 8
	retq
.LBB29_86:                              # %func_exit
	.cfi_def_cfa %rbp, 16
	callq	detect_breach
	jmp	.LBB29_85
.Lfunc_end29:
	.size	init_slice.19, .Lfunc_end29-init_slice.19
	.cfi_endproc
                                        # -- End function
	.globl	start_slice.20          # -- Begin function start_slice.20
	.p2align	4, 0x90
	.type	start_slice.20,@function
start_slice.20:                         # @start_slice.20
	.cfi_startproc
# %bb.0:                                # %entry
	pushq	%rbp
	.cfi_def_cfa_offset 16
	.cfi_offset %rbp, -16
	movq	%rsp, %rbp
	.cfi_def_cfa_register %rbp
	pushq	%rbx
	subq	$40, %rsp
	.cfi_offset %rbx, -24
	movl	$1051089246, -32(%rbp)  # imm = 0x3EA6595E
	movq	img, %rax
	movq	14160(%rax), %rax
	movq	%rax, -40(%rbp)
	movl	$0, -12(%rbp)
	movq	input, %rax
	movl	2364(%rax), %eax
	cmpl	$0, %eax
	movl	$1, %eax
	movl	$3, %ecx
	cmovel	%eax, %ecx
	movl	%ecx, -28(%rbp)
	movq	img, %rax
	movq	14152(%rax), %rax
	cmpl	$0, 4(%rax)
	je	.LBB30_2
# %bb.1:                                # %if.then
	movl	$1, -28(%rbp)
.LBB30_2:                               # %if.end
	movq	img, %rax
	movl	71792(%rax), %edi
	callq	RTPUpdateTimestamp
	movl	$0, -16(%rbp)
.LBB30_3:                               # %for.cond
                                        # =>This Inner Loop Header: Depth=1
	movl	-16(%rbp), %eax
	cmpl	-28(%rbp), %eax
	jge	.LBB30_14
# %bb.4:                                # %for.body
                                        #   in Loop: Header=BB30_3 Depth=1
	movq	-40(%rbp), %rax
	movq	24(%rax), %rax
	movslq	-16(%rbp), %rcx
	imulq	$120, %rcx, %rcx
	addq	%rcx, %rax
	movq	(%rax), %rax
	movq	%rax, -24(%rbp)
	movq	-24(%rbp), %rax
	movl	$0, 40(%rax)
	cmpl	$0, -16(%rbp)
	jne	.LBB30_6
# %bb.5:                                # %if.then3
                                        #   in Loop: Header=BB30_3 Depth=1
	xorl	%edi, %edi
	movb	$0, %al
	callq	SliceHeader
	addl	-12(%rbp), %eax
	movl	%eax, -12(%rbp)
	jmp	.LBB30_7
.LBB30_6:                               # %if.else
                                        #   in Loop: Header=BB30_3 Depth=1
	movl	-16(%rbp), %edi
	movb	$0, %al
	callq	Partition_BC_Header
	addl	-12(%rbp), %eax
	movl	%eax, -12(%rbp)
.LBB30_7:                               # %if.end6
                                        #   in Loop: Header=BB30_3 Depth=1
	movq	input, %rax
	cmpl	$1, 2356(%rax)
	jne	.LBB30_11
# %bb.8:                                # %if.then8
                                        #   in Loop: Header=BB30_3 Depth=1
	movq	-40(%rbp), %rax
	movq	24(%rax), %rax
	movslq	-16(%rbp), %rcx
	imulq	$120, %rcx, %rcx
	addq	%rcx, %rax
	addq	$8, %rax
	movq	%rax, -48(%rbp)
	movq	-24(%rbp), %rax
	cmpl	$8, 4(%rax)
	je	.LBB30_10
# %bb.9:                                # %if.then13
                                        #   in Loop: Header=BB30_3 Depth=1
	movq	-24(%rbp), %rax
	movl	4(%rax), %eax
	addl	-12(%rbp), %eax
	movl	%eax, -12(%rbp)
.LBB30_10:                              # %if.end16
                                        #   in Loop: Header=BB30_3 Depth=1
	movq	-24(%rbp), %rdi
	callq	writeVlcByteAlign
	movq	-48(%rbp), %rdi
	movq	-24(%rbp), %rax
	movq	32(%rax), %rsi
	movq	-24(%rbp), %rdx
	movq	img, %rax
	movl	24(%rax), %ecx
	callq	arienco_start_encoding
	movb	$0, %al
	callq	cabac_new_slice
	jmp	.LBB30_12
.LBB30_11:                              # %if.else17
                                        #   in Loop: Header=BB30_3 Depth=1
	movb	$0, %al
	callq	CAVLC_init
.LBB30_12:                              # %if.end18
                                        #   in Loop: Header=BB30_3 Depth=1
	jmp	.LBB30_13
.LBB30_13:                              # %for.inc
                                        #   in Loop: Header=BB30_3 Depth=1
	movl	-16(%rbp), %eax
	addl	$1, %eax
	movl	%eax, -16(%rbp)
	jmp	.LBB30_3
.LBB30_14:                              # %for.end
	movq	input, %rax
	cmpl	$1, 2356(%rax)
	jne	.LBB30_16
# %bb.15:                               # %if.then21
	movb	$0, %al
	callq	init_contexts
.LBB30_16:                              # %if.end22
	movl	-12(%rbp), %ebx
	cmpl	$1051089246, -32(%rbp)  # imm = 0x3EA6595E
	jne	.LBB30_18
.LBB30_17:
	movl	%ebx, %eax
	addq	$40, %rsp
	popq	%rbx
	popq	%rbp
	.cfi_def_cfa %rsp, 8
	retq
.LBB30_18:                              # %func_exit
	.cfi_def_cfa %rbp, 16
	callq	detect_breach
	jmp	.LBB30_17
.Lfunc_end30:
	.size	start_slice.20, .Lfunc_end30-start_slice.20
	.cfi_endproc
                                        # -- End function
	.p2align	4, 0x90         # -- Begin function init_slice.21
	.type	init_slice.21,@function
init_slice.21:                          # @init_slice.21
	.cfi_startproc
# %bb.0:                                # %entry
	pushq	%rbp
	.cfi_def_cfa_offset 16
	.cfi_offset %rbp, -16
	movq	%rsp, %rbp
	.cfi_def_cfa_register %rbp
	subq	$80, %rsp
	movl	$1250443727, -60(%rbp)  # imm = 0x4A8841CF
	movl	%edi, -36(%rbp)
	movq	img, %rax
	movq	14152(%rax), %rax
	movq	%rax, -32(%rbp)
	movl	-36(%rbp), %eax
	movq	img, %rcx
	movl	%eax, 12(%rcx)
	movq	-32(%rbp), %rax
	movl	(%rax), %ecx
	addl	$1, %ecx
	movl	%ecx, (%rax)
	movq	-32(%rbp), %rax
	cmpl	$100, (%rax)
	jl	.LBB31_2
# %bb.1:                                # %if.then
	movabsq	$.L.str.1, %rdi
	movl	$4294967295, %esi       # imm = 0xFFFFFFFF
	callq	error
.LBB31_2:                               # %if.end
	callq	malloc_slice
	movq	-32(%rbp), %rcx
	movq	-32(%rbp), %rdx
	movl	(%rdx), %edx
	subl	$1, %edx
	movslq	%edx, %rdx
	movq	%rax, 8(%rcx,%rdx,8)
	movq	-32(%rbp), %rax
	movq	-32(%rbp), %rcx
	movl	(%rcx), %ecx
	subl	$1, %ecx
	movslq	%ecx, %rcx
	movq	8(%rax,%rcx,8), %rax
	movq	%rax, -16(%rbp)
	movq	-16(%rbp), %rax
	movq	img, %rcx
	movq	%rax, 14160(%rcx)
	movq	img, %rax
	movl	71792(%rax), %eax
	cltd
	movl	$256, %ecx              # imm = 0x100
	idivl	%ecx
	movq	-16(%rbp), %rax
	movl	%edx, (%rax)
	movq	img, %rax
	movl	40(%rax), %eax
	movq	-16(%rbp), %rcx
	movl	%eax, 4(%rcx)
	movl	-36(%rbp), %eax
	movq	-16(%rbp), %rcx
	movl	%eax, 12(%rcx)
	movq	-16(%rbp), %rax
	movabsq	$dummy_slice_too_big, %rcx
	movq	%rcx, 120(%rax)
	movl	$0, -20(%rbp)
.LBB31_3:                               # %for.cond
                                        # =>This Inner Loop Header: Depth=1
	movl	-20(%rbp), %eax
	movq	-16(%rbp), %rcx
	cmpl	16(%rcx), %eax
	jge	.LBB31_9
# %bb.4:                                # %for.body
                                        #   in Loop: Header=BB31_3 Depth=1
	movq	-16(%rbp), %rax
	movq	24(%rax), %rax
	movslq	-20(%rbp), %rcx
	imulq	$120, %rcx, %rcx
	addq	%rcx, %rax
	movq	%rax, -48(%rbp)
	movq	input, %rax
	cmpl	$0, 2356(%rax)
	jne	.LBB31_6
# %bb.5:                                # %if.then13
                                        #   in Loop: Header=BB31_3 Depth=1
	movq	-48(%rbp), %rax
	movabsq	$writeSyntaxElement_UVLC, %rcx
	movq	%rcx, 112(%rax)
	jmp	.LBB31_7
.LBB31_6:                               # %if.else
                                        #   in Loop: Header=BB31_3 Depth=1
	movq	-48(%rbp), %rax
	movabsq	$writeSyntaxElement_CABAC, %rcx
	movq	%rcx, 112(%rax)
.LBB31_7:                               # %if.end15
                                        #   in Loop: Header=BB31_3 Depth=1
	movq	-48(%rbp), %rax
	movq	(%rax), %rax
	movq	%rax, -56(%rbp)
	movq	-56(%rbp), %rax
	movl	$8, 4(%rax)
	movq	-56(%rbp), %rax
	movl	$0, (%rax)
	movq	-56(%rbp), %rax
	movb	$0, 8(%rax)
# %bb.8:                                # %for.inc
                                        #   in Loop: Header=BB31_3 Depth=1
	movl	-20(%rbp), %eax
	addl	$1, %eax
	movl	%eax, -20(%rbp)
	jmp	.LBB31_3
.LBB31_9:                               # %for.end
	movq	active_pps, %rax
	movl	184(%rax), %eax
	addl	$1, %eax
	movq	img, %rcx
	movl	%eax, 72000(%rcx)
	movq	active_pps, %rax
	movl	188(%rax), %eax
	addl	$1, %eax
	movq	img, %rcx
	movl	%eax, 72004(%rcx)
	movq	img, %rax
	movl	24(%rax), %edi
	movq	img, %rax
	movl	28(%rax), %esi
	callq	init_lists
	movl	listXsize, %eax
	movq	img, %rcx
	movl	%eax, 72000(%rcx)
	movl	listXsize+4, %eax
	movq	img, %rcx
	movl	%eax, 72004(%rcx)
	movq	img, %rax
	cmpl	$0, 24(%rax)
	je	.LBB31_11
# %bb.10:                               # %lor.lhs.false
	movq	img, %rax
	cmpl	$3, 24(%rax)
	jne	.LBB31_19
.LBB31_11:                              # %land.lhs.true
	movq	input, %rax
	cmpl	$0, 40(%rax)
	je	.LBB31_19
# %bb.12:                               # %if.then24
	movq	img, %rax
	movl	72000(%rax), %eax
	movq	input, %rcx
	cmpl	40(%rcx), %eax
	jge	.LBB31_14
# %bb.13:                               # %cond.true
	movq	img, %rax
	movl	72000(%rax), %eax
	jmp	.LBB31_15
.LBB31_14:                              # %cond.false
	movq	input, %rax
	movl	40(%rax), %eax
.LBB31_15:                              # %cond.end
	movq	img, %rcx
	movl	%eax, 72000(%rcx)
	movl	listXsize, %eax
	movq	input, %rcx
	cmpl	40(%rcx), %eax
	jge	.LBB31_17
# %bb.16:                               # %cond.true33
	movl	listXsize, %eax
	jmp	.LBB31_18
.LBB31_17:                              # %cond.false34
	movq	input, %rax
	movl	40(%rax), %eax
.LBB31_18:                              # %cond.end36
	movl	%eax, listXsize
.LBB31_19:                              # %if.end38
	movq	img, %rax
	cmpl	$1, 24(%rax)
	jne	.LBB31_37
# %bb.20:                               # %if.then41
	movq	input, %rax
	cmpl	$0, 44(%rax)
	je	.LBB31_28
# %bb.21:                               # %if.then43
	movq	img, %rax
	movl	72000(%rax), %eax
	movq	input, %rcx
	cmpl	44(%rcx), %eax
	jge	.LBB31_23
# %bb.22:                               # %cond.true47
	movq	img, %rax
	movl	72000(%rax), %eax
	jmp	.LBB31_24
.LBB31_23:                              # %cond.false49
	movq	input, %rax
	movl	44(%rax), %eax
.LBB31_24:                              # %cond.end51
	movq	img, %rcx
	movl	%eax, 72000(%rcx)
	movl	listXsize, %eax
	movq	input, %rcx
	cmpl	44(%rcx), %eax
	jge	.LBB31_26
# %bb.25:                               # %cond.true56
	movl	listXsize, %eax
	jmp	.LBB31_27
.LBB31_26:                              # %cond.false57
	movq	input, %rax
	movl	44(%rax), %eax
.LBB31_27:                              # %cond.end59
	movl	%eax, listXsize
.LBB31_28:                              # %if.end61
	movq	input, %rax
	cmpl	$0, 48(%rax)
	je	.LBB31_36
# %bb.29:                               # %if.then63
	movq	img, %rax
	movl	72004(%rax), %eax
	movq	input, %rcx
	cmpl	48(%rcx), %eax
	jge	.LBB31_31
# %bb.30:                               # %cond.true67
	movq	img, %rax
	movl	72004(%rax), %eax
	jmp	.LBB31_32
.LBB31_31:                              # %cond.false69
	movq	input, %rax
	movl	48(%rax), %eax
.LBB31_32:                              # %cond.end71
	movq	img, %rcx
	movl	%eax, 72004(%rcx)
	movl	listXsize+4, %eax
	movq	input, %rcx
	cmpl	48(%rcx), %eax
	jge	.LBB31_34
# %bb.33:                               # %cond.true76
	movl	listXsize+4, %eax
	jmp	.LBB31_35
.LBB31_34:                              # %cond.false77
	movq	input, %rax
	movl	48(%rax), %eax
.LBB31_35:                              # %cond.end79
	movl	%eax, listXsize+4
.LBB31_36:                              # %if.end81
	jmp	.LBB31_37
.LBB31_37:                              # %if.end82
	movq	img, %rax
	cmpl	$0, 72496(%rax)
	je	.LBB31_42
# %bb.38:                               # %land.lhs.true84
	movq	input, %rax
	cmpl	$0, 1320(%rax)
	je	.LBB31_42
# %bb.39:                               # %land.lhs.true86
	movq	input, %rax
	cmpl	$0, 2352(%rax)
	je	.LBB31_42
# %bb.40:                               # %land.lhs.true88
	movl	dpb+28, %eax
	cmpl	dpb+24, %eax
	jne	.LBB31_42
# %bb.41:                               # %if.then90
	movq	img, %rax
	movl	72464(%rax), %edi
	callq	poc_based_ref_management
.LBB31_42:                              # %if.end91
	callq	init_ref_pic_list_reordering
	movq	img, %rax
	cmpl	$0, 24(%rax)
	jne	.LBB31_64
# %bb.43:                               # %land.lhs.true94
	movq	input, %rax
	cmpl	$0, 1320(%rax)
	je	.LBB31_64
# %bb.44:                               # %land.lhs.true97
	movq	input, %rax
	cmpl	$0, 2348(%rax)
	je	.LBB31_64
# %bb.45:                               # %if.then99
	movq	-16(%rbp), %rdi
	callq	alloc_ref_pic_list_reordering_buffer
	movq	img, %rax
	cmpl	$2, 24(%rax)
	je	.LBB31_58
# %bb.46:                               # %land.lhs.true103
	movq	img, %rax
	cmpl	$4, 24(%rax)
	je	.LBB31_58
# %bb.47:                               # %if.then106
	movl	$0, -4(%rbp)
.LBB31_48:                              # %for.cond107
                                        # =>This Inner Loop Header: Depth=1
	movl	-4(%rbp), %eax
	movq	img, %rcx
	movl	72000(%rcx), %ecx
	addl	$1, %ecx
	cmpl	%ecx, %eax
	jge	.LBB31_51
# %bb.49:                               # %for.body111
                                        #   in Loop: Header=BB31_48 Depth=1
	movq	-16(%rbp), %rax
	movq	64(%rax), %rax
	movslq	-4(%rbp), %rcx
	movl	$3, (%rax,%rcx,4)
	movq	-16(%rbp), %rax
	movq	72(%rax), %rax
	movslq	-4(%rbp), %rcx
	movl	$0, (%rax,%rcx,4)
	movq	-16(%rbp), %rax
	movq	80(%rax), %rax
	movslq	-4(%rbp), %rcx
	movl	$0, (%rax,%rcx,4)
# %bb.50:                               # %for.inc118
                                        #   in Loop: Header=BB31_48 Depth=1
	movl	-4(%rbp), %eax
	addl	$1, %eax
	movl	%eax, -4(%rbp)
	jmp	.LBB31_48
.LBB31_51:                              # %for.end120
	movq	img, %rax
	cmpl	$1, 24(%rax)
	jne	.LBB31_57
# %bb.52:                               # %if.then123
	movl	$0, -4(%rbp)
.LBB31_53:                              # %for.cond124
                                        # =>This Inner Loop Header: Depth=1
	movl	-4(%rbp), %eax
	movq	img, %rcx
	movl	72004(%rcx), %ecx
	addl	$1, %ecx
	cmpl	%ecx, %eax
	jge	.LBB31_56
# %bb.54:                               # %for.body128
                                        #   in Loop: Header=BB31_53 Depth=1
	movq	-16(%rbp), %rax
	movq	96(%rax), %rax
	movslq	-4(%rbp), %rcx
	movl	$3, (%rax,%rcx,4)
	movq	-16(%rbp), %rax
	movq	104(%rax), %rax
	movslq	-4(%rbp), %rcx
	movl	$0, (%rax,%rcx,4)
	movq	-16(%rbp), %rax
	movq	112(%rax), %rax
	movslq	-4(%rbp), %rcx
	movl	$0, (%rax,%rcx,4)
# %bb.55:                               # %for.inc135
                                        #   in Loop: Header=BB31_53 Depth=1
	movl	-4(%rbp), %eax
	addl	$1, %eax
	movl	%eax, -4(%rbp)
	jmp	.LBB31_53
.LBB31_56:                              # %for.end137
	jmp	.LBB31_57
.LBB31_57:                              # %if.end138
	jmp	.LBB31_58
.LBB31_58:                              # %if.end139
	movq	img, %rax
	cmpl	$2, 24(%rax)
	je	.LBB31_63
# %bb.59:                               # %land.lhs.true142
	movq	img, %rax
	cmpl	$4, 24(%rax)
	je	.LBB31_63
# %bb.60:                               # %if.then145
	movq	img, %rax
	movl	72000(%rax), %eax
	movl	%eax, -24(%rbp)
	movq	listX, %rdi
	movl	-24(%rbp), %esi
	movq	-16(%rbp), %rax
	movq	64(%rax), %rdx
	movq	-16(%rbp), %rax
	movq	72(%rax), %rcx
	movq	-16(%rbp), %rax
	movq	80(%rax), %r8
	xorl	%r9d, %r9d
	movl	$0, (%rsp)
	callq	poc_ref_pic_reorder
	movq	listX, %rdi
	movq	img, %rax
	movl	72000(%rax), %edx
	subl	$1, %edx
	movq	-16(%rbp), %rax
	movq	64(%rax), %rcx
	movq	-16(%rbp), %rax
	movq	72(%rax), %r8
	movq	-16(%rbp), %rax
	movq	80(%rax), %r9
	movabsq	$listXsize, %rsi
	callq	reorder_ref_pic_list
	movq	img, %rax
	cmpl	$1, 24(%rax)
	jne	.LBB31_62
# %bb.61:                               # %if.then157
	movq	img, %rax
	movl	72004(%rax), %eax
	movl	%eax, -24(%rbp)
	movq	listX+8, %rdi
	movl	-24(%rbp), %esi
	movq	-16(%rbp), %rax
	movq	96(%rax), %rdx
	movq	-16(%rbp), %rax
	movq	104(%rax), %rcx
	movq	-16(%rbp), %rax
	movq	112(%rax), %r8
	xorl	%r9d, %r9d
	movl	$1, (%rsp)
	callq	poc_ref_pic_reorder
	movabsq	$listXsize, %rsi
	addq	$4, %rsi
	movq	listX+8, %rdi
	movq	img, %rax
	movl	72004(%rax), %edx
	subl	$1, %edx
	movq	-16(%rbp), %rax
	movq	96(%rax), %rcx
	movq	-16(%rbp), %rax
	movq	104(%rax), %r8
	movq	-16(%rbp), %rax
	movq	112(%rax), %r9
	callq	reorder_ref_pic_list
.LBB31_62:                              # %if.end167
	jmp	.LBB31_63
.LBB31_63:                              # %if.end168
	jmp	.LBB31_64
.LBB31_64:                              # %if.end169
	movq	img, %rax
	cmpl	$0, 28(%rax)
	jne	.LBB31_66
# %bb.65:                               # %if.then172
	movb	$0, %al
	callq	init_mbaff_lists
.LBB31_66:                              # %if.end173
	movq	img, %rax
	cmpl	$2, 24(%rax)
	je	.LBB31_82
# %bb.67:                               # %land.lhs.true176
	movq	active_pps, %rax
	cmpl	$1, 192(%rax)
	je	.LBB31_70
# %bb.68:                               # %lor.lhs.false178
	movq	active_pps, %rax
	cmpl	$0, 196(%rax)
	jbe	.LBB31_82
# %bb.69:                               # %land.lhs.true180
	movq	img, %rax
	cmpl	$1, 24(%rax)
	jne	.LBB31_82
.LBB31_70:                              # %if.then183
	movq	img, %rax
	cmpl	$0, 24(%rax)
	je	.LBB31_72
# %bb.71:                               # %lor.lhs.false186
	movq	img, %rax
	cmpl	$3, 24(%rax)
	jne	.LBB31_80
.LBB31_72:                              # %if.then189
	movq	input, %rax
	cmpl	$0, 60(%rax)
	je	.LBB31_78
# %bb.73:                               # %land.lhs.true191
	movq	input, %rax
	cmpl	$0, 1296(%rax)
	je	.LBB31_78
# %bb.74:                               # %if.then193
	movq	enc_picture, %rax
	cmpq	enc_frame_picture2, %rax
	jne	.LBB31_76
# %bb.75:                               # %if.then195
	xorl	%edi, %edi
	callq	estimate_weighting_factor_P_slice
	jmp	.LBB31_77
.LBB31_76:                              # %if.else196
	movl	$1, %edi
	callq	estimate_weighting_factor_P_slice
.LBB31_77:                              # %if.end197
	jmp	.LBB31_79
.LBB31_78:                              # %if.else198
	xorl	%edi, %edi
	callq	estimate_weighting_factor_P_slice
.LBB31_79:                              # %if.end199
	jmp	.LBB31_81
.LBB31_80:                              # %if.else200
	movb	$0, %al
	callq	estimate_weighting_factor_B_slice
.LBB31_81:                              # %if.end201
	jmp	.LBB31_82
.LBB31_82:                              # %if.end202
	callq	set_ref_pic_num
	movq	img, %rax
	cmpl	$1, 24(%rax)
	jne	.LBB31_84
# %bb.83:                               # %if.then205
	movq	Co_located, %rdi
	movabsq	$listX, %rsi
	callq	compute_colocated
.LBB31_84:                              # %if.end206
	cmpl	$1250443727, -60(%rbp)  # imm = 0x4A8841CF
	jne	.LBB31_86
.LBB31_85:
	addq	$80, %rsp
	popq	%rbp
	.cfi_def_cfa %rsp, 8
	retq
.LBB31_86:                              # %func_exit
	.cfi_def_cfa %rbp, 16
	callq	detect_breach
	jmp	.LBB31_85
.Lfunc_end31:
	.size	init_slice.21, .Lfunc_end31-init_slice.21
	.cfi_endproc
                                        # -- End function
	.globl	start_slice.22          # -- Begin function start_slice.22
	.p2align	4, 0x90
	.type	start_slice.22,@function
start_slice.22:                         # @start_slice.22
	.cfi_startproc
# %bb.0:                                # %entry
	pushq	%rbp
	.cfi_def_cfa_offset 16
	.cfi_offset %rbp, -16
	movq	%rsp, %rbp
	.cfi_def_cfa_register %rbp
	pushq	%rbx
	subq	$40, %rsp
	.cfi_offset %rbx, -24
	movl	$348106243, -32(%rbp)   # imm = 0x14BFAE03
	movq	img, %rax
	movq	14160(%rax), %rax
	movq	%rax, -40(%rbp)
	movl	$0, -12(%rbp)
	movq	input, %rax
	movl	2364(%rax), %eax
	cmpl	$0, %eax
	movl	$1, %eax
	movl	$3, %ecx
	cmovel	%eax, %ecx
	movl	%ecx, -28(%rbp)
	movq	img, %rax
	movq	14152(%rax), %rax
	cmpl	$0, 4(%rax)
	je	.LBB32_2
# %bb.1:                                # %if.then
	movl	$1, -28(%rbp)
.LBB32_2:                               # %if.end
	movq	img, %rax
	movl	71792(%rax), %edi
	callq	RTPUpdateTimestamp
	movl	$0, -16(%rbp)
.LBB32_3:                               # %for.cond
                                        # =>This Inner Loop Header: Depth=1
	movl	-16(%rbp), %eax
	cmpl	-28(%rbp), %eax
	jge	.LBB32_14
# %bb.4:                                # %for.body
                                        #   in Loop: Header=BB32_3 Depth=1
	movq	-40(%rbp), %rax
	movq	24(%rax), %rax
	movslq	-16(%rbp), %rcx
	imulq	$120, %rcx, %rcx
	addq	%rcx, %rax
	movq	(%rax), %rax
	movq	%rax, -24(%rbp)
	movq	-24(%rbp), %rax
	movl	$0, 40(%rax)
	cmpl	$0, -16(%rbp)
	jne	.LBB32_6
# %bb.5:                                # %if.then3
                                        #   in Loop: Header=BB32_3 Depth=1
	xorl	%edi, %edi
	movb	$0, %al
	callq	SliceHeader
	addl	-12(%rbp), %eax
	movl	%eax, -12(%rbp)
	jmp	.LBB32_7
.LBB32_6:                               # %if.else
                                        #   in Loop: Header=BB32_3 Depth=1
	movl	-16(%rbp), %edi
	movb	$0, %al
	callq	Partition_BC_Header
	addl	-12(%rbp), %eax
	movl	%eax, -12(%rbp)
.LBB32_7:                               # %if.end6
                                        #   in Loop: Header=BB32_3 Depth=1
	movq	input, %rax
	cmpl	$1, 2356(%rax)
	jne	.LBB32_11
# %bb.8:                                # %if.then8
                                        #   in Loop: Header=BB32_3 Depth=1
	movq	-40(%rbp), %rax
	movq	24(%rax), %rax
	movslq	-16(%rbp), %rcx
	imulq	$120, %rcx, %rcx
	addq	%rcx, %rax
	addq	$8, %rax
	movq	%rax, -48(%rbp)
	movq	-24(%rbp), %rax
	cmpl	$8, 4(%rax)
	je	.LBB32_10
# %bb.9:                                # %if.then13
                                        #   in Loop: Header=BB32_3 Depth=1
	movq	-24(%rbp), %rax
	movl	4(%rax), %eax
	addl	-12(%rbp), %eax
	movl	%eax, -12(%rbp)
.LBB32_10:                              # %if.end16
                                        #   in Loop: Header=BB32_3 Depth=1
	movq	-24(%rbp), %rdi
	callq	writeVlcByteAlign
	movq	-48(%rbp), %rdi
	movq	-24(%rbp), %rax
	movq	32(%rax), %rsi
	movq	-24(%rbp), %rdx
	movq	img, %rax
	movl	24(%rax), %ecx
	callq	arienco_start_encoding
	movb	$0, %al
	callq	cabac_new_slice
	jmp	.LBB32_12
.LBB32_11:                              # %if.else17
                                        #   in Loop: Header=BB32_3 Depth=1
	movb	$0, %al
	callq	CAVLC_init
.LBB32_12:                              # %if.end18
                                        #   in Loop: Header=BB32_3 Depth=1
	jmp	.LBB32_13
.LBB32_13:                              # %for.inc
                                        #   in Loop: Header=BB32_3 Depth=1
	movl	-16(%rbp), %eax
	addl	$1, %eax
	movl	%eax, -16(%rbp)
	jmp	.LBB32_3
.LBB32_14:                              # %for.end
	movq	input, %rax
	cmpl	$1, 2356(%rax)
	jne	.LBB32_16
# %bb.15:                               # %if.then21
	movb	$0, %al
	callq	init_contexts
.LBB32_16:                              # %if.end22
	movl	-12(%rbp), %ebx
	cmpl	$348106243, -32(%rbp)   # imm = 0x14BFAE03
	jne	.LBB32_18
.LBB32_17:
	movl	%ebx, %eax
	addq	$40, %rsp
	popq	%rbx
	popq	%rbp
	.cfi_def_cfa %rsp, 8
	retq
.LBB32_18:                              # %func_exit
	.cfi_def_cfa %rbp, 16
	callq	detect_breach
	jmp	.LBB32_17
.Lfunc_end32:
	.size	start_slice.22, .Lfunc_end32-start_slice.22
	.cfi_endproc
                                        # -- End function
	.p2align	4, 0x90         # -- Begin function free_slice.23
	.type	free_slice.23,@function
free_slice.23:                          # @free_slice.23
	.cfi_startproc
# %bb.0:                                # %entry
	pushq	%rbp
	.cfi_def_cfa_offset 16
	.cfi_offset %rbp, -16
	movq	%rsp, %rbp
	.cfi_def_cfa_register %rbp
	subq	$32, %rsp
	movl	$194701648, -28(%rbp)   # imm = 0xB9AE950
	movq	%rdi, -16(%rbp)
	cmpq	$0, -16(%rbp)
	je	.LBB33_16
# %bb.1:                                # %if.then
	movl	$0, -4(%rbp)
.LBB33_2:                               # %for.cond
                                        # =>This Inner Loop Header: Depth=1
	movl	-4(%rbp), %eax
	movq	-16(%rbp), %rcx
	cmpl	16(%rcx), %eax
	jge	.LBB33_11
# %bb.3:                                # %for.body
                                        #   in Loop: Header=BB33_2 Depth=1
	movq	-16(%rbp), %rax
	movq	24(%rax), %rax
	movslq	-4(%rbp), %rcx
	imulq	$120, %rcx, %rcx
	addq	%rcx, %rax
	movq	%rax, -24(%rbp)
	cmpq	$0, -24(%rbp)
	je	.LBB33_9
# %bb.4:                                # %if.then3
                                        #   in Loop: Header=BB33_2 Depth=1
	movq	-24(%rbp), %rax
	movq	(%rax), %rax
	cmpq	$0, 32(%rax)
	je	.LBB33_6
# %bb.5:                                # %if.then5
                                        #   in Loop: Header=BB33_2 Depth=1
	movq	-24(%rbp), %rax
	movq	(%rax), %rax
	movq	32(%rax), %rdi
	callq	free
.LBB33_6:                               # %if.end
                                        #   in Loop: Header=BB33_2 Depth=1
	movq	-24(%rbp), %rax
	cmpq	$0, (%rax)
	je	.LBB33_8
# %bb.7:                                # %if.then10
                                        #   in Loop: Header=BB33_2 Depth=1
	movq	-24(%rbp), %rax
	movq	(%rax), %rdi
	callq	free
.LBB33_8:                               # %if.end12
                                        #   in Loop: Header=BB33_2 Depth=1
	jmp	.LBB33_9
.LBB33_9:                               # %if.end13
                                        #   in Loop: Header=BB33_2 Depth=1
	jmp	.LBB33_10
.LBB33_10:                              # %for.inc
                                        #   in Loop: Header=BB33_2 Depth=1
	movl	-4(%rbp), %eax
	addl	$1, %eax
	movl	%eax, -4(%rbp)
	jmp	.LBB33_2
.LBB33_11:                              # %for.end
	movq	-16(%rbp), %rax
	cmpq	$0, 24(%rax)
	je	.LBB33_13
# %bb.12:                               # %if.then16
	movq	-16(%rbp), %rax
	movq	24(%rax), %rdi
	callq	free
.LBB33_13:                              # %if.end18
	movq	input, %rax
	cmpl	$1, 2356(%rax)
	jne	.LBB33_15
# %bb.14:                               # %if.then20
	movq	-16(%rbp), %rax
	movq	32(%rax), %rdi
	callq	delete_contexts_MotionInfo
	movq	-16(%rbp), %rax
	movq	40(%rax), %rdi
	callq	delete_contexts_TextureInfo
.LBB33_15:                              # %if.end21
	movq	-16(%rbp), %rdi
	callq	free
.LBB33_16:                              # %if.end22
	cmpl	$194701648, -28(%rbp)   # imm = 0xB9AE950
	jne	.LBB33_18
.LBB33_17:
	addq	$32, %rsp
	popq	%rbp
	.cfi_def_cfa %rsp, 8
	retq
.LBB33_18:                              # %func_exit
	.cfi_def_cfa %rbp, 16
	callq	detect_breach
	jmp	.LBB33_17
.Lfunc_end33:
	.size	free_slice.23, .Lfunc_end33-free_slice.23
	.cfi_endproc
                                        # -- End function
	.p2align	4, 0x90         # -- Begin function malloc_slice.24
	.type	malloc_slice.24,@function
malloc_slice.24:                        # @malloc_slice.24
	.cfi_startproc
# %bb.0:                                # %entry
	pushq	%rbp
	.cfi_def_cfa_offset 16
	.cfi_offset %rbp, -16
	movq	%rsp, %rbp
	.cfi_def_cfa_register %rbp
	pushq	%rbx
	subq	$40, %rsp
	.cfi_offset %rbx, -24
	movl	$513393300, -24(%rbp)   # imm = 0x1E99C294
	movq	img, %rax
	movl	52(%rax), %eax
	movq	img, %rcx
	imull	60(%rcx), %eax
	shll	$2, %eax
	movl	%eax, -28(%rbp)
	movl	$1, %edi
	movl	$152, %esi
	callq	calloc
	movq	%rax, -16(%rbp)
	cmpq	$0, %rax
	jne	.LBB34_2
# %bb.1:                                # %if.then
	movabsq	$.L.str.2, %rdi
	callq	no_mem_exit
.LBB34_2:                               # %if.end
	movq	input, %rax
	cmpl	$1, 2356(%rax)
	jne	.LBB34_4
# %bb.3:                                # %if.then3
	callq	create_contexts_MotionInfo
	movq	-16(%rbp), %rcx
	movq	%rax, 32(%rcx)
	callq	create_contexts_TextureInfo
	movq	-16(%rbp), %rcx
	movq	%rax, 40(%rcx)
.LBB34_4:                               # %if.end6
	movq	input, %rax
	movl	2364(%rax), %eax
	cmpl	$0, %eax
	movl	$1, %eax
	movl	$3, %ecx
	cmovel	%eax, %ecx
	movq	-16(%rbp), %rax
	movl	%ecx, 16(%rax)
	movq	img, %rax
	movq	14152(%rax), %rax
	cmpl	$0, 4(%rax)
	je	.LBB34_6
# %bb.5:                                # %if.then8
	movq	-16(%rbp), %rax
	movl	$1, 16(%rax)
.LBB34_6:                               # %if.end10
	movabsq	$assignSE2partition_NoDP, %rax
	movq	%rax, assignSE2partition
	movq	img, %rax
	movq	14152(%rax), %rax
	cmpl	$0, 4(%rax)
	jne	.LBB34_9
# %bb.7:                                # %land.lhs.true
	movq	input, %rax
	cmpl	$1, 2364(%rax)
	jne	.LBB34_9
# %bb.8:                                # %if.then16
	movabsq	$assignSE2partition_DP, %rax
	movq	%rax, assignSE2partition+8
	jmp	.LBB34_10
.LBB34_9:                               # %if.else
	movabsq	$assignSE2partition_NoDP, %rax
	movq	%rax, assignSE2partition+8
.LBB34_10:                              # %if.end17
	movq	-16(%rbp), %rax
	movl	$0, 20(%rax)
	movq	-16(%rbp), %rax
	movslq	16(%rax), %rdi
	movl	$120, %esi
	callq	calloc
	movq	-16(%rbp), %rcx
	movq	%rax, 24(%rcx)
	cmpq	$0, %rax
	jne	.LBB34_12
# %bb.11:                               # %if.then22
	movabsq	$.L.str.3, %rdi
	callq	no_mem_exit
.LBB34_12:                              # %if.end23
	movl	$0, -20(%rbp)
.LBB34_13:                              # %for.cond
                                        # =>This Inner Loop Header: Depth=1
	movl	-20(%rbp), %eax
	movq	-16(%rbp), %rcx
	cmpl	16(%rcx), %eax
	jge	.LBB34_20
# %bb.14:                               # %for.body
                                        #   in Loop: Header=BB34_13 Depth=1
	movq	-16(%rbp), %rax
	movq	24(%rax), %rax
	movslq	-20(%rbp), %rcx
	imulq	$120, %rcx, %rcx
	addq	%rcx, %rax
	movq	%rax, -40(%rbp)
	movl	$1, %edi
	movl	$48, %esi
	callq	calloc
	movq	-40(%rbp), %rcx
	movq	%rax, (%rcx)
	cmpq	$0, %rax
	jne	.LBB34_16
# %bb.15:                               # %if.then31
                                        #   in Loop: Header=BB34_13 Depth=1
	movabsq	$.L.str.4, %rdi
	callq	no_mem_exit
.LBB34_16:                              # %if.end32
                                        #   in Loop: Header=BB34_13 Depth=1
	movslq	-28(%rbp), %rdi
	movl	$1, %esi
	callq	calloc
	movq	-40(%rbp), %rcx
	movq	(%rcx), %rcx
	movq	%rax, 32(%rcx)
	cmpq	$0, %rax
	jne	.LBB34_18
# %bb.17:                               # %if.then38
                                        #   in Loop: Header=BB34_13 Depth=1
	movabsq	$.L.str.5, %rdi
	callq	no_mem_exit
.LBB34_18:                              # %if.end39
                                        #   in Loop: Header=BB34_13 Depth=1
	jmp	.LBB34_19
.LBB34_19:                              # %for.inc
                                        #   in Loop: Header=BB34_13 Depth=1
	movl	-20(%rbp), %eax
	addl	$1, %eax
	movl	%eax, -20(%rbp)
	jmp	.LBB34_13
.LBB34_20:                              # %for.end
	movq	-16(%rbp), %rbx
	cmpl	$513393300, -24(%rbp)   # imm = 0x1E99C294
	jne	.LBB34_22
.LBB34_21:
	movq	%rbx, %rax
	addq	$40, %rsp
	popq	%rbx
	popq	%rbp
	.cfi_def_cfa %rsp, 8
	retq
.LBB34_22:                              # %func_exit
	.cfi_def_cfa %rbp, 16
	callq	detect_breach
	jmp	.LBB34_21
.Lfunc_end34:
	.size	malloc_slice.24, .Lfunc_end34-malloc_slice.24
	.cfi_endproc
                                        # -- End function
	.globl	poc_ref_pic_reorder.25  # -- Begin function poc_ref_pic_reorder.25
	.p2align	4, 0x90
	.type	poc_ref_pic_reorder.25,@function
poc_ref_pic_reorder.25:                 # @poc_ref_pic_reorder.25
	.cfi_startproc
# %bb.0:                                # %entry
	pushq	%rbp
	.cfi_def_cfa_offset 16
	.cfi_offset %rbp, -16
	movq	%rsp, %rbp
	.cfi_def_cfa_register %rbp
	subq	$736, %rsp              # imm = 0x2E0
	movl	16(%rbp), %eax
	movl	$597896870, -68(%rbp)   # imm = 0x23A32EA6
	movq	%rdi, -80(%rbp)
	movl	%esi, -12(%rbp)
	movq	%rdx, -64(%rbp)
	movq	%rcx, -56(%rbp)
	movq	%r8, -96(%rbp)
	movl	%r9d, -84(%rbp)
	movl	log2_max_frame_num_minus4, %ecx
	addl	$4, %ecx
                                        # kill: def $cl killed $ecx
	movl	$1, %eax
	shll	%cl, %eax
	movl	%eax, -36(%rbp)
	movq	img, %rax
	cmpl	$0, 28(%rax)
	jne	.LBB35_2
# %bb.1:                                # %if.then
	movl	-36(%rbp), %eax
	movl	%eax, -40(%rbp)
	movq	img, %rax
	movl	72464(%rax), %eax
	movl	%eax, -28(%rbp)
	jmp	.LBB35_3
.LBB35_2:                               # %if.else
	movl	-36(%rbp), %eax
	shll	$1, %eax
	movl	%eax, -40(%rbp)
	movq	img, %rax
	movl	72464(%rax), %eax
	shll	$1, %eax
	addl	$1, %eax
	movl	%eax, -28(%rbp)
.LBB35_3:                               # %if.end
	movl	-28(%rbp), %eax
	movl	%eax, -48(%rbp)
	movl	$0, -4(%rbp)
.LBB35_4:                               # %for.cond
                                        # =>This Inner Loop Header: Depth=1
	movl	-4(%rbp), %eax
	cmpl	-12(%rbp), %eax
	jae	.LBB35_7
# %bb.5:                                # %for.body
                                        #   in Loop: Header=BB35_4 Depth=1
	movq	-80(%rbp), %rax
	movl	-4(%rbp), %ecx
	movq	(%rax,%rcx,8), %rax
	movl	6364(%rax), %eax
	movl	-4(%rbp), %ecx
	movl	%eax, -608(%rbp,%rcx,4)
# %bb.6:                                # %for.inc
                                        #   in Loop: Header=BB35_4 Depth=1
	movl	-4(%rbp), %eax
	addl	$1, %eax
	movl	%eax, -4(%rbp)
	jmp	.LBB35_4
.LBB35_7:                               # %for.end
	movl	$0, -4(%rbp)
.LBB35_8:                               # %for.cond7
                                        # =>This Inner Loop Header: Depth=1
	movl	-4(%rbp), %eax
	cmpl	dpb+32, %eax
	jae	.LBB35_24
# %bb.9:                                # %for.body9
                                        #   in Loop: Header=BB35_8 Depth=1
	movq	dpb+8, %rax
	movl	-4(%rbp), %ecx
	movq	(%rax,%rcx,8), %rax
	movq	40(%rax), %rax
	movl	6364(%rax), %eax
	movl	-4(%rbp), %ecx
	movl	%eax, -224(%rbp,%rcx,4)
	movq	dpb+8, %rax
	movl	-4(%rbp), %ecx
	movq	(%rax,%rcx,8), %rax
	cmpl	$3, (%rax)
	jne	.LBB35_22
# %bb.10:                               # %land.lhs.true
                                        #   in Loop: Header=BB35_8 Depth=1
	movq	dpb+8, %rax
	movl	-4(%rbp), %ecx
	movq	(%rax,%rcx,8), %rax
	movq	40(%rax), %rax
	cmpl	$0, 6380(%rax)
	je	.LBB35_22
# %bb.11:                               # %land.lhs.true21
                                        #   in Loop: Header=BB35_8 Depth=1
	movq	dpb+8, %rax
	movl	-4(%rbp), %ecx
	movq	(%rax,%rcx,8), %rax
	movq	40(%rax), %rax
	cmpl	$0, 6376(%rax)
	jne	.LBB35_22
# %bb.12:                               # %if.then26
                                        #   in Loop: Header=BB35_8 Depth=1
	movq	dpb+8, %rax
	movl	-4(%rbp), %ecx
	movq	(%rax,%rcx,8), %rax
	movq	40(%rax), %rax
	movl	4(%rax), %edi
	movq	enc_picture, %rax
	subl	4(%rax), %edi
	callq	abs
	movl	%eax, -72(%rbp)
	movl	-72(%rbp), %eax
	movl	-4(%rbp), %ecx
	movl	%eax, -480(%rbp,%rcx,4)
	cmpl	$0, 16(%rbp)
	jne	.LBB35_17
# %bb.13:                               # %if.then34
                                        #   in Loop: Header=BB35_8 Depth=1
	movq	enc_picture, %rax
	movl	4(%rax), %eax
	movq	dpb+8, %rcx
	movl	-4(%rbp), %edx
	movq	(%rcx,%rdx,8), %rcx
	movq	40(%rcx), %rcx
	cmpl	4(%rcx), %eax
	jge	.LBB35_15
# %bb.14:                               # %if.then41
                                        #   in Loop: Header=BB35_8 Depth=1
	movl	-4(%rbp), %eax
	movl	$1, -352(%rbp,%rax,4)
	jmp	.LBB35_16
.LBB35_15:                              # %if.else44
                                        #   in Loop: Header=BB35_8 Depth=1
	movl	-4(%rbp), %eax
	movl	$-1, -352(%rbp,%rax,4)
.LBB35_16:                              # %if.end47
                                        #   in Loop: Header=BB35_8 Depth=1
	jmp	.LBB35_21
.LBB35_17:                              # %if.else48
                                        #   in Loop: Header=BB35_8 Depth=1
	movq	enc_picture, %rax
	movl	4(%rax), %eax
	movq	dpb+8, %rcx
	movl	-4(%rbp), %edx
	movq	(%rcx,%rdx,8), %rcx
	movq	40(%rcx), %rcx
	cmpl	4(%rcx), %eax
	jle	.LBB35_19
# %bb.18:                               # %if.then55
                                        #   in Loop: Header=BB35_8 Depth=1
	movl	-4(%rbp), %eax
	movl	$1, -352(%rbp,%rax,4)
	jmp	.LBB35_20
.LBB35_19:                              # %if.else58
                                        #   in Loop: Header=BB35_8 Depth=1
	movl	-4(%rbp), %eax
	movl	$-1, -352(%rbp,%rax,4)
.LBB35_20:                              # %if.end61
                                        #   in Loop: Header=BB35_8 Depth=1
	jmp	.LBB35_21
.LBB35_21:                              # %if.end62
                                        #   in Loop: Header=BB35_8 Depth=1
	jmp	.LBB35_22
.LBB35_22:                              # %if.end63
                                        #   in Loop: Header=BB35_8 Depth=1
	jmp	.LBB35_23
.LBB35_23:                              # %for.inc64
                                        #   in Loop: Header=BB35_8 Depth=1
	movl	-4(%rbp), %eax
	addl	$1, %eax
	movl	%eax, -4(%rbp)
	jmp	.LBB35_8
.LBB35_24:                              # %for.end66
	movl	$0, -4(%rbp)
.LBB35_25:                              # %for.cond67
                                        # =>This Loop Header: Depth=1
                                        #     Child Loop BB35_27 Depth 2
	movl	-4(%rbp), %eax
	movl	dpb+32, %ecx
	subl	$1, %ecx
	cmpl	%ecx, %eax
	jae	.LBB35_36
# %bb.26:                               # %for.body70
                                        #   in Loop: Header=BB35_25 Depth=1
	movl	-4(%rbp), %eax
	addl	$1, %eax
	movl	%eax, -8(%rbp)
.LBB35_27:                              # %for.cond72
                                        #   Parent Loop BB35_25 Depth=1
                                        # =>  This Inner Loop Header: Depth=2
	movl	-8(%rbp), %eax
	cmpl	dpb+32, %eax
	jae	.LBB35_34
# %bb.28:                               # %for.body74
                                        #   in Loop: Header=BB35_27 Depth=2
	movl	-4(%rbp), %eax
	movl	-480(%rbp,%rax,4), %eax
	movl	-8(%rbp), %ecx
	cmpl	-480(%rbp,%rcx,4), %eax
	jg	.LBB35_31
# %bb.29:                               # %lor.lhs.false
                                        #   in Loop: Header=BB35_27 Depth=2
	movl	-4(%rbp), %eax
	movl	-480(%rbp,%rax,4), %eax
	movl	-8(%rbp), %ecx
	cmpl	-480(%rbp,%rcx,4), %eax
	jne	.LBB35_32
# %bb.30:                               # %land.lhs.true85
                                        #   in Loop: Header=BB35_27 Depth=2
	movl	-8(%rbp), %eax
	movl	-352(%rbp,%rax,4), %eax
	movl	-4(%rbp), %ecx
	cmpl	-352(%rbp,%rcx,4), %eax
	jle	.LBB35_32
.LBB35_31:                              # %if.then91
                                        #   in Loop: Header=BB35_27 Depth=2
	movl	-4(%rbp), %eax
	movl	-480(%rbp,%rax,4), %eax
	movl	%eax, -16(%rbp)
	movl	-8(%rbp), %eax
	movl	-480(%rbp,%rax,4), %eax
	movl	-4(%rbp), %ecx
	movl	%eax, -480(%rbp,%rcx,4)
	movl	-16(%rbp), %eax
	movl	-8(%rbp), %ecx
	movl	%eax, -480(%rbp,%rcx,4)
	movl	-4(%rbp), %eax
	movl	-224(%rbp,%rax,4), %eax
	movl	%eax, -16(%rbp)
	movl	-8(%rbp), %eax
	movl	-224(%rbp,%rax,4), %eax
	movl	-4(%rbp), %ecx
	movl	%eax, -224(%rbp,%rcx,4)
	movl	-16(%rbp), %eax
	movl	-8(%rbp), %ecx
	movl	%eax, -224(%rbp,%rcx,4)
	movl	-4(%rbp), %eax
	movl	-352(%rbp,%rax,4), %eax
	movl	%eax, -16(%rbp)
	movl	-8(%rbp), %eax
	movl	-352(%rbp,%rax,4), %eax
	movl	-4(%rbp), %ecx
	movl	%eax, -352(%rbp,%rcx,4)
	movl	-16(%rbp), %eax
	movl	-8(%rbp), %ecx
	movl	%eax, -352(%rbp,%rcx,4)
.LBB35_32:                              # %if.end116
                                        #   in Loop: Header=BB35_27 Depth=2
	jmp	.LBB35_33
.LBB35_33:                              # %for.inc117
                                        #   in Loop: Header=BB35_27 Depth=2
	movl	-8(%rbp), %eax
	addl	$1, %eax
	movl	%eax, -8(%rbp)
	jmp	.LBB35_27
.LBB35_34:                              # %for.end119
                                        #   in Loop: Header=BB35_25 Depth=1
	jmp	.LBB35_35
.LBB35_35:                              # %for.inc120
                                        #   in Loop: Header=BB35_25 Depth=1
	movl	-4(%rbp), %eax
	addl	$1, %eax
	movl	%eax, -4(%rbp)
	jmp	.LBB35_25
.LBB35_36:                              # %for.end122
	movl	$1, -32(%rbp)
	movl	$0, -4(%rbp)
.LBB35_37:                              # %for.cond123
                                        # =>This Inner Loop Header: Depth=1
	movl	-4(%rbp), %eax
	cmpl	-12(%rbp), %eax
	jae	.LBB35_42
# %bb.38:                               # %for.body125
                                        #   in Loop: Header=BB35_37 Depth=1
	movl	-4(%rbp), %eax
	movl	-608(%rbp,%rax,4), %eax
	movl	-4(%rbp), %ecx
	cmpl	-224(%rbp,%rcx,4), %eax
	je	.LBB35_40
# %bb.39:                               # %if.then131
                                        #   in Loop: Header=BB35_37 Depth=1
	movl	$0, -32(%rbp)
.LBB35_40:                              # %if.end132
                                        #   in Loop: Header=BB35_37 Depth=1
	jmp	.LBB35_41
.LBB35_41:                              # %for.inc133
                                        #   in Loop: Header=BB35_37 Depth=1
	movl	-4(%rbp), %eax
	addl	$1, %eax
	movl	%eax, -4(%rbp)
	jmp	.LBB35_37
.LBB35_42:                              # %for.end135
	cmpl	$0, -32(%rbp)
	jne	.LBB35_80
# %bb.43:                               # %if.then137
	movl	$0, -4(%rbp)
.LBB35_44:                              # %for.cond138
                                        # =>This Loop Header: Depth=1
                                        #     Child Loop BB35_51 Depth 2
                                        #     Child Loop BB35_57 Depth 2
                                        #     Child Loop BB35_66 Depth 2
	movl	-4(%rbp), %eax
	cmpl	-12(%rbp), %eax
	jae	.LBB35_71
# %bb.45:                               # %for.body140
                                        #   in Loop: Header=BB35_44 Depth=1
	movl	-4(%rbp), %eax
	movl	-224(%rbp,%rax,4), %eax
	subl	-48(%rbp), %eax
	movl	%eax, -20(%rbp)
	cmpl	$0, -20(%rbp)
	jg	.LBB35_49
# %bb.46:                               # %if.then145
                                        #   in Loop: Header=BB35_44 Depth=1
	movq	-64(%rbp), %rax
	movl	-4(%rbp), %ecx
	movl	$0, (%rax,%rcx,4)
	movl	-20(%rbp), %edi
	callq	abs
	subl	$1, %eax
	movq	-56(%rbp), %rcx
	movl	-4(%rbp), %edx
	movl	%eax, (%rcx,%rdx,4)
	movq	-56(%rbp), %rax
	movl	-4(%rbp), %ecx
	cmpl	$0, (%rax,%rcx,4)
	jge	.LBB35_48
# %bb.47:                               # %if.then155
                                        #   in Loop: Header=BB35_44 Depth=1
	movl	-40(%rbp), %eax
	subl	$1, %eax
	movq	-56(%rbp), %rcx
	movl	-4(%rbp), %edx
	movl	%eax, (%rcx,%rdx,4)
.LBB35_48:                              # %if.end159
                                        #   in Loop: Header=BB35_44 Depth=1
	jmp	.LBB35_50
.LBB35_49:                              # %if.else160
                                        #   in Loop: Header=BB35_44 Depth=1
	movq	-64(%rbp), %rax
	movl	-4(%rbp), %ecx
	movl	$1, (%rax,%rcx,4)
	movl	-20(%rbp), %edi
	callq	abs
	subl	$1, %eax
	movq	-56(%rbp), %rcx
	movl	-4(%rbp), %edx
	movl	%eax, (%rcx,%rdx,4)
.LBB35_50:                              # %if.end167
                                        #   in Loop: Header=BB35_44 Depth=1
	movl	-4(%rbp), %eax
	movl	-224(%rbp,%rax,4), %eax
	movl	%eax, -48(%rbp)
	movl	-4(%rbp), %eax
	movl	-224(%rbp,%rax,4), %eax
	movl	-4(%rbp), %ecx
	movl	%eax, -736(%rbp,%rcx,4)
	movl	-4(%rbp), %eax
	movl	%eax, -24(%rbp)
	movl	-4(%rbp), %eax
	movl	%eax, -8(%rbp)
.LBB35_51:                              # %for.cond174
                                        #   Parent Loop BB35_44 Depth=1
                                        # =>  This Inner Loop Header: Depth=2
	movl	-8(%rbp), %eax
	cmpl	-12(%rbp), %eax
	jae	.LBB35_56
# %bb.52:                               # %for.body176
                                        #   in Loop: Header=BB35_51 Depth=2
	movl	-8(%rbp), %eax
	movl	-608(%rbp,%rax,4), %eax
	movl	-4(%rbp), %ecx
	cmpl	-224(%rbp,%rcx,4), %eax
	je	.LBB35_54
# %bb.53:                               # %if.then182
                                        #   in Loop: Header=BB35_51 Depth=2
	movl	-24(%rbp), %eax
	addl	$1, %eax
	movl	%eax, -24(%rbp)
	movl	-8(%rbp), %eax
	movl	-608(%rbp,%rax,4), %eax
	movl	-24(%rbp), %ecx
	movl	%eax, -736(%rbp,%rcx,4)
.LBB35_54:                              # %if.end188
                                        #   in Loop: Header=BB35_51 Depth=2
	jmp	.LBB35_55
.LBB35_55:                              # %for.inc189
                                        #   in Loop: Header=BB35_51 Depth=2
	movl	-8(%rbp), %eax
	addl	$1, %eax
	movl	%eax, -8(%rbp)
	jmp	.LBB35_51
.LBB35_56:                              # %for.end191
                                        #   in Loop: Header=BB35_44 Depth=1
	movl	$1, -44(%rbp)
	movl	-4(%rbp), %eax
	addl	$1, %eax
	movl	%eax, -8(%rbp)
.LBB35_57:                              # %for.cond193
                                        #   Parent Loop BB35_44 Depth=1
                                        # =>  This Inner Loop Header: Depth=2
	movl	-8(%rbp), %eax
	cmpl	-12(%rbp), %eax
	jae	.LBB35_62
# %bb.58:                               # %for.body195
                                        #   in Loop: Header=BB35_57 Depth=2
	movl	-8(%rbp), %eax
	movl	-736(%rbp,%rax,4), %eax
	movl	-8(%rbp), %ecx
	cmpl	-224(%rbp,%rcx,4), %eax
	je	.LBB35_60
# %bb.59:                               # %if.then201
                                        #   in Loop: Header=BB35_44 Depth=1
	movl	$0, -44(%rbp)
	jmp	.LBB35_63
.LBB35_60:                              # %if.end202
                                        #   in Loop: Header=BB35_57 Depth=2
	jmp	.LBB35_61
.LBB35_61:                              # %for.inc203
                                        #   in Loop: Header=BB35_57 Depth=2
	movl	-8(%rbp), %eax
	addl	$1, %eax
	movl	%eax, -8(%rbp)
	jmp	.LBB35_57
.LBB35_62:                              # %for.end205.loopexit
                                        #   in Loop: Header=BB35_44 Depth=1
	jmp	.LBB35_63
.LBB35_63:                              # %for.end205
                                        #   in Loop: Header=BB35_44 Depth=1
	cmpl	$1, -44(%rbp)
	jne	.LBB35_65
# %bb.64:                               # %if.then207
	movl	-4(%rbp), %eax
	addl	$1, %eax
	movl	%eax, -4(%rbp)
	jmp	.LBB35_72
.LBB35_65:                              # %if.end209
                                        #   in Loop: Header=BB35_44 Depth=1
	movl	$0, -8(%rbp)
.LBB35_66:                              # %for.cond210
                                        #   Parent Loop BB35_44 Depth=1
                                        # =>  This Inner Loop Header: Depth=2
	movl	-8(%rbp), %eax
	cmpl	-12(%rbp), %eax
	jae	.LBB35_69
# %bb.67:                               # %for.body212
                                        #   in Loop: Header=BB35_66 Depth=2
	movl	-8(%rbp), %eax
	movl	-736(%rbp,%rax,4), %eax
	movl	-8(%rbp), %ecx
	movl	%eax, -608(%rbp,%rcx,4)
# %bb.68:                               # %for.inc217
                                        #   in Loop: Header=BB35_66 Depth=2
	movl	-8(%rbp), %eax
	addl	$1, %eax
	movl	%eax, -8(%rbp)
	jmp	.LBB35_66
.LBB35_69:                              # %for.end219
                                        #   in Loop: Header=BB35_44 Depth=1
	jmp	.LBB35_70
.LBB35_70:                              # %for.inc220
                                        #   in Loop: Header=BB35_44 Depth=1
	movl	-4(%rbp), %eax
	addl	$1, %eax
	movl	%eax, -4(%rbp)
	jmp	.LBB35_44
.LBB35_71:                              # %for.end222.loopexit
	jmp	.LBB35_72
.LBB35_72:                              # %for.end222
	movq	-64(%rbp), %rax
	movl	-4(%rbp), %ecx
	movl	$3, (%rax,%rcx,4)
	movl	$0, -8(%rbp)
.LBB35_73:                              # %for.cond225
                                        # =>This Inner Loop Header: Depth=1
	movl	-8(%rbp), %eax
	cmpl	-12(%rbp), %eax
	jae	.LBB35_76
# %bb.74:                               # %for.body227
                                        #   in Loop: Header=BB35_73 Depth=1
	movl	-8(%rbp), %eax
	movl	-736(%rbp,%rax,4), %eax
	movl	-8(%rbp), %ecx
	movl	%eax, -608(%rbp,%rcx,4)
# %bb.75:                               # %for.inc232
                                        #   in Loop: Header=BB35_73 Depth=1
	movl	-8(%rbp), %eax
	addl	$1, %eax
	movl	%eax, -8(%rbp)
	jmp	.LBB35_73
.LBB35_76:                              # %for.end234
	cmpl	$0, 16(%rbp)
	jne	.LBB35_78
# %bb.77:                               # %if.then236
	movq	img, %rax
	movq	14160(%rax), %rax
	movl	$1, 56(%rax)
	jmp	.LBB35_79
.LBB35_78:                              # %if.else237
	movq	img, %rax
	movq	14160(%rax), %rax
	movl	$1, 88(%rax)
.LBB35_79:                              # %if.end239
	jmp	.LBB35_80
.LBB35_80:                              # %if.end240
	cmpl	$597896870, -68(%rbp)   # imm = 0x23A32EA6
	jne	.LBB35_82
.LBB35_81:
	addq	$736, %rsp              # imm = 0x2E0
	popq	%rbp
	.cfi_def_cfa %rsp, 8
	retq
.LBB35_82:                              # %func_exit
	.cfi_def_cfa %rbp, 16
	callq	detect_breach
	jmp	.LBB35_81
.Lfunc_end35:
	.size	poc_ref_pic_reorder.25, .Lfunc_end35-poc_ref_pic_reorder.25
	.cfi_endproc
                                        # -- End function
	.p2align	4, 0x90         # -- Begin function malloc_slice.26
	.type	malloc_slice.26,@function
malloc_slice.26:                        # @malloc_slice.26
	.cfi_startproc
# %bb.0:                                # %entry
	pushq	%rbp
	.cfi_def_cfa_offset 16
	.cfi_offset %rbp, -16
	movq	%rsp, %rbp
	.cfi_def_cfa_register %rbp
	pushq	%rbx
	subq	$40, %rsp
	.cfi_offset %rbx, -24
	movl	$748714880, -28(%rbp)   # imm = 0x2CA07B80
	movq	img, %rax
	movl	52(%rax), %eax
	movq	img, %rcx
	imull	60(%rcx), %eax
	shll	$2, %eax
	movl	%eax, -24(%rbp)
	movl	$1, %edi
	movl	$152, %esi
	callq	calloc
	movq	%rax, -16(%rbp)
	cmpq	$0, %rax
	jne	.LBB36_2
# %bb.1:                                # %if.then
	movabsq	$.L.str.2, %rdi
	callq	no_mem_exit
.LBB36_2:                               # %if.end
	movq	input, %rax
	cmpl	$1, 2356(%rax)
	jne	.LBB36_4
# %bb.3:                                # %if.then3
	callq	create_contexts_MotionInfo
	movq	-16(%rbp), %rcx
	movq	%rax, 32(%rcx)
	callq	create_contexts_TextureInfo
	movq	-16(%rbp), %rcx
	movq	%rax, 40(%rcx)
.LBB36_4:                               # %if.end6
	movq	input, %rax
	movl	2364(%rax), %eax
	cmpl	$0, %eax
	movl	$1, %eax
	movl	$3, %ecx
	cmovel	%eax, %ecx
	movq	-16(%rbp), %rax
	movl	%ecx, 16(%rax)
	movq	img, %rax
	movq	14152(%rax), %rax
	cmpl	$0, 4(%rax)
	je	.LBB36_6
# %bb.5:                                # %if.then8
	movq	-16(%rbp), %rax
	movl	$1, 16(%rax)
.LBB36_6:                               # %if.end10
	movabsq	$assignSE2partition_NoDP, %rax
	movq	%rax, assignSE2partition
	movq	img, %rax
	movq	14152(%rax), %rax
	cmpl	$0, 4(%rax)
	jne	.LBB36_9
# %bb.7:                                # %land.lhs.true
	movq	input, %rax
	cmpl	$1, 2364(%rax)
	jne	.LBB36_9
# %bb.8:                                # %if.then16
	movabsq	$assignSE2partition_DP, %rax
	movq	%rax, assignSE2partition+8
	jmp	.LBB36_10
.LBB36_9:                               # %if.else
	movabsq	$assignSE2partition_NoDP, %rax
	movq	%rax, assignSE2partition+8
.LBB36_10:                              # %if.end17
	movq	-16(%rbp), %rax
	movl	$0, 20(%rax)
	movq	-16(%rbp), %rax
	movslq	16(%rax), %rdi
	movl	$120, %esi
	callq	calloc
	movq	-16(%rbp), %rcx
	movq	%rax, 24(%rcx)
	cmpq	$0, %rax
	jne	.LBB36_12
# %bb.11:                               # %if.then22
	movabsq	$.L.str.3, %rdi
	callq	no_mem_exit
.LBB36_12:                              # %if.end23
	movl	$0, -20(%rbp)
.LBB36_13:                              # %for.cond
                                        # =>This Inner Loop Header: Depth=1
	movl	-20(%rbp), %eax
	movq	-16(%rbp), %rcx
	cmpl	16(%rcx), %eax
	jge	.LBB36_20
# %bb.14:                               # %for.body
                                        #   in Loop: Header=BB36_13 Depth=1
	movq	-16(%rbp), %rax
	movq	24(%rax), %rax
	movslq	-20(%rbp), %rcx
	imulq	$120, %rcx, %rcx
	addq	%rcx, %rax
	movq	%rax, -40(%rbp)
	movl	$1, %edi
	movl	$48, %esi
	callq	calloc
	movq	-40(%rbp), %rcx
	movq	%rax, (%rcx)
	cmpq	$0, %rax
	jne	.LBB36_16
# %bb.15:                               # %if.then31
                                        #   in Loop: Header=BB36_13 Depth=1
	movabsq	$.L.str.4, %rdi
	callq	no_mem_exit
.LBB36_16:                              # %if.end32
                                        #   in Loop: Header=BB36_13 Depth=1
	movslq	-24(%rbp), %rdi
	movl	$1, %esi
	callq	calloc
	movq	-40(%rbp), %rcx
	movq	(%rcx), %rcx
	movq	%rax, 32(%rcx)
	cmpq	$0, %rax
	jne	.LBB36_18
# %bb.17:                               # %if.then38
                                        #   in Loop: Header=BB36_13 Depth=1
	movabsq	$.L.str.5, %rdi
	callq	no_mem_exit
.LBB36_18:                              # %if.end39
                                        #   in Loop: Header=BB36_13 Depth=1
	jmp	.LBB36_19
.LBB36_19:                              # %for.inc
                                        #   in Loop: Header=BB36_13 Depth=1
	movl	-20(%rbp), %eax
	addl	$1, %eax
	movl	%eax, -20(%rbp)
	jmp	.LBB36_13
.LBB36_20:                              # %for.end
	movq	-16(%rbp), %rbx
	cmpl	$748714880, -28(%rbp)   # imm = 0x2CA07B80
	jne	.LBB36_22
.LBB36_21:
	movq	%rbx, %rax
	addq	$40, %rsp
	popq	%rbx
	popq	%rbp
	.cfi_def_cfa %rsp, 8
	retq
.LBB36_22:                              # %func_exit
	.cfi_def_cfa %rbp, 16
	callq	detect_breach
	jmp	.LBB36_21
.Lfunc_end36:
	.size	malloc_slice.26, .Lfunc_end36-malloc_slice.26
	.cfi_endproc
                                        # -- End function
	.globl	poc_ref_pic_reorder.27  # -- Begin function poc_ref_pic_reorder.27
	.p2align	4, 0x90
	.type	poc_ref_pic_reorder.27,@function
poc_ref_pic_reorder.27:                 # @poc_ref_pic_reorder.27
	.cfi_startproc
# %bb.0:                                # %entry
	pushq	%rbp
	.cfi_def_cfa_offset 16
	.cfi_offset %rbp, -16
	movq	%rsp, %rbp
	.cfi_def_cfa_register %rbp
	subq	$736, %rsp              # imm = 0x2E0
	movl	16(%rbp), %eax
	movl	$387060498, -72(%rbp)   # imm = 0x17121312
	movq	%rdi, -80(%rbp)
	movl	%esi, -12(%rbp)
	movq	%rdx, -64(%rbp)
	movq	%rcx, -56(%rbp)
	movq	%r8, -96(%rbp)
	movl	%r9d, -84(%rbp)
	movl	log2_max_frame_num_minus4, %ecx
	addl	$4, %ecx
                                        # kill: def $cl killed $ecx
	movl	$1, %eax
	shll	%cl, %eax
	movl	%eax, -44(%rbp)
	movq	img, %rax
	cmpl	$0, 28(%rax)
	jne	.LBB37_2
# %bb.1:                                # %if.then
	movl	-44(%rbp), %eax
	movl	%eax, -28(%rbp)
	movq	img, %rax
	movl	72464(%rax), %eax
	movl	%eax, -48(%rbp)
	jmp	.LBB37_3
.LBB37_2:                               # %if.else
	movl	-44(%rbp), %eax
	shll	$1, %eax
	movl	%eax, -28(%rbp)
	movq	img, %rax
	movl	72464(%rax), %eax
	shll	$1, %eax
	addl	$1, %eax
	movl	%eax, -48(%rbp)
.LBB37_3:                               # %if.end
	movl	-48(%rbp), %eax
	movl	%eax, -36(%rbp)
	movl	$0, -4(%rbp)
.LBB37_4:                               # %for.cond
                                        # =>This Inner Loop Header: Depth=1
	movl	-4(%rbp), %eax
	cmpl	-12(%rbp), %eax
	jae	.LBB37_7
# %bb.5:                                # %for.body
                                        #   in Loop: Header=BB37_4 Depth=1
	movq	-80(%rbp), %rax
	movl	-4(%rbp), %ecx
	movq	(%rax,%rcx,8), %rax
	movl	6364(%rax), %eax
	movl	-4(%rbp), %ecx
	movl	%eax, -608(%rbp,%rcx,4)
# %bb.6:                                # %for.inc
                                        #   in Loop: Header=BB37_4 Depth=1
	movl	-4(%rbp), %eax
	addl	$1, %eax
	movl	%eax, -4(%rbp)
	jmp	.LBB37_4
.LBB37_7:                               # %for.end
	movl	$0, -4(%rbp)
.LBB37_8:                               # %for.cond7
                                        # =>This Inner Loop Header: Depth=1
	movl	-4(%rbp), %eax
	cmpl	dpb+32, %eax
	jae	.LBB37_24
# %bb.9:                                # %for.body9
                                        #   in Loop: Header=BB37_8 Depth=1
	movq	dpb+8, %rax
	movl	-4(%rbp), %ecx
	movq	(%rax,%rcx,8), %rax
	movq	40(%rax), %rax
	movl	6364(%rax), %eax
	movl	-4(%rbp), %ecx
	movl	%eax, -224(%rbp,%rcx,4)
	movq	dpb+8, %rax
	movl	-4(%rbp), %ecx
	movq	(%rax,%rcx,8), %rax
	cmpl	$3, (%rax)
	jne	.LBB37_22
# %bb.10:                               # %land.lhs.true
                                        #   in Loop: Header=BB37_8 Depth=1
	movq	dpb+8, %rax
	movl	-4(%rbp), %ecx
	movq	(%rax,%rcx,8), %rax
	movq	40(%rax), %rax
	cmpl	$0, 6380(%rax)
	je	.LBB37_22
# %bb.11:                               # %land.lhs.true21
                                        #   in Loop: Header=BB37_8 Depth=1
	movq	dpb+8, %rax
	movl	-4(%rbp), %ecx
	movq	(%rax,%rcx,8), %rax
	movq	40(%rax), %rax
	cmpl	$0, 6376(%rax)
	jne	.LBB37_22
# %bb.12:                               # %if.then26
                                        #   in Loop: Header=BB37_8 Depth=1
	movq	dpb+8, %rax
	movl	-4(%rbp), %ecx
	movq	(%rax,%rcx,8), %rax
	movq	40(%rax), %rax
	movl	4(%rax), %edi
	movq	enc_picture, %rax
	subl	4(%rax), %edi
	callq	abs
	movl	%eax, -68(%rbp)
	movl	-68(%rbp), %eax
	movl	-4(%rbp), %ecx
	movl	%eax, -480(%rbp,%rcx,4)
	cmpl	$0, 16(%rbp)
	jne	.LBB37_17
# %bb.13:                               # %if.then34
                                        #   in Loop: Header=BB37_8 Depth=1
	movq	enc_picture, %rax
	movl	4(%rax), %eax
	movq	dpb+8, %rcx
	movl	-4(%rbp), %edx
	movq	(%rcx,%rdx,8), %rcx
	movq	40(%rcx), %rcx
	cmpl	4(%rcx), %eax
	jge	.LBB37_15
# %bb.14:                               # %if.then41
                                        #   in Loop: Header=BB37_8 Depth=1
	movl	-4(%rbp), %eax
	movl	$1, -352(%rbp,%rax,4)
	jmp	.LBB37_16
.LBB37_15:                              # %if.else44
                                        #   in Loop: Header=BB37_8 Depth=1
	movl	-4(%rbp), %eax
	movl	$-1, -352(%rbp,%rax,4)
.LBB37_16:                              # %if.end47
                                        #   in Loop: Header=BB37_8 Depth=1
	jmp	.LBB37_21
.LBB37_17:                              # %if.else48
                                        #   in Loop: Header=BB37_8 Depth=1
	movq	enc_picture, %rax
	movl	4(%rax), %eax
	movq	dpb+8, %rcx
	movl	-4(%rbp), %edx
	movq	(%rcx,%rdx,8), %rcx
	movq	40(%rcx), %rcx
	cmpl	4(%rcx), %eax
	jle	.LBB37_19
# %bb.18:                               # %if.then55
                                        #   in Loop: Header=BB37_8 Depth=1
	movl	-4(%rbp), %eax
	movl	$1, -352(%rbp,%rax,4)
	jmp	.LBB37_20
.LBB37_19:                              # %if.else58
                                        #   in Loop: Header=BB37_8 Depth=1
	movl	-4(%rbp), %eax
	movl	$-1, -352(%rbp,%rax,4)
.LBB37_20:                              # %if.end61
                                        #   in Loop: Header=BB37_8 Depth=1
	jmp	.LBB37_21
.LBB37_21:                              # %if.end62
                                        #   in Loop: Header=BB37_8 Depth=1
	jmp	.LBB37_22
.LBB37_22:                              # %if.end63
                                        #   in Loop: Header=BB37_8 Depth=1
	jmp	.LBB37_23
.LBB37_23:                              # %for.inc64
                                        #   in Loop: Header=BB37_8 Depth=1
	movl	-4(%rbp), %eax
	addl	$1, %eax
	movl	%eax, -4(%rbp)
	jmp	.LBB37_8
.LBB37_24:                              # %for.end66
	movl	$0, -4(%rbp)
.LBB37_25:                              # %for.cond67
                                        # =>This Loop Header: Depth=1
                                        #     Child Loop BB37_27 Depth 2
	movl	-4(%rbp), %eax
	movl	dpb+32, %ecx
	subl	$1, %ecx
	cmpl	%ecx, %eax
	jae	.LBB37_36
# %bb.26:                               # %for.body70
                                        #   in Loop: Header=BB37_25 Depth=1
	movl	-4(%rbp), %eax
	addl	$1, %eax
	movl	%eax, -8(%rbp)
.LBB37_27:                              # %for.cond72
                                        #   Parent Loop BB37_25 Depth=1
                                        # =>  This Inner Loop Header: Depth=2
	movl	-8(%rbp), %eax
	cmpl	dpb+32, %eax
	jae	.LBB37_34
# %bb.28:                               # %for.body74
                                        #   in Loop: Header=BB37_27 Depth=2
	movl	-4(%rbp), %eax
	movl	-480(%rbp,%rax,4), %eax
	movl	-8(%rbp), %ecx
	cmpl	-480(%rbp,%rcx,4), %eax
	jg	.LBB37_31
# %bb.29:                               # %lor.lhs.false
                                        #   in Loop: Header=BB37_27 Depth=2
	movl	-4(%rbp), %eax
	movl	-480(%rbp,%rax,4), %eax
	movl	-8(%rbp), %ecx
	cmpl	-480(%rbp,%rcx,4), %eax
	jne	.LBB37_32
# %bb.30:                               # %land.lhs.true85
                                        #   in Loop: Header=BB37_27 Depth=2
	movl	-8(%rbp), %eax
	movl	-352(%rbp,%rax,4), %eax
	movl	-4(%rbp), %ecx
	cmpl	-352(%rbp,%rcx,4), %eax
	jle	.LBB37_32
.LBB37_31:                              # %if.then91
                                        #   in Loop: Header=BB37_27 Depth=2
	movl	-4(%rbp), %eax
	movl	-480(%rbp,%rax,4), %eax
	movl	%eax, -16(%rbp)
	movl	-8(%rbp), %eax
	movl	-480(%rbp,%rax,4), %eax
	movl	-4(%rbp), %ecx
	movl	%eax, -480(%rbp,%rcx,4)
	movl	-16(%rbp), %eax
	movl	-8(%rbp), %ecx
	movl	%eax, -480(%rbp,%rcx,4)
	movl	-4(%rbp), %eax
	movl	-224(%rbp,%rax,4), %eax
	movl	%eax, -16(%rbp)
	movl	-8(%rbp), %eax
	movl	-224(%rbp,%rax,4), %eax
	movl	-4(%rbp), %ecx
	movl	%eax, -224(%rbp,%rcx,4)
	movl	-16(%rbp), %eax
	movl	-8(%rbp), %ecx
	movl	%eax, -224(%rbp,%rcx,4)
	movl	-4(%rbp), %eax
	movl	-352(%rbp,%rax,4), %eax
	movl	%eax, -16(%rbp)
	movl	-8(%rbp), %eax
	movl	-352(%rbp,%rax,4), %eax
	movl	-4(%rbp), %ecx
	movl	%eax, -352(%rbp,%rcx,4)
	movl	-16(%rbp), %eax
	movl	-8(%rbp), %ecx
	movl	%eax, -352(%rbp,%rcx,4)
.LBB37_32:                              # %if.end116
                                        #   in Loop: Header=BB37_27 Depth=2
	jmp	.LBB37_33
.LBB37_33:                              # %for.inc117
                                        #   in Loop: Header=BB37_27 Depth=2
	movl	-8(%rbp), %eax
	addl	$1, %eax
	movl	%eax, -8(%rbp)
	jmp	.LBB37_27
.LBB37_34:                              # %for.end119
                                        #   in Loop: Header=BB37_25 Depth=1
	jmp	.LBB37_35
.LBB37_35:                              # %for.inc120
                                        #   in Loop: Header=BB37_25 Depth=1
	movl	-4(%rbp), %eax
	addl	$1, %eax
	movl	%eax, -4(%rbp)
	jmp	.LBB37_25
.LBB37_36:                              # %for.end122
	movl	$1, -32(%rbp)
	movl	$0, -4(%rbp)
.LBB37_37:                              # %for.cond123
                                        # =>This Inner Loop Header: Depth=1
	movl	-4(%rbp), %eax
	cmpl	-12(%rbp), %eax
	jae	.LBB37_42
# %bb.38:                               # %for.body125
                                        #   in Loop: Header=BB37_37 Depth=1
	movl	-4(%rbp), %eax
	movl	-608(%rbp,%rax,4), %eax
	movl	-4(%rbp), %ecx
	cmpl	-224(%rbp,%rcx,4), %eax
	je	.LBB37_40
# %bb.39:                               # %if.then131
                                        #   in Loop: Header=BB37_37 Depth=1
	movl	$0, -32(%rbp)
.LBB37_40:                              # %if.end132
                                        #   in Loop: Header=BB37_37 Depth=1
	jmp	.LBB37_41
.LBB37_41:                              # %for.inc133
                                        #   in Loop: Header=BB37_37 Depth=1
	movl	-4(%rbp), %eax
	addl	$1, %eax
	movl	%eax, -4(%rbp)
	jmp	.LBB37_37
.LBB37_42:                              # %for.end135
	cmpl	$0, -32(%rbp)
	jne	.LBB37_80
# %bb.43:                               # %if.then137
	movl	$0, -4(%rbp)
.LBB37_44:                              # %for.cond138
                                        # =>This Loop Header: Depth=1
                                        #     Child Loop BB37_51 Depth 2
                                        #     Child Loop BB37_57 Depth 2
                                        #     Child Loop BB37_66 Depth 2
	movl	-4(%rbp), %eax
	cmpl	-12(%rbp), %eax
	jae	.LBB37_71
# %bb.45:                               # %for.body140
                                        #   in Loop: Header=BB37_44 Depth=1
	movl	-4(%rbp), %eax
	movl	-224(%rbp,%rax,4), %eax
	subl	-36(%rbp), %eax
	movl	%eax, -20(%rbp)
	cmpl	$0, -20(%rbp)
	jg	.LBB37_49
# %bb.46:                               # %if.then145
                                        #   in Loop: Header=BB37_44 Depth=1
	movq	-64(%rbp), %rax
	movl	-4(%rbp), %ecx
	movl	$0, (%rax,%rcx,4)
	movl	-20(%rbp), %edi
	callq	abs
	subl	$1, %eax
	movq	-56(%rbp), %rcx
	movl	-4(%rbp), %edx
	movl	%eax, (%rcx,%rdx,4)
	movq	-56(%rbp), %rax
	movl	-4(%rbp), %ecx
	cmpl	$0, (%rax,%rcx,4)
	jge	.LBB37_48
# %bb.47:                               # %if.then155
                                        #   in Loop: Header=BB37_44 Depth=1
	movl	-28(%rbp), %eax
	subl	$1, %eax
	movq	-56(%rbp), %rcx
	movl	-4(%rbp), %edx
	movl	%eax, (%rcx,%rdx,4)
.LBB37_48:                              # %if.end159
                                        #   in Loop: Header=BB37_44 Depth=1
	jmp	.LBB37_50
.LBB37_49:                              # %if.else160
                                        #   in Loop: Header=BB37_44 Depth=1
	movq	-64(%rbp), %rax
	movl	-4(%rbp), %ecx
	movl	$1, (%rax,%rcx,4)
	movl	-20(%rbp), %edi
	callq	abs
	subl	$1, %eax
	movq	-56(%rbp), %rcx
	movl	-4(%rbp), %edx
	movl	%eax, (%rcx,%rdx,4)
.LBB37_50:                              # %if.end167
                                        #   in Loop: Header=BB37_44 Depth=1
	movl	-4(%rbp), %eax
	movl	-224(%rbp,%rax,4), %eax
	movl	%eax, -36(%rbp)
	movl	-4(%rbp), %eax
	movl	-224(%rbp,%rax,4), %eax
	movl	-4(%rbp), %ecx
	movl	%eax, -736(%rbp,%rcx,4)
	movl	-4(%rbp), %eax
	movl	%eax, -24(%rbp)
	movl	-4(%rbp), %eax
	movl	%eax, -8(%rbp)
.LBB37_51:                              # %for.cond174
                                        #   Parent Loop BB37_44 Depth=1
                                        # =>  This Inner Loop Header: Depth=2
	movl	-8(%rbp), %eax
	cmpl	-12(%rbp), %eax
	jae	.LBB37_56
# %bb.52:                               # %for.body176
                                        #   in Loop: Header=BB37_51 Depth=2
	movl	-8(%rbp), %eax
	movl	-608(%rbp,%rax,4), %eax
	movl	-4(%rbp), %ecx
	cmpl	-224(%rbp,%rcx,4), %eax
	je	.LBB37_54
# %bb.53:                               # %if.then182
                                        #   in Loop: Header=BB37_51 Depth=2
	movl	-24(%rbp), %eax
	addl	$1, %eax
	movl	%eax, -24(%rbp)
	movl	-8(%rbp), %eax
	movl	-608(%rbp,%rax,4), %eax
	movl	-24(%rbp), %ecx
	movl	%eax, -736(%rbp,%rcx,4)
.LBB37_54:                              # %if.end188
                                        #   in Loop: Header=BB37_51 Depth=2
	jmp	.LBB37_55
.LBB37_55:                              # %for.inc189
                                        #   in Loop: Header=BB37_51 Depth=2
	movl	-8(%rbp), %eax
	addl	$1, %eax
	movl	%eax, -8(%rbp)
	jmp	.LBB37_51
.LBB37_56:                              # %for.end191
                                        #   in Loop: Header=BB37_44 Depth=1
	movl	$1, -40(%rbp)
	movl	-4(%rbp), %eax
	addl	$1, %eax
	movl	%eax, -8(%rbp)
.LBB37_57:                              # %for.cond193
                                        #   Parent Loop BB37_44 Depth=1
                                        # =>  This Inner Loop Header: Depth=2
	movl	-8(%rbp), %eax
	cmpl	-12(%rbp), %eax
	jae	.LBB37_62
# %bb.58:                               # %for.body195
                                        #   in Loop: Header=BB37_57 Depth=2
	movl	-8(%rbp), %eax
	movl	-736(%rbp,%rax,4), %eax
	movl	-8(%rbp), %ecx
	cmpl	-224(%rbp,%rcx,4), %eax
	je	.LBB37_60
# %bb.59:                               # %if.then201
                                        #   in Loop: Header=BB37_44 Depth=1
	movl	$0, -40(%rbp)
	jmp	.LBB37_63
.LBB37_60:                              # %if.end202
                                        #   in Loop: Header=BB37_57 Depth=2
	jmp	.LBB37_61
.LBB37_61:                              # %for.inc203
                                        #   in Loop: Header=BB37_57 Depth=2
	movl	-8(%rbp), %eax
	addl	$1, %eax
	movl	%eax, -8(%rbp)
	jmp	.LBB37_57
.LBB37_62:                              # %for.end205.loopexit
                                        #   in Loop: Header=BB37_44 Depth=1
	jmp	.LBB37_63
.LBB37_63:                              # %for.end205
                                        #   in Loop: Header=BB37_44 Depth=1
	cmpl	$1, -40(%rbp)
	jne	.LBB37_65
# %bb.64:                               # %if.then207
	movl	-4(%rbp), %eax
	addl	$1, %eax
	movl	%eax, -4(%rbp)
	jmp	.LBB37_72
.LBB37_65:                              # %if.end209
                                        #   in Loop: Header=BB37_44 Depth=1
	movl	$0, -8(%rbp)
.LBB37_66:                              # %for.cond210
                                        #   Parent Loop BB37_44 Depth=1
                                        # =>  This Inner Loop Header: Depth=2
	movl	-8(%rbp), %eax
	cmpl	-12(%rbp), %eax
	jae	.LBB37_69
# %bb.67:                               # %for.body212
                                        #   in Loop: Header=BB37_66 Depth=2
	movl	-8(%rbp), %eax
	movl	-736(%rbp,%rax,4), %eax
	movl	-8(%rbp), %ecx
	movl	%eax, -608(%rbp,%rcx,4)
# %bb.68:                               # %for.inc217
                                        #   in Loop: Header=BB37_66 Depth=2
	movl	-8(%rbp), %eax
	addl	$1, %eax
	movl	%eax, -8(%rbp)
	jmp	.LBB37_66
.LBB37_69:                              # %for.end219
                                        #   in Loop: Header=BB37_44 Depth=1
	jmp	.LBB37_70
.LBB37_70:                              # %for.inc220
                                        #   in Loop: Header=BB37_44 Depth=1
	movl	-4(%rbp), %eax
	addl	$1, %eax
	movl	%eax, -4(%rbp)
	jmp	.LBB37_44
.LBB37_71:                              # %for.end222.loopexit
	jmp	.LBB37_72
.LBB37_72:                              # %for.end222
	movq	-64(%rbp), %rax
	movl	-4(%rbp), %ecx
	movl	$3, (%rax,%rcx,4)
	movl	$0, -8(%rbp)
.LBB37_73:                              # %for.cond225
                                        # =>This Inner Loop Header: Depth=1
	movl	-8(%rbp), %eax
	cmpl	-12(%rbp), %eax
	jae	.LBB37_76
# %bb.74:                               # %for.body227
                                        #   in Loop: Header=BB37_73 Depth=1
	movl	-8(%rbp), %eax
	movl	-736(%rbp,%rax,4), %eax
	movl	-8(%rbp), %ecx
	movl	%eax, -608(%rbp,%rcx,4)
# %bb.75:                               # %for.inc232
                                        #   in Loop: Header=BB37_73 Depth=1
	movl	-8(%rbp), %eax
	addl	$1, %eax
	movl	%eax, -8(%rbp)
	jmp	.LBB37_73
.LBB37_76:                              # %for.end234
	cmpl	$0, 16(%rbp)
	jne	.LBB37_78
# %bb.77:                               # %if.then236
	movq	img, %rax
	movq	14160(%rax), %rax
	movl	$1, 56(%rax)
	jmp	.LBB37_79
.LBB37_78:                              # %if.else237
	movq	img, %rax
	movq	14160(%rax), %rax
	movl	$1, 88(%rax)
.LBB37_79:                              # %if.end239
	jmp	.LBB37_80
.LBB37_80:                              # %if.end240
	cmpl	$387060498, -72(%rbp)   # imm = 0x17121312
	jne	.LBB37_82
.LBB37_81:
	addq	$736, %rsp              # imm = 0x2E0
	popq	%rbp
	.cfi_def_cfa %rsp, 8
	retq
.LBB37_82:                              # %func_exit
	.cfi_def_cfa %rbp, 16
	callq	detect_breach
	jmp	.LBB37_81
.Lfunc_end37:
	.size	poc_ref_pic_reorder.27, .Lfunc_end37-poc_ref_pic_reorder.27
	.cfi_endproc
                                        # -- End function
	.globl	terminate_slice.28      # -- Begin function terminate_slice.28
	.p2align	4, 0x90
	.type	terminate_slice.28,@function
terminate_slice.28:                     # @terminate_slice.28
	.cfi_startproc
# %bb.0:                                # %entry
	pushq	%rbp
	.cfi_def_cfa_offset 16
	.cfi_offset %rbp, -16
	movq	%rsp, %rbp
	.cfi_def_cfa_register %rbp
	subq	$48, %rsp
	movl	$171085904, -36(%rbp)   # imm = 0xA329050
	movq	img, %rax
	movq	14160(%rax), %rax
	movq	%rax, -24(%rbp)
	movq	input, %rax
	cmpl	$1, 2356(%rax)
	jne	.LBB38_2
# %bb.1:                                # %if.then
	movl	$1, %edi
	callq	write_terminating_bit
.LBB38_2:                               # %if.end
	movl	$0, -12(%rbp)
.LBB38_3:                               # %for.cond
                                        # =>This Inner Loop Header: Depth=1
	movl	-12(%rbp), %eax
	movq	-24(%rbp), %rcx
	cmpl	16(%rcx), %eax
	jge	.LBB38_9
# %bb.4:                                # %for.body
                                        #   in Loop: Header=BB38_3 Depth=1
	movq	-24(%rbp), %rax
	movq	24(%rax), %rax
	movslq	-12(%rbp), %rcx
	imulq	$120, %rcx, %rcx
	addq	%rcx, %rax
	movq	(%rax), %rax
	movq	%rax, -8(%rbp)
	movq	input, %rax
	cmpl	$0, 2356(%rax)
	jne	.LBB38_6
# %bb.5:                                # %if.then4
                                        #   in Loop: Header=BB38_3 Depth=1
	movq	-8(%rbp), %rdi
	callq	SODBtoRBSP
	movq	-8(%rbp), %rax
	movl	(%rax), %eax
	movl	%eax, -16(%rbp)
	movq	-8(%rbp), %rax
	movq	32(%rax), %rdi
	movq	-8(%rbp), %rax
	movl	(%rax), %edx
	xorl	%esi, %esi
	xorl	%ecx, %ecx
	callq	RBSPtoEBSP
	movq	-8(%rbp), %rcx
	movl	%eax, (%rcx)
	movq	-8(%rbp), %rax
	movl	(%rax), %eax
	subl	-16(%rbp), %eax
	shll	$3, %eax
	movq	stats, %rcx
	movq	1480(%rcx), %rcx
	addl	(%rcx), %eax
	movl	%eax, (%rcx)
	jmp	.LBB38_7
.LBB38_6:                               # %if.else
                                        #   in Loop: Header=BB38_3 Depth=1
	movq	-24(%rbp), %rax
	movq	24(%rax), %rax
	movslq	-12(%rbp), %rcx
	imulq	$120, %rcx, %rcx
	addq	%rcx, %rax
	addq	$8, %rax
	movq	%rax, -32(%rbp)
	movq	-32(%rbp), %rdi
	callq	arienco_done_encoding
	movq	-32(%rbp), %rax
	movl	12(%rax), %eax
	movq	-8(%rbp), %rcx
	movl	%eax, 4(%rcx)
	movq	-8(%rbp), %rax
	movb	$0, 8(%rax)
	movq	-8(%rbp), %rax
	movl	(%rax), %eax
	movl	%eax, -40(%rbp)
	movq	-8(%rbp), %rax
	movl	(%rax), %eax
	movl	%eax, -16(%rbp)
	movq	-8(%rbp), %rax
	movq	32(%rax), %rdi
	movq	-8(%rbp), %rax
	movl	(%rax), %edx
	movq	-32(%rbp), %rax
	movl	88(%rax), %ecx
	xorl	%esi, %esi
	callq	RBSPtoEBSP
	movq	-8(%rbp), %rcx
	movl	%eax, (%rcx)
	movq	-8(%rbp), %rax
	movl	(%rax), %eax
	subl	-16(%rbp), %eax
	shll	$3, %eax
	movq	stats, %rcx
	movq	1480(%rcx), %rcx
	addl	(%rcx), %eax
	movl	%eax, (%rcx)
.LBB38_7:                               # %if.end22
                                        #   in Loop: Header=BB38_3 Depth=1
	jmp	.LBB38_8
.LBB38_8:                               # %for.inc
                                        #   in Loop: Header=BB38_3 Depth=1
	movl	-12(%rbp), %eax
	addl	$1, %eax
	movl	%eax, -12(%rbp)
	jmp	.LBB38_3
.LBB38_9:                               # %for.end
	movq	input, %rax
	cmpl	$1, 2356(%rax)
	jne	.LBB38_11
# %bb.10:                               # %if.then25
	movb	$0, %al
	callq	store_contexts
.LBB38_11:                              # %if.end26
	cmpl	$171085904, -36(%rbp)   # imm = 0xA329050
	jne	.LBB38_13
.LBB38_12:
	xorl	%eax, %eax
	addq	$48, %rsp
	popq	%rbp
	.cfi_def_cfa %rsp, 8
	retq
.LBB38_13:                              # %func_exit
	.cfi_def_cfa %rbp, 16
	callq	detect_breach
	jmp	.LBB38_12
.Lfunc_end38:
	.size	terminate_slice.28, .Lfunc_end38-terminate_slice.28
	.cfi_endproc
                                        # -- End function
	.globl	poc_ref_pic_reorder.29  # -- Begin function poc_ref_pic_reorder.29
	.p2align	4, 0x90
	.type	poc_ref_pic_reorder.29,@function
poc_ref_pic_reorder.29:                 # @poc_ref_pic_reorder.29
	.cfi_startproc
# %bb.0:                                # %entry
	pushq	%rbp
	.cfi_def_cfa_offset 16
	.cfi_offset %rbp, -16
	movq	%rsp, %rbp
	.cfi_def_cfa_register %rbp
	subq	$736, %rsp              # imm = 0x2E0
	movl	16(%rbp), %eax
	movl	$236731046, -68(%rbp)   # imm = 0xE1C3AA6
	movq	%rdi, -80(%rbp)
	movl	%esi, -12(%rbp)
	movq	%rdx, -64(%rbp)
	movq	%rcx, -56(%rbp)
	movq	%r8, -96(%rbp)
	movl	%r9d, -84(%rbp)
	movl	log2_max_frame_num_minus4, %ecx
	addl	$4, %ecx
                                        # kill: def $cl killed $ecx
	movl	$1, %eax
	shll	%cl, %eax
	movl	%eax, -28(%rbp)
	movq	img, %rax
	cmpl	$0, 28(%rax)
	jne	.LBB39_2
# %bb.1:                                # %if.then
	movl	-28(%rbp), %eax
	movl	%eax, -44(%rbp)
	movq	img, %rax
	movl	72464(%rax), %eax
	movl	%eax, -36(%rbp)
	jmp	.LBB39_3
.LBB39_2:                               # %if.else
	movl	-28(%rbp), %eax
	shll	$1, %eax
	movl	%eax, -44(%rbp)
	movq	img, %rax
	movl	72464(%rax), %eax
	shll	$1, %eax
	addl	$1, %eax
	movl	%eax, -36(%rbp)
.LBB39_3:                               # %if.end
	movl	-36(%rbp), %eax
	movl	%eax, -48(%rbp)
	movl	$0, -4(%rbp)
.LBB39_4:                               # %for.cond
                                        # =>This Inner Loop Header: Depth=1
	movl	-4(%rbp), %eax
	cmpl	-12(%rbp), %eax
	jae	.LBB39_7
# %bb.5:                                # %for.body
                                        #   in Loop: Header=BB39_4 Depth=1
	movq	-80(%rbp), %rax
	movl	-4(%rbp), %ecx
	movq	(%rax,%rcx,8), %rax
	movl	6364(%rax), %eax
	movl	-4(%rbp), %ecx
	movl	%eax, -608(%rbp,%rcx,4)
# %bb.6:                                # %for.inc
                                        #   in Loop: Header=BB39_4 Depth=1
	movl	-4(%rbp), %eax
	addl	$1, %eax
	movl	%eax, -4(%rbp)
	jmp	.LBB39_4
.LBB39_7:                               # %for.end
	movl	$0, -4(%rbp)
.LBB39_8:                               # %for.cond7
                                        # =>This Inner Loop Header: Depth=1
	movl	-4(%rbp), %eax
	cmpl	dpb+32, %eax
	jae	.LBB39_24
# %bb.9:                                # %for.body9
                                        #   in Loop: Header=BB39_8 Depth=1
	movq	dpb+8, %rax
	movl	-4(%rbp), %ecx
	movq	(%rax,%rcx,8), %rax
	movq	40(%rax), %rax
	movl	6364(%rax), %eax
	movl	-4(%rbp), %ecx
	movl	%eax, -224(%rbp,%rcx,4)
	movq	dpb+8, %rax
	movl	-4(%rbp), %ecx
	movq	(%rax,%rcx,8), %rax
	cmpl	$3, (%rax)
	jne	.LBB39_22
# %bb.10:                               # %land.lhs.true
                                        #   in Loop: Header=BB39_8 Depth=1
	movq	dpb+8, %rax
	movl	-4(%rbp), %ecx
	movq	(%rax,%rcx,8), %rax
	movq	40(%rax), %rax
	cmpl	$0, 6380(%rax)
	je	.LBB39_22
# %bb.11:                               # %land.lhs.true21
                                        #   in Loop: Header=BB39_8 Depth=1
	movq	dpb+8, %rax
	movl	-4(%rbp), %ecx
	movq	(%rax,%rcx,8), %rax
	movq	40(%rax), %rax
	cmpl	$0, 6376(%rax)
	jne	.LBB39_22
# %bb.12:                               # %if.then26
                                        #   in Loop: Header=BB39_8 Depth=1
	movq	dpb+8, %rax
	movl	-4(%rbp), %ecx
	movq	(%rax,%rcx,8), %rax
	movq	40(%rax), %rax
	movl	4(%rax), %edi
	movq	enc_picture, %rax
	subl	4(%rax), %edi
	callq	abs
	movl	%eax, -72(%rbp)
	movl	-72(%rbp), %eax
	movl	-4(%rbp), %ecx
	movl	%eax, -480(%rbp,%rcx,4)
	cmpl	$0, 16(%rbp)
	jne	.LBB39_17
# %bb.13:                               # %if.then34
                                        #   in Loop: Header=BB39_8 Depth=1
	movq	enc_picture, %rax
	movl	4(%rax), %eax
	movq	dpb+8, %rcx
	movl	-4(%rbp), %edx
	movq	(%rcx,%rdx,8), %rcx
	movq	40(%rcx), %rcx
	cmpl	4(%rcx), %eax
	jge	.LBB39_15
# %bb.14:                               # %if.then41
                                        #   in Loop: Header=BB39_8 Depth=1
	movl	-4(%rbp), %eax
	movl	$1, -352(%rbp,%rax,4)
	jmp	.LBB39_16
.LBB39_15:                              # %if.else44
                                        #   in Loop: Header=BB39_8 Depth=1
	movl	-4(%rbp), %eax
	movl	$-1, -352(%rbp,%rax,4)
.LBB39_16:                              # %if.end47
                                        #   in Loop: Header=BB39_8 Depth=1
	jmp	.LBB39_21
.LBB39_17:                              # %if.else48
                                        #   in Loop: Header=BB39_8 Depth=1
	movq	enc_picture, %rax
	movl	4(%rax), %eax
	movq	dpb+8, %rcx
	movl	-4(%rbp), %edx
	movq	(%rcx,%rdx,8), %rcx
	movq	40(%rcx), %rcx
	cmpl	4(%rcx), %eax
	jle	.LBB39_19
# %bb.18:                               # %if.then55
                                        #   in Loop: Header=BB39_8 Depth=1
	movl	-4(%rbp), %eax
	movl	$1, -352(%rbp,%rax,4)
	jmp	.LBB39_20
.LBB39_19:                              # %if.else58
                                        #   in Loop: Header=BB39_8 Depth=1
	movl	-4(%rbp), %eax
	movl	$-1, -352(%rbp,%rax,4)
.LBB39_20:                              # %if.end61
                                        #   in Loop: Header=BB39_8 Depth=1
	jmp	.LBB39_21
.LBB39_21:                              # %if.end62
                                        #   in Loop: Header=BB39_8 Depth=1
	jmp	.LBB39_22
.LBB39_22:                              # %if.end63
                                        #   in Loop: Header=BB39_8 Depth=1
	jmp	.LBB39_23
.LBB39_23:                              # %for.inc64
                                        #   in Loop: Header=BB39_8 Depth=1
	movl	-4(%rbp), %eax
	addl	$1, %eax
	movl	%eax, -4(%rbp)
	jmp	.LBB39_8
.LBB39_24:                              # %for.end66
	movl	$0, -4(%rbp)
.LBB39_25:                              # %for.cond67
                                        # =>This Loop Header: Depth=1
                                        #     Child Loop BB39_27 Depth 2
	movl	-4(%rbp), %eax
	movl	dpb+32, %ecx
	subl	$1, %ecx
	cmpl	%ecx, %eax
	jae	.LBB39_36
# %bb.26:                               # %for.body70
                                        #   in Loop: Header=BB39_25 Depth=1
	movl	-4(%rbp), %eax
	addl	$1, %eax
	movl	%eax, -8(%rbp)
.LBB39_27:                              # %for.cond72
                                        #   Parent Loop BB39_25 Depth=1
                                        # =>  This Inner Loop Header: Depth=2
	movl	-8(%rbp), %eax
	cmpl	dpb+32, %eax
	jae	.LBB39_34
# %bb.28:                               # %for.body74
                                        #   in Loop: Header=BB39_27 Depth=2
	movl	-4(%rbp), %eax
	movl	-480(%rbp,%rax,4), %eax
	movl	-8(%rbp), %ecx
	cmpl	-480(%rbp,%rcx,4), %eax
	jg	.LBB39_31
# %bb.29:                               # %lor.lhs.false
                                        #   in Loop: Header=BB39_27 Depth=2
	movl	-4(%rbp), %eax
	movl	-480(%rbp,%rax,4), %eax
	movl	-8(%rbp), %ecx
	cmpl	-480(%rbp,%rcx,4), %eax
	jne	.LBB39_32
# %bb.30:                               # %land.lhs.true85
                                        #   in Loop: Header=BB39_27 Depth=2
	movl	-8(%rbp), %eax
	movl	-352(%rbp,%rax,4), %eax
	movl	-4(%rbp), %ecx
	cmpl	-352(%rbp,%rcx,4), %eax
	jle	.LBB39_32
.LBB39_31:                              # %if.then91
                                        #   in Loop: Header=BB39_27 Depth=2
	movl	-4(%rbp), %eax
	movl	-480(%rbp,%rax,4), %eax
	movl	%eax, -16(%rbp)
	movl	-8(%rbp), %eax
	movl	-480(%rbp,%rax,4), %eax
	movl	-4(%rbp), %ecx
	movl	%eax, -480(%rbp,%rcx,4)
	movl	-16(%rbp), %eax
	movl	-8(%rbp), %ecx
	movl	%eax, -480(%rbp,%rcx,4)
	movl	-4(%rbp), %eax
	movl	-224(%rbp,%rax,4), %eax
	movl	%eax, -16(%rbp)
	movl	-8(%rbp), %eax
	movl	-224(%rbp,%rax,4), %eax
	movl	-4(%rbp), %ecx
	movl	%eax, -224(%rbp,%rcx,4)
	movl	-16(%rbp), %eax
	movl	-8(%rbp), %ecx
	movl	%eax, -224(%rbp,%rcx,4)
	movl	-4(%rbp), %eax
	movl	-352(%rbp,%rax,4), %eax
	movl	%eax, -16(%rbp)
	movl	-8(%rbp), %eax
	movl	-352(%rbp,%rax,4), %eax
	movl	-4(%rbp), %ecx
	movl	%eax, -352(%rbp,%rcx,4)
	movl	-16(%rbp), %eax
	movl	-8(%rbp), %ecx
	movl	%eax, -352(%rbp,%rcx,4)
.LBB39_32:                              # %if.end116
                                        #   in Loop: Header=BB39_27 Depth=2
	jmp	.LBB39_33
.LBB39_33:                              # %for.inc117
                                        #   in Loop: Header=BB39_27 Depth=2
	movl	-8(%rbp), %eax
	addl	$1, %eax
	movl	%eax, -8(%rbp)
	jmp	.LBB39_27
.LBB39_34:                              # %for.end119
                                        #   in Loop: Header=BB39_25 Depth=1
	jmp	.LBB39_35
.LBB39_35:                              # %for.inc120
                                        #   in Loop: Header=BB39_25 Depth=1
	movl	-4(%rbp), %eax
	addl	$1, %eax
	movl	%eax, -4(%rbp)
	jmp	.LBB39_25
.LBB39_36:                              # %for.end122
	movl	$1, -32(%rbp)
	movl	$0, -4(%rbp)
.LBB39_37:                              # %for.cond123
                                        # =>This Inner Loop Header: Depth=1
	movl	-4(%rbp), %eax
	cmpl	-12(%rbp), %eax
	jae	.LBB39_42
# %bb.38:                               # %for.body125
                                        #   in Loop: Header=BB39_37 Depth=1
	movl	-4(%rbp), %eax
	movl	-608(%rbp,%rax,4), %eax
	movl	-4(%rbp), %ecx
	cmpl	-224(%rbp,%rcx,4), %eax
	je	.LBB39_40
# %bb.39:                               # %if.then131
                                        #   in Loop: Header=BB39_37 Depth=1
	movl	$0, -32(%rbp)
.LBB39_40:                              # %if.end132
                                        #   in Loop: Header=BB39_37 Depth=1
	jmp	.LBB39_41
.LBB39_41:                              # %for.inc133
                                        #   in Loop: Header=BB39_37 Depth=1
	movl	-4(%rbp), %eax
	addl	$1, %eax
	movl	%eax, -4(%rbp)
	jmp	.LBB39_37
.LBB39_42:                              # %for.end135
	cmpl	$0, -32(%rbp)
	jne	.LBB39_80
# %bb.43:                               # %if.then137
	movl	$0, -4(%rbp)
.LBB39_44:                              # %for.cond138
                                        # =>This Loop Header: Depth=1
                                        #     Child Loop BB39_51 Depth 2
                                        #     Child Loop BB39_57 Depth 2
                                        #     Child Loop BB39_66 Depth 2
	movl	-4(%rbp), %eax
	cmpl	-12(%rbp), %eax
	jae	.LBB39_71
# %bb.45:                               # %for.body140
                                        #   in Loop: Header=BB39_44 Depth=1
	movl	-4(%rbp), %eax
	movl	-224(%rbp,%rax,4), %eax
	subl	-48(%rbp), %eax
	movl	%eax, -20(%rbp)
	cmpl	$0, -20(%rbp)
	jg	.LBB39_49
# %bb.46:                               # %if.then145
                                        #   in Loop: Header=BB39_44 Depth=1
	movq	-64(%rbp), %rax
	movl	-4(%rbp), %ecx
	movl	$0, (%rax,%rcx,4)
	movl	-20(%rbp), %edi
	callq	abs
	subl	$1, %eax
	movq	-56(%rbp), %rcx
	movl	-4(%rbp), %edx
	movl	%eax, (%rcx,%rdx,4)
	movq	-56(%rbp), %rax
	movl	-4(%rbp), %ecx
	cmpl	$0, (%rax,%rcx,4)
	jge	.LBB39_48
# %bb.47:                               # %if.then155
                                        #   in Loop: Header=BB39_44 Depth=1
	movl	-44(%rbp), %eax
	subl	$1, %eax
	movq	-56(%rbp), %rcx
	movl	-4(%rbp), %edx
	movl	%eax, (%rcx,%rdx,4)
.LBB39_48:                              # %if.end159
                                        #   in Loop: Header=BB39_44 Depth=1
	jmp	.LBB39_50
.LBB39_49:                              # %if.else160
                                        #   in Loop: Header=BB39_44 Depth=1
	movq	-64(%rbp), %rax
	movl	-4(%rbp), %ecx
	movl	$1, (%rax,%rcx,4)
	movl	-20(%rbp), %edi
	callq	abs
	subl	$1, %eax
	movq	-56(%rbp), %rcx
	movl	-4(%rbp), %edx
	movl	%eax, (%rcx,%rdx,4)
.LBB39_50:                              # %if.end167
                                        #   in Loop: Header=BB39_44 Depth=1
	movl	-4(%rbp), %eax
	movl	-224(%rbp,%rax,4), %eax
	movl	%eax, -48(%rbp)
	movl	-4(%rbp), %eax
	movl	-224(%rbp,%rax,4), %eax
	movl	-4(%rbp), %ecx
	movl	%eax, -736(%rbp,%rcx,4)
	movl	-4(%rbp), %eax
	movl	%eax, -24(%rbp)
	movl	-4(%rbp), %eax
	movl	%eax, -8(%rbp)
.LBB39_51:                              # %for.cond174
                                        #   Parent Loop BB39_44 Depth=1
                                        # =>  This Inner Loop Header: Depth=2
	movl	-8(%rbp), %eax
	cmpl	-12(%rbp), %eax
	jae	.LBB39_56
# %bb.52:                               # %for.body176
                                        #   in Loop: Header=BB39_51 Depth=2
	movl	-8(%rbp), %eax
	movl	-608(%rbp,%rax,4), %eax
	movl	-4(%rbp), %ecx
	cmpl	-224(%rbp,%rcx,4), %eax
	je	.LBB39_54
# %bb.53:                               # %if.then182
                                        #   in Loop: Header=BB39_51 Depth=2
	movl	-24(%rbp), %eax
	addl	$1, %eax
	movl	%eax, -24(%rbp)
	movl	-8(%rbp), %eax
	movl	-608(%rbp,%rax,4), %eax
	movl	-24(%rbp), %ecx
	movl	%eax, -736(%rbp,%rcx,4)
.LBB39_54:                              # %if.end188
                                        #   in Loop: Header=BB39_51 Depth=2
	jmp	.LBB39_55
.LBB39_55:                              # %for.inc189
                                        #   in Loop: Header=BB39_51 Depth=2
	movl	-8(%rbp), %eax
	addl	$1, %eax
	movl	%eax, -8(%rbp)
	jmp	.LBB39_51
.LBB39_56:                              # %for.end191
                                        #   in Loop: Header=BB39_44 Depth=1
	movl	$1, -40(%rbp)
	movl	-4(%rbp), %eax
	addl	$1, %eax
	movl	%eax, -8(%rbp)
.LBB39_57:                              # %for.cond193
                                        #   Parent Loop BB39_44 Depth=1
                                        # =>  This Inner Loop Header: Depth=2
	movl	-8(%rbp), %eax
	cmpl	-12(%rbp), %eax
	jae	.LBB39_62
# %bb.58:                               # %for.body195
                                        #   in Loop: Header=BB39_57 Depth=2
	movl	-8(%rbp), %eax
	movl	-736(%rbp,%rax,4), %eax
	movl	-8(%rbp), %ecx
	cmpl	-224(%rbp,%rcx,4), %eax
	je	.LBB39_60
# %bb.59:                               # %if.then201
                                        #   in Loop: Header=BB39_44 Depth=1
	movl	$0, -40(%rbp)
	jmp	.LBB39_63
.LBB39_60:                              # %if.end202
                                        #   in Loop: Header=BB39_57 Depth=2
	jmp	.LBB39_61
.LBB39_61:                              # %for.inc203
                                        #   in Loop: Header=BB39_57 Depth=2
	movl	-8(%rbp), %eax
	addl	$1, %eax
	movl	%eax, -8(%rbp)
	jmp	.LBB39_57
.LBB39_62:                              # %for.end205.loopexit
                                        #   in Loop: Header=BB39_44 Depth=1
	jmp	.LBB39_63
.LBB39_63:                              # %for.end205
                                        #   in Loop: Header=BB39_44 Depth=1
	cmpl	$1, -40(%rbp)
	jne	.LBB39_65
# %bb.64:                               # %if.then207
	movl	-4(%rbp), %eax
	addl	$1, %eax
	movl	%eax, -4(%rbp)
	jmp	.LBB39_72
.LBB39_65:                              # %if.end209
                                        #   in Loop: Header=BB39_44 Depth=1
	movl	$0, -8(%rbp)
.LBB39_66:                              # %for.cond210
                                        #   Parent Loop BB39_44 Depth=1
                                        # =>  This Inner Loop Header: Depth=2
	movl	-8(%rbp), %eax
	cmpl	-12(%rbp), %eax
	jae	.LBB39_69
# %bb.67:                               # %for.body212
                                        #   in Loop: Header=BB39_66 Depth=2
	movl	-8(%rbp), %eax
	movl	-736(%rbp,%rax,4), %eax
	movl	-8(%rbp), %ecx
	movl	%eax, -608(%rbp,%rcx,4)
# %bb.68:                               # %for.inc217
                                        #   in Loop: Header=BB39_66 Depth=2
	movl	-8(%rbp), %eax
	addl	$1, %eax
	movl	%eax, -8(%rbp)
	jmp	.LBB39_66
.LBB39_69:                              # %for.end219
                                        #   in Loop: Header=BB39_44 Depth=1
	jmp	.LBB39_70
.LBB39_70:                              # %for.inc220
                                        #   in Loop: Header=BB39_44 Depth=1
	movl	-4(%rbp), %eax
	addl	$1, %eax
	movl	%eax, -4(%rbp)
	jmp	.LBB39_44
.LBB39_71:                              # %for.end222.loopexit
	jmp	.LBB39_72
.LBB39_72:                              # %for.end222
	movq	-64(%rbp), %rax
	movl	-4(%rbp), %ecx
	movl	$3, (%rax,%rcx,4)
	movl	$0, -8(%rbp)
.LBB39_73:                              # %for.cond225
                                        # =>This Inner Loop Header: Depth=1
	movl	-8(%rbp), %eax
	cmpl	-12(%rbp), %eax
	jae	.LBB39_76
# %bb.74:                               # %for.body227
                                        #   in Loop: Header=BB39_73 Depth=1
	movl	-8(%rbp), %eax
	movl	-736(%rbp,%rax,4), %eax
	movl	-8(%rbp), %ecx
	movl	%eax, -608(%rbp,%rcx,4)
# %bb.75:                               # %for.inc232
                                        #   in Loop: Header=BB39_73 Depth=1
	movl	-8(%rbp), %eax
	addl	$1, %eax
	movl	%eax, -8(%rbp)
	jmp	.LBB39_73
.LBB39_76:                              # %for.end234
	cmpl	$0, 16(%rbp)
	jne	.LBB39_78
# %bb.77:                               # %if.then236
	movq	img, %rax
	movq	14160(%rax), %rax
	movl	$1, 56(%rax)
	jmp	.LBB39_79
.LBB39_78:                              # %if.else237
	movq	img, %rax
	movq	14160(%rax), %rax
	movl	$1, 88(%rax)
.LBB39_79:                              # %if.end239
	jmp	.LBB39_80
.LBB39_80:                              # %if.end240
	cmpl	$236731046, -68(%rbp)   # imm = 0xE1C3AA6
	jne	.LBB39_82
.LBB39_81:
	addq	$736, %rsp              # imm = 0x2E0
	popq	%rbp
	.cfi_def_cfa %rsp, 8
	retq
.LBB39_82:                              # %func_exit
	.cfi_def_cfa %rbp, 16
	callq	detect_breach
	jmp	.LBB39_81
.Lfunc_end39:
	.size	poc_ref_pic_reorder.29, .Lfunc_end39-poc_ref_pic_reorder.29
	.cfi_endproc
                                        # -- End function
	.p2align	4, 0x90         # -- Begin function free_slice.30
	.type	free_slice.30,@function
free_slice.30:                          # @free_slice.30
	.cfi_startproc
# %bb.0:                                # %entry
	pushq	%rbp
	.cfi_def_cfa_offset 16
	.cfi_offset %rbp, -16
	movq	%rsp, %rbp
	.cfi_def_cfa_register %rbp
	subq	$32, %rsp
	movl	$1268718877, -28(%rbp)  # imm = 0x4B9F1D1D
	movq	%rdi, -16(%rbp)
	cmpq	$0, -16(%rbp)
	je	.LBB40_16
# %bb.1:                                # %if.then
	movl	$0, -4(%rbp)
.LBB40_2:                               # %for.cond
                                        # =>This Inner Loop Header: Depth=1
	movl	-4(%rbp), %eax
	movq	-16(%rbp), %rcx
	cmpl	16(%rcx), %eax
	jge	.LBB40_11
# %bb.3:                                # %for.body
                                        #   in Loop: Header=BB40_2 Depth=1
	movq	-16(%rbp), %rax
	movq	24(%rax), %rax
	movslq	-4(%rbp), %rcx
	imulq	$120, %rcx, %rcx
	addq	%rcx, %rax
	movq	%rax, -24(%rbp)
	cmpq	$0, -24(%rbp)
	je	.LBB40_9
# %bb.4:                                # %if.then3
                                        #   in Loop: Header=BB40_2 Depth=1
	movq	-24(%rbp), %rax
	movq	(%rax), %rax
	cmpq	$0, 32(%rax)
	je	.LBB40_6
# %bb.5:                                # %if.then5
                                        #   in Loop: Header=BB40_2 Depth=1
	movq	-24(%rbp), %rax
	movq	(%rax), %rax
	movq	32(%rax), %rdi
	callq	free
.LBB40_6:                               # %if.end
                                        #   in Loop: Header=BB40_2 Depth=1
	movq	-24(%rbp), %rax
	cmpq	$0, (%rax)
	je	.LBB40_8
# %bb.7:                                # %if.then10
                                        #   in Loop: Header=BB40_2 Depth=1
	movq	-24(%rbp), %rax
	movq	(%rax), %rdi
	callq	free
.LBB40_8:                               # %if.end12
                                        #   in Loop: Header=BB40_2 Depth=1
	jmp	.LBB40_9
.LBB40_9:                               # %if.end13
                                        #   in Loop: Header=BB40_2 Depth=1
	jmp	.LBB40_10
.LBB40_10:                              # %for.inc
                                        #   in Loop: Header=BB40_2 Depth=1
	movl	-4(%rbp), %eax
	addl	$1, %eax
	movl	%eax, -4(%rbp)
	jmp	.LBB40_2
.LBB40_11:                              # %for.end
	movq	-16(%rbp), %rax
	cmpq	$0, 24(%rax)
	je	.LBB40_13
# %bb.12:                               # %if.then16
	movq	-16(%rbp), %rax
	movq	24(%rax), %rdi
	callq	free
.LBB40_13:                              # %if.end18
	movq	input, %rax
	cmpl	$1, 2356(%rax)
	jne	.LBB40_15
# %bb.14:                               # %if.then20
	movq	-16(%rbp), %rax
	movq	32(%rax), %rdi
	callq	delete_contexts_MotionInfo
	movq	-16(%rbp), %rax
	movq	40(%rax), %rdi
	callq	delete_contexts_TextureInfo
.LBB40_15:                              # %if.end21
	movq	-16(%rbp), %rdi
	callq	free
.LBB40_16:                              # %if.end22
	cmpl	$1268718877, -28(%rbp)  # imm = 0x4B9F1D1D
	jne	.LBB40_18
.LBB40_17:
	addq	$32, %rsp
	popq	%rbp
	.cfi_def_cfa %rsp, 8
	retq
.LBB40_18:                              # %func_exit
	.cfi_def_cfa %rbp, 16
	callq	detect_breach
	jmp	.LBB40_17
.Lfunc_end40:
	.size	free_slice.30, .Lfunc_end40-free_slice.30
	.cfi_endproc
                                        # -- End function
	.globl	terminate_slice.31      # -- Begin function terminate_slice.31
	.p2align	4, 0x90
	.type	terminate_slice.31,@function
terminate_slice.31:                     # @terminate_slice.31
	.cfi_startproc
# %bb.0:                                # %entry
	pushq	%rbp
	.cfi_def_cfa_offset 16
	.cfi_offset %rbp, -16
	movq	%rsp, %rbp
	.cfi_def_cfa_register %rbp
	subq	$48, %rsp
	movl	$62084840, -36(%rbp)    # imm = 0x3B356E8
	movq	img, %rax
	movq	14160(%rax), %rax
	movq	%rax, -32(%rbp)
	movq	input, %rax
	cmpl	$1, 2356(%rax)
	jne	.LBB41_2
# %bb.1:                                # %if.then
	movl	$1, %edi
	callq	write_terminating_bit
.LBB41_2:                               # %if.end
	movl	$0, -12(%rbp)
.LBB41_3:                               # %for.cond
                                        # =>This Inner Loop Header: Depth=1
	movl	-12(%rbp), %eax
	movq	-32(%rbp), %rcx
	cmpl	16(%rcx), %eax
	jge	.LBB41_9
# %bb.4:                                # %for.body
                                        #   in Loop: Header=BB41_3 Depth=1
	movq	-32(%rbp), %rax
	movq	24(%rax), %rax
	movslq	-12(%rbp), %rcx
	imulq	$120, %rcx, %rcx
	addq	%rcx, %rax
	movq	(%rax), %rax
	movq	%rax, -8(%rbp)
	movq	input, %rax
	cmpl	$0, 2356(%rax)
	jne	.LBB41_6
# %bb.5:                                # %if.then4
                                        #   in Loop: Header=BB41_3 Depth=1
	movq	-8(%rbp), %rdi
	callq	SODBtoRBSP
	movq	-8(%rbp), %rax
	movl	(%rax), %eax
	movl	%eax, -16(%rbp)
	movq	-8(%rbp), %rax
	movq	32(%rax), %rdi
	movq	-8(%rbp), %rax
	movl	(%rax), %edx
	xorl	%esi, %esi
	xorl	%ecx, %ecx
	callq	RBSPtoEBSP
	movq	-8(%rbp), %rcx
	movl	%eax, (%rcx)
	movq	-8(%rbp), %rax
	movl	(%rax), %eax
	subl	-16(%rbp), %eax
	shll	$3, %eax
	movq	stats, %rcx
	movq	1480(%rcx), %rcx
	addl	(%rcx), %eax
	movl	%eax, (%rcx)
	jmp	.LBB41_7
.LBB41_6:                               # %if.else
                                        #   in Loop: Header=BB41_3 Depth=1
	movq	-32(%rbp), %rax
	movq	24(%rax), %rax
	movslq	-12(%rbp), %rcx
	imulq	$120, %rcx, %rcx
	addq	%rcx, %rax
	addq	$8, %rax
	movq	%rax, -24(%rbp)
	movq	-24(%rbp), %rdi
	callq	arienco_done_encoding
	movq	-24(%rbp), %rax
	movl	12(%rax), %eax
	movq	-8(%rbp), %rcx
	movl	%eax, 4(%rcx)
	movq	-8(%rbp), %rax
	movb	$0, 8(%rax)
	movq	-8(%rbp), %rax
	movl	(%rax), %eax
	movl	%eax, -40(%rbp)
	movq	-8(%rbp), %rax
	movl	(%rax), %eax
	movl	%eax, -16(%rbp)
	movq	-8(%rbp), %rax
	movq	32(%rax), %rdi
	movq	-8(%rbp), %rax
	movl	(%rax), %edx
	movq	-24(%rbp), %rax
	movl	88(%rax), %ecx
	xorl	%esi, %esi
	callq	RBSPtoEBSP
	movq	-8(%rbp), %rcx
	movl	%eax, (%rcx)
	movq	-8(%rbp), %rax
	movl	(%rax), %eax
	subl	-16(%rbp), %eax
	shll	$3, %eax
	movq	stats, %rcx
	movq	1480(%rcx), %rcx
	addl	(%rcx), %eax
	movl	%eax, (%rcx)
.LBB41_7:                               # %if.end22
                                        #   in Loop: Header=BB41_3 Depth=1
	jmp	.LBB41_8
.LBB41_8:                               # %for.inc
                                        #   in Loop: Header=BB41_3 Depth=1
	movl	-12(%rbp), %eax
	addl	$1, %eax
	movl	%eax, -12(%rbp)
	jmp	.LBB41_3
.LBB41_9:                               # %for.end
	movq	input, %rax
	cmpl	$1, 2356(%rax)
	jne	.LBB41_11
# %bb.10:                               # %if.then25
	movb	$0, %al
	callq	store_contexts
.LBB41_11:                              # %if.end26
	cmpl	$62084840, -36(%rbp)    # imm = 0x3B356E8
	jne	.LBB41_13
.LBB41_12:
	xorl	%eax, %eax
	addq	$48, %rsp
	popq	%rbp
	.cfi_def_cfa %rsp, 8
	retq
.LBB41_13:                              # %func_exit
	.cfi_def_cfa %rbp, 16
	callq	detect_breach
	jmp	.LBB41_12
.Lfunc_end41:
	.size	terminate_slice.31, .Lfunc_end41-terminate_slice.31
	.cfi_endproc
                                        # -- End function
	.p2align	4, 0x90         # -- Begin function malloc_slice.32
	.type	malloc_slice.32,@function
malloc_slice.32:                        # @malloc_slice.32
	.cfi_startproc
# %bb.0:                                # %entry
	pushq	%rbp
	.cfi_def_cfa_offset 16
	.cfi_offset %rbp, -16
	movq	%rsp, %rbp
	.cfi_def_cfa_register %rbp
	pushq	%rbx
	subq	$40, %rsp
	.cfi_offset %rbx, -24
	movl	$1415957834, -28(%rbp)  # imm = 0x5465CD4A
	movq	img, %rax
	movl	52(%rax), %eax
	movq	img, %rcx
	imull	60(%rcx), %eax
	shll	$2, %eax
	movl	%eax, -24(%rbp)
	movl	$1, %edi
	movl	$152, %esi
	callq	calloc
	movq	%rax, -16(%rbp)
	cmpq	$0, %rax
	jne	.LBB42_2
# %bb.1:                                # %if.then
	movabsq	$.L.str.2, %rdi
	callq	no_mem_exit
.LBB42_2:                               # %if.end
	movq	input, %rax
	cmpl	$1, 2356(%rax)
	jne	.LBB42_4
# %bb.3:                                # %if.then3
	callq	create_contexts_MotionInfo
	movq	-16(%rbp), %rcx
	movq	%rax, 32(%rcx)
	callq	create_contexts_TextureInfo
	movq	-16(%rbp), %rcx
	movq	%rax, 40(%rcx)
.LBB42_4:                               # %if.end6
	movq	input, %rax
	movl	2364(%rax), %eax
	cmpl	$0, %eax
	movl	$1, %eax
	movl	$3, %ecx
	cmovel	%eax, %ecx
	movq	-16(%rbp), %rax
	movl	%ecx, 16(%rax)
	movq	img, %rax
	movq	14152(%rax), %rax
	cmpl	$0, 4(%rax)
	je	.LBB42_6
# %bb.5:                                # %if.then8
	movq	-16(%rbp), %rax
	movl	$1, 16(%rax)
.LBB42_6:                               # %if.end10
	movabsq	$assignSE2partition_NoDP, %rax
	movq	%rax, assignSE2partition
	movq	img, %rax
	movq	14152(%rax), %rax
	cmpl	$0, 4(%rax)
	jne	.LBB42_9
# %bb.7:                                # %land.lhs.true
	movq	input, %rax
	cmpl	$1, 2364(%rax)
	jne	.LBB42_9
# %bb.8:                                # %if.then16
	movabsq	$assignSE2partition_DP, %rax
	movq	%rax, assignSE2partition+8
	jmp	.LBB42_10
.LBB42_9:                               # %if.else
	movabsq	$assignSE2partition_NoDP, %rax
	movq	%rax, assignSE2partition+8
.LBB42_10:                              # %if.end17
	movq	-16(%rbp), %rax
	movl	$0, 20(%rax)
	movq	-16(%rbp), %rax
	movslq	16(%rax), %rdi
	movl	$120, %esi
	callq	calloc
	movq	-16(%rbp), %rcx
	movq	%rax, 24(%rcx)
	cmpq	$0, %rax
	jne	.LBB42_12
# %bb.11:                               # %if.then22
	movabsq	$.L.str.3, %rdi
	callq	no_mem_exit
.LBB42_12:                              # %if.end23
	movl	$0, -20(%rbp)
.LBB42_13:                              # %for.cond
                                        # =>This Inner Loop Header: Depth=1
	movl	-20(%rbp), %eax
	movq	-16(%rbp), %rcx
	cmpl	16(%rcx), %eax
	jge	.LBB42_20
# %bb.14:                               # %for.body
                                        #   in Loop: Header=BB42_13 Depth=1
	movq	-16(%rbp), %rax
	movq	24(%rax), %rax
	movslq	-20(%rbp), %rcx
	imulq	$120, %rcx, %rcx
	addq	%rcx, %rax
	movq	%rax, -40(%rbp)
	movl	$1, %edi
	movl	$48, %esi
	callq	calloc
	movq	-40(%rbp), %rcx
	movq	%rax, (%rcx)
	cmpq	$0, %rax
	jne	.LBB42_16
# %bb.15:                               # %if.then31
                                        #   in Loop: Header=BB42_13 Depth=1
	movabsq	$.L.str.4, %rdi
	callq	no_mem_exit
.LBB42_16:                              # %if.end32
                                        #   in Loop: Header=BB42_13 Depth=1
	movslq	-24(%rbp), %rdi
	movl	$1, %esi
	callq	calloc
	movq	-40(%rbp), %rcx
	movq	(%rcx), %rcx
	movq	%rax, 32(%rcx)
	cmpq	$0, %rax
	jne	.LBB42_18
# %bb.17:                               # %if.then38
                                        #   in Loop: Header=BB42_13 Depth=1
	movabsq	$.L.str.5, %rdi
	callq	no_mem_exit
.LBB42_18:                              # %if.end39
                                        #   in Loop: Header=BB42_13 Depth=1
	jmp	.LBB42_19
