	.text
	.file	"slice.c"
	.globl	init_ref_pic_list_reordering # -- Begin function init_ref_pic_list_reordering
	.p2align	4, 0x90
	.type	init_ref_pic_list_reordering,@function
init_ref_pic_list_reordering:           # @init_ref_pic_list_reordering
	.cfi_startproc
# %bb.0:                                # %entry
	pushq	%rbp
	.cfi_def_cfa_offset 16
	.cfi_offset %rbp, -16
	movq	%rsp, %rbp
	.cfi_def_cfa_register %rbp
	movq	img, %rax
	movq	14160(%rax), %rax
	movq	%rax, -8(%rbp)
	movq	-8(%rbp), %rax
	movl	$0, 56(%rax)
	movq	-8(%rbp), %rax
	movl	$0, 88(%rax)
	popq	%rbp
	.cfi_def_cfa %rsp, 8
	retq
.Lfunc_end0:
	.size	init_ref_pic_list_reordering, .Lfunc_end0-init_ref_pic_list_reordering
	.cfi_endproc
                                        # -- End function
	.globl	start_slice             # -- Begin function start_slice
	.p2align	4, 0x90
	.type	start_slice,@function
start_slice:                            # @start_slice
	.cfi_startproc
# %bb.0:                                # %rand_bb
	pushq	%rbp
	.cfi_def_cfa_offset 16
	.cfi_offset %rbp, -16
	movq	%rsp, %rbp
	.cfi_def_cfa_register %rbp
	callq	get_rand
	cmpl	$0, %eax
	jne	.LBB1_5
# %bb.1:                                # %func_start_slice.16
	callq	start_slice.16
	popq	%rbp
	.cfi_def_cfa %rsp, 8
	retq
.LBB1_2:                                # %func_start_slice.30
	.cfi_def_cfa %rbp, 16
	callq	start_slice.30
	popq	%rbp
	.cfi_def_cfa %rsp, 8
	retq
.LBB1_3:                                # %func_start_slice.33
	.cfi_def_cfa %rbp, 16
	callq	start_slice.33
	popq	%rbp
	.cfi_def_cfa %rsp, 8
	retq
.LBB1_4:                                # %func_start_slice.34
	.cfi_def_cfa %rbp, 16
	callq	start_slice.34
	popq	%rbp
	.cfi_def_cfa %rsp, 8
	retq
.LBB1_5:                                # %ctrl0
	.cfi_def_cfa %rbp, 16
	cmpl	$1, %eax
	je	.LBB1_2
# %bb.6:                                # %ctrl1
	cmpl	$2, %eax
	je	.LBB1_3
	jmp	.LBB1_4
.Lfunc_end1:
	.size	start_slice, .Lfunc_end1-start_slice
	.cfi_endproc
                                        # -- End function
	.globl	terminate_slice         # -- Begin function terminate_slice
	.p2align	4, 0x90
	.type	terminate_slice,@function
terminate_slice:                        # @terminate_slice
	.cfi_startproc
# %bb.0:                                # %rand_bb
	pushq	%rbp
	.cfi_def_cfa_offset 16
	.cfi_offset %rbp, -16
	movq	%rsp, %rbp
	.cfi_def_cfa_register %rbp
	callq	get_rand
	cmpl	$0, %eax
	jne	.LBB2_5
# %bb.1:                                # %func_terminate_slice.21
	callq	terminate_slice.21
	popq	%rbp
	.cfi_def_cfa %rsp, 8
	retq
.LBB2_2:                                # %func_terminate_slice.24
	.cfi_def_cfa %rbp, 16
	callq	terminate_slice.24
	popq	%rbp
	.cfi_def_cfa %rsp, 8
	retq
.LBB2_3:                                # %func_terminate_slice.25
	.cfi_def_cfa %rbp, 16
	callq	terminate_slice.25
	popq	%rbp
	.cfi_def_cfa %rsp, 8
	retq
.LBB2_4:                                # %func_terminate_slice.29
	.cfi_def_cfa %rbp, 16
	callq	terminate_slice.29
	popq	%rbp
	.cfi_def_cfa %rsp, 8
	retq
.LBB2_5:                                # %ctrl0
	.cfi_def_cfa %rbp, 16
	cmpl	$1, %eax
	je	.LBB2_2
# %bb.6:                                # %ctrl1
	cmpl	$2, %eax
	je	.LBB2_3
	jmp	.LBB2_4
.Lfunc_end2:
	.size	terminate_slice, .Lfunc_end2-terminate_slice
	.cfi_endproc
                                        # -- End function
	.globl	encode_one_slice        # -- Begin function encode_one_slice
	.p2align	4, 0x90
	.type	encode_one_slice,@function
encode_one_slice:                       # @encode_one_slice
	.cfi_startproc
# %bb.0:                                # %rand_bb
	pushq	%rbp
	.cfi_def_cfa_offset 16
	.cfi_offset %rbp, -16
	movq	%rsp, %rbp
	.cfi_def_cfa_register %rbp
	pushq	%r14
	pushq	%rbx
	.cfi_offset %rbx, -32
	.cfi_offset %r14, -24
	movq	%rsi, %r14
	movl	%edi, %ebx
	callq	get_rand
	cmpl	$0, %eax
	jne	.LBB3_5
# %bb.1:                                # %func_encode_one_slice.14
	movl	%ebx, %edi
	movq	%r14, %rsi
	callq	encode_one_slice.14
	popq	%rbx
	popq	%r14
	popq	%rbp
	.cfi_def_cfa %rsp, 8
	retq
.LBB3_2:                                # %func_encode_one_slice.17
	.cfi_def_cfa %rbp, 16
	movl	%ebx, %edi
	movq	%r14, %rsi
	callq	encode_one_slice.17
	popq	%rbx
	popq	%r14
	popq	%rbp
	.cfi_def_cfa %rsp, 8
	retq
.LBB3_3:                                # %func_encode_one_slice.23
	.cfi_def_cfa %rbp, 16
	movl	%ebx, %edi
	movq	%r14, %rsi
	callq	encode_one_slice.23
	popq	%rbx
	popq	%r14
	popq	%rbp
	.cfi_def_cfa %rsp, 8
	retq
.LBB3_4:                                # %func_encode_one_slice.26
	.cfi_def_cfa %rbp, 16
	movl	%ebx, %edi
	movq	%r14, %rsi
	callq	encode_one_slice.26
	popq	%rbx
	popq	%r14
	popq	%rbp
	.cfi_def_cfa %rsp, 8
	retq
.LBB3_5:                                # %ctrl0
	.cfi_def_cfa %rbp, 16
	cmpl	$1, %eax
	je	.LBB3_2
# %bb.6:                                # %ctrl1
	cmpl	$2, %eax
	je	.LBB3_3
	jmp	.LBB3_4
.Lfunc_end3:
	.size	encode_one_slice, .Lfunc_end3-encode_one_slice
	.cfi_endproc
                                        # -- End function
	.p2align	4, 0x90         # -- Begin function init_slice
	.type	init_slice,@function
init_slice:                             # @init_slice
	.cfi_startproc
# %bb.0:                                # %rand_bb
	pushq	%rbp
	.cfi_def_cfa_offset 16
	.cfi_offset %rbp, -16
	movq	%rsp, %rbp
	.cfi_def_cfa_register %rbp
	pushq	%rbx
	pushq	%rax
	.cfi_offset %rbx, -24
	movl	%edi, %ebx
	callq	get_rand
	cmpl	$0, %eax
	jne	.LBB4_5
# %bb.1:                                # %func_init_slice.3
	movl	%ebx, %edi
	callq	init_slice.3
	addq	$8, %rsp
	popq	%rbx
	popq	%rbp
	.cfi_def_cfa %rsp, 8
	retq
.LBB4_2:                                # %func_init_slice.4
	.cfi_def_cfa %rbp, 16
	movl	%ebx, %edi
	callq	init_slice.4
	addq	$8, %rsp
	popq	%rbx
	popq	%rbp
	.cfi_def_cfa %rsp, 8
	retq
.LBB4_3:                                # %func_init_slice.9
	.cfi_def_cfa %rbp, 16
	movl	%ebx, %edi
	callq	init_slice.9
	addq	$8, %rsp
	popq	%rbx
	popq	%rbp
	.cfi_def_cfa %rsp, 8
	retq
.LBB4_4:                                # %func_init_slice.12
	.cfi_def_cfa %rbp, 16
	movl	%ebx, %edi
	callq	init_slice.12
	addq	$8, %rsp
	popq	%rbx
	popq	%rbp
	.cfi_def_cfa %rsp, 8
	retq
.LBB4_5:                                # %ctrl0
	.cfi_def_cfa %rbp, 16
	cmpl	$1, %eax
	je	.LBB4_2
# %bb.6:                                # %ctrl1
	cmpl	$2, %eax
	je	.LBB4_3
	jmp	.LBB4_4
.Lfunc_end4:
	.size	init_slice, .Lfunc_end4-init_slice
	.cfi_endproc
                                        # -- End function
	.globl	free_slice_list         # -- Begin function free_slice_list
	.p2align	4, 0x90
	.type	free_slice_list,@function
free_slice_list:                        # @free_slice_list
	.cfi_startproc
# %bb.0:                                # %rand_bb
	pushq	%rbp
	.cfi_def_cfa_offset 16
	.cfi_offset %rbp, -16
	movq	%rsp, %rbp
	.cfi_def_cfa_register %rbp
	pushq	%rbx
	pushq	%rax
	.cfi_offset %rbx, -24
	movq	%rdi, %rbx
	callq	get_rand
	cmpl	$0, %eax
	jne	.LBB5_2
# %bb.1:                                # %func_free_slice_list.10
	movq	%rbx, %rdi
	callq	free_slice_list.10
	addq	$8, %rsp
	popq	%rbx
	popq	%rbp
	.cfi_def_cfa %rsp, 8
	retq
.LBB5_2:                                # %func_free_slice_list.20
	.cfi_def_cfa %rbp, 16
	movq	%rbx, %rdi
	callq	free_slice_list.20
	addq	$8, %rsp
	popq	%rbx
	popq	%rbp
	.cfi_def_cfa %rsp, 8
	retq
.Lfunc_end5:
	.size	free_slice_list, .Lfunc_end5-free_slice_list
	.cfi_endproc
                                        # -- End function
	.p2align	4, 0x90         # -- Begin function free_slice
	.type	free_slice,@function
free_slice:                             # @free_slice
	.cfi_startproc
# %bb.0:                                # %rand_bb
	pushq	%rbp
	.cfi_def_cfa_offset 16
	.cfi_offset %rbp, -16
	movq	%rsp, %rbp
	.cfi_def_cfa_register %rbp
	pushq	%rbx
	pushq	%rax
	.cfi_offset %rbx, -24
	movq	%rdi, %rbx
	callq	get_rand
	cmpl	$0, %eax
	jne	.LBB6_5
# %bb.1:                                # %func_free_slice.1
	movq	%rbx, %rdi
	callq	free_slice.1
	addq	$8, %rsp
	popq	%rbx
	popq	%rbp
	.cfi_def_cfa %rsp, 8
	retq
.LBB6_2:                                # %func_free_slice.8
	.cfi_def_cfa %rbp, 16
	movq	%rbx, %rdi
	callq	free_slice.8
	addq	$8, %rsp
	popq	%rbx
	popq	%rbp
	.cfi_def_cfa %rsp, 8
	retq
.LBB6_3:                                # %func_free_slice.11
	.cfi_def_cfa %rbp, 16
	movq	%rbx, %rdi
	callq	free_slice.11
	addq	$8, %rsp
	popq	%rbx
	popq	%rbp
	.cfi_def_cfa %rsp, 8
	retq
.LBB6_4:                                # %func_free_slice.19
	.cfi_def_cfa %rbp, 16
	movq	%rbx, %rdi
	callq	free_slice.19
	addq	$8, %rsp
	popq	%rbx
	popq	%rbp
	.cfi_def_cfa %rsp, 8
	retq
.LBB6_5:                                # %ctrl0
	.cfi_def_cfa %rbp, 16
	cmpl	$1, %eax
	je	.LBB6_2
# %bb.6:                                # %ctrl1
	cmpl	$2, %eax
	je	.LBB6_3
	jmp	.LBB6_4
.Lfunc_end6:
	.size	free_slice, .Lfunc_end6-free_slice
	.cfi_endproc
                                        # -- End function
	.globl	modify_redundant_pic_cnt # -- Begin function modify_redundant_pic_cnt
	.p2align	4, 0x90
	.type	modify_redundant_pic_cnt,@function
modify_redundant_pic_cnt:               # @modify_redundant_pic_cnt
	.cfi_startproc
# %bb.0:                                # %rand_bb
	pushq	%rbp
	.cfi_def_cfa_offset 16
	.cfi_offset %rbp, -16
	movq	%rsp, %rbp
	.cfi_def_cfa_register %rbp
	pushq	%rbx
	pushq	%rax
	.cfi_offset %rbx, -24
	movq	%rdi, %rbx
	callq	get_rand
	cmpl	$0, %eax
	jne	.LBB7_2
# %bb.1:                                # %func_modify_redundant_pic_cnt.2
	movq	%rbx, %rdi
	callq	modify_redundant_pic_cnt.2
	addq	$8, %rsp
	popq	%rbx
	popq	%rbp
	.cfi_def_cfa %rsp, 8
	retq
.LBB7_2:                                # %func_modify_redundant_pic_cnt.22
	.cfi_def_cfa %rbp, 16
	movq	%rbx, %rdi
	callq	modify_redundant_pic_cnt.22
	addq	$8, %rsp
	popq	%rbx
	popq	%rbp
	.cfi_def_cfa %rsp, 8
	retq
.Lfunc_end7:
	.size	modify_redundant_pic_cnt, .Lfunc_end7-modify_redundant_pic_cnt
	.cfi_endproc
                                        # -- End function
	.globl	poc_ref_pic_reorder     # -- Begin function poc_ref_pic_reorder
	.p2align	4, 0x90
	.type	poc_ref_pic_reorder,@function
poc_ref_pic_reorder:                    # @poc_ref_pic_reorder
	.cfi_startproc
# %bb.0:                                # %rand_bb
	pushq	%rbp
	.cfi_def_cfa_offset 16
	.cfi_offset %rbp, -16
	movq	%rsp, %rbp
	.cfi_def_cfa_register %rbp
	pushq	%r15
	pushq	%r14
	pushq	%r13
	pushq	%r12
	pushq	%rbx
	subq	$24, %rsp
	.cfi_offset %rbx, -56
	.cfi_offset %r12, -48
	.cfi_offset %r13, -40
	.cfi_offset %r14, -32
	.cfi_offset %r15, -24
	movl	%r9d, -44(%rbp)         # 4-byte Spill
	movq	%r8, %r12
	movq	%rcx, %r13
	movq	%rdx, %rbx
	movl	%esi, %r14d
	movq	%rdi, %r15
	callq	get_rand
	cmpl	$0, %eax
	jne	.LBB8_5
# %bb.1:                                # %func_poc_ref_pic_reorder.6
	movq	%r15, %rdi
	movl	%r14d, %esi
	movq	%rbx, %rdx
	movq	%r13, %rcx
	movq	%r12, %r8
	movl	-44(%rbp), %r9d         # 4-byte Reload
	movl	16(%rbp), %eax
	movl	%eax, (%rsp)
	callq	poc_ref_pic_reorder.6
	addq	$24, %rsp
	popq	%rbx
	popq	%r12
	popq	%r13
	popq	%r14
	popq	%r15
	popq	%rbp
	.cfi_def_cfa %rsp, 8
	retq
.LBB8_2:                                # %func_poc_ref_pic_reorder.15
	.cfi_def_cfa %rbp, 16
	movq	%r15, %rdi
	movl	%r14d, %esi
	movq	%rbx, %rdx
	movq	%r13, %rcx
	movq	%r12, %r8
	movl	%r10d, (%rsp)
	callq	poc_ref_pic_reorder.15
	addq	$24, %rsp
	popq	%rbx
	popq	%r12
	popq	%r13
	popq	%r14
	popq	%r15
	popq	%rbp
	.cfi_def_cfa %rsp, 8
	retq
.LBB8_3:                                # %func_poc_ref_pic_reorder.28
	.cfi_def_cfa %rbp, 16
	movl	%eax, (%rsp)
	callq	poc_ref_pic_reorder.28
	addq	$24, %rsp
	popq	%rbx
	popq	%r12
	popq	%r13
	popq	%r14
	popq	%r15
	popq	%rbp
	.cfi_def_cfa %rsp, 8
	retq
.LBB8_4:                                # %func_poc_ref_pic_reorder.31
	.cfi_def_cfa %rbp, 16
	movl	%eax, (%rsp)
	callq	poc_ref_pic_reorder.31
	addq	$24, %rsp
	popq	%rbx
	popq	%r12
	popq	%r13
	popq	%r14
	popq	%r15
	popq	%rbp
	.cfi_def_cfa %rsp, 8
	retq
.LBB8_5:                                # %ctrl0
	.cfi_def_cfa %rbp, 16
	movl	16(%rbp), %r10d
	movl	-44(%rbp), %r9d         # 4-byte Reload
	cmpl	$1, %eax
	je	.LBB8_2
# %bb.6:                                # %ctrl1
	cmpl	$2, %eax
	movl	%r10d, %eax
	movq	%r12, %r8
	movq	%r13, %rcx
	movq	%rbx, %rdx
	movl	%r14d, %esi
	movq	%r15, %rdi
	je	.LBB8_3
	jmp	.LBB8_4
.Lfunc_end8:
	.size	poc_ref_pic_reorder, .Lfunc_end8-poc_ref_pic_reorder
	.cfi_endproc
                                        # -- End function
	.p2align	4, 0x90         # -- Begin function malloc_slice
	.type	malloc_slice,@function
malloc_slice:                           # @malloc_slice
	.cfi_startproc
# %bb.0:                                # %rand_bb
	pushq	%rbp
	.cfi_def_cfa_offset 16
	.cfi_offset %rbp, -16
	movq	%rsp, %rbp
	.cfi_def_cfa_register %rbp
	callq	get_rand
	cmpl	$0, %eax
	jne	.LBB9_5
# %bb.1:                                # %func_malloc_slice.5
	callq	malloc_slice.5
	popq	%rbp
	.cfi_def_cfa %rsp, 8
	retq
.LBB9_2:                                # %func_malloc_slice.13
	.cfi_def_cfa %rbp, 16
	callq	malloc_slice.13
	popq	%rbp
	.cfi_def_cfa %rsp, 8
	retq
.LBB9_3:                                # %func_malloc_slice.27
	.cfi_def_cfa %rbp, 16
	callq	malloc_slice.27
	popq	%rbp
	.cfi_def_cfa %rsp, 8
	retq
.LBB9_4:                                # %func_malloc_slice.32
	.cfi_def_cfa %rbp, 16
	callq	malloc_slice.32
	popq	%rbp
	.cfi_def_cfa %rsp, 8
	retq
.LBB9_5:                                # %ctrl0
	.cfi_def_cfa %rbp, 16
	cmpl	$1, %eax
	je	.LBB9_2
# %bb.6:                                # %ctrl1
	cmpl	$2, %eax
	je	.LBB9_3
	jmp	.LBB9_4
.Lfunc_end9:
	.size	malloc_slice, .Lfunc_end9-malloc_slice
	.cfi_endproc
                                        # -- End function
	.p2align	4, 0x90         # -- Begin function set_ref_pic_num
	.type	set_ref_pic_num,@function
set_ref_pic_num:                        # @set_ref_pic_num
	.cfi_startproc
# %bb.0:                                # %rand_bb
	pushq	%rbp
	.cfi_def_cfa_offset 16
	.cfi_offset %rbp, -16
	movq	%rsp, %rbp
	.cfi_def_cfa_register %rbp
	callq	get_rand
	cmpl	$0, %eax
	jne	.LBB10_2
# %bb.1:                                # %func_set_ref_pic_num.7
	callq	set_ref_pic_num.7
	popq	%rbp
	.cfi_def_cfa %rsp, 8
	retq
.LBB10_2:                               # %func_set_ref_pic_num.18
	.cfi_def_cfa %rbp, 16
	callq	set_ref_pic_num.18
	popq	%rbp
	.cfi_def_cfa %rsp, 8
	retq
.Lfunc_end10:
	.size	set_ref_pic_num, .Lfunc_end10-set_ref_pic_num
	.cfi_endproc
                                        # -- End function
	.p2align	4, 0x90         # -- Begin function free_slice.1
	.type	free_slice.1,@function
free_slice.1:                           # @free_slice.1
	.cfi_startproc
# %bb.0:                                # %entry
	pushq	%rbp
	.cfi_def_cfa_offset 16
	.cfi_offset %rbp, -16
	movq	%rsp, %rbp
	.cfi_def_cfa_register %rbp
	subq	$32, %rsp
	movl	$135700768, -28(%rbp)   # imm = 0x816A120
	movq	%rdi, -16(%rbp)
	cmpq	$0, -16(%rbp)
	je	.LBB11_16
# %bb.1:                                # %if.then
	movl	$0, -4(%rbp)
.LBB11_2:                               # %for.cond
                                        # =>This Inner Loop Header: Depth=1
	movl	-4(%rbp), %eax
	movq	-16(%rbp), %rcx
	cmpl	16(%rcx), %eax
	jge	.LBB11_11
# %bb.3:                                # %for.body
                                        #   in Loop: Header=BB11_2 Depth=1
	movq	-16(%rbp), %rax
	movq	24(%rax), %rax
	movslq	-4(%rbp), %rcx
	imulq	$120, %rcx, %rcx
	addq	%rcx, %rax
	movq	%rax, -24(%rbp)
	cmpq	$0, -24(%rbp)
	je	.LBB11_9
# %bb.4:                                # %if.then3
                                        #   in Loop: Header=BB11_2 Depth=1
	movq	-24(%rbp), %rax
	movq	(%rax), %rax
	cmpq	$0, 32(%rax)
	je	.LBB11_6
# %bb.5:                                # %if.then5
                                        #   in Loop: Header=BB11_2 Depth=1
	movq	-24(%rbp), %rax
	movq	(%rax), %rax
	movq	32(%rax), %rdi
	callq	free
.LBB11_6:                               # %if.end
                                        #   in Loop: Header=BB11_2 Depth=1
	movq	-24(%rbp), %rax
	cmpq	$0, (%rax)
	je	.LBB11_8
# %bb.7:                                # %if.then10
                                        #   in Loop: Header=BB11_2 Depth=1
	movq	-24(%rbp), %rax
	movq	(%rax), %rdi
	callq	free
.LBB11_8:                               # %if.end12
                                        #   in Loop: Header=BB11_2 Depth=1
	jmp	.LBB11_9
.LBB11_9:                               # %if.end13
                                        #   in Loop: Header=BB11_2 Depth=1
	jmp	.LBB11_10
.LBB11_10:                              # %for.inc
                                        #   in Loop: Header=BB11_2 Depth=1
	movl	-4(%rbp), %eax
	addl	$1, %eax
	movl	%eax, -4(%rbp)
	jmp	.LBB11_2
.LBB11_11:                              # %for.end
	movq	-16(%rbp), %rax
	cmpq	$0, 24(%rax)
	je	.LBB11_13
# %bb.12:                               # %if.then16
	movq	-16(%rbp), %rax
	movq	24(%rax), %rdi
	callq	free
.LBB11_13:                              # %if.end18
	movq	input, %rax
	cmpl	$1, 2356(%rax)
	jne	.LBB11_15
# %bb.14:                               # %if.then20
	movq	-16(%rbp), %rax
	movq	32(%rax), %rdi
	callq	delete_contexts_MotionInfo
	movq	-16(%rbp), %rax
	movq	40(%rax), %rdi
	callq	delete_contexts_TextureInfo
.LBB11_15:                              # %if.end21
	movq	-16(%rbp), %rdi
	callq	free
.LBB11_16:                              # %if.end22
	cmpl	$135700768, -28(%rbp)   # imm = 0x816A120
	jne	.LBB11_18
.LBB11_17:
	addq	$32, %rsp
	popq	%rbp
	.cfi_def_cfa %rsp, 8
	retq
.LBB11_18:                              # %func_exit
	.cfi_def_cfa %rbp, 16
	callq	detect_breach
	jmp	.LBB11_17
.Lfunc_end11:
	.size	free_slice.1, .Lfunc_end11-free_slice.1
	.cfi_endproc
                                        # -- End function
	.globl	modify_redundant_pic_cnt.2 # -- Begin function modify_redundant_pic_cnt.2
	.p2align	4, 0x90
	.type	modify_redundant_pic_cnt.2,@function
modify_redundant_pic_cnt.2:             # @modify_redundant_pic_cnt.2
	.cfi_startproc
# %bb.0:                                # %entry
	pushq	%rbp
	.cfi_def_cfa_offset 16
	.cfi_offset %rbp, -16
	movq	%rsp, %rbp
	.cfi_def_cfa_register %rbp
	subq	$16, %rsp
	movl	$1652588733, -8(%rbp)   # imm = 0x628080BD
	movq	%rdi, -16(%rbp)
	movl	rpc_bits_to_go, %ecx
	subl	$1, %ecx
                                        # kill: def $cl killed $ecx
	movl	$1, %eax
	shll	%cl, %eax
	movb	%al, -1(%rbp)
	movzbl	-1(%rbp), %eax
	movq	-16(%rbp), %rcx
	movslq	rpc_bytes_to_go, %rdx
	movzbl	(%rcx,%rdx), %esi
	orl	%eax, %esi
	movb	%sil, (%rcx,%rdx)
	cmpl	$1652588733, -8(%rbp)   # imm = 0x628080BD
	jne	.LBB12_2
.LBB12_1:
	addq	$16, %rsp
	popq	%rbp
	.cfi_def_cfa %rsp, 8
	retq
.LBB12_2:                               # %func_exit
	.cfi_def_cfa %rbp, 16
	callq	detect_breach
	jmp	.LBB12_1
.Lfunc_end12:
	.size	modify_redundant_pic_cnt.2, .Lfunc_end12-modify_redundant_pic_cnt.2
	.cfi_endproc
                                        # -- End function
	.p2align	4, 0x90         # -- Begin function init_slice.3
	.type	init_slice.3,@function
init_slice.3:                           # @init_slice.3
	.cfi_startproc
# %bb.0:                                # %entry
	pushq	%rbp
	.cfi_def_cfa_offset 16
	.cfi_offset %rbp, -16
	movq	%rsp, %rbp
	.cfi_def_cfa_register %rbp
	subq	$80, %rsp
	movl	$546834177, -60(%rbp)   # imm = 0x20980701
	movl	%edi, -36(%rbp)
	movq	img, %rax
	movq	14152(%rax), %rax
	movq	%rax, -32(%rbp)
	movl	-36(%rbp), %eax
	movq	img, %rcx
	movl	%eax, 12(%rcx)
	movq	-32(%rbp), %rax
	movl	(%rax), %ecx
	addl	$1, %ecx
	movl	%ecx, (%rax)
	movq	-32(%rbp), %rax
	cmpl	$100, (%rax)
	jl	.LBB13_2
# %bb.1:                                # %if.then
	movabsq	$.L.str.1, %rdi
	movl	$4294967295, %esi       # imm = 0xFFFFFFFF
	callq	error
.LBB13_2:                               # %if.end
	callq	malloc_slice
	movq	-32(%rbp), %rcx
	movq	-32(%rbp), %rdx
	movl	(%rdx), %edx
	subl	$1, %edx
	movslq	%edx, %rdx
	movq	%rax, 8(%rcx,%rdx,8)
	movq	-32(%rbp), %rax
	movq	-32(%rbp), %rcx
	movl	(%rcx), %ecx
	subl	$1, %ecx
	movslq	%ecx, %rcx
	movq	8(%rax,%rcx,8), %rax
	movq	%rax, -16(%rbp)
	movq	-16(%rbp), %rax
	movq	img, %rcx
	movq	%rax, 14160(%rcx)
	movq	img, %rax
	movl	71792(%rax), %eax
	cltd
	movl	$256, %ecx              # imm = 0x100
	idivl	%ecx
	movq	-16(%rbp), %rax
	movl	%edx, (%rax)
	movq	img, %rax
	movl	40(%rax), %eax
	movq	-16(%rbp), %rcx
	movl	%eax, 4(%rcx)
	movl	-36(%rbp), %eax
	movq	-16(%rbp), %rcx
	movl	%eax, 12(%rcx)
	movq	-16(%rbp), %rax
	movabsq	$dummy_slice_too_big, %rcx
	movq	%rcx, 120(%rax)
	movl	$0, -20(%rbp)
.LBB13_3:                               # %for.cond
                                        # =>This Inner Loop Header: Depth=1
	movl	-20(%rbp), %eax
	movq	-16(%rbp), %rcx
	cmpl	16(%rcx), %eax
	jge	.LBB13_9
# %bb.4:                                # %for.body
                                        #   in Loop: Header=BB13_3 Depth=1
	movq	-16(%rbp), %rax
	movq	24(%rax), %rax
	movslq	-20(%rbp), %rcx
	imulq	$120, %rcx, %rcx
	addq	%rcx, %rax
	movq	%rax, -56(%rbp)
	movq	input, %rax
	cmpl	$0, 2356(%rax)
	jne	.LBB13_6
# %bb.5:                                # %if.then13
                                        #   in Loop: Header=BB13_3 Depth=1
	movq	-56(%rbp), %rax
	movabsq	$writeSyntaxElement_UVLC, %rcx
	movq	%rcx, 112(%rax)
	jmp	.LBB13_7
.LBB13_6:                               # %if.else
                                        #   in Loop: Header=BB13_3 Depth=1
	movq	-56(%rbp), %rax
	movabsq	$writeSyntaxElement_CABAC, %rcx
	movq	%rcx, 112(%rax)
.LBB13_7:                               # %if.end15
                                        #   in Loop: Header=BB13_3 Depth=1
	movq	-56(%rbp), %rax
	movq	(%rax), %rax
	movq	%rax, -48(%rbp)
	movq	-48(%rbp), %rax
	movl	$8, 4(%rax)
	movq	-48(%rbp), %rax
	movl	$0, (%rax)
	movq	-48(%rbp), %rax
	movb	$0, 8(%rax)
# %bb.8:                                # %for.inc
                                        #   in Loop: Header=BB13_3 Depth=1
	movl	-20(%rbp), %eax
	addl	$1, %eax
	movl	%eax, -20(%rbp)
	jmp	.LBB13_3
.LBB13_9:                               # %for.end
	movq	active_pps, %rax
	movl	184(%rax), %eax
	addl	$1, %eax
	movq	img, %rcx
	movl	%eax, 72000(%rcx)
	movq	active_pps, %rax
	movl	188(%rax), %eax
	addl	$1, %eax
	movq	img, %rcx
	movl	%eax, 72004(%rcx)
	movq	img, %rax
	movl	24(%rax), %edi
	movq	img, %rax
	movl	28(%rax), %esi
	callq	init_lists
	movl	listXsize, %eax
	movq	img, %rcx
	movl	%eax, 72000(%rcx)
	movl	listXsize+4, %eax
	movq	img, %rcx
	movl	%eax, 72004(%rcx)
	movq	img, %rax
	cmpl	$0, 24(%rax)
	je	.LBB13_11
# %bb.10:                               # %lor.lhs.false
	movq	img, %rax
	cmpl	$3, 24(%rax)
	jne	.LBB13_19
.LBB13_11:                              # %land.lhs.true
	movq	input, %rax
	cmpl	$0, 40(%rax)
	je	.LBB13_19
# %bb.12:                               # %if.then24
	movq	img, %rax
	movl	72000(%rax), %eax
	movq	input, %rcx
	cmpl	40(%rcx), %eax
	jge	.LBB13_14
# %bb.13:                               # %cond.true
	movq	img, %rax
	movl	72000(%rax), %eax
	jmp	.LBB13_15
.LBB13_14:                              # %cond.false
	movq	input, %rax
	movl	40(%rax), %eax
.LBB13_15:                              # %cond.end
	movq	img, %rcx
	movl	%eax, 72000(%rcx)
	movl	listXsize, %eax
	movq	input, %rcx
	cmpl	40(%rcx), %eax
	jge	.LBB13_17
# %bb.16:                               # %cond.true33
	movl	listXsize, %eax
	jmp	.LBB13_18
.LBB13_17:                              # %cond.false34
	movq	input, %rax
	movl	40(%rax), %eax
.LBB13_18:                              # %cond.end36
	movl	%eax, listXsize
.LBB13_19:                              # %if.end38
	movq	img, %rax
	cmpl	$1, 24(%rax)
	jne	.LBB13_37
# %bb.20:                               # %if.then41
	movq	input, %rax
	cmpl	$0, 44(%rax)
	je	.LBB13_28
# %bb.21:                               # %if.then43
	movq	img, %rax
	movl	72000(%rax), %eax
	movq	input, %rcx
	cmpl	44(%rcx), %eax
	jge	.LBB13_23
# %bb.22:                               # %cond.true47
	movq	img, %rax
	movl	72000(%rax), %eax
	jmp	.LBB13_24
.LBB13_23:                              # %cond.false49
	movq	input, %rax
	movl	44(%rax), %eax
.LBB13_24:                              # %cond.end51
	movq	img, %rcx
	movl	%eax, 72000(%rcx)
	movl	listXsize, %eax
	movq	input, %rcx
	cmpl	44(%rcx), %eax
	jge	.LBB13_26
# %bb.25:                               # %cond.true56
	movl	listXsize, %eax
	jmp	.LBB13_27
.LBB13_26:                              # %cond.false57
	movq	input, %rax
	movl	44(%rax), %eax
.LBB13_27:                              # %cond.end59
	movl	%eax, listXsize
.LBB13_28:                              # %if.end61
	movq	input, %rax
	cmpl	$0, 48(%rax)
	je	.LBB13_36
# %bb.29:                               # %if.then63
	movq	img, %rax
	movl	72004(%rax), %eax
	movq	input, %rcx
	cmpl	48(%rcx), %eax
	jge	.LBB13_31
# %bb.30:                               # %cond.true67
	movq	img, %rax
	movl	72004(%rax), %eax
	jmp	.LBB13_32
.LBB13_31:                              # %cond.false69
	movq	input, %rax
	movl	48(%rax), %eax
.LBB13_32:                              # %cond.end71
	movq	img, %rcx
	movl	%eax, 72004(%rcx)
	movl	listXsize+4, %eax
	movq	input, %rcx
	cmpl	48(%rcx), %eax
	jge	.LBB13_34
# %bb.33:                               # %cond.true76
	movl	listXsize+4, %eax
	jmp	.LBB13_35
.LBB13_34:                              # %cond.false77
	movq	input, %rax
	movl	48(%rax), %eax
.LBB13_35:                              # %cond.end79
	movl	%eax, listXsize+4
.LBB13_36:                              # %if.end81
	jmp	.LBB13_37
.LBB13_37:                              # %if.end82
	movq	img, %rax
	cmpl	$0, 72496(%rax)
	je	.LBB13_42
# %bb.38:                               # %land.lhs.true84
	movq	input, %rax
	cmpl	$0, 1320(%rax)
	je	.LBB13_42
# %bb.39:                               # %land.lhs.true86
	movq	input, %rax
	cmpl	$0, 2352(%rax)
	je	.LBB13_42
# %bb.40:                               # %land.lhs.true88
	movl	dpb+28, %eax
	cmpl	dpb+24, %eax
	jne	.LBB13_42
# %bb.41:                               # %if.then90
	movq	img, %rax
	movl	72464(%rax), %edi
	callq	poc_based_ref_management
.LBB13_42:                              # %if.end91
	callq	init_ref_pic_list_reordering
	movq	img, %rax
	cmpl	$0, 24(%rax)
	jne	.LBB13_64
# %bb.43:                               # %land.lhs.true94
	movq	input, %rax
	cmpl	$0, 1320(%rax)
	je	.LBB13_64
# %bb.44:                               # %land.lhs.true97
	movq	input, %rax
	cmpl	$0, 2348(%rax)
	je	.LBB13_64
# %bb.45:                               # %if.then99
	movq	-16(%rbp), %rdi
	callq	alloc_ref_pic_list_reordering_buffer
	movq	img, %rax
	cmpl	$2, 24(%rax)
	je	.LBB13_58
# %bb.46:                               # %land.lhs.true103
	movq	img, %rax
	cmpl	$4, 24(%rax)
	je	.LBB13_58
# %bb.47:                               # %if.then106
	movl	$0, -4(%rbp)
.LBB13_48:                              # %for.cond107
                                        # =>This Inner Loop Header: Depth=1
	movl	-4(%rbp), %eax
	movq	img, %rcx
	movl	72000(%rcx), %ecx
	addl	$1, %ecx
	cmpl	%ecx, %eax
	jge	.LBB13_51
# %bb.49:                               # %for.body111
                                        #   in Loop: Header=BB13_48 Depth=1
	movq	-16(%rbp), %rax
	movq	64(%rax), %rax
	movslq	-4(%rbp), %rcx
	movl	$3, (%rax,%rcx,4)
	movq	-16(%rbp), %rax
	movq	72(%rax), %rax
	movslq	-4(%rbp), %rcx
	movl	$0, (%rax,%rcx,4)
	movq	-16(%rbp), %rax
	movq	80(%rax), %rax
	movslq	-4(%rbp), %rcx
	movl	$0, (%rax,%rcx,4)
# %bb.50:                               # %for.inc118
                                        #   in Loop: Header=BB13_48 Depth=1
	movl	-4(%rbp), %eax
	addl	$1, %eax
	movl	%eax, -4(%rbp)
	jmp	.LBB13_48
.LBB13_51:                              # %for.end120
	movq	img, %rax
	cmpl	$1, 24(%rax)
	jne	.LBB13_57
# %bb.52:                               # %if.then123
	movl	$0, -4(%rbp)
.LBB13_53:                              # %for.cond124
                                        # =>This Inner Loop Header: Depth=1
	movl	-4(%rbp), %eax
	movq	img, %rcx
	movl	72004(%rcx), %ecx
	addl	$1, %ecx
	cmpl	%ecx, %eax
	jge	.LBB13_56
# %bb.54:                               # %for.body128
                                        #   in Loop: Header=BB13_53 Depth=1
	movq	-16(%rbp), %rax
	movq	96(%rax), %rax
	movslq	-4(%rbp), %rcx
	movl	$3, (%rax,%rcx,4)
	movq	-16(%rbp), %rax
	movq	104(%rax), %rax
	movslq	-4(%rbp), %rcx
	movl	$0, (%rax,%rcx,4)
	movq	-16(%rbp), %rax
	movq	112(%rax), %rax
	movslq	-4(%rbp), %rcx
	movl	$0, (%rax,%rcx,4)
# %bb.55:                               # %for.inc135
                                        #   in Loop: Header=BB13_53 Depth=1
	movl	-4(%rbp), %eax
	addl	$1, %eax
	movl	%eax, -4(%rbp)
	jmp	.LBB13_53
.LBB13_56:                              # %for.end137
	jmp	.LBB13_57
.LBB13_57:                              # %if.end138
	jmp	.LBB13_58
.LBB13_58:                              # %if.end139
	movq	img, %rax
	cmpl	$2, 24(%rax)
	je	.LBB13_63
# %bb.59:                               # %land.lhs.true142
	movq	img, %rax
	cmpl	$4, 24(%rax)
	je	.LBB13_63
# %bb.60:                               # %if.then145
	movq	img, %rax
	movl	72000(%rax), %eax
	movl	%eax, -24(%rbp)
	movq	listX, %rdi
	movl	-24(%rbp), %esi
	movq	-16(%rbp), %rax
	movq	64(%rax), %rdx
	movq	-16(%rbp), %rax
	movq	72(%rax), %rcx
	movq	-16(%rbp), %rax
	movq	80(%rax), %r8
	xorl	%r9d, %r9d
	movl	$0, (%rsp)
	callq	poc_ref_pic_reorder
	movq	listX, %rdi
	movq	img, %rax
	movl	72000(%rax), %edx
	subl	$1, %edx
	movq	-16(%rbp), %rax
	movq	64(%rax), %rcx
	movq	-16(%rbp), %rax
	movq	72(%rax), %r8
	movq	-16(%rbp), %rax
	movq	80(%rax), %r9
	movabsq	$listXsize, %rsi
	callq	reorder_ref_pic_list
	movq	img, %rax
	cmpl	$1, 24(%rax)
	jne	.LBB13_62
# %bb.61:                               # %if.then157
	movq	img, %rax
	movl	72004(%rax), %eax
	movl	%eax, -24(%rbp)
	movq	listX+8, %rdi
	movl	-24(%rbp), %esi
	movq	-16(%rbp), %rax
	movq	96(%rax), %rdx
	movq	-16(%rbp), %rax
	movq	104(%rax), %rcx
	movq	-16(%rbp), %rax
	movq	112(%rax), %r8
	xorl	%r9d, %r9d
	movl	$1, (%rsp)
	callq	poc_ref_pic_reorder
	movabsq	$listXsize, %rsi
	addq	$4, %rsi
	movq	listX+8, %rdi
	movq	img, %rax
	movl	72004(%rax), %edx
	subl	$1, %edx
	movq	-16(%rbp), %rax
	movq	96(%rax), %rcx
	movq	-16(%rbp), %rax
	movq	104(%rax), %r8
	movq	-16(%rbp), %rax
	movq	112(%rax), %r9
	callq	reorder_ref_pic_list
.LBB13_62:                              # %if.end167
	jmp	.LBB13_63
.LBB13_63:                              # %if.end168
	jmp	.LBB13_64
.LBB13_64:                              # %if.end169
	movq	img, %rax
	cmpl	$0, 28(%rax)
	jne	.LBB13_66
# %bb.65:                               # %if.then172
	movb	$0, %al
	callq	init_mbaff_lists
.LBB13_66:                              # %if.end173
	movq	img, %rax
	cmpl	$2, 24(%rax)
	je	.LBB13_82
# %bb.67:                               # %land.lhs.true176
	movq	active_pps, %rax
	cmpl	$1, 192(%rax)
	je	.LBB13_70
# %bb.68:                               # %lor.lhs.false178
	movq	active_pps, %rax
	cmpl	$0, 196(%rax)
	jbe	.LBB13_82
# %bb.69:                               # %land.lhs.true180
	movq	img, %rax
	cmpl	$1, 24(%rax)
	jne	.LBB13_82
.LBB13_70:                              # %if.then183
	movq	img, %rax
	cmpl	$0, 24(%rax)
	je	.LBB13_72
# %bb.71:                               # %lor.lhs.false186
	movq	img, %rax
	cmpl	$3, 24(%rax)
	jne	.LBB13_80
.LBB13_72:                              # %if.then189
	movq	input, %rax
	cmpl	$0, 60(%rax)
	je	.LBB13_78
# %bb.73:                               # %land.lhs.true191
	movq	input, %rax
	cmpl	$0, 1296(%rax)
	je	.LBB13_78
# %bb.74:                               # %if.then193
	movq	enc_picture, %rax
	cmpq	enc_frame_picture2, %rax
	jne	.LBB13_76
# %bb.75:                               # %if.then195
	xorl	%edi, %edi
	callq	estimate_weighting_factor_P_slice
	jmp	.LBB13_77
.LBB13_76:                              # %if.else196
	movl	$1, %edi
	callq	estimate_weighting_factor_P_slice
.LBB13_77:                              # %if.end197
	jmp	.LBB13_79
.LBB13_78:                              # %if.else198
	xorl	%edi, %edi
	callq	estimate_weighting_factor_P_slice
.LBB13_79:                              # %if.end199
	jmp	.LBB13_81
.LBB13_80:                              # %if.else200
	movb	$0, %al
	callq	estimate_weighting_factor_B_slice
.LBB13_81:                              # %if.end201
	jmp	.LBB13_82
.LBB13_82:                              # %if.end202
	callq	set_ref_pic_num
	movq	img, %rax
	cmpl	$1, 24(%rax)
	jne	.LBB13_84
# %bb.83:                               # %if.then205
	movq	Co_located, %rdi
	movabsq	$listX, %rsi
	callq	compute_colocated
.LBB13_84:                              # %if.end206
	cmpl	$546834177, -60(%rbp)   # imm = 0x20980701
	jne	.LBB13_86
.LBB13_85:
	addq	$80, %rsp
	popq	%rbp
	.cfi_def_cfa %rsp, 8
	retq
.LBB13_86:                              # %func_exit
	.cfi_def_cfa %rbp, 16
	callq	detect_breach
	jmp	.LBB13_85
.Lfunc_end13:
	.size	init_slice.3, .Lfunc_end13-init_slice.3
	.cfi_endproc
                                        # -- End function
	.p2align	4, 0x90         # -- Begin function init_slice.4
	.type	init_slice.4,@function
init_slice.4:                           # @init_slice.4
	.cfi_startproc
# %bb.0:                                # %entry
	pushq	%rbp
	.cfi_def_cfa_offset 16
	.cfi_offset %rbp, -16
	movq	%rsp, %rbp
	.cfi_def_cfa_register %rbp
	subq	$80, %rsp
	movl	$2075512727, -60(%rbp)  # imm = 0x7BB5CF97
	movl	%edi, -36(%rbp)
	movq	img, %rax
	movq	14152(%rax), %rax
	movq	%rax, -32(%rbp)
	movl	-36(%rbp), %eax
	movq	img, %rcx
	movl	%eax, 12(%rcx)
	movq	-32(%rbp), %rax
	movl	(%rax), %ecx
	addl	$1, %ecx
	movl	%ecx, (%rax)
	movq	-32(%rbp), %rax
	cmpl	$100, (%rax)
	jl	.LBB14_2
# %bb.1:                                # %if.then
	movabsq	$.L.str.1, %rdi
	movl	$4294967295, %esi       # imm = 0xFFFFFFFF
	callq	error
.LBB14_2:                               # %if.end
	callq	malloc_slice
	movq	-32(%rbp), %rcx
	movq	-32(%rbp), %rdx
	movl	(%rdx), %edx
	subl	$1, %edx
	movslq	%edx, %rdx
	movq	%rax, 8(%rcx,%rdx,8)
	movq	-32(%rbp), %rax
	movq	-32(%rbp), %rcx
	movl	(%rcx), %ecx
	subl	$1, %ecx
	movslq	%ecx, %rcx
	movq	8(%rax,%rcx,8), %rax
	movq	%rax, -16(%rbp)
	movq	-16(%rbp), %rax
	movq	img, %rcx
	movq	%rax, 14160(%rcx)
	movq	img, %rax
	movl	71792(%rax), %eax
	cltd
	movl	$256, %ecx              # imm = 0x100
	idivl	%ecx
	movq	-16(%rbp), %rax
	movl	%edx, (%rax)
	movq	img, %rax
	movl	40(%rax), %eax
	movq	-16(%rbp), %rcx
	movl	%eax, 4(%rcx)
	movl	-36(%rbp), %eax
	movq	-16(%rbp), %rcx
	movl	%eax, 12(%rcx)
	movq	-16(%rbp), %rax
	movabsq	$dummy_slice_too_big, %rcx
	movq	%rcx, 120(%rax)
	movl	$0, -20(%rbp)
.LBB14_3:                               # %for.cond
                                        # =>This Inner Loop Header: Depth=1
	movl	-20(%rbp), %eax
	movq	-16(%rbp), %rcx
	cmpl	16(%rcx), %eax
	jge	.LBB14_9
# %bb.4:                                # %for.body
                                        #   in Loop: Header=BB14_3 Depth=1
	movq	-16(%rbp), %rax
	movq	24(%rax), %rax
	movslq	-20(%rbp), %rcx
	imulq	$120, %rcx, %rcx
	addq	%rcx, %rax
	movq	%rax, -48(%rbp)
	movq	input, %rax
	cmpl	$0, 2356(%rax)
	jne	.LBB14_6
# %bb.5:                                # %if.then13
                                        #   in Loop: Header=BB14_3 Depth=1
	movq	-48(%rbp), %rax
	movabsq	$writeSyntaxElement_UVLC, %rcx
	movq	%rcx, 112(%rax)
	jmp	.LBB14_7
.LBB14_6:                               # %if.else
                                        #   in Loop: Header=BB14_3 Depth=1
	movq	-48(%rbp), %rax
	movabsq	$writeSyntaxElement_CABAC, %rcx
	movq	%rcx, 112(%rax)
.LBB14_7:                               # %if.end15
                                        #   in Loop: Header=BB14_3 Depth=1
	movq	-48(%rbp), %rax
	movq	(%rax), %rax
	movq	%rax, -56(%rbp)
	movq	-56(%rbp), %rax
	movl	$8, 4(%rax)
	movq	-56(%rbp), %rax
	movl	$0, (%rax)
	movq	-56(%rbp), %rax
	movb	$0, 8(%rax)
# %bb.8:                                # %for.inc
                                        #   in Loop: Header=BB14_3 Depth=1
	movl	-20(%rbp), %eax
	addl	$1, %eax
	movl	%eax, -20(%rbp)
	jmp	.LBB14_3
.LBB14_9:                               # %for.end
	movq	active_pps, %rax
	movl	184(%rax), %eax
	addl	$1, %eax
	movq	img, %rcx
	movl	%eax, 72000(%rcx)
	movq	active_pps, %rax
	movl	188(%rax), %eax
	addl	$1, %eax
	movq	img, %rcx
	movl	%eax, 72004(%rcx)
	movq	img, %rax
	movl	24(%rax), %edi
	movq	img, %rax
	movl	28(%rax), %esi
	callq	init_lists
	movl	listXsize, %eax
	movq	img, %rcx
	movl	%eax, 72000(%rcx)
	movl	listXsize+4, %eax
	movq	img, %rcx
	movl	%eax, 72004(%rcx)
	movq	img, %rax
	cmpl	$0, 24(%rax)
	je	.LBB14_11
# %bb.10:                               # %lor.lhs.false
	movq	img, %rax
	cmpl	$3, 24(%rax)
	jne	.LBB14_19
.LBB14_11:                              # %land.lhs.true
	movq	input, %rax
	cmpl	$0, 40(%rax)
	je	.LBB14_19
# %bb.12:                               # %if.then24
	movq	img, %rax
	movl	72000(%rax), %eax
	movq	input, %rcx
	cmpl	40(%rcx), %eax
	jge	.LBB14_14
# %bb.13:                               # %cond.true
	movq	img, %rax
	movl	72000(%rax), %eax
	jmp	.LBB14_15
.LBB14_14:                              # %cond.false
	movq	input, %rax
	movl	40(%rax), %eax
.LBB14_15:                              # %cond.end
	movq	img, %rcx
	movl	%eax, 72000(%rcx)
	movl	listXsize, %eax
	movq	input, %rcx
	cmpl	40(%rcx), %eax
	jge	.LBB14_17
# %bb.16:                               # %cond.true33
	movl	listXsize, %eax
	jmp	.LBB14_18
.LBB14_17:                              # %cond.false34
	movq	input, %rax
	movl	40(%rax), %eax
.LBB14_18:                              # %cond.end36
	movl	%eax, listXsize
.LBB14_19:                              # %if.end38
	movq	img, %rax
	cmpl	$1, 24(%rax)
	jne	.LBB14_37
# %bb.20:                               # %if.then41
	movq	input, %rax
	cmpl	$0, 44(%rax)
	je	.LBB14_28
# %bb.21:                               # %if.then43
	movq	img, %rax
	movl	72000(%rax), %eax
	movq	input, %rcx
	cmpl	44(%rcx), %eax
	jge	.LBB14_23
# %bb.22:                               # %cond.true47
	movq	img, %rax
	movl	72000(%rax), %eax
	jmp	.LBB14_24
.LBB14_23:                              # %cond.false49
	movq	input, %rax
	movl	44(%rax), %eax
.LBB14_24:                              # %cond.end51
	movq	img, %rcx
	movl	%eax, 72000(%rcx)
	movl	listXsize, %eax
	movq	input, %rcx
	cmpl	44(%rcx), %eax
	jge	.LBB14_26
# %bb.25:                               # %cond.true56
	movl	listXsize, %eax
	jmp	.LBB14_27
.LBB14_26:                              # %cond.false57
	movq	input, %rax
	movl	44(%rax), %eax
.LBB14_27:                              # %cond.end59
	movl	%eax, listXsize
.LBB14_28:                              # %if.end61
	movq	input, %rax
	cmpl	$0, 48(%rax)
	je	.LBB14_36
# %bb.29:                               # %if.then63
	movq	img, %rax
	movl	72004(%rax), %eax
	movq	input, %rcx
	cmpl	48(%rcx), %eax
	jge	.LBB14_31
# %bb.30:                               # %cond.true67
	movq	img, %rax
	movl	72004(%rax), %eax
	jmp	.LBB14_32
.LBB14_31:                              # %cond.false69
	movq	input, %rax
	movl	48(%rax), %eax
.LBB14_32:                              # %cond.end71
	movq	img, %rcx
	movl	%eax, 72004(%rcx)
	movl	listXsize+4, %eax
	movq	input, %rcx
	cmpl	48(%rcx), %eax
	jge	.LBB14_34
# %bb.33:                               # %cond.true76
	movl	listXsize+4, %eax
	jmp	.LBB14_35
.LBB14_34:                              # %cond.false77
	movq	input, %rax
	movl	48(%rax), %eax
.LBB14_35:                              # %cond.end79
	movl	%eax, listXsize+4
.LBB14_36:                              # %if.end81
	jmp	.LBB14_37
.LBB14_37:                              # %if.end82
	movq	img, %rax
	cmpl	$0, 72496(%rax)
	je	.LBB14_42
# %bb.38:                               # %land.lhs.true84
	movq	input, %rax
	cmpl	$0, 1320(%rax)
	je	.LBB14_42
# %bb.39:                               # %land.lhs.true86
	movq	input, %rax
	cmpl	$0, 2352(%rax)
	je	.LBB14_42
# %bb.40:                               # %land.lhs.true88
	movl	dpb+28, %eax
	cmpl	dpb+24, %eax
	jne	.LBB14_42
# %bb.41:                               # %if.then90
	movq	img, %rax
	movl	72464(%rax), %edi
	callq	poc_based_ref_management
.LBB14_42:                              # %if.end91
	callq	init_ref_pic_list_reordering
	movq	img, %rax
	cmpl	$0, 24(%rax)
	jne	.LBB14_64
# %bb.43:                               # %land.lhs.true94
	movq	input, %rax
	cmpl	$0, 1320(%rax)
	je	.LBB14_64
# %bb.44:                               # %land.lhs.true97
	movq	input, %rax
	cmpl	$0, 2348(%rax)
	je	.LBB14_64
# %bb.45:                               # %if.then99
	movq	-16(%rbp), %rdi
	callq	alloc_ref_pic_list_reordering_buffer
	movq	img, %rax
	cmpl	$2, 24(%rax)
	je	.LBB14_58
# %bb.46:                               # %land.lhs.true103
	movq	img, %rax
	cmpl	$4, 24(%rax)
	je	.LBB14_58
# %bb.47:                               # %if.then106
	movl	$0, -4(%rbp)
.LBB14_48:                              # %for.cond107
                                        # =>This Inner Loop Header: Depth=1
	movl	-4(%rbp), %eax
	movq	img, %rcx
	movl	72000(%rcx), %ecx
	addl	$1, %ecx
	cmpl	%ecx, %eax
	jge	.LBB14_51
# %bb.49:                               # %for.body111
                                        #   in Loop: Header=BB14_48 Depth=1
	movq	-16(%rbp), %rax
	movq	64(%rax), %rax
	movslq	-4(%rbp), %rcx
	movl	$3, (%rax,%rcx,4)
	movq	-16(%rbp), %rax
	movq	72(%rax), %rax
	movslq	-4(%rbp), %rcx
	movl	$0, (%rax,%rcx,4)
	movq	-16(%rbp), %rax
	movq	80(%rax), %rax
	movslq	-4(%rbp), %rcx
	movl	$0, (%rax,%rcx,4)
# %bb.50:                               # %for.inc118
                                        #   in Loop: Header=BB14_48 Depth=1
	movl	-4(%rbp), %eax
	addl	$1, %eax
	movl	%eax, -4(%rbp)
	jmp	.LBB14_48
.LBB14_51:                              # %for.end120
	movq	img, %rax
	cmpl	$1, 24(%rax)
	jne	.LBB14_57
# %bb.52:                               # %if.then123
	movl	$0, -4(%rbp)
.LBB14_53:                              # %for.cond124
                                        # =>This Inner Loop Header: Depth=1
	movl	-4(%rbp), %eax
	movq	img, %rcx
	movl	72004(%rcx), %ecx
	addl	$1, %ecx
	cmpl	%ecx, %eax
	jge	.LBB14_56
# %bb.54:                               # %for.body128
                                        #   in Loop: Header=BB14_53 Depth=1
	movq	-16(%rbp), %rax
	movq	96(%rax), %rax
	movslq	-4(%rbp), %rcx
	movl	$3, (%rax,%rcx,4)
	movq	-16(%rbp), %rax
	movq	104(%rax), %rax
	movslq	-4(%rbp), %rcx
	movl	$0, (%rax,%rcx,4)
	movq	-16(%rbp), %rax
	movq	112(%rax), %rax
	movslq	-4(%rbp), %rcx
	movl	$0, (%rax,%rcx,4)
# %bb.55:                               # %for.inc135
                                        #   in Loop: Header=BB14_53 Depth=1
	movl	-4(%rbp), %eax
	addl	$1, %eax
	movl	%eax, -4(%rbp)
	jmp	.LBB14_53
.LBB14_56:                              # %for.end137
	jmp	.LBB14_57
.LBB14_57:                              # %if.end138
	jmp	.LBB14_58
.LBB14_58:                              # %if.end139
	movq	img, %rax
	cmpl	$2, 24(%rax)
	je	.LBB14_63
# %bb.59:                               # %land.lhs.true142
	movq	img, %rax
	cmpl	$4, 24(%rax)
	je	.LBB14_63
# %bb.60:                               # %if.then145
	movq	img, %rax
	movl	72000(%rax), %eax
	movl	%eax, -24(%rbp)
	movq	listX, %rdi
	movl	-24(%rbp), %esi
	movq	-16(%rbp), %rax
	movq	64(%rax), %rdx
	movq	-16(%rbp), %rax
	movq	72(%rax), %rcx
	movq	-16(%rbp), %rax
	movq	80(%rax), %r8
	xorl	%r9d, %r9d
	movl	$0, (%rsp)
	callq	poc_ref_pic_reorder
	movq	listX, %rdi
	movq	img, %rax
	movl	72000(%rax), %edx
	subl	$1, %edx
	movq	-16(%rbp), %rax
	movq	64(%rax), %rcx
	movq	-16(%rbp), %rax
	movq	72(%rax), %r8
	movq	-16(%rbp), %rax
	movq	80(%rax), %r9
	movabsq	$listXsize, %rsi
	callq	reorder_ref_pic_list
	movq	img, %rax
	cmpl	$1, 24(%rax)
	jne	.LBB14_62
# %bb.61:                               # %if.then157
	movq	img, %rax
	movl	72004(%rax), %eax
	movl	%eax, -24(%rbp)
	movq	listX+8, %rdi
	movl	-24(%rbp), %esi
	movq	-16(%rbp), %rax
	movq	96(%rax), %rdx
	movq	-16(%rbp), %rax
	movq	104(%rax), %rcx
	movq	-16(%rbp), %rax
	movq	112(%rax), %r8
	xorl	%r9d, %r9d
	movl	$1, (%rsp)
	callq	poc_ref_pic_reorder
	movabsq	$listXsize, %rsi
	addq	$4, %rsi
	movq	listX+8, %rdi
	movq	img, %rax
	movl	72004(%rax), %edx
	subl	$1, %edx
	movq	-16(%rbp), %rax
	movq	96(%rax), %rcx
	movq	-16(%rbp), %rax
	movq	104(%rax), %r8
	movq	-16(%rbp), %rax
	movq	112(%rax), %r9
	callq	reorder_ref_pic_list
.LBB14_62:                              # %if.end167
	jmp	.LBB14_63
.LBB14_63:                              # %if.end168
	jmp	.LBB14_64
.LBB14_64:                              # %if.end169
	movq	img, %rax
	cmpl	$0, 28(%rax)
	jne	.LBB14_66
# %bb.65:                               # %if.then172
	movb	$0, %al
	callq	init_mbaff_lists
.LBB14_66:                              # %if.end173
	movq	img, %rax
	cmpl	$2, 24(%rax)
	je	.LBB14_82
# %bb.67:                               # %land.lhs.true176
	movq	active_pps, %rax
	cmpl	$1, 192(%rax)
	je	.LBB14_70
# %bb.68:                               # %lor.lhs.false178
	movq	active_pps, %rax
	cmpl	$0, 196(%rax)
	jbe	.LBB14_82
# %bb.69:                               # %land.lhs.true180
	movq	img, %rax
	cmpl	$1, 24(%rax)
	jne	.LBB14_82
.LBB14_70:                              # %if.then183
	movq	img, %rax
	cmpl	$0, 24(%rax)
	je	.LBB14_72
# %bb.71:                               # %lor.lhs.false186
	movq	img, %rax
	cmpl	$3, 24(%rax)
	jne	.LBB14_80
.LBB14_72:                              # %if.then189
	movq	input, %rax
	cmpl	$0, 60(%rax)
	je	.LBB14_78
# %bb.73:                               # %land.lhs.true191
	movq	input, %rax
	cmpl	$0, 1296(%rax)
	je	.LBB14_78
# %bb.74:                               # %if.then193
	movq	enc_picture, %rax
	cmpq	enc_frame_picture2, %rax
	jne	.LBB14_76
# %bb.75:                               # %if.then195
	xorl	%edi, %edi
	callq	estimate_weighting_factor_P_slice
	jmp	.LBB14_77
.LBB14_76:                              # %if.else196
	movl	$1, %edi
	callq	estimate_weighting_factor_P_slice
.LBB14_77:                              # %if.end197
	jmp	.LBB14_79
.LBB14_78:                              # %if.else198
	xorl	%edi, %edi
	callq	estimate_weighting_factor_P_slice
.LBB14_79:                              # %if.end199
	jmp	.LBB14_81
.LBB14_80:                              # %if.else200
	movb	$0, %al
	callq	estimate_weighting_factor_B_slice
.LBB14_81:                              # %if.end201
	jmp	.LBB14_82
.LBB14_82:                              # %if.end202
	callq	set_ref_pic_num
	movq	img, %rax
	cmpl	$1, 24(%rax)
	jne	.LBB14_84
# %bb.83:                               # %if.then205
	movq	Co_located, %rdi
	movabsq	$listX, %rsi
	callq	compute_colocated
.LBB14_84:                              # %if.end206
	cmpl	$2075512727, -60(%rbp)  # imm = 0x7BB5CF97
	jne	.LBB14_86
.LBB14_85:
	addq	$80, %rsp
	popq	%rbp
	.cfi_def_cfa %rsp, 8
	retq
.LBB14_86:                              # %func_exit
	.cfi_def_cfa %rbp, 16
	callq	detect_breach
	jmp	.LBB14_85
.Lfunc_end14:
	.size	init_slice.4, .Lfunc_end14-init_slice.4
	.cfi_endproc
                                        # -- End function
	.p2align	4, 0x90         # -- Begin function malloc_slice.5
	.type	malloc_slice.5,@function
malloc_slice.5:                         # @malloc_slice.5
	.cfi_startproc
# %bb.0:                                # %entry
	pushq	%rbp
	.cfi_def_cfa_offset 16
	.cfi_offset %rbp, -16
	movq	%rsp, %rbp
	.cfi_def_cfa_register %rbp
	pushq	%rbx
	subq	$40, %rsp
	.cfi_offset %rbx, -24
	movl	$2066064313, -24(%rbp)  # imm = 0x7B25A3B9
	movq	img, %rax
	movl	52(%rax), %eax
	movq	img, %rcx
	imull	60(%rcx), %eax
	shll	$2, %eax
	movl	%eax, -28(%rbp)
	movl	$1, %edi
	movl	$152, %esi
	callq	calloc
	movq	%rax, -16(%rbp)
	cmpq	$0, %rax
	jne	.LBB15_2
# %bb.1:                                # %if.then
	movabsq	$.L.str.2, %rdi
	callq	no_mem_exit
.LBB15_2:                               # %if.end
	movq	input, %rax
	cmpl	$1, 2356(%rax)
	jne	.LBB15_4
# %bb.3:                                # %if.then3
	callq	create_contexts_MotionInfo
	movq	-16(%rbp), %rcx
	movq	%rax, 32(%rcx)
	callq	create_contexts_TextureInfo
	movq	-16(%rbp), %rcx
	movq	%rax, 40(%rcx)
.LBB15_4:                               # %if.end6
	movq	input, %rax
	movl	2364(%rax), %eax
	cmpl	$0, %eax
	movl	$1, %eax
	movl	$3, %ecx
	cmovel	%eax, %ecx
	movq	-16(%rbp), %rax
	movl	%ecx, 16(%rax)
	movq	img, %rax
	movq	14152(%rax), %rax
	cmpl	$0, 4(%rax)
	je	.LBB15_6
# %bb.5:                                # %if.then8
	movq	-16(%rbp), %rax
	movl	$1, 16(%rax)
.LBB15_6:                               # %if.end10
	movabsq	$assignSE2partition_NoDP, %rax
	movq	%rax, assignSE2partition
	movq	img, %rax
	movq	14152(%rax), %rax
	cmpl	$0, 4(%rax)
	jne	.LBB15_9
# %bb.7:                                # %land.lhs.true
	movq	input, %rax
	cmpl	$1, 2364(%rax)
	jne	.LBB15_9
# %bb.8:                                # %if.then16
	movabsq	$assignSE2partition_DP, %rax
	movq	%rax, assignSE2partition+8
	jmp	.LBB15_10
.LBB15_9:                               # %if.else
	movabsq	$assignSE2partition_NoDP, %rax
	movq	%rax, assignSE2partition+8
.LBB15_10:                              # %if.end17
	movq	-16(%rbp), %rax
	movl	$0, 20(%rax)
	movq	-16(%rbp), %rax
	movslq	16(%rax), %rdi
	movl	$120, %esi
	callq	calloc
	movq	-16(%rbp), %rcx
	movq	%rax, 24(%rcx)
	cmpq	$0, %rax
	jne	.LBB15_12
# %bb.11:                               # %if.then22
	movabsq	$.L.str.3, %rdi
	callq	no_mem_exit
.LBB15_12:                              # %if.end23
	movl	$0, -20(%rbp)
.LBB15_13:                              # %for.cond
                                        # =>This Inner Loop Header: Depth=1
	movl	-20(%rbp), %eax
	movq	-16(%rbp), %rcx
	cmpl	16(%rcx), %eax
	jge	.LBB15_20
# %bb.14:                               # %for.body
                                        #   in Loop: Header=BB15_13 Depth=1
	movq	-16(%rbp), %rax
	movq	24(%rax), %rax
	movslq	-20(%rbp), %rcx
	imulq	$120, %rcx, %rcx
	addq	%rcx, %rax
	movq	%rax, -40(%rbp)
	movl	$1, %edi
	movl	$48, %esi
	callq	calloc
	movq	-40(%rbp), %rcx
	movq	%rax, (%rcx)
	cmpq	$0, %rax
	jne	.LBB15_16
# %bb.15:                               # %if.then31
                                        #   in Loop: Header=BB15_13 Depth=1
	movabsq	$.L.str.4, %rdi
	callq	no_mem_exit
.LBB15_16:                              # %if.end32
                                        #   in Loop: Header=BB15_13 Depth=1
	movslq	-28(%rbp), %rdi
	movl	$1, %esi
	callq	calloc
	movq	-40(%rbp), %rcx
	movq	(%rcx), %rcx
	movq	%rax, 32(%rcx)
	cmpq	$0, %rax
	jne	.LBB15_18
# %bb.17:                               # %if.then38
                                        #   in Loop: Header=BB15_13 Depth=1
	movabsq	$.L.str.5, %rdi
	callq	no_mem_exit
.LBB15_18:                              # %if.end39
                                        #   in Loop: Header=BB15_13 Depth=1
	jmp	.LBB15_19
.LBB15_19:                              # %for.inc
                                        #   in Loop: Header=BB15_13 Depth=1
	movl	-20(%rbp), %eax
	addl	$1, %eax
	movl	%eax, -20(%rbp)
	jmp	.LBB15_13
.LBB15_20:                              # %for.end
	movq	-16(%rbp), %rbx
	cmpl	$2066064313, -24(%rbp)  # imm = 0x7B25A3B9
	jne	.LBB15_22
.LBB15_21:
	movq	%rbx, %rax
	addq	$40, %rsp
	popq	%rbx
	popq	%rbp
	.cfi_def_cfa %rsp, 8
	retq
.LBB15_22:                              # %func_exit
	.cfi_def_cfa %rbp, 16
	callq	detect_breach
	jmp	.LBB15_21
.Lfunc_end15:
	.size	malloc_slice.5, .Lfunc_end15-malloc_slice.5
	.cfi_endproc
                                        # -- End function
	.globl	poc_ref_pic_reorder.6   # -- Begin function poc_ref_pic_reorder.6
	.p2align	4, 0x90
	.type	poc_ref_pic_reorder.6,@function
poc_ref_pic_reorder.6:                  # @poc_ref_pic_reorder.6
	.cfi_startproc
# %bb.0:                                # %entry
	pushq	%rbp
	.cfi_def_cfa_offset 16
	.cfi_offset %rbp, -16
	movq	%rsp, %rbp
	.cfi_def_cfa_register %rbp
	subq	$736, %rsp              # imm = 0x2E0
	movl	16(%rbp), %eax
	movl	$1236552238, -72(%rbp)  # imm = 0x49B44A2E
	movq	%rdi, -80(%rbp)
	movl	%esi, -12(%rbp)
	movq	%rdx, -64(%rbp)
	movq	%rcx, -56(%rbp)
	movq	%r8, -96(%rbp)
	movl	%r9d, -84(%rbp)
	movl	log2_max_frame_num_minus4, %ecx
	addl	$4, %ecx
                                        # kill: def $cl killed $ecx
	movl	$1, %eax
	shll	%cl, %eax
	movl	%eax, -28(%rbp)
	movq	img, %rax
	cmpl	$0, 28(%rax)
	jne	.LBB16_2
# %bb.1:                                # %if.then
	movl	-28(%rbp), %eax
	movl	%eax, -44(%rbp)
	movq	img, %rax
	movl	72464(%rax), %eax
	movl	%eax, -40(%rbp)
	jmp	.LBB16_3
.LBB16_2:                               # %if.else
	movl	-28(%rbp), %eax
	shll	$1, %eax
	movl	%eax, -44(%rbp)
	movq	img, %rax
	movl	72464(%rax), %eax
	shll	$1, %eax
	addl	$1, %eax
	movl	%eax, -40(%rbp)
.LBB16_3:                               # %if.end
	movl	-40(%rbp), %eax
	movl	%eax, -48(%rbp)
	movl	$0, -4(%rbp)
.LBB16_4:                               # %for.cond
                                        # =>This Inner Loop Header: Depth=1
	movl	-4(%rbp), %eax
	cmpl	-12(%rbp), %eax
	jae	.LBB16_7
# %bb.5:                                # %for.body
                                        #   in Loop: Header=BB16_4 Depth=1
	movq	-80(%rbp), %rax
	movl	-4(%rbp), %ecx
	movq	(%rax,%rcx,8), %rax
	movl	6364(%rax), %eax
	movl	-4(%rbp), %ecx
	movl	%eax, -608(%rbp,%rcx,4)
# %bb.6:                                # %for.inc
                                        #   in Loop: Header=BB16_4 Depth=1
	movl	-4(%rbp), %eax
	addl	$1, %eax
	movl	%eax, -4(%rbp)
	jmp	.LBB16_4
.LBB16_7:                               # %for.end
	movl	$0, -4(%rbp)
.LBB16_8:                               # %for.cond7
                                        # =>This Inner Loop Header: Depth=1
	movl	-4(%rbp), %eax
	cmpl	dpb+32, %eax
	jae	.LBB16_24
# %bb.9:                                # %for.body9
                                        #   in Loop: Header=BB16_8 Depth=1
	movq	dpb+8, %rax
	movl	-4(%rbp), %ecx
	movq	(%rax,%rcx,8), %rax
	movq	40(%rax), %rax
	movl	6364(%rax), %eax
	movl	-4(%rbp), %ecx
	movl	%eax, -224(%rbp,%rcx,4)
	movq	dpb+8, %rax
	movl	-4(%rbp), %ecx
	movq	(%rax,%rcx,8), %rax
	cmpl	$3, (%rax)
	jne	.LBB16_22
# %bb.10:                               # %land.lhs.true
                                        #   in Loop: Header=BB16_8 Depth=1
	movq	dpb+8, %rax
	movl	-4(%rbp), %ecx
	movq	(%rax,%rcx,8), %rax
	movq	40(%rax), %rax
	cmpl	$0, 6380(%rax)
	je	.LBB16_22
# %bb.11:                               # %land.lhs.true21
                                        #   in Loop: Header=BB16_8 Depth=1
	movq	dpb+8, %rax
	movl	-4(%rbp), %ecx
	movq	(%rax,%rcx,8), %rax
	movq	40(%rax), %rax
	cmpl	$0, 6376(%rax)
	jne	.LBB16_22
# %bb.12:                               # %if.then26
                                        #   in Loop: Header=BB16_8 Depth=1
	movq	dpb+8, %rax
	movl	-4(%rbp), %ecx
	movq	(%rax,%rcx,8), %rax
	movq	40(%rax), %rax
	movl	4(%rax), %edi
	movq	enc_picture, %rax
	subl	4(%rax), %edi
	callq	abs
	movl	%eax, -68(%rbp)
	movl	-68(%rbp), %eax
	movl	-4(%rbp), %ecx
	movl	%eax, -480(%rbp,%rcx,4)
	cmpl	$0, 16(%rbp)
	jne	.LBB16_17
# %bb.13:                               # %if.then34
                                        #   in Loop: Header=BB16_8 Depth=1
	movq	enc_picture, %rax
	movl	4(%rax), %eax
	movq	dpb+8, %rcx
	movl	-4(%rbp), %edx
	movq	(%rcx,%rdx,8), %rcx
	movq	40(%rcx), %rcx
	cmpl	4(%rcx), %eax
	jge	.LBB16_15
# %bb.14:                               # %if.then41
                                        #   in Loop: Header=BB16_8 Depth=1
	movl	-4(%rbp), %eax
	movl	$1, -352(%rbp,%rax,4)
	jmp	.LBB16_16
.LBB16_15:                              # %if.else44
                                        #   in Loop: Header=BB16_8 Depth=1
	movl	-4(%rbp), %eax
	movl	$-1, -352(%rbp,%rax,4)
.LBB16_16:                              # %if.end47
                                        #   in Loop: Header=BB16_8 Depth=1
	jmp	.LBB16_21
.LBB16_17:                              # %if.else48
                                        #   in Loop: Header=BB16_8 Depth=1
	movq	enc_picture, %rax
	movl	4(%rax), %eax
	movq	dpb+8, %rcx
	movl	-4(%rbp), %edx
	movq	(%rcx,%rdx,8), %rcx
	movq	40(%rcx), %rcx
	cmpl	4(%rcx), %eax
	jle	.LBB16_19
# %bb.18:                               # %if.then55
                                        #   in Loop: Header=BB16_8 Depth=1
	movl	-4(%rbp), %eax
	movl	$1, -352(%rbp,%rax,4)
	jmp	.LBB16_20
.LBB16_19:                              # %if.else58
                                        #   in Loop: Header=BB16_8 Depth=1
	movl	-4(%rbp), %eax
	movl	$-1, -352(%rbp,%rax,4)
.LBB16_20:                              # %if.end61
                                        #   in Loop: Header=BB16_8 Depth=1
	jmp	.LBB16_21
.LBB16_21:                              # %if.end62
                                        #   in Loop: Header=BB16_8 Depth=1
	jmp	.LBB16_22
.LBB16_22:                              # %if.end63
                                        #   in Loop: Header=BB16_8 Depth=1
	jmp	.LBB16_23
.LBB16_23:                              # %for.inc64
                                        #   in Loop: Header=BB16_8 Depth=1
	movl	-4(%rbp), %eax
	addl	$1, %eax
	movl	%eax, -4(%rbp)
	jmp	.LBB16_8
.LBB16_24:                              # %for.end66
	movl	$0, -4(%rbp)
.LBB16_25:                              # %for.cond67
                                        # =>This Loop Header: Depth=1
                                        #     Child Loop BB16_27 Depth 2
	movl	-4(%rbp), %eax
	movl	dpb+32, %ecx
	subl	$1, %ecx
	cmpl	%ecx, %eax
	jae	.LBB16_36
# %bb.26:                               # %for.body70
                                        #   in Loop: Header=BB16_25 Depth=1
	movl	-4(%rbp), %eax
	addl	$1, %eax
	movl	%eax, -8(%rbp)
.LBB16_27:                              # %for.cond72
                                        #   Parent Loop BB16_25 Depth=1
                                        # =>  This Inner Loop Header: Depth=2
	movl	-8(%rbp), %eax
	cmpl	dpb+32, %eax
	jae	.LBB16_34
# %bb.28:                               # %for.body74
                                        #   in Loop: Header=BB16_27 Depth=2
	movl	-4(%rbp), %eax
	movl	-480(%rbp,%rax,4), %eax
	movl	-8(%rbp), %ecx
	cmpl	-480(%rbp,%rcx,4), %eax
	jg	.LBB16_31
# %bb.29:                               # %lor.lhs.false
                                        #   in Loop: Header=BB16_27 Depth=2
	movl	-4(%rbp), %eax
	movl	-480(%rbp,%rax,4), %eax
	movl	-8(%rbp), %ecx
	cmpl	-480(%rbp,%rcx,4), %eax
	jne	.LBB16_32
# %bb.30:                               # %land.lhs.true85
                                        #   in Loop: Header=BB16_27 Depth=2
	movl	-8(%rbp), %eax
	movl	-352(%rbp,%rax,4), %eax
	movl	-4(%rbp), %ecx
	cmpl	-352(%rbp,%rcx,4), %eax
	jle	.LBB16_32
.LBB16_31:                              # %if.then91
                                        #   in Loop: Header=BB16_27 Depth=2
	movl	-4(%rbp), %eax
	movl	-480(%rbp,%rax,4), %eax
	movl	%eax, -16(%rbp)
	movl	-8(%rbp), %eax
	movl	-480(%rbp,%rax,4), %eax
	movl	-4(%rbp), %ecx
	movl	%eax, -480(%rbp,%rcx,4)
	movl	-16(%rbp), %eax
	movl	-8(%rbp), %ecx
	movl	%eax, -480(%rbp,%rcx,4)
	movl	-4(%rbp), %eax
	movl	-224(%rbp,%rax,4), %eax
	movl	%eax, -16(%rbp)
	movl	-8(%rbp), %eax
	movl	-224(%rbp,%rax,4), %eax
	movl	-4(%rbp), %ecx
	movl	%eax, -224(%rbp,%rcx,4)
	movl	-16(%rbp), %eax
	movl	-8(%rbp), %ecx
	movl	%eax, -224(%rbp,%rcx,4)
	movl	-4(%rbp), %eax
	movl	-352(%rbp,%rax,4), %eax
	movl	%eax, -16(%rbp)
	movl	-8(%rbp), %eax
	movl	-352(%rbp,%rax,4), %eax
	movl	-4(%rbp), %ecx
	movl	%eax, -352(%rbp,%rcx,4)
	movl	-16(%rbp), %eax
	movl	-8(%rbp), %ecx
	movl	%eax, -352(%rbp,%rcx,4)
.LBB16_32:                              # %if.end116
                                        #   in Loop: Header=BB16_27 Depth=2
	jmp	.LBB16_33
.LBB16_33:                              # %for.inc117
                                        #   in Loop: Header=BB16_27 Depth=2
	movl	-8(%rbp), %eax
	addl	$1, %eax
	movl	%eax, -8(%rbp)
	jmp	.LBB16_27
.LBB16_34:                              # %for.end119
                                        #   in Loop: Header=BB16_25 Depth=1
	jmp	.LBB16_35
.LBB16_35:                              # %for.inc120
                                        #   in Loop: Header=BB16_25 Depth=1
	movl	-4(%rbp), %eax
	addl	$1, %eax
	movl	%eax, -4(%rbp)
	jmp	.LBB16_25
.LBB16_36:                              # %for.end122
	movl	$1, -36(%rbp)
	movl	$0, -4(%rbp)
.LBB16_37:                              # %for.cond123
                                        # =>This Inner Loop Header: Depth=1
	movl	-4(%rbp), %eax
	cmpl	-12(%rbp), %eax
	jae	.LBB16_42
# %bb.38:                               # %for.body125
                                        #   in Loop: Header=BB16_37 Depth=1
	movl	-4(%rbp), %eax
	movl	-608(%rbp,%rax,4), %eax
	movl	-4(%rbp), %ecx
	cmpl	-224(%rbp,%rcx,4), %eax
	je	.LBB16_40
# %bb.39:                               # %if.then131
                                        #   in Loop: Header=BB16_37 Depth=1
	movl	$0, -36(%rbp)
.LBB16_40:                              # %if.end132
                                        #   in Loop: Header=BB16_37 Depth=1
	jmp	.LBB16_41
.LBB16_41:                              # %for.inc133
                                        #   in Loop: Header=BB16_37 Depth=1
	movl	-4(%rbp), %eax
	addl	$1, %eax
	movl	%eax, -4(%rbp)
	jmp	.LBB16_37
.LBB16_42:                              # %for.end135
	cmpl	$0, -36(%rbp)
	jne	.LBB16_80
# %bb.43:                               # %if.then137
	movl	$0, -4(%rbp)
.LBB16_44:                              # %for.cond138
                                        # =>This Loop Header: Depth=1
                                        #     Child Loop BB16_51 Depth 2
                                        #     Child Loop BB16_57 Depth 2
                                        #     Child Loop BB16_66 Depth 2
	movl	-4(%rbp), %eax
	cmpl	-12(%rbp), %eax
	jae	.LBB16_71
# %bb.45:                               # %for.body140
                                        #   in Loop: Header=BB16_44 Depth=1
	movl	-4(%rbp), %eax
	movl	-224(%rbp,%rax,4), %eax
	subl	-48(%rbp), %eax
	movl	%eax, -24(%rbp)
	cmpl	$0, -24(%rbp)
	jg	.LBB16_49
# %bb.46:                               # %if.then145
                                        #   in Loop: Header=BB16_44 Depth=1
	movq	-64(%rbp), %rax
	movl	-4(%rbp), %ecx
	movl	$0, (%rax,%rcx,4)
	movl	-24(%rbp), %edi
	callq	abs
	subl	$1, %eax
	movq	-56(%rbp), %rcx
	movl	-4(%rbp), %edx
	movl	%eax, (%rcx,%rdx,4)
	movq	-56(%rbp), %rax
	movl	-4(%rbp), %ecx
	cmpl	$0, (%rax,%rcx,4)
	jge	.LBB16_48
# %bb.47:                               # %if.then155
                                        #   in Loop: Header=BB16_44 Depth=1
	movl	-44(%rbp), %eax
	subl	$1, %eax
	movq	-56(%rbp), %rcx
	movl	-4(%rbp), %edx
	movl	%eax, (%rcx,%rdx,4)
.LBB16_48:                              # %if.end159
                                        #   in Loop: Header=BB16_44 Depth=1
	jmp	.LBB16_50
.LBB16_49:                              # %if.else160
                                        #   in Loop: Header=BB16_44 Depth=1
	movq	-64(%rbp), %rax
	movl	-4(%rbp), %ecx
	movl	$1, (%rax,%rcx,4)
	movl	-24(%rbp), %edi
	callq	abs
	subl	$1, %eax
	movq	-56(%rbp), %rcx
	movl	-4(%rbp), %edx
	movl	%eax, (%rcx,%rdx,4)
.LBB16_50:                              # %if.end167
                                        #   in Loop: Header=BB16_44 Depth=1
	movl	-4(%rbp), %eax
	movl	-224(%rbp,%rax,4), %eax
	movl	%eax, -48(%rbp)
	movl	-4(%rbp), %eax
	movl	-224(%rbp,%rax,4), %eax
	movl	-4(%rbp), %ecx
	movl	%eax, -736(%rbp,%rcx,4)
	movl	-4(%rbp), %eax
	movl	%eax, -20(%rbp)
	movl	-4(%rbp), %eax
	movl	%eax, -8(%rbp)
.LBB16_51:                              # %for.cond174
                                        #   Parent Loop BB16_44 Depth=1
                                        # =>  This Inner Loop Header: Depth=2
	movl	-8(%rbp), %eax
	cmpl	-12(%rbp), %eax
	jae	.LBB16_56
# %bb.52:                               # %for.body176
                                        #   in Loop: Header=BB16_51 Depth=2
	movl	-8(%rbp), %eax
	movl	-608(%rbp,%rax,4), %eax
	movl	-4(%rbp), %ecx
	cmpl	-224(%rbp,%rcx,4), %eax
	je	.LBB16_54
# %bb.53:                               # %if.then182
                                        #   in Loop: Header=BB16_51 Depth=2
	movl	-20(%rbp), %eax
	addl	$1, %eax
	movl	%eax, -20(%rbp)
	movl	-8(%rbp), %eax
	movl	-608(%rbp,%rax,4), %eax
	movl	-20(%rbp), %ecx
	movl	%eax, -736(%rbp,%rcx,4)
.LBB16_54:                              # %if.end188
                                        #   in Loop: Header=BB16_51 Depth=2
	jmp	.LBB16_55
.LBB16_55:                              # %for.inc189
                                        #   in Loop: Header=BB16_51 Depth=2
	movl	-8(%rbp), %eax
	addl	$1, %eax
	movl	%eax, -8(%rbp)
	jmp	.LBB16_51
.LBB16_56:                              # %for.end191
                                        #   in Loop: Header=BB16_44 Depth=1
	movl	$1, -32(%rbp)
	movl	-4(%rbp), %eax
	addl	$1, %eax
	movl	%eax, -8(%rbp)
.LBB16_57:                              # %for.cond193
                                        #   Parent Loop BB16_44 Depth=1
                                        # =>  This Inner Loop Header: Depth=2
	movl	-8(%rbp), %eax
	cmpl	-12(%rbp), %eax
	jae	.LBB16_62
# %bb.58:                               # %for.body195
                                        #   in Loop: Header=BB16_57 Depth=2
	movl	-8(%rbp), %eax
	movl	-736(%rbp,%rax,4), %eax
	movl	-8(%rbp), %ecx
	cmpl	-224(%rbp,%rcx,4), %eax
	je	.LBB16_60
# %bb.59:                               # %if.then201
                                        #   in Loop: Header=BB16_44 Depth=1
	movl	$0, -32(%rbp)
	jmp	.LBB16_63
.LBB16_60:                              # %if.end202
                                        #   in Loop: Header=BB16_57 Depth=2
	jmp	.LBB16_61
.LBB16_61:                              # %for.inc203
                                        #   in Loop: Header=BB16_57 Depth=2
	movl	-8(%rbp), %eax
	addl	$1, %eax
	movl	%eax, -8(%rbp)
	jmp	.LBB16_57
.LBB16_62:                              # %for.end205.loopexit
                                        #   in Loop: Header=BB16_44 Depth=1
	jmp	.LBB16_63
.LBB16_63:                              # %for.end205
                                        #   in Loop: Header=BB16_44 Depth=1
	cmpl	$1, -32(%rbp)
	jne	.LBB16_65
# %bb.64:                               # %if.then207
	movl	-4(%rbp), %eax
	addl	$1, %eax
	movl	%eax, -4(%rbp)
	jmp	.LBB16_72
.LBB16_65:                              # %if.end209
                                        #   in Loop: Header=BB16_44 Depth=1
	movl	$0, -8(%rbp)
.LBB16_66:                              # %for.cond210
                                        #   Parent Loop BB16_44 Depth=1
                                        # =>  This Inner Loop Header: Depth=2
	movl	-8(%rbp), %eax
	cmpl	-12(%rbp), %eax
	jae	.LBB16_69
# %bb.67:                               # %for.body212
                                        #   in Loop: Header=BB16_66 Depth=2
	movl	-8(%rbp), %eax
	movl	-736(%rbp,%rax,4), %eax
	movl	-8(%rbp), %ecx
	movl	%eax, -608(%rbp,%rcx,4)
# %bb.68:                               # %for.inc217
                                        #   in Loop: Header=BB16_66 Depth=2
	movl	-8(%rbp), %eax
	addl	$1, %eax
	movl	%eax, -8(%rbp)
	jmp	.LBB16_66
.LBB16_69:                              # %for.end219
                                        #   in Loop: Header=BB16_44 Depth=1
	jmp	.LBB16_70
.LBB16_70:                              # %for.inc220
                                        #   in Loop: Header=BB16_44 Depth=1
	movl	-4(%rbp), %eax
	addl	$1, %eax
	movl	%eax, -4(%rbp)
	jmp	.LBB16_44
.LBB16_71:                              # %for.end222.loopexit
	jmp	.LBB16_72
.LBB16_72:                              # %for.end222
	movq	-64(%rbp), %rax
	movl	-4(%rbp), %ecx
	movl	$3, (%rax,%rcx,4)
	movl	$0, -8(%rbp)
.LBB16_73:                              # %for.cond225
                                        # =>This Inner Loop Header: Depth=1
	movl	-8(%rbp), %eax
	cmpl	-12(%rbp), %eax
	jae	.LBB16_76
# %bb.74:                               # %for.body227
                                        #   in Loop: Header=BB16_73 Depth=1
	movl	-8(%rbp), %eax
	movl	-736(%rbp,%rax,4), %eax
	movl	-8(%rbp), %ecx
	movl	%eax, -608(%rbp,%rcx,4)
# %bb.75:                               # %for.inc232
                                        #   in Loop: Header=BB16_73 Depth=1
	movl	-8(%rbp), %eax
	addl	$1, %eax
	movl	%eax, -8(%rbp)
	jmp	.LBB16_73
.LBB16_76:                              # %for.end234
	cmpl	$0, 16(%rbp)
	jne	.LBB16_78
# %bb.77:                               # %if.then236
	movq	img, %rax
	movq	14160(%rax), %rax
	movl	$1, 56(%rax)
	jmp	.LBB16_79
.LBB16_78:                              # %if.else237
	movq	img, %rax
	movq	14160(%rax), %rax
	movl	$1, 88(%rax)
.LBB16_79:                              # %if.end239
	jmp	.LBB16_80
.LBB16_80:                              # %if.end240
	cmpl	$1236552238, -72(%rbp)  # imm = 0x49B44A2E
	jne	.LBB16_82
.LBB16_81:
	addq	$736, %rsp              # imm = 0x2E0
	popq	%rbp
	.cfi_def_cfa %rsp, 8
	retq
.LBB16_82:                              # %func_exit
	.cfi_def_cfa %rbp, 16
	callq	detect_breach
	jmp	.LBB16_81
.Lfunc_end16:
	.size	poc_ref_pic_reorder.6, .Lfunc_end16-poc_ref_pic_reorder.6
	.cfi_endproc
                                        # -- End function
	.p2align	4, 0x90         # -- Begin function set_ref_pic_num.7
	.type	set_ref_pic_num.7,@function
set_ref_pic_num.7:                      # @set_ref_pic_num.7
	.cfi_startproc
# %bb.0:                                # %entry
	pushq	%rbp
	.cfi_def_cfa_offset 16
	.cfi_offset %rbp, -16
	movq	%rsp, %rbp
	.cfi_def_cfa_register %rbp
	subq	$16, %rsp
	movl	$763643713, -12(%rbp)   # imm = 0x2D844741
	movl	$0, -4(%rbp)
.LBB17_1:                               # %for.cond
                                        # =>This Inner Loop Header: Depth=1
	movl	-4(%rbp), %eax
	cmpl	listXsize, %eax
	jge	.LBB17_4
# %bb.2:                                # %for.body
                                        #   in Loop: Header=BB17_1 Depth=1
	xorl	%eax, %eax
	movq	listX, %rcx
	movslq	-4(%rbp), %rdx
	movq	(%rcx,%rdx,8), %rcx
	movl	4(%rcx), %ecx
	shll	$1, %ecx
	movq	listX, %rdx
	movslq	-4(%rbp), %rsi
	movq	(%rdx,%rsi,8), %rdx
	movl	(%rdx), %edx
	cmpl	$2, %edx
	movl	$1, %edx
	cmovel	%edx, %eax
	addl	%eax, %ecx
	movslq	%ecx, %rax
	movq	enc_picture, %rcx
	movslq	-4(%rbp), %rdx
	movq	%rax, 24(%rcx,%rdx,8)
	movq	listX, %rax
	movslq	-4(%rbp), %rcx
	movq	(%rax,%rcx,8), %rax
	movl	16(%rax), %eax
	shll	$1, %eax
	cltq
	movq	enc_picture, %rcx
	movslq	-4(%rbp), %rdx
	movq	%rax, 1608(%rcx,%rdx,8)
	movq	listX, %rax
	movslq	-4(%rbp), %rcx
	movq	(%rax,%rcx,8), %rax
	movl	8(%rax), %eax
	shll	$1, %eax
	cltq
	movq	enc_picture, %rcx
	movslq	-4(%rbp), %rdx
	movq	%rax, 3192(%rcx,%rdx,8)
	movq	listX, %rax
	movslq	-4(%rbp), %rcx
	movq	(%rax,%rcx,8), %rax
	movl	12(%rax), %eax
	shll	$1, %eax
	addl	$1, %eax
	cltq
	movq	enc_picture, %rcx
	movslq	-4(%rbp), %rdx
	movq	%rax, 4776(%rcx,%rdx,8)
# %bb.3:                                # %for.inc
                                        #   in Loop: Header=BB17_1 Depth=1
	movl	-4(%rbp), %eax
	addl	$1, %eax
	movl	%eax, -4(%rbp)
	jmp	.LBB17_1
.LBB17_4:                               # %for.end
	movl	$0, -4(%rbp)
.LBB17_5:                               # %for.cond29
                                        # =>This Inner Loop Header: Depth=1
	movl	-4(%rbp), %eax
	cmpl	listXsize+4, %eax
	jge	.LBB17_8
# %bb.6:                                # %for.body32
                                        #   in Loop: Header=BB17_5 Depth=1
	xorl	%eax, %eax
	movq	listX+8, %rcx
	movslq	-4(%rbp), %rdx
	movq	(%rcx,%rdx,8), %rcx
	movl	4(%rcx), %ecx
	shll	$1, %ecx
	movq	listX+8, %rdx
	movslq	-4(%rbp), %rsi
	movq	(%rdx,%rsi,8), %rdx
	movl	(%rdx), %edx
	cmpl	$2, %edx
	movl	$1, %edx
	cmovel	%edx, %eax
	addl	%eax, %ecx
	movslq	%ecx, %rax
	movq	enc_picture, %rcx
	movslq	-4(%rbp), %rdx
	movq	%rax, 288(%rcx,%rdx,8)
	movq	listX+8, %rax
	movslq	-4(%rbp), %rcx
	movq	(%rax,%rcx,8), %rax
	movl	16(%rax), %eax
	shll	$1, %eax
	cltq
	movq	enc_picture, %rcx
	movslq	-4(%rbp), %rdx
	movq	%rax, 1872(%rcx,%rdx,8)
	movq	listX+8, %rax
	movslq	-4(%rbp), %rcx
	movq	(%rax,%rcx,8), %rax
	movl	8(%rax), %eax
	shll	$1, %eax
	cltq
	movq	enc_picture, %rcx
	movslq	-4(%rbp), %rdx
	movq	%rax, 3456(%rcx,%rdx,8)
	movq	listX+8, %rax
	movslq	-4(%rbp), %rcx
	movq	(%rax,%rcx,8), %rax
	movl	12(%rax), %eax
	shll	$1, %eax
	addl	$1, %eax
	cltq
	movq	enc_picture, %rcx
	movslq	-4(%rbp), %rdx
	movq	%rax, 5040(%rcx,%rdx,8)
# %bb.7:                                # %for.inc77
                                        #   in Loop: Header=BB17_5 Depth=1
	movl	-4(%rbp), %eax
	addl	$1, %eax
	movl	%eax, -4(%rbp)
	jmp	.LBB17_5
.LBB17_8:                               # %for.end79
	movq	active_sps, %rax
	cmpl	$0, 1148(%rax)
	jne	.LBB17_20
# %bb.9:                                # %if.then
	movq	img, %rax
	cmpl	$0, 28(%rax)
	jne	.LBB17_19
# %bb.10:                               # %if.then83
	movl	$2, -8(%rbp)
.LBB17_11:                              # %for.cond84
                                        # =>This Loop Header: Depth=1
                                        #     Child Loop BB17_13 Depth 2
	cmpl	$6, -8(%rbp)
	jge	.LBB17_18
# %bb.12:                               # %for.body87
                                        #   in Loop: Header=BB17_11 Depth=1
	movl	$0, -4(%rbp)
.LBB17_13:                              # %for.cond88
                                        #   Parent Loop BB17_11 Depth=1
                                        # =>  This Inner Loop Header: Depth=2
	movl	-4(%rbp), %eax
	movslq	-8(%rbp), %rcx
	cmpl	listXsize(,%rcx,4), %eax
	jge	.LBB17_16
# %bb.14:                               # %for.body93
                                        #   in Loop: Header=BB17_13 Depth=2
	xorl	%eax, %eax
	movslq	-8(%rbp), %rcx
	movq	listX(,%rcx,8), %rcx
	movslq	-4(%rbp), %rdx
	movq	(%rcx,%rdx,8), %rcx
	movl	4(%rcx), %ecx
	shll	$1, %ecx
	movslq	-8(%rbp), %rdx
	movq	listX(,%rdx,8), %rdx
	movslq	-4(%rbp), %rsi
	movq	(%rdx,%rsi,8), %rdx
	movl	(%rdx), %edx
	cmpl	$2, %edx
	movl	$1, %edx
	cmovel	%edx, %eax
	addl	%eax, %ecx
	movslq	%ecx, %rax
	movq	enc_picture, %rcx
	addq	$24, %rcx
	movslq	-8(%rbp), %rdx
	imulq	$264, %rdx, %rdx        # imm = 0x108
	addq	%rdx, %rcx
	movslq	-4(%rbp), %rdx
	movq	%rax, (%rcx,%rdx,8)
	movslq	-8(%rbp), %rax
	movq	listX(,%rax,8), %rax
	movslq	-4(%rbp), %rcx
	movq	(%rax,%rcx,8), %rax
	movl	16(%rax), %eax
	shll	$1, %eax
	cltq
	movq	enc_picture, %rcx
	addq	$1608, %rcx             # imm = 0x648
	movslq	-8(%rbp), %rdx
	imulq	$264, %rdx, %rdx        # imm = 0x108
	addq	%rdx, %rcx
	movslq	-4(%rbp), %rdx
	movq	%rax, (%rcx,%rdx,8)
	movslq	-8(%rbp), %rax
	movq	listX(,%rax,8), %rax
	movslq	-4(%rbp), %rcx
	movq	(%rax,%rcx,8), %rax
	movl	8(%rax), %eax
	shll	$1, %eax
	cltq
	movq	enc_picture, %rcx
	addq	$3192, %rcx             # imm = 0xC78
	movslq	-8(%rbp), %rdx
	imulq	$264, %rdx, %rdx        # imm = 0x108
	addq	%rdx, %rcx
	movslq	-4(%rbp), %rdx
	movq	%rax, (%rcx,%rdx,8)
	movslq	-8(%rbp), %rax
	movq	listX(,%rax,8), %rax
	movslq	-4(%rbp), %rcx
	movq	(%rax,%rcx,8), %rax
	movl	12(%rax), %eax
	shll	$1, %eax
	addl	$1, %eax
	cltq
	movq	enc_picture, %rcx
	addq	$4776, %rcx             # imm = 0x12A8
	movslq	-8(%rbp), %rdx
	imulq	$264, %rdx, %rdx        # imm = 0x108
	addq	%rdx, %rcx
	movslq	-4(%rbp), %rdx
	movq	%rax, (%rcx,%rdx,8)
# %bb.15:                               # %for.inc152
                                        #   in Loop: Header=BB17_13 Depth=2
	movl	-4(%rbp), %eax
	addl	$1, %eax
	movl	%eax, -4(%rbp)
	jmp	.LBB17_13
.LBB17_16:                              # %for.end154
                                        #   in Loop: Header=BB17_11 Depth=1
	jmp	.LBB17_17
.LBB17_17:                              # %for.inc155
                                        #   in Loop: Header=BB17_11 Depth=1
	movl	-8(%rbp), %eax
	addl	$1, %eax
	movl	%eax, -8(%rbp)
	jmp	.LBB17_11
.LBB17_18:                              # %for.end157
	jmp	.LBB17_19
.LBB17_19:                              # %if.end
	jmp	.LBB17_20
.LBB17_20:                              # %if.end158
	cmpl	$763643713, -12(%rbp)   # imm = 0x2D844741
	jne	.LBB17_22
.LBB17_21:
	addq	$16, %rsp
	popq	%rbp
	.cfi_def_cfa %rsp, 8
	retq
.LBB17_22:                              # %func_exit
	.cfi_def_cfa %rbp, 16
	callq	detect_breach
	jmp	.LBB17_21
.Lfunc_end17:
	.size	set_ref_pic_num.7, .Lfunc_end17-set_ref_pic_num.7
	.cfi_endproc
                                        # -- End function
	.p2align	4, 0x90         # -- Begin function free_slice.8
	.type	free_slice.8,@function
free_slice.8:                           # @free_slice.8
	.cfi_startproc
# %bb.0:                                # %entry
	pushq	%rbp
	.cfi_def_cfa_offset 16
	.cfi_offset %rbp, -16
	movq	%rsp, %rbp
	.cfi_def_cfa_register %rbp
	subq	$32, %rsp
	movl	$987520325, -28(%rbp)   # imm = 0x3ADC5D45
	movq	%rdi, -16(%rbp)
	cmpq	$0, -16(%rbp)
	je	.LBB18_16
# %bb.1:                                # %if.then
	movl	$0, -4(%rbp)
.LBB18_2:                               # %for.cond
                                        # =>This Inner Loop Header: Depth=1
	movl	-4(%rbp), %eax
	movq	-16(%rbp), %rcx
	cmpl	16(%rcx), %eax
	jge	.LBB18_11
# %bb.3:                                # %for.body
                                        #   in Loop: Header=BB18_2 Depth=1
	movq	-16(%rbp), %rax
	movq	24(%rax), %rax
	movslq	-4(%rbp), %rcx
	imulq	$120, %rcx, %rcx
	addq	%rcx, %rax
	movq	%rax, -24(%rbp)
	cmpq	$0, -24(%rbp)
	je	.LBB18_9
# %bb.4:                                # %if.then3
                                        #   in Loop: Header=BB18_2 Depth=1
	movq	-24(%rbp), %rax
	movq	(%rax), %rax
	cmpq	$0, 32(%rax)
	je	.LBB18_6
# %bb.5:                                # %if.then5
                                        #   in Loop: Header=BB18_2 Depth=1
	movq	-24(%rbp), %rax
	movq	(%rax), %rax
	movq	32(%rax), %rdi
	callq	free
.LBB18_6:                               # %if.end
                                        #   in Loop: Header=BB18_2 Depth=1
	movq	-24(%rbp), %rax
	cmpq	$0, (%rax)
	je	.LBB18_8
# %bb.7:                                # %if.then10
                                        #   in Loop: Header=BB18_2 Depth=1
	movq	-24(%rbp), %rax
	movq	(%rax), %rdi
	callq	free
.LBB18_8:                               # %if.end12
                                        #   in Loop: Header=BB18_2 Depth=1
	jmp	.LBB18_9
.LBB18_9:                               # %if.end13
                                        #   in Loop: Header=BB18_2 Depth=1
	jmp	.LBB18_10
.LBB18_10:                              # %for.inc
                                        #   in Loop: Header=BB18_2 Depth=1
	movl	-4(%rbp), %eax
	addl	$1, %eax
	movl	%eax, -4(%rbp)
	jmp	.LBB18_2
.LBB18_11:                              # %for.end
	movq	-16(%rbp), %rax
	cmpq	$0, 24(%rax)
	je	.LBB18_13
# %bb.12:                               # %if.then16
	movq	-16(%rbp), %rax
	movq	24(%rax), %rdi
	callq	free
.LBB18_13:                              # %if.end18
	movq	input, %rax
	cmpl	$1, 2356(%rax)
	jne	.LBB18_15
# %bb.14:                               # %if.then20
	movq	-16(%rbp), %rax
	movq	32(%rax), %rdi
	callq	delete_contexts_MotionInfo
	movq	-16(%rbp), %rax
	movq	40(%rax), %rdi
	callq	delete_contexts_TextureInfo
.LBB18_15:                              # %if.end21
	movq	-16(%rbp), %rdi
	callq	free
.LBB18_16:                              # %if.end22
	cmpl	$987520325, -28(%rbp)   # imm = 0x3ADC5D45
	jne	.LBB18_18
.LBB18_17:
	addq	$32, %rsp
	popq	%rbp
	.cfi_def_cfa %rsp, 8
	retq
.LBB18_18:                              # %func_exit
	.cfi_def_cfa %rbp, 16
	callq	detect_breach
	jmp	.LBB18_17
.Lfunc_end18:
	.size	free_slice.8, .Lfunc_end18-free_slice.8
	.cfi_endproc
                                        # -- End function
	.p2align	4, 0x90         # -- Begin function init_slice.9
	.type	init_slice.9,@function
init_slice.9:                           # @init_slice.9
	.cfi_startproc
# %bb.0:                                # %entry
	pushq	%rbp
	.cfi_def_cfa_offset 16
	.cfi_offset %rbp, -16
	movq	%rsp, %rbp
	.cfi_def_cfa_register %rbp
	subq	$80, %rsp
	movl	$1038768594, -60(%rbp)  # imm = 0x3DEA59D2
	movl	%edi, -36(%rbp)
	movq	img, %rax
	movq	14152(%rax), %rax
	movq	%rax, -32(%rbp)
	movl	-36(%rbp), %eax
	movq	img, %rcx
	movl	%eax, 12(%rcx)
	movq	-32(%rbp), %rax
	movl	(%rax), %ecx
	addl	$1, %ecx
	movl	%ecx, (%rax)
	movq	-32(%rbp), %rax
	cmpl	$100, (%rax)
	jl	.LBB19_2
# %bb.1:                                # %if.then
	movabsq	$.L.str.1, %rdi
	movl	$4294967295, %esi       # imm = 0xFFFFFFFF
	callq	error
.LBB19_2:                               # %if.end
	callq	malloc_slice
	movq	-32(%rbp), %rcx
	movq	-32(%rbp), %rdx
	movl	(%rdx), %edx
	subl	$1, %edx
	movslq	%edx, %rdx
	movq	%rax, 8(%rcx,%rdx,8)
	movq	-32(%rbp), %rax
	movq	-32(%rbp), %rcx
	movl	(%rcx), %ecx
	subl	$1, %ecx
	movslq	%ecx, %rcx
	movq	8(%rax,%rcx,8), %rax
	movq	%rax, -16(%rbp)
	movq	-16(%rbp), %rax
	movq	img, %rcx
	movq	%rax, 14160(%rcx)
	movq	img, %rax
	movl	71792(%rax), %eax
	cltd
	movl	$256, %ecx              # imm = 0x100
	idivl	%ecx
	movq	-16(%rbp), %rax
	movl	%edx, (%rax)
	movq	img, %rax
	movl	40(%rax), %eax
	movq	-16(%rbp), %rcx
	movl	%eax, 4(%rcx)
	movl	-36(%rbp), %eax
	movq	-16(%rbp), %rcx
	movl	%eax, 12(%rcx)
	movq	-16(%rbp), %rax
	movabsq	$dummy_slice_too_big, %rcx
	movq	%rcx, 120(%rax)
	movl	$0, -20(%rbp)
.LBB19_3:                               # %for.cond
                                        # =>This Inner Loop Header: Depth=1
	movl	-20(%rbp), %eax
	movq	-16(%rbp), %rcx
	cmpl	16(%rcx), %eax
	jge	.LBB19_9
# %bb.4:                                # %for.body
                                        #   in Loop: Header=BB19_3 Depth=1
	movq	-16(%rbp), %rax
	movq	24(%rax), %rax
	movslq	-20(%rbp), %rcx
	imulq	$120, %rcx, %rcx
	addq	%rcx, %rax
	movq	%rax, -56(%rbp)
	movq	input, %rax
	cmpl	$0, 2356(%rax)
	jne	.LBB19_6
# %bb.5:                                # %if.then13
                                        #   in Loop: Header=BB19_3 Depth=1
	movq	-56(%rbp), %rax
	movabsq	$writeSyntaxElement_UVLC, %rcx
	movq	%rcx, 112(%rax)
	jmp	.LBB19_7
.LBB19_6:                               # %if.else
                                        #   in Loop: Header=BB19_3 Depth=1
	movq	-56(%rbp), %rax
	movabsq	$writeSyntaxElement_CABAC, %rcx
	movq	%rcx, 112(%rax)
.LBB19_7:                               # %if.end15
                                        #   in Loop: Header=BB19_3 Depth=1
	movq	-56(%rbp), %rax
	movq	(%rax), %rax
	movq	%rax, -48(%rbp)
	movq	-48(%rbp), %rax
	movl	$8, 4(%rax)
	movq	-48(%rbp), %rax
	movl	$0, (%rax)
	movq	-48(%rbp), %rax
	movb	$0, 8(%rax)
# %bb.8:                                # %for.inc
                                        #   in Loop: Header=BB19_3 Depth=1
	movl	-20(%rbp), %eax
	addl	$1, %eax
	movl	%eax, -20(%rbp)
	jmp	.LBB19_3
.LBB19_9:                               # %for.end
	movq	active_pps, %rax
	movl	184(%rax), %eax
	addl	$1, %eax
	movq	img, %rcx
	movl	%eax, 72000(%rcx)
	movq	active_pps, %rax
	movl	188(%rax), %eax
	addl	$1, %eax
	movq	img, %rcx
	movl	%eax, 72004(%rcx)
	movq	img, %rax
	movl	24(%rax), %edi
	movq	img, %rax
	movl	28(%rax), %esi
	callq	init_lists
	movl	listXsize, %eax
	movq	img, %rcx
	movl	%eax, 72000(%rcx)
	movl	listXsize+4, %eax
	movq	img, %rcx
	movl	%eax, 72004(%rcx)
	movq	img, %rax
	cmpl	$0, 24(%rax)
	je	.LBB19_11
# %bb.10:                               # %lor.lhs.false
	movq	img, %rax
	cmpl	$3, 24(%rax)
	jne	.LBB19_19
.LBB19_11:                              # %land.lhs.true
	movq	input, %rax
	cmpl	$0, 40(%rax)
	je	.LBB19_19
# %bb.12:                               # %if.then24
	movq	img, %rax
	movl	72000(%rax), %eax
	movq	input, %rcx
	cmpl	40(%rcx), %eax
	jge	.LBB19_14
# %bb.13:                               # %cond.true
	movq	img, %rax
	movl	72000(%rax), %eax
	jmp	.LBB19_15
.LBB19_14:                              # %cond.false
	movq	input, %rax
	movl	40(%rax), %eax
.LBB19_15:                              # %cond.end
	movq	img, %rcx
	movl	%eax, 72000(%rcx)
	movl	listXsize, %eax
	movq	input, %rcx
	cmpl	40(%rcx), %eax
	jge	.LBB19_17
# %bb.16:                               # %cond.true33
	movl	listXsize, %eax
	jmp	.LBB19_18
.LBB19_17:                              # %cond.false34
	movq	input, %rax
	movl	40(%rax), %eax
.LBB19_18:                              # %cond.end36
	movl	%eax, listXsize
.LBB19_19:                              # %if.end38
	movq	img, %rax
	cmpl	$1, 24(%rax)
	jne	.LBB19_37
# %bb.20:                               # %if.then41
	movq	input, %rax
	cmpl	$0, 44(%rax)
	je	.LBB19_28
# %bb.21:                               # %if.then43
	movq	img, %rax
	movl	72000(%rax), %eax
	movq	input, %rcx
	cmpl	44(%rcx), %eax
	jge	.LBB19_23
# %bb.22:                               # %cond.true47
	movq	img, %rax
	movl	72000(%rax), %eax
	jmp	.LBB19_24
.LBB19_23:                              # %cond.false49
	movq	input, %rax
	movl	44(%rax), %eax
.LBB19_24:                              # %cond.end51
	movq	img, %rcx
	movl	%eax, 72000(%rcx)
	movl	listXsize, %eax
	movq	input, %rcx
	cmpl	44(%rcx), %eax
	jge	.LBB19_26
# %bb.25:                               # %cond.true56
	movl	listXsize, %eax
	jmp	.LBB19_27
.LBB19_26:                              # %cond.false57
	movq	input, %rax
	movl	44(%rax), %eax
.LBB19_27:                              # %cond.end59
	movl	%eax, listXsize
.LBB19_28:                              # %if.end61
	movq	input, %rax
	cmpl	$0, 48(%rax)
	je	.LBB19_36
# %bb.29:                               # %if.then63
	movq	img, %rax
	movl	72004(%rax), %eax
	movq	input, %rcx
	cmpl	48(%rcx), %eax
	jge	.LBB19_31
# %bb.30:                               # %cond.true67
	movq	img, %rax
	movl	72004(%rax), %eax
	jmp	.LBB19_32
.LBB19_31:                              # %cond.false69
	movq	input, %rax
	movl	48(%rax), %eax
.LBB19_32:                              # %cond.end71
	movq	img, %rcx
	movl	%eax, 72004(%rcx)
	movl	listXsize+4, %eax
	movq	input, %rcx
	cmpl	48(%rcx), %eax
	jge	.LBB19_34
# %bb.33:                               # %cond.true76
	movl	listXsize+4, %eax
	jmp	.LBB19_35
.LBB19_34:                              # %cond.false77
	movq	input, %rax
	movl	48(%rax), %eax
.LBB19_35:                              # %cond.end79
	movl	%eax, listXsize+4
.LBB19_36:                              # %if.end81
	jmp	.LBB19_37
.LBB19_37:                              # %if.end82
	movq	img, %rax
	cmpl	$0, 72496(%rax)
	je	.LBB19_42
# %bb.38:                               # %land.lhs.true84
	movq	input, %rax
	cmpl	$0, 1320(%rax)
	je	.LBB19_42
# %bb.39:                               # %land.lhs.true86
	movq	input, %rax
	cmpl	$0, 2352(%rax)
	je	.LBB19_42
# %bb.40:                               # %land.lhs.true88
	movl	dpb+28, %eax
	cmpl	dpb+24, %eax
	jne	.LBB19_42
# %bb.41:                               # %if.then90
	movq	img, %rax
	movl	72464(%rax), %edi
	callq	poc_based_ref_management
.LBB19_42:                              # %if.end91
	callq	init_ref_pic_list_reordering
	movq	img, %rax
	cmpl	$0, 24(%rax)
	jne	.LBB19_64
# %bb.43:                               # %land.lhs.true94
	movq	input, %rax
	cmpl	$0, 1320(%rax)
	je	.LBB19_64
# %bb.44:                               # %land.lhs.true97
	movq	input, %rax
	cmpl	$0, 2348(%rax)
	je	.LBB19_64
# %bb.45:                               # %if.then99
	movq	-16(%rbp), %rdi
	callq	alloc_ref_pic_list_reordering_buffer
	movq	img, %rax
	cmpl	$2, 24(%rax)
	je	.LBB19_58
# %bb.46:                               # %land.lhs.true103
	movq	img, %rax
	cmpl	$4, 24(%rax)
	je	.LBB19_58
# %bb.47:                               # %if.then106
	movl	$0, -4(%rbp)
.LBB19_48:                              # %for.cond107
                                        # =>This Inner Loop Header: Depth=1
	movl	-4(%rbp), %eax
	movq	img, %rcx
	movl	72000(%rcx), %ecx
	addl	$1, %ecx
	cmpl	%ecx, %eax
	jge	.LBB19_51
# %bb.49:                               # %for.body111
                                        #   in Loop: Header=BB19_48 Depth=1
	movq	-16(%rbp), %rax
	movq	64(%rax), %rax
	movslq	-4(%rbp), %rcx
	movl	$3, (%rax,%rcx,4)
	movq	-16(%rbp), %rax
	movq	72(%rax), %rax
	movslq	-4(%rbp), %rcx
	movl	$0, (%rax,%rcx,4)
	movq	-16(%rbp), %rax
	movq	80(%rax), %rax
	movslq	-4(%rbp), %rcx
	movl	$0, (%rax,%rcx,4)
# %bb.50:                               # %for.inc118
                                        #   in Loop: Header=BB19_48 Depth=1
	movl	-4(%rbp), %eax
	addl	$1, %eax
	movl	%eax, -4(%rbp)
	jmp	.LBB19_48
.LBB19_51:                              # %for.end120
	movq	img, %rax
	cmpl	$1, 24(%rax)
	jne	.LBB19_57
# %bb.52:                               # %if.then123
	movl	$0, -4(%rbp)
.LBB19_53:                              # %for.cond124
                                        # =>This Inner Loop Header: Depth=1
	movl	-4(%rbp), %eax
	movq	img, %rcx
	movl	72004(%rcx), %ecx
	addl	$1, %ecx
	cmpl	%ecx, %eax
	jge	.LBB19_56
# %bb.54:                               # %for.body128
                                        #   in Loop: Header=BB19_53 Depth=1
	movq	-16(%rbp), %rax
	movq	96(%rax), %rax
	movslq	-4(%rbp), %rcx
	movl	$3, (%rax,%rcx,4)
	movq	-16(%rbp), %rax
	movq	104(%rax), %rax
	movslq	-4(%rbp), %rcx
	movl	$0, (%rax,%rcx,4)
	movq	-16(%rbp), %rax
	movq	112(%rax), %rax
	movslq	-4(%rbp), %rcx
	movl	$0, (%rax,%rcx,4)
# %bb.55:                               # %for.inc135
                                        #   in Loop: Header=BB19_53 Depth=1
	movl	-4(%rbp), %eax
	addl	$1, %eax
	movl	%eax, -4(%rbp)
	jmp	.LBB19_53
.LBB19_56:                              # %for.end137
	jmp	.LBB19_57
.LBB19_57:                              # %if.end138
	jmp	.LBB19_58
.LBB19_58:                              # %if.end139
	movq	img, %rax
	cmpl	$2, 24(%rax)
	je	.LBB19_63
# %bb.59:                               # %land.lhs.true142
	movq	img, %rax
	cmpl	$4, 24(%rax)
	je	.LBB19_63
# %bb.60:                               # %if.then145
	movq	img, %rax
	movl	72000(%rax), %eax
	movl	%eax, -24(%rbp)
	movq	listX, %rdi
	movl	-24(%rbp), %esi
	movq	-16(%rbp), %rax
	movq	64(%rax), %rdx
	movq	-16(%rbp), %rax
	movq	72(%rax), %rcx
	movq	-16(%rbp), %rax
	movq	80(%rax), %r8
	xorl	%r9d, %r9d
	movl	$0, (%rsp)
	callq	poc_ref_pic_reorder
	movq	listX, %rdi
	movq	img, %rax
	movl	72000(%rax), %edx
	subl	$1, %edx
	movq	-16(%rbp), %rax
	movq	64(%rax), %rcx
	movq	-16(%rbp), %rax
	movq	72(%rax), %r8
	movq	-16(%rbp), %rax
	movq	80(%rax), %r9
	movabsq	$listXsize, %rsi
	callq	reorder_ref_pic_list
	movq	img, %rax
	cmpl	$1, 24(%rax)
	jne	.LBB19_62
# %bb.61:                               # %if.then157
	movq	img, %rax
	movl	72004(%rax), %eax
	movl	%eax, -24(%rbp)
	movq	listX+8, %rdi
	movl	-24(%rbp), %esi
	movq	-16(%rbp), %rax
	movq	96(%rax), %rdx
	movq	-16(%rbp), %rax
	movq	104(%rax), %rcx
	movq	-16(%rbp), %rax
	movq	112(%rax), %r8
	xorl	%r9d, %r9d
	movl	$1, (%rsp)
	callq	poc_ref_pic_reorder
	movabsq	$listXsize, %rsi
	addq	$4, %rsi
	movq	listX+8, %rdi
	movq	img, %rax
	movl	72004(%rax), %edx
	subl	$1, %edx
	movq	-16(%rbp), %rax
	movq	96(%rax), %rcx
	movq	-16(%rbp), %rax
	movq	104(%rax), %r8
	movq	-16(%rbp), %rax
	movq	112(%rax), %r9
	callq	reorder_ref_pic_list
.LBB19_62:                              # %if.end167
	jmp	.LBB19_63
.LBB19_63:                              # %if.end168
	jmp	.LBB19_64
.LBB19_64:                              # %if.end169
	movq	img, %rax
	cmpl	$0, 28(%rax)
	jne	.LBB19_66
# %bb.65:                               # %if.then172
	movb	$0, %al
	callq	init_mbaff_lists
.LBB19_66:                              # %if.end173
	movq	img, %rax
	cmpl	$2, 24(%rax)
	je	.LBB19_82
# %bb.67:                               # %land.lhs.true176
	movq	active_pps, %rax
	cmpl	$1, 192(%rax)
	je	.LBB19_70
# %bb.68:                               # %lor.lhs.false178
	movq	active_pps, %rax
	cmpl	$0, 196(%rax)
	jbe	.LBB19_82
# %bb.69:                               # %land.lhs.true180
	movq	img, %rax
	cmpl	$1, 24(%rax)
	jne	.LBB19_82
.LBB19_70:                              # %if.then183
	movq	img, %rax
	cmpl	$0, 24(%rax)
	je	.LBB19_72
# %bb.71:                               # %lor.lhs.false186
	movq	img, %rax
	cmpl	$3, 24(%rax)
	jne	.LBB19_80
.LBB19_72:                              # %if.then189
	movq	input, %rax
	cmpl	$0, 60(%rax)
	je	.LBB19_78
# %bb.73:                               # %land.lhs.true191
	movq	input, %rax
	cmpl	$0, 1296(%rax)
	je	.LBB19_78
# %bb.74:                               # %if.then193
	movq	enc_picture, %rax
	cmpq	enc_frame_picture2, %rax
	jne	.LBB19_76
# %bb.75:                               # %if.then195
	xorl	%edi, %edi
	callq	estimate_weighting_factor_P_slice
	jmp	.LBB19_77
.LBB19_76:                              # %if.else196
	movl	$1, %edi
	callq	estimate_weighting_factor_P_slice
.LBB19_77:                              # %if.end197
	jmp	.LBB19_79
.LBB19_78:                              # %if.else198
	xorl	%edi, %edi
	callq	estimate_weighting_factor_P_slice
.LBB19_79:                              # %if.end199
	jmp	.LBB19_81
.LBB19_80:                              # %if.else200
	movb	$0, %al
	callq	estimate_weighting_factor_B_slice
.LBB19_81:                              # %if.end201
	jmp	.LBB19_82
.LBB19_82:                              # %if.end202
	callq	set_ref_pic_num
	movq	img, %rax
	cmpl	$1, 24(%rax)
	jne	.LBB19_84
# %bb.83:                               # %if.then205
	movq	Co_located, %rdi
	movabsq	$listX, %rsi
	callq	compute_colocated
.LBB19_84:                              # %if.end206
	cmpl	$1038768594, -60(%rbp)  # imm = 0x3DEA59D2
	jne	.LBB19_86
.LBB19_85:
	addq	$80, %rsp
	popq	%rbp
	.cfi_def_cfa %rsp, 8
	retq
.LBB19_86:                              # %func_exit
	.cfi_def_cfa %rbp, 16
	callq	detect_breach
	jmp	.LBB19_85
.Lfunc_end19:
	.size	init_slice.9, .Lfunc_end19-init_slice.9
	.cfi_endproc
                                        # -- End function
	.globl	free_slice_list.10      # -- Begin function free_slice_list.10
	.p2align	4, 0x90
	.type	free_slice_list.10,@function
free_slice_list.10:                     # @free_slice_list.10
	.cfi_startproc
# %bb.0:                                # %entry
	pushq	%rbp
	.cfi_def_cfa_offset 16
	.cfi_offset %rbp, -16
	movq	%rsp, %rbp
	.cfi_def_cfa_register %rbp
	subq	$32, %rsp
	movl	$1846804701, -20(%rbp)  # imm = 0x6E1400DD
	movq	%rdi, -16(%rbp)
	movl	$0, -4(%rbp)
.LBB20_1:                               # %for.cond
                                        # =>This Inner Loop Header: Depth=1
	movl	-4(%rbp), %eax
	movq	-16(%rbp), %rcx
	cmpl	(%rcx), %eax
	jge	.LBB20_4
# %bb.2:                                # %for.body
                                        #   in Loop: Header=BB20_1 Depth=1
	movq	-16(%rbp), %rax
	movslq	-4(%rbp), %rcx
	movq	8(%rax,%rcx,8), %rdi
	callq	free_slice
	movq	-16(%rbp), %rax
	movslq	-4(%rbp), %rcx
	movq	$0, 8(%rax,%rcx,8)
# %bb.3:                                # %for.inc
                                        #   in Loop: Header=BB20_1 Depth=1
	movl	-4(%rbp), %eax
	addl	$1, %eax
	movl	%eax, -4(%rbp)
	jmp	.LBB20_1
.LBB20_4:                               # %for.end
	cmpl	$1846804701, -20(%rbp)  # imm = 0x6E1400DD
	jne	.LBB20_6
.LBB20_5:
	addq	$32, %rsp
	popq	%rbp
	.cfi_def_cfa %rsp, 8
	retq
.LBB20_6:                               # %func_exit
	.cfi_def_cfa %rbp, 16
	callq	detect_breach
	jmp	.LBB20_5
.Lfunc_end20:
	.size	free_slice_list.10, .Lfunc_end20-free_slice_list.10
	.cfi_endproc
                                        # -- End function
	.p2align	4, 0x90         # -- Begin function free_slice.11
	.type	free_slice.11,@function
free_slice.11:                          # @free_slice.11
	.cfi_startproc
# %bb.0:                                # %entry
	pushq	%rbp
	.cfi_def_cfa_offset 16
	.cfi_offset %rbp, -16
	movq	%rsp, %rbp
	.cfi_def_cfa_register %rbp
	subq	$32, %rsp
	movl	$2025011072, -28(%rbp)  # imm = 0x78B33780
	movq	%rdi, -16(%rbp)
	cmpq	$0, -16(%rbp)
	je	.LBB21_16
# %bb.1:                                # %if.then
	movl	$0, -4(%rbp)
.LBB21_2:                               # %for.cond
                                        # =>This Inner Loop Header: Depth=1
	movl	-4(%rbp), %eax
	movq	-16(%rbp), %rcx
	cmpl	16(%rcx), %eax
	jge	.LBB21_11
# %bb.3:                                # %for.body
                                        #   in Loop: Header=BB21_2 Depth=1
	movq	-16(%rbp), %rax
	movq	24(%rax), %rax
	movslq	-4(%rbp), %rcx
	imulq	$120, %rcx, %rcx
	addq	%rcx, %rax
	movq	%rax, -24(%rbp)
	cmpq	$0, -24(%rbp)
	je	.LBB21_9
# %bb.4:                                # %if.then3
                                        #   in Loop: Header=BB21_2 Depth=1
	movq	-24(%rbp), %rax
	movq	(%rax), %rax
	cmpq	$0, 32(%rax)
	je	.LBB21_6
# %bb.5:                                # %if.then5
                                        #   in Loop: Header=BB21_2 Depth=1
	movq	-24(%rbp), %rax
	movq	(%rax), %rax
	movq	32(%rax), %rdi
	callq	free
.LBB21_6:                               # %if.end
                                        #   in Loop: Header=BB21_2 Depth=1
	movq	-24(%rbp), %rax
	cmpq	$0, (%rax)
	je	.LBB21_8
# %bb.7:                                # %if.then10
                                        #   in Loop: Header=BB21_2 Depth=1
	movq	-24(%rbp), %rax
	movq	(%rax), %rdi
	callq	free
.LBB21_8:                               # %if.end12
                                        #   in Loop: Header=BB21_2 Depth=1
	jmp	.LBB21_9
.LBB21_9:                               # %if.end13
                                        #   in Loop: Header=BB21_2 Depth=1
	jmp	.LBB21_10
.LBB21_10:                              # %for.inc
                                        #   in Loop: Header=BB21_2 Depth=1
	movl	-4(%rbp), %eax
	addl	$1, %eax
	movl	%eax, -4(%rbp)
	jmp	.LBB21_2
.LBB21_11:                              # %for.end
	movq	-16(%rbp), %rax
	cmpq	$0, 24(%rax)
	je	.LBB21_13
# %bb.12:                               # %if.then16
	movq	-16(%rbp), %rax
	movq	24(%rax), %rdi
	callq	free
.LBB21_13:                              # %if.end18
	movq	input, %rax
	cmpl	$1, 2356(%rax)
	jne	.LBB21_15
# %bb.14:                               # %if.then20
	movq	-16(%rbp), %rax
	movq	32(%rax), %rdi
	callq	delete_contexts_MotionInfo
	movq	-16(%rbp), %rax
	movq	40(%rax), %rdi
	callq	delete_contexts_TextureInfo
.LBB21_15:                              # %if.end21
	movq	-16(%rbp), %rdi
	callq	free
.LBB21_16:                              # %if.end22
	cmpl	$2025011072, -28(%rbp)  # imm = 0x78B33780
	jne	.LBB21_18
.LBB21_17:
	addq	$32, %rsp
	popq	%rbp
	.cfi_def_cfa %rsp, 8
	retq
.LBB21_18:                              # %func_exit
	.cfi_def_cfa %rbp, 16
	callq	detect_breach
	jmp	.LBB21_17
.Lfunc_end21:
	.size	free_slice.11, .Lfunc_end21-free_slice.11
	.cfi_endproc
                                        # -- End function
	.p2align	4, 0x90         # -- Begin function init_slice.12
	.type	init_slice.12,@function
init_slice.12:                          # @init_slice.12
	.cfi_startproc
# %bb.0:                                # %entry
	pushq	%rbp
	.cfi_def_cfa_offset 16
	.cfi_offset %rbp, -16
	movq	%rsp, %rbp
	.cfi_def_cfa_register %rbp
	subq	$80, %rsp
	movl	$185914757, -60(%rbp)   # imm = 0xB14D585
	movl	%edi, -36(%rbp)
	movq	img, %rax
	movq	14152(%rax), %rax
	movq	%rax, -32(%rbp)
	movl	-36(%rbp), %eax
	movq	img, %rcx
	movl	%eax, 12(%rcx)
	movq	-32(%rbp), %rax
	movl	(%rax), %ecx
	addl	$1, %ecx
	movl	%ecx, (%rax)
	movq	-32(%rbp), %rax
	cmpl	$100, (%rax)
	jl	.LBB22_2
# %bb.1:                                # %if.then
	movabsq	$.L.str.1, %rdi
	movl	$4294967295, %esi       # imm = 0xFFFFFFFF
	callq	error
.LBB22_2:                               # %if.end
	callq	malloc_slice
	movq	-32(%rbp), %rcx
	movq	-32(%rbp), %rdx
	movl	(%rdx), %edx
	subl	$1, %edx
	movslq	%edx, %rdx
	movq	%rax, 8(%rcx,%rdx,8)
	movq	-32(%rbp), %rax
	movq	-32(%rbp), %rcx
	movl	(%rcx), %ecx
	subl	$1, %ecx
	movslq	%ecx, %rcx
	movq	8(%rax,%rcx,8), %rax
	movq	%rax, -16(%rbp)
	movq	-16(%rbp), %rax
	movq	img, %rcx
	movq	%rax, 14160(%rcx)
	movq	img, %rax
	movl	71792(%rax), %eax
	cltd
	movl	$256, %ecx              # imm = 0x100
	idivl	%ecx
	movq	-16(%rbp), %rax
	movl	%edx, (%rax)
	movq	img, %rax
	movl	40(%rax), %eax
	movq	-16(%rbp), %rcx
	movl	%eax, 4(%rcx)
	movl	-36(%rbp), %eax
	movq	-16(%rbp), %rcx
	movl	%eax, 12(%rcx)
	movq	-16(%rbp), %rax
	movabsq	$dummy_slice_too_big, %rcx
	movq	%rcx, 120(%rax)
	movl	$0, -20(%rbp)
.LBB22_3:                               # %for.cond
                                        # =>This Inner Loop Header: Depth=1
	movl	-20(%rbp), %eax
	movq	-16(%rbp), %rcx
	cmpl	16(%rcx), %eax
	jge	.LBB22_9
# %bb.4:                                # %for.body
                                        #   in Loop: Header=BB22_3 Depth=1
	movq	-16(%rbp), %rax
	movq	24(%rax), %rax
	movslq	-20(%rbp), %rcx
	imulq	$120, %rcx, %rcx
	addq	%rcx, %rax
	movq	%rax, -48(%rbp)
	movq	input, %rax
	cmpl	$0, 2356(%rax)
	jne	.LBB22_6
# %bb.5:                                # %if.then13
                                        #   in Loop: Header=BB22_3 Depth=1
	movq	-48(%rbp), %rax
	movabsq	$writeSyntaxElement_UVLC, %rcx
	movq	%rcx, 112(%rax)
	jmp	.LBB22_7
.LBB22_6:                               # %if.else
                                        #   in Loop: Header=BB22_3 Depth=1
	movq	-48(%rbp), %rax
	movabsq	$writeSyntaxElement_CABAC, %rcx
	movq	%rcx, 112(%rax)
.LBB22_7:                               # %if.end15
                                        #   in Loop: Header=BB22_3 Depth=1
	movq	-48(%rbp), %rax
	movq	(%rax), %rax
	movq	%rax, -56(%rbp)
	movq	-56(%rbp), %rax
	movl	$8, 4(%rax)
	movq	-56(%rbp), %rax
	movl	$0, (%rax)
	movq	-56(%rbp), %rax
	movb	$0, 8(%rax)
# %bb.8:                                # %for.inc
                                        #   in Loop: Header=BB22_3 Depth=1
	movl	-20(%rbp), %eax
	addl	$1, %eax
	movl	%eax, -20(%rbp)
	jmp	.LBB22_3
.LBB22_9:                               # %for.end
	movq	active_pps, %rax
	movl	184(%rax), %eax
	addl	$1, %eax
	movq	img, %rcx
	movl	%eax, 72000(%rcx)
	movq	active_pps, %rax
	movl	188(%rax), %eax
	addl	$1, %eax
	movq	img, %rcx
	movl	%eax, 72004(%rcx)
	movq	img, %rax
	movl	24(%rax), %edi
	movq	img, %rax
	movl	28(%rax), %esi
	callq	init_lists
	movl	listXsize, %eax
	movq	img, %rcx
	movl	%eax, 72000(%rcx)
	movl	listXsize+4, %eax
	movq	img, %rcx
	movl	%eax, 72004(%rcx)
	movq	img, %rax
	cmpl	$0, 24(%rax)
	je	.LBB22_11
# %bb.10:                               # %lor.lhs.false
	movq	img, %rax
	cmpl	$3, 24(%rax)
	jne	.LBB22_19
.LBB22_11:                              # %land.lhs.true
	movq	input, %rax
	cmpl	$0, 40(%rax)
	je	.LBB22_19
# %bb.12:                               # %if.then24
	movq	img, %rax
	movl	72000(%rax), %eax
	movq	input, %rcx
	cmpl	40(%rcx), %eax
	jge	.LBB22_14
# %bb.13:                               # %cond.true
	movq	img, %rax
	movl	72000(%rax), %eax
	jmp	.LBB22_15
.LBB22_14:                              # %cond.false
	movq	input, %rax
	movl	40(%rax), %eax
.LBB22_15:                              # %cond.end
	movq	img, %rcx
	movl	%eax, 72000(%rcx)
	movl	listXsize, %eax
	movq	input, %rcx
	cmpl	40(%rcx), %eax
	jge	.LBB22_17
# %bb.16:                               # %cond.true33
	movl	listXsize, %eax
	jmp	.LBB22_18
.LBB22_17:                              # %cond.false34
	movq	input, %rax
	movl	40(%rax), %eax
.LBB22_18:                              # %cond.end36
	movl	%eax, listXsize
.LBB22_19:                              # %if.end38
	movq	img, %rax
	cmpl	$1, 24(%rax)
	jne	.LBB22_37
# %bb.20:                               # %if.then41
	movq	input, %rax
	cmpl	$0, 44(%rax)
	je	.LBB22_28
# %bb.21:                               # %if.then43
	movq	img, %rax
	movl	72000(%rax), %eax
	movq	input, %rcx
	cmpl	44(%rcx), %eax
	jge	.LBB22_23
# %bb.22:                               # %cond.true47
	movq	img, %rax
	movl	72000(%rax), %eax
	jmp	.LBB22_24
.LBB22_23:                              # %cond.false49
	movq	input, %rax
	movl	44(%rax), %eax
.LBB22_24:                              # %cond.end51
	movq	img, %rcx
	movl	%eax, 72000(%rcx)
	movl	listXsize, %eax
	movq	input, %rcx
	cmpl	44(%rcx), %eax
	jge	.LBB22_26
# %bb.25:                               # %cond.true56
	movl	listXsize, %eax
	jmp	.LBB22_27
.LBB22_26:                              # %cond.false57
	movq	input, %rax
	movl	44(%rax), %eax
.LBB22_27:                              # %cond.end59
	movl	%eax, listXsize
.LBB22_28:                              # %if.end61
	movq	input, %rax
	cmpl	$0, 48(%rax)
	je	.LBB22_36
# %bb.29:                               # %if.then63
	movq	img, %rax
	movl	72004(%rax), %eax
	movq	input, %rcx
	cmpl	48(%rcx), %eax
	jge	.LBB22_31
# %bb.30:                               # %cond.true67
	movq	img, %rax
	movl	72004(%rax), %eax
	jmp	.LBB22_32
.LBB22_31:                              # %cond.false69
	movq	input, %rax
	movl	48(%rax), %eax
.LBB22_32:                              # %cond.end71
	movq	img, %rcx
	movl	%eax, 72004(%rcx)
	movl	listXsize+4, %eax
	movq	input, %rcx
	cmpl	48(%rcx), %eax
	jge	.LBB22_34
# %bb.33:                               # %cond.true76
	movl	listXsize+4, %eax
	jmp	.LBB22_35
.LBB22_34:                              # %cond.false77
	movq	input, %rax
	movl	48(%rax), %eax
.LBB22_35:                              # %cond.end79
	movl	%eax, listXsize+4
.LBB22_36:                              # %if.end81
	jmp	.LBB22_37
.LBB22_37:                              # %if.end82
	movq	img, %rax
	cmpl	$0, 72496(%rax)
	je	.LBB22_42
# %bb.38:                               # %land.lhs.true84
	movq	input, %rax
	cmpl	$0, 1320(%rax)
	je	.LBB22_42
# %bb.39:                               # %land.lhs.true86
	movq	input, %rax
	cmpl	$0, 2352(%rax)
	je	.LBB22_42
# %bb.40:                               # %land.lhs.true88
	movl	dpb+28, %eax
	cmpl	dpb+24, %eax
	jne	.LBB22_42
# %bb.41:                               # %if.then90
	movq	img, %rax
	movl	72464(%rax), %edi
	callq	poc_based_ref_management
.LBB22_42:                              # %if.end91
	callq	init_ref_pic_list_reordering
	movq	img, %rax
	cmpl	$0, 24(%rax)
	jne	.LBB22_64
# %bb.43:                               # %land.lhs.true94
	movq	input, %rax
	cmpl	$0, 1320(%rax)
	je	.LBB22_64
# %bb.44:                               # %land.lhs.true97
	movq	input, %rax
	cmpl	$0, 2348(%rax)
	je	.LBB22_64
# %bb.45:                               # %if.then99
	movq	-16(%rbp), %rdi
	callq	alloc_ref_pic_list_reordering_buffer
	movq	img, %rax
	cmpl	$2, 24(%rax)
	je	.LBB22_58
# %bb.46:                               # %land.lhs.true103
	movq	img, %rax
	cmpl	$4, 24(%rax)
	je	.LBB22_58
# %bb.47:                               # %if.then106
	movl	$0, -4(%rbp)
.LBB22_48:                              # %for.cond107
                                        # =>This Inner Loop Header: Depth=1
	movl	-4(%rbp), %eax
	movq	img, %rcx
	movl	72000(%rcx), %ecx
	addl	$1, %ecx
	cmpl	%ecx, %eax
	jge	.LBB22_51
# %bb.49:                               # %for.body111
                                        #   in Loop: Header=BB22_48 Depth=1
	movq	-16(%rbp), %rax
	movq	64(%rax), %rax
	movslq	-4(%rbp), %rcx
	movl	$3, (%rax,%rcx,4)
	movq	-16(%rbp), %rax
	movq	72(%rax), %rax
	movslq	-4(%rbp), %rcx
	movl	$0, (%rax,%rcx,4)
	movq	-16(%rbp), %rax
	movq	80(%rax), %rax
	movslq	-4(%rbp), %rcx
	movl	$0, (%rax,%rcx,4)
# %bb.50:                               # %for.inc118
                                        #   in Loop: Header=BB22_48 Depth=1
	movl	-4(%rbp), %eax
	addl	$1, %eax
	movl	%eax, -4(%rbp)
	jmp	.LBB22_48
.LBB22_51:                              # %for.end120
	movq	img, %rax
	cmpl	$1, 24(%rax)
	jne	.LBB22_57
# %bb.52:                               # %if.then123
	movl	$0, -4(%rbp)
.LBB22_53:                              # %for.cond124
                                        # =>This Inner Loop Header: Depth=1
	movl	-4(%rbp), %eax
	movq	img, %rcx
	movl	72004(%rcx), %ecx
	addl	$1, %ecx
	cmpl	%ecx, %eax
	jge	.LBB22_56
# %bb.54:                               # %for.body128
                                        #   in Loop: Header=BB22_53 Depth=1
	movq	-16(%rbp), %rax
	movq	96(%rax), %rax
	movslq	-4(%rbp), %rcx
	movl	$3, (%rax,%rcx,4)
	movq	-16(%rbp), %rax
	movq	104(%rax), %rax
	movslq	-4(%rbp), %rcx
	movl	$0, (%rax,%rcx,4)
	movq	-16(%rbp), %rax
	movq	112(%rax), %rax
	movslq	-4(%rbp), %rcx
	movl	$0, (%rax,%rcx,4)
# %bb.55:                               # %for.inc135
                                        #   in Loop: Header=BB22_53 Depth=1
	movl	-4(%rbp), %eax
	addl	$1, %eax
	movl	%eax, -4(%rbp)
	jmp	.LBB22_53
.LBB22_56:                              # %for.end137
	jmp	.LBB22_57
.LBB22_57:                              # %if.end138
	jmp	.LBB22_58
.LBB22_58:                              # %if.end139
	movq	img, %rax
	cmpl	$2, 24(%rax)
	je	.LBB22_63
# %bb.59:                               # %land.lhs.true142
	movq	img, %rax
	cmpl	$4, 24(%rax)
	je	.LBB22_63
# %bb.60:                               # %if.then145
	movq	img, %rax
	movl	72000(%rax), %eax
	movl	%eax, -24(%rbp)
	movq	listX, %rdi
	movl	-24(%rbp), %esi
	movq	-16(%rbp), %rax
	movq	64(%rax), %rdx
	movq	-16(%rbp), %rax
	movq	72(%rax), %rcx
	movq	-16(%rbp), %rax
	movq	80(%rax), %r8
	xorl	%r9d, %r9d
	movl	$0, (%rsp)
	callq	poc_ref_pic_reorder
	movq	listX, %rdi
	movq	img, %rax
	movl	72000(%rax), %edx
	subl	$1, %edx
	movq	-16(%rbp), %rax
	movq	64(%rax), %rcx
	movq	-16(%rbp), %rax
	movq	72(%rax), %r8
	movq	-16(%rbp), %rax
	movq	80(%rax), %r9
	movabsq	$listXsize, %rsi
	callq	reorder_ref_pic_list
	movq	img, %rax
	cmpl	$1, 24(%rax)
	jne	.LBB22_62
# %bb.61:                               # %if.then157
	movq	img, %rax
	movl	72004(%rax), %eax
	movl	%eax, -24(%rbp)
	movq	listX+8, %rdi
	movl	-24(%rbp), %esi
	movq	-16(%rbp), %rax
	movq	96(%rax), %rdx
	movq	-16(%rbp), %rax
	movq	104(%rax), %rcx
	movq	-16(%rbp), %rax
	movq	112(%rax), %r8
	xorl	%r9d, %r9d
	movl	$1, (%rsp)
	callq	poc_ref_pic_reorder
	movabsq	$listXsize, %rsi
	addq	$4, %rsi
	movq	listX+8, %rdi
	movq	img, %rax
	movl	72004(%rax), %edx
	subl	$1, %edx
	movq	-16(%rbp), %rax
	movq	96(%rax), %rcx
	movq	-16(%rbp), %rax
	movq	104(%rax), %r8
	movq	-16(%rbp), %rax
	movq	112(%rax), %r9
	callq	reorder_ref_pic_list
.LBB22_62:                              # %if.end167
	jmp	.LBB22_63
.LBB22_63:                              # %if.end168
	jmp	.LBB22_64
.LBB22_64:                              # %if.end169
	movq	img, %rax
	cmpl	$0, 28(%rax)
	jne	.LBB22_66
# %bb.65:                               # %if.then172
	movb	$0, %al
	callq	init_mbaff_lists
.LBB22_66:                              # %if.end173
	movq	img, %rax
	cmpl	$2, 24(%rax)
	je	.LBB22_82
# %bb.67:                               # %land.lhs.true176
	movq	active_pps, %rax
	cmpl	$1, 192(%rax)
	je	.LBB22_70
# %bb.68:                               # %lor.lhs.false178
	movq	active_pps, %rax
	cmpl	$0, 196(%rax)
	jbe	.LBB22_82
# %bb.69:                               # %land.lhs.true180
	movq	img, %rax
	cmpl	$1, 24(%rax)
	jne	.LBB22_82
.LBB22_70:                              # %if.then183
	movq	img, %rax
	cmpl	$0, 24(%rax)
	je	.LBB22_72
# %bb.71:                               # %lor.lhs.false186
	movq	img, %rax
	cmpl	$3, 24(%rax)
	jne	.LBB22_80
.LBB22_72:                              # %if.then189
	movq	input, %rax
	cmpl	$0, 60(%rax)
	je	.LBB22_78
# %bb.73:                               # %land.lhs.true191
	movq	input, %rax
	cmpl	$0, 1296(%rax)
	je	.LBB22_78
# %bb.74:                               # %if.then193
	movq	enc_picture, %rax
	cmpq	enc_frame_picture2, %rax
	jne	.LBB22_76
# %bb.75:                               # %if.then195
	xorl	%edi, %edi
	callq	estimate_weighting_factor_P_slice
	jmp	.LBB22_77
.LBB22_76:                              # %if.else196
	movl	$1, %edi
	callq	estimate_weighting_factor_P_slice
.LBB22_77:                              # %if.end197
	jmp	.LBB22_79
.LBB22_78:                              # %if.else198
	xorl	%edi, %edi
	callq	estimate_weighting_factor_P_slice
.LBB22_79:                              # %if.end199
	jmp	.LBB22_81
.LBB22_80:                              # %if.else200
	movb	$0, %al
	callq	estimate_weighting_factor_B_slice
.LBB22_81:                              # %if.end201
	jmp	.LBB22_82
.LBB22_82:                              # %if.end202
	callq	set_ref_pic_num
	movq	img, %rax
	cmpl	$1, 24(%rax)
	jne	.LBB22_84
# %bb.83:                               # %if.then205
	movq	Co_located, %rdi
	movabsq	$listX, %rsi
	callq	compute_colocated
.LBB22_84:                              # %if.end206
	cmpl	$185914757, -60(%rbp)   # imm = 0xB14D585
	jne	.LBB22_86
.LBB22_85:
	addq	$80, %rsp
	popq	%rbp
	.cfi_def_cfa %rsp, 8
	retq
.LBB22_86:                              # %func_exit
	.cfi_def_cfa %rbp, 16
	callq	detect_breach
	jmp	.LBB22_85
.Lfunc_end22:
	.size	init_slice.12, .Lfunc_end22-init_slice.12
	.cfi_endproc
                                        # -- End function
	.p2align	4, 0x90         # -- Begin function malloc_slice.13
	.type	malloc_slice.13,@function
malloc_slice.13:                        # @malloc_slice.13
	.cfi_startproc
# %bb.0:                                # %entry
	pushq	%rbp
	.cfi_def_cfa_offset 16
	.cfi_offset %rbp, -16
	movq	%rsp, %rbp
	.cfi_def_cfa_register %rbp
	pushq	%rbx
	subq	$40, %rsp
	.cfi_offset %rbx, -24
	movl	$1263830241, -28(%rbp)  # imm = 0x4B5484E1
	movq	img, %rax
	movl	52(%rax), %eax
	movq	img, %rcx
	imull	60(%rcx), %eax
	shll	$2, %eax
	movl	%eax, -24(%rbp)
	movl	$1, %edi
	movl	$152, %esi
	callq	calloc
	movq	%rax, -16(%rbp)
	cmpq	$0, %rax
	jne	.LBB23_2
# %bb.1:                                # %if.then
	movabsq	$.L.str.2, %rdi
	callq	no_mem_exit
.LBB23_2:                               # %if.end
	movq	input, %rax
	cmpl	$1, 2356(%rax)
	jne	.LBB23_4
# %bb.3:                                # %if.then3
	callq	create_contexts_MotionInfo
	movq	-16(%rbp), %rcx
	movq	%rax, 32(%rcx)
	callq	create_contexts_TextureInfo
	movq	-16(%rbp), %rcx
	movq	%rax, 40(%rcx)
.LBB23_4:                               # %if.end6
	movq	input, %rax
	movl	2364(%rax), %eax
	cmpl	$0, %eax
	movl	$1, %eax
	movl	$3, %ecx
	cmovel	%eax, %ecx
	movq	-16(%rbp), %rax
	movl	%ecx, 16(%rax)
	movq	img, %rax
	movq	14152(%rax), %rax
	cmpl	$0, 4(%rax)
	je	.LBB23_6
# %bb.5:                                # %if.then8
	movq	-16(%rbp), %rax
	movl	$1, 16(%rax)
.LBB23_6:                               # %if.end10
	movabsq	$assignSE2partition_NoDP, %rax
	movq	%rax, assignSE2partition
	movq	img, %rax
	movq	14152(%rax), %rax
	cmpl	$0, 4(%rax)
	jne	.LBB23_9
# %bb.7:                                # %land.lhs.true
	movq	input, %rax
	cmpl	$1, 2364(%rax)
	jne	.LBB23_9
# %bb.8:                                # %if.then16
	movabsq	$assignSE2partition_DP, %rax
	movq	%rax, assignSE2partition+8
	jmp	.LBB23_10
.LBB23_9:                               # %if.else
	movabsq	$assignSE2partition_NoDP, %rax
	movq	%rax, assignSE2partition+8
.LBB23_10:                              # %if.end17
	movq	-16(%rbp), %rax
	movl	$0, 20(%rax)
	movq	-16(%rbp), %rax
	movslq	16(%rax), %rdi
	movl	$120, %esi
	callq	calloc
	movq	-16(%rbp), %rcx
	movq	%rax, 24(%rcx)
	cmpq	$0, %rax
	jne	.LBB23_12
# %bb.11:                               # %if.then22
	movabsq	$.L.str.3, %rdi
	callq	no_mem_exit
.LBB23_12:                              # %if.end23
	movl	$0, -20(%rbp)
.LBB23_13:                              # %for.cond
                                        # =>This Inner Loop Header: Depth=1
	movl	-20(%rbp), %eax
	movq	-16(%rbp), %rcx
	cmpl	16(%rcx), %eax
	jge	.LBB23_20
# %bb.14:                               # %for.body
                                        #   in Loop: Header=BB23_13 Depth=1
	movq	-16(%rbp), %rax
	movq	24(%rax), %rax
	movslq	-20(%rbp), %rcx
	imulq	$120, %rcx, %rcx
	addq	%rcx, %rax
	movq	%rax, -40(%rbp)
	movl	$1, %edi
	movl	$48, %esi
	callq	calloc
	movq	-40(%rbp), %rcx
	movq	%rax, (%rcx)
	cmpq	$0, %rax
	jne	.LBB23_16
# %bb.15:                               # %if.then31
                                        #   in Loop: Header=BB23_13 Depth=1
	movabsq	$.L.str.4, %rdi
	callq	no_mem_exit
.LBB23_16:                              # %if.end32
                                        #   in Loop: Header=BB23_13 Depth=1
	movslq	-24(%rbp), %rdi
	movl	$1, %esi
	callq	calloc
	movq	-40(%rbp), %rcx
	movq	(%rcx), %rcx
	movq	%rax, 32(%rcx)
	cmpq	$0, %rax
	jne	.LBB23_18
# %bb.17:                               # %if.then38
                                        #   in Loop: Header=BB23_13 Depth=1
	movabsq	$.L.str.5, %rdi
	callq	no_mem_exit
.LBB23_18:                              # %if.end39
                                        #   in Loop: Header=BB23_13 Depth=1
	jmp	.LBB23_19
.LBB23_19:                              # %for.inc
                                        #   in Loop: Header=BB23_13 Depth=1
	movl	-20(%rbp), %eax
	addl	$1, %eax
	movl	%eax, -20(%rbp)
	jmp	.LBB23_13
.LBB23_20:                              # %for.end
	movq	-16(%rbp), %rbx
	cmpl	$1263830241, -28(%rbp)  # imm = 0x4B5484E1
	jne	.LBB23_22
.LBB23_21:
	movq	%rbx, %rax
	addq	$40, %rsp
	popq	%rbx
	popq	%rbp
	.cfi_def_cfa %rsp, 8
	retq
.LBB23_22:                              # %func_exit
	.cfi_def_cfa %rbp, 16
	callq	detect_breach
	jmp	.LBB23_21
.Lfunc_end23:
	.size	malloc_slice.13, .Lfunc_end23-malloc_slice.13
	.cfi_endproc
                                        # -- End function
	.globl	encode_one_slice.14     # -- Begin function encode_one_slice.14
	.p2align	4, 0x90
	.type	encode_one_slice.14,@function
encode_one_slice.14:                    # @encode_one_slice.14
	.cfi_startproc
# %bb.0:                                # %entry
	pushq	%rbp
	.cfi_def_cfa_offset 16
	.cfi_offset %rbp, -16
	movq	%rsp, %rbp
	.cfi_def_cfa_register %rbp
	pushq	%rbx
	subq	$56, %rsp
	.cfi_offset %rbx, -24
	movl	$1962137895, -56(%rbp)  # imm = 0x74F3D927
	movl	%edi, -52(%rbp)
	movq	%rsi, -64(%rbp)
	movl	$0, -20(%rbp)
	movl	$0, -16(%rbp)
	movq	img, %rax
	movl	$0, 120(%rax)
	movl	-52(%rbp), %edi
	callq	FmoGetFirstMacroblockInSlice
	movl	%eax, -12(%rbp)
	movl	-12(%rbp), %edi
	callq	init_slice
	movq	img, %rax
	movq	14160(%rax), %rax
	movq	24(%rax), %rax
	movq	(%rax), %rax
	movl	(%rax), %eax
	movl	%eax, Bytes_After_Header
	movq	input, %rax
	cmpl	$1, 2356(%rax)
	jne	.LBB24_2
# %bb.1:                                # %if.then
	movb	$0, %al
	callq	SetCtxModelNumber
.LBB24_2:                               # %if.end
	callq	start_slice
	movl	%eax, -28(%rbp)
	movl	-28(%rbp), %eax
	movq	img, %rcx
	addl	72524(%rcx), %eax
	movl	%eax, 72524(%rcx)
	movq	img, %rax
	movl	72620(%rax), %eax
	movq	img, %rcx
	cmpl	72608(%rcx), %eax
	jge	.LBB24_4
# %bb.3:                                # %if.then3
	movl	-28(%rbp), %eax
	movq	img, %rcx
	addl	72532(%rcx), %eax
	movl	%eax, 72532(%rcx)
.LBB24_4:                               # %if.end5
	movl	-28(%rbp), %eax
	movq	stats, %rcx
	addl	24(%rcx), %eax
	movl	%eax, 24(%rcx)
	movl	-28(%rbp), %eax
	movq	stats, %rcx
	movq	img, %rdx
	movslq	24(%rdx), %rdx
	addl	1368(%rcx,%rdx,4), %eax
	movl	%eax, 1368(%rcx,%rdx,4)
.LBB24_5:                               # %while.cond
                                        # =>This Inner Loop Header: Depth=1
	cmpl	$0, -20(%rbp)
	jne	.LBB24_33
# %bb.6:                                # %while.body
                                        #   in Loop: Header=BB24_5 Depth=1
	movq	img, %rax
	cmpl	$0, 72400(%rax)
	jne	.LBB24_15
# %bb.7:                                # %if.then10
                                        #   in Loop: Header=BB24_5 Depth=1
	movl	$0, -24(%rbp)
	movabsq	$rddata_top_frame_mb, %rax
	movq	%rax, rdopt
	movl	-12(%rbp), %edi
	xorl	%esi, %esi
	callq	start_macroblock
	callq	encode_one_macroblock
	movl	$1, %edi
	callq	write_one_macroblock
	leaq	-20(%rbp), %rdi
	leaq	-24(%rbp), %rsi
	callq	terminate_macroblock
	cmpl	$0, -24(%rbp)
	jne	.LBB24_11
# %bb.8:                                # %if.then12
                                        #   in Loop: Header=BB24_5 Depth=1
	movl	-12(%rbp), %edi
	callq	FmoGetNextMBNr
	movl	%eax, -12(%rbp)
	cmpl	$-1, -12(%rbp)
	jne	.LBB24_10
# %bb.9:                                # %if.then15
                                        #   in Loop: Header=BB24_5 Depth=1
	movl	$1, -20(%rbp)
.LBB24_10:                              # %if.end16
                                        #   in Loop: Header=BB24_5 Depth=1
	movl	-16(%rbp), %eax
	addl	$1, %eax
	movl	%eax, -16(%rbp)
	movl	-12(%rbp), %edi
	movb	$0, %al
	callq	proceed2nextMacroblock
	jmp	.LBB24_14
.LBB24_11:                              # %if.else
                                        #   in Loop: Header=BB24_5 Depth=1
	movq	img, %rax
	movl	12(%rax), %edi
	callq	FmoGetPreviousMBNr
	movq	img, %rcx
	movl	%eax, 12(%rcx)
	movq	img, %rax
	cmpl	$-1, 12(%rax)
	jne	.LBB24_13
# %bb.12:                               # %if.then21
                                        #   in Loop: Header=BB24_5 Depth=1
	movabsq	$errortext, %rdi
	movl	$300, %esi              # imm = 0x12C
	movabsq	$.L.str, %rdx
	movb	$0, %al
	callq	snprintf
	movabsq	$errortext, %rdi
	movl	$300, %esi              # imm = 0x12C
	callq	error
.LBB24_13:                              # %if.end23
                                        #   in Loop: Header=BB24_5 Depth=1
	jmp	.LBB24_14
.LBB24_14:                              # %if.end24
                                        #   in Loop: Header=BB24_5 Depth=1
	jmp	.LBB24_32
.LBB24_15:                              # %if.else25
                                        #   in Loop: Header=BB24_5 Depth=1
	movq	input, %rax
	cmpl	$2, 2884(%rax)
	jne	.LBB24_17
# %bb.16:                               # %if.then27
                                        #   in Loop: Header=BB24_5 Depth=1
	movl	$0, -24(%rbp)
	movq	img, %rax
	movl	$0, 72008(%rax)
	movq	img, %rax
	movl	$0, 72012(%rax)
	movq	img, %rax
	movl	$0, 72624(%rax)
	movq	img, %rax
	movl	$0, 72628(%rax)
	movl	-12(%rbp), %edi
	xorl	%esi, %esi
	callq	start_macroblock
	movabsq	$rddata_top_frame_mb, %rax
	movq	%rax, rdopt
	callq	encode_one_macroblock
	movq	rdopt, %rax
	vmovsd	(%rax), %xmm0           # xmm0 = mem[0],zero
	vmovsd	%xmm0, -40(%rbp)
	movq	img, %rax
	movl	$1, 72628(%rax)
	movq	img, %rax
	movl	$0, 72008(%rax)
	movl	-12(%rbp), %edi
	addl	$1, %edi
	xorl	%esi, %esi
	callq	start_macroblock
	movabsq	$rddata_bot_frame_mb, %rax
	movq	%rax, rdopt
	callq	encode_one_macroblock
	movq	rdopt, %rax
	vmovsd	(%rax), %xmm0           # xmm0 = mem[0],zero
	vaddsd	-40(%rbp), %xmm0, %xmm0
	vmovsd	%xmm0, -40(%rbp)
.LBB24_17:                              # %if.end33
                                        #   in Loop: Header=BB24_5 Depth=1
	movq	input, %rax
	cmpl	$2, 2884(%rax)
	je	.LBB24_19
# %bb.18:                               # %lor.lhs.false
                                        #   in Loop: Header=BB24_5 Depth=1
	movq	input, %rax
	cmpl	$1, 2884(%rax)
	jne	.LBB24_20
.LBB24_19:                              # %if.then38
                                        #   in Loop: Header=BB24_5 Depth=1
	movq	img, %rax
	movl	$0, 72628(%rax)
	movq	img, %rax
	movl	$1, 72008(%rax)
	movq	img, %rax
	movl	$1, 72012(%rax)
	movq	img, %rax
	movl	72376(%rax), %ecx
	shll	$1, %ecx
	movl	%ecx, 72376(%rax)
	movq	input, %rax
	movl	36(%rax), %ecx
	shll	$1, %ecx
	movl	%ecx, 36(%rax)
	movq	img, %rax
	movl	72000(%rax), %ecx
	shll	$1, %ecx
	movl	%ecx, 72000(%rax)
	movq	img, %rax
	movl	72000(%rax), %ecx
	addl	$1, %ecx
	movl	%ecx, 72000(%rax)
	movl	-12(%rbp), %edi
	movl	$1, %esi
	callq	start_macroblock
	movabsq	$rddata_top_field_mb, %rax
	movq	%rax, rdopt
	callq	encode_one_macroblock
	movq	rdopt, %rax
	vmovsd	(%rax), %xmm0           # xmm0 = mem[0],zero
	vmovsd	%xmm0, -48(%rbp)
	movq	img, %rax
	movl	$1, 72628(%rax)
	movq	img, %rax
	movl	$0, 72012(%rax)
	movl	-12(%rbp), %edi
	addl	$1, %edi
	movl	$1, %esi
	callq	start_macroblock
	movabsq	$rddata_bot_field_mb, %rax
	movq	%rax, rdopt
	callq	encode_one_macroblock
	movq	rdopt, %rax
	vmovsd	(%rax), %xmm0           # xmm0 = mem[0],zero
	vaddsd	-48(%rbp), %xmm0, %xmm0
	vmovsd	%xmm0, -48(%rbp)
.LBB24_20:                              # %if.end52
                                        #   in Loop: Header=BB24_5 Depth=1
	movq	img, %rax
	movl	$0, 72632(%rax)
	movq	input, %rax
	cmpl	$2, 2884(%rax)
	jne	.LBB24_23
# %bb.21:                               # %land.lhs.true
                                        #   in Loop: Header=BB24_5 Depth=1
	vmovsd	-40(%rbp), %xmm0        # xmm0 = mem[0],zero
	vmovsd	-48(%rbp), %xmm1        # xmm1 = mem[0],zero
	vucomisd	%xmm0, %xmm1
	jbe	.LBB24_23
# %bb.22:                               # %if.then56
                                        #   in Loop: Header=BB24_5 Depth=1
	movq	img, %rax
	movl	$0, 72008(%rax)
	movq	img, %rax
	movl	72376(%rax), %ecx
	sarl	$1, %ecx
	movl	%ecx, 72376(%rax)
	movq	input, %rax
	movl	36(%rax), %ecx
	sarl	$1, %ecx
	movl	%ecx, 36(%rax)
	movl	$0, MBPairIsField
	movq	img, %rax
	movl	72000(%rax), %ecx
	subl	$1, %ecx
	movl	%ecx, 72000(%rax)
	movq	img, %rax
	movl	72000(%rax), %ecx
	sarl	$1, %ecx
	movl	%ecx, 72000(%rax)
	movq	img, %rax
	movl	$1, 72632(%rax)
	jmp	.LBB24_24
.LBB24_23:                              # %if.else65
                                        #   in Loop: Header=BB24_5 Depth=1
	movq	img, %rax
	movl	$1, 72008(%rax)
	movl	$1, MBPairIsField
.LBB24_24:                              # %if.end67
                                        #   in Loop: Header=BB24_5 Depth=1
	movq	img, %rax
	movl	$1, 72624(%rax)
	cmpl	$0, MBPairIsField
	je	.LBB24_26
# %bb.25:                               # %if.then70
                                        #   in Loop: Header=BB24_5 Depth=1
	movq	img, %rax
	movl	$1, 72012(%rax)
	jmp	.LBB24_27
.LBB24_26:                              # %if.else72
                                        #   in Loop: Header=BB24_5 Depth=1
	movq	img, %rax
	movl	$0, 72012(%rax)
.LBB24_27:                              # %if.end74
                                        #   in Loop: Header=BB24_5 Depth=1
	movq	img, %rax
	movl	$0, 72628(%rax)
	movl	-12(%rbp), %edi
	movq	img, %rax
	movl	72008(%rax), %esi
	callq	start_macroblock
	movq	img, %rax
	movl	72008(%rax), %eax
	cmpl	$0, %eax
	movabsq	$rddata_top_field_mb, %rax
	movabsq	$rddata_top_frame_mb, %rcx
	cmovneq	%rax, %rcx
	movq	%rcx, rdopt
	xorl	%edi, %edi
	callq	copy_rdopt_data
	movl	$1, %edi
	callq	write_one_macroblock
	movl	-16(%rbp), %eax
	addl	$1, %eax
	movl	%eax, -16(%rbp)
	leaq	-20(%rbp), %rdi
	leaq	-24(%rbp), %rsi
	callq	terminate_macroblock
	movl	-12(%rbp), %edi
	movb	$0, %al
	callq	proceed2nextMacroblock
	movq	img, %rax
	movl	$1, 72628(%rax)
	movq	img, %rax
	movl	$0, 72012(%rax)
	movl	-12(%rbp), %edi
	addl	$1, %edi
	movq	img, %rax
	movl	72008(%rax), %esi
	callq	start_macroblock
	movq	img, %rax
	movl	72008(%rax), %eax
	cmpl	$0, %eax
	movabsq	$rddata_bot_field_mb, %rax
	movabsq	$rddata_bot_frame_mb, %rcx
	cmovneq	%rax, %rcx
	movq	%rcx, rdopt
	movl	$1, %edi
	callq	copy_rdopt_data
	xorl	%edi, %edi
	callq	write_one_macroblock
	movl	-16(%rbp), %eax
	addl	$1, %eax
	movl	%eax, -16(%rbp)
	leaq	-20(%rbp), %rdi
	leaq	-24(%rbp), %rsi
	callq	terminate_macroblock
	movl	-12(%rbp), %edi
	movb	$0, %al
	callq	proceed2nextMacroblock
	cmpl	$0, MBPairIsField
	je	.LBB24_29
# %bb.28:                               # %if.then89
                                        #   in Loop: Header=BB24_5 Depth=1
	movq	img, %rax
	movl	72376(%rax), %ecx
	sarl	$1, %ecx
	movl	%ecx, 72376(%rax)
	movq	input, %rax
	movl	36(%rax), %ecx
	sarl	$1, %ecx
	movl	%ecx, 36(%rax)
	movq	img, %rax
	movl	72000(%rax), %ecx
	subl	$1, %ecx
	movl	%ecx, 72000(%rax)
	movq	img, %rax
	movl	72000(%rax), %ecx
	sarl	$1, %ecx
	movl	%ecx, 72000(%rax)
.LBB24_29:                              # %if.end98
                                        #   in Loop: Header=BB24_5 Depth=1
	movq	img, %rax
	movl	$0, 72012(%rax)
	movq	img, %rax
	movl	$0, 72008(%rax)
	movl	-12(%rbp), %edi
	callq	FmoGetNextMBNr
	movl	%eax, -12(%rbp)
	movl	-12(%rbp), %edi
	callq	FmoGetNextMBNr
	movl	%eax, -12(%rbp)
	movl	-12(%rbp), %ebx
	movl	-12(%rbp), %edi
	callq	FmoMB2SliceGroup
	movl	%eax, %edi
	callq	FmoGetLastCodedMBOfSliceGroup
	cmpl	%eax, %ebx
	jne	.LBB24_31
# %bb.30:                               # %if.then106
                                        #   in Loop: Header=BB24_5 Depth=1
	movl	$1, -20(%rbp)
.LBB24_31:                              # %if.end107
                                        #   in Loop: Header=BB24_5 Depth=1
	jmp	.LBB24_32
.LBB24_32:                              # %if.end108
                                        #   in Loop: Header=BB24_5 Depth=1
	jmp	.LBB24_5
.LBB24_33:                              # %while.end
	callq	terminate_slice
	movl	-16(%rbp), %ebx
	cmpl	$1962137895, -56(%rbp)  # imm = 0x74F3D927
	jne	.LBB24_35
.LBB24_34:
	movl	%ebx, %eax
	addq	$56, %rsp
	popq	%rbx
	popq	%rbp
	.cfi_def_cfa %rsp, 8
	retq
.LBB24_35:                              # %func_exit
	.cfi_def_cfa %rbp, 16
	callq	detect_breach
	jmp	.LBB24_34
.Lfunc_end24:
	.size	encode_one_slice.14, .Lfunc_end24-encode_one_slice.14
	.cfi_endproc
                                        # -- End function
	.globl	poc_ref_pic_reorder.15  # -- Begin function poc_ref_pic_reorder.15
	.p2align	4, 0x90
	.type	poc_ref_pic_reorder.15,@function
poc_ref_pic_reorder.15:                 # @poc_ref_pic_reorder.15
	.cfi_startproc
# %bb.0:                                # %entry
	pushq	%rbp
	.cfi_def_cfa_offset 16
	.cfi_offset %rbp, -16
	movq	%rsp, %rbp
	.cfi_def_cfa_register %rbp
	subq	$736, %rsp              # imm = 0x2E0
	movl	16(%rbp), %eax
	movl	$2037233571, -72(%rbp)  # imm = 0x796DB7A3
	movq	%rdi, -80(%rbp)
	movl	%esi, -12(%rbp)
	movq	%rdx, -64(%rbp)
	movq	%rcx, -56(%rbp)
	movq	%r8, -96(%rbp)
	movl	%r9d, -84(%rbp)
	movl	log2_max_frame_num_minus4, %ecx
	addl	$4, %ecx
                                        # kill: def $cl killed $ecx
	movl	$1, %eax
	shll	%cl, %eax
	movl	%eax, -44(%rbp)
	movq	img, %rax
	cmpl	$0, 28(%rax)
	jne	.LBB25_2
# %bb.1:                                # %if.then
	movl	-44(%rbp), %eax
	movl	%eax, -40(%rbp)
	movq	img, %rax
	movl	72464(%rax), %eax
	movl	%eax, -36(%rbp)
	jmp	.LBB25_3
.LBB25_2:                               # %if.else
	movl	-44(%rbp), %eax
	shll	$1, %eax
	movl	%eax, -40(%rbp)
	movq	img, %rax
	movl	72464(%rax), %eax
	shll	$1, %eax
	addl	$1, %eax
	movl	%eax, -36(%rbp)
.LBB25_3:                               # %if.end
	movl	-36(%rbp), %eax
	movl	%eax, -28(%rbp)
	movl	$0, -4(%rbp)
.LBB25_4:                               # %for.cond
                                        # =>This Inner Loop Header: Depth=1
	movl	-4(%rbp), %eax
	cmpl	-12(%rbp), %eax
	jae	.LBB25_7
# %bb.5:                                # %for.body
                                        #   in Loop: Header=BB25_4 Depth=1
	movq	-80(%rbp), %rax
	movl	-4(%rbp), %ecx
	movq	(%rax,%rcx,8), %rax
	movl	6364(%rax), %eax
	movl	-4(%rbp), %ecx
	movl	%eax, -608(%rbp,%rcx,4)
# %bb.6:                                # %for.inc
                                        #   in Loop: Header=BB25_4 Depth=1
	movl	-4(%rbp), %eax
	addl	$1, %eax
	movl	%eax, -4(%rbp)
	jmp	.LBB25_4
.LBB25_7:                               # %for.end
	movl	$0, -4(%rbp)
.LBB25_8:                               # %for.cond7
                                        # =>This Inner Loop Header: Depth=1
	movl	-4(%rbp), %eax
	cmpl	dpb+32, %eax
	jae	.LBB25_24
# %bb.9:                                # %for.body9
                                        #   in Loop: Header=BB25_8 Depth=1
	movq	dpb+8, %rax
	movl	-4(%rbp), %ecx
	movq	(%rax,%rcx,8), %rax
	movq	40(%rax), %rax
	movl	6364(%rax), %eax
	movl	-4(%rbp), %ecx
	movl	%eax, -224(%rbp,%rcx,4)
	movq	dpb+8, %rax
	movl	-4(%rbp), %ecx
	movq	(%rax,%rcx,8), %rax
	cmpl	$3, (%rax)
	jne	.LBB25_22
# %bb.10:                               # %land.lhs.true
                                        #   in Loop: Header=BB25_8 Depth=1
	movq	dpb+8, %rax
	movl	-4(%rbp), %ecx
	movq	(%rax,%rcx,8), %rax
	movq	40(%rax), %rax
	cmpl	$0, 6380(%rax)
	je	.LBB25_22
# %bb.11:                               # %land.lhs.true21
                                        #   in Loop: Header=BB25_8 Depth=1
	movq	dpb+8, %rax
	movl	-4(%rbp), %ecx
	movq	(%rax,%rcx,8), %rax
	movq	40(%rax), %rax
	cmpl	$0, 6376(%rax)
	jne	.LBB25_22
# %bb.12:                               # %if.then26
                                        #   in Loop: Header=BB25_8 Depth=1
	movq	dpb+8, %rax
	movl	-4(%rbp), %ecx
	movq	(%rax,%rcx,8), %rax
	movq	40(%rax), %rax
	movl	4(%rax), %edi
	movq	enc_picture, %rax
	subl	4(%rax), %edi
	callq	abs
	movl	%eax, -68(%rbp)
	movl	-68(%rbp), %eax
	movl	-4(%rbp), %ecx
	movl	%eax, -480(%rbp,%rcx,4)
	cmpl	$0, 16(%rbp)
	jne	.LBB25_17
# %bb.13:                               # %if.then34
                                        #   in Loop: Header=BB25_8 Depth=1
	movq	enc_picture, %rax
	movl	4(%rax), %eax
	movq	dpb+8, %rcx
	movl	-4(%rbp), %edx
	movq	(%rcx,%rdx,8), %rcx
	movq	40(%rcx), %rcx
	cmpl	4(%rcx), %eax
	jge	.LBB25_15
# %bb.14:                               # %if.then41
                                        #   in Loop: Header=BB25_8 Depth=1
	movl	-4(%rbp), %eax
	movl	$1, -352(%rbp,%rax,4)
	jmp	.LBB25_16
.LBB25_15:                              # %if.else44
                                        #   in Loop: Header=BB25_8 Depth=1
	movl	-4(%rbp), %eax
	movl	$-1, -352(%rbp,%rax,4)
.LBB25_16:                              # %if.end47
                                        #   in Loop: Header=BB25_8 Depth=1
	jmp	.LBB25_21
.LBB25_17:                              # %if.else48
                                        #   in Loop: Header=BB25_8 Depth=1
	movq	enc_picture, %rax
	movl	4(%rax), %eax
	movq	dpb+8, %rcx
	movl	-4(%rbp), %edx
	movq	(%rcx,%rdx,8), %rcx
	movq	40(%rcx), %rcx
	cmpl	4(%rcx), %eax
	jle	.LBB25_19
# %bb.18:                               # %if.then55
                                        #   in Loop: Header=BB25_8 Depth=1
	movl	-4(%rbp), %eax
	movl	$1, -352(%rbp,%rax,4)
	jmp	.LBB25_20
.LBB25_19:                              # %if.else58
                                        #   in Loop: Header=BB25_8 Depth=1
	movl	-4(%rbp), %eax
	movl	$-1, -352(%rbp,%rax,4)
.LBB25_20:                              # %if.end61
                                        #   in Loop: Header=BB25_8 Depth=1
	jmp	.LBB25_21
.LBB25_21:                              # %if.end62
                                        #   in Loop: Header=BB25_8 Depth=1
	jmp	.LBB25_22
.LBB25_22:                              # %if.end63
                                        #   in Loop: Header=BB25_8 Depth=1
	jmp	.LBB25_23
.LBB25_23:                              # %for.inc64
                                        #   in Loop: Header=BB25_8 Depth=1
	movl	-4(%rbp), %eax
	addl	$1, %eax
	movl	%eax, -4(%rbp)
	jmp	.LBB25_8
.LBB25_24:                              # %for.end66
	movl	$0, -4(%rbp)
.LBB25_25:                              # %for.cond67
                                        # =>This Loop Header: Depth=1
                                        #     Child Loop BB25_27 Depth 2
	movl	-4(%rbp), %eax
	movl	dpb+32, %ecx
	subl	$1, %ecx
	cmpl	%ecx, %eax
	jae	.LBB25_36
# %bb.26:                               # %for.body70
                                        #   in Loop: Header=BB25_25 Depth=1
	movl	-4(%rbp), %eax
	addl	$1, %eax
	movl	%eax, -8(%rbp)
.LBB25_27:                              # %for.cond72
                                        #   Parent Loop BB25_25 Depth=1
                                        # =>  This Inner Loop Header: Depth=2
	movl	-8(%rbp), %eax
	cmpl	dpb+32, %eax
	jae	.LBB25_34
# %bb.28:                               # %for.body74
                                        #   in Loop: Header=BB25_27 Depth=2
	movl	-4(%rbp), %eax
	movl	-480(%rbp,%rax,4), %eax
	movl	-8(%rbp), %ecx
	cmpl	-480(%rbp,%rcx,4), %eax
	jg	.LBB25_31
# %bb.29:                               # %lor.lhs.false
                                        #   in Loop: Header=BB25_27 Depth=2
	movl	-4(%rbp), %eax
	movl	-480(%rbp,%rax,4), %eax
	movl	-8(%rbp), %ecx
	cmpl	-480(%rbp,%rcx,4), %eax
	jne	.LBB25_32
# %bb.30:                               # %land.lhs.true85
                                        #   in Loop: Header=BB25_27 Depth=2
	movl	-8(%rbp), %eax
	movl	-352(%rbp,%rax,4), %eax
	movl	-4(%rbp), %ecx
	cmpl	-352(%rbp,%rcx,4), %eax
	jle	.LBB25_32
.LBB25_31:                              # %if.then91
                                        #   in Loop: Header=BB25_27 Depth=2
	movl	-4(%rbp), %eax
	movl	-480(%rbp,%rax,4), %eax
	movl	%eax, -16(%rbp)
	movl	-8(%rbp), %eax
	movl	-480(%rbp,%rax,4), %eax
	movl	-4(%rbp), %ecx
	movl	%eax, -480(%rbp,%rcx,4)
	movl	-16(%rbp), %eax
	movl	-8(%rbp), %ecx
	movl	%eax, -480(%rbp,%rcx,4)
	movl	-4(%rbp), %eax
	movl	-224(%rbp,%rax,4), %eax
	movl	%eax, -16(%rbp)
	movl	-8(%rbp), %eax
	movl	-224(%rbp,%rax,4), %eax
	movl	-4(%rbp), %ecx
	movl	%eax, -224(%rbp,%rcx,4)
	movl	-16(%rbp), %eax
	movl	-8(%rbp), %ecx
	movl	%eax, -224(%rbp,%rcx,4)
	movl	-4(%rbp), %eax
	movl	-352(%rbp,%rax,4), %eax
	movl	%eax, -16(%rbp)
	movl	-8(%rbp), %eax
	movl	-352(%rbp,%rax,4), %eax
	movl	-4(%rbp), %ecx
	movl	%eax, -352(%rbp,%rcx,4)
	movl	-16(%rbp), %eax
	movl	-8(%rbp), %ecx
	movl	%eax, -352(%rbp,%rcx,4)
.LBB25_32:                              # %if.end116
                                        #   in Loop: Header=BB25_27 Depth=2
	jmp	.LBB25_33
.LBB25_33:                              # %for.inc117
                                        #   in Loop: Header=BB25_27 Depth=2
	movl	-8(%rbp), %eax
	addl	$1, %eax
	movl	%eax, -8(%rbp)
	jmp	.LBB25_27
.LBB25_34:                              # %for.end119
                                        #   in Loop: Header=BB25_25 Depth=1
	jmp	.LBB25_35
.LBB25_35:                              # %for.inc120
                                        #   in Loop: Header=BB25_25 Depth=1
	movl	-4(%rbp), %eax
	addl	$1, %eax
	movl	%eax, -4(%rbp)
	jmp	.LBB25_25
.LBB25_36:                              # %for.end122
	movl	$1, -48(%rbp)
	movl	$0, -4(%rbp)
.LBB25_37:                              # %for.cond123
                                        # =>This Inner Loop Header: Depth=1
	movl	-4(%rbp), %eax
	cmpl	-12(%rbp), %eax
	jae	.LBB25_42
# %bb.38:                               # %for.body125
                                        #   in Loop: Header=BB25_37 Depth=1
	movl	-4(%rbp), %eax
	movl	-608(%rbp,%rax,4), %eax
	movl	-4(%rbp), %ecx
	cmpl	-224(%rbp,%rcx,4), %eax
	je	.LBB25_40
# %bb.39:                               # %if.then131
                                        #   in Loop: Header=BB25_37 Depth=1
	movl	$0, -48(%rbp)
.LBB25_40:                              # %if.end132
                                        #   in Loop: Header=BB25_37 Depth=1
	jmp	.LBB25_41
.LBB25_41:                              # %for.inc133
                                        #   in Loop: Header=BB25_37 Depth=1
	movl	-4(%rbp), %eax
	addl	$1, %eax
	movl	%eax, -4(%rbp)
	jmp	.LBB25_37
.LBB25_42:                              # %for.end135
	cmpl	$0, -48(%rbp)
	jne	.LBB25_80
# %bb.43:                               # %if.then137
	movl	$0, -4(%rbp)
.LBB25_44:                              # %for.cond138
                                        # =>This Loop Header: Depth=1
                                        #     Child Loop BB25_51 Depth 2
                                        #     Child Loop BB25_57 Depth 2
                                        #     Child Loop BB25_66 Depth 2
	movl	-4(%rbp), %eax
	cmpl	-12(%rbp), %eax
	jae	.LBB25_71
# %bb.45:                               # %for.body140
                                        #   in Loop: Header=BB25_44 Depth=1
	movl	-4(%rbp), %eax
	movl	-224(%rbp,%rax,4), %eax
	subl	-28(%rbp), %eax
	movl	%eax, -24(%rbp)
	cmpl	$0, -24(%rbp)
	jg	.LBB25_49
# %bb.46:                               # %if.then145
                                        #   in Loop: Header=BB25_44 Depth=1
	movq	-64(%rbp), %rax
	movl	-4(%rbp), %ecx
	movl	$0, (%rax,%rcx,4)
	movl	-24(%rbp), %edi
	callq	abs
	subl	$1, %eax
	movq	-56(%rbp), %rcx
	movl	-4(%rbp), %edx
	movl	%eax, (%rcx,%rdx,4)
	movq	-56(%rbp), %rax
	movl	-4(%rbp), %ecx
	cmpl	$0, (%rax,%rcx,4)
	jge	.LBB25_48
# %bb.47:                               # %if.then155
                                        #   in Loop: Header=BB25_44 Depth=1
	movl	-40(%rbp), %eax
	subl	$1, %eax
	movq	-56(%rbp), %rcx
	movl	-4(%rbp), %edx
	movl	%eax, (%rcx,%rdx,4)
.LBB25_48:                              # %if.end159
                                        #   in Loop: Header=BB25_44 Depth=1
	jmp	.LBB25_50
.LBB25_49:                              # %if.else160
                                        #   in Loop: Header=BB25_44 Depth=1
	movq	-64(%rbp), %rax
	movl	-4(%rbp), %ecx
	movl	$1, (%rax,%rcx,4)
	movl	-24(%rbp), %edi
	callq	abs
	subl	$1, %eax
	movq	-56(%rbp), %rcx
	movl	-4(%rbp), %edx
	movl	%eax, (%rcx,%rdx,4)
.LBB25_50:                              # %if.end167
                                        #   in Loop: Header=BB25_44 Depth=1
	movl	-4(%rbp), %eax
	movl	-224(%rbp,%rax,4), %eax
	movl	%eax, -28(%rbp)
	movl	-4(%rbp), %eax
	movl	-224(%rbp,%rax,4), %eax
	movl	-4(%rbp), %ecx
	movl	%eax, -736(%rbp,%rcx,4)
	movl	-4(%rbp), %eax
	movl	%eax, -20(%rbp)
	movl	-4(%rbp), %eax
	movl	%eax, -8(%rbp)
.LBB25_51:                              # %for.cond174
                                        #   Parent Loop BB25_44 Depth=1
                                        # =>  This Inner Loop Header: Depth=2
	movl	-8(%rbp), %eax
	cmpl	-12(%rbp), %eax
	jae	.LBB25_56
# %bb.52:                               # %for.body176
                                        #   in Loop: Header=BB25_51 Depth=2
	movl	-8(%rbp), %eax
	movl	-608(%rbp,%rax,4), %eax
	movl	-4(%rbp), %ecx
	cmpl	-224(%rbp,%rcx,4), %eax
	je	.LBB25_54
# %bb.53:                               # %if.then182
                                        #   in Loop: Header=BB25_51 Depth=2
	movl	-20(%rbp), %eax
	addl	$1, %eax
	movl	%eax, -20(%rbp)
	movl	-8(%rbp), %eax
	movl	-608(%rbp,%rax,4), %eax
	movl	-20(%rbp), %ecx
	movl	%eax, -736(%rbp,%rcx,4)
.LBB25_54:                              # %if.end188
                                        #   in Loop: Header=BB25_51 Depth=2
	jmp	.LBB25_55
.LBB25_55:                              # %for.inc189
                                        #   in Loop: Header=BB25_51 Depth=2
	movl	-8(%rbp), %eax
	addl	$1, %eax
	movl	%eax, -8(%rbp)
	jmp	.LBB25_51
.LBB25_56:                              # %for.end191
                                        #   in Loop: Header=BB25_44 Depth=1
	movl	$1, -32(%rbp)
	movl	-4(%rbp), %eax
	addl	$1, %eax
	movl	%eax, -8(%rbp)
.LBB25_57:                              # %for.cond193
                                        #   Parent Loop BB25_44 Depth=1
                                        # =>  This Inner Loop Header: Depth=2
	movl	-8(%rbp), %eax
	cmpl	-12(%rbp), %eax
	jae	.LBB25_62
# %bb.58:                               # %for.body195
                                        #   in Loop: Header=BB25_57 Depth=2
	movl	-8(%rbp), %eax
	movl	-736(%rbp,%rax,4), %eax
	movl	-8(%rbp), %ecx
	cmpl	-224(%rbp,%rcx,4), %eax
	je	.LBB25_60
# %bb.59:                               # %if.then201
                                        #   in Loop: Header=BB25_44 Depth=1
	movl	$0, -32(%rbp)
	jmp	.LBB25_63
.LBB25_60:                              # %if.end202
                                        #   in Loop: Header=BB25_57 Depth=2
	jmp	.LBB25_61
.LBB25_61:                              # %for.inc203
                                        #   in Loop: Header=BB25_57 Depth=2
	movl	-8(%rbp), %eax
	addl	$1, %eax
	movl	%eax, -8(%rbp)
	jmp	.LBB25_57
.LBB25_62:                              # %for.end205.loopexit
                                        #   in Loop: Header=BB25_44 Depth=1
	jmp	.LBB25_63
.LBB25_63:                              # %for.end205
                                        #   in Loop: Header=BB25_44 Depth=1
	cmpl	$1, -32(%rbp)
	jne	.LBB25_65
# %bb.64:                               # %if.then207
	movl	-4(%rbp), %eax
	addl	$1, %eax
	movl	%eax, -4(%rbp)
	jmp	.LBB25_72
.LBB25_65:                              # %if.end209
                                        #   in Loop: Header=BB25_44 Depth=1
	movl	$0, -8(%rbp)
.LBB25_66:                              # %for.cond210
                                        #   Parent Loop BB25_44 Depth=1
                                        # =>  This Inner Loop Header: Depth=2
	movl	-8(%rbp), %eax
	cmpl	-12(%rbp), %eax
	jae	.LBB25_69
# %bb.67:                               # %for.body212
                                        #   in Loop: Header=BB25_66 Depth=2
	movl	-8(%rbp), %eax
	movl	-736(%rbp,%rax,4), %eax
	movl	-8(%rbp), %ecx
	movl	%eax, -608(%rbp,%rcx,4)
# %bb.68:                               # %for.inc217
                                        #   in Loop: Header=BB25_66 Depth=2
	movl	-8(%rbp), %eax
	addl	$1, %eax
	movl	%eax, -8(%rbp)
	jmp	.LBB25_66
.LBB25_69:                              # %for.end219
                                        #   in Loop: Header=BB25_44 Depth=1
	jmp	.LBB25_70
.LBB25_70:                              # %for.inc220
                                        #   in Loop: Header=BB25_44 Depth=1
	movl	-4(%rbp), %eax
	addl	$1, %eax
	movl	%eax, -4(%rbp)
	jmp	.LBB25_44
.LBB25_71:                              # %for.end222.loopexit
	jmp	.LBB25_72
.LBB25_72:                              # %for.end222
	movq	-64(%rbp), %rax
	movl	-4(%rbp), %ecx
	movl	$3, (%rax,%rcx,4)
	movl	$0, -8(%rbp)
.LBB25_73:                              # %for.cond225
                                        # =>This Inner Loop Header: Depth=1
	movl	-8(%rbp), %eax
	cmpl	-12(%rbp), %eax
	jae	.LBB25_76
# %bb.74:                               # %for.body227
                                        #   in Loop: Header=BB25_73 Depth=1
	movl	-8(%rbp), %eax
	movl	-736(%rbp,%rax,4), %eax
	movl	-8(%rbp), %ecx
	movl	%eax, -608(%rbp,%rcx,4)
# %bb.75:                               # %for.inc232
                                        #   in Loop: Header=BB25_73 Depth=1
	movl	-8(%rbp), %eax
	addl	$1, %eax
	movl	%eax, -8(%rbp)
	jmp	.LBB25_73
.LBB25_76:                              # %for.end234
	cmpl	$0, 16(%rbp)
	jne	.LBB25_78
# %bb.77:                               # %if.then236
	movq	img, %rax
	movq	14160(%rax), %rax
	movl	$1, 56(%rax)
	jmp	.LBB25_79
.LBB25_78:                              # %if.else237
	movq	img, %rax
	movq	14160(%rax), %rax
	movl	$1, 88(%rax)
.LBB25_79:                              # %if.end239
	jmp	.LBB25_80
.LBB25_80:                              # %if.end240
	cmpl	$2037233571, -72(%rbp)  # imm = 0x796DB7A3
	jne	.LBB25_82
.LBB25_81:
	addq	$736, %rsp              # imm = 0x2E0
	popq	%rbp
	.cfi_def_cfa %rsp, 8
	retq
.LBB25_82:                              # %func_exit
	.cfi_def_cfa %rbp, 16
	callq	detect_breach
	jmp	.LBB25_81
.Lfunc_end25:
	.size	poc_ref_pic_reorder.15, .Lfunc_end25-poc_ref_pic_reorder.15
	.cfi_endproc
                                        # -- End function
	.globl	start_slice.16          # -- Begin function start_slice.16
	.p2align	4, 0x90
	.type	start_slice.16,@function
start_slice.16:                         # @start_slice.16
	.cfi_startproc
# %bb.0:                                # %entry
	pushq	%rbp
	.cfi_def_cfa_offset 16
	.cfi_offset %rbp, -16
	movq	%rsp, %rbp
	.cfi_def_cfa_register %rbp
	pushq	%rbx
	subq	$40, %rsp
	.cfi_offset %rbx, -24
	movl	$1509315998, -32(%rbp)  # imm = 0x59F6559E
	movq	img, %rax
	movq	14160(%rax), %rax
	movq	%rax, -40(%rbp)
	movl	$0, -12(%rbp)
	movq	input, %rax
	movl	2364(%rax), %eax
	cmpl	$0, %eax
	movl	$1, %eax
	movl	$3, %ecx
	cmovel	%eax, %ecx
	movl	%ecx, -28(%rbp)
	movq	img, %rax
	movq	14152(%rax), %rax
	cmpl	$0, 4(%rax)
	je	.LBB26_2
# %bb.1:                                # %if.then
	movl	$1, -28(%rbp)
.LBB26_2:                               # %if.end
	movq	img, %rax
	movl	71792(%rax), %edi
	callq	RTPUpdateTimestamp
	movl	$0, -16(%rbp)
.LBB26_3:                               # %for.cond
                                        # =>This Inner Loop Header: Depth=1
	movl	-16(%rbp), %eax
	cmpl	-28(%rbp), %eax
	jge	.LBB26_14
# %bb.4:                                # %for.body
                                        #   in Loop: Header=BB26_3 Depth=1
	movq	-40(%rbp), %rax
	movq	24(%rax), %rax
	movslq	-16(%rbp), %rcx
	imulq	$120, %rcx, %rcx
	addq	%rcx, %rax
	movq	(%rax), %rax
	movq	%rax, -24(%rbp)
	movq	-24(%rbp), %rax
	movl	$0, 40(%rax)
	cmpl	$0, -16(%rbp)
	jne	.LBB26_6
# %bb.5:                                # %if.then3
                                        #   in Loop: Header=BB26_3 Depth=1
	xorl	%edi, %edi
	movb	$0, %al
	callq	SliceHeader
	addl	-12(%rbp), %eax
	movl	%eax, -12(%rbp)
	jmp	.LBB26_7
.LBB26_6:                               # %if.else
                                        #   in Loop: Header=BB26_3 Depth=1
	movl	-16(%rbp), %edi
	movb	$0, %al
	callq	Partition_BC_Header
	addl	-12(%rbp), %eax
	movl	%eax, -12(%rbp)
.LBB26_7:                               # %if.end6
                                        #   in Loop: Header=BB26_3 Depth=1
	movq	input, %rax
	cmpl	$1, 2356(%rax)
	jne	.LBB26_11
# %bb.8:                                # %if.then8
                                        #   in Loop: Header=BB26_3 Depth=1
	movq	-40(%rbp), %rax
	movq	24(%rax), %rax
	movslq	-16(%rbp), %rcx
	imulq	$120, %rcx, %rcx
	addq	%rcx, %rax
	addq	$8, %rax
	movq	%rax, -48(%rbp)
	movq	-24(%rbp), %rax
	cmpl	$8, 4(%rax)
	je	.LBB26_10
# %bb.9:                                # %if.then13
                                        #   in Loop: Header=BB26_3 Depth=1
	movq	-24(%rbp), %rax
	movl	4(%rax), %eax
	addl	-12(%rbp), %eax
	movl	%eax, -12(%rbp)
.LBB26_10:                              # %if.end16
                                        #   in Loop: Header=BB26_3 Depth=1
	movq	-24(%rbp), %rdi
	callq	writeVlcByteAlign
	movq	-48(%rbp), %rdi
	movq	-24(%rbp), %rax
	movq	32(%rax), %rsi
	movq	-24(%rbp), %rdx
	movq	img, %rax
	movl	24(%rax), %ecx
	callq	arienco_start_encoding
	movb	$0, %al
	callq	cabac_new_slice
	jmp	.LBB26_12
.LBB26_11:                              # %if.else17
                                        #   in Loop: Header=BB26_3 Depth=1
	movb	$0, %al
	callq	CAVLC_init
.LBB26_12:                              # %if.end18
                                        #   in Loop: Header=BB26_3 Depth=1
	jmp	.LBB26_13
.LBB26_13:                              # %for.inc
                                        #   in Loop: Header=BB26_3 Depth=1
	movl	-16(%rbp), %eax
	addl	$1, %eax
	movl	%eax, -16(%rbp)
	jmp	.LBB26_3
.LBB26_14:                              # %for.end
	movq	input, %rax
	cmpl	$1, 2356(%rax)
	jne	.LBB26_16
# %bb.15:                               # %if.then21
	movb	$0, %al
	callq	init_contexts
.LBB26_16:                              # %if.end22
	movl	-12(%rbp), %ebx
	cmpl	$1509315998, -32(%rbp)  # imm = 0x59F6559E
	jne	.LBB26_18
.LBB26_17:
	movl	%ebx, %eax
	addq	$40, %rsp
	popq	%rbx
	popq	%rbp
	.cfi_def_cfa %rsp, 8
	retq
.LBB26_18:                              # %func_exit
	.cfi_def_cfa %rbp, 16
	callq	detect_breach
	jmp	.LBB26_17
.Lfunc_end26:
	.size	start_slice.16, .Lfunc_end26-start_slice.16
	.cfi_endproc
                                        # -- End function
	.globl	encode_one_slice.17     # -- Begin function encode_one_slice.17
	.p2align	4, 0x90
	.type	encode_one_slice.17,@function
encode_one_slice.17:                    # @encode_one_slice.17
	.cfi_startproc
# %bb.0:                                # %entry
	pushq	%rbp
	.cfi_def_cfa_offset 16
	.cfi_offset %rbp, -16
	movq	%rsp, %rbp
	.cfi_def_cfa_register %rbp
	pushq	%rbx
	subq	$56, %rsp
	.cfi_offset %rbx, -24
	movl	$1246307195, -52(%rbp)  # imm = 0x4A49237B
	movl	%edi, -56(%rbp)
	movq	%rsi, -64(%rbp)
	movl	$0, -20(%rbp)
	movl	$0, -16(%rbp)
	movq	img, %rax
	movl	$0, 120(%rax)
	movl	-56(%rbp), %edi
	callq	FmoGetFirstMacroblockInSlice
	movl	%eax, -12(%rbp)
	movl	-12(%rbp), %edi
	callq	init_slice
	movq	img, %rax
	movq	14160(%rax), %rax
	movq	24(%rax), %rax
	movq	(%rax), %rax
	movl	(%rax), %eax
	movl	%eax, Bytes_After_Header
	movq	input, %rax
	cmpl	$1, 2356(%rax)
	jne	.LBB27_2
# %bb.1:                                # %if.then
	movb	$0, %al
	callq	SetCtxModelNumber
.LBB27_2:                               # %if.end
	callq	start_slice
	movl	%eax, -28(%rbp)
	movl	-28(%rbp), %eax
	movq	img, %rcx
	addl	72524(%rcx), %eax
	movl	%eax, 72524(%rcx)
	movq	img, %rax
	movl	72620(%rax), %eax
	movq	img, %rcx
	cmpl	72608(%rcx), %eax
	jge	.LBB27_4
# %bb.3:                                # %if.then3
	movl	-28(%rbp), %eax
	movq	img, %rcx
	addl	72532(%rcx), %eax
	movl	%eax, 72532(%rcx)
.LBB27_4:                               # %if.end5
	movl	-28(%rbp), %eax
	movq	stats, %rcx
	addl	24(%rcx), %eax
	movl	%eax, 24(%rcx)
	movl	-28(%rbp), %eax
	movq	stats, %rcx
	movq	img, %rdx
	movslq	24(%rdx), %rdx
	addl	1368(%rcx,%rdx,4), %eax
	movl	%eax, 1368(%rcx,%rdx,4)
.LBB27_5:                               # %while.cond
                                        # =>This Inner Loop Header: Depth=1
	cmpl	$0, -20(%rbp)
	jne	.LBB27_33
# %bb.6:                                # %while.body
                                        #   in Loop: Header=BB27_5 Depth=1
	movq	img, %rax
	cmpl	$0, 72400(%rax)
	jne	.LBB27_15
# %bb.7:                                # %if.then10
                                        #   in Loop: Header=BB27_5 Depth=1
	movl	$0, -24(%rbp)
	movabsq	$rddata_top_frame_mb, %rax
	movq	%rax, rdopt
	movl	-12(%rbp), %edi
	xorl	%esi, %esi
	callq	start_macroblock
	callq	encode_one_macroblock
	movl	$1, %edi
	callq	write_one_macroblock
	leaq	-20(%rbp), %rdi
	leaq	-24(%rbp), %rsi
	callq	terminate_macroblock
	cmpl	$0, -24(%rbp)
	jne	.LBB27_11
# %bb.8:                                # %if.then12
                                        #   in Loop: Header=BB27_5 Depth=1
	movl	-12(%rbp), %edi
	callq	FmoGetNextMBNr
	movl	%eax, -12(%rbp)
	cmpl	$-1, -12(%rbp)
	jne	.LBB27_10
# %bb.9:                                # %if.then15
                                        #   in Loop: Header=BB27_5 Depth=1
	movl	$1, -20(%rbp)
.LBB27_10:                              # %if.end16
                                        #   in Loop: Header=BB27_5 Depth=1
	movl	-16(%rbp), %eax
	addl	$1, %eax
	movl	%eax, -16(%rbp)
	movl	-12(%rbp), %edi
	movb	$0, %al
	callq	proceed2nextMacroblock
	jmp	.LBB27_14
.LBB27_11:                              # %if.else
                                        #   in Loop: Header=BB27_5 Depth=1
	movq	img, %rax
	movl	12(%rax), %edi
	callq	FmoGetPreviousMBNr
	movq	img, %rcx
	movl	%eax, 12(%rcx)
	movq	img, %rax
	cmpl	$-1, 12(%rax)
	jne	.LBB27_13
# %bb.12:                               # %if.then21
                                        #   in Loop: Header=BB27_5 Depth=1
	movabsq	$errortext, %rdi
	movl	$300, %esi              # imm = 0x12C
	movabsq	$.L.str, %rdx
	movb	$0, %al
	callq	snprintf
	movabsq	$errortext, %rdi
	movl	$300, %esi              # imm = 0x12C
	callq	error
.LBB27_13:                              # %if.end23
                                        #   in Loop: Header=BB27_5 Depth=1
	jmp	.LBB27_14
.LBB27_14:                              # %if.end24
                                        #   in Loop: Header=BB27_5 Depth=1
	jmp	.LBB27_32
.LBB27_15:                              # %if.else25
                                        #   in Loop: Header=BB27_5 Depth=1
	movq	input, %rax
	cmpl	$2, 2884(%rax)
	jne	.LBB27_17
# %bb.16:                               # %if.then27
                                        #   in Loop: Header=BB27_5 Depth=1
	movl	$0, -24(%rbp)
	movq	img, %rax
	movl	$0, 72008(%rax)
	movq	img, %rax
	movl	$0, 72012(%rax)
	movq	img, %rax
	movl	$0, 72624(%rax)
	movq	img, %rax
	movl	$0, 72628(%rax)
	movl	-12(%rbp), %edi
	xorl	%esi, %esi
	callq	start_macroblock
	movabsq	$rddata_top_frame_mb, %rax
	movq	%rax, rdopt
	callq	encode_one_macroblock
	movq	rdopt, %rax
	vmovsd	(%rax), %xmm0           # xmm0 = mem[0],zero
	vmovsd	%xmm0, -40(%rbp)
	movq	img, %rax
	movl	$1, 72628(%rax)
	movq	img, %rax
	movl	$0, 72008(%rax)
	movl	-12(%rbp), %edi
	addl	$1, %edi
	xorl	%esi, %esi
	callq	start_macroblock
	movabsq	$rddata_bot_frame_mb, %rax
	movq	%rax, rdopt
	callq	encode_one_macroblock
	movq	rdopt, %rax
	vmovsd	(%rax), %xmm0           # xmm0 = mem[0],zero
	vaddsd	-40(%rbp), %xmm0, %xmm0
	vmovsd	%xmm0, -40(%rbp)
.LBB27_17:                              # %if.end33
                                        #   in Loop: Header=BB27_5 Depth=1
	movq	input, %rax
	cmpl	$2, 2884(%rax)
	je	.LBB27_19
# %bb.18:                               # %lor.lhs.false
                                        #   in Loop: Header=BB27_5 Depth=1
	movq	input, %rax
	cmpl	$1, 2884(%rax)
	jne	.LBB27_20
.LBB27_19:                              # %if.then38
                                        #   in Loop: Header=BB27_5 Depth=1
	movq	img, %rax
	movl	$0, 72628(%rax)
	movq	img, %rax
	movl	$1, 72008(%rax)
	movq	img, %rax
	movl	$1, 72012(%rax)
	movq	img, %rax
	movl	72376(%rax), %ecx
	shll	$1, %ecx
	movl	%ecx, 72376(%rax)
	movq	input, %rax
	movl	36(%rax), %ecx
	shll	$1, %ecx
	movl	%ecx, 36(%rax)
	movq	img, %rax
	movl	72000(%rax), %ecx
	shll	$1, %ecx
	movl	%ecx, 72000(%rax)
	movq	img, %rax
	movl	72000(%rax), %ecx
	addl	$1, %ecx
	movl	%ecx, 72000(%rax)
	movl	-12(%rbp), %edi
	movl	$1, %esi
	callq	start_macroblock
	movabsq	$rddata_top_field_mb, %rax
	movq	%rax, rdopt
	callq	encode_one_macroblock
	movq	rdopt, %rax
	vmovsd	(%rax), %xmm0           # xmm0 = mem[0],zero
	vmovsd	%xmm0, -48(%rbp)
	movq	img, %rax
	movl	$1, 72628(%rax)
	movq	img, %rax
	movl	$0, 72012(%rax)
	movl	-12(%rbp), %edi
	addl	$1, %edi
	movl	$1, %esi
	callq	start_macroblock
	movabsq	$rddata_bot_field_mb, %rax
	movq	%rax, rdopt
	callq	encode_one_macroblock
	movq	rdopt, %rax
	vmovsd	(%rax), %xmm0           # xmm0 = mem[0],zero
	vaddsd	-48(%rbp), %xmm0, %xmm0
	vmovsd	%xmm0, -48(%rbp)
.LBB27_20:                              # %if.end52
                                        #   in Loop: Header=BB27_5 Depth=1
	movq	img, %rax
	movl	$0, 72632(%rax)
	movq	input, %rax
	cmpl	$2, 2884(%rax)
	jne	.LBB27_23
# %bb.21:                               # %land.lhs.true
                                        #   in Loop: Header=BB27_5 Depth=1
	vmovsd	-40(%rbp), %xmm0        # xmm0 = mem[0],zero
	vmovsd	-48(%rbp), %xmm1        # xmm1 = mem[0],zero
	vucomisd	%xmm0, %xmm1
	jbe	.LBB27_23
# %bb.22:                               # %if.then56
                                        #   in Loop: Header=BB27_5 Depth=1
	movq	img, %rax
	movl	$0, 72008(%rax)
	movq	img, %rax
	movl	72376(%rax), %ecx
	sarl	$1, %ecx
	movl	%ecx, 72376(%rax)
	movq	input, %rax
	movl	36(%rax), %ecx
	sarl	$1, %ecx
	movl	%ecx, 36(%rax)
	movl	$0, MBPairIsField
	movq	img, %rax
	movl	72000(%rax), %ecx
	subl	$1, %ecx
	movl	%ecx, 72000(%rax)
	movq	img, %rax
	movl	72000(%rax), %ecx
	sarl	$1, %ecx
	movl	%ecx, 72000(%rax)
	movq	img, %rax
	movl	$1, 72632(%rax)
	jmp	.LBB27_24
.LBB27_23:                              # %if.else65
                                        #   in Loop: Header=BB27_5 Depth=1
	movq	img, %rax
	movl	$1, 72008(%rax)
	movl	$1, MBPairIsField
.LBB27_24:                              # %if.end67
                                        #   in Loop: Header=BB27_5 Depth=1
	movq	img, %rax
	movl	$1, 72624(%rax)
	cmpl	$0, MBPairIsField
	je	.LBB27_26
# %bb.25:                               # %if.then70
                                        #   in Loop: Header=BB27_5 Depth=1
	movq	img, %rax
	movl	$1, 72012(%rax)
	jmp	.LBB27_27
.LBB27_26:                              # %if.else72
                                        #   in Loop: Header=BB27_5 Depth=1
	movq	img, %rax
	movl	$0, 72012(%rax)
.LBB27_27:                              # %if.end74
                                        #   in Loop: Header=BB27_5 Depth=1
	movq	img, %rax
	movl	$0, 72628(%rax)
	movl	-12(%rbp), %edi
	movq	img, %rax
	movl	72008(%rax), %esi
	callq	start_macroblock
	movq	img, %rax
	movl	72008(%rax), %eax
	cmpl	$0, %eax
	movabsq	$rddata_top_field_mb, %rax
	movabsq	$rddata_top_frame_mb, %rcx
	cmovneq	%rax, %rcx
	movq	%rcx, rdopt
	xorl	%edi, %edi
	callq	copy_rdopt_data
	movl	$1, %edi
	callq	write_one_macroblock
	movl	-16(%rbp), %eax
	addl	$1, %eax
	movl	%eax, -16(%rbp)
	leaq	-20(%rbp), %rdi
	leaq	-24(%rbp), %rsi
	callq	terminate_macroblock
	movl	-12(%rbp), %edi
	movb	$0, %al
	callq	proceed2nextMacroblock
	movq	img, %rax
	movl	$1, 72628(%rax)
	movq	img, %rax
	movl	$0, 72012(%rax)
	movl	-12(%rbp), %edi
	addl	$1, %edi
	movq	img, %rax
	movl	72008(%rax), %esi
	callq	start_macroblock
	movq	img, %rax
	movl	72008(%rax), %eax
	cmpl	$0, %eax
	movabsq	$rddata_bot_field_mb, %rax
	movabsq	$rddata_bot_frame_mb, %rcx
	cmovneq	%rax, %rcx
	movq	%rcx, rdopt
	movl	$1, %edi
	callq	copy_rdopt_data
	xorl	%edi, %edi
	callq	write_one_macroblock
	movl	-16(%rbp), %eax
	addl	$1, %eax
	movl	%eax, -16(%rbp)
	leaq	-20(%rbp), %rdi
	leaq	-24(%rbp), %rsi
	callq	terminate_macroblock
	movl	-12(%rbp), %edi
	movb	$0, %al
	callq	proceed2nextMacroblock
	cmpl	$0, MBPairIsField
	je	.LBB27_29
# %bb.28:                               # %if.then89
                                        #   in Loop: Header=BB27_5 Depth=1
	movq	img, %rax
	movl	72376(%rax), %ecx
	sarl	$1, %ecx
	movl	%ecx, 72376(%rax)
	movq	input, %rax
	movl	36(%rax), %ecx
	sarl	$1, %ecx
	movl	%ecx, 36(%rax)
	movq	img, %rax
	movl	72000(%rax), %ecx
	subl	$1, %ecx
	movl	%ecx, 72000(%rax)
	movq	img, %rax
	movl	72000(%rax), %ecx
	sarl	$1, %ecx
	movl	%ecx, 72000(%rax)
.LBB27_29:                              # %if.end98
                                        #   in Loop: Header=BB27_5 Depth=1
	movq	img, %rax
	movl	$0, 72012(%rax)
	movq	img, %rax
	movl	$0, 72008(%rax)
	movl	-12(%rbp), %edi
	callq	FmoGetNextMBNr
	movl	%eax, -12(%rbp)
	movl	-12(%rbp), %edi
	callq	FmoGetNextMBNr
	movl	%eax, -12(%rbp)
	movl	-12(%rbp), %ebx
	movl	-12(%rbp), %edi
	callq	FmoMB2SliceGroup
	movl	%eax, %edi
	callq	FmoGetLastCodedMBOfSliceGroup
	cmpl	%eax, %ebx
	jne	.LBB27_31
# %bb.30:                               # %if.then106
                                        #   in Loop: Header=BB27_5 Depth=1
	movl	$1, -20(%rbp)
.LBB27_31:                              # %if.end107
                                        #   in Loop: Header=BB27_5 Depth=1
	jmp	.LBB27_32
.LBB27_32:                              # %if.end108
                                        #   in Loop: Header=BB27_5 Depth=1
	jmp	.LBB27_5
.LBB27_33:                              # %while.end
	callq	terminate_slice
	movl	-16(%rbp), %ebx
	cmpl	$1246307195, -52(%rbp)  # imm = 0x4A49237B
	jne	.LBB27_35
.LBB27_34:
	movl	%ebx, %eax
	addq	$56, %rsp
	popq	%rbx
	popq	%rbp
	.cfi_def_cfa %rsp, 8
	retq
.LBB27_35:                              # %func_exit
	.cfi_def_cfa %rbp, 16
	callq	detect_breach
	jmp	.LBB27_34
.Lfunc_end27:
	.size	encode_one_slice.17, .Lfunc_end27-encode_one_slice.17
	.cfi_endproc
                                        # -- End function
	.p2align	4, 0x90         # -- Begin function set_ref_pic_num.18
	.type	set_ref_pic_num.18,@function
set_ref_pic_num.18:                     # @set_ref_pic_num.18
	.cfi_startproc
# %bb.0:                                # %entry
	pushq	%rbp
	.cfi_def_cfa_offset 16
	.cfi_offset %rbp, -16
	movq	%rsp, %rbp
	.cfi_def_cfa_register %rbp
	subq	$16, %rsp
	movl	$1952637426, -12(%rbp)  # imm = 0x7462E1F2
	movl	$0, -4(%rbp)
.LBB28_1:                               # %for.cond
                                        # =>This Inner Loop Header: Depth=1
	movl	-4(%rbp), %eax
	cmpl	listXsize, %eax
	jge	.LBB28_4
# %bb.2:                                # %for.body
                                        #   in Loop: Header=BB28_1 Depth=1
	xorl	%eax, %eax
	movq	listX, %rcx
	movslq	-4(%rbp), %rdx
	movq	(%rcx,%rdx,8), %rcx
	movl	4(%rcx), %ecx
	shll	$1, %ecx
	movq	listX, %rdx
	movslq	-4(%rbp), %rsi
	movq	(%rdx,%rsi,8), %rdx
	movl	(%rdx), %edx
	cmpl	$2, %edx
	movl	$1, %edx
	cmovel	%edx, %eax
	addl	%eax, %ecx
	movslq	%ecx, %rax
	movq	enc_picture, %rcx
	movslq	-4(%rbp), %rdx
	movq	%rax, 24(%rcx,%rdx,8)
	movq	listX, %rax
	movslq	-4(%rbp), %rcx
	movq	(%rax,%rcx,8), %rax
	movl	16(%rax), %eax
	shll	$1, %eax
	cltq
	movq	enc_picture, %rcx
	movslq	-4(%rbp), %rdx
	movq	%rax, 1608(%rcx,%rdx,8)
	movq	listX, %rax
	movslq	-4(%rbp), %rcx
	movq	(%rax,%rcx,8), %rax
	movl	8(%rax), %eax
	shll	$1, %eax
	cltq
	movq	enc_picture, %rcx
	movslq	-4(%rbp), %rdx
	movq	%rax, 3192(%rcx,%rdx,8)
	movq	listX, %rax
	movslq	-4(%rbp), %rcx
	movq	(%rax,%rcx,8), %rax
	movl	12(%rax), %eax
	shll	$1, %eax
	addl	$1, %eax
	cltq
	movq	enc_picture, %rcx
	movslq	-4(%rbp), %rdx
	movq	%rax, 4776(%rcx,%rdx,8)
# %bb.3:                                # %for.inc
                                        #   in Loop: Header=BB28_1 Depth=1
	movl	-4(%rbp), %eax
	addl	$1, %eax
	movl	%eax, -4(%rbp)
	jmp	.LBB28_1
.LBB28_4:                               # %for.end
	movl	$0, -4(%rbp)
.LBB28_5:                               # %for.cond29
                                        # =>This Inner Loop Header: Depth=1
	movl	-4(%rbp), %eax
	cmpl	listXsize+4, %eax
	jge	.LBB28_8
# %bb.6:                                # %for.body32
                                        #   in Loop: Header=BB28_5 Depth=1
	xorl	%eax, %eax
	movq	listX+8, %rcx
	movslq	-4(%rbp), %rdx
	movq	(%rcx,%rdx,8), %rcx
	movl	4(%rcx), %ecx
	shll	$1, %ecx
	movq	listX+8, %rdx
	movslq	-4(%rbp), %rsi
	movq	(%rdx,%rsi,8), %rdx
	movl	(%rdx), %edx
	cmpl	$2, %edx
	movl	$1, %edx
	cmovel	%edx, %eax
	addl	%eax, %ecx
	movslq	%ecx, %rax
	movq	enc_picture, %rcx
	movslq	-4(%rbp), %rdx
	movq	%rax, 288(%rcx,%rdx,8)
	movq	listX+8, %rax
	movslq	-4(%rbp), %rcx
	movq	(%rax,%rcx,8), %rax
	movl	16(%rax), %eax
	shll	$1, %eax
	cltq
	movq	enc_picture, %rcx
	movslq	-4(%rbp), %rdx
	movq	%rax, 1872(%rcx,%rdx,8)
	movq	listX+8, %rax
	movslq	-4(%rbp), %rcx
	movq	(%rax,%rcx,8), %rax
	movl	8(%rax), %eax
	shll	$1, %eax
	cltq
	movq	enc_picture, %rcx
	movslq	-4(%rbp), %rdx
	movq	%rax, 3456(%rcx,%rdx,8)
	movq	listX+8, %rax
	movslq	-4(%rbp), %rcx
	movq	(%rax,%rcx,8), %rax
	movl	12(%rax), %eax
	shll	$1, %eax
	addl	$1, %eax
	cltq
	movq	enc_picture, %rcx
	movslq	-4(%rbp), %rdx
	movq	%rax, 5040(%rcx,%rdx,8)
# %bb.7:                                # %for.inc77
                                        #   in Loop: Header=BB28_5 Depth=1
	movl	-4(%rbp), %eax
	addl	$1, %eax
	movl	%eax, -4(%rbp)
	jmp	.LBB28_5
.LBB28_8:                               # %for.end79
	movq	active_sps, %rax
	cmpl	$0, 1148(%rax)
	jne	.LBB28_20
# %bb.9:                                # %if.then
	movq	img, %rax
	cmpl	$0, 28(%rax)
	jne	.LBB28_19
# %bb.10:                               # %if.then83
	movl	$2, -8(%rbp)
.LBB28_11:                              # %for.cond84
                                        # =>This Loop Header: Depth=1
                                        #     Child Loop BB28_13 Depth 2
	cmpl	$6, -8(%rbp)
	jge	.LBB28_18
# %bb.12:                               # %for.body87
                                        #   in Loop: Header=BB28_11 Depth=1
	movl	$0, -4(%rbp)
.LBB28_13:                              # %for.cond88
                                        #   Parent Loop BB28_11 Depth=1
                                        # =>  This Inner Loop Header: Depth=2
	movl	-4(%rbp), %eax
	movslq	-8(%rbp), %rcx
	cmpl	listXsize(,%rcx,4), %eax
	jge	.LBB28_16
# %bb.14:                               # %for.body93
                                        #   in Loop: Header=BB28_13 Depth=2
	xorl	%eax, %eax
	movslq	-8(%rbp), %rcx
	movq	listX(,%rcx,8), %rcx
	movslq	-4(%rbp), %rdx
	movq	(%rcx,%rdx,8), %rcx
	movl	4(%rcx), %ecx
	shll	$1, %ecx
	movslq	-8(%rbp), %rdx
	movq	listX(,%rdx,8), %rdx
	movslq	-4(%rbp), %rsi
	movq	(%rdx,%rsi,8), %rdx
	movl	(%rdx), %edx
	cmpl	$2, %edx
	movl	$1, %edx
	cmovel	%edx, %eax
	addl	%eax, %ecx
	movslq	%ecx, %rax
	movq	enc_picture, %rcx
	addq	$24, %rcx
	movslq	-8(%rbp), %rdx
	imulq	$264, %rdx, %rdx        # imm = 0x108
	addq	%rdx, %rcx
	movslq	-4(%rbp), %rdx
	movq	%rax, (%rcx,%rdx,8)
	movslq	-8(%rbp), %rax
	movq	listX(,%rax,8), %rax
	movslq	-4(%rbp), %rcx
	movq	(%rax,%rcx,8), %rax
	movl	16(%rax), %eax
	shll	$1, %eax
	cltq
	movq	enc_picture, %rcx
	addq	$1608, %rcx             # imm = 0x648
	movslq	-8(%rbp), %rdx
	imulq	$264, %rdx, %rdx        # imm = 0x108
	addq	%rdx, %rcx
	movslq	-4(%rbp), %rdx
	movq	%rax, (%rcx,%rdx,8)
	movslq	-8(%rbp), %rax
	movq	listX(,%rax,8), %rax
	movslq	-4(%rbp), %rcx
	movq	(%rax,%rcx,8), %rax
	movl	8(%rax), %eax
	shll	$1, %eax
	cltq
	movq	enc_picture, %rcx
	addq	$3192, %rcx             # imm = 0xC78
	movslq	-8(%rbp), %rdx
	imulq	$264, %rdx, %rdx        # imm = 0x108
	addq	%rdx, %rcx
	movslq	-4(%rbp), %rdx
	movq	%rax, (%rcx,%rdx,8)
	movslq	-8(%rbp), %rax
	movq	listX(,%rax,8), %rax
	movslq	-4(%rbp), %rcx
	movq	(%rax,%rcx,8), %rax
	movl	12(%rax), %eax
	shll	$1, %eax
	addl	$1, %eax
	cltq
	movq	enc_picture, %rcx
	addq	$4776, %rcx             # imm = 0x12A8
	movslq	-8(%rbp), %rdx
	imulq	$264, %rdx, %rdx        # imm = 0x108
	addq	%rdx, %rcx
	movslq	-4(%rbp), %rdx
	movq	%rax, (%rcx,%rdx,8)
# %bb.15:                               # %for.inc152
                                        #   in Loop: Header=BB28_13 Depth=2
	movl	-4(%rbp), %eax
	addl	$1, %eax
	movl	%eax, -4(%rbp)
	jmp	.LBB28_13
.LBB28_16:                              # %for.end154
                                        #   in Loop: Header=BB28_11 Depth=1
	jmp	.LBB28_17
.LBB28_17:                              # %for.inc155
                                        #   in Loop: Header=BB28_11 Depth=1
	movl	-8(%rbp), %eax
	addl	$1, %eax
	movl	%eax, -8(%rbp)
	jmp	.LBB28_11
.LBB28_18:                              # %for.end157
	jmp	.LBB28_19
.LBB28_19:                              # %if.end
	jmp	.LBB28_20
.LBB28_20:                              # %if.end158
	cmpl	$1952637426, -12(%rbp)  # imm = 0x7462E1F2
	jne	.LBB28_22
.LBB28_21:
	addq	$16, %rsp
	popq	%rbp
	.cfi_def_cfa %rsp, 8
	retq
.LBB28_22:                              # %func_exit
	.cfi_def_cfa %rbp, 16
	callq	detect_breach
	jmp	.LBB28_21
.Lfunc_end28:
	.size	set_ref_pic_num.18, .Lfunc_end28-set_ref_pic_num.18
	.cfi_endproc
                                        # -- End function
	.p2align	4, 0x90         # -- Begin function free_slice.19
	.type	free_slice.19,@function
free_slice.19:                          # @free_slice.19
	.cfi_startproc
# %bb.0:                                # %entry
	pushq	%rbp
	.cfi_def_cfa_offset 16
	.cfi_offset %rbp, -16
	movq	%rsp, %rbp
	.cfi_def_cfa_register %rbp
	subq	$32, %rsp
	movl	$1659149806, -28(%rbp)  # imm = 0x62E49DEE
	movq	%rdi, -16(%rbp)
	cmpq	$0, -16(%rbp)
	je	.LBB29_16
# %bb.1:                                # %if.then
	movl	$0, -4(%rbp)
.LBB29_2:                               # %for.cond
                                        # =>This Inner Loop Header: Depth=1
	movl	-4(%rbp), %eax
	movq	-16(%rbp), %rcx
	cmpl	16(%rcx), %eax
	jge	.LBB29_11
# %bb.3:                                # %for.body
                                        #   in Loop: Header=BB29_2 Depth=1
	movq	-16(%rbp), %rax
	movq	24(%rax), %rax
	movslq	-4(%rbp), %rcx
	imulq	$120, %rcx, %rcx
	addq	%rcx, %rax
	movq	%rax, -24(%rbp)
	cmpq	$0, -24(%rbp)
	je	.LBB29_9
# %bb.4:                                # %if.then3
                                        #   in Loop: Header=BB29_2 Depth=1
	movq	-24(%rbp), %rax
	movq	(%rax), %rax
	cmpq	$0, 32(%rax)
	je	.LBB29_6
# %bb.5:                                # %if.then5
                                        #   in Loop: Header=BB29_2 Depth=1
	movq	-24(%rbp), %rax
	movq	(%rax), %rax
	movq	32(%rax), %rdi
	callq	free
.LBB29_6:                               # %if.end
                                        #   in Loop: Header=BB29_2 Depth=1
	movq	-24(%rbp), %rax
	cmpq	$0, (%rax)
	je	.LBB29_8
# %bb.7:                                # %if.then10
                                        #   in Loop: Header=BB29_2 Depth=1
	movq	-24(%rbp), %rax
	movq	(%rax), %rdi
	callq	free
.LBB29_8:                               # %if.end12
                                        #   in Loop: Header=BB29_2 Depth=1
	jmp	.LBB29_9
.LBB29_9:                               # %if.end13
                                        #   in Loop: Header=BB29_2 Depth=1
	jmp	.LBB29_10
.LBB29_10:                              # %for.inc
                                        #   in Loop: Header=BB29_2 Depth=1
	movl	-4(%rbp), %eax
	addl	$1, %eax
	movl	%eax, -4(%rbp)
	jmp	.LBB29_2
.LBB29_11:                              # %for.end
	movq	-16(%rbp), %rax
	cmpq	$0, 24(%rax)
	je	.LBB29_13
# %bb.12:                               # %if.then16
	movq	-16(%rbp), %rax
	movq	24(%rax), %rdi
	callq	free
.LBB29_13:                              # %if.end18
	movq	input, %rax
	cmpl	$1, 2356(%rax)
	jne	.LBB29_15
# %bb.14:                               # %if.then20
	movq	-16(%rbp), %rax
	movq	32(%rax), %rdi
	callq	delete_contexts_MotionInfo
	movq	-16(%rbp), %rax
	movq	40(%rax), %rdi
	callq	delete_contexts_TextureInfo
.LBB29_15:                              # %if.end21
	movq	-16(%rbp), %rdi
	callq	free
.LBB29_16:                              # %if.end22
	cmpl	$1659149806, -28(%rbp)  # imm = 0x62E49DEE
	jne	.LBB29_18
.LBB29_17:
	addq	$32, %rsp
	popq	%rbp
	.cfi_def_cfa %rsp, 8
	retq
.LBB29_18:                              # %func_exit
	.cfi_def_cfa %rbp, 16
	callq	detect_breach
	jmp	.LBB29_17
.Lfunc_end29:
	.size	free_slice.19, .Lfunc_end29-free_slice.19
	.cfi_endproc
                                        # -- End function
	.globl	free_slice_list.20      # -- Begin function free_slice_list.20
	.p2align	4, 0x90
	.type	free_slice_list.20,@function
free_slice_list.20:                     # @free_slice_list.20
	.cfi_startproc
# %bb.0:                                # %entry
	pushq	%rbp
	.cfi_def_cfa_offset 16
	.cfi_offset %rbp, -16
	movq	%rsp, %rbp
	.cfi_def_cfa_register %rbp
	subq	$32, %rsp
	movl	$1554705894, -20(%rbp)  # imm = 0x5CAAEDE6
	movq	%rdi, -16(%rbp)
	movl	$0, -4(%rbp)
.LBB30_1:                               # %for.cond
                                        # =>This Inner Loop Header: Depth=1
	movl	-4(%rbp), %eax
	movq	-16(%rbp), %rcx
	cmpl	(%rcx), %eax
	jge	.LBB30_4
# %bb.2:                                # %for.body
                                        #   in Loop: Header=BB30_1 Depth=1
	movq	-16(%rbp), %rax
	movslq	-4(%rbp), %rcx
	movq	8(%rax,%rcx,8), %rdi
	callq	free_slice
	movq	-16(%rbp), %rax
	movslq	-4(%rbp), %rcx
	movq	$0, 8(%rax,%rcx,8)
# %bb.3:                                # %for.inc
                                        #   in Loop: Header=BB30_1 Depth=1
	movl	-4(%rbp), %eax
	addl	$1, %eax
	movl	%eax, -4(%rbp)
	jmp	.LBB30_1
.LBB30_4:                               # %for.end
	cmpl	$1554705894, -20(%rbp)  # imm = 0x5CAAEDE6
	jne	.LBB30_6
.LBB30_5:
	addq	$32, %rsp
	popq	%rbp
	.cfi_def_cfa %rsp, 8
	retq
.LBB30_6:                               # %func_exit
	.cfi_def_cfa %rbp, 16
	callq	detect_breach
	jmp	.LBB30_5
.Lfunc_end30:
	.size	free_slice_list.20, .Lfunc_end30-free_slice_list.20
	.cfi_endproc
                                        # -- End function
	.globl	terminate_slice.21      # -- Begin function terminate_slice.21
	.p2align	4, 0x90
	.type	terminate_slice.21,@function
terminate_slice.21:                     # @terminate_slice.21
	.cfi_startproc
# %bb.0:                                # %entry
	pushq	%rbp
	.cfi_def_cfa_offset 16
	.cfi_offset %rbp, -16
	movq	%rsp, %rbp
	.cfi_def_cfa_register %rbp
	subq	$48, %rsp
	movl	$889935175, -36(%rbp)   # imm = 0x350B5547
	movq	img, %rax
	movq	14160(%rax), %rax
	movq	%rax, -24(%rbp)
	movq	input, %rax
	cmpl	$1, 2356(%rax)
	jne	.LBB31_2
# %bb.1:                                # %if.then
	movl	$1, %edi
	callq	write_terminating_bit
.LBB31_2:                               # %if.end
	movl	$0, -12(%rbp)
.LBB31_3:                               # %for.cond
                                        # =>This Inner Loop Header: Depth=1
	movl	-12(%rbp), %eax
	movq	-24(%rbp), %rcx
	cmpl	16(%rcx), %eax
	jge	.LBB31_9
# %bb.4:                                # %for.body
                                        #   in Loop: Header=BB31_3 Depth=1
	movq	-24(%rbp), %rax
	movq	24(%rax), %rax
	movslq	-12(%rbp), %rcx
	imulq	$120, %rcx, %rcx
	addq	%rcx, %rax
	movq	(%rax), %rax
	movq	%rax, -8(%rbp)
	movq	input, %rax
	cmpl	$0, 2356(%rax)
	jne	.LBB31_6
# %bb.5:                                # %if.then4
                                        #   in Loop: Header=BB31_3 Depth=1
	movq	-8(%rbp), %rdi
	callq	SODBtoRBSP
	movq	-8(%rbp), %rax
	movl	(%rax), %eax
	movl	%eax, -16(%rbp)
	movq	-8(%rbp), %rax
	movq	32(%rax), %rdi
	movq	-8(%rbp), %rax
	movl	(%rax), %edx
	xorl	%esi, %esi
	xorl	%ecx, %ecx
	callq	RBSPtoEBSP
	movq	-8(%rbp), %rcx
	movl	%eax, (%rcx)
	movq	-8(%rbp), %rax
	movl	(%rax), %eax
	subl	-16(%rbp), %eax
	shll	$3, %eax
	movq	stats, %rcx
	movq	1480(%rcx), %rcx
	addl	(%rcx), %eax
	movl	%eax, (%rcx)
	jmp	.LBB31_7
.LBB31_6:                               # %if.else
                                        #   in Loop: Header=BB31_3 Depth=1
	movq	-24(%rbp), %rax
	movq	24(%rax), %rax
	movslq	-12(%rbp), %rcx
	imulq	$120, %rcx, %rcx
	addq	%rcx, %rax
	addq	$8, %rax
	movq	%rax, -32(%rbp)
	movq	-32(%rbp), %rdi
	callq	arienco_done_encoding
	movq	-32(%rbp), %rax
	movl	12(%rax), %eax
	movq	-8(%rbp), %rcx
	movl	%eax, 4(%rcx)
	movq	-8(%rbp), %rax
	movb	$0, 8(%rax)
	movq	-8(%rbp), %rax
	movl	(%rax), %eax
	movl	%eax, -40(%rbp)
	movq	-8(%rbp), %rax
	movl	(%rax), %eax
	movl	%eax, -16(%rbp)
	movq	-8(%rbp), %rax
	movq	32(%rax), %rdi
	movq	-8(%rbp), %rax
	movl	(%rax), %edx
	movq	-32(%rbp), %rax
	movl	88(%rax), %ecx
	xorl	%esi, %esi
	callq	RBSPtoEBSP
	movq	-8(%rbp), %rcx
	movl	%eax, (%rcx)
	movq	-8(%rbp), %rax
	movl	(%rax), %eax
	subl	-16(%rbp), %eax
	shll	$3, %eax
	movq	stats, %rcx
	movq	1480(%rcx), %rcx
	addl	(%rcx), %eax
	movl	%eax, (%rcx)
.LBB31_7:                               # %if.end22
                                        #   in Loop: Header=BB31_3 Depth=1
	jmp	.LBB31_8
.LBB31_8:                               # %for.inc
                                        #   in Loop: Header=BB31_3 Depth=1
	movl	-12(%rbp), %eax
	addl	$1, %eax
	movl	%eax, -12(%rbp)
	jmp	.LBB31_3
.LBB31_9:                               # %for.end
	movq	input, %rax
	cmpl	$1, 2356(%rax)
	jne	.LBB31_11
# %bb.10:                               # %if.then25
	movb	$0, %al
	callq	store_contexts
.LBB31_11:                              # %if.end26
	cmpl	$889935175, -36(%rbp)   # imm = 0x350B5547
	jne	.LBB31_13
.LBB31_12:
	xorl	%eax, %eax
	addq	$48, %rsp
	popq	%rbp
	.cfi_def_cfa %rsp, 8
	retq
.LBB31_13:                              # %func_exit
	.cfi_def_cfa %rbp, 16
	callq	detect_breach
	jmp	.LBB31_12
.Lfunc_end31:
	.size	terminate_slice.21, .Lfunc_end31-terminate_slice.21
	.cfi_endproc
                                        # -- End function
	.globl	modify_redundant_pic_cnt.22 # -- Begin function modify_redundant_pic_cnt.22
	.p2align	4, 0x90
	.type	modify_redundant_pic_cnt.22,@function
modify_redundant_pic_cnt.22:            # @modify_redundant_pic_cnt.22
	.cfi_startproc
# %bb.0:                                # %entry
	pushq	%rbp
	.cfi_def_cfa_offset 16
	.cfi_offset %rbp, -16
	movq	%rsp, %rbp
	.cfi_def_cfa_register %rbp
	subq	$16, %rsp
	movl	$1811029329, -8(%rbp)   # imm = 0x6BF21D51
	movq	%rdi, -16(%rbp)
	movl	rpc_bits_to_go, %ecx
	subl	$1, %ecx
                                        # kill: def $cl killed $ecx
	movl	$1, %eax
	shll	%cl, %eax
	movb	%al, -1(%rbp)
	movzbl	-1(%rbp), %eax
	movq	-16(%rbp), %rcx
	movslq	rpc_bytes_to_go, %rdx
	movzbl	(%rcx,%rdx), %esi
	orl	%eax, %esi
	movb	%sil, (%rcx,%rdx)
	cmpl	$1811029329, -8(%rbp)   # imm = 0x6BF21D51
	jne	.LBB32_2
.LBB32_1:
	addq	$16, %rsp
	popq	%rbp
	.cfi_def_cfa %rsp, 8
	retq
.LBB32_2:                               # %func_exit
	.cfi_def_cfa %rbp, 16
	callq	detect_breach
	jmp	.LBB32_1
.Lfunc_end32:
	.size	modify_redundant_pic_cnt.22, .Lfunc_end32-modify_redundant_pic_cnt.22
	.cfi_endproc
                                        # -- End function
	.globl	encode_one_slice.23     # -- Begin function encode_one_slice.23
	.p2align	4, 0x90
	.type	encode_one_slice.23,@function
encode_one_slice.23:                    # @encode_one_slice.23
	.cfi_startproc
# %bb.0:                                # %entry
	pushq	%rbp
	.cfi_def_cfa_offset 16
	.cfi_offset %rbp, -16
	movq	%rsp, %rbp
	.cfi_def_cfa_register %rbp
	pushq	%rbx
	subq	$56, %rsp
	.cfi_offset %rbx, -24
	movl	$1208108546, -56(%rbp)  # imm = 0x48024602
	movl	%edi, -52(%rbp)
	movq	%rsi, -64(%rbp)
	movl	$0, -20(%rbp)
	movl	$0, -16(%rbp)
	movq	img, %rax
	movl	$0, 120(%rax)
	movl	-52(%rbp), %edi
	callq	FmoGetFirstMacroblockInSlice
	movl	%eax, -12(%rbp)
	movl	-12(%rbp), %edi
	callq	init_slice
	movq	img, %rax
	movq	14160(%rax), %rax
	movq	24(%rax), %rax
	movq	(%rax), %rax
	movl	(%rax), %eax
	movl	%eax, Bytes_After_Header
	movq	input, %rax
	cmpl	$1, 2356(%rax)
	jne	.LBB33_2
# %bb.1:                                # %if.then
	movb	$0, %al
	callq	SetCtxModelNumber
.LBB33_2:                               # %if.end
	callq	start_slice
	movl	%eax, -28(%rbp)
	movl	-28(%rbp), %eax
	movq	img, %rcx
	addl	72524(%rcx), %eax
	movl	%eax, 72524(%rcx)
	movq	img, %rax
	movl	72620(%rax), %eax
	movq	img, %rcx
	cmpl	72608(%rcx), %eax
	jge	.LBB33_4
# %bb.3:                                # %if.then3
	movl	-28(%rbp), %eax
	movq	img, %rcx
	addl	72532(%rcx), %eax
	movl	%eax, 72532(%rcx)
.LBB33_4:                               # %if.end5
	movl	-28(%rbp), %eax
	movq	stats, %rcx
	addl	24(%rcx), %eax
	movl	%eax, 24(%rcx)
	movl	-28(%rbp), %eax
	movq	stats, %rcx
	movq	img, %rdx
	movslq	24(%rdx), %rdx
	addl	1368(%rcx,%rdx,4), %eax
	movl	%eax, 1368(%rcx,%rdx,4)
.LBB33_5:                               # %while.cond
                                        # =>This Inner Loop Header: Depth=1
	cmpl	$0, -20(%rbp)
	jne	.LBB33_33
# %bb.6:                                # %while.body
                                        #   in Loop: Header=BB33_5 Depth=1
	movq	img, %rax
	cmpl	$0, 72400(%rax)
	jne	.LBB33_15
# %bb.7:                                # %if.then10
                                        #   in Loop: Header=BB33_5 Depth=1
	movl	$0, -24(%rbp)
	movabsq	$rddata_top_frame_mb, %rax
	movq	%rax, rdopt
	movl	-12(%rbp), %edi
	xorl	%esi, %esi
	callq	start_macroblock
	callq	encode_one_macroblock
	movl	$1, %edi
	callq	write_one_macroblock
	leaq	-20(%rbp), %rdi
	leaq	-24(%rbp), %rsi
	callq	terminate_macroblock
	cmpl	$0, -24(%rbp)
	jne	.LBB33_11
# %bb.8:                                # %if.then12
                                        #   in Loop: Header=BB33_5 Depth=1
	movl	-12(%rbp), %edi
	callq	FmoGetNextMBNr
	movl	%eax, -12(%rbp)
	cmpl	$-1, -12(%rbp)
	jne	.LBB33_10
# %bb.9:                                # %if.then15
                                        #   in Loop: Header=BB33_5 Depth=1
	movl	$1, -20(%rbp)
.LBB33_10:                              # %if.end16
                                        #   in Loop: Header=BB33_5 Depth=1
	movl	-16(%rbp), %eax
	addl	$1, %eax
	movl	%eax, -16(%rbp)
	movl	-12(%rbp), %edi
	movb	$0, %al
	callq	proceed2nextMacroblock
	jmp	.LBB33_14
.LBB33_11:                              # %if.else
                                        #   in Loop: Header=BB33_5 Depth=1
	movq	img, %rax
	movl	12(%rax), %edi
	callq	FmoGetPreviousMBNr
	movq	img, %rcx
	movl	%eax, 12(%rcx)
	movq	img, %rax
	cmpl	$-1, 12(%rax)
	jne	.LBB33_13
# %bb.12:                               # %if.then21
                                        #   in Loop: Header=BB33_5 Depth=1
	movabsq	$errortext, %rdi
	movl	$300, %esi              # imm = 0x12C
	movabsq	$.L.str, %rdx
	movb	$0, %al
	callq	snprintf
	movabsq	$errortext, %rdi
	movl	$300, %esi              # imm = 0x12C
	callq	error
.LBB33_13:                              # %if.end23
                                        #   in Loop: Header=BB33_5 Depth=1
	jmp	.LBB33_14
.LBB33_14:                              # %if.end24
                                        #   in Loop: Header=BB33_5 Depth=1
	jmp	.LBB33_32
.LBB33_15:                              # %if.else25
                                        #   in Loop: Header=BB33_5 Depth=1
	movq	input, %rax
	cmpl	$2, 2884(%rax)
	jne	.LBB33_17
# %bb.16:                               # %if.then27
                                        #   in Loop: Header=BB33_5 Depth=1
	movl	$0, -24(%rbp)
	movq	img, %rax
	movl	$0, 72008(%rax)
	movq	img, %rax
	movl	$0, 72012(%rax)
	movq	img, %rax
	movl	$0, 72624(%rax)
	movq	img, %rax
	movl	$0, 72628(%rax)
	movl	-12(%rbp), %edi
	xorl	%esi, %esi
	callq	start_macroblock
	movabsq	$rddata_top_frame_mb, %rax
	movq	%rax, rdopt
	callq	encode_one_macroblock
	movq	rdopt, %rax
	vmovsd	(%rax), %xmm0           # xmm0 = mem[0],zero
	vmovsd	%xmm0, -40(%rbp)
	movq	img, %rax
	movl	$1, 72628(%rax)
	movq	img, %rax
	movl	$0, 72008(%rax)
	movl	-12(%rbp), %edi
	addl	$1, %edi
	xorl	%esi, %esi
	callq	start_macroblock
	movabsq	$rddata_bot_frame_mb, %rax
	movq	%rax, rdopt
	callq	encode_one_macroblock
	movq	rdopt, %rax
	vmovsd	(%rax), %xmm0           # xmm0 = mem[0],zero
	vaddsd	-40(%rbp), %xmm0, %xmm0
	vmovsd	%xmm0, -40(%rbp)
.LBB33_17:                              # %if.end33
                                        #   in Loop: Header=BB33_5 Depth=1
	movq	input, %rax
	cmpl	$2, 2884(%rax)
	je	.LBB33_19
# %bb.18:                               # %lor.lhs.false
                                        #   in Loop: Header=BB33_5 Depth=1
	movq	input, %rax
	cmpl	$1, 2884(%rax)
	jne	.LBB33_20
.LBB33_19:                              # %if.then38
                                        #   in Loop: Header=BB33_5 Depth=1
	movq	img, %rax
	movl	$0, 72628(%rax)
	movq	img, %rax
	movl	$1, 72008(%rax)
	movq	img, %rax
	movl	$1, 72012(%rax)
	movq	img, %rax
	movl	72376(%rax), %ecx
	shll	$1, %ecx
	movl	%ecx, 72376(%rax)
	movq	input, %rax
	movl	36(%rax), %ecx
	shll	$1, %ecx
	movl	%ecx, 36(%rax)
	movq	img, %rax
	movl	72000(%rax), %ecx
	shll	$1, %ecx
	movl	%ecx, 72000(%rax)
	movq	img, %rax
	movl	72000(%rax), %ecx
	addl	$1, %ecx
	movl	%ecx, 72000(%rax)
	movl	-12(%rbp), %edi
	movl	$1, %esi
	callq	start_macroblock
	movabsq	$rddata_top_field_mb, %rax
	movq	%rax, rdopt
	callq	encode_one_macroblock
	movq	rdopt, %rax
	vmovsd	(%rax), %xmm0           # xmm0 = mem[0],zero
	vmovsd	%xmm0, -48(%rbp)
	movq	img, %rax
	movl	$1, 72628(%rax)
	movq	img, %rax
	movl	$0, 72012(%rax)
	movl	-12(%rbp), %edi
	addl	$1, %edi
	movl	$1, %esi
	callq	start_macroblock
	movabsq	$rddata_bot_field_mb, %rax
	movq	%rax, rdopt
	callq	encode_one_macroblock
	movq	rdopt, %rax
	vmovsd	(%rax), %xmm0           # xmm0 = mem[0],zero
	vaddsd	-48(%rbp), %xmm0, %xmm0
	vmovsd	%xmm0, -48(%rbp)
.LBB33_20:                              # %if.end52
                                        #   in Loop: Header=BB33_5 Depth=1
	movq	img, %rax
	movl	$0, 72632(%rax)
	movq	input, %rax
	cmpl	$2, 2884(%rax)
	jne	.LBB33_23
# %bb.21:                               # %land.lhs.true
                                        #   in Loop: Header=BB33_5 Depth=1
	vmovsd	-40(%rbp), %xmm0        # xmm0 = mem[0],zero
	vmovsd	-48(%rbp), %xmm1        # xmm1 = mem[0],zero
	vucomisd	%xmm0, %xmm1
	jbe	.LBB33_23
# %bb.22:                               # %if.then56
                                        #   in Loop: Header=BB33_5 Depth=1
	movq	img, %rax
	movl	$0, 72008(%rax)
	movq	img, %rax
	movl	72376(%rax), %ecx
	sarl	$1, %ecx
	movl	%ecx, 72376(%rax)
	movq	input, %rax
	movl	36(%rax), %ecx
	sarl	$1, %ecx
	movl	%ecx, 36(%rax)
	movl	$0, MBPairIsField
	movq	img, %rax
	movl	72000(%rax), %ecx
	subl	$1, %ecx
	movl	%ecx, 72000(%rax)
	movq	img, %rax
	movl	72000(%rax), %ecx
	sarl	$1, %ecx
	movl	%ecx, 72000(%rax)
	movq	img, %rax
	movl	$1, 72632(%rax)
	jmp	.LBB33_24
.LBB33_23:                              # %if.else65
                                        #   in Loop: Header=BB33_5 Depth=1
	movq	img, %rax
	movl	$1, 72008(%rax)
	movl	$1, MBPairIsField
.LBB33_24:                              # %if.end67
                                        #   in Loop: Header=BB33_5 Depth=1
	movq	img, %rax
	movl	$1, 72624(%rax)
	cmpl	$0, MBPairIsField
	je	.LBB33_26
# %bb.25:                               # %if.then70
                                        #   in Loop: Header=BB33_5 Depth=1
	movq	img, %rax
	movl	$1, 72012(%rax)
	jmp	.LBB33_27
.LBB33_26:                              # %if.else72
                                        #   in Loop: Header=BB33_5 Depth=1
	movq	img, %rax
	movl	$0, 72012(%rax)
.LBB33_27:                              # %if.end74
                                        #   in Loop: Header=BB33_5 Depth=1
	movq	img, %rax
	movl	$0, 72628(%rax)
	movl	-12(%rbp), %edi
	movq	img, %rax
	movl	72008(%rax), %esi
	callq	start_macroblock
	movq	img, %rax
	movl	72008(%rax), %eax
	cmpl	$0, %eax
	movabsq	$rddata_top_field_mb, %rax
	movabsq	$rddata_top_frame_mb, %rcx
	cmovneq	%rax, %rcx
	movq	%rcx, rdopt
	xorl	%edi, %edi
	callq	copy_rdopt_data
	movl	$1, %edi
	callq	write_one_macroblock
	movl	-16(%rbp), %eax
	addl	$1, %eax
	movl	%eax, -16(%rbp)
	leaq	-20(%rbp), %rdi
	leaq	-24(%rbp), %rsi
	callq	terminate_macroblock
	movl	-12(%rbp), %edi
	movb	$0, %al
	callq	proceed2nextMacroblock
	movq	img, %rax
	movl	$1, 72628(%rax)
	movq	img, %rax
	movl	$0, 72012(%rax)
	movl	-12(%rbp), %edi
	addl	$1, %edi
	movq	img, %rax
	movl	72008(%rax), %esi
	callq	start_macroblock
	movq	img, %rax
	movl	72008(%rax), %eax
	cmpl	$0, %eax
	movabsq	$rddata_bot_field_mb, %rax
	movabsq	$rddata_bot_frame_mb, %rcx
	cmovneq	%rax, %rcx
	movq	%rcx, rdopt
	movl	$1, %edi
	callq	copy_rdopt_data
	xorl	%edi, %edi
	callq	write_one_macroblock
	movl	-16(%rbp), %eax
	addl	$1, %eax
	movl	%eax, -16(%rbp)
	leaq	-20(%rbp), %rdi
	leaq	-24(%rbp), %rsi
	callq	terminate_macroblock
	movl	-12(%rbp), %edi
	movb	$0, %al
	callq	proceed2nextMacroblock
	cmpl	$0, MBPairIsField
	je	.LBB33_29
# %bb.28:                               # %if.then89
                                        #   in Loop: Header=BB33_5 Depth=1
	movq	img, %rax
	movl	72376(%rax), %ecx
	sarl	$1, %ecx
	movl	%ecx, 72376(%rax)
	movq	input, %rax
	movl	36(%rax), %ecx
	sarl	$1, %ecx
	movl	%ecx, 36(%rax)
	movq	img, %rax
	movl	72000(%rax), %ecx
	subl	$1, %ecx
	movl	%ecx, 72000(%rax)
	movq	img, %rax
	movl	72000(%rax), %ecx
	sarl	$1, %ecx
	movl	%ecx, 72000(%rax)
.LBB33_29:                              # %if.end98
                                        #   in Loop: Header=BB33_5 Depth=1
	movq	img, %rax
	movl	$0, 72012(%rax)
	movq	img, %rax
	movl	$0, 72008(%rax)
	movl	-12(%rbp), %edi
	callq	FmoGetNextMBNr
	movl	%eax, -12(%rbp)
	movl	-12(%rbp), %edi
	callq	FmoGetNextMBNr
	movl	%eax, -12(%rbp)
	movl	-12(%rbp), %ebx
	movl	-12(%rbp), %edi
	callq	FmoMB2SliceGroup
	movl	%eax, %edi
	callq	FmoGetLastCodedMBOfSliceGroup
	cmpl	%eax, %ebx
	jne	.LBB33_31
# %bb.30:                               # %if.then106
                                        #   in Loop: Header=BB33_5 Depth=1
	movl	$1, -20(%rbp)
.LBB33_31:                              # %if.end107
                                        #   in Loop: Header=BB33_5 Depth=1
	jmp	.LBB33_32
.LBB33_32:                              # %if.end108
                                        #   in Loop: Header=BB33_5 Depth=1
	jmp	.LBB33_5
.LBB33_33:                              # %while.end
	callq	terminate_slice
	movl	-16(%rbp), %ebx
	cmpl	$1208108546, -56(%rbp)  # imm = 0x48024602
	jne	.LBB33_35
.LBB33_34:
	movl	%ebx, %eax
	addq	$56, %rsp
	popq	%rbx
	popq	%rbp
	.cfi_def_cfa %rsp, 8
	retq
.LBB33_35:                              # %func_exit
	.cfi_def_cfa %rbp, 16
	callq	detect_breach
	jmp	.LBB33_34
.Lfunc_end33:
	.size	encode_one_slice.23, .Lfunc_end33-encode_one_slice.23
	.cfi_endproc
                                        # -- End function
	.globl	terminate_slice.24      # -- Begin function terminate_slice.24
	.p2align	4, 0x90
	.type	terminate_slice.24,@function
terminate_slice.24:                     # @terminate_slice.24
	.cfi_startproc
# %bb.0:                                # %entry
	pushq	%rbp
	.cfi_def_cfa_offset 16
	.cfi_offset %rbp, -16
	movq	%rsp, %rbp
	.cfi_def_cfa_register %rbp
	subq	$48, %rsp
	movl	$1616217243, -36(%rbp)  # imm = 0x6055849B
	movq	img, %rax
	movq	14160(%rax), %rax
	movq	%rax, -24(%rbp)
	movq	input, %rax
	cmpl	$1, 2356(%rax)
	jne	.LBB34_2
# %bb.1:                                # %if.then
	movl	$1, %edi
	callq	write_terminating_bit
.LBB34_2:                               # %if.end
	movl	$0, -12(%rbp)
.LBB34_3:                               # %for.cond
                                        # =>This Inner Loop Header: Depth=1
	movl	-12(%rbp), %eax
	movq	-24(%rbp), %rcx
	cmpl	16(%rcx), %eax
	jge	.LBB34_9
# %bb.4:                                # %for.body
                                        #   in Loop: Header=BB34_3 Depth=1
	movq	-24(%rbp), %rax
	movq	24(%rax), %rax
	movslq	-12(%rbp), %rcx
	imulq	$120, %rcx, %rcx
	addq	%rcx, %rax
	movq	(%rax), %rax
	movq	%rax, -8(%rbp)
	movq	input, %rax
	cmpl	$0, 2356(%rax)
	jne	.LBB34_6
# %bb.5:                                # %if.then4
                                        #   in Loop: Header=BB34_3 Depth=1
	movq	-8(%rbp), %rdi
	callq	SODBtoRBSP
	movq	-8(%rbp), %rax
	movl	(%rax), %eax
	movl	%eax, -16(%rbp)
	movq	-8(%rbp), %rax
	movq	32(%rax), %rdi
	movq	-8(%rbp), %rax
	movl	(%rax), %edx
	xorl	%esi, %esi
	xorl	%ecx, %ecx
	callq	RBSPtoEBSP
	movq	-8(%rbp), %rcx
	movl	%eax, (%rcx)
	movq	-8(%rbp), %rax
	movl	(%rax), %eax
	subl	-16(%rbp), %eax
	shll	$3, %eax
	movq	stats, %rcx
	movq	1480(%rcx), %rcx
	addl	(%rcx), %eax
	movl	%eax, (%rcx)
	jmp	.LBB34_7
.LBB34_6:                               # %if.else
                                        #   in Loop: Header=BB34_3 Depth=1
	movq	-24(%rbp), %rax
	movq	24(%rax), %rax
	movslq	-12(%rbp), %rcx
	imulq	$120, %rcx, %rcx
	addq	%rcx, %rax
	addq	$8, %rax
	movq	%rax, -32(%rbp)
	movq	-32(%rbp), %rdi
	callq	arienco_done_encoding
	movq	-32(%rbp), %rax
	movl	12(%rax), %eax
	movq	-8(%rbp), %rcx
	movl	%eax, 4(%rcx)
	movq	-8(%rbp), %rax
	movb	$0, 8(%rax)
	movq	-8(%rbp), %rax
	movl	(%rax), %eax
	movl	%eax, -40(%rbp)
	movq	-8(%rbp), %rax
	movl	(%rax), %eax
	movl	%eax, -16(%rbp)
	movq	-8(%rbp), %rax
	movq	32(%rax), %rdi
	movq	-8(%rbp), %rax
	movl	(%rax), %edx
	movq	-32(%rbp), %rax
	movl	88(%rax), %ecx
	xorl	%esi, %esi
	callq	RBSPtoEBSP
	movq	-8(%rbp), %rcx
	movl	%eax, (%rcx)
	movq	-8(%rbp), %rax
	movl	(%rax), %eax
	subl	-16(%rbp), %eax
	shll	$3, %eax
	movq	stats, %rcx
	movq	1480(%rcx), %rcx
	addl	(%rcx), %eax
	movl	%eax, (%rcx)
.LBB34_7:                               # %if.end22
                                        #   in Loop: Header=BB34_3 Depth=1
	jmp	.LBB34_8
.LBB34_8:                               # %for.inc
                                        #   in Loop: Header=BB34_3 Depth=1
	movl	-12(%rbp), %eax
	addl	$1, %eax
	movl	%eax, -12(%rbp)
	jmp	.LBB34_3
.LBB34_9:                               # %for.end
	movq	input, %rax
	cmpl	$1, 2356(%rax)
	jne	.LBB34_11
# %bb.10:                               # %if.then25
	movb	$0, %al
	callq	store_contexts
.LBB34_11:                              # %if.end26
	cmpl	$1616217243, -36(%rbp)  # imm = 0x6055849B
	jne	.LBB34_13
.LBB34_12:
	xorl	%eax, %eax
	addq	$48, %rsp
	popq	%rbp
	.cfi_def_cfa %rsp, 8
	retq
.LBB34_13:                              # %func_exit
	.cfi_def_cfa %rbp, 16
	callq	detect_breach
	jmp	.LBB34_12
.Lfunc_end34:
	.size	terminate_slice.24, .Lfunc_end34-terminate_slice.24
	.cfi_endproc
                                        # -- End function
	.globl	terminate_slice.25      # -- Begin function terminate_slice.25
	.p2align	4, 0x90
	.type	terminate_slice.25,@function
terminate_slice.25:                     # @terminate_slice.25
	.cfi_startproc
# %bb.0:                                # %entry
	pushq	%rbp
	.cfi_def_cfa_offset 16
	.cfi_offset %rbp, -16
	movq	%rsp, %rbp
	.cfi_def_cfa_register %rbp
	subq	$48, %rsp
	movl	$1525592349, -36(%rbp)  # imm = 0x5AEEB11D
	movq	img, %rax
	movq	14160(%rax), %rax
	movq	%rax, -24(%rbp)
	movq	input, %rax
	cmpl	$1, 2356(%rax)
	jne	.LBB35_2
# %bb.1:                                # %if.then
	movl	$1, %edi
	callq	write_terminating_bit
.LBB35_2:                               # %if.end
	movl	$0, -12(%rbp)
.LBB35_3:                               # %for.cond
                                        # =>This Inner Loop Header: Depth=1
	movl	-12(%rbp), %eax
	movq	-24(%rbp), %rcx
	cmpl	16(%rcx), %eax
	jge	.LBB35_9
# %bb.4:                                # %for.body
                                        #   in Loop: Header=BB35_3 Depth=1
	movq	-24(%rbp), %rax
	movq	24(%rax), %rax
	movslq	-12(%rbp), %rcx
	imulq	$120, %rcx, %rcx
	addq	%rcx, %rax
	movq	(%rax), %rax
	movq	%rax, -8(%rbp)
	movq	input, %rax
	cmpl	$0, 2356(%rax)
	jne	.LBB35_6
# %bb.5:                                # %if.then4
                                        #   in Loop: Header=BB35_3 Depth=1
	movq	-8(%rbp), %rdi
	callq	SODBtoRBSP
	movq	-8(%rbp), %rax
	movl	(%rax), %eax
	movl	%eax, -16(%rbp)
	movq	-8(%rbp), %rax
	movq	32(%rax), %rdi
	movq	-8(%rbp), %rax
	movl	(%rax), %edx
	xorl	%esi, %esi
	xorl	%ecx, %ecx
	callq	RBSPtoEBSP
	movq	-8(%rbp), %rcx
	movl	%eax, (%rcx)
	movq	-8(%rbp), %rax
	movl	(%rax), %eax
	subl	-16(%rbp), %eax
	shll	$3, %eax
	movq	stats, %rcx
	movq	1480(%rcx), %rcx
	addl	(%rcx), %eax
	movl	%eax, (%rcx)
	jmp	.LBB35_7
.LBB35_6:                               # %if.else
                                        #   in Loop: Header=BB35_3 Depth=1
	movq	-24(%rbp), %rax
	movq	24(%rax), %rax
	movslq	-12(%rbp), %rcx
	imulq	$120, %rcx, %rcx
	addq	%rcx, %rax
	addq	$8, %rax
	movq	%rax, -32(%rbp)
	movq	-32(%rbp), %rdi
	callq	arienco_done_encoding
	movq	-32(%rbp), %rax
	movl	12(%rax), %eax
	movq	-8(%rbp), %rcx
	movl	%eax, 4(%rcx)
	movq	-8(%rbp), %rax
	movb	$0, 8(%rax)
	movq	-8(%rbp), %rax
	movl	(%rax), %eax
	movl	%eax, -40(%rbp)
	movq	-8(%rbp), %rax
	movl	(%rax), %eax
	movl	%eax, -16(%rbp)
	movq	-8(%rbp), %rax
	movq	32(%rax), %rdi
	movq	-8(%rbp), %rax
	movl	(%rax), %edx
	movq	-32(%rbp), %rax
	movl	88(%rax), %ecx
	xorl	%esi, %esi
	callq	RBSPtoEBSP
	movq	-8(%rbp), %rcx
	movl	%eax, (%rcx)
	movq	-8(%rbp), %rax
	movl	(%rax), %eax
	subl	-16(%rbp), %eax
	shll	$3, %eax
	movq	stats, %rcx
	movq	1480(%rcx), %rcx
	addl	(%rcx), %eax
	movl	%eax, (%rcx)
.LBB35_7:                               # %if.end22
                                        #   in Loop: Header=BB35_3 Depth=1
	jmp	.LBB35_8
.LBB35_8:                               # %for.inc
                                        #   in Loop: Header=BB35_3 Depth=1
	movl	-12(%rbp), %eax
	addl	$1, %eax
	movl	%eax, -12(%rbp)
	jmp	.LBB35_3
.LBB35_9:                               # %for.end
	movq	input, %rax
	cmpl	$1, 2356(%rax)
	jne	.LBB35_11
# %bb.10:                               # %if.then25
	movb	$0, %al
	callq	store_contexts
.LBB35_11:                              # %if.end26
	cmpl	$1525592349, -36(%rbp)  # imm = 0x5AEEB11D
	jne	.LBB35_13
.LBB35_12:
	xorl	%eax, %eax
	addq	$48, %rsp
	popq	%rbp
	.cfi_def_cfa %rsp, 8
	retq
.LBB35_13:                              # %func_exit
	.cfi_def_cfa %rbp, 16
	callq	detect_breach
	jmp	.LBB35_12
.Lfunc_end35:
	.size	terminate_slice.25, .Lfunc_end35-terminate_slice.25
	.cfi_endproc
                                        # -- End function
	.globl	encode_one_slice.26     # -- Begin function encode_one_slice.26
	.p2align	4, 0x90
	.type	encode_one_slice.26,@function
encode_one_slice.26:                    # @encode_one_slice.26
	.cfi_startproc
# %bb.0:                                # %entry
	pushq	%rbp
	.cfi_def_cfa_offset 16
	.cfi_offset %rbp, -16
	movq	%rsp, %rbp
	.cfi_def_cfa_register %rbp
	pushq	%rbx
	subq	$56, %rsp
	.cfi_offset %rbx, -24
	movl	$168301621, -56(%rbp)   # imm = 0xA081435
	movl	%edi, -52(%rbp)
	movq	%rsi, -64(%rbp)
	movl	$0, -20(%rbp)
	movl	$0, -16(%rbp)
	movq	img, %rax
	movl	$0, 120(%rax)
	movl	-52(%rbp), %edi
	callq	FmoGetFirstMacroblockInSlice
	movl	%eax, -12(%rbp)
	movl	-12(%rbp), %edi
	callq	init_slice
	movq	img, %rax
	movq	14160(%rax), %rax
	movq	24(%rax), %rax
	movq	(%rax), %rax
	movl	(%rax), %eax
	movl	%eax, Bytes_After_Header
	movq	input, %rax
	cmpl	$1, 2356(%rax)
	jne	.LBB36_2
# %bb.1:                                # %if.then
	movb	$0, %al
	callq	SetCtxModelNumber
.LBB36_2:                               # %if.end
	callq	start_slice
	movl	%eax, -28(%rbp)
	movl	-28(%rbp), %eax
	movq	img, %rcx
	addl	72524(%rcx), %eax
	movl	%eax, 72524(%rcx)
	movq	img, %rax
	movl	72620(%rax), %eax
	movq	img, %rcx
	cmpl	72608(%rcx), %eax
	jge	.LBB36_4
# %bb.3:                                # %if.then3
	movl	-28(%rbp), %eax
	movq	img, %rcx
	addl	72532(%rcx), %eax
	movl	%eax, 72532(%rcx)
.LBB36_4:                               # %if.end5
	movl	-28(%rbp), %eax
	movq	stats, %rcx
	addl	24(%rcx), %eax
	movl	%eax, 24(%rcx)
	movl	-28(%rbp), %eax
	movq	stats, %rcx
	movq	img, %rdx
	movslq	24(%rdx), %rdx
	addl	1368(%rcx,%rdx,4), %eax
	movl	%eax, 1368(%rcx,%rdx,4)
.LBB36_5:                               # %while.cond
                                        # =>This Inner Loop Header: Depth=1
	cmpl	$0, -20(%rbp)
	jne	.LBB36_33
# %bb.6:                                # %while.body
                                        #   in Loop: Header=BB36_5 Depth=1
	movq	img, %rax
	cmpl	$0, 72400(%rax)
	jne	.LBB36_15
# %bb.7:                                # %if.then10
                                        #   in Loop: Header=BB36_5 Depth=1
	movl	$0, -24(%rbp)
	movabsq	$rddata_top_frame_mb, %rax
	movq	%rax, rdopt
	movl	-12(%rbp), %edi
	xorl	%esi, %esi
	callq	start_macroblock
	callq	encode_one_macroblock
	movl	$1, %edi
	callq	write_one_macroblock
	leaq	-20(%rbp), %rdi
	leaq	-24(%rbp), %rsi
	callq	terminate_macroblock
	cmpl	$0, -24(%rbp)
	jne	.LBB36_11
# %bb.8:                                # %if.then12
                                        #   in Loop: Header=BB36_5 Depth=1
	movl	-12(%rbp), %edi
	callq	FmoGetNextMBNr
	movl	%eax, -12(%rbp)
	cmpl	$-1, -12(%rbp)
	jne	.LBB36_10
# %bb.9:                                # %if.then15
                                        #   in Loop: Header=BB36_5 Depth=1
	movl	$1, -20(%rbp)
.LBB36_10:                              # %if.end16
                                        #   in Loop: Header=BB36_5 Depth=1
	movl	-16(%rbp), %eax
	addl	$1, %eax
	movl	%eax, -16(%rbp)
	movl	-12(%rbp), %edi
	movb	$0, %al
	callq	proceed2nextMacroblock
	jmp	.LBB36_14
.LBB36_11:                              # %if.else
                                        #   in Loop: Header=BB36_5 Depth=1
	movq	img, %rax
	movl	12(%rax), %edi
	callq	FmoGetPreviousMBNr
	movq	img, %rcx
	movl	%eax, 12(%rcx)
	movq	img, %rax
	cmpl	$-1, 12(%rax)
	jne	.LBB36_13
# %bb.12:                               # %if.then21
                                        #   in Loop: Header=BB36_5 Depth=1
	movabsq	$errortext, %rdi
	movl	$300, %esi              # imm = 0x12C
	movabsq	$.L.str, %rdx
	movb	$0, %al
	callq	snprintf
	movabsq	$errortext, %rdi
	movl	$300, %esi              # imm = 0x12C
	callq	error
.LBB36_13:                              # %if.end23
                                        #   in Loop: Header=BB36_5 Depth=1
	jmp	.LBB36_14
.LBB36_14:                              # %if.end24
                                        #   in Loop: Header=BB36_5 Depth=1
	jmp	.LBB36_32
.LBB36_15:                              # %if.else25
                                        #   in Loop: Header=BB36_5 Depth=1
	movq	input, %rax
	cmpl	$2, 2884(%rax)
	jne	.LBB36_17
# %bb.16:                               # %if.then27
                                        #   in Loop: Header=BB36_5 Depth=1
	movl	$0, -24(%rbp)
	movq	img, %rax
	movl	$0, 72008(%rax)
	movq	img, %rax
	movl	$0, 72012(%rax)
	movq	img, %rax
	movl	$0, 72624(%rax)
	movq	img, %rax
	movl	$0, 72628(%rax)
	movl	-12(%rbp), %edi
	xorl	%esi, %esi
	callq	start_macroblock
	movabsq	$rddata_top_frame_mb, %rax
	movq	%rax, rdopt
	callq	encode_one_macroblock
	movq	rdopt, %rax
	vmovsd	(%rax), %xmm0           # xmm0 = mem[0],zero
	vmovsd	%xmm0, -40(%rbp)
	movq	img, %rax
	movl	$1, 72628(%rax)
	movq	img, %rax
	movl	$0, 72008(%rax)
	movl	-12(%rbp), %edi
	addl	$1, %edi
	xorl	%esi, %esi
	callq	start_macroblock
	movabsq	$rddata_bot_frame_mb, %rax
	movq	%rax, rdopt
	callq	encode_one_macroblock
	movq	rdopt, %rax
	vmovsd	(%rax), %xmm0           # xmm0 = mem[0],zero
	vaddsd	-40(%rbp), %xmm0, %xmm0
	vmovsd	%xmm0, -40(%rbp)
.LBB36_17:                              # %if.end33
                                        #   in Loop: Header=BB36_5 Depth=1
	movq	input, %rax
	cmpl	$2, 2884(%rax)
	je	.LBB36_19
# %bb.18:                               # %lor.lhs.false
                                        #   in Loop: Header=BB36_5 Depth=1
	movq	input, %rax
	cmpl	$1, 2884(%rax)
	jne	.LBB36_20
.LBB36_19:                              # %if.then38
                                        #   in Loop: Header=BB36_5 Depth=1
	movq	img, %rax
	movl	$0, 72628(%rax)
	movq	img, %rax
	movl	$1, 72008(%rax)
	movq	img, %rax
	movl	$1, 72012(%rax)
	movq	img, %rax
	movl	72376(%rax), %ecx
	shll	$1, %ecx
	movl	%ecx, 72376(%rax)
	movq	input, %rax
	movl	36(%rax), %ecx
	shll	$1, %ecx
	movl	%ecx, 36(%rax)
	movq	img, %rax
	movl	72000(%rax), %ecx
	shll	$1, %ecx
	movl	%ecx, 72000(%rax)
	movq	img, %rax
	movl	72000(%rax), %ecx
	addl	$1, %ecx
	movl	%ecx, 72000(%rax)
	movl	-12(%rbp), %edi
	movl	$1, %esi
	callq	start_macroblock
	movabsq	$rddata_top_field_mb, %rax
	movq	%rax, rdopt
	callq	encode_one_macroblock
	movq	rdopt, %rax
	vmovsd	(%rax), %xmm0           # xmm0 = mem[0],zero
	vmovsd	%xmm0, -48(%rbp)
	movq	img, %rax
	movl	$1, 72628(%rax)
	movq	img, %rax
	movl	$0, 72012(%rax)
	movl	-12(%rbp), %edi
	addl	$1, %edi
	movl	$1, %esi
	callq	start_macroblock
	movabsq	$rddata_bot_field_mb, %rax
	movq	%rax, rdopt
	callq	encode_one_macroblock
	movq	rdopt, %rax
	vmovsd	(%rax), %xmm0           # xmm0 = mem[0],zero
	vaddsd	-48(%rbp), %xmm0, %xmm0
	vmovsd	%xmm0, -48(%rbp)
.LBB36_20:                              # %if.end52
                                        #   in Loop: Header=BB36_5 Depth=1
	movq	img, %rax
	movl	$0, 72632(%rax)
	movq	input, %rax
	cmpl	$2, 2884(%rax)
	jne	.LBB36_23
# %bb.21:                               # %land.lhs.true
                                        #   in Loop: Header=BB36_5 Depth=1
	vmovsd	-40(%rbp), %xmm0        # xmm0 = mem[0],zero
	vmovsd	-48(%rbp), %xmm1        # xmm1 = mem[0],zero
	vucomisd	%xmm0, %xmm1
	jbe	.LBB36_23
# %bb.22:                               # %if.then56
                                        #   in Loop: Header=BB36_5 Depth=1
	movq	img, %rax
	movl	$0, 72008(%rax)
	movq	img, %rax
	movl	72376(%rax), %ecx
	sarl	$1, %ecx
	movl	%ecx, 72376(%rax)
	movq	input, %rax
	movl	36(%rax), %ecx
	sarl	$1, %ecx
	movl	%ecx, 36(%rax)
	movl	$0, MBPairIsField
	movq	img, %rax
	movl	72000(%rax), %ecx
	subl	$1, %ecx
	movl	%ecx, 72000(%rax)
	movq	img, %rax
	movl	72000(%rax), %ecx
	sarl	$1, %ecx
	movl	%ecx, 72000(%rax)
	movq	img, %rax
	movl	$1, 72632(%rax)
	jmp	.LBB36_24
.LBB36_23:                              # %if.else65
                                        #   in Loop: Header=BB36_5 Depth=1
	movq	img, %rax
	movl	$1, 72008(%rax)
	movl	$1, MBPairIsField
.LBB36_24:                              # %if.end67
                                        #   in Loop: Header=BB36_5 Depth=1
	movq	img, %rax
	movl	$1, 72624(%rax)
	cmpl	$0, MBPairIsField
	je	.LBB36_26
# %bb.25:                               # %if.then70
                                        #   in Loop: Header=BB36_5 Depth=1
	movq	img, %rax
	movl	$1, 72012(%rax)
	jmp	.LBB36_27
.LBB36_26:                              # %if.else72
                                        #   in Loop: Header=BB36_5 Depth=1
	movq	img, %rax
	movl	$0, 72012(%rax)
.LBB36_27:                              # %if.end74
                                        #   in Loop: Header=BB36_5 Depth=1
	movq	img, %rax
	movl	$0, 72628(%rax)
	movl	-12(%rbp), %edi
	movq	img, %rax
	movl	72008(%rax), %esi
	callq	start_macroblock
	movq	img, %rax
	movl	72008(%rax), %eax
	cmpl	$0, %eax
	movabsq	$rddata_top_field_mb, %rax
	movabsq	$rddata_top_frame_mb, %rcx
	cmovneq	%rax, %rcx
	movq	%rcx, rdopt
	xorl	%edi, %edi
	callq	copy_rdopt_data
	movl	$1, %edi
	callq	write_one_macroblock
	movl	-16(%rbp), %eax
	addl	$1, %eax
	movl	%eax, -16(%rbp)
	leaq	-20(%rbp), %rdi
	leaq	-24(%rbp), %rsi
	callq	terminate_macroblock
	movl	-12(%rbp), %edi
	movb	$0, %al
	callq	proceed2nextMacroblock
	movq	img, %rax
	movl	$1, 72628(%rax)
	movq	img, %rax
	movl	$0, 72012(%rax)
	movl	-12(%rbp), %edi
	addl	$1, %edi
	movq	img, %rax
	movl	72008(%rax), %esi
	callq	start_macroblock
	movq	img, %rax
	movl	72008(%rax), %eax
	cmpl	$0, %eax
	movabsq	$rddata_bot_field_mb, %rax
	movabsq	$rddata_bot_frame_mb, %rcx
	cmovneq	%rax, %rcx
	movq	%rcx, rdopt
	movl	$1, %edi
	callq	copy_rdopt_data
	xorl	%edi, %edi
	callq	write_one_macroblock
	movl	-16(%rbp), %eax
	addl	$1, %eax
	movl	%eax, -16(%rbp)
	leaq	-20(%rbp), %rdi
	leaq	-24(%rbp), %rsi
	callq	terminate_macroblock
	movl	-12(%rbp), %edi
	movb	$0, %al
	callq	proceed2nextMacroblock
	cmpl	$0, MBPairIsField
	je	.LBB36_29
# %bb.28:                               # %if.then89
                                        #   in Loop: Header=BB36_5 Depth=1
	movq	img, %rax
	movl	72376(%rax), %ecx
	sarl	$1, %ecx
	movl	%ecx, 72376(%rax)
	movq	input, %rax
	movl	36(%rax), %ecx
	sarl	$1, %ecx
	movl	%ecx, 36(%rax)
	movq	img, %rax
	movl	72000(%rax), %ecx
	subl	$1, %ecx
	movl	%ecx, 72000(%rax)
	movq	img, %rax
	movl	72000(%rax), %ecx
	sarl	$1, %ecx
	movl	%ecx, 72000(%rax)
.LBB36_29:                              # %if.end98
                                        #   in Loop: Header=BB36_5 Depth=1
	movq	img, %rax
	movl	$0, 72012(%rax)
	movq	img, %rax
	movl	$0, 72008(%rax)
	movl	-12(%rbp), %edi
	callq	FmoGetNextMBNr
	movl	%eax, -12(%rbp)
	movl	-12(%rbp), %edi
	callq	FmoGetNextMBNr
	movl	%eax, -12(%rbp)
	movl	-12(%rbp), %ebx
	movl	-12(%rbp), %edi
	callq	FmoMB2SliceGroup
	movl	%eax, %edi
	callq	FmoGetLastCodedMBOfSliceGroup
	cmpl	%eax, %ebx
	jne	.LBB36_31
# %bb.30:                               # %if.then106
                                        #   in Loop: Header=BB36_5 Depth=1
	movl	$1, -20(%rbp)
.LBB36_31:                              # %if.end107
                                        #   in Loop: Header=BB36_5 Depth=1
	jmp	.LBB36_32
.LBB36_32:                              # %if.end108
                                        #   in Loop: Header=BB36_5 Depth=1
	jmp	.LBB36_5
.LBB36_33:                              # %while.end
	callq	terminate_slice
	movl	-16(%rbp), %ebx
	cmpl	$168301621, -56(%rbp)   # imm = 0xA081435
	jne	.LBB36_35
.LBB36_34:
	movl	%ebx, %eax
	addq	$56, %rsp
	popq	%rbx
	popq	%rbp
	.cfi_def_cfa %rsp, 8
	retq
.LBB36_35:                              # %func_exit
	.cfi_def_cfa %rbp, 16
	callq	detect_breach
	jmp	.LBB36_34
.Lfunc_end36:
	.size	encode_one_slice.26, .Lfunc_end36-encode_one_slice.26
	.cfi_endproc
                                        # -- End function
	.p2align	4, 0x90         # -- Begin function malloc_slice.27
	.type	malloc_slice.27,@function
malloc_slice.27:                        # @malloc_slice.27
	.cfi_startproc
# %bb.0:                                # %entry
	pushq	%rbp
	.cfi_def_cfa_offset 16
	.cfi_offset %rbp, -16
	movq	%rsp, %rbp
	.cfi_def_cfa_register %rbp
	pushq	%rbx
	subq	$40, %rsp
	.cfi_offset %rbx, -24
	movl	$866419414, -28(%rbp)   # imm = 0x33A482D6
	movq	img, %rax
	movl	52(%rax), %eax
	movq	img, %rcx
	imull	60(%rcx), %eax
	shll	$2, %eax
	movl	%eax, -24(%rbp)
	movl	$1, %edi
	movl	$152, %esi
	callq	calloc
	movq	%rax, -16(%rbp)
	cmpq	$0, %rax
	jne	.LBB37_2
# %bb.1:                                # %if.then
	movabsq	$.L.str.2, %rdi
	callq	no_mem_exit
.LBB37_2:                               # %if.end
	movq	input, %rax
	cmpl	$1, 2356(%rax)
	jne	.LBB37_4
# %bb.3:                                # %if.then3
	callq	create_contexts_MotionInfo
	movq	-16(%rbp), %rcx
	movq	%rax, 32(%rcx)
	callq	create_contexts_TextureInfo
	movq	-16(%rbp), %rcx
	movq	%rax, 40(%rcx)
.LBB37_4:                               # %if.end6
	movq	input, %rax
	movl	2364(%rax), %eax
	cmpl	$0, %eax
	movl	$1, %eax
	movl	$3, %ecx
	cmovel	%eax, %ecx
	movq	-16(%rbp), %rax
	movl	%ecx, 16(%rax)
	movq	img, %rax
	movq	14152(%rax), %rax
	cmpl	$0, 4(%rax)
	je	.LBB37_6
# %bb.5:                                # %if.then8
	movq	-16(%rbp), %rax
	movl	$1, 16(%rax)
.LBB37_6:                               # %if.end10
	movabsq	$assignSE2partition_NoDP, %rax
	movq	%rax, assignSE2partition
	movq	img, %rax
	movq	14152(%rax), %rax
	cmpl	$0, 4(%rax)
	jne	.LBB37_9
# %bb.7:                                # %land.lhs.true
	movq	input, %rax
	cmpl	$1, 2364(%rax)
	jne	.LBB37_9
# %bb.8:                                # %if.then16
	movabsq	$assignSE2partition_DP, %rax
	movq	%rax, assignSE2partition+8
	jmp	.LBB37_10
.LBB37_9:                               # %if.else
	movabsq	$assignSE2partition_NoDP, %rax
	movq	%rax, assignSE2partition+8
.LBB37_10:                              # %if.end17
	movq	-16(%rbp), %rax
	movl	$0, 20(%rax)
	movq	-16(%rbp), %rax
	movslq	16(%rax), %rdi
	movl	$120, %esi
	callq	calloc
	movq	-16(%rbp), %rcx
	movq	%rax, 24(%rcx)
	cmpq	$0, %rax
	jne	.LBB37_12
# %bb.11:                               # %if.then22
	movabsq	$.L.str.3, %rdi
	callq	no_mem_exit
.LBB37_12:                              # %if.end23
	movl	$0, -20(%rbp)
.LBB37_13:                              # %for.cond
                                        # =>This Inner Loop Header: Depth=1
	movl	-20(%rbp), %eax
	movq	-16(%rbp), %rcx
	cmpl	16(%rcx), %eax
	jge	.LBB37_20
# %bb.14:                               # %for.body
                                        #   in Loop: Header=BB37_13 Depth=1
	movq	-16(%rbp), %rax
	movq	24(%rax), %rax
	movslq	-20(%rbp), %rcx
	imulq	$120, %rcx, %rcx
	addq	%rcx, %rax
	movq	%rax, -40(%rbp)
	movl	$1, %edi
	movl	$48, %esi
	callq	calloc
	movq	-40(%rbp), %rcx
	movq	%rax, (%rcx)
	cmpq	$0, %rax
	jne	.LBB37_16
# %bb.15:                               # %if.then31
                                        #   in Loop: Header=BB37_13 Depth=1
	movabsq	$.L.str.4, %rdi
	callq	no_mem_exit
.LBB37_16:                              # %if.end32
                                        #   in Loop: Header=BB37_13 Depth=1
	movslq	-24(%rbp), %rdi
	movl	$1, %esi
	callq	calloc
	movq	-40(%rbp), %rcx
	movq	(%rcx), %rcx
	movq	%rax, 32(%rcx)
	cmpq	$0, %rax
	jne	.LBB37_18
# %bb.17:                               # %if.then38
                                        #   in Loop: Header=BB37_13 Depth=1
	movabsq	$.L.str.5, %rdi
	callq	no_mem_exit
.LBB37_18:                              # %if.end39
                                        #   in Loop: Header=BB37_13 Depth=1
	jmp	.LBB37_19
.LBB37_19:                              # %for.inc
                                        #   in Loop: Header=BB37_13 Depth=1
	movl	-20(%rbp), %eax
	addl	$1, %eax
	movl	%eax, -20(%rbp)
	jmp	.LBB37_13
.LBB37_20:                              # %for.end
	movq	-16(%rbp), %rbx
	cmpl	$866419414, -28(%rbp)   # imm = 0x33A482D6
	jne	.LBB37_22
.LBB37_21:
	movq	%rbx, %rax
	addq	$40, %rsp
	popq	%rbx
	popq	%rbp
	.cfi_def_cfa %rsp, 8
	retq
.LBB37_22:                              # %func_exit
	.cfi_def_cfa %rbp, 16
	callq	detect_breach
	jmp	.LBB37_21
.Lfunc_end37:
	.size	malloc_slice.27, .Lfunc_end37-malloc_slice.27
	.cfi_endproc
                                        # -- End function
	.globl	poc_ref_pic_reorder.28  # -- Begin function poc_ref_pic_reorder.28
	.p2align	4, 0x90
	.type	poc_ref_pic_reorder.28,@function
poc_ref_pic_reorder.28:                 # @poc_ref_pic_reorder.28
	.cfi_startproc
# %bb.0:                                # %entry
	pushq	%rbp
	.cfi_def_cfa_offset 16
	.cfi_offset %rbp, -16
	movq	%rsp, %rbp
	.cfi_def_cfa_register %rbp
	subq	$736, %rsp              # imm = 0x2E0
	movl	16(%rbp), %eax
	movl	$592937046, -72(%rbp)   # imm = 0x23578056
	movq	%rdi, -80(%rbp)
	movl	%esi, -12(%rbp)
	movq	%rdx, -64(%rbp)
	movq	%rcx, -56(%rbp)
	movq	%r8, -96(%rbp)
	movl	%r9d, -84(%rbp)
	movl	log2_max_frame_num_minus4, %ecx
	addl	$4, %ecx
                                        # kill: def $cl killed $ecx
	movl	$1, %eax
	shll	%cl, %eax
	movl	%eax, -36(%rbp)
	movq	img, %rax
	cmpl	$0, 28(%rax)
	jne	.LBB38_2
# %bb.1:                                # %if.then
	movl	-36(%rbp), %eax
	movl	%eax, -44(%rbp)
	movq	img, %rax
	movl	72464(%rax), %eax
	movl	%eax, -40(%rbp)
	jmp	.LBB38_3
.LBB38_2:                               # %if.else
	movl	-36(%rbp), %eax
	shll	$1, %eax
	movl	%eax, -44(%rbp)
	movq	img, %rax
	movl	72464(%rax), %eax
	shll	$1, %eax
	addl	$1, %eax
	movl	%eax, -40(%rbp)
.LBB38_3:                               # %if.end
	movl	-40(%rbp), %eax
	movl	%eax, -28(%rbp)
	movl	$0, -4(%rbp)
.LBB38_4:                               # %for.cond
                                        # =>This Inner Loop Header: Depth=1
	movl	-4(%rbp), %eax
	cmpl	-12(%rbp), %eax
	jae	.LBB38_7
# %bb.5:                                # %for.body
                                        #   in Loop: Header=BB38_4 Depth=1
	movq	-80(%rbp), %rax
	movl	-4(%rbp), %ecx
	movq	(%rax,%rcx,8), %rax
	movl	6364(%rax), %eax
	movl	-4(%rbp), %ecx
	movl	%eax, -608(%rbp,%rcx,4)
# %bb.6:                                # %for.inc
                                        #   in Loop: Header=BB38_4 Depth=1
	movl	-4(%rbp), %eax
	addl	$1, %eax
	movl	%eax, -4(%rbp)
	jmp	.LBB38_4
.LBB38_7:                               # %for.end
	movl	$0, -4(%rbp)
.LBB38_8:                               # %for.cond7
                                        # =>This Inner Loop Header: Depth=1
	movl	-4(%rbp), %eax
	cmpl	dpb+32, %eax
	jae	.LBB38_24
# %bb.9:                                # %for.body9
                                        #   in Loop: Header=BB38_8 Depth=1
	movq	dpb+8, %rax
	movl	-4(%rbp), %ecx
	movq	(%rax,%rcx,8), %rax
	movq	40(%rax), %rax
	movl	6364(%rax), %eax
	movl	-4(%rbp), %ecx
	movl	%eax, -224(%rbp,%rcx,4)
	movq	dpb+8, %rax
	movl	-4(%rbp), %ecx
	movq	(%rax,%rcx,8), %rax
	cmpl	$3, (%rax)
	jne	.LBB38_22
# %bb.10:                               # %land.lhs.true
                                        #   in Loop: Header=BB38_8 Depth=1
	movq	dpb+8, %rax
	movl	-4(%rbp), %ecx
	movq	(%rax,%rcx,8), %rax
	movq	40(%rax), %rax
	cmpl	$0, 6380(%rax)
	je	.LBB38_22
# %bb.11:                               # %land.lhs.true21
                                        #   in Loop: Header=BB38_8 Depth=1
	movq	dpb+8, %rax
	movl	-4(%rbp), %ecx
	movq	(%rax,%rcx,8), %rax
	movq	40(%rax), %rax
	cmpl	$0, 6376(%rax)
	jne	.LBB38_22
# %bb.12:                               # %if.then26
                                        #   in Loop: Header=BB38_8 Depth=1
	movq	dpb+8, %rax
	movl	-4(%rbp), %ecx
	movq	(%rax,%rcx,8), %rax
	movq	40(%rax), %rax
	movl	4(%rax), %edi
	movq	enc_picture, %rax
	subl	4(%rax), %edi
	callq	abs
	movl	%eax, -68(%rbp)
	movl	-68(%rbp), %eax
	movl	-4(%rbp), %ecx
	movl	%eax, -480(%rbp,%rcx,4)
	cmpl	$0, 16(%rbp)
	jne	.LBB38_17
# %bb.13:                               # %if.then34
                                        #   in Loop: Header=BB38_8 Depth=1
	movq	enc_picture, %rax
	movl	4(%rax), %eax
	movq	dpb+8, %rcx
	movl	-4(%rbp), %edx
	movq	(%rcx,%rdx,8), %rcx
	movq	40(%rcx), %rcx
	cmpl	4(%rcx), %eax
	jge	.LBB38_15
# %bb.14:                               # %if.then41
                                        #   in Loop: Header=BB38_8 Depth=1
	movl	-4(%rbp), %eax
	movl	$1, -352(%rbp,%rax,4)
	jmp	.LBB38_16
.LBB38_15:                              # %if.else44
                                        #   in Loop: Header=BB38_8 Depth=1
	movl	-4(%rbp), %eax
	movl	$-1, -352(%rbp,%rax,4)
.LBB38_16:                              # %if.end47
                                        #   in Loop: Header=BB38_8 Depth=1
	jmp	.LBB38_21
.LBB38_17:                              # %if.else48
                                        #   in Loop: Header=BB38_8 Depth=1
	movq	enc_picture, %rax
	movl	4(%rax), %eax
	movq	dpb+8, %rcx
	movl	-4(%rbp), %edx
	movq	(%rcx,%rdx,8), %rcx
	movq	40(%rcx), %rcx
	cmpl	4(%rcx), %eax
	jle	.LBB38_19
# %bb.18:                               # %if.then55
                                        #   in Loop: Header=BB38_8 Depth=1
	movl	-4(%rbp), %eax
	movl	$1, -352(%rbp,%rax,4)
	jmp	.LBB38_20
.LBB38_19:                              # %if.else58
                                        #   in Loop: Header=BB38_8 Depth=1
	movl	-4(%rbp), %eax
	movl	$-1, -352(%rbp,%rax,4)
.LBB38_20:                              # %if.end61
                                        #   in Loop: Header=BB38_8 Depth=1
	jmp	.LBB38_21
.LBB38_21:                              # %if.end62
                                        #   in Loop: Header=BB38_8 Depth=1
	jmp	.LBB38_22
.LBB38_22:                              # %if.end63
                                        #   in Loop: Header=BB38_8 Depth=1
	jmp	.LBB38_23
.LBB38_23:                              # %for.inc64
                                        #   in Loop: Header=BB38_8 Depth=1
	movl	-4(%rbp), %eax
	addl	$1, %eax
	movl	%eax, -4(%rbp)
	jmp	.LBB38_8
.LBB38_24:                              # %for.end66
	movl	$0, -4(%rbp)
.LBB38_25:                              # %for.cond67
                                        # =>This Loop Header: Depth=1
                                        #     Child Loop BB38_27 Depth 2
	movl	-4(%rbp), %eax
	movl	dpb+32, %ecx
	subl	$1, %ecx
	cmpl	%ecx, %eax
	jae	.LBB38_36
# %bb.26:                               # %for.body70
                                        #   in Loop: Header=BB38_25 Depth=1
	movl	-4(%rbp), %eax
	addl	$1, %eax
	movl	%eax, -8(%rbp)
.LBB38_27:                              # %for.cond72
                                        #   Parent Loop BB38_25 Depth=1
                                        # =>  This Inner Loop Header: Depth=2
	movl	-8(%rbp), %eax
	cmpl	dpb+32, %eax
	jae	.LBB38_34
# %bb.28:                               # %for.body74
                                        #   in Loop: Header=BB38_27 Depth=2
	movl	-4(%rbp), %eax
	movl	-480(%rbp,%rax,4), %eax
	movl	-8(%rbp), %ecx
	cmpl	-480(%rbp,%rcx,4), %eax
	jg	.LBB38_31
# %bb.29:                               # %lor.lhs.false
                                        #   in Loop: Header=BB38_27 Depth=2
	movl	-4(%rbp), %eax
	movl	-480(%rbp,%rax,4), %eax
	movl	-8(%rbp), %ecx
	cmpl	-480(%rbp,%rcx,4), %eax
	jne	.LBB38_32
# %bb.30:                               # %land.lhs.true85
                                        #   in Loop: Header=BB38_27 Depth=2
	movl	-8(%rbp), %eax
	movl	-352(%rbp,%rax,4), %eax
	movl	-4(%rbp), %ecx
	cmpl	-352(%rbp,%rcx,4), %eax
	jle	.LBB38_32
.LBB38_31:                              # %if.then91
                                        #   in Loop: Header=BB38_27 Depth=2
	movl	-4(%rbp), %eax
	movl	-480(%rbp,%rax,4), %eax
	movl	%eax, -16(%rbp)
	movl	-8(%rbp), %eax
	movl	-480(%rbp,%rax,4), %eax
	movl	-4(%rbp), %ecx
	movl	%eax, -480(%rbp,%rcx,4)
	movl	-16(%rbp), %eax
	movl	-8(%rbp), %ecx
	movl	%eax, -480(%rbp,%rcx,4)
	movl	-4(%rbp), %eax
	movl	-224(%rbp,%rax,4), %eax
	movl	%eax, -16(%rbp)
	movl	-8(%rbp), %eax
	movl	-224(%rbp,%rax,4), %eax
	movl	-4(%rbp), %ecx
	movl	%eax, -224(%rbp,%rcx,4)
	movl	-16(%rbp), %eax
	movl	-8(%rbp), %ecx
	movl	%eax, -224(%rbp,%rcx,4)
	movl	-4(%rbp), %eax
	movl	-352(%rbp,%rax,4), %eax
	movl	%eax, -16(%rbp)
	movl	-8(%rbp), %eax
	movl	-352(%rbp,%rax,4), %eax
	movl	-4(%rbp), %ecx
	movl	%eax, -352(%rbp,%rcx,4)
	movl	-16(%rbp), %eax
	movl	-8(%rbp), %ecx
	movl	%eax, -352(%rbp,%rcx,4)
.LBB38_32:                              # %if.end116
                                        #   in Loop: Header=BB38_27 Depth=2
	jmp	.LBB38_33
.LBB38_33:                              # %for.inc117
                                        #   in Loop: Header=BB38_27 Depth=2
	movl	-8(%rbp), %eax
	addl	$1, %eax
	movl	%eax, -8(%rbp)
	jmp	.LBB38_27
.LBB38_34:                              # %for.end119
                                        #   in Loop: Header=BB38_25 Depth=1
	jmp	.LBB38_35
.LBB38_35:                              # %for.inc120
                                        #   in Loop: Header=BB38_25 Depth=1
	movl	-4(%rbp), %eax
	addl	$1, %eax
	movl	%eax, -4(%rbp)
	jmp	.LBB38_25
.LBB38_36:                              # %for.end122
	movl	$1, -48(%rbp)
	movl	$0, -4(%rbp)
.LBB38_37:                              # %for.cond123
                                        # =>This Inner Loop Header: Depth=1
	movl	-4(%rbp), %eax
	cmpl	-12(%rbp), %eax
	jae	.LBB38_42
# %bb.38:                               # %for.body125
                                        #   in Loop: Header=BB38_37 Depth=1
	movl	-4(%rbp), %eax
	movl	-608(%rbp,%rax,4), %eax
	movl	-4(%rbp), %ecx
	cmpl	-224(%rbp,%rcx,4), %eax
	je	.LBB38_40
# %bb.39:                               # %if.then131
                                        #   in Loop: Header=BB38_37 Depth=1
	movl	$0, -48(%rbp)
.LBB38_40:                              # %if.end132
                                        #   in Loop: Header=BB38_37 Depth=1
	jmp	.LBB38_41
.LBB38_41:                              # %for.inc133
                                        #   in Loop: Header=BB38_37 Depth=1
	movl	-4(%rbp), %eax
	addl	$1, %eax
	movl	%eax, -4(%rbp)
	jmp	.LBB38_37
.LBB38_42:                              # %for.end135
	cmpl	$0, -48(%rbp)
	jne	.LBB38_80
# %bb.43:                               # %if.then137
	movl	$0, -4(%rbp)
.LBB38_44:                              # %for.cond138
                                        # =>This Loop Header: Depth=1
                                        #     Child Loop BB38_51 Depth 2
                                        #     Child Loop BB38_57 Depth 2
                                        #     Child Loop BB38_66 Depth 2
	movl	-4(%rbp), %eax
	cmpl	-12(%rbp), %eax
	jae	.LBB38_71
# %bb.45:                               # %for.body140
                                        #   in Loop: Header=BB38_44 Depth=1
	movl	-4(%rbp), %eax
	movl	-224(%rbp,%rax,4), %eax
	subl	-28(%rbp), %eax
	movl	%eax, -24(%rbp)
	cmpl	$0, -24(%rbp)
	jg	.LBB38_49
# %bb.46:                               # %if.then145
                                        #   in Loop: Header=BB38_44 Depth=1
	movq	-64(%rbp), %rax
	movl	-4(%rbp), %ecx
	movl	$0, (%rax,%rcx,4)
	movl	-24(%rbp), %edi
	callq	abs
	subl	$1, %eax
	movq	-56(%rbp), %rcx
	movl	-4(%rbp), %edx
	movl	%eax, (%rcx,%rdx,4)
	movq	-56(%rbp), %rax
	movl	-4(%rbp), %ecx
	cmpl	$0, (%rax,%rcx,4)
	jge	.LBB38_48
# %bb.47:                               # %if.then155
                                        #   in Loop: Header=BB38_44 Depth=1
	movl	-44(%rbp), %eax
	subl	$1, %eax
	movq	-56(%rbp), %rcx
	movl	-4(%rbp), %edx
	movl	%eax, (%rcx,%rdx,4)
.LBB38_48:                              # %if.end159
                                        #   in Loop: Header=BB38_44 Depth=1
	jmp	.LBB38_50
.LBB38_49:                              # %if.else160
                                        #   in Loop: Header=BB38_44 Depth=1
	movq	-64(%rbp), %rax
	movl	-4(%rbp), %ecx
	movl	$1, (%rax,%rcx,4)
	movl	-24(%rbp), %edi
	callq	abs
	subl	$1, %eax
	movq	-56(%rbp), %rcx
	movl	-4(%rbp), %edx
	movl	%eax, (%rcx,%rdx,4)
.LBB38_50:                              # %if.end167
                                        #   in Loop: Header=BB38_44 Depth=1
	movl	-4(%rbp), %eax
	movl	-224(%rbp,%rax,4), %eax
	movl	%eax, -28(%rbp)
	movl	-4(%rbp), %eax
	movl	-224(%rbp,%rax,4), %eax
	movl	-4(%rbp), %ecx
	movl	%eax, -736(%rbp,%rcx,4)
	movl	-4(%rbp), %eax
	movl	%eax, -20(%rbp)
	movl	-4(%rbp), %eax
	movl	%eax, -8(%rbp)
.LBB38_51:                              # %for.cond174
                                        #   Parent Loop BB38_44 Depth=1
                                        # =>  This Inner Loop Header: Depth=2
	movl	-8(%rbp), %eax
	cmpl	-12(%rbp), %eax
	jae	.LBB38_56
# %bb.52:                               # %for.body176
                                        #   in Loop: Header=BB38_51 Depth=2
	movl	-8(%rbp), %eax
	movl	-608(%rbp,%rax,4), %eax
	movl	-4(%rbp), %ecx
	cmpl	-224(%rbp,%rcx,4), %eax
	je	.LBB38_54
# %bb.53:                               # %if.then182
                                        #   in Loop: Header=BB38_51 Depth=2
	movl	-20(%rbp), %eax
	addl	$1, %eax
	movl	%eax, -20(%rbp)
	movl	-8(%rbp), %eax
	movl	-608(%rbp,%rax,4), %eax
	movl	-20(%rbp), %ecx
	movl	%eax, -736(%rbp,%rcx,4)
.LBB38_54:                              # %if.end188
                                        #   in Loop: Header=BB38_51 Depth=2
	jmp	.LBB38_55
.LBB38_55:                              # %for.inc189
                                        #   in Loop: Header=BB38_51 Depth=2
	movl	-8(%rbp), %eax
	addl	$1, %eax
	movl	%eax, -8(%rbp)
	jmp	.LBB38_51
.LBB38_56:                              # %for.end191
                                        #   in Loop: Header=BB38_44 Depth=1
	movl	$1, -32(%rbp)
	movl	-4(%rbp), %eax
	addl	$1, %eax
	movl	%eax, -8(%rbp)
.LBB38_57:                              # %for.cond193
                                        #   Parent Loop BB38_44 Depth=1
                                        # =>  This Inner Loop Header: Depth=2
	movl	-8(%rbp), %eax
	cmpl	-12(%rbp), %eax
	jae	.LBB38_62
# %bb.58:                               # %for.body195
                                        #   in Loop: Header=BB38_57 Depth=2
	movl	-8(%rbp), %eax
	movl	-736(%rbp,%rax,4), %eax
	movl	-8(%rbp), %ecx
	cmpl	-224(%rbp,%rcx,4), %eax
	je	.LBB38_60
# %bb.59:                               # %if.then201
                                        #   in Loop: Header=BB38_44 Depth=1
	movl	$0, -32(%rbp)
	jmp	.LBB38_63
.LBB38_60:                              # %if.end202
                                        #   in Loop: Header=BB38_57 Depth=2
	jmp	.LBB38_61
.LBB38_61:                              # %for.inc203
                                        #   in Loop: Header=BB38_57 Depth=2
	movl	-8(%rbp), %eax
	addl	$1, %eax
	movl	%eax, -8(%rbp)
	jmp	.LBB38_57
.LBB38_62:                              # %for.end205.loopexit
                                        #   in Loop: Header=BB38_44 Depth=1
	jmp	.LBB38_63
.LBB38_63:                              # %for.end205
                                        #   in Loop: Header=BB38_44 Depth=1
	cmpl	$1, -32(%rbp)
	jne	.LBB38_65
# %bb.64:                               # %if.then207
	movl	-4(%rbp), %eax
	addl	$1, %eax
	movl	%eax, -4(%rbp)
	jmp	.LBB38_72
.LBB38_65:                              # %if.end209
                                        #   in Loop: Header=BB38_44 Depth=1
	movl	$0, -8(%rbp)
.LBB38_66:                              # %for.cond210
                                        #   Parent Loop BB38_44 Depth=1
                                        # =>  This Inner Loop Header: Depth=2
	movl	-8(%rbp), %eax
	cmpl	-12(%rbp), %eax
	jae	.LBB38_69
# %bb.67:                               # %for.body212
                                        #   in Loop: Header=BB38_66 Depth=2
	movl	-8(%rbp), %eax
	movl	-736(%rbp,%rax,4), %eax
	movl	-8(%rbp), %ecx
	movl	%eax, -608(%rbp,%rcx,4)
# %bb.68:                               # %for.inc217
                                        #   in Loop: Header=BB38_66 Depth=2
	movl	-8(%rbp), %eax
	addl	$1, %eax
	movl	%eax, -8(%rbp)
	jmp	.LBB38_66
.LBB38_69:                              # %for.end219
                                        #   in Loop: Header=BB38_44 Depth=1
	jmp	.LBB38_70
.LBB38_70:                              # %for.inc220
                                        #   in Loop: Header=BB38_44 Depth=1
	movl	-4(%rbp), %eax
	addl	$1, %eax
	movl	%eax, -4(%rbp)
	jmp	.LBB38_44
.LBB38_71:                              # %for.end222.loopexit
	jmp	.LBB38_72
.LBB38_72:                              # %for.end222
	movq	-64(%rbp), %rax
	movl	-4(%rbp), %ecx
	movl	$3, (%rax,%rcx,4)
	movl	$0, -8(%rbp)
.LBB38_73:                              # %for.cond225
                                        # =>This Inner Loop Header: Depth=1
	movl	-8(%rbp), %eax
	cmpl	-12(%rbp), %eax
	jae	.LBB38_76
# %bb.74:                               # %for.body227
                                        #   in Loop: Header=BB38_73 Depth=1
	movl	-8(%rbp), %eax
	movl	-736(%rbp,%rax,4), %eax
	movl	-8(%rbp), %ecx
	movl	%eax, -608(%rbp,%rcx,4)
# %bb.75:                               # %for.inc232
                                        #   in Loop: Header=BB38_73 Depth=1
	movl	-8(%rbp), %eax
	addl	$1, %eax
	movl	%eax, -8(%rbp)
	jmp	.LBB38_73
.LBB38_76:                              # %for.end234
	cmpl	$0, 16(%rbp)
	jne	.LBB38_78
# %bb.77:                               # %if.then236
	movq	img, %rax
	movq	14160(%rax), %rax
	movl	$1, 56(%rax)
	jmp	.LBB38_79
.LBB38_78:                              # %if.else237
	movq	img, %rax
	movq	14160(%rax), %rax
	movl	$1, 88(%rax)
.LBB38_79:                              # %if.end239
	jmp	.LBB38_80
.LBB38_80:                              # %if.end240
	cmpl	$592937046, -72(%rbp)   # imm = 0x23578056
	jne	.LBB38_82
.LBB38_81:
	addq	$736, %rsp              # imm = 0x2E0
	popq	%rbp
	.cfi_def_cfa %rsp, 8
	retq
.LBB38_82:                              # %func_exit
	.cfi_def_cfa %rbp, 16
	callq	detect_breach
	jmp	.LBB38_81
.Lfunc_end38:
	.size	poc_ref_pic_reorder.28, .Lfunc_end38-poc_ref_pic_reorder.28
	.cfi_endproc
                                        # -- End function
	.globl	terminate_slice.29      # -- Begin function terminate_slice.29
	.p2align	4, 0x90
	.type	terminate_slice.29,@function
terminate_slice.29:                     # @terminate_slice.29
	.cfi_startproc
# %bb.0:                                # %entry
	pushq	%rbp
	.cfi_def_cfa_offset 16
	.cfi_offset %rbp, -16
	movq	%rsp, %rbp
	.cfi_def_cfa_register %rbp
	subq	$48, %rsp
	movl	$1259587528, -36(%rbp)  # imm = 0x4B13C7C8
	movq	img, %rax
	movq	14160(%rax), %rax
	movq	%rax, -24(%rbp)
	movq	input, %rax
	cmpl	$1, 2356(%rax)
	jne	.LBB39_2
# %bb.1:                                # %if.then
	movl	$1, %edi
	callq	write_terminating_bit
.LBB39_2:                               # %if.end
	movl	$0, -12(%rbp)
.LBB39_3:                               # %for.cond
                                        # =>This Inner Loop Header: Depth=1
	movl	-12(%rbp), %eax
	movq	-24(%rbp), %rcx
	cmpl	16(%rcx), %eax
	jge	.LBB39_9
# %bb.4:                                # %for.body
                                        #   in Loop: Header=BB39_3 Depth=1
	movq	-24(%rbp), %rax
	movq	24(%rax), %rax
	movslq	-12(%rbp), %rcx
	imulq	$120, %rcx, %rcx
	addq	%rcx, %rax
	movq	(%rax), %rax
	movq	%rax, -8(%rbp)
	movq	input, %rax
	cmpl	$0, 2356(%rax)
	jne	.LBB39_6
# %bb.5:                                # %if.then4
                                        #   in Loop: Header=BB39_3 Depth=1
	movq	-8(%rbp), %rdi
	callq	SODBtoRBSP
	movq	-8(%rbp), %rax
	movl	(%rax), %eax
	movl	%eax, -16(%rbp)
	movq	-8(%rbp), %rax
	movq	32(%rax), %rdi
	movq	-8(%rbp), %rax
	movl	(%rax), %edx
	xorl	%esi, %esi
	xorl	%ecx, %ecx
	callq	RBSPtoEBSP
	movq	-8(%rbp), %rcx
	movl	%eax, (%rcx)
	movq	-8(%rbp), %rax
	movl	(%rax), %eax
	subl	-16(%rbp), %eax
	shll	$3, %eax
	movq	stats, %rcx
	movq	1480(%rcx), %rcx
	addl	(%rcx), %eax
	movl	%eax, (%rcx)
	jmp	.LBB39_7
.LBB39_6:                               # %if.else
                                        #   in Loop: Header=BB39_3 Depth=1
	movq	-24(%rbp), %rax
	movq	24(%rax), %rax
	movslq	-12(%rbp), %rcx
	imulq	$120, %rcx, %rcx
	addq	%rcx, %rax
	addq	$8, %rax
	movq	%rax, -32(%rbp)
	movq	-32(%rbp), %rdi
	callq	arienco_done_encoding
	movq	-32(%rbp), %rax
	movl	12(%rax), %eax
	movq	-8(%rbp), %rcx
	movl	%eax, 4(%rcx)
	movq	-8(%rbp), %rax
	movb	$0, 8(%rax)
	movq	-8(%rbp), %rax
	movl	(%rax), %eax
	movl	%eax, -40(%rbp)
	movq	-8(%rbp), %rax
	movl	(%rax), %eax
	movl	%eax, -16(%rbp)
	movq	-8(%rbp), %rax
	movq	32(%rax), %rdi
	movq	-8(%rbp), %rax
	movl	(%rax), %edx
	movq	-32(%rbp), %rax
	movl	88(%rax), %ecx
	xorl	%esi, %esi
	callq	RBSPtoEBSP
	movq	-8(%rbp), %rcx
	movl	%eax, (%rcx)
	movq	-8(%rbp), %rax
	movl	(%rax), %eax
	subl	-16(%rbp), %eax
	shll	$3, %eax
	movq	stats, %rcx
	movq	1480(%rcx), %rcx
	addl	(%rcx), %eax
	movl	%eax, (%rcx)
.LBB39_7:                               # %if.end22
                                        #   in Loop: Header=BB39_3 Depth=1
	jmp	.LBB39_8
.LBB39_8:                               # %for.inc
                                        #   in Loop: Header=BB39_3 Depth=1
	movl	-12(%rbp), %eax
	addl	$1, %eax
	movl	%eax, -12(%rbp)
	jmp	.LBB39_3
.LBB39_9:                               # %for.end
	movq	input, %rax
	cmpl	$1, 2356(%rax)
	jne	.LBB39_11
# %bb.10:                               # %if.then25
	movb	$0, %al
	callq	store_contexts
.LBB39_11:                              # %if.end26
	cmpl	$1259587528, -36(%rbp)  # imm = 0x4B13C7C8
	jne	.LBB39_13
.LBB39_12:
	xorl	%eax, %eax
	addq	$48, %rsp
	popq	%rbp
	.cfi_def_cfa %rsp, 8
	retq
.LBB39_13:                              # %func_exit
	.cfi_def_cfa %rbp, 16
	callq	detect_breach
	jmp	.LBB39_12
.Lfunc_end39:
	.size	terminate_slice.29, .Lfunc_end39-terminate_slice.29
	.cfi_endproc
                                        # -- End function
	.globl	start_slice.30          # -- Begin function start_slice.30
	.p2align	4, 0x90
	.type	start_slice.30,@function
start_slice.30:                         # @start_slice.30
	.cfi_startproc
# %bb.0:                                # %entry
	pushq	%rbp
	.cfi_def_cfa_offset 16
	.cfi_offset %rbp, -16
	movq	%rsp, %rbp
	.cfi_def_cfa_register %rbp
	pushq	%rbx
	subq	$40, %rsp
	.cfi_offset %rbx, -24
	movl	$1437408020, -32(%rbp)  # imm = 0x55AD1B14
	movq	img, %rax
	movq	14160(%rax), %rax
	movq	%rax, -40(%rbp)
	movl	$0, -12(%rbp)
	movq	input, %rax
	movl	2364(%rax), %eax
	cmpl	$0, %eax
	movl	$1, %eax
	movl	$3, %ecx
	cmovel	%eax, %ecx
	movl	%ecx, -28(%rbp)
	movq	img, %rax
	movq	14152(%rax), %rax
	cmpl	$0, 4(%rax)
	je	.LBB40_2
# %bb.1:                                # %if.then
	movl	$1, -28(%rbp)
.LBB40_2:                               # %if.end
	movq	img, %rax
	movl	71792(%rax), %edi
	callq	RTPUpdateTimestamp
	movl	$0, -16(%rbp)
.LBB40_3:                               # %for.cond
                                        # =>This Inner Loop Header: Depth=1
	movl	-16(%rbp), %eax
	cmpl	-28(%rbp), %eax
	jge	.LBB40_14
# %bb.4:                                # %for.body
                                        #   in Loop: Header=BB40_3 Depth=1
	movq	-40(%rbp), %rax
	movq	24(%rax), %rax
	movslq	-16(%rbp), %rcx
	imulq	$120, %rcx, %rcx
	addq	%rcx, %rax
	movq	(%rax), %rax
	movq	%rax, -24(%rbp)
	movq	-24(%rbp), %rax
	movl	$0, 40(%rax)
	cmpl	$0, -16(%rbp)
	jne	.LBB40_6
# %bb.5:                                # %if.then3
                                        #   in Loop: Header=BB40_3 Depth=1
	xorl	%edi, %edi
	movb	$0, %al
	callq	SliceHeader
	addl	-12(%rbp), %eax
	movl	%eax, -12(%rbp)
	jmp	.LBB40_7
.LBB40_6:                               # %if.else
                                        #   in Loop: Header=BB40_3 Depth=1
	movl	-16(%rbp), %edi
	movb	$0, %al
	callq	Partition_BC_Header
	addl	-12(%rbp), %eax
	movl	%eax, -12(%rbp)
.LBB40_7:                               # %if.end6
                                        #   in Loop: Header=BB40_3 Depth=1
	movq	input, %rax
	cmpl	$1, 2356(%rax)
	jne	.LBB40_11
# %bb.8:                                # %if.then8
                                        #   in Loop: Header=BB40_3 Depth=1
	movq	-40(%rbp), %rax
	movq	24(%rax), %rax
	movslq	-16(%rbp), %rcx
	imulq	$120, %rcx, %rcx
	addq	%rcx, %rax
	addq	$8, %rax
	movq	%rax, -48(%rbp)
	movq	-24(%rbp), %rax
	cmpl	$8, 4(%rax)
	je	.LBB40_10
# %bb.9:                                # %if.then13
                                        #   in Loop: Header=BB40_3 Depth=1
	movq	-24(%rbp), %rax
	movl	4(%rax), %eax
	addl	-12(%rbp), %eax
	movl	%eax, -12(%rbp)
.LBB40_10:                              # %if.end16
                                        #   in Loop: Header=BB40_3 Depth=1
	movq	-24(%rbp), %rdi
	callq	writeVlcByteAlign
	movq	-48(%rbp), %rdi
	movq	-24(%rbp), %rax
	movq	32(%rax), %rsi
	movq	-24(%rbp), %rdx
	movq	img, %rax
	movl	24(%rax), %ecx
	callq	arienco_start_encoding
	movb	$0, %al
	callq	cabac_new_slice
	jmp	.LBB40_12
.LBB40_11:                              # %if.else17
                                        #   in Loop: Header=BB40_3 Depth=1
	movb	$0, %al
	callq	CAVLC_init
.LBB40_12:                              # %if.end18
                                        #   in Loop: Header=BB40_3 Depth=1
	jmp	.LBB40_13
.LBB40_13:                              # %for.inc
                                        #   in Loop: Header=BB40_3 Depth=1
	movl	-16(%rbp), %eax
	addl	$1, %eax
	movl	%eax, -16(%rbp)
	jmp	.LBB40_3
.LBB40_14:                              # %for.end
	movq	input, %rax
	cmpl	$1, 2356(%rax)
	jne	.LBB40_16
# %bb.15:                               # %if.then21
	movb	$0, %al
	callq	init_contexts
.LBB40_16:                              # %if.end22
	movl	-12(%rbp), %ebx
	cmpl	$1437408020, -32(%rbp)  # imm = 0x55AD1B14
	jne	.LBB40_18
.LBB40_17:
	movl	%ebx, %eax
	addq	$40, %rsp
	popq	%rbx
	popq	%rbp
	.cfi_def_cfa %rsp, 8
	retq
.LBB40_18:                              # %func_exit
	.cfi_def_cfa %rbp, 16
	callq	detect_breach
	jmp	.LBB40_17
.Lfunc_end40:
	.size	start_slice.30, .Lfunc_end40-start_slice.30
	.cfi_endproc
                                        # -- End function
	.globl	poc_ref_pic_reorder.31  # -- Begin function poc_ref_pic_reorder.31
	.p2align	4, 0x90
	.type	poc_ref_pic_reorder.31,@function
poc_ref_pic_reorder.31:                 # @poc_ref_pic_reorder.31
	.cfi_startproc
# %bb.0:                                # %entry
	pushq	%rbp
	.cfi_def_cfa_offset 16
	.cfi_offset %rbp, -16
	movq	%rsp, %rbp
	.cfi_def_cfa_register %rbp
	subq	$736, %rsp              # imm = 0x2E0
	movl	16(%rbp), %eax
	movl	$532322789, -72(%rbp)   # imm = 0x1FBA99E5
	movq	%rdi, -80(%rbp)
	movl	%esi, -12(%rbp)
	movq	%rdx, -64(%rbp)
	movq	%rcx, -56(%rbp)
	movq	%r8, -96(%rbp)
	movl	%r9d, -84(%rbp)
	movl	log2_max_frame_num_minus4, %ecx
	addl	$4, %ecx
                                        # kill: def $cl killed $ecx
	movl	$1, %eax
	shll	%cl, %eax
	movl	%eax, -44(%rbp)
	movq	img, %rax
	cmpl	$0, 28(%rax)
	jne	.LBB41_2
# %bb.1:                                # %if.then
	movl	-44(%rbp), %eax
	movl	%eax, -48(%rbp)
	movq	img, %rax
	movl	72464(%rax), %eax
	movl	%eax, -32(%rbp)
	jmp	.LBB41_3
.LBB41_2:                               # %if.else
	movl	-44(%rbp), %eax
	shll	$1, %eax
	movl	%eax, -48(%rbp)
	movq	img, %rax
	movl	72464(%rax), %eax
	shll	$1, %eax
	addl	$1, %eax
	movl	%eax, -32(%rbp)
.LBB41_3:                               # %if.end
	movl	-32(%rbp), %eax
	movl	%eax, -40(%rbp)
	movl	$0, -4(%rbp)
.LBB41_4:                               # %for.cond
                                        # =>This Inner Loop Header: Depth=1
	movl	-4(%rbp), %eax
	cmpl	-12(%rbp), %eax
	jae	.LBB41_7
# %bb.5:                                # %for.body
                                        #   in Loop: Header=BB41_4 Depth=1
	movq	-80(%rbp), %rax
	movl	-4(%rbp), %ecx
	movq	(%rax,%rcx,8), %rax
	movl	6364(%rax), %eax
	movl	-4(%rbp), %ecx
	movl	%eax, -608(%rbp,%rcx,4)
# %bb.6:                                # %for.inc
                                        #   in Loop: Header=BB41_4 Depth=1
	movl	-4(%rbp), %eax
	addl	$1, %eax
	movl	%eax, -4(%rbp)
	jmp	.LBB41_4
.LBB41_7:                               # %for.end
	movl	$0, -4(%rbp)
.LBB41_8:                               # %for.cond7
                                        # =>This Inner Loop Header: Depth=1
	movl	-4(%rbp), %eax
	cmpl	dpb+32, %eax
	jae	.LBB41_24
# %bb.9:                                # %for.body9
                                        #   in Loop: Header=BB41_8 Depth=1
	movq	dpb+8, %rax
	movl	-4(%rbp), %ecx
	movq	(%rax,%rcx,8), %rax
	movq	40(%rax), %rax
	movl	6364(%rax), %eax
	movl	-4(%rbp), %ecx
	movl	%eax, -224(%rbp,%rcx,4)
	movq	dpb+8, %rax
	movl	-4(%rbp), %ecx
	movq	(%rax,%rcx,8), %rax
	cmpl	$3, (%rax)
	jne	.LBB41_22
# %bb.10:                               # %land.lhs.true
                                        #   in Loop: Header=BB41_8 Depth=1
	movq	dpb+8, %rax
	movl	-4(%rbp), %ecx
	movq	(%rax,%rcx,8), %rax
	movq	40(%rax), %rax
	cmpl	$0, 6380(%rax)
	je	.LBB41_22
# %bb.11:                               # %land.lhs.true21
                                        #   in Loop: Header=BB41_8 Depth=1
	movq	dpb+8, %rax
	movl	-4(%rbp), %ecx
	movq	(%rax,%rcx,8), %rax
	movq	40(%rax), %rax
	cmpl	$0, 6376(%rax)
	jne	.LBB41_22
# %bb.12:                               # %if.then26
                                        #   in Loop: Header=BB41_8 Depth=1
	movq	dpb+8, %rax
	movl	-4(%rbp), %ecx
	movq	(%rax,%rcx,8), %rax
	movq	40(%rax), %rax
	movl	4(%rax), %edi
	movq	enc_picture, %rax
	subl	4(%rax), %edi
	callq	abs
	movl	%eax, -68(%rbp)
	movl	-68(%rbp), %eax
	movl	-4(%rbp), %ecx
	movl	%eax, -480(%rbp,%rcx,4)
	cmpl	$0, 16(%rbp)
	jne	.LBB41_17
# %bb.13:                               # %if.then34
                                        #   in Loop: Header=BB41_8 Depth=1
	movq	enc_picture, %rax
	movl	4(%rax), %eax
	movq	dpb+8, %rcx
	movl	-4(%rbp), %edx
	movq	(%rcx,%rdx,8), %rcx
	movq	40(%rcx), %rcx
	cmpl	4(%rcx), %eax
	jge	.LBB41_15
# %bb.14:                               # %if.then41
                                        #   in Loop: Header=BB41_8 Depth=1
	movl	-4(%rbp), %eax
	movl	$1, -352(%rbp,%rax,4)
	jmp	.LBB41_16
.LBB41_15:                              # %if.else44
                                        #   in Loop: Header=BB41_8 Depth=1
	movl	-4(%rbp), %eax
	movl	$-1, -352(%rbp,%rax,4)
.LBB41_16:                              # %if.end47
                                        #   in Loop: Header=BB41_8 Depth=1
	jmp	.LBB41_21
.LBB41_17:                              # %if.else48
                                        #   in Loop: Header=BB41_8 Depth=1
	movq	enc_picture, %rax
	movl	4(%rax), %eax
	movq	dpb+8, %rcx
	movl	-4(%rbp), %edx
	movq	(%rcx,%rdx,8), %rcx
	movq	40(%rcx), %rcx
	cmpl	4(%rcx), %eax
	jle	.LBB41_19
# %bb.18:                               # %if.then55
                                        #   in Loop: Header=BB41_8 Depth=1
	movl	-4(%rbp), %eax
	movl	$1, -352(%rbp,%rax,4)
	jmp	.LBB41_20
.LBB41_19:                              # %if.else58
                                        #   in Loop: Header=BB41_8 Depth=1
	movl	-4(%rbp), %eax
	movl	$-1, -352(%rbp,%rax,4)
.LBB41_20:                              # %if.end61
                                        #   in Loop: Header=BB41_8 Depth=1
	jmp	.LBB41_21
.LBB41_21:                              # %if.end62
                                        #   in Loop: Header=BB41_8 Depth=1
	jmp	.LBB41_22
.LBB41_22:                              # %if.end63
                                        #   in Loop: Header=BB41_8 Depth=1
	jmp	.LBB41_23
.LBB41_23:                              # %for.inc64
                                        #   in Loop: Header=BB41_8 Depth=1
	movl	-4(%rbp), %eax
	addl	$1, %eax
	movl	%eax, -4(%rbp)
	jmp	.LBB41_8
.LBB41_24:                              # %for.end66
	movl	$0, -4(%rbp)
.LBB41_25:                              # %for.cond67
                                        # =>This Loop Header: Depth=1
                                        #     Child Loop BB41_27 Depth 2
	movl	-4(%rbp), %eax
	movl	dpb+32, %ecx
	subl	$1, %ecx
	cmpl	%ecx, %eax
	jae	.LBB41_36
# %bb.26:                               # %for.body70
                                        #   in Loop: Header=BB41_25 Depth=1
	movl	-4(%rbp), %eax
	addl	$1, %eax
	movl	%eax, -8(%rbp)
.LBB41_27:                              # %for.cond72
                                        #   Parent Loop BB41_25 Depth=1
                                        # =>  This Inner Loop Header: Depth=2
	movl	-8(%rbp), %eax
	cmpl	dpb+32, %eax
	jae	.LBB41_34
# %bb.28:                               # %for.body74
                                        #   in Loop: Header=BB41_27 Depth=2
	movl	-4(%rbp), %eax
	movl	-480(%rbp,%rax,4), %eax
	movl	-8(%rbp), %ecx
	cmpl	-480(%rbp,%rcx,4), %eax
	jg	.LBB41_31
# %bb.29:                               # %lor.lhs.false
                                        #   in Loop: Header=BB41_27 Depth=2
	movl	-4(%rbp), %eax
	movl	-480(%rbp,%rax,4), %eax
	movl	-8(%rbp), %ecx
	cmpl	-480(%rbp,%rcx,4), %eax
	jne	.LBB41_32
# %bb.30:                               # %land.lhs.true85
                                        #   in Loop: Header=BB41_27 Depth=2
	movl	-8(%rbp), %eax
	movl	-352(%rbp,%rax,4), %eax
	movl	-4(%rbp), %ecx
	cmpl	-352(%rbp,%rcx,4), %eax
	jle	.LBB41_32
.LBB41_31:                              # %if.then91
                                        #   in Loop: Header=BB41_27 Depth=2
	movl	-4(%rbp), %eax
	movl	-480(%rbp,%rax,4), %eax
	movl	%eax, -16(%rbp)
	movl	-8(%rbp), %eax
	movl	-480(%rbp,%rax,4), %eax
	movl	-4(%rbp), %ecx
	movl	%eax, -480(%rbp,%rcx,4)
	movl	-16(%rbp), %eax
	movl	-8(%rbp), %ecx
	movl	%eax, -480(%rbp,%rcx,4)
	movl	-4(%rbp), %eax
	movl	-224(%rbp,%rax,4), %eax
	movl	%eax, -16(%rbp)
	movl	-8(%rbp), %eax
	movl	-224(%rbp,%rax,4), %eax
	movl	-4(%rbp), %ecx
	movl	%eax, -224(%rbp,%rcx,4)
	movl	-16(%rbp), %eax
	movl	-8(%rbp), %ecx
	movl	%eax, -224(%rbp,%rcx,4)
	movl	-4(%rbp), %eax
	movl	-352(%rbp,%rax,4), %eax
	movl	%eax, -16(%rbp)
	movl	-8(%rbp), %eax
	movl	-352(%rbp,%rax,4), %eax
	movl	-4(%rbp), %ecx
	movl	%eax, -352(%rbp,%rcx,4)
	movl	-16(%rbp), %eax
	movl	-8(%rbp), %ecx
	movl	%eax, -352(%rbp,%rcx,4)
.LBB41_32:                              # %if.end116
                                        #   in Loop: Header=BB41_27 Depth=2
	jmp	.LBB41_33
.LBB41_33:                              # %for.inc117
                                        #   in Loop: Header=BB41_27 Depth=2
	movl	-8(%rbp), %eax
	addl	$1, %eax
	movl	%eax, -8(%rbp)
	jmp	.LBB41_27
.LBB41_34:                              # %for.end119
                                        #   in Loop: Header=BB41_25 Depth=1
	jmp	.LBB41_35
.LBB41_35:                              # %for.inc120
                                        #   in Loop: Header=BB41_25 Depth=1
	movl	-4(%rbp), %eax
	addl	$1, %eax
	movl	%eax, -4(%rbp)
	jmp	.LBB41_25
.LBB41_36:                              # %for.end122
	movl	$1, -36(%rbp)
	movl	$0, -4(%rbp)
.LBB41_37:                              # %for.cond123
                                        # =>This Inner Loop Header: Depth=1
	movl	-4(%rbp), %eax
	cmpl	-12(%rbp), %eax
	jae	.LBB41_42
# %bb.38:                               # %for.body125
                                        #   in Loop: Header=BB41_37 Depth=1
	movl	-4(%rbp), %eax
	movl	-608(%rbp,%rax,4), %eax
	movl	-4(%rbp), %ecx
	cmpl	-224(%rbp,%rcx,4), %eax
	je	.LBB41_40
# %bb.39:                               # %if.then131
                                        #   in Loop: Header=BB41_37 Depth=1
	movl	$0, -36(%rbp)
.LBB41_40:                              # %if.end132
                                        #   in Loop: Header=BB41_37 Depth=1
	jmp	.LBB41_41
.LBB41_41:                              # %for.inc133
                                        #   in Loop: Header=BB41_37 Depth=1
	movl	-4(%rbp), %eax
	addl	$1, %eax
	movl	%eax, -4(%rbp)
	jmp	.LBB41_37
.LBB41_42:                              # %for.end135
	cmpl	$0, -36(%rbp)
	jne	.LBB41_80
# %bb.43:                               # %if.then137
	movl	$0, -4(%rbp)
.LBB41_44:                              # %for.cond138
                                        # =>This Loop Header: Depth=1
                                        #     Child Loop BB41_51 Depth 2
                                        #     Child Loop BB41_57 Depth 2
                                        #     Child Loop BB41_66 Depth 2
	movl	-4(%rbp), %eax
	cmpl	-12(%rbp), %eax
	jae	.LBB41_71
# %bb.45:                               # %for.body140
