	.text
	.file	"transform8x8.c"
	.globl	Mode_Decision_for_new_Intra8x8Macroblock # -- Begin function Mode_Decision_for_new_Intra8x8Macroblock
	.p2align	4, 0x90
	.type	Mode_Decision_for_new_Intra8x8Macroblock,@function
Mode_Decision_for_new_Intra8x8Macroblock: # @Mode_Decision_for_new_Intra8x8Macroblock
	.cfi_startproc
# %bb.0:                                # %rand_bb
	pushq	%rbp
	.cfi_def_cfa_offset 16
	.cfi_offset %rbp, -16
	movq	%rsp, %rbp
	.cfi_def_cfa_register %rbp
	pushq	%rbx
	pushq	%rax
	.cfi_offset %rbx, -24
	movq	%rdi, %rbx
	vmovsd	%xmm0, -16(%rbp)        # 8-byte Spill
	callq	get_rand
	cmpl	$0, %eax
	jne	.LBB0_9
# %bb.1:                                # %func_Mode_Decision_for_new_Intra8x8Macroblock.1
	vmovsd	-16(%rbp), %xmm0        # 8-byte Reload
                                        # xmm0 = mem[0],zero
	movq	%rbx, %rdi
	callq	Mode_Decision_for_new_Intra8x8Macroblock.1
	addq	$8, %rsp
	popq	%rbx
	popq	%rbp
	.cfi_def_cfa %rsp, 8
	retq
.LBB0_2:                                # %func_Mode_Decision_for_new_Intra8x8Macroblock.11
	.cfi_def_cfa %rbp, 16
	movq	%rbx, %rdi
	callq	Mode_Decision_for_new_Intra8x8Macroblock.11
	addq	$8, %rsp
	popq	%rbx
	popq	%rbp
	.cfi_def_cfa %rsp, 8
	retq
.LBB0_3:                                # %func_Mode_Decision_for_new_Intra8x8Macroblock.13
	.cfi_def_cfa %rbp, 16
	movq	%rbx, %rdi
	callq	Mode_Decision_for_new_Intra8x8Macroblock.13
	addq	$8, %rsp
	popq	%rbx
	popq	%rbp
	.cfi_def_cfa %rsp, 8
	retq
.LBB0_4:                                # %func_Mode_Decision_for_new_Intra8x8Macroblock.14
	.cfi_def_cfa %rbp, 16
	movq	%rbx, %rdi
	callq	Mode_Decision_for_new_Intra8x8Macroblock.14
	addq	$8, %rsp
	popq	%rbx
	popq	%rbp
	.cfi_def_cfa %rsp, 8
	retq
.LBB0_5:                                # %func_Mode_Decision_for_new_Intra8x8Macroblock.32
	.cfi_def_cfa %rbp, 16
	movq	%rbx, %rdi
	callq	Mode_Decision_for_new_Intra8x8Macroblock.32
	addq	$8, %rsp
	popq	%rbx
	popq	%rbp
	.cfi_def_cfa %rsp, 8
	retq
.LBB0_6:                                # %func_Mode_Decision_for_new_Intra8x8Macroblock.33
	.cfi_def_cfa %rbp, 16
	movq	%rbx, %rdi
	callq	Mode_Decision_for_new_Intra8x8Macroblock.33
	addq	$8, %rsp
	popq	%rbx
	popq	%rbp
	.cfi_def_cfa %rsp, 8
	retq
.LBB0_7:                                # %func_Mode_Decision_for_new_Intra8x8Macroblock.36
	.cfi_def_cfa %rbp, 16
	movq	%rbx, %rdi
	callq	Mode_Decision_for_new_Intra8x8Macroblock.36
	addq	$8, %rsp
	popq	%rbx
	popq	%rbp
	.cfi_def_cfa %rsp, 8
	retq
.LBB0_8:                                # %func_Mode_Decision_for_new_Intra8x8Macroblock.40
	.cfi_def_cfa %rbp, 16
	movq	%rbx, %rdi
	callq	Mode_Decision_for_new_Intra8x8Macroblock.40
	addq	$8, %rsp
	popq	%rbx
	popq	%rbp
	.cfi_def_cfa %rsp, 8
	retq
.LBB0_9:                                # %ctrl0
	.cfi_def_cfa %rbp, 16
	vmovsd	-16(%rbp), %xmm0        # 8-byte Reload
                                        # xmm0 = mem[0],zero
	cmpl	$1, %eax
	je	.LBB0_2
# %bb.10:                               # %ctrl1
	cmpl	$2, %eax
	je	.LBB0_3
# %bb.11:                               # %ctrl2
	cmpl	$3, %eax
	je	.LBB0_4
# %bb.12:                               # %ctrl3
	cmpl	$4, %eax
	je	.LBB0_5
# %bb.13:                               # %ctrl4
	cmpl	$5, %eax
	je	.LBB0_6
# %bb.14:                               # %ctrl5
	cmpl	$6, %eax
	je	.LBB0_7
	jmp	.LBB0_8
.Lfunc_end0:
	.size	Mode_Decision_for_new_Intra8x8Macroblock, .Lfunc_end0-Mode_Decision_for_new_Intra8x8Macroblock
	.cfi_endproc
                                        # -- End function
	.globl	Mode_Decision_for_new_8x8IntraBlocks # -- Begin function Mode_Decision_for_new_8x8IntraBlocks
	.p2align	4, 0x90
	.type	Mode_Decision_for_new_8x8IntraBlocks,@function
Mode_Decision_for_new_8x8IntraBlocks:   # @Mode_Decision_for_new_8x8IntraBlocks
	.cfi_startproc
# %bb.0:                                # %rand_bb
	pushq	%rbp
	.cfi_def_cfa_offset 16
	.cfi_offset %rbp, -16
	movq	%rsp, %rbp
	.cfi_def_cfa_register %rbp
	pushq	%r14
	pushq	%rbx
	subq	$16, %rsp
	.cfi_offset %rbx, -32
	.cfi_offset %r14, -24
	movq	%rsi, %r14
	vmovsd	%xmm0, -24(%rbp)        # 8-byte Spill
	movl	%edi, %ebx
	callq	get_rand
	cmpl	$0, %eax
	jne	.LBB1_9
# %bb.1:                                # %func_Mode_Decision_for_new_8x8IntraBlocks.16
	movl	%ebx, %edi
	vmovsd	-24(%rbp), %xmm0        # 8-byte Reload
                                        # xmm0 = mem[0],zero
	movq	%r14, %rsi
	callq	Mode_Decision_for_new_8x8IntraBlocks.16
	addq	$16, %rsp
	popq	%rbx
	popq	%r14
	popq	%rbp
	.cfi_def_cfa %rsp, 8
	retq
.LBB1_2:                                # %func_Mode_Decision_for_new_8x8IntraBlocks.17
	.cfi_def_cfa %rbp, 16
	movl	%ebx, %edi
	movq	%r14, %rsi
	callq	Mode_Decision_for_new_8x8IntraBlocks.17
	addq	$16, %rsp
	popq	%rbx
	popq	%r14
	popq	%rbp
	.cfi_def_cfa %rsp, 8
	retq
.LBB1_3:                                # %func_Mode_Decision_for_new_8x8IntraBlocks.34
	.cfi_def_cfa %rbp, 16
	movl	%ebx, %edi
	movq	%r14, %rsi
	callq	Mode_Decision_for_new_8x8IntraBlocks.34
	addq	$16, %rsp
	popq	%rbx
	popq	%r14
	popq	%rbp
	.cfi_def_cfa %rsp, 8
	retq
.LBB1_4:                                # %func_Mode_Decision_for_new_8x8IntraBlocks.42
	.cfi_def_cfa %rbp, 16
	movl	%ebx, %edi
	movq	%r14, %rsi
	callq	Mode_Decision_for_new_8x8IntraBlocks.42
	addq	$16, %rsp
	popq	%rbx
	popq	%r14
	popq	%rbp
	.cfi_def_cfa %rsp, 8
	retq
.LBB1_5:                                # %func_Mode_Decision_for_new_8x8IntraBlocks.43
	.cfi_def_cfa %rbp, 16
	movl	%ebx, %edi
	movq	%r14, %rsi
	callq	Mode_Decision_for_new_8x8IntraBlocks.43
	addq	$16, %rsp
	popq	%rbx
	popq	%r14
	popq	%rbp
	.cfi_def_cfa %rsp, 8
	retq
.LBB1_6:                                # %func_Mode_Decision_for_new_8x8IntraBlocks.44
	.cfi_def_cfa %rbp, 16
	movl	%ebx, %edi
	movq	%r14, %rsi
	callq	Mode_Decision_for_new_8x8IntraBlocks.44
	addq	$16, %rsp
	popq	%rbx
	popq	%r14
	popq	%rbp
	.cfi_def_cfa %rsp, 8
	retq
.LBB1_7:                                # %func_Mode_Decision_for_new_8x8IntraBlocks.45
	.cfi_def_cfa %rbp, 16
	movl	%ebx, %edi
	movq	%r14, %rsi
	callq	Mode_Decision_for_new_8x8IntraBlocks.45
	addq	$16, %rsp
	popq	%rbx
	popq	%r14
	popq	%rbp
	.cfi_def_cfa %rsp, 8
	retq
.LBB1_8:                                # %func_Mode_Decision_for_new_8x8IntraBlocks.46
	.cfi_def_cfa %rbp, 16
	movl	%ebx, %edi
	movq	%r14, %rsi
	callq	Mode_Decision_for_new_8x8IntraBlocks.46
	addq	$16, %rsp
	popq	%rbx
	popq	%r14
	popq	%rbp
	.cfi_def_cfa %rsp, 8
	retq
.LBB1_9:                                # %ctrl0
	.cfi_def_cfa %rbp, 16
	vmovsd	-24(%rbp), %xmm0        # 8-byte Reload
                                        # xmm0 = mem[0],zero
	cmpl	$1, %eax
	je	.LBB1_2
# %bb.10:                               # %ctrl1
	cmpl	$2, %eax
	je	.LBB1_3
# %bb.11:                               # %ctrl2
	cmpl	$3, %eax
	je	.LBB1_4
# %bb.12:                               # %ctrl3
	cmpl	$4, %eax
	je	.LBB1_5
# %bb.13:                               # %ctrl4
	cmpl	$5, %eax
	je	.LBB1_6
# %bb.14:                               # %ctrl5
	cmpl	$6, %eax
	je	.LBB1_7
	jmp	.LBB1_8
.Lfunc_end1:
	.size	Mode_Decision_for_new_8x8IntraBlocks, .Lfunc_end1-Mode_Decision_for_new_8x8IntraBlocks
	.cfi_endproc
                                        # -- End function
	.globl	intrapred_luma8x8       # -- Begin function intrapred_luma8x8
	.p2align	4, 0x90
	.type	intrapred_luma8x8,@function
intrapred_luma8x8:                      # @intrapred_luma8x8
	.cfi_startproc
# %bb.0:                                # %rand_bb
	pushq	%rbp
	.cfi_def_cfa_offset 16
	.cfi_offset %rbp, -16
	movq	%rsp, %rbp
	.cfi_def_cfa_register %rbp
	pushq	%r15
	pushq	%r14
	pushq	%r13
	pushq	%r12
	pushq	%rbx
	pushq	%rax
	.cfi_offset %rbx, -56
	.cfi_offset %r12, -48
	.cfi_offset %r13, -40
	.cfi_offset %r14, -32
	.cfi_offset %r15, -24
	movq	%r8, %r14
	movq	%rcx, %r15
	movq	%rdx, %r12
	movl	%esi, %r13d
	movl	%edi, %ebx
	callq	get_rand
	cmpl	$0, %eax
	jne	.LBB2_9
# %bb.1:                                # %func_intrapred_luma8x8.9
	movl	%ebx, %edi
	movl	%r13d, %esi
	movq	%r12, %rdx
	movq	%r15, %rcx
	movq	%r14, %r8
	callq	intrapred_luma8x8.9
	addq	$8, %rsp
	popq	%rbx
	popq	%r12
	popq	%r13
	popq	%r14
	popq	%r15
	popq	%rbp
	.cfi_def_cfa %rsp, 8
	retq
.LBB2_2:                                # %func_intrapred_luma8x8.10
	.cfi_def_cfa %rbp, 16
	movl	%ebx, %edi
	movl	%r13d, %esi
	movq	%r12, %rdx
	movq	%r15, %rcx
	movq	%r14, %r8
	callq	intrapred_luma8x8.10
	addq	$8, %rsp
	popq	%rbx
	popq	%r12
	popq	%r13
	popq	%r14
	popq	%r15
	popq	%rbp
	.cfi_def_cfa %rsp, 8
	retq
.LBB2_3:                                # %func_intrapred_luma8x8.12
	.cfi_def_cfa %rbp, 16
	movl	%ebx, %edi
	movl	%r13d, %esi
	movq	%r12, %rdx
	movq	%r15, %rcx
	movq	%r14, %r8
	callq	intrapred_luma8x8.12
	addq	$8, %rsp
	popq	%rbx
	popq	%r12
	popq	%r13
	popq	%r14
	popq	%r15
	popq	%rbp
	.cfi_def_cfa %rsp, 8
	retq
.LBB2_4:                                # %func_intrapred_luma8x8.22
	.cfi_def_cfa %rbp, 16
	movl	%ebx, %edi
	movl	%r13d, %esi
	movq	%r12, %rdx
	movq	%r15, %rcx
	movq	%r14, %r8
	callq	intrapred_luma8x8.22
	addq	$8, %rsp
	popq	%rbx
	popq	%r12
	popq	%r13
	popq	%r14
	popq	%r15
	popq	%rbp
	.cfi_def_cfa %rsp, 8
	retq
.LBB2_5:                                # %func_intrapred_luma8x8.39
	.cfi_def_cfa %rbp, 16
	movl	%ebx, %edi
	movl	%r13d, %esi
	movq	%r12, %rdx
	movq	%r15, %rcx
	movq	%r14, %r8
	callq	intrapred_luma8x8.39
	addq	$8, %rsp
	popq	%rbx
	popq	%r12
	popq	%r13
	popq	%r14
	popq	%r15
	popq	%rbp
	.cfi_def_cfa %rsp, 8
	retq
.LBB2_6:                                # %func_intrapred_luma8x8.41
	.cfi_def_cfa %rbp, 16
	movl	%ebx, %edi
	movl	%r13d, %esi
	movq	%r12, %rdx
	movq	%r15, %rcx
	movq	%r14, %r8
	callq	intrapred_luma8x8.41
	addq	$8, %rsp
	popq	%rbx
	popq	%r12
	popq	%r13
	popq	%r14
	popq	%r15
	popq	%rbp
	.cfi_def_cfa %rsp, 8
	retq
.LBB2_7:                                # %func_intrapred_luma8x8.47
	.cfi_def_cfa %rbp, 16
	movl	%ebx, %edi
	movl	%r13d, %esi
	movq	%r12, %rdx
	movq	%r15, %rcx
	movq	%r14, %r8
	callq	intrapred_luma8x8.47
	addq	$8, %rsp
	popq	%rbx
	popq	%r12
	popq	%r13
	popq	%r14
	popq	%r15
	popq	%rbp
	.cfi_def_cfa %rsp, 8
	retq
.LBB2_8:                                # %func_intrapred_luma8x8.48
	.cfi_def_cfa %rbp, 16
	movl	%ebx, %edi
	movl	%r13d, %esi
	movq	%r12, %rdx
	movq	%r15, %rcx
	movq	%r14, %r8
	callq	intrapred_luma8x8.48
	addq	$8, %rsp
	popq	%rbx
	popq	%r12
	popq	%r13
	popq	%r14
	popq	%r15
	popq	%rbp
	.cfi_def_cfa %rsp, 8
	retq
.LBB2_9:                                # %ctrl0
	.cfi_def_cfa %rbp, 16
	cmpl	$1, %eax
	je	.LBB2_2
# %bb.10:                               # %ctrl1
	cmpl	$2, %eax
	je	.LBB2_3
# %bb.11:                               # %ctrl2
	cmpl	$3, %eax
	je	.LBB2_4
# %bb.12:                               # %ctrl3
	cmpl	$4, %eax
	je	.LBB2_5
# %bb.13:                               # %ctrl4
	cmpl	$5, %eax
	je	.LBB2_6
# %bb.14:                               # %ctrl5
	cmpl	$6, %eax
	je	.LBB2_7
	jmp	.LBB2_8
.Lfunc_end2:
	.size	intrapred_luma8x8, .Lfunc_end2-intrapred_luma8x8
	.cfi_endproc
                                        # -- End function
	.globl	RDCost_for_8x8IntraBlocks # -- Begin function RDCost_for_8x8IntraBlocks
	.p2align	4, 0x90
	.type	RDCost_for_8x8IntraBlocks,@function
RDCost_for_8x8IntraBlocks:              # @RDCost_for_8x8IntraBlocks
	.cfi_startproc
# %bb.0:                                # %rand_bb
	pushq	%rbp
	.cfi_def_cfa_offset 16
	.cfi_offset %rbp, -16
	movq	%rsp, %rbp
	.cfi_def_cfa_register %rbp
	pushq	%r15
	pushq	%r14
	pushq	%r12
	pushq	%rbx
	subq	$16, %rsp
	.cfi_offset %rbx, -48
	.cfi_offset %r12, -40
	.cfi_offset %r14, -32
	.cfi_offset %r15, -24
	movl	%ecx, %r14d
	vmovsd	%xmm1, -48(%rbp)        # 8-byte Spill
	vmovsd	%xmm0, -40(%rbp)        # 8-byte Spill
	movl	%edx, %r15d
	movl	%esi, %r12d
	movq	%rdi, %rbx
	callq	get_rand
	cmpl	$0, %eax
	jne	.LBB3_9
# %bb.1:                                # %func_RDCost_for_8x8IntraBlocks.7
	movq	%rbx, %rdi
	movl	%r12d, %esi
	movl	%r15d, %edx
	vmovsd	-40(%rbp), %xmm0        # 8-byte Reload
                                        # xmm0 = mem[0],zero
	vmovsd	-48(%rbp), %xmm1        # 8-byte Reload
                                        # xmm1 = mem[0],zero
	movl	%r14d, %ecx
	callq	RDCost_for_8x8IntraBlocks.7
	addq	$16, %rsp
	popq	%rbx
	popq	%r12
	popq	%r14
	popq	%r15
	popq	%rbp
	.cfi_def_cfa %rsp, 8
	retq
.LBB3_2:                                # %func_RDCost_for_8x8IntraBlocks.27
	.cfi_def_cfa %rbp, 16
	movq	%rbx, %rdi
	movl	%r12d, %esi
	movl	%r15d, %edx
	movl	%r14d, %ecx
	callq	RDCost_for_8x8IntraBlocks.27
	addq	$16, %rsp
	popq	%rbx
	popq	%r12
	popq	%r14
	popq	%r15
	popq	%rbp
	.cfi_def_cfa %rsp, 8
	retq
.LBB3_3:                                # %func_RDCost_for_8x8IntraBlocks.28
	.cfi_def_cfa %rbp, 16
	movq	%rbx, %rdi
	movl	%r12d, %esi
	movl	%r15d, %edx
	movl	%r14d, %ecx
	callq	RDCost_for_8x8IntraBlocks.28
	addq	$16, %rsp
	popq	%rbx
	popq	%r12
	popq	%r14
	popq	%r15
	popq	%rbp
	.cfi_def_cfa %rsp, 8
	retq
.LBB3_4:                                # %func_RDCost_for_8x8IntraBlocks.30
	.cfi_def_cfa %rbp, 16
	movq	%rbx, %rdi
	movl	%r12d, %esi
	movl	%r15d, %edx
	movl	%r14d, %ecx
	callq	RDCost_for_8x8IntraBlocks.30
	addq	$16, %rsp
	popq	%rbx
	popq	%r12
	popq	%r14
	popq	%r15
	popq	%rbp
	.cfi_def_cfa %rsp, 8
	retq
.LBB3_5:                                # %func_RDCost_for_8x8IntraBlocks.31
	.cfi_def_cfa %rbp, 16
	movq	%rbx, %rdi
	movl	%r12d, %esi
	movl	%r15d, %edx
	movl	%r14d, %ecx
	callq	RDCost_for_8x8IntraBlocks.31
	addq	$16, %rsp
	popq	%rbx
	popq	%r12
	popq	%r14
	popq	%r15
	popq	%rbp
	.cfi_def_cfa %rsp, 8
	retq
.LBB3_6:                                # %func_RDCost_for_8x8IntraBlocks.35
	.cfi_def_cfa %rbp, 16
	movq	%rbx, %rdi
	movl	%r12d, %esi
	movl	%r15d, %edx
	movl	%r14d, %ecx
	callq	RDCost_for_8x8IntraBlocks.35
	addq	$16, %rsp
	popq	%rbx
	popq	%r12
	popq	%r14
	popq	%r15
	popq	%rbp
	.cfi_def_cfa %rsp, 8
	retq
.LBB3_7:                                # %func_RDCost_for_8x8IntraBlocks.37
	.cfi_def_cfa %rbp, 16
	movq	%rbx, %rdi
	movl	%r12d, %esi
	movl	%r15d, %edx
	movl	%r14d, %ecx
	callq	RDCost_for_8x8IntraBlocks.37
	addq	$16, %rsp
	popq	%rbx
	popq	%r12
	popq	%r14
	popq	%r15
	popq	%rbp
	.cfi_def_cfa %rsp, 8
	retq
.LBB3_8:                                # %func_RDCost_for_8x8IntraBlocks.38
	.cfi_def_cfa %rbp, 16
	movq	%rbx, %rdi
	movl	%r12d, %esi
	movl	%r15d, %edx
	movl	%r14d, %ecx
	callq	RDCost_for_8x8IntraBlocks.38
	addq	$16, %rsp
	popq	%rbx
	popq	%r12
	popq	%r14
	popq	%r15
	popq	%rbp
	.cfi_def_cfa %rsp, 8
	retq
.LBB3_9:                                # %ctrl0
	.cfi_def_cfa %rbp, 16
	vmovsd	-40(%rbp), %xmm0        # 8-byte Reload
                                        # xmm0 = mem[0],zero
	vmovsd	-48(%rbp), %xmm1        # 8-byte Reload
                                        # xmm1 = mem[0],zero
	cmpl	$1, %eax
	je	.LBB3_2
# %bb.10:                               # %ctrl1
	cmpl	$2, %eax
	je	.LBB3_3
# %bb.11:                               # %ctrl2
	cmpl	$3, %eax
	je	.LBB3_4
# %bb.12:                               # %ctrl3
	cmpl	$4, %eax
	je	.LBB3_5
# %bb.13:                               # %ctrl4
	cmpl	$5, %eax
	je	.LBB3_6
# %bb.14:                               # %ctrl5
	cmpl	$6, %eax
	je	.LBB3_7
	jmp	.LBB3_8
.Lfunc_end3:
	.size	RDCost_for_8x8IntraBlocks, .Lfunc_end3-RDCost_for_8x8IntraBlocks
	.cfi_endproc
                                        # -- End function
	.globl	dct_luma8x8             # -- Begin function dct_luma8x8
	.p2align	4, 0x90
	.type	dct_luma8x8,@function
dct_luma8x8:                            # @dct_luma8x8
	.cfi_startproc
# %bb.0:                                # %rand_bb
	pushq	%rbp
	.cfi_def_cfa_offset 16
	.cfi_offset %rbp, -16
	movq	%rsp, %rbp
	.cfi_def_cfa_register %rbp
	pushq	%r15
	pushq	%r14
	pushq	%rbx
	pushq	%rax
	.cfi_offset %rbx, -40
	.cfi_offset %r14, -32
	.cfi_offset %r15, -24
	movl	%edx, %r14d
	movq	%rsi, %r15
	movl	%edi, %ebx
	callq	get_rand
	cmpl	$0, %eax
	jne	.LBB4_9
# %bb.1:                                # %func_dct_luma8x8.2
	movl	%ebx, %edi
	movq	%r15, %rsi
	movl	%r14d, %edx
	callq	dct_luma8x8.2
	addq	$8, %rsp
	popq	%rbx
	popq	%r14
	popq	%r15
	popq	%rbp
	.cfi_def_cfa %rsp, 8
	retq
.LBB4_2:                                # %func_dct_luma8x8.3
	.cfi_def_cfa %rbp, 16
	movl	%ebx, %edi
	movq	%r15, %rsi
	movl	%r14d, %edx
	callq	dct_luma8x8.3
	addq	$8, %rsp
	popq	%rbx
	popq	%r14
	popq	%r15
	popq	%rbp
	.cfi_def_cfa %rsp, 8
	retq
.LBB4_3:                                # %func_dct_luma8x8.4
	.cfi_def_cfa %rbp, 16
	movl	%ebx, %edi
	movq	%r15, %rsi
	movl	%r14d, %edx
	callq	dct_luma8x8.4
	addq	$8, %rsp
	popq	%rbx
	popq	%r14
	popq	%r15
	popq	%rbp
	.cfi_def_cfa %rsp, 8
	retq
.LBB4_4:                                # %func_dct_luma8x8.18
	.cfi_def_cfa %rbp, 16
	movl	%ebx, %edi
	movq	%r15, %rsi
	movl	%r14d, %edx
	callq	dct_luma8x8.18
	addq	$8, %rsp
	popq	%rbx
	popq	%r14
	popq	%r15
	popq	%rbp
	.cfi_def_cfa %rsp, 8
	retq
.LBB4_5:                                # %func_dct_luma8x8.19
	.cfi_def_cfa %rbp, 16
	movl	%ebx, %edi
	movq	%r15, %rsi
	movl	%r14d, %edx
	callq	dct_luma8x8.19
	addq	$8, %rsp
	popq	%rbx
	popq	%r14
	popq	%r15
	popq	%rbp
	.cfi_def_cfa %rsp, 8
	retq
.LBB4_6:                                # %func_dct_luma8x8.20
	.cfi_def_cfa %rbp, 16
	movl	%ebx, %edi
	movq	%r15, %rsi
	movl	%r14d, %edx
	callq	dct_luma8x8.20
	addq	$8, %rsp
	popq	%rbx
	popq	%r14
	popq	%r15
	popq	%rbp
	.cfi_def_cfa %rsp, 8
	retq
.LBB4_7:                                # %func_dct_luma8x8.26
	.cfi_def_cfa %rbp, 16
	movl	%ebx, %edi
	movq	%r15, %rsi
	movl	%r14d, %edx
	callq	dct_luma8x8.26
	addq	$8, %rsp
	popq	%rbx
	popq	%r14
	popq	%r15
	popq	%rbp
	.cfi_def_cfa %rsp, 8
	retq
.LBB4_8:                                # %func_dct_luma8x8.29
	.cfi_def_cfa %rbp, 16
	movl	%ebx, %edi
	movq	%r15, %rsi
	movl	%r14d, %edx
	callq	dct_luma8x8.29
	addq	$8, %rsp
	popq	%rbx
	popq	%r14
	popq	%r15
	popq	%rbp
	.cfi_def_cfa %rsp, 8
	retq
.LBB4_9:                                # %ctrl0
	.cfi_def_cfa %rbp, 16
	cmpl	$1, %eax
	je	.LBB4_2
# %bb.10:                               # %ctrl1
	cmpl	$2, %eax
	je	.LBB4_3
# %bb.11:                               # %ctrl2
	cmpl	$3, %eax
	je	.LBB4_4
# %bb.12:                               # %ctrl3
	cmpl	$4, %eax
	je	.LBB4_5
# %bb.13:                               # %ctrl4
	cmpl	$5, %eax
	je	.LBB4_6
# %bb.14:                               # %ctrl5
	cmpl	$6, %eax
	je	.LBB4_7
	jmp	.LBB4_8
.Lfunc_end4:
	.size	dct_luma8x8, .Lfunc_end4-dct_luma8x8
	.cfi_endproc
                                        # -- End function
	.globl	LowPassForIntra8x8Pred  # -- Begin function LowPassForIntra8x8Pred
	.p2align	4, 0x90
	.type	LowPassForIntra8x8Pred,@function
LowPassForIntra8x8Pred:                 # @LowPassForIntra8x8Pred
	.cfi_startproc
# %bb.0:                                # %rand_bb
	pushq	%rbp
	.cfi_def_cfa_offset 16
	.cfi_offset %rbp, -16
	movq	%rsp, %rbp
	.cfi_def_cfa_register %rbp
	pushq	%r15
	pushq	%r14
	pushq	%r12
	pushq	%rbx
	.cfi_offset %rbx, -48
	.cfi_offset %r12, -40
	.cfi_offset %r14, -32
	.cfi_offset %r15, -24
	movl	%ecx, %r14d
	movl	%edx, %r15d
	movl	%esi, %r12d
	movq	%rdi, %rbx
	callq	get_rand
	cmpl	$0, %eax
	jne	.LBB5_9
# %bb.1:                                # %func_LowPassForIntra8x8Pred.5
	movq	%rbx, %rdi
	movl	%r12d, %esi
	movl	%r15d, %edx
	movl	%r14d, %ecx
	callq	LowPassForIntra8x8Pred.5
	popq	%rbx
	popq	%r12
	popq	%r14
	popq	%r15
	popq	%rbp
	.cfi_def_cfa %rsp, 8
	retq
.LBB5_2:                                # %func_LowPassForIntra8x8Pred.6
	.cfi_def_cfa %rbp, 16
	movq	%rbx, %rdi
	movl	%r12d, %esi
	movl	%r15d, %edx
	movl	%r14d, %ecx
	callq	LowPassForIntra8x8Pred.6
	popq	%rbx
	popq	%r12
	popq	%r14
	popq	%r15
	popq	%rbp
	.cfi_def_cfa %rsp, 8
	retq
.LBB5_3:                                # %func_LowPassForIntra8x8Pred.8
	.cfi_def_cfa %rbp, 16
	movq	%rbx, %rdi
	movl	%r12d, %esi
	movl	%r15d, %edx
	movl	%r14d, %ecx
	callq	LowPassForIntra8x8Pred.8
	popq	%rbx
	popq	%r12
	popq	%r14
	popq	%r15
	popq	%rbp
	.cfi_def_cfa %rsp, 8
	retq
.LBB5_4:                                # %func_LowPassForIntra8x8Pred.15
	.cfi_def_cfa %rbp, 16
	movq	%rbx, %rdi
	movl	%r12d, %esi
	movl	%r15d, %edx
	movl	%r14d, %ecx
	callq	LowPassForIntra8x8Pred.15
	popq	%rbx
	popq	%r12
	popq	%r14
	popq	%r15
	popq	%rbp
	.cfi_def_cfa %rsp, 8
	retq
.LBB5_5:                                # %func_LowPassForIntra8x8Pred.21
	.cfi_def_cfa %rbp, 16
	movq	%rbx, %rdi
	movl	%r12d, %esi
	movl	%r15d, %edx
	movl	%r14d, %ecx
	callq	LowPassForIntra8x8Pred.21
	popq	%rbx
	popq	%r12
	popq	%r14
	popq	%r15
	popq	%rbp
	.cfi_def_cfa %rsp, 8
	retq
.LBB5_6:                                # %func_LowPassForIntra8x8Pred.23
	.cfi_def_cfa %rbp, 16
	movq	%rbx, %rdi
	movl	%r12d, %esi
	movl	%r15d, %edx
	movl	%r14d, %ecx
	callq	LowPassForIntra8x8Pred.23
	popq	%rbx
	popq	%r12
	popq	%r14
	popq	%r15
	popq	%rbp
	.cfi_def_cfa %rsp, 8
	retq
.LBB5_7:                                # %func_LowPassForIntra8x8Pred.24
	.cfi_def_cfa %rbp, 16
	movq	%rbx, %rdi
	movl	%r12d, %esi
	movl	%r15d, %edx
	movl	%r14d, %ecx
	callq	LowPassForIntra8x8Pred.24
	popq	%rbx
	popq	%r12
	popq	%r14
	popq	%r15
	popq	%rbp
	.cfi_def_cfa %rsp, 8
	retq
.LBB5_8:                                # %func_LowPassForIntra8x8Pred.25
	.cfi_def_cfa %rbp, 16
	movq	%rbx, %rdi
	movl	%r12d, %esi
	movl	%r15d, %edx
	movl	%r14d, %ecx
	callq	LowPassForIntra8x8Pred.25
	popq	%rbx
	popq	%r12
	popq	%r14
	popq	%r15
	popq	%rbp
	.cfi_def_cfa %rsp, 8
	retq
.LBB5_9:                                # %ctrl0
	.cfi_def_cfa %rbp, 16
	cmpl	$1, %eax
	je	.LBB5_2
# %bb.10:                               # %ctrl1
	cmpl	$2, %eax
	je	.LBB5_3
# %bb.11:                               # %ctrl2
	cmpl	$3, %eax
	je	.LBB5_4
# %bb.12:                               # %ctrl3
	cmpl	$4, %eax
	je	.LBB5_5
# %bb.13:                               # %ctrl4
	cmpl	$5, %eax
	je	.LBB5_6
# %bb.14:                               # %ctrl5
	cmpl	$6, %eax
	je	.LBB5_7
	jmp	.LBB5_8
.Lfunc_end5:
	.size	LowPassForIntra8x8Pred, .Lfunc_end5-LowPassForIntra8x8Pred
	.cfi_endproc
                                        # -- End function
	.section	.rodata.cst8,"aM",@progbits,8
	.p2align	3               # -- Begin function Mode_Decision_for_new_Intra8x8Macroblock.1
.LCPI6_0:
	.quad	4602677017732795964     # double 0.49990000000000001
.LCPI6_1:
	.quad	4618441417868443648     # double 6
	.text
	.globl	Mode_Decision_for_new_Intra8x8Macroblock.1
	.p2align	4, 0x90
	.type	Mode_Decision_for_new_Intra8x8Macroblock.1,@function
Mode_Decision_for_new_Intra8x8Macroblock.1: # @Mode_Decision_for_new_Intra8x8Macroblock.1
	.cfi_startproc
# %bb.0:                                # %entry
	pushq	%rbp
	.cfi_def_cfa_offset 16
	.cfi_offset %rbp, -16
	movq	%rsp, %rbp
	.cfi_def_cfa_register %rbp
	pushq	%rbx
	subq	$40, %rsp
	.cfi_offset %rbx, -24
	vmovsd	.LCPI6_0(%rip), %xmm1   # xmm1 = mem[0],zero
	vmovsd	.LCPI6_1(%rip), %xmm2   # xmm2 = mem[0],zero
	movl	$1626388738, -24(%rbp)  # imm = 0x60F0B902
	vmovsd	%xmm0, -40(%rbp)
	movq	%rdi, -32(%rbp)
	movl	$0, -16(%rbp)
	vmulsd	-40(%rbp), %xmm2, %xmm0
	vaddsd	%xmm1, %xmm0, %xmm0
	vroundsd	$9, %xmm0, %xmm0, %xmm0
	vcvttsd2si	%xmm0, %eax
	movq	-32(%rbp), %rcx
	movl	%eax, (%rcx)
	movl	$0, -12(%rbp)
.LBB6_1:                                # %for.cond
                                        # =>This Inner Loop Header: Depth=1
	cmpl	$4, -12(%rbp)
	jge	.LBB6_6
# %bb.2:                                # %for.body
                                        #   in Loop: Header=BB6_1 Depth=1
	movl	-12(%rbp), %edi
	vmovsd	-40(%rbp), %xmm0        # xmm0 = mem[0],zero
	leaq	-20(%rbp), %rsi
	callq	Mode_Decision_for_new_8x8IntraBlocks
	cmpl	$0, %eax
	je	.LBB6_4
# %bb.3:                                # %if.then
                                        #   in Loop: Header=BB6_1 Depth=1
	movl	-12(%rbp), %ecx
                                        # kill: def $cl killed $ecx
	movl	$1, %eax
	shll	%cl, %eax
	orl	-16(%rbp), %eax
	movl	%eax, -16(%rbp)
.LBB6_4:                                # %if.end
                                        #   in Loop: Header=BB6_1 Depth=1
	movl	-20(%rbp), %eax
	movq	-32(%rbp), %rcx
	addl	(%rcx), %eax
	movl	%eax, (%rcx)
# %bb.5:                                # %for.inc
                                        #   in Loop: Header=BB6_1 Depth=1
	movl	-12(%rbp), %eax
	addl	$1, %eax
	movl	%eax, -12(%rbp)
	jmp	.LBB6_1
.LBB6_6:                                # %for.end
	movl	-16(%rbp), %ebx
	cmpl	$1626388738, -24(%rbp)  # imm = 0x60F0B902
	jne	.LBB6_8
.LBB6_7:
	movl	%ebx, %eax
	addq	$40, %rsp
	popq	%rbx
	popq	%rbp
	.cfi_def_cfa %rsp, 8
	retq
.LBB6_8:                                # %func_exit
	.cfi_def_cfa %rbp, 16
	callq	detect_breach
	jmp	.LBB6_7
.Lfunc_end6:
	.size	Mode_Decision_for_new_Intra8x8Macroblock.1, .Lfunc_end6-Mode_Decision_for_new_Intra8x8Macroblock.1
	.cfi_endproc
                                        # -- End function
	.globl	dct_luma8x8.2           # -- Begin function dct_luma8x8.2
	.p2align	4, 0x90
	.type	dct_luma8x8.2,@function
dct_luma8x8.2:                          # @dct_luma8x8.2
	.cfi_startproc
# %bb.0:                                # %entry
	pushq	%rbp
	.cfi_def_cfa_offset 16
	.cfi_offset %rbp, -16
	movq	%rsp, %rbp
	.cfi_def_cfa_register %rbp
	pushq	%rbx
	subq	$664, %rsp              # imm = 0x298
	.cfi_offset %rbx, -24
	xorl	%ecx, %ecx
	movl	$302012183, -396(%rbp)  # imm = 0x12005717
	movl	%edi, -36(%rbp)
	movq	%rsi, -352(%rbp)
	movl	%edx, -344(%rbp)
	movl	$0, -132(%rbp)
	movl	$0, -136(%rbp)
	movl	$0, -140(%rbp)
	movl	-36(%rbp), %eax
	cltd
	movl	$2, %esi
	idivl	%esi
	shll	$3, %edx
	movl	%edx, -40(%rbp)
	movl	-36(%rbp), %eax
	cltd
	idivl	%esi
	shll	$3, %eax
	movl	%eax, -44(%rbp)
	movq	img, %rax
	movq	14136(%rax), %rax
	movslq	-36(%rbp), %rdx
	movq	(%rax,%rdx,8), %rax
	movq	(%rax), %rax
	movq	(%rax), %rax
	movq	%rax, -408(%rbp)
	movq	img, %rax
	movq	14136(%rax), %rax
	movslq	-36(%rbp), %rdx
	movq	(%rax,%rdx,8), %rax
	movq	(%rax), %rax
	movq	8(%rax), %rax
	movq	%rax, -416(%rbp)
	movq	img, %rax
	movq	14168(%rax), %rax
	movq	img, %rdx
	movslq	12(%rdx), %rdx
	imulq	$632, %rdx, %rdx        # imm = 0x278
	addq	%rdx, %rax
	movq	%rax, -392(%rbp)
	movq	img, %rax
	movl	40(%rax), %eax
	movq	img, %rdx
	addl	72668(%rdx), %eax
	cmpl	$0, %eax
	jne	.LBB7_2
# %bb.1:                                # %land.rhs
	movq	img, %rax
	cmpl	$1, 72704(%rax)
	sete	%cl
.LBB7_2:                                # %land.end
	andb	$1, %cl
	movzbl	%cl, %eax
	movl	%eax, -32(%rbp)
	movq	img, %rax
	movl	40(%rax), %eax
	movq	img, %rcx
	addl	72668(%rcx), %eax
	subl	$0, %eax
	cltd
	movl	$6, %ecx
	idivl	%ecx
	movl	%eax, -28(%rbp)
	movq	img, %rax
	movl	40(%rax), %eax
	movq	img, %rdx
	addl	72668(%rdx), %eax
	subl	$0, %eax
	cltd
	idivl	%ecx
	movl	%edx, -52(%rbp)
	movl	-28(%rbp), %eax
	addl	$16, %eax
	movl	%eax, -64(%rbp)
	cmpl	$6, -28(%rbp)
	jge	.LBB7_4
# %bb.3:                                # %if.then
	movl	$6, %eax
	subl	-28(%rbp), %eax
	movl	%eax, -136(%rbp)
	movl	$5, %ecx
	subl	-28(%rbp), %ecx
                                        # kill: def $cl killed $ecx
	movl	$1, %eax
	shll	%cl, %eax
	movl	%eax, -140(%rbp)
	jmp	.LBB7_5
.LBB7_4:                                # %if.else
	movl	-28(%rbp), %eax
	subl	$6, %eax
	movl	%eax, -132(%rbp)
.LBB7_5:                                # %if.end
	movq	img, %rax
	cmpl	$2, 24(%rax)
	jne	.LBB7_7
# %bb.6:                                # %if.then27
	movl	-64(%rbp), %ecx
                                        # kill: def $cl killed $ecx
	movl	$1, %eax
	shll	%cl, %eax
	cltd
	movl	$3, %ecx
	idivl	%ecx
	movl	%eax, -400(%rbp)
	jmp	.LBB7_8
.LBB7_7:                                # %if.else30
	movl	-64(%rbp), %ecx
                                        # kill: def $cl killed $ecx
	movl	$1, %eax
	shll	%cl, %eax
	cltd
	movl	$6, %ecx
	idivl	%ecx
	movl	%eax, -400(%rbp)
.LBB7_8:                                # %if.end33
	movl	$0, -12(%rbp)
.LBB7_9:                                # %for.cond
                                        # =>This Inner Loop Header: Depth=1
	xorl	%eax, %eax
	cmpl	$8, -12(%rbp)
	jge	.LBB7_11
# %bb.10:                               # %land.rhs35
                                        #   in Loop: Header=BB7_9 Depth=1
	cmpl	$0, -32(%rbp)
	setne	%al
	xorb	$-1, %al
.LBB7_11:                               # %land.end36
                                        #   in Loop: Header=BB7_9 Depth=1
	testb	$1, %al
	jne	.LBB7_12
	jmp	.LBB7_14
.LBB7_12:                               # %for.body
                                        #   in Loop: Header=BB7_9 Depth=1
	xorl	%eax, %eax
	movq	img, %rcx
	movslq	-12(%rbp), %rdx
	movl	13112(%rcx,%rdx,4), %ecx
	movq	img, %rdx
	movslq	-12(%rbp), %rsi
	addl	13560(%rdx,%rsi,4), %ecx
	movl	%ecx, -96(%rbp)
	movq	img, %rcx
	movslq	-12(%rbp), %rdx
	movl	13176(%rcx,%rdx,4), %ecx
	movq	img, %rdx
	movslq	-12(%rbp), %rsi
	addl	13496(%rdx,%rsi,4), %ecx
	movl	%ecx, -92(%rbp)
	movq	img, %rcx
	movslq	-12(%rbp), %rdx
	movl	13240(%rcx,%rdx,4), %ecx
	movq	img, %rdx
	movslq	-12(%rbp), %rsi
	addl	13432(%rdx,%rsi,4), %ecx
	movl	%ecx, -88(%rbp)
	movq	img, %rcx
	movslq	-12(%rbp), %rdx
	movl	13304(%rcx,%rdx,4), %ecx
	movq	img, %rdx
	movslq	-12(%rbp), %rsi
	addl	13368(%rdx,%rsi,4), %ecx
	movl	%ecx, -84(%rbp)
	movl	-96(%rbp), %ecx
	addl	-84(%rbp), %ecx
	movl	%ecx, -336(%rbp)
	movl	-92(%rbp), %ecx
	addl	-88(%rbp), %ecx
	movl	%ecx, -332(%rbp)
	movl	-96(%rbp), %ecx
	subl	-84(%rbp), %ecx
	movl	%ecx, -328(%rbp)
	movl	-92(%rbp), %ecx
	subl	-88(%rbp), %ecx
	movl	%ecx, -324(%rbp)
	movq	img, %rcx
	movslq	-12(%rbp), %rdx
	movl	13112(%rcx,%rdx,4), %ecx
	movq	img, %rdx
	movslq	-12(%rbp), %rsi
	subl	13560(%rdx,%rsi,4), %ecx
	movl	%ecx, -80(%rbp)
	movq	img, %rcx
	movslq	-12(%rbp), %rdx
	movl	13176(%rcx,%rdx,4), %ecx
	movq	img, %rdx
	movslq	-12(%rbp), %rsi
	subl	13496(%rdx,%rsi,4), %ecx
	movl	%ecx, -76(%rbp)
	movq	img, %rcx
	movslq	-12(%rbp), %rdx
	movl	13240(%rcx,%rdx,4), %ecx
	movq	img, %rdx
	movslq	-12(%rbp), %rsi
	subl	13432(%rdx,%rsi,4), %ecx
	movl	%ecx, -72(%rbp)
	movq	img, %rcx
	movslq	-12(%rbp), %rdx
	movl	13304(%rcx,%rdx,4), %ecx
	movq	img, %rdx
	movslq	-12(%rbp), %rsi
	subl	13368(%rdx,%rsi,4), %ecx
	movl	%ecx, -68(%rbp)
	movl	-76(%rbp), %ecx
	addl	-72(%rbp), %ecx
	movl	-80(%rbp), %edx
	sarl	$1, %edx
	addl	-80(%rbp), %edx
	addl	%edx, %ecx
	movl	%ecx, -320(%rbp)
	movl	-80(%rbp), %ecx
	subl	-68(%rbp), %ecx
	movl	-72(%rbp), %edx
	sarl	$1, %edx
	addl	-72(%rbp), %edx
	subl	%edx, %ecx
	movl	%ecx, -316(%rbp)
	movl	-80(%rbp), %ecx
	addl	-68(%rbp), %ecx
	movl	-76(%rbp), %edx
	sarl	$1, %edx
	addl	-76(%rbp), %edx
	subl	%edx, %ecx
	movl	%ecx, -312(%rbp)
	movl	-76(%rbp), %ecx
	subl	-72(%rbp), %ecx
	movl	-68(%rbp), %edx
	sarl	$1, %edx
	addl	-68(%rbp), %edx
	addl	%edx, %ecx
	movl	%ecx, -308(%rbp)
	movl	-336(%rbp), %ecx
	addl	-332(%rbp), %ecx
	movslq	-12(%rbp), %rdx
	movl	%ecx, -672(%rbp,%rdx,4)
	movl	-328(%rbp), %ecx
	movl	-324(%rbp), %edx
	sarl	$1, %edx
	addl	%edx, %ecx
	movslq	-12(%rbp), %rdx
	movl	%ecx, -608(%rbp,%rdx,4)
	movl	-336(%rbp), %ecx
	subl	-332(%rbp), %ecx
	movslq	-12(%rbp), %rdx
	movl	%ecx, -544(%rbp,%rdx,4)
	movl	-328(%rbp), %ecx
	sarl	$1, %ecx
	subl	-324(%rbp), %ecx
	movslq	-12(%rbp), %rdx
	movl	%ecx, -480(%rbp,%rdx,4)
	movl	-320(%rbp), %ecx
	movl	-308(%rbp), %edx
	sarl	$2, %edx
	addl	%edx, %ecx
	movslq	-12(%rbp), %rdx
	movl	%ecx, -640(%rbp,%rdx,4)
	movl	-316(%rbp), %ecx
	movl	-312(%rbp), %edx
	sarl	$2, %edx
	addl	%edx, %ecx
	movslq	-12(%rbp), %rdx
	movl	%ecx, -576(%rbp,%rdx,4)
	movl	-312(%rbp), %ecx
	movl	-316(%rbp), %edx
	sarl	$2, %edx
	subl	%edx, %ecx
	movslq	-12(%rbp), %rdx
	movl	%ecx, -512(%rbp,%rdx,4)
	subl	-308(%rbp), %eax
	movl	-320(%rbp), %ecx
	sarl	$2, %ecx
	addl	%ecx, %eax
	movslq	-12(%rbp), %rcx
	movl	%eax, -448(%rbp,%rcx,4)
# %bb.13:                               # %for.inc
                                        #   in Loop: Header=BB7_9 Depth=1
	movl	-12(%rbp), %eax
	addl	$1, %eax
	movl	%eax, -12(%rbp)
	jmp	.LBB7_9
.LBB7_14:                               # %for.end
	movl	$0, -12(%rbp)
.LBB7_15:                               # %for.cond223
                                        # =>This Inner Loop Header: Depth=1
	xorl	%eax, %eax
	cmpl	$8, -12(%rbp)
	jge	.LBB7_17
# %bb.16:                               # %land.rhs225
                                        #   in Loop: Header=BB7_15 Depth=1
	cmpl	$0, -32(%rbp)
	setne	%al
	xorb	$-1, %al
.LBB7_17:                               # %land.end228
                                        #   in Loop: Header=BB7_15 Depth=1
	testb	$1, %al
	jne	.LBB7_18
	jmp	.LBB7_20
.LBB7_18:                               # %for.body230
                                        #   in Loop: Header=BB7_15 Depth=1
	xorl	%eax, %eax
	movslq	-12(%rbp), %rdx
	shlq	$5, %rdx
	leaq	-672(%rbp), %rcx
	movq	%rcx, %rsi
	addq	%rdx, %rsi
	movl	(%rsi), %edx
	movslq	-12(%rbp), %rsi
	shlq	$5, %rsi
	movq	%rcx, %rdi
	addq	%rsi, %rdi
	addl	28(%rdi), %edx
	movl	%edx, -128(%rbp)
	movslq	-12(%rbp), %rdx
	shlq	$5, %rdx
	movq	%rcx, %rsi
	addq	%rdx, %rsi
	movl	4(%rsi), %edx
	movslq	-12(%rbp), %rsi
	shlq	$5, %rsi
	movq	%rcx, %rdi
	addq	%rsi, %rdi
	addl	24(%rdi), %edx
	movl	%edx, -124(%rbp)
	movslq	-12(%rbp), %rdx
	shlq	$5, %rdx
	movq	%rcx, %rsi
	addq	%rdx, %rsi
	movl	8(%rsi), %edx
	movslq	-12(%rbp), %rsi
	shlq	$5, %rsi
	movq	%rcx, %rdi
	addq	%rsi, %rdi
	addl	20(%rdi), %edx
	movl	%edx, -120(%rbp)
	movslq	-12(%rbp), %rdx
	shlq	$5, %rdx
	movq	%rcx, %rsi
	addq	%rdx, %rsi
	movl	12(%rsi), %edx
	movslq	-12(%rbp), %rsi
	shlq	$5, %rsi
	movq	%rcx, %rdi
	addq	%rsi, %rdi
	addl	16(%rdi), %edx
	movl	%edx, -116(%rbp)
	movl	-128(%rbp), %edx
	addl	-116(%rbp), %edx
	movl	%edx, -208(%rbp)
	movl	-124(%rbp), %edx
	addl	-120(%rbp), %edx
	movl	%edx, -204(%rbp)
	movl	-128(%rbp), %edx
	subl	-116(%rbp), %edx
	movl	%edx, -200(%rbp)
	movl	-124(%rbp), %edx
	subl	-120(%rbp), %edx
	movl	%edx, -196(%rbp)
	movslq	-12(%rbp), %rdx
	shlq	$5, %rdx
	movq	%rcx, %rsi
	addq	%rdx, %rsi
	movl	(%rsi), %edx
	movslq	-12(%rbp), %rsi
	shlq	$5, %rsi
	movq	%rcx, %rdi
	addq	%rsi, %rdi
	subl	28(%rdi), %edx
	movl	%edx, -112(%rbp)
	movslq	-12(%rbp), %rdx
	shlq	$5, %rdx
	movq	%rcx, %rsi
	addq	%rdx, %rsi
	movl	4(%rsi), %edx
	movslq	-12(%rbp), %rsi
	shlq	$5, %rsi
	movq	%rcx, %rdi
	addq	%rsi, %rdi
	subl	24(%rdi), %edx
	movl	%edx, -108(%rbp)
	movslq	-12(%rbp), %rdx
	shlq	$5, %rdx
	movq	%rcx, %rsi
	addq	%rdx, %rsi
	movl	8(%rsi), %edx
	movslq	-12(%rbp), %rsi
	shlq	$5, %rsi
	movq	%rcx, %rdi
	addq	%rsi, %rdi
	subl	20(%rdi), %edx
	movl	%edx, -104(%rbp)
	movslq	-12(%rbp), %rdx
	shlq	$5, %rdx
	movq	%rcx, %rsi
	addq	%rdx, %rsi
	movl	12(%rsi), %edx
	movslq	-12(%rbp), %rsi
	shlq	$5, %rsi
	addq	%rsi, %rcx
	subl	16(%rcx), %edx
	movl	%edx, -100(%rbp)
	movl	-108(%rbp), %ecx
	addl	-104(%rbp), %ecx
	movl	-112(%rbp), %edx
	sarl	$1, %edx
	addl	-112(%rbp), %edx
	addl	%edx, %ecx
	movl	%ecx, -192(%rbp)
	movl	-112(%rbp), %ecx
	subl	-100(%rbp), %ecx
	movl	-104(%rbp), %edx
	sarl	$1, %edx
	addl	-104(%rbp), %edx
	subl	%edx, %ecx
	movl	%ecx, -188(%rbp)
	movl	-112(%rbp), %ecx
	addl	-100(%rbp), %ecx
	movl	-108(%rbp), %edx
	sarl	$1, %edx
	addl	-108(%rbp), %edx
	subl	%edx, %ecx
	movl	%ecx, -184(%rbp)
	movl	-108(%rbp), %ecx
	subl	-104(%rbp), %ecx
	movl	-100(%rbp), %edx
	sarl	$1, %edx
	addl	-100(%rbp), %edx
	addl	%edx, %ecx
	movl	%ecx, -180(%rbp)
	movl	-208(%rbp), %ecx
	addl	-204(%rbp), %ecx
	movq	img, %rdx
	addq	$13112, %rdx            # imm = 0x3338
	movslq	-12(%rbp), %rsi
	shlq	$6, %rsi
	addq	%rsi, %rdx
	movl	%ecx, (%rdx)
	movl	-200(%rbp), %ecx
	movl	-196(%rbp), %edx
	sarl	$1, %edx
	addl	%edx, %ecx
	movq	img, %rdx
	addq	$13112, %rdx            # imm = 0x3338
	movslq	-12(%rbp), %rsi
	shlq	$6, %rsi
	addq	%rsi, %rdx
	movl	%ecx, 8(%rdx)
	movl	-208(%rbp), %ecx
	subl	-204(%rbp), %ecx
	movq	img, %rdx
	addq	$13112, %rdx            # imm = 0x3338
	movslq	-12(%rbp), %rsi
	shlq	$6, %rsi
	addq	%rsi, %rdx
	movl	%ecx, 16(%rdx)
	movl	-200(%rbp), %ecx
	sarl	$1, %ecx
	subl	-196(%rbp), %ecx
	movq	img, %rdx
	addq	$13112, %rdx            # imm = 0x3338
	movslq	-12(%rbp), %rsi
	shlq	$6, %rsi
	addq	%rsi, %rdx
	movl	%ecx, 24(%rdx)
	movl	-192(%rbp), %ecx
	movl	-180(%rbp), %edx
	sarl	$2, %edx
	addl	%edx, %ecx
	movq	img, %rdx
	addq	$13112, %rdx            # imm = 0x3338
	movslq	-12(%rbp), %rsi
	shlq	$6, %rsi
	addq	%rsi, %rdx
	movl	%ecx, 4(%rdx)
	movl	-188(%rbp), %ecx
	movl	-184(%rbp), %edx
	sarl	$2, %edx
	addl	%edx, %ecx
	movq	img, %rdx
	addq	$13112, %rdx            # imm = 0x3338
	movslq	-12(%rbp), %rsi
	shlq	$6, %rsi
	addq	%rsi, %rdx
	movl	%ecx, 12(%rdx)
	movl	-184(%rbp), %ecx
	movl	-188(%rbp), %edx
	sarl	$2, %edx
	subl	%edx, %ecx
	movq	img, %rdx
	addq	$13112, %rdx            # imm = 0x3338
	movslq	-12(%rbp), %rsi
	shlq	$6, %rsi
	addq	%rsi, %rdx
	movl	%ecx, 20(%rdx)
	subl	-180(%rbp), %eax
	movl	-192(%rbp), %ecx
	sarl	$2, %ecx
	addl	%ecx, %eax
	movq	img, %rcx
	addq	$13112, %rcx            # imm = 0x3338
	movslq	-12(%rbp), %rdx
	shlq	$6, %rdx
	addq	%rdx, %rcx
	movl	%eax, 28(%rcx)
# %bb.19:                               # %for.inc412
                                        #   in Loop: Header=BB7_15 Depth=1
	movl	-12(%rbp), %eax
	addl	$1, %eax
	movl	%eax, -12(%rbp)
	jmp	.LBB7_15
.LBB7_20:                               # %for.end414
	movl	$0, -340(%rbp)
	movl	$-1, -60(%rbp)
	movl	$0, -56(%rbp)
	movl	$-1, -372(%rbp)
	movl	$-1, -376(%rbp)
	movl	$-1, -380(%rbp)
	movl	$-1, -384(%rbp)
	movl	$0, -356(%rbp)
	movl	$0, -360(%rbp)
	movl	$0, -364(%rbp)
	movl	$0, -368(%rbp)
	movl	$0, -20(%rbp)
.LBB7_21:                               # %for.cond423
                                        # =>This Inner Loop Header: Depth=1
	cmpl	$64, -20(%rbp)
	jge	.LBB7_61
# %bb.22:                               # %for.body425
                                        #   in Loop: Header=BB7_21 Depth=1
	movq	img, %rax
	cmpl	$0, 72444(%rax)
	jne	.LBB7_25
# %bb.23:                               # %lor.lhs.false
                                        #   in Loop: Header=BB7_21 Depth=1
	movq	img, %rax
	cmpl	$0, 72400(%rax)
	je	.LBB7_26
# %bb.24:                               # %land.lhs.true
                                        #   in Loop: Header=BB7_21 Depth=1
	movq	-392(%rbp), %rax
	cmpl	$0, 532(%rax)
	je	.LBB7_26
.LBB7_25:                               # %if.then429
                                        #   in Loop: Header=BB7_21 Depth=1
	movslq	-20(%rbp), %rax
	movzbl	FIELD_SCAN8x8(,%rax,2), %eax
	movl	%eax, -12(%rbp)
	movslq	-20(%rbp), %rax
	movzbl	FIELD_SCAN8x8+1(,%rax,2), %eax
	movl	%eax, -16(%rbp)
	jmp	.LBB7_27
.LBB7_26:                               # %if.else437
                                        #   in Loop: Header=BB7_21 Depth=1
	movslq	-20(%rbp), %rax
	movzbl	SNGL_SCAN8x8(,%rax,2), %eax
	movl	%eax, -12(%rbp)
	movslq	-20(%rbp), %rax
	movzbl	SNGL_SCAN8x8+1(,%rax,2), %eax
	movl	%eax, -16(%rbp)
.LBB7_27:                               # %if.end446
                                        #   in Loop: Header=BB7_21 Depth=1
	movl	-60(%rbp), %eax
	addl	$1, %eax
	movl	%eax, -60(%rbp)
	movl	$0, -48(%rbp)
	movl	-20(%rbp), %eax
	andl	$3, %eax
	cltq
	movl	-384(%rbp,%rax,4), %ecx
	addl	$1, %ecx
	movl	%ecx, -384(%rbp,%rax,4)
	cmpl	$0, -32(%rbp)
	je	.LBB7_29
# %bb.28:                               # %if.then452
                                        #   in Loop: Header=BB7_21 Depth=1
	movq	img, %rax
	addq	$13112, %rax            # imm = 0x3338
	movslq	-12(%rbp), %rcx
	shlq	$6, %rcx
	addq	%rcx, %rax
	movslq	-16(%rbp), %rcx
	movl	(%rax,%rcx,4), %edi
	callq	abs
	movl	%eax, -24(%rbp)
	jmp	.LBB7_33
.LBB7_29:                               # %if.else458
                                        #   in Loop: Header=BB7_21 Depth=1
	cmpl	$1, -344(%rbp)
	jne	.LBB7_31
# %bb.30:                               # %if.then461
                                        #   in Loop: Header=BB7_21 Depth=1
	movq	img, %rax
	addq	$13112, %rax            # imm = 0x3338
	movslq	-12(%rbp), %rcx
	shlq	$6, %rcx
	addq	%rcx, %rax
	movslq	-16(%rbp), %rcx
	movl	(%rax,%rcx,4), %edi
	callq	abs
	movslq	-52(%rbp), %rcx
	shlq	$8, %rcx
	movabsq	$LevelScale8x8Luma_Intra, %rdx
	addq	%rcx, %rdx
	movslq	-12(%rbp), %rcx
	shlq	$5, %rcx
	addq	%rcx, %rdx
	movslq	-16(%rbp), %rcx
	imull	(%rdx,%rcx,4), %eax
	movslq	-28(%rbp), %rcx
	shlq	$8, %rcx
	movabsq	$LevelOffset8x8Luma_Intra, %rdx
	addq	%rcx, %rdx
	movslq	-12(%rbp), %rcx
	shlq	$5, %rcx
	addq	%rcx, %rdx
	movslq	-16(%rbp), %rcx
	addl	(%rdx,%rcx,4), %eax
	movl	-64(%rbp), %ecx
                                        # kill: def $cl killed $ecx
	sarl	%cl, %eax
	movl	%eax, -24(%rbp)
	jmp	.LBB7_32
.LBB7_31:                               # %if.else483
                                        #   in Loop: Header=BB7_21 Depth=1
	movq	img, %rax
	addq	$13112, %rax            # imm = 0x3338
	movslq	-12(%rbp), %rcx
	shlq	$6, %rcx
	addq	%rcx, %rax
	movslq	-16(%rbp), %rcx
	movl	(%rax,%rcx,4), %edi
	callq	abs
	movslq	-52(%rbp), %rcx
	shlq	$8, %rcx
	movabsq	$LevelScale8x8Luma_Inter, %rdx
	addq	%rcx, %rdx
	movslq	-12(%rbp), %rcx
	shlq	$5, %rcx
	addq	%rcx, %rdx
	movslq	-16(%rbp), %rcx
	imull	(%rdx,%rcx,4), %eax
	movslq	-28(%rbp), %rcx
	shlq	$8, %rcx
	movabsq	$LevelOffset8x8Luma_Inter, %rdx
	addq	%rcx, %rdx
	movslq	-12(%rbp), %rcx
	shlq	$5, %rcx
	addq	%rcx, %rdx
	movslq	-16(%rbp), %rcx
	addl	(%rdx,%rcx,4), %eax
	movl	-64(%rbp), %ecx
                                        # kill: def $cl killed $ecx
	sarl	%cl, %eax
	movl	%eax, -24(%rbp)
.LBB7_32:                               # %if.end505
                                        #   in Loop: Header=BB7_21 Depth=1
	jmp	.LBB7_33
.LBB7_33:                               # %if.end506
                                        #   in Loop: Header=BB7_21 Depth=1
	cmpl	$0, -24(%rbp)
	je	.LBB7_57
# %bb.34:                               # %if.then509
                                        #   in Loop: Header=BB7_21 Depth=1
	movl	$1, -340(%rbp)
	movq	-392(%rbp), %rax
	cmpl	$0, 572(%rax)
	je	.LBB7_40
# %bb.35:                               # %land.lhs.true511
                                        #   in Loop: Header=BB7_21 Depth=1
	movq	input, %rax
	cmpl	$0, 2356(%rax)
	jne	.LBB7_40
# %bb.36:                               # %if.then514
                                        #   in Loop: Header=BB7_21 Depth=1
	cmpl	$1, -24(%rbp)
	jle	.LBB7_38
# %bb.37:                               # %if.then517
                                        #   in Loop: Header=BB7_21 Depth=1
	movq	-352(%rbp), %rax
	movl	(%rax), %ecx
	addl	$999999, %ecx           # imm = 0xF423F
	movl	%ecx, (%rax)
	jmp	.LBB7_39
.LBB7_38:                               # %if.else519
                                        #   in Loop: Header=BB7_21 Depth=1
	movabsq	$COEFF_COST8x8, %rax
	movq	input, %rcx
	movslq	2468(%rcx), %rcx
	shlq	$6, %rcx
	addq	%rcx, %rax
	movl	-20(%rbp), %ecx
	andl	$3, %ecx
	movslq	%ecx, %rcx
	movslq	-384(%rbp,%rcx,4), %rcx
	movzbl	(%rax,%rcx), %eax
	movq	-352(%rbp), %rcx
	addl	(%rcx), %eax
	movl	%eax, (%rcx)
.LBB7_39:                               # %if.end529
                                        #   in Loop: Header=BB7_21 Depth=1
	movl	-24(%rbp), %edi
	movq	img, %rax
	addq	$13112, %rax            # imm = 0x3338
	movslq	-12(%rbp), %rcx
	shlq	$6, %rcx
	addq	%rcx, %rax
	movslq	-16(%rbp), %rcx
	movl	(%rax,%rcx,4), %esi
	callq	sign
	movq	img, %rcx
	movq	14136(%rcx), %rcx
	movslq	-36(%rbp), %rdx
	movq	(%rcx,%rdx,8), %rcx
	movl	-20(%rbp), %edx
	andl	$3, %edx
	movslq	%edx, %rdx
	movq	(%rcx,%rdx,8), %rcx
	movq	(%rcx), %rcx
	movl	-20(%rbp), %edx
	andl	$3, %edx
	movslq	%edx, %rdx
	movslq	-368(%rbp,%rdx,4), %rdx
	movl	%eax, (%rcx,%rdx,4)
	movl	-20(%rbp), %eax
	andl	$3, %eax
	cltq
	movl	-384(%rbp,%rax,4), %eax
	movq	img, %rcx
	movq	14136(%rcx), %rcx
	movslq	-36(%rbp), %rdx
	movq	(%rcx,%rdx,8), %rcx
	movl	-20(%rbp), %edx
	andl	$3, %edx
	movslq	%edx, %rdx
	movq	(%rcx,%rdx,8), %rcx
	movq	8(%rcx), %rcx
	movl	-20(%rbp), %edx
	andl	$3, %edx
	movslq	%edx, %rdx
	movslq	-368(%rbp,%rdx,4), %rdx
	movl	%eax, (%rcx,%rdx,4)
	movl	-20(%rbp), %eax
	andl	$3, %eax
	cltq
	movl	-368(%rbp,%rax,4), %ecx
	addl	$1, %ecx
	movl	%ecx, -368(%rbp,%rax,4)
	movl	-20(%rbp), %eax
	andl	$3, %eax
	cltq
	movl	$-1, -384(%rbp,%rax,4)
	jmp	.LBB7_44
.LBB7_40:                               # %if.else570
                                        #   in Loop: Header=BB7_21 Depth=1
	cmpl	$1, -24(%rbp)
	jle	.LBB7_42
# %bb.41:                               # %if.then573
                                        #   in Loop: Header=BB7_21 Depth=1
	movq	-352(%rbp), %rax
	movl	(%rax), %ecx
	addl	$999999, %ecx           # imm = 0xF423F
	movl	%ecx, (%rax)
	jmp	.LBB7_43
.LBB7_42:                               # %if.else575
                                        #   in Loop: Header=BB7_21 Depth=1
	movabsq	$COEFF_COST8x8, %rax
	movq	input, %rcx
	movslq	2468(%rcx), %rcx
	shlq	$6, %rcx
	addq	%rcx, %rax
	movslq	-60(%rbp), %rcx
	movzbl	(%rax,%rcx), %eax
	movq	-352(%rbp), %rcx
	addl	(%rcx), %eax
	movl	%eax, (%rcx)
.LBB7_43:                               # %if.end583
                                        #   in Loop: Header=BB7_21 Depth=1
	movl	-24(%rbp), %edi
	movq	img, %rax
	addq	$13112, %rax            # imm = 0x3338
	movslq	-12(%rbp), %rcx
	shlq	$6, %rcx
	addq	%rcx, %rax
	movslq	-16(%rbp), %rcx
	movl	(%rax,%rcx,4), %esi
	callq	sign
	movq	-408(%rbp), %rcx
	movslq	-56(%rbp), %rdx
	movl	%eax, (%rcx,%rdx,4)
	movl	-60(%rbp), %eax
	movq	-416(%rbp), %rcx
	movslq	-56(%rbp), %rdx
	movl	%eax, (%rcx,%rdx,4)
	movl	-56(%rbp), %eax
	addl	$1, %eax
	movl	%eax, -56(%rbp)
	movl	$-1, -60(%rbp)
.LBB7_44:                               # %if.end595
                                        #   in Loop: Header=BB7_21 Depth=1
	movl	-24(%rbp), %edi
	movq	img, %rax
	addq	$13112, %rax            # imm = 0x3338
	movslq	-12(%rbp), %rcx
	shlq	$6, %rcx
	addq	%rcx, %rax
	movslq	-16(%rbp), %rcx
	movl	(%rax,%rcx,4), %esi
	callq	sign
	movl	%eax, -24(%rbp)
	cmpl	$0, -32(%rbp)
	je	.LBB7_46
# %bb.45:                               # %if.then603
                                        #   in Loop: Header=BB7_21 Depth=1
	movl	-24(%rbp), %eax
	movl	%eax, -48(%rbp)
	jmp	.LBB7_56
.LBB7_46:                               # %if.else604
                                        #   in Loop: Header=BB7_21 Depth=1
	cmpl	$1, -344(%rbp)
	jne	.LBB7_51
# %bb.47:                               # %if.then607
                                        #   in Loop: Header=BB7_21 Depth=1
	cmpl	$6, -28(%rbp)
	jl	.LBB7_49
# %bb.48:                               # %if.then610
                                        #   in Loop: Header=BB7_21 Depth=1
	movl	-24(%rbp), %eax
	movslq	-52(%rbp), %rcx
	shlq	$8, %rcx
	movabsq	$InvLevelScale8x8Luma_Intra, %rdx
	addq	%rcx, %rdx
	movslq	-12(%rbp), %rcx
	shlq	$5, %rcx
	addq	%rcx, %rdx
	movslq	-16(%rbp), %rcx
	imull	(%rdx,%rcx,4), %eax
	movl	-132(%rbp), %ecx
                                        # kill: def $cl killed $ecx
	shll	%cl, %eax
	movl	%eax, -48(%rbp)
	jmp	.LBB7_50
.LBB7_49:                               # %if.else619
                                        #   in Loop: Header=BB7_21 Depth=1
	movl	-24(%rbp), %eax
	movslq	-52(%rbp), %rcx
	shlq	$8, %rcx
	movabsq	$InvLevelScale8x8Luma_Intra, %rdx
	addq	%rcx, %rdx
	movslq	-12(%rbp), %rcx
	shlq	$5, %rcx
	addq	%rcx, %rdx
	movslq	-16(%rbp), %rcx
	imull	(%rdx,%rcx,4), %eax
	addl	-140(%rbp), %eax
	movl	-136(%rbp), %ecx
                                        # kill: def $cl killed $ecx
	sarl	%cl, %eax
	movl	%eax, -48(%rbp)
.LBB7_50:                               # %if.end629
                                        #   in Loop: Header=BB7_21 Depth=1
	jmp	.LBB7_55
.LBB7_51:                               # %if.else630
                                        #   in Loop: Header=BB7_21 Depth=1
	cmpl	$6, -28(%rbp)
	jl	.LBB7_53
# %bb.52:                               # %if.then633
                                        #   in Loop: Header=BB7_21 Depth=1
	movl	-24(%rbp), %eax
	movslq	-52(%rbp), %rcx
	shlq	$8, %rcx
	movabsq	$InvLevelScale8x8Luma_Inter, %rdx
	addq	%rcx, %rdx
	movslq	-12(%rbp), %rcx
	shlq	$5, %rcx
	addq	%rcx, %rdx
	movslq	-16(%rbp), %rcx
	imull	(%rdx,%rcx,4), %eax
	movl	-132(%rbp), %ecx
                                        # kill: def $cl killed $ecx
	shll	%cl, %eax
	movl	%eax, -48(%rbp)
	jmp	.LBB7_54
.LBB7_53:                               # %if.else642
                                        #   in Loop: Header=BB7_21 Depth=1
	movl	-24(%rbp), %eax
	movslq	-52(%rbp), %rcx
	shlq	$8, %rcx
	movabsq	$InvLevelScale8x8Luma_Inter, %rdx
	addq	%rcx, %rdx
	movslq	-12(%rbp), %rcx
	shlq	$5, %rcx
	addq	%rcx, %rdx
	movslq	-16(%rbp), %rcx
	imull	(%rdx,%rcx,4), %eax
	addl	-140(%rbp), %eax
	movl	-136(%rbp), %ecx
                                        # kill: def $cl killed $ecx
	sarl	%cl, %eax
	movl	%eax, -48(%rbp)
.LBB7_54:                               # %if.end652
                                        #   in Loop: Header=BB7_21 Depth=1
	jmp	.LBB7_55
.LBB7_55:                               # %if.end653
                                        #   in Loop: Header=BB7_21 Depth=1
	jmp	.LBB7_56
.LBB7_56:                               # %if.end654
                                        #   in Loop: Header=BB7_21 Depth=1
	jmp	.LBB7_57
.LBB7_57:                               # %if.end655
                                        #   in Loop: Header=BB7_21 Depth=1
	cmpl	$0, -32(%rbp)
	jne	.LBB7_59
# %bb.58:                               # %if.then657
                                        #   in Loop: Header=BB7_21 Depth=1
	movl	-48(%rbp), %eax
	movq	img, %rcx
	addq	$13112, %rcx            # imm = 0x3338
	movslq	-12(%rbp), %rdx
	shlq	$6, %rdx
	addq	%rdx, %rcx
	movslq	-16(%rbp), %rdx
	movl	%eax, (%rcx,%rdx,4)
.LBB7_59:                               # %if.end663
                                        #   in Loop: Header=BB7_21 Depth=1
	jmp	.LBB7_60
.LBB7_60:                               # %for.inc664
                                        #   in Loop: Header=BB7_21 Depth=1
	movl	-20(%rbp), %eax
	addl	$1, %eax
	movl	%eax, -20(%rbp)
	jmp	.LBB7_21
.LBB7_61:                               # %for.end666
	movq	-392(%rbp), %rax
	cmpl	$0, 572(%rax)
	je	.LBB7_63
# %bb.62:                               # %lor.lhs.false669
	movq	input, %rax
	cmpl	$0, 2356(%rax)
	je	.LBB7_64
.LBB7_63:                               # %if.then673
	movq	-408(%rbp), %rax
	movslq	-56(%rbp), %rcx
	movl	$0, (%rax,%rcx,4)
	jmp	.LBB7_69
.LBB7_64:                               # %if.else676
	movl	$0, -12(%rbp)
.LBB7_65:                               # %for.cond677
                                        # =>This Inner Loop Header: Depth=1
	cmpl	$4, -12(%rbp)
	jge	.LBB7_68
# %bb.66:                               # %for.body680
                                        #   in Loop: Header=BB7_65 Depth=1
	movq	img, %rax
	movq	14136(%rax), %rax
	movslq	-36(%rbp), %rcx
	movq	(%rax,%rcx,8), %rax
	movslq	-12(%rbp), %rcx
	movq	(%rax,%rcx,8), %rax
	movq	(%rax), %rax
	movslq	-12(%rbp), %rcx
	movslq	-368(%rbp,%rcx,4), %rcx
	movl	$0, (%rax,%rcx,4)
# %bb.67:                               # %for.inc691
                                        #   in Loop: Header=BB7_65 Depth=1
	movl	-12(%rbp), %eax
	addl	$1, %eax
	movl	%eax, -12(%rbp)
	jmp	.LBB7_65
.LBB7_68:                               # %for.end693
	jmp	.LBB7_69
.LBB7_69:                               # %if.end694
	movl	$0, -12(%rbp)
.LBB7_70:                               # %for.cond695
                                        # =>This Inner Loop Header: Depth=1
	xorl	%eax, %eax
	cmpl	$8, -12(%rbp)
	jge	.LBB7_72
# %bb.71:                               # %land.rhs698
                                        #   in Loop: Header=BB7_70 Depth=1
	cmpl	$0, -32(%rbp)
	setne	%al
	xorb	$-1, %al
.LBB7_72:                               # %land.end701
                                        #   in Loop: Header=BB7_70 Depth=1
	testb	$1, %al
	jne	.LBB7_73
	jmp	.LBB7_75
.LBB7_73:                               # %for.body703
                                        #   in Loop: Header=BB7_70 Depth=1
	xorl	%eax, %eax
	movq	img, %rcx
	movslq	-12(%rbp), %rdx
	movl	13112(%rcx,%rdx,4), %ecx
	movq	img, %rdx
	movslq	-12(%rbp), %rsi
	addl	13368(%rdx,%rsi,4), %ecx
	movl	%ecx, -176(%rbp)
	movq	img, %rcx
	movslq	-12(%rbp), %rdx
	movl	13112(%rcx,%rdx,4), %ecx
	movq	img, %rdx
	movslq	-12(%rbp), %rsi
	subl	13368(%rdx,%rsi,4), %ecx
	movl	%ecx, -160(%rbp)
	movq	img, %rcx
	movslq	-12(%rbp), %rdx
	movl	13240(%rcx,%rdx,4), %ecx
	sarl	$1, %ecx
	movq	img, %rdx
	movslq	-12(%rbp), %rsi
	subl	13496(%rdx,%rsi,4), %ecx
	movl	%ecx, -168(%rbp)
	movq	img, %rcx
	movslq	-12(%rbp), %rdx
	movl	13240(%rcx,%rdx,4), %ecx
	movq	img, %rdx
	movslq	-12(%rbp), %rsi
	movl	13496(%rdx,%rsi,4), %edx
	sarl	$1, %edx
	addl	%edx, %ecx
	movl	%ecx, -152(%rbp)
	movl	-176(%rbp), %ecx
	addl	-152(%rbp), %ecx
	movl	%ecx, -304(%rbp)
	movl	-160(%rbp), %ecx
	addl	-168(%rbp), %ecx
	movl	%ecx, -296(%rbp)
	movl	-160(%rbp), %ecx
	subl	-168(%rbp), %ecx
	movl	%ecx, -288(%rbp)
	movl	-176(%rbp), %ecx
	subl	-152(%rbp), %ecx
	movl	%ecx, -280(%rbp)
	movq	img, %rcx
	movslq	-12(%rbp), %rdx
	xorl	%esi, %esi
	subl	13304(%rcx,%rdx,4), %esi
	movq	img, %rcx
	movslq	-12(%rbp), %rdx
	addl	13432(%rcx,%rdx,4), %esi
	movq	img, %rcx
	movslq	-12(%rbp), %rdx
	subl	13560(%rcx,%rdx,4), %esi
	movq	img, %rcx
	movslq	-12(%rbp), %rdx
	movl	13560(%rcx,%rdx,4), %ecx
	sarl	$1, %ecx
	subl	%ecx, %esi
	movl	%esi, -172(%rbp)
	movq	img, %rcx
	movslq	-12(%rbp), %rdx
	movl	13176(%rcx,%rdx,4), %ecx
	movq	img, %rdx
	movslq	-12(%rbp), %rsi
	addl	13560(%rdx,%rsi,4), %ecx
	movq	img, %rdx
	movslq	-12(%rbp), %rsi
	subl	13304(%rdx,%rsi,4), %ecx
	movq	img, %rdx
	movslq	-12(%rbp), %rsi
	movl	13304(%rdx,%rsi,4), %edx
	sarl	$1, %edx
	subl	%edx, %ecx
	movl	%ecx, -164(%rbp)
	movq	img, %rcx
	movslq	-12(%rbp), %rdx
	xorl	%esi, %esi
	subl	13176(%rcx,%rdx,4), %esi
	movq	img, %rcx
	movslq	-12(%rbp), %rdx
	addl	13560(%rcx,%rdx,4), %esi
	movq	img, %rcx
	movslq	-12(%rbp), %rdx
	addl	13432(%rcx,%rdx,4), %esi
	movq	img, %rcx
	movslq	-12(%rbp), %rdx
	movl	13432(%rcx,%rdx,4), %ecx
	sarl	$1, %ecx
	addl	%ecx, %esi
	movl	%esi, -156(%rbp)
	movq	img, %rcx
	movslq	-12(%rbp), %rdx
	movl	13304(%rcx,%rdx,4), %ecx
	movq	img, %rdx
	movslq	-12(%rbp), %rsi
	addl	13432(%rdx,%rsi,4), %ecx
	movq	img, %rdx
	movslq	-12(%rbp), %rsi
	addl	13176(%rdx,%rsi,4), %ecx
	movq	img, %rdx
	movslq	-12(%rbp), %rsi
	movl	13176(%rdx,%rsi,4), %edx
	sarl	$1, %edx
	addl	%edx, %ecx
	movl	%ecx, -148(%rbp)
	movl	-172(%rbp), %ecx
	movl	-148(%rbp), %edx
	sarl	$2, %edx
	addl	%edx, %ecx
	movl	%ecx, -300(%rbp)
	movl	-172(%rbp), %ecx
	sarl	$2, %ecx
	subl	%ecx, %eax
	addl	-148(%rbp), %eax
	movl	%eax, -276(%rbp)
	movl	-164(%rbp), %eax
	movl	-156(%rbp), %ecx
	sarl	$2, %ecx
	addl	%ecx, %eax
	movl	%eax, -292(%rbp)
	movl	-164(%rbp), %eax
	sarl	$2, %eax
	subl	-156(%rbp), %eax
	movl	%eax, -284(%rbp)
	movl	-304(%rbp), %eax
	addl	-276(%rbp), %eax
	movslq	-12(%rbp), %rcx
	movl	%eax, -672(%rbp,%rcx,4)
	movl	-296(%rbp), %eax
	addl	-284(%rbp), %eax
	movslq	-12(%rbp), %rcx
	movl	%eax, -640(%rbp,%rcx,4)
	movl	-288(%rbp), %eax
	addl	-292(%rbp), %eax
	movslq	-12(%rbp), %rcx
	movl	%eax, -608(%rbp,%rcx,4)
	movl	-280(%rbp), %eax
	addl	-300(%rbp), %eax
	movslq	-12(%rbp), %rcx
	movl	%eax, -576(%rbp,%rcx,4)
	movl	-280(%rbp), %eax
	subl	-300(%rbp), %eax
	movslq	-12(%rbp), %rcx
	movl	%eax, -544(%rbp,%rcx,4)
	movl	-288(%rbp), %eax
	subl	-292(%rbp), %eax
	movslq	-12(%rbp), %rcx
	movl	%eax, -512(%rbp,%rcx,4)
	movl	-296(%rbp), %eax
	subl	-284(%rbp), %eax
	movslq	-12(%rbp), %rcx
	movl	%eax, -480(%rbp,%rcx,4)
	movl	-304(%rbp), %eax
	subl	-276(%rbp), %eax
	movslq	-12(%rbp), %rcx
	movl	%eax, -448(%rbp,%rcx,4)
# %bb.74:                               # %for.inc919
                                        #   in Loop: Header=BB7_70 Depth=1
	movl	-12(%rbp), %eax
	addl	$1, %eax
	movl	%eax, -12(%rbp)
	jmp	.LBB7_70
.LBB7_75:                               # %for.end921
	movl	$0, -12(%rbp)
.LBB7_76:                               # %for.cond922
                                        # =>This Inner Loop Header: Depth=1
	xorl	%eax, %eax
	cmpl	$8, -12(%rbp)
	jge	.LBB7_78
# %bb.77:                               # %land.rhs925
                                        #   in Loop: Header=BB7_76 Depth=1
	cmpl	$0, -32(%rbp)
	setne	%al
	xorb	$-1, %al
.LBB7_78:                               # %land.end928
                                        #   in Loop: Header=BB7_76 Depth=1
	testb	$1, %al
	jne	.LBB7_79
	jmp	.LBB7_81
.LBB7_79:                               # %for.body930
                                        #   in Loop: Header=BB7_76 Depth=1
	xorl	%eax, %eax
	movslq	-12(%rbp), %rdx
	shlq	$5, %rdx
	leaq	-672(%rbp), %rcx
	movq	%rcx, %rsi
	addq	%rdx, %rsi
	movl	(%rsi), %edx
	movslq	-12(%rbp), %rsi
	shlq	$5, %rsi
	movq	%rcx, %rdi
	addq	%rsi, %rdi
	addl	16(%rdi), %edx
	movl	%edx, -272(%rbp)
	movslq	-12(%rbp), %rdx
	shlq	$5, %rdx
	movq	%rcx, %rsi
	addq	%rdx, %rsi
	movl	(%rsi), %edx
	movslq	-12(%rbp), %rsi
	shlq	$5, %rsi
	movq	%rcx, %rdi
	addq	%rsi, %rdi
	subl	16(%rdi), %edx
	movl	%edx, -256(%rbp)
	movslq	-12(%rbp), %rdx
	shlq	$5, %rdx
	movq	%rcx, %rsi
	addq	%rdx, %rsi
	movl	8(%rsi), %edx
	sarl	$1, %edx
	movslq	-12(%rbp), %rsi
	shlq	$5, %rsi
	movq	%rcx, %rdi
	addq	%rsi, %rdi
	subl	24(%rdi), %edx
	movl	%edx, -264(%rbp)
	movslq	-12(%rbp), %rdx
	shlq	$5, %rdx
	movq	%rcx, %rsi
	addq	%rdx, %rsi
	movl	8(%rsi), %edx
	movslq	-12(%rbp), %rsi
	shlq	$5, %rsi
	movq	%rcx, %rdi
	addq	%rsi, %rdi
	movl	24(%rdi), %esi
	sarl	$1, %esi
	addl	%esi, %edx
	movl	%edx, -248(%rbp)
	movl	-272(%rbp), %edx
	addl	-248(%rbp), %edx
	movl	%edx, -240(%rbp)
	movl	-256(%rbp), %edx
	addl	-264(%rbp), %edx
	movl	%edx, -232(%rbp)
	movl	-256(%rbp), %edx
	subl	-264(%rbp), %edx
	movl	%edx, -224(%rbp)
	movl	-272(%rbp), %edx
	subl	-248(%rbp), %edx
	movl	%edx, -216(%rbp)
	movslq	-12(%rbp), %rdx
	shlq	$5, %rdx
	movq	%rcx, %rsi
	addq	%rdx, %rsi
	xorl	%edx, %edx
	subl	12(%rsi), %edx
	movslq	-12(%rbp), %rsi
	shlq	$5, %rsi
	movq	%rcx, %rdi
	addq	%rsi, %rdi
	addl	20(%rdi), %edx
	movslq	-12(%rbp), %rsi
	shlq	$5, %rsi
	movq	%rcx, %rdi
	addq	%rsi, %rdi
	subl	28(%rdi), %edx
	movslq	-12(%rbp), %rsi
	shlq	$5, %rsi
	movq	%rcx, %rdi
	addq	%rsi, %rdi
	movl	28(%rdi), %esi
	sarl	$1, %esi
	subl	%esi, %edx
	movl	%edx, -268(%rbp)
	movslq	-12(%rbp), %rdx
	shlq	$5, %rdx
	movq	%rcx, %rsi
	addq	%rdx, %rsi
	movl	4(%rsi), %edx
	movslq	-12(%rbp), %rsi
	shlq	$5, %rsi
	movq	%rcx, %rdi
	addq	%rsi, %rdi
	addl	28(%rdi), %edx
	movslq	-12(%rbp), %rsi
	shlq	$5, %rsi
	movq	%rcx, %rdi
	addq	%rsi, %rdi
	subl	12(%rdi), %edx
	movslq	-12(%rbp), %rsi
	shlq	$5, %rsi
	movq	%rcx, %rdi
	addq	%rsi, %rdi
	movl	12(%rdi), %esi
	sarl	$1, %esi
	subl	%esi, %edx
	movl	%edx, -260(%rbp)
	movslq	-12(%rbp), %rdx
	shlq	$5, %rdx
	movq	%rcx, %rsi
	addq	%rdx, %rsi
	xorl	%edx, %edx
	subl	4(%rsi), %edx
	movslq	-12(%rbp), %rsi
	shlq	$5, %rsi
	movq	%rcx, %rdi
	addq	%rsi, %rdi
	addl	28(%rdi), %edx
	movslq	-12(%rbp), %rsi
	shlq	$5, %rsi
	movq	%rcx, %rdi
	addq	%rsi, %rdi
	addl	20(%rdi), %edx
	movslq	-12(%rbp), %rsi
	shlq	$5, %rsi
	movq	%rcx, %rdi
	addq	%rsi, %rdi
	movl	20(%rdi), %esi
	sarl	$1, %esi
	addl	%esi, %edx
	movl	%edx, -252(%rbp)
	movslq	-12(%rbp), %rdx
	shlq	$5, %rdx
	movq	%rcx, %rsi
	addq	%rdx, %rsi
	movl	12(%rsi), %edx
	movslq	-12(%rbp), %rsi
	shlq	$5, %rsi
	movq	%rcx, %rdi
	addq	%rsi, %rdi
	addl	20(%rdi), %edx
	movslq	-12(%rbp), %rsi
	shlq	$5, %rsi
	movq	%rcx, %rdi
	addq	%rsi, %rdi
	addl	4(%rdi), %edx
	movslq	-12(%rbp), %rsi
	shlq	$5, %rsi
	addq	%rsi, %rcx
	movl	4(%rcx), %ecx
	sarl	$1, %ecx
	addl	%ecx, %edx
	movl	%edx, -244(%rbp)
	movl	-268(%rbp), %ecx
	movl	-244(%rbp), %edx
	sarl	$2, %edx
	addl	%edx, %ecx
	movl	%ecx, -236(%rbp)
	movl	-268(%rbp), %ecx
	sarl	$2, %ecx
	subl	%ecx, %eax
	addl	-244(%rbp), %eax
	movl	%eax, -212(%rbp)
	movl	-260(%rbp), %eax
	movl	-252(%rbp), %ecx
	sarl	$2, %ecx
	addl	%ecx, %eax
	movl	%eax, -228(%rbp)
	movl	-260(%rbp), %eax
	sarl	$2, %eax
	subl	-252(%rbp), %eax
	movl	%eax, -220(%rbp)
	movl	-240(%rbp), %eax
	addl	-212(%rbp), %eax
	movq	img, %rcx
	addq	$13112, %rcx            # imm = 0x3338
	movslq	-12(%rbp), %rdx
	shlq	$6, %rdx
	addq	%rdx, %rcx
	movl	%eax, (%rcx)
	movl	-232(%rbp), %eax
	addl	-220(%rbp), %eax
	movq	img, %rcx
	addq	$13112, %rcx            # imm = 0x3338
	movslq	-12(%rbp), %rdx
	shlq	$6, %rdx
	addq	%rdx, %rcx
	movl	%eax, 4(%rcx)
	movl	-224(%rbp), %eax
	addl	-228(%rbp), %eax
	movq	img, %rcx
	addq	$13112, %rcx            # imm = 0x3338
	movslq	-12(%rbp), %rdx
	shlq	$6, %rdx
	addq	%rdx, %rcx
	movl	%eax, 8(%rcx)
	movl	-216(%rbp), %eax
	addl	-236(%rbp), %eax
	movq	img, %rcx
	addq	$13112, %rcx            # imm = 0x3338
	movslq	-12(%rbp), %rdx
	shlq	$6, %rdx
	addq	%rdx, %rcx
	movl	%eax, 12(%rcx)
	movl	-216(%rbp), %eax
	subl	-236(%rbp), %eax
	movq	img, %rcx
	addq	$13112, %rcx            # imm = 0x3338
	movslq	-12(%rbp), %rdx
	shlq	$6, %rdx
	addq	%rdx, %rcx
	movl	%eax, 16(%rcx)
	movl	-224(%rbp), %eax
	subl	-228(%rbp), %eax
	movq	img, %rcx
	addq	$13112, %rcx            # imm = 0x3338
	movslq	-12(%rbp), %rdx
	shlq	$6, %rdx
	addq	%rdx, %rcx
	movl	%eax, 20(%rcx)
	movl	-232(%rbp), %eax
	subl	-220(%rbp), %eax
	movq	img, %rcx
	addq	$13112, %rcx            # imm = 0x3338
	movslq	-12(%rbp), %rdx
	shlq	$6, %rdx
	addq	%rdx, %rcx
	movl	%eax, 24(%rcx)
	movl	-240(%rbp), %eax
	subl	-212(%rbp), %eax
	movq	img, %rcx
	addq	$13112, %rcx            # imm = 0x3338
	movslq	-12(%rbp), %rdx
	shlq	$6, %rdx
	addq	%rdx, %rcx
	movl	%eax, 28(%rcx)
# %bb.80:                               # %for.inc1130
                                        #   in Loop: Header=BB7_76 Depth=1
	movl	-12(%rbp), %eax
	addl	$1, %eax
	movl	%eax, -12(%rbp)
	jmp	.LBB7_76
.LBB7_81:                               # %for.end1132
	movl	$0, -12(%rbp)
.LBB7_82:                               # %for.cond1133
                                        # =>This Loop Header: Depth=1
                                        #     Child Loop BB7_84 Depth 2
	cmpl	$8, -12(%rbp)
	jge	.LBB7_104
# %bb.83:                               # %for.body1136
                                        #   in Loop: Header=BB7_82 Depth=1
	movl	$0, -16(%rbp)
.LBB7_84:                               # %for.cond1137
                                        #   Parent Loop BB7_82 Depth=1
                                        # =>  This Inner Loop Header: Depth=2
	cmpl	$8, -16(%rbp)
	jge	.LBB7_102
# %bb.85:                               # %for.body1140
                                        #   in Loop: Header=BB7_84 Depth=2
	cmpl	$0, -32(%rbp)
	je	.LBB7_87
# %bb.86:                               # %if.then1142
                                        #   in Loop: Header=BB7_84 Depth=2
	movq	img, %rax
	addq	$13112, %rax            # imm = 0x3338
	movslq	-12(%rbp), %rcx
	shlq	$6, %rcx
	addq	%rcx, %rax
	movslq	-16(%rbp), %rcx
	movl	(%rax,%rcx,4), %eax
	movq	img, %rcx
	addq	$12600, %rcx            # imm = 0x3138
	movl	-12(%rbp), %edx
	addl	-40(%rbp), %edx
	movslq	%edx, %rdx
	shlq	$5, %rdx
	addq	%rdx, %rcx
	movl	-16(%rbp), %edx
	addl	-44(%rbp), %edx
	movslq	%edx, %rdx
	movzwl	(%rcx,%rdx,2), %ecx
	addl	%ecx, %eax
	movq	img, %rcx
	addq	$13112, %rcx            # imm = 0x3338
	movslq	-12(%rbp), %rdx
	shlq	$6, %rdx
	addq	%rdx, %rcx
	movslq	-16(%rbp), %rdx
	movl	%eax, (%rcx,%rdx,4)
	jmp	.LBB7_100
.LBB7_87:                               # %if.else1161
                                        #   in Loop: Header=BB7_84 Depth=2
	movq	img, %rax
	cmpl	$0, 72724(%rax)
	jne	.LBB7_98
# %bb.88:                               # %if.then1163
                                        #   in Loop: Header=BB7_84 Depth=2
	xorl	%ecx, %ecx
	movq	img, %rax
	movslq	72684(%rax), %rax
	movq	img, %rdx
	addq	$13112, %rdx            # imm = 0x3338
	movslq	-12(%rbp), %rsi
	shlq	$6, %rsi
	addq	%rsi, %rdx
	movslq	-16(%rbp), %rsi
	movslq	(%rdx,%rsi,4), %rdx
	movq	img, %rsi
	addq	$12600, %rsi            # imm = 0x3138
	movl	-12(%rbp), %edi
	addl	-40(%rbp), %edi
	movslq	%edi, %rdi
	shlq	$5, %rdi
	addq	%rdi, %rsi
	movl	-16(%rbp), %edi
	addl	-44(%rbp), %edi
	movslq	%edi, %rdi
	movzwl	(%rsi,%rdi,2), %esi
	shlq	$6, %rsi
	addq	%rsi, %rdx
	addq	$32, %rdx
	sarq	$6, %rdx
	cmpq	%rdx, %rcx
	jle	.LBB7_90
# %bb.89:                               # %cond.true
                                        #   in Loop: Header=BB7_84 Depth=2
	xorl	%ecx, %ecx
	jmp	.LBB7_91
.LBB7_90:                               # %cond.false
                                        #   in Loop: Header=BB7_84 Depth=2
	movq	img, %rcx
	addq	$13112, %rcx            # imm = 0x3338
	movslq	-12(%rbp), %rdx
	shlq	$6, %rdx
	addq	%rdx, %rcx
	movslq	-16(%rbp), %rdx
	movslq	(%rcx,%rdx,4), %rcx
	movq	img, %rdx
	addq	$12600, %rdx            # imm = 0x3138
	movl	-12(%rbp), %esi
	addl	-40(%rbp), %esi
	movslq	%esi, %rsi
	shlq	$5, %rsi
	addq	%rsi, %rdx
	movl	-16(%rbp), %esi
	addl	-44(%rbp), %esi
	movslq	%esi, %rsi
	movzwl	(%rdx,%rsi,2), %edx
	shlq	$6, %rdx
	addq	%rdx, %rcx
	addq	$32, %rcx
	sarq	$6, %rcx
.LBB7_91:                               # %cond.end
                                        #   in Loop: Header=BB7_84 Depth=2
	cmpq	%rcx, %rax
	jge	.LBB7_93
# %bb.92:                               # %cond.true1205
                                        #   in Loop: Header=BB7_84 Depth=2
	movq	img, %rax
	movslq	72684(%rax), %rax
	jmp	.LBB7_97
.LBB7_93:                               # %cond.false1208
                                        #   in Loop: Header=BB7_84 Depth=2
	xorl	%eax, %eax
	movq	img, %rcx
	addq	$13112, %rcx            # imm = 0x3338
	movslq	-12(%rbp), %rdx
	shlq	$6, %rdx
	addq	%rdx, %rcx
	movslq	-16(%rbp), %rdx
	movslq	(%rcx,%rdx,4), %rcx
	movq	img, %rdx
	addq	$12600, %rdx            # imm = 0x3138
	movl	-12(%rbp), %esi
	addl	-40(%rbp), %esi
	movslq	%esi, %rsi
	shlq	$5, %rsi
	addq	%rsi, %rdx
	movl	-16(%rbp), %esi
	addl	-44(%rbp), %esi
	movslq	%esi, %rsi
	movzwl	(%rdx,%rsi,2), %edx
	shlq	$6, %rdx
	addq	%rdx, %rcx
	addq	$32, %rcx
	sarq	$6, %rcx
	cmpq	%rcx, %rax
	jle	.LBB7_95
# %bb.94:                               # %cond.true1229
                                        #   in Loop: Header=BB7_84 Depth=2
	xorl	%eax, %eax
	jmp	.LBB7_96
.LBB7_95:                               # %cond.false1230
                                        #   in Loop: Header=BB7_84 Depth=2
	movq	img, %rax
	addq	$13112, %rax            # imm = 0x3338
	movslq	-12(%rbp), %rcx
	shlq	$6, %rcx
	addq	%rcx, %rax
	movslq	-16(%rbp), %rcx
	movslq	(%rax,%rcx,4), %rax
	movq	img, %rcx
	addq	$12600, %rcx            # imm = 0x3138
	movl	-12(%rbp), %edx
	addl	-40(%rbp), %edx
	movslq	%edx, %rdx
	shlq	$5, %rdx
	addq	%rdx, %rcx
	movl	-16(%rbp), %edx
	addl	-44(%rbp), %edx
	movslq	%edx, %rdx
	movzwl	(%rcx,%rdx,2), %ecx
	shlq	$6, %rcx
	addq	%rcx, %rax
	addq	$32, %rax
	sarq	$6, %rax
.LBB7_96:                               # %cond.end1249
                                        #   in Loop: Header=BB7_84 Depth=2
.LBB7_97:                               # %cond.end1251
                                        #   in Loop: Header=BB7_84 Depth=2
	movq	img, %rcx
	addq	$13112, %rcx            # imm = 0x3338
	movslq	-12(%rbp), %rdx
	shlq	$6, %rdx
	addq	%rdx, %rcx
	movslq	-16(%rbp), %rdx
	movl	%eax, (%rcx,%rdx,4)
	jmp	.LBB7_99
.LBB7_98:                               # %if.else1259
                                        #   in Loop: Header=BB7_84 Depth=2
	movq	img, %rax
	addq	$13112, %rax            # imm = 0x3338
	movslq	-12(%rbp), %rcx
	shlq	$6, %rcx
	addq	%rcx, %rax
	movslq	-16(%rbp), %rcx
	movl	(%rax,%rcx,4), %eax
	addl	$32, %eax
	sarl	$6, %eax
	movq	img, %rcx
	addq	$13112, %rcx            # imm = 0x3338
	movslq	-12(%rbp), %rdx
	shlq	$6, %rdx
	addq	%rdx, %rcx
	movslq	-16(%rbp), %rdx
	movl	%eax, (%rcx,%rdx,4)
.LBB7_99:                               # %if.end1272
                                        #   in Loop: Header=BB7_84 Depth=2
	jmp	.LBB7_100
.LBB7_100:                              # %if.end1273
                                        #   in Loop: Header=BB7_84 Depth=2
	jmp	.LBB7_101
.LBB7_101:                              # %for.inc1274
                                        #   in Loop: Header=BB7_84 Depth=2
	movl	-16(%rbp), %eax
	addl	$1, %eax
	movl	%eax, -16(%rbp)
	jmp	.LBB7_84
.LBB7_102:                              # %for.end1276
                                        #   in Loop: Header=BB7_82 Depth=1
	jmp	.LBB7_103
.LBB7_103:                              # %for.inc1277
                                        #   in Loop: Header=BB7_82 Depth=1
	movl	-12(%rbp), %eax
	addl	$1, %eax
	movl	%eax, -12(%rbp)
	jmp	.LBB7_82
.LBB7_104:                              # %for.end1279
	movq	img, %rax
	cmpl	$0, 72724(%rax)
	jne	.LBB7_114
# %bb.105:                              # %if.then1282
	movl	$0, -16(%rbp)
.LBB7_106:                              # %for.cond1283
                                        # =>This Loop Header: Depth=1
                                        #     Child Loop BB7_108 Depth 2
	cmpl	$8, -16(%rbp)
	jge	.LBB7_113
# %bb.107:                              # %for.body1286
                                        #   in Loop: Header=BB7_106 Depth=1
	movl	$0, -12(%rbp)
.LBB7_108:                              # %for.cond1287
                                        #   Parent Loop BB7_106 Depth=1
                                        # =>  This Inner Loop Header: Depth=2
	cmpl	$8, -12(%rbp)
	jge	.LBB7_111
# %bb.109:                              # %for.body1290
                                        #   in Loop: Header=BB7_108 Depth=2
	movq	img, %rax
	addq	$13112, %rax            # imm = 0x3338
	movslq	-12(%rbp), %rcx
	shlq	$6, %rcx
	addq	%rcx, %rax
	movslq	-16(%rbp), %rcx
	movl	(%rax,%rcx,4), %eax
	movq	enc_picture, %rcx
	movq	6424(%rcx), %rcx
	movq	img, %rdx
	movl	156(%rdx), %edx
	addl	-44(%rbp), %edx
	addl	-16(%rbp), %edx
	movslq	%edx, %rdx
	movq	(%rcx,%rdx,8), %rcx
	movq	img, %rdx
	movl	152(%rdx), %edx
	addl	-40(%rbp), %edx
	addl	-12(%rbp), %edx
	movslq	%edx, %rdx
	movw	%ax, (%rcx,%rdx,2)
# %bb.110:                              # %for.inc1305
                                        #   in Loop: Header=BB7_108 Depth=2
	movl	-12(%rbp), %eax
	addl	$1, %eax
	movl	%eax, -12(%rbp)
	jmp	.LBB7_108
.LBB7_111:                              # %for.end1307
                                        #   in Loop: Header=BB7_106 Depth=1
	jmp	.LBB7_112
.LBB7_112:                              # %for.inc1308
                                        #   in Loop: Header=BB7_106 Depth=1
	movl	-16(%rbp), %eax
	addl	$1, %eax
	movl	%eax, -16(%rbp)
	jmp	.LBB7_106
.LBB7_113:                              # %for.end1310
	jmp	.LBB7_114
.LBB7_114:                              # %if.end1311
	movl	-340(%rbp), %ebx
	cmpl	$302012183, -396(%rbp)  # imm = 0x12005717
	jne	.LBB7_116
.LBB7_115:
	movl	%ebx, %eax
	addq	$664, %rsp              # imm = 0x298
	popq	%rbx
	popq	%rbp
	.cfi_def_cfa %rsp, 8
	retq
.LBB7_116:                              # %func_exit
	.cfi_def_cfa %rbp, 16
	callq	detect_breach
	jmp	.LBB7_115
.Lfunc_end7:
	.size	dct_luma8x8.2, .Lfunc_end7-dct_luma8x8.2
	.cfi_endproc
                                        # -- End function
	.globl	dct_luma8x8.3           # -- Begin function dct_luma8x8.3
	.p2align	4, 0x90
	.type	dct_luma8x8.3,@function
dct_luma8x8.3:                          # @dct_luma8x8.3
	.cfi_startproc
# %bb.0:                                # %entry
	pushq	%rbp
	.cfi_def_cfa_offset 16
	.cfi_offset %rbp, -16
	movq	%rsp, %rbp
	.cfi_def_cfa_register %rbp
	pushq	%rbx
	subq	$664, %rsp              # imm = 0x298
	.cfi_offset %rbx, -24
	xorl	%ecx, %ecx
	movl	$283779726, -396(%rbp)  # imm = 0x10EA228E
	movl	%edi, -36(%rbp)
	movq	%rsi, -352(%rbp)
	movl	%edx, -344(%rbp)
	movl	$0, -132(%rbp)
	movl	$0, -136(%rbp)
	movl	$0, -140(%rbp)
	movl	-36(%rbp), %eax
	cltd
	movl	$2, %esi
	idivl	%esi
	shll	$3, %edx
	movl	%edx, -40(%rbp)
	movl	-36(%rbp), %eax
	cltd
	idivl	%esi
	shll	$3, %eax
	movl	%eax, -52(%rbp)
	movq	img, %rax
	movq	14136(%rax), %rax
	movslq	-36(%rbp), %rdx
	movq	(%rax,%rdx,8), %rax
	movq	(%rax), %rax
	movq	(%rax), %rax
	movq	%rax, -408(%rbp)
	movq	img, %rax
	movq	14136(%rax), %rax
	movslq	-36(%rbp), %rdx
	movq	(%rax,%rdx,8), %rax
	movq	(%rax), %rax
	movq	8(%rax), %rax
	movq	%rax, -416(%rbp)
	movq	img, %rax
	movq	14168(%rax), %rax
	movq	img, %rdx
	movslq	12(%rdx), %rdx
	imulq	$632, %rdx, %rdx        # imm = 0x278
	addq	%rdx, %rax
	movq	%rax, -392(%rbp)
	movq	img, %rax
	movl	40(%rax), %eax
	movq	img, %rdx
	addl	72668(%rdx), %eax
	cmpl	$0, %eax
	jne	.LBB8_2
# %bb.1:                                # %land.rhs
	movq	img, %rax
	cmpl	$1, 72704(%rax)
	sete	%cl
.LBB8_2:                                # %land.end
	andb	$1, %cl
	movzbl	%cl, %eax
	movl	%eax, -32(%rbp)
	movq	img, %rax
	movl	40(%rax), %eax
	movq	img, %rcx
	addl	72668(%rcx), %eax
	subl	$0, %eax
	cltd
	movl	$6, %ecx
	idivl	%ecx
	movl	%eax, -28(%rbp)
	movq	img, %rax
	movl	40(%rax), %eax
	movq	img, %rdx
	addl	72668(%rdx), %eax
	subl	$0, %eax
	cltd
	idivl	%ecx
	movl	%edx, -48(%rbp)
	movl	-28(%rbp), %eax
	addl	$16, %eax
	movl	%eax, -64(%rbp)
	cmpl	$6, -28(%rbp)
	jge	.LBB8_4
# %bb.3:                                # %if.then
	movl	$6, %eax
	subl	-28(%rbp), %eax
	movl	%eax, -136(%rbp)
	movl	$5, %ecx
	subl	-28(%rbp), %ecx
                                        # kill: def $cl killed $ecx
	movl	$1, %eax
	shll	%cl, %eax
	movl	%eax, -140(%rbp)
	jmp	.LBB8_5
.LBB8_4:                                # %if.else
	movl	-28(%rbp), %eax
	subl	$6, %eax
	movl	%eax, -132(%rbp)
.LBB8_5:                                # %if.end
	movq	img, %rax
	cmpl	$2, 24(%rax)
	jne	.LBB8_7
# %bb.6:                                # %if.then27
	movl	-64(%rbp), %ecx
                                        # kill: def $cl killed $ecx
	movl	$1, %eax
	shll	%cl, %eax
	cltd
	movl	$3, %ecx
	idivl	%ecx
	movl	%eax, -400(%rbp)
	jmp	.LBB8_8
.LBB8_7:                                # %if.else30
	movl	-64(%rbp), %ecx
                                        # kill: def $cl killed $ecx
	movl	$1, %eax
	shll	%cl, %eax
	cltd
	movl	$6, %ecx
	idivl	%ecx
	movl	%eax, -400(%rbp)
.LBB8_8:                                # %if.end33
	movl	$0, -12(%rbp)
.LBB8_9:                                # %for.cond
                                        # =>This Inner Loop Header: Depth=1
	xorl	%eax, %eax
	cmpl	$8, -12(%rbp)
	jge	.LBB8_11
# %bb.10:                               # %land.rhs35
                                        #   in Loop: Header=BB8_9 Depth=1
	cmpl	$0, -32(%rbp)
	setne	%al
	xorb	$-1, %al
.LBB8_11:                               # %land.end36
                                        #   in Loop: Header=BB8_9 Depth=1
	testb	$1, %al
	jne	.LBB8_12
	jmp	.LBB8_14
.LBB8_12:                               # %for.body
                                        #   in Loop: Header=BB8_9 Depth=1
	xorl	%eax, %eax
	movq	img, %rcx
	movslq	-12(%rbp), %rdx
	movl	13112(%rcx,%rdx,4), %ecx
	movq	img, %rdx
	movslq	-12(%rbp), %rsi
	addl	13560(%rdx,%rsi,4), %ecx
	movl	%ecx, -96(%rbp)
	movq	img, %rcx
	movslq	-12(%rbp), %rdx
	movl	13176(%rcx,%rdx,4), %ecx
	movq	img, %rdx
	movslq	-12(%rbp), %rsi
	addl	13496(%rdx,%rsi,4), %ecx
	movl	%ecx, -92(%rbp)
	movq	img, %rcx
	movslq	-12(%rbp), %rdx
	movl	13240(%rcx,%rdx,4), %ecx
	movq	img, %rdx
	movslq	-12(%rbp), %rsi
	addl	13432(%rdx,%rsi,4), %ecx
	movl	%ecx, -88(%rbp)
	movq	img, %rcx
	movslq	-12(%rbp), %rdx
	movl	13304(%rcx,%rdx,4), %ecx
	movq	img, %rdx
	movslq	-12(%rbp), %rsi
	addl	13368(%rdx,%rsi,4), %ecx
	movl	%ecx, -84(%rbp)
	movl	-96(%rbp), %ecx
	addl	-84(%rbp), %ecx
	movl	%ecx, -336(%rbp)
	movl	-92(%rbp), %ecx
	addl	-88(%rbp), %ecx
	movl	%ecx, -332(%rbp)
	movl	-96(%rbp), %ecx
	subl	-84(%rbp), %ecx
	movl	%ecx, -328(%rbp)
	movl	-92(%rbp), %ecx
	subl	-88(%rbp), %ecx
	movl	%ecx, -324(%rbp)
	movq	img, %rcx
	movslq	-12(%rbp), %rdx
	movl	13112(%rcx,%rdx,4), %ecx
	movq	img, %rdx
	movslq	-12(%rbp), %rsi
	subl	13560(%rdx,%rsi,4), %ecx
	movl	%ecx, -80(%rbp)
	movq	img, %rcx
	movslq	-12(%rbp), %rdx
	movl	13176(%rcx,%rdx,4), %ecx
	movq	img, %rdx
	movslq	-12(%rbp), %rsi
	subl	13496(%rdx,%rsi,4), %ecx
	movl	%ecx, -76(%rbp)
	movq	img, %rcx
	movslq	-12(%rbp), %rdx
	movl	13240(%rcx,%rdx,4), %ecx
	movq	img, %rdx
	movslq	-12(%rbp), %rsi
	subl	13432(%rdx,%rsi,4), %ecx
	movl	%ecx, -72(%rbp)
	movq	img, %rcx
	movslq	-12(%rbp), %rdx
	movl	13304(%rcx,%rdx,4), %ecx
	movq	img, %rdx
	movslq	-12(%rbp), %rsi
	subl	13368(%rdx,%rsi,4), %ecx
	movl	%ecx, -68(%rbp)
	movl	-76(%rbp), %ecx
	addl	-72(%rbp), %ecx
	movl	-80(%rbp), %edx
	sarl	$1, %edx
	addl	-80(%rbp), %edx
	addl	%edx, %ecx
	movl	%ecx, -320(%rbp)
	movl	-80(%rbp), %ecx
	subl	-68(%rbp), %ecx
	movl	-72(%rbp), %edx
	sarl	$1, %edx
	addl	-72(%rbp), %edx
	subl	%edx, %ecx
	movl	%ecx, -316(%rbp)
	movl	-80(%rbp), %ecx
	addl	-68(%rbp), %ecx
	movl	-76(%rbp), %edx
	sarl	$1, %edx
	addl	-76(%rbp), %edx
	subl	%edx, %ecx
	movl	%ecx, -312(%rbp)
	movl	-76(%rbp), %ecx
	subl	-72(%rbp), %ecx
	movl	-68(%rbp), %edx
	sarl	$1, %edx
	addl	-68(%rbp), %edx
	addl	%edx, %ecx
	movl	%ecx, -308(%rbp)
	movl	-336(%rbp), %ecx
	addl	-332(%rbp), %ecx
	movslq	-12(%rbp), %rdx
	movl	%ecx, -672(%rbp,%rdx,4)
	movl	-328(%rbp), %ecx
	movl	-324(%rbp), %edx
	sarl	$1, %edx
	addl	%edx, %ecx
	movslq	-12(%rbp), %rdx
	movl	%ecx, -608(%rbp,%rdx,4)
	movl	-336(%rbp), %ecx
	subl	-332(%rbp), %ecx
	movslq	-12(%rbp), %rdx
	movl	%ecx, -544(%rbp,%rdx,4)
	movl	-328(%rbp), %ecx
	sarl	$1, %ecx
	subl	-324(%rbp), %ecx
	movslq	-12(%rbp), %rdx
	movl	%ecx, -480(%rbp,%rdx,4)
	movl	-320(%rbp), %ecx
	movl	-308(%rbp), %edx
	sarl	$2, %edx
	addl	%edx, %ecx
	movslq	-12(%rbp), %rdx
	movl	%ecx, -640(%rbp,%rdx,4)
	movl	-316(%rbp), %ecx
	movl	-312(%rbp), %edx
	sarl	$2, %edx
	addl	%edx, %ecx
	movslq	-12(%rbp), %rdx
	movl	%ecx, -576(%rbp,%rdx,4)
	movl	-312(%rbp), %ecx
	movl	-316(%rbp), %edx
	sarl	$2, %edx
	subl	%edx, %ecx
	movslq	-12(%rbp), %rdx
	movl	%ecx, -512(%rbp,%rdx,4)
	subl	-308(%rbp), %eax
	movl	-320(%rbp), %ecx
	sarl	$2, %ecx
	addl	%ecx, %eax
	movslq	-12(%rbp), %rcx
	movl	%eax, -448(%rbp,%rcx,4)
# %bb.13:                               # %for.inc
                                        #   in Loop: Header=BB8_9 Depth=1
	movl	-12(%rbp), %eax
	addl	$1, %eax
	movl	%eax, -12(%rbp)
	jmp	.LBB8_9
.LBB8_14:                               # %for.end
	movl	$0, -12(%rbp)
.LBB8_15:                               # %for.cond223
                                        # =>This Inner Loop Header: Depth=1
	xorl	%eax, %eax
	cmpl	$8, -12(%rbp)
	jge	.LBB8_17
# %bb.16:                               # %land.rhs225
                                        #   in Loop: Header=BB8_15 Depth=1
	cmpl	$0, -32(%rbp)
	setne	%al
	xorb	$-1, %al
.LBB8_17:                               # %land.end228
                                        #   in Loop: Header=BB8_15 Depth=1
	testb	$1, %al
	jne	.LBB8_18
	jmp	.LBB8_20
.LBB8_18:                               # %for.body230
                                        #   in Loop: Header=BB8_15 Depth=1
	xorl	%eax, %eax
	movslq	-12(%rbp), %rdx
	shlq	$5, %rdx
	leaq	-672(%rbp), %rcx
	movq	%rcx, %rsi
	addq	%rdx, %rsi
	movl	(%rsi), %edx
	movslq	-12(%rbp), %rsi
	shlq	$5, %rsi
	movq	%rcx, %rdi
	addq	%rsi, %rdi
	addl	28(%rdi), %edx
	movl	%edx, -128(%rbp)
	movslq	-12(%rbp), %rdx
	shlq	$5, %rdx
	movq	%rcx, %rsi
	addq	%rdx, %rsi
	movl	4(%rsi), %edx
	movslq	-12(%rbp), %rsi
	shlq	$5, %rsi
	movq	%rcx, %rdi
	addq	%rsi, %rdi
	addl	24(%rdi), %edx
	movl	%edx, -124(%rbp)
	movslq	-12(%rbp), %rdx
	shlq	$5, %rdx
	movq	%rcx, %rsi
	addq	%rdx, %rsi
	movl	8(%rsi), %edx
	movslq	-12(%rbp), %rsi
	shlq	$5, %rsi
	movq	%rcx, %rdi
	addq	%rsi, %rdi
	addl	20(%rdi), %edx
	movl	%edx, -120(%rbp)
	movslq	-12(%rbp), %rdx
	shlq	$5, %rdx
	movq	%rcx, %rsi
	addq	%rdx, %rsi
	movl	12(%rsi), %edx
	movslq	-12(%rbp), %rsi
	shlq	$5, %rsi
	movq	%rcx, %rdi
	addq	%rsi, %rdi
	addl	16(%rdi), %edx
	movl	%edx, -116(%rbp)
	movl	-128(%rbp), %edx
	addl	-116(%rbp), %edx
	movl	%edx, -304(%rbp)
	movl	-124(%rbp), %edx
	addl	-120(%rbp), %edx
	movl	%edx, -300(%rbp)
	movl	-128(%rbp), %edx
	subl	-116(%rbp), %edx
	movl	%edx, -296(%rbp)
	movl	-124(%rbp), %edx
	subl	-120(%rbp), %edx
	movl	%edx, -292(%rbp)
	movslq	-12(%rbp), %rdx
	shlq	$5, %rdx
	movq	%rcx, %rsi
	addq	%rdx, %rsi
	movl	(%rsi), %edx
	movslq	-12(%rbp), %rsi
	shlq	$5, %rsi
	movq	%rcx, %rdi
	addq	%rsi, %rdi
	subl	28(%rdi), %edx
	movl	%edx, -112(%rbp)
	movslq	-12(%rbp), %rdx
	shlq	$5, %rdx
	movq	%rcx, %rsi
	addq	%rdx, %rsi
	movl	4(%rsi), %edx
	movslq	-12(%rbp), %rsi
	shlq	$5, %rsi
	movq	%rcx, %rdi
	addq	%rsi, %rdi
	subl	24(%rdi), %edx
	movl	%edx, -108(%rbp)
	movslq	-12(%rbp), %rdx
	shlq	$5, %rdx
	movq	%rcx, %rsi
	addq	%rdx, %rsi
	movl	8(%rsi), %edx
	movslq	-12(%rbp), %rsi
	shlq	$5, %rsi
	movq	%rcx, %rdi
	addq	%rsi, %rdi
	subl	20(%rdi), %edx
	movl	%edx, -104(%rbp)
	movslq	-12(%rbp), %rdx
	shlq	$5, %rdx
	movq	%rcx, %rsi
	addq	%rdx, %rsi
	movl	12(%rsi), %edx
	movslq	-12(%rbp), %rsi
	shlq	$5, %rsi
	addq	%rsi, %rcx
	subl	16(%rcx), %edx
	movl	%edx, -100(%rbp)
	movl	-108(%rbp), %ecx
	addl	-104(%rbp), %ecx
	movl	-112(%rbp), %edx
	sarl	$1, %edx
	addl	-112(%rbp), %edx
	addl	%edx, %ecx
	movl	%ecx, -288(%rbp)
	movl	-112(%rbp), %ecx
	subl	-100(%rbp), %ecx
	movl	-104(%rbp), %edx
	sarl	$1, %edx
	addl	-104(%rbp), %edx
	subl	%edx, %ecx
	movl	%ecx, -284(%rbp)
	movl	-112(%rbp), %ecx
	addl	-100(%rbp), %ecx
	movl	-108(%rbp), %edx
	sarl	$1, %edx
	addl	-108(%rbp), %edx
	subl	%edx, %ecx
	movl	%ecx, -280(%rbp)
	movl	-108(%rbp), %ecx
	subl	-104(%rbp), %ecx
	movl	-100(%rbp), %edx
	sarl	$1, %edx
	addl	-100(%rbp), %edx
	addl	%edx, %ecx
	movl	%ecx, -276(%rbp)
	movl	-304(%rbp), %ecx
	addl	-300(%rbp), %ecx
	movq	img, %rdx
	addq	$13112, %rdx            # imm = 0x3338
	movslq	-12(%rbp), %rsi
	shlq	$6, %rsi
	addq	%rsi, %rdx
	movl	%ecx, (%rdx)
	movl	-296(%rbp), %ecx
	movl	-292(%rbp), %edx
	sarl	$1, %edx
	addl	%edx, %ecx
	movq	img, %rdx
	addq	$13112, %rdx            # imm = 0x3338
	movslq	-12(%rbp), %rsi
	shlq	$6, %rsi
	addq	%rsi, %rdx
	movl	%ecx, 8(%rdx)
	movl	-304(%rbp), %ecx
	subl	-300(%rbp), %ecx
	movq	img, %rdx
	addq	$13112, %rdx            # imm = 0x3338
	movslq	-12(%rbp), %rsi
	shlq	$6, %rsi
	addq	%rsi, %rdx
	movl	%ecx, 16(%rdx)
	movl	-296(%rbp), %ecx
	sarl	$1, %ecx
	subl	-292(%rbp), %ecx
	movq	img, %rdx
	addq	$13112, %rdx            # imm = 0x3338
	movslq	-12(%rbp), %rsi
	shlq	$6, %rsi
	addq	%rsi, %rdx
	movl	%ecx, 24(%rdx)
	movl	-288(%rbp), %ecx
	movl	-276(%rbp), %edx
	sarl	$2, %edx
	addl	%edx, %ecx
	movq	img, %rdx
	addq	$13112, %rdx            # imm = 0x3338
	movslq	-12(%rbp), %rsi
	shlq	$6, %rsi
	addq	%rsi, %rdx
	movl	%ecx, 4(%rdx)
	movl	-284(%rbp), %ecx
	movl	-280(%rbp), %edx
	sarl	$2, %edx
	addl	%edx, %ecx
	movq	img, %rdx
	addq	$13112, %rdx            # imm = 0x3338
	movslq	-12(%rbp), %rsi
	shlq	$6, %rsi
	addq	%rsi, %rdx
	movl	%ecx, 12(%rdx)
	movl	-280(%rbp), %ecx
	movl	-284(%rbp), %edx
	sarl	$2, %edx
	subl	%edx, %ecx
	movq	img, %rdx
	addq	$13112, %rdx            # imm = 0x3338
	movslq	-12(%rbp), %rsi
	shlq	$6, %rsi
	addq	%rsi, %rdx
	movl	%ecx, 20(%rdx)
	subl	-276(%rbp), %eax
	movl	-288(%rbp), %ecx
	sarl	$2, %ecx
	addl	%ecx, %eax
	movq	img, %rcx
	addq	$13112, %rcx            # imm = 0x3338
	movslq	-12(%rbp), %rdx
	shlq	$6, %rdx
	addq	%rdx, %rcx
	movl	%eax, 28(%rcx)
# %bb.19:                               # %for.inc412
                                        #   in Loop: Header=BB8_15 Depth=1
	movl	-12(%rbp), %eax
	addl	$1, %eax
	movl	%eax, -12(%rbp)
	jmp	.LBB8_15
.LBB8_20:                               # %for.end414
	movl	$0, -340(%rbp)
	movl	$-1, -56(%rbp)
	movl	$0, -60(%rbp)
	movl	$-1, -356(%rbp)
	movl	$-1, -360(%rbp)
	movl	$-1, -364(%rbp)
	movl	$-1, -368(%rbp)
	movl	$0, -372(%rbp)
	movl	$0, -376(%rbp)
	movl	$0, -380(%rbp)
	movl	$0, -384(%rbp)
	movl	$0, -20(%rbp)
.LBB8_21:                               # %for.cond423
                                        # =>This Inner Loop Header: Depth=1
	cmpl	$64, -20(%rbp)
	jge	.LBB8_61
# %bb.22:                               # %for.body425
                                        #   in Loop: Header=BB8_21 Depth=1
	movq	img, %rax
	cmpl	$0, 72444(%rax)
	jne	.LBB8_25
# %bb.23:                               # %lor.lhs.false
                                        #   in Loop: Header=BB8_21 Depth=1
	movq	img, %rax
	cmpl	$0, 72400(%rax)
	je	.LBB8_26
# %bb.24:                               # %land.lhs.true
                                        #   in Loop: Header=BB8_21 Depth=1
	movq	-392(%rbp), %rax
	cmpl	$0, 532(%rax)
	je	.LBB8_26
.LBB8_25:                               # %if.then429
                                        #   in Loop: Header=BB8_21 Depth=1
	movslq	-20(%rbp), %rax
	movzbl	FIELD_SCAN8x8(,%rax,2), %eax
	movl	%eax, -12(%rbp)
	movslq	-20(%rbp), %rax
	movzbl	FIELD_SCAN8x8+1(,%rax,2), %eax
	movl	%eax, -16(%rbp)
	jmp	.LBB8_27
.LBB8_26:                               # %if.else437
                                        #   in Loop: Header=BB8_21 Depth=1
	movslq	-20(%rbp), %rax
	movzbl	SNGL_SCAN8x8(,%rax,2), %eax
	movl	%eax, -12(%rbp)
	movslq	-20(%rbp), %rax
	movzbl	SNGL_SCAN8x8+1(,%rax,2), %eax
	movl	%eax, -16(%rbp)
.LBB8_27:                               # %if.end446
                                        #   in Loop: Header=BB8_21 Depth=1
	movl	-56(%rbp), %eax
	addl	$1, %eax
	movl	%eax, -56(%rbp)
	movl	$0, -44(%rbp)
	movl	-20(%rbp), %eax
	andl	$3, %eax
	cltq
	movl	-368(%rbp,%rax,4), %ecx
	addl	$1, %ecx
	movl	%ecx, -368(%rbp,%rax,4)
	cmpl	$0, -32(%rbp)
	je	.LBB8_29
# %bb.28:                               # %if.then452
                                        #   in Loop: Header=BB8_21 Depth=1
	movq	img, %rax
	addq	$13112, %rax            # imm = 0x3338
	movslq	-12(%rbp), %rcx
	shlq	$6, %rcx
	addq	%rcx, %rax
	movslq	-16(%rbp), %rcx
	movl	(%rax,%rcx,4), %edi
	callq	abs
	movl	%eax, -24(%rbp)
	jmp	.LBB8_33
.LBB8_29:                               # %if.else458
                                        #   in Loop: Header=BB8_21 Depth=1
	cmpl	$1, -344(%rbp)
	jne	.LBB8_31
# %bb.30:                               # %if.then461
                                        #   in Loop: Header=BB8_21 Depth=1
	movq	img, %rax
	addq	$13112, %rax            # imm = 0x3338
	movslq	-12(%rbp), %rcx
	shlq	$6, %rcx
	addq	%rcx, %rax
	movslq	-16(%rbp), %rcx
	movl	(%rax,%rcx,4), %edi
	callq	abs
	movslq	-48(%rbp), %rcx
	shlq	$8, %rcx
	movabsq	$LevelScale8x8Luma_Intra, %rdx
	addq	%rcx, %rdx
	movslq	-12(%rbp), %rcx
	shlq	$5, %rcx
	addq	%rcx, %rdx
	movslq	-16(%rbp), %rcx
	imull	(%rdx,%rcx,4), %eax
	movslq	-28(%rbp), %rcx
	shlq	$8, %rcx
	movabsq	$LevelOffset8x8Luma_Intra, %rdx
	addq	%rcx, %rdx
	movslq	-12(%rbp), %rcx
	shlq	$5, %rcx
	addq	%rcx, %rdx
	movslq	-16(%rbp), %rcx
	addl	(%rdx,%rcx,4), %eax
	movl	-64(%rbp), %ecx
                                        # kill: def $cl killed $ecx
	sarl	%cl, %eax
	movl	%eax, -24(%rbp)
	jmp	.LBB8_32
.LBB8_31:                               # %if.else483
                                        #   in Loop: Header=BB8_21 Depth=1
	movq	img, %rax
	addq	$13112, %rax            # imm = 0x3338
	movslq	-12(%rbp), %rcx
	shlq	$6, %rcx
	addq	%rcx, %rax
	movslq	-16(%rbp), %rcx
	movl	(%rax,%rcx,4), %edi
	callq	abs
	movslq	-48(%rbp), %rcx
	shlq	$8, %rcx
	movabsq	$LevelScale8x8Luma_Inter, %rdx
	addq	%rcx, %rdx
	movslq	-12(%rbp), %rcx
	shlq	$5, %rcx
	addq	%rcx, %rdx
	movslq	-16(%rbp), %rcx
	imull	(%rdx,%rcx,4), %eax
	movslq	-28(%rbp), %rcx
	shlq	$8, %rcx
	movabsq	$LevelOffset8x8Luma_Inter, %rdx
	addq	%rcx, %rdx
	movslq	-12(%rbp), %rcx
	shlq	$5, %rcx
	addq	%rcx, %rdx
	movslq	-16(%rbp), %rcx
	addl	(%rdx,%rcx,4), %eax
	movl	-64(%rbp), %ecx
                                        # kill: def $cl killed $ecx
	sarl	%cl, %eax
	movl	%eax, -24(%rbp)
.LBB8_32:                               # %if.end505
                                        #   in Loop: Header=BB8_21 Depth=1
	jmp	.LBB8_33
.LBB8_33:                               # %if.end506
                                        #   in Loop: Header=BB8_21 Depth=1
	cmpl	$0, -24(%rbp)
	je	.LBB8_57
# %bb.34:                               # %if.then509
                                        #   in Loop: Header=BB8_21 Depth=1
	movl	$1, -340(%rbp)
	movq	-392(%rbp), %rax
	cmpl	$0, 572(%rax)
	je	.LBB8_40
# %bb.35:                               # %land.lhs.true511
                                        #   in Loop: Header=BB8_21 Depth=1
	movq	input, %rax
	cmpl	$0, 2356(%rax)
	jne	.LBB8_40
# %bb.36:                               # %if.then514
                                        #   in Loop: Header=BB8_21 Depth=1
	cmpl	$1, -24(%rbp)
	jle	.LBB8_38
# %bb.37:                               # %if.then517
                                        #   in Loop: Header=BB8_21 Depth=1
	movq	-352(%rbp), %rax
	movl	(%rax), %ecx
	addl	$999999, %ecx           # imm = 0xF423F
	movl	%ecx, (%rax)
	jmp	.LBB8_39
.LBB8_38:                               # %if.else519
                                        #   in Loop: Header=BB8_21 Depth=1
	movabsq	$COEFF_COST8x8, %rax
	movq	input, %rcx
	movslq	2468(%rcx), %rcx
	shlq	$6, %rcx
	addq	%rcx, %rax
	movl	-20(%rbp), %ecx
	andl	$3, %ecx
	movslq	%ecx, %rcx
	movslq	-368(%rbp,%rcx,4), %rcx
	movzbl	(%rax,%rcx), %eax
	movq	-352(%rbp), %rcx
	addl	(%rcx), %eax
	movl	%eax, (%rcx)
.LBB8_39:                               # %if.end529
                                        #   in Loop: Header=BB8_21 Depth=1
	movl	-24(%rbp), %edi
	movq	img, %rax
	addq	$13112, %rax            # imm = 0x3338
	movslq	-12(%rbp), %rcx
	shlq	$6, %rcx
	addq	%rcx, %rax
	movslq	-16(%rbp), %rcx
	movl	(%rax,%rcx,4), %esi
	callq	sign
	movq	img, %rcx
	movq	14136(%rcx), %rcx
	movslq	-36(%rbp), %rdx
	movq	(%rcx,%rdx,8), %rcx
	movl	-20(%rbp), %edx
	andl	$3, %edx
	movslq	%edx, %rdx
	movq	(%rcx,%rdx,8), %rcx
	movq	(%rcx), %rcx
	movl	-20(%rbp), %edx
	andl	$3, %edx
	movslq	%edx, %rdx
	movslq	-384(%rbp,%rdx,4), %rdx
	movl	%eax, (%rcx,%rdx,4)
	movl	-20(%rbp), %eax
	andl	$3, %eax
	cltq
	movl	-368(%rbp,%rax,4), %eax
	movq	img, %rcx
	movq	14136(%rcx), %rcx
	movslq	-36(%rbp), %rdx
	movq	(%rcx,%rdx,8), %rcx
	movl	-20(%rbp), %edx
	andl	$3, %edx
	movslq	%edx, %rdx
	movq	(%rcx,%rdx,8), %rcx
	movq	8(%rcx), %rcx
	movl	-20(%rbp), %edx
	andl	$3, %edx
	movslq	%edx, %rdx
	movslq	-384(%rbp,%rdx,4), %rdx
	movl	%eax, (%rcx,%rdx,4)
	movl	-20(%rbp), %eax
	andl	$3, %eax
	cltq
	movl	-384(%rbp,%rax,4), %ecx
	addl	$1, %ecx
	movl	%ecx, -384(%rbp,%rax,4)
	movl	-20(%rbp), %eax
	andl	$3, %eax
	cltq
	movl	$-1, -368(%rbp,%rax,4)
	jmp	.LBB8_44
.LBB8_40:                               # %if.else570
                                        #   in Loop: Header=BB8_21 Depth=1
	cmpl	$1, -24(%rbp)
	jle	.LBB8_42
# %bb.41:                               # %if.then573
                                        #   in Loop: Header=BB8_21 Depth=1
	movq	-352(%rbp), %rax
	movl	(%rax), %ecx
	addl	$999999, %ecx           # imm = 0xF423F
	movl	%ecx, (%rax)
	jmp	.LBB8_43
.LBB8_42:                               # %if.else575
                                        #   in Loop: Header=BB8_21 Depth=1
	movabsq	$COEFF_COST8x8, %rax
	movq	input, %rcx
	movslq	2468(%rcx), %rcx
	shlq	$6, %rcx
	addq	%rcx, %rax
	movslq	-56(%rbp), %rcx
	movzbl	(%rax,%rcx), %eax
	movq	-352(%rbp), %rcx
	addl	(%rcx), %eax
	movl	%eax, (%rcx)
.LBB8_43:                               # %if.end583
                                        #   in Loop: Header=BB8_21 Depth=1
	movl	-24(%rbp), %edi
	movq	img, %rax
	addq	$13112, %rax            # imm = 0x3338
	movslq	-12(%rbp), %rcx
	shlq	$6, %rcx
	addq	%rcx, %rax
	movslq	-16(%rbp), %rcx
	movl	(%rax,%rcx,4), %esi
	callq	sign
	movq	-408(%rbp), %rcx
	movslq	-60(%rbp), %rdx
	movl	%eax, (%rcx,%rdx,4)
	movl	-56(%rbp), %eax
	movq	-416(%rbp), %rcx
	movslq	-60(%rbp), %rdx
	movl	%eax, (%rcx,%rdx,4)
	movl	-60(%rbp), %eax
	addl	$1, %eax
	movl	%eax, -60(%rbp)
	movl	$-1, -56(%rbp)
.LBB8_44:                               # %if.end595
                                        #   in Loop: Header=BB8_21 Depth=1
	movl	-24(%rbp), %edi
	movq	img, %rax
	addq	$13112, %rax            # imm = 0x3338
	movslq	-12(%rbp), %rcx
	shlq	$6, %rcx
	addq	%rcx, %rax
	movslq	-16(%rbp), %rcx
	movl	(%rax,%rcx,4), %esi
	callq	sign
	movl	%eax, -24(%rbp)
	cmpl	$0, -32(%rbp)
	je	.LBB8_46
# %bb.45:                               # %if.then603
                                        #   in Loop: Header=BB8_21 Depth=1
	movl	-24(%rbp), %eax
	movl	%eax, -44(%rbp)
	jmp	.LBB8_56
.LBB8_46:                               # %if.else604
                                        #   in Loop: Header=BB8_21 Depth=1
	cmpl	$1, -344(%rbp)
	jne	.LBB8_51
# %bb.47:                               # %if.then607
                                        #   in Loop: Header=BB8_21 Depth=1
	cmpl	$6, -28(%rbp)
	jl	.LBB8_49
# %bb.48:                               # %if.then610
                                        #   in Loop: Header=BB8_21 Depth=1
	movl	-24(%rbp), %eax
	movslq	-48(%rbp), %rcx
	shlq	$8, %rcx
	movabsq	$InvLevelScale8x8Luma_Intra, %rdx
	addq	%rcx, %rdx
	movslq	-12(%rbp), %rcx
	shlq	$5, %rcx
	addq	%rcx, %rdx
	movslq	-16(%rbp), %rcx
	imull	(%rdx,%rcx,4), %eax
	movl	-132(%rbp), %ecx
                                        # kill: def $cl killed $ecx
	shll	%cl, %eax
	movl	%eax, -44(%rbp)
	jmp	.LBB8_50
.LBB8_49:                               # %if.else619
                                        #   in Loop: Header=BB8_21 Depth=1
	movl	-24(%rbp), %eax
	movslq	-48(%rbp), %rcx
	shlq	$8, %rcx
	movabsq	$InvLevelScale8x8Luma_Intra, %rdx
	addq	%rcx, %rdx
	movslq	-12(%rbp), %rcx
	shlq	$5, %rcx
	addq	%rcx, %rdx
	movslq	-16(%rbp), %rcx
	imull	(%rdx,%rcx,4), %eax
	addl	-140(%rbp), %eax
	movl	-136(%rbp), %ecx
                                        # kill: def $cl killed $ecx
	sarl	%cl, %eax
	movl	%eax, -44(%rbp)
.LBB8_50:                               # %if.end629
                                        #   in Loop: Header=BB8_21 Depth=1
	jmp	.LBB8_55
.LBB8_51:                               # %if.else630
                                        #   in Loop: Header=BB8_21 Depth=1
	cmpl	$6, -28(%rbp)
	jl	.LBB8_53
# %bb.52:                               # %if.then633
                                        #   in Loop: Header=BB8_21 Depth=1
	movl	-24(%rbp), %eax
	movslq	-48(%rbp), %rcx
	shlq	$8, %rcx
	movabsq	$InvLevelScale8x8Luma_Inter, %rdx
	addq	%rcx, %rdx
	movslq	-12(%rbp), %rcx
	shlq	$5, %rcx
	addq	%rcx, %rdx
	movslq	-16(%rbp), %rcx
	imull	(%rdx,%rcx,4), %eax
	movl	-132(%rbp), %ecx
                                        # kill: def $cl killed $ecx
	shll	%cl, %eax
	movl	%eax, -44(%rbp)
	jmp	.LBB8_54
.LBB8_53:                               # %if.else642
                                        #   in Loop: Header=BB8_21 Depth=1
	movl	-24(%rbp), %eax
	movslq	-48(%rbp), %rcx
	shlq	$8, %rcx
	movabsq	$InvLevelScale8x8Luma_Inter, %rdx
	addq	%rcx, %rdx
	movslq	-12(%rbp), %rcx
	shlq	$5, %rcx
	addq	%rcx, %rdx
	movslq	-16(%rbp), %rcx
	imull	(%rdx,%rcx,4), %eax
	addl	-140(%rbp), %eax
	movl	-136(%rbp), %ecx
                                        # kill: def $cl killed $ecx
	sarl	%cl, %eax
	movl	%eax, -44(%rbp)
.LBB8_54:                               # %if.end652
                                        #   in Loop: Header=BB8_21 Depth=1
	jmp	.LBB8_55
.LBB8_55:                               # %if.end653
                                        #   in Loop: Header=BB8_21 Depth=1
	jmp	.LBB8_56
.LBB8_56:                               # %if.end654
                                        #   in Loop: Header=BB8_21 Depth=1
	jmp	.LBB8_57
.LBB8_57:                               # %if.end655
                                        #   in Loop: Header=BB8_21 Depth=1
	cmpl	$0, -32(%rbp)
	jne	.LBB8_59
# %bb.58:                               # %if.then657
                                        #   in Loop: Header=BB8_21 Depth=1
	movl	-44(%rbp), %eax
	movq	img, %rcx
	addq	$13112, %rcx            # imm = 0x3338
	movslq	-12(%rbp), %rdx
	shlq	$6, %rdx
	addq	%rdx, %rcx
	movslq	-16(%rbp), %rdx
	movl	%eax, (%rcx,%rdx,4)
.LBB8_59:                               # %if.end663
                                        #   in Loop: Header=BB8_21 Depth=1
	jmp	.LBB8_60
.LBB8_60:                               # %for.inc664
                                        #   in Loop: Header=BB8_21 Depth=1
	movl	-20(%rbp), %eax
	addl	$1, %eax
	movl	%eax, -20(%rbp)
	jmp	.LBB8_21
.LBB8_61:                               # %for.end666
	movq	-392(%rbp), %rax
	cmpl	$0, 572(%rax)
	je	.LBB8_63
# %bb.62:                               # %lor.lhs.false669
	movq	input, %rax
	cmpl	$0, 2356(%rax)
	je	.LBB8_64
.LBB8_63:                               # %if.then673
	movq	-408(%rbp), %rax
	movslq	-60(%rbp), %rcx
	movl	$0, (%rax,%rcx,4)
	jmp	.LBB8_69
.LBB8_64:                               # %if.else676
	movl	$0, -12(%rbp)
.LBB8_65:                               # %for.cond677
                                        # =>This Inner Loop Header: Depth=1
	cmpl	$4, -12(%rbp)
	jge	.LBB8_68
# %bb.66:                               # %for.body680
                                        #   in Loop: Header=BB8_65 Depth=1
	movq	img, %rax
	movq	14136(%rax), %rax
	movslq	-36(%rbp), %rcx
	movq	(%rax,%rcx,8), %rax
	movslq	-12(%rbp), %rcx
	movq	(%rax,%rcx,8), %rax
	movq	(%rax), %rax
	movslq	-12(%rbp), %rcx
	movslq	-384(%rbp,%rcx,4), %rcx
	movl	$0, (%rax,%rcx,4)
# %bb.67:                               # %for.inc691
                                        #   in Loop: Header=BB8_65 Depth=1
	movl	-12(%rbp), %eax
	addl	$1, %eax
	movl	%eax, -12(%rbp)
	jmp	.LBB8_65
.LBB8_68:                               # %for.end693
	jmp	.LBB8_69
.LBB8_69:                               # %if.end694
	movl	$0, -12(%rbp)
.LBB8_70:                               # %for.cond695
                                        # =>This Inner Loop Header: Depth=1
	xorl	%eax, %eax
	cmpl	$8, -12(%rbp)
	jge	.LBB8_72
# %bb.71:                               # %land.rhs698
                                        #   in Loop: Header=BB8_70 Depth=1
	cmpl	$0, -32(%rbp)
	setne	%al
	xorb	$-1, %al
.LBB8_72:                               # %land.end701
                                        #   in Loop: Header=BB8_70 Depth=1
	testb	$1, %al
	jne	.LBB8_73
	jmp	.LBB8_75
.LBB8_73:                               # %for.body703
                                        #   in Loop: Header=BB8_70 Depth=1
	xorl	%eax, %eax
	movq	img, %rcx
	movslq	-12(%rbp), %rdx
	movl	13112(%rcx,%rdx,4), %ecx
	movq	img, %rdx
	movslq	-12(%rbp), %rsi
	addl	13368(%rdx,%rsi,4), %ecx
	movl	%ecx, -176(%rbp)
	movq	img, %rcx
	movslq	-12(%rbp), %rdx
	movl	13112(%rcx,%rdx,4), %ecx
	movq	img, %rdx
	movslq	-12(%rbp), %rsi
	subl	13368(%rdx,%rsi,4), %ecx
	movl	%ecx, -160(%rbp)
	movq	img, %rcx
	movslq	-12(%rbp), %rdx
	movl	13240(%rcx,%rdx,4), %ecx
	sarl	$1, %ecx
	movq	img, %rdx
	movslq	-12(%rbp), %rsi
	subl	13496(%rdx,%rsi,4), %ecx
	movl	%ecx, -168(%rbp)
	movq	img, %rcx
	movslq	-12(%rbp), %rdx
	movl	13240(%rcx,%rdx,4), %ecx
	movq	img, %rdx
	movslq	-12(%rbp), %rsi
	movl	13496(%rdx,%rsi,4), %edx
	sarl	$1, %edx
	addl	%edx, %ecx
	movl	%ecx, -152(%rbp)
	movl	-176(%rbp), %ecx
	addl	-152(%rbp), %ecx
	movl	%ecx, -240(%rbp)
	movl	-160(%rbp), %ecx
	addl	-168(%rbp), %ecx
	movl	%ecx, -232(%rbp)
	movl	-160(%rbp), %ecx
	subl	-168(%rbp), %ecx
	movl	%ecx, -224(%rbp)
	movl	-176(%rbp), %ecx
	subl	-152(%rbp), %ecx
	movl	%ecx, -216(%rbp)
	movq	img, %rcx
	movslq	-12(%rbp), %rdx
	xorl	%esi, %esi
	subl	13304(%rcx,%rdx,4), %esi
	movq	img, %rcx
	movslq	-12(%rbp), %rdx
	addl	13432(%rcx,%rdx,4), %esi
	movq	img, %rcx
	movslq	-12(%rbp), %rdx
	subl	13560(%rcx,%rdx,4), %esi
	movq	img, %rcx
	movslq	-12(%rbp), %rdx
	movl	13560(%rcx,%rdx,4), %ecx
	sarl	$1, %ecx
	subl	%ecx, %esi
	movl	%esi, -172(%rbp)
	movq	img, %rcx
	movslq	-12(%rbp), %rdx
	movl	13176(%rcx,%rdx,4), %ecx
	movq	img, %rdx
	movslq	-12(%rbp), %rsi
	addl	13560(%rdx,%rsi,4), %ecx
	movq	img, %rdx
	movslq	-12(%rbp), %rsi
	subl	13304(%rdx,%rsi,4), %ecx
	movq	img, %rdx
	movslq	-12(%rbp), %rsi
	movl	13304(%rdx,%rsi,4), %edx
	sarl	$1, %edx
	subl	%edx, %ecx
	movl	%ecx, -164(%rbp)
	movq	img, %rcx
	movslq	-12(%rbp), %rdx
	xorl	%esi, %esi
	subl	13176(%rcx,%rdx,4), %esi
	movq	img, %rcx
	movslq	-12(%rbp), %rdx
	addl	13560(%rcx,%rdx,4), %esi
	movq	img, %rcx
	movslq	-12(%rbp), %rdx
	addl	13432(%rcx,%rdx,4), %esi
	movq	img, %rcx
	movslq	-12(%rbp), %rdx
	movl	13432(%rcx,%rdx,4), %ecx
	sarl	$1, %ecx
	addl	%ecx, %esi
	movl	%esi, -156(%rbp)
	movq	img, %rcx
	movslq	-12(%rbp), %rdx
	movl	13304(%rcx,%rdx,4), %ecx
	movq	img, %rdx
	movslq	-12(%rbp), %rsi
	addl	13432(%rdx,%rsi,4), %ecx
	movq	img, %rdx
	movslq	-12(%rbp), %rsi
	addl	13176(%rdx,%rsi,4), %ecx
	movq	img, %rdx
	movslq	-12(%rbp), %rsi
	movl	13176(%rdx,%rsi,4), %edx
	sarl	$1, %edx
	addl	%edx, %ecx
	movl	%ecx, -148(%rbp)
	movl	-172(%rbp), %ecx
	movl	-148(%rbp), %edx
	sarl	$2, %edx
	addl	%edx, %ecx
	movl	%ecx, -236(%rbp)
	movl	-172(%rbp), %ecx
	sarl	$2, %ecx
	subl	%ecx, %eax
	addl	-148(%rbp), %eax
	movl	%eax, -212(%rbp)
	movl	-164(%rbp), %eax
	movl	-156(%rbp), %ecx
	sarl	$2, %ecx
	addl	%ecx, %eax
	movl	%eax, -228(%rbp)
	movl	-164(%rbp), %eax
	sarl	$2, %eax
	subl	-156(%rbp), %eax
	movl	%eax, -220(%rbp)
	movl	-240(%rbp), %eax
	addl	-212(%rbp), %eax
	movslq	-12(%rbp), %rcx
	movl	%eax, -672(%rbp,%rcx,4)
	movl	-232(%rbp), %eax
	addl	-220(%rbp), %eax
	movslq	-12(%rbp), %rcx
	movl	%eax, -640(%rbp,%rcx,4)
	movl	-224(%rbp), %eax
	addl	-228(%rbp), %eax
	movslq	-12(%rbp), %rcx
	movl	%eax, -608(%rbp,%rcx,4)
	movl	-216(%rbp), %eax
	addl	-236(%rbp), %eax
	movslq	-12(%rbp), %rcx
	movl	%eax, -576(%rbp,%rcx,4)
	movl	-216(%rbp), %eax
	subl	-236(%rbp), %eax
	movslq	-12(%rbp), %rcx
	movl	%eax, -544(%rbp,%rcx,4)
	movl	-224(%rbp), %eax
	subl	-228(%rbp), %eax
	movslq	-12(%rbp), %rcx
	movl	%eax, -512(%rbp,%rcx,4)
	movl	-232(%rbp), %eax
	subl	-220(%rbp), %eax
	movslq	-12(%rbp), %rcx
	movl	%eax, -480(%rbp,%rcx,4)
	movl	-240(%rbp), %eax
	subl	-212(%rbp), %eax
	movslq	-12(%rbp), %rcx
	movl	%eax, -448(%rbp,%rcx,4)
# %bb.74:                               # %for.inc919
                                        #   in Loop: Header=BB8_70 Depth=1
	movl	-12(%rbp), %eax
	addl	$1, %eax
	movl	%eax, -12(%rbp)
	jmp	.LBB8_70
.LBB8_75:                               # %for.end921
	movl	$0, -12(%rbp)
.LBB8_76:                               # %for.cond922
                                        # =>This Inner Loop Header: Depth=1
	xorl	%eax, %eax
	cmpl	$8, -12(%rbp)
	jge	.LBB8_78
# %bb.77:                               # %land.rhs925
                                        #   in Loop: Header=BB8_76 Depth=1
	cmpl	$0, -32(%rbp)
	setne	%al
	xorb	$-1, %al
.LBB8_78:                               # %land.end928
                                        #   in Loop: Header=BB8_76 Depth=1
	testb	$1, %al
	jne	.LBB8_79
	jmp	.LBB8_81
.LBB8_79:                               # %for.body930
                                        #   in Loop: Header=BB8_76 Depth=1
	xorl	%eax, %eax
	movslq	-12(%rbp), %rdx
	shlq	$5, %rdx
	leaq	-672(%rbp), %rcx
	movq	%rcx, %rsi
	addq	%rdx, %rsi
	movl	(%rsi), %edx
	movslq	-12(%rbp), %rsi
	shlq	$5, %rsi
	movq	%rcx, %rdi
	addq	%rsi, %rdi
	addl	16(%rdi), %edx
	movl	%edx, -272(%rbp)
	movslq	-12(%rbp), %rdx
	shlq	$5, %rdx
	movq	%rcx, %rsi
	addq	%rdx, %rsi
	movl	(%rsi), %edx
	movslq	-12(%rbp), %rsi
	shlq	$5, %rsi
	movq	%rcx, %rdi
	addq	%rsi, %rdi
	subl	16(%rdi), %edx
	movl	%edx, -256(%rbp)
	movslq	-12(%rbp), %rdx
	shlq	$5, %rdx
	movq	%rcx, %rsi
	addq	%rdx, %rsi
	movl	8(%rsi), %edx
	sarl	$1, %edx
	movslq	-12(%rbp), %rsi
	shlq	$5, %rsi
	movq	%rcx, %rdi
	addq	%rsi, %rdi
	subl	24(%rdi), %edx
	movl	%edx, -264(%rbp)
	movslq	-12(%rbp), %rdx
	shlq	$5, %rdx
	movq	%rcx, %rsi
	addq	%rdx, %rsi
	movl	8(%rsi), %edx
	movslq	-12(%rbp), %rsi
	shlq	$5, %rsi
	movq	%rcx, %rdi
	addq	%rsi, %rdi
	movl	24(%rdi), %esi
	sarl	$1, %esi
	addl	%esi, %edx
	movl	%edx, -248(%rbp)
	movl	-272(%rbp), %edx
	addl	-248(%rbp), %edx
	movl	%edx, -208(%rbp)
	movl	-256(%rbp), %edx
	addl	-264(%rbp), %edx
	movl	%edx, -200(%rbp)
	movl	-256(%rbp), %edx
	subl	-264(%rbp), %edx
	movl	%edx, -192(%rbp)
	movl	-272(%rbp), %edx
	subl	-248(%rbp), %edx
	movl	%edx, -184(%rbp)
	movslq	-12(%rbp), %rdx
	shlq	$5, %rdx
	movq	%rcx, %rsi
	addq	%rdx, %rsi
	xorl	%edx, %edx
	subl	12(%rsi), %edx
	movslq	-12(%rbp), %rsi
	shlq	$5, %rsi
	movq	%rcx, %rdi
	addq	%rsi, %rdi
	addl	20(%rdi), %edx
	movslq	-12(%rbp), %rsi
	shlq	$5, %rsi
	movq	%rcx, %rdi
	addq	%rsi, %rdi
	subl	28(%rdi), %edx
	movslq	-12(%rbp), %rsi
	shlq	$5, %rsi
	movq	%rcx, %rdi
	addq	%rsi, %rdi
	movl	28(%rdi), %esi
	sarl	$1, %esi
	subl	%esi, %edx
	movl	%edx, -268(%rbp)
	movslq	-12(%rbp), %rdx
	shlq	$5, %rdx
	movq	%rcx, %rsi
	addq	%rdx, %rsi
	movl	4(%rsi), %edx
	movslq	-12(%rbp), %rsi
	shlq	$5, %rsi
	movq	%rcx, %rdi
	addq	%rsi, %rdi
	addl	28(%rdi), %edx
	movslq	-12(%rbp), %rsi
	shlq	$5, %rsi
	movq	%rcx, %rdi
	addq	%rsi, %rdi
	subl	12(%rdi), %edx
	movslq	-12(%rbp), %rsi
	shlq	$5, %rsi
	movq	%rcx, %rdi
	addq	%rsi, %rdi
	movl	12(%rdi), %esi
	sarl	$1, %esi
	subl	%esi, %edx
	movl	%edx, -260(%rbp)
	movslq	-12(%rbp), %rdx
	shlq	$5, %rdx
	movq	%rcx, %rsi
	addq	%rdx, %rsi
	xorl	%edx, %edx
	subl	4(%rsi), %edx
	movslq	-12(%rbp), %rsi
	shlq	$5, %rsi
	movq	%rcx, %rdi
	addq	%rsi, %rdi
	addl	28(%rdi), %edx
	movslq	-12(%rbp), %rsi
	shlq	$5, %rsi
	movq	%rcx, %rdi
	addq	%rsi, %rdi
	addl	20(%rdi), %edx
	movslq	-12(%rbp), %rsi
	shlq	$5, %rsi
	movq	%rcx, %rdi
	addq	%rsi, %rdi
	movl	20(%rdi), %esi
	sarl	$1, %esi
	addl	%esi, %edx
	movl	%edx, -252(%rbp)
	movslq	-12(%rbp), %rdx
	shlq	$5, %rdx
	movq	%rcx, %rsi
	addq	%rdx, %rsi
	movl	12(%rsi), %edx
	movslq	-12(%rbp), %rsi
	shlq	$5, %rsi
	movq	%rcx, %rdi
	addq	%rsi, %rdi
	addl	20(%rdi), %edx
	movslq	-12(%rbp), %rsi
	shlq	$5, %rsi
	movq	%rcx, %rdi
	addq	%rsi, %rdi
	addl	4(%rdi), %edx
	movslq	-12(%rbp), %rsi
	shlq	$5, %rsi
	addq	%rsi, %rcx
	movl	4(%rcx), %ecx
	sarl	$1, %ecx
	addl	%ecx, %edx
	movl	%edx, -244(%rbp)
	movl	-268(%rbp), %ecx
	movl	-244(%rbp), %edx
	sarl	$2, %edx
	addl	%edx, %ecx
	movl	%ecx, -204(%rbp)
	movl	-268(%rbp), %ecx
	sarl	$2, %ecx
	subl	%ecx, %eax
	addl	-244(%rbp), %eax
	movl	%eax, -180(%rbp)
	movl	-260(%rbp), %eax
	movl	-252(%rbp), %ecx
	sarl	$2, %ecx
	addl	%ecx, %eax
	movl	%eax, -196(%rbp)
	movl	-260(%rbp), %eax
	sarl	$2, %eax
	subl	-252(%rbp), %eax
	movl	%eax, -188(%rbp)
	movl	-208(%rbp), %eax
	addl	-180(%rbp), %eax
	movq	img, %rcx
	addq	$13112, %rcx            # imm = 0x3338
	movslq	-12(%rbp), %rdx
	shlq	$6, %rdx
	addq	%rdx, %rcx
	movl	%eax, (%rcx)
	movl	-200(%rbp), %eax
	addl	-188(%rbp), %eax
	movq	img, %rcx
	addq	$13112, %rcx            # imm = 0x3338
	movslq	-12(%rbp), %rdx
	shlq	$6, %rdx
	addq	%rdx, %rcx
	movl	%eax, 4(%rcx)
	movl	-192(%rbp), %eax
	addl	-196(%rbp), %eax
	movq	img, %rcx
	addq	$13112, %rcx            # imm = 0x3338
	movslq	-12(%rbp), %rdx
	shlq	$6, %rdx
	addq	%rdx, %rcx
	movl	%eax, 8(%rcx)
	movl	-184(%rbp), %eax
	addl	-204(%rbp), %eax
	movq	img, %rcx
	addq	$13112, %rcx            # imm = 0x3338
	movslq	-12(%rbp), %rdx
	shlq	$6, %rdx
	addq	%rdx, %rcx
	movl	%eax, 12(%rcx)
	movl	-184(%rbp), %eax
	subl	-204(%rbp), %eax
	movq	img, %rcx
	addq	$13112, %rcx            # imm = 0x3338
	movslq	-12(%rbp), %rdx
	shlq	$6, %rdx
	addq	%rdx, %rcx
	movl	%eax, 16(%rcx)
	movl	-192(%rbp), %eax
	subl	-196(%rbp), %eax
	movq	img, %rcx
	addq	$13112, %rcx            # imm = 0x3338
	movslq	-12(%rbp), %rdx
	shlq	$6, %rdx
	addq	%rdx, %rcx
	movl	%eax, 20(%rcx)
	movl	-200(%rbp), %eax
	subl	-188(%rbp), %eax
	movq	img, %rcx
	addq	$13112, %rcx            # imm = 0x3338
	movslq	-12(%rbp), %rdx
	shlq	$6, %rdx
	addq	%rdx, %rcx
	movl	%eax, 24(%rcx)
	movl	-208(%rbp), %eax
	subl	-180(%rbp), %eax
	movq	img, %rcx
	addq	$13112, %rcx            # imm = 0x3338
	movslq	-12(%rbp), %rdx
	shlq	$6, %rdx
	addq	%rdx, %rcx
	movl	%eax, 28(%rcx)
# %bb.80:                               # %for.inc1130
                                        #   in Loop: Header=BB8_76 Depth=1
	movl	-12(%rbp), %eax
	addl	$1, %eax
	movl	%eax, -12(%rbp)
	jmp	.LBB8_76
.LBB8_81:                               # %for.end1132
	movl	$0, -12(%rbp)
.LBB8_82:                               # %for.cond1133
                                        # =>This Loop Header: Depth=1
                                        #     Child Loop BB8_84 Depth 2
	cmpl	$8, -12(%rbp)
	jge	.LBB8_104
# %bb.83:                               # %for.body1136
                                        #   in Loop: Header=BB8_82 Depth=1
	movl	$0, -16(%rbp)
.LBB8_84:                               # %for.cond1137
                                        #   Parent Loop BB8_82 Depth=1
                                        # =>  This Inner Loop Header: Depth=2
	cmpl	$8, -16(%rbp)
	jge	.LBB8_102
# %bb.85:                               # %for.body1140
                                        #   in Loop: Header=BB8_84 Depth=2
	cmpl	$0, -32(%rbp)
	je	.LBB8_87
# %bb.86:                               # %if.then1142
                                        #   in Loop: Header=BB8_84 Depth=2
	movq	img, %rax
	addq	$13112, %rax            # imm = 0x3338
	movslq	-12(%rbp), %rcx
	shlq	$6, %rcx
	addq	%rcx, %rax
	movslq	-16(%rbp), %rcx
	movl	(%rax,%rcx,4), %eax
	movq	img, %rcx
	addq	$12600, %rcx            # imm = 0x3138
	movl	-12(%rbp), %edx
	addl	-40(%rbp), %edx
	movslq	%edx, %rdx
	shlq	$5, %rdx
	addq	%rdx, %rcx
	movl	-16(%rbp), %edx
	addl	-52(%rbp), %edx
	movslq	%edx, %rdx
	movzwl	(%rcx,%rdx,2), %ecx
	addl	%ecx, %eax
	movq	img, %rcx
	addq	$13112, %rcx            # imm = 0x3338
	movslq	-12(%rbp), %rdx
	shlq	$6, %rdx
	addq	%rdx, %rcx
	movslq	-16(%rbp), %rdx
	movl	%eax, (%rcx,%rdx,4)
	jmp	.LBB8_100
.LBB8_87:                               # %if.else1161
                                        #   in Loop: Header=BB8_84 Depth=2
	movq	img, %rax
	cmpl	$0, 72724(%rax)
	jne	.LBB8_98
# %bb.88:                               # %if.then1163
                                        #   in Loop: Header=BB8_84 Depth=2
	xorl	%ecx, %ecx
	movq	img, %rax
	movslq	72684(%rax), %rax
	movq	img, %rdx
	addq	$13112, %rdx            # imm = 0x3338
	movslq	-12(%rbp), %rsi
	shlq	$6, %rsi
	addq	%rsi, %rdx
	movslq	-16(%rbp), %rsi
	movslq	(%rdx,%rsi,4), %rdx
	movq	img, %rsi
	addq	$12600, %rsi            # imm = 0x3138
	movl	-12(%rbp), %edi
	addl	-40(%rbp), %edi
	movslq	%edi, %rdi
	shlq	$5, %rdi
	addq	%rdi, %rsi
	movl	-16(%rbp), %edi
	addl	-52(%rbp), %edi
	movslq	%edi, %rdi
	movzwl	(%rsi,%rdi,2), %esi
	shlq	$6, %rsi
	addq	%rsi, %rdx
	addq	$32, %rdx
	sarq	$6, %rdx
	cmpq	%rdx, %rcx
	jle	.LBB8_90
# %bb.89:                               # %cond.true
                                        #   in Loop: Header=BB8_84 Depth=2
	xorl	%ecx, %ecx
	jmp	.LBB8_91
.LBB8_90:                               # %cond.false
                                        #   in Loop: Header=BB8_84 Depth=2
	movq	img, %rcx
	addq	$13112, %rcx            # imm = 0x3338
	movslq	-12(%rbp), %rdx
	shlq	$6, %rdx
	addq	%rdx, %rcx
	movslq	-16(%rbp), %rdx
	movslq	(%rcx,%rdx,4), %rcx
	movq	img, %rdx
	addq	$12600, %rdx            # imm = 0x3138
	movl	-12(%rbp), %esi
	addl	-40(%rbp), %esi
	movslq	%esi, %rsi
	shlq	$5, %rsi
	addq	%rsi, %rdx
	movl	-16(%rbp), %esi
	addl	-52(%rbp), %esi
	movslq	%esi, %rsi
	movzwl	(%rdx,%rsi,2), %edx
	shlq	$6, %rdx
	addq	%rdx, %rcx
	addq	$32, %rcx
	sarq	$6, %rcx
.LBB8_91:                               # %cond.end
                                        #   in Loop: Header=BB8_84 Depth=2
	cmpq	%rcx, %rax
	jge	.LBB8_93
# %bb.92:                               # %cond.true1205
                                        #   in Loop: Header=BB8_84 Depth=2
	movq	img, %rax
	movslq	72684(%rax), %rax
	jmp	.LBB8_97
.LBB8_93:                               # %cond.false1208
                                        #   in Loop: Header=BB8_84 Depth=2
	xorl	%eax, %eax
	movq	img, %rcx
	addq	$13112, %rcx            # imm = 0x3338
	movslq	-12(%rbp), %rdx
	shlq	$6, %rdx
	addq	%rdx, %rcx
	movslq	-16(%rbp), %rdx
	movslq	(%rcx,%rdx,4), %rcx
	movq	img, %rdx
	addq	$12600, %rdx            # imm = 0x3138
	movl	-12(%rbp), %esi
	addl	-40(%rbp), %esi
	movslq	%esi, %rsi
	shlq	$5, %rsi
	addq	%rsi, %rdx
	movl	-16(%rbp), %esi
	addl	-52(%rbp), %esi
	movslq	%esi, %rsi
	movzwl	(%rdx,%rsi,2), %edx
	shlq	$6, %rdx
	addq	%rdx, %rcx
	addq	$32, %rcx
	sarq	$6, %rcx
	cmpq	%rcx, %rax
	jle	.LBB8_95
# %bb.94:                               # %cond.true1229
                                        #   in Loop: Header=BB8_84 Depth=2
	xorl	%eax, %eax
	jmp	.LBB8_96
.LBB8_95:                               # %cond.false1230
                                        #   in Loop: Header=BB8_84 Depth=2
	movq	img, %rax
	addq	$13112, %rax            # imm = 0x3338
	movslq	-12(%rbp), %rcx
	shlq	$6, %rcx
	addq	%rcx, %rax
	movslq	-16(%rbp), %rcx
	movslq	(%rax,%rcx,4), %rax
	movq	img, %rcx
	addq	$12600, %rcx            # imm = 0x3138
	movl	-12(%rbp), %edx
	addl	-40(%rbp), %edx
	movslq	%edx, %rdx
	shlq	$5, %rdx
	addq	%rdx, %rcx
	movl	-16(%rbp), %edx
	addl	-52(%rbp), %edx
	movslq	%edx, %rdx
	movzwl	(%rcx,%rdx,2), %ecx
	shlq	$6, %rcx
	addq	%rcx, %rax
	addq	$32, %rax
	sarq	$6, %rax
.LBB8_96:                               # %cond.end1249
                                        #   in Loop: Header=BB8_84 Depth=2
.LBB8_97:                               # %cond.end1251
                                        #   in Loop: Header=BB8_84 Depth=2
	movq	img, %rcx
	addq	$13112, %rcx            # imm = 0x3338
	movslq	-12(%rbp), %rdx
	shlq	$6, %rdx
	addq	%rdx, %rcx
	movslq	-16(%rbp), %rdx
	movl	%eax, (%rcx,%rdx,4)
	jmp	.LBB8_99
.LBB8_98:                               # %if.else1259
                                        #   in Loop: Header=BB8_84 Depth=2
	movq	img, %rax
	addq	$13112, %rax            # imm = 0x3338
	movslq	-12(%rbp), %rcx
	shlq	$6, %rcx
	addq	%rcx, %rax
	movslq	-16(%rbp), %rcx
	movl	(%rax,%rcx,4), %eax
	addl	$32, %eax
	sarl	$6, %eax
	movq	img, %rcx
	addq	$13112, %rcx            # imm = 0x3338
	movslq	-12(%rbp), %rdx
	shlq	$6, %rdx
	addq	%rdx, %rcx
	movslq	-16(%rbp), %rdx
	movl	%eax, (%rcx,%rdx,4)
.LBB8_99:                               # %if.end1272
                                        #   in Loop: Header=BB8_84 Depth=2
	jmp	.LBB8_100
.LBB8_100:                              # %if.end1273
                                        #   in Loop: Header=BB8_84 Depth=2
	jmp	.LBB8_101
.LBB8_101:                              # %for.inc1274
                                        #   in Loop: Header=BB8_84 Depth=2
	movl	-16(%rbp), %eax
	addl	$1, %eax
	movl	%eax, -16(%rbp)
	jmp	.LBB8_84
.LBB8_102:                              # %for.end1276
                                        #   in Loop: Header=BB8_82 Depth=1
	jmp	.LBB8_103
.LBB8_103:                              # %for.inc1277
                                        #   in Loop: Header=BB8_82 Depth=1
	movl	-12(%rbp), %eax
	addl	$1, %eax
	movl	%eax, -12(%rbp)
	jmp	.LBB8_82
.LBB8_104:                              # %for.end1279
	movq	img, %rax
	cmpl	$0, 72724(%rax)
	jne	.LBB8_114
# %bb.105:                              # %if.then1282
	movl	$0, -16(%rbp)
.LBB8_106:                              # %for.cond1283
                                        # =>This Loop Header: Depth=1
                                        #     Child Loop BB8_108 Depth 2
	cmpl	$8, -16(%rbp)
	jge	.LBB8_113
# %bb.107:                              # %for.body1286
                                        #   in Loop: Header=BB8_106 Depth=1
	movl	$0, -12(%rbp)
.LBB8_108:                              # %for.cond1287
                                        #   Parent Loop BB8_106 Depth=1
                                        # =>  This Inner Loop Header: Depth=2
	cmpl	$8, -12(%rbp)
	jge	.LBB8_111
# %bb.109:                              # %for.body1290
                                        #   in Loop: Header=BB8_108 Depth=2
	movq	img, %rax
	addq	$13112, %rax            # imm = 0x3338
	movslq	-12(%rbp), %rcx
	shlq	$6, %rcx
	addq	%rcx, %rax
	movslq	-16(%rbp), %rcx
	movl	(%rax,%rcx,4), %eax
	movq	enc_picture, %rcx
	movq	6424(%rcx), %rcx
	movq	img, %rdx
	movl	156(%rdx), %edx
	addl	-52(%rbp), %edx
	addl	-16(%rbp), %edx
	movslq	%edx, %rdx
	movq	(%rcx,%rdx,8), %rcx
	movq	img, %rdx
	movl	152(%rdx), %edx
	addl	-40(%rbp), %edx
	addl	-12(%rbp), %edx
	movslq	%edx, %rdx
	movw	%ax, (%rcx,%rdx,2)
# %bb.110:                              # %for.inc1305
                                        #   in Loop: Header=BB8_108 Depth=2
	movl	-12(%rbp), %eax
	addl	$1, %eax
	movl	%eax, -12(%rbp)
	jmp	.LBB8_108
.LBB8_111:                              # %for.end1307
                                        #   in Loop: Header=BB8_106 Depth=1
	jmp	.LBB8_112
.LBB8_112:                              # %for.inc1308
                                        #   in Loop: Header=BB8_106 Depth=1
	movl	-16(%rbp), %eax
	addl	$1, %eax
	movl	%eax, -16(%rbp)
	jmp	.LBB8_106
.LBB8_113:                              # %for.end1310
	jmp	.LBB8_114
.LBB8_114:                              # %if.end1311
	movl	-340(%rbp), %ebx
	cmpl	$283779726, -396(%rbp)  # imm = 0x10EA228E
	jne	.LBB8_116
.LBB8_115:
	movl	%ebx, %eax
	addq	$664, %rsp              # imm = 0x298
	popq	%rbx
	popq	%rbp
	.cfi_def_cfa %rsp, 8
	retq
.LBB8_116:                              # %func_exit
	.cfi_def_cfa %rbp, 16
	callq	detect_breach
	jmp	.LBB8_115
.Lfunc_end8:
	.size	dct_luma8x8.3, .Lfunc_end8-dct_luma8x8.3
	.cfi_endproc
                                        # -- End function
	.globl	dct_luma8x8.4           # -- Begin function dct_luma8x8.4
	.p2align	4, 0x90
	.type	dct_luma8x8.4,@function
dct_luma8x8.4:                          # @dct_luma8x8.4
	.cfi_startproc
# %bb.0:                                # %entry
	pushq	%rbp
	.cfi_def_cfa_offset 16
	.cfi_offset %rbp, -16
	movq	%rsp, %rbp
	.cfi_def_cfa_register %rbp
	pushq	%rbx
	subq	$664, %rsp              # imm = 0x298
	.cfi_offset %rbx, -24
	xorl	%ecx, %ecx
	movl	$1641451491, -396(%rbp) # imm = 0x61D68FE3
	movl	%edi, -36(%rbp)
	movq	%rsi, -352(%rbp)
	movl	%edx, -344(%rbp)
	movl	$0, -132(%rbp)
	movl	$0, -140(%rbp)
	movl	$0, -136(%rbp)
	movl	-36(%rbp), %eax
	cltd
	movl	$2, %esi
	idivl	%esi
	shll	$3, %edx
	movl	%edx, -52(%rbp)
	movl	-36(%rbp), %eax
	cltd
	idivl	%esi
	shll	$3, %eax
	movl	%eax, -48(%rbp)
	movq	img, %rax
	movq	14136(%rax), %rax
	movslq	-36(%rbp), %rdx
	movq	(%rax,%rdx,8), %rax
	movq	(%rax), %rax
	movq	(%rax), %rax
	movq	%rax, -408(%rbp)
	movq	img, %rax
	movq	14136(%rax), %rax
	movslq	-36(%rbp), %rdx
	movq	(%rax,%rdx,8), %rax
	movq	(%rax), %rax
	movq	8(%rax), %rax
	movq	%rax, -416(%rbp)
	movq	img, %rax
	movq	14168(%rax), %rax
	movq	img, %rdx
	movslq	12(%rdx), %rdx
	imulq	$632, %rdx, %rdx        # imm = 0x278
	addq	%rdx, %rax
	movq	%rax, -392(%rbp)
	movq	img, %rax
	movl	40(%rax), %eax
	movq	img, %rdx
	addl	72668(%rdx), %eax
	cmpl	$0, %eax
	jne	.LBB9_2
# %bb.1:                                # %land.rhs
	movq	img, %rax
	cmpl	$1, 72704(%rax)
	sete	%cl
.LBB9_2:                                # %land.end
	andb	$1, %cl
	movzbl	%cl, %eax
	movl	%eax, -32(%rbp)
	movq	img, %rax
	movl	40(%rax), %eax
	movq	img, %rcx
	addl	72668(%rcx), %eax
	subl	$0, %eax
	cltd
	movl	$6, %ecx
	idivl	%ecx
	movl	%eax, -28(%rbp)
	movq	img, %rax
	movl	40(%rax), %eax
	movq	img, %rdx
	addl	72668(%rdx), %eax
	subl	$0, %eax
	cltd
	idivl	%ecx
	movl	%edx, -40(%rbp)
	movl	-28(%rbp), %eax
	addl	$16, %eax
	movl	%eax, -64(%rbp)
	cmpl	$6, -28(%rbp)
	jge	.LBB9_4
# %bb.3:                                # %if.then
	movl	$6, %eax
	subl	-28(%rbp), %eax
	movl	%eax, -140(%rbp)
	movl	$5, %ecx
	subl	-28(%rbp), %ecx
                                        # kill: def $cl killed $ecx
	movl	$1, %eax
	shll	%cl, %eax
	movl	%eax, -136(%rbp)
	jmp	.LBB9_5
.LBB9_4:                                # %if.else
	movl	-28(%rbp), %eax
	subl	$6, %eax
	movl	%eax, -132(%rbp)
.LBB9_5:                                # %if.end
	movq	img, %rax
	cmpl	$2, 24(%rax)
	jne	.LBB9_7
# %bb.6:                                # %if.then27
	movl	-64(%rbp), %ecx
                                        # kill: def $cl killed $ecx
	movl	$1, %eax
	shll	%cl, %eax
	cltd
	movl	$3, %ecx
	idivl	%ecx
	movl	%eax, -400(%rbp)
	jmp	.LBB9_8
.LBB9_7:                                # %if.else30
	movl	-64(%rbp), %ecx
                                        # kill: def $cl killed $ecx
	movl	$1, %eax
	shll	%cl, %eax
	cltd
	movl	$6, %ecx
	idivl	%ecx
	movl	%eax, -400(%rbp)
.LBB9_8:                                # %if.end33
	movl	$0, -12(%rbp)
.LBB9_9:                                # %for.cond
                                        # =>This Inner Loop Header: Depth=1
	xorl	%eax, %eax
	cmpl	$8, -12(%rbp)
	jge	.LBB9_11
# %bb.10:                               # %land.rhs35
                                        #   in Loop: Header=BB9_9 Depth=1
	cmpl	$0, -32(%rbp)
	setne	%al
	xorb	$-1, %al
.LBB9_11:                               # %land.end36
                                        #   in Loop: Header=BB9_9 Depth=1
	testb	$1, %al
	jne	.LBB9_12
	jmp	.LBB9_14
.LBB9_12:                               # %for.body
                                        #   in Loop: Header=BB9_9 Depth=1
	xorl	%eax, %eax
	movq	img, %rcx
	movslq	-12(%rbp), %rdx
	movl	13112(%rcx,%rdx,4), %ecx
	movq	img, %rdx
	movslq	-12(%rbp), %rsi
	addl	13560(%rdx,%rsi,4), %ecx
	movl	%ecx, -128(%rbp)
	movq	img, %rcx
	movslq	-12(%rbp), %rdx
	movl	13176(%rcx,%rdx,4), %ecx
	movq	img, %rdx
	movslq	-12(%rbp), %rsi
	addl	13496(%rdx,%rsi,4), %ecx
	movl	%ecx, -124(%rbp)
	movq	img, %rcx
	movslq	-12(%rbp), %rdx
	movl	13240(%rcx,%rdx,4), %ecx
	movq	img, %rdx
	movslq	-12(%rbp), %rsi
	addl	13432(%rdx,%rsi,4), %ecx
	movl	%ecx, -120(%rbp)
	movq	img, %rcx
	movslq	-12(%rbp), %rdx
	movl	13304(%rcx,%rdx,4), %ecx
	movq	img, %rdx
	movslq	-12(%rbp), %rsi
	addl	13368(%rdx,%rsi,4), %ecx
	movl	%ecx, -116(%rbp)
	movl	-128(%rbp), %ecx
	addl	-116(%rbp), %ecx
	movl	%ecx, -240(%rbp)
	movl	-124(%rbp), %ecx
	addl	-120(%rbp), %ecx
	movl	%ecx, -236(%rbp)
	movl	-128(%rbp), %ecx
	subl	-116(%rbp), %ecx
	movl	%ecx, -232(%rbp)
	movl	-124(%rbp), %ecx
	subl	-120(%rbp), %ecx
	movl	%ecx, -228(%rbp)
	movq	img, %rcx
	movslq	-12(%rbp), %rdx
	movl	13112(%rcx,%rdx,4), %ecx
	movq	img, %rdx
	movslq	-12(%rbp), %rsi
	subl	13560(%rdx,%rsi,4), %ecx
	movl	%ecx, -112(%rbp)
	movq	img, %rcx
	movslq	-12(%rbp), %rdx
	movl	13176(%rcx,%rdx,4), %ecx
	movq	img, %rdx
	movslq	-12(%rbp), %rsi
	subl	13496(%rdx,%rsi,4), %ecx
	movl	%ecx, -108(%rbp)
	movq	img, %rcx
	movslq	-12(%rbp), %rdx
	movl	13240(%rcx,%rdx,4), %ecx
	movq	img, %rdx
	movslq	-12(%rbp), %rsi
	subl	13432(%rdx,%rsi,4), %ecx
	movl	%ecx, -104(%rbp)
	movq	img, %rcx
	movslq	-12(%rbp), %rdx
	movl	13304(%rcx,%rdx,4), %ecx
	movq	img, %rdx
	movslq	-12(%rbp), %rsi
	subl	13368(%rdx,%rsi,4), %ecx
	movl	%ecx, -100(%rbp)
	movl	-108(%rbp), %ecx
	addl	-104(%rbp), %ecx
	movl	-112(%rbp), %edx
	sarl	$1, %edx
	addl	-112(%rbp), %edx
	addl	%edx, %ecx
	movl	%ecx, -224(%rbp)
	movl	-112(%rbp), %ecx
	subl	-100(%rbp), %ecx
	movl	-104(%rbp), %edx
	sarl	$1, %edx
	addl	-104(%rbp), %edx
	subl	%edx, %ecx
	movl	%ecx, -220(%rbp)
	movl	-112(%rbp), %ecx
	addl	-100(%rbp), %ecx
	movl	-108(%rbp), %edx
	sarl	$1, %edx
	addl	-108(%rbp), %edx
	subl	%edx, %ecx
	movl	%ecx, -216(%rbp)
	movl	-108(%rbp), %ecx
	subl	-104(%rbp), %ecx
	movl	-100(%rbp), %edx
	sarl	$1, %edx
	addl	-100(%rbp), %edx
	addl	%edx, %ecx
	movl	%ecx, -212(%rbp)
	movl	-240(%rbp), %ecx
	addl	-236(%rbp), %ecx
	movslq	-12(%rbp), %rdx
	movl	%ecx, -672(%rbp,%rdx,4)
	movl	-232(%rbp), %ecx
	movl	-228(%rbp), %edx
	sarl	$1, %edx
	addl	%edx, %ecx
	movslq	-12(%rbp), %rdx
	movl	%ecx, -608(%rbp,%rdx,4)
	movl	-240(%rbp), %ecx
	subl	-236(%rbp), %ecx
	movslq	-12(%rbp), %rdx
	movl	%ecx, -544(%rbp,%rdx,4)
	movl	-232(%rbp), %ecx
	sarl	$1, %ecx
	subl	-228(%rbp), %ecx
	movslq	-12(%rbp), %rdx
	movl	%ecx, -480(%rbp,%rdx,4)
	movl	-224(%rbp), %ecx
	movl	-212(%rbp), %edx
	sarl	$2, %edx
	addl	%edx, %ecx
	movslq	-12(%rbp), %rdx
	movl	%ecx, -640(%rbp,%rdx,4)
	movl	-220(%rbp), %ecx
	movl	-216(%rbp), %edx
	sarl	$2, %edx
	addl	%edx, %ecx
	movslq	-12(%rbp), %rdx
	movl	%ecx, -576(%rbp,%rdx,4)
	movl	-216(%rbp), %ecx
	movl	-220(%rbp), %edx
	sarl	$2, %edx
	subl	%edx, %ecx
	movslq	-12(%rbp), %rdx
	movl	%ecx, -512(%rbp,%rdx,4)
	subl	-212(%rbp), %eax
	movl	-224(%rbp), %ecx
	sarl	$2, %ecx
	addl	%ecx, %eax
	movslq	-12(%rbp), %rcx
	movl	%eax, -448(%rbp,%rcx,4)
# %bb.13:                               # %for.inc
                                        #   in Loop: Header=BB9_9 Depth=1
	movl	-12(%rbp), %eax
	addl	$1, %eax
	movl	%eax, -12(%rbp)
	jmp	.LBB9_9
.LBB9_14:                               # %for.end
	movl	$0, -12(%rbp)
.LBB9_15:                               # %for.cond223
                                        # =>This Inner Loop Header: Depth=1
	xorl	%eax, %eax
	cmpl	$8, -12(%rbp)
	jge	.LBB9_17
# %bb.16:                               # %land.rhs225
                                        #   in Loop: Header=BB9_15 Depth=1
	cmpl	$0, -32(%rbp)
	setne	%al
	xorb	$-1, %al
.LBB9_17:                               # %land.end228
                                        #   in Loop: Header=BB9_15 Depth=1
	testb	$1, %al
	jne	.LBB9_18
	jmp	.LBB9_20
.LBB9_18:                               # %for.body230
                                        #   in Loop: Header=BB9_15 Depth=1
	xorl	%eax, %eax
	movslq	-12(%rbp), %rdx
	shlq	$5, %rdx
	leaq	-672(%rbp), %rcx
	movq	%rcx, %rsi
	addq	%rdx, %rsi
	movl	(%rsi), %edx
	movslq	-12(%rbp), %rsi
	shlq	$5, %rsi
	movq	%rcx, %rdi
	addq	%rsi, %rdi
	addl	28(%rdi), %edx
	movl	%edx, -96(%rbp)
	movslq	-12(%rbp), %rdx
	shlq	$5, %rdx
	movq	%rcx, %rsi
	addq	%rdx, %rsi
	movl	4(%rsi), %edx
	movslq	-12(%rbp), %rsi
	shlq	$5, %rsi
	movq	%rcx, %rdi
	addq	%rsi, %rdi
	addl	24(%rdi), %edx
	movl	%edx, -92(%rbp)
	movslq	-12(%rbp), %rdx
	shlq	$5, %rdx
	movq	%rcx, %rsi
	addq	%rdx, %rsi
	movl	8(%rsi), %edx
	movslq	-12(%rbp), %rsi
	shlq	$5, %rsi
	movq	%rcx, %rdi
	addq	%rsi, %rdi
	addl	20(%rdi), %edx
	movl	%edx, -88(%rbp)
	movslq	-12(%rbp), %rdx
	shlq	$5, %rdx
	movq	%rcx, %rsi
	addq	%rdx, %rsi
	movl	12(%rsi), %edx
	movslq	-12(%rbp), %rsi
	shlq	$5, %rsi
	movq	%rcx, %rdi
	addq	%rsi, %rdi
	addl	16(%rdi), %edx
	movl	%edx, -84(%rbp)
	movl	-96(%rbp), %edx
	addl	-84(%rbp), %edx
	movl	%edx, -176(%rbp)
	movl	-92(%rbp), %edx
	addl	-88(%rbp), %edx
	movl	%edx, -172(%rbp)
	movl	-96(%rbp), %edx
	subl	-84(%rbp), %edx
	movl	%edx, -168(%rbp)
	movl	-92(%rbp), %edx
	subl	-88(%rbp), %edx
	movl	%edx, -164(%rbp)
	movslq	-12(%rbp), %rdx
	shlq	$5, %rdx
	movq	%rcx, %rsi
	addq	%rdx, %rsi
	movl	(%rsi), %edx
	movslq	-12(%rbp), %rsi
	shlq	$5, %rsi
	movq	%rcx, %rdi
	addq	%rsi, %rdi
	subl	28(%rdi), %edx
	movl	%edx, -80(%rbp)
	movslq	-12(%rbp), %rdx
	shlq	$5, %rdx
	movq	%rcx, %rsi
	addq	%rdx, %rsi
	movl	4(%rsi), %edx
	movslq	-12(%rbp), %rsi
	shlq	$5, %rsi
	movq	%rcx, %rdi
	addq	%rsi, %rdi
	subl	24(%rdi), %edx
	movl	%edx, -76(%rbp)
	movslq	-12(%rbp), %rdx
	shlq	$5, %rdx
	movq	%rcx, %rsi
	addq	%rdx, %rsi
	movl	8(%rsi), %edx
	movslq	-12(%rbp), %rsi
	shlq	$5, %rsi
	movq	%rcx, %rdi
	addq	%rsi, %rdi
	subl	20(%rdi), %edx
	movl	%edx, -72(%rbp)
	movslq	-12(%rbp), %rdx
	shlq	$5, %rdx
	movq	%rcx, %rsi
	addq	%rdx, %rsi
	movl	12(%rsi), %edx
	movslq	-12(%rbp), %rsi
	shlq	$5, %rsi
	addq	%rsi, %rcx
	subl	16(%rcx), %edx
	movl	%edx, -68(%rbp)
	movl	-76(%rbp), %ecx
	addl	-72(%rbp), %ecx
	movl	-80(%rbp), %edx
	sarl	$1, %edx
	addl	-80(%rbp), %edx
	addl	%edx, %ecx
	movl	%ecx, -160(%rbp)
	movl	-80(%rbp), %ecx
	subl	-68(%rbp), %ecx
	movl	-72(%rbp), %edx
	sarl	$1, %edx
	addl	-72(%rbp), %edx
	subl	%edx, %ecx
	movl	%ecx, -156(%rbp)
	movl	-80(%rbp), %ecx
	addl	-68(%rbp), %ecx
	movl	-76(%rbp), %edx
	sarl	$1, %edx
	addl	-76(%rbp), %edx
	subl	%edx, %ecx
	movl	%ecx, -152(%rbp)
	movl	-76(%rbp), %ecx
	subl	-72(%rbp), %ecx
	movl	-68(%rbp), %edx
	sarl	$1, %edx
	addl	-68(%rbp), %edx
	addl	%edx, %ecx
	movl	%ecx, -148(%rbp)
	movl	-176(%rbp), %ecx
	addl	-172(%rbp), %ecx
	movq	img, %rdx
	addq	$13112, %rdx            # imm = 0x3338
	movslq	-12(%rbp), %rsi
	shlq	$6, %rsi
	addq	%rsi, %rdx
	movl	%ecx, (%rdx)
	movl	-168(%rbp), %ecx
	movl	-164(%rbp), %edx
	sarl	$1, %edx
	addl	%edx, %ecx
	movq	img, %rdx
	addq	$13112, %rdx            # imm = 0x3338
	movslq	-12(%rbp), %rsi
	shlq	$6, %rsi
	addq	%rsi, %rdx
	movl	%ecx, 8(%rdx)
	movl	-176(%rbp), %ecx
	subl	-172(%rbp), %ecx
	movq	img, %rdx
	addq	$13112, %rdx            # imm = 0x3338
	movslq	-12(%rbp), %rsi
	shlq	$6, %rsi
	addq	%rsi, %rdx
	movl	%ecx, 16(%rdx)
	movl	-168(%rbp), %ecx
	sarl	$1, %ecx
	subl	-164(%rbp), %ecx
	movq	img, %rdx
	addq	$13112, %rdx            # imm = 0x3338
	movslq	-12(%rbp), %rsi
	shlq	$6, %rsi
	addq	%rsi, %rdx
	movl	%ecx, 24(%rdx)
	movl	-160(%rbp), %ecx
	movl	-148(%rbp), %edx
	sarl	$2, %edx
	addl	%edx, %ecx
	movq	img, %rdx
	addq	$13112, %rdx            # imm = 0x3338
	movslq	-12(%rbp), %rsi
	shlq	$6, %rsi
	addq	%rsi, %rdx
	movl	%ecx, 4(%rdx)
	movl	-156(%rbp), %ecx
	movl	-152(%rbp), %edx
	sarl	$2, %edx
	addl	%edx, %ecx
	movq	img, %rdx
	addq	$13112, %rdx            # imm = 0x3338
	movslq	-12(%rbp), %rsi
	shlq	$6, %rsi
	addq	%rsi, %rdx
	movl	%ecx, 12(%rdx)
	movl	-152(%rbp), %ecx
	movl	-156(%rbp), %edx
	sarl	$2, %edx
	subl	%edx, %ecx
	movq	img, %rdx
	addq	$13112, %rdx            # imm = 0x3338
	movslq	-12(%rbp), %rsi
	shlq	$6, %rsi
	addq	%rsi, %rdx
	movl	%ecx, 20(%rdx)
	subl	-148(%rbp), %eax
	movl	-160(%rbp), %ecx
	sarl	$2, %ecx
	addl	%ecx, %eax
	movq	img, %rcx
	addq	$13112, %rcx            # imm = 0x3338
	movslq	-12(%rbp), %rdx
	shlq	$6, %rdx
	addq	%rdx, %rcx
	movl	%eax, 28(%rcx)
# %bb.19:                               # %for.inc412
                                        #   in Loop: Header=BB9_15 Depth=1
	movl	-12(%rbp), %eax
	addl	$1, %eax
	movl	%eax, -12(%rbp)
	jmp	.LBB9_15
.LBB9_20:                               # %for.end414
	movl	$0, -340(%rbp)
	movl	$-1, -60(%rbp)
	movl	$0, -56(%rbp)
	movl	$-1, -372(%rbp)
	movl	$-1, -376(%rbp)
	movl	$-1, -380(%rbp)
	movl	$-1, -384(%rbp)
	movl	$0, -356(%rbp)
	movl	$0, -360(%rbp)
	movl	$0, -364(%rbp)
	movl	$0, -368(%rbp)
	movl	$0, -20(%rbp)
.LBB9_21:                               # %for.cond423
                                        # =>This Inner Loop Header: Depth=1
	cmpl	$64, -20(%rbp)
	jge	.LBB9_61
# %bb.22:                               # %for.body425
                                        #   in Loop: Header=BB9_21 Depth=1
	movq	img, %rax
	cmpl	$0, 72444(%rax)
	jne	.LBB9_25
# %bb.23:                               # %lor.lhs.false
                                        #   in Loop: Header=BB9_21 Depth=1
	movq	img, %rax
	cmpl	$0, 72400(%rax)
	je	.LBB9_26
# %bb.24:                               # %land.lhs.true
                                        #   in Loop: Header=BB9_21 Depth=1
	movq	-392(%rbp), %rax
	cmpl	$0, 532(%rax)
	je	.LBB9_26
.LBB9_25:                               # %if.then429
                                        #   in Loop: Header=BB9_21 Depth=1
	movslq	-20(%rbp), %rax
	movzbl	FIELD_SCAN8x8(,%rax,2), %eax
	movl	%eax, -12(%rbp)
	movslq	-20(%rbp), %rax
	movzbl	FIELD_SCAN8x8+1(,%rax,2), %eax
	movl	%eax, -16(%rbp)
	jmp	.LBB9_27
.LBB9_26:                               # %if.else437
                                        #   in Loop: Header=BB9_21 Depth=1
	movslq	-20(%rbp), %rax
	movzbl	SNGL_SCAN8x8(,%rax,2), %eax
	movl	%eax, -12(%rbp)
	movslq	-20(%rbp), %rax
	movzbl	SNGL_SCAN8x8+1(,%rax,2), %eax
	movl	%eax, -16(%rbp)
.LBB9_27:                               # %if.end446
                                        #   in Loop: Header=BB9_21 Depth=1
	movl	-60(%rbp), %eax
	addl	$1, %eax
	movl	%eax, -60(%rbp)
	movl	$0, -44(%rbp)
	movl	-20(%rbp), %eax
	andl	$3, %eax
	cltq
	movl	-384(%rbp,%rax,4), %ecx
	addl	$1, %ecx
	movl	%ecx, -384(%rbp,%rax,4)
	cmpl	$0, -32(%rbp)
	je	.LBB9_29
# %bb.28:                               # %if.then452
                                        #   in Loop: Header=BB9_21 Depth=1
	movq	img, %rax
	addq	$13112, %rax            # imm = 0x3338
	movslq	-12(%rbp), %rcx
	shlq	$6, %rcx
	addq	%rcx, %rax
	movslq	-16(%rbp), %rcx
	movl	(%rax,%rcx,4), %edi
	callq	abs
	movl	%eax, -24(%rbp)
	jmp	.LBB9_33
.LBB9_29:                               # %if.else458
                                        #   in Loop: Header=BB9_21 Depth=1
	cmpl	$1, -344(%rbp)
	jne	.LBB9_31
# %bb.30:                               # %if.then461
                                        #   in Loop: Header=BB9_21 Depth=1
	movq	img, %rax
	addq	$13112, %rax            # imm = 0x3338
	movslq	-12(%rbp), %rcx
	shlq	$6, %rcx
	addq	%rcx, %rax
	movslq	-16(%rbp), %rcx
	movl	(%rax,%rcx,4), %edi
	callq	abs
	movslq	-40(%rbp), %rcx
	shlq	$8, %rcx
	movabsq	$LevelScale8x8Luma_Intra, %rdx
	addq	%rcx, %rdx
	movslq	-12(%rbp), %rcx
	shlq	$5, %rcx
	addq	%rcx, %rdx
	movslq	-16(%rbp), %rcx
	imull	(%rdx,%rcx,4), %eax
	movslq	-28(%rbp), %rcx
	shlq	$8, %rcx
	movabsq	$LevelOffset8x8Luma_Intra, %rdx
	addq	%rcx, %rdx
	movslq	-12(%rbp), %rcx
	shlq	$5, %rcx
	addq	%rcx, %rdx
	movslq	-16(%rbp), %rcx
	addl	(%rdx,%rcx,4), %eax
	movl	-64(%rbp), %ecx
                                        # kill: def $cl killed $ecx
	sarl	%cl, %eax
	movl	%eax, -24(%rbp)
	jmp	.LBB9_32
.LBB9_31:                               # %if.else483
                                        #   in Loop: Header=BB9_21 Depth=1
	movq	img, %rax
	addq	$13112, %rax            # imm = 0x3338
	movslq	-12(%rbp), %rcx
	shlq	$6, %rcx
	addq	%rcx, %rax
	movslq	-16(%rbp), %rcx
	movl	(%rax,%rcx,4), %edi
	callq	abs
	movslq	-40(%rbp), %rcx
	shlq	$8, %rcx
	movabsq	$LevelScale8x8Luma_Inter, %rdx
	addq	%rcx, %rdx
	movslq	-12(%rbp), %rcx
	shlq	$5, %rcx
	addq	%rcx, %rdx
	movslq	-16(%rbp), %rcx
	imull	(%rdx,%rcx,4), %eax
	movslq	-28(%rbp), %rcx
	shlq	$8, %rcx
	movabsq	$LevelOffset8x8Luma_Inter, %rdx
	addq	%rcx, %rdx
	movslq	-12(%rbp), %rcx
	shlq	$5, %rcx
	addq	%rcx, %rdx
	movslq	-16(%rbp), %rcx
	addl	(%rdx,%rcx,4), %eax
	movl	-64(%rbp), %ecx
                                        # kill: def $cl killed $ecx
	sarl	%cl, %eax
	movl	%eax, -24(%rbp)
.LBB9_32:                               # %if.end505
                                        #   in Loop: Header=BB9_21 Depth=1
	jmp	.LBB9_33
.LBB9_33:                               # %if.end506
                                        #   in Loop: Header=BB9_21 Depth=1
	cmpl	$0, -24(%rbp)
	je	.LBB9_57
# %bb.34:                               # %if.then509
                                        #   in Loop: Header=BB9_21 Depth=1
	movl	$1, -340(%rbp)
	movq	-392(%rbp), %rax
	cmpl	$0, 572(%rax)
	je	.LBB9_40
# %bb.35:                               # %land.lhs.true511
                                        #   in Loop: Header=BB9_21 Depth=1
	movq	input, %rax
	cmpl	$0, 2356(%rax)
	jne	.LBB9_40
# %bb.36:                               # %if.then514
                                        #   in Loop: Header=BB9_21 Depth=1
	cmpl	$1, -24(%rbp)
	jle	.LBB9_38
# %bb.37:                               # %if.then517
                                        #   in Loop: Header=BB9_21 Depth=1
	movq	-352(%rbp), %rax
	movl	(%rax), %ecx
	addl	$999999, %ecx           # imm = 0xF423F
	movl	%ecx, (%rax)
	jmp	.LBB9_39
.LBB9_38:                               # %if.else519
                                        #   in Loop: Header=BB9_21 Depth=1
	movabsq	$COEFF_COST8x8, %rax
	movq	input, %rcx
	movslq	2468(%rcx), %rcx
	shlq	$6, %rcx
	addq	%rcx, %rax
	movl	-20(%rbp), %ecx
	andl	$3, %ecx
	movslq	%ecx, %rcx
	movslq	-384(%rbp,%rcx,4), %rcx
	movzbl	(%rax,%rcx), %eax
	movq	-352(%rbp), %rcx
	addl	(%rcx), %eax
	movl	%eax, (%rcx)
.LBB9_39:                               # %if.end529
                                        #   in Loop: Header=BB9_21 Depth=1
	movl	-24(%rbp), %edi
	movq	img, %rax
	addq	$13112, %rax            # imm = 0x3338
	movslq	-12(%rbp), %rcx
	shlq	$6, %rcx
	addq	%rcx, %rax
	movslq	-16(%rbp), %rcx
	movl	(%rax,%rcx,4), %esi
	callq	sign
	movq	img, %rcx
	movq	14136(%rcx), %rcx
	movslq	-36(%rbp), %rdx
	movq	(%rcx,%rdx,8), %rcx
	movl	-20(%rbp), %edx
	andl	$3, %edx
	movslq	%edx, %rdx
	movq	(%rcx,%rdx,8), %rcx
	movq	(%rcx), %rcx
	movl	-20(%rbp), %edx
	andl	$3, %edx
	movslq	%edx, %rdx
	movslq	-368(%rbp,%rdx,4), %rdx
	movl	%eax, (%rcx,%rdx,4)
	movl	-20(%rbp), %eax
	andl	$3, %eax
	cltq
	movl	-384(%rbp,%rax,4), %eax
	movq	img, %rcx
	movq	14136(%rcx), %rcx
	movslq	-36(%rbp), %rdx
	movq	(%rcx,%rdx,8), %rcx
	movl	-20(%rbp), %edx
	andl	$3, %edx
	movslq	%edx, %rdx
	movq	(%rcx,%rdx,8), %rcx
	movq	8(%rcx), %rcx
	movl	-20(%rbp), %edx
	andl	$3, %edx
	movslq	%edx, %rdx
	movslq	-368(%rbp,%rdx,4), %rdx
	movl	%eax, (%rcx,%rdx,4)
	movl	-20(%rbp), %eax
	andl	$3, %eax
	cltq
	movl	-368(%rbp,%rax,4), %ecx
	addl	$1, %ecx
	movl	%ecx, -368(%rbp,%rax,4)
	movl	-20(%rbp), %eax
	andl	$3, %eax
	cltq
	movl	$-1, -384(%rbp,%rax,4)
	jmp	.LBB9_44
.LBB9_40:                               # %if.else570
                                        #   in Loop: Header=BB9_21 Depth=1
	cmpl	$1, -24(%rbp)
	jle	.LBB9_42
# %bb.41:                               # %if.then573
                                        #   in Loop: Header=BB9_21 Depth=1
	movq	-352(%rbp), %rax
	movl	(%rax), %ecx
	addl	$999999, %ecx           # imm = 0xF423F
	movl	%ecx, (%rax)
	jmp	.LBB9_43
.LBB9_42:                               # %if.else575
                                        #   in Loop: Header=BB9_21 Depth=1
	movabsq	$COEFF_COST8x8, %rax
	movq	input, %rcx
	movslq	2468(%rcx), %rcx
	shlq	$6, %rcx
	addq	%rcx, %rax
	movslq	-60(%rbp), %rcx
	movzbl	(%rax,%rcx), %eax
	movq	-352(%rbp), %rcx
	addl	(%rcx), %eax
	movl	%eax, (%rcx)
.LBB9_43:                               # %if.end583
                                        #   in Loop: Header=BB9_21 Depth=1
	movl	-24(%rbp), %edi
	movq	img, %rax
	addq	$13112, %rax            # imm = 0x3338
	movslq	-12(%rbp), %rcx
	shlq	$6, %rcx
	addq	%rcx, %rax
	movslq	-16(%rbp), %rcx
	movl	(%rax,%rcx,4), %esi
	callq	sign
	movq	-408(%rbp), %rcx
	movslq	-56(%rbp), %rdx
	movl	%eax, (%rcx,%rdx,4)
	movl	-60(%rbp), %eax
	movq	-416(%rbp), %rcx
	movslq	-56(%rbp), %rdx
	movl	%eax, (%rcx,%rdx,4)
	movl	-56(%rbp), %eax
	addl	$1, %eax
	movl	%eax, -56(%rbp)
	movl	$-1, -60(%rbp)
.LBB9_44:                               # %if.end595
                                        #   in Loop: Header=BB9_21 Depth=1
	movl	-24(%rbp), %edi
	movq	img, %rax
	addq	$13112, %rax            # imm = 0x3338
	movslq	-12(%rbp), %rcx
	shlq	$6, %rcx
	addq	%rcx, %rax
	movslq	-16(%rbp), %rcx
	movl	(%rax,%rcx,4), %esi
	callq	sign
	movl	%eax, -24(%rbp)
	cmpl	$0, -32(%rbp)
	je	.LBB9_46
# %bb.45:                               # %if.then603
                                        #   in Loop: Header=BB9_21 Depth=1
	movl	-24(%rbp), %eax
	movl	%eax, -44(%rbp)
	jmp	.LBB9_56
.LBB9_46:                               # %if.else604
                                        #   in Loop: Header=BB9_21 Depth=1
	cmpl	$1, -344(%rbp)
	jne	.LBB9_51
# %bb.47:                               # %if.then607
                                        #   in Loop: Header=BB9_21 Depth=1
	cmpl	$6, -28(%rbp)
	jl	.LBB9_49
# %bb.48:                               # %if.then610
                                        #   in Loop: Header=BB9_21 Depth=1
	movl	-24(%rbp), %eax
	movslq	-40(%rbp), %rcx
	shlq	$8, %rcx
	movabsq	$InvLevelScale8x8Luma_Intra, %rdx
	addq	%rcx, %rdx
	movslq	-12(%rbp), %rcx
	shlq	$5, %rcx
	addq	%rcx, %rdx
	movslq	-16(%rbp), %rcx
	imull	(%rdx,%rcx,4), %eax
	movl	-132(%rbp), %ecx
                                        # kill: def $cl killed $ecx
	shll	%cl, %eax
	movl	%eax, -44(%rbp)
	jmp	.LBB9_50
.LBB9_49:                               # %if.else619
                                        #   in Loop: Header=BB9_21 Depth=1
	movl	-24(%rbp), %eax
	movslq	-40(%rbp), %rcx
	shlq	$8, %rcx
	movabsq	$InvLevelScale8x8Luma_Intra, %rdx
	addq	%rcx, %rdx
	movslq	-12(%rbp), %rcx
	shlq	$5, %rcx
	addq	%rcx, %rdx
	movslq	-16(%rbp), %rcx
	imull	(%rdx,%rcx,4), %eax
	addl	-136(%rbp), %eax
	movl	-140(%rbp), %ecx
                                        # kill: def $cl killed $ecx
	sarl	%cl, %eax
	movl	%eax, -44(%rbp)
.LBB9_50:                               # %if.end629
                                        #   in Loop: Header=BB9_21 Depth=1
	jmp	.LBB9_55
.LBB9_51:                               # %if.else630
                                        #   in Loop: Header=BB9_21 Depth=1
	cmpl	$6, -28(%rbp)
	jl	.LBB9_53
# %bb.52:                               # %if.then633
                                        #   in Loop: Header=BB9_21 Depth=1
	movl	-24(%rbp), %eax
	movslq	-40(%rbp), %rcx
	shlq	$8, %rcx
	movabsq	$InvLevelScale8x8Luma_Inter, %rdx
	addq	%rcx, %rdx
	movslq	-12(%rbp), %rcx
	shlq	$5, %rcx
	addq	%rcx, %rdx
	movslq	-16(%rbp), %rcx
	imull	(%rdx,%rcx,4), %eax
	movl	-132(%rbp), %ecx
                                        # kill: def $cl killed $ecx
	shll	%cl, %eax
	movl	%eax, -44(%rbp)
	jmp	.LBB9_54
.LBB9_53:                               # %if.else642
                                        #   in Loop: Header=BB9_21 Depth=1
	movl	-24(%rbp), %eax
	movslq	-40(%rbp), %rcx
	shlq	$8, %rcx
	movabsq	$InvLevelScale8x8Luma_Inter, %rdx
	addq	%rcx, %rdx
	movslq	-12(%rbp), %rcx
	shlq	$5, %rcx
	addq	%rcx, %rdx
	movslq	-16(%rbp), %rcx
	imull	(%rdx,%rcx,4), %eax
	addl	-136(%rbp), %eax
	movl	-140(%rbp), %ecx
                                        # kill: def $cl killed $ecx
	sarl	%cl, %eax
	movl	%eax, -44(%rbp)
.LBB9_54:                               # %if.end652
                                        #   in Loop: Header=BB9_21 Depth=1
	jmp	.LBB9_55
.LBB9_55:                               # %if.end653
                                        #   in Loop: Header=BB9_21 Depth=1
	jmp	.LBB9_56
.LBB9_56:                               # %if.end654
                                        #   in Loop: Header=BB9_21 Depth=1
	jmp	.LBB9_57
.LBB9_57:                               # %if.end655
                                        #   in Loop: Header=BB9_21 Depth=1
	cmpl	$0, -32(%rbp)
	jne	.LBB9_59
# %bb.58:                               # %if.then657
                                        #   in Loop: Header=BB9_21 Depth=1
	movl	-44(%rbp), %eax
	movq	img, %rcx
	addq	$13112, %rcx            # imm = 0x3338
	movslq	-12(%rbp), %rdx
	shlq	$6, %rdx
	addq	%rdx, %rcx
	movslq	-16(%rbp), %rdx
	movl	%eax, (%rcx,%rdx,4)
.LBB9_59:                               # %if.end663
                                        #   in Loop: Header=BB9_21 Depth=1
	jmp	.LBB9_60
.LBB9_60:                               # %for.inc664
                                        #   in Loop: Header=BB9_21 Depth=1
	movl	-20(%rbp), %eax
	addl	$1, %eax
	movl	%eax, -20(%rbp)
	jmp	.LBB9_21
.LBB9_61:                               # %for.end666
	movq	-392(%rbp), %rax
	cmpl	$0, 572(%rax)
	je	.LBB9_63
# %bb.62:                               # %lor.lhs.false669
	movq	input, %rax
	cmpl	$0, 2356(%rax)
	je	.LBB9_64
.LBB9_63:                               # %if.then673
	movq	-408(%rbp), %rax
	movslq	-56(%rbp), %rcx
	movl	$0, (%rax,%rcx,4)
	jmp	.LBB9_69
.LBB9_64:                               # %if.else676
	movl	$0, -12(%rbp)
.LBB9_65:                               # %for.cond677
                                        # =>This Inner Loop Header: Depth=1
	cmpl	$4, -12(%rbp)
	jge	.LBB9_68
# %bb.66:                               # %for.body680
                                        #   in Loop: Header=BB9_65 Depth=1
	movq	img, %rax
	movq	14136(%rax), %rax
	movslq	-36(%rbp), %rcx
	movq	(%rax,%rcx,8), %rax
	movslq	-12(%rbp), %rcx
	movq	(%rax,%rcx,8), %rax
	movq	(%rax), %rax
	movslq	-12(%rbp), %rcx
	movslq	-368(%rbp,%rcx,4), %rcx
	movl	$0, (%rax,%rcx,4)
# %bb.67:                               # %for.inc691
                                        #   in Loop: Header=BB9_65 Depth=1
	movl	-12(%rbp), %eax
	addl	$1, %eax
	movl	%eax, -12(%rbp)
	jmp	.LBB9_65
.LBB9_68:                               # %for.end693
	jmp	.LBB9_69
.LBB9_69:                               # %if.end694
	movl	$0, -12(%rbp)
.LBB9_70:                               # %for.cond695
                                        # =>This Inner Loop Header: Depth=1
	xorl	%eax, %eax
	cmpl	$8, -12(%rbp)
	jge	.LBB9_72
# %bb.71:                               # %land.rhs698
                                        #   in Loop: Header=BB9_70 Depth=1
	cmpl	$0, -32(%rbp)
	setne	%al
	xorb	$-1, %al
.LBB9_72:                               # %land.end701
                                        #   in Loop: Header=BB9_70 Depth=1
	testb	$1, %al
	jne	.LBB9_73
	jmp	.LBB9_75
.LBB9_73:                               # %for.body703
                                        #   in Loop: Header=BB9_70 Depth=1
	xorl	%eax, %eax
	movq	img, %rcx
	movslq	-12(%rbp), %rdx
	movl	13112(%rcx,%rdx,4), %ecx
	movq	img, %rdx
	movslq	-12(%rbp), %rsi
	addl	13368(%rdx,%rsi,4), %ecx
	movl	%ecx, -208(%rbp)
	movq	img, %rcx
	movslq	-12(%rbp), %rdx
	movl	13112(%rcx,%rdx,4), %ecx
	movq	img, %rdx
	movslq	-12(%rbp), %rsi
	subl	13368(%rdx,%rsi,4), %ecx
	movl	%ecx, -192(%rbp)
	movq	img, %rcx
	movslq	-12(%rbp), %rdx
	movl	13240(%rcx,%rdx,4), %ecx
	sarl	$1, %ecx
	movq	img, %rdx
	movslq	-12(%rbp), %rsi
	subl	13496(%rdx,%rsi,4), %ecx
	movl	%ecx, -200(%rbp)
	movq	img, %rcx
	movslq	-12(%rbp), %rdx
	movl	13240(%rcx,%rdx,4), %ecx
	movq	img, %rdx
	movslq	-12(%rbp), %rsi
	movl	13496(%rdx,%rsi,4), %edx
	sarl	$1, %edx
	addl	%edx, %ecx
	movl	%ecx, -184(%rbp)
	movl	-208(%rbp), %ecx
	addl	-184(%rbp), %ecx
	movl	%ecx, -272(%rbp)
	movl	-192(%rbp), %ecx
	addl	-200(%rbp), %ecx
	movl	%ecx, -264(%rbp)
	movl	-192(%rbp), %ecx
	subl	-200(%rbp), %ecx
	movl	%ecx, -256(%rbp)
	movl	-208(%rbp), %ecx
	subl	-184(%rbp), %ecx
	movl	%ecx, -248(%rbp)
	movq	img, %rcx
	movslq	-12(%rbp), %rdx
	xorl	%esi, %esi
	subl	13304(%rcx,%rdx,4), %esi
	movq	img, %rcx
	movslq	-12(%rbp), %rdx
	addl	13432(%rcx,%rdx,4), %esi
	movq	img, %rcx
	movslq	-12(%rbp), %rdx
	subl	13560(%rcx,%rdx,4), %esi
	movq	img, %rcx
	movslq	-12(%rbp), %rdx
	movl	13560(%rcx,%rdx,4), %ecx
	sarl	$1, %ecx
	subl	%ecx, %esi
	movl	%esi, -204(%rbp)
	movq	img, %rcx
	movslq	-12(%rbp), %rdx
	movl	13176(%rcx,%rdx,4), %ecx
	movq	img, %rdx
	movslq	-12(%rbp), %rsi
	addl	13560(%rdx,%rsi,4), %ecx
	movq	img, %rdx
	movslq	-12(%rbp), %rsi
	subl	13304(%rdx,%rsi,4), %ecx
	movq	img, %rdx
	movslq	-12(%rbp), %rsi
	movl	13304(%rdx,%rsi,4), %edx
	sarl	$1, %edx
	subl	%edx, %ecx
	movl	%ecx, -196(%rbp)
	movq	img, %rcx
	movslq	-12(%rbp), %rdx
	xorl	%esi, %esi
	subl	13176(%rcx,%rdx,4), %esi
	movq	img, %rcx
	movslq	-12(%rbp), %rdx
	addl	13560(%rcx,%rdx,4), %esi
	movq	img, %rcx
	movslq	-12(%rbp), %rdx
	addl	13432(%rcx,%rdx,4), %esi
	movq	img, %rcx
	movslq	-12(%rbp), %rdx
	movl	13432(%rcx,%rdx,4), %ecx
	sarl	$1, %ecx
	addl	%ecx, %esi
	movl	%esi, -188(%rbp)
	movq	img, %rcx
	movslq	-12(%rbp), %rdx
	movl	13304(%rcx,%rdx,4), %ecx
	movq	img, %rdx
	movslq	-12(%rbp), %rsi
	addl	13432(%rdx,%rsi,4), %ecx
	movq	img, %rdx
	movslq	-12(%rbp), %rsi
	addl	13176(%rdx,%rsi,4), %ecx
	movq	img, %rdx
	movslq	-12(%rbp), %rsi
	movl	13176(%rdx,%rsi,4), %edx
	sarl	$1, %edx
	addl	%edx, %ecx
	movl	%ecx, -180(%rbp)
	movl	-204(%rbp), %ecx
	movl	-180(%rbp), %edx
	sarl	$2, %edx
	addl	%edx, %ecx
	movl	%ecx, -268(%rbp)
	movl	-204(%rbp), %ecx
	sarl	$2, %ecx
	subl	%ecx, %eax
	addl	-180(%rbp), %eax
	movl	%eax, -244(%rbp)
	movl	-196(%rbp), %eax
	movl	-188(%rbp), %ecx
	sarl	$2, %ecx
	addl	%ecx, %eax
	movl	%eax, -260(%rbp)
	movl	-196(%rbp), %eax
	sarl	$2, %eax
	subl	-188(%rbp), %eax
	movl	%eax, -252(%rbp)
	movl	-272(%rbp), %eax
	addl	-244(%rbp), %eax
	movslq	-12(%rbp), %rcx
	movl	%eax, -672(%rbp,%rcx,4)
	movl	-264(%rbp), %eax
	addl	-252(%rbp), %eax
	movslq	-12(%rbp), %rcx
	movl	%eax, -640(%rbp,%rcx,4)
	movl	-256(%rbp), %eax
	addl	-260(%rbp), %eax
	movslq	-12(%rbp), %rcx
	movl	%eax, -608(%rbp,%rcx,4)
	movl	-248(%rbp), %eax
	addl	-268(%rbp), %eax
	movslq	-12(%rbp), %rcx
	movl	%eax, -576(%rbp,%rcx,4)
	movl	-248(%rbp), %eax
	subl	-268(%rbp), %eax
	movslq	-12(%rbp), %rcx
	movl	%eax, -544(%rbp,%rcx,4)
	movl	-256(%rbp), %eax
	subl	-260(%rbp), %eax
	movslq	-12(%rbp), %rcx
	movl	%eax, -512(%rbp,%rcx,4)
	movl	-264(%rbp), %eax
	subl	-252(%rbp), %eax
	movslq	-12(%rbp), %rcx
	movl	%eax, -480(%rbp,%rcx,4)
	movl	-272(%rbp), %eax
	subl	-244(%rbp), %eax
	movslq	-12(%rbp), %rcx
	movl	%eax, -448(%rbp,%rcx,4)
# %bb.74:                               # %for.inc919
                                        #   in Loop: Header=BB9_70 Depth=1
	movl	-12(%rbp), %eax
	addl	$1, %eax
	movl	%eax, -12(%rbp)
	jmp	.LBB9_70
.LBB9_75:                               # %for.end921
	movl	$0, -12(%rbp)
.LBB9_76:                               # %for.cond922
                                        # =>This Inner Loop Header: Depth=1
	xorl	%eax, %eax
	cmpl	$8, -12(%rbp)
	jge	.LBB9_78
# %bb.77:                               # %land.rhs925
                                        #   in Loop: Header=BB9_76 Depth=1
	cmpl	$0, -32(%rbp)
	setne	%al
	xorb	$-1, %al
.LBB9_78:                               # %land.end928
                                        #   in Loop: Header=BB9_76 Depth=1
	testb	$1, %al
	jne	.LBB9_79
	jmp	.LBB9_81
.LBB9_79:                               # %for.body930
                                        #   in Loop: Header=BB9_76 Depth=1
	xorl	%eax, %eax
	movslq	-12(%rbp), %rdx
	shlq	$5, %rdx
	leaq	-672(%rbp), %rcx
	movq	%rcx, %rsi
	addq	%rdx, %rsi
	movl	(%rsi), %edx
	movslq	-12(%rbp), %rsi
	shlq	$5, %rsi
	movq	%rcx, %rdi
	addq	%rsi, %rdi
	addl	16(%rdi), %edx
	movl	%edx, -336(%rbp)
	movslq	-12(%rbp), %rdx
	shlq	$5, %rdx
	movq	%rcx, %rsi
	addq	%rdx, %rsi
	movl	(%rsi), %edx
	movslq	-12(%rbp), %rsi
	shlq	$5, %rsi
	movq	%rcx, %rdi
	addq	%rsi, %rdi
	subl	16(%rdi), %edx
	movl	%edx, -320(%rbp)
	movslq	-12(%rbp), %rdx
	shlq	$5, %rdx
	movq	%rcx, %rsi
	addq	%rdx, %rsi
	movl	8(%rsi), %edx
	sarl	$1, %edx
	movslq	-12(%rbp), %rsi
	shlq	$5, %rsi
	movq	%rcx, %rdi
	addq	%rsi, %rdi
	subl	24(%rdi), %edx
	movl	%edx, -328(%rbp)
	movslq	-12(%rbp), %rdx
	shlq	$5, %rdx
	movq	%rcx, %rsi
	addq	%rdx, %rsi
	movl	8(%rsi), %edx
	movslq	-12(%rbp), %rsi
	shlq	$5, %rsi
	movq	%rcx, %rdi
	addq	%rsi, %rdi
	movl	24(%rdi), %esi
	sarl	$1, %esi
	addl	%esi, %edx
	movl	%edx, -312(%rbp)
	movl	-336(%rbp), %edx
	addl	-312(%rbp), %edx
	movl	%edx, -304(%rbp)
	movl	-320(%rbp), %edx
	addl	-328(%rbp), %edx
	movl	%edx, -296(%rbp)
	movl	-320(%rbp), %edx
	subl	-328(%rbp), %edx
	movl	%edx, -288(%rbp)
	movl	-336(%rbp), %edx
	subl	-312(%rbp), %edx
	movl	%edx, -280(%rbp)
	movslq	-12(%rbp), %rdx
	shlq	$5, %rdx
	movq	%rcx, %rsi
	addq	%rdx, %rsi
	xorl	%edx, %edx
	subl	12(%rsi), %edx
	movslq	-12(%rbp), %rsi
	shlq	$5, %rsi
	movq	%rcx, %rdi
	addq	%rsi, %rdi
	addl	20(%rdi), %edx
	movslq	-12(%rbp), %rsi
	shlq	$5, %rsi
	movq	%rcx, %rdi
	addq	%rsi, %rdi
	subl	28(%rdi), %edx
	movslq	-12(%rbp), %rsi
	shlq	$5, %rsi
	movq	%rcx, %rdi
	addq	%rsi, %rdi
	movl	28(%rdi), %esi
	sarl	$1, %esi
	subl	%esi, %edx
	movl	%edx, -332(%rbp)
	movslq	-12(%rbp), %rdx
	shlq	$5, %rdx
	movq	%rcx, %rsi
	addq	%rdx, %rsi
	movl	4(%rsi), %edx
	movslq	-12(%rbp), %rsi
	shlq	$5, %rsi
	movq	%rcx, %rdi
	addq	%rsi, %rdi
	addl	28(%rdi), %edx
	movslq	-12(%rbp), %rsi
	shlq	$5, %rsi
	movq	%rcx, %rdi
	addq	%rsi, %rdi
	subl	12(%rdi), %edx
	movslq	-12(%rbp), %rsi
	shlq	$5, %rsi
	movq	%rcx, %rdi
	addq	%rsi, %rdi
	movl	12(%rdi), %esi
	sarl	$1, %esi
	subl	%esi, %edx
	movl	%edx, -324(%rbp)
	movslq	-12(%rbp), %rdx
	shlq	$5, %rdx
	movq	%rcx, %rsi
	addq	%rdx, %rsi
	xorl	%edx, %edx
	subl	4(%rsi), %edx
	movslq	-12(%rbp), %rsi
	shlq	$5, %rsi
	movq	%rcx, %rdi
	addq	%rsi, %rdi
	addl	28(%rdi), %edx
	movslq	-12(%rbp), %rsi
	shlq	$5, %rsi
	movq	%rcx, %rdi
	addq	%rsi, %rdi
	addl	20(%rdi), %edx
	movslq	-12(%rbp), %rsi
	shlq	$5, %rsi
	movq	%rcx, %rdi
	addq	%rsi, %rdi
	movl	20(%rdi), %esi
	sarl	$1, %esi
	addl	%esi, %edx
	movl	%edx, -316(%rbp)
	movslq	-12(%rbp), %rdx
	shlq	$5, %rdx
	movq	%rcx, %rsi
	addq	%rdx, %rsi
	movl	12(%rsi), %edx
	movslq	-12(%rbp), %rsi
	shlq	$5, %rsi
	movq	%rcx, %rdi
	addq	%rsi, %rdi
	addl	20(%rdi), %edx
	movslq	-12(%rbp), %rsi
	shlq	$5, %rsi
	movq	%rcx, %rdi
	addq	%rsi, %rdi
	addl	4(%rdi), %edx
	movslq	-12(%rbp), %rsi
	shlq	$5, %rsi
	addq	%rsi, %rcx
	movl	4(%rcx), %ecx
	sarl	$1, %ecx
	addl	%ecx, %edx
	movl	%edx, -308(%rbp)
	movl	-332(%rbp), %ecx
	movl	-308(%rbp), %edx
	sarl	$2, %edx
	addl	%edx, %ecx
	movl	%ecx, -300(%rbp)
	movl	-332(%rbp), %ecx
	sarl	$2, %ecx
	subl	%ecx, %eax
	addl	-308(%rbp), %eax
	movl	%eax, -276(%rbp)
	movl	-324(%rbp), %eax
	movl	-316(%rbp), %ecx
	sarl	$2, %ecx
	addl	%ecx, %eax
	movl	%eax, -292(%rbp)
	movl	-324(%rbp), %eax
	sarl	$2, %eax
	subl	-316(%rbp), %eax
	movl	%eax, -284(%rbp)
	movl	-304(%rbp), %eax
	addl	-276(%rbp), %eax
	movq	img, %rcx
	addq	$13112, %rcx            # imm = 0x3338
	movslq	-12(%rbp), %rdx
	shlq	$6, %rdx
	addq	%rdx, %rcx
	movl	%eax, (%rcx)
	movl	-296(%rbp), %eax
	addl	-284(%rbp), %eax
	movq	img, %rcx
	addq	$13112, %rcx            # imm = 0x3338
	movslq	-12(%rbp), %rdx
	shlq	$6, %rdx
	addq	%rdx, %rcx
	movl	%eax, 4(%rcx)
	movl	-288(%rbp), %eax
	addl	-292(%rbp), %eax
	movq	img, %rcx
	addq	$13112, %rcx            # imm = 0x3338
	movslq	-12(%rbp), %rdx
	shlq	$6, %rdx
	addq	%rdx, %rcx
	movl	%eax, 8(%rcx)
	movl	-280(%rbp), %eax
	addl	-300(%rbp), %eax
	movq	img, %rcx
	addq	$13112, %rcx            # imm = 0x3338
	movslq	-12(%rbp), %rdx
	shlq	$6, %rdx
	addq	%rdx, %rcx
	movl	%eax, 12(%rcx)
	movl	-280(%rbp), %eax
	subl	-300(%rbp), %eax
	movq	img, %rcx
	addq	$13112, %rcx            # imm = 0x3338
	movslq	-12(%rbp), %rdx
	shlq	$6, %rdx
	addq	%rdx, %rcx
	movl	%eax, 16(%rcx)
	movl	-288(%rbp), %eax
	subl	-292(%rbp), %eax
	movq	img, %rcx
	addq	$13112, %rcx            # imm = 0x3338
	movslq	-12(%rbp), %rdx
	shlq	$6, %rdx
	addq	%rdx, %rcx
	movl	%eax, 20(%rcx)
	movl	-296(%rbp), %eax
	subl	-284(%rbp), %eax
	movq	img, %rcx
	addq	$13112, %rcx            # imm = 0x3338
	movslq	-12(%rbp), %rdx
	shlq	$6, %rdx
	addq	%rdx, %rcx
	movl	%eax, 24(%rcx)
	movl	-304(%rbp), %eax
	subl	-276(%rbp), %eax
	movq	img, %rcx
	addq	$13112, %rcx            # imm = 0x3338
	movslq	-12(%rbp), %rdx
	shlq	$6, %rdx
	addq	%rdx, %rcx
	movl	%eax, 28(%rcx)
# %bb.80:                               # %for.inc1130
                                        #   in Loop: Header=BB9_76 Depth=1
	movl	-12(%rbp), %eax
	addl	$1, %eax
	movl	%eax, -12(%rbp)
	jmp	.LBB9_76
.LBB9_81:                               # %for.end1132
	movl	$0, -12(%rbp)
.LBB9_82:                               # %for.cond1133
                                        # =>This Loop Header: Depth=1
                                        #     Child Loop BB9_84 Depth 2
	cmpl	$8, -12(%rbp)
	jge	.LBB9_104
# %bb.83:                               # %for.body1136
                                        #   in Loop: Header=BB9_82 Depth=1
	movl	$0, -16(%rbp)
.LBB9_84:                               # %for.cond1137
                                        #   Parent Loop BB9_82 Depth=1
                                        # =>  This Inner Loop Header: Depth=2
	cmpl	$8, -16(%rbp)
	jge	.LBB9_102
# %bb.85:                               # %for.body1140
                                        #   in Loop: Header=BB9_84 Depth=2
	cmpl	$0, -32(%rbp)
	je	.LBB9_87
# %bb.86:                               # %if.then1142
                                        #   in Loop: Header=BB9_84 Depth=2
	movq	img, %rax
	addq	$13112, %rax            # imm = 0x3338
	movslq	-12(%rbp), %rcx
	shlq	$6, %rcx
	addq	%rcx, %rax
	movslq	-16(%rbp), %rcx
	movl	(%rax,%rcx,4), %eax
	movq	img, %rcx
	addq	$12600, %rcx            # imm = 0x3138
	movl	-12(%rbp), %edx
	addl	-52(%rbp), %edx
	movslq	%edx, %rdx
	shlq	$5, %rdx
	addq	%rdx, %rcx
	movl	-16(%rbp), %edx
	addl	-48(%rbp), %edx
	movslq	%edx, %rdx
	movzwl	(%rcx,%rdx,2), %ecx
	addl	%ecx, %eax
	movq	img, %rcx
	addq	$13112, %rcx            # imm = 0x3338
	movslq	-12(%rbp), %rdx
	shlq	$6, %rdx
	addq	%rdx, %rcx
	movslq	-16(%rbp), %rdx
	movl	%eax, (%rcx,%rdx,4)
	jmp	.LBB9_100
.LBB9_87:                               # %if.else1161
                                        #   in Loop: Header=BB9_84 Depth=2
	movq	img, %rax
	cmpl	$0, 72724(%rax)
	jne	.LBB9_98
# %bb.88:                               # %if.then1163
                                        #   in Loop: Header=BB9_84 Depth=2
	xorl	%ecx, %ecx
	movq	img, %rax
	movslq	72684(%rax), %rax
	movq	img, %rdx
	addq	$13112, %rdx            # imm = 0x3338
	movslq	-12(%rbp), %rsi
	shlq	$6, %rsi
	addq	%rsi, %rdx
	movslq	-16(%rbp), %rsi
	movslq	(%rdx,%rsi,4), %rdx
	movq	img, %rsi
	addq	$12600, %rsi            # imm = 0x3138
	movl	-12(%rbp), %edi
	addl	-52(%rbp), %edi
	movslq	%edi, %rdi
	shlq	$5, %rdi
	addq	%rdi, %rsi
	movl	-16(%rbp), %edi
	addl	-48(%rbp), %edi
	movslq	%edi, %rdi
	movzwl	(%rsi,%rdi,2), %esi
	shlq	$6, %rsi
	addq	%rsi, %rdx
	addq	$32, %rdx
	sarq	$6, %rdx
	cmpq	%rdx, %rcx
	jle	.LBB9_90
# %bb.89:                               # %cond.true
                                        #   in Loop: Header=BB9_84 Depth=2
	xorl	%ecx, %ecx
	jmp	.LBB9_91
.LBB9_90:                               # %cond.false
                                        #   in Loop: Header=BB9_84 Depth=2
	movq	img, %rcx
	addq	$13112, %rcx            # imm = 0x3338
	movslq	-12(%rbp), %rdx
	shlq	$6, %rdx
	addq	%rdx, %rcx
	movslq	-16(%rbp), %rdx
	movslq	(%rcx,%rdx,4), %rcx
	movq	img, %rdx
	addq	$12600, %rdx            # imm = 0x3138
	movl	-12(%rbp), %esi
	addl	-52(%rbp), %esi
	movslq	%esi, %rsi
	shlq	$5, %rsi
	addq	%rsi, %rdx
	movl	-16(%rbp), %esi
	addl	-48(%rbp), %esi
	movslq	%esi, %rsi
	movzwl	(%rdx,%rsi,2), %edx
	shlq	$6, %rdx
	addq	%rdx, %rcx
	addq	$32, %rcx
	sarq	$6, %rcx
.LBB9_91:                               # %cond.end
                                        #   in Loop: Header=BB9_84 Depth=2
	cmpq	%rcx, %rax
	jge	.LBB9_93
# %bb.92:                               # %cond.true1205
                                        #   in Loop: Header=BB9_84 Depth=2
	movq	img, %rax
	movslq	72684(%rax), %rax
	jmp	.LBB9_97
.LBB9_93:                               # %cond.false1208
                                        #   in Loop: Header=BB9_84 Depth=2
	xorl	%eax, %eax
	movq	img, %rcx
	addq	$13112, %rcx            # imm = 0x3338
	movslq	-12(%rbp), %rdx
	shlq	$6, %rdx
	addq	%rdx, %rcx
	movslq	-16(%rbp), %rdx
	movslq	(%rcx,%rdx,4), %rcx
	movq	img, %rdx
	addq	$12600, %rdx            # imm = 0x3138
	movl	-12(%rbp), %esi
	addl	-52(%rbp), %esi
	movslq	%esi, %rsi
	shlq	$5, %rsi
	addq	%rsi, %rdx
	movl	-16(%rbp), %esi
	addl	-48(%rbp), %esi
	movslq	%esi, %rsi
	movzwl	(%rdx,%rsi,2), %edx
	shlq	$6, %rdx
	addq	%rdx, %rcx
	addq	$32, %rcx
	sarq	$6, %rcx
	cmpq	%rcx, %rax
	jle	.LBB9_95
# %bb.94:                               # %cond.true1229
                                        #   in Loop: Header=BB9_84 Depth=2
	xorl	%eax, %eax
	jmp	.LBB9_96
.LBB9_95:                               # %cond.false1230
                                        #   in Loop: Header=BB9_84 Depth=2
	movq	img, %rax
	addq	$13112, %rax            # imm = 0x3338
	movslq	-12(%rbp), %rcx
	shlq	$6, %rcx
	addq	%rcx, %rax
	movslq	-16(%rbp), %rcx
	movslq	(%rax,%rcx,4), %rax
	movq	img, %rcx
	addq	$12600, %rcx            # imm = 0x3138
	movl	-12(%rbp), %edx
	addl	-52(%rbp), %edx
	movslq	%edx, %rdx
	shlq	$5, %rdx
	addq	%rdx, %rcx
	movl	-16(%rbp), %edx
	addl	-48(%rbp), %edx
	movslq	%edx, %rdx
	movzwl	(%rcx,%rdx,2), %ecx
	shlq	$6, %rcx
	addq	%rcx, %rax
	addq	$32, %rax
	sarq	$6, %rax
.LBB9_96:                               # %cond.end1249
                                        #   in Loop: Header=BB9_84 Depth=2
.LBB9_97:                               # %cond.end1251
                                        #   in Loop: Header=BB9_84 Depth=2
	movq	img, %rcx
	addq	$13112, %rcx            # imm = 0x3338
	movslq	-12(%rbp), %rdx
	shlq	$6, %rdx
	addq	%rdx, %rcx
	movslq	-16(%rbp), %rdx
	movl	%eax, (%rcx,%rdx,4)
	jmp	.LBB9_99
.LBB9_98:                               # %if.else1259
                                        #   in Loop: Header=BB9_84 Depth=2
	movq	img, %rax
	addq	$13112, %rax            # imm = 0x3338
	movslq	-12(%rbp), %rcx
	shlq	$6, %rcx
	addq	%rcx, %rax
	movslq	-16(%rbp), %rcx
	movl	(%rax,%rcx,4), %eax
	addl	$32, %eax
	sarl	$6, %eax
	movq	img, %rcx
	addq	$13112, %rcx            # imm = 0x3338
	movslq	-12(%rbp), %rdx
	shlq	$6, %rdx
	addq	%rdx, %rcx
	movslq	-16(%rbp), %rdx
	movl	%eax, (%rcx,%rdx,4)
.LBB9_99:                               # %if.end1272
                                        #   in Loop: Header=BB9_84 Depth=2
	jmp	.LBB9_100
.LBB9_100:                              # %if.end1273
                                        #   in Loop: Header=BB9_84 Depth=2
	jmp	.LBB9_101
.LBB9_101:                              # %for.inc1274
                                        #   in Loop: Header=BB9_84 Depth=2
	movl	-16(%rbp), %eax
	addl	$1, %eax
	movl	%eax, -16(%rbp)
	jmp	.LBB9_84
.LBB9_102:                              # %for.end1276
                                        #   in Loop: Header=BB9_82 Depth=1
	jmp	.LBB9_103
.LBB9_103:                              # %for.inc1277
                                        #   in Loop: Header=BB9_82 Depth=1
	movl	-12(%rbp), %eax
	addl	$1, %eax
	movl	%eax, -12(%rbp)
	jmp	.LBB9_82
.LBB9_104:                              # %for.end1279
	movq	img, %rax
	cmpl	$0, 72724(%rax)
	jne	.LBB9_114
# %bb.105:                              # %if.then1282
	movl	$0, -16(%rbp)
.LBB9_106:                              # %for.cond1283
                                        # =>This Loop Header: Depth=1
                                        #     Child Loop BB9_108 Depth 2
	cmpl	$8, -16(%rbp)
	jge	.LBB9_113
# %bb.107:                              # %for.body1286
                                        #   in Loop: Header=BB9_106 Depth=1
	movl	$0, -12(%rbp)
.LBB9_108:                              # %for.cond1287
                                        #   Parent Loop BB9_106 Depth=1
                                        # =>  This Inner Loop Header: Depth=2
	cmpl	$8, -12(%rbp)
	jge	.LBB9_111
# %bb.109:                              # %for.body1290
                                        #   in Loop: Header=BB9_108 Depth=2
	movq	img, %rax
	addq	$13112, %rax            # imm = 0x3338
	movslq	-12(%rbp), %rcx
	shlq	$6, %rcx
	addq	%rcx, %rax
	movslq	-16(%rbp), %rcx
	movl	(%rax,%rcx,4), %eax
	movq	enc_picture, %rcx
	movq	6424(%rcx), %rcx
	movq	img, %rdx
	movl	156(%rdx), %edx
	addl	-48(%rbp), %edx
	addl	-16(%rbp), %edx
	movslq	%edx, %rdx
	movq	(%rcx,%rdx,8), %rcx
	movq	img, %rdx
	movl	152(%rdx), %edx
	addl	-52(%rbp), %edx
	addl	-12(%rbp), %edx
	movslq	%edx, %rdx
	movw	%ax, (%rcx,%rdx,2)
# %bb.110:                              # %for.inc1305
                                        #   in Loop: Header=BB9_108 Depth=2
	movl	-12(%rbp), %eax
	addl	$1, %eax
	movl	%eax, -12(%rbp)
	jmp	.LBB9_108
.LBB9_111:                              # %for.end1307
                                        #   in Loop: Header=BB9_106 Depth=1
	jmp	.LBB9_112
.LBB9_112:                              # %for.inc1308
                                        #   in Loop: Header=BB9_106 Depth=1
	movl	-16(%rbp), %eax
	addl	$1, %eax
	movl	%eax, -16(%rbp)
	jmp	.LBB9_106
.LBB9_113:                              # %for.end1310
	jmp	.LBB9_114
.LBB9_114:                              # %if.end1311
	movl	-340(%rbp), %ebx
	cmpl	$1641451491, -396(%rbp) # imm = 0x61D68FE3
	jne	.LBB9_116
.LBB9_115:
	movl	%ebx, %eax
	addq	$664, %rsp              # imm = 0x298
	popq	%rbx
	popq	%rbp
	.cfi_def_cfa %rsp, 8
	retq
.LBB9_116:                              # %func_exit
	.cfi_def_cfa %rbp, 16
	callq	detect_breach
	jmp	.LBB9_115
.Lfunc_end9:
	.size	dct_luma8x8.4, .Lfunc_end9-dct_luma8x8.4
	.cfi_endproc
                                        # -- End function
	.globl	LowPassForIntra8x8Pred.5 # -- Begin function LowPassForIntra8x8Pred.5
	.p2align	4, 0x90
	.type	LowPassForIntra8x8Pred.5,@function
LowPassForIntra8x8Pred.5:               # @LowPassForIntra8x8Pred.5
	.cfi_startproc
# %bb.0:                                # %entry
	pushq	%rbp
	.cfi_def_cfa_offset 16
	.cfi_offset %rbp, -16
	movq	%rsp, %rbp
	.cfi_def_cfa_register %rbp
	subq	$144, %rsp
	movl	$1267030541, -32(%rbp)  # imm = 0x4B855A0D
	movq	%rdi, -16(%rbp)
	movl	%esi, -28(%rbp)
	movl	%edx, -20(%rbp)
	movl	%ecx, -24(%rbp)
	movl	$0, -4(%rbp)
.LBB10_1:                               # %for.cond
                                        # =>This Inner Loop Header: Depth=1
	cmpl	$25, -4(%rbp)
	jge	.LBB10_4
# %bb.2:                                # %for.body
                                        #   in Loop: Header=BB10_1 Depth=1
	movq	-16(%rbp), %rax
	movslq	-4(%rbp), %rcx
	movl	(%rax,%rcx,4), %eax
	movslq	-4(%rbp), %rcx
	movl	%eax, -144(%rbp,%rcx,4)
# %bb.3:                                # %for.inc
                                        #   in Loop: Header=BB10_1 Depth=1
	movl	-4(%rbp), %eax
	addl	$1, %eax
	movl	%eax, -4(%rbp)
	jmp	.LBB10_1
.LBB10_4:                               # %for.end
	cmpl	$0, -20(%rbp)
	je	.LBB10_13
# %bb.5:                                # %if.then
	cmpl	$0, -28(%rbp)
	je	.LBB10_7
# %bb.6:                                # %if.then4
	movq	-16(%rbp), %rax
	movl	(%rax), %eax
	movq	-16(%rbp), %rcx
	movl	4(%rcx), %ecx
	shll	$1, %ecx
	addl	%ecx, %eax
	movq	-16(%rbp), %rcx
	addl	8(%rcx), %eax
	addl	$2, %eax
	sarl	$2, %eax
	movl	%eax, -140(%rbp)
	jmp	.LBB10_8
.LBB10_7:                               # %if.else
	movq	-16(%rbp), %rax
	movl	4(%rax), %eax
	movq	-16(%rbp), %rcx
	movl	4(%rcx), %ecx
	shll	$1, %ecx
	addl	%ecx, %eax
	movq	-16(%rbp), %rcx
	addl	8(%rcx), %eax
	addl	$2, %eax
	sarl	$2, %eax
	movl	%eax, -140(%rbp)
.LBB10_8:                               # %if.end
	movl	$2, -4(%rbp)
.LBB10_9:                               # %for.cond26
                                        # =>This Inner Loop Header: Depth=1
	cmpl	$16, -4(%rbp)
	jge	.LBB10_12
# %bb.10:                               # %for.body28
                                        #   in Loop: Header=BB10_9 Depth=1
	movq	-16(%rbp), %rax
	movl	-4(%rbp), %ecx
	subl	$1, %ecx
	movslq	%ecx, %rcx
	movl	(%rax,%rcx,4), %eax
	movq	-16(%rbp), %rcx
	movslq	-4(%rbp), %rdx
	movl	(%rcx,%rdx,4), %ecx
	shll	$1, %ecx
	addl	%ecx, %eax
	movq	-16(%rbp), %rcx
	movl	-4(%rbp), %edx
	addl	$1, %edx
	movslq	%edx, %rdx
	addl	(%rcx,%rdx,4), %eax
	addl	$2, %eax
	sarl	$2, %eax
	movslq	-4(%rbp), %rcx
	movl	%eax, -144(%rbp,%rcx,4)
# %bb.11:                               # %for.inc46
                                        #   in Loop: Header=BB10_9 Depth=1
	movl	-4(%rbp), %eax
	addl	$1, %eax
	movl	%eax, -4(%rbp)
	jmp	.LBB10_9
.LBB10_12:                              # %for.end48
	movq	-16(%rbp), %rax
	movl	64(%rax), %eax
	movq	-16(%rbp), %rcx
	movl	64(%rcx), %ecx
	shll	$1, %ecx
	addl	%ecx, %eax
	movq	-16(%rbp), %rcx
	addl	60(%rcx), %eax
	addl	$2, %eax
	sarl	$2, %eax
	movl	%eax, -80(%rbp)
.LBB10_13:                              # %if.end58
	cmpl	$0, -28(%rbp)
	je	.LBB10_24
# %bb.14:                               # %if.then60
	cmpl	$0, -20(%rbp)
	je	.LBB10_17
# %bb.15:                               # %land.lhs.true
	cmpl	$0, -24(%rbp)
	je	.LBB10_17
# %bb.16:                               # %if.then63
	movq	-16(%rbp), %rax
	movl	68(%rax), %eax
	movq	-16(%rbp), %rcx
	movl	(%rcx), %ecx
	shll	$1, %ecx
	addl	%ecx, %eax
	movq	-16(%rbp), %rcx
	addl	4(%rcx), %eax
	addl	$2, %eax
	sarl	$2, %eax
	movl	%eax, -144(%rbp)
	jmp	.LBB10_23
.LBB10_17:                              # %if.else73
	cmpl	$0, -20(%rbp)
	je	.LBB10_19
# %bb.18:                               # %if.then75
	movq	-16(%rbp), %rax
	movl	(%rax), %eax
	movq	-16(%rbp), %rcx
	movl	(%rcx), %ecx
	shll	$1, %ecx
	addl	%ecx, %eax
	movq	-16(%rbp), %rcx
	addl	4(%rcx), %eax
	addl	$2, %eax
	sarl	$2, %eax
	movl	%eax, -144(%rbp)
	jmp	.LBB10_22
.LBB10_19:                              # %if.else85
	cmpl	$0, -24(%rbp)
	je	.LBB10_21
# %bb.20:                               # %if.then87
	movq	-16(%rbp), %rax
	movl	(%rax), %eax
	movq	-16(%rbp), %rcx
	movl	(%rcx), %ecx
	shll	$1, %ecx
	addl	%ecx, %eax
	movq	-16(%rbp), %rcx
	addl	68(%rcx), %eax
	addl	$2, %eax
	sarl	$2, %eax
	movl	%eax, -144(%rbp)
.LBB10_21:                              # %if.end97
	jmp	.LBB10_22
.LBB10_22:                              # %if.end98
	jmp	.LBB10_23
.LBB10_23:                              # %if.end99
	jmp	.LBB10_24
.LBB10_24:                              # %if.end100
	cmpl	$0, -24(%rbp)
	je	.LBB10_33
# %bb.25:                               # %if.then102
	cmpl	$0, -28(%rbp)
	je	.LBB10_27
# %bb.26:                               # %if.then104
	movq	-16(%rbp), %rax
	movl	(%rax), %eax
	movq	-16(%rbp), %rcx
	movl	68(%rcx), %ecx
	shll	$1, %ecx
	addl	%ecx, %eax
	movq	-16(%rbp), %rcx
	addl	72(%rcx), %eax
	addl	$2, %eax
	sarl	$2, %eax
	movl	%eax, -76(%rbp)
	jmp	.LBB10_28
.LBB10_27:                              # %if.else114
	movq	-16(%rbp), %rax
	movl	68(%rax), %eax
	movq	-16(%rbp), %rcx
	movl	68(%rcx), %ecx
	shll	$1, %ecx
	addl	%ecx, %eax
	movq	-16(%rbp), %rcx
	addl	72(%rcx), %eax
	addl	$2, %eax
	sarl	$2, %eax
	movl	%eax, -76(%rbp)
.LBB10_28:                              # %if.end124
	movl	$18, -4(%rbp)
.LBB10_29:                              # %for.cond125
                                        # =>This Inner Loop Header: Depth=1
	cmpl	$24, -4(%rbp)
	jge	.LBB10_32
# %bb.30:                               # %for.body127
                                        #   in Loop: Header=BB10_29 Depth=1
	movq	-16(%rbp), %rax
	movl	-4(%rbp), %ecx
	subl	$1, %ecx
	movslq	%ecx, %rcx
	movl	(%rax,%rcx,4), %eax
	movq	-16(%rbp), %rcx
	movslq	-4(%rbp), %rdx
	movl	(%rcx,%rdx,4), %ecx
	shll	$1, %ecx
	addl	%ecx, %eax
	movq	-16(%rbp), %rcx
	movl	-4(%rbp), %edx
	addl	$1, %edx
	movslq	%edx, %rdx
	addl	(%rcx,%rdx,4), %eax
	addl	$2, %eax
	sarl	$2, %eax
	movslq	-4(%rbp), %rcx
	movl	%eax, -144(%rbp,%rcx,4)
# %bb.31:                               # %for.inc146
                                        #   in Loop: Header=BB10_29 Depth=1
	movl	-4(%rbp), %eax
	addl	$1, %eax
	movl	%eax, -4(%rbp)
	jmp	.LBB10_29
.LBB10_32:                              # %for.end148
	movq	-16(%rbp), %rax
	movl	92(%rax), %eax
	movq	-16(%rbp), %rcx
	movl	96(%rcx), %ecx
	shll	$1, %ecx
	addl	%ecx, %eax
	movq	-16(%rbp), %rcx
	addl	96(%rcx), %eax
	addl	$2, %eax
	sarl	$2, %eax
	movl	%eax, -48(%rbp)
.LBB10_33:                              # %if.end158
	movl	$0, -4(%rbp)
.LBB10_34:                              # %for.cond159
                                        # =>This Inner Loop Header: Depth=1
	cmpl	$25, -4(%rbp)
	jge	.LBB10_37
# %bb.35:                               # %for.body161
                                        #   in Loop: Header=BB10_34 Depth=1
	movslq	-4(%rbp), %rax
	movl	-144(%rbp,%rax,4), %eax
	movq	-16(%rbp), %rcx
	movslq	-4(%rbp), %rdx
	movl	%eax, (%rcx,%rdx,4)
# %bb.36:                               # %for.inc166
                                        #   in Loop: Header=BB10_34 Depth=1
	movl	-4(%rbp), %eax
	addl	$1, %eax
	movl	%eax, -4(%rbp)
	jmp	.LBB10_34
.LBB10_37:                              # %for.end168
	cmpl	$1267030541, -32(%rbp)  # imm = 0x4B855A0D
	jne	.LBB10_39
.LBB10_38:
	addq	$144, %rsp
	popq	%rbp
	.cfi_def_cfa %rsp, 8
	retq
.LBB10_39:                              # %func_exit
	.cfi_def_cfa %rbp, 16
	callq	detect_breach
	jmp	.LBB10_38
.Lfunc_end10:
	.size	LowPassForIntra8x8Pred.5, .Lfunc_end10-LowPassForIntra8x8Pred.5
	.cfi_endproc
                                        # -- End function
	.globl	LowPassForIntra8x8Pred.6 # -- Begin function LowPassForIntra8x8Pred.6
	.p2align	4, 0x90
	.type	LowPassForIntra8x8Pred.6,@function
LowPassForIntra8x8Pred.6:               # @LowPassForIntra8x8Pred.6
	.cfi_startproc
# %bb.0:                                # %entry
	pushq	%rbp
	.cfi_def_cfa_offset 16
	.cfi_offset %rbp, -16
	movq	%rsp, %rbp
	.cfi_def_cfa_register %rbp
	subq	$144, %rsp
	movl	$222347035, -32(%rbp)   # imm = 0xD40BF1B
	movq	%rdi, -16(%rbp)
	movl	%esi, -20(%rbp)
	movl	%edx, -24(%rbp)
	movl	%ecx, -28(%rbp)
	movl	$0, -4(%rbp)
.LBB11_1:                               # %for.cond
                                        # =>This Inner Loop Header: Depth=1
	cmpl	$25, -4(%rbp)
	jge	.LBB11_4
# %bb.2:                                # %for.body
                                        #   in Loop: Header=BB11_1 Depth=1
	movq	-16(%rbp), %rax
	movslq	-4(%rbp), %rcx
	movl	(%rax,%rcx,4), %eax
	movslq	-4(%rbp), %rcx
	movl	%eax, -144(%rbp,%rcx,4)
# %bb.3:                                # %for.inc
                                        #   in Loop: Header=BB11_1 Depth=1
	movl	-4(%rbp), %eax
	addl	$1, %eax
	movl	%eax, -4(%rbp)
	jmp	.LBB11_1
.LBB11_4:                               # %for.end
	cmpl	$0, -24(%rbp)
	je	.LBB11_13
# %bb.5:                                # %if.then
	cmpl	$0, -20(%rbp)
	je	.LBB11_7
# %bb.6:                                # %if.then4
	movq	-16(%rbp), %rax
	movl	(%rax), %eax
	movq	-16(%rbp), %rcx
	movl	4(%rcx), %ecx
	shll	$1, %ecx
	addl	%ecx, %eax
	movq	-16(%rbp), %rcx
	addl	8(%rcx), %eax
	addl	$2, %eax
	sarl	$2, %eax
	movl	%eax, -140(%rbp)
	jmp	.LBB11_8
.LBB11_7:                               # %if.else
	movq	-16(%rbp), %rax
	movl	4(%rax), %eax
	movq	-16(%rbp), %rcx
	movl	4(%rcx), %ecx
	shll	$1, %ecx
	addl	%ecx, %eax
	movq	-16(%rbp), %rcx
	addl	8(%rcx), %eax
	addl	$2, %eax
	sarl	$2, %eax
	movl	%eax, -140(%rbp)
.LBB11_8:                               # %if.end
	movl	$2, -4(%rbp)
.LBB11_9:                               # %for.cond26
                                        # =>This Inner Loop Header: Depth=1
	cmpl	$16, -4(%rbp)
	jge	.LBB11_12
# %bb.10:                               # %for.body28
                                        #   in Loop: Header=BB11_9 Depth=1
	movq	-16(%rbp), %rax
	movl	-4(%rbp), %ecx
	subl	$1, %ecx
	movslq	%ecx, %rcx
	movl	(%rax,%rcx,4), %eax
	movq	-16(%rbp), %rcx
	movslq	-4(%rbp), %rdx
	movl	(%rcx,%rdx,4), %ecx
	shll	$1, %ecx
	addl	%ecx, %eax
	movq	-16(%rbp), %rcx
	movl	-4(%rbp), %edx
	addl	$1, %edx
	movslq	%edx, %rdx
	addl	(%rcx,%rdx,4), %eax
	addl	$2, %eax
	sarl	$2, %eax
	movslq	-4(%rbp), %rcx
	movl	%eax, -144(%rbp,%rcx,4)
# %bb.11:                               # %for.inc46
                                        #   in Loop: Header=BB11_9 Depth=1
	movl	-4(%rbp), %eax
	addl	$1, %eax
	movl	%eax, -4(%rbp)
	jmp	.LBB11_9
.LBB11_12:                              # %for.end48
	movq	-16(%rbp), %rax
	movl	64(%rax), %eax
	movq	-16(%rbp), %rcx
	movl	64(%rcx), %ecx
	shll	$1, %ecx
	addl	%ecx, %eax
	movq	-16(%rbp), %rcx
	addl	60(%rcx), %eax
	addl	$2, %eax
	sarl	$2, %eax
	movl	%eax, -80(%rbp)
.LBB11_13:                              # %if.end58
	cmpl	$0, -20(%rbp)
	je	.LBB11_24
# %bb.14:                               # %if.then60
	cmpl	$0, -24(%rbp)
	je	.LBB11_17
# %bb.15:                               # %land.lhs.true
	cmpl	$0, -28(%rbp)
	je	.LBB11_17
# %bb.16:                               # %if.then63
	movq	-16(%rbp), %rax
	movl	68(%rax), %eax
	movq	-16(%rbp), %rcx
	movl	(%rcx), %ecx
	shll	$1, %ecx
	addl	%ecx, %eax
	movq	-16(%rbp), %rcx
	addl	4(%rcx), %eax
	addl	$2, %eax
	sarl	$2, %eax
	movl	%eax, -144(%rbp)
	jmp	.LBB11_23
.LBB11_17:                              # %if.else73
	cmpl	$0, -24(%rbp)
	je	.LBB11_19
# %bb.18:                               # %if.then75
	movq	-16(%rbp), %rax
	movl	(%rax), %eax
	movq	-16(%rbp), %rcx
	movl	(%rcx), %ecx
	shll	$1, %ecx
	addl	%ecx, %eax
	movq	-16(%rbp), %rcx
	addl	4(%rcx), %eax
	addl	$2, %eax
	sarl	$2, %eax
	movl	%eax, -144(%rbp)
	jmp	.LBB11_22
.LBB11_19:                              # %if.else85
	cmpl	$0, -28(%rbp)
	je	.LBB11_21
# %bb.20:                               # %if.then87
	movq	-16(%rbp), %rax
	movl	(%rax), %eax
	movq	-16(%rbp), %rcx
	movl	(%rcx), %ecx
	shll	$1, %ecx
	addl	%ecx, %eax
	movq	-16(%rbp), %rcx
	addl	68(%rcx), %eax
	addl	$2, %eax
	sarl	$2, %eax
	movl	%eax, -144(%rbp)
.LBB11_21:                              # %if.end97
	jmp	.LBB11_22
.LBB11_22:                              # %if.end98
	jmp	.LBB11_23
.LBB11_23:                              # %if.end99
	jmp	.LBB11_24
.LBB11_24:                              # %if.end100
	cmpl	$0, -28(%rbp)
	je	.LBB11_33
# %bb.25:                               # %if.then102
	cmpl	$0, -20(%rbp)
	je	.LBB11_27
# %bb.26:                               # %if.then104
	movq	-16(%rbp), %rax
	movl	(%rax), %eax
	movq	-16(%rbp), %rcx
	movl	68(%rcx), %ecx
	shll	$1, %ecx
	addl	%ecx, %eax
	movq	-16(%rbp), %rcx
	addl	72(%rcx), %eax
	addl	$2, %eax
	sarl	$2, %eax
	movl	%eax, -76(%rbp)
	jmp	.LBB11_28
.LBB11_27:                              # %if.else114
	movq	-16(%rbp), %rax
	movl	68(%rax), %eax
	movq	-16(%rbp), %rcx
	movl	68(%rcx), %ecx
	shll	$1, %ecx
	addl	%ecx, %eax
	movq	-16(%rbp), %rcx
	addl	72(%rcx), %eax
	addl	$2, %eax
	sarl	$2, %eax
	movl	%eax, -76(%rbp)
.LBB11_28:                              # %if.end124
	movl	$18, -4(%rbp)
.LBB11_29:                              # %for.cond125
                                        # =>This Inner Loop Header: Depth=1
	cmpl	$24, -4(%rbp)
	jge	.LBB11_32
# %bb.30:                               # %for.body127
                                        #   in Loop: Header=BB11_29 Depth=1
	movq	-16(%rbp), %rax
	movl	-4(%rbp), %ecx
	subl	$1, %ecx
	movslq	%ecx, %rcx
	movl	(%rax,%rcx,4), %eax
	movq	-16(%rbp), %rcx
	movslq	-4(%rbp), %rdx
	movl	(%rcx,%rdx,4), %ecx
	shll	$1, %ecx
	addl	%ecx, %eax
	movq	-16(%rbp), %rcx
	movl	-4(%rbp), %edx
	addl	$1, %edx
	movslq	%edx, %rdx
	addl	(%rcx,%rdx,4), %eax
	addl	$2, %eax
	sarl	$2, %eax
	movslq	-4(%rbp), %rcx
	movl	%eax, -144(%rbp,%rcx,4)
# %bb.31:                               # %for.inc146
                                        #   in Loop: Header=BB11_29 Depth=1
	movl	-4(%rbp), %eax
	addl	$1, %eax
	movl	%eax, -4(%rbp)
	jmp	.LBB11_29
.LBB11_32:                              # %for.end148
	movq	-16(%rbp), %rax
	movl	92(%rax), %eax
	movq	-16(%rbp), %rcx
	movl	96(%rcx), %ecx
	shll	$1, %ecx
	addl	%ecx, %eax
	movq	-16(%rbp), %rcx
	addl	96(%rcx), %eax
	addl	$2, %eax
	sarl	$2, %eax
	movl	%eax, -48(%rbp)
.LBB11_33:                              # %if.end158
	movl	$0, -4(%rbp)
.LBB11_34:                              # %for.cond159
                                        # =>This Inner Loop Header: Depth=1
	cmpl	$25, -4(%rbp)
	jge	.LBB11_37
# %bb.35:                               # %for.body161
                                        #   in Loop: Header=BB11_34 Depth=1
	movslq	-4(%rbp), %rax
	movl	-144(%rbp,%rax,4), %eax
	movq	-16(%rbp), %rcx
	movslq	-4(%rbp), %rdx
	movl	%eax, (%rcx,%rdx,4)
# %bb.36:                               # %for.inc166
                                        #   in Loop: Header=BB11_34 Depth=1
	movl	-4(%rbp), %eax
	addl	$1, %eax
	movl	%eax, -4(%rbp)
	jmp	.LBB11_34
.LBB11_37:                              # %for.end168
	cmpl	$222347035, -32(%rbp)   # imm = 0xD40BF1B
	jne	.LBB11_39
.LBB11_38:
	addq	$144, %rsp
	popq	%rbp
	.cfi_def_cfa %rsp, 8
	retq
.LBB11_39:                              # %func_exit
	.cfi_def_cfa %rbp, 16
	callq	detect_breach
	jmp	.LBB11_38
.Lfunc_end11:
	.size	LowPassForIntra8x8Pred.6, .Lfunc_end11-LowPassForIntra8x8Pred.6
	.cfi_endproc
                                        # -- End function
	.globl	RDCost_for_8x8IntraBlocks.7 # -- Begin function RDCost_for_8x8IntraBlocks.7
	.p2align	4, 0x90
	.type	RDCost_for_8x8IntraBlocks.7,@function
RDCost_for_8x8IntraBlocks.7:            # @RDCost_for_8x8IntraBlocks.7
	.cfi_startproc
# %bb.0:                                # %entry
	pushq	%rbp
	.cfi_def_cfa_offset 16
	.cfi_offset %rbp, -16
	movq	%rsp, %rbp
	.cfi_def_cfa_register %rbp
	subq	$176, %rsp
	movl	$672161010, -80(%rbp)   # imm = 0x28105CF2
	movq	%rdi, -168(%rbp)
	movl	%esi, -4(%rbp)
	movl	%edx, -28(%rbp)
	vmovsd	%xmm0, -144(%rbp)
	vmovsd	%xmm1, -176(%rbp)
	movl	%ecx, -40(%rbp)
	vxorps	%xmm0, %xmm0, %xmm0
	vmovsd	%xmm0, -112(%rbp)
	movq	$0, -64(%rbp)
	movl	-4(%rbp), %eax
	cltd
	movl	$2, %ecx
	idivl	%ecx
	shll	$3, %edx
	movl	%edx, -68(%rbp)
	movl	-4(%rbp), %eax
	cltd
	idivl	%ecx
	shll	$3, %eax
	movl	%eax, -44(%rbp)
	movq	img, %rax
	movl	152(%rax), %eax
	addl	-68(%rbp), %eax
	movl	%eax, -36(%rbp)
	movq	img, %rax
	movl	156(%rax), %eax
	addl	-44(%rbp), %eax
	movl	%eax, -72(%rbp)
	movq	img, %rax
	movl	172(%rax), %eax
	addl	-44(%rbp), %eax
	movl	%eax, -84(%rbp)
	movq	imgY_org, %rax
	movq	%rax, -152(%rbp)
	movq	enc_picture, %rax
	movq	6424(%rax), %rax
	movq	%rax, -160(%rbp)
	movq	img, %rax
	movq	14160(%rax), %rax
	movq	%rax, -128(%rbp)
	movq	img, %rax
	movq	14168(%rax), %rax
	movq	img, %rcx
	movslq	12(%rcx), %rcx
	imulq	$632, %rcx, %rcx        # imm = 0x278
	addq	%rcx, %rax
	movq	%rax, -104(%rbp)
	movq	img, %rax
	addq	$14176, %rax            # imm = 0x3760
	movq	-104(%rbp), %rcx
	movslq	(%rcx), %rcx
	imulq	$48, %rcx, %rcx
	addq	%rcx, %rax
	movq	%rax, -24(%rbp)
	movq	input, %rax
	movslq	2364(%rax), %rax
	movq	assignSE2partition(,%rax,8), %rax
	movq	%rax, -120(%rbp)
	movl	$0, -76(%rbp)
	movl	-4(%rbp), %edi
	leaq	-76(%rbp), %rsi
	movl	$1, %edx
	callq	dct_luma8x8
	movq	-168(%rbp), %rcx
	movl	%eax, (%rcx)
	movl	$0, -12(%rbp)
.LBB12_1:                               # %for.cond
                                        # =>This Loop Header: Depth=1
                                        #     Child Loop BB12_3 Depth 2
	cmpl	$8, -12(%rbp)
	jge	.LBB12_8
# %bb.2:                                # %for.body
                                        #   in Loop: Header=BB12_1 Depth=1
	movl	-36(%rbp), %eax
	movl	%eax, -16(%rbp)
.LBB12_3:                               # %for.cond9
                                        #   Parent Loop BB12_1 Depth=1
                                        # =>  This Inner Loop Header: Depth=2
	movl	-16(%rbp), %eax
	movl	-36(%rbp), %ecx
	addl	$8, %ecx
	cmpl	%ecx, %eax
	jge	.LBB12_6
# %bb.4:                                # %for.body12
                                        #   in Loop: Header=BB12_3 Depth=2
	movq	img, %rax
	movq	71776(%rax), %rax
	movq	-152(%rbp), %rcx
	movl	-84(%rbp), %edx
	addl	-12(%rbp), %edx
	movslq	%edx, %rdx
	movq	(%rcx,%rdx,8), %rcx
	movslq	-16(%rbp), %rdx
	movzwl	(%rcx,%rdx,2), %ecx
	movq	-160(%rbp), %rdx
	movl	-72(%rbp), %esi
	addl	-12(%rbp), %esi
	movslq	%esi, %rsi
	movq	(%rdx,%rsi,8), %rdx
	movslq	-16(%rbp), %rsi
	movzwl	(%rdx,%rsi,2), %edx
	subl	%edx, %ecx
	movslq	%ecx, %rcx
	movslq	(%rax,%rcx,4), %rax
	addq	-64(%rbp), %rax
	movq	%rax, -64(%rbp)
# %bb.5:                                # %for.inc
                                        #   in Loop: Header=BB12_3 Depth=2
	movl	-16(%rbp), %eax
	addl	$1, %eax
	movl	%eax, -16(%rbp)
	jmp	.LBB12_3
.LBB12_6:                               # %for.end
                                        #   in Loop: Header=BB12_1 Depth=1
	jmp	.LBB12_7
.LBB12_7:                               # %for.inc28
                                        #   in Loop: Header=BB12_1 Depth=1
	movl	-12(%rbp), %eax
	addl	$1, %eax
	movl	%eax, -12(%rbp)
	jmp	.LBB12_1
.LBB12_8:                               # %for.end30
	movl	-40(%rbp), %eax
	cmpl	-28(%rbp), %eax
	jne	.LBB12_10
# %bb.9:                                # %cond.true
	movl	$4294967295, %eax       # imm = 0xFFFFFFFF
	jmp	.LBB12_14
.LBB12_10:                              # %cond.false
	movl	-28(%rbp), %eax
	cmpl	-40(%rbp), %eax
	jge	.LBB12_12
# %bb.11:                               # %cond.true35
	movl	-28(%rbp), %eax
	jmp	.LBB12_13
.LBB12_12:                              # %cond.false36
	movl	-28(%rbp), %eax
	subl	$1, %eax
.LBB12_13:                              # %cond.end
.LBB12_14:                              # %cond.end38
	movq	-24(%rbp), %rcx
	movl	%eax, 4(%rcx)
	movl	-4(%rbp), %eax
	movq	-24(%rbp), %rcx
	movl	%eax, 24(%rcx)
	movq	-24(%rbp), %rax
	movl	$4, (%rax)
	movq	input, %rax
	cmpl	$0, 2356(%rax)
	je	.LBB12_16
# %bb.15:                               # %if.then
	movq	-24(%rbp), %rax
	movabsq	$writeIntraPredMode_CABAC, %rcx
	movq	%rcx, 40(%rax)
.LBB12_16:                              # %if.end
	movq	img, %rax
	cmpl	$1, 24(%rax)
	je	.LBB12_18
# %bb.17:                               # %if.then45
	movq	-128(%rbp), %rax
	movq	24(%rax), %rax
	movq	-120(%rbp), %rcx
	movslq	16(%rcx), %rcx
	imulq	$120, %rcx, %rcx
	addq	%rcx, %rax
	movq	%rax, -56(%rbp)
	jmp	.LBB12_19
.LBB12_18:                              # %if.else
	movq	-128(%rbp), %rax
	movq	24(%rax), %rax
	movq	-120(%rbp), %rcx
	movslq	72(%rcx), %rcx
	imulq	$120, %rcx, %rcx
	addq	%rcx, %rax
	movq	%rax, -56(%rbp)
.LBB12_19:                              # %if.end53
	movq	input, %rax
	cmpl	$0, 2356(%rax)
	jne	.LBB12_21
# %bb.20:                               # %if.then57
	movq	-24(%rbp), %rdi
	movq	-56(%rbp), %rsi
	callq	writeSyntaxElement_Intra4x4PredictionMode
	jmp	.LBB12_22
.LBB12_21:                              # %if.else59
	movq	-56(%rbp), %rax
	movq	112(%rax), %rax
	movq	-24(%rbp), %rdi
	movq	-56(%rbp), %rsi
	callq	*%rax
.LBB12_22:                              # %if.end61
	movq	-24(%rbp), %rax
	movl	12(%rax), %eax
	movl	%eax, -8(%rbp)
	movq	-24(%rbp), %rax
	addq	$48, %rax
	movq	%rax, -24(%rbp)
	movq	-104(%rbp), %rax
	movl	(%rax), %ecx
	addl	$1, %ecx
	movl	%ecx, (%rax)
	movq	input, %rax
	cmpl	$0, 2356(%rax)
	jne	.LBB12_28
# %bb.23:                               # %if.then67
	movl	$0, -32(%rbp)
.LBB12_24:                              # %for.cond68
                                        # =>This Inner Loop Header: Depth=1
	cmpl	$4, -32(%rbp)
	jge	.LBB12_27
# %bb.25:                               # %for.body71
                                        #   in Loop: Header=BB12_24 Depth=1
	movl	-4(%rbp), %esi
	movl	-32(%rbp), %edx
	xorl	%edi, %edi
	xorl	%ecx, %ecx
	callq	writeCoeff4x4_CAVLC
	addl	-8(%rbp), %eax
	movl	%eax, -8(%rbp)
# %bb.26:                               # %for.inc74
                                        #   in Loop: Header=BB12_24 Depth=1
	movl	-32(%rbp), %eax
	addl	$1, %eax
	movl	%eax, -32(%rbp)
	jmp	.LBB12_24
.LBB12_27:                              # %for.end76
	jmp	.LBB12_29
.LBB12_28:                              # %if.else77
	movl	-4(%rbp), %edi
	movl	$1, %esi
	callq	writeLumaCoeff8x8_CABAC
	addl	-8(%rbp), %eax
	movl	%eax, -8(%rbp)
.LBB12_29:                              # %if.end80
	vcvtsi2sdq	-64(%rbp), %xmm0, %xmm0
	vmovsd	-144(%rbp), %xmm1       # xmm1 = mem[0],zero
	vcvtsi2sdl	-8(%rbp), %xmm0, %xmm2
	vmulsd	%xmm2, %xmm1, %xmm1
	vaddsd	%xmm1, %xmm0, %xmm0
	vmovsd	%xmm0, -112(%rbp)
	movq	img, %rax
	cmpl	$0, 72724(%rax)
	je	.LBB12_31
# %bb.30:                               # %if.then85
	vcvtsi2sdl	-8(%rbp), %xmm0, %xmm0
	vmovsd	%xmm0, -96(%rbp)
	jmp	.LBB12_32
.LBB12_31:                              # %if.else87
	vmovsd	-112(%rbp), %xmm0       # xmm0 = mem[0],zero
	vmovsd	%xmm0, -96(%rbp)
.LBB12_32:                              # %return
	vmovsd	-96(%rbp), %xmm0        # xmm0 = mem[0],zero
	cmpl	$672161010, -80(%rbp)   # imm = 0x28105CF2
	jne	.LBB12_34
.LBB12_33:
	addq	$176, %rsp
	popq	%rbp
	.cfi_def_cfa %rsp, 8
	retq
.LBB12_34:                              # %func_exit
	.cfi_def_cfa %rbp, 16
	vmovsd	%xmm0, -136(%rbp)       # 8-byte Spill
	callq	detect_breach
	vmovsd	-136(%rbp), %xmm0       # 8-byte Reload
                                        # xmm0 = mem[0],zero
	jmp	.LBB12_33
.Lfunc_end12:
	.size	RDCost_for_8x8IntraBlocks.7, .Lfunc_end12-RDCost_for_8x8IntraBlocks.7
	.cfi_endproc
                                        # -- End function
	.globl	LowPassForIntra8x8Pred.8 # -- Begin function LowPassForIntra8x8Pred.8
	.p2align	4, 0x90
	.type	LowPassForIntra8x8Pred.8,@function
LowPassForIntra8x8Pred.8:               # @LowPassForIntra8x8Pred.8
	.cfi_startproc
# %bb.0:                                # %entry
	pushq	%rbp
	.cfi_def_cfa_offset 16
	.cfi_offset %rbp, -16
	movq	%rsp, %rbp
	.cfi_def_cfa_register %rbp
	subq	$144, %rsp
	movl	$751122373, -32(%rbp)   # imm = 0x2CC537C5
	movq	%rdi, -16(%rbp)
	movl	%esi, -28(%rbp)
	movl	%edx, -24(%rbp)
	movl	%ecx, -20(%rbp)
	movl	$0, -4(%rbp)
.LBB13_1:                               # %for.cond
                                        # =>This Inner Loop Header: Depth=1
	cmpl	$25, -4(%rbp)
	jge	.LBB13_4
# %bb.2:                                # %for.body
                                        #   in Loop: Header=BB13_1 Depth=1
	movq	-16(%rbp), %rax
	movslq	-4(%rbp), %rcx
	movl	(%rax,%rcx,4), %eax
	movslq	-4(%rbp), %rcx
	movl	%eax, -144(%rbp,%rcx,4)
# %bb.3:                                # %for.inc
                                        #   in Loop: Header=BB13_1 Depth=1
	movl	-4(%rbp), %eax
	addl	$1, %eax
	movl	%eax, -4(%rbp)
	jmp	.LBB13_1
.LBB13_4:                               # %for.end
	cmpl	$0, -24(%rbp)
	je	.LBB13_13
# %bb.5:                                # %if.then
	cmpl	$0, -28(%rbp)
	je	.LBB13_7
# %bb.6:                                # %if.then4
	movq	-16(%rbp), %rax
	movl	(%rax), %eax
	movq	-16(%rbp), %rcx
	movl	4(%rcx), %ecx
	shll	$1, %ecx
	addl	%ecx, %eax
	movq	-16(%rbp), %rcx
	addl	8(%rcx), %eax
	addl	$2, %eax
	sarl	$2, %eax
	movl	%eax, -140(%rbp)
	jmp	.LBB13_8
.LBB13_7:                               # %if.else
	movq	-16(%rbp), %rax
	movl	4(%rax), %eax
	movq	-16(%rbp), %rcx
	movl	4(%rcx), %ecx
	shll	$1, %ecx
	addl	%ecx, %eax
	movq	-16(%rbp), %rcx
	addl	8(%rcx), %eax
	addl	$2, %eax
	sarl	$2, %eax
	movl	%eax, -140(%rbp)
.LBB13_8:                               # %if.end
	movl	$2, -4(%rbp)
.LBB13_9:                               # %for.cond26
                                        # =>This Inner Loop Header: Depth=1
	cmpl	$16, -4(%rbp)
	jge	.LBB13_12
# %bb.10:                               # %for.body28
                                        #   in Loop: Header=BB13_9 Depth=1
	movq	-16(%rbp), %rax
	movl	-4(%rbp), %ecx
	subl	$1, %ecx
	movslq	%ecx, %rcx
	movl	(%rax,%rcx,4), %eax
	movq	-16(%rbp), %rcx
	movslq	-4(%rbp), %rdx
	movl	(%rcx,%rdx,4), %ecx
	shll	$1, %ecx
	addl	%ecx, %eax
	movq	-16(%rbp), %rcx
	movl	-4(%rbp), %edx
	addl	$1, %edx
	movslq	%edx, %rdx
	addl	(%rcx,%rdx,4), %eax
	addl	$2, %eax
	sarl	$2, %eax
	movslq	-4(%rbp), %rcx
	movl	%eax, -144(%rbp,%rcx,4)
# %bb.11:                               # %for.inc46
                                        #   in Loop: Header=BB13_9 Depth=1
	movl	-4(%rbp), %eax
	addl	$1, %eax
	movl	%eax, -4(%rbp)
	jmp	.LBB13_9
.LBB13_12:                              # %for.end48
	movq	-16(%rbp), %rax
	movl	64(%rax), %eax
	movq	-16(%rbp), %rcx
	movl	64(%rcx), %ecx
	shll	$1, %ecx
	addl	%ecx, %eax
	movq	-16(%rbp), %rcx
	addl	60(%rcx), %eax
	addl	$2, %eax
	sarl	$2, %eax
	movl	%eax, -80(%rbp)
.LBB13_13:                              # %if.end58
	cmpl	$0, -28(%rbp)
	je	.LBB13_24
# %bb.14:                               # %if.then60
	cmpl	$0, -24(%rbp)
	je	.LBB13_17
# %bb.15:                               # %land.lhs.true
	cmpl	$0, -20(%rbp)
	je	.LBB13_17
# %bb.16:                               # %if.then63
	movq	-16(%rbp), %rax
	movl	68(%rax), %eax
	movq	-16(%rbp), %rcx
	movl	(%rcx), %ecx
	shll	$1, %ecx
	addl	%ecx, %eax
	movq	-16(%rbp), %rcx
	addl	4(%rcx), %eax
	addl	$2, %eax
	sarl	$2, %eax
	movl	%eax, -144(%rbp)
	jmp	.LBB13_23
.LBB13_17:                              # %if.else73
	cmpl	$0, -24(%rbp)
	je	.LBB13_19
# %bb.18:                               # %if.then75
	movq	-16(%rbp), %rax
	movl	(%rax), %eax
	movq	-16(%rbp), %rcx
	movl	(%rcx), %ecx
	shll	$1, %ecx
	addl	%ecx, %eax
	movq	-16(%rbp), %rcx
	addl	4(%rcx), %eax
	addl	$2, %eax
	sarl	$2, %eax
	movl	%eax, -144(%rbp)
	jmp	.LBB13_22
.LBB13_19:                              # %if.else85
	cmpl	$0, -20(%rbp)
	je	.LBB13_21
# %bb.20:                               # %if.then87
	movq	-16(%rbp), %rax
	movl	(%rax), %eax
	movq	-16(%rbp), %rcx
	movl	(%rcx), %ecx
	shll	$1, %ecx
	addl	%ecx, %eax
	movq	-16(%rbp), %rcx
	addl	68(%rcx), %eax
	addl	$2, %eax
	sarl	$2, %eax
	movl	%eax, -144(%rbp)
.LBB13_21:                              # %if.end97
	jmp	.LBB13_22
.LBB13_22:                              # %if.end98
	jmp	.LBB13_23
.LBB13_23:                              # %if.end99
	jmp	.LBB13_24
.LBB13_24:                              # %if.end100
	cmpl	$0, -20(%rbp)
	je	.LBB13_33
# %bb.25:                               # %if.then102
	cmpl	$0, -28(%rbp)
	je	.LBB13_27
# %bb.26:                               # %if.then104
	movq	-16(%rbp), %rax
	movl	(%rax), %eax
	movq	-16(%rbp), %rcx
	movl	68(%rcx), %ecx
	shll	$1, %ecx
	addl	%ecx, %eax
	movq	-16(%rbp), %rcx
	addl	72(%rcx), %eax
	addl	$2, %eax
	sarl	$2, %eax
	movl	%eax, -76(%rbp)
	jmp	.LBB13_28
.LBB13_27:                              # %if.else114
	movq	-16(%rbp), %rax
	movl	68(%rax), %eax
	movq	-16(%rbp), %rcx
	movl	68(%rcx), %ecx
	shll	$1, %ecx
	addl	%ecx, %eax
	movq	-16(%rbp), %rcx
	addl	72(%rcx), %eax
	addl	$2, %eax
	sarl	$2, %eax
	movl	%eax, -76(%rbp)
.LBB13_28:                              # %if.end124
	movl	$18, -4(%rbp)
.LBB13_29:                              # %for.cond125
                                        # =>This Inner Loop Header: Depth=1
	cmpl	$24, -4(%rbp)
	jge	.LBB13_32
# %bb.30:                               # %for.body127
                                        #   in Loop: Header=BB13_29 Depth=1
	movq	-16(%rbp), %rax
	movl	-4(%rbp), %ecx
	subl	$1, %ecx
	movslq	%ecx, %rcx
	movl	(%rax,%rcx,4), %eax
	movq	-16(%rbp), %rcx
	movslq	-4(%rbp), %rdx
	movl	(%rcx,%rdx,4), %ecx
	shll	$1, %ecx
	addl	%ecx, %eax
	movq	-16(%rbp), %rcx
	movl	-4(%rbp), %edx
	addl	$1, %edx
	movslq	%edx, %rdx
	addl	(%rcx,%rdx,4), %eax
	addl	$2, %eax
	sarl	$2, %eax
	movslq	-4(%rbp), %rcx
	movl	%eax, -144(%rbp,%rcx,4)
# %bb.31:                               # %for.inc146
                                        #   in Loop: Header=BB13_29 Depth=1
	movl	-4(%rbp), %eax
	addl	$1, %eax
	movl	%eax, -4(%rbp)
	jmp	.LBB13_29
.LBB13_32:                              # %for.end148
	movq	-16(%rbp), %rax
	movl	92(%rax), %eax
	movq	-16(%rbp), %rcx
	movl	96(%rcx), %ecx
	shll	$1, %ecx
	addl	%ecx, %eax
	movq	-16(%rbp), %rcx
	addl	96(%rcx), %eax
	addl	$2, %eax
	sarl	$2, %eax
	movl	%eax, -48(%rbp)
.LBB13_33:                              # %if.end158
	movl	$0, -4(%rbp)
.LBB13_34:                              # %for.cond159
                                        # =>This Inner Loop Header: Depth=1
	cmpl	$25, -4(%rbp)
	jge	.LBB13_37
# %bb.35:                               # %for.body161
                                        #   in Loop: Header=BB13_34 Depth=1
	movslq	-4(%rbp), %rax
	movl	-144(%rbp,%rax,4), %eax
	movq	-16(%rbp), %rcx
	movslq	-4(%rbp), %rdx
	movl	%eax, (%rcx,%rdx,4)
# %bb.36:                               # %for.inc166
                                        #   in Loop: Header=BB13_34 Depth=1
	movl	-4(%rbp), %eax
	addl	$1, %eax
	movl	%eax, -4(%rbp)
	jmp	.LBB13_34
.LBB13_37:                              # %for.end168
	cmpl	$751122373, -32(%rbp)   # imm = 0x2CC537C5
	jne	.LBB13_39
.LBB13_38:
	addq	$144, %rsp
	popq	%rbp
	.cfi_def_cfa %rsp, 8
	retq
.LBB13_39:                              # %func_exit
	.cfi_def_cfa %rbp, 16
	callq	detect_breach
	jmp	.LBB13_38
.Lfunc_end13:
	.size	LowPassForIntra8x8Pred.8, .Lfunc_end13-LowPassForIntra8x8Pred.8
	.cfi_endproc
                                        # -- End function
	.globl	intrapred_luma8x8.9     # -- Begin function intrapred_luma8x8.9
	.p2align	4, 0x90
	.type	intrapred_luma8x8.9,@function
intrapred_luma8x8.9:                    # @intrapred_luma8x8.9
	.cfi_startproc
# %bb.0:                                # %entry
	pushq	%rbp
	.cfi_def_cfa_offset 16
	.cfi_offset %rbp, -16
	movq	%rsp, %rbp
	.cfi_def_cfa_register %rbp
	subq	$464, %rsp              # imm = 0x1D0
	movl	$1128430622, -224(%rbp) # imm = 0x43427C1E
	movl	%edi, -216(%rbp)
	movl	%esi, -220(%rbp)
	movq	%rdx, -256(%rbp)
	movq	%rcx, -264(%rbp)
	movq	%r8, -272(%rbp)
	movq	enc_picture, %rax
	movq	6424(%rax), %rax
	movq	%rax, -128(%rbp)
	movl	-216(%rbp), %eax
	andl	$15, %eax
	movl	%eax, -148(%rbp)
	movl	-220(%rbp), %eax
	andl	$15, %eax
	movl	%eax, -152(%rbp)
	movq	img, %rax
	movl	12(%rax), %eax
	movl	%eax, -156(%rbp)
	movl	$0, -4(%rbp)
.LBB14_1:                               # %for.cond
                                        # =>This Inner Loop Header: Depth=1
	cmpl	$8, -4(%rbp)
	jge	.LBB14_4
# %bb.2:                                # %for.body
                                        #   in Loop: Header=BB14_1 Depth=1
	movl	-156(%rbp), %edi
	movl	-148(%rbp), %esi
	subl	$1, %esi
	movl	-152(%rbp), %edx
	addl	-4(%rbp), %edx
	movslq	-4(%rbp), %rax
	imulq	$24, %rax, %rax
	leaq	-464(%rbp), %r8
	addq	%rax, %r8
	movl	$1, %ecx
	callq	getNeighbour
# %bb.3:                                # %for.inc
                                        #   in Loop: Header=BB14_1 Depth=1
	movl	-4(%rbp), %eax
	addl	$1, %eax
	movl	%eax, -4(%rbp)
	jmp	.LBB14_1
.LBB14_4:                               # %for.end
	movl	-156(%rbp), %edi
	movl	-148(%rbp), %esi
	movl	-152(%rbp), %edx
	subl	$1, %edx
	movl	$1, %ecx
	leaq	-208(%rbp), %r8
	callq	getNeighbour
	movl	-156(%rbp), %edi
	movl	-148(%rbp), %esi
	addl	$8, %esi
	movl	-152(%rbp), %edx
	subl	$1, %edx
	movl	$1, %ecx
	leaq	-184(%rbp), %r8
	callq	getNeighbour
	movl	-156(%rbp), %edi
	movl	-148(%rbp), %esi
	subl	$1, %esi
	movl	-152(%rbp), %edx
	subl	$1, %edx
	movl	$1, %ecx
	leaq	-248(%rbp), %r8
	callq	getNeighbour
	xorl	%eax, %eax
	cmpl	$0, -184(%rbp)
	je	.LBB14_8
# %bb.5:                                # %land.rhs
	xorl	%eax, %eax
	cmpl	$8, -148(%rbp)
	jne	.LBB14_7
# %bb.6:                                # %land.rhs9
	cmpl	$8, -152(%rbp)
	sete	%al
.LBB14_7:                               # %land.end
	xorb	$-1, %al
.LBB14_8:                               # %land.end11
	andb	$1, %al
	movzbl	%al, %eax
	movl	%eax, -184(%rbp)
	movq	input, %rax
	cmpl	$0, 216(%rax)
	je	.LBB14_26
# %bb.9:                                # %if.then
	movl	$0, -4(%rbp)
	movl	$1, -116(%rbp)
.LBB14_10:                              # %for.cond14
                                        # =>This Inner Loop Header: Depth=1
	cmpl	$8, -4(%rbp)
	jge	.LBB14_16
# %bb.11:                               # %for.body16
                                        #   in Loop: Header=BB14_10 Depth=1
	movslq	-4(%rbp), %rax
	imulq	$24, %rax, %rax
	leaq	-464(%rbp), %rcx
	addq	%rax, %rcx
	cmpl	$0, (%rcx)
	je	.LBB14_13
# %bb.12:                               # %cond.true
                                        #   in Loop: Header=BB14_10 Depth=1
	movq	img, %rax
	movq	71784(%rax), %rax
	movslq	-4(%rbp), %rcx
	imulq	$24, %rcx, %rcx
	leaq	-464(%rbp), %rdx
	addq	%rcx, %rdx
	movslq	4(%rdx), %rcx
	movl	(%rax,%rcx,4), %eax
	jmp	.LBB14_14
.LBB14_13:                              # %cond.false
                                        #   in Loop: Header=BB14_10 Depth=1
	xorl	%eax, %eax
	jmp	.LBB14_14
.LBB14_14:                              # %cond.end
                                        #   in Loop: Header=BB14_10 Depth=1
	andl	-116(%rbp), %eax
	movl	%eax, -116(%rbp)
# %bb.15:                               # %for.inc26
                                        #   in Loop: Header=BB14_10 Depth=1
	movl	-4(%rbp), %eax
	addl	$1, %eax
	movl	%eax, -4(%rbp)
	jmp	.LBB14_10
.LBB14_16:                              # %for.end28
	cmpl	$0, -208(%rbp)
	je	.LBB14_18
# %bb.17:                               # %cond.true31
	movq	img, %rax
	movq	71784(%rax), %rax
	movslq	-204(%rbp), %rcx
	movl	(%rax,%rcx,4), %eax
	jmp	.LBB14_19
.LBB14_18:                              # %cond.false36
	xorl	%eax, %eax
	jmp	.LBB14_19
.LBB14_19:                              # %cond.end37
	movl	%eax, -132(%rbp)
	cmpl	$0, -184(%rbp)
	je	.LBB14_21
# %bb.20:                               # %cond.true41
	movq	img, %rax
	movq	71784(%rax), %rax
	movslq	-180(%rbp), %rcx
	movl	(%rax,%rcx,4), %eax
	jmp	.LBB14_22
.LBB14_21:                              # %cond.false46
	xorl	%eax, %eax
	jmp	.LBB14_22
.LBB14_22:                              # %cond.end47
	movl	%eax, -212(%rbp)
	cmpl	$0, -248(%rbp)
	je	.LBB14_24
# %bb.23:                               # %cond.true51
	movq	img, %rax
	movq	71784(%rax), %rax
	movslq	-244(%rbp), %rcx
	movl	(%rax,%rcx,4), %eax
	jmp	.LBB14_25
.LBB14_24:                              # %cond.false56
	xorl	%eax, %eax
	jmp	.LBB14_25
.LBB14_25:                              # %cond.end57
	movl	%eax, -140(%rbp)
	jmp	.LBB14_27
.LBB14_26:                              # %if.else
	movl	-464(%rbp), %eax
	movl	%eax, -116(%rbp)
	movl	-208(%rbp), %eax
	movl	%eax, -132(%rbp)
	movl	-184(%rbp), %eax
	movl	%eax, -212(%rbp)
	movl	-248(%rbp), %eax
	movl	%eax, -140(%rbp)
.LBB14_27:                              # %if.end
	xorl	%eax, %eax
	movl	-116(%rbp), %ecx
	movq	-256(%rbp), %rdx
	movl	%ecx, (%rdx)
	movl	-132(%rbp), %ecx
	movq	-264(%rbp), %rdx
	movl	%ecx, (%rdx)
	cmpl	$0, -132(%rbp)
	je	.LBB14_30
# %bb.28:                               # %land.lhs.true
	xorl	%eax, %eax
	cmpl	$0, -116(%rbp)
	je	.LBB14_30
# %bb.29:                               # %land.rhs66
	cmpl	$0, -140(%rbp)
	setne	%al
.LBB14_30:                              # %land.end68
	andb	$1, %al
	movzbl	%al, %eax
	movq	-272(%rbp), %rcx
	movl	%eax, (%rcx)
	movl	-216(%rbp), %eax
	andl	$15, %eax
	movl	%eax, -4(%rbp)
	movl	-220(%rbp), %eax
	andl	$15, %eax
	movl	%eax, -144(%rbp)
	cmpl	$0, -132(%rbp)
	je	.LBB14_32
# %bb.31:                               # %if.then73
	movq	-128(%rbp), %rax
	movslq	-188(%rbp), %rcx
	movq	(%rax,%rcx,8), %rax
	movl	-192(%rbp), %ecx
	addl	$0, %ecx
	movslq	%ecx, %rcx
	movzwl	(%rax,%rcx,2), %eax
	movl	%eax, -108(%rbp)
	movq	-128(%rbp), %rax
	movslq	-188(%rbp), %rcx
	movq	(%rax,%rcx,8), %rax
	movl	-192(%rbp), %ecx
	addl	$1, %ecx
	movslq	%ecx, %rcx
	movzwl	(%rax,%rcx,2), %eax
	movl	%eax, -104(%rbp)
	movq	-128(%rbp), %rax
	movslq	-188(%rbp), %rcx
	movq	(%rax,%rcx,8), %rax
	movl	-192(%rbp), %ecx
	addl	$2, %ecx
	movslq	%ecx, %rcx
	movzwl	(%rax,%rcx,2), %eax
	movl	%eax, -100(%rbp)
	movq	-128(%rbp), %rax
	movslq	-188(%rbp), %rcx
	movq	(%rax,%rcx,8), %rax
	movl	-192(%rbp), %ecx
	addl	$3, %ecx
	movslq	%ecx, %rcx
	movzwl	(%rax,%rcx,2), %eax
	movl	%eax, -96(%rbp)
	movq	-128(%rbp), %rax
	movslq	-188(%rbp), %rcx
	movq	(%rax,%rcx,8), %rax
	movl	-192(%rbp), %ecx
	addl	$4, %ecx
	movslq	%ecx, %rcx
	movzwl	(%rax,%rcx,2), %eax
	movl	%eax, -92(%rbp)
	movq	-128(%rbp), %rax
	movslq	-188(%rbp), %rcx
	movq	(%rax,%rcx,8), %rax
	movl	-192(%rbp), %ecx
	addl	$5, %ecx
	movslq	%ecx, %rcx
	movzwl	(%rax,%rcx,2), %eax
	movl	%eax, -88(%rbp)
	movq	-128(%rbp), %rax
	movslq	-188(%rbp), %rcx
	movq	(%rax,%rcx,8), %rax
	movl	-192(%rbp), %ecx
	addl	$6, %ecx
	movslq	%ecx, %rcx
	movzwl	(%rax,%rcx,2), %eax
	movl	%eax, -84(%rbp)
	movq	-128(%rbp), %rax
	movslq	-188(%rbp), %rcx
	movq	(%rax,%rcx,8), %rax
	movl	-192(%rbp), %ecx
	addl	$7, %ecx
	movslq	%ecx, %rcx
	movzwl	(%rax,%rcx,2), %eax
	movl	%eax, -80(%rbp)
	jmp	.LBB14_33
.LBB14_32:                              # %if.else143
	movq	img, %rax
	movl	72680(%rax), %eax
	movl	%eax, -80(%rbp)
	movl	%eax, -84(%rbp)
	movl	%eax, -88(%rbp)
	movl	%eax, -92(%rbp)
	movl	%eax, -96(%rbp)
	movl	%eax, -100(%rbp)
	movl	%eax, -104(%rbp)
	movl	%eax, -108(%rbp)
.LBB14_33:                              # %if.end152
	cmpl	$0, -212(%rbp)
	je	.LBB14_35
# %bb.34:                               # %if.then154
	movq	-128(%rbp), %rax
	movslq	-164(%rbp), %rcx
	movq	(%rax,%rcx,8), %rax
	movl	-168(%rbp), %ecx
	addl	$0, %ecx
	movslq	%ecx, %rcx
	movzwl	(%rax,%rcx,2), %eax
	movl	%eax, -76(%rbp)
	movq	-128(%rbp), %rax
	movslq	-164(%rbp), %rcx
	movq	(%rax,%rcx,8), %rax
	movl	-168(%rbp), %ecx
	addl	$1, %ecx
	movslq	%ecx, %rcx
	movzwl	(%rax,%rcx,2), %eax
	movl	%eax, -72(%rbp)
	movq	-128(%rbp), %rax
	movslq	-164(%rbp), %rcx
	movq	(%rax,%rcx,8), %rax
	movl	-168(%rbp), %ecx
	addl	$2, %ecx
	movslq	%ecx, %rcx
	movzwl	(%rax,%rcx,2), %eax
	movl	%eax, -68(%rbp)
	movq	-128(%rbp), %rax
	movslq	-164(%rbp), %rcx
	movq	(%rax,%rcx,8), %rax
	movl	-168(%rbp), %ecx
	addl	$3, %ecx
	movslq	%ecx, %rcx
	movzwl	(%rax,%rcx,2), %eax
	movl	%eax, -64(%rbp)
	movq	-128(%rbp), %rax
	movslq	-164(%rbp), %rcx
	movq	(%rax,%rcx,8), %rax
	movl	-168(%rbp), %ecx
	addl	$4, %ecx
	movslq	%ecx, %rcx
	movzwl	(%rax,%rcx,2), %eax
	movl	%eax, -60(%rbp)
	movq	-128(%rbp), %rax
	movslq	-164(%rbp), %rcx
	movq	(%rax,%rcx,8), %rax
	movl	-168(%rbp), %ecx
	addl	$5, %ecx
	movslq	%ecx, %rcx
	movzwl	(%rax,%rcx,2), %eax
	movl	%eax, -56(%rbp)
	movq	-128(%rbp), %rax
	movslq	-164(%rbp), %rcx
	movq	(%rax,%rcx,8), %rax
	movl	-168(%rbp), %ecx
	addl	$6, %ecx
	movslq	%ecx, %rcx
	movzwl	(%rax,%rcx,2), %eax
	movl	%eax, -52(%rbp)
	movq	-128(%rbp), %rax
	movslq	-164(%rbp), %rcx
	movq	(%rax,%rcx,8), %rax
	movl	-168(%rbp), %ecx
	addl	$7, %ecx
	movslq	%ecx, %rcx
	movzwl	(%rax,%rcx,2), %eax
	movl	%eax, -48(%rbp)
	jmp	.LBB14_36
.LBB14_35:                              # %if.else227
	movl	-80(%rbp), %eax
	movl	%eax, -48(%rbp)
	movl	%eax, -52(%rbp)
	movl	%eax, -56(%rbp)
	movl	%eax, -60(%rbp)
	movl	%eax, -64(%rbp)
	movl	%eax, -68(%rbp)
	movl	%eax, -72(%rbp)
	movl	%eax, -76(%rbp)
.LBB14_36:                              # %if.end237
	cmpl	$0, -116(%rbp)
	je	.LBB14_38
# %bb.37:                               # %if.then239
	movq	-128(%rbp), %rax
	movslq	-444(%rbp), %rcx
	movq	(%rax,%rcx,8), %rax
	movslq	-448(%rbp), %rcx
	movzwl	(%rax,%rcx,2), %eax
	movl	%eax, -44(%rbp)
	movq	-128(%rbp), %rax
	movslq	-420(%rbp), %rcx
	movq	(%rax,%rcx,8), %rax
	movslq	-424(%rbp), %rcx
	movzwl	(%rax,%rcx,2), %eax
	movl	%eax, -40(%rbp)
	movq	-128(%rbp), %rax
	movslq	-396(%rbp), %rcx
	movq	(%rax,%rcx,8), %rax
	movslq	-400(%rbp), %rcx
	movzwl	(%rax,%rcx,2), %eax
	movl	%eax, -36(%rbp)
	movq	-128(%rbp), %rax
	movslq	-372(%rbp), %rcx
	movq	(%rax,%rcx,8), %rax
	movslq	-376(%rbp), %rcx
	movzwl	(%rax,%rcx,2), %eax
	movl	%eax, -32(%rbp)
	movq	-128(%rbp), %rax
	movslq	-348(%rbp), %rcx
	movq	(%rax,%rcx,8), %rax
	movslq	-352(%rbp), %rcx
	movzwl	(%rax,%rcx,2), %eax
	movl	%eax, -28(%rbp)
	movq	-128(%rbp), %rax
	movslq	-324(%rbp), %rcx
	movq	(%rax,%rcx,8), %rax
	movslq	-328(%rbp), %rcx
	movzwl	(%rax,%rcx,2), %eax
	movl	%eax, -24(%rbp)
	movq	-128(%rbp), %rax
	movslq	-300(%rbp), %rcx
	movq	(%rax,%rcx,8), %rax
	movslq	-304(%rbp), %rcx
	movzwl	(%rax,%rcx,2), %eax
	movl	%eax, -20(%rbp)
	movq	-128(%rbp), %rax
	movslq	-276(%rbp), %rcx
	movq	(%rax,%rcx,8), %rax
	movslq	-280(%rbp), %rcx
	movzwl	(%rax,%rcx,2), %eax
	movl	%eax, -16(%rbp)
	jmp	.LBB14_39
.LBB14_38:                              # %if.else320
	movq	img, %rax
	movl	72680(%rax), %eax
	movl	%eax, -16(%rbp)
	movl	%eax, -20(%rbp)
	movl	%eax, -24(%rbp)
	movl	%eax, -28(%rbp)
	movl	%eax, -32(%rbp)
	movl	%eax, -36(%rbp)
	movl	%eax, -40(%rbp)
	movl	%eax, -44(%rbp)
.LBB14_39:                              # %if.end330
	cmpl	$0, -140(%rbp)
	je	.LBB14_41
# %bb.40:                               # %if.then332
	movq	-128(%rbp), %rax
	movslq	-228(%rbp), %rcx
	movq	(%rax,%rcx,8), %rax
	movslq	-232(%rbp), %rcx
	movzwl	(%rax,%rcx,2), %eax
	movl	%eax, -112(%rbp)
	jmp	.LBB14_42
.LBB14_41:                              # %if.else341
	movq	img, %rax
	movl	72680(%rax), %eax
	movl	%eax, -112(%rbp)
.LBB14_42:                              # %if.end344
	movl	$0, -4(%rbp)
.LBB14_43:                              # %for.cond345
                                        # =>This Inner Loop Header: Depth=1
	cmpl	$9, -4(%rbp)
	jge	.LBB14_46
# %bb.44:                               # %for.body348
                                        #   in Loop: Header=BB14_43 Depth=1
	movq	img, %rax
	addq	$7352, %rax             # imm = 0x1CB8
	movslq	-4(%rbp), %rcx
	shlq	$7, %rcx
	addq	%rcx, %rax
	movw	$-1, (%rax)
# %bb.45:                               # %for.inc353
                                        #   in Loop: Header=BB14_43 Depth=1
	movl	-4(%rbp), %eax
	addl	$1, %eax
	movl	%eax, -4(%rbp)
	jmp	.LBB14_43
.LBB14_46:                              # %for.end355
	leaq	-112(%rbp), %rdi
	movl	-140(%rbp), %esi
	movl	-132(%rbp), %edx
	movl	-116(%rbp), %ecx
	callq	LowPassForIntra8x8Pred
	movl	$0, -136(%rbp)
	cmpl	$0, -132(%rbp)
	je	.LBB14_49
# %bb.47:                               # %land.lhs.true358
	cmpl	$0, -116(%rbp)
	je	.LBB14_49
# %bb.48:                               # %if.then360
	movl	-108(%rbp), %eax
	addl	-104(%rbp), %eax
	addl	-100(%rbp), %eax
	addl	-96(%rbp), %eax
	addl	-92(%rbp), %eax
	addl	-88(%rbp), %eax
	addl	-84(%rbp), %eax
	addl	-80(%rbp), %eax
	addl	-44(%rbp), %eax
	addl	-40(%rbp), %eax
	addl	-36(%rbp), %eax
	addl	-32(%rbp), %eax
	addl	-28(%rbp), %eax
	addl	-24(%rbp), %eax
	addl	-20(%rbp), %eax
	addl	-16(%rbp), %eax
	addl	$8, %eax
	sarl	$4, %eax
	movl	%eax, -136(%rbp)
	jmp	.LBB14_58
.LBB14_49:                              # %if.else393
	cmpl	$0, -132(%rbp)
	jne	.LBB14_52
# %bb.50:                               # %land.lhs.true395
	cmpl	$0, -116(%rbp)
	je	.LBB14_52
# %bb.51:                               # %if.then397
	movl	-44(%rbp), %eax
	addl	-40(%rbp), %eax
	addl	-36(%rbp), %eax
	addl	-32(%rbp), %eax
	addl	-28(%rbp), %eax
	addl	-24(%rbp), %eax
	addl	-20(%rbp), %eax
	addl	-16(%rbp), %eax
	addl	$4, %eax
	sarl	$3, %eax
	movl	%eax, -136(%rbp)
	jmp	.LBB14_57
.LBB14_52:                              # %if.else415
	cmpl	$0, -132(%rbp)
	je	.LBB14_55
# %bb.53:                               # %land.lhs.true417
	cmpl	$0, -116(%rbp)
	jne	.LBB14_55
# %bb.54:                               # %if.then419
	movl	-108(%rbp), %eax
	addl	-104(%rbp), %eax
	addl	-100(%rbp), %eax
	addl	-96(%rbp), %eax
	addl	-92(%rbp), %eax
	addl	-88(%rbp), %eax
	addl	-84(%rbp), %eax
	addl	-80(%rbp), %eax
	addl	$4, %eax
	sarl	$3, %eax
	movl	%eax, -136(%rbp)
	jmp	.LBB14_56
.LBB14_55:                              # %if.else437
	movq	img, %rax
	movl	72680(%rax), %eax
	movl	%eax, -136(%rbp)
.LBB14_56:                              # %if.end439
	jmp	.LBB14_57
.LBB14_57:                              # %if.end440
	jmp	.LBB14_58
.LBB14_58:                              # %if.end441
	movl	$0, -144(%rbp)
.LBB14_59:                              # %for.cond442
                                        # =>This Loop Header: Depth=1
                                        #     Child Loop BB14_61 Depth 2
	cmpl	$8, -144(%rbp)
	jge	.LBB14_66
# %bb.60:                               # %for.body445
                                        #   in Loop: Header=BB14_59 Depth=1
	movl	$0, -4(%rbp)
.LBB14_61:                              # %for.cond446
                                        #   Parent Loop BB14_59 Depth=1
                                        # =>  This Inner Loop Header: Depth=2
	cmpl	$8, -4(%rbp)
	jge	.LBB14_64
# %bb.62:                               # %for.body449
                                        #   in Loop: Header=BB14_61 Depth=2
	movl	-136(%rbp), %eax
	movq	img, %rcx
	addq	$7352, %rcx             # imm = 0x1CB8
	addq	$256, %rcx              # imm = 0x100
	movslq	-4(%rbp), %rdx
	shlq	$4, %rdx
	addq	%rdx, %rcx
	movslq	-144(%rbp), %rdx
	movw	%ax, (%rcx,%rdx,2)
# %bb.63:                               # %for.inc457
                                        #   in Loop: Header=BB14_61 Depth=2
	movl	-4(%rbp), %eax
	addl	$1, %eax
	movl	%eax, -4(%rbp)
	jmp	.LBB14_61
.LBB14_64:                              # %for.end459
                                        #   in Loop: Header=BB14_59 Depth=1
	jmp	.LBB14_65
.LBB14_65:                              # %for.inc460
                                        #   in Loop: Header=BB14_59 Depth=1
	movl	-144(%rbp), %eax
	addl	$1, %eax
	movl	%eax, -144(%rbp)
	jmp	.LBB14_59
.LBB14_66:                              # %for.end462
	movl	$0, -4(%rbp)
.LBB14_67:                              # %for.cond463
                                        # =>This Inner Loop Header: Depth=1
	cmpl	$8, -4(%rbp)
	jge	.LBB14_70
# %bb.68:                               # %for.body466
                                        #   in Loop: Header=BB14_67 Depth=1
	movslq	-4(%rbp), %rax
	movl	-108(%rbp,%rax,4), %eax
	movq	img, %rcx
	movslq	-4(%rbp), %rdx
	movw	%ax, 7464(%rcx,%rdx,2)
	movq	img, %rcx
	movslq	-4(%rbp), %rdx
	movw	%ax, 7448(%rcx,%rdx,2)
	movq	img, %rcx
	movslq	-4(%rbp), %rdx
	movw	%ax, 7432(%rcx,%rdx,2)
	movq	img, %rcx
	movslq	-4(%rbp), %rdx
	movw	%ax, 7416(%rcx,%rdx,2)
	movq	img, %rcx
	movslq	-4(%rbp), %rdx
	movw	%ax, 7400(%rcx,%rdx,2)
	movq	img, %rcx
	movslq	-4(%rbp), %rdx
	movw	%ax, 7384(%rcx,%rdx,2)
	movq	img, %rcx
	movslq	-4(%rbp), %rdx
	movw	%ax, 7368(%rcx,%rdx,2)
	movq	img, %rcx
	movslq	-4(%rbp), %rdx
	movw	%ax, 7352(%rcx,%rdx,2)
	movslq	-4(%rbp), %rax
	movl	-44(%rbp,%rax,4), %eax
	movq	img, %rcx
	addq	$7352, %rcx             # imm = 0x1CB8
	addq	$128, %rcx
	movslq	-4(%rbp), %rdx
	shlq	$4, %rdx
	addq	%rdx, %rcx
	movw	%ax, 14(%rcx)
	movq	img, %rcx
	addq	$7352, %rcx             # imm = 0x1CB8
	addq	$128, %rcx
	movslq	-4(%rbp), %rdx
	shlq	$4, %rdx
	addq	%rdx, %rcx
	movw	%ax, 12(%rcx)
	movq	img, %rcx
	addq	$7352, %rcx             # imm = 0x1CB8
	addq	$128, %rcx
	movslq	-4(%rbp), %rdx
	shlq	$4, %rdx
	addq	%rdx, %rcx
	movw	%ax, 10(%rcx)
	movq	img, %rcx
	addq	$7352, %rcx             # imm = 0x1CB8
	addq	$128, %rcx
	movslq	-4(%rbp), %rdx
	shlq	$4, %rdx
	addq	%rdx, %rcx
	movw	%ax, 8(%rcx)
	movq	img, %rcx
	addq	$7352, %rcx             # imm = 0x1CB8
	addq	$128, %rcx
	movslq	-4(%rbp), %rdx
	shlq	$4, %rdx
	addq	%rdx, %rcx
	movw	%ax, 6(%rcx)
	movq	img, %rcx
	addq	$7352, %rcx             # imm = 0x1CB8
	addq	$128, %rcx
	movslq	-4(%rbp), %rdx
	shlq	$4, %rdx
	addq	%rdx, %rcx
	movw	%ax, 4(%rcx)
	movq	img, %rcx
	addq	$7352, %rcx             # imm = 0x1CB8
	addq	$128, %rcx
	movslq	-4(%rbp), %rdx
	shlq	$4, %rdx
	addq	%rdx, %rcx
	movw	%ax, 2(%rcx)
	movq	img, %rcx
	addq	$7352, %rcx             # imm = 0x1CB8
	addq	$128, %rcx
	movslq	-4(%rbp), %rdx
	shlq	$4, %rdx
	addq	%rdx, %rcx
	movw	%ax, (%rcx)
# %bb.69:                               # %for.inc555
                                        #   in Loop: Header=BB14_67 Depth=1
	movl	-4(%rbp), %eax
	addl	$1, %eax
	movl	%eax, -4(%rbp)
	jmp	.LBB14_67
.LBB14_70:                              # %for.end557
	cmpl	$0, -132(%rbp)
	jne	.LBB14_72
# %bb.71:                               # %if.then559
	movq	img, %rax
	movw	$-1, 7352(%rax)
.LBB14_72:                              # %if.end564
	cmpl	$0, -116(%rbp)
	jne	.LBB14_74
# %bb.73:                               # %if.then566
	movq	img, %rax
	movw	$-1, 7480(%rax)
.LBB14_74:                              # %if.end571
	cmpl	$0, -132(%rbp)
	je	.LBB14_76
# %bb.75:                               # %if.then573
	movl	-108(%rbp), %eax
	addl	-100(%rbp), %eax
	movl	-104(%rbp), %ecx
	shll	$1, %ecx
	addl	%ecx, %eax
	addl	$2, %eax
	sarl	$2, %eax
	movq	img, %rcx
	movw	%ax, 7736(%rcx)
	movl	-104(%rbp), %eax
	addl	-96(%rbp), %eax
	movl	-100(%rbp), %ecx
	shll	$1, %ecx
	addl	%ecx, %eax
	addl	$2, %eax
	sarl	$2, %eax
	movq	img, %rcx
	movw	%ax, 7752(%rcx)
	movq	img, %rcx
	movw	%ax, 7738(%rcx)
	movl	-100(%rbp), %eax
	addl	-92(%rbp), %eax
	movl	-96(%rbp), %ecx
	shll	$1, %ecx
	addl	%ecx, %eax
	addl	$2, %eax
	sarl	$2, %eax
	movq	img, %rcx
	movw	%ax, 7768(%rcx)
	movq	img, %rcx
	movw	%ax, 7754(%rcx)
	movq	img, %rcx
	movw	%ax, 7740(%rcx)
	movl	-96(%rbp), %eax
	addl	-88(%rbp), %eax
	movl	-92(%rbp), %ecx
	shll	$1, %ecx
	addl	%ecx, %eax
	addl	$2, %eax
	sarl	$2, %eax
	movq	img, %rcx
	movw	%ax, 7784(%rcx)
	movq	img, %rcx
	movw	%ax, 7770(%rcx)
	movq	img, %rcx
	movw	%ax, 7756(%rcx)
	movq	img, %rcx
	movw	%ax, 7742(%rcx)
	movl	-92(%rbp), %eax
	addl	-84(%rbp), %eax
	movl	-88(%rbp), %ecx
	shll	$1, %ecx
	addl	%ecx, %eax
	addl	$2, %eax
	sarl	$2, %eax
	movq	img, %rcx
	movw	%ax, 7800(%rcx)
	movq	img, %rcx
	movw	%ax, 7786(%rcx)
	movq	img, %rcx
	movw	%ax, 7772(%rcx)
	movq	img, %rcx
	movw	%ax, 7758(%rcx)
	movq	img, %rcx
	movw	%ax, 7744(%rcx)
	movl	-88(%rbp), %eax
	addl	-80(%rbp), %eax
	movl	-84(%rbp), %ecx
	shll	$1, %ecx
	addl	%ecx, %eax
	addl	$2, %eax
	sarl	$2, %eax
	movq	img, %rcx
	movw	%ax, 7816(%rcx)
	movq	img, %rcx
	movw	%ax, 7802(%rcx)
	movq	img, %rcx
	movw	%ax, 7788(%rcx)
	movq	img, %rcx
	movw	%ax, 7774(%rcx)
	movq	img, %rcx
	movw	%ax, 7760(%rcx)
	movq	img, %rcx
	movw	%ax, 7746(%rcx)
	movl	-84(%rbp), %eax
	addl	-76(%rbp), %eax
	movl	-80(%rbp), %ecx
	shll	$1, %ecx
	addl	%ecx, %eax
	addl	$2, %eax
	sarl	$2, %eax
	movq	img, %rcx
	movw	%ax, 7832(%rcx)
	movq	img, %rcx
	movw	%ax, 7818(%rcx)
	movq	img, %rcx
	movw	%ax, 7804(%rcx)
	movq	img, %rcx
	movw	%ax, 7790(%rcx)
	movq	img, %rcx
	movw	%ax, 7776(%rcx)
	movq	img, %rcx
	movw	%ax, 7762(%rcx)
	movq	img, %rcx
	movw	%ax, 7748(%rcx)
	movl	-80(%rbp), %eax
	addl	-72(%rbp), %eax
	movl	-76(%rbp), %ecx
	shll	$1, %ecx
	addl	%ecx, %eax
	addl	$2, %eax
	sarl	$2, %eax
	movq	img, %rcx
	movw	%ax, 7848(%rcx)
	movq	img, %rcx
	movw	%ax, 7834(%rcx)
	movq	img, %rcx
	movw	%ax, 7820(%rcx)
	movq	img, %rcx
	movw	%ax, 7806(%rcx)
	movq	img, %rcx
	movw	%ax, 7792(%rcx)
	movq	img, %rcx
	movw	%ax, 7778(%rcx)
	movq	img, %rcx
	movw	%ax, 7764(%rcx)
	movq	img, %rcx
	movw	%ax, 7750(%rcx)
	movl	-76(%rbp), %eax
	addl	-68(%rbp), %eax
	movl	-72(%rbp), %ecx
	shll	$1, %ecx
	addl	%ecx, %eax
	addl	$2, %eax
	sarl	$2, %eax
	movq	img, %rcx
	movw	%ax, 7850(%rcx)
	movq	img, %rcx
	movw	%ax, 7836(%rcx)
	movq	img, %rcx
	movw	%ax, 7822(%rcx)
	movq	img, %rcx
	movw	%ax, 7808(%rcx)
	movq	img, %rcx
	movw	%ax, 7794(%rcx)
	movq	img, %rcx
	movw	%ax, 7780(%rcx)
	movq	img, %rcx
	movw	%ax, 7766(%rcx)
	movl	-72(%rbp), %eax
	addl	-64(%rbp), %eax
	movl	-68(%rbp), %ecx
	shll	$1, %ecx
	addl	%ecx, %eax
	addl	$2, %eax
	sarl	$2, %eax
	movq	img, %rcx
	movw	%ax, 7852(%rcx)
	movq	img, %rcx
	movw	%ax, 7838(%rcx)
	movq	img, %rcx
	movw	%ax, 7824(%rcx)
	movq	img, %rcx
	movw	%ax, 7810(%rcx)
	movq	img, %rcx
	movw	%ax, 7796(%rcx)
	movq	img, %rcx
	movw	%ax, 7782(%rcx)
	movl	-68(%rbp), %eax
	addl	-60(%rbp), %eax
	movl	-64(%rbp), %ecx
	shll	$1, %ecx
	addl	%ecx, %eax
	addl	$2, %eax
	sarl	$2, %eax
	movq	img, %rcx
	movw	%ax, 7854(%rcx)
	movq	img, %rcx
	movw	%ax, 7840(%rcx)
	movq	img, %rcx
	movw	%ax, 7826(%rcx)
	movq	img, %rcx
	movw	%ax, 7812(%rcx)
	movq	img, %rcx
	movw	%ax, 7798(%rcx)
	movl	-64(%rbp), %eax
	addl	-56(%rbp), %eax
	movl	-60(%rbp), %ecx
	shll	$1, %ecx
	addl	%ecx, %eax
	addl	$2, %eax
	sarl	$2, %eax
	movq	img, %rcx
	movw	%ax, 7856(%rcx)
	movq	img, %rcx
	movw	%ax, 7842(%rcx)
	movq	img, %rcx
	movw	%ax, 7828(%rcx)
	movq	img, %rcx
	movw	%ax, 7814(%rcx)
	movl	-60(%rbp), %eax
	addl	-52(%rbp), %eax
	movl	-56(%rbp), %ecx
	shll	$1, %ecx
	addl	%ecx, %eax
	addl	$2, %eax
	sarl	$2, %eax
	movq	img, %rcx
	movw	%ax, 7858(%rcx)
	movq	img, %rcx
	movw	%ax, 7844(%rcx)
	movq	img, %rcx
	movw	%ax, 7830(%rcx)
	movl	-56(%rbp), %eax
	addl	-48(%rbp), %eax
	movl	-52(%rbp), %ecx
	shll	$1, %ecx
	addl	%ecx, %eax
	addl	$2, %eax
	sarl	$2, %eax
	movq	img, %rcx
	movw	%ax, 7860(%rcx)
	movq	img, %rcx
	movw	%ax, 7846(%rcx)
	movl	-52(%rbp), %eax
	imull	$3, -48(%rbp), %ecx
	addl	%ecx, %eax
	addl	$2, %eax
	sarl	$2, %eax
	movq	img, %rcx
	movw	%ax, 7862(%rcx)
	movl	-108(%rbp), %eax
	addl	-104(%rbp), %eax
	addl	$1, %eax
	sarl	$1, %eax
	movq	img, %rcx
	movw	%ax, 8248(%rcx)
	movl	-104(%rbp), %eax
	addl	-100(%rbp), %eax
	addl	$1, %eax
	sarl	$1, %eax
	movq	img, %rcx
	movw	%ax, 8280(%rcx)
	movq	img, %rcx
	movw	%ax, 8250(%rcx)
	movl	-100(%rbp), %eax
	addl	-96(%rbp), %eax
	addl	$1, %eax
	sarl	$1, %eax
	movq	img, %rcx
	movw	%ax, 8312(%rcx)
	movq	img, %rcx
	movw	%ax, 8282(%rcx)
	movq	img, %rcx
	movw	%ax, 8252(%rcx)
	movl	-96(%rbp), %eax
	addl	-92(%rbp), %eax
	addl	$1, %eax
	sarl	$1, %eax
	movq	img, %rcx
	movw	%ax, 8344(%rcx)
	movq	img, %rcx
	movw	%ax, 8314(%rcx)
	movq	img, %rcx
	movw	%ax, 8284(%rcx)
	movq	img, %rcx
	movw	%ax, 8254(%rcx)
	movl	-92(%rbp), %eax
	addl	-88(%rbp), %eax
	addl	$1, %eax
	sarl	$1, %eax
	movq	img, %rcx
	movw	%ax, 8346(%rcx)
	movq	img, %rcx
	movw	%ax, 8316(%rcx)
	movq	img, %rcx
	movw	%ax, 8286(%rcx)
	movq	img, %rcx
	movw	%ax, 8256(%rcx)
	movl	-88(%rbp), %eax
	addl	-84(%rbp), %eax
	addl	$1, %eax
	sarl	$1, %eax
	movq	img, %rcx
	movw	%ax, 8348(%rcx)
	movq	img, %rcx
	movw	%ax, 8318(%rcx)
	movq	img, %rcx
	movw	%ax, 8288(%rcx)
	movq	img, %rcx
	movw	%ax, 8258(%rcx)
	movl	-84(%rbp), %eax
	addl	-80(%rbp), %eax
	addl	$1, %eax
	sarl	$1, %eax
	movq	img, %rcx
	movw	%ax, 8350(%rcx)
	movq	img, %rcx
	movw	%ax, 8320(%rcx)
	movq	img, %rcx
	movw	%ax, 8290(%rcx)
	movq	img, %rcx
	movw	%ax, 8260(%rcx)
	movl	-80(%rbp), %eax
	addl	-76(%rbp), %eax
	addl	$1, %eax
	sarl	$1, %eax
	movq	img, %rcx
	movw	%ax, 8352(%rcx)
	movq	img, %rcx
	movw	%ax, 8322(%rcx)
	movq	img, %rcx
	movw	%ax, 8292(%rcx)
	movq	img, %rcx
	movw	%ax, 8262(%rcx)
	movl	-76(%rbp), %eax
	addl	-72(%rbp), %eax
	addl	$1, %eax
	sarl	$1, %eax
	movq	img, %rcx
	movw	%ax, 8354(%rcx)
	movq	img, %rcx
	movw	%ax, 8324(%rcx)
	movq	img, %rcx
	movw	%ax, 8294(%rcx)
	movl	-72(%rbp), %eax
	addl	-68(%rbp), %eax
	addl	$1, %eax
	sarl	$1, %eax
	movq	img, %rcx
	movw	%ax, 8356(%rcx)
	movq	img, %rcx
	movw	%ax, 8326(%rcx)
	movl	-68(%rbp), %eax
	addl	-64(%rbp), %eax
	addl	$1, %eax
	sarl	$1, %eax
	movq	img, %rcx
	movw	%ax, 8358(%rcx)
	movl	-108(%rbp), %eax
	addl	-100(%rbp), %eax
	movl	-104(%rbp), %ecx
	shll	$1, %ecx
	addl	%ecx, %eax
	addl	$2, %eax
	sarl	$2, %eax
	movq	img, %rcx
	movw	%ax, 8264(%rcx)
	movl	-104(%rbp), %eax
	addl	-96(%rbp), %eax
	movl	-100(%rbp), %ecx
	shll	$1, %ecx
	addl	%ecx, %eax
	addl	$2, %eax
	sarl	$2, %eax
	movq	img, %rcx
	movw	%ax, 8296(%rcx)
	movq	img, %rcx
	movw	%ax, 8266(%rcx)
	movl	-100(%rbp), %eax
	addl	-92(%rbp), %eax
	movl	-96(%rbp), %ecx
	shll	$1, %ecx
	addl	%ecx, %eax
	addl	$2, %eax
	sarl	$2, %eax
	movq	img, %rcx
	movw	%ax, 8328(%rcx)
	movq	img, %rcx
	movw	%ax, 8298(%rcx)
	movq	img, %rcx
	movw	%ax, 8268(%rcx)
	movl	-96(%rbp), %eax
	addl	-88(%rbp), %eax
	movl	-92(%rbp), %ecx
	shll	$1, %ecx
	addl	%ecx, %eax
	addl	$2, %eax
	sarl	$2, %eax
	movq	img, %rcx
	movw	%ax, 8360(%rcx)
	movq	img, %rcx
	movw	%ax, 8330(%rcx)
	movq	img, %rcx
	movw	%ax, 8300(%rcx)
	movq	img, %rcx
	movw	%ax, 8270(%rcx)
	movl	-92(%rbp), %eax
	addl	-84(%rbp), %eax
	movl	-88(%rbp), %ecx
	shll	$1, %ecx
	addl	%ecx, %eax
	addl	$2, %eax
	sarl	$2, %eax
	movq	img, %rcx
	movw	%ax, 8362(%rcx)
	movq	img, %rcx
	movw	%ax, 8332(%rcx)
	movq	img, %rcx
	movw	%ax, 8302(%rcx)
	movq	img, %rcx
	movw	%ax, 8272(%rcx)
	movl	-88(%rbp), %eax
	addl	-80(%rbp), %eax
	movl	-84(%rbp), %ecx
	shll	$1, %ecx
	addl	%ecx, %eax
	addl	$2, %eax
	sarl	$2, %eax
	movq	img, %rcx
	movw	%ax, 8364(%rcx)
	movq	img, %rcx
	movw	%ax, 8334(%rcx)
	movq	img, %rcx
	movw	%ax, 8304(%rcx)
	movq	img, %rcx
	movw	%ax, 8274(%rcx)
	movl	-84(%rbp), %eax
	addl	-76(%rbp), %eax
	movl	-80(%rbp), %ecx
	shll	$1, %ecx
	addl	%ecx, %eax
	addl	$2, %eax
	sarl	$2, %eax
	movq	img, %rcx
	movw	%ax, 8366(%rcx)
	movq	img, %rcx
	movw	%ax, 8336(%rcx)
	movq	img, %rcx
	movw	%ax, 8306(%rcx)
	movq	img, %rcx
	movw	%ax, 8276(%rcx)
	movl	-80(%rbp), %eax
	addl	-72(%rbp), %eax
	movl	-76(%rbp), %ecx
	shll	$1, %ecx
	addl	%ecx, %eax
	addl	$2, %eax
	sarl	$2, %eax
	movq	img, %rcx
	movw	%ax, 8368(%rcx)
	movq	img, %rcx
	movw	%ax, 8338(%rcx)
	movq	img, %rcx
	movw	%ax, 8308(%rcx)
	movq	img, %rcx
	movw	%ax, 8278(%rcx)
	movl	-76(%rbp), %eax
	addl	-68(%rbp), %eax
	movl	-72(%rbp), %ecx
	shll	$1, %ecx
	addl	%ecx, %eax
	addl	$2, %eax
	sarl	$2, %eax
	movq	img, %rcx
	movw	%ax, 8370(%rcx)
	movq	img, %rcx
	movw	%ax, 8340(%rcx)
	movq	img, %rcx
	movw	%ax, 8310(%rcx)
	movl	-72(%rbp), %eax
	addl	-64(%rbp), %eax
	movl	-68(%rbp), %ecx
	shll	$1, %ecx
	addl	%ecx, %eax
	addl	$2, %eax
	sarl	$2, %eax
	movq	img, %rcx
	movw	%ax, 8372(%rcx)
	movq	img, %rcx
	movw	%ax, 8342(%rcx)
	movl	-68(%rbp), %eax
	addl	-60(%rbp), %eax
	movl	-64(%rbp), %ecx
	shll	$1, %ecx
	addl	%ecx, %eax
	addl	$2, %eax
	sarl	$2, %eax
	movq	img, %rcx
	movw	%ax, 8374(%rcx)
.LBB14_76:                              # %if.end1383
	cmpl	$0, -132(%rbp)
	je	.LBB14_80
# %bb.77:                               # %land.lhs.true1385
	cmpl	$0, -116(%rbp)
	je	.LBB14_80
# %bb.78:                               # %land.lhs.true1387
	cmpl	$0, -140(%rbp)
	je	.LBB14_80
# %bb.79:                               # %if.then1389
	movl	-16(%rbp), %eax
	addl	-24(%rbp), %eax
	movl	-20(%rbp), %ecx
	shll	$1, %ecx
	addl	%ecx, %eax
	addl	$2, %eax
	sarl	$2, %eax
	movq	img, %rcx
	movw	%ax, 7976(%rcx)
	movl	-20(%rbp), %eax
	addl	-28(%rbp), %eax
	movl	-24(%rbp), %ecx
	shll	$1, %ecx
	addl	%ecx, %eax
	addl	$2, %eax
	sarl	$2, %eax
	movq	img, %rcx
	movw	%ax, 7978(%rcx)
	movq	img, %rcx
	movw	%ax, 7960(%rcx)
	movl	-24(%rbp), %eax
	addl	-32(%rbp), %eax
	movl	-28(%rbp), %ecx
	shll	$1, %ecx
	addl	%ecx, %eax
	addl	$2, %eax
	sarl	$2, %eax
	movq	img, %rcx
	movw	%ax, 7980(%rcx)
	movq	img, %rcx
	movw	%ax, 7962(%rcx)
	movq	img, %rcx
	movw	%ax, 7944(%rcx)
	movl	-28(%rbp), %eax
	addl	-36(%rbp), %eax
	movl	-32(%rbp), %ecx
	shll	$1, %ecx
	addl	%ecx, %eax
	addl	$2, %eax
	sarl	$2, %eax
	movq	img, %rcx
	movw	%ax, 7982(%rcx)
	movq	img, %rcx
	movw	%ax, 7964(%rcx)
	movq	img, %rcx
	movw	%ax, 7946(%rcx)
	movq	img, %rcx
	movw	%ax, 7928(%rcx)
	movl	-32(%rbp), %eax
	addl	-40(%rbp), %eax
	movl	-36(%rbp), %ecx
	shll	$1, %ecx
	addl	%ecx, %eax
	addl	$2, %eax
	sarl	$2, %eax
	movq	img, %rcx
	movw	%ax, 7984(%rcx)
	movq	img, %rcx
	movw	%ax, 7966(%rcx)
	movq	img, %rcx
	movw	%ax, 7948(%rcx)
	movq	img, %rcx
	movw	%ax, 7930(%rcx)
	movq	img, %rcx
	movw	%ax, 7912(%rcx)
	movl	-36(%rbp), %eax
	addl	-44(%rbp), %eax
	movl	-40(%rbp), %ecx
	shll	$1, %ecx
	addl	%ecx, %eax
	addl	$2, %eax
	sarl	$2, %eax
	movq	img, %rcx
	movw	%ax, 7986(%rcx)
	movq	img, %rcx
	movw	%ax, 7968(%rcx)
	movq	img, %rcx
	movw	%ax, 7950(%rcx)
	movq	img, %rcx
	movw	%ax, 7932(%rcx)
	movq	img, %rcx
	movw	%ax, 7914(%rcx)
	movq	img, %rcx
	movw	%ax, 7896(%rcx)
	movl	-40(%rbp), %eax
	addl	-112(%rbp), %eax
	movl	-44(%rbp), %ecx
	shll	$1, %ecx
	addl	%ecx, %eax
	addl	$2, %eax
	sarl	$2, %eax
	movq	img, %rcx
	movw	%ax, 7988(%rcx)
	movq	img, %rcx
	movw	%ax, 7970(%rcx)
	movq	img, %rcx
	movw	%ax, 7952(%rcx)
	movq	img, %rcx
	movw	%ax, 7934(%rcx)
	movq	img, %rcx
	movw	%ax, 7916(%rcx)
	movq	img, %rcx
	movw	%ax, 7898(%rcx)
	movq	img, %rcx
	movw	%ax, 7880(%rcx)
	movl	-44(%rbp), %eax
	addl	-108(%rbp), %eax
	movl	-112(%rbp), %ecx
	shll	$1, %ecx
	addl	%ecx, %eax
	addl	$2, %eax
	sarl	$2, %eax
	movq	img, %rcx
	movw	%ax, 7990(%rcx)
	movq	img, %rcx
	movw	%ax, 7972(%rcx)
	movq	img, %rcx
	movw	%ax, 7954(%rcx)
	movq	img, %rcx
	movw	%ax, 7936(%rcx)
	movq	img, %rcx
	movw	%ax, 7918(%rcx)
	movq	img, %rcx
	movw	%ax, 7900(%rcx)
	movq	img, %rcx
	movw	%ax, 7882(%rcx)
	movq	img, %rcx
	movw	%ax, 7864(%rcx)
	movl	-112(%rbp), %eax
	addl	-104(%rbp), %eax
	movl	-108(%rbp), %ecx
	shll	$1, %ecx
	addl	%ecx, %eax
	addl	$2, %eax
	sarl	$2, %eax
	movq	img, %rcx
	movw	%ax, 7974(%rcx)
	movq	img, %rcx
	movw	%ax, 7956(%rcx)
	movq	img, %rcx
	movw	%ax, 7938(%rcx)
	movq	img, %rcx
	movw	%ax, 7920(%rcx)
	movq	img, %rcx
	movw	%ax, 7902(%rcx)
	movq	img, %rcx
	movw	%ax, 7884(%rcx)
	movq	img, %rcx
	movw	%ax, 7866(%rcx)
	movl	-108(%rbp), %eax
	addl	-100(%rbp), %eax
	movl	-104(%rbp), %ecx
	shll	$1, %ecx
	addl	%ecx, %eax
	addl	$2, %eax
	sarl	$2, %eax
	movq	img, %rcx
	movw	%ax, 7958(%rcx)
	movq	img, %rcx
	movw	%ax, 7940(%rcx)
	movq	img, %rcx
	movw	%ax, 7922(%rcx)
	movq	img, %rcx
	movw	%ax, 7904(%rcx)
	movq	img, %rcx
	movw	%ax, 7886(%rcx)
	movq	img, %rcx
	movw	%ax, 7868(%rcx)
	movl	-104(%rbp), %eax
	addl	-96(%rbp), %eax
	movl	-100(%rbp), %ecx
	shll	$1, %ecx
	addl	%ecx, %eax
	addl	$2, %eax
	sarl	$2, %eax
	movq	img, %rcx
	movw	%ax, 7942(%rcx)
	movq	img, %rcx
	movw	%ax, 7924(%rcx)
	movq	img, %rcx
	movw	%ax, 7906(%rcx)
	movq	img, %rcx
	movw	%ax, 7888(%rcx)
	movq	img, %rcx
	movw	%ax, 7870(%rcx)
	movl	-100(%rbp), %eax
	addl	-92(%rbp), %eax
	movl	-96(%rbp), %ecx
	shll	$1, %ecx
	addl	%ecx, %eax
	addl	$2, %eax
	sarl	$2, %eax
	movq	img, %rcx
	movw	%ax, 7926(%rcx)
	movq	img, %rcx
	movw	%ax, 7908(%rcx)
	movq	img, %rcx
	movw	%ax, 7890(%rcx)
	movq	img, %rcx
	movw	%ax, 7872(%rcx)
	movl	-96(%rbp), %eax
	addl	-88(%rbp), %eax
	movl	-92(%rbp), %ecx
	shll	$1, %ecx
	addl	%ecx, %eax
	addl	$2, %eax
	sarl	$2, %eax
	movq	img, %rcx
	movw	%ax, 7910(%rcx)
	movq	img, %rcx
	movw	%ax, 7892(%rcx)
	movq	img, %rcx
	movw	%ax, 7874(%rcx)
	movl	-92(%rbp), %eax
	addl	-84(%rbp), %eax
	movl	-88(%rbp), %ecx
	shll	$1, %ecx
	addl	%ecx, %eax
	addl	$2, %eax
	sarl	$2, %eax
	movq	img, %rcx
	movw	%ax, 7894(%rcx)
	movq	img, %rcx
	movw	%ax, 7876(%rcx)
	movl	-88(%rbp), %eax
	addl	-80(%rbp), %eax
	movl	-84(%rbp), %ecx
	shll	$1, %ecx
	addl	%ecx, %eax
	addl	$2, %eax
	sarl	$2, %eax
	movq	img, %rcx
	movw	%ax, 7878(%rcx)
	movl	-112(%rbp), %eax
	addl	-108(%rbp), %eax
	addl	$1, %eax
	sarl	$1, %eax
	movq	img, %rcx
	movw	%ax, 8094(%rcx)
	movq	img, %rcx
	movw	%ax, 8060(%rcx)
	movq	img, %rcx
	movw	%ax, 8026(%rcx)
	movq	img, %rcx
	movw	%ax, 7992(%rcx)
	movl	-108(%rbp), %eax
	addl	-104(%rbp), %eax
	addl	$1, %eax
	sarl	$1, %eax
	movq	img, %rcx
	movw	%ax, 8096(%rcx)
	movq	img, %rcx
	movw	%ax, 8062(%rcx)
	movq	img, %rcx
	movw	%ax, 8028(%rcx)
	movq	img, %rcx
	movw	%ax, 7994(%rcx)
	movl	-104(%rbp), %eax
	addl	-100(%rbp), %eax
	addl	$1, %eax
	sarl	$1, %eax
	movq	img, %rcx
	movw	%ax, 8098(%rcx)
	movq	img, %rcx
	movw	%ax, 8064(%rcx)
	movq	img, %rcx
	movw	%ax, 8030(%rcx)
	movq	img, %rcx
	movw	%ax, 7996(%rcx)
	movl	-100(%rbp), %eax
	addl	-96(%rbp), %eax
	addl	$1, %eax
	sarl	$1, %eax
	movq	img, %rcx
	movw	%ax, 8100(%rcx)
	movq	img, %rcx
	movw	%ax, 8066(%rcx)
	movq	img, %rcx
	movw	%ax, 8032(%rcx)
	movq	img, %rcx
	movw	%ax, 7998(%rcx)
	movl	-96(%rbp), %eax
	addl	-92(%rbp), %eax
	addl	$1, %eax
	sarl	$1, %eax
	movq	img, %rcx
	movw	%ax, 8102(%rcx)
	movq	img, %rcx
	movw	%ax, 8068(%rcx)
	movq	img, %rcx
	movw	%ax, 8034(%rcx)
	movq	img, %rcx
	movw	%ax, 8000(%rcx)
	movl	-92(%rbp), %eax
	addl	-88(%rbp), %eax
	addl	$1, %eax
	sarl	$1, %eax
	movq	img, %rcx
	movw	%ax, 8070(%rcx)
	movq	img, %rcx
	movw	%ax, 8036(%rcx)
	movq	img, %rcx
	movw	%ax, 8002(%rcx)
	movl	-88(%rbp), %eax
	addl	-84(%rbp), %eax
	addl	$1, %eax
	sarl	$1, %eax
	movq	img, %rcx
	movw	%ax, 8038(%rcx)
	movq	img, %rcx
	movw	%ax, 8004(%rcx)
	movl	-84(%rbp), %eax
	addl	-80(%rbp), %eax
	addl	$1, %eax
	sarl	$1, %eax
	movq	img, %rcx
	movw	%ax, 8006(%rcx)
	movl	-44(%rbp), %eax
	addl	-108(%rbp), %eax
	movl	-112(%rbp), %ecx
	shll	$1, %ecx
	addl	%ecx, %eax
	addl	$2, %eax
	sarl	$2, %eax
	movq	img, %rcx
	movw	%ax, 8110(%rcx)
	movq	img, %rcx
	movw	%ax, 8076(%rcx)
	movq	img, %rcx
	movw	%ax, 8042(%rcx)
	movq	img, %rcx
	movw	%ax, 8008(%rcx)
	movl	-112(%rbp), %eax
	addl	-104(%rbp), %eax
	movl	-108(%rbp), %ecx
	shll	$1, %ecx
	addl	%ecx, %eax
	addl	$2, %eax
	sarl	$2, %eax
	movq	img, %rcx
	movw	%ax, 8112(%rcx)
	movq	img, %rcx
	movw	%ax, 8078(%rcx)
	movq	img, %rcx
	movw	%ax, 8044(%rcx)
	movq	img, %rcx
	movw	%ax, 8010(%rcx)
	movl	-108(%rbp), %eax
	addl	-100(%rbp), %eax
	movl	-104(%rbp), %ecx
	shll	$1, %ecx
	addl	%ecx, %eax
	addl	$2, %eax
	sarl	$2, %eax
	movq	img, %rcx
	movw	%ax, 8114(%rcx)
	movq	img, %rcx
	movw	%ax, 8080(%rcx)
	movq	img, %rcx
	movw	%ax, 8046(%rcx)
	movq	img, %rcx
	movw	%ax, 8012(%rcx)
	movl	-104(%rbp), %eax
	addl	-96(%rbp), %eax
	movl	-100(%rbp), %ecx
	shll	$1, %ecx
	addl	%ecx, %eax
	addl	$2, %eax
	sarl	$2, %eax
	movq	img, %rcx
	movw	%ax, 8116(%rcx)
	movq	img, %rcx
	movw	%ax, 8082(%rcx)
	movq	img, %rcx
	movw	%ax, 8048(%rcx)
	movq	img, %rcx
	movw	%ax, 8014(%rcx)
	movl	-100(%rbp), %eax
	addl	-92(%rbp), %eax
	movl	-96(%rbp), %ecx
	shll	$1, %ecx
	addl	%ecx, %eax
	addl	$2, %eax
	sarl	$2, %eax
	movq	img, %rcx
	movw	%ax, 8118(%rcx)
	movq	img, %rcx
	movw	%ax, 8084(%rcx)
	movq	img, %rcx
	movw	%ax, 8050(%rcx)
	movq	img, %rcx
	movw	%ax, 8016(%rcx)
	movl	-96(%rbp), %eax
	addl	-88(%rbp), %eax
	movl	-92(%rbp), %ecx
	shll	$1, %ecx
	addl	%ecx, %eax
	addl	$2, %eax
	sarl	$2, %eax
	movq	img, %rcx
	movw	%ax, 8086(%rcx)
	movq	img, %rcx
	movw	%ax, 8052(%rcx)
	movq	img, %rcx
	movw	%ax, 8018(%rcx)
	movl	-92(%rbp), %eax
	addl	-84(%rbp), %eax
	movl	-88(%rbp), %ecx
	shll	$1, %ecx
	addl	%ecx, %eax
	addl	$2, %eax
	sarl	$2, %eax
	movq	img, %rcx
	movw	%ax, 8054(%rcx)
	movq	img, %rcx
	movw	%ax, 8020(%rcx)
	movl	-88(%rbp), %eax
	addl	-80(%rbp), %eax
	movl	-84(%rbp), %ecx
	shll	$1, %ecx
	addl	%ecx, %eax
	addl	$2, %eax
	sarl	$2, %eax
	movq	img, %rcx
	movw	%ax, 8022(%rcx)
	movl	-40(%rbp), %eax
	addl	-112(%rbp), %eax
	movl	-44(%rbp), %ecx
	shll	$1, %ecx
	addl	%ecx, %eax
	addl	$2, %eax
	sarl	$2, %eax
	movq	img, %rcx
	movw	%ax, 8092(%rcx)
	movq	img, %rcx
	movw	%ax, 8058(%rcx)
	movq	img, %rcx
	movw	%ax, 8024(%rcx)
	movl	-36(%rbp), %eax
	addl	-44(%rbp), %eax
	movl	-40(%rbp), %ecx
	shll	$1, %ecx
	addl	%ecx, %eax
	addl	$2, %eax
	sarl	$2, %eax
	movq	img, %rcx
	movw	%ax, 8108(%rcx)
	movq	img, %rcx
	movw	%ax, 8074(%rcx)
	movq	img, %rcx
	movw	%ax, 8040(%rcx)
	movl	-32(%rbp), %eax
	addl	-40(%rbp), %eax
	movl	-36(%rbp), %ecx
	shll	$1, %ecx
	addl	%ecx, %eax
	addl	$2, %eax
	sarl	$2, %eax
	movq	img, %rcx
	movw	%ax, 8090(%rcx)
	movq	img, %rcx
	movw	%ax, 8056(%rcx)
	movl	-28(%rbp), %eax
	addl	-36(%rbp), %eax
	movl	-32(%rbp), %ecx
	shll	$1, %ecx
	addl	%ecx, %eax
	addl	$2, %eax
	sarl	$2, %eax
	movq	img, %rcx
	movw	%ax, 8106(%rcx)
	movq	img, %rcx
	movw	%ax, 8072(%rcx)
	movl	-24(%rbp), %eax
	addl	-32(%rbp), %eax
	movl	-28(%rbp), %ecx
	shll	$1, %ecx
	addl	%ecx, %eax
	addl	$2, %eax
	sarl	$2, %eax
	movq	img, %rcx
	movw	%ax, 8088(%rcx)
	movl	-20(%rbp), %eax
	addl	-28(%rbp), %eax
	movl	-24(%rbp), %ecx
	shll	$1, %ecx
	addl	%ecx, %eax
	addl	$2, %eax
	sarl	$2, %eax
	movq	img, %rcx
	movw	%ax, 8104(%rcx)
	movl	-44(%rbp), %eax
	addl	-112(%rbp), %eax
	addl	$1, %eax
	sarl	$1, %eax
	movq	img, %rcx
	movw	%ax, 8180(%rcx)
	movq	img, %rcx
	movw	%ax, 8160(%rcx)
	movq	img, %rcx
	movw	%ax, 8140(%rcx)
	movq	img, %rcx
	movw	%ax, 8120(%rcx)
	movl	-40(%rbp), %eax
	addl	-44(%rbp), %eax
	addl	$1, %eax
	sarl	$1, %eax
	movq	img, %rcx
	movw	%ax, 8196(%rcx)
	movq	img, %rcx
	movw	%ax, 8176(%rcx)
	movq	img, %rcx
	movw	%ax, 8156(%rcx)
	movq	img, %rcx
	movw	%ax, 8136(%rcx)
	movl	-36(%rbp), %eax
	addl	-40(%rbp), %eax
	addl	$1, %eax
	sarl	$1, %eax
	movq	img, %rcx
	movw	%ax, 8212(%rcx)
	movq	img, %rcx
	movw	%ax, 8192(%rcx)
	movq	img, %rcx
	movw	%ax, 8172(%rcx)
	movq	img, %rcx
	movw	%ax, 8152(%rcx)
	movl	-32(%rbp), %eax
	addl	-36(%rbp), %eax
	addl	$1, %eax
	sarl	$1, %eax
	movq	img, %rcx
	movw	%ax, 8228(%rcx)
	movq	img, %rcx
	movw	%ax, 8208(%rcx)
	movq	img, %rcx
	movw	%ax, 8188(%rcx)
	movq	img, %rcx
	movw	%ax, 8168(%rcx)
	movl	-28(%rbp), %eax
	addl	-32(%rbp), %eax
	addl	$1, %eax
	sarl	$1, %eax
	movq	img, %rcx
	movw	%ax, 8244(%rcx)
	movq	img, %rcx
	movw	%ax, 8224(%rcx)
	movq	img, %rcx
	movw	%ax, 8204(%rcx)
	movq	img, %rcx
	movw	%ax, 8184(%rcx)
	movl	-24(%rbp), %eax
	addl	-28(%rbp), %eax
	addl	$1, %eax
	sarl	$1, %eax
	movq	img, %rcx
	movw	%ax, 8240(%rcx)
	movq	img, %rcx
	movw	%ax, 8220(%rcx)
	movq	img, %rcx
	movw	%ax, 8200(%rcx)
	movl	-20(%rbp), %eax
	addl	-24(%rbp), %eax
	addl	$1, %eax
	sarl	$1, %eax
	movq	img, %rcx
	movw	%ax, 8236(%rcx)
	movq	img, %rcx
	movw	%ax, 8216(%rcx)
	movl	-16(%rbp), %eax
	addl	-20(%rbp), %eax
	addl	$1, %eax
	sarl	$1, %eax
	movq	img, %rcx
	movw	%ax, 8232(%rcx)
	movl	-44(%rbp), %eax
	addl	-108(%rbp), %eax
	movl	-112(%rbp), %ecx
	shll	$1, %ecx
	addl	%ecx, %eax
	addl	$2, %eax
	sarl	$2, %eax
	movq	img, %rcx
	movw	%ax, 8182(%rcx)
	movq	img, %rcx
	movw	%ax, 8162(%rcx)
	movq	img, %rcx
	movw	%ax, 8142(%rcx)
	movq	img, %rcx
	movw	%ax, 8122(%rcx)
	movl	-112(%rbp), %eax
	addl	-40(%rbp), %eax
	movl	-44(%rbp), %ecx
	shll	$1, %ecx
	addl	%ecx, %eax
	addl	$2, %eax
	sarl	$2, %eax
	movq	img, %rcx
	movw	%ax, 8198(%rcx)
	movq	img, %rcx
	movw	%ax, 8178(%rcx)
	movq	img, %rcx
	movw	%ax, 8158(%rcx)
	movq	img, %rcx
	movw	%ax, 8138(%rcx)
	movl	-44(%rbp), %eax
	addl	-36(%rbp), %eax
	movl	-40(%rbp), %ecx
	shll	$1, %ecx
	addl	%ecx, %eax
	addl	$2, %eax
	sarl	$2, %eax
	movq	img, %rcx
	movw	%ax, 8214(%rcx)
	movq	img, %rcx
	movw	%ax, 8194(%rcx)
	movq	img, %rcx
	movw	%ax, 8174(%rcx)
	movq	img, %rcx
	movw	%ax, 8154(%rcx)
	movl	-40(%rbp), %eax
	addl	-32(%rbp), %eax
	movl	-36(%rbp), %ecx
	shll	$1, %ecx
	addl	%ecx, %eax
	addl	$2, %eax
	sarl	$2, %eax
	movq	img, %rcx
	movw	%ax, 8230(%rcx)
	movq	img, %rcx
	movw	%ax, 8210(%rcx)
	movq	img, %rcx
	movw	%ax, 8190(%rcx)
	movq	img, %rcx
	movw	%ax, 8170(%rcx)
	movl	-36(%rbp), %eax
	addl	-28(%rbp), %eax
	movl	-32(%rbp), %ecx
	shll	$1, %ecx
	addl	%ecx, %eax
	addl	$2, %eax
	sarl	$2, %eax
	movq	img, %rcx
	movw	%ax, 8246(%rcx)
	movq	img, %rcx
	movw	%ax, 8226(%rcx)
	movq	img, %rcx
	movw	%ax, 8206(%rcx)
	movq	img, %rcx
	movw	%ax, 8186(%rcx)
	movl	-32(%rbp), %eax
	addl	-24(%rbp), %eax
	movl	-28(%rbp), %ecx
	shll	$1, %ecx
	addl	%ecx, %eax
	addl	$2, %eax
	sarl	$2, %eax
	movq	img, %rcx
	movw	%ax, 8242(%rcx)
	movq	img, %rcx
	movw	%ax, 8222(%rcx)
	movq	img, %rcx
	movw	%ax, 8202(%rcx)
	movl	-28(%rbp), %eax
	addl	-20(%rbp), %eax
	movl	-24(%rbp), %ecx
	shll	$1, %ecx
	addl	%ecx, %eax
	addl	$2, %eax
	sarl	$2, %eax
	movq	img, %rcx
	movw	%ax, 8238(%rcx)
	movq	img, %rcx
	movw	%ax, 8218(%rcx)
	movl	-24(%rbp), %eax
	addl	-16(%rbp), %eax
	movl	-20(%rbp), %ecx
	shll	$1, %ecx
	addl	%ecx, %eax
	addl	$2, %eax
	sarl	$2, %eax
	movq	img, %rcx
	movw	%ax, 8234(%rcx)
	movl	-112(%rbp), %eax
	addl	-104(%rbp), %eax
	movl	-108(%rbp), %ecx
	shll	$1, %ecx
	addl	%ecx, %eax
	addl	$2, %eax
	sarl	$2, %eax
	movq	img, %rcx
	movw	%ax, 8164(%rcx)
	movq	img, %rcx
	movw	%ax, 8144(%rcx)
	movq	img, %rcx
	movw	%ax, 8124(%rcx)
	movl	-108(%rbp), %eax
	addl	-100(%rbp), %eax
	movl	-104(%rbp), %ecx
	shll	$1, %ecx
	addl	%ecx, %eax
	addl	$2, %eax
	sarl	$2, %eax
	movq	img, %rcx
	movw	%ax, 8166(%rcx)
	movq	img, %rcx
	movw	%ax, 8146(%rcx)
	movq	img, %rcx
	movw	%ax, 8126(%rcx)
	movl	-104(%rbp), %eax
	addl	-96(%rbp), %eax
	movl	-100(%rbp), %ecx
	shll	$1, %ecx
	addl	%ecx, %eax
	addl	$2, %eax
	sarl	$2, %eax
	movq	img, %rcx
	movw	%ax, 8148(%rcx)
	movq	img, %rcx
	movw	%ax, 8128(%rcx)
	movl	-100(%rbp), %eax
	addl	-92(%rbp), %eax
	movl	-96(%rbp), %ecx
	shll	$1, %ecx
	addl	%ecx, %eax
	addl	$2, %eax
	sarl	$2, %eax
	movq	img, %rcx
	movw	%ax, 8150(%rcx)
	movq	img, %rcx
	movw	%ax, 8130(%rcx)
	movl	-96(%rbp), %eax
	addl	-88(%rbp), %eax
	movl	-92(%rbp), %ecx
	shll	$1, %ecx
	addl	%ecx, %eax
	addl	$2, %eax
	sarl	$2, %eax
	movq	img, %rcx
	movw	%ax, 8132(%rcx)
	movl	-92(%rbp), %eax
	addl	-84(%rbp), %eax
	movl	-88(%rbp), %ecx
	shll	$1, %ecx
	addl	%ecx, %eax
	addl	$2, %eax
	sarl	$2, %eax
	movq	img, %rcx
	movw	%ax, 8134(%rcx)
.LBB14_80:                              # %if.end2641
	cmpl	$0, -116(%rbp)
	je	.LBB14_82
# %bb.81:                               # %if.then2643
	movl	-44(%rbp), %eax
	addl	-40(%rbp), %eax
	addl	$1, %eax
	sarl	$1, %eax
	movq	img, %rcx
	movw	%ax, 8376(%rcx)
	movl	-40(%rbp), %eax
	addl	-36(%rbp), %eax
	addl	$1, %eax
	sarl	$1, %eax
	movq	img, %rcx
	movw	%ax, 8380(%rcx)
	movq	img, %rcx
	movw	%ax, 8392(%rcx)
	movl	-36(%rbp), %eax
	addl	-32(%rbp), %eax
	addl	$1, %eax
	sarl	$1, %eax
	movq	img, %rcx
	movw	%ax, 8384(%rcx)
	movq	img, %rcx
	movw	%ax, 8396(%rcx)
	movq	img, %rcx
	movw	%ax, 8408(%rcx)
	movl	-32(%rbp), %eax
	addl	-28(%rbp), %eax
	addl	$1, %eax
	sarl	$1, %eax
	movq	img, %rcx
	movw	%ax, 8388(%rcx)
	movq	img, %rcx
	movw	%ax, 8400(%rcx)
	movq	img, %rcx
	movw	%ax, 8412(%rcx)
	movq	img, %rcx
	movw	%ax, 8424(%rcx)
	movl	-28(%rbp), %eax
	addl	-24(%rbp), %eax
	addl	$1, %eax
	sarl	$1, %eax
	movq	img, %rcx
	movw	%ax, 8404(%rcx)
	movq	img, %rcx
	movw	%ax, 8416(%rcx)
	movq	img, %rcx
	movw	%ax, 8428(%rcx)
	movq	img, %rcx
	movw	%ax, 8440(%rcx)
	movl	-24(%rbp), %eax
	addl	-20(%rbp), %eax
	addl	$1, %eax
	sarl	$1, %eax
	movq	img, %rcx
	movw	%ax, 8420(%rcx)
	movq	img, %rcx
	movw	%ax, 8432(%rcx)
	movq	img, %rcx
	movw	%ax, 8444(%rcx)
	movq	img, %rcx
	movw	%ax, 8456(%rcx)
	movl	-20(%rbp), %eax
	addl	-16(%rbp), %eax
	addl	$1, %eax
	sarl	$1, %eax
	movq	img, %rcx
	movw	%ax, 8436(%rcx)
	movq	img, %rcx
	movw	%ax, 8448(%rcx)
	movq	img, %rcx
	movw	%ax, 8460(%rcx)
	movq	img, %rcx
	movw	%ax, 8472(%rcx)
	movl	-16(%rbp), %eax
	movq	img, %rcx
	movw	%ax, 8502(%rcx)
	movq	img, %rcx
	movw	%ax, 8500(%rcx)
	movq	img, %rcx
	movw	%ax, 8498(%rcx)
	movq	img, %rcx
	movw	%ax, 8496(%rcx)
	movq	img, %rcx
	movw	%ax, 8494(%rcx)
	movq	img, %rcx
	movw	%ax, 8492(%rcx)
	movq	img, %rcx
	movw	%ax, 8490(%rcx)
	movq	img, %rcx
	movw	%ax, 8488(%rcx)
	movq	img, %rcx
	movw	%ax, 8486(%rcx)
	movq	img, %rcx
	movw	%ax, 8484(%rcx)
	movq	img, %rcx
	movw	%ax, 8482(%rcx)
	movq	img, %rcx
	movw	%ax, 8480(%rcx)
	movq	img, %rcx
	movw	%ax, 8478(%rcx)
	movq	img, %rcx
	movw	%ax, 8476(%rcx)
	movq	img, %rcx
	movw	%ax, 8470(%rcx)
	movq	img, %rcx
	movw	%ax, 8468(%rcx)
	movq	img, %rcx
	movw	%ax, 8466(%rcx)
	movq	img, %rcx
	movw	%ax, 8464(%rcx)
	movq	img, %rcx
	movw	%ax, 8454(%rcx)
	movq	img, %rcx
	movw	%ax, 8452(%rcx)
	movl	-20(%rbp), %eax
	imull	$3, -16(%rbp), %ecx
	addl	%ecx, %eax
	addl	$2, %eax
	sarl	$2, %eax
	movq	img, %rcx
	movw	%ax, 8438(%rcx)
	movq	img, %rcx
	movw	%ax, 8450(%rcx)
	movq	img, %rcx
	movw	%ax, 8462(%rcx)
	movq	img, %rcx
	movw	%ax, 8474(%rcx)
	movl	-16(%rbp), %eax
	addl	-24(%rbp), %eax
	movl	-20(%rbp), %ecx
	shll	$1, %ecx
	addl	%ecx, %eax
	addl	$2, %eax
	sarl	$2, %eax
	movq	img, %rcx
	movw	%ax, 8422(%rcx)
	movq	img, %rcx
	movw	%ax, 8434(%rcx)
	movq	img, %rcx
	movw	%ax, 8446(%rcx)
	movq	img, %rcx
	movw	%ax, 8458(%rcx)
	movl	-20(%rbp), %eax
	addl	-28(%rbp), %eax
	movl	-24(%rbp), %ecx
	shll	$1, %ecx
	addl	%ecx, %eax
	addl	$2, %eax
	sarl	$2, %eax
	movq	img, %rcx
	movw	%ax, 8406(%rcx)
	movq	img, %rcx
	movw	%ax, 8418(%rcx)
	movq	img, %rcx
	movw	%ax, 8430(%rcx)
	movq	img, %rcx
	movw	%ax, 8442(%rcx)
	movl	-24(%rbp), %eax
	addl	-32(%rbp), %eax
	movl	-28(%rbp), %ecx
	shll	$1, %ecx
	addl	%ecx, %eax
	addl	$2, %eax
	sarl	$2, %eax
	movq	img, %rcx
	movw	%ax, 8390(%rcx)
	movq	img, %rcx
	movw	%ax, 8402(%rcx)
	movq	img, %rcx
	movw	%ax, 8414(%rcx)
	movq	img, %rcx
	movw	%ax, 8426(%rcx)
	movl	-28(%rbp), %eax
	addl	-36(%rbp), %eax
	movl	-32(%rbp), %ecx
	shll	$1, %ecx
	addl	%ecx, %eax
	addl	$2, %eax
	sarl	$2, %eax
	movq	img, %rcx
	movw	%ax, 8386(%rcx)
	movq	img, %rcx
	movw	%ax, 8398(%rcx)
	movq	img, %rcx
	movw	%ax, 8410(%rcx)
	movl	-32(%rbp), %eax
	addl	-40(%rbp), %eax
	movl	-36(%rbp), %ecx
	shll	$1, %ecx
	addl	%ecx, %eax
	addl	$2, %eax
	sarl	$2, %eax
	movq	img, %rcx
	movw	%ax, 8382(%rcx)
	movq	img, %rcx
	movw	%ax, 8394(%rcx)
	movl	-36(%rbp), %eax
	addl	-44(%rbp), %eax
	movl	-40(%rbp), %ecx
	shll	$1, %ecx
	addl	%ecx, %eax
	addl	$2, %eax
	sarl	$2, %eax
	movq	img, %rcx
	movw	%ax, 8378(%rcx)
.LBB14_82:                              # %if.end3005
	cmpl	$1128430622, -224(%rbp) # imm = 0x43427C1E
	jne	.LBB14_84
.LBB14_83:
	addq	$464, %rsp              # imm = 0x1D0
	popq	%rbp
	.cfi_def_cfa %rsp, 8
	retq
.LBB14_84:                              # %func_exit
	.cfi_def_cfa %rbp, 16
	callq	detect_breach
	jmp	.LBB14_83
.Lfunc_end14:
	.size	intrapred_luma8x8.9, .Lfunc_end14-intrapred_luma8x8.9
	.cfi_endproc
                                        # -- End function
	.globl	intrapred_luma8x8.10    # -- Begin function intrapred_luma8x8.10
	.p2align	4, 0x90
	.type	intrapred_luma8x8.10,@function
intrapred_luma8x8.10:                   # @intrapred_luma8x8.10
	.cfi_startproc
# %bb.0:                                # %entry
	pushq	%rbp
	.cfi_def_cfa_offset 16
	.cfi_offset %rbp, -16
	movq	%rsp, %rbp
	.cfi_def_cfa_register %rbp
	subq	$464, %rsp              # imm = 0x1D0
	movl	$1911064571, -224(%rbp) # imm = 0x71E887FB
	movl	%edi, -212(%rbp)
	movl	%esi, -216(%rbp)
	movq	%rdx, -272(%rbp)
	movq	%rcx, -256(%rbp)
	movq	%r8, -264(%rbp)
	movq	enc_picture, %rax
	movq	6424(%rax), %rax
	movq	%rax, -128(%rbp)
	movl	-212(%rbp), %eax
	andl	$15, %eax
	movl	%eax, -140(%rbp)
	movl	-216(%rbp), %eax
	andl	$15, %eax
	movl	%eax, -144(%rbp)
	movq	img, %rax
	movl	12(%rax), %eax
	movl	%eax, -156(%rbp)
	movl	$0, -4(%rbp)
.LBB15_1:                               # %for.cond
                                        # =>This Inner Loop Header: Depth=1
	cmpl	$8, -4(%rbp)
	jge	.LBB15_4
# %bb.2:                                # %for.body
                                        #   in Loop: Header=BB15_1 Depth=1
	movl	-156(%rbp), %edi
	movl	-140(%rbp), %esi
	subl	$1, %esi
	movl	-144(%rbp), %edx
	addl	-4(%rbp), %edx
	movslq	-4(%rbp), %rax
	imulq	$24, %rax, %rax
	leaq	-464(%rbp), %r8
	addq	%rax, %r8
	movl	$1, %ecx
	callq	getNeighbour
# %bb.3:                                # %for.inc
                                        #   in Loop: Header=BB15_1 Depth=1
	movl	-4(%rbp), %eax
	addl	$1, %eax
	movl	%eax, -4(%rbp)
	jmp	.LBB15_1
.LBB15_4:                               # %for.end
	movl	-156(%rbp), %edi
	movl	-140(%rbp), %esi
	movl	-144(%rbp), %edx
	subl	$1, %edx
	movl	$1, %ecx
	leaq	-208(%rbp), %r8
	callq	getNeighbour
	movl	-156(%rbp), %edi
	movl	-140(%rbp), %esi
	addl	$8, %esi
	movl	-144(%rbp), %edx
	subl	$1, %edx
	movl	$1, %ecx
	leaq	-184(%rbp), %r8
	callq	getNeighbour
	movl	-156(%rbp), %edi
	movl	-140(%rbp), %esi
	subl	$1, %esi
	movl	-144(%rbp), %edx
	subl	$1, %edx
	movl	$1, %ecx
	leaq	-248(%rbp), %r8
	callq	getNeighbour
	xorl	%eax, %eax
	cmpl	$0, -184(%rbp)
	je	.LBB15_8
# %bb.5:                                # %land.rhs
	xorl	%eax, %eax
	cmpl	$8, -140(%rbp)
	jne	.LBB15_7
# %bb.6:                                # %land.rhs9
	cmpl	$8, -144(%rbp)
	sete	%al
.LBB15_7:                               # %land.end
	xorb	$-1, %al
.LBB15_8:                               # %land.end11
	andb	$1, %al
	movzbl	%al, %eax
	movl	%eax, -184(%rbp)
	movq	input, %rax
	cmpl	$0, 216(%rax)
	je	.LBB15_26
# %bb.9:                                # %if.then
	movl	$0, -4(%rbp)
	movl	$1, -116(%rbp)
.LBB15_10:                              # %for.cond14
                                        # =>This Inner Loop Header: Depth=1
	cmpl	$8, -4(%rbp)
	jge	.LBB15_16
# %bb.11:                               # %for.body16
                                        #   in Loop: Header=BB15_10 Depth=1
	movslq	-4(%rbp), %rax
	imulq	$24, %rax, %rax
	leaq	-464(%rbp), %rcx
	addq	%rax, %rcx
	cmpl	$0, (%rcx)
	je	.LBB15_13
# %bb.12:                               # %cond.true
                                        #   in Loop: Header=BB15_10 Depth=1
	movq	img, %rax
	movq	71784(%rax), %rax
	movslq	-4(%rbp), %rcx
	imulq	$24, %rcx, %rcx
	leaq	-464(%rbp), %rdx
	addq	%rcx, %rdx
	movslq	4(%rdx), %rcx
	movl	(%rax,%rcx,4), %eax
	jmp	.LBB15_14
.LBB15_13:                              # %cond.false
                                        #   in Loop: Header=BB15_10 Depth=1
	xorl	%eax, %eax
	jmp	.LBB15_14
.LBB15_14:                              # %cond.end
                                        #   in Loop: Header=BB15_10 Depth=1
	andl	-116(%rbp), %eax
	movl	%eax, -116(%rbp)
# %bb.15:                               # %for.inc26
                                        #   in Loop: Header=BB15_10 Depth=1
	movl	-4(%rbp), %eax
	addl	$1, %eax
	movl	%eax, -4(%rbp)
	jmp	.LBB15_10
.LBB15_16:                              # %for.end28
	cmpl	$0, -208(%rbp)
	je	.LBB15_18
# %bb.17:                               # %cond.true31
	movq	img, %rax
	movq	71784(%rax), %rax
	movslq	-204(%rbp), %rcx
	movl	(%rax,%rcx,4), %eax
	jmp	.LBB15_19
.LBB15_18:                              # %cond.false36
	xorl	%eax, %eax
	jmp	.LBB15_19
.LBB15_19:                              # %cond.end37
	movl	%eax, -132(%rbp)
	cmpl	$0, -184(%rbp)
	je	.LBB15_21
# %bb.20:                               # %cond.true41
	movq	img, %rax
	movq	71784(%rax), %rax
	movslq	-180(%rbp), %rcx
	movl	(%rax,%rcx,4), %eax
	jmp	.LBB15_22
.LBB15_21:                              # %cond.false46
	xorl	%eax, %eax
	jmp	.LBB15_22
.LBB15_22:                              # %cond.end47
	movl	%eax, -220(%rbp)
	cmpl	$0, -248(%rbp)
	je	.LBB15_24
# %bb.23:                               # %cond.true51
	movq	img, %rax
	movq	71784(%rax), %rax
	movslq	-244(%rbp), %rcx
	movl	(%rax,%rcx,4), %eax
	jmp	.LBB15_25
.LBB15_24:                              # %cond.false56
	xorl	%eax, %eax
	jmp	.LBB15_25
.LBB15_25:                              # %cond.end57
	movl	%eax, -152(%rbp)
	jmp	.LBB15_27
.LBB15_26:                              # %if.else
	movl	-464(%rbp), %eax
	movl	%eax, -116(%rbp)
	movl	-208(%rbp), %eax
	movl	%eax, -132(%rbp)
	movl	-184(%rbp), %eax
	movl	%eax, -220(%rbp)
	movl	-248(%rbp), %eax
	movl	%eax, -152(%rbp)
.LBB15_27:                              # %if.end
	xorl	%eax, %eax
	movl	-116(%rbp), %ecx
	movq	-272(%rbp), %rdx
	movl	%ecx, (%rdx)
	movl	-132(%rbp), %ecx
	movq	-256(%rbp), %rdx
	movl	%ecx, (%rdx)
	cmpl	$0, -132(%rbp)
	je	.LBB15_30
# %bb.28:                               # %land.lhs.true
	xorl	%eax, %eax
	cmpl	$0, -116(%rbp)
	je	.LBB15_30
# %bb.29:                               # %land.rhs66
	cmpl	$0, -152(%rbp)
	setne	%al
.LBB15_30:                              # %land.end68
	andb	$1, %al
	movzbl	%al, %eax
	movq	-264(%rbp), %rcx
	movl	%eax, (%rcx)
	movl	-212(%rbp), %eax
	andl	$15, %eax
	movl	%eax, -4(%rbp)
	movl	-216(%rbp), %eax
	andl	$15, %eax
	movl	%eax, -148(%rbp)
	cmpl	$0, -132(%rbp)
	je	.LBB15_32
# %bb.31:                               # %if.then73
	movq	-128(%rbp), %rax
	movslq	-188(%rbp), %rcx
	movq	(%rax,%rcx,8), %rax
	movl	-192(%rbp), %ecx
	addl	$0, %ecx
	movslq	%ecx, %rcx
	movzwl	(%rax,%rcx,2), %eax
	movl	%eax, -108(%rbp)
	movq	-128(%rbp), %rax
	movslq	-188(%rbp), %rcx
	movq	(%rax,%rcx,8), %rax
	movl	-192(%rbp), %ecx
	addl	$1, %ecx
	movslq	%ecx, %rcx
	movzwl	(%rax,%rcx,2), %eax
	movl	%eax, -104(%rbp)
	movq	-128(%rbp), %rax
	movslq	-188(%rbp), %rcx
	movq	(%rax,%rcx,8), %rax
	movl	-192(%rbp), %ecx
	addl	$2, %ecx
	movslq	%ecx, %rcx
	movzwl	(%rax,%rcx,2), %eax
	movl	%eax, -100(%rbp)
	movq	-128(%rbp), %rax
	movslq	-188(%rbp), %rcx
	movq	(%rax,%rcx,8), %rax
	movl	-192(%rbp), %ecx
	addl	$3, %ecx
	movslq	%ecx, %rcx
	movzwl	(%rax,%rcx,2), %eax
	movl	%eax, -96(%rbp)
	movq	-128(%rbp), %rax
	movslq	-188(%rbp), %rcx
	movq	(%rax,%rcx,8), %rax
	movl	-192(%rbp), %ecx
	addl	$4, %ecx
	movslq	%ecx, %rcx
	movzwl	(%rax,%rcx,2), %eax
	movl	%eax, -92(%rbp)
	movq	-128(%rbp), %rax
	movslq	-188(%rbp), %rcx
	movq	(%rax,%rcx,8), %rax
	movl	-192(%rbp), %ecx
	addl	$5, %ecx
	movslq	%ecx, %rcx
	movzwl	(%rax,%rcx,2), %eax
	movl	%eax, -88(%rbp)
	movq	-128(%rbp), %rax
	movslq	-188(%rbp), %rcx
	movq	(%rax,%rcx,8), %rax
	movl	-192(%rbp), %ecx
	addl	$6, %ecx
	movslq	%ecx, %rcx
	movzwl	(%rax,%rcx,2), %eax
	movl	%eax, -84(%rbp)
	movq	-128(%rbp), %rax
	movslq	-188(%rbp), %rcx
	movq	(%rax,%rcx,8), %rax
	movl	-192(%rbp), %ecx
	addl	$7, %ecx
	movslq	%ecx, %rcx
	movzwl	(%rax,%rcx,2), %eax
	movl	%eax, -80(%rbp)
	jmp	.LBB15_33
.LBB15_32:                              # %if.else143
	movq	img, %rax
	movl	72680(%rax), %eax
	movl	%eax, -80(%rbp)
	movl	%eax, -84(%rbp)
	movl	%eax, -88(%rbp)
	movl	%eax, -92(%rbp)
	movl	%eax, -96(%rbp)
	movl	%eax, -100(%rbp)
	movl	%eax, -104(%rbp)
	movl	%eax, -108(%rbp)
.LBB15_33:                              # %if.end152
	cmpl	$0, -220(%rbp)
	je	.LBB15_35
# %bb.34:                               # %if.then154
	movq	-128(%rbp), %rax
	movslq	-164(%rbp), %rcx
	movq	(%rax,%rcx,8), %rax
	movl	-168(%rbp), %ecx
	addl	$0, %ecx
	movslq	%ecx, %rcx
	movzwl	(%rax,%rcx,2), %eax
	movl	%eax, -76(%rbp)
	movq	-128(%rbp), %rax
	movslq	-164(%rbp), %rcx
	movq	(%rax,%rcx,8), %rax
	movl	-168(%rbp), %ecx
	addl	$1, %ecx
	movslq	%ecx, %rcx
	movzwl	(%rax,%rcx,2), %eax
	movl	%eax, -72(%rbp)
	movq	-128(%rbp), %rax
	movslq	-164(%rbp), %rcx
	movq	(%rax,%rcx,8), %rax
	movl	-168(%rbp), %ecx
	addl	$2, %ecx
	movslq	%ecx, %rcx
	movzwl	(%rax,%rcx,2), %eax
	movl	%eax, -68(%rbp)
	movq	-128(%rbp), %rax
	movslq	-164(%rbp), %rcx
	movq	(%rax,%rcx,8), %rax
	movl	-168(%rbp), %ecx
	addl	$3, %ecx
	movslq	%ecx, %rcx
	movzwl	(%rax,%rcx,2), %eax
	movl	%eax, -64(%rbp)
	movq	-128(%rbp), %rax
	movslq	-164(%rbp), %rcx
	movq	(%rax,%rcx,8), %rax
	movl	-168(%rbp), %ecx
	addl	$4, %ecx
	movslq	%ecx, %rcx
	movzwl	(%rax,%rcx,2), %eax
	movl	%eax, -60(%rbp)
	movq	-128(%rbp), %rax
	movslq	-164(%rbp), %rcx
	movq	(%rax,%rcx,8), %rax
	movl	-168(%rbp), %ecx
	addl	$5, %ecx
	movslq	%ecx, %rcx
	movzwl	(%rax,%rcx,2), %eax
	movl	%eax, -56(%rbp)
	movq	-128(%rbp), %rax
	movslq	-164(%rbp), %rcx
	movq	(%rax,%rcx,8), %rax
	movl	-168(%rbp), %ecx
	addl	$6, %ecx
	movslq	%ecx, %rcx
	movzwl	(%rax,%rcx,2), %eax
	movl	%eax, -52(%rbp)
	movq	-128(%rbp), %rax
	movslq	-164(%rbp), %rcx
	movq	(%rax,%rcx,8), %rax
	movl	-168(%rbp), %ecx
	addl	$7, %ecx
	movslq	%ecx, %rcx
	movzwl	(%rax,%rcx,2), %eax
	movl	%eax, -48(%rbp)
	jmp	.LBB15_36
.LBB15_35:                              # %if.else227
	movl	-80(%rbp), %eax
	movl	%eax, -48(%rbp)
	movl	%eax, -52(%rbp)
	movl	%eax, -56(%rbp)
	movl	%eax, -60(%rbp)
	movl	%eax, -64(%rbp)
	movl	%eax, -68(%rbp)
	movl	%eax, -72(%rbp)
	movl	%eax, -76(%rbp)
.LBB15_36:                              # %if.end237
	cmpl	$0, -116(%rbp)
	je	.LBB15_38
# %bb.37:                               # %if.then239
	movq	-128(%rbp), %rax
	movslq	-444(%rbp), %rcx
	movq	(%rax,%rcx,8), %rax
	movslq	-448(%rbp), %rcx
	movzwl	(%rax,%rcx,2), %eax
	movl	%eax, -44(%rbp)
	movq	-128(%rbp), %rax
	movslq	-420(%rbp), %rcx
	movq	(%rax,%rcx,8), %rax
	movslq	-424(%rbp), %rcx
	movzwl	(%rax,%rcx,2), %eax
	movl	%eax, -40(%rbp)
	movq	-128(%rbp), %rax
	movslq	-396(%rbp), %rcx
	movq	(%rax,%rcx,8), %rax
	movslq	-400(%rbp), %rcx
	movzwl	(%rax,%rcx,2), %eax
	movl	%eax, -36(%rbp)
	movq	-128(%rbp), %rax
	movslq	-372(%rbp), %rcx
	movq	(%rax,%rcx,8), %rax
	movslq	-376(%rbp), %rcx
	movzwl	(%rax,%rcx,2), %eax
	movl	%eax, -32(%rbp)
	movq	-128(%rbp), %rax
	movslq	-348(%rbp), %rcx
	movq	(%rax,%rcx,8), %rax
	movslq	-352(%rbp), %rcx
	movzwl	(%rax,%rcx,2), %eax
	movl	%eax, -28(%rbp)
	movq	-128(%rbp), %rax
	movslq	-324(%rbp), %rcx
	movq	(%rax,%rcx,8), %rax
