	.text
	.file	"transform8x8.c"
	.globl	Mode_Decision_for_new_Intra8x8Macroblock # -- Begin function Mode_Decision_for_new_Intra8x8Macroblock
	.p2align	4, 0x90
	.type	Mode_Decision_for_new_Intra8x8Macroblock,@function
Mode_Decision_for_new_Intra8x8Macroblock: # @Mode_Decision_for_new_Intra8x8Macroblock
	.cfi_startproc
# %bb.0:                                # %rand_bb
	pushq	%rbp
	.cfi_def_cfa_offset 16
	.cfi_offset %rbp, -16
	movq	%rsp, %rbp
	.cfi_def_cfa_register %rbp
	pushq	%rbx
	pushq	%rax
	.cfi_offset %rbx, -24
	movq	%rdi, %rbx
	vmovsd	%xmm0, -16(%rbp)        # 8-byte Spill
	callq	get_urand
	cmpl	$0, %eax
	jne	.LBB0_9
# %bb.1:                                # %func_Mode_Decision_for_new_Intra8x8Macroblock.3
	vmovsd	-16(%rbp), %xmm0        # 8-byte Reload
                                        # xmm0 = mem[0],zero
	movq	%rbx, %rdi
	callq	Mode_Decision_for_new_Intra8x8Macroblock.3
	addq	$8, %rsp
	popq	%rbx
	popq	%rbp
	.cfi_def_cfa %rsp, 8
	retq
.LBB0_2:                                # %func_Mode_Decision_for_new_Intra8x8Macroblock.4
	.cfi_def_cfa %rbp, 16
	movq	%rbx, %rdi
	callq	Mode_Decision_for_new_Intra8x8Macroblock.4
	addq	$8, %rsp
	popq	%rbx
	popq	%rbp
	.cfi_def_cfa %rsp, 8
	retq
.LBB0_3:                                # %func_Mode_Decision_for_new_Intra8x8Macroblock.9
	.cfi_def_cfa %rbp, 16
	movq	%rbx, %rdi
	callq	Mode_Decision_for_new_Intra8x8Macroblock.9
	addq	$8, %rsp
	popq	%rbx
	popq	%rbp
	.cfi_def_cfa %rsp, 8
	retq
.LBB0_4:                                # %func_Mode_Decision_for_new_Intra8x8Macroblock.10
	.cfi_def_cfa %rbp, 16
	movq	%rbx, %rdi
	callq	Mode_Decision_for_new_Intra8x8Macroblock.10
	addq	$8, %rsp
	popq	%rbx
	popq	%rbp
	.cfi_def_cfa %rsp, 8
	retq
.LBB0_5:                                # %func_Mode_Decision_for_new_Intra8x8Macroblock.18
	.cfi_def_cfa %rbp, 16
	movq	%rbx, %rdi
	callq	Mode_Decision_for_new_Intra8x8Macroblock.18
	addq	$8, %rsp
	popq	%rbx
	popq	%rbp
	.cfi_def_cfa %rsp, 8
	retq
.LBB0_6:                                # %func_Mode_Decision_for_new_Intra8x8Macroblock.22
	.cfi_def_cfa %rbp, 16
	movq	%rbx, %rdi
	callq	Mode_Decision_for_new_Intra8x8Macroblock.22
	addq	$8, %rsp
	popq	%rbx
	popq	%rbp
	.cfi_def_cfa %rsp, 8
	retq
.LBB0_7:                                # %func_Mode_Decision_for_new_Intra8x8Macroblock.25
	.cfi_def_cfa %rbp, 16
	movq	%rbx, %rdi
	callq	Mode_Decision_for_new_Intra8x8Macroblock.25
	addq	$8, %rsp
	popq	%rbx
	popq	%rbp
	.cfi_def_cfa %rsp, 8
	retq
.LBB0_8:                                # %func_Mode_Decision_for_new_Intra8x8Macroblock.26
	.cfi_def_cfa %rbp, 16
	movq	%rbx, %rdi
	callq	Mode_Decision_for_new_Intra8x8Macroblock.26
	addq	$8, %rsp
	popq	%rbx
	popq	%rbp
	.cfi_def_cfa %rsp, 8
	retq
.LBB0_9:                                # %ctrl0
	.cfi_def_cfa %rbp, 16
	vmovsd	-16(%rbp), %xmm0        # 8-byte Reload
                                        # xmm0 = mem[0],zero
	cmpl	$1, %eax
	je	.LBB0_2
# %bb.10:                               # %ctrl1
	cmpl	$2, %eax
	je	.LBB0_3
# %bb.11:                               # %ctrl2
	cmpl	$3, %eax
	je	.LBB0_4
# %bb.12:                               # %ctrl3
	cmpl	$4, %eax
	je	.LBB0_5
# %bb.13:                               # %ctrl4
	cmpl	$5, %eax
	je	.LBB0_6
# %bb.14:                               # %ctrl5
	cmpl	$6, %eax
	je	.LBB0_7
	jmp	.LBB0_8
.Lfunc_end0:
	.size	Mode_Decision_for_new_Intra8x8Macroblock, .Lfunc_end0-Mode_Decision_for_new_Intra8x8Macroblock
	.cfi_endproc
                                        # -- End function
	.globl	Mode_Decision_for_new_8x8IntraBlocks # -- Begin function Mode_Decision_for_new_8x8IntraBlocks
	.p2align	4, 0x90
	.type	Mode_Decision_for_new_8x8IntraBlocks,@function
Mode_Decision_for_new_8x8IntraBlocks:   # @Mode_Decision_for_new_8x8IntraBlocks
	.cfi_startproc
# %bb.0:                                # %rand_bb
	pushq	%rbp
	.cfi_def_cfa_offset 16
	.cfi_offset %rbp, -16
	movq	%rsp, %rbp
	.cfi_def_cfa_register %rbp
	pushq	%r14
	pushq	%rbx
	subq	$16, %rsp
	.cfi_offset %rbx, -32
	.cfi_offset %r14, -24
	movq	%rsi, %r14
	vmovsd	%xmm0, -24(%rbp)        # 8-byte Spill
	movl	%edi, %ebx
	callq	get_urand
	cmpl	$0, %eax
	jne	.LBB1_9
# %bb.1:                                # %func_Mode_Decision_for_new_8x8IntraBlocks.16
	movl	%ebx, %edi
	vmovsd	-24(%rbp), %xmm0        # 8-byte Reload
                                        # xmm0 = mem[0],zero
	movq	%r14, %rsi
	callq	Mode_Decision_for_new_8x8IntraBlocks.16
	addq	$16, %rsp
	popq	%rbx
	popq	%r14
	popq	%rbp
	.cfi_def_cfa %rsp, 8
	retq
.LBB1_2:                                # %func_Mode_Decision_for_new_8x8IntraBlocks.21
	.cfi_def_cfa %rbp, 16
	movl	%ebx, %edi
	movq	%r14, %rsi
	callq	Mode_Decision_for_new_8x8IntraBlocks.21
	addq	$16, %rsp
	popq	%rbx
	popq	%r14
	popq	%rbp
	.cfi_def_cfa %rsp, 8
	retq
.LBB1_3:                                # %func_Mode_Decision_for_new_8x8IntraBlocks.24
	.cfi_def_cfa %rbp, 16
	movl	%ebx, %edi
	movq	%r14, %rsi
	callq	Mode_Decision_for_new_8x8IntraBlocks.24
	addq	$16, %rsp
	popq	%rbx
	popq	%r14
	popq	%rbp
	.cfi_def_cfa %rsp, 8
	retq
.LBB1_4:                                # %func_Mode_Decision_for_new_8x8IntraBlocks.27
	.cfi_def_cfa %rbp, 16
	movl	%ebx, %edi
	movq	%r14, %rsi
	callq	Mode_Decision_for_new_8x8IntraBlocks.27
	addq	$16, %rsp
	popq	%rbx
	popq	%r14
	popq	%rbp
	.cfi_def_cfa %rsp, 8
	retq
.LBB1_5:                                # %func_Mode_Decision_for_new_8x8IntraBlocks.29
	.cfi_def_cfa %rbp, 16
	movl	%ebx, %edi
	movq	%r14, %rsi
	callq	Mode_Decision_for_new_8x8IntraBlocks.29
	addq	$16, %rsp
	popq	%rbx
	popq	%r14
	popq	%rbp
	.cfi_def_cfa %rsp, 8
	retq
.LBB1_6:                                # %func_Mode_Decision_for_new_8x8IntraBlocks.34
	.cfi_def_cfa %rbp, 16
	movl	%ebx, %edi
	movq	%r14, %rsi
	callq	Mode_Decision_for_new_8x8IntraBlocks.34
	addq	$16, %rsp
	popq	%rbx
	popq	%r14
	popq	%rbp
	.cfi_def_cfa %rsp, 8
	retq
.LBB1_7:                                # %func_Mode_Decision_for_new_8x8IntraBlocks.35
	.cfi_def_cfa %rbp, 16
	movl	%ebx, %edi
	movq	%r14, %rsi
	callq	Mode_Decision_for_new_8x8IntraBlocks.35
	addq	$16, %rsp
	popq	%rbx
	popq	%r14
	popq	%rbp
	.cfi_def_cfa %rsp, 8
	retq
.LBB1_8:                                # %func_Mode_Decision_for_new_8x8IntraBlocks.42
	.cfi_def_cfa %rbp, 16
	movl	%ebx, %edi
	movq	%r14, %rsi
	callq	Mode_Decision_for_new_8x8IntraBlocks.42
	addq	$16, %rsp
	popq	%rbx
	popq	%r14
	popq	%rbp
	.cfi_def_cfa %rsp, 8
	retq
.LBB1_9:                                # %ctrl0
	.cfi_def_cfa %rbp, 16
	vmovsd	-24(%rbp), %xmm0        # 8-byte Reload
                                        # xmm0 = mem[0],zero
	cmpl	$1, %eax
	je	.LBB1_2
# %bb.10:                               # %ctrl1
	cmpl	$2, %eax
	je	.LBB1_3
# %bb.11:                               # %ctrl2
	cmpl	$3, %eax
	je	.LBB1_4
# %bb.12:                               # %ctrl3
	cmpl	$4, %eax
	je	.LBB1_5
# %bb.13:                               # %ctrl4
	cmpl	$5, %eax
	je	.LBB1_6
# %bb.14:                               # %ctrl5
	cmpl	$6, %eax
	je	.LBB1_7
	jmp	.LBB1_8
.Lfunc_end1:
	.size	Mode_Decision_for_new_8x8IntraBlocks, .Lfunc_end1-Mode_Decision_for_new_8x8IntraBlocks
	.cfi_endproc
                                        # -- End function
	.globl	intrapred_luma8x8       # -- Begin function intrapred_luma8x8
	.p2align	4, 0x90
	.type	intrapred_luma8x8,@function
intrapred_luma8x8:                      # @intrapred_luma8x8
	.cfi_startproc
# %bb.0:                                # %rand_bb
	pushq	%rbp
	.cfi_def_cfa_offset 16
	.cfi_offset %rbp, -16
	movq	%rsp, %rbp
	.cfi_def_cfa_register %rbp
	pushq	%r15
	pushq	%r14
	pushq	%r13
	pushq	%r12
	pushq	%rbx
	pushq	%rax
	.cfi_offset %rbx, -56
	.cfi_offset %r12, -48
	.cfi_offset %r13, -40
	.cfi_offset %r14, -32
	.cfi_offset %r15, -24
	movq	%r8, %r14
	movq	%rcx, %r15
	movq	%rdx, %r12
	movl	%esi, %r13d
	movl	%edi, %ebx
	callq	get_urand
	cmpl	$0, %eax
	jne	.LBB2_9
# %bb.1:                                # %func_intrapred_luma8x8.5
	movl	%ebx, %edi
	movl	%r13d, %esi
	movq	%r12, %rdx
	movq	%r15, %rcx
	movq	%r14, %r8
	callq	intrapred_luma8x8.5
	addq	$8, %rsp
	popq	%rbx
	popq	%r12
	popq	%r13
	popq	%r14
	popq	%r15
	popq	%rbp
	.cfi_def_cfa %rsp, 8
	retq
.LBB2_2:                                # %func_intrapred_luma8x8.6
	.cfi_def_cfa %rbp, 16
	movl	%ebx, %edi
	movl	%r13d, %esi
	movq	%r12, %rdx
	movq	%r15, %rcx
	movq	%r14, %r8
	callq	intrapred_luma8x8.6
	addq	$8, %rsp
	popq	%rbx
	popq	%r12
	popq	%r13
	popq	%r14
	popq	%r15
	popq	%rbp
	.cfi_def_cfa %rsp, 8
	retq
.LBB2_3:                                # %func_intrapred_luma8x8.12
	.cfi_def_cfa %rbp, 16
	movl	%ebx, %edi
	movl	%r13d, %esi
	movq	%r12, %rdx
	movq	%r15, %rcx
	movq	%r14, %r8
	callq	intrapred_luma8x8.12
	addq	$8, %rsp
	popq	%rbx
	popq	%r12
	popq	%r13
	popq	%r14
	popq	%r15
	popq	%rbp
	.cfi_def_cfa %rsp, 8
	retq
.LBB2_4:                                # %func_intrapred_luma8x8.15
	.cfi_def_cfa %rbp, 16
	movl	%ebx, %edi
	movl	%r13d, %esi
	movq	%r12, %rdx
	movq	%r15, %rcx
	movq	%r14, %r8
	callq	intrapred_luma8x8.15
	addq	$8, %rsp
	popq	%rbx
	popq	%r12
	popq	%r13
	popq	%r14
	popq	%r15
	popq	%rbp
	.cfi_def_cfa %rsp, 8
	retq
.LBB2_5:                                # %func_intrapred_luma8x8.17
	.cfi_def_cfa %rbp, 16
	movl	%ebx, %edi
	movl	%r13d, %esi
	movq	%r12, %rdx
	movq	%r15, %rcx
	movq	%r14, %r8
	callq	intrapred_luma8x8.17
	addq	$8, %rsp
	popq	%rbx
	popq	%r12
	popq	%r13
	popq	%r14
	popq	%r15
	popq	%rbp
	.cfi_def_cfa %rsp, 8
	retq
.LBB2_6:                                # %func_intrapred_luma8x8.19
	.cfi_def_cfa %rbp, 16
	movl	%ebx, %edi
	movl	%r13d, %esi
	movq	%r12, %rdx
	movq	%r15, %rcx
	movq	%r14, %r8
	callq	intrapred_luma8x8.19
	addq	$8, %rsp
	popq	%rbx
	popq	%r12
	popq	%r13
	popq	%r14
	popq	%r15
	popq	%rbp
	.cfi_def_cfa %rsp, 8
	retq
.LBB2_7:                                # %func_intrapred_luma8x8.20
	.cfi_def_cfa %rbp, 16
	movl	%ebx, %edi
	movl	%r13d, %esi
	movq	%r12, %rdx
	movq	%r15, %rcx
	movq	%r14, %r8
	callq	intrapred_luma8x8.20
	addq	$8, %rsp
	popq	%rbx
	popq	%r12
	popq	%r13
	popq	%r14
	popq	%r15
	popq	%rbp
	.cfi_def_cfa %rsp, 8
	retq
.LBB2_8:                                # %func_intrapred_luma8x8.23
	.cfi_def_cfa %rbp, 16
	movl	%ebx, %edi
	movl	%r13d, %esi
	movq	%r12, %rdx
	movq	%r15, %rcx
	movq	%r14, %r8
	callq	intrapred_luma8x8.23
	addq	$8, %rsp
	popq	%rbx
	popq	%r12
	popq	%r13
	popq	%r14
	popq	%r15
	popq	%rbp
	.cfi_def_cfa %rsp, 8
	retq
.LBB2_9:                                # %ctrl0
	.cfi_def_cfa %rbp, 16
	cmpl	$1, %eax
	je	.LBB2_2
# %bb.10:                               # %ctrl1
	cmpl	$2, %eax
	je	.LBB2_3
# %bb.11:                               # %ctrl2
	cmpl	$3, %eax
	je	.LBB2_4
# %bb.12:                               # %ctrl3
	cmpl	$4, %eax
	je	.LBB2_5
# %bb.13:                               # %ctrl4
	cmpl	$5, %eax
	je	.LBB2_6
# %bb.14:                               # %ctrl5
	cmpl	$6, %eax
	je	.LBB2_7
	jmp	.LBB2_8
.Lfunc_end2:
	.size	intrapred_luma8x8, .Lfunc_end2-intrapred_luma8x8
	.cfi_endproc
                                        # -- End function
	.globl	RDCost_for_8x8IntraBlocks # -- Begin function RDCost_for_8x8IntraBlocks
	.p2align	4, 0x90
	.type	RDCost_for_8x8IntraBlocks,@function
RDCost_for_8x8IntraBlocks:              # @RDCost_for_8x8IntraBlocks
	.cfi_startproc
# %bb.0:                                # %rand_bb
	pushq	%rbp
	.cfi_def_cfa_offset 16
	.cfi_offset %rbp, -16
	movq	%rsp, %rbp
	.cfi_def_cfa_register %rbp
	pushq	%r15
	pushq	%r14
	pushq	%r12
	pushq	%rbx
	subq	$16, %rsp
	.cfi_offset %rbx, -48
	.cfi_offset %r12, -40
	.cfi_offset %r14, -32
	.cfi_offset %r15, -24
	movl	%ecx, %r14d
	vmovsd	%xmm1, -48(%rbp)        # 8-byte Spill
	vmovsd	%xmm0, -40(%rbp)        # 8-byte Spill
	movl	%edx, %r15d
	movl	%esi, %r12d
	movq	%rdi, %rbx
	callq	get_urand
	cmpl	$0, %eax
	jne	.LBB3_9
# %bb.1:                                # %func_RDCost_for_8x8IntraBlocks.1
	movq	%rbx, %rdi
	movl	%r12d, %esi
	movl	%r15d, %edx
	vmovsd	-40(%rbp), %xmm0        # 8-byte Reload
                                        # xmm0 = mem[0],zero
	vmovsd	-48(%rbp), %xmm1        # 8-byte Reload
                                        # xmm1 = mem[0],zero
	movl	%r14d, %ecx
	callq	RDCost_for_8x8IntraBlocks.1
	addq	$16, %rsp
	popq	%rbx
	popq	%r12
	popq	%r14
	popq	%r15
	popq	%rbp
	.cfi_def_cfa %rsp, 8
	retq
.LBB3_2:                                # %func_RDCost_for_8x8IntraBlocks.2
	.cfi_def_cfa %rbp, 16
	movq	%rbx, %rdi
	movl	%r12d, %esi
	movl	%r15d, %edx
	movl	%r14d, %ecx
	callq	RDCost_for_8x8IntraBlocks.2
	addq	$16, %rsp
	popq	%rbx
	popq	%r12
	popq	%r14
	popq	%r15
	popq	%rbp
	.cfi_def_cfa %rsp, 8
	retq
.LBB3_3:                                # %func_RDCost_for_8x8IntraBlocks.7
	.cfi_def_cfa %rbp, 16
	movq	%rbx, %rdi
	movl	%r12d, %esi
	movl	%r15d, %edx
	movl	%r14d, %ecx
	callq	RDCost_for_8x8IntraBlocks.7
	addq	$16, %rsp
	popq	%rbx
	popq	%r12
	popq	%r14
	popq	%r15
	popq	%rbp
	.cfi_def_cfa %rsp, 8
	retq
.LBB3_4:                                # %func_RDCost_for_8x8IntraBlocks.11
	.cfi_def_cfa %rbp, 16
	movq	%rbx, %rdi
	movl	%r12d, %esi
	movl	%r15d, %edx
	movl	%r14d, %ecx
	callq	RDCost_for_8x8IntraBlocks.11
	addq	$16, %rsp
	popq	%rbx
	popq	%r12
	popq	%r14
	popq	%r15
	popq	%rbp
	.cfi_def_cfa %rsp, 8
	retq
.LBB3_5:                                # %func_RDCost_for_8x8IntraBlocks.30
	.cfi_def_cfa %rbp, 16
	movq	%rbx, %rdi
	movl	%r12d, %esi
	movl	%r15d, %edx
	movl	%r14d, %ecx
	callq	RDCost_for_8x8IntraBlocks.30
	addq	$16, %rsp
	popq	%rbx
	popq	%r12
	popq	%r14
	popq	%r15
	popq	%rbp
	.cfi_def_cfa %rsp, 8
	retq
.LBB3_6:                                # %func_RDCost_for_8x8IntraBlocks.31
	.cfi_def_cfa %rbp, 16
	movq	%rbx, %rdi
	movl	%r12d, %esi
	movl	%r15d, %edx
	movl	%r14d, %ecx
	callq	RDCost_for_8x8IntraBlocks.31
	addq	$16, %rsp
	popq	%rbx
	popq	%r12
	popq	%r14
	popq	%r15
	popq	%rbp
	.cfi_def_cfa %rsp, 8
	retq
.LBB3_7:                                # %func_RDCost_for_8x8IntraBlocks.32
	.cfi_def_cfa %rbp, 16
	movq	%rbx, %rdi
	movl	%r12d, %esi
	movl	%r15d, %edx
	movl	%r14d, %ecx
	callq	RDCost_for_8x8IntraBlocks.32
	addq	$16, %rsp
	popq	%rbx
	popq	%r12
	popq	%r14
	popq	%r15
	popq	%rbp
	.cfi_def_cfa %rsp, 8
	retq
.LBB3_8:                                # %func_RDCost_for_8x8IntraBlocks.45
	.cfi_def_cfa %rbp, 16
	movq	%rbx, %rdi
	movl	%r12d, %esi
	movl	%r15d, %edx
	movl	%r14d, %ecx
	callq	RDCost_for_8x8IntraBlocks.45
	addq	$16, %rsp
	popq	%rbx
	popq	%r12
	popq	%r14
	popq	%r15
	popq	%rbp
	.cfi_def_cfa %rsp, 8
	retq
.LBB3_9:                                # %ctrl0
	.cfi_def_cfa %rbp, 16
	vmovsd	-40(%rbp), %xmm0        # 8-byte Reload
                                        # xmm0 = mem[0],zero
	vmovsd	-48(%rbp), %xmm1        # 8-byte Reload
                                        # xmm1 = mem[0],zero
	cmpl	$1, %eax
	je	.LBB3_2
# %bb.10:                               # %ctrl1
	cmpl	$2, %eax
	je	.LBB3_3
# %bb.11:                               # %ctrl2
	cmpl	$3, %eax
	je	.LBB3_4
# %bb.12:                               # %ctrl3
	cmpl	$4, %eax
	je	.LBB3_5
# %bb.13:                               # %ctrl4
	cmpl	$5, %eax
	je	.LBB3_6
# %bb.14:                               # %ctrl5
	cmpl	$6, %eax
	je	.LBB3_7
	jmp	.LBB3_8
.Lfunc_end3:
	.size	RDCost_for_8x8IntraBlocks, .Lfunc_end3-RDCost_for_8x8IntraBlocks
	.cfi_endproc
                                        # -- End function
	.globl	dct_luma8x8             # -- Begin function dct_luma8x8
	.p2align	4, 0x90
	.type	dct_luma8x8,@function
dct_luma8x8:                            # @dct_luma8x8
	.cfi_startproc
# %bb.0:                                # %rand_bb
	pushq	%rbp
	.cfi_def_cfa_offset 16
	.cfi_offset %rbp, -16
	movq	%rsp, %rbp
	.cfi_def_cfa_register %rbp
	pushq	%r15
	pushq	%r14
	pushq	%rbx
	pushq	%rax
	.cfi_offset %rbx, -40
	.cfi_offset %r14, -32
	.cfi_offset %r15, -24
	movl	%edx, %r14d
	movq	%rsi, %r15
	movl	%edi, %ebx
	callq	get_urand
	cmpl	$0, %eax
	jne	.LBB4_9
# %bb.1:                                # %func_dct_luma8x8.14
	movl	%ebx, %edi
	movq	%r15, %rsi
	movl	%r14d, %edx
	callq	dct_luma8x8.14
	addq	$8, %rsp
	popq	%rbx
	popq	%r14
	popq	%r15
	popq	%rbp
	.cfi_def_cfa %rsp, 8
	retq
.LBB4_2:                                # %func_dct_luma8x8.28
	.cfi_def_cfa %rbp, 16
	movl	%ebx, %edi
	movq	%r15, %rsi
	movl	%r14d, %edx
	callq	dct_luma8x8.28
	addq	$8, %rsp
	popq	%rbx
	popq	%r14
	popq	%r15
	popq	%rbp
	.cfi_def_cfa %rsp, 8
	retq
.LBB4_3:                                # %func_dct_luma8x8.36
	.cfi_def_cfa %rbp, 16
	movl	%ebx, %edi
	movq	%r15, %rsi
	movl	%r14d, %edx
	callq	dct_luma8x8.36
	addq	$8, %rsp
	popq	%rbx
	popq	%r14
	popq	%r15
	popq	%rbp
	.cfi_def_cfa %rsp, 8
	retq
.LBB4_4:                                # %func_dct_luma8x8.39
	.cfi_def_cfa %rbp, 16
	movl	%ebx, %edi
	movq	%r15, %rsi
	movl	%r14d, %edx
	callq	dct_luma8x8.39
	addq	$8, %rsp
	popq	%rbx
	popq	%r14
	popq	%r15
	popq	%rbp
	.cfi_def_cfa %rsp, 8
	retq
.LBB4_5:                                # %func_dct_luma8x8.41
	.cfi_def_cfa %rbp, 16
	movl	%ebx, %edi
	movq	%r15, %rsi
	movl	%r14d, %edx
	callq	dct_luma8x8.41
	addq	$8, %rsp
	popq	%rbx
	popq	%r14
	popq	%r15
	popq	%rbp
	.cfi_def_cfa %rsp, 8
	retq
.LBB4_6:                                # %func_dct_luma8x8.46
	.cfi_def_cfa %rbp, 16
	movl	%ebx, %edi
	movq	%r15, %rsi
	movl	%r14d, %edx
	callq	dct_luma8x8.46
	addq	$8, %rsp
	popq	%rbx
	popq	%r14
	popq	%r15
	popq	%rbp
	.cfi_def_cfa %rsp, 8
	retq
.LBB4_7:                                # %func_dct_luma8x8.47
	.cfi_def_cfa %rbp, 16
	movl	%ebx, %edi
	movq	%r15, %rsi
	movl	%r14d, %edx
	callq	dct_luma8x8.47
	addq	$8, %rsp
	popq	%rbx
	popq	%r14
	popq	%r15
	popq	%rbp
	.cfi_def_cfa %rsp, 8
	retq
.LBB4_8:                                # %func_dct_luma8x8.48
	.cfi_def_cfa %rbp, 16
	movl	%ebx, %edi
	movq	%r15, %rsi
	movl	%r14d, %edx
	callq	dct_luma8x8.48
	addq	$8, %rsp
	popq	%rbx
	popq	%r14
	popq	%r15
	popq	%rbp
	.cfi_def_cfa %rsp, 8
	retq
.LBB4_9:                                # %ctrl0
	.cfi_def_cfa %rbp, 16
	cmpl	$1, %eax
	je	.LBB4_2
# %bb.10:                               # %ctrl1
	cmpl	$2, %eax
	je	.LBB4_3
# %bb.11:                               # %ctrl2
	cmpl	$3, %eax
	je	.LBB4_4
# %bb.12:                               # %ctrl3
	cmpl	$4, %eax
	je	.LBB4_5
# %bb.13:                               # %ctrl4
	cmpl	$5, %eax
	je	.LBB4_6
# %bb.14:                               # %ctrl5
	cmpl	$6, %eax
	je	.LBB4_7
	jmp	.LBB4_8
.Lfunc_end4:
	.size	dct_luma8x8, .Lfunc_end4-dct_luma8x8
	.cfi_endproc
                                        # -- End function
	.globl	LowPassForIntra8x8Pred  # -- Begin function LowPassForIntra8x8Pred
	.p2align	4, 0x90
	.type	LowPassForIntra8x8Pred,@function
LowPassForIntra8x8Pred:                 # @LowPassForIntra8x8Pred
	.cfi_startproc
# %bb.0:                                # %rand_bb
	pushq	%rbp
	.cfi_def_cfa_offset 16
	.cfi_offset %rbp, -16
	movq	%rsp, %rbp
	.cfi_def_cfa_register %rbp
	pushq	%r15
	pushq	%r14
	pushq	%r12
	pushq	%rbx
	.cfi_offset %rbx, -48
	.cfi_offset %r12, -40
	.cfi_offset %r14, -32
	.cfi_offset %r15, -24
	movl	%ecx, %r14d
	movl	%edx, %r15d
	movl	%esi, %r12d
	movq	%rdi, %rbx
	callq	get_urand
	cmpl	$0, %eax
	jne	.LBB5_9
# %bb.1:                                # %func_LowPassForIntra8x8Pred.8
	movq	%rbx, %rdi
	movl	%r12d, %esi
	movl	%r15d, %edx
	movl	%r14d, %ecx
	callq	LowPassForIntra8x8Pred.8
	popq	%rbx
	popq	%r12
	popq	%r14
	popq	%r15
	popq	%rbp
	.cfi_def_cfa %rsp, 8
	retq
.LBB5_2:                                # %func_LowPassForIntra8x8Pred.13
	.cfi_def_cfa %rbp, 16
	movq	%rbx, %rdi
	movl	%r12d, %esi
	movl	%r15d, %edx
	movl	%r14d, %ecx
	callq	LowPassForIntra8x8Pred.13
	popq	%rbx
	popq	%r12
	popq	%r14
	popq	%r15
	popq	%rbp
	.cfi_def_cfa %rsp, 8
	retq
.LBB5_3:                                # %func_LowPassForIntra8x8Pred.33
	.cfi_def_cfa %rbp, 16
	movq	%rbx, %rdi
	movl	%r12d, %esi
	movl	%r15d, %edx
	movl	%r14d, %ecx
	callq	LowPassForIntra8x8Pred.33
	popq	%rbx
	popq	%r12
	popq	%r14
	popq	%r15
	popq	%rbp
	.cfi_def_cfa %rsp, 8
	retq
.LBB5_4:                                # %func_LowPassForIntra8x8Pred.37
	.cfi_def_cfa %rbp, 16
	movq	%rbx, %rdi
	movl	%r12d, %esi
	movl	%r15d, %edx
	movl	%r14d, %ecx
	callq	LowPassForIntra8x8Pred.37
	popq	%rbx
	popq	%r12
	popq	%r14
	popq	%r15
	popq	%rbp
	.cfi_def_cfa %rsp, 8
	retq
.LBB5_5:                                # %func_LowPassForIntra8x8Pred.38
	.cfi_def_cfa %rbp, 16
	movq	%rbx, %rdi
	movl	%r12d, %esi
	movl	%r15d, %edx
	movl	%r14d, %ecx
	callq	LowPassForIntra8x8Pred.38
	popq	%rbx
	popq	%r12
	popq	%r14
	popq	%r15
	popq	%rbp
	.cfi_def_cfa %rsp, 8
	retq
.LBB5_6:                                # %func_LowPassForIntra8x8Pred.40
	.cfi_def_cfa %rbp, 16
	movq	%rbx, %rdi
	movl	%r12d, %esi
	movl	%r15d, %edx
	movl	%r14d, %ecx
	callq	LowPassForIntra8x8Pred.40
	popq	%rbx
	popq	%r12
	popq	%r14
	popq	%r15
	popq	%rbp
	.cfi_def_cfa %rsp, 8
	retq
.LBB5_7:                                # %func_LowPassForIntra8x8Pred.43
	.cfi_def_cfa %rbp, 16
	movq	%rbx, %rdi
	movl	%r12d, %esi
	movl	%r15d, %edx
	movl	%r14d, %ecx
	callq	LowPassForIntra8x8Pred.43
	popq	%rbx
	popq	%r12
	popq	%r14
	popq	%r15
	popq	%rbp
	.cfi_def_cfa %rsp, 8
	retq
.LBB5_8:                                # %func_LowPassForIntra8x8Pred.44
	.cfi_def_cfa %rbp, 16
	movq	%rbx, %rdi
	movl	%r12d, %esi
	movl	%r15d, %edx
	movl	%r14d, %ecx
	callq	LowPassForIntra8x8Pred.44
	popq	%rbx
	popq	%r12
	popq	%r14
	popq	%r15
	popq	%rbp
	.cfi_def_cfa %rsp, 8
	retq
.LBB5_9:                                # %ctrl0
	.cfi_def_cfa %rbp, 16
	cmpl	$1, %eax
	je	.LBB5_2
# %bb.10:                               # %ctrl1
	cmpl	$2, %eax
	je	.LBB5_3
# %bb.11:                               # %ctrl2
	cmpl	$3, %eax
	je	.LBB5_4
# %bb.12:                               # %ctrl3
	cmpl	$4, %eax
	je	.LBB5_5
# %bb.13:                               # %ctrl4
	cmpl	$5, %eax
	je	.LBB5_6
# %bb.14:                               # %ctrl5
	cmpl	$6, %eax
	je	.LBB5_7
	jmp	.LBB5_8
.Lfunc_end5:
	.size	LowPassForIntra8x8Pred, .Lfunc_end5-LowPassForIntra8x8Pred
	.cfi_endproc
                                        # -- End function
	.globl	RDCost_for_8x8IntraBlocks.1 # -- Begin function RDCost_for_8x8IntraBlocks.1
	.p2align	4, 0x90
	.type	RDCost_for_8x8IntraBlocks.1,@function
RDCost_for_8x8IntraBlocks.1:            # @RDCost_for_8x8IntraBlocks.1
	.cfi_startproc
# %bb.0:                                # %entry
	pushq	%rbp
	.cfi_def_cfa_offset 16
	.cfi_offset %rbp, -16
	movq	%rsp, %rbp
	.cfi_def_cfa_register %rbp
	subq	$176, %rsp
	movl	$862720688, -72(%rbp)   # imm = 0x336C12B0
	movq	%rdi, -144(%rbp)
	movl	%esi, -8(%rbp)
	movl	%edx, -28(%rbp)
	vmovsd	%xmm0, -168(%rbp)
	vmovsd	%xmm1, -176(%rbp)
	movl	%ecx, -44(%rbp)
	vxorps	%xmm0, %xmm0, %xmm0
	vmovsd	%xmm0, -112(%rbp)
	movq	$0, -64(%rbp)
	movl	-8(%rbp), %eax
	cltd
	movl	$2, %ecx
	idivl	%ecx
	shll	$3, %edx
	movl	%edx, -76(%rbp)
	movl	-8(%rbp), %eax
	cltd
	idivl	%ecx
	shll	$3, %eax
	movl	%eax, -40(%rbp)
	movq	img, %rax
	movl	152(%rax), %eax
	addl	-76(%rbp), %eax
	movl	%eax, -36(%rbp)
	movq	img, %rax
	movl	156(%rax), %eax
	addl	-40(%rbp), %eax
	movl	%eax, -68(%rbp)
	movq	img, %rax
	movl	172(%rax), %eax
	addl	-40(%rbp), %eax
	movl	%eax, -84(%rbp)
	movq	imgY_org, %rax
	movq	%rax, -160(%rbp)
	movq	enc_picture, %rax
	movq	6424(%rax), %rax
	movq	%rax, -152(%rbp)
	movq	img, %rax
	movq	14160(%rax), %rax
	movq	%rax, -104(%rbp)
	movq	img, %rax
	movq	14168(%rax), %rax
	movq	img, %rcx
	movslq	12(%rcx), %rcx
	imulq	$632, %rcx, %rcx        # imm = 0x278
	addq	%rcx, %rax
	movq	%rax, -128(%rbp)
	movq	img, %rax
	addq	$14176, %rax            # imm = 0x3760
	movq	-128(%rbp), %rcx
	movslq	(%rcx), %rcx
	imulq	$48, %rcx, %rcx
	addq	%rcx, %rax
	movq	%rax, -24(%rbp)
	movq	input, %rax
	movslq	2364(%rax), %rax
	movq	assignSE2partition(,%rax,8), %rax
	movq	%rax, -120(%rbp)
	movl	$0, -80(%rbp)
	movl	-8(%rbp), %edi
	leaq	-80(%rbp), %rsi
	movl	$1, %edx
	callq	dct_luma8x8
	movq	-144(%rbp), %rcx
	movl	%eax, (%rcx)
	movl	$0, -16(%rbp)
.LBB6_1:                                # %for.cond
                                        # =>This Loop Header: Depth=1
                                        #     Child Loop BB6_3 Depth 2
	cmpl	$8, -16(%rbp)
	jge	.LBB6_8
# %bb.2:                                # %for.body
                                        #   in Loop: Header=BB6_1 Depth=1
	movl	-36(%rbp), %eax
	movl	%eax, -12(%rbp)
.LBB6_3:                                # %for.cond9
                                        #   Parent Loop BB6_1 Depth=1
                                        # =>  This Inner Loop Header: Depth=2
	movl	-12(%rbp), %eax
	movl	-36(%rbp), %ecx
	addl	$8, %ecx
	cmpl	%ecx, %eax
	jge	.LBB6_6
# %bb.4:                                # %for.body12
                                        #   in Loop: Header=BB6_3 Depth=2
	movq	img, %rax
	movq	71776(%rax), %rax
	movq	-160(%rbp), %rcx
	movl	-84(%rbp), %edx
	addl	-16(%rbp), %edx
	movslq	%edx, %rdx
	movq	(%rcx,%rdx,8), %rcx
	movslq	-12(%rbp), %rdx
	movzwl	(%rcx,%rdx,2), %ecx
	movq	-152(%rbp), %rdx
	movl	-68(%rbp), %esi
	addl	-16(%rbp), %esi
	movslq	%esi, %rsi
	movq	(%rdx,%rsi,8), %rdx
	movslq	-12(%rbp), %rsi
	movzwl	(%rdx,%rsi,2), %edx
	subl	%edx, %ecx
	movslq	%ecx, %rcx
	movslq	(%rax,%rcx,4), %rax
	addq	-64(%rbp), %rax
	movq	%rax, -64(%rbp)
# %bb.5:                                # %for.inc
                                        #   in Loop: Header=BB6_3 Depth=2
	movl	-12(%rbp), %eax
	addl	$1, %eax
	movl	%eax, -12(%rbp)
	jmp	.LBB6_3
.LBB6_6:                                # %for.end
                                        #   in Loop: Header=BB6_1 Depth=1
	jmp	.LBB6_7
.LBB6_7:                                # %for.inc28
                                        #   in Loop: Header=BB6_1 Depth=1
	movl	-16(%rbp), %eax
	addl	$1, %eax
	movl	%eax, -16(%rbp)
	jmp	.LBB6_1
.LBB6_8:                                # %for.end30
	movl	-44(%rbp), %eax
	cmpl	-28(%rbp), %eax
	jne	.LBB6_10
# %bb.9:                                # %cond.true
	movl	$4294967295, %eax       # imm = 0xFFFFFFFF
	jmp	.LBB6_14
.LBB6_10:                               # %cond.false
	movl	-28(%rbp), %eax
	cmpl	-44(%rbp), %eax
	jge	.LBB6_12
# %bb.11:                               # %cond.true35
	movl	-28(%rbp), %eax
	jmp	.LBB6_13
.LBB6_12:                               # %cond.false36
	movl	-28(%rbp), %eax
	subl	$1, %eax
.LBB6_13:                               # %cond.end
.LBB6_14:                               # %cond.end38
	movq	-24(%rbp), %rcx
	movl	%eax, 4(%rcx)
	movl	-8(%rbp), %eax
	movq	-24(%rbp), %rcx
	movl	%eax, 24(%rcx)
	movq	-24(%rbp), %rax
	movl	$4, (%rax)
	movq	input, %rax
	cmpl	$0, 2356(%rax)
	je	.LBB6_16
# %bb.15:                               # %if.then
	movq	-24(%rbp), %rax
	movabsq	$writeIntraPredMode_CABAC, %rcx
	movq	%rcx, 40(%rax)
.LBB6_16:                               # %if.end
	movq	img, %rax
	cmpl	$1, 24(%rax)
	je	.LBB6_18
# %bb.17:                               # %if.then45
	movq	-104(%rbp), %rax
	movq	24(%rax), %rax
	movq	-120(%rbp), %rcx
	movslq	16(%rcx), %rcx
	imulq	$120, %rcx, %rcx
	addq	%rcx, %rax
	movq	%rax, -56(%rbp)
	jmp	.LBB6_19
.LBB6_18:                               # %if.else
	movq	-104(%rbp), %rax
	movq	24(%rax), %rax
	movq	-120(%rbp), %rcx
	movslq	72(%rcx), %rcx
	imulq	$120, %rcx, %rcx
	addq	%rcx, %rax
	movq	%rax, -56(%rbp)
.LBB6_19:                               # %if.end53
	movq	input, %rax
	cmpl	$0, 2356(%rax)
	jne	.LBB6_21
# %bb.20:                               # %if.then57
	movq	-24(%rbp), %rdi
	movq	-56(%rbp), %rsi
	callq	writeSyntaxElement_Intra4x4PredictionMode
	jmp	.LBB6_22
.LBB6_21:                               # %if.else59
	movq	-56(%rbp), %rax
	movq	112(%rax), %rax
	movq	-24(%rbp), %rdi
	movq	-56(%rbp), %rsi
	callq	*%rax
.LBB6_22:                               # %if.end61
	movq	-24(%rbp), %rax
	movl	12(%rax), %eax
	movl	%eax, -4(%rbp)
	movq	-24(%rbp), %rax
	addq	$48, %rax
	movq	%rax, -24(%rbp)
	movq	-128(%rbp), %rax
	movl	(%rax), %ecx
	addl	$1, %ecx
	movl	%ecx, (%rax)
	movq	input, %rax
	cmpl	$0, 2356(%rax)
	jne	.LBB6_28
# %bb.23:                               # %if.then67
	movl	$0, -32(%rbp)
.LBB6_24:                               # %for.cond68
                                        # =>This Inner Loop Header: Depth=1
	cmpl	$4, -32(%rbp)
	jge	.LBB6_27
# %bb.25:                               # %for.body71
                                        #   in Loop: Header=BB6_24 Depth=1
	movl	-8(%rbp), %esi
	movl	-32(%rbp), %edx
	xorl	%edi, %edi
	xorl	%ecx, %ecx
	callq	writeCoeff4x4_CAVLC
	addl	-4(%rbp), %eax
	movl	%eax, -4(%rbp)
# %bb.26:                               # %for.inc74
                                        #   in Loop: Header=BB6_24 Depth=1
	movl	-32(%rbp), %eax
	addl	$1, %eax
	movl	%eax, -32(%rbp)
	jmp	.LBB6_24
.LBB6_27:                               # %for.end76
	jmp	.LBB6_29
.LBB6_28:                               # %if.else77
	movl	-8(%rbp), %edi
	movl	$1, %esi
	callq	writeLumaCoeff8x8_CABAC
	addl	-4(%rbp), %eax
	movl	%eax, -4(%rbp)
.LBB6_29:                               # %if.end80
	vcvtsi2sdq	-64(%rbp), %xmm0, %xmm0
	vmovsd	-168(%rbp), %xmm1       # xmm1 = mem[0],zero
	vcvtsi2sdl	-4(%rbp), %xmm0, %xmm2
	vmulsd	%xmm2, %xmm1, %xmm1
	vaddsd	%xmm1, %xmm0, %xmm0
	vmovsd	%xmm0, -112(%rbp)
	movq	img, %rax
	cmpl	$0, 72724(%rax)
	je	.LBB6_31
# %bb.30:                               # %if.then85
	vcvtsi2sdl	-4(%rbp), %xmm0, %xmm0
	vmovsd	%xmm0, -96(%rbp)
	jmp	.LBB6_32
.LBB6_31:                               # %if.else87
	vmovsd	-112(%rbp), %xmm0       # xmm0 = mem[0],zero
	vmovsd	%xmm0, -96(%rbp)
.LBB6_32:                               # %return
	vmovsd	-96(%rbp), %xmm0        # xmm0 = mem[0],zero
	cmpl	$862720688, -72(%rbp)   # imm = 0x336C12B0
	jne	.LBB6_34
.LBB6_33:
	addq	$176, %rsp
	popq	%rbp
	.cfi_def_cfa %rsp, 8
	retq
.LBB6_34:                               # %func_exit
	.cfi_def_cfa %rbp, 16
	vmovsd	%xmm0, -136(%rbp)       # 8-byte Spill
	callq	detect_breach
	vmovsd	-136(%rbp), %xmm0       # 8-byte Reload
                                        # xmm0 = mem[0],zero
	jmp	.LBB6_33
.Lfunc_end6:
	.size	RDCost_for_8x8IntraBlocks.1, .Lfunc_end6-RDCost_for_8x8IntraBlocks.1
	.cfi_endproc
                                        # -- End function
	.globl	RDCost_for_8x8IntraBlocks.2 # -- Begin function RDCost_for_8x8IntraBlocks.2
	.p2align	4, 0x90
	.type	RDCost_for_8x8IntraBlocks.2,@function
RDCost_for_8x8IntraBlocks.2:            # @RDCost_for_8x8IntraBlocks.2
	.cfi_startproc
# %bb.0:                                # %entry
	pushq	%rbp
	.cfi_def_cfa_offset 16
	.cfi_offset %rbp, -16
	movq	%rsp, %rbp
	.cfi_def_cfa_register %rbp
	subq	$176, %rsp
	movl	$234097207, -72(%rbp)   # imm = 0xDF40A37
	movq	%rdi, -152(%rbp)
	movl	%esi, -8(%rbp)
	movl	%edx, -28(%rbp)
	vmovsd	%xmm0, -168(%rbp)
	vmovsd	%xmm1, -176(%rbp)
	movl	%ecx, -40(%rbp)
	vxorps	%xmm0, %xmm0, %xmm0
	vmovsd	%xmm0, -120(%rbp)
	movq	$0, -64(%rbp)
	movl	-8(%rbp), %eax
	cltd
	movl	$2, %ecx
	idivl	%ecx
	shll	$3, %edx
	movl	%edx, -84(%rbp)
	movl	-8(%rbp), %eax
	cltd
	idivl	%ecx
	shll	$3, %eax
	movl	%eax, -36(%rbp)
	movq	img, %rax
	movl	152(%rax), %eax
	addl	-84(%rbp), %eax
	movl	%eax, -44(%rbp)
	movq	img, %rax
	movl	156(%rax), %eax
	addl	-36(%rbp), %eax
	movl	%eax, -68(%rbp)
	movq	img, %rax
	movl	172(%rax), %eax
	addl	-36(%rbp), %eax
	movl	%eax, -80(%rbp)
	movq	imgY_org, %rax
	movq	%rax, -160(%rbp)
	movq	enc_picture, %rax
	movq	6424(%rax), %rax
	movq	%rax, -144(%rbp)
	movq	img, %rax
	movq	14160(%rax), %rax
	movq	%rax, -104(%rbp)
	movq	img, %rax
	movq	14168(%rax), %rax
	movq	img, %rcx
	movslq	12(%rcx), %rcx
	imulq	$632, %rcx, %rcx        # imm = 0x278
	addq	%rcx, %rax
	movq	%rax, -96(%rbp)
	movq	img, %rax
	addq	$14176, %rax            # imm = 0x3760
	movq	-96(%rbp), %rcx
	movslq	(%rcx), %rcx
	imulq	$48, %rcx, %rcx
	addq	%rcx, %rax
	movq	%rax, -24(%rbp)
	movq	input, %rax
	movslq	2364(%rax), %rax
	movq	assignSE2partition(,%rax,8), %rax
	movq	%rax, -128(%rbp)
	movl	$0, -76(%rbp)
	movl	-8(%rbp), %edi
	leaq	-76(%rbp), %rsi
	movl	$1, %edx
	callq	dct_luma8x8
	movq	-152(%rbp), %rcx
	movl	%eax, (%rcx)
	movl	$0, -16(%rbp)
.LBB7_1:                                # %for.cond
                                        # =>This Loop Header: Depth=1
                                        #     Child Loop BB7_3 Depth 2
	cmpl	$8, -16(%rbp)
	jge	.LBB7_8
# %bb.2:                                # %for.body
                                        #   in Loop: Header=BB7_1 Depth=1
	movl	-44(%rbp), %eax
	movl	%eax, -12(%rbp)
.LBB7_3:                                # %for.cond9
                                        #   Parent Loop BB7_1 Depth=1
                                        # =>  This Inner Loop Header: Depth=2
	movl	-12(%rbp), %eax
	movl	-44(%rbp), %ecx
	addl	$8, %ecx
	cmpl	%ecx, %eax
	jge	.LBB7_6
# %bb.4:                                # %for.body12
                                        #   in Loop: Header=BB7_3 Depth=2
	movq	img, %rax
	movq	71776(%rax), %rax
	movq	-160(%rbp), %rcx
	movl	-80(%rbp), %edx
	addl	-16(%rbp), %edx
	movslq	%edx, %rdx
	movq	(%rcx,%rdx,8), %rcx
	movslq	-12(%rbp), %rdx
	movzwl	(%rcx,%rdx,2), %ecx
	movq	-144(%rbp), %rdx
	movl	-68(%rbp), %esi
	addl	-16(%rbp), %esi
	movslq	%esi, %rsi
	movq	(%rdx,%rsi,8), %rdx
	movslq	-12(%rbp), %rsi
	movzwl	(%rdx,%rsi,2), %edx
	subl	%edx, %ecx
	movslq	%ecx, %rcx
	movslq	(%rax,%rcx,4), %rax
	addq	-64(%rbp), %rax
	movq	%rax, -64(%rbp)
# %bb.5:                                # %for.inc
                                        #   in Loop: Header=BB7_3 Depth=2
	movl	-12(%rbp), %eax
	addl	$1, %eax
	movl	%eax, -12(%rbp)
	jmp	.LBB7_3
.LBB7_6:                                # %for.end
                                        #   in Loop: Header=BB7_1 Depth=1
	jmp	.LBB7_7
.LBB7_7:                                # %for.inc28
                                        #   in Loop: Header=BB7_1 Depth=1
	movl	-16(%rbp), %eax
	addl	$1, %eax
	movl	%eax, -16(%rbp)
	jmp	.LBB7_1
.LBB7_8:                                # %for.end30
	movl	-40(%rbp), %eax
	cmpl	-28(%rbp), %eax
	jne	.LBB7_10
# %bb.9:                                # %cond.true
	movl	$4294967295, %eax       # imm = 0xFFFFFFFF
	jmp	.LBB7_14
.LBB7_10:                               # %cond.false
	movl	-28(%rbp), %eax
	cmpl	-40(%rbp), %eax
	jge	.LBB7_12
# %bb.11:                               # %cond.true35
	movl	-28(%rbp), %eax
	jmp	.LBB7_13
.LBB7_12:                               # %cond.false36
	movl	-28(%rbp), %eax
	subl	$1, %eax
.LBB7_13:                               # %cond.end
.LBB7_14:                               # %cond.end38
	movq	-24(%rbp), %rcx
	movl	%eax, 4(%rcx)
	movl	-8(%rbp), %eax
	movq	-24(%rbp), %rcx
	movl	%eax, 24(%rcx)
	movq	-24(%rbp), %rax
	movl	$4, (%rax)
	movq	input, %rax
	cmpl	$0, 2356(%rax)
	je	.LBB7_16
# %bb.15:                               # %if.then
	movq	-24(%rbp), %rax
	movabsq	$writeIntraPredMode_CABAC, %rcx
	movq	%rcx, 40(%rax)
.LBB7_16:                               # %if.end
	movq	img, %rax
	cmpl	$1, 24(%rax)
	je	.LBB7_18
# %bb.17:                               # %if.then45
	movq	-104(%rbp), %rax
	movq	24(%rax), %rax
	movq	-128(%rbp), %rcx
	movslq	16(%rcx), %rcx
	imulq	$120, %rcx, %rcx
	addq	%rcx, %rax
	movq	%rax, -56(%rbp)
	jmp	.LBB7_19
.LBB7_18:                               # %if.else
	movq	-104(%rbp), %rax
	movq	24(%rax), %rax
	movq	-128(%rbp), %rcx
	movslq	72(%rcx), %rcx
	imulq	$120, %rcx, %rcx
	addq	%rcx, %rax
	movq	%rax, -56(%rbp)
.LBB7_19:                               # %if.end53
	movq	input, %rax
	cmpl	$0, 2356(%rax)
	jne	.LBB7_21
# %bb.20:                               # %if.then57
	movq	-24(%rbp), %rdi
	movq	-56(%rbp), %rsi
	callq	writeSyntaxElement_Intra4x4PredictionMode
	jmp	.LBB7_22
.LBB7_21:                               # %if.else59
	movq	-56(%rbp), %rax
	movq	112(%rax), %rax
	movq	-24(%rbp), %rdi
	movq	-56(%rbp), %rsi
	callq	*%rax
.LBB7_22:                               # %if.end61
	movq	-24(%rbp), %rax
	movl	12(%rax), %eax
	movl	%eax, -4(%rbp)
	movq	-24(%rbp), %rax
	addq	$48, %rax
	movq	%rax, -24(%rbp)
	movq	-96(%rbp), %rax
	movl	(%rax), %ecx
	addl	$1, %ecx
	movl	%ecx, (%rax)
	movq	input, %rax
	cmpl	$0, 2356(%rax)
	jne	.LBB7_28
# %bb.23:                               # %if.then67
	movl	$0, -32(%rbp)
.LBB7_24:                               # %for.cond68
                                        # =>This Inner Loop Header: Depth=1
	cmpl	$4, -32(%rbp)
	jge	.LBB7_27
# %bb.25:                               # %for.body71
                                        #   in Loop: Header=BB7_24 Depth=1
	movl	-8(%rbp), %esi
	movl	-32(%rbp), %edx
	xorl	%edi, %edi
	xorl	%ecx, %ecx
	callq	writeCoeff4x4_CAVLC
	addl	-4(%rbp), %eax
	movl	%eax, -4(%rbp)
# %bb.26:                               # %for.inc74
                                        #   in Loop: Header=BB7_24 Depth=1
	movl	-32(%rbp), %eax
	addl	$1, %eax
	movl	%eax, -32(%rbp)
	jmp	.LBB7_24
.LBB7_27:                               # %for.end76
	jmp	.LBB7_29
.LBB7_28:                               # %if.else77
	movl	-8(%rbp), %edi
	movl	$1, %esi
	callq	writeLumaCoeff8x8_CABAC
	addl	-4(%rbp), %eax
	movl	%eax, -4(%rbp)
.LBB7_29:                               # %if.end80
	vcvtsi2sdq	-64(%rbp), %xmm0, %xmm0
	vmovsd	-168(%rbp), %xmm1       # xmm1 = mem[0],zero
	vcvtsi2sdl	-4(%rbp), %xmm0, %xmm2
	vmulsd	%xmm2, %xmm1, %xmm1
	vaddsd	%xmm1, %xmm0, %xmm0
	vmovsd	%xmm0, -120(%rbp)
	movq	img, %rax
	cmpl	$0, 72724(%rax)
	je	.LBB7_31
# %bb.30:                               # %if.then85
	vcvtsi2sdl	-4(%rbp), %xmm0, %xmm0
	vmovsd	%xmm0, -112(%rbp)
	jmp	.LBB7_32
.LBB7_31:                               # %if.else87
	vmovsd	-120(%rbp), %xmm0       # xmm0 = mem[0],zero
	vmovsd	%xmm0, -112(%rbp)
.LBB7_32:                               # %return
	vmovsd	-112(%rbp), %xmm0       # xmm0 = mem[0],zero
	cmpl	$234097207, -72(%rbp)   # imm = 0xDF40A37
	jne	.LBB7_34
.LBB7_33:
	addq	$176, %rsp
	popq	%rbp
	.cfi_def_cfa %rsp, 8
	retq
.LBB7_34:                               # %func_exit
	.cfi_def_cfa %rbp, 16
	vmovsd	%xmm0, -136(%rbp)       # 8-byte Spill
	callq	detect_breach
	vmovsd	-136(%rbp), %xmm0       # 8-byte Reload
                                        # xmm0 = mem[0],zero
	jmp	.LBB7_33
.Lfunc_end7:
	.size	RDCost_for_8x8IntraBlocks.2, .Lfunc_end7-RDCost_for_8x8IntraBlocks.2
	.cfi_endproc
                                        # -- End function
	.section	.rodata.cst8,"aM",@progbits,8
	.p2align	3               # -- Begin function Mode_Decision_for_new_Intra8x8Macroblock.3
.LCPI8_0:
	.quad	4602677017732795964     # double 0.49990000000000001
.LCPI8_1:
	.quad	4618441417868443648     # double 6
	.text
	.globl	Mode_Decision_for_new_Intra8x8Macroblock.3
	.p2align	4, 0x90
	.type	Mode_Decision_for_new_Intra8x8Macroblock.3,@function
Mode_Decision_for_new_Intra8x8Macroblock.3: # @Mode_Decision_for_new_Intra8x8Macroblock.3
	.cfi_startproc
# %bb.0:                                # %entry
	pushq	%rbp
	.cfi_def_cfa_offset 16
	.cfi_offset %rbp, -16
	movq	%rsp, %rbp
	.cfi_def_cfa_register %rbp
	pushq	%rbx
	subq	$40, %rsp
	.cfi_offset %rbx, -24
	vmovsd	.LCPI8_0(%rip), %xmm1   # xmm1 = mem[0],zero
	vmovsd	.LCPI8_1(%rip), %xmm2   # xmm2 = mem[0],zero
	movl	$118772886, -20(%rbp)   # imm = 0x7145496
	vmovsd	%xmm0, -32(%rbp)
	movq	%rdi, -40(%rbp)
	movl	$0, -16(%rbp)
	vmulsd	-32(%rbp), %xmm2, %xmm0
	vaddsd	%xmm1, %xmm0, %xmm0
	vroundsd	$9, %xmm0, %xmm0, %xmm0
	vcvttsd2si	%xmm0, %eax
	movq	-40(%rbp), %rcx
	movl	%eax, (%rcx)
	movl	$0, -12(%rbp)
.LBB8_1:                                # %for.cond
                                        # =>This Inner Loop Header: Depth=1
	cmpl	$4, -12(%rbp)
	jge	.LBB8_6
# %bb.2:                                # %for.body
                                        #   in Loop: Header=BB8_1 Depth=1
	movl	-12(%rbp), %edi
	vmovsd	-32(%rbp), %xmm0        # xmm0 = mem[0],zero
	leaq	-24(%rbp), %rsi
	callq	Mode_Decision_for_new_8x8IntraBlocks
	cmpl	$0, %eax
	je	.LBB8_4
# %bb.3:                                # %if.then
                                        #   in Loop: Header=BB8_1 Depth=1
	movl	-12(%rbp), %ecx
                                        # kill: def $cl killed $ecx
	movl	$1, %eax
	shll	%cl, %eax
	orl	-16(%rbp), %eax
	movl	%eax, -16(%rbp)
.LBB8_4:                                # %if.end
                                        #   in Loop: Header=BB8_1 Depth=1
	movl	-24(%rbp), %eax
	movq	-40(%rbp), %rcx
	addl	(%rcx), %eax
	movl	%eax, (%rcx)
# %bb.5:                                # %for.inc
                                        #   in Loop: Header=BB8_1 Depth=1
	movl	-12(%rbp), %eax
	addl	$1, %eax
	movl	%eax, -12(%rbp)
	jmp	.LBB8_1
.LBB8_6:                                # %for.end
	movl	-16(%rbp), %ebx
	cmpl	$118772886, -20(%rbp)   # imm = 0x7145496
	jne	.LBB8_8
.LBB8_7:
	movl	%ebx, %eax
	addq	$40, %rsp
	popq	%rbx
	popq	%rbp
	.cfi_def_cfa %rsp, 8
	retq
.LBB8_8:                                # %func_exit
	.cfi_def_cfa %rbp, 16
	callq	detect_breach
	jmp	.LBB8_7
.Lfunc_end8:
	.size	Mode_Decision_for_new_Intra8x8Macroblock.3, .Lfunc_end8-Mode_Decision_for_new_Intra8x8Macroblock.3
	.cfi_endproc
                                        # -- End function
	.section	.rodata.cst8,"aM",@progbits,8
	.p2align	3               # -- Begin function Mode_Decision_for_new_Intra8x8Macroblock.4
.LCPI9_0:
	.quad	4602677017732795964     # double 0.49990000000000001
.LCPI9_1:
	.quad	4618441417868443648     # double 6
	.text
	.globl	Mode_Decision_for_new_Intra8x8Macroblock.4
	.p2align	4, 0x90
	.type	Mode_Decision_for_new_Intra8x8Macroblock.4,@function
Mode_Decision_for_new_Intra8x8Macroblock.4: # @Mode_Decision_for_new_Intra8x8Macroblock.4
	.cfi_startproc
# %bb.0:                                # %entry
	pushq	%rbp
	.cfi_def_cfa_offset 16
	.cfi_offset %rbp, -16
	movq	%rsp, %rbp
	.cfi_def_cfa_register %rbp
	pushq	%rbx
	subq	$40, %rsp
	.cfi_offset %rbx, -24
	vmovsd	.LCPI9_0(%rip), %xmm1   # xmm1 = mem[0],zero
	vmovsd	.LCPI9_1(%rip), %xmm2   # xmm2 = mem[0],zero
	movl	$377144364, -24(%rbp)   # imm = 0x167AC42C
	vmovsd	%xmm0, -32(%rbp)
	movq	%rdi, -40(%rbp)
	movl	$0, -16(%rbp)
	vmulsd	-32(%rbp), %xmm2, %xmm0
	vaddsd	%xmm1, %xmm0, %xmm0
	vroundsd	$9, %xmm0, %xmm0, %xmm0
	vcvttsd2si	%xmm0, %eax
	movq	-40(%rbp), %rcx
	movl	%eax, (%rcx)
	movl	$0, -12(%rbp)
.LBB9_1:                                # %for.cond
                                        # =>This Inner Loop Header: Depth=1
	cmpl	$4, -12(%rbp)
	jge	.LBB9_6
# %bb.2:                                # %for.body
                                        #   in Loop: Header=BB9_1 Depth=1
	movl	-12(%rbp), %edi
	vmovsd	-32(%rbp), %xmm0        # xmm0 = mem[0],zero
	leaq	-20(%rbp), %rsi
	callq	Mode_Decision_for_new_8x8IntraBlocks
	cmpl	$0, %eax
	je	.LBB9_4
# %bb.3:                                # %if.then
                                        #   in Loop: Header=BB9_1 Depth=1
	movl	-12(%rbp), %ecx
                                        # kill: def $cl killed $ecx
	movl	$1, %eax
	shll	%cl, %eax
	orl	-16(%rbp), %eax
	movl	%eax, -16(%rbp)
.LBB9_4:                                # %if.end
                                        #   in Loop: Header=BB9_1 Depth=1
	movl	-20(%rbp), %eax
	movq	-40(%rbp), %rcx
	addl	(%rcx), %eax
	movl	%eax, (%rcx)
# %bb.5:                                # %for.inc
                                        #   in Loop: Header=BB9_1 Depth=1
	movl	-12(%rbp), %eax
	addl	$1, %eax
	movl	%eax, -12(%rbp)
	jmp	.LBB9_1
.LBB9_6:                                # %for.end
	movl	-16(%rbp), %ebx
	cmpl	$377144364, -24(%rbp)   # imm = 0x167AC42C
	jne	.LBB9_8
.LBB9_7:
	movl	%ebx, %eax
	addq	$40, %rsp
	popq	%rbx
	popq	%rbp
	.cfi_def_cfa %rsp, 8
	retq
.LBB9_8:                                # %func_exit
	.cfi_def_cfa %rbp, 16
	callq	detect_breach
	jmp	.LBB9_7
.Lfunc_end9:
	.size	Mode_Decision_for_new_Intra8x8Macroblock.4, .Lfunc_end9-Mode_Decision_for_new_Intra8x8Macroblock.4
	.cfi_endproc
                                        # -- End function
	.globl	intrapred_luma8x8.5     # -- Begin function intrapred_luma8x8.5
	.p2align	4, 0x90
	.type	intrapred_luma8x8.5,@function
intrapred_luma8x8.5:                    # @intrapred_luma8x8.5
	.cfi_startproc
# %bb.0:                                # %entry
	pushq	%rbp
	.cfi_def_cfa_offset 16
	.cfi_offset %rbp, -16
	movq	%rsp, %rbp
	.cfi_def_cfa_register %rbp
	subq	$464, %rsp              # imm = 0x1D0
	movl	$1325382061, -224(%rbp) # imm = 0x4EFFB9AD
	movl	%edi, -212(%rbp)
	movl	%esi, -216(%rbp)
	movq	%rdx, -248(%rbp)
	movq	%rcx, -240(%rbp)
	movq	%r8, -232(%rbp)
	movq	enc_picture, %rax
	movq	6424(%rax), %rax
	movq	%rax, -128(%rbp)
	movl	-212(%rbp), %eax
	andl	$15, %eax
	movl	%eax, -144(%rbp)
	movl	-216(%rbp), %eax
	andl	$15, %eax
	movl	%eax, -152(%rbp)
	movq	img, %rax
	movl	12(%rax), %eax
	movl	%eax, -156(%rbp)
	movl	$0, -4(%rbp)
.LBB10_1:                               # %for.cond
                                        # =>This Inner Loop Header: Depth=1
	cmpl	$8, -4(%rbp)
	jge	.LBB10_4
# %bb.2:                                # %for.body
                                        #   in Loop: Header=BB10_1 Depth=1
	movl	-156(%rbp), %edi
	movl	-144(%rbp), %esi
	subl	$1, %esi
	movl	-152(%rbp), %edx
	addl	-4(%rbp), %edx
	movslq	-4(%rbp), %rax
	imulq	$24, %rax, %rax
	leaq	-464(%rbp), %r8
	addq	%rax, %r8
	movl	$1, %ecx
	callq	getNeighbour
# %bb.3:                                # %for.inc
                                        #   in Loop: Header=BB10_1 Depth=1
	movl	-4(%rbp), %eax
	addl	$1, %eax
	movl	%eax, -4(%rbp)
	jmp	.LBB10_1
.LBB10_4:                               # %for.end
	movl	-156(%rbp), %edi
	movl	-144(%rbp), %esi
	movl	-152(%rbp), %edx
	subl	$1, %edx
	movl	$1, %ecx
	leaq	-208(%rbp), %r8
	callq	getNeighbour
	movl	-156(%rbp), %edi
	movl	-144(%rbp), %esi
	addl	$8, %esi
	movl	-152(%rbp), %edx
	subl	$1, %edx
	movl	$1, %ecx
	leaq	-184(%rbp), %r8
	callq	getNeighbour
	movl	-156(%rbp), %edi
	movl	-144(%rbp), %esi
	subl	$1, %esi
	movl	-152(%rbp), %edx
	subl	$1, %edx
	movl	$1, %ecx
	leaq	-272(%rbp), %r8
	callq	getNeighbour
	xorl	%eax, %eax
	cmpl	$0, -184(%rbp)
	je	.LBB10_8
# %bb.5:                                # %land.rhs
	xorl	%eax, %eax
	cmpl	$8, -144(%rbp)
	jne	.LBB10_7
# %bb.6:                                # %land.rhs9
	cmpl	$8, -152(%rbp)
	sete	%al
.LBB10_7:                               # %land.end
	xorb	$-1, %al
.LBB10_8:                               # %land.end11
	andb	$1, %al
	movzbl	%al, %eax
	movl	%eax, -184(%rbp)
	movq	input, %rax
	cmpl	$0, 216(%rax)
	je	.LBB10_26
# %bb.9:                                # %if.then
	movl	$0, -4(%rbp)
	movl	$1, -116(%rbp)
.LBB10_10:                              # %for.cond14
                                        # =>This Inner Loop Header: Depth=1
	cmpl	$8, -4(%rbp)
	jge	.LBB10_16
# %bb.11:                               # %for.body16
                                        #   in Loop: Header=BB10_10 Depth=1
	movslq	-4(%rbp), %rax
	imulq	$24, %rax, %rax
	leaq	-464(%rbp), %rcx
	addq	%rax, %rcx
	cmpl	$0, (%rcx)
	je	.LBB10_13
# %bb.12:                               # %cond.true
                                        #   in Loop: Header=BB10_10 Depth=1
	movq	img, %rax
	movq	71784(%rax), %rax
	movslq	-4(%rbp), %rcx
	imulq	$24, %rcx, %rcx
	leaq	-464(%rbp), %rdx
	addq	%rcx, %rdx
	movslq	4(%rdx), %rcx
	movl	(%rax,%rcx,4), %eax
	jmp	.LBB10_14
.LBB10_13:                              # %cond.false
                                        #   in Loop: Header=BB10_10 Depth=1
	xorl	%eax, %eax
	jmp	.LBB10_14
.LBB10_14:                              # %cond.end
                                        #   in Loop: Header=BB10_10 Depth=1
	andl	-116(%rbp), %eax
	movl	%eax, -116(%rbp)
# %bb.15:                               # %for.inc26
                                        #   in Loop: Header=BB10_10 Depth=1
	movl	-4(%rbp), %eax
	addl	$1, %eax
	movl	%eax, -4(%rbp)
	jmp	.LBB10_10
.LBB10_16:                              # %for.end28
	cmpl	$0, -208(%rbp)
	je	.LBB10_18
# %bb.17:                               # %cond.true31
	movq	img, %rax
	movq	71784(%rax), %rax
	movslq	-204(%rbp), %rcx
	movl	(%rax,%rcx,4), %eax
	jmp	.LBB10_19
.LBB10_18:                              # %cond.false36
	xorl	%eax, %eax
	jmp	.LBB10_19
.LBB10_19:                              # %cond.end37
	movl	%eax, -132(%rbp)
	cmpl	$0, -184(%rbp)
	je	.LBB10_21
# %bb.20:                               # %cond.true41
	movq	img, %rax
	movq	71784(%rax), %rax
	movslq	-180(%rbp), %rcx
	movl	(%rax,%rcx,4), %eax
	jmp	.LBB10_22
.LBB10_21:                              # %cond.false46
	xorl	%eax, %eax
	jmp	.LBB10_22
.LBB10_22:                              # %cond.end47
	movl	%eax, -220(%rbp)
	cmpl	$0, -272(%rbp)
	je	.LBB10_24
# %bb.23:                               # %cond.true51
	movq	img, %rax
	movq	71784(%rax), %rax
	movslq	-268(%rbp), %rcx
	movl	(%rax,%rcx,4), %eax
	jmp	.LBB10_25
.LBB10_24:                              # %cond.false56
	xorl	%eax, %eax
	jmp	.LBB10_25
.LBB10_25:                              # %cond.end57
	movl	%eax, -140(%rbp)
	jmp	.LBB10_27
.LBB10_26:                              # %if.else
	movl	-464(%rbp), %eax
	movl	%eax, -116(%rbp)
	movl	-208(%rbp), %eax
	movl	%eax, -132(%rbp)
	movl	-184(%rbp), %eax
	movl	%eax, -220(%rbp)
	movl	-272(%rbp), %eax
	movl	%eax, -140(%rbp)
.LBB10_27:                              # %if.end
	xorl	%eax, %eax
	movl	-116(%rbp), %ecx
	movq	-248(%rbp), %rdx
	movl	%ecx, (%rdx)
	movl	-132(%rbp), %ecx
	movq	-240(%rbp), %rdx
	movl	%ecx, (%rdx)
	cmpl	$0, -132(%rbp)
	je	.LBB10_30
# %bb.28:                               # %land.lhs.true
	xorl	%eax, %eax
	cmpl	$0, -116(%rbp)
	je	.LBB10_30
# %bb.29:                               # %land.rhs66
	cmpl	$0, -140(%rbp)
	setne	%al
.LBB10_30:                              # %land.end68
	andb	$1, %al
	movzbl	%al, %eax
	movq	-232(%rbp), %rcx
	movl	%eax, (%rcx)
	movl	-212(%rbp), %eax
	andl	$15, %eax
	movl	%eax, -4(%rbp)
	movl	-216(%rbp), %eax
	andl	$15, %eax
	movl	%eax, -148(%rbp)
	cmpl	$0, -132(%rbp)
	je	.LBB10_32
# %bb.31:                               # %if.then73
	movq	-128(%rbp), %rax
	movslq	-188(%rbp), %rcx
	movq	(%rax,%rcx,8), %rax
	movl	-192(%rbp), %ecx
	addl	$0, %ecx
	movslq	%ecx, %rcx
	movzwl	(%rax,%rcx,2), %eax
	movl	%eax, -108(%rbp)
	movq	-128(%rbp), %rax
	movslq	-188(%rbp), %rcx
	movq	(%rax,%rcx,8), %rax
	movl	-192(%rbp), %ecx
	addl	$1, %ecx
	movslq	%ecx, %rcx
	movzwl	(%rax,%rcx,2), %eax
	movl	%eax, -104(%rbp)
	movq	-128(%rbp), %rax
	movslq	-188(%rbp), %rcx
	movq	(%rax,%rcx,8), %rax
	movl	-192(%rbp), %ecx
	addl	$2, %ecx
	movslq	%ecx, %rcx
	movzwl	(%rax,%rcx,2), %eax
	movl	%eax, -100(%rbp)
	movq	-128(%rbp), %rax
	movslq	-188(%rbp), %rcx
	movq	(%rax,%rcx,8), %rax
	movl	-192(%rbp), %ecx
	addl	$3, %ecx
	movslq	%ecx, %rcx
	movzwl	(%rax,%rcx,2), %eax
	movl	%eax, -96(%rbp)
	movq	-128(%rbp), %rax
	movslq	-188(%rbp), %rcx
	movq	(%rax,%rcx,8), %rax
	movl	-192(%rbp), %ecx
	addl	$4, %ecx
	movslq	%ecx, %rcx
	movzwl	(%rax,%rcx,2), %eax
	movl	%eax, -92(%rbp)
	movq	-128(%rbp), %rax
	movslq	-188(%rbp), %rcx
	movq	(%rax,%rcx,8), %rax
	movl	-192(%rbp), %ecx
	addl	$5, %ecx
	movslq	%ecx, %rcx
	movzwl	(%rax,%rcx,2), %eax
	movl	%eax, -88(%rbp)
	movq	-128(%rbp), %rax
	movslq	-188(%rbp), %rcx
	movq	(%rax,%rcx,8), %rax
	movl	-192(%rbp), %ecx
	addl	$6, %ecx
	movslq	%ecx, %rcx
	movzwl	(%rax,%rcx,2), %eax
	movl	%eax, -84(%rbp)
	movq	-128(%rbp), %rax
	movslq	-188(%rbp), %rcx
	movq	(%rax,%rcx,8), %rax
	movl	-192(%rbp), %ecx
	addl	$7, %ecx
	movslq	%ecx, %rcx
	movzwl	(%rax,%rcx,2), %eax
	movl	%eax, -80(%rbp)
	jmp	.LBB10_33
.LBB10_32:                              # %if.else143
	movq	img, %rax
	movl	72680(%rax), %eax
	movl	%eax, -80(%rbp)
	movl	%eax, -84(%rbp)
	movl	%eax, -88(%rbp)
	movl	%eax, -92(%rbp)
	movl	%eax, -96(%rbp)
	movl	%eax, -100(%rbp)
	movl	%eax, -104(%rbp)
	movl	%eax, -108(%rbp)
.LBB10_33:                              # %if.end152
	cmpl	$0, -220(%rbp)
	je	.LBB10_35
# %bb.34:                               # %if.then154
	movq	-128(%rbp), %rax
	movslq	-164(%rbp), %rcx
	movq	(%rax,%rcx,8), %rax
	movl	-168(%rbp), %ecx
	addl	$0, %ecx
	movslq	%ecx, %rcx
	movzwl	(%rax,%rcx,2), %eax
	movl	%eax, -76(%rbp)
	movq	-128(%rbp), %rax
	movslq	-164(%rbp), %rcx
	movq	(%rax,%rcx,8), %rax
	movl	-168(%rbp), %ecx
	addl	$1, %ecx
	movslq	%ecx, %rcx
	movzwl	(%rax,%rcx,2), %eax
	movl	%eax, -72(%rbp)
	movq	-128(%rbp), %rax
	movslq	-164(%rbp), %rcx
	movq	(%rax,%rcx,8), %rax
	movl	-168(%rbp), %ecx
	addl	$2, %ecx
	movslq	%ecx, %rcx
	movzwl	(%rax,%rcx,2), %eax
	movl	%eax, -68(%rbp)
	movq	-128(%rbp), %rax
	movslq	-164(%rbp), %rcx
	movq	(%rax,%rcx,8), %rax
	movl	-168(%rbp), %ecx
	addl	$3, %ecx
	movslq	%ecx, %rcx
	movzwl	(%rax,%rcx,2), %eax
	movl	%eax, -64(%rbp)
	movq	-128(%rbp), %rax
	movslq	-164(%rbp), %rcx
	movq	(%rax,%rcx,8), %rax
	movl	-168(%rbp), %ecx
	addl	$4, %ecx
	movslq	%ecx, %rcx
	movzwl	(%rax,%rcx,2), %eax
	movl	%eax, -60(%rbp)
	movq	-128(%rbp), %rax
	movslq	-164(%rbp), %rcx
	movq	(%rax,%rcx,8), %rax
	movl	-168(%rbp), %ecx
	addl	$5, %ecx
	movslq	%ecx, %rcx
	movzwl	(%rax,%rcx,2), %eax
	movl	%eax, -56(%rbp)
	movq	-128(%rbp), %rax
	movslq	-164(%rbp), %rcx
	movq	(%rax,%rcx,8), %rax
	movl	-168(%rbp), %ecx
	addl	$6, %ecx
	movslq	%ecx, %rcx
	movzwl	(%rax,%rcx,2), %eax
	movl	%eax, -52(%rbp)
	movq	-128(%rbp), %rax
	movslq	-164(%rbp), %rcx
	movq	(%rax,%rcx,8), %rax
	movl	-168(%rbp), %ecx
	addl	$7, %ecx
	movslq	%ecx, %rcx
	movzwl	(%rax,%rcx,2), %eax
	movl	%eax, -48(%rbp)
	jmp	.LBB10_36
.LBB10_35:                              # %if.else227
	movl	-80(%rbp), %eax
	movl	%eax, -48(%rbp)
	movl	%eax, -52(%rbp)
	movl	%eax, -56(%rbp)
	movl	%eax, -60(%rbp)
	movl	%eax, -64(%rbp)
	movl	%eax, -68(%rbp)
	movl	%eax, -72(%rbp)
	movl	%eax, -76(%rbp)
.LBB10_36:                              # %if.end237
	cmpl	$0, -116(%rbp)
	je	.LBB10_38
# %bb.37:                               # %if.then239
	movq	-128(%rbp), %rax
	movslq	-444(%rbp), %rcx
	movq	(%rax,%rcx,8), %rax
	movslq	-448(%rbp), %rcx
	movzwl	(%rax,%rcx,2), %eax
	movl	%eax, -44(%rbp)
	movq	-128(%rbp), %rax
	movslq	-420(%rbp), %rcx
	movq	(%rax,%rcx,8), %rax
	movslq	-424(%rbp), %rcx
	movzwl	(%rax,%rcx,2), %eax
	movl	%eax, -40(%rbp)
	movq	-128(%rbp), %rax
	movslq	-396(%rbp), %rcx
	movq	(%rax,%rcx,8), %rax
	movslq	-400(%rbp), %rcx
	movzwl	(%rax,%rcx,2), %eax
	movl	%eax, -36(%rbp)
	movq	-128(%rbp), %rax
	movslq	-372(%rbp), %rcx
	movq	(%rax,%rcx,8), %rax
	movslq	-376(%rbp), %rcx
	movzwl	(%rax,%rcx,2), %eax
	movl	%eax, -32(%rbp)
	movq	-128(%rbp), %rax
	movslq	-348(%rbp), %rcx
	movq	(%rax,%rcx,8), %rax
	movslq	-352(%rbp), %rcx
	movzwl	(%rax,%rcx,2), %eax
	movl	%eax, -28(%rbp)
	movq	-128(%rbp), %rax
	movslq	-324(%rbp), %rcx
	movq	(%rax,%rcx,8), %rax
	movslq	-328(%rbp), %rcx
	movzwl	(%rax,%rcx,2), %eax
	movl	%eax, -24(%rbp)
	movq	-128(%rbp), %rax
	movslq	-300(%rbp), %rcx
	movq	(%rax,%rcx,8), %rax
	movslq	-304(%rbp), %rcx
	movzwl	(%rax,%rcx,2), %eax
	movl	%eax, -20(%rbp)
	movq	-128(%rbp), %rax
	movslq	-276(%rbp), %rcx
	movq	(%rax,%rcx,8), %rax
	movslq	-280(%rbp), %rcx
	movzwl	(%rax,%rcx,2), %eax
	movl	%eax, -16(%rbp)
	jmp	.LBB10_39
.LBB10_38:                              # %if.else320
	movq	img, %rax
	movl	72680(%rax), %eax
	movl	%eax, -16(%rbp)
	movl	%eax, -20(%rbp)
	movl	%eax, -24(%rbp)
	movl	%eax, -28(%rbp)
	movl	%eax, -32(%rbp)
	movl	%eax, -36(%rbp)
	movl	%eax, -40(%rbp)
	movl	%eax, -44(%rbp)
.LBB10_39:                              # %if.end330
	cmpl	$0, -140(%rbp)
	je	.LBB10_41
# %bb.40:                               # %if.then332
	movq	-128(%rbp), %rax
	movslq	-252(%rbp), %rcx
	movq	(%rax,%rcx,8), %rax
	movslq	-256(%rbp), %rcx
	movzwl	(%rax,%rcx,2), %eax
	movl	%eax, -112(%rbp)
	jmp	.LBB10_42
.LBB10_41:                              # %if.else341
	movq	img, %rax
	movl	72680(%rax), %eax
	movl	%eax, -112(%rbp)
.LBB10_42:                              # %if.end344
	movl	$0, -4(%rbp)
.LBB10_43:                              # %for.cond345
                                        # =>This Inner Loop Header: Depth=1
	cmpl	$9, -4(%rbp)
	jge	.LBB10_46
# %bb.44:                               # %for.body348
                                        #   in Loop: Header=BB10_43 Depth=1
	movq	img, %rax
	addq	$7352, %rax             # imm = 0x1CB8
	movslq	-4(%rbp), %rcx
	shlq	$7, %rcx
	addq	%rcx, %rax
	movw	$-1, (%rax)
# %bb.45:                               # %for.inc353
                                        #   in Loop: Header=BB10_43 Depth=1
	movl	-4(%rbp), %eax
	addl	$1, %eax
	movl	%eax, -4(%rbp)
	jmp	.LBB10_43
.LBB10_46:                              # %for.end355
	leaq	-112(%rbp), %rdi
	movl	-140(%rbp), %esi
	movl	-132(%rbp), %edx
	movl	-116(%rbp), %ecx
	callq	LowPassForIntra8x8Pred
	movl	$0, -136(%rbp)
	cmpl	$0, -132(%rbp)
	je	.LBB10_49
# %bb.47:                               # %land.lhs.true358
	cmpl	$0, -116(%rbp)
	je	.LBB10_49
# %bb.48:                               # %if.then360
	movl	-108(%rbp), %eax
	addl	-104(%rbp), %eax
	addl	-100(%rbp), %eax
	addl	-96(%rbp), %eax
	addl	-92(%rbp), %eax
	addl	-88(%rbp), %eax
	addl	-84(%rbp), %eax
	addl	-80(%rbp), %eax
	addl	-44(%rbp), %eax
	addl	-40(%rbp), %eax
	addl	-36(%rbp), %eax
	addl	-32(%rbp), %eax
	addl	-28(%rbp), %eax
	addl	-24(%rbp), %eax
	addl	-20(%rbp), %eax
	addl	-16(%rbp), %eax
	addl	$8, %eax
	sarl	$4, %eax
	movl	%eax, -136(%rbp)
	jmp	.LBB10_58
.LBB10_49:                              # %if.else393
	cmpl	$0, -132(%rbp)
	jne	.LBB10_52
# %bb.50:                               # %land.lhs.true395
	cmpl	$0, -116(%rbp)
	je	.LBB10_52
# %bb.51:                               # %if.then397
	movl	-44(%rbp), %eax
	addl	-40(%rbp), %eax
	addl	-36(%rbp), %eax
	addl	-32(%rbp), %eax
	addl	-28(%rbp), %eax
	addl	-24(%rbp), %eax
	addl	-20(%rbp), %eax
	addl	-16(%rbp), %eax
	addl	$4, %eax
	sarl	$3, %eax
	movl	%eax, -136(%rbp)
	jmp	.LBB10_57
.LBB10_52:                              # %if.else415
	cmpl	$0, -132(%rbp)
	je	.LBB10_55
# %bb.53:                               # %land.lhs.true417
	cmpl	$0, -116(%rbp)
	jne	.LBB10_55
# %bb.54:                               # %if.then419
	movl	-108(%rbp), %eax
	addl	-104(%rbp), %eax
	addl	-100(%rbp), %eax
	addl	-96(%rbp), %eax
	addl	-92(%rbp), %eax
	addl	-88(%rbp), %eax
	addl	-84(%rbp), %eax
	addl	-80(%rbp), %eax
	addl	$4, %eax
	sarl	$3, %eax
	movl	%eax, -136(%rbp)
	jmp	.LBB10_56
.LBB10_55:                              # %if.else437
	movq	img, %rax
	movl	72680(%rax), %eax
	movl	%eax, -136(%rbp)
.LBB10_56:                              # %if.end439
	jmp	.LBB10_57
.LBB10_57:                              # %if.end440
	jmp	.LBB10_58
.LBB10_58:                              # %if.end441
	movl	$0, -148(%rbp)
.LBB10_59:                              # %for.cond442
                                        # =>This Loop Header: Depth=1
                                        #     Child Loop BB10_61 Depth 2
	cmpl	$8, -148(%rbp)
	jge	.LBB10_66
# %bb.60:                               # %for.body445
                                        #   in Loop: Header=BB10_59 Depth=1
	movl	$0, -4(%rbp)
.LBB10_61:                              # %for.cond446
                                        #   Parent Loop BB10_59 Depth=1
                                        # =>  This Inner Loop Header: Depth=2
	cmpl	$8, -4(%rbp)
	jge	.LBB10_64
# %bb.62:                               # %for.body449
                                        #   in Loop: Header=BB10_61 Depth=2
	movl	-136(%rbp), %eax
	movq	img, %rcx
	addq	$7352, %rcx             # imm = 0x1CB8
	addq	$256, %rcx              # imm = 0x100
	movslq	-4(%rbp), %rdx
	shlq	$4, %rdx
	addq	%rdx, %rcx
	movslq	-148(%rbp), %rdx
	movw	%ax, (%rcx,%rdx,2)
# %bb.63:                               # %for.inc457
                                        #   in Loop: Header=BB10_61 Depth=2
	movl	-4(%rbp), %eax
	addl	$1, %eax
	movl	%eax, -4(%rbp)
	jmp	.LBB10_61
.LBB10_64:                              # %for.end459
                                        #   in Loop: Header=BB10_59 Depth=1
	jmp	.LBB10_65
.LBB10_65:                              # %for.inc460
                                        #   in Loop: Header=BB10_59 Depth=1
	movl	-148(%rbp), %eax
	addl	$1, %eax
	movl	%eax, -148(%rbp)
	jmp	.LBB10_59
.LBB10_66:                              # %for.end462
	movl	$0, -4(%rbp)
.LBB10_67:                              # %for.cond463
                                        # =>This Inner Loop Header: Depth=1
	cmpl	$8, -4(%rbp)
	jge	.LBB10_70
# %bb.68:                               # %for.body466
                                        #   in Loop: Header=BB10_67 Depth=1
	movslq	-4(%rbp), %rax
	movl	-108(%rbp,%rax,4), %eax
	movq	img, %rcx
	movslq	-4(%rbp), %rdx
	movw	%ax, 7464(%rcx,%rdx,2)
	movq	img, %rcx
	movslq	-4(%rbp), %rdx
	movw	%ax, 7448(%rcx,%rdx,2)
	movq	img, %rcx
	movslq	-4(%rbp), %rdx
	movw	%ax, 7432(%rcx,%rdx,2)
	movq	img, %rcx
	movslq	-4(%rbp), %rdx
	movw	%ax, 7416(%rcx,%rdx,2)
	movq	img, %rcx
	movslq	-4(%rbp), %rdx
	movw	%ax, 7400(%rcx,%rdx,2)
	movq	img, %rcx
	movslq	-4(%rbp), %rdx
	movw	%ax, 7384(%rcx,%rdx,2)
	movq	img, %rcx
	movslq	-4(%rbp), %rdx
	movw	%ax, 7368(%rcx,%rdx,2)
	movq	img, %rcx
	movslq	-4(%rbp), %rdx
	movw	%ax, 7352(%rcx,%rdx,2)
	movslq	-4(%rbp), %rax
	movl	-44(%rbp,%rax,4), %eax
	movq	img, %rcx
	addq	$7352, %rcx             # imm = 0x1CB8
	addq	$128, %rcx
	movslq	-4(%rbp), %rdx
	shlq	$4, %rdx
	addq	%rdx, %rcx
	movw	%ax, 14(%rcx)
	movq	img, %rcx
	addq	$7352, %rcx             # imm = 0x1CB8
	addq	$128, %rcx
	movslq	-4(%rbp), %rdx
	shlq	$4, %rdx
	addq	%rdx, %rcx
	movw	%ax, 12(%rcx)
	movq	img, %rcx
	addq	$7352, %rcx             # imm = 0x1CB8
	addq	$128, %rcx
	movslq	-4(%rbp), %rdx
	shlq	$4, %rdx
	addq	%rdx, %rcx
	movw	%ax, 10(%rcx)
	movq	img, %rcx
	addq	$7352, %rcx             # imm = 0x1CB8
	addq	$128, %rcx
	movslq	-4(%rbp), %rdx
	shlq	$4, %rdx
	addq	%rdx, %rcx
	movw	%ax, 8(%rcx)
	movq	img, %rcx
	addq	$7352, %rcx             # imm = 0x1CB8
	addq	$128, %rcx
	movslq	-4(%rbp), %rdx
	shlq	$4, %rdx
	addq	%rdx, %rcx
	movw	%ax, 6(%rcx)
	movq	img, %rcx
	addq	$7352, %rcx             # imm = 0x1CB8
	addq	$128, %rcx
	movslq	-4(%rbp), %rdx
	shlq	$4, %rdx
	addq	%rdx, %rcx
	movw	%ax, 4(%rcx)
	movq	img, %rcx
	addq	$7352, %rcx             # imm = 0x1CB8
	addq	$128, %rcx
	movslq	-4(%rbp), %rdx
	shlq	$4, %rdx
	addq	%rdx, %rcx
	movw	%ax, 2(%rcx)
	movq	img, %rcx
	addq	$7352, %rcx             # imm = 0x1CB8
	addq	$128, %rcx
	movslq	-4(%rbp), %rdx
	shlq	$4, %rdx
	addq	%rdx, %rcx
	movw	%ax, (%rcx)
# %bb.69:                               # %for.inc555
                                        #   in Loop: Header=BB10_67 Depth=1
	movl	-4(%rbp), %eax
	addl	$1, %eax
	movl	%eax, -4(%rbp)
	jmp	.LBB10_67
.LBB10_70:                              # %for.end557
	cmpl	$0, -132(%rbp)
	jne	.LBB10_72
# %bb.71:                               # %if.then559
	movq	img, %rax
	movw	$-1, 7352(%rax)
.LBB10_72:                              # %if.end564
	cmpl	$0, -116(%rbp)
	jne	.LBB10_74
# %bb.73:                               # %if.then566
	movq	img, %rax
	movw	$-1, 7480(%rax)
.LBB10_74:                              # %if.end571
	cmpl	$0, -132(%rbp)
	je	.LBB10_76
# %bb.75:                               # %if.then573
	movl	-108(%rbp), %eax
	addl	-100(%rbp), %eax
	movl	-104(%rbp), %ecx
	shll	$1, %ecx
	addl	%ecx, %eax
	addl	$2, %eax
	sarl	$2, %eax
	movq	img, %rcx
	movw	%ax, 7736(%rcx)
	movl	-104(%rbp), %eax
	addl	-96(%rbp), %eax
	movl	-100(%rbp), %ecx
	shll	$1, %ecx
	addl	%ecx, %eax
	addl	$2, %eax
	sarl	$2, %eax
	movq	img, %rcx
	movw	%ax, 7752(%rcx)
	movq	img, %rcx
	movw	%ax, 7738(%rcx)
	movl	-100(%rbp), %eax
	addl	-92(%rbp), %eax
	movl	-96(%rbp), %ecx
	shll	$1, %ecx
	addl	%ecx, %eax
	addl	$2, %eax
	sarl	$2, %eax
	movq	img, %rcx
	movw	%ax, 7768(%rcx)
	movq	img, %rcx
	movw	%ax, 7754(%rcx)
	movq	img, %rcx
	movw	%ax, 7740(%rcx)
	movl	-96(%rbp), %eax
	addl	-88(%rbp), %eax
	movl	-92(%rbp), %ecx
	shll	$1, %ecx
	addl	%ecx, %eax
	addl	$2, %eax
	sarl	$2, %eax
	movq	img, %rcx
	movw	%ax, 7784(%rcx)
	movq	img, %rcx
	movw	%ax, 7770(%rcx)
	movq	img, %rcx
	movw	%ax, 7756(%rcx)
	movq	img, %rcx
	movw	%ax, 7742(%rcx)
	movl	-92(%rbp), %eax
	addl	-84(%rbp), %eax
	movl	-88(%rbp), %ecx
	shll	$1, %ecx
	addl	%ecx, %eax
	addl	$2, %eax
	sarl	$2, %eax
	movq	img, %rcx
	movw	%ax, 7800(%rcx)
	movq	img, %rcx
	movw	%ax, 7786(%rcx)
	movq	img, %rcx
	movw	%ax, 7772(%rcx)
	movq	img, %rcx
	movw	%ax, 7758(%rcx)
	movq	img, %rcx
	movw	%ax, 7744(%rcx)
	movl	-88(%rbp), %eax
	addl	-80(%rbp), %eax
	movl	-84(%rbp), %ecx
	shll	$1, %ecx
	addl	%ecx, %eax
	addl	$2, %eax
	sarl	$2, %eax
	movq	img, %rcx
	movw	%ax, 7816(%rcx)
	movq	img, %rcx
	movw	%ax, 7802(%rcx)
	movq	img, %rcx
	movw	%ax, 7788(%rcx)
	movq	img, %rcx
	movw	%ax, 7774(%rcx)
	movq	img, %rcx
	movw	%ax, 7760(%rcx)
	movq	img, %rcx
	movw	%ax, 7746(%rcx)
	movl	-84(%rbp), %eax
	addl	-76(%rbp), %eax
	movl	-80(%rbp), %ecx
	shll	$1, %ecx
	addl	%ecx, %eax
	addl	$2, %eax
	sarl	$2, %eax
	movq	img, %rcx
	movw	%ax, 7832(%rcx)
	movq	img, %rcx
	movw	%ax, 7818(%rcx)
	movq	img, %rcx
	movw	%ax, 7804(%rcx)
	movq	img, %rcx
	movw	%ax, 7790(%rcx)
	movq	img, %rcx
	movw	%ax, 7776(%rcx)
	movq	img, %rcx
	movw	%ax, 7762(%rcx)
	movq	img, %rcx
	movw	%ax, 7748(%rcx)
	movl	-80(%rbp), %eax
	addl	-72(%rbp), %eax
	movl	-76(%rbp), %ecx
	shll	$1, %ecx
	addl	%ecx, %eax
	addl	$2, %eax
	sarl	$2, %eax
	movq	img, %rcx
	movw	%ax, 7848(%rcx)
	movq	img, %rcx
	movw	%ax, 7834(%rcx)
	movq	img, %rcx
	movw	%ax, 7820(%rcx)
	movq	img, %rcx
	movw	%ax, 7806(%rcx)
	movq	img, %rcx
	movw	%ax, 7792(%rcx)
	movq	img, %rcx
	movw	%ax, 7778(%rcx)
	movq	img, %rcx
	movw	%ax, 7764(%rcx)
	movq	img, %rcx
	movw	%ax, 7750(%rcx)
	movl	-76(%rbp), %eax
	addl	-68(%rbp), %eax
	movl	-72(%rbp), %ecx
	shll	$1, %ecx
	addl	%ecx, %eax
	addl	$2, %eax
	sarl	$2, %eax
	movq	img, %rcx
	movw	%ax, 7850(%rcx)
	movq	img, %rcx
	movw	%ax, 7836(%rcx)
	movq	img, %rcx
	movw	%ax, 7822(%rcx)
	movq	img, %rcx
	movw	%ax, 7808(%rcx)
	movq	img, %rcx
	movw	%ax, 7794(%rcx)
	movq	img, %rcx
	movw	%ax, 7780(%rcx)
	movq	img, %rcx
	movw	%ax, 7766(%rcx)
	movl	-72(%rbp), %eax
	addl	-64(%rbp), %eax
	movl	-68(%rbp), %ecx
	shll	$1, %ecx
	addl	%ecx, %eax
	addl	$2, %eax
	sarl	$2, %eax
	movq	img, %rcx
	movw	%ax, 7852(%rcx)
	movq	img, %rcx
	movw	%ax, 7838(%rcx)
	movq	img, %rcx
	movw	%ax, 7824(%rcx)
	movq	img, %rcx
	movw	%ax, 7810(%rcx)
	movq	img, %rcx
	movw	%ax, 7796(%rcx)
	movq	img, %rcx
	movw	%ax, 7782(%rcx)
	movl	-68(%rbp), %eax
	addl	-60(%rbp), %eax
	movl	-64(%rbp), %ecx
	shll	$1, %ecx
	addl	%ecx, %eax
	addl	$2, %eax
	sarl	$2, %eax
	movq	img, %rcx
	movw	%ax, 7854(%rcx)
	movq	img, %rcx
	movw	%ax, 7840(%rcx)
	movq	img, %rcx
	movw	%ax, 7826(%rcx)
	movq	img, %rcx
	movw	%ax, 7812(%rcx)
	movq	img, %rcx
	movw	%ax, 7798(%rcx)
	movl	-64(%rbp), %eax
	addl	-56(%rbp), %eax
	movl	-60(%rbp), %ecx
	shll	$1, %ecx
	addl	%ecx, %eax
	addl	$2, %eax
	sarl	$2, %eax
	movq	img, %rcx
	movw	%ax, 7856(%rcx)
	movq	img, %rcx
	movw	%ax, 7842(%rcx)
	movq	img, %rcx
	movw	%ax, 7828(%rcx)
	movq	img, %rcx
	movw	%ax, 7814(%rcx)
	movl	-60(%rbp), %eax
	addl	-52(%rbp), %eax
	movl	-56(%rbp), %ecx
	shll	$1, %ecx
	addl	%ecx, %eax
	addl	$2, %eax
	sarl	$2, %eax
	movq	img, %rcx
	movw	%ax, 7858(%rcx)
	movq	img, %rcx
	movw	%ax, 7844(%rcx)
	movq	img, %rcx
	movw	%ax, 7830(%rcx)
	movl	-56(%rbp), %eax
	addl	-48(%rbp), %eax
	movl	-52(%rbp), %ecx
	shll	$1, %ecx
	addl	%ecx, %eax
	addl	$2, %eax
	sarl	$2, %eax
	movq	img, %rcx
	movw	%ax, 7860(%rcx)
	movq	img, %rcx
	movw	%ax, 7846(%rcx)
	movl	-52(%rbp), %eax
	imull	$3, -48(%rbp), %ecx
	addl	%ecx, %eax
	addl	$2, %eax
	sarl	$2, %eax
	movq	img, %rcx
	movw	%ax, 7862(%rcx)
	movl	-108(%rbp), %eax
	addl	-104(%rbp), %eax
	addl	$1, %eax
	sarl	$1, %eax
	movq	img, %rcx
	movw	%ax, 8248(%rcx)
	movl	-104(%rbp), %eax
	addl	-100(%rbp), %eax
	addl	$1, %eax
	sarl	$1, %eax
	movq	img, %rcx
	movw	%ax, 8280(%rcx)
	movq	img, %rcx
	movw	%ax, 8250(%rcx)
	movl	-100(%rbp), %eax
	addl	-96(%rbp), %eax
	addl	$1, %eax
	sarl	$1, %eax
	movq	img, %rcx
	movw	%ax, 8312(%rcx)
	movq	img, %rcx
	movw	%ax, 8282(%rcx)
	movq	img, %rcx
	movw	%ax, 8252(%rcx)
	movl	-96(%rbp), %eax
	addl	-92(%rbp), %eax
	addl	$1, %eax
	sarl	$1, %eax
	movq	img, %rcx
	movw	%ax, 8344(%rcx)
	movq	img, %rcx
	movw	%ax, 8314(%rcx)
	movq	img, %rcx
	movw	%ax, 8284(%rcx)
	movq	img, %rcx
	movw	%ax, 8254(%rcx)
	movl	-92(%rbp), %eax
	addl	-88(%rbp), %eax
	addl	$1, %eax
	sarl	$1, %eax
	movq	img, %rcx
	movw	%ax, 8346(%rcx)
	movq	img, %rcx
	movw	%ax, 8316(%rcx)
	movq	img, %rcx
	movw	%ax, 8286(%rcx)
	movq	img, %rcx
	movw	%ax, 8256(%rcx)
	movl	-88(%rbp), %eax
	addl	-84(%rbp), %eax
	addl	$1, %eax
	sarl	$1, %eax
	movq	img, %rcx
	movw	%ax, 8348(%rcx)
	movq	img, %rcx
	movw	%ax, 8318(%rcx)
	movq	img, %rcx
	movw	%ax, 8288(%rcx)
	movq	img, %rcx
	movw	%ax, 8258(%rcx)
	movl	-84(%rbp), %eax
	addl	-80(%rbp), %eax
	addl	$1, %eax
	sarl	$1, %eax
	movq	img, %rcx
	movw	%ax, 8350(%rcx)
	movq	img, %rcx
	movw	%ax, 8320(%rcx)
	movq	img, %rcx
	movw	%ax, 8290(%rcx)
	movq	img, %rcx
	movw	%ax, 8260(%rcx)
	movl	-80(%rbp), %eax
	addl	-76(%rbp), %eax
	addl	$1, %eax
	sarl	$1, %eax
	movq	img, %rcx
	movw	%ax, 8352(%rcx)
	movq	img, %rcx
	movw	%ax, 8322(%rcx)
	movq	img, %rcx
	movw	%ax, 8292(%rcx)
	movq	img, %rcx
	movw	%ax, 8262(%rcx)
	movl	-76(%rbp), %eax
	addl	-72(%rbp), %eax
	addl	$1, %eax
	sarl	$1, %eax
	movq	img, %rcx
	movw	%ax, 8354(%rcx)
	movq	img, %rcx
	movw	%ax, 8324(%rcx)
	movq	img, %rcx
	movw	%ax, 8294(%rcx)
	movl	-72(%rbp), %eax
	addl	-68(%rbp), %eax
	addl	$1, %eax
	sarl	$1, %eax
	movq	img, %rcx
	movw	%ax, 8356(%rcx)
	movq	img, %rcx
	movw	%ax, 8326(%rcx)
	movl	-68(%rbp), %eax
	addl	-64(%rbp), %eax
	addl	$1, %eax
	sarl	$1, %eax
	movq	img, %rcx
	movw	%ax, 8358(%rcx)
	movl	-108(%rbp), %eax
	addl	-100(%rbp), %eax
	movl	-104(%rbp), %ecx
	shll	$1, %ecx
	addl	%ecx, %eax
	addl	$2, %eax
	sarl	$2, %eax
	movq	img, %rcx
	movw	%ax, 8264(%rcx)
	movl	-104(%rbp), %eax
	addl	-96(%rbp), %eax
	movl	-100(%rbp), %ecx
	shll	$1, %ecx
	addl	%ecx, %eax
	addl	$2, %eax
	sarl	$2, %eax
	movq	img, %rcx
	movw	%ax, 8296(%rcx)
	movq	img, %rcx
	movw	%ax, 8266(%rcx)
	movl	-100(%rbp), %eax
	addl	-92(%rbp), %eax
	movl	-96(%rbp), %ecx
	shll	$1, %ecx
	addl	%ecx, %eax
	addl	$2, %eax
	sarl	$2, %eax
	movq	img, %rcx
	movw	%ax, 8328(%rcx)
	movq	img, %rcx
	movw	%ax, 8298(%rcx)
	movq	img, %rcx
	movw	%ax, 8268(%rcx)
	movl	-96(%rbp), %eax
	addl	-88(%rbp), %eax
	movl	-92(%rbp), %ecx
	shll	$1, %ecx
	addl	%ecx, %eax
	addl	$2, %eax
	sarl	$2, %eax
	movq	img, %rcx
	movw	%ax, 8360(%rcx)
	movq	img, %rcx
	movw	%ax, 8330(%rcx)
	movq	img, %rcx
	movw	%ax, 8300(%rcx)
	movq	img, %rcx
	movw	%ax, 8270(%rcx)
	movl	-92(%rbp), %eax
	addl	-84(%rbp), %eax
	movl	-88(%rbp), %ecx
	shll	$1, %ecx
	addl	%ecx, %eax
	addl	$2, %eax
	sarl	$2, %eax
	movq	img, %rcx
	movw	%ax, 8362(%rcx)
	movq	img, %rcx
	movw	%ax, 8332(%rcx)
	movq	img, %rcx
	movw	%ax, 8302(%rcx)
	movq	img, %rcx
	movw	%ax, 8272(%rcx)
	movl	-88(%rbp), %eax
	addl	-80(%rbp), %eax
	movl	-84(%rbp), %ecx
	shll	$1, %ecx
	addl	%ecx, %eax
	addl	$2, %eax
	sarl	$2, %eax
	movq	img, %rcx
	movw	%ax, 8364(%rcx)
	movq	img, %rcx
	movw	%ax, 8334(%rcx)
	movq	img, %rcx
	movw	%ax, 8304(%rcx)
	movq	img, %rcx
	movw	%ax, 8274(%rcx)
	movl	-84(%rbp), %eax
	addl	-76(%rbp), %eax
	movl	-80(%rbp), %ecx
	shll	$1, %ecx
	addl	%ecx, %eax
	addl	$2, %eax
	sarl	$2, %eax
	movq	img, %rcx
	movw	%ax, 8366(%rcx)
	movq	img, %rcx
	movw	%ax, 8336(%rcx)
	movq	img, %rcx
	movw	%ax, 8306(%rcx)
	movq	img, %rcx
	movw	%ax, 8276(%rcx)
	movl	-80(%rbp), %eax
	addl	-72(%rbp), %eax
	movl	-76(%rbp), %ecx
	shll	$1, %ecx
	addl	%ecx, %eax
	addl	$2, %eax
	sarl	$2, %eax
	movq	img, %rcx
	movw	%ax, 8368(%rcx)
	movq	img, %rcx
	movw	%ax, 8338(%rcx)
	movq	img, %rcx
	movw	%ax, 8308(%rcx)
	movq	img, %rcx
	movw	%ax, 8278(%rcx)
	movl	-76(%rbp), %eax
	addl	-68(%rbp), %eax
	movl	-72(%rbp), %ecx
	shll	$1, %ecx
	addl	%ecx, %eax
	addl	$2, %eax
	sarl	$2, %eax
	movq	img, %rcx
	movw	%ax, 8370(%rcx)
	movq	img, %rcx
	movw	%ax, 8340(%rcx)
	movq	img, %rcx
	movw	%ax, 8310(%rcx)
	movl	-72(%rbp), %eax
	addl	-64(%rbp), %eax
	movl	-68(%rbp), %ecx
	shll	$1, %ecx
	addl	%ecx, %eax
	addl	$2, %eax
	sarl	$2, %eax
	movq	img, %rcx
	movw	%ax, 8372(%rcx)
	movq	img, %rcx
	movw	%ax, 8342(%rcx)
	movl	-68(%rbp), %eax
	addl	-60(%rbp), %eax
	movl	-64(%rbp), %ecx
	shll	$1, %ecx
	addl	%ecx, %eax
	addl	$2, %eax
	sarl	$2, %eax
	movq	img, %rcx
	movw	%ax, 8374(%rcx)
.LBB10_76:                              # %if.end1383
	cmpl	$0, -132(%rbp)
	je	.LBB10_80
# %bb.77:                               # %land.lhs.true1385
	cmpl	$0, -116(%rbp)
	je	.LBB10_80
# %bb.78:                               # %land.lhs.true1387
	cmpl	$0, -140(%rbp)
	je	.LBB10_80
# %bb.79:                               # %if.then1389
	movl	-16(%rbp), %eax
	addl	-24(%rbp), %eax
	movl	-20(%rbp), %ecx
	shll	$1, %ecx
	addl	%ecx, %eax
	addl	$2, %eax
	sarl	$2, %eax
	movq	img, %rcx
	movw	%ax, 7976(%rcx)
	movl	-20(%rbp), %eax
	addl	-28(%rbp), %eax
	movl	-24(%rbp), %ecx
	shll	$1, %ecx
	addl	%ecx, %eax
	addl	$2, %eax
	sarl	$2, %eax
	movq	img, %rcx
	movw	%ax, 7978(%rcx)
	movq	img, %rcx
	movw	%ax, 7960(%rcx)
	movl	-24(%rbp), %eax
	addl	-32(%rbp), %eax
	movl	-28(%rbp), %ecx
	shll	$1, %ecx
	addl	%ecx, %eax
	addl	$2, %eax
	sarl	$2, %eax
	movq	img, %rcx
	movw	%ax, 7980(%rcx)
	movq	img, %rcx
	movw	%ax, 7962(%rcx)
	movq	img, %rcx
	movw	%ax, 7944(%rcx)
	movl	-28(%rbp), %eax
	addl	-36(%rbp), %eax
	movl	-32(%rbp), %ecx
	shll	$1, %ecx
	addl	%ecx, %eax
	addl	$2, %eax
	sarl	$2, %eax
	movq	img, %rcx
	movw	%ax, 7982(%rcx)
	movq	img, %rcx
	movw	%ax, 7964(%rcx)
	movq	img, %rcx
	movw	%ax, 7946(%rcx)
	movq	img, %rcx
	movw	%ax, 7928(%rcx)
	movl	-32(%rbp), %eax
	addl	-40(%rbp), %eax
	movl	-36(%rbp), %ecx
	shll	$1, %ecx
	addl	%ecx, %eax
	addl	$2, %eax
	sarl	$2, %eax
	movq	img, %rcx
	movw	%ax, 7984(%rcx)
	movq	img, %rcx
	movw	%ax, 7966(%rcx)
	movq	img, %rcx
	movw	%ax, 7948(%rcx)
	movq	img, %rcx
	movw	%ax, 7930(%rcx)
	movq	img, %rcx
	movw	%ax, 7912(%rcx)
	movl	-36(%rbp), %eax
	addl	-44(%rbp), %eax
	movl	-40(%rbp), %ecx
	shll	$1, %ecx
	addl	%ecx, %eax
	addl	$2, %eax
	sarl	$2, %eax
	movq	img, %rcx
	movw	%ax, 7986(%rcx)
	movq	img, %rcx
	movw	%ax, 7968(%rcx)
	movq	img, %rcx
	movw	%ax, 7950(%rcx)
	movq	img, %rcx
	movw	%ax, 7932(%rcx)
	movq	img, %rcx
	movw	%ax, 7914(%rcx)
	movq	img, %rcx
	movw	%ax, 7896(%rcx)
	movl	-40(%rbp), %eax
	addl	-112(%rbp), %eax
	movl	-44(%rbp), %ecx
	shll	$1, %ecx
	addl	%ecx, %eax
	addl	$2, %eax
	sarl	$2, %eax
	movq	img, %rcx
	movw	%ax, 7988(%rcx)
	movq	img, %rcx
	movw	%ax, 7970(%rcx)
	movq	img, %rcx
	movw	%ax, 7952(%rcx)
	movq	img, %rcx
	movw	%ax, 7934(%rcx)
	movq	img, %rcx
	movw	%ax, 7916(%rcx)
	movq	img, %rcx
	movw	%ax, 7898(%rcx)
	movq	img, %rcx
	movw	%ax, 7880(%rcx)
	movl	-44(%rbp), %eax
	addl	-108(%rbp), %eax
	movl	-112(%rbp), %ecx
	shll	$1, %ecx
	addl	%ecx, %eax
	addl	$2, %eax
	sarl	$2, %eax
	movq	img, %rcx
	movw	%ax, 7990(%rcx)
	movq	img, %rcx
	movw	%ax, 7972(%rcx)
	movq	img, %rcx
	movw	%ax, 7954(%rcx)
	movq	img, %rcx
	movw	%ax, 7936(%rcx)
	movq	img, %rcx
	movw	%ax, 7918(%rcx)
	movq	img, %rcx
	movw	%ax, 7900(%rcx)
	movq	img, %rcx
	movw	%ax, 7882(%rcx)
	movq	img, %rcx
	movw	%ax, 7864(%rcx)
	movl	-112(%rbp), %eax
	addl	-104(%rbp), %eax
	movl	-108(%rbp), %ecx
	shll	$1, %ecx
	addl	%ecx, %eax
	addl	$2, %eax
	sarl	$2, %eax
	movq	img, %rcx
	movw	%ax, 7974(%rcx)
	movq	img, %rcx
	movw	%ax, 7956(%rcx)
	movq	img, %rcx
	movw	%ax, 7938(%rcx)
	movq	img, %rcx
	movw	%ax, 7920(%rcx)
	movq	img, %rcx
	movw	%ax, 7902(%rcx)
	movq	img, %rcx
	movw	%ax, 7884(%rcx)
	movq	img, %rcx
	movw	%ax, 7866(%rcx)
	movl	-108(%rbp), %eax
	addl	-100(%rbp), %eax
	movl	-104(%rbp), %ecx
	shll	$1, %ecx
	addl	%ecx, %eax
	addl	$2, %eax
	sarl	$2, %eax
	movq	img, %rcx
	movw	%ax, 7958(%rcx)
	movq	img, %rcx
	movw	%ax, 7940(%rcx)
	movq	img, %rcx
	movw	%ax, 7922(%rcx)
	movq	img, %rcx
	movw	%ax, 7904(%rcx)
	movq	img, %rcx
	movw	%ax, 7886(%rcx)
	movq	img, %rcx
	movw	%ax, 7868(%rcx)
	movl	-104(%rbp), %eax
	addl	-96(%rbp), %eax
	movl	-100(%rbp), %ecx
	shll	$1, %ecx
	addl	%ecx, %eax
	addl	$2, %eax
	sarl	$2, %eax
	movq	img, %rcx
	movw	%ax, 7942(%rcx)
	movq	img, %rcx
	movw	%ax, 7924(%rcx)
	movq	img, %rcx
	movw	%ax, 7906(%rcx)
	movq	img, %rcx
	movw	%ax, 7888(%rcx)
	movq	img, %rcx
	movw	%ax, 7870(%rcx)
	movl	-100(%rbp), %eax
	addl	-92(%rbp), %eax
	movl	-96(%rbp), %ecx
	shll	$1, %ecx
	addl	%ecx, %eax
	addl	$2, %eax
	sarl	$2, %eax
	movq	img, %rcx
	movw	%ax, 7926(%rcx)
	movq	img, %rcx
	movw	%ax, 7908(%rcx)
	movq	img, %rcx
	movw	%ax, 7890(%rcx)
	movq	img, %rcx
	movw	%ax, 7872(%rcx)
	movl	-96(%rbp), %eax
	addl	-88(%rbp), %eax
	movl	-92(%rbp), %ecx
	shll	$1, %ecx
	addl	%ecx, %eax
	addl	$2, %eax
	sarl	$2, %eax
	movq	img, %rcx
	movw	%ax, 7910(%rcx)
	movq	img, %rcx
	movw	%ax, 7892(%rcx)
	movq	img, %rcx
	movw	%ax, 7874(%rcx)
	movl	-92(%rbp), %eax
	addl	-84(%rbp), %eax
	movl	-88(%rbp), %ecx
	shll	$1, %ecx
	addl	%ecx, %eax
	addl	$2, %eax
	sarl	$2, %eax
	movq	img, %rcx
	movw	%ax, 7894(%rcx)
	movq	img, %rcx
	movw	%ax, 7876(%rcx)
	movl	-88(%rbp), %eax
	addl	-80(%rbp), %eax
	movl	-84(%rbp), %ecx
	shll	$1, %ecx
	addl	%ecx, %eax
	addl	$2, %eax
	sarl	$2, %eax
	movq	img, %rcx
	movw	%ax, 7878(%rcx)
	movl	-112(%rbp), %eax
	addl	-108(%rbp), %eax
	addl	$1, %eax
	sarl	$1, %eax
	movq	img, %rcx
	movw	%ax, 8094(%rcx)
	movq	img, %rcx
	movw	%ax, 8060(%rcx)
	movq	img, %rcx
	movw	%ax, 8026(%rcx)
	movq	img, %rcx
	movw	%ax, 7992(%rcx)
	movl	-108(%rbp), %eax
	addl	-104(%rbp), %eax
	addl	$1, %eax
	sarl	$1, %eax
	movq	img, %rcx
	movw	%ax, 8096(%rcx)
	movq	img, %rcx
	movw	%ax, 8062(%rcx)
	movq	img, %rcx
	movw	%ax, 8028(%rcx)
	movq	img, %rcx
	movw	%ax, 7994(%rcx)
	movl	-104(%rbp), %eax
	addl	-100(%rbp), %eax
	addl	$1, %eax
	sarl	$1, %eax
	movq	img, %rcx
	movw	%ax, 8098(%rcx)
	movq	img, %rcx
	movw	%ax, 8064(%rcx)
	movq	img, %rcx
	movw	%ax, 8030(%rcx)
	movq	img, %rcx
	movw	%ax, 7996(%rcx)
	movl	-100(%rbp), %eax
	addl	-96(%rbp), %eax
	addl	$1, %eax
	sarl	$1, %eax
	movq	img, %rcx
	movw	%ax, 8100(%rcx)
	movq	img, %rcx
	movw	%ax, 8066(%rcx)
	movq	img, %rcx
	movw	%ax, 8032(%rcx)
	movq	img, %rcx
	movw	%ax, 7998(%rcx)
	movl	-96(%rbp), %eax
	addl	-92(%rbp), %eax
	addl	$1, %eax
	sarl	$1, %eax
	movq	img, %rcx
	movw	%ax, 8102(%rcx)
	movq	img, %rcx
	movw	%ax, 8068(%rcx)
	movq	img, %rcx
	movw	%ax, 8034(%rcx)
	movq	img, %rcx
	movw	%ax, 8000(%rcx)
	movl	-92(%rbp), %eax
	addl	-88(%rbp), %eax
	addl	$1, %eax
	sarl	$1, %eax
	movq	img, %rcx
	movw	%ax, 8070(%rcx)
	movq	img, %rcx
	movw	%ax, 8036(%rcx)
	movq	img, %rcx
	movw	%ax, 8002(%rcx)
	movl	-88(%rbp), %eax
	addl	-84(%rbp), %eax
	addl	$1, %eax
	sarl	$1, %eax
	movq	img, %rcx
	movw	%ax, 8038(%rcx)
	movq	img, %rcx
	movw	%ax, 8004(%rcx)
	movl	-84(%rbp), %eax
	addl	-80(%rbp), %eax
	addl	$1, %eax
	sarl	$1, %eax
	movq	img, %rcx
	movw	%ax, 8006(%rcx)
	movl	-44(%rbp), %eax
	addl	-108(%rbp), %eax
	movl	-112(%rbp), %ecx
	shll	$1, %ecx
	addl	%ecx, %eax
	addl	$2, %eax
	sarl	$2, %eax
	movq	img, %rcx
	movw	%ax, 8110(%rcx)
	movq	img, %rcx
	movw	%ax, 8076(%rcx)
	movq	img, %rcx
	movw	%ax, 8042(%rcx)
	movq	img, %rcx
	movw	%ax, 8008(%rcx)
	movl	-112(%rbp), %eax
	addl	-104(%rbp), %eax
	movl	-108(%rbp), %ecx
	shll	$1, %ecx
	addl	%ecx, %eax
	addl	$2, %eax
	sarl	$2, %eax
	movq	img, %rcx
	movw	%ax, 8112(%rcx)
	movq	img, %rcx
	movw	%ax, 8078(%rcx)
	movq	img, %rcx
	movw	%ax, 8044(%rcx)
	movq	img, %rcx
	movw	%ax, 8010(%rcx)
	movl	-108(%rbp), %eax
	addl	-100(%rbp), %eax
	movl	-104(%rbp), %ecx
	shll	$1, %ecx
	addl	%ecx, %eax
	addl	$2, %eax
	sarl	$2, %eax
	movq	img, %rcx
	movw	%ax, 8114(%rcx)
	movq	img, %rcx
	movw	%ax, 8080(%rcx)
	movq	img, %rcx
	movw	%ax, 8046(%rcx)
	movq	img, %rcx
	movw	%ax, 8012(%rcx)
	movl	-104(%rbp), %eax
	addl	-96(%rbp), %eax
	movl	-100(%rbp), %ecx
	shll	$1, %ecx
	addl	%ecx, %eax
	addl	$2, %eax
	sarl	$2, %eax
	movq	img, %rcx
	movw	%ax, 8116(%rcx)
	movq	img, %rcx
	movw	%ax, 8082(%rcx)
	movq	img, %rcx
	movw	%ax, 8048(%rcx)
	movq	img, %rcx
	movw	%ax, 8014(%rcx)
	movl	-100(%rbp), %eax
	addl	-92(%rbp), %eax
	movl	-96(%rbp), %ecx
	shll	$1, %ecx
	addl	%ecx, %eax
	addl	$2, %eax
	sarl	$2, %eax
	movq	img, %rcx
	movw	%ax, 8118(%rcx)
	movq	img, %rcx
	movw	%ax, 8084(%rcx)
	movq	img, %rcx
	movw	%ax, 8050(%rcx)
	movq	img, %rcx
	movw	%ax, 8016(%rcx)
	movl	-96(%rbp), %eax
	addl	-88(%rbp), %eax
	movl	-92(%rbp), %ecx
	shll	$1, %ecx
	addl	%ecx, %eax
	addl	$2, %eax
	sarl	$2, %eax
	movq	img, %rcx
	movw	%ax, 8086(%rcx)
	movq	img, %rcx
	movw	%ax, 8052(%rcx)
	movq	img, %rcx
	movw	%ax, 8018(%rcx)
	movl	-92(%rbp), %eax
	addl	-84(%rbp), %eax
	movl	-88(%rbp), %ecx
	shll	$1, %ecx
	addl	%ecx, %eax
	addl	$2, %eax
	sarl	$2, %eax
	movq	img, %rcx
	movw	%ax, 8054(%rcx)
	movq	img, %rcx
	movw	%ax, 8020(%rcx)
	movl	-88(%rbp), %eax
	addl	-80(%rbp), %eax
	movl	-84(%rbp), %ecx
	shll	$1, %ecx
	addl	%ecx, %eax
	addl	$2, %eax
	sarl	$2, %eax
	movq	img, %rcx
	movw	%ax, 8022(%rcx)
	movl	-40(%rbp), %eax
	addl	-112(%rbp), %eax
	movl	-44(%rbp), %ecx
	shll	$1, %ecx
	addl	%ecx, %eax
	addl	$2, %eax
	sarl	$2, %eax
	movq	img, %rcx
	movw	%ax, 8092(%rcx)
	movq	img, %rcx
	movw	%ax, 8058(%rcx)
	movq	img, %rcx
	movw	%ax, 8024(%rcx)
	movl	-36(%rbp), %eax
	addl	-44(%rbp), %eax
	movl	-40(%rbp), %ecx
	shll	$1, %ecx
	addl	%ecx, %eax
	addl	$2, %eax
	sarl	$2, %eax
	movq	img, %rcx
	movw	%ax, 8108(%rcx)
	movq	img, %rcx
	movw	%ax, 8074(%rcx)
	movq	img, %rcx
	movw	%ax, 8040(%rcx)
	movl	-32(%rbp), %eax
	addl	-40(%rbp), %eax
	movl	-36(%rbp), %ecx
	shll	$1, %ecx
	addl	%ecx, %eax
	addl	$2, %eax
	sarl	$2, %eax
	movq	img, %rcx
	movw	%ax, 8090(%rcx)
	movq	img, %rcx
	movw	%ax, 8056(%rcx)
	movl	-28(%rbp), %eax
	addl	-36(%rbp), %eax
	movl	-32(%rbp), %ecx
	shll	$1, %ecx
	addl	%ecx, %eax
	addl	$2, %eax
	sarl	$2, %eax
	movq	img, %rcx
	movw	%ax, 8106(%rcx)
	movq	img, %rcx
	movw	%ax, 8072(%rcx)
	movl	-24(%rbp), %eax
	addl	-32(%rbp), %eax
	movl	-28(%rbp), %ecx
	shll	$1, %ecx
	addl	%ecx, %eax
	addl	$2, %eax
	sarl	$2, %eax
	movq	img, %rcx
	movw	%ax, 8088(%rcx)
	movl	-20(%rbp), %eax
	addl	-28(%rbp), %eax
	movl	-24(%rbp), %ecx
	shll	$1, %ecx
	addl	%ecx, %eax
	addl	$2, %eax
	sarl	$2, %eax
	movq	img, %rcx
	movw	%ax, 8104(%rcx)
	movl	-44(%rbp), %eax
	addl	-112(%rbp), %eax
	addl	$1, %eax
	sarl	$1, %eax
	movq	img, %rcx
	movw	%ax, 8180(%rcx)
	movq	img, %rcx
	movw	%ax, 8160(%rcx)
	movq	img, %rcx
	movw	%ax, 8140(%rcx)
	movq	img, %rcx
	movw	%ax, 8120(%rcx)
	movl	-40(%rbp), %eax
	addl	-44(%rbp), %eax
	addl	$1, %eax
	sarl	$1, %eax
	movq	img, %rcx
	movw	%ax, 8196(%rcx)
	movq	img, %rcx
	movw	%ax, 8176(%rcx)
	movq	img, %rcx
	movw	%ax, 8156(%rcx)
	movq	img, %rcx
	movw	%ax, 8136(%rcx)
	movl	-36(%rbp), %eax
	addl	-40(%rbp), %eax
	addl	$1, %eax
	sarl	$1, %eax
	movq	img, %rcx
	movw	%ax, 8212(%rcx)
	movq	img, %rcx
	movw	%ax, 8192(%rcx)
	movq	img, %rcx
	movw	%ax, 8172(%rcx)
	movq	img, %rcx
	movw	%ax, 8152(%rcx)
	movl	-32(%rbp), %eax
	addl	-36(%rbp), %eax
	addl	$1, %eax
	sarl	$1, %eax
	movq	img, %rcx
	movw	%ax, 8228(%rcx)
	movq	img, %rcx
	movw	%ax, 8208(%rcx)
	movq	img, %rcx
	movw	%ax, 8188(%rcx)
	movq	img, %rcx
	movw	%ax, 8168(%rcx)
	movl	-28(%rbp), %eax
	addl	-32(%rbp), %eax
	addl	$1, %eax
	sarl	$1, %eax
	movq	img, %rcx
	movw	%ax, 8244(%rcx)
	movq	img, %rcx
	movw	%ax, 8224(%rcx)
	movq	img, %rcx
	movw	%ax, 8204(%rcx)
	movq	img, %rcx
	movw	%ax, 8184(%rcx)
	movl	-24(%rbp), %eax
	addl	-28(%rbp), %eax
	addl	$1, %eax
	sarl	$1, %eax
	movq	img, %rcx
	movw	%ax, 8240(%rcx)
	movq	img, %rcx
	movw	%ax, 8220(%rcx)
	movq	img, %rcx
	movw	%ax, 8200(%rcx)
	movl	-20(%rbp), %eax
	addl	-24(%rbp), %eax
	addl	$1, %eax
	sarl	$1, %eax
	movq	img, %rcx
	movw	%ax, 8236(%rcx)
	movq	img, %rcx
	movw	%ax, 8216(%rcx)
	movl	-16(%rbp), %eax
	addl	-20(%rbp), %eax
	addl	$1, %eax
	sarl	$1, %eax
	movq	img, %rcx
	movw	%ax, 8232(%rcx)
	movl	-44(%rbp), %eax
	addl	-108(%rbp), %eax
	movl	-112(%rbp), %ecx
	shll	$1, %ecx
	addl	%ecx, %eax
	addl	$2, %eax
	sarl	$2, %eax
	movq	img, %rcx
	movw	%ax, 8182(%rcx)
	movq	img, %rcx
	movw	%ax, 8162(%rcx)
	movq	img, %rcx
	movw	%ax, 8142(%rcx)
	movq	img, %rcx
	movw	%ax, 8122(%rcx)
	movl	-112(%rbp), %eax
	addl	-40(%rbp), %eax
	movl	-44(%rbp), %ecx
	shll	$1, %ecx
	addl	%ecx, %eax
	addl	$2, %eax
	sarl	$2, %eax
	movq	img, %rcx
	movw	%ax, 8198(%rcx)
	movq	img, %rcx
	movw	%ax, 8178(%rcx)
	movq	img, %rcx
	movw	%ax, 8158(%rcx)
	movq	img, %rcx
	movw	%ax, 8138(%rcx)
	movl	-44(%rbp), %eax
	addl	-36(%rbp), %eax
	movl	-40(%rbp), %ecx
	shll	$1, %ecx
	addl	%ecx, %eax
	addl	$2, %eax
	sarl	$2, %eax
	movq	img, %rcx
	movw	%ax, 8214(%rcx)
	movq	img, %rcx
	movw	%ax, 8194(%rcx)
	movq	img, %rcx
	movw	%ax, 8174(%rcx)
	movq	img, %rcx
	movw	%ax, 8154(%rcx)
	movl	-40(%rbp), %eax
	addl	-32(%rbp), %eax
	movl	-36(%rbp), %ecx
	shll	$1, %ecx
	addl	%ecx, %eax
	addl	$2, %eax
	sarl	$2, %eax
	movq	img, %rcx
	movw	%ax, 8230(%rcx)
	movq	img, %rcx
	movw	%ax, 8210(%rcx)
	movq	img, %rcx
	movw	%ax, 8190(%rcx)
	movq	img, %rcx
	movw	%ax, 8170(%rcx)
	movl	-36(%rbp), %eax
	addl	-28(%rbp), %eax
	movl	-32(%rbp), %ecx
	shll	$1, %ecx
	addl	%ecx, %eax
	addl	$2, %eax
	sarl	$2, %eax
	movq	img, %rcx
	movw	%ax, 8246(%rcx)
	movq	img, %rcx
	movw	%ax, 8226(%rcx)
	movq	img, %rcx
	movw	%ax, 8206(%rcx)
	movq	img, %rcx
	movw	%ax, 8186(%rcx)
	movl	-32(%rbp), %eax
	addl	-24(%rbp), %eax
	movl	-28(%rbp), %ecx
	shll	$1, %ecx
	addl	%ecx, %eax
	addl	$2, %eax
	sarl	$2, %eax
	movq	img, %rcx
	movw	%ax, 8242(%rcx)
	movq	img, %rcx
	movw	%ax, 8222(%rcx)
	movq	img, %rcx
	movw	%ax, 8202(%rcx)
	movl	-28(%rbp), %eax
	addl	-20(%rbp), %eax
	movl	-24(%rbp), %ecx
	shll	$1, %ecx
	addl	%ecx, %eax
	addl	$2, %eax
	sarl	$2, %eax
	movq	img, %rcx
	movw	%ax, 8238(%rcx)
	movq	img, %rcx
	movw	%ax, 8218(%rcx)
	movl	-24(%rbp), %eax
	addl	-16(%rbp), %eax
	movl	-20(%rbp), %ecx
	shll	$1, %ecx
	addl	%ecx, %eax
	addl	$2, %eax
	sarl	$2, %eax
	movq	img, %rcx
	movw	%ax, 8234(%rcx)
	movl	-112(%rbp), %eax
	addl	-104(%rbp), %eax
	movl	-108(%rbp), %ecx
	shll	$1, %ecx
	addl	%ecx, %eax
	addl	$2, %eax
	sarl	$2, %eax
	movq	img, %rcx
	movw	%ax, 8164(%rcx)
	movq	img, %rcx
	movw	%ax, 8144(%rcx)
	movq	img, %rcx
	movw	%ax, 8124(%rcx)
	movl	-108(%rbp), %eax
	addl	-100(%rbp), %eax
	movl	-104(%rbp), %ecx
	shll	$1, %ecx
	addl	%ecx, %eax
	addl	$2, %eax
	sarl	$2, %eax
	movq	img, %rcx
	movw	%ax, 8166(%rcx)
	movq	img, %rcx
	movw	%ax, 8146(%rcx)
	movq	img, %rcx
	movw	%ax, 8126(%rcx)
	movl	-104(%rbp), %eax
	addl	-96(%rbp), %eax
	movl	-100(%rbp), %ecx
	shll	$1, %ecx
	addl	%ecx, %eax
	addl	$2, %eax
	sarl	$2, %eax
	movq	img, %rcx
	movw	%ax, 8148(%rcx)
	movq	img, %rcx
	movw	%ax, 8128(%rcx)
	movl	-100(%rbp), %eax
	addl	-92(%rbp), %eax
	movl	-96(%rbp), %ecx
	shll	$1, %ecx
	addl	%ecx, %eax
	addl	$2, %eax
	sarl	$2, %eax
	movq	img, %rcx
	movw	%ax, 8150(%rcx)
	movq	img, %rcx
	movw	%ax, 8130(%rcx)
	movl	-96(%rbp), %eax
	addl	-88(%rbp), %eax
	movl	-92(%rbp), %ecx
	shll	$1, %ecx
	addl	%ecx, %eax
	addl	$2, %eax
	sarl	$2, %eax
	movq	img, %rcx
	movw	%ax, 8132(%rcx)
	movl	-92(%rbp), %eax
	addl	-84(%rbp), %eax
	movl	-88(%rbp), %ecx
	shll	$1, %ecx
	addl	%ecx, %eax
	addl	$2, %eax
	sarl	$2, %eax
	movq	img, %rcx
	movw	%ax, 8134(%rcx)
.LBB10_80:                              # %if.end2641
	cmpl	$0, -116(%rbp)
	je	.LBB10_82
# %bb.81:                               # %if.then2643
	movl	-44(%rbp), %eax
	addl	-40(%rbp), %eax
	addl	$1, %eax
	sarl	$1, %eax
	movq	img, %rcx
	movw	%ax, 8376(%rcx)
	movl	-40(%rbp), %eax
	addl	-36(%rbp), %eax
	addl	$1, %eax
	sarl	$1, %eax
	movq	img, %rcx
	movw	%ax, 8380(%rcx)
	movq	img, %rcx
	movw	%ax, 8392(%rcx)
	movl	-36(%rbp), %eax
	addl	-32(%rbp), %eax
	addl	$1, %eax
	sarl	$1, %eax
	movq	img, %rcx
	movw	%ax, 8384(%rcx)
	movq	img, %rcx
	movw	%ax, 8396(%rcx)
	movq	img, %rcx
	movw	%ax, 8408(%rcx)
	movl	-32(%rbp), %eax
	addl	-28(%rbp), %eax
	addl	$1, %eax
	sarl	$1, %eax
	movq	img, %rcx
	movw	%ax, 8388(%rcx)
	movq	img, %rcx
	movw	%ax, 8400(%rcx)
	movq	img, %rcx
	movw	%ax, 8412(%rcx)
	movq	img, %rcx
	movw	%ax, 8424(%rcx)
	movl	-28(%rbp), %eax
	addl	-24(%rbp), %eax
	addl	$1, %eax
	sarl	$1, %eax
	movq	img, %rcx
	movw	%ax, 8404(%rcx)
	movq	img, %rcx
	movw	%ax, 8416(%rcx)
	movq	img, %rcx
	movw	%ax, 8428(%rcx)
	movq	img, %rcx
	movw	%ax, 8440(%rcx)
	movl	-24(%rbp), %eax
	addl	-20(%rbp), %eax
	addl	$1, %eax
	sarl	$1, %eax
	movq	img, %rcx
	movw	%ax, 8420(%rcx)
	movq	img, %rcx
	movw	%ax, 8432(%rcx)
	movq	img, %rcx
	movw	%ax, 8444(%rcx)
	movq	img, %rcx
	movw	%ax, 8456(%rcx)
	movl	-20(%rbp), %eax
	addl	-16(%rbp), %eax
	addl	$1, %eax
	sarl	$1, %eax
	movq	img, %rcx
	movw	%ax, 8436(%rcx)
	movq	img, %rcx
	movw	%ax, 8448(%rcx)
	movq	img, %rcx
	movw	%ax, 8460(%rcx)
	movq	img, %rcx
	movw	%ax, 8472(%rcx)
	movl	-16(%rbp), %eax
	movq	img, %rcx
	movw	%ax, 8502(%rcx)
	movq	img, %rcx
	movw	%ax, 8500(%rcx)
	movq	img, %rcx
	movw	%ax, 8498(%rcx)
	movq	img, %rcx
	movw	%ax, 8496(%rcx)
	movq	img, %rcx
	movw	%ax, 8494(%rcx)
	movq	img, %rcx
	movw	%ax, 8492(%rcx)
	movq	img, %rcx
	movw	%ax, 8490(%rcx)
	movq	img, %rcx
	movw	%ax, 8488(%rcx)
	movq	img, %rcx
	movw	%ax, 8486(%rcx)
	movq	img, %rcx
	movw	%ax, 8484(%rcx)
	movq	img, %rcx
	movw	%ax, 8482(%rcx)
	movq	img, %rcx
	movw	%ax, 8480(%rcx)
	movq	img, %rcx
	movw	%ax, 8478(%rcx)
	movq	img, %rcx
	movw	%ax, 8476(%rcx)
	movq	img, %rcx
	movw	%ax, 8470(%rcx)
	movq	img, %rcx
	movw	%ax, 8468(%rcx)
	movq	img, %rcx
	movw	%ax, 8466(%rcx)
	movq	img, %rcx
	movw	%ax, 8464(%rcx)
	movq	img, %rcx
	movw	%ax, 8454(%rcx)
	movq	img, %rcx
	movw	%ax, 8452(%rcx)
	movl	-20(%rbp), %eax
	imull	$3, -16(%rbp), %ecx
	addl	%ecx, %eax
	addl	$2, %eax
	sarl	$2, %eax
	movq	img, %rcx
	movw	%ax, 8438(%rcx)
	movq	img, %rcx
	movw	%ax, 8450(%rcx)
	movq	img, %rcx
	movw	%ax, 8462(%rcx)
	movq	img, %rcx
	movw	%ax, 8474(%rcx)
	movl	-16(%rbp), %eax
	addl	-24(%rbp), %eax
	movl	-20(%rbp), %ecx
	shll	$1, %ecx
	addl	%ecx, %eax
	addl	$2, %eax
	sarl	$2, %eax
	movq	img, %rcx
	movw	%ax, 8422(%rcx)
	movq	img, %rcx
	movw	%ax, 8434(%rcx)
	movq	img, %rcx
	movw	%ax, 8446(%rcx)
	movq	img, %rcx
	movw	%ax, 8458(%rcx)
	movl	-20(%rbp), %eax
	addl	-28(%rbp), %eax
	movl	-24(%rbp), %ecx
	shll	$1, %ecx
	addl	%ecx, %eax
	addl	$2, %eax
	sarl	$2, %eax
	movq	img, %rcx
	movw	%ax, 8406(%rcx)
	movq	img, %rcx
	movw	%ax, 8418(%rcx)
	movq	img, %rcx
	movw	%ax, 8430(%rcx)
	movq	img, %rcx
	movw	%ax, 8442(%rcx)
	movl	-24(%rbp), %eax
	addl	-32(%rbp), %eax
	movl	-28(%rbp), %ecx
	shll	$1, %ecx
	addl	%ecx, %eax
	addl	$2, %eax
	sarl	$2, %eax
	movq	img, %rcx
	movw	%ax, 8390(%rcx)
	movq	img, %rcx
	movw	%ax, 8402(%rcx)
	movq	img, %rcx
	movw	%ax, 8414(%rcx)
	movq	img, %rcx
	movw	%ax, 8426(%rcx)
	movl	-28(%rbp), %eax
	addl	-36(%rbp), %eax
	movl	-32(%rbp), %ecx
	shll	$1, %ecx
	addl	%ecx, %eax
	addl	$2, %eax
	sarl	$2, %eax
	movq	img, %rcx
	movw	%ax, 8386(%rcx)
	movq	img, %rcx
	movw	%ax, 8398(%rcx)
	movq	img, %rcx
	movw	%ax, 8410(%rcx)
	movl	-32(%rbp), %eax
	addl	-40(%rbp), %eax
	movl	-36(%rbp), %ecx
	shll	$1, %ecx
	addl	%ecx, %eax
	addl	$2, %eax
	sarl	$2, %eax
	movq	img, %rcx
	movw	%ax, 8382(%rcx)
	movq	img, %rcx
	movw	%ax, 8394(%rcx)
	movl	-36(%rbp), %eax
	addl	-44(%rbp), %eax
	movl	-40(%rbp), %ecx
	shll	$1, %ecx
	addl	%ecx, %eax
	addl	$2, %eax
	sarl	$2, %eax
	movq	img, %rcx
	movw	%ax, 8378(%rcx)
.LBB10_82:                              # %if.end3005
	cmpl	$1325382061, -224(%rbp) # imm = 0x4EFFB9AD
	jne	.LBB10_84
.LBB10_83:
	addq	$464, %rsp              # imm = 0x1D0
	popq	%rbp
	.cfi_def_cfa %rsp, 8
	retq
.LBB10_84:                              # %func_exit
	.cfi_def_cfa %rbp, 16
	callq	detect_breach
	jmp	.LBB10_83
.Lfunc_end10:
	.size	intrapred_luma8x8.5, .Lfunc_end10-intrapred_luma8x8.5
	.cfi_endproc
                                        # -- End function
	.globl	intrapred_luma8x8.6     # -- Begin function intrapred_luma8x8.6
	.p2align	4, 0x90
	.type	intrapred_luma8x8.6,@function
intrapred_luma8x8.6:                    # @intrapred_luma8x8.6
	.cfi_startproc
# %bb.0:                                # %entry
	pushq	%rbp
	.cfi_def_cfa_offset 16
	.cfi_offset %rbp, -16
	movq	%rsp, %rbp
	.cfi_def_cfa_register %rbp
	subq	$464, %rsp              # imm = 0x1D0
	movl	$377429699, -224(%rbp)  # imm = 0x167F1EC3
	movl	%edi, -220(%rbp)
	movl	%esi, -212(%rbp)
	movq	%rdx, -272(%rbp)
	movq	%rcx, -232(%rbp)
	movq	%r8, -240(%rbp)
	movq	enc_picture, %rax
	movq	6424(%rax), %rax
	movq	%rax, -128(%rbp)
	movl	-220(%rbp), %eax
	andl	$15, %eax
	movl	%eax, -152(%rbp)
	movl	-212(%rbp), %eax
	andl	$15, %eax
	movl	%eax, -144(%rbp)
	movq	img, %rax
	movl	12(%rax), %eax
	movl	%eax, -156(%rbp)
	movl	$0, -4(%rbp)
.LBB11_1:                               # %for.cond
                                        # =>This Inner Loop Header: Depth=1
	cmpl	$8, -4(%rbp)
	jge	.LBB11_4
# %bb.2:                                # %for.body
                                        #   in Loop: Header=BB11_1 Depth=1
	movl	-156(%rbp), %edi
	movl	-152(%rbp), %esi
	subl	$1, %esi
	movl	-144(%rbp), %edx
	addl	-4(%rbp), %edx
	movslq	-4(%rbp), %rax
	imulq	$24, %rax, %rax
	leaq	-464(%rbp), %r8
	addq	%rax, %r8
	movl	$1, %ecx
	callq	getNeighbour
# %bb.3:                                # %for.inc
                                        #   in Loop: Header=BB11_1 Depth=1
	movl	-4(%rbp), %eax
	addl	$1, %eax
	movl	%eax, -4(%rbp)
	jmp	.LBB11_1
.LBB11_4:                               # %for.end
	movl	-156(%rbp), %edi
	movl	-152(%rbp), %esi
	movl	-144(%rbp), %edx
	subl	$1, %edx
	movl	$1, %ecx
	leaq	-208(%rbp), %r8
	callq	getNeighbour
	movl	-156(%rbp), %edi
	movl	-152(%rbp), %esi
	addl	$8, %esi
	movl	-144(%rbp), %edx
	subl	$1, %edx
	movl	$1, %ecx
	leaq	-184(%rbp), %r8
	callq	getNeighbour
	movl	-156(%rbp), %edi
	movl	-152(%rbp), %esi
	subl	$1, %esi
	movl	-144(%rbp), %edx
	subl	$1, %edx
	movl	$1, %ecx
	leaq	-264(%rbp), %r8
	callq	getNeighbour
	xorl	%eax, %eax
	cmpl	$0, -184(%rbp)
	je	.LBB11_8
# %bb.5:                                # %land.rhs
	xorl	%eax, %eax
	cmpl	$8, -152(%rbp)
	jne	.LBB11_7
# %bb.6:                                # %land.rhs9
	cmpl	$8, -144(%rbp)
	sete	%al
.LBB11_7:                               # %land.end
	xorb	$-1, %al
.LBB11_8:                               # %land.end11
	andb	$1, %al
	movzbl	%al, %eax
	movl	%eax, -184(%rbp)
	movq	input, %rax
	cmpl	$0, 216(%rax)
	je	.LBB11_26
# %bb.9:                                # %if.then
	movl	$0, -4(%rbp)
	movl	$1, -116(%rbp)
.LBB11_10:                              # %for.cond14
                                        # =>This Inner Loop Header: Depth=1
	cmpl	$8, -4(%rbp)
	jge	.LBB11_16
# %bb.11:                               # %for.body16
                                        #   in Loop: Header=BB11_10 Depth=1
	movslq	-4(%rbp), %rax
	imulq	$24, %rax, %rax
	leaq	-464(%rbp), %rcx
	addq	%rax, %rcx
	cmpl	$0, (%rcx)
	je	.LBB11_13
# %bb.12:                               # %cond.true
                                        #   in Loop: Header=BB11_10 Depth=1
	movq	img, %rax
	movq	71784(%rax), %rax
	movslq	-4(%rbp), %rcx
	imulq	$24, %rcx, %rcx
	leaq	-464(%rbp), %rdx
	addq	%rcx, %rdx
	movslq	4(%rdx), %rcx
	movl	(%rax,%rcx,4), %eax
	jmp	.LBB11_14
.LBB11_13:                              # %cond.false
                                        #   in Loop: Header=BB11_10 Depth=1
	xorl	%eax, %eax
	jmp	.LBB11_14
.LBB11_14:                              # %cond.end
                                        #   in Loop: Header=BB11_10 Depth=1
	andl	-116(%rbp), %eax
	movl	%eax, -116(%rbp)
# %bb.15:                               # %for.inc26
                                        #   in Loop: Header=BB11_10 Depth=1
	movl	-4(%rbp), %eax
	addl	$1, %eax
	movl	%eax, -4(%rbp)
	jmp	.LBB11_10
.LBB11_16:                              # %for.end28
	cmpl	$0, -208(%rbp)
	je	.LBB11_18
# %bb.17:                               # %cond.true31
	movq	img, %rax
	movq	71784(%rax), %rax
	movslq	-204(%rbp), %rcx
	movl	(%rax,%rcx,4), %eax
	jmp	.LBB11_19
.LBB11_18:                              # %cond.false36
	xorl	%eax, %eax
	jmp	.LBB11_19
.LBB11_19:                              # %cond.end37
	movl	%eax, -132(%rbp)
	cmpl	$0, -184(%rbp)
	je	.LBB11_21
# %bb.20:                               # %cond.true41
	movq	img, %rax
	movq	71784(%rax), %rax
	movslq	-180(%rbp), %rcx
	movl	(%rax,%rcx,4), %eax
	jmp	.LBB11_22
.LBB11_21:                              # %cond.false46
	xorl	%eax, %eax
	jmp	.LBB11_22
.LBB11_22:                              # %cond.end47
	movl	%eax, -216(%rbp)
	cmpl	$0, -264(%rbp)
	je	.LBB11_24
# %bb.23:                               # %cond.true51
	movq	img, %rax
	movq	71784(%rax), %rax
	movslq	-260(%rbp), %rcx
	movl	(%rax,%rcx,4), %eax
	jmp	.LBB11_25
.LBB11_24:                              # %cond.false56
	xorl	%eax, %eax
	jmp	.LBB11_25
.LBB11_25:                              # %cond.end57
	movl	%eax, -136(%rbp)
	jmp	.LBB11_27
.LBB11_26:                              # %if.else
	movl	-464(%rbp), %eax
	movl	%eax, -116(%rbp)
	movl	-208(%rbp), %eax
	movl	%eax, -132(%rbp)
	movl	-184(%rbp), %eax
	movl	%eax, -216(%rbp)
	movl	-264(%rbp), %eax
	movl	%eax, -136(%rbp)
.LBB11_27:                              # %if.end
	xorl	%eax, %eax
	movl	-116(%rbp), %ecx
	movq	-272(%rbp), %rdx
	movl	%ecx, (%rdx)
	movl	-132(%rbp), %ecx
	movq	-232(%rbp), %rdx
	movl	%ecx, (%rdx)
	cmpl	$0, -132(%rbp)
	je	.LBB11_30
# %bb.28:                               # %land.lhs.true
	xorl	%eax, %eax
	cmpl	$0, -116(%rbp)
	je	.LBB11_30
# %bb.29:                               # %land.rhs66
	cmpl	$0, -136(%rbp)
	setne	%al
.LBB11_30:                              # %land.end68
	andb	$1, %al
	movzbl	%al, %eax
	movq	-240(%rbp), %rcx
	movl	%eax, (%rcx)
	movl	-220(%rbp), %eax
	andl	$15, %eax
	movl	%eax, -4(%rbp)
	movl	-212(%rbp), %eax
	andl	$15, %eax
	movl	%eax, -140(%rbp)
	cmpl	$0, -132(%rbp)
	je	.LBB11_32
# %bb.31:                               # %if.then73
	movq	-128(%rbp), %rax
	movslq	-188(%rbp), %rcx
	movq	(%rax,%rcx,8), %rax
	movl	-192(%rbp), %ecx
	addl	$0, %ecx
	movslq	%ecx, %rcx
	movzwl	(%rax,%rcx,2), %eax
	movl	%eax, -108(%rbp)
	movq	-128(%rbp), %rax
	movslq	-188(%rbp), %rcx
	movq	(%rax,%rcx,8), %rax
	movl	-192(%rbp), %ecx
	addl	$1, %ecx
	movslq	%ecx, %rcx
	movzwl	(%rax,%rcx,2), %eax
	movl	%eax, -104(%rbp)
	movq	-128(%rbp), %rax
	movslq	-188(%rbp), %rcx
	movq	(%rax,%rcx,8), %rax
	movl	-192(%rbp), %ecx
	addl	$2, %ecx
	movslq	%ecx, %rcx
	movzwl	(%rax,%rcx,2), %eax
	movl	%eax, -100(%rbp)
	movq	-128(%rbp), %rax
	movslq	-188(%rbp), %rcx
	movq	(%rax,%rcx,8), %rax
	movl	-192(%rbp), %ecx
	addl	$3, %ecx
	movslq	%ecx, %rcx
	movzwl	(%rax,%rcx,2), %eax
	movl	%eax, -96(%rbp)
	movq	-128(%rbp), %rax
	movslq	-188(%rbp), %rcx
	movq	(%rax,%rcx,8), %rax
	movl	-192(%rbp), %ecx
	addl	$4, %ecx
	movslq	%ecx, %rcx
	movzwl	(%rax,%rcx,2), %eax
	movl	%eax, -92(%rbp)
	movq	-128(%rbp), %rax
	movslq	-188(%rbp), %rcx
	movq	(%rax,%rcx,8), %rax
	movl	-192(%rbp), %ecx
	addl	$5, %ecx
	movslq	%ecx, %rcx
	movzwl	(%rax,%rcx,2), %eax
	movl	%eax, -88(%rbp)
	movq	-128(%rbp), %rax
	movslq	-188(%rbp), %rcx
	movq	(%rax,%rcx,8), %rax
	movl	-192(%rbp), %ecx
	addl	$6, %ecx
	movslq	%ecx, %rcx
	movzwl	(%rax,%rcx,2), %eax
	movl	%eax, -84(%rbp)
	movq	-128(%rbp), %rax
	movslq	-188(%rbp), %rcx
	movq	(%rax,%rcx,8), %rax
	movl	-192(%rbp), %ecx
	addl	$7, %ecx
	movslq	%ecx, %rcx
	movzwl	(%rax,%rcx,2), %eax
	movl	%eax, -80(%rbp)
	jmp	.LBB11_33
.LBB11_32:                              # %if.else143
	movq	img, %rax
	movl	72680(%rax), %eax
	movl	%eax, -80(%rbp)
	movl	%eax, -84(%rbp)
	movl	%eax, -88(%rbp)
	movl	%eax, -92(%rbp)
	movl	%eax, -96(%rbp)
	movl	%eax, -100(%rbp)
	movl	%eax, -104(%rbp)
	movl	%eax, -108(%rbp)
.LBB11_33:                              # %if.end152
	cmpl	$0, -216(%rbp)
	je	.LBB11_35
# %bb.34:                               # %if.then154
	movq	-128(%rbp), %rax
	movslq	-164(%rbp), %rcx
	movq	(%rax,%rcx,8), %rax
	movl	-168(%rbp), %ecx
	addl	$0, %ecx
	movslq	%ecx, %rcx
	movzwl	(%rax,%rcx,2), %eax
	movl	%eax, -76(%rbp)
	movq	-128(%rbp), %rax
	movslq	-164(%rbp), %rcx
	movq	(%rax,%rcx,8), %rax
	movl	-168(%rbp), %ecx
	addl	$1, %ecx
	movslq	%ecx, %rcx
	movzwl	(%rax,%rcx,2), %eax
	movl	%eax, -72(%rbp)
	movq	-128(%rbp), %rax
	movslq	-164(%rbp), %rcx
	movq	(%rax,%rcx,8), %rax
	movl	-168(%rbp), %ecx
	addl	$2, %ecx
	movslq	%ecx, %rcx
	movzwl	(%rax,%rcx,2), %eax
	movl	%eax, -68(%rbp)
	movq	-128(%rbp), %rax
	movslq	-164(%rbp), %rcx
	movq	(%rax,%rcx,8), %rax
	movl	-168(%rbp), %ecx
	addl	$3, %ecx
	movslq	%ecx, %rcx
	movzwl	(%rax,%rcx,2), %eax
	movl	%eax, -64(%rbp)
	movq	-128(%rbp), %rax
	movslq	-164(%rbp), %rcx
	movq	(%rax,%rcx,8), %rax
	movl	-168(%rbp), %ecx
	addl	$4, %ecx
	movslq	%ecx, %rcx
	movzwl	(%rax,%rcx,2), %eax
	movl	%eax, -60(%rbp)
	movq	-128(%rbp), %rax
	movslq	-164(%rbp), %rcx
	movq	(%rax,%rcx,8), %rax
	movl	-168(%rbp), %ecx
	addl	$5, %ecx
	movslq	%ecx, %rcx
	movzwl	(%rax,%rcx,2), %eax
	movl	%eax, -56(%rbp)
	movq	-128(%rbp), %rax
	movslq	-164(%rbp), %rcx
	movq	(%rax,%rcx,8), %rax
	movl	-168(%rbp), %ecx
	addl	$6, %ecx
	movslq	%ecx, %rcx
	movzwl	(%rax,%rcx,2), %eax
	movl	%eax, -52(%rbp)
	movq	-128(%rbp), %rax
	movslq	-164(%rbp), %rcx
	movq	(%rax,%rcx,8), %rax
	movl	-168(%rbp), %ecx
	addl	$7, %ecx
	movslq	%ecx, %rcx
	movzwl	(%rax,%rcx,2), %eax
	movl	%eax, -48(%rbp)
	jmp	.LBB11_36
.LBB11_35:                              # %if.else227
	movl	-80(%rbp), %eax
	movl	%eax, -48(%rbp)
	movl	%eax, -52(%rbp)
	movl	%eax, -56(%rbp)
	movl	%eax, -60(%rbp)
	movl	%eax, -64(%rbp)
	movl	%eax, -68(%rbp)
	movl	%eax, -72(%rbp)
	movl	%eax, -76(%rbp)
.LBB11_36:                              # %if.end237
	cmpl	$0, -116(%rbp)
	je	.LBB11_38
# %bb.37:                               # %if.then239
	movq	-128(%rbp), %rax
	movslq	-444(%rbp), %rcx
	movq	(%rax,%rcx,8), %rax
	movslq	-448(%rbp), %rcx
	movzwl	(%rax,%rcx,2), %eax
	movl	%eax, -44(%rbp)
	movq	-128(%rbp), %rax
	movslq	-420(%rbp), %rcx
	movq	(%rax,%rcx,8), %rax
	movslq	-424(%rbp), %rcx
	movzwl	(%rax,%rcx,2), %eax
	movl	%eax, -40(%rbp)
	movq	-128(%rbp), %rax
	movslq	-396(%rbp), %rcx
	movq	(%rax,%rcx,8), %rax
	movslq	-400(%rbp), %rcx
	movzwl	(%rax,%rcx,2), %eax
	movl	%eax, -36(%rbp)
	movq	-128(%rbp), %rax
	movslq	-372(%rbp), %rcx
	movq	(%rax,%rcx,8), %rax
	movslq	-376(%rbp), %rcx
	movzwl	(%rax,%rcx,2), %eax
	movl	%eax, -32(%rbp)
	movq	-128(%rbp), %rax
	movslq	-348(%rbp), %rcx
	movq	(%rax,%rcx,8), %rax
	movslq	-352(%rbp), %rcx
	movzwl	(%rax,%rcx,2), %eax
	movl	%eax, -28(%rbp)
	movq	-128(%rbp), %rax
	movslq	-324(%rbp), %rcx
	movq	(%rax,%rcx,8), %rax
	movslq	-328(%rbp), %rcx
	movzwl	(%rax,%rcx,2), %eax
	movl	%eax, -24(%rbp)
	movq	-128(%rbp), %rax
	movslq	-300(%rbp), %rcx
	movq	(%rax,%rcx,8), %rax
	movslq	-304(%rbp), %rcx
	movzwl	(%rax,%rcx,2), %eax
	movl	%eax, -20(%rbp)
	movq	-128(%rbp), %rax
	movslq	-276(%rbp), %rcx
	movq	(%rax,%rcx,8), %rax
	movslq	-280(%rbp), %rcx
	movzwl	(%rax,%rcx,2), %eax
	movl	%eax, -16(%rbp)
	jmp	.LBB11_39
.LBB11_38:                              # %if.else320
	movq	img, %rax
	movl	72680(%rax), %eax
	movl	%eax, -16(%rbp)
	movl	%eax, -20(%rbp)
	movl	%eax, -24(%rbp)
	movl	%eax, -28(%rbp)
	movl	%eax, -32(%rbp)
	movl	%eax, -36(%rbp)
	movl	%eax, -40(%rbp)
	movl	%eax, -44(%rbp)
.LBB11_39:                              # %if.end330
	cmpl	$0, -136(%rbp)
	je	.LBB11_41
# %bb.40:                               # %if.then332
	movq	-128(%rbp), %rax
	movslq	-244(%rbp), %rcx
	movq	(%rax,%rcx,8), %rax
	movslq	-248(%rbp), %rcx
	movzwl	(%rax,%rcx,2), %eax
	movl	%eax, -112(%rbp)
	jmp	.LBB11_42
.LBB11_41:                              # %if.else341
	movq	img, %rax
	movl	72680(%rax), %eax
	movl	%eax, -112(%rbp)
.LBB11_42:                              # %if.end344
	movl	$0, -4(%rbp)
.LBB11_43:                              # %for.cond345
                                        # =>This Inner Loop Header: Depth=1
	cmpl	$9, -4(%rbp)
	jge	.LBB11_46
# %bb.44:                               # %for.body348
                                        #   in Loop: Header=BB11_43 Depth=1
	movq	img, %rax
	addq	$7352, %rax             # imm = 0x1CB8
	movslq	-4(%rbp), %rcx
	shlq	$7, %rcx
	addq	%rcx, %rax
	movw	$-1, (%rax)
# %bb.45:                               # %for.inc353
                                        #   in Loop: Header=BB11_43 Depth=1
	movl	-4(%rbp), %eax
	addl	$1, %eax
	movl	%eax, -4(%rbp)
	jmp	.LBB11_43
.LBB11_46:                              # %for.end355
	leaq	-112(%rbp), %rdi
	movl	-136(%rbp), %esi
	movl	-132(%rbp), %edx
	movl	-116(%rbp), %ecx
	callq	LowPassForIntra8x8Pred
	movl	$0, -148(%rbp)
	cmpl	$0, -132(%rbp)
	je	.LBB11_49
# %bb.47:                               # %land.lhs.true358
	cmpl	$0, -116(%rbp)
	je	.LBB11_49
# %bb.48:                               # %if.then360
	movl	-108(%rbp), %eax
	addl	-104(%rbp), %eax
	addl	-100(%rbp), %eax
	addl	-96(%rbp), %eax
	addl	-92(%rbp), %eax
	addl	-88(%rbp), %eax
	addl	-84(%rbp), %eax
	addl	-80(%rbp), %eax
	addl	-44(%rbp), %eax
	addl	-40(%rbp), %eax
	addl	-36(%rbp), %eax
	addl	-32(%rbp), %eax
	addl	-28(%rbp), %eax
	addl	-24(%rbp), %eax
	addl	-20(%rbp), %eax
	addl	-16(%rbp), %eax
	addl	$8, %eax
	sarl	$4, %eax
	movl	%eax, -148(%rbp)
	jmp	.LBB11_58
.LBB11_49:                              # %if.else393
	cmpl	$0, -132(%rbp)
	jne	.LBB11_52
# %bb.50:                               # %land.lhs.true395
	cmpl	$0, -116(%rbp)
	je	.LBB11_52
# %bb.51:                               # %if.then397
	movl	-44(%rbp), %eax
	addl	-40(%rbp), %eax
	addl	-36(%rbp), %eax
	addl	-32(%rbp), %eax
	addl	-28(%rbp), %eax
	addl	-24(%rbp), %eax
	addl	-20(%rbp), %eax
	addl	-16(%rbp), %eax
	addl	$4, %eax
	sarl	$3, %eax
	movl	%eax, -148(%rbp)
	jmp	.LBB11_57
.LBB11_52:                              # %if.else415
	cmpl	$0, -132(%rbp)
	je	.LBB11_55
# %bb.53:                               # %land.lhs.true417
	cmpl	$0, -116(%rbp)
	jne	.LBB11_55
# %bb.54:                               # %if.then419
	movl	-108(%rbp), %eax
	addl	-104(%rbp), %eax
	addl	-100(%rbp), %eax
	addl	-96(%rbp), %eax
	addl	-92(%rbp), %eax
	addl	-88(%rbp), %eax
	addl	-84(%rbp), %eax
	addl	-80(%rbp), %eax
	addl	$4, %eax
	sarl	$3, %eax
	movl	%eax, -148(%rbp)
	jmp	.LBB11_56
.LBB11_55:                              # %if.else437
	movq	img, %rax
	movl	72680(%rax), %eax
	movl	%eax, -148(%rbp)
.LBB11_56:                              # %if.end439
	jmp	.LBB11_57
.LBB11_57:                              # %if.end440
	jmp	.LBB11_58
.LBB11_58:                              # %if.end441
	movl	$0, -140(%rbp)
.LBB11_59:                              # %for.cond442
                                        # =>This Loop Header: Depth=1
                                        #     Child Loop BB11_61 Depth 2
	cmpl	$8, -140(%rbp)
	jge	.LBB11_66
# %bb.60:                               # %for.body445
                                        #   in Loop: Header=BB11_59 Depth=1
	movl	$0, -4(%rbp)
.LBB11_61:                              # %for.cond446
                                        #   Parent Loop BB11_59 Depth=1
                                        # =>  This Inner Loop Header: Depth=2
	cmpl	$8, -4(%rbp)
	jge	.LBB11_64
# %bb.62:                               # %for.body449
                                        #   in Loop: Header=BB11_61 Depth=2
	movl	-148(%rbp), %eax
	movq	img, %rcx
	addq	$7352, %rcx             # imm = 0x1CB8
	addq	$256, %rcx              # imm = 0x100
	movslq	-4(%rbp), %rdx
	shlq	$4, %rdx
	addq	%rdx, %rcx
	movslq	-140(%rbp), %rdx
	movw	%ax, (%rcx,%rdx,2)
# %bb.63:                               # %for.inc457
                                        #   in Loop: Header=BB11_61 Depth=2
	movl	-4(%rbp), %eax
	addl	$1, %eax
	movl	%eax, -4(%rbp)
	jmp	.LBB11_61
.LBB11_64:                              # %for.end459
                                        #   in Loop: Header=BB11_59 Depth=1
	jmp	.LBB11_65
.LBB11_65:                              # %for.inc460
                                        #   in Loop: Header=BB11_59 Depth=1
	movl	-140(%rbp), %eax
	addl	$1, %eax
	movl	%eax, -140(%rbp)
	jmp	.LBB11_59
.LBB11_66:                              # %for.end462
	movl	$0, -4(%rbp)
.LBB11_67:                              # %for.cond463
                                        # =>This Inner Loop Header: Depth=1
	cmpl	$8, -4(%rbp)
	jge	.LBB11_70
# %bb.68:                               # %for.body466
                                        #   in Loop: Header=BB11_67 Depth=1
	movslq	-4(%rbp), %rax
	movl	-108(%rbp,%rax,4), %eax
	movq	img, %rcx
	movslq	-4(%rbp), %rdx
	movw	%ax, 7464(%rcx,%rdx,2)
	movq	img, %rcx
	movslq	-4(%rbp), %rdx
	movw	%ax, 7448(%rcx,%rdx,2)
	movq	img, %rcx
	movslq	-4(%rbp), %rdx
	movw	%ax, 7432(%rcx,%rdx,2)
	movq	img, %rcx
	movslq	-4(%rbp), %rdx
	movw	%ax, 7416(%rcx,%rdx,2)
	movq	img, %rcx
	movslq	-4(%rbp), %rdx
	movw	%ax, 7400(%rcx,%rdx,2)
	movq	img, %rcx
	movslq	-4(%rbp), %rdx
	movw	%ax, 7384(%rcx,%rdx,2)
	movq	img, %rcx
	movslq	-4(%rbp), %rdx
	movw	%ax, 7368(%rcx,%rdx,2)
	movq	img, %rcx
	movslq	-4(%rbp), %rdx
	movw	%ax, 7352(%rcx,%rdx,2)
	movslq	-4(%rbp), %rax
	movl	-44(%rbp,%rax,4), %eax
	movq	img, %rcx
	addq	$7352, %rcx             # imm = 0x1CB8
	addq	$128, %rcx
	movslq	-4(%rbp), %rdx
	shlq	$4, %rdx
	addq	%rdx, %rcx
	movw	%ax, 14(%rcx)
	movq	img, %rcx
	addq	$7352, %rcx             # imm = 0x1CB8
	addq	$128, %rcx
	movslq	-4(%rbp), %rdx
	shlq	$4, %rdx
	addq	%rdx, %rcx
	movw	%ax, 12(%rcx)
	movq	img, %rcx
	addq	$7352, %rcx             # imm = 0x1CB8
	addq	$128, %rcx
	movslq	-4(%rbp), %rdx
	shlq	$4, %rdx
	addq	%rdx, %rcx
	movw	%ax, 10(%rcx)
	movq	img, %rcx
	addq	$7352, %rcx             # imm = 0x1CB8
	addq	$128, %rcx
	movslq	-4(%rbp), %rdx
	shlq	$4, %rdx
	addq	%rdx, %rcx
	movw	%ax, 8(%rcx)
	movq	img, %rcx
	addq	$7352, %rcx             # imm = 0x1CB8
	addq	$128, %rcx
	movslq	-4(%rbp), %rdx
	shlq	$4, %rdx
	addq	%rdx, %rcx
	movw	%ax, 6(%rcx)
	movq	img, %rcx
	addq	$7352, %rcx             # imm = 0x1CB8
	addq	$128, %rcx
	movslq	-4(%rbp), %rdx
	shlq	$4, %rdx
	addq	%rdx, %rcx
	movw	%ax, 4(%rcx)
	movq	img, %rcx
	addq	$7352, %rcx             # imm = 0x1CB8
	addq	$128, %rcx
	movslq	-4(%rbp), %rdx
	shlq	$4, %rdx
	addq	%rdx, %rcx
	movw	%ax, 2(%rcx)
	movq	img, %rcx
	addq	$7352, %rcx             # imm = 0x1CB8
	addq	$128, %rcx
	movslq	-4(%rbp), %rdx
	shlq	$4, %rdx
	addq	%rdx, %rcx
	movw	%ax, (%rcx)
# %bb.69:                               # %for.inc555
                                        #   in Loop: Header=BB11_67 Depth=1
	movl	-4(%rbp), %eax
	addl	$1, %eax
	movl	%eax, -4(%rbp)
	jmp	.LBB11_67
.LBB11_70:                              # %for.end557
	cmpl	$0, -132(%rbp)
	jne	.LBB11_72
# %bb.71:                               # %if.then559
	movq	img, %rax
	movw	$-1, 7352(%rax)
.LBB11_72:                              # %if.end564
	cmpl	$0, -116(%rbp)
	jne	.LBB11_74
# %bb.73:                               # %if.then566
	movq	img, %rax
	movw	$-1, 7480(%rax)
.LBB11_74:                              # %if.end571
	cmpl	$0, -132(%rbp)
	je	.LBB11_76
# %bb.75:                               # %if.then573
	movl	-108(%rbp), %eax
	addl	-100(%rbp), %eax
	movl	-104(%rbp), %ecx
	shll	$1, %ecx
	addl	%ecx, %eax
	addl	$2, %eax
	sarl	$2, %eax
	movq	img, %rcx
	movw	%ax, 7736(%rcx)
	movl	-104(%rbp), %eax
	addl	-96(%rbp), %eax
	movl	-100(%rbp), %ecx
	shll	$1, %ecx
	addl	%ecx, %eax
	addl	$2, %eax
	sarl	$2, %eax
	movq	img, %rcx
	movw	%ax, 7752(%rcx)
	movq	img, %rcx
	movw	%ax, 7738(%rcx)
	movl	-100(%rbp), %eax
	addl	-92(%rbp), %eax
	movl	-96(%rbp), %ecx
	shll	$1, %ecx
	addl	%ecx, %eax
	addl	$2, %eax
	sarl	$2, %eax
	movq	img, %rcx
	movw	%ax, 7768(%rcx)
	movq	img, %rcx
	movw	%ax, 7754(%rcx)
	movq	img, %rcx
	movw	%ax, 7740(%rcx)
	movl	-96(%rbp), %eax
	addl	-88(%rbp), %eax
	movl	-92(%rbp), %ecx
	shll	$1, %ecx
	addl	%ecx, %eax
	addl	$2, %eax
	sarl	$2, %eax
	movq	img, %rcx
	movw	%ax, 7784(%rcx)
	movq	img, %rcx
	movw	%ax, 7770(%rcx)
	movq	img, %rcx
	movw	%ax, 7756(%rcx)
	movq	img, %rcx
	movw	%ax, 7742(%rcx)
	movl	-92(%rbp), %eax
	addl	-84(%rbp), %eax
	movl	-88(%rbp), %ecx
	shll	$1, %ecx
	addl	%ecx, %eax
	addl	$2, %eax
	sarl	$2, %eax
	movq	img, %rcx
	movw	%ax, 7800(%rcx)
	movq	img, %rcx
	movw	%ax, 7786(%rcx)
	movq	img, %rcx
	movw	%ax, 7772(%rcx)
	movq	img, %rcx
	movw	%ax, 7758(%rcx)
	movq	img, %rcx
	movw	%ax, 7744(%rcx)
	movl	-88(%rbp), %eax
	addl	-80(%rbp), %eax
	movl	-84(%rbp), %ecx
	shll	$1, %ecx
	addl	%ecx, %eax
	addl	$2, %eax
	sarl	$2, %eax
	movq	img, %rcx
	movw	%ax, 7816(%rcx)
	movq	img, %rcx
	movw	%ax, 7802(%rcx)
	movq	img, %rcx
	movw	%ax, 7788(%rcx)
	movq	img, %rcx
	movw	%ax, 7774(%rcx)
	movq	img, %rcx
	movw	%ax, 7760(%rcx)
	movq	img, %rcx
	movw	%ax, 7746(%rcx)
	movl	-84(%rbp), %eax
	addl	-76(%rbp), %eax
	movl	-80(%rbp), %ecx
	shll	$1, %ecx
	addl	%ecx, %eax
	addl	$2, %eax
	sarl	$2, %eax
	movq	img, %rcx
	movw	%ax, 7832(%rcx)
	movq	img, %rcx
	movw	%ax, 7818(%rcx)
	movq	img, %rcx
	movw	%ax, 7804(%rcx)
	movq	img, %rcx
	movw	%ax, 7790(%rcx)
	movq	img, %rcx
	movw	%ax, 7776(%rcx)
	movq	img, %rcx
	movw	%ax, 7762(%rcx)
	movq	img, %rcx
	movw	%ax, 7748(%rcx)
	movl	-80(%rbp), %eax
	addl	-72(%rbp), %eax
	movl	-76(%rbp), %ecx
	shll	$1, %ecx
	addl	%ecx, %eax
	addl	$2, %eax
	sarl	$2, %eax
	movq	img, %rcx
	movw	%ax, 7848(%rcx)
	movq	img, %rcx
	movw	%ax, 7834(%rcx)
	movq	img, %rcx
	movw	%ax, 7820(%rcx)
	movq	img, %rcx
	movw	%ax, 7806(%rcx)
	movq	img, %rcx
	movw	%ax, 7792(%rcx)
	movq	img, %rcx
	movw	%ax, 7778(%rcx)
	movq	img, %rcx
	movw	%ax, 7764(%rcx)
	movq	img, %rcx
	movw	%ax, 7750(%rcx)
	movl	-76(%rbp), %eax
	addl	-68(%rbp), %eax
	movl	-72(%rbp), %ecx
	shll	$1, %ecx
	addl	%ecx, %eax
	addl	$2, %eax
	sarl	$2, %eax
	movq	img, %rcx
	movw	%ax, 7850(%rcx)
	movq	img, %rcx
	movw	%ax, 7836(%rcx)
	movq	img, %rcx
	movw	%ax, 7822(%rcx)
	movq	img, %rcx
	movw	%ax, 7808(%rcx)
	movq	img, %rcx
	movw	%ax, 7794(%rcx)
	movq	img, %rcx
	movw	%ax, 7780(%rcx)
	movq	img, %rcx
	movw	%ax, 7766(%rcx)
	movl	-72(%rbp), %eax
	addl	-64(%rbp), %eax
	movl	-68(%rbp), %ecx
	shll	$1, %ecx
	addl	%ecx, %eax
	addl	$2, %eax
	sarl	$2, %eax
	movq	img, %rcx
	movw	%ax, 7852(%rcx)
	movq	img, %rcx
	movw	%ax, 7838(%rcx)
	movq	img, %rcx
	movw	%ax, 7824(%rcx)
	movq	img, %rcx
	movw	%ax, 7810(%rcx)
	movq	img, %rcx
	movw	%ax, 7796(%rcx)
	movq	img, %rcx
	movw	%ax, 7782(%rcx)
	movl	-68(%rbp), %eax
	addl	-60(%rbp), %eax
	movl	-64(%rbp), %ecx
	shll	$1, %ecx
	addl	%ecx, %eax
	addl	$2, %eax
	sarl	$2, %eax
	movq	img, %rcx
	movw	%ax, 7854(%rcx)
	movq	img, %rcx
	movw	%ax, 7840(%rcx)
	movq	img, %rcx
	movw	%ax, 7826(%rcx)
	movq	img, %rcx
	movw	%ax, 7812(%rcx)
	movq	img, %rcx
	movw	%ax, 7798(%rcx)
	movl	-64(%rbp), %eax
	addl	-56(%rbp), %eax
	movl	-60(%rbp), %ecx
	shll	$1, %ecx
	addl	%ecx, %eax
	addl	$2, %eax
	sarl	$2, %eax
	movq	img, %rcx
	movw	%ax, 7856(%rcx)
	movq	img, %rcx
	movw	%ax, 7842(%rcx)
	movq	img, %rcx
	movw	%ax, 7828(%rcx)
	movq	img, %rcx
	movw	%ax, 7814(%rcx)
	movl	-60(%rbp), %eax
	addl	-52(%rbp), %eax
	movl	-56(%rbp), %ecx
	shll	$1, %ecx
	addl	%ecx, %eax
	addl	$2, %eax
	sarl	$2, %eax
	movq	img, %rcx
	movw	%ax, 7858(%rcx)
	movq	img, %rcx
	movw	%ax, 7844(%rcx)
	movq	img, %rcx
	movw	%ax, 7830(%rcx)
	movl	-56(%rbp), %eax
	addl	-48(%rbp), %eax
	movl	-52(%rbp), %ecx
	shll	$1, %ecx
	addl	%ecx, %eax
	addl	$2, %eax
	sarl	$2, %eax
	movq	img, %rcx
	movw	%ax, 7860(%rcx)
	movq	img, %rcx
	movw	%ax, 7846(%rcx)
	movl	-52(%rbp), %eax
	imull	$3, -48(%rbp), %ecx
	addl	%ecx, %eax
	addl	$2, %eax
	sarl	$2, %eax
	movq	img, %rcx
	movw	%ax, 7862(%rcx)
	movl	-108(%rbp), %eax
	addl	-104(%rbp), %eax
	addl	$1, %eax
	sarl	$1, %eax
	movq	img, %rcx
	movw	%ax, 8248(%rcx)
	movl	-104(%rbp), %eax
	addl	-100(%rbp), %eax
	addl	$1, %eax
	sarl	$1, %eax
	movq	img, %rcx
	movw	%ax, 8280(%rcx)
	movq	img, %rcx
	movw	%ax, 8250(%rcx)
	movl	-100(%rbp), %eax
	addl	-96(%rbp), %eax
	addl	$1, %eax
	sarl	$1, %eax
	movq	img, %rcx
	movw	%ax, 8312(%rcx)
	movq	img, %rcx
	movw	%ax, 8282(%rcx)
	movq	img, %rcx
	movw	%ax, 8252(%rcx)
	movl	-96(%rbp), %eax
	addl	-92(%rbp), %eax
	addl	$1, %eax
	sarl	$1, %eax
	movq	img, %rcx
	movw	%ax, 8344(%rcx)
	movq	img, %rcx
	movw	%ax, 8314(%rcx)
	movq	img, %rcx
	movw	%ax, 8284(%rcx)
	movq	img, %rcx
	movw	%ax, 8254(%rcx)
	movl	-92(%rbp), %eax
	addl	-88(%rbp), %eax
	addl	$1, %eax
	sarl	$1, %eax
	movq	img, %rcx
	movw	%ax, 8346(%rcx)
	movq	img, %rcx
	movw	%ax, 8316(%rcx)
	movq	img, %rcx
	movw	%ax, 8286(%rcx)
	movq	img, %rcx
	movw	%ax, 8256(%rcx)
	movl	-88(%rbp), %eax
	addl	-84(%rbp), %eax
	addl	$1, %eax
	sarl	$1, %eax
	movq	img, %rcx
	movw	%ax, 8348(%rcx)
	movq	img, %rcx
	movw	%ax, 8318(%rcx)
	movq	img, %rcx
	movw	%ax, 8288(%rcx)
	movq	img, %rcx
	movw	%ax, 8258(%rcx)
	movl	-84(%rbp), %eax
	addl	-80(%rbp), %eax
	addl	$1, %eax
	sarl	$1, %eax
	movq	img, %rcx
	movw	%ax, 8350(%rcx)
	movq	img, %rcx
	movw	%ax, 8320(%rcx)
	movq	img, %rcx
	movw	%ax, 8290(%rcx)
	movq	img, %rcx
	movw	%ax, 8260(%rcx)
	movl	-80(%rbp), %eax
	addl	-76(%rbp), %eax
	addl	$1, %eax
	sarl	$1, %eax
	movq	img, %rcx
	movw	%ax, 8352(%rcx)
	movq	img, %rcx
	movw	%ax, 8322(%rcx)
	movq	img, %rcx
	movw	%ax, 8292(%rcx)
	movq	img, %rcx
	movw	%ax, 8262(%rcx)
	movl	-76(%rbp), %eax
	addl	-72(%rbp), %eax
	addl	$1, %eax
	sarl	$1, %eax
	movq	img, %rcx
	movw	%ax, 8354(%rcx)
	movq	img, %rcx
	movw	%ax, 8324(%rcx)
	movq	img, %rcx
	movw	%ax, 8294(%rcx)
	movl	-72(%rbp), %eax
	addl	-68(%rbp), %eax
	addl	$1, %eax
	sarl	$1, %eax
	movq	img, %rcx
	movw	%ax, 8356(%rcx)
	movq	img, %rcx
	movw	%ax, 8326(%rcx)
	movl	-68(%rbp), %eax
	addl	-64(%rbp), %eax
	addl	$1, %eax
	sarl	$1, %eax
	movq	img, %rcx
	movw	%ax, 8358(%rcx)
	movl	-108(%rbp), %eax
	addl	-100(%rbp), %eax
	movl	-104(%rbp), %ecx
	shll	$1, %ecx
	addl	%ecx, %eax
	addl	$2, %eax
	sarl	$2, %eax
	movq	img, %rcx
	movw	%ax, 8264(%rcx)
	movl	-104(%rbp), %eax
	addl	-96(%rbp), %eax
	movl	-100(%rbp), %ecx
	shll	$1, %ecx
	addl	%ecx, %eax
	addl	$2, %eax
	sarl	$2, %eax
	movq	img, %rcx
	movw	%ax, 8296(%rcx)
	movq	img, %rcx
	movw	%ax, 8266(%rcx)
	movl	-100(%rbp), %eax
	addl	-92(%rbp), %eax
	movl	-96(%rbp), %ecx
	shll	$1, %ecx
	addl	%ecx, %eax
	addl	$2, %eax
	sarl	$2, %eax
	movq	img, %rcx
	movw	%ax, 8328(%rcx)
	movq	img, %rcx
	movw	%ax, 8298(%rcx)
	movq	img, %rcx
	movw	%ax, 8268(%rcx)
	movl	-96(%rbp), %eax
	addl	-88(%rbp), %eax
	movl	-92(%rbp), %ecx
	shll	$1, %ecx
	addl	%ecx, %eax
	addl	$2, %eax
	sarl	$2, %eax
	movq	img, %rcx
	movw	%ax, 8360(%rcx)
	movq	img, %rcx
	movw	%ax, 8330(%rcx)
	movq	img, %rcx
	movw	%ax, 8300(%rcx)
	movq	img, %rcx
	movw	%ax, 8270(%rcx)
	movl	-92(%rbp), %eax
	addl	-84(%rbp), %eax
	movl	-88(%rbp), %ecx
	shll	$1, %ecx
	addl	%ecx, %eax
	addl	$2, %eax
	sarl	$2, %eax
	movq	img, %rcx
	movw	%ax, 8362(%rcx)
	movq	img, %rcx
	movw	%ax, 8332(%rcx)
	movq	img, %rcx
	movw	%ax, 8302(%rcx)
	movq	img, %rcx
	movw	%ax, 8272(%rcx)
	movl	-88(%rbp), %eax
	addl	-80(%rbp), %eax
	movl	-84(%rbp), %ecx
	shll	$1, %ecx
	addl	%ecx, %eax
	addl	$2, %eax
	sarl	$2, %eax
	movq	img, %rcx
	movw	%ax, 8364(%rcx)
	movq	img, %rcx
	movw	%ax, 8334(%rcx)
	movq	img, %rcx
	movw	%ax, 8304(%rcx)
	movq	img, %rcx
	movw	%ax, 8274(%rcx)
	movl	-84(%rbp), %eax
	addl	-76(%rbp), %eax
	movl	-80(%rbp), %ecx
	shll	$1, %ecx
	addl	%ecx, %eax
	addl	$2, %eax
	sarl	$2, %eax
	movq	img, %rcx
	movw	%ax, 8366(%rcx)
	movq	img, %rcx
	movw	%ax, 8336(%rcx)
	movq	img, %rcx
	movw	%ax, 8306(%rcx)
	movq	img, %rcx
	movw	%ax, 8276(%rcx)
	movl	-80(%rbp), %eax
	addl	-72(%rbp), %eax
	movl	-76(%rbp), %ecx
	shll	$1, %ecx
	addl	%ecx, %eax
	addl	$2, %eax
	sarl	$2, %eax
	movq	img, %rcx
	movw	%ax, 8368(%rcx)
	movq	img, %rcx
	movw	%ax, 8338(%rcx)
	movq	img, %rcx
	movw	%ax, 8308(%rcx)
	movq	img, %rcx
	movw	%ax, 8278(%rcx)
	movl	-76(%rbp), %eax
	addl	-68(%rbp), %eax
	movl	-72(%rbp), %ecx
	shll	$1, %ecx
	addl	%ecx, %eax
	addl	$2, %eax
	sarl	$2, %eax
	movq	img, %rcx
	movw	%ax, 8370(%rcx)
	movq	img, %rcx
	movw	%ax, 8340(%rcx)
	movq	img, %rcx
	movw	%ax, 8310(%rcx)
	movl	-72(%rbp), %eax
	addl	-64(%rbp), %eax
	movl	-68(%rbp), %ecx
	shll	$1, %ecx
	addl	%ecx, %eax
	addl	$2, %eax
	sarl	$2, %eax
	movq	img, %rcx
	movw	%ax, 8372(%rcx)
	movq	img, %rcx
	movw	%ax, 8342(%rcx)
	movl	-68(%rbp), %eax
	addl	-60(%rbp), %eax
	movl	-64(%rbp), %ecx
	shll	$1, %ecx
	addl	%ecx, %eax
	addl	$2, %eax
	sarl	$2, %eax
	movq	img, %rcx
	movw	%ax, 8374(%rcx)
.LBB11_76:                              # %if.end1383
	cmpl	$0, -132(%rbp)
	je	.LBB11_80
# %bb.77:                               # %land.lhs.true1385
	cmpl	$0, -116(%rbp)
	je	.LBB11_80
# %bb.78:                               # %land.lhs.true1387
	cmpl	$0, -136(%rbp)
	je	.LBB11_80
# %bb.79:                               # %if.then1389
	movl	-16(%rbp), %eax
	addl	-24(%rbp), %eax
	movl	-20(%rbp), %ecx
	shll	$1, %ecx
	addl	%ecx, %eax
	addl	$2, %eax
	sarl	$2, %eax
	movq	img, %rcx
	movw	%ax, 7976(%rcx)
	movl	-20(%rbp), %eax
	addl	-28(%rbp), %eax
	movl	-24(%rbp), %ecx
	shll	$1, %ecx
	addl	%ecx, %eax
	addl	$2, %eax
	sarl	$2, %eax
	movq	img, %rcx
	movw	%ax, 7978(%rcx)
	movq	img, %rcx
	movw	%ax, 7960(%rcx)
	movl	-24(%rbp), %eax
	addl	-32(%rbp), %eax
	movl	-28(%rbp), %ecx
	shll	$1, %ecx
	addl	%ecx, %eax
	addl	$2, %eax
	sarl	$2, %eax
	movq	img, %rcx
	movw	%ax, 7980(%rcx)
	movq	img, %rcx
	movw	%ax, 7962(%rcx)
	movq	img, %rcx
	movw	%ax, 7944(%rcx)
	movl	-28(%rbp), %eax
	addl	-36(%rbp), %eax
	movl	-32(%rbp), %ecx
	shll	$1, %ecx
	addl	%ecx, %eax
	addl	$2, %eax
	sarl	$2, %eax
	movq	img, %rcx
	movw	%ax, 7982(%rcx)
	movq	img, %rcx
	movw	%ax, 7964(%rcx)
	movq	img, %rcx
	movw	%ax, 7946(%rcx)
	movq	img, %rcx
	movw	%ax, 7928(%rcx)
	movl	-32(%rbp), %eax
	addl	-40(%rbp), %eax
	movl	-36(%rbp), %ecx
	shll	$1, %ecx
	addl	%ecx, %eax
	addl	$2, %eax
	sarl	$2, %eax
	movq	img, %rcx
	movw	%ax, 7984(%rcx)
	movq	img, %rcx
	movw	%ax, 7966(%rcx)
	movq	img, %rcx
	movw	%ax, 7948(%rcx)
	movq	img, %rcx
	movw	%ax, 7930(%rcx)
	movq	img, %rcx
	movw	%ax, 7912(%rcx)
	movl	-36(%rbp), %eax
	addl	-44(%rbp), %eax
	movl	-40(%rbp), %ecx
	shll	$1, %ecx
	addl	%ecx, %eax
	addl	$2, %eax
	sarl	$2, %eax
	movq	img, %rcx
	movw	%ax, 7986(%rcx)
	movq	img, %rcx
	movw	%ax, 7968(%rcx)
	movq	img, %rcx
	movw	%ax, 7950(%rcx)
	movq	img, %rcx
	movw	%ax, 7932(%rcx)
	movq	img, %rcx
	movw	%ax, 7914(%rcx)
	movq	img, %rcx
	movw	%ax, 7896(%rcx)
	movl	-40(%rbp), %eax
	addl	-112(%rbp), %eax
	movl	-44(%rbp), %ecx
	shll	$1, %ecx
	addl	%ecx, %eax
	addl	$2, %eax
	sarl	$2, %eax
	movq	img, %rcx
	movw	%ax, 7988(%rcx)
	movq	img, %rcx
	movw	%ax, 7970(%rcx)
	movq	img, %rcx
	movw	%ax, 7952(%rcx)
	movq	img, %rcx
	movw	%ax, 7934(%rcx)
	movq	img, %rcx
	movw	%ax, 7916(%rcx)
	movq	img, %rcx
	movw	%ax, 7898(%rcx)
	movq	img, %rcx
	movw	%ax, 7880(%rcx)
	movl	-44(%rbp), %eax
	addl	-108(%rbp), %eax
	movl	-112(%rbp), %ecx
	shll	$1, %ecx
	addl	%ecx, %eax
	addl	$2, %eax
	sarl	$2, %eax
	movq	img, %rcx
	movw	%ax, 7990(%rcx)
	movq	img, %rcx
	movw	%ax, 7972(%rcx)
	movq	img, %rcx
	movw	%ax, 7954(%rcx)
	movq	img, %rcx
	movw	%ax, 7936(%rcx)
	movq	img, %rcx
	movw	%ax, 7918(%rcx)
	movq	img, %rcx
	movw	%ax, 7900(%rcx)
	movq	img, %rcx
	movw	%ax, 7882(%rcx)
	movq	img, %rcx
	movw	%ax, 7864(%rcx)
	movl	-112(%rbp), %eax
	addl	-104(%rbp), %eax
	movl	-108(%rbp), %ecx
	shll	$1, %ecx
	addl	%ecx, %eax
	addl	$2, %eax
	sarl	$2, %eax
	movq	img, %rcx
	movw	%ax, 7974(%rcx)
	movq	img, %rcx
	movw	%ax, 7956(%rcx)
	movq	img, %rcx
	movw	%ax, 7938(%rcx)
	movq	img, %rcx
	movw	%ax, 7920(%rcx)
	movq	img, %rcx
	movw	%ax, 7902(%rcx)
	movq	img, %rcx
	movw	%ax, 7884(%rcx)
	movq	img, %rcx
	movw	%ax, 7866(%rcx)
	movl	-108(%rbp), %eax
	addl	-100(%rbp), %eax
	movl	-104(%rbp), %ecx
	shll	$1, %ecx
	addl	%ecx, %eax
	addl	$2, %eax
	sarl	$2, %eax
	movq	img, %rcx
	movw	%ax, 7958(%rcx)
	movq	img, %rcx
	movw	%ax, 7940(%rcx)
	movq	img, %rcx
	movw	%ax, 7922(%rcx)
	movq	img, %rcx
	movw	%ax, 7904(%rcx)
	movq	img, %rcx
	movw	%ax, 7886(%rcx)
	movq	img, %rcx
	movw	%ax, 7868(%rcx)
	movl	-104(%rbp), %eax
	addl	-96(%rbp), %eax
	movl	-100(%rbp), %ecx
	shll	$1, %ecx
	addl	%ecx, %eax
	addl	$2, %eax
	sarl	$2, %eax
	movq	img, %rcx
	movw	%ax, 7942(%rcx)
	movq	img, %rcx
	movw	%ax, 7924(%rcx)
	movq	img, %rcx
	movw	%ax, 7906(%rcx)
	movq	img, %rcx
	movw	%ax, 7888(%rcx)
	movq	img, %rcx
	movw	%ax, 7870(%rcx)
	movl	-100(%rbp), %eax
	addl	-92(%rbp), %eax
	movl	-96(%rbp), %ecx
	shll	$1, %ecx
	addl	%ecx, %eax
	addl	$2, %eax
	sarl	$2, %eax
	movq	img, %rcx
	movw	%ax, 7926(%rcx)
	movq	img, %rcx
	movw	%ax, 7908(%rcx)
	movq	img, %rcx
	movw	%ax, 7890(%rcx)
	movq	img, %rcx
	movw	%ax, 7872(%rcx)
	movl	-96(%rbp), %eax
	addl	-88(%rbp), %eax
	movl	-92(%rbp), %ecx
	shll	$1, %ecx
	addl	%ecx, %eax
	addl	$2, %eax
	sarl	$2, %eax
	movq	img, %rcx
	movw	%ax, 7910(%rcx)
	movq	img, %rcx
	movw	%ax, 7892(%rcx)
	movq	img, %rcx
	movw	%ax, 7874(%rcx)
	movl	-92(%rbp), %eax
	addl	-84(%rbp), %eax
	movl	-88(%rbp), %ecx
	shll	$1, %ecx
	addl	%ecx, %eax
	addl	$2, %eax
	sarl	$2, %eax
	movq	img, %rcx
	movw	%ax, 7894(%rcx)
	movq	img, %rcx
	movw	%ax, 7876(%rcx)
	movl	-88(%rbp), %eax
	addl	-80(%rbp), %eax
	movl	-84(%rbp), %ecx
	shll	$1, %ecx
	addl	%ecx, %eax
	addl	$2, %eax
	sarl	$2, %eax
	movq	img, %rcx
	movw	%ax, 7878(%rcx)
	movl	-112(%rbp), %eax
	addl	-108(%rbp), %eax
	addl	$1, %eax
	sarl	$1, %eax
	movq	img, %rcx
	movw	%ax, 8094(%rcx)
	movq	img, %rcx
	movw	%ax, 8060(%rcx)
	movq	img, %rcx
	movw	%ax, 8026(%rcx)
	movq	img, %rcx
	movw	%ax, 7992(%rcx)
	movl	-108(%rbp), %eax
	addl	-104(%rbp), %eax
	addl	$1, %eax
	sarl	$1, %eax
	movq	img, %rcx
	movw	%ax, 8096(%rcx)
	movq	img, %rcx
	movw	%ax, 8062(%rcx)
	movq	img, %rcx
	movw	%ax, 8028(%rcx)
	movq	img, %rcx
	movw	%ax, 7994(%rcx)
	movl	-104(%rbp), %eax
	addl	-100(%rbp), %eax
	addl	$1, %eax
	sarl	$1, %eax
	movq	img, %rcx
	movw	%ax, 8098(%rcx)
	movq	img, %rcx
	movw	%ax, 8064(%rcx)
	movq	img, %rcx
	movw	%ax, 8030(%rcx)
	movq	img, %rcx
	movw	%ax, 7996(%rcx)
	movl	-100(%rbp), %eax
	addl	-96(%rbp), %eax
	addl	$1, %eax
	sarl	$1, %eax
	movq	img, %rcx
	movw	%ax, 8100(%rcx)
	movq	img, %rcx
	movw	%ax, 8066(%rcx)
	movq	img, %rcx
	movw	%ax, 8032(%rcx)
	movq	img, %rcx
	movw	%ax, 7998(%rcx)
	movl	-96(%rbp), %eax
	addl	-92(%rbp), %eax
	addl	$1, %eax
	sarl	$1, %eax
	movq	img, %rcx
	movw	%ax, 8102(%rcx)
	movq	img, %rcx
	movw	%ax, 8068(%rcx)
	movq	img, %rcx
	movw	%ax, 8034(%rcx)
	movq	img, %rcx
	movw	%ax, 8000(%rcx)
	movl	-92(%rbp), %eax
	addl	-88(%rbp), %eax
	addl	$1, %eax
	sarl	$1, %eax
	movq	img, %rcx
	movw	%ax, 8070(%rcx)
	movq	img, %rcx
	movw	%ax, 8036(%rcx)
	movq	img, %rcx
	movw	%ax, 8002(%rcx)
	movl	-88(%rbp), %eax
	addl	-84(%rbp), %eax
	addl	$1, %eax
	sarl	$1, %eax
	movq	img, %rcx
	movw	%ax, 8038(%rcx)
	movq	img, %rcx
	movw	%ax, 8004(%rcx)
	movl	-84(%rbp), %eax
	addl	-80(%rbp), %eax
	addl	$1, %eax
	sarl	$1, %eax
	movq	img, %rcx
	movw	%ax, 8006(%rcx)
	movl	-44(%rbp), %eax
	addl	-108(%rbp), %eax
	movl	-112(%rbp), %ecx
	shll	$1, %ecx
	addl	%ecx, %eax
	addl	$2, %eax
	sarl	$2, %eax
	movq	img, %rcx
	movw	%ax, 8110(%rcx)
	movq	img, %rcx
	movw	%ax, 8076(%rcx)
	movq	img, %rcx
	movw	%ax, 8042(%rcx)
	movq	img, %rcx
	movw	%ax, 8008(%rcx)
	movl	-112(%rbp), %eax
	addl	-104(%rbp), %eax
	movl	-108(%rbp), %ecx
	shll	$1, %ecx
	addl	%ecx, %eax
	addl	$2, %eax
	sarl	$2, %eax
	movq	img, %rcx
	movw	%ax, 8112(%rcx)
	movq	img, %rcx
	movw	%ax, 8078(%rcx)
	movq	img, %rcx
	movw	%ax, 8044(%rcx)
	movq	img, %rcx
	movw	%ax, 8010(%rcx)
	movl	-108(%rbp), %eax
	addl	-100(%rbp), %eax
	movl	-104(%rbp), %ecx
	shll	$1, %ecx
	addl	%ecx, %eax
	addl	$2, %eax
	sarl	$2, %eax
	movq	img, %rcx
	movw	%ax, 8114(%rcx)
	movq	img, %rcx
	movw	%ax, 8080(%rcx)
	movq	img, %rcx
	movw	%ax, 8046(%rcx)
	movq	img, %rcx
	movw	%ax, 8012(%rcx)
	movl	-104(%rbp), %eax
	addl	-96(%rbp), %eax
	movl	-100(%rbp), %ecx
	shll	$1, %ecx
	addl	%ecx, %eax
	addl	$2, %eax
	sarl	$2, %eax
	movq	img, %rcx
	movw	%ax, 8116(%rcx)
	movq	img, %rcx
	movw	%ax, 8082(%rcx)
	movq	img, %rcx
	movw	%ax, 8048(%rcx)
	movq	img, %rcx
	movw	%ax, 8014(%rcx)
	movl	-100(%rbp), %eax
	addl	-92(%rbp), %eax
	movl	-96(%rbp), %ecx
	shll	$1, %ecx
	addl	%ecx, %eax
	addl	$2, %eax
	sarl	$2, %eax
	movq	img, %rcx
	movw	%ax, 8118(%rcx)
	movq	img, %rcx
	movw	%ax, 8084(%rcx)
	movq	img, %rcx
	movw	%ax, 8050(%rcx)
	movq	img, %rcx
	movw	%ax, 8016(%rcx)
	movl	-96(%rbp), %eax
	addl	-88(%rbp), %eax
	movl	-92(%rbp), %ecx
	shll	$1, %ecx
	addl	%ecx, %eax
	addl	$2, %eax
	sarl	$2, %eax
	movq	img, %rcx
	movw	%ax, 8086(%rcx)
	movq	img, %rcx
	movw	%ax, 8052(%rcx)
	movq	img, %rcx
	movw	%ax, 8018(%rcx)
	movl	-92(%rbp), %eax
	addl	-84(%rbp), %eax
	movl	-88(%rbp), %ecx
	shll	$1, %ecx
	addl	%ecx, %eax
	addl	$2, %eax
	sarl	$2, %eax
	movq	img, %rcx
	movw	%ax, 8054(%rcx)
	movq	img, %rcx
	movw	%ax, 8020(%rcx)
	movl	-88(%rbp), %eax
	addl	-80(%rbp), %eax
	movl	-84(%rbp), %ecx
	shll	$1, %ecx
	addl	%ecx, %eax
	addl	$2, %eax
	sarl	$2, %eax
	movq	img, %rcx
	movw	%ax, 8022(%rcx)
	movl	-40(%rbp), %eax
	addl	-112(%rbp), %eax
	movl	-44(%rbp), %ecx
	shll	$1, %ecx
	addl	%ecx, %eax
	addl	$2, %eax
	sarl	$2, %eax
	movq	img, %rcx
	movw	%ax, 8092(%rcx)
	movq	img, %rcx
	movw	%ax, 8058(%rcx)
	movq	img, %rcx
	movw	%ax, 8024(%rcx)
	movl	-36(%rbp), %eax
	addl	-44(%rbp), %eax
	movl	-40(%rbp), %ecx
	shll	$1, %ecx
	addl	%ecx, %eax
	addl	$2, %eax
	sarl	$2, %eax
	movq	img, %rcx
	movw	%ax, 8108(%rcx)
	movq	img, %rcx
	movw	%ax, 8074(%rcx)
	movq	img, %rcx
	movw	%ax, 8040(%rcx)
	movl	-32(%rbp), %eax
	addl	-40(%rbp), %eax
	movl	-36(%rbp), %ecx
	shll	$1, %ecx
	addl	%ecx, %eax
	addl	$2, %eax
	sarl	$2, %eax
	movq	img, %rcx
	movw	%ax, 8090(%rcx)
	movq	img, %rcx
	movw	%ax, 8056(%rcx)
	movl	-28(%rbp), %eax
	addl	-36(%rbp), %eax
	movl	-32(%rbp), %ecx
	shll	$1, %ecx
	addl	%ecx, %eax
	addl	$2, %eax
	sarl	$2, %eax
	movq	img, %rcx
	movw	%ax, 8106(%rcx)
	movq	img, %rcx
	movw	%ax, 8072(%rcx)
	movl	-24(%rbp), %eax
	addl	-32(%rbp), %eax
	movl	-28(%rbp), %ecx
	shll	$1, %ecx
	addl	%ecx, %eax
	addl	$2, %eax
	sarl	$2, %eax
	movq	img, %rcx
	movw	%ax, 8088(%rcx)
	movl	-20(%rbp), %eax
	addl	-28(%rbp), %eax
	movl	-24(%rbp), %ecx
	shll	$1, %ecx
	addl	%ecx, %eax
	addl	$2, %eax
	sarl	$2, %eax
	movq	img, %rcx
	movw	%ax, 8104(%rcx)
	movl	-44(%rbp), %eax
	addl	-112(%rbp), %eax
	addl	$1, %eax
	sarl	$1, %eax
	movq	img, %rcx
	movw	%ax, 8180(%rcx)
	movq	img, %rcx
	movw	%ax, 8160(%rcx)
	movq	img, %rcx
	movw	%ax, 8140(%rcx)
	movq	img, %rcx
	movw	%ax, 8120(%rcx)
	movl	-40(%rbp), %eax
	addl	-44(%rbp), %eax
	addl	$1, %eax
	sarl	$1, %eax
	movq	img, %rcx
	movw	%ax, 8196(%rcx)
	movq	img, %rcx
	movw	%ax, 8176(%rcx)
	movq	img, %rcx
	movw	%ax, 8156(%rcx)
	movq	img, %rcx
	movw	%ax, 8136(%rcx)
	movl	-36(%rbp), %eax
	addl	-40(%rbp), %eax
	addl	$1, %eax
	sarl	$1, %eax
	movq	img, %rcx
	movw	%ax, 8212(%rcx)
	movq	img, %rcx
	movw	%ax, 8192(%rcx)
	movq	img, %rcx
	movw	%ax, 8172(%rcx)
	movq	img, %rcx
	movw	%ax, 8152(%rcx)
	movl	-32(%rbp), %eax
	addl	-36(%rbp), %eax
	addl	$1, %eax
	sarl	$1, %eax
	movq	img, %rcx
	movw	%ax, 8228(%rcx)
	movq	img, %rcx
	movw	%ax, 8208(%rcx)
	movq	img, %rcx
	movw	%ax, 8188(%rcx)
	movq	img, %rcx
	movw	%ax, 8168(%rcx)
	movl	-28(%rbp), %eax
	addl	-32(%rbp), %eax
	addl	$1, %eax
	sarl	$1, %eax
	movq	img, %rcx
	movw	%ax, 8244(%rcx)
	movq	img, %rcx
	movw	%ax, 8224(%rcx)
	movq	img, %rcx
	movw	%ax, 8204(%rcx)
	movq	img, %rcx
	movw	%ax, 8184(%rcx)
	movl	-24(%rbp), %eax
	addl	-28(%rbp), %eax
	addl	$1, %eax
	sarl	$1, %eax
	movq	img, %rcx
	movw	%ax, 8240(%rcx)
	movq	img, %rcx
	movw	%ax, 8220(%rcx)
	movq	img, %rcx
	movw	%ax, 8200(%rcx)
	movl	-20(%rbp), %eax
	addl	-24(%rbp), %eax
	addl	$1, %eax
	sarl	$1, %eax
	movq	img, %rcx
	movw	%ax, 8236(%rcx)
	movq	img, %rcx
	movw	%ax, 8216(%rcx)
	movl	-16(%rbp), %eax
	addl	-20(%rbp), %eax
	addl	$1, %eax
	sarl	$1, %eax
	movq	img, %rcx
	movw	%ax, 8232(%rcx)
	movl	-44(%rbp), %eax
	addl	-108(%rbp), %eax
	movl	-112(%rbp), %ecx
	shll	$1, %ecx
	addl	%ecx, %eax
	addl	$2, %eax
	sarl	$2, %eax
	movq	img, %rcx
	movw	%ax, 8182(%rcx)
	movq	img, %rcx
	movw	%ax, 8162(%rcx)
	movq	img, %rcx
	movw	%ax, 8142(%rcx)
	movq	img, %rcx
	movw	%ax, 8122(%rcx)
	movl	-112(%rbp), %eax
	addl	-40(%rbp), %eax
	movl	-44(%rbp), %ecx
	shll	$1, %ecx
	addl	%ecx, %eax
	addl	$2, %eax
	sarl	$2, %eax
	movq	img, %rcx
	movw	%ax, 8198(%rcx)
	movq	img, %rcx
	movw	%ax, 8178(%rcx)
	movq	img, %rcx
	movw	%ax, 8158(%rcx)
	movq	img, %rcx
	movw	%ax, 8138(%rcx)
	movl	-44(%rbp), %eax
	addl	-36(%rbp), %eax
	movl	-40(%rbp), %ecx
	shll	$1, %ecx
	addl	%ecx, %eax
	addl	$2, %eax
	sarl	$2, %eax
	movq	img, %rcx
	movw	%ax, 8214(%rcx)
	movq	img, %rcx
	movw	%ax, 8194(%rcx)
	movq	img, %rcx
	movw	%ax, 8174(%rcx)
	movq	img, %rcx
	movw	%ax, 8154(%rcx)
	movl	-40(%rbp), %eax
	addl	-32(%rbp), %eax
	movl	-36(%rbp), %ecx
	shll	$1, %ecx
	addl	%ecx, %eax
	addl	$2, %eax
	sarl	$2, %eax
	movq	img, %rcx
	movw	%ax, 8230(%rcx)
	movq	img, %rcx
	movw	%ax, 8210(%rcx)
	movq	img, %rcx
	movw	%ax, 8190(%rcx)
	movq	img, %rcx
	movw	%ax, 8170(%rcx)
	movl	-36(%rbp), %eax
	addl	-28(%rbp), %eax
	movl	-32(%rbp), %ecx
	shll	$1, %ecx
	addl	%ecx, %eax
	addl	$2, %eax
	sarl	$2, %eax
	movq	img, %rcx
	movw	%ax, 8246(%rcx)
	movq	img, %rcx
	movw	%ax, 8226(%rcx)
	movq	img, %rcx
	movw	%ax, 8206(%rcx)
	movq	img, %rcx
	movw	%ax, 8186(%rcx)
	movl	-32(%rbp), %eax
	addl	-24(%rbp), %eax
	movl	-28(%rbp), %ecx
	shll	$1, %ecx
	addl	%ecx, %eax
	addl	$2, %eax
	sarl	$2, %eax
	movq	img, %rcx
	movw	%ax, 8242(%rcx)
	movq	img, %rcx
	movw	%ax, 8222(%rcx)
	movq	img, %rcx
	movw	%ax, 8202(%rcx)
	movl	-28(%rbp), %eax
	addl	-20(%rbp), %eax
	movl	-24(%rbp), %ecx
	shll	$1, %ecx
	addl	%ecx, %eax
	addl	$2, %eax
	sarl	$2, %eax
	movq	img, %rcx
	movw	%ax, 8238(%rcx)
	movq	img, %rcx
	movw	%ax, 8218(%rcx)
	movl	-24(%rbp), %eax
	addl	-16(%rbp), %eax
	movl	-20(%rbp), %ecx
	shll	$1, %ecx
	addl	%ecx, %eax
	addl	$2, %eax
	sarl	$2, %eax
	movq	img, %rcx
	movw	%ax, 8234(%rcx)
	movl	-112(%rbp), %eax
	addl	-104(%rbp), %eax
	movl	-108(%rbp), %ecx
	shll	$1, %ecx
	addl	%ecx, %eax
	addl	$2, %eax
	sarl	$2, %eax
	movq	img, %rcx
	movw	%ax, 8164(%rcx)
	movq	img, %rcx
	movw	%ax, 8144(%rcx)
	movq	img, %rcx
	movw	%ax, 8124(%rcx)
	movl	-108(%rbp), %eax
	addl	-100(%rbp), %eax
	movl	-104(%rbp), %ecx
	shll	$1, %ecx
	addl	%ecx, %eax
	addl	$2, %eax
	sarl	$2, %eax
	movq	img, %rcx
	movw	%ax, 8166(%rcx)
	movq	img, %rcx
	movw	%ax, 8146(%rcx)
	movq	img, %rcx
	movw	%ax, 8126(%rcx)
	movl	-104(%rbp), %eax
	addl	-96(%rbp), %eax
	movl	-100(%rbp), %ecx
	shll	$1, %ecx
	addl	%ecx, %eax
	addl	$2, %eax
	sarl	$2, %eax
	movq	img, %rcx
	movw	%ax, 8148(%rcx)
	movq	img, %rcx
	movw	%ax, 8128(%rcx)
	movl	-100(%rbp), %eax
	addl	-92(%rbp), %eax
	movl	-96(%rbp), %ecx
	shll	$1, %ecx
	addl	%ecx, %eax
	addl	$2, %eax
	sarl	$2, %eax
	movq	img, %rcx
	movw	%ax, 8150(%rcx)
	movq	img, %rcx
	movw	%ax, 8130(%rcx)
	movl	-96(%rbp), %eax
	addl	-88(%rbp), %eax
	movl	-92(%rbp), %ecx
	shll	$1, %ecx
	addl	%ecx, %eax
	addl	$2, %eax
	sarl	$2, %eax
	movq	img, %rcx
	movw	%ax, 8132(%rcx)
	movl	-92(%rbp), %eax
	addl	-84(%rbp), %eax
	movl	-88(%rbp), %ecx
	shll	$1, %ecx
	addl	%ecx, %eax
	addl	$2, %eax
	sarl	$2, %eax
	movq	img, %rcx
	movw	%ax, 8134(%rcx)
.LBB11_80:                              # %if.end2641
	cmpl	$0, -116(%rbp)
	je	.LBB11_82
# %bb.81:                               # %if.then2643
	movl	-44(%rbp), %eax
	addl	-40(%rbp), %eax
	addl	$1, %eax
	sarl	$1, %eax
	movq	img, %rcx
	movw	%ax, 8376(%rcx)
	movl	-40(%rbp), %eax
	addl	-36(%rbp), %eax
	addl	$1, %eax
	sarl	$1, %eax
	movq	img, %rcx
	movw	%ax, 8380(%rcx)
	movq	img, %rcx
	movw	%ax, 8392(%rcx)
	movl	-36(%rbp), %eax
	addl	-32(%rbp), %eax
	addl	$1, %eax
	sarl	$1, %eax
	movq	img, %rcx
	movw	%ax, 8384(%rcx)
	movq	img, %rcx
	movw	%ax, 8396(%rcx)
	movq	img, %rcx
	movw	%ax, 8408(%rcx)
	movl	-32(%rbp), %eax
	addl	-28(%rbp), %eax
	addl	$1, %eax
	sarl	$1, %eax
	movq	img, %rcx
	movw	%ax, 8388(%rcx)
	movq	img, %rcx
	movw	%ax, 8400(%rcx)
	movq	img, %rcx
	movw	%ax, 8412(%rcx)
	movq	img, %rcx
	movw	%ax, 8424(%rcx)
	movl	-28(%rbp), %eax
	addl	-24(%rbp), %eax
	addl	$1, %eax
	sarl	$1, %eax
	movq	img, %rcx
	movw	%ax, 8404(%rcx)
	movq	img, %rcx
	movw	%ax, 8416(%rcx)
	movq	img, %rcx
	movw	%ax, 8428(%rcx)
	movq	img, %rcx
	movw	%ax, 8440(%rcx)
	movl	-24(%rbp), %eax
	addl	-20(%rbp), %eax
	addl	$1, %eax
	sarl	$1, %eax
	movq	img, %rcx
	movw	%ax, 8420(%rcx)
	movq	img, %rcx
	movw	%ax, 8432(%rcx)
	movq	img, %rcx
	movw	%ax, 8444(%rcx)
	movq	img, %rcx
	movw	%ax, 8456(%rcx)
	movl	-20(%rbp), %eax
	addl	-16(%rbp), %eax
	addl	$1, %eax
	sarl	$1, %eax
	movq	img, %rcx
	movw	%ax, 8436(%rcx)
	movq	img, %rcx
	movw	%ax, 8448(%rcx)
	movq	img, %rcx
	movw	%ax, 8460(%rcx)
	movq	img, %rcx
	movw	%ax, 8472(%rcx)
	movl	-16(%rbp), %eax
	movq	img, %rcx
	movw	%ax, 8502(%rcx)
	movq	img, %rcx
	movw	%ax, 8500(%rcx)
	movq	img, %rcx
	movw	%ax, 8498(%rcx)
	movq	img, %rcx
	movw	%ax, 8496(%rcx)
	movq	img, %rcx
	movw	%ax, 8494(%rcx)
	movq	img, %rcx
	movw	%ax, 8492(%rcx)
	movq	img, %rcx
	movw	%ax, 8490(%rcx)
	movq	img, %rcx
	movw	%ax, 8488(%rcx)
	movq	img, %rcx
	movw	%ax, 8486(%rcx)
	movq	img, %rcx
	movw	%ax, 8484(%rcx)
	movq	img, %rcx
	movw	%ax, 8482(%rcx)
	movq	img, %rcx
	movw	%ax, 8480(%rcx)
	movq	img, %rcx
	movw	%ax, 8478(%rcx)
	movq	img, %rcx
	movw	%ax, 8476(%rcx)
	movq	img, %rcx
	movw	%ax, 8470(%rcx)
	movq	img, %rcx
	movw	%ax, 8468(%rcx)
	movq	img, %rcx
	movw	%ax, 8466(%rcx)
	movq	img, %rcx
	movw	%ax, 8464(%rcx)
	movq	img, %rcx
	movw	%ax, 8454(%rcx)
	movq	img, %rcx
	movw	%ax, 8452(%rcx)
	movl	-20(%rbp), %eax
	imull	$3, -16(%rbp), %ecx
	addl	%ecx, %eax
	addl	$2, %eax
	sarl	$2, %eax
	movq	img, %rcx
	movw	%ax, 8438(%rcx)
	movq	img, %rcx
	movw	%ax, 8450(%rcx)
	movq	img, %rcx
	movw	%ax, 8462(%rcx)
	movq	img, %rcx
	movw	%ax, 8474(%rcx)
	movl	-16(%rbp), %eax
	addl	-24(%rbp), %eax
	movl	-20(%rbp), %ecx
	shll	$1, %ecx
	addl	%ecx, %eax
	addl	$2, %eax
	sarl	$2, %eax
	movq	img, %rcx
	movw	%ax, 8422(%rcx)
	movq	img, %rcx
	movw	%ax, 8434(%rcx)
	movq	img, %rcx
	movw	%ax, 8446(%rcx)
	movq	img, %rcx
	movw	%ax, 8458(%rcx)
	movl	-20(%rbp), %eax
	addl	-28(%rbp), %eax
	movl	-24(%rbp), %ecx
	shll	$1, %ecx
	addl	%ecx, %eax
	addl	$2, %eax
	sarl	$2, %eax
	movq	img, %rcx
	movw	%ax, 8406(%rcx)
	movq	img, %rcx
	movw	%ax, 8418(%rcx)
	movq	img, %rcx
	movw	%ax, 8430(%rcx)
	movq	img, %rcx
	movw	%ax, 8442(%rcx)
	movl	-24(%rbp), %eax
	addl	-32(%rbp), %eax
	movl	-28(%rbp), %ecx
	shll	$1, %ecx
	addl	%ecx, %eax
	addl	$2, %eax
	sarl	$2, %eax
	movq	img, %rcx
	movw	%ax, 8390(%rcx)
	movq	img, %rcx
	movw	%ax, 8402(%rcx)
	movq	img, %rcx
	movw	%ax, 8414(%rcx)
	movq	img, %rcx
	movw	%ax, 8426(%rcx)
	movl	-28(%rbp), %eax
	addl	-36(%rbp), %eax
	movl	-32(%rbp), %ecx
	shll	$1, %ecx
	addl	%ecx, %eax
	addl	$2, %eax
	sarl	$2, %eax
	movq	img, %rcx
	movw	%ax, 8386(%rcx)
	movq	img, %rcx
	movw	%ax, 8398(%rcx)
	movq	img, %rcx
	movw	%ax, 8410(%rcx)
	movl	-32(%rbp), %eax
	addl	-40(%rbp), %eax
	movl	-36(%rbp), %ecx
	shll	$1, %ecx
	addl	%ecx, %eax
	addl	$2, %eax
	sarl	$2, %eax
	movq	img, %rcx
	movw	%ax, 8382(%rcx)
	movq	img, %rcx
	movw	%ax, 8394(%rcx)
	movl	-36(%rbp), %eax
	addl	-44(%rbp), %eax
	movl	-40(%rbp), %ecx
	shll	$1, %ecx
	addl	%ecx, %eax
	addl	$2, %eax
	sarl	$2, %eax
	movq	img, %rcx
	movw	%ax, 8378(%rcx)
.LBB11_82:                              # %if.end3005
	cmpl	$377429699, -224(%rbp)  # imm = 0x167F1EC3
	jne	.LBB11_84
.LBB11_83:
	addq	$464, %rsp              # imm = 0x1D0
	popq	%rbp
	.cfi_def_cfa %rsp, 8
	retq
.LBB11_84:                              # %func_exit
	.cfi_def_cfa %rbp, 16
	callq	detect_breach
	jmp	.LBB11_83
.Lfunc_end11:
	.size	intrapred_luma8x8.6, .Lfunc_end11-intrapred_luma8x8.6
	.cfi_endproc
                                        # -- End function
	.globl	RDCost_for_8x8IntraBlocks.7 # -- Begin function RDCost_for_8x8IntraBlocks.7
	.p2align	4, 0x90
	.type	RDCost_for_8x8IntraBlocks.7,@function
RDCost_for_8x8IntraBlocks.7:            # @RDCost_for_8x8IntraBlocks.7
	.cfi_startproc
# %bb.0:                                # %entry
	pushq	%rbp
	.cfi_def_cfa_offset 16
	.cfi_offset %rbp, -16
	movq	%rsp, %rbp
	.cfi_def_cfa_register %rbp
	subq	$176, %rsp
	movl	$1896185805, -68(%rbp)  # imm = 0x71057FCD
	movq	%rdi, -168(%rbp)
	movl	%esi, -8(%rbp)
	movl	%edx, -32(%rbp)
	vmovsd	%xmm0, -144(%rbp)
	vmovsd	%xmm1, -176(%rbp)
	movl	%ecx, -36(%rbp)
	vxorps	%xmm0, %xmm0, %xmm0
	vmovsd	%xmm0, -112(%rbp)
	movq	$0, -64(%rbp)
	movl	-8(%rbp), %eax
	cltd
	movl	$2, %ecx
	idivl	%ecx
	shll	$3, %edx
	movl	%edx, -72(%rbp)
	movl	-8(%rbp), %eax
	cltd
	idivl	%ecx
	shll	$3, %eax
	movl	%eax, -44(%rbp)
	movq	img, %rax
	movl	152(%rax), %eax
	addl	-72(%rbp), %eax
	movl	%eax, -40(%rbp)
	movq	img, %rax
	movl	156(%rax), %eax
	addl	-44(%rbp), %eax
	movl	%eax, -76(%rbp)
	movq	img, %rax
	movl	172(%rax), %eax
	addl	-44(%rbp), %eax
	movl	%eax, -84(%rbp)
	movq	imgY_org, %rax
	movq	%rax, -160(%rbp)
	movq	enc_picture, %rax
	movq	6424(%rax), %rax
	movq	%rax, -152(%rbp)
	movq	img, %rax
	movq	14160(%rax), %rax
	movq	%rax, -128(%rbp)
	movq	img, %rax
	movq	14168(%rax), %rax
	movq	img, %rcx
	movslq	12(%rcx), %rcx
	imulq	$632, %rcx, %rcx        # imm = 0x278
	addq	%rcx, %rax
	movq	%rax, -120(%rbp)
	movq	img, %rax
	addq	$14176, %rax            # imm = 0x3760
	movq	-120(%rbp), %rcx
	movslq	(%rcx), %rcx
	imulq	$48, %rcx, %rcx
	addq	%rcx, %rax
	movq	%rax, -24(%rbp)
	movq	input, %rax
	movslq	2364(%rax), %rax
	movq	assignSE2partition(,%rax,8), %rax
	movq	%rax, -96(%rbp)
	movl	$0, -80(%rbp)
	movl	-8(%rbp), %edi
	leaq	-80(%rbp), %rsi
	movl	$1, %edx
	callq	dct_luma8x8
	movq	-168(%rbp), %rcx
	movl	%eax, (%rcx)
	movl	$0, -12(%rbp)
.LBB12_1:                               # %for.cond
                                        # =>This Loop Header: Depth=1
                                        #     Child Loop BB12_3 Depth 2
	cmpl	$8, -12(%rbp)
	jge	.LBB12_8
# %bb.2:                                # %for.body
                                        #   in Loop: Header=BB12_1 Depth=1
	movl	-40(%rbp), %eax
	movl	%eax, -16(%rbp)
.LBB12_3:                               # %for.cond9
                                        #   Parent Loop BB12_1 Depth=1
                                        # =>  This Inner Loop Header: Depth=2
	movl	-16(%rbp), %eax
	movl	-40(%rbp), %ecx
	addl	$8, %ecx
	cmpl	%ecx, %eax
	jge	.LBB12_6
# %bb.4:                                # %for.body12
                                        #   in Loop: Header=BB12_3 Depth=2
	movq	img, %rax
	movq	71776(%rax), %rax
	movq	-160(%rbp), %rcx
	movl	-84(%rbp), %edx
	addl	-12(%rbp), %edx
	movslq	%edx, %rdx
	movq	(%rcx,%rdx,8), %rcx
	movslq	-16(%rbp), %rdx
	movzwl	(%rcx,%rdx,2), %ecx
	movq	-152(%rbp), %rdx
	movl	-76(%rbp), %esi
	addl	-12(%rbp), %esi
	movslq	%esi, %rsi
	movq	(%rdx,%rsi,8), %rdx
	movslq	-16(%rbp), %rsi
	movzwl	(%rdx,%rsi,2), %edx
	subl	%edx, %ecx
	movslq	%ecx, %rcx
	movslq	(%rax,%rcx,4), %rax
	addq	-64(%rbp), %rax
	movq	%rax, -64(%rbp)
# %bb.5:                                # %for.inc
                                        #   in Loop: Header=BB12_3 Depth=2
	movl	-16(%rbp), %eax
	addl	$1, %eax
	movl	%eax, -16(%rbp)
	jmp	.LBB12_3
.LBB12_6:                               # %for.end
                                        #   in Loop: Header=BB12_1 Depth=1
	jmp	.LBB12_7
.LBB12_7:                               # %for.inc28
                                        #   in Loop: Header=BB12_1 Depth=1
	movl	-12(%rbp), %eax
	addl	$1, %eax
	movl	%eax, -12(%rbp)
	jmp	.LBB12_1
.LBB12_8:                               # %for.end30
	movl	-36(%rbp), %eax
	cmpl	-32(%rbp), %eax
	jne	.LBB12_10
# %bb.9:                                # %cond.true
	movl	$4294967295, %eax       # imm = 0xFFFFFFFF
	jmp	.LBB12_14
.LBB12_10:                              # %cond.false
	movl	-32(%rbp), %eax
	cmpl	-36(%rbp), %eax
	jge	.LBB12_12
# %bb.11:                               # %cond.true35
	movl	-32(%rbp), %eax
	jmp	.LBB12_13
.LBB12_12:                              # %cond.false36
	movl	-32(%rbp), %eax
	subl	$1, %eax
.LBB12_13:                              # %cond.end
.LBB12_14:                              # %cond.end38
	movq	-24(%rbp), %rcx
	movl	%eax, 4(%rcx)
	movl	-8(%rbp), %eax
	movq	-24(%rbp), %rcx
	movl	%eax, 24(%rcx)
	movq	-24(%rbp), %rax
	movl	$4, (%rax)
	movq	input, %rax
	cmpl	$0, 2356(%rax)
	je	.LBB12_16
# %bb.15:                               # %if.then
	movq	-24(%rbp), %rax
	movabsq	$writeIntraPredMode_CABAC, %rcx
	movq	%rcx, 40(%rax)
.LBB12_16:                              # %if.end
	movq	img, %rax
	cmpl	$1, 24(%rax)
	je	.LBB12_18
# %bb.17:                               # %if.then45
	movq	-128(%rbp), %rax
	movq	24(%rax), %rax
	movq	-96(%rbp), %rcx
	movslq	16(%rcx), %rcx
	imulq	$120, %rcx, %rcx
	addq	%rcx, %rax
	movq	%rax, -56(%rbp)
	jmp	.LBB12_19
.LBB12_18:                              # %if.else
	movq	-128(%rbp), %rax
	movq	24(%rax), %rax
	movq	-96(%rbp), %rcx
	movslq	72(%rcx), %rcx
	imulq	$120, %rcx, %rcx
	addq	%rcx, %rax
	movq	%rax, -56(%rbp)
.LBB12_19:                              # %if.end53
	movq	input, %rax
	cmpl	$0, 2356(%rax)
	jne	.LBB12_21
# %bb.20:                               # %if.then57
	movq	-24(%rbp), %rdi
	movq	-56(%rbp), %rsi
	callq	writeSyntaxElement_Intra4x4PredictionMode
	jmp	.LBB12_22
.LBB12_21:                              # %if.else59
	movq	-56(%rbp), %rax
	movq	112(%rax), %rax
	movq	-24(%rbp), %rdi
	movq	-56(%rbp), %rsi
	callq	*%rax
.LBB12_22:                              # %if.end61
	movq	-24(%rbp), %rax
	movl	12(%rax), %eax
	movl	%eax, -4(%rbp)
	movq	-24(%rbp), %rax
	addq	$48, %rax
	movq	%rax, -24(%rbp)
	movq	-120(%rbp), %rax
	movl	(%rax), %ecx
	addl	$1, %ecx
	movl	%ecx, (%rax)
	movq	input, %rax
	cmpl	$0, 2356(%rax)
	jne	.LBB12_28
# %bb.23:                               # %if.then67
	movl	$0, -28(%rbp)
.LBB12_24:                              # %for.cond68
                                        # =>This Inner Loop Header: Depth=1
	cmpl	$4, -28(%rbp)
	jge	.LBB12_27
# %bb.25:                               # %for.body71
                                        #   in Loop: Header=BB12_24 Depth=1
	movl	-8(%rbp), %esi
	movl	-28(%rbp), %edx
	xorl	%edi, %edi
	xorl	%ecx, %ecx
	callq	writeCoeff4x4_CAVLC
	addl	-4(%rbp), %eax
	movl	%eax, -4(%rbp)
# %bb.26:                               # %for.inc74
                                        #   in Loop: Header=BB12_24 Depth=1
	movl	-28(%rbp), %eax
	addl	$1, %eax
	movl	%eax, -28(%rbp)
	jmp	.LBB12_24
.LBB12_27:                              # %for.end76
	jmp	.LBB12_29
.LBB12_28:                              # %if.else77
	movl	-8(%rbp), %edi
	movl	$1, %esi
	callq	writeLumaCoeff8x8_CABAC
	addl	-4(%rbp), %eax
	movl	%eax, -4(%rbp)
.LBB12_29:                              # %if.end80
	vcvtsi2sdq	-64(%rbp), %xmm0, %xmm0
	vmovsd	-144(%rbp), %xmm1       # xmm1 = mem[0],zero
	vcvtsi2sdl	-4(%rbp), %xmm0, %xmm2
	vmulsd	%xmm2, %xmm1, %xmm1
	vaddsd	%xmm1, %xmm0, %xmm0
	vmovsd	%xmm0, -112(%rbp)
	movq	img, %rax
	cmpl	$0, 72724(%rax)
	je	.LBB12_31
# %bb.30:                               # %if.then85
	vcvtsi2sdl	-4(%rbp), %xmm0, %xmm0
	vmovsd	%xmm0, -104(%rbp)
	jmp	.LBB12_32
.LBB12_31:                              # %if.else87
	vmovsd	-112(%rbp), %xmm0       # xmm0 = mem[0],zero
	vmovsd	%xmm0, -104(%rbp)
.LBB12_32:                              # %return
	vmovsd	-104(%rbp), %xmm0       # xmm0 = mem[0],zero
	cmpl	$1896185805, -68(%rbp)  # imm = 0x71057FCD
	jne	.LBB12_34
.LBB12_33:
	addq	$176, %rsp
	popq	%rbp
	.cfi_def_cfa %rsp, 8
	retq
.LBB12_34:                              # %func_exit
	.cfi_def_cfa %rbp, 16
	vmovsd	%xmm0, -136(%rbp)       # 8-byte Spill
	callq	detect_breach
	vmovsd	-136(%rbp), %xmm0       # 8-byte Reload
                                        # xmm0 = mem[0],zero
	jmp	.LBB12_33
.Lfunc_end12:
	.size	RDCost_for_8x8IntraBlocks.7, .Lfunc_end12-RDCost_for_8x8IntraBlocks.7
	.cfi_endproc
                                        # -- End function
	.globl	LowPassForIntra8x8Pred.8 # -- Begin function LowPassForIntra8x8Pred.8
	.p2align	4, 0x90
	.type	LowPassForIntra8x8Pred.8,@function
LowPassForIntra8x8Pred.8:               # @LowPassForIntra8x8Pred.8
	.cfi_startproc
# %bb.0:                                # %entry
	pushq	%rbp
	.cfi_def_cfa_offset 16
	.cfi_offset %rbp, -16
	movq	%rsp, %rbp
	.cfi_def_cfa_register %rbp
	subq	$144, %rsp
	movl	$1288310981, -32(%rbp)  # imm = 0x4CCA10C5
	movq	%rdi, -16(%rbp)
	movl	%esi, -20(%rbp)
	movl	%edx, -28(%rbp)
	movl	%ecx, -24(%rbp)
	movl	$0, -4(%rbp)
.LBB13_1:                               # %for.cond
                                        # =>This Inner Loop Header: Depth=1
	cmpl	$25, -4(%rbp)
	jge	.LBB13_4
# %bb.2:                                # %for.body
                                        #   in Loop: Header=BB13_1 Depth=1
	movq	-16(%rbp), %rax
	movslq	-4(%rbp), %rcx
	movl	(%rax,%rcx,4), %eax
	movslq	-4(%rbp), %rcx
	movl	%eax, -144(%rbp,%rcx,4)
# %bb.3:                                # %for.inc
                                        #   in Loop: Header=BB13_1 Depth=1
	movl	-4(%rbp), %eax
	addl	$1, %eax
	movl	%eax, -4(%rbp)
	jmp	.LBB13_1
.LBB13_4:                               # %for.end
	cmpl	$0, -28(%rbp)
	je	.LBB13_13
# %bb.5:                                # %if.then
	cmpl	$0, -20(%rbp)
	je	.LBB13_7
# %bb.6:                                # %if.then4
	movq	-16(%rbp), %rax
	movl	(%rax), %eax
	movq	-16(%rbp), %rcx
	movl	4(%rcx), %ecx
	shll	$1, %ecx
	addl	%ecx, %eax
	movq	-16(%rbp), %rcx
	addl	8(%rcx), %eax
	addl	$2, %eax
	sarl	$2, %eax
	movl	%eax, -140(%rbp)
	jmp	.LBB13_8
.LBB13_7:                               # %if.else
	movq	-16(%rbp), %rax
	movl	4(%rax), %eax
	movq	-16(%rbp), %rcx
	movl	4(%rcx), %ecx
	shll	$1, %ecx
	addl	%ecx, %eax
	movq	-16(%rbp), %rcx
	addl	8(%rcx), %eax
	addl	$2, %eax
	sarl	$2, %eax
	movl	%eax, -140(%rbp)
.LBB13_8:                               # %if.end
	movl	$2, -4(%rbp)
.LBB13_9:                               # %for.cond26
                                        # =>This Inner Loop Header: Depth=1
	cmpl	$16, -4(%rbp)
	jge	.LBB13_12
# %bb.10:                               # %for.body28
                                        #   in Loop: Header=BB13_9 Depth=1
	movq	-16(%rbp), %rax
	movl	-4(%rbp), %ecx
	subl	$1, %ecx
	movslq	%ecx, %rcx
	movl	(%rax,%rcx,4), %eax
	movq	-16(%rbp), %rcx
	movslq	-4(%rbp), %rdx
	movl	(%rcx,%rdx,4), %ecx
	shll	$1, %ecx
	addl	%ecx, %eax
	movq	-16(%rbp), %rcx
	movl	-4(%rbp), %edx
	addl	$1, %edx
	movslq	%edx, %rdx
	addl	(%rcx,%rdx,4), %eax
	addl	$2, %eax
	sarl	$2, %eax
	movslq	-4(%rbp), %rcx
	movl	%eax, -144(%rbp,%rcx,4)
# %bb.11:                               # %for.inc46
                                        #   in Loop: Header=BB13_9 Depth=1
	movl	-4(%rbp), %eax
	addl	$1, %eax
	movl	%eax, -4(%rbp)
	jmp	.LBB13_9
.LBB13_12:                              # %for.end48
	movq	-16(%rbp), %rax
	movl	64(%rax), %eax
	movq	-16(%rbp), %rcx
	movl	64(%rcx), %ecx
	shll	$1, %ecx
	addl	%ecx, %eax
	movq	-16(%rbp), %rcx
	addl	60(%rcx), %eax
	addl	$2, %eax
	sarl	$2, %eax
	movl	%eax, -80(%rbp)
.LBB13_13:                              # %if.end58
	cmpl	$0, -20(%rbp)
	je	.LBB13_24
# %bb.14:                               # %if.then60
	cmpl	$0, -28(%rbp)
	je	.LBB13_17
# %bb.15:                               # %land.lhs.true
	cmpl	$0, -24(%rbp)
	je	.LBB13_17
# %bb.16:                               # %if.then63
	movq	-16(%rbp), %rax
	movl	68(%rax), %eax
	movq	-16(%rbp), %rcx
	movl	(%rcx), %ecx
	shll	$1, %ecx
	addl	%ecx, %eax
	movq	-16(%rbp), %rcx
	addl	4(%rcx), %eax
	addl	$2, %eax
	sarl	$2, %eax
	movl	%eax, -144(%rbp)
	jmp	.LBB13_23
.LBB13_17:                              # %if.else73
	cmpl	$0, -28(%rbp)
	je	.LBB13_19
# %bb.18:                               # %if.then75
	movq	-16(%rbp), %rax
	movl	(%rax), %eax
	movq	-16(%rbp), %rcx
	movl	(%rcx), %ecx
	shll	$1, %ecx
	addl	%ecx, %eax
	movq	-16(%rbp), %rcx
	addl	4(%rcx), %eax
	addl	$2, %eax
	sarl	$2, %eax
	movl	%eax, -144(%rbp)
	jmp	.LBB13_22
.LBB13_19:                              # %if.else85
	cmpl	$0, -24(%rbp)
	je	.LBB13_21
# %bb.20:                               # %if.then87
	movq	-16(%rbp), %rax
	movl	(%rax), %eax
	movq	-16(%rbp), %rcx
	movl	(%rcx), %ecx
	shll	$1, %ecx
	addl	%ecx, %eax
	movq	-16(%rbp), %rcx
	addl	68(%rcx), %eax
	addl	$2, %eax
	sarl	$2, %eax
	movl	%eax, -144(%rbp)
.LBB13_21:                              # %if.end97
	jmp	.LBB13_22
.LBB13_22:                              # %if.end98
	jmp	.LBB13_23
.LBB13_23:                              # %if.end99
	jmp	.LBB13_24
.LBB13_24:                              # %if.end100
	cmpl	$0, -24(%rbp)
	je	.LBB13_33
# %bb.25:                               # %if.then102
	cmpl	$0, -20(%rbp)
	je	.LBB13_27
# %bb.26:                               # %if.then104
	movq	-16(%rbp), %rax
	movl	(%rax), %eax
	movq	-16(%rbp), %rcx
	movl	68(%rcx), %ecx
	shll	$1, %ecx
	addl	%ecx, %eax
	movq	-16(%rbp), %rcx
	addl	72(%rcx), %eax
	addl	$2, %eax
	sarl	$2, %eax
	movl	%eax, -76(%rbp)
	jmp	.LBB13_28
.LBB13_27:                              # %if.else114
	movq	-16(%rbp), %rax
	movl	68(%rax), %eax
	movq	-16(%rbp), %rcx
	movl	68(%rcx), %ecx
	shll	$1, %ecx
	addl	%ecx, %eax
	movq	-16(%rbp), %rcx
	addl	72(%rcx), %eax
	addl	$2, %eax
	sarl	$2, %eax
	movl	%eax, -76(%rbp)
.LBB13_28:                              # %if.end124
	movl	$18, -4(%rbp)
.LBB13_29:                              # %for.cond125
                                        # =>This Inner Loop Header: Depth=1
	cmpl	$24, -4(%rbp)
	jge	.LBB13_32
# %bb.30:                               # %for.body127
                                        #   in Loop: Header=BB13_29 Depth=1
	movq	-16(%rbp), %rax
	movl	-4(%rbp), %ecx
	subl	$1, %ecx
	movslq	%ecx, %rcx
	movl	(%rax,%rcx,4), %eax
	movq	-16(%rbp), %rcx
	movslq	-4(%rbp), %rdx
	movl	(%rcx,%rdx,4), %ecx
	shll	$1, %ecx
	addl	%ecx, %eax
	movq	-16(%rbp), %rcx
	movl	-4(%rbp), %edx
	addl	$1, %edx
	movslq	%edx, %rdx
	addl	(%rcx,%rdx,4), %eax
	addl	$2, %eax
	sarl	$2, %eax
	movslq	-4(%rbp), %rcx
	movl	%eax, -144(%rbp,%rcx,4)
# %bb.31:                               # %for.inc146
                                        #   in Loop: Header=BB13_29 Depth=1
	movl	-4(%rbp), %eax
	addl	$1, %eax
	movl	%eax, -4(%rbp)
	jmp	.LBB13_29
.LBB13_32:                              # %for.end148
	movq	-16(%rbp), %rax
	movl	92(%rax), %eax
	movq	-16(%rbp), %rcx
	movl	96(%rcx), %ecx
	shll	$1, %ecx
	addl	%ecx, %eax
	movq	-16(%rbp), %rcx
	addl	96(%rcx), %eax
	addl	$2, %eax
	sarl	$2, %eax
	movl	%eax, -48(%rbp)
.LBB13_33:                              # %if.end158
	movl	$0, -4(%rbp)
.LBB13_34:                              # %for.cond159
                                        # =>This Inner Loop Header: Depth=1
	cmpl	$25, -4(%rbp)
	jge	.LBB13_37
# %bb.35:                               # %for.body161
                                        #   in Loop: Header=BB13_34 Depth=1
	movslq	-4(%rbp), %rax
	movl	-144(%rbp,%rax,4), %eax
	movq	-16(%rbp), %rcx
	movslq	-4(%rbp), %rdx
	movl	%eax, (%rcx,%rdx,4)
# %bb.36:                               # %for.inc166
                                        #   in Loop: Header=BB13_34 Depth=1
	movl	-4(%rbp), %eax
	addl	$1, %eax
	movl	%eax, -4(%rbp)
	jmp	.LBB13_34
.LBB13_37:                              # %for.end168
	cmpl	$1288310981, -32(%rbp)  # imm = 0x4CCA10C5
	jne	.LBB13_39
.LBB13_38:
	addq	$144, %rsp
	popq	%rbp
	.cfi_def_cfa %rsp, 8
	retq
.LBB13_39:                              # %func_exit
	.cfi_def_cfa %rbp, 16
	callq	detect_breach
	jmp	.LBB13_38
.Lfunc_end13:
	.size	LowPassForIntra8x8Pred.8, .Lfunc_end13-LowPassForIntra8x8Pred.8
	.cfi_endproc
                                        # -- End function
	.section	.rodata.cst8,"aM",@progbits,8
	.p2align	3               # -- Begin function Mode_Decision_for_new_Intra8x8Macroblock.9
.LCPI14_0:
	.quad	4602677017732795964     # double 0.49990000000000001
.LCPI14_1:
	.quad	4618441417868443648     # double 6
	.text
	.globl	Mode_Decision_for_new_Intra8x8Macroblock.9
	.p2align	4, 0x90
	.type	Mode_Decision_for_new_Intra8x8Macroblock.9,@function
Mode_Decision_for_new_Intra8x8Macroblock.9: # @Mode_Decision_for_new_Intra8x8Macroblock.9
	.cfi_startproc
# %bb.0:                                # %entry
	pushq	%rbp
	.cfi_def_cfa_offset 16
	.cfi_offset %rbp, -16
	movq	%rsp, %rbp
	.cfi_def_cfa_register %rbp
	pushq	%rbx
	subq	$40, %rsp
	.cfi_offset %rbx, -24
	vmovsd	.LCPI14_0(%rip), %xmm1  # xmm1 = mem[0],zero
	vmovsd	.LCPI14_1(%rip), %xmm2  # xmm2 = mem[0],zero
	movl	$2052966214, -20(%rbp)  # imm = 0x7A5DC746
	vmovsd	%xmm0, -40(%rbp)
	movq	%rdi, -32(%rbp)
	movl	$0, -16(%rbp)
	vmulsd	-40(%rbp), %xmm2, %xmm0
	vaddsd	%xmm1, %xmm0, %xmm0
	vroundsd	$9, %xmm0, %xmm0, %xmm0
	vcvttsd2si	%xmm0, %eax
	movq	-32(%rbp), %rcx
	movl	%eax, (%rcx)
	movl	$0, -12(%rbp)
.LBB14_1:                               # %for.cond
                                        # =>This Inner Loop Header: Depth=1
	cmpl	$4, -12(%rbp)
	jge	.LBB14_6
# %bb.2:                                # %for.body
                                        #   in Loop: Header=BB14_1 Depth=1
	movl	-12(%rbp), %edi
	vmovsd	-40(%rbp), %xmm0        # xmm0 = mem[0],zero
	leaq	-24(%rbp), %rsi
	callq	Mode_Decision_for_new_8x8IntraBlocks
	cmpl	$0, %eax
	je	.LBB14_4
# %bb.3:                                # %if.then
                                        #   in Loop: Header=BB14_1 Depth=1
	movl	-12(%rbp), %ecx
                                        # kill: def $cl killed $ecx
	movl	$1, %eax
	shll	%cl, %eax
	orl	-16(%rbp), %eax
	movl	%eax, -16(%rbp)
.LBB14_4:                               # %if.end
                                        #   in Loop: Header=BB14_1 Depth=1
	movl	-24(%rbp), %eax
	movq	-32(%rbp), %rcx
	addl	(%rcx), %eax
	movl	%eax, (%rcx)
# %bb.5:                                # %for.inc
                                        #   in Loop: Header=BB14_1 Depth=1
	movl	-12(%rbp), %eax
	addl	$1, %eax
	movl	%eax, -12(%rbp)
	jmp	.LBB14_1
.LBB14_6:                               # %for.end
	movl	-16(%rbp), %ebx
	cmpl	$2052966214, -20(%rbp)  # imm = 0x7A5DC746
	jne	.LBB14_8
.LBB14_7:
	movl	%ebx, %eax
	addq	$40, %rsp
	popq	%rbx
	popq	%rbp
	.cfi_def_cfa %rsp, 8
	retq
.LBB14_8:                               # %func_exit
	.cfi_def_cfa %rbp, 16
	callq	detect_breach
	jmp	.LBB14_7
.Lfunc_end14:
	.size	Mode_Decision_for_new_Intra8x8Macroblock.9, .Lfunc_end14-Mode_Decision_for_new_Intra8x8Macroblock.9
	.cfi_endproc
                                        # -- End function
	.section	.rodata.cst8,"aM",@progbits,8
	.p2align	3               # -- Begin function Mode_Decision_for_new_Intra8x8Macroblock.10
.LCPI15_0:
	.quad	4602677017732795964     # double 0.49990000000000001
.LCPI15_1:
	.quad	4618441417868443648     # double 6
	.text
	.globl	Mode_Decision_for_new_Intra8x8Macroblock.10
	.p2align	4, 0x90
	.type	Mode_Decision_for_new_Intra8x8Macroblock.10,@function
Mode_Decision_for_new_Intra8x8Macroblock.10: # @Mode_Decision_for_new_Intra8x8Macroblock.10
	.cfi_startproc
# %bb.0:                                # %entry
	pushq	%rbp
	.cfi_def_cfa_offset 16
	.cfi_offset %rbp, -16
	movq	%rsp, %rbp
	.cfi_def_cfa_register %rbp
	pushq	%rbx
	subq	$40, %rsp
	.cfi_offset %rbx, -24
	vmovsd	.LCPI15_0(%rip), %xmm1  # xmm1 = mem[0],zero
	vmovsd	.LCPI15_1(%rip), %xmm2  # xmm2 = mem[0],zero
	movl	$1091303792, -20(%rbp)  # imm = 0x410BF970
	vmovsd	%xmm0, -32(%rbp)
	movq	%rdi, -40(%rbp)
	movl	$0, -16(%rbp)
	vmulsd	-32(%rbp), %xmm2, %xmm0
	vaddsd	%xmm1, %xmm0, %xmm0
	vroundsd	$9, %xmm0, %xmm0, %xmm0
	vcvttsd2si	%xmm0, %eax
	movq	-40(%rbp), %rcx
	movl	%eax, (%rcx)
	movl	$0, -12(%rbp)
.LBB15_1:                               # %for.cond
                                        # =>This Inner Loop Header: Depth=1
	cmpl	$4, -12(%rbp)
	jge	.LBB15_6
# %bb.2:                                # %for.body
                                        #   in Loop: Header=BB15_1 Depth=1
	movl	-12(%rbp), %edi
	vmovsd	-32(%rbp), %xmm0        # xmm0 = mem[0],zero
	leaq	-24(%rbp), %rsi
	callq	Mode_Decision_for_new_8x8IntraBlocks
	cmpl	$0, %eax
	je	.LBB15_4
# %bb.3:                                # %if.then
                                        #   in Loop: Header=BB15_1 Depth=1
	movl	-12(%rbp), %ecx
                                        # kill: def $cl killed $ecx
	movl	$1, %eax
	shll	%cl, %eax
	orl	-16(%rbp), %eax
	movl	%eax, -16(%rbp)
.LBB15_4:                               # %if.end
                                        #   in Loop: Header=BB15_1 Depth=1
	movl	-24(%rbp), %eax
	movq	-40(%rbp), %rcx
	addl	(%rcx), %eax
	movl	%eax, (%rcx)
# %bb.5:                                # %for.inc
                                        #   in Loop: Header=BB15_1 Depth=1
	movl	-12(%rbp), %eax
	addl	$1, %eax
	movl	%eax, -12(%rbp)
	jmp	.LBB15_1
.LBB15_6:                               # %for.end
	movl	-16(%rbp), %ebx
	cmpl	$1091303792, -20(%rbp)  # imm = 0x410BF970
	jne	.LBB15_8
.LBB15_7:
	movl	%ebx, %eax
	addq	$40, %rsp
	popq	%rbx
	popq	%rbp
	.cfi_def_cfa %rsp, 8
	retq
.LBB15_8:                               # %func_exit
	.cfi_def_cfa %rbp, 16
	callq	detect_breach
	jmp	.LBB15_7
.Lfunc_end15:
	.size	Mode_Decision_for_new_Intra8x8Macroblock.10, .Lfunc_end15-Mode_Decision_for_new_Intra8x8Macroblock.10
	.cfi_endproc
                                        # -- End function
	.globl	RDCost_for_8x8IntraBlocks.11 # -- Begin function RDCost_for_8x8IntraBlocks.11
	.p2align	4, 0x90
	.type	RDCost_for_8x8IntraBlocks.11,@function
RDCost_for_8x8IntraBlocks.11:           # @RDCost_for_8x8IntraBlocks.11
	.cfi_startproc
# %bb.0:                                # %entry
	pushq	%rbp
	.cfi_def_cfa_offset 16
	.cfi_offset %rbp, -16
	movq	%rsp, %rbp
	.cfi_def_cfa_register %rbp
	subq	$176, %rsp
	movl	$468449926, -72(%rbp)   # imm = 0x1BEBFA86
	movq	%rdi, -168(%rbp)
	movl	%esi, -4(%rbp)
	movl	%edx, -32(%rbp)
	vmovsd	%xmm0, -144(%rbp)
	vmovsd	%xmm1, -176(%rbp)
	movl	%ecx, -40(%rbp)
	vxorps	%xmm0, %xmm0, %xmm0
	vmovsd	%xmm0, -128(%rbp)
	movq	$0, -64(%rbp)
	movl	-4(%rbp), %eax
	cltd
	movl	$2, %ecx
	idivl	%ecx
	shll	$3, %edx
	movl	%edx, -76(%rbp)
	movl	-4(%rbp), %eax
	cltd
	idivl	%ecx
	shll	$3, %eax
	movl	%eax, -44(%rbp)
	movq	img, %rax
	movl	152(%rax), %eax
	addl	-76(%rbp), %eax
	movl	%eax, -36(%rbp)
	movq	img, %rax
	movl	156(%rax), %eax
	addl	-44(%rbp), %eax
	movl	%eax, -84(%rbp)
	movq	img, %rax
	movl	172(%rax), %eax
	addl	-44(%rbp), %eax
	movl	%eax, -80(%rbp)
	movq	imgY_org, %rax
	movq	%rax, -152(%rbp)
	movq	enc_picture, %rax
	movq	6424(%rax), %rax
	movq	%rax, -160(%rbp)
	movq	img, %rax
	movq	14160(%rax), %rax
	movq	%rax, -96(%rbp)
	movq	img, %rax
	movq	14168(%rax), %rax
	movq	img, %rcx
	movslq	12(%rcx), %rcx
	imulq	$632, %rcx, %rcx        # imm = 0x278
	addq	%rcx, %rax
	movq	%rax, -104(%rbp)
	movq	img, %rax
	addq	$14176, %rax            # imm = 0x3760
	movq	-104(%rbp), %rcx
	movslq	(%rcx), %rcx
	imulq	$48, %rcx, %rcx
	addq	%rcx, %rax
	movq	%rax, -24(%rbp)
	movq	input, %rax
	movslq	2364(%rax), %rax
	movq	assignSE2partition(,%rax,8), %rax
	movq	%rax, -120(%rbp)
	movl	$0, -68(%rbp)
	movl	-4(%rbp), %edi
	leaq	-68(%rbp), %rsi
	movl	$1, %edx
	callq	dct_luma8x8
	movq	-168(%rbp), %rcx
	movl	%eax, (%rcx)
	movl	$0, -12(%rbp)
.LBB16_1:                               # %for.cond
                                        # =>This Loop Header: Depth=1
                                        #     Child Loop BB16_3 Depth 2
	cmpl	$8, -12(%rbp)
	jge	.LBB16_8
# %bb.2:                                # %for.body
                                        #   in Loop: Header=BB16_1 Depth=1
	movl	-36(%rbp), %eax
	movl	%eax, -16(%rbp)
.LBB16_3:                               # %for.cond9
                                        #   Parent Loop BB16_1 Depth=1
                                        # =>  This Inner Loop Header: Depth=2
	movl	-16(%rbp), %eax
	movl	-36(%rbp), %ecx
	addl	$8, %ecx
	cmpl	%ecx, %eax
	jge	.LBB16_6
# %bb.4:                                # %for.body12
                                        #   in Loop: Header=BB16_3 Depth=2
	movq	img, %rax
	movq	71776(%rax), %rax
	movq	-152(%rbp), %rcx
	movl	-80(%rbp), %edx
	addl	-12(%rbp), %edx
	movslq	%edx, %rdx
	movq	(%rcx,%rdx,8), %rcx
	movslq	-16(%rbp), %rdx
	movzwl	(%rcx,%rdx,2), %ecx
	movq	-160(%rbp), %rdx
	movl	-84(%rbp), %esi
	addl	-12(%rbp), %esi
	movslq	%esi, %rsi
	movq	(%rdx,%rsi,8), %rdx
	movslq	-16(%rbp), %rsi
	movzwl	(%rdx,%rsi,2), %edx
	subl	%edx, %ecx
	movslq	%ecx, %rcx
	movslq	(%rax,%rcx,4), %rax
	addq	-64(%rbp), %rax
	movq	%rax, -64(%rbp)
# %bb.5:                                # %for.inc
                                        #   in Loop: Header=BB16_3 Depth=2
	movl	-16(%rbp), %eax
	addl	$1, %eax
	movl	%eax, -16(%rbp)
	jmp	.LBB16_3
.LBB16_6:                               # %for.end
                                        #   in Loop: Header=BB16_1 Depth=1
	jmp	.LBB16_7
.LBB16_7:                               # %for.inc28
                                        #   in Loop: Header=BB16_1 Depth=1
	movl	-12(%rbp), %eax
	addl	$1, %eax
	movl	%eax, -12(%rbp)
	jmp	.LBB16_1
.LBB16_8:                               # %for.end30
	movl	-40(%rbp), %eax
	cmpl	-32(%rbp), %eax
	jne	.LBB16_10
# %bb.9:                                # %cond.true
	movl	$4294967295, %eax       # imm = 0xFFFFFFFF
	jmp	.LBB16_14
.LBB16_10:                              # %cond.false
	movl	-32(%rbp), %eax
	cmpl	-40(%rbp), %eax
	jge	.LBB16_12
# %bb.11:                               # %cond.true35
	movl	-32(%rbp), %eax
	jmp	.LBB16_13
.LBB16_12:                              # %cond.false36
	movl	-32(%rbp), %eax
	subl	$1, %eax
.LBB16_13:                              # %cond.end
.LBB16_14:                              # %cond.end38
	movq	-24(%rbp), %rcx
	movl	%eax, 4(%rcx)
	movl	-4(%rbp), %eax
	movq	-24(%rbp), %rcx
	movl	%eax, 24(%rcx)
	movq	-24(%rbp), %rax
	movl	$4, (%rax)
	movq	input, %rax
	cmpl	$0, 2356(%rax)
	je	.LBB16_16
# %bb.15:                               # %if.then
	movq	-24(%rbp), %rax
	movabsq	$writeIntraPredMode_CABAC, %rcx
	movq	%rcx, 40(%rax)
.LBB16_16:                              # %if.end
	movq	img, %rax
	cmpl	$1, 24(%rax)
	je	.LBB16_18
# %bb.17:                               # %if.then45
	movq	-96(%rbp), %rax
	movq	24(%rax), %rax
	movq	-120(%rbp), %rcx
	movslq	16(%rcx), %rcx
	imulq	$120, %rcx, %rcx
	addq	%rcx, %rax
	movq	%rax, -56(%rbp)
	jmp	.LBB16_19
.LBB16_18:                              # %if.else
	movq	-96(%rbp), %rax
	movq	24(%rax), %rax
	movq	-120(%rbp), %rcx
	movslq	72(%rcx), %rcx
	imulq	$120, %rcx, %rcx
	addq	%rcx, %rax
	movq	%rax, -56(%rbp)
.LBB16_19:                              # %if.end53
	movq	input, %rax
	cmpl	$0, 2356(%rax)
	jne	.LBB16_21
# %bb.20:                               # %if.then57
	movq	-24(%rbp), %rdi
	movq	-56(%rbp), %rsi
	callq	writeSyntaxElement_Intra4x4PredictionMode
	jmp	.LBB16_22
.LBB16_21:                              # %if.else59
	movq	-56(%rbp), %rax
	movq	112(%rax), %rax
	movq	-24(%rbp), %rdi
	movq	-56(%rbp), %rsi
	callq	*%rax
.LBB16_22:                              # %if.end61
	movq	-24(%rbp), %rax
	movl	12(%rax), %eax
	movl	%eax, -8(%rbp)
	movq	-24(%rbp), %rax
	addq	$48, %rax
	movq	%rax, -24(%rbp)
	movq	-104(%rbp), %rax
	movl	(%rax), %ecx
	addl	$1, %ecx
	movl	%ecx, (%rax)
	movq	input, %rax
	cmpl	$0, 2356(%rax)
	jne	.LBB16_28
# %bb.23:                               # %if.then67
	movl	$0, -28(%rbp)
.LBB16_24:                              # %for.cond68
                                        # =>This Inner Loop Header: Depth=1
	cmpl	$4, -28(%rbp)
	jge	.LBB16_27
# %bb.25:                               # %for.body71
                                        #   in Loop: Header=BB16_24 Depth=1
	movl	-4(%rbp), %esi
	movl	-28(%rbp), %edx
	xorl	%edi, %edi
	xorl	%ecx, %ecx
	callq	writeCoeff4x4_CAVLC
	addl	-8(%rbp), %eax
	movl	%eax, -8(%rbp)
# %bb.26:                               # %for.inc74
                                        #   in Loop: Header=BB16_24 Depth=1
	movl	-28(%rbp), %eax
	addl	$1, %eax
	movl	%eax, -28(%rbp)
	jmp	.LBB16_24
.LBB16_27:                              # %for.end76
	jmp	.LBB16_29
.LBB16_28:                              # %if.else77
	movl	-4(%rbp), %edi
	movl	$1, %esi
	callq	writeLumaCoeff8x8_CABAC
	addl	-8(%rbp), %eax
	movl	%eax, -8(%rbp)
.LBB16_29:                              # %if.end80
	vcvtsi2sdq	-64(%rbp), %xmm0, %xmm0
	vmovsd	-144(%rbp), %xmm1       # xmm1 = mem[0],zero
	vcvtsi2sdl	-8(%rbp), %xmm0, %xmm2
	vmulsd	%xmm2, %xmm1, %xmm1
	vaddsd	%xmm1, %xmm0, %xmm0
	vmovsd	%xmm0, -128(%rbp)
	movq	img, %rax
	cmpl	$0, 72724(%rax)
	je	.LBB16_31
# %bb.30:                               # %if.then85
	vcvtsi2sdl	-8(%rbp), %xmm0, %xmm0
	vmovsd	%xmm0, -112(%rbp)
	jmp	.LBB16_32
.LBB16_31:                              # %if.else87
	vmovsd	-128(%rbp), %xmm0       # xmm0 = mem[0],zero
	vmovsd	%xmm0, -112(%rbp)
.LBB16_32:                              # %return
	vmovsd	-112(%rbp), %xmm0       # xmm0 = mem[0],zero
	cmpl	$468449926, -72(%rbp)   # imm = 0x1BEBFA86
	jne	.LBB16_34
.LBB16_33:
	addq	$176, %rsp
	popq	%rbp
	.cfi_def_cfa %rsp, 8
	retq
.LBB16_34:                              # %func_exit
	.cfi_def_cfa %rbp, 16
	vmovsd	%xmm0, -136(%rbp)       # 8-byte Spill
	callq	detect_breach
	vmovsd	-136(%rbp), %xmm0       # 8-byte Reload
                                        # xmm0 = mem[0],zero
	jmp	.LBB16_33
.Lfunc_end16:
	.size	RDCost_for_8x8IntraBlocks.11, .Lfunc_end16-RDCost_for_8x8IntraBlocks.11
	.cfi_endproc
                                        # -- End function
	.globl	intrapred_luma8x8.12    # -- Begin function intrapred_luma8x8.12
	.p2align	4, 0x90
	.type	intrapred_luma8x8.12,@function
intrapred_luma8x8.12:                   # @intrapred_luma8x8.12
	.cfi_startproc
# %bb.0:                                # %entry
	pushq	%rbp
	.cfi_def_cfa_offset 16
	.cfi_offset %rbp, -16
	movq	%rsp, %rbp
	.cfi_def_cfa_register %rbp
	subq	$464, %rsp              # imm = 0x1D0
	movl	$286120668, -224(%rbp)  # imm = 0x110DDADC
	movl	%edi, -212(%rbp)
	movl	%esi, -216(%rbp)
	movq	%rdx, -264(%rbp)
	movq	%rcx, -232(%rbp)
	movq	%r8, -272(%rbp)
	movq	enc_picture, %rax
	movq	6424(%rax), %rax
	movq	%rax, -128(%rbp)
	movl	-212(%rbp), %eax
	andl	$15, %eax
	movl	%eax, -152(%rbp)
	movl	-216(%rbp), %eax
	andl	$15, %eax
	movl	%eax, -144(%rbp)
	movq	img, %rax
	movl	12(%rax), %eax
	movl	%eax, -156(%rbp)
	movl	$0, -4(%rbp)
.LBB17_1:                               # %for.cond
                                        # =>This Inner Loop Header: Depth=1
	cmpl	$8, -4(%rbp)
	jge	.LBB17_4
# %bb.2:                                # %for.body
                                        #   in Loop: Header=BB17_1 Depth=1
	movl	-156(%rbp), %edi
	movl	-152(%rbp), %esi
	subl	$1, %esi
	movl	-144(%rbp), %edx
	addl	-4(%rbp), %edx
	movslq	-4(%rbp), %rax
	imulq	$24, %rax, %rax
	leaq	-464(%rbp), %r8
	addq	%rax, %r8
	movl	$1, %ecx
	callq	getNeighbour
# %bb.3:                                # %for.inc
                                        #   in Loop: Header=BB17_1 Depth=1
	movl	-4(%rbp), %eax
	addl	$1, %eax
	movl	%eax, -4(%rbp)
	jmp	.LBB17_1
.LBB17_4:                               # %for.end
	movl	-156(%rbp), %edi
	movl	-152(%rbp), %esi
	movl	-144(%rbp), %edx
	subl	$1, %edx
	movl	$1, %ecx
	leaq	-208(%rbp), %r8
	callq	getNeighbour
	movl	-156(%rbp), %edi
	movl	-152(%rbp), %esi
	addl	$8, %esi
	movl	-144(%rbp), %edx
	subl	$1, %edx
	movl	$1, %ecx
	leaq	-184(%rbp), %r8
	callq	getNeighbour
	movl	-156(%rbp), %edi
	movl	-152(%rbp), %esi
	subl	$1, %esi
	movl	-144(%rbp), %edx
	subl	$1, %edx
	movl	$1, %ecx
	leaq	-256(%rbp), %r8
	callq	getNeighbour
	xorl	%eax, %eax
	cmpl	$0, -184(%rbp)
	je	.LBB17_8
# %bb.5:                                # %land.rhs
	xorl	%eax, %eax
	cmpl	$8, -152(%rbp)
	jne	.LBB17_7
# %bb.6:                                # %land.rhs9
	cmpl	$8, -144(%rbp)
	sete	%al
.LBB17_7:                               # %land.end
	xorb	$-1, %al
.LBB17_8:                               # %land.end11
	andb	$1, %al
	movzbl	%al, %eax
	movl	%eax, -184(%rbp)
	movq	input, %rax
	cmpl	$0, 216(%rax)
	je	.LBB17_26
# %bb.9:                                # %if.then
	movl	$0, -4(%rbp)
	movl	$1, -116(%rbp)
.LBB17_10:                              # %for.cond14
                                        # =>This Inner Loop Header: Depth=1
	cmpl	$8, -4(%rbp)
	jge	.LBB17_16
# %bb.11:                               # %for.body16
                                        #   in Loop: Header=BB17_10 Depth=1
	movslq	-4(%rbp), %rax
	imulq	$24, %rax, %rax
	leaq	-464(%rbp), %rcx
	addq	%rax, %rcx
	cmpl	$0, (%rcx)
	je	.LBB17_13
# %bb.12:                               # %cond.true
                                        #   in Loop: Header=BB17_10 Depth=1
	movq	img, %rax
	movq	71784(%rax), %rax
	movslq	-4(%rbp), %rcx
	imulq	$24, %rcx, %rcx
	leaq	-464(%rbp), %rdx
	addq	%rcx, %rdx
	movslq	4(%rdx), %rcx
	movl	(%rax,%rcx,4), %eax
	jmp	.LBB17_14
.LBB17_13:                              # %cond.false
                                        #   in Loop: Header=BB17_10 Depth=1
	xorl	%eax, %eax
	jmp	.LBB17_14
.LBB17_14:                              # %cond.end
                                        #   in Loop: Header=BB17_10 Depth=1
	andl	-116(%rbp), %eax
	movl	%eax, -116(%rbp)
# %bb.15:                               # %for.inc26
                                        #   in Loop: Header=BB17_10 Depth=1
	movl	-4(%rbp), %eax
	addl	$1, %eax
	movl	%eax, -4(%rbp)
	jmp	.LBB17_10
.LBB17_16:                              # %for.end28
	cmpl	$0, -208(%rbp)
	je	.LBB17_18
# %bb.17:                               # %cond.true31
	movq	img, %rax
	movq	71784(%rax), %rax
	movslq	-204(%rbp), %rcx
	movl	(%rax,%rcx,4), %eax
	jmp	.LBB17_19
.LBB17_18:                              # %cond.false36
	xorl	%eax, %eax
	jmp	.LBB17_19
.LBB17_19:                              # %cond.end37
	movl	%eax, -132(%rbp)
	cmpl	$0, -184(%rbp)
	je	.LBB17_21
# %bb.20:                               # %cond.true41
	movq	img, %rax
	movq	71784(%rax), %rax
	movslq	-180(%rbp), %rcx
	movl	(%rax,%rcx,4), %eax
	jmp	.LBB17_22
.LBB17_21:                              # %cond.false46
	xorl	%eax, %eax
	jmp	.LBB17_22
.LBB17_22:                              # %cond.end47
	movl	%eax, -220(%rbp)
	cmpl	$0, -256(%rbp)
	je	.LBB17_24
# %bb.23:                               # %cond.true51
	movq	img, %rax
	movq	71784(%rax), %rax
	movslq	-252(%rbp), %rcx
	movl	(%rax,%rcx,4), %eax
	jmp	.LBB17_25
.LBB17_24:                              # %cond.false56
	xorl	%eax, %eax
	jmp	.LBB17_25
.LBB17_25:                              # %cond.end57
	movl	%eax, -140(%rbp)
	jmp	.LBB17_27
.LBB17_26:                              # %if.else
	movl	-464(%rbp), %eax
	movl	%eax, -116(%rbp)
	movl	-208(%rbp), %eax
	movl	%eax, -132(%rbp)
	movl	-184(%rbp), %eax
	movl	%eax, -220(%rbp)
	movl	-256(%rbp), %eax
	movl	%eax, -140(%rbp)
.LBB17_27:                              # %if.end
	xorl	%eax, %eax
	movl	-116(%rbp), %ecx
	movq	-264(%rbp), %rdx
	movl	%ecx, (%rdx)
	movl	-132(%rbp), %ecx
	movq	-232(%rbp), %rdx
	movl	%ecx, (%rdx)
	cmpl	$0, -132(%rbp)
	je	.LBB17_30
# %bb.28:                               # %land.lhs.true
	xorl	%eax, %eax
	cmpl	$0, -116(%rbp)
	je	.LBB17_30
# %bb.29:                               # %land.rhs66
	cmpl	$0, -140(%rbp)
	setne	%al
.LBB17_30:                              # %land.end68
	andb	$1, %al
	movzbl	%al, %eax
	movq	-272(%rbp), %rcx
	movl	%eax, (%rcx)
	movl	-212(%rbp), %eax
	andl	$15, %eax
	movl	%eax, -4(%rbp)
	movl	-216(%rbp), %eax
	andl	$15, %eax
	movl	%eax, -148(%rbp)
	cmpl	$0, -132(%rbp)
	je	.LBB17_32
# %bb.31:                               # %if.then73
	movq	-128(%rbp), %rax
	movslq	-188(%rbp), %rcx
	movq	(%rax,%rcx,8), %rax
	movl	-192(%rbp), %ecx
	addl	$0, %ecx
	movslq	%ecx, %rcx
	movzwl	(%rax,%rcx,2), %eax
	movl	%eax, -108(%rbp)
	movq	-128(%rbp), %rax
	movslq	-188(%rbp), %rcx
	movq	(%rax,%rcx,8), %rax
	movl	-192(%rbp), %ecx
	addl	$1, %ecx
	movslq	%ecx, %rcx
	movzwl	(%rax,%rcx,2), %eax
	movl	%eax, -104(%rbp)
	movq	-128(%rbp), %rax
	movslq	-188(%rbp), %rcx
	movq	(%rax,%rcx,8), %rax
	movl	-192(%rbp), %ecx
	addl	$2, %ecx
	movslq	%ecx, %rcx
	movzwl	(%rax,%rcx,2), %eax
	movl	%eax, -100(%rbp)
	movq	-128(%rbp), %rax
	movslq	-188(%rbp), %rcx
	movq	(%rax,%rcx,8), %rax
	movl	-192(%rbp), %ecx
	addl	$3, %ecx
	movslq	%ecx, %rcx
	movzwl	(%rax,%rcx,2), %eax
	movl	%eax, -96(%rbp)
	movq	-128(%rbp), %rax
	movslq	-188(%rbp), %rcx
	movq	(%rax,%rcx,8), %rax
	movl	-192(%rbp), %ecx
	addl	$4, %ecx
	movslq	%ecx, %rcx
	movzwl	(%rax,%rcx,2), %eax
	movl	%eax, -92(%rbp)
	movq	-128(%rbp), %rax
	movslq	-188(%rbp), %rcx
	movq	(%rax,%rcx,8), %rax
	movl	-192(%rbp), %ecx
	addl	$5, %ecx
	movslq	%ecx, %rcx
	movzwl	(%rax,%rcx,2), %eax
	movl	%eax, -88(%rbp)
	movq	-128(%rbp), %rax
	movslq	-188(%rbp), %rcx
	movq	(%rax,%rcx,8), %rax
	movl	-192(%rbp), %ecx
	addl	$6, %ecx
	movslq	%ecx, %rcx
	movzwl	(%rax,%rcx,2), %eax
	movl	%eax, -84(%rbp)
	movq	-128(%rbp), %rax
	movslq	-188(%rbp), %rcx
	movq	(%rax,%rcx,8), %rax
	movl	-192(%rbp), %ecx
	addl	$7, %ecx
	movslq	%ecx, %rcx
	movzwl	(%rax,%rcx,2), %eax
	movl	%eax, -80(%rbp)
	jmp	.LBB17_33
.LBB17_32:                              # %if.else143
	movq	img, %rax
	movl	72680(%rax), %eax
	movl	%eax, -80(%rbp)
	movl	%eax, -84(%rbp)
	movl	%eax, -88(%rbp)
	movl	%eax, -92(%rbp)
	movl	%eax, -96(%rbp)
	movl	%eax, -100(%rbp)
	movl	%eax, -104(%rbp)
	movl	%eax, -108(%rbp)
.LBB17_33:                              # %if.end152
	cmpl	$0, -220(%rbp)
	je	.LBB17_35
# %bb.34:                               # %if.then154
	movq	-128(%rbp), %rax
	movslq	-164(%rbp), %rcx
	movq	(%rax,%rcx,8), %rax
	movl	-168(%rbp), %ecx
	addl	$0, %ecx
	movslq	%ecx, %rcx
	movzwl	(%rax,%rcx,2), %eax
	movl	%eax, -76(%rbp)
	movq	-128(%rbp), %rax
	movslq	-164(%rbp), %rcx
	movq	(%rax,%rcx,8), %rax
	movl	-168(%rbp), %ecx
	addl	$1, %ecx
	movslq	%ecx, %rcx
	movzwl	(%rax,%rcx,2), %eax
	movl	%eax, -72(%rbp)
	movq	-128(%rbp), %rax
	movslq	-164(%rbp), %rcx
	movq	(%rax,%rcx,8), %rax
	movl	-168(%rbp), %ecx
	addl	$2, %ecx
	movslq	%ecx, %rcx
	movzwl	(%rax,%rcx,2), %eax
	movl	%eax, -68(%rbp)
	movq	-128(%rbp), %rax
	movslq	-164(%rbp), %rcx
	movq	(%rax,%rcx,8), %rax
	movl	-168(%rbp), %ecx
	addl	$3, %ecx
	movslq	%ecx, %rcx
	movzwl	(%rax,%rcx,2), %eax
	movl	%eax, -64(%rbp)
	movq	-128(%rbp), %rax
	movslq	-164(%rbp), %rcx
	movq	(%rax,%rcx,8), %rax
	movl	-168(%rbp), %ecx
	addl	$4, %ecx
	movslq	%ecx, %rcx
	movzwl	(%rax,%rcx,2), %eax
	movl	%eax, -60(%rbp)
	movq	-128(%rbp), %rax
	movslq	-164(%rbp), %rcx
	movq	(%rax,%rcx,8), %rax
	movl	-168(%rbp), %ecx
	addl	$5, %ecx
	movslq	%ecx, %rcx
	movzwl	(%rax,%rcx,2), %eax
	movl	%eax, -56(%rbp)
	movq	-128(%rbp), %rax
	movslq	-164(%rbp), %rcx
	movq	(%rax,%rcx,8), %rax
	movl	-168(%rbp), %ecx
	addl	$6, %ecx
	movslq	%ecx, %rcx
	movzwl	(%rax,%rcx,2), %eax
	movl	%eax, -52(%rbp)
	movq	-128(%rbp), %rax
	movslq	-164(%rbp), %rcx
	movq	(%rax,%rcx,8), %rax
	movl	-168(%rbp), %ecx
	addl	$7, %ecx
	movslq	%ecx, %rcx
	movzwl	(%rax,%rcx,2), %eax
	movl	%eax, -48(%rbp)
	jmp	.LBB17_36
.LBB17_35:                              # %if.else227
	movl	-80(%rbp), %eax
	movl	%eax, -48(%rbp)
	movl	%eax, -52(%rbp)
	movl	%eax, -56(%rbp)
	movl	%eax, -60(%rbp)
	movl	%eax, -64(%rbp)
	movl	%eax, -68(%rbp)
	movl	%eax, -72(%rbp)
	movl	%eax, -76(%rbp)
.LBB17_36:                              # %if.end237
	cmpl	$0, -116(%rbp)
	je	.LBB17_38
# %bb.37:                               # %if.then239
	movq	-128(%rbp), %rax
	movslq	-444(%rbp), %rcx
	movq	(%rax,%rcx,8), %rax
	movslq	-448(%rbp), %rcx
	movzwl	(%rax,%rcx,2), %eax
	movl	%eax, -44(%rbp)
	movq	-128(%rbp), %rax
	movslq	-420(%rbp), %rcx
	movq	(%rax,%rcx,8), %rax
	movslq	-424(%rbp), %rcx
	movzwl	(%rax,%rcx,2), %eax
	movl	%eax, -40(%rbp)
	movq	-128(%rbp), %rax
	movslq	-396(%rbp), %rcx
	movq	(%rax,%rcx,8), %rax
	movslq	-400(%rbp), %rcx
	movzwl	(%rax,%rcx,2), %eax
	movl	%eax, -36(%rbp)
	movq	-128(%rbp), %rax
	movslq	-372(%rbp), %rcx
	movq	(%rax,%rcx,8), %rax
	movslq	-376(%rbp), %rcx
	movzwl	(%rax,%rcx,2), %eax
	movl	%eax, -32(%rbp)
	movq	-128(%rbp), %rax
	movslq	-348(%rbp), %rcx
	movq	(%rax,%rcx,8), %rax
	movslq	-352(%rbp), %rcx
	movzwl	(%rax,%rcx,2), %eax
	movl	%eax, -28(%rbp)
	movq	-128(%rbp), %rax
	movslq	-324(%rbp), %rcx
	movq	(%rax,%rcx,8), %rax
	movslq	-328(%rbp), %rcx
	movzwl	(%rax,%rcx,2), %eax
	movl	%eax, -24(%rbp)
	movq	-128(%rbp), %rax
	movslq	-300(%rbp), %rcx
	movq	(%rax,%rcx,8), %rax
	movslq	-304(%rbp), %rcx
	movzwl	(%rax,%rcx,2), %eax
	movl	%eax, -20(%rbp)
	movq	-128(%rbp), %rax
	movslq	-276(%rbp), %rcx
	movq	(%rax,%rcx,8), %rax
	movslq	-280(%rbp), %rcx
	movzwl	(%rax,%rcx,2), %eax
	movl	%eax, -16(%rbp)
	jmp	.LBB17_39
.LBB17_38:                              # %if.else320
	movq	img, %rax
	movl	72680(%rax), %eax
	movl	%eax, -16(%rbp)
	movl	%eax, -20(%rbp)
	movl	%eax, -24(%rbp)
	movl	%eax, -28(%rbp)
	movl	%eax, -32(%rbp)
	movl	%eax, -36(%rbp)
	movl	%eax, -40(%rbp)
	movl	%eax, -44(%rbp)
.LBB17_39:                              # %if.end330
	cmpl	$0, -140(%rbp)
	je	.LBB17_41
# %bb.40:                               # %if.then332
	movq	-128(%rbp), %rax
	movslq	-236(%rbp), %rcx
	movq	(%rax,%rcx,8), %rax
	movslq	-240(%rbp), %rcx
	movzwl	(%rax,%rcx,2), %eax
	movl	%eax, -112(%rbp)
	jmp	.LBB17_42
.LBB17_41:                              # %if.else341
	movq	img, %rax
	movl	72680(%rax), %eax
	movl	%eax, -112(%rbp)
.LBB17_42:                              # %if.end344
	movl	$0, -4(%rbp)
.LBB17_43:                              # %for.cond345
                                        # =>This Inner Loop Header: Depth=1
	cmpl	$9, -4(%rbp)
	jge	.LBB17_46
# %bb.44:                               # %for.body348
                                        #   in Loop: Header=BB17_43 Depth=1
	movq	img, %rax
	addq	$7352, %rax             # imm = 0x1CB8
	movslq	-4(%rbp), %rcx
	shlq	$7, %rcx
	addq	%rcx, %rax
	movw	$-1, (%rax)
# %bb.45:                               # %for.inc353
                                        #   in Loop: Header=BB17_43 Depth=1
	movl	-4(%rbp), %eax
	addl	$1, %eax
	movl	%eax, -4(%rbp)
	jmp	.LBB17_43
.LBB17_46:                              # %for.end355
	leaq	-112(%rbp), %rdi
	movl	-140(%rbp), %esi
	movl	-132(%rbp), %edx
	movl	-116(%rbp), %ecx
	callq	LowPassForIntra8x8Pred
	movl	$0, -136(%rbp)
	cmpl	$0, -132(%rbp)
	je	.LBB17_49
# %bb.47:                               # %land.lhs.true358
	cmpl	$0, -116(%rbp)
	je	.LBB17_49
# %bb.48:                               # %if.then360
	movl	-108(%rbp), %eax
	addl	-104(%rbp), %eax
	addl	-100(%rbp), %eax
	addl	-96(%rbp), %eax
	addl	-92(%rbp), %eax
	addl	-88(%rbp), %eax
	addl	-84(%rbp), %eax
	addl	-80(%rbp), %eax
	addl	-44(%rbp), %eax
	addl	-40(%rbp), %eax
	addl	-36(%rbp), %eax
	addl	-32(%rbp), %eax
	addl	-28(%rbp), %eax
	addl	-24(%rbp), %eax
	addl	-20(%rbp), %eax
	addl	-16(%rbp), %eax
	addl	$8, %eax
	sarl	$4, %eax
	movl	%eax, -136(%rbp)
	jmp	.LBB17_58
.LBB17_49:                              # %if.else393
	cmpl	$0, -132(%rbp)
	jne	.LBB17_52
# %bb.50:                               # %land.lhs.true395
	cmpl	$0, -116(%rbp)
	je	.LBB17_52
# %bb.51:                               # %if.then397
	movl	-44(%rbp), %eax
	addl	-40(%rbp), %eax
	addl	-36(%rbp), %eax
	addl	-32(%rbp), %eax
	addl	-28(%rbp), %eax
	addl	-24(%rbp), %eax
	addl	-20(%rbp), %eax
	addl	-16(%rbp), %eax
	addl	$4, %eax
	sarl	$3, %eax
	movl	%eax, -136(%rbp)
	jmp	.LBB17_57
.LBB17_52:                              # %if.else415
	cmpl	$0, -132(%rbp)
	je	.LBB17_55
# %bb.53:                               # %land.lhs.true417
	cmpl	$0, -116(%rbp)
	jne	.LBB17_55
# %bb.54:                               # %if.then419
	movl	-108(%rbp), %eax
	addl	-104(%rbp), %eax
	addl	-100(%rbp), %eax
	addl	-96(%rbp), %eax
	addl	-92(%rbp), %eax
	addl	-88(%rbp), %eax
	addl	-84(%rbp), %eax
	addl	-80(%rbp), %eax
	addl	$4, %eax
	sarl	$3, %eax
	movl	%eax, -136(%rbp)
	jmp	.LBB17_56
.LBB17_55:                              # %if.else437
	movq	img, %rax
	movl	72680(%rax), %eax
	movl	%eax, -136(%rbp)
.LBB17_56:                              # %if.end439
	jmp	.LBB17_57
.LBB17_57:                              # %if.end440
	jmp	.LBB17_58
.LBB17_58:                              # %if.end441
	movl	$0, -148(%rbp)
.LBB17_59:                              # %for.cond442
                                        # =>This Loop Header: Depth=1
                                        #     Child Loop BB17_61 Depth 2
	cmpl	$8, -148(%rbp)
	jge	.LBB17_66
# %bb.60:                               # %for.body445
                                        #   in Loop: Header=BB17_59 Depth=1
	movl	$0, -4(%rbp)
.LBB17_61:                              # %for.cond446
                                        #   Parent Loop BB17_59 Depth=1
                                        # =>  This Inner Loop Header: Depth=2
	cmpl	$8, -4(%rbp)
	jge	.LBB17_64
# %bb.62:                               # %for.body449
                                        #   in Loop: Header=BB17_61 Depth=2
	movl	-136(%rbp), %eax
	movq	img, %rcx
	addq	$7352, %rcx             # imm = 0x1CB8
	addq	$256, %rcx              # imm = 0x100
	movslq	-4(%rbp), %rdx
	shlq	$4, %rdx
	addq	%rdx, %rcx
	movslq	-148(%rbp), %rdx
	movw	%ax, (%rcx,%rdx,2)
# %bb.63:                               # %for.inc457
                                        #   in Loop: Header=BB17_61 Depth=2
	movl	-4(%rbp), %eax
	addl	$1, %eax
	movl	%eax, -4(%rbp)
	jmp	.LBB17_61
.LBB17_64:                              # %for.end459
                                        #   in Loop: Header=BB17_59 Depth=1
	jmp	.LBB17_65
.LBB17_65:                              # %for.inc460
                                        #   in Loop: Header=BB17_59 Depth=1
	movl	-148(%rbp), %eax
	addl	$1, %eax
	movl	%eax, -148(%rbp)
	jmp	.LBB17_59
.LBB17_66:                              # %for.end462
	movl	$0, -4(%rbp)
.LBB17_67:                              # %for.cond463
                                        # =>This Inner Loop Header: Depth=1
	cmpl	$8, -4(%rbp)
	jge	.LBB17_70
# %bb.68:                               # %for.body466
                                        #   in Loop: Header=BB17_67 Depth=1
	movslq	-4(%rbp), %rax
	movl	-108(%rbp,%rax,4), %eax
	movq	img, %rcx
	movslq	-4(%rbp), %rdx
	movw	%ax, 7464(%rcx,%rdx,2)
	movq	img, %rcx
	movslq	-4(%rbp), %rdx
	movw	%ax, 7448(%rcx,%rdx,2)
	movq	img, %rcx
	movslq	-4(%rbp), %rdx
	movw	%ax, 7432(%rcx,%rdx,2)
	movq	img, %rcx
	movslq	-4(%rbp), %rdx
	movw	%ax, 7416(%rcx,%rdx,2)
	movq	img, %rcx
	movslq	-4(%rbp), %rdx
	movw	%ax, 7400(%rcx,%rdx,2)
	movq	img, %rcx
	movslq	-4(%rbp), %rdx
	movw	%ax, 7384(%rcx,%rdx,2)
	movq	img, %rcx
	movslq	-4(%rbp), %rdx
	movw	%ax, 7368(%rcx,%rdx,2)
	movq	img, %rcx
	movslq	-4(%rbp), %rdx
	movw	%ax, 7352(%rcx,%rdx,2)
	movslq	-4(%rbp), %rax
	movl	-44(%rbp,%rax,4), %eax
	movq	img, %rcx
	addq	$7352, %rcx             # imm = 0x1CB8
	addq	$128, %rcx
	movslq	-4(%rbp), %rdx
	shlq	$4, %rdx
	addq	%rdx, %rcx
	movw	%ax, 14(%rcx)
	movq	img, %rcx
	addq	$7352, %rcx             # imm = 0x1CB8
	addq	$128, %rcx
	movslq	-4(%rbp), %rdx
	shlq	$4, %rdx
	addq	%rdx, %rcx
	movw	%ax, 12(%rcx)
	movq	img, %rcx
	addq	$7352, %rcx             # imm = 0x1CB8
	addq	$128, %rcx
	movslq	-4(%rbp), %rdx
	shlq	$4, %rdx
	addq	%rdx, %rcx
	movw	%ax, 10(%rcx)
	movq	img, %rcx
	addq	$7352, %rcx             # imm = 0x1CB8
	addq	$128, %rcx
	movslq	-4(%rbp), %rdx
	shlq	$4, %rdx
	addq	%rdx, %rcx
	movw	%ax, 8(%rcx)
	movq	img, %rcx
	addq	$7352, %rcx             # imm = 0x1CB8
	addq	$128, %rcx
	movslq	-4(%rbp), %rdx
	shlq	$4, %rdx
	addq	%rdx, %rcx
	movw	%ax, 6(%rcx)
	movq	img, %rcx
	addq	$7352, %rcx             # imm = 0x1CB8
	addq	$128, %rcx
	movslq	-4(%rbp), %rdx
	shlq	$4, %rdx
	addq	%rdx, %rcx
	movw	%ax, 4(%rcx)
	movq	img, %rcx
	addq	$7352, %rcx             # imm = 0x1CB8
	addq	$128, %rcx
	movslq	-4(%rbp), %rdx
	shlq	$4, %rdx
	addq	%rdx, %rcx
	movw	%ax, 2(%rcx)
	movq	img, %rcx
	addq	$7352, %rcx             # imm = 0x1CB8
	addq	$128, %rcx
	movslq	-4(%rbp), %rdx
	shlq	$4, %rdx
	addq	%rdx, %rcx
	movw	%ax, (%rcx)
# %bb.69:                               # %for.inc555
                                        #   in Loop: Header=BB17_67 Depth=1
	movl	-4(%rbp), %eax
	addl	$1, %eax
	movl	%eax, -4(%rbp)
	jmp	.LBB17_67
.LBB17_70:                              # %for.end557
	cmpl	$0, -132(%rbp)
	jne	.LBB17_72
# %bb.71:                               # %if.then559
	movq	img, %rax
	movw	$-1, 7352(%rax)
.LBB17_72:                              # %if.end564
	cmpl	$0, -116(%rbp)
	jne	.LBB17_74
# %bb.73:                               # %if.then566
	movq	img, %rax
	movw	$-1, 7480(%rax)
.LBB17_74:                              # %if.end571
	cmpl	$0, -132(%rbp)
	je	.LBB17_76
# %bb.75:                               # %if.then573
	movl	-108(%rbp), %eax
	addl	-100(%rbp), %eax
	movl	-104(%rbp), %ecx
	shll	$1, %ecx
	addl	%ecx, %eax
	addl	$2, %eax
	sarl	$2, %eax
	movq	img, %rcx
	movw	%ax, 7736(%rcx)
	movl	-104(%rbp), %eax
	addl	-96(%rbp), %eax
	movl	-100(%rbp), %ecx
	shll	$1, %ecx
	addl	%ecx, %eax
	addl	$2, %eax
	sarl	$2, %eax
	movq	img, %rcx
	movw	%ax, 7752(%rcx)
	movq	img, %rcx
	movw	%ax, 7738(%rcx)
	movl	-100(%rbp), %eax
	addl	-92(%rbp), %eax
	movl	-96(%rbp), %ecx
	shll	$1, %ecx
	addl	%ecx, %eax
	addl	$2, %eax
	sarl	$2, %eax
	movq	img, %rcx
	movw	%ax, 7768(%rcx)
	movq	img, %rcx
	movw	%ax, 7754(%rcx)
	movq	img, %rcx
	movw	%ax, 7740(%rcx)
	movl	-96(%rbp), %eax
	addl	-88(%rbp), %eax
	movl	-92(%rbp), %ecx
	shll	$1, %ecx
	addl	%ecx, %eax
	addl	$2, %eax
	sarl	$2, %eax
	movq	img, %rcx
	movw	%ax, 7784(%rcx)
	movq	img, %rcx
	movw	%ax, 7770(%rcx)
	movq	img, %rcx
	movw	%ax, 7756(%rcx)
	movq	img, %rcx
	movw	%ax, 7742(%rcx)
	movl	-92(%rbp), %eax
	addl	-84(%rbp), %eax
	movl	-88(%rbp), %ecx
	shll	$1, %ecx
	addl	%ecx, %eax
	addl	$2, %eax
	sarl	$2, %eax
	movq	img, %rcx
	movw	%ax, 7800(%rcx)
	movq	img, %rcx
	movw	%ax, 7786(%rcx)
	movq	img, %rcx
	movw	%ax, 7772(%rcx)
	movq	img, %rcx
	movw	%ax, 7758(%rcx)
	movq	img, %rcx
	movw	%ax, 7744(%rcx)
	movl	-88(%rbp), %eax
	addl	-80(%rbp), %eax
	movl	-84(%rbp), %ecx
	shll	$1, %ecx
	addl	%ecx, %eax
	addl	$2, %eax
	sarl	$2, %eax
	movq	img, %rcx
	movw	%ax, 7816(%rcx)
	movq	img, %rcx
	movw	%ax, 7802(%rcx)
	movq	img, %rcx
	movw	%ax, 7788(%rcx)
	movq	img, %rcx
	movw	%ax, 7774(%rcx)
	movq	img, %rcx
	movw	%ax, 7760(%rcx)
	movq	img, %rcx
	movw	%ax, 7746(%rcx)
	movl	-84(%rbp), %eax
	addl	-76(%rbp), %eax
	movl	-80(%rbp), %ecx
	shll	$1, %ecx
	addl	%ecx, %eax
	addl	$2, %eax
	sarl	$2, %eax
	movq	img, %rcx
	movw	%ax, 7832(%rcx)
	movq	img, %rcx
	movw	%ax, 7818(%rcx)
	movq	img, %rcx
	movw	%ax, 7804(%rcx)
	movq	img, %rcx
	movw	%ax, 7790(%rcx)
	movq	img, %rcx
	movw	%ax, 7776(%rcx)
	movq	img, %rcx
	movw	%ax, 7762(%rcx)
	movq	img, %rcx
	movw	%ax, 7748(%rcx)
	movl	-80(%rbp), %eax
	addl	-72(%rbp), %eax
	movl	-76(%rbp), %ecx
	shll	$1, %ecx
	addl	%ecx, %eax
	addl	$2, %eax
	sarl	$2, %eax
	movq	img, %rcx
	movw	%ax, 7848(%rcx)
	movq	img, %rcx
	movw	%ax, 7834(%rcx)
	movq	img, %rcx
	movw	%ax, 7820(%rcx)
	movq	img, %rcx
	movw	%ax, 7806(%rcx)
	movq	img, %rcx
	movw	%ax, 7792(%rcx)
	movq	img, %rcx
	movw	%ax, 7778(%rcx)
	movq	img, %rcx
	movw	%ax, 7764(%rcx)
	movq	img, %rcx
	movw	%ax, 7750(%rcx)
	movl	-76(%rbp), %eax
	addl	-68(%rbp), %eax
	movl	-72(%rbp), %ecx
	shll	$1, %ecx
	addl	%ecx, %eax
	addl	$2, %eax
	sarl	$2, %eax
	movq	img, %rcx
	movw	%ax, 7850(%rcx)
	movq	img, %rcx
	movw	%ax, 7836(%rcx)
	movq	img, %rcx
	movw	%ax, 7822(%rcx)
	movq	img, %rcx
	movw	%ax, 7808(%rcx)
	movq	img, %rcx
	movw	%ax, 7794(%rcx)
	movq	img, %rcx
	movw	%ax, 7780(%rcx)
	movq	img, %rcx
	movw	%ax, 7766(%rcx)
	movl	-72(%rbp), %eax
	addl	-64(%rbp), %eax
	movl	-68(%rbp), %ecx
	shll	$1, %ecx
	addl	%ecx, %eax
	addl	$2, %eax
	sarl	$2, %eax
	movq	img, %rcx
	movw	%ax, 7852(%rcx)
	movq	img, %rcx
	movw	%ax, 7838(%rcx)
	movq	img, %rcx
	movw	%ax, 7824(%rcx)
	movq	img, %rcx
	movw	%ax, 7810(%rcx)
	movq	img, %rcx
	movw	%ax, 7796(%rcx)
	movq	img, %rcx
	movw	%ax, 7782(%rcx)
	movl	-68(%rbp), %eax
	addl	-60(%rbp), %eax
	movl	-64(%rbp), %ecx
	shll	$1, %ecx
	addl	%ecx, %eax
	addl	$2, %eax
	sarl	$2, %eax
	movq	img, %rcx
	movw	%ax, 7854(%rcx)
	movq	img, %rcx
	movw	%ax, 7840(%rcx)
	movq	img, %rcx
	movw	%ax, 7826(%rcx)
	movq	img, %rcx
	movw	%ax, 7812(%rcx)
	movq	img, %rcx
	movw	%ax, 7798(%rcx)
	movl	-64(%rbp), %eax
	addl	-56(%rbp), %eax
	movl	-60(%rbp), %ecx
	shll	$1, %ecx
	addl	%ecx, %eax
	addl	$2, %eax
	sarl	$2, %eax
	movq	img, %rcx
	movw	%ax, 7856(%rcx)
	movq	img, %rcx
	movw	%ax, 7842(%rcx)
	movq	img, %rcx
	movw	%ax, 7828(%rcx)
	movq	img, %rcx
	movw	%ax, 7814(%rcx)
	movl	-60(%rbp), %eax
	addl	-52(%rbp), %eax
	movl	-56(%rbp), %ecx
	shll	$1, %ecx
	addl	%ecx, %eax
	addl	$2, %eax
	sarl	$2, %eax
	movq	img, %rcx
	movw	%ax, 7858(%rcx)
	movq	img, %rcx
	movw	%ax, 7844(%rcx)
	movq	img, %rcx
	movw	%ax, 7830(%rcx)
	movl	-56(%rbp), %eax
	addl	-48(%rbp), %eax
	movl	-52(%rbp), %ecx
	shll	$1, %ecx
	addl	%ecx, %eax
	addl	$2, %eax
	sarl	$2, %eax
	movq	img, %rcx
	movw	%ax, 7860(%rcx)
	movq	img, %rcx
	movw	%ax, 7846(%rcx)
	movl	-52(%rbp), %eax
	imull	$3, -48(%rbp), %ecx
	addl	%ecx, %eax
	addl	$2, %eax
	sarl	$2, %eax
	movq	img, %rcx
	movw	%ax, 7862(%rcx)
	movl	-108(%rbp), %eax
	addl	-104(%rbp), %eax
	addl	$1, %eax
	sarl	$1, %eax
	movq	img, %rcx
	movw	%ax, 8248(%rcx)
	movl	-104(%rbp), %eax
	addl	-100(%rbp), %eax
	addl	$1, %eax
	sarl	$1, %eax
	movq	img, %rcx
	movw	%ax, 8280(%rcx)
	movq	img, %rcx
	movw	%ax, 8250(%rcx)
	movl	-100(%rbp), %eax
	addl	-96(%rbp), %eax
	addl	$1, %eax
	sarl	$1, %eax
	movq	img, %rcx
	movw	%ax, 8312(%rcx)
	movq	img, %rcx
	movw	%ax, 8282(%rcx)
	movq	img, %rcx
	movw	%ax, 8252(%rcx)
	movl	-96(%rbp), %eax
	addl	-92(%rbp), %eax
	addl	$1, %eax
	sarl	$1, %eax
	movq	img, %rcx
	movw	%ax, 8344(%rcx)
	movq	img, %rcx
	movw	%ax, 8314(%rcx)
	movq	img, %rcx
	movw	%ax, 8284(%rcx)
	movq	img, %rcx
	movw	%ax, 8254(%rcx)
	movl	-92(%rbp), %eax
	addl	-88(%rbp), %eax
	addl	$1, %eax
	sarl	$1, %eax
	movq	img, %rcx
	movw	%ax, 8346(%rcx)
	movq	img, %rcx
	movw	%ax, 8316(%rcx)
	movq	img, %rcx
	movw	%ax, 8286(%rcx)
	movq	img, %rcx
	movw	%ax, 8256(%rcx)
	movl	-88(%rbp), %eax
	addl	-84(%rbp), %eax
	addl	$1, %eax
	sarl	$1, %eax
	movq	img, %rcx
	movw	%ax, 8348(%rcx)
	movq	img, %rcx
	movw	%ax, 8318(%rcx)
	movq	img, %rcx
	movw	%ax, 8288(%rcx)
	movq	img, %rcx
	movw	%ax, 8258(%rcx)
	movl	-84(%rbp), %eax
	addl	-80(%rbp), %eax
	addl	$1, %eax
	sarl	$1, %eax
	movq	img, %rcx
	movw	%ax, 8350(%rcx)
	movq	img, %rcx
	movw	%ax, 8320(%rcx)
	movq	img, %rcx
	movw	%ax, 8290(%rcx)
	movq	img, %rcx
	movw	%ax, 8260(%rcx)
	movl	-80(%rbp), %eax
	addl	-76(%rbp), %eax
	addl	$1, %eax
	sarl	$1, %eax
	movq	img, %rcx
	movw	%ax, 8352(%rcx)
	movq	img, %rcx
	movw	%ax, 8322(%rcx)
	movq	img, %rcx
	movw	%ax, 8292(%rcx)
	movq	img, %rcx
	movw	%ax, 8262(%rcx)
	movl	-76(%rbp), %eax
	addl	-72(%rbp), %eax
	addl	$1, %eax
	sarl	$1, %eax
	movq	img, %rcx
	movw	%ax, 8354(%rcx)
	movq	img, %rcx
	movw	%ax, 8324(%rcx)
	movq	img, %rcx
	movw	%ax, 8294(%rcx)
	movl	-72(%rbp), %eax
	addl	-68(%rbp), %eax
	addl	$1, %eax
	sarl	$1, %eax
	movq	img, %rcx
	movw	%ax, 8356(%rcx)
	movq	img, %rcx
	movw	%ax, 8326(%rcx)
	movl	-68(%rbp), %eax
	addl	-64(%rbp), %eax
	addl	$1, %eax
	sarl	$1, %eax
	movq	img, %rcx
	movw	%ax, 8358(%rcx)
	movl	-108(%rbp), %eax
	addl	-100(%rbp), %eax
	movl	-104(%rbp), %ecx
	shll	$1, %ecx
	addl	%ecx, %eax
	addl	$2, %eax
	sarl	$2, %eax
	movq	img, %rcx
	movw	%ax, 8264(%rcx)
	movl	-104(%rbp), %eax
	addl	-96(%rbp), %eax
	movl	-100(%rbp), %ecx
	shll	$1, %ecx
	addl	%ecx, %eax
	addl	$2, %eax
	sarl	$2, %eax
	movq	img, %rcx
	movw	%ax, 8296(%rcx)
	movq	img, %rcx
	movw	%ax, 8266(%rcx)
	movl	-100(%rbp), %eax
	addl	-92(%rbp), %eax
	movl	-96(%rbp), %ecx
	shll	$1, %ecx
	addl	%ecx, %eax
	addl	$2, %eax
	sarl	$2, %eax
	movq	img, %rcx
	movw	%ax, 8328(%rcx)
	movq	img, %rcx
	movw	%ax, 8298(%rcx)
	movq	img, %rcx
	movw	%ax, 8268(%rcx)
	movl	-96(%rbp), %eax
	addl	-88(%rbp), %eax
	movl	-92(%rbp), %ecx
	shll	$1, %ecx
	addl	%ecx, %eax
	addl	$2, %eax
	sarl	$2, %eax
	movq	img, %rcx
	movw	%ax, 8360(%rcx)
	movq	img, %rcx
	movw	%ax, 8330(%rcx)
	movq	img, %rcx
	movw	%ax, 8300(%rcx)
	movq	img, %rcx
	movw	%ax, 8270(%rcx)
	movl	-92(%rbp), %eax
	addl	-84(%rbp), %eax
	movl	-88(%rbp), %ecx
	shll	$1, %ecx
	addl	%ecx, %eax
	addl	$2, %eax
	sarl	$2, %eax
	movq	img, %rcx
	movw	%ax, 8362(%rcx)
	movq	img, %rcx
	movw	%ax, 8332(%rcx)
	movq	img, %rcx
	movw	%ax, 8302(%rcx)
	movq	img, %rcx
	movw	%ax, 8272(%rcx)
	movl	-88(%rbp), %eax
	addl	-80(%rbp), %eax
	movl	-84(%rbp), %ecx
	shll	$1, %ecx
	addl	%ecx, %eax
	addl	$2, %eax
	sarl	$2, %eax
	movq	img, %rcx
	movw	%ax, 8364(%rcx)
	movq	img, %rcx
	movw	%ax, 8334(%rcx)
	movq	img, %rcx
	movw	%ax, 8304(%rcx)
	movq	img, %rcx
	movw	%ax, 8274(%rcx)
	movl	-84(%rbp), %eax
	addl	-76(%rbp), %eax
	movl	-80(%rbp), %ecx
	shll	$1, %ecx
	addl	%ecx, %eax
	addl	$2, %eax
	sarl	$2, %eax
	movq	img, %rcx
	movw	%ax, 8366(%rcx)
	movq	img, %rcx
	movw	%ax, 8336(%rcx)
	movq	img, %rcx
	movw	%ax, 8306(%rcx)
	movq	img, %rcx
	movw	%ax, 8276(%rcx)
	movl	-80(%rbp), %eax
	addl	-72(%rbp), %eax
	movl	-76(%rbp), %ecx
	shll	$1, %ecx
	addl	%ecx, %eax
	addl	$2, %eax
	sarl	$2, %eax
	movq	img, %rcx
	movw	%ax, 8368(%rcx)
	movq	img, %rcx
	movw	%ax, 8338(%rcx)
	movq	img, %rcx
	movw	%ax, 8308(%rcx)
	movq	img, %rcx
	movw	%ax, 8278(%rcx)
	movl	-76(%rbp), %eax
	addl	-68(%rbp), %eax
	movl	-72(%rbp), %ecx
	shll	$1, %ecx
	addl	%ecx, %eax
	addl	$2, %eax
	sarl	$2, %eax
	movq	img, %rcx
	movw	%ax, 8370(%rcx)
	movq	img, %rcx
	movw	%ax, 8340(%rcx)
	movq	img, %rcx
	movw	%ax, 8310(%rcx)
	movl	-72(%rbp), %eax
	addl	-64(%rbp), %eax
	movl	-68(%rbp), %ecx
	shll	$1, %ecx
	addl	%ecx, %eax
	addl	$2, %eax
	sarl	$2, %eax
	movq	img, %rcx
	movw	%ax, 8372(%rcx)
	movq	img, %rcx
	movw	%ax, 8342(%rcx)
	movl	-68(%rbp), %eax
	addl	-60(%rbp), %eax
	movl	-64(%rbp), %ecx
	shll	$1, %ecx
	addl	%ecx, %eax
	addl	$2, %eax
	sarl	$2, %eax
	movq	img, %rcx
	movw	%ax, 8374(%rcx)
.LBB17_76:                              # %if.end1383
	cmpl	$0, -132(%rbp)
	je	.LBB17_80
# %bb.77:                               # %land.lhs.true1385
	cmpl	$0, -116(%rbp)
	je	.LBB17_80
# %bb.78:                               # %land.lhs.true1387
	cmpl	$0, -140(%rbp)
	je	.LBB17_80
# %bb.79:                               # %if.then1389
	movl	-16(%rbp), %eax
	addl	-24(%rbp), %eax
	movl	-20(%rbp), %ecx
	shll	$1, %ecx
	addl	%ecx, %eax
	addl	$2, %eax
	sarl	$2, %eax
	movq	img, %rcx
	movw	%ax, 7976(%rcx)
	movl	-20(%rbp), %eax
	addl	-28(%rbp), %eax
	movl	-24(%rbp), %ecx
	shll	$1, %ecx
	addl	%ecx, %eax
	addl	$2, %eax
	sarl	$2, %eax
	movq	img, %rcx
	movw	%ax, 7978(%rcx)
	movq	img, %rcx
	movw	%ax, 7960(%rcx)
	movl	-24(%rbp), %eax
	addl	-32(%rbp), %eax
	movl	-28(%rbp), %ecx
	shll	$1, %ecx
	addl	%ecx, %eax
	addl	$2, %eax
	sarl	$2, %eax
	movq	img, %rcx
	movw	%ax, 7980(%rcx)
	movq	img, %rcx
	movw	%ax, 7962(%rcx)
	movq	img, %rcx
	movw	%ax, 7944(%rcx)
	movl	-28(%rbp), %eax
	addl	-36(%rbp), %eax
	movl	-32(%rbp), %ecx
	shll	$1, %ecx
	addl	%ecx, %eax
	addl	$2, %eax
	sarl	$2, %eax
	movq	img, %rcx
	movw	%ax, 7982(%rcx)
	movq	img, %rcx
	movw	%ax, 7964(%rcx)
	movq	img, %rcx
	movw	%ax, 7946(%rcx)
	movq	img, %rcx
	movw	%ax, 7928(%rcx)
	movl	-32(%rbp), %eax
	addl	-40(%rbp), %eax
	movl	-36(%rbp), %ecx
	shll	$1, %ecx
	addl	%ecx, %eax
	addl	$2, %eax
	sarl	$2, %eax
	movq	img, %rcx
	movw	%ax, 7984(%rcx)
	movq	img, %rcx
	movw	%ax, 7966(%rcx)
	movq	img, %rcx
	movw	%ax, 7948(%rcx)
	movq	img, %rcx
	movw	%ax, 7930(%rcx)
	movq	img, %rcx
	movw	%ax, 7912(%rcx)
	movl	-36(%rbp), %eax
	addl	-44(%rbp), %eax
	movl	-40(%rbp), %ecx
	shll	$1, %ecx
	addl	%ecx, %eax
	addl	$2, %eax
	sarl	$2, %eax
	movq	img, %rcx
	movw	%ax, 7986(%rcx)
	movq	img, %rcx
	movw	%ax, 7968(%rcx)
	movq	img, %rcx
	movw	%ax, 7950(%rcx)
	movq	img, %rcx
	movw	%ax, 7932(%rcx)
	movq	img, %rcx
	movw	%ax, 7914(%rcx)
	movq	img, %rcx
	movw	%ax, 7896(%rcx)
	movl	-40(%rbp), %eax
	addl	-112(%rbp), %eax
	movl	-44(%rbp), %ecx
	shll	$1, %ecx
	addl	%ecx, %eax
	addl	$2, %eax
	sarl	$2, %eax
	movq	img, %rcx
	movw	%ax, 7988(%rcx)
	movq	img, %rcx
	movw	%ax, 7970(%rcx)
	movq	img, %rcx
	movw	%ax, 7952(%rcx)
	movq	img, %rcx
	movw	%ax, 7934(%rcx)
	movq	img, %rcx
	movw	%ax, 7916(%rcx)
	movq	img, %rcx
	movw	%ax, 7898(%rcx)
	movq	img, %rcx
	movw	%ax, 7880(%rcx)
	movl	-44(%rbp), %eax
	addl	-108(%rbp), %eax
	movl	-112(%rbp), %ecx
	shll	$1, %ecx
	addl	%ecx, %eax
	addl	$2, %eax
	sarl	$2, %eax
	movq	img, %rcx
	movw	%ax, 7990(%rcx)
	movq	img, %rcx
	movw	%ax, 7972(%rcx)
	movq	img, %rcx
	movw	%ax, 7954(%rcx)
	movq	img, %rcx
	movw	%ax, 7936(%rcx)
	movq	img, %rcx
	movw	%ax, 7918(%rcx)
	movq	img, %rcx
	movw	%ax, 7900(%rcx)
	movq	img, %rcx
	movw	%ax, 7882(%rcx)
	movq	img, %rcx
	movw	%ax, 7864(%rcx)
	movl	-112(%rbp), %eax
	addl	-104(%rbp), %eax
	movl	-108(%rbp), %ecx
	shll	$1, %ecx
	addl	%ecx, %eax
	addl	$2, %eax
	sarl	$2, %eax
	movq	img, %rcx
	movw	%ax, 7974(%rcx)
	movq	img, %rcx
	movw	%ax, 7956(%rcx)
	movq	img, %rcx
	movw	%ax, 7938(%rcx)
	movq	img, %rcx
	movw	%ax, 7920(%rcx)
	movq	img, %rcx
	movw	%ax, 7902(%rcx)
	movq	img, %rcx
	movw	%ax, 7884(%rcx)
	movq	img, %rcx
	movw	%ax, 7866(%rcx)
	movl	-108(%rbp), %eax
	addl	-100(%rbp), %eax
	movl	-104(%rbp), %ecx
	shll	$1, %ecx
	addl	%ecx, %eax
	addl	$2, %eax
	sarl	$2, %eax
	movq	img, %rcx
	movw	%ax, 7958(%rcx)
	movq	img, %rcx
	movw	%ax, 7940(%rcx)
	movq	img, %rcx
	movw	%ax, 7922(%rcx)
	movq	img, %rcx
	movw	%ax, 7904(%rcx)
	movq	img, %rcx
	movw	%ax, 7886(%rcx)
	movq	img, %rcx
	movw	%ax, 7868(%rcx)
	movl	-104(%rbp), %eax
	addl	-96(%rbp), %eax
	movl	-100(%rbp), %ecx
	shll	$1, %ecx
	addl	%ecx, %eax
	addl	$2, %eax
	sarl	$2, %eax
	movq	img, %rcx
	movw	%ax, 7942(%rcx)
	movq	img, %rcx
	movw	%ax, 7924(%rcx)
	movq	img, %rcx
	movw	%ax, 7906(%rcx)
	movq	img, %rcx
	movw	%ax, 7888(%rcx)
	movq	img, %rcx
	movw	%ax, 7870(%rcx)
	movl	-100(%rbp), %eax
	addl	-92(%rbp), %eax
	movl	-96(%rbp), %ecx
	shll	$1, %ecx
	addl	%ecx, %eax
	addl	$2, %eax
	sarl	$2, %eax
	movq	img, %rcx
	movw	%ax, 7926(%rcx)
	movq	img, %rcx
	movw	%ax, 7908(%rcx)
	movq	img, %rcx
	movw	%ax, 7890(%rcx)
	movq	img, %rcx
	movw	%ax, 7872(%rcx)
	movl	-96(%rbp), %eax
	addl	-88(%rbp), %eax
	movl	-92(%rbp), %ecx
	shll	$1, %ecx
	addl	%ecx, %eax
	addl	$2, %eax
	sarl	$2, %eax
	movq	img, %rcx
	movw	%ax, 7910(%rcx)
	movq	img, %rcx
	movw	%ax, 7892(%rcx)
	movq	img, %rcx
	movw	%ax, 7874(%rcx)
	movl	-92(%rbp), %eax
	addl	-84(%rbp), %eax
	movl	-88(%rbp), %ecx
	shll	$1, %ecx
	addl	%ecx, %eax
	addl	$2, %eax
	sarl	$2, %eax
	movq	img, %rcx
	movw	%ax, 7894(%rcx)
	movq	img, %rcx
	movw	%ax, 7876(%rcx)
	movl	-88(%rbp), %eax
	addl	-80(%rbp), %eax
	movl	-84(%rbp), %ecx
	shll	$1, %ecx
	addl	%ecx, %eax
	addl	$2, %eax
	sarl	$2, %eax
	movq	img, %rcx
	movw	%ax, 7878(%rcx)
	movl	-112(%rbp), %eax
	addl	-108(%rbp), %eax
	addl	$1, %eax
	sarl	$1, %eax
	movq	img, %rcx
	movw	%ax, 8094(%rcx)
	movq	img, %rcx
	movw	%ax, 8060(%rcx)
	movq	img, %rcx
	movw	%ax, 8026(%rcx)
	movq	img, %rcx
	movw	%ax, 7992(%rcx)
	movl	-108(%rbp), %eax
	addl	-104(%rbp), %eax
	addl	$1, %eax
	sarl	$1, %eax
	movq	img, %rcx
	movw	%ax, 8096(%rcx)
	movq	img, %rcx
	movw	%ax, 8062(%rcx)
	movq	img, %rcx
	movw	%ax, 8028(%rcx)
	movq	img, %rcx
	movw	%ax, 7994(%rcx)
	movl	-104(%rbp), %eax
	addl	-100(%rbp), %eax
	addl	$1, %eax
	sarl	$1, %eax
	movq	img, %rcx
	movw	%ax, 8098(%rcx)
	movq	img, %rcx
	movw	%ax, 8064(%rcx)
	movq	img, %rcx
	movw	%ax, 8030(%rcx)
	movq	img, %rcx
	movw	%ax, 7996(%rcx)
	movl	-100(%rbp), %eax
	addl	-96(%rbp), %eax
	addl	$1, %eax
	sarl	$1, %eax
	movq	img, %rcx
	movw	%ax, 8100(%rcx)
	movq	img, %rcx
	movw	%ax, 8066(%rcx)
	movq	img, %rcx
	movw	%ax, 8032(%rcx)
	movq	img, %rcx
	movw	%ax, 7998(%rcx)
	movl	-96(%rbp), %eax
	addl	-92(%rbp), %eax
	addl	$1, %eax
	sarl	$1, %eax
	movq	img, %rcx
	movw	%ax, 8102(%rcx)
	movq	img, %rcx
	movw	%ax, 8068(%rcx)
	movq	img, %rcx
	movw	%ax, 8034(%rcx)
	movq	img, %rcx
	movw	%ax, 8000(%rcx)
	movl	-92(%rbp), %eax
	addl	-88(%rbp), %eax
	addl	$1, %eax
	sarl	$1, %eax
	movq	img, %rcx
	movw	%ax, 8070(%rcx)
	movq	img, %rcx
	movw	%ax, 8036(%rcx)
	movq	img, %rcx
	movw	%ax, 8002(%rcx)
	movl	-88(%rbp), %eax
	addl	-84(%rbp), %eax
	addl	$1, %eax
	sarl	$1, %eax
	movq	img, %rcx
	movw	%ax, 8038(%rcx)
	movq	img, %rcx
	movw	%ax, 8004(%rcx)
	movl	-84(%rbp), %eax
	addl	-80(%rbp), %eax
	addl	$1, %eax
	sarl	$1, %eax
	movq	img, %rcx
	movw	%ax, 8006(%rcx)
	movl	-44(%rbp), %eax
	addl	-108(%rbp), %eax
	movl	-112(%rbp), %ecx
	shll	$1, %ecx
	addl	%ecx, %eax
	addl	$2, %eax
	sarl	$2, %eax
	movq	img, %rcx
	movw	%ax, 8110(%rcx)
	movq	img, %rcx
	movw	%ax, 8076(%rcx)
	movq	img, %rcx
	movw	%ax, 8042(%rcx)
	movq	img, %rcx
	movw	%ax, 8008(%rcx)
	movl	-112(%rbp), %eax
	addl	-104(%rbp), %eax
	movl	-108(%rbp), %ecx
	shll	$1, %ecx
	addl	%ecx, %eax
	addl	$2, %eax
	sarl	$2, %eax
	movq	img, %rcx
	movw	%ax, 8112(%rcx)
	movq	img, %rcx
	movw	%ax, 8078(%rcx)
	movq	img, %rcx
	movw	%ax, 8044(%rcx)
	movq	img, %rcx
	movw	%ax, 8010(%rcx)
	movl	-108(%rbp), %eax
	addl	-100(%rbp), %eax
	movl	-104(%rbp), %ecx
	shll	$1, %ecx
	addl	%ecx, %eax
	addl	$2, %eax
	sarl	$2, %eax
	movq	img, %rcx
	movw	%ax, 8114(%rcx)
	movq	img, %rcx
	movw	%ax, 8080(%rcx)
	movq	img, %rcx
	movw	%ax, 8046(%rcx)
	movq	img, %rcx
	movw	%ax, 8012(%rcx)
	movl	-104(%rbp), %eax
	addl	-96(%rbp), %eax
	movl	-100(%rbp), %ecx
	shll	$1, %ecx
	addl	%ecx, %eax
	addl	$2, %eax
	sarl	$2, %eax
	movq	img, %rcx
	movw	%ax, 8116(%rcx)
	movq	img, %rcx
	movw	%ax, 8082(%rcx)
	movq	img, %rcx
	movw	%ax, 8048(%rcx)
	movq	img, %rcx
	movw	%ax, 8014(%rcx)
	movl	-100(%rbp), %eax
	addl	-92(%rbp), %eax
	movl	-96(%rbp), %ecx
	shll	$1, %ecx
	addl	%ecx, %eax
	addl	$2, %eax
	sarl	$2, %eax
	movq	img, %rcx
	movw	%ax, 8118(%rcx)
	movq	img, %rcx
	movw	%ax, 8084(%rcx)
	movq	img, %rcx
	movw	%ax, 8050(%rcx)
	movq	img, %rcx
	movw	%ax, 8016(%rcx)
	movl	-96(%rbp), %eax
	addl	-88(%rbp), %eax
	movl	-92(%rbp), %ecx
	shll	$1, %ecx
	addl	%ecx, %eax
	addl	$2, %eax
	sarl	$2, %eax
	movq	img, %rcx
	movw	%ax, 8086(%rcx)
	movq	img, %rcx
	movw	%ax, 8052(%rcx)
	movq	img, %rcx
	movw	%ax, 8018(%rcx)
	movl	-92(%rbp), %eax
	addl	-84(%rbp), %eax
	movl	-88(%rbp), %ecx
	shll	$1, %ecx
	addl	%ecx, %eax
	addl	$2, %eax
	sarl	$2, %eax
	movq	img, %rcx
	movw	%ax, 8054(%rcx)
	movq	img, %rcx
	movw	%ax, 8020(%rcx)
	movl	-88(%rbp), %eax
	addl	-80(%rbp), %eax
	movl	-84(%rbp), %ecx
	shll	$1, %ecx
	addl	%ecx, %eax
	addl	$2, %eax
	sarl	$2, %eax
	movq	img, %rcx
	movw	%ax, 8022(%rcx)
	movl	-40(%rbp), %eax
	addl	-112(%rbp), %eax
	movl	-44(%rbp), %ecx
	shll	$1, %ecx
	addl	%ecx, %eax
	addl	$2, %eax
	sarl	$2, %eax
	movq	img, %rcx
	movw	%ax, 8092(%rcx)
	movq	img, %rcx
	movw	%ax, 8058(%rcx)
	movq	img, %rcx
	movw	%ax, 8024(%rcx)
	movl	-36(%rbp), %eax
	addl	-44(%rbp), %eax
	movl	-40(%rbp), %ecx
	shll	$1, %ecx
	addl	%ecx, %eax
	addl	$2, %eax
	sarl	$2, %eax
	movq	img, %rcx
	movw	%ax, 8108(%rcx)
	movq	img, %rcx
	movw	%ax, 8074(%rcx)
	movq	img, %rcx
	movw	%ax, 8040(%rcx)
	movl	-32(%rbp), %eax
	addl	-40(%rbp), %eax
	movl	-36(%rbp), %ecx
	shll	$1, %ecx
	addl	%ecx, %eax
	addl	$2, %eax
	sarl	$2, %eax
	movq	img, %rcx
	movw	%ax, 8090(%rcx)
	movq	img, %rcx
	movw	%ax, 8056(%rcx)
	movl	-28(%rbp), %eax
	addl	-36(%rbp), %eax
	movl	-32(%rbp), %ecx
	shll	$1, %ecx
	addl	%ecx, %eax
	addl	$2, %eax
	sarl	$2, %eax
	movq	img, %rcx
	movw	%ax, 8106(%rcx)
	movq	img, %rcx
	movw	%ax, 8072(%rcx)
	movl	-24(%rbp), %eax
	addl	-32(%rbp), %eax
	movl	-28(%rbp), %ecx
	shll	$1, %ecx
	addl	%ecx, %eax
	addl	$2, %eax
	sarl	$2, %eax
	movq	img, %rcx
	movw	%ax, 8088(%rcx)
	movl	-20(%rbp), %eax
	addl	-28(%rbp), %eax
	movl	-24(%rbp), %ecx
	shll	$1, %ecx
	addl	%ecx, %eax
	addl	$2, %eax
	sarl	$2, %eax
	movq	img, %rcx
	movw	%ax, 8104(%rcx)
	movl	-44(%rbp), %eax
	addl	-112(%rbp), %eax
	addl	$1, %eax
	sarl	$1, %eax
	movq	img, %rcx
	movw	%ax, 8180(%rcx)
	movq	img, %rcx
	movw	%ax, 8160(%rcx)
	movq	img, %rcx
	movw	%ax, 8140(%rcx)
	movq	img, %rcx
	movw	%ax, 8120(%rcx)
	movl	-40(%rbp), %eax
	addl	-44(%rbp), %eax
	addl	$1, %eax
	sarl	$1, %eax
	movq	img, %rcx
	movw	%ax, 8196(%rcx)
	movq	img, %rcx
	movw	%ax, 8176(%rcx)
	movq	img, %rcx
	movw	%ax, 8156(%rcx)
	movq	img, %rcx
	movw	%ax, 8136(%rcx)
	movl	-36(%rbp), %eax
	addl	-40(%rbp), %eax
	addl	$1, %eax
	sarl	$1, %eax
	movq	img, %rcx
	movw	%ax, 8212(%rcx)
	movq	img, %rcx
	movw	%ax, 8192(%rcx)
	movq	img, %rcx
	movw	%ax, 8172(%rcx)
	movq	img, %rcx
	movw	%ax, 8152(%rcx)
	movl	-32(%rbp), %eax
	addl	-36(%rbp), %eax
	addl	$1, %eax
	sarl	$1, %eax
	movq	img, %rcx
	movw	%ax, 8228(%rcx)
	movq	img, %rcx
	movw	%ax, 8208(%rcx)
	movq	img, %rcx
	movw	%ax, 8188(%rcx)
	movq	img, %rcx
	movw	%ax, 8168(%rcx)
	movl	-28(%rbp), %eax
	addl	-32(%rbp), %eax
	addl	$1, %eax
	sarl	$1, %eax
	movq	img, %rcx
	movw	%ax, 8244(%rcx)
	movq	img, %rcx
	movw	%ax, 8224(%rcx)
	movq	img, %rcx
	movw	%ax, 8204(%rcx)
	movq	img, %rcx
	movw	%ax, 8184(%rcx)
	movl	-24(%rbp), %eax
	addl	-28(%rbp), %eax
	addl	$1, %eax
	sarl	$1, %eax
	movq	img, %rcx
	movw	%ax, 8240(%rcx)
	movq	img, %rcx
	movw	%ax, 8220(%rcx)
	movq	img, %rcx
	movw	%ax, 8200(%rcx)
	movl	-20(%rbp), %eax
	addl	-24(%rbp), %eax
	addl	$1, %eax
	sarl	$1, %eax
	movq	img, %rcx
	movw	%ax, 8236(%rcx)
	movq	img, %rcx
	movw	%ax, 8216(%rcx)
	movl	-16(%rbp), %eax
	addl	-20(%rbp), %eax
	addl	$1, %eax
	sarl	$1, %eax
	movq	img, %rcx
	movw	%ax, 8232(%rcx)
	movl	-44(%rbp), %eax
	addl	-108(%rbp), %eax
	movl	-112(%rbp), %ecx
	shll	$1, %ecx
	addl	%ecx, %eax
	addl	$2, %eax
	sarl	$2, %eax
	movq	img, %rcx
	movw	%ax, 8182(%rcx)
	movq	img, %rcx
	movw	%ax, 8162(%rcx)
	movq	img, %rcx
	movw	%ax, 8142(%rcx)
	movq	img, %rcx
	movw	%ax, 8122(%rcx)
	movl	-112(%rbp), %eax
	addl	-40(%rbp), %eax
	movl	-44(%rbp), %ecx
	shll	$1, %ecx
	addl	%ecx, %eax
	addl	$2, %eax
	sarl	$2, %eax
	movq	img, %rcx
	movw	%ax, 8198(%rcx)
	movq	img, %rcx
	movw	%ax, 8178(%rcx)
	movq	img, %rcx
	movw	%ax, 8158(%rcx)
	movq	img, %rcx
	movw	%ax, 8138(%rcx)
	movl	-44(%rbp), %eax
	addl	-36(%rbp), %eax
	movl	-40(%rbp), %ecx
	shll	$1, %ecx
	addl	%ecx, %eax
	addl	$2, %eax
	sarl	$2, %eax
	movq	img, %rcx
	movw	%ax, 8214(%rcx)
	movq	img, %rcx
	movw	%ax, 8194(%rcx)
	movq	img, %rcx
	movw	%ax, 8174(%rcx)
	movq	img, %rcx
	movw	%ax, 8154(%rcx)
	movl	-40(%rbp), %eax
	addl	-32(%rbp), %eax
	movl	-36(%rbp), %ecx
	shll	$1, %ecx
	addl	%ecx, %eax
	addl	$2, %eax
	sarl	$2, %eax
	movq	img, %rcx
	movw	%ax, 8230(%rcx)
	movq	img, %rcx
	movw	%ax, 8210(%rcx)
	movq	img, %rcx
	movw	%ax, 8190(%rcx)
	movq	img, %rcx
	movw	%ax, 8170(%rcx)
	movl	-36(%rbp), %eax
	addl	-28(%rbp), %eax
	movl	-32(%rbp), %ecx
	shll	$1, %ecx
	addl	%ecx, %eax
	addl	$2, %eax
	sarl	$2, %eax
	movq	img, %rcx
	movw	%ax, 8246(%rcx)
	movq	img, %rcx
	movw	%ax, 8226(%rcx)
	movq	img, %rcx
	movw	%ax, 8206(%rcx)
	movq	img, %rcx
	movw	%ax, 8186(%rcx)
	movl	-32(%rbp), %eax
	addl	-24(%rbp), %eax
	movl	-28(%rbp), %ecx
	shll	$1, %ecx
	addl	%ecx, %eax
	addl	$2, %eax
	sarl	$2, %eax
	movq	img, %rcx
	movw	%ax, 8242(%rcx)
	movq	img, %rcx
	movw	%ax, 8222(%rcx)
	movq	img, %rcx
	movw	%ax, 8202(%rcx)
	movl	-28(%rbp), %eax
	addl	-20(%rbp), %eax
	movl	-24(%rbp), %ecx
	shll	$1, %ecx
	addl	%ecx, %eax
	addl	$2, %eax
	sarl	$2, %eax
	movq	img, %rcx
	movw	%ax, 8238(%rcx)
	movq	img, %rcx
	movw	%ax, 8218(%rcx)
	movl	-24(%rbp), %eax
	addl	-16(%rbp), %eax
	movl	-20(%rbp), %ecx
	shll	$1, %ecx
	addl	%ecx, %eax
	addl	$2, %eax
	sarl	$2, %eax
	movq	img, %rcx
	movw	%ax, 8234(%rcx)
	movl	-112(%rbp), %eax
	addl	-104(%rbp), %eax
	movl	-108(%rbp), %ecx
	shll	$1, %ecx
	addl	%ecx, %eax
	addl	$2, %eax
	sarl	$2, %eax
	movq	img, %rcx
	movw	%ax, 8164(%rcx)
	movq	img, %rcx
	movw	%ax, 8144(%rcx)
	movq	img, %rcx
	movw	%ax, 8124(%rcx)
	movl	-108(%rbp), %eax
	addl	-100(%rbp), %eax
	movl	-104(%rbp), %ecx
	shll	$1, %ecx
	addl	%ecx, %eax
	addl	$2, %eax
	sarl	$2, %eax
	movq	img, %rcx
	movw	%ax, 8166(%rcx)
	movq	img, %rcx
	movw	%ax, 8146(%rcx)
	movq	img, %rcx
	movw	%ax, 8126(%rcx)
	movl	-104(%rbp), %eax
	addl	-96(%rbp), %eax
	movl	-100(%rbp), %ecx
	shll	$1, %ecx
	addl	%ecx, %eax
	addl	$2, %eax
	sarl	$2, %eax
	movq	img, %rcx
	movw	%ax, 8148(%rcx)
	movq	img, %rcx
	movw	%ax, 8128(%rcx)
	movl	-100(%rbp), %eax
	addl	-92(%rbp), %eax
	movl	-96(%rbp), %ecx
	shll	$1, %ecx
	addl	%ecx, %eax
	addl	$2, %eax
	sarl	$2, %eax
	movq	img, %rcx
	movw	%ax, 8150(%rcx)
	movq	img, %rcx
	movw	%ax, 8130(%rcx)
	movl	-96(%rbp), %eax
	addl	-88(%rbp), %eax
	movl	-92(%rbp), %ecx
	shll	$1, %ecx
	addl	%ecx, %eax
	addl	$2, %eax
	sarl	$2, %eax
	movq	img, %rcx
	movw	%ax, 8132(%rcx)
	movl	-92(%rbp), %eax
	addl	-84(%rbp), %eax
	movl	-88(%rbp), %ecx
	shll	$1, %ecx
	addl	%ecx, %eax
	addl	$2, %eax
	sarl	$2, %eax
	movq	img, %rcx
	movw	%ax, 8134(%rcx)
.LBB17_80:                              # %if.end2641
	cmpl	$0, -116(%rbp)
	je	.LBB17_82
# %bb.81:                               # %if.then2643
	movl	-44(%rbp), %eax
	addl	-40(%rbp), %eax
	addl	$1, %eax
	sarl	$1, %eax
	movq	img, %rcx
	movw	%ax, 8376(%rcx)
	movl	-40(%rbp), %eax
	addl	-36(%rbp), %eax
	addl	$1, %eax
	sarl	$1, %eax
	movq	img, %rcx
	movw	%ax, 8380(%rcx)
	movq	img, %rcx
	movw	%ax, 8392(%rcx)
	movl	-36(%rbp), %eax
	addl	-32(%rbp), %eax
	addl	$1, %eax
	sarl	$1, %eax
	movq	img, %rcx
	movw	%ax, 8384(%rcx)
	movq	img, %rcx
	movw	%ax, 8396(%rcx)
	movq	img, %rcx
	movw	%ax, 8408(%rcx)
	movl	-32(%rbp), %eax
	addl	-28(%rbp), %eax
	addl	$1, %eax
	sarl	$1, %eax
	movq	img, %rcx
	movw	%ax, 8388(%rcx)
	movq	img, %rcx
	movw	%ax, 8400(%rcx)
	movq	img, %rcx
	movw	%ax, 8412(%rcx)
	movq	img, %rcx
	movw	%ax, 8424(%rcx)
	movl	-28(%rbp), %eax
	addl	-24(%rbp), %eax
	addl	$1, %eax
	sarl	$1, %eax
	movq	img, %rcx
	movw	%ax, 8404(%rcx)
	movq	img, %rcx
	movw	%ax, 8416(%rcx)
	movq	img, %rcx
	movw	%ax, 8428(%rcx)
	movq	img, %rcx
	movw	%ax, 8440(%rcx)
	movl	-24(%rbp), %eax
	addl	-20(%rbp), %eax
	addl	$1, %eax
	sarl	$1, %eax
	movq	img, %rcx
	movw	%ax, 8420(%rcx)
	movq	img, %rcx
	movw	%ax, 8432(%rcx)
	movq	img, %rcx
	movw	%ax, 8444(%rcx)
	movq	img, %rcx
	movw	%ax, 8456(%rcx)
	movl	-20(%rbp), %eax
	addl	-16(%rbp), %eax
	addl	$1, %eax
	sarl	$1, %eax
	movq	img, %rcx
	movw	%ax, 8436(%rcx)
	movq	img, %rcx
	movw	%ax, 8448(%rcx)
	movq	img, %rcx
	movw	%ax, 8460(%rcx)
	movq	img, %rcx
	movw	%ax, 8472(%rcx)
	movl	-16(%rbp), %eax
	movq	img, %rcx
	movw	%ax, 8502(%rcx)
	movq	img, %rcx
	movw	%ax, 8500(%rcx)
	movq	img, %rcx
	movw	%ax, 8498(%rcx)
	movq	img, %rcx
	movw	%ax, 8496(%rcx)
	movq	img, %rcx
	movw	%ax, 8494(%rcx)
	movq	img, %rcx
	movw	%ax, 8492(%rcx)
	movq	img, %rcx
	movw	%ax, 8490(%rcx)
	movq	img, %rcx
	movw	%ax, 8488(%rcx)
	movq	img, %rcx
	movw	%ax, 8486(%rcx)
	movq	img, %rcx
	movw	%ax, 8484(%rcx)
	movq	img, %rcx
	movw	%ax, 8482(%rcx)
	movq	img, %rcx
	movw	%ax, 8480(%rcx)
	movq	img, %rcx
	movw	%ax, 8478(%rcx)
	movq	img, %rcx
	movw	%ax, 8476(%rcx)
	movq	img, %rcx
	movw	%ax, 8470(%rcx)
	movq	img, %rcx
	movw	%ax, 8468(%rcx)
	movq	img, %rcx
	movw	%ax, 8466(%rcx)
	movq	img, %rcx
	movw	%ax, 8464(%rcx)
	movq	img, %rcx
	movw	%ax, 8454(%rcx)
	movq	img, %rcx
	movw	%ax, 8452(%rcx)
	movl	-20(%rbp), %eax
	imull	$3, -16(%rbp), %ecx
	addl	%ecx, %eax
	addl	$2, %eax
	sarl	$2, %eax
	movq	img, %rcx
	movw	%ax, 8438(%rcx)
	movq	img, %rcx
	movw	%ax, 8450(%rcx)
	movq	img, %rcx
	movw	%ax, 8462(%rcx)
	movq	img, %rcx
	movw	%ax, 8474(%rcx)
	movl	-16(%rbp), %eax
	addl	-24(%rbp), %eax
	movl	-20(%rbp), %ecx
	shll	$1, %ecx
	addl	%ecx, %eax
	addl	$2, %eax
	sarl	$2, %eax
	movq	img, %rcx
	movw	%ax, 8422(%rcx)
	movq	img, %rcx
	movw	%ax, 8434(%rcx)
	movq	img, %rcx
	movw	%ax, 8446(%rcx)
	movq	img, %rcx
	movw	%ax, 8458(%rcx)
	movl	-20(%rbp), %eax
	addl	-28(%rbp), %eax
	movl	-24(%rbp), %ecx
	shll	$1, %ecx
	addl	%ecx, %eax
	addl	$2, %eax
	sarl	$2, %eax
	movq	img, %rcx
	movw	%ax, 8406(%rcx)
	movq	img, %rcx
	movw	%ax, 8418(%rcx)
	movq	img, %rcx
	movw	%ax, 8430(%rcx)
	movq	img, %rcx
	movw	%ax, 8442(%rcx)
	movl	-24(%rbp), %eax
	addl	-32(%rbp), %eax
	movl	-28(%rbp), %ecx
	shll	$1, %ecx
	addl	%ecx, %eax
	addl	$2, %eax
	sarl	$2, %eax
	movq	img, %rcx
	movw	%ax, 8390(%rcx)
	movq	img, %rcx
	movw	%ax, 8402(%rcx)
	movq	img, %rcx
	movw	%ax, 8414(%rcx)
	movq	img, %rcx
	movw	%ax, 8426(%rcx)
	movl	-28(%rbp), %eax
	addl	-36(%rbp), %eax
	movl	-32(%rbp), %ecx
	shll	$1, %ecx
	addl	%ecx, %eax
	addl	$2, %eax
	sarl	$2, %eax
	movq	img, %rcx
	movw	%ax, 8386(%rcx)
	movq	img, %rcx
	movw	%ax, 8398(%rcx)
	movq	img, %rcx
	movw	%ax, 8410(%rcx)
	movl	-32(%rbp), %eax
	addl	-40(%rbp), %eax
	movl	-36(%rbp), %ecx
	shll	$1, %ecx
	addl	%ecx, %eax
	addl	$2, %eax
	sarl	$2, %eax
	movq	img, %rcx
	movw	%ax, 8382(%rcx)
	movq	img, %rcx
	movw	%ax, 8394(%rcx)
	movl	-36(%rbp), %eax
	addl	-44(%rbp), %eax
	movl	-40(%rbp), %ecx
	shll	$1, %ecx
	addl	%ecx, %eax
	addl	$2, %eax
	sarl	$2, %eax
	movq	img, %rcx
	movw	%ax, 8378(%rcx)
.LBB17_82:                              # %if.end3005
	cmpl	$286120668, -224(%rbp)  # imm = 0x110DDADC
	jne	.LBB17_84
.LBB17_83:
	addq	$464, %rsp              # imm = 0x1D0
	popq	%rbp
	.cfi_def_cfa %rsp, 8
	retq
.LBB17_84:                              # %func_exit
	.cfi_def_cfa %rbp, 16
	callq	detect_breach
	jmp	.LBB17_83
.Lfunc_end17:
	.size	intrapred_luma8x8.12, .Lfunc_end17-intrapred_luma8x8.12
	.cfi_endproc
                                        # -- End function
	.globl	LowPassForIntra8x8Pred.13 # -- Begin function LowPassForIntra8x8Pred.13
	.p2align	4, 0x90
	.type	LowPassForIntra8x8Pred.13,@function
LowPassForIntra8x8Pred.13:              # @LowPassForIntra8x8Pred.13
	.cfi_startproc
# %bb.0:                                # %entry
	pushq	%rbp
	.cfi_def_cfa_offset 16
	.cfi_offset %rbp, -16
	movq	%rsp, %rbp
	.cfi_def_cfa_register %rbp
	subq	$144, %rsp
	movl	$1410569870, -32(%rbp)  # imm = 0x5413968E
	movq	%rdi, -16(%rbp)
	movl	%esi, -28(%rbp)
	movl	%edx, -24(%rbp)
	movl	%ecx, -20(%rbp)
	movl	$0, -4(%rbp)
.LBB18_1:                               # %for.cond
                                        # =>This Inner Loop Header: Depth=1
	cmpl	$25, -4(%rbp)
	jge	.LBB18_4
# %bb.2:                                # %for.body
                                        #   in Loop: Header=BB18_1 Depth=1
	movq	-16(%rbp), %rax
	movslq	-4(%rbp), %rcx
	movl	(%rax,%rcx,4), %eax
	movslq	-4(%rbp), %rcx
	movl	%eax, -144(%rbp,%rcx,4)
# %bb.3:                                # %for.inc
                                        #   in Loop: Header=BB18_1 Depth=1
	movl	-4(%rbp), %eax
	addl	$1, %eax
	movl	%eax, -4(%rbp)
	jmp	.LBB18_1
.LBB18_4:                               # %for.end
	cmpl	$0, -24(%rbp)
	je	.LBB18_13
# %bb.5:                                # %if.then
	cmpl	$0, -28(%rbp)
	je	.LBB18_7
# %bb.6:                                # %if.then4
	movq	-16(%rbp), %rax
	movl	(%rax), %eax
	movq	-16(%rbp), %rcx
	movl	4(%rcx), %ecx
	shll	$1, %ecx
	addl	%ecx, %eax
	movq	-16(%rbp), %rcx
	addl	8(%rcx), %eax
	addl	$2, %eax
	sarl	$2, %eax
	movl	%eax, -140(%rbp)
	jmp	.LBB18_8
.LBB18_7:                               # %if.else
	movq	-16(%rbp), %rax
	movl	4(%rax), %eax
	movq	-16(%rbp), %rcx
	movl	4(%rcx), %ecx
	shll	$1, %ecx
	addl	%ecx, %eax
	movq	-16(%rbp), %rcx
	addl	8(%rcx), %eax
	addl	$2, %eax
	sarl	$2, %eax
	movl	%eax, -140(%rbp)
.LBB18_8:                               # %if.end
	movl	$2, -4(%rbp)
.LBB18_9:                               # %for.cond26
                                        # =>This Inner Loop Header: Depth=1
	cmpl	$16, -4(%rbp)
	jge	.LBB18_12
# %bb.10:                               # %for.body28
                                        #   in Loop: Header=BB18_9 Depth=1
	movq	-16(%rbp), %rax
	movl	-4(%rbp), %ecx
	subl	$1, %ecx
	movslq	%ecx, %rcx
	movl	(%rax,%rcx,4), %eax
	movq	-16(%rbp), %rcx
	movslq	-4(%rbp), %rdx
	movl	(%rcx,%rdx,4), %ecx
	shll	$1, %ecx
	addl	%ecx, %eax
	movq	-16(%rbp), %rcx
	movl	-4(%rbp), %edx
	addl	$1, %edx
	movslq	%edx, %rdx
	addl	(%rcx,%rdx,4), %eax
	addl	$2, %eax
	sarl	$2, %eax
	movslq	-4(%rbp), %rcx
	movl	%eax, -144(%rbp,%rcx,4)
# %bb.11:                               # %for.inc46
                                        #   in Loop: Header=BB18_9 Depth=1
	movl	-4(%rbp), %eax
	addl	$1, %eax
	movl	%eax, -4(%rbp)
	jmp	.LBB18_9
.LBB18_12:                              # %for.end48
	movq	-16(%rbp), %rax
	movl	64(%rax), %eax
	movq	-16(%rbp), %rcx
	movl	64(%rcx), %ecx
	shll	$1, %ecx
	addl	%ecx, %eax
	movq	-16(%rbp), %rcx
	addl	60(%rcx), %eax
	addl	$2, %eax
	sarl	$2, %eax
	movl	%eax, -80(%rbp)
.LBB18_13:                              # %if.end58
	cmpl	$0, -28(%rbp)
	je	.LBB18_24
# %bb.14:                               # %if.then60
	cmpl	$0, -24(%rbp)
	je	.LBB18_17
# %bb.15:                               # %land.lhs.true
	cmpl	$0, -20(%rbp)
	je	.LBB18_17
# %bb.16:                               # %if.then63
	movq	-16(%rbp), %rax
	movl	68(%rax), %eax
	movq	-16(%rbp), %rcx
	movl	(%rcx), %ecx
	shll	$1, %ecx
	addl	%ecx, %eax
	movq	-16(%rbp), %rcx
	addl	4(%rcx), %eax
	addl	$2, %eax
	sarl	$2, %eax
	movl	%eax, -144(%rbp)
	jmp	.LBB18_23
.LBB18_17:                              # %if.else73
	cmpl	$0, -24(%rbp)
	je	.LBB18_19
# %bb.18:                               # %if.then75
	movq	-16(%rbp), %rax
	movl	(%rax), %eax
	movq	-16(%rbp), %rcx
	movl	(%rcx), %ecx
	shll	$1, %ecx
	addl	%ecx, %eax
	movq	-16(%rbp), %rcx
	addl	4(%rcx), %eax
	addl	$2, %eax
	sarl	$2, %eax
	movl	%eax, -144(%rbp)
	jmp	.LBB18_22
.LBB18_19:                              # %if.else85
	cmpl	$0, -20(%rbp)
	je	.LBB18_21
# %bb.20:                               # %if.then87
	movq	-16(%rbp), %rax
	movl	(%rax), %eax
	movq	-16(%rbp), %rcx
	movl	(%rcx), %ecx
	shll	$1, %ecx
	addl	%ecx, %eax
	movq	-16(%rbp), %rcx
	addl	68(%rcx), %eax
	addl	$2, %eax
	sarl	$2, %eax
	movl	%eax, -144(%rbp)
.LBB18_21:                              # %if.end97
	jmp	.LBB18_22
.LBB18_22:                              # %if.end98
	jmp	.LBB18_23
.LBB18_23:                              # %if.end99
	jmp	.LBB18_24
.LBB18_24:                              # %if.end100
	cmpl	$0, -20(%rbp)
	je	.LBB18_33
# %bb.25:                               # %if.then102
	cmpl	$0, -28(%rbp)
	je	.LBB18_27
# %bb.26:                               # %if.then104
	movq	-16(%rbp), %rax
	movl	(%rax), %eax
	movq	-16(%rbp), %rcx
	movl	68(%rcx), %ecx
	shll	$1, %ecx
	addl	%ecx, %eax
	movq	-16(%rbp), %rcx
	addl	72(%rcx), %eax
	addl	$2, %eax
	sarl	$2, %eax
	movl	%eax, -76(%rbp)
	jmp	.LBB18_28
.LBB18_27:                              # %if.else114
	movq	-16(%rbp), %rax
	movl	68(%rax), %eax
	movq	-16(%rbp), %rcx
	movl	68(%rcx), %ecx
	shll	$1, %ecx
	addl	%ecx, %eax
	movq	-16(%rbp), %rcx
	addl	72(%rcx), %eax
	addl	$2, %eax
	sarl	$2, %eax
	movl	%eax, -76(%rbp)
.LBB18_28:                              # %if.end124
	movl	$18, -4(%rbp)
.LBB18_29:                              # %for.cond125
                                        # =>This Inner Loop Header: Depth=1
	cmpl	$24, -4(%rbp)
	jge	.LBB18_32
# %bb.30:                               # %for.body127
                                        #   in Loop: Header=BB18_29 Depth=1
	movq	-16(%rbp), %rax
	movl	-4(%rbp), %ecx
	subl	$1, %ecx
	movslq	%ecx, %rcx
	movl	(%rax,%rcx,4), %eax
	movq	-16(%rbp), %rcx
	movslq	-4(%rbp), %rdx
	movl	(%rcx,%rdx,4), %ecx
	shll	$1, %ecx
	addl	%ecx, %eax
	movq	-16(%rbp), %rcx
	movl	-4(%rbp), %edx
	addl	$1, %edx
	movslq	%edx, %rdx
	addl	(%rcx,%rdx,4), %eax
	addl	$2, %eax
	sarl	$2, %eax
	movslq	-4(%rbp), %rcx
	movl	%eax, -144(%rbp,%rcx,4)
# %bb.31:                               # %for.inc146
                                        #   in Loop: Header=BB18_29 Depth=1
	movl	-4(%rbp), %eax
	addl	$1, %eax
	movl	%eax, -4(%rbp)
	jmp	.LBB18_29
.LBB18_32:                              # %for.end148
	movq	-16(%rbp), %rax
	movl	92(%rax), %eax
	movq	-16(%rbp), %rcx
	movl	96(%rcx), %ecx
	shll	$1, %ecx
	addl	%ecx, %eax
	movq	-16(%rbp), %rcx
	addl	96(%rcx), %eax
	addl	$2, %eax
	sarl	$2, %eax
	movl	%eax, -48(%rbp)
.LBB18_33:                              # %if.end158
	movl	$0, -4(%rbp)
.LBB18_34:                              # %for.cond159
                                        # =>This Inner Loop Header: Depth=1
	cmpl	$25, -4(%rbp)
	jge	.LBB18_37
# %bb.35:                               # %for.body161
                                        #   in Loop: Header=BB18_34 Depth=1
	movslq	-4(%rbp), %rax
	movl	-144(%rbp,%rax,4), %eax
	movq	-16(%rbp), %rcx
	movslq	-4(%rbp), %rdx
	movl	%eax, (%rcx,%rdx,4)
# %bb.36:                               # %for.inc166
                                        #   in Loop: Header=BB18_34 Depth=1
	movl	-4(%rbp), %eax
	addl	$1, %eax
	movl	%eax, -4(%rbp)
	jmp	.LBB18_34
.LBB18_37:                              # %for.end168
	cmpl	$1410569870, -32(%rbp)  # imm = 0x5413968E
	jne	.LBB18_39
.LBB18_38:
	addq	$144, %rsp
	popq	%rbp
	.cfi_def_cfa %rsp, 8
	retq
.LBB18_39:                              # %func_exit
	.cfi_def_cfa %rbp, 16
	callq	detect_breach
	jmp	.LBB18_38
.Lfunc_end18:
	.size	LowPassForIntra8x8Pred.13, .Lfunc_end18-LowPassForIntra8x8Pred.13
	.cfi_endproc
                                        # -- End function
	.globl	dct_luma8x8.14          # -- Begin function dct_luma8x8.14
	.p2align	4, 0x90
	.type	dct_luma8x8.14,@function
dct_luma8x8.14:                         # @dct_luma8x8.14
	.cfi_startproc
# %bb.0:                                # %entry
	pushq	%rbp
	.cfi_def_cfa_offset 16
	.cfi_offset %rbp, -16
	movq	%rsp, %rbp
	.cfi_def_cfa_register %rbp
	pushq	%rbx
	subq	$664, %rsp              # imm = 0x298
	.cfi_offset %rbx, -24
	xorl	%ecx, %ecx
	movl	$1122342718, -396(%rbp) # imm = 0x42E5973E
	movl	%edi, -36(%rbp)
	movq	%rsi, -352(%rbp)
	movl	%edx, -344(%rbp)
	movl	$0, -140(%rbp)
	movl	$0, -132(%rbp)
	movl	$0, -136(%rbp)
	movl	-36(%rbp), %eax
	cltd
	movl	$2, %esi
	idivl	%esi
	shll	$3, %edx
	movl	%edx, -48(%rbp)
	movl	-36(%rbp), %eax
	cltd
	idivl	%esi
	shll	$3, %eax
	movl	%eax, -52(%rbp)
	movq	img, %rax
	movq	14136(%rax), %rax
	movslq	-36(%rbp), %rdx
	movq	(%rax,%rdx,8), %rax
	movq	(%rax), %rax
	movq	(%rax), %rax
	movq	%rax, -408(%rbp)
	movq	img, %rax
	movq	14136(%rax), %rax
	movslq	-36(%rbp), %rdx
	movq	(%rax,%rdx,8), %rax
	movq	(%rax), %rax
	movq	8(%rax), %rax
	movq	%rax, -416(%rbp)
	movq	img, %rax
	movq	14168(%rax), %rax
	movq	img, %rdx
	movslq	12(%rdx), %rdx
	imulq	$632, %rdx, %rdx        # imm = 0x278
	addq	%rdx, %rax
	movq	%rax, -392(%rbp)
	movq	img, %rax
	movl	40(%rax), %eax
	movq	img, %rdx
	addl	72668(%rdx), %eax
	cmpl	$0, %eax
	jne	.LBB19_2
# %bb.1:                                # %land.rhs
	movq	img, %rax
	cmpl	$1, 72704(%rax)
	sete	%cl
.LBB19_2:                               # %land.end
	andb	$1, %cl
	movzbl	%cl, %eax
	movl	%eax, -32(%rbp)
	movq	img, %rax
	movl	40(%rax), %eax
	movq	img, %rcx
	addl	72668(%rcx), %eax
	subl	$0, %eax
	cltd
	movl	$6, %ecx
	idivl	%ecx
	movl	%eax, -28(%rbp)
	movq	img, %rax
	movl	40(%rax), %eax
	movq	img, %rdx
	addl	72668(%rdx), %eax
	subl	$0, %eax
	cltd
	idivl	%ecx
	movl	%edx, -40(%rbp)
	movl	-28(%rbp), %eax
	addl	$16, %eax
	movl	%eax, -64(%rbp)
	cmpl	$6, -28(%rbp)
	jge	.LBB19_4
# %bb.3:                                # %if.then
	movl	$6, %eax
	subl	-28(%rbp), %eax
	movl	%eax, -132(%rbp)
	movl	$5, %ecx
	subl	-28(%rbp), %ecx
                                        # kill: def $cl killed $ecx
	movl	$1, %eax
	shll	%cl, %eax
	movl	%eax, -136(%rbp)
	jmp	.LBB19_5
.LBB19_4:                               # %if.else
	movl	-28(%rbp), %eax
	subl	$6, %eax
	movl	%eax, -140(%rbp)
.LBB19_5:                               # %if.end
	movq	img, %rax
	cmpl	$2, 24(%rax)
	jne	.LBB19_7
# %bb.6:                                # %if.then27
	movl	-64(%rbp), %ecx
                                        # kill: def $cl killed $ecx
	movl	$1, %eax
	shll	%cl, %eax
	cltd
	movl	$3, %ecx
	idivl	%ecx
	movl	%eax, -400(%rbp)
	jmp	.LBB19_8
.LBB19_7:                               # %if.else30
	movl	-64(%rbp), %ecx
                                        # kill: def $cl killed $ecx
	movl	$1, %eax
	shll	%cl, %eax
	cltd
	movl	$6, %ecx
	idivl	%ecx
	movl	%eax, -400(%rbp)
.LBB19_8:                               # %if.end33
	movl	$0, -12(%rbp)
.LBB19_9:                               # %for.cond
                                        # =>This Inner Loop Header: Depth=1
	xorl	%eax, %eax
	cmpl	$8, -12(%rbp)
	jge	.LBB19_11
# %bb.10:                               # %land.rhs35
                                        #   in Loop: Header=BB19_9 Depth=1
	cmpl	$0, -32(%rbp)
	setne	%al
	xorb	$-1, %al
.LBB19_11:                              # %land.end36
                                        #   in Loop: Header=BB19_9 Depth=1
	testb	$1, %al
	jne	.LBB19_12
	jmp	.LBB19_14
.LBB19_12:                              # %for.body
                                        #   in Loop: Header=BB19_9 Depth=1
	xorl	%eax, %eax
	movq	img, %rcx
	movslq	-12(%rbp), %rdx
	movl	13112(%rcx,%rdx,4), %ecx
	movq	img, %rdx
	movslq	-12(%rbp), %rsi
	addl	13560(%rdx,%rsi,4), %ecx
	movl	%ecx, -128(%rbp)
	movq	img, %rcx
	movslq	-12(%rbp), %rdx
	movl	13176(%rcx,%rdx,4), %ecx
	movq	img, %rdx
	movslq	-12(%rbp), %rsi
	addl	13496(%rdx,%rsi,4), %ecx
	movl	%ecx, -124(%rbp)
	movq	img, %rcx
	movslq	-12(%rbp), %rdx
	movl	13240(%rcx,%rdx,4), %ecx
	movq	img, %rdx
	movslq	-12(%rbp), %rsi
	addl	13432(%rdx,%rsi,4), %ecx
	movl	%ecx, -120(%rbp)
	movq	img, %rcx
	movslq	-12(%rbp), %rdx
	movl	13304(%rcx,%rdx,4), %ecx
	movq	img, %rdx
	movslq	-12(%rbp), %rsi
	addl	13368(%rdx,%rsi,4), %ecx
	movl	%ecx, -116(%rbp)
	movl	-128(%rbp), %ecx
	addl	-116(%rbp), %ecx
	movl	%ecx, -176(%rbp)
	movl	-124(%rbp), %ecx
	addl	-120(%rbp), %ecx
	movl	%ecx, -172(%rbp)
	movl	-128(%rbp), %ecx
	subl	-116(%rbp), %ecx
	movl	%ecx, -168(%rbp)
	movl	-124(%rbp), %ecx
	subl	-120(%rbp), %ecx
	movl	%ecx, -164(%rbp)
	movq	img, %rcx
	movslq	-12(%rbp), %rdx
	movl	13112(%rcx,%rdx,4), %ecx
	movq	img, %rdx
	movslq	-12(%rbp), %rsi
	subl	13560(%rdx,%rsi,4), %ecx
	movl	%ecx, -112(%rbp)
	movq	img, %rcx
	movslq	-12(%rbp), %rdx
	movl	13176(%rcx,%rdx,4), %ecx
	movq	img, %rdx
	movslq	-12(%rbp), %rsi
	subl	13496(%rdx,%rsi,4), %ecx
	movl	%ecx, -108(%rbp)
	movq	img, %rcx
	movslq	-12(%rbp), %rdx
	movl	13240(%rcx,%rdx,4), %ecx
	movq	img, %rdx
	movslq	-12(%rbp), %rsi
	subl	13432(%rdx,%rsi,4), %ecx
	movl	%ecx, -104(%rbp)
	movq	img, %rcx
	movslq	-12(%rbp), %rdx
	movl	13304(%rcx,%rdx,4), %ecx
	movq	img, %rdx
	movslq	-12(%rbp), %rsi
	subl	13368(%rdx,%rsi,4), %ecx
	movl	%ecx, -100(%rbp)
	movl	-108(%rbp), %ecx
	addl	-104(%rbp), %ecx
	movl	-112(%rbp), %edx
	sarl	$1, %edx
	addl	-112(%rbp), %edx
	addl	%edx, %ecx
	movl	%ecx, -160(%rbp)
	movl	-112(%rbp), %ecx
	subl	-100(%rbp), %ecx
	movl	-104(%rbp), %edx
	sarl	$1, %edx
	addl	-104(%rbp), %edx
	subl	%edx, %ecx
	movl	%ecx, -156(%rbp)
	movl	-112(%rbp), %ecx
	addl	-100(%rbp), %ecx
	movl	-108(%rbp), %edx
	sarl	$1, %edx
	addl	-108(%rbp), %edx
	subl	%edx, %ecx
	movl	%ecx, -152(%rbp)
	movl	-108(%rbp), %ecx
	subl	-104(%rbp), %ecx
	movl	-100(%rbp), %edx
	sarl	$1, %edx
	addl	-100(%rbp), %edx
	addl	%edx, %ecx
	movl	%ecx, -148(%rbp)
	movl	-176(%rbp), %ecx
	addl	-172(%rbp), %ecx
	movslq	-12(%rbp), %rdx
	movl	%ecx, -672(%rbp,%rdx,4)
	movl	-168(%rbp), %ecx
	movl	-164(%rbp), %edx
	sarl	$1, %edx
	addl	%edx, %ecx
	movslq	-12(%rbp), %rdx
	movl	%ecx, -608(%rbp,%rdx,4)
	movl	-176(%rbp), %ecx
	subl	-172(%rbp), %ecx
	movslq	-12(%rbp), %rdx
	movl	%ecx, -544(%rbp,%rdx,4)
	movl	-168(%rbp), %ecx
	sarl	$1, %ecx
	subl	-164(%rbp), %ecx
	movslq	-12(%rbp), %rdx
	movl	%ecx, -480(%rbp,%rdx,4)
	movl	-160(%rbp), %ecx
	movl	-148(%rbp), %edx
	sarl	$2, %edx
	addl	%edx, %ecx
	movslq	-12(%rbp), %rdx
	movl	%ecx, -640(%rbp,%rdx,4)
	movl	-156(%rbp), %ecx
	movl	-152(%rbp), %edx
	sarl	$2, %edx
	addl	%edx, %ecx
	movslq	-12(%rbp), %rdx
	movl	%ecx, -576(%rbp,%rdx,4)
	movl	-152(%rbp), %ecx
	movl	-156(%rbp), %edx
	sarl	$2, %edx
	subl	%edx, %ecx
	movslq	-12(%rbp), %rdx
	movl	%ecx, -512(%rbp,%rdx,4)
	subl	-148(%rbp), %eax
	movl	-160(%rbp), %ecx
	sarl	$2, %ecx
	addl	%ecx, %eax
	movslq	-12(%rbp), %rcx
	movl	%eax, -448(%rbp,%rcx,4)
# %bb.13:                               # %for.inc
                                        #   in Loop: Header=BB19_9 Depth=1
	movl	-12(%rbp), %eax
	addl	$1, %eax
	movl	%eax, -12(%rbp)
	jmp	.LBB19_9
.LBB19_14:                              # %for.end
	movl	$0, -12(%rbp)
.LBB19_15:                              # %for.cond223
                                        # =>This Inner Loop Header: Depth=1
	xorl	%eax, %eax
	cmpl	$8, -12(%rbp)
	jge	.LBB19_17
# %bb.16:                               # %land.rhs225
                                        #   in Loop: Header=BB19_15 Depth=1
	cmpl	$0, -32(%rbp)
	setne	%al
	xorb	$-1, %al
.LBB19_17:                              # %land.end228
                                        #   in Loop: Header=BB19_15 Depth=1
	testb	$1, %al
	jne	.LBB19_18
	jmp	.LBB19_20
.LBB19_18:                              # %for.body230
                                        #   in Loop: Header=BB19_15 Depth=1
	xorl	%eax, %eax
	movslq	-12(%rbp), %rdx
	shlq	$5, %rdx
	leaq	-672(%rbp), %rcx
	movq	%rcx, %rsi
	addq	%rdx, %rsi
	movl	(%rsi), %edx
	movslq	-12(%rbp), %rsi
	shlq	$5, %rsi
	movq	%rcx, %rdi
	addq	%rsi, %rdi
	addl	28(%rdi), %edx
	movl	%edx, -96(%rbp)
	movslq	-12(%rbp), %rdx
	shlq	$5, %rdx
	movq	%rcx, %rsi
	addq	%rdx, %rsi
	movl	4(%rsi), %edx
	movslq	-12(%rbp), %rsi
	shlq	$5, %rsi
	movq	%rcx, %rdi
	addq	%rsi, %rdi
	addl	24(%rdi), %edx
	movl	%edx, -92(%rbp)
	movslq	-12(%rbp), %rdx
	shlq	$5, %rdx
	movq	%rcx, %rsi
	addq	%rdx, %rsi
	movl	8(%rsi), %edx
	movslq	-12(%rbp), %rsi
	shlq	$5, %rsi
	movq	%rcx, %rdi
	addq	%rsi, %rdi
	addl	20(%rdi), %edx
	movl	%edx, -88(%rbp)
	movslq	-12(%rbp), %rdx
	shlq	$5, %rdx
	movq	%rcx, %rsi
	addq	%rdx, %rsi
	movl	12(%rsi), %edx
	movslq	-12(%rbp), %rsi
	shlq	$5, %rsi
	movq	%rcx, %rdi
	addq	%rsi, %rdi
	addl	16(%rdi), %edx
	movl	%edx, -84(%rbp)
	movl	-96(%rbp), %edx
	addl	-84(%rbp), %edx
	movl	%edx, -240(%rbp)
	movl	-92(%rbp), %edx
	addl	-88(%rbp), %edx
	movl	%edx, -236(%rbp)
	movl	-96(%rbp), %edx
	subl	-84(%rbp), %edx
	movl	%edx, -232(%rbp)
	movl	-92(%rbp), %edx
	subl	-88(%rbp), %edx
	movl	%edx, -228(%rbp)
	movslq	-12(%rbp), %rdx
	shlq	$5, %rdx
	movq	%rcx, %rsi
	addq	%rdx, %rsi
	movl	(%rsi), %edx
	movslq	-12(%rbp), %rsi
	shlq	$5, %rsi
	movq	%rcx, %rdi
	addq	%rsi, %rdi
	subl	28(%rdi), %edx
	movl	%edx, -80(%rbp)
	movslq	-12(%rbp), %rdx
	shlq	$5, %rdx
	movq	%rcx, %rsi
	addq	%rdx, %rsi
	movl	4(%rsi), %edx
	movslq	-12(%rbp), %rsi
	shlq	$5, %rsi
	movq	%rcx, %rdi
	addq	%rsi, %rdi
	subl	24(%rdi), %edx
	movl	%edx, -76(%rbp)
	movslq	-12(%rbp), %rdx
	shlq	$5, %rdx
	movq	%rcx, %rsi
	addq	%rdx, %rsi
	movl	8(%rsi), %edx
	movslq	-12(%rbp), %rsi
	shlq	$5, %rsi
	movq	%rcx, %rdi
	addq	%rsi, %rdi
	subl	20(%rdi), %edx
	movl	%edx, -72(%rbp)
	movslq	-12(%rbp), %rdx
	shlq	$5, %rdx
	movq	%rcx, %rsi
	addq	%rdx, %rsi
	movl	12(%rsi), %edx
	movslq	-12(%rbp), %rsi
	shlq	$5, %rsi
	addq	%rsi, %rcx
	subl	16(%rcx), %edx
	movl	%edx, -68(%rbp)
	movl	-76(%rbp), %ecx
	addl	-72(%rbp), %ecx
	movl	-80(%rbp), %edx
	sarl	$1, %edx
	addl	-80(%rbp), %edx
	addl	%edx, %ecx
	movl	%ecx, -224(%rbp)
	movl	-80(%rbp), %ecx
	subl	-68(%rbp), %ecx
	movl	-72(%rbp), %edx
	sarl	$1, %edx
	addl	-72(%rbp), %edx
	subl	%edx, %ecx
	movl	%ecx, -220(%rbp)
	movl	-80(%rbp), %ecx
	addl	-68(%rbp), %ecx
	movl	-76(%rbp), %edx
	sarl	$1, %edx
	addl	-76(%rbp), %edx
	subl	%edx, %ecx
	movl	%ecx, -216(%rbp)
	movl	-76(%rbp), %ecx
	subl	-72(%rbp), %ecx
	movl	-68(%rbp), %edx
	sarl	$1, %edx
	addl	-68(%rbp), %edx
	addl	%edx, %ecx
	movl	%ecx, -212(%rbp)
	movl	-240(%rbp), %ecx
	addl	-236(%rbp), %ecx
	movq	img, %rdx
	addq	$13112, %rdx            # imm = 0x3338
	movslq	-12(%rbp), %rsi
	shlq	$6, %rsi
	addq	%rsi, %rdx
	movl	%ecx, (%rdx)
	movl	-232(%rbp), %ecx
	movl	-228(%rbp), %edx
	sarl	$1, %edx
	addl	%edx, %ecx
	movq	img, %rdx
	addq	$13112, %rdx            # imm = 0x3338
	movslq	-12(%rbp), %rsi
	shlq	$6, %rsi
	addq	%rsi, %rdx
	movl	%ecx, 8(%rdx)
	movl	-240(%rbp), %ecx
	subl	-236(%rbp), %ecx
	movq	img, %rdx
	addq	$13112, %rdx            # imm = 0x3338
	movslq	-12(%rbp), %rsi
	shlq	$6, %rsi
	addq	%rsi, %rdx
	movl	%ecx, 16(%rdx)
	movl	-232(%rbp), %ecx
	sarl	$1, %ecx
	subl	-228(%rbp), %ecx
	movq	img, %rdx
	addq	$13112, %rdx            # imm = 0x3338
	movslq	-12(%rbp), %rsi
	shlq	$6, %rsi
	addq	%rsi, %rdx
	movl	%ecx, 24(%rdx)
	movl	-224(%rbp), %ecx
	movl	-212(%rbp), %edx
	sarl	$2, %edx
	addl	%edx, %ecx
	movq	img, %rdx
	addq	$13112, %rdx            # imm = 0x3338
	movslq	-12(%rbp), %rsi
	shlq	$6, %rsi
	addq	%rsi, %rdx
	movl	%ecx, 4(%rdx)
	movl	-220(%rbp), %ecx
	movl	-216(%rbp), %edx
	sarl	$2, %edx
	addl	%edx, %ecx
	movq	img, %rdx
	addq	$13112, %rdx            # imm = 0x3338
	movslq	-12(%rbp), %rsi
	shlq	$6, %rsi
	addq	%rsi, %rdx
	movl	%ecx, 12(%rdx)
	movl	-216(%rbp), %ecx
	movl	-220(%rbp), %edx
	sarl	$2, %edx
	subl	%edx, %ecx
	movq	img, %rdx
	addq	$13112, %rdx            # imm = 0x3338
	movslq	-12(%rbp), %rsi
	shlq	$6, %rsi
	addq	%rsi, %rdx
	movl	%ecx, 20(%rdx)
	subl	-212(%rbp), %eax
	movl	-224(%rbp), %ecx
	sarl	$2, %ecx
	addl	%ecx, %eax
	movq	img, %rcx
	addq	$13112, %rcx            # imm = 0x3338
	movslq	-12(%rbp), %rdx
	shlq	$6, %rdx
	addq	%rdx, %rcx
	movl	%eax, 28(%rcx)
# %bb.19:                               # %for.inc412
                                        #   in Loop: Header=BB19_15 Depth=1
	movl	-12(%rbp), %eax
	addl	$1, %eax
	movl	%eax, -12(%rbp)
	jmp	.LBB19_15
.LBB19_20:                              # %for.end414
	movl	$0, -340(%rbp)
	movl	$-1, -60(%rbp)
	movl	$0, -56(%rbp)
	movl	$-1, -356(%rbp)
	movl	$-1, -360(%rbp)
	movl	$-1, -364(%rbp)
	movl	$-1, -368(%rbp)
	movl	$0, -372(%rbp)
	movl	$0, -376(%rbp)
	movl	$0, -380(%rbp)
	movl	$0, -384(%rbp)
	movl	$0, -20(%rbp)
.LBB19_21:                              # %for.cond423
                                        # =>This Inner Loop Header: Depth=1
	cmpl	$64, -20(%rbp)
	jge	.LBB19_61
# %bb.22:                               # %for.body425
                                        #   in Loop: Header=BB19_21 Depth=1
	movq	img, %rax
	cmpl	$0, 72444(%rax)
	jne	.LBB19_25
# %bb.23:                               # %lor.lhs.false
                                        #   in Loop: Header=BB19_21 Depth=1
	movq	img, %rax
	cmpl	$0, 72400(%rax)
	je	.LBB19_26
# %bb.24:                               # %land.lhs.true
                                        #   in Loop: Header=BB19_21 Depth=1
	movq	-392(%rbp), %rax
	cmpl	$0, 532(%rax)
	je	.LBB19_26
.LBB19_25:                              # %if.then429
                                        #   in Loop: Header=BB19_21 Depth=1
	movslq	-20(%rbp), %rax
	movzbl	FIELD_SCAN8x8(,%rax,2), %eax
	movl	%eax, -12(%rbp)
	movslq	-20(%rbp), %rax
	movzbl	FIELD_SCAN8x8+1(,%rax,2), %eax
	movl	%eax, -16(%rbp)
	jmp	.LBB19_27
.LBB19_26:                              # %if.else437
                                        #   in Loop: Header=BB19_21 Depth=1
	movslq	-20(%rbp), %rax
	movzbl	SNGL_SCAN8x8(,%rax,2), %eax
	movl	%eax, -12(%rbp)
	movslq	-20(%rbp), %rax
	movzbl	SNGL_SCAN8x8+1(,%rax,2), %eax
	movl	%eax, -16(%rbp)
.LBB19_27:                              # %if.end446
                                        #   in Loop: Header=BB19_21 Depth=1
	movl	-60(%rbp), %eax
	addl	$1, %eax
	movl	%eax, -60(%rbp)
	movl	$0, -44(%rbp)
	movl	-20(%rbp), %eax
	andl	$3, %eax
	cltq
	movl	-368(%rbp,%rax,4), %ecx
	addl	$1, %ecx
	movl	%ecx, -368(%rbp,%rax,4)
	cmpl	$0, -32(%rbp)
	je	.LBB19_29
# %bb.28:                               # %if.then452
                                        #   in Loop: Header=BB19_21 Depth=1
	movq	img, %rax
	addq	$13112, %rax            # imm = 0x3338
	movslq	-12(%rbp), %rcx
	shlq	$6, %rcx
	addq	%rcx, %rax
	movslq	-16(%rbp), %rcx
	movl	(%rax,%rcx,4), %edi
	callq	abs
	movl	%eax, -24(%rbp)
	jmp	.LBB19_33
.LBB19_29:                              # %if.else458
                                        #   in Loop: Header=BB19_21 Depth=1
	cmpl	$1, -344(%rbp)
	jne	.LBB19_31
# %bb.30:                               # %if.then461
                                        #   in Loop: Header=BB19_21 Depth=1
	movq	img, %rax
	addq	$13112, %rax            # imm = 0x3338
	movslq	-12(%rbp), %rcx
	shlq	$6, %rcx
	addq	%rcx, %rax
	movslq	-16(%rbp), %rcx
	movl	(%rax,%rcx,4), %edi
	callq	abs
	movslq	-40(%rbp), %rcx
	shlq	$8, %rcx
	movabsq	$LevelScale8x8Luma_Intra, %rdx
	addq	%rcx, %rdx
	movslq	-12(%rbp), %rcx
	shlq	$5, %rcx
	addq	%rcx, %rdx
	movslq	-16(%rbp), %rcx
	imull	(%rdx,%rcx,4), %eax
	movslq	-28(%rbp), %rcx
	shlq	$8, %rcx
	movabsq	$LevelOffset8x8Luma_Intra, %rdx
	addq	%rcx, %rdx
	movslq	-12(%rbp), %rcx
	shlq	$5, %rcx
	addq	%rcx, %rdx
	movslq	-16(%rbp), %rcx
	addl	(%rdx,%rcx,4), %eax
	movl	-64(%rbp), %ecx
                                        # kill: def $cl killed $ecx
	sarl	%cl, %eax
	movl	%eax, -24(%rbp)
	jmp	.LBB19_32
.LBB19_31:                              # %if.else483
                                        #   in Loop: Header=BB19_21 Depth=1
	movq	img, %rax
	addq	$13112, %rax            # imm = 0x3338
	movslq	-12(%rbp), %rcx
	shlq	$6, %rcx
	addq	%rcx, %rax
	movslq	-16(%rbp), %rcx
	movl	(%rax,%rcx,4), %edi
	callq	abs
	movslq	-40(%rbp), %rcx
	shlq	$8, %rcx
	movabsq	$LevelScale8x8Luma_Inter, %rdx
	addq	%rcx, %rdx
	movslq	-12(%rbp), %rcx
	shlq	$5, %rcx
	addq	%rcx, %rdx
	movslq	-16(%rbp), %rcx
	imull	(%rdx,%rcx,4), %eax
	movslq	-28(%rbp), %rcx
	shlq	$8, %rcx
	movabsq	$LevelOffset8x8Luma_Inter, %rdx
	addq	%rcx, %rdx
	movslq	-12(%rbp), %rcx
	shlq	$5, %rcx
	addq	%rcx, %rdx
	movslq	-16(%rbp), %rcx
	addl	(%rdx,%rcx,4), %eax
	movl	-64(%rbp), %ecx
                                        # kill: def $cl killed $ecx
	sarl	%cl, %eax
	movl	%eax, -24(%rbp)
.LBB19_32:                              # %if.end505
                                        #   in Loop: Header=BB19_21 Depth=1
	jmp	.LBB19_33
.LBB19_33:                              # %if.end506
                                        #   in Loop: Header=BB19_21 Depth=1
	cmpl	$0, -24(%rbp)
	je	.LBB19_57
# %bb.34:                               # %if.then509
                                        #   in Loop: Header=BB19_21 Depth=1
	movl	$1, -340(%rbp)
	movq	-392(%rbp), %rax
	cmpl	$0, 572(%rax)
	je	.LBB19_40
# %bb.35:                               # %land.lhs.true511
                                        #   in Loop: Header=BB19_21 Depth=1
	movq	input, %rax
	cmpl	$0, 2356(%rax)
	jne	.LBB19_40
# %bb.36:                               # %if.then514
                                        #   in Loop: Header=BB19_21 Depth=1
	cmpl	$1, -24(%rbp)
	jle	.LBB19_38
# %bb.37:                               # %if.then517
                                        #   in Loop: Header=BB19_21 Depth=1
	movq	-352(%rbp), %rax
	movl	(%rax), %ecx
	addl	$999999, %ecx           # imm = 0xF423F
	movl	%ecx, (%rax)
	jmp	.LBB19_39
.LBB19_38:                              # %if.else519
                                        #   in Loop: Header=BB19_21 Depth=1
	movabsq	$COEFF_COST8x8, %rax
	movq	input, %rcx
	movslq	2468(%rcx), %rcx
	shlq	$6, %rcx
	addq	%rcx, %rax
	movl	-20(%rbp), %ecx
	andl	$3, %ecx
	movslq	%ecx, %rcx
	movslq	-368(%rbp,%rcx,4), %rcx
	movzbl	(%rax,%rcx), %eax
	movq	-352(%rbp), %rcx
	addl	(%rcx), %eax
	movl	%eax, (%rcx)
.LBB19_39:                              # %if.end529
                                        #   in Loop: Header=BB19_21 Depth=1
	movl	-24(%rbp), %edi
	movq	img, %rax
	addq	$13112, %rax            # imm = 0x3338
	movslq	-12(%rbp), %rcx
	shlq	$6, %rcx
	addq	%rcx, %rax
	movslq	-16(%rbp), %rcx
	movl	(%rax,%rcx,4), %esi
	callq	sign
	movq	img, %rcx
	movq	14136(%rcx), %rcx
	movslq	-36(%rbp), %rdx
	movq	(%rcx,%rdx,8), %rcx
	movl	-20(%rbp), %edx
	andl	$3, %edx
	movslq	%edx, %rdx
	movq	(%rcx,%rdx,8), %rcx
	movq	(%rcx), %rcx
	movl	-20(%rbp), %edx
	andl	$3, %edx
	movslq	%edx, %rdx
	movslq	-384(%rbp,%rdx,4), %rdx
	movl	%eax, (%rcx,%rdx,4)
	movl	-20(%rbp), %eax
	andl	$3, %eax
	cltq
	movl	-368(%rbp,%rax,4), %eax
	movq	img, %rcx
	movq	14136(%rcx), %rcx
	movslq	-36(%rbp), %rdx
	movq	(%rcx,%rdx,8), %rcx
	movl	-20(%rbp), %edx
	andl	$3, %edx
	movslq	%edx, %rdx
	movq	(%rcx,%rdx,8), %rcx
	movq	8(%rcx), %rcx
	movl	-20(%rbp), %edx
	andl	$3, %edx
	movslq	%edx, %rdx
	movslq	-384(%rbp,%rdx,4), %rdx
	movl	%eax, (%rcx,%rdx,4)
	movl	-20(%rbp), %eax
	andl	$3, %eax
	cltq
	movl	-384(%rbp,%rax,4), %ecx
	addl	$1, %ecx
	movl	%ecx, -384(%rbp,%rax,4)
	movl	-20(%rbp), %eax
	andl	$3, %eax
	cltq
	movl	$-1, -368(%rbp,%rax,4)
	jmp	.LBB19_44
.LBB19_40:                              # %if.else570
                                        #   in Loop: Header=BB19_21 Depth=1
	cmpl	$1, -24(%rbp)
	jle	.LBB19_42
# %bb.41:                               # %if.then573
                                        #   in Loop: Header=BB19_21 Depth=1
	movq	-352(%rbp), %rax
	movl	(%rax), %ecx
	addl	$999999, %ecx           # imm = 0xF423F
	movl	%ecx, (%rax)
	jmp	.LBB19_43
.LBB19_42:                              # %if.else575
                                        #   in Loop: Header=BB19_21 Depth=1
	movabsq	$COEFF_COST8x8, %rax
	movq	input, %rcx
	movslq	2468(%rcx), %rcx
	shlq	$6, %rcx
	addq	%rcx, %rax
	movslq	-60(%rbp), %rcx
	movzbl	(%rax,%rcx), %eax
	movq	-352(%rbp), %rcx
	addl	(%rcx), %eax
	movl	%eax, (%rcx)
.LBB19_43:                              # %if.end583
                                        #   in Loop: Header=BB19_21 Depth=1
	movl	-24(%rbp), %edi
	movq	img, %rax
	addq	$13112, %rax            # imm = 0x3338
	movslq	-12(%rbp), %rcx
	shlq	$6, %rcx
	addq	%rcx, %rax
	movslq	-16(%rbp), %rcx
	movl	(%rax,%rcx,4), %esi
	callq	sign
	movq	-408(%rbp), %rcx
	movslq	-56(%rbp), %rdx
	movl	%eax, (%rcx,%rdx,4)
	movl	-60(%rbp), %eax
	movq	-416(%rbp), %rcx
	movslq	-56(%rbp), %rdx
	movl	%eax, (%rcx,%rdx,4)
	movl	-56(%rbp), %eax
	addl	$1, %eax
	movl	%eax, -56(%rbp)
	movl	$-1, -60(%rbp)
.LBB19_44:                              # %if.end595
                                        #   in Loop: Header=BB19_21 Depth=1
	movl	-24(%rbp), %edi
	movq	img, %rax
	addq	$13112, %rax            # imm = 0x3338
	movslq	-12(%rbp), %rcx
	shlq	$6, %rcx
	addq	%rcx, %rax
	movslq	-16(%rbp), %rcx
	movl	(%rax,%rcx,4), %esi
	callq	sign
	movl	%eax, -24(%rbp)
	cmpl	$0, -32(%rbp)
	je	.LBB19_46
# %bb.45:                               # %if.then603
                                        #   in Loop: Header=BB19_21 Depth=1
	movl	-24(%rbp), %eax
	movl	%eax, -44(%rbp)
	jmp	.LBB19_56
.LBB19_46:                              # %if.else604
                                        #   in Loop: Header=BB19_21 Depth=1
	cmpl	$1, -344(%rbp)
	jne	.LBB19_51
# %bb.47:                               # %if.then607
                                        #   in Loop: Header=BB19_21 Depth=1
	cmpl	$6, -28(%rbp)
	jl	.LBB19_49
# %bb.48:                               # %if.then610
                                        #   in Loop: Header=BB19_21 Depth=1
	movl	-24(%rbp), %eax
	movslq	-40(%rbp), %rcx
	shlq	$8, %rcx
	movabsq	$InvLevelScale8x8Luma_Intra, %rdx
	addq	%rcx, %rdx
	movslq	-12(%rbp), %rcx
	shlq	$5, %rcx
	addq	%rcx, %rdx
	movslq	-16(%rbp), %rcx
	imull	(%rdx,%rcx,4), %eax
	movl	-140(%rbp), %ecx
                                        # kill: def $cl killed $ecx
	shll	%cl, %eax
	movl	%eax, -44(%rbp)
	jmp	.LBB19_50
.LBB19_49:                              # %if.else619
                                        #   in Loop: Header=BB19_21 Depth=1
	movl	-24(%rbp), %eax
	movslq	-40(%rbp), %rcx
	shlq	$8, %rcx
	movabsq	$InvLevelScale8x8Luma_Intra, %rdx
	addq	%rcx, %rdx
	movslq	-12(%rbp), %rcx
	shlq	$5, %rcx
	addq	%rcx, %rdx
	movslq	-16(%rbp), %rcx
	imull	(%rdx,%rcx,4), %eax
	addl	-136(%rbp), %eax
	movl	-132(%rbp), %ecx
                                        # kill: def $cl killed $ecx
	sarl	%cl, %eax
	movl	%eax, -44(%rbp)
.LBB19_50:                              # %if.end629
                                        #   in Loop: Header=BB19_21 Depth=1
	jmp	.LBB19_55
.LBB19_51:                              # %if.else630
                                        #   in Loop: Header=BB19_21 Depth=1
	cmpl	$6, -28(%rbp)
	jl	.LBB19_53
# %bb.52:                               # %if.then633
                                        #   in Loop: Header=BB19_21 Depth=1
	movl	-24(%rbp), %eax
	movslq	-40(%rbp), %rcx
	shlq	$8, %rcx
	movabsq	$InvLevelScale8x8Luma_Inter, %rdx
	addq	%rcx, %rdx
	movslq	-12(%rbp), %rcx
	shlq	$5, %rcx
	addq	%rcx, %rdx
	movslq	-16(%rbp), %rcx
	imull	(%rdx,%rcx,4), %eax
	movl	-140(%rbp), %ecx
                                        # kill: def $cl killed $ecx
	shll	%cl, %eax
	movl	%eax, -44(%rbp)
	jmp	.LBB19_54
.LBB19_53:                              # %if.else642
                                        #   in Loop: Header=BB19_21 Depth=1
	movl	-24(%rbp), %eax
	movslq	-40(%rbp), %rcx
	shlq	$8, %rcx
	movabsq	$InvLevelScale8x8Luma_Inter, %rdx
	addq	%rcx, %rdx
	movslq	-12(%rbp), %rcx
	shlq	$5, %rcx
	addq	%rcx, %rdx
	movslq	-16(%rbp), %rcx
	imull	(%rdx,%rcx,4), %eax
	addl	-136(%rbp), %eax
	movl	-132(%rbp), %ecx
                                        # kill: def $cl killed $ecx
	sarl	%cl, %eax
	movl	%eax, -44(%rbp)
.LBB19_54:                              # %if.end652
                                        #   in Loop: Header=BB19_21 Depth=1
	jmp	.LBB19_55
.LBB19_55:                              # %if.end653
                                        #   in Loop: Header=BB19_21 Depth=1
	jmp	.LBB19_56
.LBB19_56:                              # %if.end654
                                        #   in Loop: Header=BB19_21 Depth=1
	jmp	.LBB19_57
.LBB19_57:                              # %if.end655
                                        #   in Loop: Header=BB19_21 Depth=1
	cmpl	$0, -32(%rbp)
	jne	.LBB19_59
# %bb.58:                               # %if.then657
                                        #   in Loop: Header=BB19_21 Depth=1
	movl	-44(%rbp), %eax
	movq	img, %rcx
	addq	$13112, %rcx            # imm = 0x3338
	movslq	-12(%rbp), %rdx
	shlq	$6, %rdx
	addq	%rdx, %rcx
	movslq	-16(%rbp), %rdx
	movl	%eax, (%rcx,%rdx,4)
.LBB19_59:                              # %if.end663
                                        #   in Loop: Header=BB19_21 Depth=1
	jmp	.LBB19_60
.LBB19_60:                              # %for.inc664
                                        #   in Loop: Header=BB19_21 Depth=1
	movl	-20(%rbp), %eax
	addl	$1, %eax
	movl	%eax, -20(%rbp)
	jmp	.LBB19_21
.LBB19_61:                              # %for.end666
	movq	-392(%rbp), %rax
	cmpl	$0, 572(%rax)
	je	.LBB19_63
# %bb.62:                               # %lor.lhs.false669
	movq	input, %rax
	cmpl	$0, 2356(%rax)
	je	.LBB19_64
.LBB19_63:                              # %if.then673
	movq	-408(%rbp), %rax
	movslq	-56(%rbp), %rcx
	movl	$0, (%rax,%rcx,4)
	jmp	.LBB19_69
.LBB19_64:                              # %if.else676
	movl	$0, -12(%rbp)
.LBB19_65:                              # %for.cond677
                                        # =>This Inner Loop Header: Depth=1
	cmpl	$4, -12(%rbp)
	jge	.LBB19_68
# %bb.66:                               # %for.body680
                                        #   in Loop: Header=BB19_65 Depth=1
	movq	img, %rax
	movq	14136(%rax), %rax
	movslq	-36(%rbp), %rcx
	movq	(%rax,%rcx,8), %rax
	movslq	-12(%rbp), %rcx
	movq	(%rax,%rcx,8), %rax
	movq	(%rax), %rax
	movslq	-12(%rbp), %rcx
	movslq	-384(%rbp,%rcx,4), %rcx
	movl	$0, (%rax,%rcx,4)
# %bb.67:                               # %for.inc691
                                        #   in Loop: Header=BB19_65 Depth=1
	movl	-12(%rbp), %eax
	addl	$1, %eax
	movl	%eax, -12(%rbp)
	jmp	.LBB19_65
.LBB19_68:                              # %for.end693
	jmp	.LBB19_69
.LBB19_69:                              # %if.end694
	movl	$0, -12(%rbp)
.LBB19_70:                              # %for.cond695
                                        # =>This Inner Loop Header: Depth=1
	xorl	%eax, %eax
	cmpl	$8, -12(%rbp)
	jge	.LBB19_72
# %bb.71:                               # %land.rhs698
                                        #   in Loop: Header=BB19_70 Depth=1
	cmpl	$0, -32(%rbp)
	setne	%al
	xorb	$-1, %al
.LBB19_72:                              # %land.end701
                                        #   in Loop: Header=BB19_70 Depth=1
	testb	$1, %al
	jne	.LBB19_73
	jmp	.LBB19_75
.LBB19_73:                              # %for.body703
                                        #   in Loop: Header=BB19_70 Depth=1
	xorl	%eax, %eax
	movq	img, %rcx
	movslq	-12(%rbp), %rdx
	movl	13112(%rcx,%rdx,4), %ecx
	movq	img, %rdx
	movslq	-12(%rbp), %rsi
	addl	13368(%rdx,%rsi,4), %ecx
	movl	%ecx, -336(%rbp)
	movq	img, %rcx
	movslq	-12(%rbp), %rdx
	movl	13112(%rcx,%rdx,4), %ecx
	movq	img, %rdx
	movslq	-12(%rbp), %rsi
	subl	13368(%rdx,%rsi,4), %ecx
	movl	%ecx, -320(%rbp)
	movq	img, %rcx
	movslq	-12(%rbp), %rdx
	movl	13240(%rcx,%rdx,4), %ecx
	sarl	$1, %ecx
	movq	img, %rdx
	movslq	-12(%rbp), %rsi
	subl	13496(%rdx,%rsi,4), %ecx
	movl	%ecx, -328(%rbp)
	movq	img, %rcx
	movslq	-12(%rbp), %rdx
	movl	13240(%rcx,%rdx,4), %ecx
	movq	img, %rdx
	movslq	-12(%rbp), %rsi
	movl	13496(%rdx,%rsi,4), %edx
	sarl	$1, %edx
	addl	%edx, %ecx
	movl	%ecx, -312(%rbp)
	movl	-336(%rbp), %ecx
	addl	-312(%rbp), %ecx
	movl	%ecx, -304(%rbp)
	movl	-320(%rbp), %ecx
	addl	-328(%rbp), %ecx
	movl	%ecx, -296(%rbp)
	movl	-320(%rbp), %ecx
	subl	-328(%rbp), %ecx
	movl	%ecx, -288(%rbp)
	movl	-336(%rbp), %ecx
	subl	-312(%rbp), %ecx
	movl	%ecx, -280(%rbp)
	movq	img, %rcx
	movslq	-12(%rbp), %rdx
	xorl	%esi, %esi
	subl	13304(%rcx,%rdx,4), %esi
	movq	img, %rcx
	movslq	-12(%rbp), %rdx
	addl	13432(%rcx,%rdx,4), %esi
	movq	img, %rcx
	movslq	-12(%rbp), %rdx
	subl	13560(%rcx,%rdx,4), %esi
	movq	img, %rcx
	movslq	-12(%rbp), %rdx
	movl	13560(%rcx,%rdx,4), %ecx
	sarl	$1, %ecx
	subl	%ecx, %esi
	movl	%esi, -332(%rbp)
	movq	img, %rcx
	movslq	-12(%rbp), %rdx
	movl	13176(%rcx,%rdx,4), %ecx
	movq	img, %rdx
	movslq	-12(%rbp), %rsi
	addl	13560(%rdx,%rsi,4), %ecx
	movq	img, %rdx
	movslq	-12(%rbp), %rsi
	subl	13304(%rdx,%rsi,4), %ecx
	movq	img, %rdx
	movslq	-12(%rbp), %rsi
	movl	13304(%rdx,%rsi,4), %edx
	sarl	$1, %edx
	subl	%edx, %ecx
	movl	%ecx, -324(%rbp)
	movq	img, %rcx
	movslq	-12(%rbp), %rdx
	xorl	%esi, %esi
	subl	13176(%rcx,%rdx,4), %esi
	movq	img, %rcx
	movslq	-12(%rbp), %rdx
	addl	13560(%rcx,%rdx,4), %esi
	movq	img, %rcx
	movslq	-12(%rbp), %rdx
	addl	13432(%rcx,%rdx,4), %esi
	movq	img, %rcx
	movslq	-12(%rbp), %rdx
	movl	13432(%rcx,%rdx,4), %ecx
	sarl	$1, %ecx
	addl	%ecx, %esi
	movl	%esi, -316(%rbp)
	movq	img, %rcx
	movslq	-12(%rbp), %rdx
	movl	13304(%rcx,%rdx,4), %ecx
	movq	img, %rdx
	movslq	-12(%rbp), %rsi
	addl	13432(%rdx,%rsi,4), %ecx
	movq	img, %rdx
	movslq	-12(%rbp), %rsi
	addl	13176(%rdx,%rsi,4), %ecx
