	.text
	.file	"transform8x8.c"
	.globl	Mode_Decision_for_new_Intra8x8Macroblock # -- Begin function Mode_Decision_for_new_Intra8x8Macroblock
	.p2align	4, 0x90
	.type	Mode_Decision_for_new_Intra8x8Macroblock,@function
Mode_Decision_for_new_Intra8x8Macroblock: # @Mode_Decision_for_new_Intra8x8Macroblock
	.cfi_startproc
# %bb.0:                                # %rand_bb
	pushq	%rbp
	.cfi_def_cfa_offset 16
	.cfi_offset %rbp, -16
	movq	%rsp, %rbp
	.cfi_def_cfa_register %rbp
	pushq	%rbx
	pushq	%rax
	.cfi_offset %rbx, -24
	movq	%rdi, %rbx
	vmovsd	%xmm0, -16(%rbp)        # 8-byte Spill
	callq	get_urand
	cmpl	$0, %eax
	jne	.LBB0_17
# %bb.1:                                # %func_Mode_Decision_for_new_Intra8x8Macroblock.9
	vmovsd	-16(%rbp), %xmm0        # 8-byte Reload
                                        # xmm0 = mem[0],zero
	movq	%rbx, %rdi
	callq	Mode_Decision_for_new_Intra8x8Macroblock.9
	addq	$8, %rsp
	popq	%rbx
	popq	%rbp
	.cfi_def_cfa %rsp, 8
	retq
.LBB0_2:                                # %func_Mode_Decision_for_new_Intra8x8Macroblock.16
	.cfi_def_cfa %rbp, 16
	vmovaps	%xmm1, %xmm0
	movq	%rbx, %rdi
	callq	Mode_Decision_for_new_Intra8x8Macroblock.16
	addq	$8, %rsp
	popq	%rbx
	popq	%rbp
	.cfi_def_cfa %rsp, 8
	retq
.LBB0_3:                                # %func_Mode_Decision_for_new_Intra8x8Macroblock.20
	.cfi_def_cfa %rbp, 16
	movq	%rbx, %rdi
	callq	Mode_Decision_for_new_Intra8x8Macroblock.20
	addq	$8, %rsp
	popq	%rbx
	popq	%rbp
	.cfi_def_cfa %rsp, 8
	retq
.LBB0_4:                                # %func_Mode_Decision_for_new_Intra8x8Macroblock.23
	.cfi_def_cfa %rbp, 16
	movq	%rbx, %rdi
	callq	Mode_Decision_for_new_Intra8x8Macroblock.23
	addq	$8, %rsp
	popq	%rbx
	popq	%rbp
	.cfi_def_cfa %rsp, 8
	retq
.LBB0_5:                                # %func_Mode_Decision_for_new_Intra8x8Macroblock.30
	.cfi_def_cfa %rbp, 16
	movq	%rbx, %rdi
	callq	Mode_Decision_for_new_Intra8x8Macroblock.30
	addq	$8, %rsp
	popq	%rbx
	popq	%rbp
	.cfi_def_cfa %rsp, 8
	retq
.LBB0_6:                                # %func_Mode_Decision_for_new_Intra8x8Macroblock.33
	.cfi_def_cfa %rbp, 16
	movq	%rbx, %rdi
	callq	Mode_Decision_for_new_Intra8x8Macroblock.33
	addq	$8, %rsp
	popq	%rbx
	popq	%rbp
	.cfi_def_cfa %rsp, 8
	retq
.LBB0_7:                                # %func_Mode_Decision_for_new_Intra8x8Macroblock.45
	.cfi_def_cfa %rbp, 16
	movq	%rbx, %rdi
	callq	Mode_Decision_for_new_Intra8x8Macroblock.45
	addq	$8, %rsp
	popq	%rbx
	popq	%rbp
	.cfi_def_cfa %rsp, 8
	retq
.LBB0_8:                                # %func_Mode_Decision_for_new_Intra8x8Macroblock.51
	.cfi_def_cfa %rbp, 16
	movq	%rbx, %rdi
	callq	Mode_Decision_for_new_Intra8x8Macroblock.51
	addq	$8, %rsp
	popq	%rbx
	popq	%rbp
	.cfi_def_cfa %rsp, 8
	retq
.LBB0_9:                                # %func_Mode_Decision_for_new_Intra8x8Macroblock.64
	.cfi_def_cfa %rbp, 16
	movq	%rbx, %rdi
	callq	Mode_Decision_for_new_Intra8x8Macroblock.64
	addq	$8, %rsp
	popq	%rbx
	popq	%rbp
	.cfi_def_cfa %rsp, 8
	retq
.LBB0_10:                               # %func_Mode_Decision_for_new_Intra8x8Macroblock.68
	.cfi_def_cfa %rbp, 16
	movq	%rbx, %rdi
	callq	Mode_Decision_for_new_Intra8x8Macroblock.68
	addq	$8, %rsp
	popq	%rbx
	popq	%rbp
	.cfi_def_cfa %rsp, 8
	retq
.LBB0_11:                               # %func_Mode_Decision_for_new_Intra8x8Macroblock.72
	.cfi_def_cfa %rbp, 16
	movq	%rbx, %rdi
	callq	Mode_Decision_for_new_Intra8x8Macroblock.72
	addq	$8, %rsp
	popq	%rbx
	popq	%rbp
	.cfi_def_cfa %rsp, 8
	retq
.LBB0_12:                               # %func_Mode_Decision_for_new_Intra8x8Macroblock.73
	.cfi_def_cfa %rbp, 16
	movq	%rbx, %rdi
	callq	Mode_Decision_for_new_Intra8x8Macroblock.73
	addq	$8, %rsp
	popq	%rbx
	popq	%rbp
	.cfi_def_cfa %rsp, 8
	retq
.LBB0_13:                               # %func_Mode_Decision_for_new_Intra8x8Macroblock.80
	.cfi_def_cfa %rbp, 16
	movq	%rbx, %rdi
	callq	Mode_Decision_for_new_Intra8x8Macroblock.80
	addq	$8, %rsp
	popq	%rbx
	popq	%rbp
	.cfi_def_cfa %rsp, 8
	retq
.LBB0_14:                               # %func_Mode_Decision_for_new_Intra8x8Macroblock.84
	.cfi_def_cfa %rbp, 16
	movq	%rbx, %rdi
	callq	Mode_Decision_for_new_Intra8x8Macroblock.84
	addq	$8, %rsp
	popq	%rbx
	popq	%rbp
	.cfi_def_cfa %rsp, 8
	retq
.LBB0_15:                               # %func_Mode_Decision_for_new_Intra8x8Macroblock.90
	.cfi_def_cfa %rbp, 16
	vmovaps	%xmm1, %xmm0
	movq	%rbx, %rdi
	callq	Mode_Decision_for_new_Intra8x8Macroblock.90
	addq	$8, %rsp
	popq	%rbx
	popq	%rbp
	.cfi_def_cfa %rsp, 8
	retq
.LBB0_16:                               # %func_Mode_Decision_for_new_Intra8x8Macroblock.93
	.cfi_def_cfa %rbp, 16
	vmovaps	%xmm1, %xmm0
	movq	%rbx, %rdi
	callq	Mode_Decision_for_new_Intra8x8Macroblock.93
	addq	$8, %rsp
	popq	%rbx
	popq	%rbp
	.cfi_def_cfa %rsp, 8
	retq
.LBB0_17:                               # %ctrl0
	.cfi_def_cfa %rbp, 16
	vmovsd	-16(%rbp), %xmm1        # 8-byte Reload
                                        # xmm1 = mem[0],zero
	cmpl	$1, %eax
	je	.LBB0_2
# %bb.18:                               # %ctrl1
	cmpl	$2, %eax
	vmovaps	%xmm1, %xmm0
	je	.LBB0_3
# %bb.19:                               # %ctrl2
	cmpl	$3, %eax
	je	.LBB0_4
# %bb.20:                               # %ctrl3
	cmpl	$4, %eax
	je	.LBB0_5
# %bb.21:                               # %ctrl4
	cmpl	$5, %eax
	je	.LBB0_6
# %bb.22:                               # %ctrl5
	cmpl	$6, %eax
	je	.LBB0_7
# %bb.23:                               # %ctrl6
	cmpl	$7, %eax
	je	.LBB0_8
# %bb.24:                               # %ctrl7
	cmpl	$8, %eax
	je	.LBB0_9
# %bb.25:                               # %ctrl8
	cmpl	$9, %eax
	je	.LBB0_10
# %bb.26:                               # %ctrl9
	cmpl	$10, %eax
	je	.LBB0_11
# %bb.27:                               # %ctrl10
	cmpl	$11, %eax
	je	.LBB0_12
# %bb.28:                               # %ctrl11
	cmpl	$12, %eax
	je	.LBB0_13
# %bb.29:                               # %ctrl12
	cmpl	$13, %eax
	je	.LBB0_14
# %bb.30:                               # %ctrl13
	cmpl	$14, %eax
	je	.LBB0_15
	jmp	.LBB0_16
.Lfunc_end0:
	.size	Mode_Decision_for_new_Intra8x8Macroblock, .Lfunc_end0-Mode_Decision_for_new_Intra8x8Macroblock
	.cfi_endproc
                                        # -- End function
	.globl	Mode_Decision_for_new_8x8IntraBlocks # -- Begin function Mode_Decision_for_new_8x8IntraBlocks
	.p2align	4, 0x90
	.type	Mode_Decision_for_new_8x8IntraBlocks,@function
Mode_Decision_for_new_8x8IntraBlocks:   # @Mode_Decision_for_new_8x8IntraBlocks
	.cfi_startproc
# %bb.0:                                # %rand_bb
	pushq	%rbp
	.cfi_def_cfa_offset 16
	.cfi_offset %rbp, -16
	movq	%rsp, %rbp
	.cfi_def_cfa_register %rbp
	pushq	%r14
	pushq	%rbx
	subq	$16, %rsp
	.cfi_offset %rbx, -32
	.cfi_offset %r14, -24
	movq	%rsi, %r14
	vmovsd	%xmm0, -24(%rbp)        # 8-byte Spill
	movl	%edi, %ebx
	callq	get_urand
	cmpl	$0, %eax
	jne	.LBB1_17
# %bb.1:                                # %func_Mode_Decision_for_new_8x8IntraBlocks.4
	movl	%ebx, %edi
	vmovsd	-24(%rbp), %xmm0        # 8-byte Reload
                                        # xmm0 = mem[0],zero
	movq	%r14, %rsi
	callq	Mode_Decision_for_new_8x8IntraBlocks.4
	addq	$16, %rsp
	popq	%rbx
	popq	%r14
	popq	%rbp
	.cfi_def_cfa %rsp, 8
	retq
.LBB1_2:                                # %func_Mode_Decision_for_new_8x8IntraBlocks.14
	.cfi_def_cfa %rbp, 16
	movl	%ebx, %edi
	vmovaps	%xmm1, %xmm0
	movq	%r14, %rsi
	callq	Mode_Decision_for_new_8x8IntraBlocks.14
	addq	$16, %rsp
	popq	%rbx
	popq	%r14
	popq	%rbp
	.cfi_def_cfa %rsp, 8
	retq
.LBB1_3:                                # %func_Mode_Decision_for_new_8x8IntraBlocks.25
	.cfi_def_cfa %rbp, 16
	movl	%ebx, %edi
	movq	%r14, %rsi
	callq	Mode_Decision_for_new_8x8IntraBlocks.25
	addq	$16, %rsp
	popq	%rbx
	popq	%r14
	popq	%rbp
	.cfi_def_cfa %rsp, 8
	retq
.LBB1_4:                                # %func_Mode_Decision_for_new_8x8IntraBlocks.32
	.cfi_def_cfa %rbp, 16
	movl	%ebx, %edi
	movq	%r14, %rsi
	callq	Mode_Decision_for_new_8x8IntraBlocks.32
	addq	$16, %rsp
	popq	%rbx
	popq	%r14
	popq	%rbp
	.cfi_def_cfa %rsp, 8
	retq
.LBB1_5:                                # %func_Mode_Decision_for_new_8x8IntraBlocks.42
	.cfi_def_cfa %rbp, 16
	movl	%ebx, %edi
	movq	%r14, %rsi
	callq	Mode_Decision_for_new_8x8IntraBlocks.42
	addq	$16, %rsp
	popq	%rbx
	popq	%r14
	popq	%rbp
	.cfi_def_cfa %rsp, 8
	retq
.LBB1_6:                                # %func_Mode_Decision_for_new_8x8IntraBlocks.43
	.cfi_def_cfa %rbp, 16
	movl	%ebx, %edi
	movq	%r14, %rsi
	callq	Mode_Decision_for_new_8x8IntraBlocks.43
	addq	$16, %rsp
	popq	%rbx
	popq	%r14
	popq	%rbp
	.cfi_def_cfa %rsp, 8
	retq
.LBB1_7:                                # %func_Mode_Decision_for_new_8x8IntraBlocks.49
	.cfi_def_cfa %rbp, 16
	movl	%ebx, %edi
	movq	%r14, %rsi
	callq	Mode_Decision_for_new_8x8IntraBlocks.49
	addq	$16, %rsp
	popq	%rbx
	popq	%r14
	popq	%rbp
	.cfi_def_cfa %rsp, 8
	retq
.LBB1_8:                                # %func_Mode_Decision_for_new_8x8IntraBlocks.59
	.cfi_def_cfa %rbp, 16
	movl	%ebx, %edi
	movq	%r14, %rsi
	callq	Mode_Decision_for_new_8x8IntraBlocks.59
	addq	$16, %rsp
	popq	%rbx
	popq	%r14
	popq	%rbp
	.cfi_def_cfa %rsp, 8
	retq
.LBB1_9:                                # %func_Mode_Decision_for_new_8x8IntraBlocks.66
	.cfi_def_cfa %rbp, 16
	movl	%ebx, %edi
	movq	%r14, %rsi
	callq	Mode_Decision_for_new_8x8IntraBlocks.66
	addq	$16, %rsp
	popq	%rbx
	popq	%r14
	popq	%rbp
	.cfi_def_cfa %rsp, 8
	retq
.LBB1_10:                               # %func_Mode_Decision_for_new_8x8IntraBlocks.79
	.cfi_def_cfa %rbp, 16
	movl	%ebx, %edi
	movq	%r14, %rsi
	callq	Mode_Decision_for_new_8x8IntraBlocks.79
	addq	$16, %rsp
	popq	%rbx
	popq	%r14
	popq	%rbp
	.cfi_def_cfa %rsp, 8
	retq
.LBB1_11:                               # %func_Mode_Decision_for_new_8x8IntraBlocks.82
	.cfi_def_cfa %rbp, 16
	movl	%ebx, %edi
	movq	%r14, %rsi
	callq	Mode_Decision_for_new_8x8IntraBlocks.82
	addq	$16, %rsp
	popq	%rbx
	popq	%r14
	popq	%rbp
	.cfi_def_cfa %rsp, 8
	retq
.LBB1_12:                               # %func_Mode_Decision_for_new_8x8IntraBlocks.86
	.cfi_def_cfa %rbp, 16
	movl	%ebx, %edi
	movq	%r14, %rsi
	callq	Mode_Decision_for_new_8x8IntraBlocks.86
	addq	$16, %rsp
	popq	%rbx
	popq	%r14
	popq	%rbp
	.cfi_def_cfa %rsp, 8
	retq
.LBB1_13:                               # %func_Mode_Decision_for_new_8x8IntraBlocks.92
	.cfi_def_cfa %rbp, 16
	movl	%ebx, %edi
	movq	%r14, %rsi
	callq	Mode_Decision_for_new_8x8IntraBlocks.92
	addq	$16, %rsp
	popq	%rbx
	popq	%r14
	popq	%rbp
	.cfi_def_cfa %rsp, 8
	retq
.LBB1_14:                               # %func_Mode_Decision_for_new_8x8IntraBlocks.94
	.cfi_def_cfa %rbp, 16
	movl	%ebx, %edi
	movq	%r14, %rsi
	callq	Mode_Decision_for_new_8x8IntraBlocks.94
	addq	$16, %rsp
	popq	%rbx
	popq	%r14
	popq	%rbp
	.cfi_def_cfa %rsp, 8
	retq
.LBB1_15:                               # %func_Mode_Decision_for_new_8x8IntraBlocks.95
	.cfi_def_cfa %rbp, 16
	movl	%ebx, %edi
	vmovaps	%xmm1, %xmm0
	movq	%r14, %rsi
	callq	Mode_Decision_for_new_8x8IntraBlocks.95
	addq	$16, %rsp
	popq	%rbx
	popq	%r14
	popq	%rbp
	.cfi_def_cfa %rsp, 8
	retq
.LBB1_16:                               # %func_Mode_Decision_for_new_8x8IntraBlocks.96
	.cfi_def_cfa %rbp, 16
	movl	%ebx, %edi
	vmovaps	%xmm1, %xmm0
	movq	%r14, %rsi
	callq	Mode_Decision_for_new_8x8IntraBlocks.96
	addq	$16, %rsp
	popq	%rbx
	popq	%r14
	popq	%rbp
	.cfi_def_cfa %rsp, 8
	retq
.LBB1_17:                               # %ctrl0
	.cfi_def_cfa %rbp, 16
	vmovsd	-24(%rbp), %xmm1        # 8-byte Reload
                                        # xmm1 = mem[0],zero
	cmpl	$1, %eax
	je	.LBB1_2
# %bb.18:                               # %ctrl1
	cmpl	$2, %eax
	vmovaps	%xmm1, %xmm0
	je	.LBB1_3
# %bb.19:                               # %ctrl2
	cmpl	$3, %eax
	je	.LBB1_4
# %bb.20:                               # %ctrl3
	cmpl	$4, %eax
	je	.LBB1_5
# %bb.21:                               # %ctrl4
	cmpl	$5, %eax
	je	.LBB1_6
# %bb.22:                               # %ctrl5
	cmpl	$6, %eax
	je	.LBB1_7
# %bb.23:                               # %ctrl6
	cmpl	$7, %eax
	je	.LBB1_8
# %bb.24:                               # %ctrl7
	cmpl	$8, %eax
	je	.LBB1_9
# %bb.25:                               # %ctrl8
	cmpl	$9, %eax
	je	.LBB1_10
# %bb.26:                               # %ctrl9
	cmpl	$10, %eax
	je	.LBB1_11
# %bb.27:                               # %ctrl10
	cmpl	$11, %eax
	je	.LBB1_12
# %bb.28:                               # %ctrl11
	cmpl	$12, %eax
	je	.LBB1_13
# %bb.29:                               # %ctrl12
	cmpl	$13, %eax
	je	.LBB1_14
# %bb.30:                               # %ctrl13
	cmpl	$14, %eax
	je	.LBB1_15
	jmp	.LBB1_16
.Lfunc_end1:
	.size	Mode_Decision_for_new_8x8IntraBlocks, .Lfunc_end1-Mode_Decision_for_new_8x8IntraBlocks
	.cfi_endproc
                                        # -- End function
	.globl	intrapred_luma8x8       # -- Begin function intrapred_luma8x8
	.p2align	4, 0x90
	.type	intrapred_luma8x8,@function
intrapred_luma8x8:                      # @intrapred_luma8x8
	.cfi_startproc
# %bb.0:                                # %rand_bb
	pushq	%rbp
	.cfi_def_cfa_offset 16
	.cfi_offset %rbp, -16
	movq	%rsp, %rbp
	.cfi_def_cfa_register %rbp
	pushq	%r15
	pushq	%r14
	pushq	%r13
	pushq	%r12
	pushq	%rbx
	pushq	%rax
	.cfi_offset %rbx, -56
	.cfi_offset %r12, -48
	.cfi_offset %r13, -40
	.cfi_offset %r14, -32
	.cfi_offset %r15, -24
	movq	%r8, %r14
	movq	%rcx, %r15
	movq	%rdx, %r12
	movl	%esi, %r13d
	movl	%edi, %ebx
	callq	get_urand
	cmpl	$0, %eax
	jne	.LBB2_17
# %bb.1:                                # %func_intrapred_luma8x8.6
	movl	%ebx, %edi
	movl	%r13d, %esi
	movq	%r12, %rdx
	movq	%r15, %rcx
	movq	%r14, %r8
	callq	intrapred_luma8x8.6
	addq	$8, %rsp
	popq	%rbx
	popq	%r12
	popq	%r13
	popq	%r14
	popq	%r15
	popq	%rbp
	.cfi_def_cfa %rsp, 8
	retq
.LBB2_2:                                # %func_intrapred_luma8x8.13
	.cfi_def_cfa %rbp, 16
	movl	%ebx, %edi
	movl	%r13d, %esi
	movq	%r12, %rdx
	movq	%r15, %rcx
	movq	%r14, %r8
	callq	intrapred_luma8x8.13
	addq	$8, %rsp
	popq	%rbx
	popq	%r12
	popq	%r13
	popq	%r14
	popq	%r15
	popq	%rbp
	.cfi_def_cfa %rsp, 8
	retq
.LBB2_3:                                # %func_intrapred_luma8x8.17
	.cfi_def_cfa %rbp, 16
	movl	%ebx, %edi
	movl	%r13d, %esi
	movq	%r12, %rdx
	movq	%r15, %rcx
	movq	%r14, %r8
	callq	intrapred_luma8x8.17
	addq	$8, %rsp
	popq	%rbx
	popq	%r12
	popq	%r13
	popq	%r14
	popq	%r15
	popq	%rbp
	.cfi_def_cfa %rsp, 8
	retq
.LBB2_4:                                # %func_intrapred_luma8x8.19
	.cfi_def_cfa %rbp, 16
	movl	%ebx, %edi
	movl	%r13d, %esi
	movq	%r12, %rdx
	movq	%r15, %rcx
	movq	%r14, %r8
	callq	intrapred_luma8x8.19
	addq	$8, %rsp
	popq	%rbx
	popq	%r12
	popq	%r13
	popq	%r14
	popq	%r15
	popq	%rbp
	.cfi_def_cfa %rsp, 8
	retq
.LBB2_5:                                # %func_intrapred_luma8x8.27
	.cfi_def_cfa %rbp, 16
	movl	%ebx, %edi
	movl	%r13d, %esi
	movq	%r12, %rdx
	movq	%r15, %rcx
	movq	%r14, %r8
	callq	intrapred_luma8x8.27
	addq	$8, %rsp
	popq	%rbx
	popq	%r12
	popq	%r13
	popq	%r14
	popq	%r15
	popq	%rbp
	.cfi_def_cfa %rsp, 8
	retq
.LBB2_6:                                # %func_intrapred_luma8x8.29
	.cfi_def_cfa %rbp, 16
	movl	%ebx, %edi
	movl	%r13d, %esi
	movq	%r12, %rdx
	movq	%r15, %rcx
	movq	%r14, %r8
	callq	intrapred_luma8x8.29
	addq	$8, %rsp
	popq	%rbx
	popq	%r12
	popq	%r13
	popq	%r14
	popq	%r15
	popq	%rbp
	.cfi_def_cfa %rsp, 8
	retq
.LBB2_7:                                # %func_intrapred_luma8x8.34
	.cfi_def_cfa %rbp, 16
	movl	%ebx, %edi
	movl	%r13d, %esi
	movq	%r12, %rdx
	movq	%r15, %rcx
	movq	%r14, %r8
	callq	intrapred_luma8x8.34
	addq	$8, %rsp
	popq	%rbx
	popq	%r12
	popq	%r13
	popq	%r14
	popq	%r15
	popq	%rbp
	.cfi_def_cfa %rsp, 8
	retq
.LBB2_8:                                # %func_intrapred_luma8x8.37
	.cfi_def_cfa %rbp, 16
	movl	%ebx, %edi
	movl	%r13d, %esi
	movq	%r12, %rdx
	movq	%r15, %rcx
	movq	%r14, %r8
	callq	intrapred_luma8x8.37
	addq	$8, %rsp
	popq	%rbx
	popq	%r12
	popq	%r13
	popq	%r14
	popq	%r15
	popq	%rbp
	.cfi_def_cfa %rsp, 8
	retq
.LBB2_9:                                # %func_intrapred_luma8x8.47
	.cfi_def_cfa %rbp, 16
	movl	%ebx, %edi
	movl	%r13d, %esi
	movq	%r12, %rdx
	movq	%r15, %rcx
	movq	%r14, %r8
	callq	intrapred_luma8x8.47
	addq	$8, %rsp
	popq	%rbx
	popq	%r12
	popq	%r13
	popq	%r14
	popq	%r15
	popq	%rbp
	.cfi_def_cfa %rsp, 8
	retq
.LBB2_10:                               # %func_intrapred_luma8x8.48
	.cfi_def_cfa %rbp, 16
	movl	%ebx, %edi
	movl	%r13d, %esi
	movq	%r12, %rdx
	movq	%r15, %rcx
	movq	%r14, %r8
	callq	intrapred_luma8x8.48
	addq	$8, %rsp
	popq	%rbx
	popq	%r12
	popq	%r13
	popq	%r14
	popq	%r15
	popq	%rbp
	.cfi_def_cfa %rsp, 8
	retq
.LBB2_11:                               # %func_intrapred_luma8x8.55
	.cfi_def_cfa %rbp, 16
	movl	%ebx, %edi
	movl	%r13d, %esi
	movq	%r12, %rdx
	movq	%r15, %rcx
	movq	%r14, %r8
	callq	intrapred_luma8x8.55
	addq	$8, %rsp
	popq	%rbx
	popq	%r12
	popq	%r13
	popq	%r14
	popq	%r15
	popq	%rbp
	.cfi_def_cfa %rsp, 8
	retq
.LBB2_12:                               # %func_intrapred_luma8x8.56
	.cfi_def_cfa %rbp, 16
	movl	%ebx, %edi
	movl	%r13d, %esi
	movq	%r12, %rdx
	movq	%r15, %rcx
	movq	%r14, %r8
	callq	intrapred_luma8x8.56
	addq	$8, %rsp
	popq	%rbx
	popq	%r12
	popq	%r13
	popq	%r14
	popq	%r15
	popq	%rbp
	.cfi_def_cfa %rsp, 8
	retq
.LBB2_13:                               # %func_intrapred_luma8x8.58
	.cfi_def_cfa %rbp, 16
	movl	%ebx, %edi
	movl	%r13d, %esi
	movq	%r12, %rdx
	movq	%r15, %rcx
	movq	%r14, %r8
	callq	intrapred_luma8x8.58
	addq	$8, %rsp
	popq	%rbx
	popq	%r12
	popq	%r13
	popq	%r14
	popq	%r15
	popq	%rbp
	.cfi_def_cfa %rsp, 8
	retq
.LBB2_14:                               # %func_intrapred_luma8x8.61
	.cfi_def_cfa %rbp, 16
	movl	%ebx, %edi
	movl	%r13d, %esi
	movq	%r12, %rdx
	movq	%r15, %rcx
	movq	%r14, %r8
	callq	intrapred_luma8x8.61
	addq	$8, %rsp
	popq	%rbx
	popq	%r12
	popq	%r13
	popq	%r14
	popq	%r15
	popq	%rbp
	.cfi_def_cfa %rsp, 8
	retq
.LBB2_15:                               # %func_intrapred_luma8x8.74
	.cfi_def_cfa %rbp, 16
	movl	%ebx, %edi
	movl	%r13d, %esi
	movq	%r12, %rdx
	movq	%r15, %rcx
	movq	%r14, %r8
	callq	intrapred_luma8x8.74
	addq	$8, %rsp
	popq	%rbx
	popq	%r12
	popq	%r13
	popq	%r14
	popq	%r15
	popq	%rbp
	.cfi_def_cfa %rsp, 8
	retq
.LBB2_16:                               # %func_intrapred_luma8x8.81
	.cfi_def_cfa %rbp, 16
	movl	%ebx, %edi
	movl	%r13d, %esi
	movq	%r12, %rdx
	movq	%r15, %rcx
	movq	%r14, %r8
	callq	intrapred_luma8x8.81
	addq	$8, %rsp
	popq	%rbx
	popq	%r12
	popq	%r13
	popq	%r14
	popq	%r15
	popq	%rbp
	.cfi_def_cfa %rsp, 8
	retq
.LBB2_17:                               # %ctrl0
	.cfi_def_cfa %rbp, 16
	cmpl	$1, %eax
	je	.LBB2_2
# %bb.18:                               # %ctrl1
	cmpl	$2, %eax
	je	.LBB2_3
# %bb.19:                               # %ctrl2
	cmpl	$3, %eax
	je	.LBB2_4
# %bb.20:                               # %ctrl3
	cmpl	$4, %eax
	je	.LBB2_5
# %bb.21:                               # %ctrl4
	cmpl	$5, %eax
	je	.LBB2_6
# %bb.22:                               # %ctrl5
	cmpl	$6, %eax
	je	.LBB2_7
# %bb.23:                               # %ctrl6
	cmpl	$7, %eax
	je	.LBB2_8
# %bb.24:                               # %ctrl7
	cmpl	$8, %eax
	je	.LBB2_9
# %bb.25:                               # %ctrl8
	cmpl	$9, %eax
	je	.LBB2_10
# %bb.26:                               # %ctrl9
	cmpl	$10, %eax
	je	.LBB2_11
# %bb.27:                               # %ctrl10
	cmpl	$11, %eax
	je	.LBB2_12
# %bb.28:                               # %ctrl11
	cmpl	$12, %eax
	je	.LBB2_13
# %bb.29:                               # %ctrl12
	cmpl	$13, %eax
	je	.LBB2_14
# %bb.30:                               # %ctrl13
	cmpl	$14, %eax
	je	.LBB2_15
	jmp	.LBB2_16
.Lfunc_end2:
	.size	intrapred_luma8x8, .Lfunc_end2-intrapred_luma8x8
	.cfi_endproc
                                        # -- End function
	.globl	RDCost_for_8x8IntraBlocks # -- Begin function RDCost_for_8x8IntraBlocks
	.p2align	4, 0x90
	.type	RDCost_for_8x8IntraBlocks,@function
RDCost_for_8x8IntraBlocks:              # @RDCost_for_8x8IntraBlocks
	.cfi_startproc
# %bb.0:                                # %rand_bb
	pushq	%rbp
	.cfi_def_cfa_offset 16
	.cfi_offset %rbp, -16
	movq	%rsp, %rbp
	.cfi_def_cfa_register %rbp
	pushq	%r15
	pushq	%r14
	pushq	%r12
	pushq	%rbx
	subq	$16, %rsp
	.cfi_offset %rbx, -48
	.cfi_offset %r12, -40
	.cfi_offset %r14, -32
	.cfi_offset %r15, -24
	movl	%ecx, %r14d
	vmovsd	%xmm1, -48(%rbp)        # 8-byte Spill
	vmovsd	%xmm0, -40(%rbp)        # 8-byte Spill
	movl	%edx, %r15d
	movl	%esi, %r12d
	movq	%rdi, %rbx
	callq	get_urand
	cmpl	$0, %eax
	jne	.LBB3_17
# %bb.1:                                # %func_RDCost_for_8x8IntraBlocks.5
	movq	%rbx, %rdi
	movl	%r12d, %esi
	movl	%r15d, %edx
	vmovsd	-40(%rbp), %xmm0        # 8-byte Reload
                                        # xmm0 = mem[0],zero
	vmovsd	-48(%rbp), %xmm1        # 8-byte Reload
                                        # xmm1 = mem[0],zero
	movl	%r14d, %ecx
	callq	RDCost_for_8x8IntraBlocks.5
	addq	$16, %rsp
	popq	%rbx
	popq	%r12
	popq	%r14
	popq	%r15
	popq	%rbp
	.cfi_def_cfa %rsp, 8
	retq
.LBB3_2:                                # %func_RDCost_for_8x8IntraBlocks.8
	.cfi_def_cfa %rbp, 16
	movq	%rbx, %rdi
	movl	%r12d, %esi
	movl	%r15d, %edx
	vmovaps	%xmm3, %xmm0
	vmovaps	%xmm2, %xmm1
	movl	%r14d, %ecx
	callq	RDCost_for_8x8IntraBlocks.8
	addq	$16, %rsp
	popq	%rbx
	popq	%r12
	popq	%r14
	popq	%r15
	popq	%rbp
	.cfi_def_cfa %rsp, 8
	retq
.LBB3_3:                                # %func_RDCost_for_8x8IntraBlocks.21
	.cfi_def_cfa %rbp, 16
	movq	%rbx, %rdi
	movl	%r12d, %esi
	movl	%r15d, %edx
	movl	%r14d, %ecx
	callq	RDCost_for_8x8IntraBlocks.21
	addq	$16, %rsp
	popq	%rbx
	popq	%r12
	popq	%r14
	popq	%r15
	popq	%rbp
	.cfi_def_cfa %rsp, 8
	retq
.LBB3_4:                                # %func_RDCost_for_8x8IntraBlocks.35
	.cfi_def_cfa %rbp, 16
	movq	%rbx, %rdi
	movl	%r12d, %esi
	movl	%r15d, %edx
	movl	%r14d, %ecx
	callq	RDCost_for_8x8IntraBlocks.35
	addq	$16, %rsp
	popq	%rbx
	popq	%r12
	popq	%r14
	popq	%r15
	popq	%rbp
	.cfi_def_cfa %rsp, 8
	retq
.LBB3_5:                                # %func_RDCost_for_8x8IntraBlocks.36
	.cfi_def_cfa %rbp, 16
	movq	%rbx, %rdi
	movl	%r12d, %esi
	movl	%r15d, %edx
	movl	%r14d, %ecx
	callq	RDCost_for_8x8IntraBlocks.36
	addq	$16, %rsp
	popq	%rbx
	popq	%r12
	popq	%r14
	popq	%r15
	popq	%rbp
	.cfi_def_cfa %rsp, 8
	retq
.LBB3_6:                                # %func_RDCost_for_8x8IntraBlocks.40
	.cfi_def_cfa %rbp, 16
	movq	%rbx, %rdi
	movl	%r12d, %esi
	movl	%r15d, %edx
	movl	%r14d, %ecx
	callq	RDCost_for_8x8IntraBlocks.40
	addq	$16, %rsp
	popq	%rbx
	popq	%r12
	popq	%r14
	popq	%r15
	popq	%rbp
	.cfi_def_cfa %rsp, 8
	retq
.LBB3_7:                                # %func_RDCost_for_8x8IntraBlocks.41
	.cfi_def_cfa %rbp, 16
	movq	%rbx, %rdi
	movl	%r12d, %esi
	movl	%r15d, %edx
	movl	%r14d, %ecx
	callq	RDCost_for_8x8IntraBlocks.41
	addq	$16, %rsp
	popq	%rbx
	popq	%r12
	popq	%r14
	popq	%r15
	popq	%rbp
	.cfi_def_cfa %rsp, 8
	retq
.LBB3_8:                                # %func_RDCost_for_8x8IntraBlocks.44
	.cfi_def_cfa %rbp, 16
	movq	%rbx, %rdi
	movl	%r12d, %esi
	movl	%r15d, %edx
	movl	%r14d, %ecx
	callq	RDCost_for_8x8IntraBlocks.44
	addq	$16, %rsp
	popq	%rbx
	popq	%r12
	popq	%r14
	popq	%r15
	popq	%rbp
	.cfi_def_cfa %rsp, 8
	retq
.LBB3_9:                                # %func_RDCost_for_8x8IntraBlocks.53
	.cfi_def_cfa %rbp, 16
	movq	%rbx, %rdi
	movl	%r12d, %esi
	movl	%r15d, %edx
	movl	%r14d, %ecx
	callq	RDCost_for_8x8IntraBlocks.53
	addq	$16, %rsp
	popq	%rbx
	popq	%r12
	popq	%r14
	popq	%r15
	popq	%rbp
	.cfi_def_cfa %rsp, 8
	retq
.LBB3_10:                               # %func_RDCost_for_8x8IntraBlocks.57
	.cfi_def_cfa %rbp, 16
	movq	%rbx, %rdi
	movl	%r12d, %esi
	movl	%r15d, %edx
	movl	%r14d, %ecx
	callq	RDCost_for_8x8IntraBlocks.57
	addq	$16, %rsp
	popq	%rbx
	popq	%r12
	popq	%r14
	popq	%r15
	popq	%rbp
	.cfi_def_cfa %rsp, 8
	retq
.LBB3_11:                               # %func_RDCost_for_8x8IntraBlocks.62
	.cfi_def_cfa %rbp, 16
	movq	%rbx, %rdi
	movl	%r12d, %esi
	movl	%r15d, %edx
	movl	%r14d, %ecx
	callq	RDCost_for_8x8IntraBlocks.62
	addq	$16, %rsp
	popq	%rbx
	popq	%r12
	popq	%r14
	popq	%r15
	popq	%rbp
	.cfi_def_cfa %rsp, 8
	retq
.LBB3_12:                               # %func_RDCost_for_8x8IntraBlocks.67
	.cfi_def_cfa %rbp, 16
	movq	%rbx, %rdi
	movl	%r12d, %esi
	movl	%r15d, %edx
	movl	%r14d, %ecx
	callq	RDCost_for_8x8IntraBlocks.67
	addq	$16, %rsp
	popq	%rbx
	popq	%r12
	popq	%r14
	popq	%r15
	popq	%rbp
	.cfi_def_cfa %rsp, 8
	retq
.LBB3_13:                               # %func_RDCost_for_8x8IntraBlocks.71
	.cfi_def_cfa %rbp, 16
	movq	%rbx, %rdi
	movl	%r12d, %esi
	movl	%r15d, %edx
	movl	%r14d, %ecx
	callq	RDCost_for_8x8IntraBlocks.71
	addq	$16, %rsp
	popq	%rbx
	popq	%r12
	popq	%r14
	popq	%r15
	popq	%rbp
	.cfi_def_cfa %rsp, 8
	retq
.LBB3_14:                               # %func_RDCost_for_8x8IntraBlocks.75
	.cfi_def_cfa %rbp, 16
	movq	%rbx, %rdi
	movl	%r12d, %esi
	movl	%r15d, %edx
	movl	%r14d, %ecx
	callq	RDCost_for_8x8IntraBlocks.75
	addq	$16, %rsp
	popq	%rbx
	popq	%r12
	popq	%r14
	popq	%r15
	popq	%rbp
	.cfi_def_cfa %rsp, 8
	retq
.LBB3_15:                               # %func_RDCost_for_8x8IntraBlocks.83
	.cfi_def_cfa %rbp, 16
	movq	%rbx, %rdi
	movl	%r12d, %esi
	movl	%r15d, %edx
	vmovaps	%xmm3, %xmm0
	vmovaps	%xmm2, %xmm1
	movl	%r14d, %ecx
	callq	RDCost_for_8x8IntraBlocks.83
	addq	$16, %rsp
	popq	%rbx
	popq	%r12
	popq	%r14
	popq	%r15
	popq	%rbp
	.cfi_def_cfa %rsp, 8
	retq
.LBB3_16:                               # %func_RDCost_for_8x8IntraBlocks.87
	.cfi_def_cfa %rbp, 16
	movq	%rbx, %rdi
	movl	%r12d, %esi
	movl	%r15d, %edx
	vmovaps	%xmm3, %xmm0
	vmovaps	%xmm2, %xmm1
	movl	%r14d, %ecx
	callq	RDCost_for_8x8IntraBlocks.87
	addq	$16, %rsp
	popq	%rbx
	popq	%r12
	popq	%r14
	popq	%r15
	popq	%rbp
	.cfi_def_cfa %rsp, 8
	retq
.LBB3_17:                               # %ctrl0
	.cfi_def_cfa %rbp, 16
	vmovsd	-40(%rbp), %xmm3        # 8-byte Reload
                                        # xmm3 = mem[0],zero
	vmovsd	-48(%rbp), %xmm2        # 8-byte Reload
                                        # xmm2 = mem[0],zero
	cmpl	$1, %eax
	je	.LBB3_2
# %bb.18:                               # %ctrl1
	cmpl	$2, %eax
	vmovaps	%xmm2, %xmm1
	vmovaps	%xmm3, %xmm0
	je	.LBB3_3
# %bb.19:                               # %ctrl2
	cmpl	$3, %eax
	je	.LBB3_4
# %bb.20:                               # %ctrl3
	cmpl	$4, %eax
	je	.LBB3_5
# %bb.21:                               # %ctrl4
	cmpl	$5, %eax
	je	.LBB3_6
# %bb.22:                               # %ctrl5
	cmpl	$6, %eax
	je	.LBB3_7
# %bb.23:                               # %ctrl6
	cmpl	$7, %eax
	je	.LBB3_8
# %bb.24:                               # %ctrl7
	cmpl	$8, %eax
	je	.LBB3_9
# %bb.25:                               # %ctrl8
	cmpl	$9, %eax
	je	.LBB3_10
# %bb.26:                               # %ctrl9
	cmpl	$10, %eax
	je	.LBB3_11
# %bb.27:                               # %ctrl10
	cmpl	$11, %eax
	je	.LBB3_12
# %bb.28:                               # %ctrl11
	cmpl	$12, %eax
	je	.LBB3_13
# %bb.29:                               # %ctrl12
	cmpl	$13, %eax
	je	.LBB3_14
# %bb.30:                               # %ctrl13
	cmpl	$14, %eax
	je	.LBB3_15
	jmp	.LBB3_16
.Lfunc_end3:
	.size	RDCost_for_8x8IntraBlocks, .Lfunc_end3-RDCost_for_8x8IntraBlocks
	.cfi_endproc
                                        # -- End function
	.globl	dct_luma8x8             # -- Begin function dct_luma8x8
	.p2align	4, 0x90
	.type	dct_luma8x8,@function
dct_luma8x8:                            # @dct_luma8x8
	.cfi_startproc
# %bb.0:                                # %rand_bb
	pushq	%rbp
	.cfi_def_cfa_offset 16
	.cfi_offset %rbp, -16
	movq	%rsp, %rbp
	.cfi_def_cfa_register %rbp
	pushq	%r15
	pushq	%r14
	pushq	%rbx
	pushq	%rax
	.cfi_offset %rbx, -40
	.cfi_offset %r14, -32
	.cfi_offset %r15, -24
	movl	%edx, %r14d
	movq	%rsi, %r15
	movl	%edi, %ebx
	callq	get_urand
	cmpl	$0, %eax
	jne	.LBB4_17
# %bb.1:                                # %func_dct_luma8x8.3
	movl	%ebx, %edi
	movq	%r15, %rsi
	movl	%r14d, %edx
	callq	dct_luma8x8.3
	addq	$8, %rsp
	popq	%rbx
	popq	%r14
	popq	%r15
	popq	%rbp
	.cfi_def_cfa %rsp, 8
	retq
.LBB4_2:                                # %func_dct_luma8x8.7
	.cfi_def_cfa %rbp, 16
	movl	%ebx, %edi
	movq	%r15, %rsi
	movl	%r14d, %edx
	callq	dct_luma8x8.7
	addq	$8, %rsp
	popq	%rbx
	popq	%r14
	popq	%r15
	popq	%rbp
	.cfi_def_cfa %rsp, 8
	retq
.LBB4_3:                                # %func_dct_luma8x8.10
	.cfi_def_cfa %rbp, 16
	movl	%ebx, %edi
	movq	%r15, %rsi
	movl	%r14d, %edx
	callq	dct_luma8x8.10
	addq	$8, %rsp
	popq	%rbx
	popq	%r14
	popq	%r15
	popq	%rbp
	.cfi_def_cfa %rsp, 8
	retq
.LBB4_4:                                # %func_dct_luma8x8.12
	.cfi_def_cfa %rbp, 16
	movl	%ebx, %edi
	movq	%r15, %rsi
	movl	%r14d, %edx
	callq	dct_luma8x8.12
	addq	$8, %rsp
	popq	%rbx
	popq	%r14
	popq	%r15
	popq	%rbp
	.cfi_def_cfa %rsp, 8
	retq
.LBB4_5:                                # %func_dct_luma8x8.18
	.cfi_def_cfa %rbp, 16
	movl	%ebx, %edi
	movq	%r15, %rsi
	movl	%r14d, %edx
	callq	dct_luma8x8.18
	addq	$8, %rsp
	popq	%rbx
	popq	%r14
	popq	%r15
	popq	%rbp
	.cfi_def_cfa %rsp, 8
	retq
.LBB4_6:                                # %func_dct_luma8x8.22
	.cfi_def_cfa %rbp, 16
	movl	%ebx, %edi
	movq	%r15, %rsi
	movl	%r14d, %edx
	callq	dct_luma8x8.22
	addq	$8, %rsp
	popq	%rbx
	popq	%r14
	popq	%r15
	popq	%rbp
	.cfi_def_cfa %rsp, 8
	retq
.LBB4_7:                                # %func_dct_luma8x8.24
	.cfi_def_cfa %rbp, 16
	movl	%ebx, %edi
	movq	%r15, %rsi
	movl	%r14d, %edx
	callq	dct_luma8x8.24
	addq	$8, %rsp
	popq	%rbx
	popq	%r14
	popq	%r15
	popq	%rbp
	.cfi_def_cfa %rsp, 8
	retq
.LBB4_8:                                # %func_dct_luma8x8.26
	.cfi_def_cfa %rbp, 16
	movl	%ebx, %edi
	movq	%r15, %rsi
	movl	%r14d, %edx
	callq	dct_luma8x8.26
	addq	$8, %rsp
	popq	%rbx
	popq	%r14
	popq	%r15
	popq	%rbp
	.cfi_def_cfa %rsp, 8
	retq
.LBB4_9:                                # %func_dct_luma8x8.31
	.cfi_def_cfa %rbp, 16
	movl	%ebx, %edi
	movq	%r15, %rsi
	movl	%r14d, %edx
	callq	dct_luma8x8.31
	addq	$8, %rsp
	popq	%rbx
	popq	%r14
	popq	%r15
	popq	%rbp
	.cfi_def_cfa %rsp, 8
	retq
.LBB4_10:                               # %func_dct_luma8x8.39
	.cfi_def_cfa %rbp, 16
	movl	%ebx, %edi
	movq	%r15, %rsi
	movl	%r14d, %edx
	callq	dct_luma8x8.39
	addq	$8, %rsp
	popq	%rbx
	popq	%r14
	popq	%r15
	popq	%rbp
	.cfi_def_cfa %rsp, 8
	retq
.LBB4_11:                               # %func_dct_luma8x8.46
	.cfi_def_cfa %rbp, 16
	movl	%ebx, %edi
	movq	%r15, %rsi
	movl	%r14d, %edx
	callq	dct_luma8x8.46
	addq	$8, %rsp
	popq	%rbx
	popq	%r14
	popq	%r15
	popq	%rbp
	.cfi_def_cfa %rsp, 8
	retq
.LBB4_12:                               # %func_dct_luma8x8.50
	.cfi_def_cfa %rbp, 16
	movl	%ebx, %edi
	movq	%r15, %rsi
	movl	%r14d, %edx
	callq	dct_luma8x8.50
	addq	$8, %rsp
	popq	%rbx
	popq	%r14
	popq	%r15
	popq	%rbp
	.cfi_def_cfa %rsp, 8
	retq
.LBB4_13:                               # %func_dct_luma8x8.52
	.cfi_def_cfa %rbp, 16
	movl	%ebx, %edi
	movq	%r15, %rsi
	movl	%r14d, %edx
	callq	dct_luma8x8.52
	addq	$8, %rsp
	popq	%rbx
	popq	%r14
	popq	%r15
	popq	%rbp
	.cfi_def_cfa %rsp, 8
	retq
.LBB4_14:                               # %func_dct_luma8x8.63
	.cfi_def_cfa %rbp, 16
	movl	%ebx, %edi
	movq	%r15, %rsi
	movl	%r14d, %edx
	callq	dct_luma8x8.63
	addq	$8, %rsp
	popq	%rbx
	popq	%r14
	popq	%r15
	popq	%rbp
	.cfi_def_cfa %rsp, 8
	retq
.LBB4_15:                               # %func_dct_luma8x8.69
	.cfi_def_cfa %rbp, 16
	movl	%ebx, %edi
	movq	%r15, %rsi
	movl	%r14d, %edx
	callq	dct_luma8x8.69
	addq	$8, %rsp
	popq	%rbx
	popq	%r14
	popq	%r15
	popq	%rbp
	.cfi_def_cfa %rsp, 8
	retq
.LBB4_16:                               # %func_dct_luma8x8.76
	.cfi_def_cfa %rbp, 16
	movl	%ebx, %edi
	movq	%r15, %rsi
	movl	%r14d, %edx
	callq	dct_luma8x8.76
	addq	$8, %rsp
	popq	%rbx
	popq	%r14
	popq	%r15
	popq	%rbp
	.cfi_def_cfa %rsp, 8
	retq
.LBB4_17:                               # %ctrl0
	.cfi_def_cfa %rbp, 16
	cmpl	$1, %eax
	je	.LBB4_2
# %bb.18:                               # %ctrl1
	cmpl	$2, %eax
	je	.LBB4_3
# %bb.19:                               # %ctrl2
	cmpl	$3, %eax
	je	.LBB4_4
# %bb.20:                               # %ctrl3
	cmpl	$4, %eax
	je	.LBB4_5
# %bb.21:                               # %ctrl4
	cmpl	$5, %eax
	je	.LBB4_6
# %bb.22:                               # %ctrl5
	cmpl	$6, %eax
	je	.LBB4_7
# %bb.23:                               # %ctrl6
	cmpl	$7, %eax
	je	.LBB4_8
# %bb.24:                               # %ctrl7
	cmpl	$8, %eax
	je	.LBB4_9
# %bb.25:                               # %ctrl8
	cmpl	$9, %eax
	je	.LBB4_10
# %bb.26:                               # %ctrl9
	cmpl	$10, %eax
	je	.LBB4_11
# %bb.27:                               # %ctrl10
	cmpl	$11, %eax
	je	.LBB4_12
# %bb.28:                               # %ctrl11
	cmpl	$12, %eax
	je	.LBB4_13
# %bb.29:                               # %ctrl12
	cmpl	$13, %eax
	je	.LBB4_14
# %bb.30:                               # %ctrl13
	cmpl	$14, %eax
	je	.LBB4_15
	jmp	.LBB4_16
.Lfunc_end4:
	.size	dct_luma8x8, .Lfunc_end4-dct_luma8x8
	.cfi_endproc
                                        # -- End function
	.globl	LowPassForIntra8x8Pred  # -- Begin function LowPassForIntra8x8Pred
	.p2align	4, 0x90
	.type	LowPassForIntra8x8Pred,@function
LowPassForIntra8x8Pred:                 # @LowPassForIntra8x8Pred
	.cfi_startproc
# %bb.0:                                # %rand_bb
	pushq	%rbp
	.cfi_def_cfa_offset 16
	.cfi_offset %rbp, -16
	movq	%rsp, %rbp
	.cfi_def_cfa_register %rbp
	pushq	%r15
	pushq	%r14
	pushq	%r12
	pushq	%rbx
	.cfi_offset %rbx, -48
	.cfi_offset %r12, -40
	.cfi_offset %r14, -32
	.cfi_offset %r15, -24
	movl	%ecx, %r14d
	movl	%edx, %r15d
	movl	%esi, %r12d
	movq	%rdi, %rbx
	callq	get_urand
	cmpl	$0, %eax
	jne	.LBB5_17
# %bb.1:                                # %func_LowPassForIntra8x8Pred.1
	movq	%rbx, %rdi
	movl	%r12d, %esi
	movl	%r15d, %edx
	movl	%r14d, %ecx
	callq	LowPassForIntra8x8Pred.1
	popq	%rbx
	popq	%r12
	popq	%r14
	popq	%r15
	popq	%rbp
	.cfi_def_cfa %rsp, 8
	retq
.LBB5_2:                                # %func_LowPassForIntra8x8Pred.2
	.cfi_def_cfa %rbp, 16
	movq	%rbx, %rdi
	movl	%r12d, %esi
	movl	%r15d, %edx
	movl	%r14d, %ecx
	callq	LowPassForIntra8x8Pred.2
	popq	%rbx
	popq	%r12
	popq	%r14
	popq	%r15
	popq	%rbp
	.cfi_def_cfa %rsp, 8
	retq
.LBB5_3:                                # %func_LowPassForIntra8x8Pred.11
	.cfi_def_cfa %rbp, 16
	movq	%rbx, %rdi
	movl	%r12d, %esi
	movl	%r15d, %edx
	movl	%r14d, %ecx
	callq	LowPassForIntra8x8Pred.11
	popq	%rbx
	popq	%r12
	popq	%r14
	popq	%r15
	popq	%rbp
	.cfi_def_cfa %rsp, 8
	retq
.LBB5_4:                                # %func_LowPassForIntra8x8Pred.15
	.cfi_def_cfa %rbp, 16
	movq	%rbx, %rdi
	movl	%r12d, %esi
	movl	%r15d, %edx
	movl	%r14d, %ecx
	callq	LowPassForIntra8x8Pred.15
	popq	%rbx
	popq	%r12
	popq	%r14
	popq	%r15
	popq	%rbp
	.cfi_def_cfa %rsp, 8
	retq
.LBB5_5:                                # %func_LowPassForIntra8x8Pred.28
	.cfi_def_cfa %rbp, 16
	movq	%rbx, %rdi
	movl	%r12d, %esi
	movl	%r15d, %edx
	movl	%r14d, %ecx
	callq	LowPassForIntra8x8Pred.28
	popq	%rbx
	popq	%r12
	popq	%r14
	popq	%r15
	popq	%rbp
	.cfi_def_cfa %rsp, 8
	retq
.LBB5_6:                                # %func_LowPassForIntra8x8Pred.38
	.cfi_def_cfa %rbp, 16
	movq	%rbx, %rdi
	movl	%r12d, %esi
	movl	%r15d, %edx
	movl	%r14d, %ecx
	callq	LowPassForIntra8x8Pred.38
	popq	%rbx
	popq	%r12
	popq	%r14
	popq	%r15
	popq	%rbp
	.cfi_def_cfa %rsp, 8
	retq
.LBB5_7:                                # %func_LowPassForIntra8x8Pred.54
	.cfi_def_cfa %rbp, 16
	movq	%rbx, %rdi
	movl	%r12d, %esi
	movl	%r15d, %edx
	movl	%r14d, %ecx
	callq	LowPassForIntra8x8Pred.54
	popq	%rbx
	popq	%r12
	popq	%r14
	popq	%r15
	popq	%rbp
	.cfi_def_cfa %rsp, 8
	retq
.LBB5_8:                                # %func_LowPassForIntra8x8Pred.60
	.cfi_def_cfa %rbp, 16
	movq	%rbx, %rdi
	movl	%r12d, %esi
	movl	%r15d, %edx
	movl	%r14d, %ecx
	callq	LowPassForIntra8x8Pred.60
	popq	%rbx
	popq	%r12
	popq	%r14
	popq	%r15
	popq	%rbp
	.cfi_def_cfa %rsp, 8
	retq
.LBB5_9:                                # %func_LowPassForIntra8x8Pred.65
	.cfi_def_cfa %rbp, 16
	movq	%rbx, %rdi
	movl	%r12d, %esi
	movl	%r15d, %edx
	movl	%r14d, %ecx
	callq	LowPassForIntra8x8Pred.65
	popq	%rbx
	popq	%r12
	popq	%r14
	popq	%r15
	popq	%rbp
	.cfi_def_cfa %rsp, 8
	retq
.LBB5_10:                               # %func_LowPassForIntra8x8Pred.70
	.cfi_def_cfa %rbp, 16
	movq	%rbx, %rdi
	movl	%r12d, %esi
	movl	%r15d, %edx
	movl	%r14d, %ecx
	callq	LowPassForIntra8x8Pred.70
	popq	%rbx
	popq	%r12
	popq	%r14
	popq	%r15
	popq	%rbp
	.cfi_def_cfa %rsp, 8
	retq
.LBB5_11:                               # %func_LowPassForIntra8x8Pred.77
	.cfi_def_cfa %rbp, 16
	movq	%rbx, %rdi
	movl	%r12d, %esi
	movl	%r15d, %edx
	movl	%r14d, %ecx
	callq	LowPassForIntra8x8Pred.77
	popq	%rbx
	popq	%r12
	popq	%r14
	popq	%r15
	popq	%rbp
	.cfi_def_cfa %rsp, 8
	retq
.LBB5_12:                               # %func_LowPassForIntra8x8Pred.78
	.cfi_def_cfa %rbp, 16
	movq	%rbx, %rdi
	movl	%r12d, %esi
	movl	%r15d, %edx
	movl	%r14d, %ecx
	callq	LowPassForIntra8x8Pred.78
	popq	%rbx
	popq	%r12
	popq	%r14
	popq	%r15
	popq	%rbp
	.cfi_def_cfa %rsp, 8
	retq
.LBB5_13:                               # %func_LowPassForIntra8x8Pred.85
	.cfi_def_cfa %rbp, 16
	movq	%rbx, %rdi
	movl	%r12d, %esi
	movl	%r15d, %edx
	movl	%r14d, %ecx
	callq	LowPassForIntra8x8Pred.85
	popq	%rbx
	popq	%r12
	popq	%r14
	popq	%r15
	popq	%rbp
	.cfi_def_cfa %rsp, 8
	retq
.LBB5_14:                               # %func_LowPassForIntra8x8Pred.88
	.cfi_def_cfa %rbp, 16
	movq	%rbx, %rdi
	movl	%r12d, %esi
	movl	%r15d, %edx
	movl	%r14d, %ecx
	callq	LowPassForIntra8x8Pred.88
	popq	%rbx
	popq	%r12
	popq	%r14
	popq	%r15
	popq	%rbp
	.cfi_def_cfa %rsp, 8
	retq
.LBB5_15:                               # %func_LowPassForIntra8x8Pred.89
	.cfi_def_cfa %rbp, 16
	movq	%rbx, %rdi
	movl	%r12d, %esi
	movl	%r15d, %edx
	movl	%r14d, %ecx
	callq	LowPassForIntra8x8Pred.89
	popq	%rbx
	popq	%r12
	popq	%r14
	popq	%r15
	popq	%rbp
	.cfi_def_cfa %rsp, 8
	retq
.LBB5_16:                               # %func_LowPassForIntra8x8Pred.91
	.cfi_def_cfa %rbp, 16
	movq	%rbx, %rdi
	movl	%r12d, %esi
	movl	%r15d, %edx
	movl	%r14d, %ecx
	callq	LowPassForIntra8x8Pred.91
	popq	%rbx
	popq	%r12
	popq	%r14
	popq	%r15
	popq	%rbp
	.cfi_def_cfa %rsp, 8
	retq
.LBB5_17:                               # %ctrl0
	.cfi_def_cfa %rbp, 16
	cmpl	$1, %eax
	je	.LBB5_2
# %bb.18:                               # %ctrl1
	cmpl	$2, %eax
	je	.LBB5_3
# %bb.19:                               # %ctrl2
	cmpl	$3, %eax
	je	.LBB5_4
# %bb.20:                               # %ctrl3
	cmpl	$4, %eax
	je	.LBB5_5
# %bb.21:                               # %ctrl4
	cmpl	$5, %eax
	je	.LBB5_6
# %bb.22:                               # %ctrl5
	cmpl	$6, %eax
	je	.LBB5_7
# %bb.23:                               # %ctrl6
	cmpl	$7, %eax
	je	.LBB5_8
# %bb.24:                               # %ctrl7
	cmpl	$8, %eax
	je	.LBB5_9
# %bb.25:                               # %ctrl8
	cmpl	$9, %eax
	je	.LBB5_10
# %bb.26:                               # %ctrl9
	cmpl	$10, %eax
	je	.LBB5_11
# %bb.27:                               # %ctrl10
	cmpl	$11, %eax
	je	.LBB5_12
# %bb.28:                               # %ctrl11
	cmpl	$12, %eax
	je	.LBB5_13
# %bb.29:                               # %ctrl12
	cmpl	$13, %eax
	je	.LBB5_14
# %bb.30:                               # %ctrl13
	cmpl	$14, %eax
	je	.LBB5_15
	jmp	.LBB5_16
.Lfunc_end5:
	.size	LowPassForIntra8x8Pred, .Lfunc_end5-LowPassForIntra8x8Pred
	.cfi_endproc
                                        # -- End function
	.globl	LowPassForIntra8x8Pred.1 # -- Begin function LowPassForIntra8x8Pred.1
	.p2align	4, 0x90
	.type	LowPassForIntra8x8Pred.1,@function
LowPassForIntra8x8Pred.1:               # @LowPassForIntra8x8Pred.1
	.cfi_startproc
# %bb.0:                                # %entry
	pushq	%rbp
	.cfi_def_cfa_offset 16
	.cfi_offset %rbp, -16
	movq	%rsp, %rbp
	.cfi_def_cfa_register %rbp
	subq	$144, %rsp
	movl	$1897650646, -32(%rbp)  # imm = 0x711BD9D6
	movq	%rdi, -16(%rbp)
	movl	%esi, -24(%rbp)
	movl	%edx, -28(%rbp)
	movl	%ecx, -20(%rbp)
	movl	$0, -4(%rbp)
.LBB6_1:                                # %for.cond
                                        # =>This Inner Loop Header: Depth=1
	cmpl	$25, -4(%rbp)
	jge	.LBB6_4
# %bb.2:                                # %for.body
                                        #   in Loop: Header=BB6_1 Depth=1
	movq	-16(%rbp), %rax
	movslq	-4(%rbp), %rcx
	movl	(%rax,%rcx,4), %eax
	movslq	-4(%rbp), %rcx
	movl	%eax, -144(%rbp,%rcx,4)
# %bb.3:                                # %for.inc
                                        #   in Loop: Header=BB6_1 Depth=1
	movl	-4(%rbp), %eax
	addl	$1, %eax
	movl	%eax, -4(%rbp)
	jmp	.LBB6_1
.LBB6_4:                                # %for.end
	cmpl	$0, -28(%rbp)
	je	.LBB6_13
# %bb.5:                                # %if.then
	cmpl	$0, -24(%rbp)
	je	.LBB6_7
# %bb.6:                                # %if.then4
	movq	-16(%rbp), %rax
	movl	(%rax), %eax
	movq	-16(%rbp), %rcx
	movl	4(%rcx), %ecx
	shll	$1, %ecx
	addl	%ecx, %eax
	movq	-16(%rbp), %rcx
	addl	8(%rcx), %eax
	addl	$2, %eax
	sarl	$2, %eax
	movl	%eax, -140(%rbp)
	jmp	.LBB6_8
.LBB6_7:                                # %if.else
	movq	-16(%rbp), %rax
	movl	4(%rax), %eax
	movq	-16(%rbp), %rcx
	movl	4(%rcx), %ecx
	shll	$1, %ecx
	addl	%ecx, %eax
	movq	-16(%rbp), %rcx
	addl	8(%rcx), %eax
	addl	$2, %eax
	sarl	$2, %eax
	movl	%eax, -140(%rbp)
.LBB6_8:                                # %if.end
	movl	$2, -4(%rbp)
.LBB6_9:                                # %for.cond26
                                        # =>This Inner Loop Header: Depth=1
	cmpl	$16, -4(%rbp)
	jge	.LBB6_12
# %bb.10:                               # %for.body28
                                        #   in Loop: Header=BB6_9 Depth=1
	movq	-16(%rbp), %rax
	movl	-4(%rbp), %ecx
	subl	$1, %ecx
	movslq	%ecx, %rcx
	movl	(%rax,%rcx,4), %eax
	movq	-16(%rbp), %rcx
	movslq	-4(%rbp), %rdx
	movl	(%rcx,%rdx,4), %ecx
	shll	$1, %ecx
	addl	%ecx, %eax
	movq	-16(%rbp), %rcx
	movl	-4(%rbp), %edx
	addl	$1, %edx
	movslq	%edx, %rdx
	addl	(%rcx,%rdx,4), %eax
	addl	$2, %eax
	sarl	$2, %eax
	movslq	-4(%rbp), %rcx
	movl	%eax, -144(%rbp,%rcx,4)
# %bb.11:                               # %for.inc46
                                        #   in Loop: Header=BB6_9 Depth=1
	movl	-4(%rbp), %eax
	addl	$1, %eax
	movl	%eax, -4(%rbp)
	jmp	.LBB6_9
.LBB6_12:                               # %for.end48
	movq	-16(%rbp), %rax
	movl	64(%rax), %eax
	movq	-16(%rbp), %rcx
	movl	64(%rcx), %ecx
	shll	$1, %ecx
	addl	%ecx, %eax
	movq	-16(%rbp), %rcx
	addl	60(%rcx), %eax
	addl	$2, %eax
	sarl	$2, %eax
	movl	%eax, -80(%rbp)
.LBB6_13:                               # %if.end58
	cmpl	$0, -24(%rbp)
	je	.LBB6_24
# %bb.14:                               # %if.then60
	cmpl	$0, -28(%rbp)
	je	.LBB6_17
# %bb.15:                               # %land.lhs.true
	cmpl	$0, -20(%rbp)
	je	.LBB6_17
# %bb.16:                               # %if.then63
	movq	-16(%rbp), %rax
	movl	68(%rax), %eax
	movq	-16(%rbp), %rcx
	movl	(%rcx), %ecx
	shll	$1, %ecx
	addl	%ecx, %eax
	movq	-16(%rbp), %rcx
	addl	4(%rcx), %eax
	addl	$2, %eax
	sarl	$2, %eax
	movl	%eax, -144(%rbp)
	jmp	.LBB6_23
.LBB6_17:                               # %if.else73
	cmpl	$0, -28(%rbp)
	je	.LBB6_19
# %bb.18:                               # %if.then75
	movq	-16(%rbp), %rax
	movl	(%rax), %eax
	movq	-16(%rbp), %rcx
	movl	(%rcx), %ecx
	shll	$1, %ecx
	addl	%ecx, %eax
	movq	-16(%rbp), %rcx
	addl	4(%rcx), %eax
	addl	$2, %eax
	sarl	$2, %eax
	movl	%eax, -144(%rbp)
	jmp	.LBB6_22
.LBB6_19:                               # %if.else85
	cmpl	$0, -20(%rbp)
	je	.LBB6_21
# %bb.20:                               # %if.then87
	movq	-16(%rbp), %rax
	movl	(%rax), %eax
	movq	-16(%rbp), %rcx
	movl	(%rcx), %ecx
	shll	$1, %ecx
	addl	%ecx, %eax
	movq	-16(%rbp), %rcx
	addl	68(%rcx), %eax
	addl	$2, %eax
	sarl	$2, %eax
	movl	%eax, -144(%rbp)
.LBB6_21:                               # %if.end97
	jmp	.LBB6_22
.LBB6_22:                               # %if.end98
	jmp	.LBB6_23
.LBB6_23:                               # %if.end99
	jmp	.LBB6_24
.LBB6_24:                               # %if.end100
	cmpl	$0, -20(%rbp)
	je	.LBB6_33
# %bb.25:                               # %if.then102
	cmpl	$0, -24(%rbp)
	je	.LBB6_27
# %bb.26:                               # %if.then104
	movq	-16(%rbp), %rax
	movl	(%rax), %eax
	movq	-16(%rbp), %rcx
	movl	68(%rcx), %ecx
	shll	$1, %ecx
	addl	%ecx, %eax
	movq	-16(%rbp), %rcx
	addl	72(%rcx), %eax
	addl	$2, %eax
	sarl	$2, %eax
	movl	%eax, -76(%rbp)
	jmp	.LBB6_28
.LBB6_27:                               # %if.else114
	movq	-16(%rbp), %rax
	movl	68(%rax), %eax
	movq	-16(%rbp), %rcx
	movl	68(%rcx), %ecx
	shll	$1, %ecx
	addl	%ecx, %eax
	movq	-16(%rbp), %rcx
	addl	72(%rcx), %eax
	addl	$2, %eax
	sarl	$2, %eax
	movl	%eax, -76(%rbp)
.LBB6_28:                               # %if.end124
	movl	$18, -4(%rbp)
.LBB6_29:                               # %for.cond125
                                        # =>This Inner Loop Header: Depth=1
	cmpl	$24, -4(%rbp)
	jge	.LBB6_32
# %bb.30:                               # %for.body127
                                        #   in Loop: Header=BB6_29 Depth=1
	movq	-16(%rbp), %rax
	movl	-4(%rbp), %ecx
	subl	$1, %ecx
	movslq	%ecx, %rcx
	movl	(%rax,%rcx,4), %eax
	movq	-16(%rbp), %rcx
	movslq	-4(%rbp), %rdx
	movl	(%rcx,%rdx,4), %ecx
	shll	$1, %ecx
	addl	%ecx, %eax
	movq	-16(%rbp), %rcx
	movl	-4(%rbp), %edx
	addl	$1, %edx
	movslq	%edx, %rdx
	addl	(%rcx,%rdx,4), %eax
	addl	$2, %eax
	sarl	$2, %eax
	movslq	-4(%rbp), %rcx
	movl	%eax, -144(%rbp,%rcx,4)
# %bb.31:                               # %for.inc146
                                        #   in Loop: Header=BB6_29 Depth=1
	movl	-4(%rbp), %eax
	addl	$1, %eax
	movl	%eax, -4(%rbp)
	jmp	.LBB6_29
.LBB6_32:                               # %for.end148
	movq	-16(%rbp), %rax
	movl	92(%rax), %eax
	movq	-16(%rbp), %rcx
	movl	96(%rcx), %ecx
	shll	$1, %ecx
	addl	%ecx, %eax
	movq	-16(%rbp), %rcx
	addl	96(%rcx), %eax
	addl	$2, %eax
	sarl	$2, %eax
	movl	%eax, -48(%rbp)
.LBB6_33:                               # %if.end158
	movl	$0, -4(%rbp)
.LBB6_34:                               # %for.cond159
                                        # =>This Inner Loop Header: Depth=1
	cmpl	$25, -4(%rbp)
	jge	.LBB6_37
# %bb.35:                               # %for.body161
                                        #   in Loop: Header=BB6_34 Depth=1
	movslq	-4(%rbp), %rax
	movl	-144(%rbp,%rax,4), %eax
	movq	-16(%rbp), %rcx
	movslq	-4(%rbp), %rdx
	movl	%eax, (%rcx,%rdx,4)
# %bb.36:                               # %for.inc166
                                        #   in Loop: Header=BB6_34 Depth=1
	movl	-4(%rbp), %eax
	addl	$1, %eax
	movl	%eax, -4(%rbp)
	jmp	.LBB6_34
.LBB6_37:                               # %for.end168
	cmpl	$1897650646, -32(%rbp)  # imm = 0x711BD9D6
	jne	.LBB6_39
.LBB6_38:
	addq	$144, %rsp
	popq	%rbp
	.cfi_def_cfa %rsp, 8
	retq
.LBB6_39:                               # %func_exit
	.cfi_def_cfa %rbp, 16
	callq	detect_breach
	jmp	.LBB6_38
.Lfunc_end6:
	.size	LowPassForIntra8x8Pred.1, .Lfunc_end6-LowPassForIntra8x8Pred.1
	.cfi_endproc
                                        # -- End function
	.globl	LowPassForIntra8x8Pred.2 # -- Begin function LowPassForIntra8x8Pred.2
	.p2align	4, 0x90
	.type	LowPassForIntra8x8Pred.2,@function
LowPassForIntra8x8Pred.2:               # @LowPassForIntra8x8Pred.2
	.cfi_startproc
# %bb.0:                                # %entry
	pushq	%rbp
	.cfi_def_cfa_offset 16
	.cfi_offset %rbp, -16
	movq	%rsp, %rbp
	.cfi_def_cfa_register %rbp
	subq	$144, %rsp
	movl	$635864871, -32(%rbp)   # imm = 0x25E68727
	movq	%rdi, -16(%rbp)
	movl	%esi, -28(%rbp)
	movl	%edx, -20(%rbp)
	movl	%ecx, -24(%rbp)
	movl	$0, -4(%rbp)
.LBB7_1:                                # %for.cond
                                        # =>This Inner Loop Header: Depth=1
	cmpl	$25, -4(%rbp)
	jge	.LBB7_4
# %bb.2:                                # %for.body
                                        #   in Loop: Header=BB7_1 Depth=1
	movq	-16(%rbp), %rax
	movslq	-4(%rbp), %rcx
	movl	(%rax,%rcx,4), %eax
	movslq	-4(%rbp), %rcx
	movl	%eax, -144(%rbp,%rcx,4)
# %bb.3:                                # %for.inc
                                        #   in Loop: Header=BB7_1 Depth=1
	movl	-4(%rbp), %eax
	addl	$1, %eax
	movl	%eax, -4(%rbp)
	jmp	.LBB7_1
.LBB7_4:                                # %for.end
	cmpl	$0, -20(%rbp)
	je	.LBB7_13
# %bb.5:                                # %if.then
	cmpl	$0, -28(%rbp)
	je	.LBB7_7
# %bb.6:                                # %if.then4
	movq	-16(%rbp), %rax
	movl	(%rax), %eax
	movq	-16(%rbp), %rcx
	movl	4(%rcx), %ecx
	shll	$1, %ecx
	addl	%ecx, %eax
	movq	-16(%rbp), %rcx
	addl	8(%rcx), %eax
	addl	$2, %eax
	sarl	$2, %eax
	movl	%eax, -140(%rbp)
	jmp	.LBB7_8
.LBB7_7:                                # %if.else
	movq	-16(%rbp), %rax
	movl	4(%rax), %eax
	movq	-16(%rbp), %rcx
	movl	4(%rcx), %ecx
	shll	$1, %ecx
	addl	%ecx, %eax
	movq	-16(%rbp), %rcx
	addl	8(%rcx), %eax
	addl	$2, %eax
	sarl	$2, %eax
	movl	%eax, -140(%rbp)
.LBB7_8:                                # %if.end
	movl	$2, -4(%rbp)
.LBB7_9:                                # %for.cond26
                                        # =>This Inner Loop Header: Depth=1
	cmpl	$16, -4(%rbp)
	jge	.LBB7_12
# %bb.10:                               # %for.body28
                                        #   in Loop: Header=BB7_9 Depth=1
	movq	-16(%rbp), %rax
	movl	-4(%rbp), %ecx
	subl	$1, %ecx
	movslq	%ecx, %rcx
	movl	(%rax,%rcx,4), %eax
	movq	-16(%rbp), %rcx
	movslq	-4(%rbp), %rdx
	movl	(%rcx,%rdx,4), %ecx
	shll	$1, %ecx
	addl	%ecx, %eax
	movq	-16(%rbp), %rcx
	movl	-4(%rbp), %edx
	addl	$1, %edx
	movslq	%edx, %rdx
	addl	(%rcx,%rdx,4), %eax
	addl	$2, %eax
	sarl	$2, %eax
	movslq	-4(%rbp), %rcx
	movl	%eax, -144(%rbp,%rcx,4)
# %bb.11:                               # %for.inc46
                                        #   in Loop: Header=BB7_9 Depth=1
	movl	-4(%rbp), %eax
	addl	$1, %eax
	movl	%eax, -4(%rbp)
	jmp	.LBB7_9
.LBB7_12:                               # %for.end48
	movq	-16(%rbp), %rax
	movl	64(%rax), %eax
	movq	-16(%rbp), %rcx
	movl	64(%rcx), %ecx
	shll	$1, %ecx
	addl	%ecx, %eax
	movq	-16(%rbp), %rcx
	addl	60(%rcx), %eax
	addl	$2, %eax
	sarl	$2, %eax
	movl	%eax, -80(%rbp)
.LBB7_13:                               # %if.end58
	cmpl	$0, -28(%rbp)
	je	.LBB7_24
# %bb.14:                               # %if.then60
	cmpl	$0, -20(%rbp)
	je	.LBB7_17
# %bb.15:                               # %land.lhs.true
	cmpl	$0, -24(%rbp)
	je	.LBB7_17
# %bb.16:                               # %if.then63
	movq	-16(%rbp), %rax
	movl	68(%rax), %eax
	movq	-16(%rbp), %rcx
	movl	(%rcx), %ecx
	shll	$1, %ecx
	addl	%ecx, %eax
	movq	-16(%rbp), %rcx
	addl	4(%rcx), %eax
	addl	$2, %eax
	sarl	$2, %eax
	movl	%eax, -144(%rbp)
	jmp	.LBB7_23
.LBB7_17:                               # %if.else73
	cmpl	$0, -20(%rbp)
	je	.LBB7_19
# %bb.18:                               # %if.then75
	movq	-16(%rbp), %rax
	movl	(%rax), %eax
	movq	-16(%rbp), %rcx
	movl	(%rcx), %ecx
	shll	$1, %ecx
	addl	%ecx, %eax
	movq	-16(%rbp), %rcx
	addl	4(%rcx), %eax
	addl	$2, %eax
	sarl	$2, %eax
	movl	%eax, -144(%rbp)
	jmp	.LBB7_22
.LBB7_19:                               # %if.else85
	cmpl	$0, -24(%rbp)
	je	.LBB7_21
# %bb.20:                               # %if.then87
	movq	-16(%rbp), %rax
	movl	(%rax), %eax
	movq	-16(%rbp), %rcx
	movl	(%rcx), %ecx
	shll	$1, %ecx
	addl	%ecx, %eax
	movq	-16(%rbp), %rcx
	addl	68(%rcx), %eax
	addl	$2, %eax
	sarl	$2, %eax
	movl	%eax, -144(%rbp)
.LBB7_21:                               # %if.end97
	jmp	.LBB7_22
.LBB7_22:                               # %if.end98
	jmp	.LBB7_23
.LBB7_23:                               # %if.end99
	jmp	.LBB7_24
.LBB7_24:                               # %if.end100
	cmpl	$0, -24(%rbp)
	je	.LBB7_33
# %bb.25:                               # %if.then102
	cmpl	$0, -28(%rbp)
	je	.LBB7_27
# %bb.26:                               # %if.then104
	movq	-16(%rbp), %rax
	movl	(%rax), %eax
	movq	-16(%rbp), %rcx
	movl	68(%rcx), %ecx
	shll	$1, %ecx
	addl	%ecx, %eax
	movq	-16(%rbp), %rcx
	addl	72(%rcx), %eax
	addl	$2, %eax
	sarl	$2, %eax
	movl	%eax, -76(%rbp)
	jmp	.LBB7_28
.LBB7_27:                               # %if.else114
	movq	-16(%rbp), %rax
	movl	68(%rax), %eax
	movq	-16(%rbp), %rcx
	movl	68(%rcx), %ecx
	shll	$1, %ecx
	addl	%ecx, %eax
	movq	-16(%rbp), %rcx
	addl	72(%rcx), %eax
	addl	$2, %eax
	sarl	$2, %eax
	movl	%eax, -76(%rbp)
.LBB7_28:                               # %if.end124
	movl	$18, -4(%rbp)
.LBB7_29:                               # %for.cond125
                                        # =>This Inner Loop Header: Depth=1
	cmpl	$24, -4(%rbp)
	jge	.LBB7_32
# %bb.30:                               # %for.body127
                                        #   in Loop: Header=BB7_29 Depth=1
	movq	-16(%rbp), %rax
	movl	-4(%rbp), %ecx
	subl	$1, %ecx
	movslq	%ecx, %rcx
	movl	(%rax,%rcx,4), %eax
	movq	-16(%rbp), %rcx
	movslq	-4(%rbp), %rdx
	movl	(%rcx,%rdx,4), %ecx
	shll	$1, %ecx
	addl	%ecx, %eax
	movq	-16(%rbp), %rcx
	movl	-4(%rbp), %edx
	addl	$1, %edx
	movslq	%edx, %rdx
	addl	(%rcx,%rdx,4), %eax
	addl	$2, %eax
	sarl	$2, %eax
	movslq	-4(%rbp), %rcx
	movl	%eax, -144(%rbp,%rcx,4)
# %bb.31:                               # %for.inc146
                                        #   in Loop: Header=BB7_29 Depth=1
	movl	-4(%rbp), %eax
	addl	$1, %eax
	movl	%eax, -4(%rbp)
	jmp	.LBB7_29
.LBB7_32:                               # %for.end148
	movq	-16(%rbp), %rax
	movl	92(%rax), %eax
	movq	-16(%rbp), %rcx
	movl	96(%rcx), %ecx
	shll	$1, %ecx
	addl	%ecx, %eax
	movq	-16(%rbp), %rcx
	addl	96(%rcx), %eax
	addl	$2, %eax
	sarl	$2, %eax
	movl	%eax, -48(%rbp)
.LBB7_33:                               # %if.end158
	movl	$0, -4(%rbp)
.LBB7_34:                               # %for.cond159
                                        # =>This Inner Loop Header: Depth=1
	cmpl	$25, -4(%rbp)
	jge	.LBB7_37
# %bb.35:                               # %for.body161
                                        #   in Loop: Header=BB7_34 Depth=1
	movslq	-4(%rbp), %rax
	movl	-144(%rbp,%rax,4), %eax
	movq	-16(%rbp), %rcx
	movslq	-4(%rbp), %rdx
	movl	%eax, (%rcx,%rdx,4)
# %bb.36:                               # %for.inc166
                                        #   in Loop: Header=BB7_34 Depth=1
	movl	-4(%rbp), %eax
	addl	$1, %eax
	movl	%eax, -4(%rbp)
	jmp	.LBB7_34
.LBB7_37:                               # %for.end168
	cmpl	$635864871, -32(%rbp)   # imm = 0x25E68727
	jne	.LBB7_39
.LBB7_38:
	addq	$144, %rsp
	popq	%rbp
	.cfi_def_cfa %rsp, 8
	retq
.LBB7_39:                               # %func_exit
	.cfi_def_cfa %rbp, 16
	callq	detect_breach
	jmp	.LBB7_38
.Lfunc_end7:
	.size	LowPassForIntra8x8Pred.2, .Lfunc_end7-LowPassForIntra8x8Pred.2
	.cfi_endproc
                                        # -- End function
	.globl	dct_luma8x8.3           # -- Begin function dct_luma8x8.3
	.p2align	4, 0x90
	.type	dct_luma8x8.3,@function
dct_luma8x8.3:                          # @dct_luma8x8.3
	.cfi_startproc
# %bb.0:                                # %entry
	pushq	%rbp
	.cfi_def_cfa_offset 16
	.cfi_offset %rbp, -16
	movq	%rsp, %rbp
	.cfi_def_cfa_register %rbp
	pushq	%rbx
	subq	$664, %rsp              # imm = 0x298
	.cfi_offset %rbx, -24
	xorl	%ecx, %ecx
	movl	$415798293, -396(%rbp)  # imm = 0x18C89415
	movl	%edi, -36(%rbp)
	movq	%rsi, -352(%rbp)
	movl	%edx, -344(%rbp)
	movl	$0, -136(%rbp)
	movl	$0, -140(%rbp)
	movl	$0, -132(%rbp)
	movl	-36(%rbp), %eax
	cltd
	movl	$2, %esi
	idivl	%esi
	shll	$3, %edx
	movl	%edx, -48(%rbp)
	movl	-36(%rbp), %eax
	cltd
	idivl	%esi
	shll	$3, %eax
	movl	%eax, -44(%rbp)
	movq	img, %rax
	movq	14136(%rax), %rax
	movslq	-36(%rbp), %rdx
	movq	(%rax,%rdx,8), %rax
	movq	(%rax), %rax
	movq	(%rax), %rax
	movq	%rax, -408(%rbp)
	movq	img, %rax
	movq	14136(%rax), %rax
	movslq	-36(%rbp), %rdx
	movq	(%rax,%rdx,8), %rax
	movq	(%rax), %rax
	movq	8(%rax), %rax
	movq	%rax, -416(%rbp)
	movq	img, %rax
	movq	14168(%rax), %rax
	movq	img, %rdx
	movslq	12(%rdx), %rdx
	imulq	$632, %rdx, %rdx        # imm = 0x278
	addq	%rdx, %rax
	movq	%rax, -392(%rbp)
	movq	img, %rax
	movl	40(%rax), %eax
	movq	img, %rdx
	addl	72668(%rdx), %eax
	cmpl	$0, %eax
	jne	.LBB8_2
# %bb.1:                                # %land.rhs
	movq	img, %rax
	cmpl	$1, 72704(%rax)
	sete	%cl
.LBB8_2:                                # %land.end
	andb	$1, %cl
	movzbl	%cl, %eax
	movl	%eax, -32(%rbp)
	movq	img, %rax
	movl	40(%rax), %eax
	movq	img, %rcx
	addl	72668(%rcx), %eax
	subl	$0, %eax
	cltd
	movl	$6, %ecx
	idivl	%ecx
	movl	%eax, -28(%rbp)
	movq	img, %rax
	movl	40(%rax), %eax
	movq	img, %rdx
	addl	72668(%rdx), %eax
	subl	$0, %eax
	cltd
	idivl	%ecx
	movl	%edx, -40(%rbp)
	movl	-28(%rbp), %eax
	addl	$16, %eax
	movl	%eax, -64(%rbp)
	cmpl	$6, -28(%rbp)
	jge	.LBB8_4
# %bb.3:                                # %if.then
	movl	$6, %eax
	subl	-28(%rbp), %eax
	movl	%eax, -140(%rbp)
	movl	$5, %ecx
	subl	-28(%rbp), %ecx
                                        # kill: def $cl killed $ecx
	movl	$1, %eax
	shll	%cl, %eax
	movl	%eax, -132(%rbp)
	jmp	.LBB8_5
.LBB8_4:                                # %if.else
	movl	-28(%rbp), %eax
	subl	$6, %eax
	movl	%eax, -136(%rbp)
.LBB8_5:                                # %if.end
	movq	img, %rax
	cmpl	$2, 24(%rax)
	jne	.LBB8_7
# %bb.6:                                # %if.then27
	movl	-64(%rbp), %ecx
                                        # kill: def $cl killed $ecx
	movl	$1, %eax
	shll	%cl, %eax
	cltd
	movl	$3, %ecx
	idivl	%ecx
	movl	%eax, -400(%rbp)
	jmp	.LBB8_8
.LBB8_7:                                # %if.else30
	movl	-64(%rbp), %ecx
                                        # kill: def $cl killed $ecx
	movl	$1, %eax
	shll	%cl, %eax
	cltd
	movl	$6, %ecx
	idivl	%ecx
	movl	%eax, -400(%rbp)
.LBB8_8:                                # %if.end33
	movl	$0, -12(%rbp)
.LBB8_9:                                # %for.cond
                                        # =>This Inner Loop Header: Depth=1
	xorl	%eax, %eax
	cmpl	$8, -12(%rbp)
	jge	.LBB8_11
# %bb.10:                               # %land.rhs35
                                        #   in Loop: Header=BB8_9 Depth=1
	cmpl	$0, -32(%rbp)
	setne	%al
	xorb	$-1, %al
.LBB8_11:                               # %land.end36
                                        #   in Loop: Header=BB8_9 Depth=1
	testb	$1, %al
	jne	.LBB8_12
	jmp	.LBB8_14
.LBB8_12:                               # %for.body
                                        #   in Loop: Header=BB8_9 Depth=1
	xorl	%eax, %eax
	movq	img, %rcx
	movslq	-12(%rbp), %rdx
	movl	13112(%rcx,%rdx,4), %ecx
	movq	img, %rdx
	movslq	-12(%rbp), %rsi
	addl	13560(%rdx,%rsi,4), %ecx
	movl	%ecx, -96(%rbp)
	movq	img, %rcx
	movslq	-12(%rbp), %rdx
	movl	13176(%rcx,%rdx,4), %ecx
	movq	img, %rdx
	movslq	-12(%rbp), %rsi
	addl	13496(%rdx,%rsi,4), %ecx
	movl	%ecx, -92(%rbp)
	movq	img, %rcx
	movslq	-12(%rbp), %rdx
	movl	13240(%rcx,%rdx,4), %ecx
	movq	img, %rdx
	movslq	-12(%rbp), %rsi
	addl	13432(%rdx,%rsi,4), %ecx
	movl	%ecx, -88(%rbp)
	movq	img, %rcx
	movslq	-12(%rbp), %rdx
	movl	13304(%rcx,%rdx,4), %ecx
	movq	img, %rdx
	movslq	-12(%rbp), %rsi
	addl	13368(%rdx,%rsi,4), %ecx
	movl	%ecx, -84(%rbp)
	movl	-96(%rbp), %ecx
	addl	-84(%rbp), %ecx
	movl	%ecx, -272(%rbp)
	movl	-92(%rbp), %ecx
	addl	-88(%rbp), %ecx
	movl	%ecx, -268(%rbp)
	movl	-96(%rbp), %ecx
	subl	-84(%rbp), %ecx
	movl	%ecx, -264(%rbp)
	movl	-92(%rbp), %ecx
	subl	-88(%rbp), %ecx
	movl	%ecx, -260(%rbp)
	movq	img, %rcx
	movslq	-12(%rbp), %rdx
	movl	13112(%rcx,%rdx,4), %ecx
	movq	img, %rdx
	movslq	-12(%rbp), %rsi
	subl	13560(%rdx,%rsi,4), %ecx
	movl	%ecx, -80(%rbp)
	movq	img, %rcx
	movslq	-12(%rbp), %rdx
	movl	13176(%rcx,%rdx,4), %ecx
	movq	img, %rdx
	movslq	-12(%rbp), %rsi
	subl	13496(%rdx,%rsi,4), %ecx
	movl	%ecx, -76(%rbp)
	movq	img, %rcx
	movslq	-12(%rbp), %rdx
	movl	13240(%rcx,%rdx,4), %ecx
	movq	img, %rdx
	movslq	-12(%rbp), %rsi
	subl	13432(%rdx,%rsi,4), %ecx
	movl	%ecx, -72(%rbp)
	movq	img, %rcx
	movslq	-12(%rbp), %rdx
	movl	13304(%rcx,%rdx,4), %ecx
	movq	img, %rdx
	movslq	-12(%rbp), %rsi
	subl	13368(%rdx,%rsi,4), %ecx
	movl	%ecx, -68(%rbp)
	movl	-76(%rbp), %ecx
	addl	-72(%rbp), %ecx
	movl	-80(%rbp), %edx
	sarl	$1, %edx
	addl	-80(%rbp), %edx
	addl	%edx, %ecx
	movl	%ecx, -256(%rbp)
	movl	-80(%rbp), %ecx
	subl	-68(%rbp), %ecx
	movl	-72(%rbp), %edx
	sarl	$1, %edx
	addl	-72(%rbp), %edx
	subl	%edx, %ecx
	movl	%ecx, -252(%rbp)
	movl	-80(%rbp), %ecx
	addl	-68(%rbp), %ecx
	movl	-76(%rbp), %edx
	sarl	$1, %edx
	addl	-76(%rbp), %edx
	subl	%edx, %ecx
	movl	%ecx, -248(%rbp)
	movl	-76(%rbp), %ecx
	subl	-72(%rbp), %ecx
	movl	-68(%rbp), %edx
	sarl	$1, %edx
	addl	-68(%rbp), %edx
	addl	%edx, %ecx
	movl	%ecx, -244(%rbp)
	movl	-272(%rbp), %ecx
	addl	-268(%rbp), %ecx
	movslq	-12(%rbp), %rdx
	movl	%ecx, -672(%rbp,%rdx,4)
	movl	-264(%rbp), %ecx
	movl	-260(%rbp), %edx
	sarl	$1, %edx
	addl	%edx, %ecx
	movslq	-12(%rbp), %rdx
	movl	%ecx, -608(%rbp,%rdx,4)
	movl	-272(%rbp), %ecx
	subl	-268(%rbp), %ecx
	movslq	-12(%rbp), %rdx
	movl	%ecx, -544(%rbp,%rdx,4)
	movl	-264(%rbp), %ecx
	sarl	$1, %ecx
	subl	-260(%rbp), %ecx
	movslq	-12(%rbp), %rdx
	movl	%ecx, -480(%rbp,%rdx,4)
	movl	-256(%rbp), %ecx
	movl	-244(%rbp), %edx
	sarl	$2, %edx
	addl	%edx, %ecx
	movslq	-12(%rbp), %rdx
	movl	%ecx, -640(%rbp,%rdx,4)
	movl	-252(%rbp), %ecx
	movl	-248(%rbp), %edx
	sarl	$2, %edx
	addl	%edx, %ecx
	movslq	-12(%rbp), %rdx
	movl	%ecx, -576(%rbp,%rdx,4)
	movl	-248(%rbp), %ecx
	movl	-252(%rbp), %edx
	sarl	$2, %edx
	subl	%edx, %ecx
	movslq	-12(%rbp), %rdx
	movl	%ecx, -512(%rbp,%rdx,4)
	subl	-244(%rbp), %eax
	movl	-256(%rbp), %ecx
	sarl	$2, %ecx
	addl	%ecx, %eax
	movslq	-12(%rbp), %rcx
	movl	%eax, -448(%rbp,%rcx,4)
# %bb.13:                               # %for.inc
                                        #   in Loop: Header=BB8_9 Depth=1
	movl	-12(%rbp), %eax
	addl	$1, %eax
	movl	%eax, -12(%rbp)
	jmp	.LBB8_9
.LBB8_14:                               # %for.end
	movl	$0, -12(%rbp)
.LBB8_15:                               # %for.cond223
                                        # =>This Inner Loop Header: Depth=1
	xorl	%eax, %eax
	cmpl	$8, -12(%rbp)
	jge	.LBB8_17
# %bb.16:                               # %land.rhs225
                                        #   in Loop: Header=BB8_15 Depth=1
	cmpl	$0, -32(%rbp)
	setne	%al
	xorb	$-1, %al
.LBB8_17:                               # %land.end228
                                        #   in Loop: Header=BB8_15 Depth=1
	testb	$1, %al
	jne	.LBB8_18
	jmp	.LBB8_20
.LBB8_18:                               # %for.body230
                                        #   in Loop: Header=BB8_15 Depth=1
	xorl	%eax, %eax
	movslq	-12(%rbp), %rdx
	shlq	$5, %rdx
	leaq	-672(%rbp), %rcx
	movq	%rcx, %rsi
	addq	%rdx, %rsi
	movl	(%rsi), %edx
	movslq	-12(%rbp), %rsi
	shlq	$5, %rsi
	movq	%rcx, %rdi
	addq	%rsi, %rdi
	addl	28(%rdi), %edx
	movl	%edx, -128(%rbp)
	movslq	-12(%rbp), %rdx
	shlq	$5, %rdx
	movq	%rcx, %rsi
	addq	%rdx, %rsi
	movl	4(%rsi), %edx
	movslq	-12(%rbp), %rsi
	shlq	$5, %rsi
	movq	%rcx, %rdi
	addq	%rsi, %rdi
	addl	24(%rdi), %edx
	movl	%edx, -124(%rbp)
	movslq	-12(%rbp), %rdx
	shlq	$5, %rdx
	movq	%rcx, %rsi
	addq	%rdx, %rsi
	movl	8(%rsi), %edx
	movslq	-12(%rbp), %rsi
	shlq	$5, %rsi
	movq	%rcx, %rdi
	addq	%rsi, %rdi
	addl	20(%rdi), %edx
	movl	%edx, -120(%rbp)
	movslq	-12(%rbp), %rdx
	shlq	$5, %rdx
	movq	%rcx, %rsi
	addq	%rdx, %rsi
	movl	12(%rsi), %edx
	movslq	-12(%rbp), %rsi
	shlq	$5, %rsi
	movq	%rcx, %rdi
	addq	%rsi, %rdi
	addl	16(%rdi), %edx
	movl	%edx, -116(%rbp)
	movl	-128(%rbp), %edx
	addl	-116(%rbp), %edx
	movl	%edx, -240(%rbp)
	movl	-124(%rbp), %edx
	addl	-120(%rbp), %edx
	movl	%edx, -236(%rbp)
	movl	-128(%rbp), %edx
	subl	-116(%rbp), %edx
	movl	%edx, -232(%rbp)
	movl	-124(%rbp), %edx
	subl	-120(%rbp), %edx
	movl	%edx, -228(%rbp)
	movslq	-12(%rbp), %rdx
	shlq	$5, %rdx
	movq	%rcx, %rsi
	addq	%rdx, %rsi
	movl	(%rsi), %edx
	movslq	-12(%rbp), %rsi
	shlq	$5, %rsi
	movq	%rcx, %rdi
	addq	%rsi, %rdi
	subl	28(%rdi), %edx
	movl	%edx, -112(%rbp)
	movslq	-12(%rbp), %rdx
	shlq	$5, %rdx
	movq	%rcx, %rsi
	addq	%rdx, %rsi
	movl	4(%rsi), %edx
	movslq	-12(%rbp), %rsi
	shlq	$5, %rsi
	movq	%rcx, %rdi
	addq	%rsi, %rdi
	subl	24(%rdi), %edx
	movl	%edx, -108(%rbp)
	movslq	-12(%rbp), %rdx
	shlq	$5, %rdx
	movq	%rcx, %rsi
	addq	%rdx, %rsi
	movl	8(%rsi), %edx
	movslq	-12(%rbp), %rsi
	shlq	$5, %rsi
	movq	%rcx, %rdi
	addq	%rsi, %rdi
	subl	20(%rdi), %edx
	movl	%edx, -104(%rbp)
	movslq	-12(%rbp), %rdx
	shlq	$5, %rdx
	movq	%rcx, %rsi
	addq	%rdx, %rsi
	movl	12(%rsi), %edx
	movslq	-12(%rbp), %rsi
	shlq	$5, %rsi
	addq	%rsi, %rcx
	subl	16(%rcx), %edx
	movl	%edx, -100(%rbp)
	movl	-108(%rbp), %ecx
	addl	-104(%rbp), %ecx
	movl	-112(%rbp), %edx
	sarl	$1, %edx
	addl	-112(%rbp), %edx
	addl	%edx, %ecx
	movl	%ecx, -224(%rbp)
	movl	-112(%rbp), %ecx
	subl	-100(%rbp), %ecx
	movl	-104(%rbp), %edx
	sarl	$1, %edx
	addl	-104(%rbp), %edx
	subl	%edx, %ecx
	movl	%ecx, -220(%rbp)
	movl	-112(%rbp), %ecx
	addl	-100(%rbp), %ecx
	movl	-108(%rbp), %edx
	sarl	$1, %edx
	addl	-108(%rbp), %edx
	subl	%edx, %ecx
	movl	%ecx, -216(%rbp)
	movl	-108(%rbp), %ecx
	subl	-104(%rbp), %ecx
	movl	-100(%rbp), %edx
	sarl	$1, %edx
	addl	-100(%rbp), %edx
	addl	%edx, %ecx
	movl	%ecx, -212(%rbp)
	movl	-240(%rbp), %ecx
	addl	-236(%rbp), %ecx
	movq	img, %rdx
	addq	$13112, %rdx            # imm = 0x3338
	movslq	-12(%rbp), %rsi
	shlq	$6, %rsi
	addq	%rsi, %rdx
	movl	%ecx, (%rdx)
	movl	-232(%rbp), %ecx
	movl	-228(%rbp), %edx
	sarl	$1, %edx
	addl	%edx, %ecx
	movq	img, %rdx
	addq	$13112, %rdx            # imm = 0x3338
	movslq	-12(%rbp), %rsi
	shlq	$6, %rsi
	addq	%rsi, %rdx
	movl	%ecx, 8(%rdx)
	movl	-240(%rbp), %ecx
	subl	-236(%rbp), %ecx
	movq	img, %rdx
	addq	$13112, %rdx            # imm = 0x3338
	movslq	-12(%rbp), %rsi
	shlq	$6, %rsi
	addq	%rsi, %rdx
	movl	%ecx, 16(%rdx)
	movl	-232(%rbp), %ecx
	sarl	$1, %ecx
	subl	-228(%rbp), %ecx
	movq	img, %rdx
	addq	$13112, %rdx            # imm = 0x3338
	movslq	-12(%rbp), %rsi
	shlq	$6, %rsi
	addq	%rsi, %rdx
	movl	%ecx, 24(%rdx)
	movl	-224(%rbp), %ecx
	movl	-212(%rbp), %edx
	sarl	$2, %edx
	addl	%edx, %ecx
	movq	img, %rdx
	addq	$13112, %rdx            # imm = 0x3338
	movslq	-12(%rbp), %rsi
	shlq	$6, %rsi
	addq	%rsi, %rdx
	movl	%ecx, 4(%rdx)
	movl	-220(%rbp), %ecx
	movl	-216(%rbp), %edx
	sarl	$2, %edx
	addl	%edx, %ecx
	movq	img, %rdx
	addq	$13112, %rdx            # imm = 0x3338
	movslq	-12(%rbp), %rsi
	shlq	$6, %rsi
	addq	%rsi, %rdx
	movl	%ecx, 12(%rdx)
	movl	-216(%rbp), %ecx
	movl	-220(%rbp), %edx
	sarl	$2, %edx
	subl	%edx, %ecx
	movq	img, %rdx
	addq	$13112, %rdx            # imm = 0x3338
	movslq	-12(%rbp), %rsi
	shlq	$6, %rsi
	addq	%rsi, %rdx
	movl	%ecx, 20(%rdx)
	subl	-212(%rbp), %eax
	movl	-224(%rbp), %ecx
	sarl	$2, %ecx
	addl	%ecx, %eax
	movq	img, %rcx
	addq	$13112, %rcx            # imm = 0x3338
	movslq	-12(%rbp), %rdx
	shlq	$6, %rdx
	addq	%rdx, %rcx
	movl	%eax, 28(%rcx)
# %bb.19:                               # %for.inc412
                                        #   in Loop: Header=BB8_15 Depth=1
	movl	-12(%rbp), %eax
	addl	$1, %eax
	movl	%eax, -12(%rbp)
	jmp	.LBB8_15
.LBB8_20:                               # %for.end414
	movl	$0, -340(%rbp)
	movl	$-1, -56(%rbp)
	movl	$0, -60(%rbp)
	movl	$-1, -356(%rbp)
	movl	$-1, -360(%rbp)
	movl	$-1, -364(%rbp)
	movl	$-1, -368(%rbp)
	movl	$0, -372(%rbp)
	movl	$0, -376(%rbp)
	movl	$0, -380(%rbp)
	movl	$0, -384(%rbp)
	movl	$0, -20(%rbp)
.LBB8_21:                               # %for.cond423
                                        # =>This Inner Loop Header: Depth=1
	cmpl	$64, -20(%rbp)
	jge	.LBB8_61
# %bb.22:                               # %for.body425
                                        #   in Loop: Header=BB8_21 Depth=1
	movq	img, %rax
	cmpl	$0, 72444(%rax)
	jne	.LBB8_25
# %bb.23:                               # %lor.lhs.false
                                        #   in Loop: Header=BB8_21 Depth=1
	movq	img, %rax
	cmpl	$0, 72400(%rax)
	je	.LBB8_26
# %bb.24:                               # %land.lhs.true
                                        #   in Loop: Header=BB8_21 Depth=1
	movq	-392(%rbp), %rax
	cmpl	$0, 532(%rax)
	je	.LBB8_26
.LBB8_25:                               # %if.then429
                                        #   in Loop: Header=BB8_21 Depth=1
	movslq	-20(%rbp), %rax
	movzbl	FIELD_SCAN8x8(,%rax,2), %eax
	movl	%eax, -12(%rbp)
	movslq	-20(%rbp), %rax
	movzbl	FIELD_SCAN8x8+1(,%rax,2), %eax
	movl	%eax, -16(%rbp)
	jmp	.LBB8_27
.LBB8_26:                               # %if.else437
                                        #   in Loop: Header=BB8_21 Depth=1
	movslq	-20(%rbp), %rax
	movzbl	SNGL_SCAN8x8(,%rax,2), %eax
	movl	%eax, -12(%rbp)
	movslq	-20(%rbp), %rax
	movzbl	SNGL_SCAN8x8+1(,%rax,2), %eax
	movl	%eax, -16(%rbp)
.LBB8_27:                               # %if.end446
                                        #   in Loop: Header=BB8_21 Depth=1
	movl	-56(%rbp), %eax
	addl	$1, %eax
	movl	%eax, -56(%rbp)
	movl	$0, -52(%rbp)
	movl	-20(%rbp), %eax
	andl	$3, %eax
	cltq
	movl	-368(%rbp,%rax,4), %ecx
	addl	$1, %ecx
	movl	%ecx, -368(%rbp,%rax,4)
	cmpl	$0, -32(%rbp)
	je	.LBB8_29
# %bb.28:                               # %if.then452
                                        #   in Loop: Header=BB8_21 Depth=1
	movq	img, %rax
	addq	$13112, %rax            # imm = 0x3338
	movslq	-12(%rbp), %rcx
	shlq	$6, %rcx
	addq	%rcx, %rax
	movslq	-16(%rbp), %rcx
	movl	(%rax,%rcx,4), %edi
	callq	abs
	movl	%eax, -24(%rbp)
	jmp	.LBB8_33
.LBB8_29:                               # %if.else458
                                        #   in Loop: Header=BB8_21 Depth=1
	cmpl	$1, -344(%rbp)
	jne	.LBB8_31
# %bb.30:                               # %if.then461
                                        #   in Loop: Header=BB8_21 Depth=1
	movq	img, %rax
	addq	$13112, %rax            # imm = 0x3338
	movslq	-12(%rbp), %rcx
	shlq	$6, %rcx
	addq	%rcx, %rax
	movslq	-16(%rbp), %rcx
	movl	(%rax,%rcx,4), %edi
	callq	abs
	movslq	-40(%rbp), %rcx
	shlq	$8, %rcx
	movabsq	$LevelScale8x8Luma_Intra, %rdx
	addq	%rcx, %rdx
	movslq	-12(%rbp), %rcx
	shlq	$5, %rcx
	addq	%rcx, %rdx
	movslq	-16(%rbp), %rcx
	imull	(%rdx,%rcx,4), %eax
	movslq	-28(%rbp), %rcx
	shlq	$8, %rcx
	movabsq	$LevelOffset8x8Luma_Intra, %rdx
	addq	%rcx, %rdx
	movslq	-12(%rbp), %rcx
	shlq	$5, %rcx
	addq	%rcx, %rdx
	movslq	-16(%rbp), %rcx
	addl	(%rdx,%rcx,4), %eax
	movl	-64(%rbp), %ecx
                                        # kill: def $cl killed $ecx
	sarl	%cl, %eax
	movl	%eax, -24(%rbp)
	jmp	.LBB8_32
.LBB8_31:                               # %if.else483
                                        #   in Loop: Header=BB8_21 Depth=1
	movq	img, %rax
	addq	$13112, %rax            # imm = 0x3338
	movslq	-12(%rbp), %rcx
	shlq	$6, %rcx
	addq	%rcx, %rax
	movslq	-16(%rbp), %rcx
	movl	(%rax,%rcx,4), %edi
	callq	abs
	movslq	-40(%rbp), %rcx
	shlq	$8, %rcx
	movabsq	$LevelScale8x8Luma_Inter, %rdx
	addq	%rcx, %rdx
	movslq	-12(%rbp), %rcx
	shlq	$5, %rcx
	addq	%rcx, %rdx
	movslq	-16(%rbp), %rcx
	imull	(%rdx,%rcx,4), %eax
	movslq	-28(%rbp), %rcx
	shlq	$8, %rcx
	movabsq	$LevelOffset8x8Luma_Inter, %rdx
	addq	%rcx, %rdx
	movslq	-12(%rbp), %rcx
	shlq	$5, %rcx
	addq	%rcx, %rdx
	movslq	-16(%rbp), %rcx
	addl	(%rdx,%rcx,4), %eax
	movl	-64(%rbp), %ecx
                                        # kill: def $cl killed $ecx
	sarl	%cl, %eax
	movl	%eax, -24(%rbp)
.LBB8_32:                               # %if.end505
                                        #   in Loop: Header=BB8_21 Depth=1
	jmp	.LBB8_33
.LBB8_33:                               # %if.end506
                                        #   in Loop: Header=BB8_21 Depth=1
	cmpl	$0, -24(%rbp)
	je	.LBB8_57
# %bb.34:                               # %if.then509
                                        #   in Loop: Header=BB8_21 Depth=1
	movl	$1, -340(%rbp)
	movq	-392(%rbp), %rax
	cmpl	$0, 572(%rax)
	je	.LBB8_40
# %bb.35:                               # %land.lhs.true511
                                        #   in Loop: Header=BB8_21 Depth=1
	movq	input, %rax
	cmpl	$0, 2356(%rax)
	jne	.LBB8_40
# %bb.36:                               # %if.then514
                                        #   in Loop: Header=BB8_21 Depth=1
	cmpl	$1, -24(%rbp)
	jle	.LBB8_38
# %bb.37:                               # %if.then517
                                        #   in Loop: Header=BB8_21 Depth=1
	movq	-352(%rbp), %rax
	movl	(%rax), %ecx
	addl	$999999, %ecx           # imm = 0xF423F
	movl	%ecx, (%rax)
	jmp	.LBB8_39
.LBB8_38:                               # %if.else519
                                        #   in Loop: Header=BB8_21 Depth=1
	movabsq	$COEFF_COST8x8, %rax
	movq	input, %rcx
	movslq	2468(%rcx), %rcx
	shlq	$6, %rcx
	addq	%rcx, %rax
	movl	-20(%rbp), %ecx
	andl	$3, %ecx
	movslq	%ecx, %rcx
	movslq	-368(%rbp,%rcx,4), %rcx
	movzbl	(%rax,%rcx), %eax
	movq	-352(%rbp), %rcx
	addl	(%rcx), %eax
	movl	%eax, (%rcx)
.LBB8_39:                               # %if.end529
                                        #   in Loop: Header=BB8_21 Depth=1
	movl	-24(%rbp), %edi
	movq	img, %rax
	addq	$13112, %rax            # imm = 0x3338
	movslq	-12(%rbp), %rcx
	shlq	$6, %rcx
	addq	%rcx, %rax
	movslq	-16(%rbp), %rcx
	movl	(%rax,%rcx,4), %esi
	callq	sign
	movq	img, %rcx
	movq	14136(%rcx), %rcx
	movslq	-36(%rbp), %rdx
	movq	(%rcx,%rdx,8), %rcx
	movl	-20(%rbp), %edx
	andl	$3, %edx
	movslq	%edx, %rdx
	movq	(%rcx,%rdx,8), %rcx
	movq	(%rcx), %rcx
	movl	-20(%rbp), %edx
	andl	$3, %edx
	movslq	%edx, %rdx
	movslq	-384(%rbp,%rdx,4), %rdx
	movl	%eax, (%rcx,%rdx,4)
	movl	-20(%rbp), %eax
	andl	$3, %eax
	cltq
	movl	-368(%rbp,%rax,4), %eax
	movq	img, %rcx
	movq	14136(%rcx), %rcx
	movslq	-36(%rbp), %rdx
	movq	(%rcx,%rdx,8), %rcx
	movl	-20(%rbp), %edx
	andl	$3, %edx
	movslq	%edx, %rdx
	movq	(%rcx,%rdx,8), %rcx
	movq	8(%rcx), %rcx
	movl	-20(%rbp), %edx
	andl	$3, %edx
	movslq	%edx, %rdx
	movslq	-384(%rbp,%rdx,4), %rdx
	movl	%eax, (%rcx,%rdx,4)
	movl	-20(%rbp), %eax
	andl	$3, %eax
	cltq
	movl	-384(%rbp,%rax,4), %ecx
	addl	$1, %ecx
	movl	%ecx, -384(%rbp,%rax,4)
	movl	-20(%rbp), %eax
	andl	$3, %eax
	cltq
	movl	$-1, -368(%rbp,%rax,4)
	jmp	.LBB8_44
.LBB8_40:                               # %if.else570
                                        #   in Loop: Header=BB8_21 Depth=1
	cmpl	$1, -24(%rbp)
	jle	.LBB8_42
# %bb.41:                               # %if.then573
                                        #   in Loop: Header=BB8_21 Depth=1
	movq	-352(%rbp), %rax
	movl	(%rax), %ecx
	addl	$999999, %ecx           # imm = 0xF423F
	movl	%ecx, (%rax)
	jmp	.LBB8_43
.LBB8_42:                               # %if.else575
                                        #   in Loop: Header=BB8_21 Depth=1
	movabsq	$COEFF_COST8x8, %rax
	movq	input, %rcx
	movslq	2468(%rcx), %rcx
	shlq	$6, %rcx
	addq	%rcx, %rax
	movslq	-56(%rbp), %rcx
	movzbl	(%rax,%rcx), %eax
	movq	-352(%rbp), %rcx
	addl	(%rcx), %eax
	movl	%eax, (%rcx)
.LBB8_43:                               # %if.end583
                                        #   in Loop: Header=BB8_21 Depth=1
	movl	-24(%rbp), %edi
	movq	img, %rax
	addq	$13112, %rax            # imm = 0x3338
	movslq	-12(%rbp), %rcx
	shlq	$6, %rcx
	addq	%rcx, %rax
	movslq	-16(%rbp), %rcx
	movl	(%rax,%rcx,4), %esi
	callq	sign
	movq	-408(%rbp), %rcx
	movslq	-60(%rbp), %rdx
	movl	%eax, (%rcx,%rdx,4)
	movl	-56(%rbp), %eax
	movq	-416(%rbp), %rcx
	movslq	-60(%rbp), %rdx
	movl	%eax, (%rcx,%rdx,4)
	movl	-60(%rbp), %eax
	addl	$1, %eax
	movl	%eax, -60(%rbp)
	movl	$-1, -56(%rbp)
.LBB8_44:                               # %if.end595
                                        #   in Loop: Header=BB8_21 Depth=1
	movl	-24(%rbp), %edi
	movq	img, %rax
	addq	$13112, %rax            # imm = 0x3338
	movslq	-12(%rbp), %rcx
	shlq	$6, %rcx
	addq	%rcx, %rax
	movslq	-16(%rbp), %rcx
	movl	(%rax,%rcx,4), %esi
	callq	sign
	movl	%eax, -24(%rbp)
	cmpl	$0, -32(%rbp)
	je	.LBB8_46
# %bb.45:                               # %if.then603
                                        #   in Loop: Header=BB8_21 Depth=1
	movl	-24(%rbp), %eax
	movl	%eax, -52(%rbp)
	jmp	.LBB8_56
.LBB8_46:                               # %if.else604
                                        #   in Loop: Header=BB8_21 Depth=1
	cmpl	$1, -344(%rbp)
	jne	.LBB8_51
# %bb.47:                               # %if.then607
                                        #   in Loop: Header=BB8_21 Depth=1
	cmpl	$6, -28(%rbp)
	jl	.LBB8_49
# %bb.48:                               # %if.then610
                                        #   in Loop: Header=BB8_21 Depth=1
	movl	-24(%rbp), %eax
	movslq	-40(%rbp), %rcx
	shlq	$8, %rcx
	movabsq	$InvLevelScale8x8Luma_Intra, %rdx
	addq	%rcx, %rdx
	movslq	-12(%rbp), %rcx
	shlq	$5, %rcx
	addq	%rcx, %rdx
	movslq	-16(%rbp), %rcx
	imull	(%rdx,%rcx,4), %eax
	movl	-136(%rbp), %ecx
                                        # kill: def $cl killed $ecx
	shll	%cl, %eax
	movl	%eax, -52(%rbp)
	jmp	.LBB8_50
.LBB8_49:                               # %if.else619
                                        #   in Loop: Header=BB8_21 Depth=1
	movl	-24(%rbp), %eax
	movslq	-40(%rbp), %rcx
	shlq	$8, %rcx
	movabsq	$InvLevelScale8x8Luma_Intra, %rdx
	addq	%rcx, %rdx
	movslq	-12(%rbp), %rcx
	shlq	$5, %rcx
	addq	%rcx, %rdx
	movslq	-16(%rbp), %rcx
	imull	(%rdx,%rcx,4), %eax
	addl	-132(%rbp), %eax
	movl	-140(%rbp), %ecx
                                        # kill: def $cl killed $ecx
	sarl	%cl, %eax
	movl	%eax, -52(%rbp)
.LBB8_50:                               # %if.end629
                                        #   in Loop: Header=BB8_21 Depth=1
	jmp	.LBB8_55
.LBB8_51:                               # %if.else630
                                        #   in Loop: Header=BB8_21 Depth=1
	cmpl	$6, -28(%rbp)
	jl	.LBB8_53
# %bb.52:                               # %if.then633
                                        #   in Loop: Header=BB8_21 Depth=1
	movl	-24(%rbp), %eax
	movslq	-40(%rbp), %rcx
	shlq	$8, %rcx
	movabsq	$InvLevelScale8x8Luma_Inter, %rdx
	addq	%rcx, %rdx
	movslq	-12(%rbp), %rcx
	shlq	$5, %rcx
	addq	%rcx, %rdx
	movslq	-16(%rbp), %rcx
	imull	(%rdx,%rcx,4), %eax
	movl	-136(%rbp), %ecx
                                        # kill: def $cl killed $ecx
	shll	%cl, %eax
	movl	%eax, -52(%rbp)
	jmp	.LBB8_54
.LBB8_53:                               # %if.else642
                                        #   in Loop: Header=BB8_21 Depth=1
	movl	-24(%rbp), %eax
	movslq	-40(%rbp), %rcx
	shlq	$8, %rcx
	movabsq	$InvLevelScale8x8Luma_Inter, %rdx
	addq	%rcx, %rdx
	movslq	-12(%rbp), %rcx
	shlq	$5, %rcx
	addq	%rcx, %rdx
	movslq	-16(%rbp), %rcx
	imull	(%rdx,%rcx,4), %eax
	addl	-132(%rbp), %eax
	movl	-140(%rbp), %ecx
                                        # kill: def $cl killed $ecx
	sarl	%cl, %eax
	movl	%eax, -52(%rbp)
.LBB8_54:                               # %if.end652
                                        #   in Loop: Header=BB8_21 Depth=1
	jmp	.LBB8_55
.LBB8_55:                               # %if.end653
                                        #   in Loop: Header=BB8_21 Depth=1
	jmp	.LBB8_56
.LBB8_56:                               # %if.end654
                                        #   in Loop: Header=BB8_21 Depth=1
	jmp	.LBB8_57
.LBB8_57:                               # %if.end655
                                        #   in Loop: Header=BB8_21 Depth=1
	cmpl	$0, -32(%rbp)
	jne	.LBB8_59
# %bb.58:                               # %if.then657
                                        #   in Loop: Header=BB8_21 Depth=1
	movl	-52(%rbp), %eax
	movq	img, %rcx
	addq	$13112, %rcx            # imm = 0x3338
	movslq	-12(%rbp), %rdx
	shlq	$6, %rdx
	addq	%rdx, %rcx
	movslq	-16(%rbp), %rdx
	movl	%eax, (%rcx,%rdx,4)
.LBB8_59:                               # %if.end663
                                        #   in Loop: Header=BB8_21 Depth=1
	jmp	.LBB8_60
.LBB8_60:                               # %for.inc664
                                        #   in Loop: Header=BB8_21 Depth=1
	movl	-20(%rbp), %eax
	addl	$1, %eax
	movl	%eax, -20(%rbp)
	jmp	.LBB8_21
.LBB8_61:                               # %for.end666
	movq	-392(%rbp), %rax
	cmpl	$0, 572(%rax)
	je	.LBB8_63
# %bb.62:                               # %lor.lhs.false669
	movq	input, %rax
	cmpl	$0, 2356(%rax)
	je	.LBB8_64
.LBB8_63:                               # %if.then673
	movq	-408(%rbp), %rax
	movslq	-60(%rbp), %rcx
	movl	$0, (%rax,%rcx,4)
	jmp	.LBB8_69
.LBB8_64:                               # %if.else676
	movl	$0, -12(%rbp)
.LBB8_65:                               # %for.cond677
                                        # =>This Inner Loop Header: Depth=1
	cmpl	$4, -12(%rbp)
	jge	.LBB8_68
# %bb.66:                               # %for.body680
                                        #   in Loop: Header=BB8_65 Depth=1
	movq	img, %rax
	movq	14136(%rax), %rax
	movslq	-36(%rbp), %rcx
	movq	(%rax,%rcx,8), %rax
	movslq	-12(%rbp), %rcx
	movq	(%rax,%rcx,8), %rax
	movq	(%rax), %rax
	movslq	-12(%rbp), %rcx
	movslq	-384(%rbp,%rcx,4), %rcx
	movl	$0, (%rax,%rcx,4)
# %bb.67:                               # %for.inc691
                                        #   in Loop: Header=BB8_65 Depth=1
	movl	-12(%rbp), %eax
	addl	$1, %eax
	movl	%eax, -12(%rbp)
	jmp	.LBB8_65
.LBB8_68:                               # %for.end693
	jmp	.LBB8_69
.LBB8_69:                               # %if.end694
	movl	$0, -12(%rbp)
.LBB8_70:                               # %for.cond695
                                        # =>This Inner Loop Header: Depth=1
	xorl	%eax, %eax
	cmpl	$8, -12(%rbp)
	jge	.LBB8_72
# %bb.71:                               # %land.rhs698
                                        #   in Loop: Header=BB8_70 Depth=1
	cmpl	$0, -32(%rbp)
	setne	%al
	xorb	$-1, %al
.LBB8_72:                               # %land.end701
                                        #   in Loop: Header=BB8_70 Depth=1
	testb	$1, %al
	jne	.LBB8_73
	jmp	.LBB8_75
.LBB8_73:                               # %for.body703
                                        #   in Loop: Header=BB8_70 Depth=1
	xorl	%eax, %eax
	movq	img, %rcx
	movslq	-12(%rbp), %rdx
	movl	13112(%rcx,%rdx,4), %ecx
	movq	img, %rdx
	movslq	-12(%rbp), %rsi
	addl	13368(%rdx,%rsi,4), %ecx
	movl	%ecx, -336(%rbp)
	movq	img, %rcx
	movslq	-12(%rbp), %rdx
	movl	13112(%rcx,%rdx,4), %ecx
	movq	img, %rdx
	movslq	-12(%rbp), %rsi
	subl	13368(%rdx,%rsi,4), %ecx
	movl	%ecx, -320(%rbp)
	movq	img, %rcx
	movslq	-12(%rbp), %rdx
	movl	13240(%rcx,%rdx,4), %ecx
	sarl	$1, %ecx
	movq	img, %rdx
	movslq	-12(%rbp), %rsi
	subl	13496(%rdx,%rsi,4), %ecx
	movl	%ecx, -328(%rbp)
	movq	img, %rcx
	movslq	-12(%rbp), %rdx
	movl	13240(%rcx,%rdx,4), %ecx
	movq	img, %rdx
	movslq	-12(%rbp), %rsi
	movl	13496(%rdx,%rsi,4), %edx
	sarl	$1, %edx
	addl	%edx, %ecx
	movl	%ecx, -312(%rbp)
	movl	-336(%rbp), %ecx
	addl	-312(%rbp), %ecx
	movl	%ecx, -176(%rbp)
	movl	-320(%rbp), %ecx
	addl	-328(%rbp), %ecx
	movl	%ecx, -168(%rbp)
	movl	-320(%rbp), %ecx
	subl	-328(%rbp), %ecx
	movl	%ecx, -160(%rbp)
	movl	-336(%rbp), %ecx
	subl	-312(%rbp), %ecx
	movl	%ecx, -152(%rbp)
	movq	img, %rcx
	movslq	-12(%rbp), %rdx
	xorl	%esi, %esi
	subl	13304(%rcx,%rdx,4), %esi
	movq	img, %rcx
	movslq	-12(%rbp), %rdx
	addl	13432(%rcx,%rdx,4), %esi
	movq	img, %rcx
	movslq	-12(%rbp), %rdx
	subl	13560(%rcx,%rdx,4), %esi
	movq	img, %rcx
	movslq	-12(%rbp), %rdx
	movl	13560(%rcx,%rdx,4), %ecx
	sarl	$1, %ecx
	subl	%ecx, %esi
	movl	%esi, -332(%rbp)
	movq	img, %rcx
	movslq	-12(%rbp), %rdx
	movl	13176(%rcx,%rdx,4), %ecx
	movq	img, %rdx
	movslq	-12(%rbp), %rsi
	addl	13560(%rdx,%rsi,4), %ecx
	movq	img, %rdx
	movslq	-12(%rbp), %rsi
	subl	13304(%rdx,%rsi,4), %ecx
	movq	img, %rdx
	movslq	-12(%rbp), %rsi
	movl	13304(%rdx,%rsi,4), %edx
	sarl	$1, %edx
	subl	%edx, %ecx
	movl	%ecx, -324(%rbp)
	movq	img, %rcx
	movslq	-12(%rbp), %rdx
	xorl	%esi, %esi
	subl	13176(%rcx,%rdx,4), %esi
	movq	img, %rcx
	movslq	-12(%rbp), %rdx
	addl	13560(%rcx,%rdx,4), %esi
	movq	img, %rcx
	movslq	-12(%rbp), %rdx
	addl	13432(%rcx,%rdx,4), %esi
	movq	img, %rcx
	movslq	-12(%rbp), %rdx
	movl	13432(%rcx,%rdx,4), %ecx
	sarl	$1, %ecx
	addl	%ecx, %esi
	movl	%esi, -316(%rbp)
	movq	img, %rcx
	movslq	-12(%rbp), %rdx
	movl	13304(%rcx,%rdx,4), %ecx
	movq	img, %rdx
	movslq	-12(%rbp), %rsi
	addl	13432(%rdx,%rsi,4), %ecx
	movq	img, %rdx
	movslq	-12(%rbp), %rsi
	addl	13176(%rdx,%rsi,4), %ecx
	movq	img, %rdx
	movslq	-12(%rbp), %rsi
	movl	13176(%rdx,%rsi,4), %edx
	sarl	$1, %edx
	addl	%edx, %ecx
	movl	%ecx, -308(%rbp)
	movl	-332(%rbp), %ecx
	movl	-308(%rbp), %edx
	sarl	$2, %edx
	addl	%edx, %ecx
	movl	%ecx, -172(%rbp)
	movl	-332(%rbp), %ecx
	sarl	$2, %ecx
	subl	%ecx, %eax
	addl	-308(%rbp), %eax
	movl	%eax, -148(%rbp)
	movl	-324(%rbp), %eax
	movl	-316(%rbp), %ecx
	sarl	$2, %ecx
	addl	%ecx, %eax
	movl	%eax, -164(%rbp)
	movl	-324(%rbp), %eax
	sarl	$2, %eax
	subl	-316(%rbp), %eax
	movl	%eax, -156(%rbp)
	movl	-176(%rbp), %eax
	addl	-148(%rbp), %eax
	movslq	-12(%rbp), %rcx
	movl	%eax, -672(%rbp,%rcx,4)
	movl	-168(%rbp), %eax
	addl	-156(%rbp), %eax
	movslq	-12(%rbp), %rcx
	movl	%eax, -640(%rbp,%rcx,4)
	movl	-160(%rbp), %eax
	addl	-164(%rbp), %eax
	movslq	-12(%rbp), %rcx
	movl	%eax, -608(%rbp,%rcx,4)
	movl	-152(%rbp), %eax
	addl	-172(%rbp), %eax
	movslq	-12(%rbp), %rcx
	movl	%eax, -576(%rbp,%rcx,4)
	movl	-152(%rbp), %eax
	subl	-172(%rbp), %eax
	movslq	-12(%rbp), %rcx
	movl	%eax, -544(%rbp,%rcx,4)
	movl	-160(%rbp), %eax
	subl	-164(%rbp), %eax
	movslq	-12(%rbp), %rcx
	movl	%eax, -512(%rbp,%rcx,4)
	movl	-168(%rbp), %eax
	subl	-156(%rbp), %eax
	movslq	-12(%rbp), %rcx
	movl	%eax, -480(%rbp,%rcx,4)
	movl	-176(%rbp), %eax
	subl	-148(%rbp), %eax
	movslq	-12(%rbp), %rcx
	movl	%eax, -448(%rbp,%rcx,4)
# %bb.74:                               # %for.inc919
                                        #   in Loop: Header=BB8_70 Depth=1
	movl	-12(%rbp), %eax
	addl	$1, %eax
	movl	%eax, -12(%rbp)
	jmp	.LBB8_70
.LBB8_75:                               # %for.end921
	movl	$0, -12(%rbp)
.LBB8_76:                               # %for.cond922
                                        # =>This Inner Loop Header: Depth=1
	xorl	%eax, %eax
	cmpl	$8, -12(%rbp)
	jge	.LBB8_78
# %bb.77:                               # %land.rhs925
                                        #   in Loop: Header=BB8_76 Depth=1
	cmpl	$0, -32(%rbp)
	setne	%al
	xorb	$-1, %al
.LBB8_78:                               # %land.end928
                                        #   in Loop: Header=BB8_76 Depth=1
	testb	$1, %al
	jne	.LBB8_79
	jmp	.LBB8_81
.LBB8_79:                               # %for.body930
                                        #   in Loop: Header=BB8_76 Depth=1
	xorl	%eax, %eax
	movslq	-12(%rbp), %rdx
	shlq	$5, %rdx
	leaq	-672(%rbp), %rcx
	movq	%rcx, %rsi
	addq	%rdx, %rsi
	movl	(%rsi), %edx
	movslq	-12(%rbp), %rsi
	shlq	$5, %rsi
	movq	%rcx, %rdi
	addq	%rsi, %rdi
	addl	16(%rdi), %edx
	movl	%edx, -208(%rbp)
	movslq	-12(%rbp), %rdx
	shlq	$5, %rdx
	movq	%rcx, %rsi
	addq	%rdx, %rsi
	movl	(%rsi), %edx
	movslq	-12(%rbp), %rsi
	shlq	$5, %rsi
	movq	%rcx, %rdi
	addq	%rsi, %rdi
	subl	16(%rdi), %edx
	movl	%edx, -192(%rbp)
	movslq	-12(%rbp), %rdx
	shlq	$5, %rdx
	movq	%rcx, %rsi
	addq	%rdx, %rsi
	movl	8(%rsi), %edx
	sarl	$1, %edx
	movslq	-12(%rbp), %rsi
	shlq	$5, %rsi
	movq	%rcx, %rdi
	addq	%rsi, %rdi
	subl	24(%rdi), %edx
	movl	%edx, -200(%rbp)
	movslq	-12(%rbp), %rdx
	shlq	$5, %rdx
	movq	%rcx, %rsi
	addq	%rdx, %rsi
	movl	8(%rsi), %edx
	movslq	-12(%rbp), %rsi
	shlq	$5, %rsi
	movq	%rcx, %rdi
	addq	%rsi, %rdi
	movl	24(%rdi), %esi
	sarl	$1, %esi
	addl	%esi, %edx
	movl	%edx, -184(%rbp)
	movl	-208(%rbp), %edx
	addl	-184(%rbp), %edx
	movl	%edx, -304(%rbp)
	movl	-192(%rbp), %edx
	addl	-200(%rbp), %edx
	movl	%edx, -296(%rbp)
	movl	-192(%rbp), %edx
	subl	-200(%rbp), %edx
	movl	%edx, -288(%rbp)
	movl	-208(%rbp), %edx
	subl	-184(%rbp), %edx
	movl	%edx, -280(%rbp)
	movslq	-12(%rbp), %rdx
	shlq	$5, %rdx
	movq	%rcx, %rsi
	addq	%rdx, %rsi
	xorl	%edx, %edx
	subl	12(%rsi), %edx
	movslq	-12(%rbp), %rsi
	shlq	$5, %rsi
	movq	%rcx, %rdi
	addq	%rsi, %rdi
	addl	20(%rdi), %edx
	movslq	-12(%rbp), %rsi
	shlq	$5, %rsi
	movq	%rcx, %rdi
	addq	%rsi, %rdi
	subl	28(%rdi), %edx
	movslq	-12(%rbp), %rsi
	shlq	$5, %rsi
	movq	%rcx, %rdi
	addq	%rsi, %rdi
	movl	28(%rdi), %esi
	sarl	$1, %esi
	subl	%esi, %edx
	movl	%edx, -204(%rbp)
	movslq	-12(%rbp), %rdx
	shlq	$5, %rdx
	movq	%rcx, %rsi
	addq	%rdx, %rsi
	movl	4(%rsi), %edx
	movslq	-12(%rbp), %rsi
	shlq	$5, %rsi
	movq	%rcx, %rdi
	addq	%rsi, %rdi
	addl	28(%rdi), %edx
	movslq	-12(%rbp), %rsi
	shlq	$5, %rsi
	movq	%rcx, %rdi
	addq	%rsi, %rdi
	subl	12(%rdi), %edx
	movslq	-12(%rbp), %rsi
	shlq	$5, %rsi
	movq	%rcx, %rdi
	addq	%rsi, %rdi
	movl	12(%rdi), %esi
	sarl	$1, %esi
	subl	%esi, %edx
	movl	%edx, -196(%rbp)
	movslq	-12(%rbp), %rdx
	shlq	$5, %rdx
	movq	%rcx, %rsi
	addq	%rdx, %rsi
	xorl	%edx, %edx
	subl	4(%rsi), %edx
	movslq	-12(%rbp), %rsi
	shlq	$5, %rsi
	movq	%rcx, %rdi
	addq	%rsi, %rdi
	addl	28(%rdi), %edx
	movslq	-12(%rbp), %rsi
	shlq	$5, %rsi
	movq	%rcx, %rdi
	addq	%rsi, %rdi
	addl	20(%rdi), %edx
	movslq	-12(%rbp), %rsi
	shlq	$5, %rsi
	movq	%rcx, %rdi
	addq	%rsi, %rdi
	movl	20(%rdi), %esi
	sarl	$1, %esi
	addl	%esi, %edx
	movl	%edx, -188(%rbp)
	movslq	-12(%rbp), %rdx
	shlq	$5, %rdx
	movq	%rcx, %rsi
	addq	%rdx, %rsi
	movl	12(%rsi), %edx
	movslq	-12(%rbp), %rsi
	shlq	$5, %rsi
	movq	%rcx, %rdi
	addq	%rsi, %rdi
	addl	20(%rdi), %edx
	movslq	-12(%rbp), %rsi
	shlq	$5, %rsi
	movq	%rcx, %rdi
	addq	%rsi, %rdi
	addl	4(%rdi), %edx
	movslq	-12(%rbp), %rsi
	shlq	$5, %rsi
	addq	%rsi, %rcx
	movl	4(%rcx), %ecx
	sarl	$1, %ecx
	addl	%ecx, %edx
	movl	%edx, -180(%rbp)
	movl	-204(%rbp), %ecx
	movl	-180(%rbp), %edx
	sarl	$2, %edx
	addl	%edx, %ecx
	movl	%ecx, -300(%rbp)
	movl	-204(%rbp), %ecx
	sarl	$2, %ecx
	subl	%ecx, %eax
	addl	-180(%rbp), %eax
	movl	%eax, -276(%rbp)
	movl	-196(%rbp), %eax
	movl	-188(%rbp), %ecx
	sarl	$2, %ecx
	addl	%ecx, %eax
	movl	%eax, -292(%rbp)
	movl	-196(%rbp), %eax
	sarl	$2, %eax
	subl	-188(%rbp), %eax
	movl	%eax, -284(%rbp)
	movl	-304(%rbp), %eax
	addl	-276(%rbp), %eax
	movq	img, %rcx
	addq	$13112, %rcx            # imm = 0x3338
	movslq	-12(%rbp), %rdx
	shlq	$6, %rdx
	addq	%rdx, %rcx
	movl	%eax, (%rcx)
	movl	-296(%rbp), %eax
	addl	-284(%rbp), %eax
	movq	img, %rcx
	addq	$13112, %rcx            # imm = 0x3338
	movslq	-12(%rbp), %rdx
	shlq	$6, %rdx
	addq	%rdx, %rcx
	movl	%eax, 4(%rcx)
	movl	-288(%rbp), %eax
	addl	-292(%rbp), %eax
	movq	img, %rcx
	addq	$13112, %rcx            # imm = 0x3338
	movslq	-12(%rbp), %rdx
	shlq	$6, %rdx
	addq	%rdx, %rcx
	movl	%eax, 8(%rcx)
	movl	-280(%rbp), %eax
	addl	-300(%rbp), %eax
	movq	img, %rcx
	addq	$13112, %rcx            # imm = 0x3338
	movslq	-12(%rbp), %rdx
	shlq	$6, %rdx
	addq	%rdx, %rcx
	movl	%eax, 12(%rcx)
	movl	-280(%rbp), %eax
	subl	-300(%rbp), %eax
	movq	img, %rcx
	addq	$13112, %rcx            # imm = 0x3338
	movslq	-12(%rbp), %rdx
	shlq	$6, %rdx
	addq	%rdx, %rcx
	movl	%eax, 16(%rcx)
	movl	-288(%rbp), %eax
	subl	-292(%rbp), %eax
	movq	img, %rcx
	addq	$13112, %rcx            # imm = 0x3338
	movslq	-12(%rbp), %rdx
	shlq	$6, %rdx
	addq	%rdx, %rcx
	movl	%eax, 20(%rcx)
	movl	-296(%rbp), %eax
	subl	-284(%rbp), %eax
	movq	img, %rcx
	addq	$13112, %rcx            # imm = 0x3338
	movslq	-12(%rbp), %rdx
	shlq	$6, %rdx
	addq	%rdx, %rcx
	movl	%eax, 24(%rcx)
	movl	-304(%rbp), %eax
	subl	-276(%rbp), %eax
	movq	img, %rcx
	addq	$13112, %rcx            # imm = 0x3338
	movslq	-12(%rbp), %rdx
	shlq	$6, %rdx
	addq	%rdx, %rcx
	movl	%eax, 28(%rcx)
# %bb.80:                               # %for.inc1130
                                        #   in Loop: Header=BB8_76 Depth=1
	movl	-12(%rbp), %eax
	addl	$1, %eax
	movl	%eax, -12(%rbp)
	jmp	.LBB8_76
.LBB8_81:                               # %for.end1132
	movl	$0, -12(%rbp)
.LBB8_82:                               # %for.cond1133
                                        # =>This Loop Header: Depth=1
                                        #     Child Loop BB8_84 Depth 2
	cmpl	$8, -12(%rbp)
	jge	.LBB8_104
# %bb.83:                               # %for.body1136
                                        #   in Loop: Header=BB8_82 Depth=1
	movl	$0, -16(%rbp)
.LBB8_84:                               # %for.cond1137
                                        #   Parent Loop BB8_82 Depth=1
                                        # =>  This Inner Loop Header: Depth=2
	cmpl	$8, -16(%rbp)
	jge	.LBB8_102
# %bb.85:                               # %for.body1140
                                        #   in Loop: Header=BB8_84 Depth=2
	cmpl	$0, -32(%rbp)
	je	.LBB8_87
# %bb.86:                               # %if.then1142
                                        #   in Loop: Header=BB8_84 Depth=2
	movq	img, %rax
	addq	$13112, %rax            # imm = 0x3338
	movslq	-12(%rbp), %rcx
	shlq	$6, %rcx
	addq	%rcx, %rax
	movslq	-16(%rbp), %rcx
	movl	(%rax,%rcx,4), %eax
	movq	img, %rcx
	addq	$12600, %rcx            # imm = 0x3138
	movl	-12(%rbp), %edx
	addl	-48(%rbp), %edx
	movslq	%edx, %rdx
	shlq	$5, %rdx
	addq	%rdx, %rcx
	movl	-16(%rbp), %edx
	addl	-44(%rbp), %edx
	movslq	%edx, %rdx
	movzwl	(%rcx,%rdx,2), %ecx
	addl	%ecx, %eax
	movq	img, %rcx
	addq	$13112, %rcx            # imm = 0x3338
	movslq	-12(%rbp), %rdx
	shlq	$6, %rdx
	addq	%rdx, %rcx
	movslq	-16(%rbp), %rdx
	movl	%eax, (%rcx,%rdx,4)
	jmp	.LBB8_100
.LBB8_87:                               # %if.else1161
                                        #   in Loop: Header=BB8_84 Depth=2
	movq	img, %rax
	cmpl	$0, 72724(%rax)
	jne	.LBB8_98
# %bb.88:                               # %if.then1163
                                        #   in Loop: Header=BB8_84 Depth=2
	xorl	%ecx, %ecx
	movq	img, %rax
	movslq	72684(%rax), %rax
	movq	img, %rdx
	addq	$13112, %rdx            # imm = 0x3338
	movslq	-12(%rbp), %rsi
	shlq	$6, %rsi
	addq	%rsi, %rdx
	movslq	-16(%rbp), %rsi
	movslq	(%rdx,%rsi,4), %rdx
	movq	img, %rsi
	addq	$12600, %rsi            # imm = 0x3138
	movl	-12(%rbp), %edi
	addl	-48(%rbp), %edi
	movslq	%edi, %rdi
	shlq	$5, %rdi
	addq	%rdi, %rsi
	movl	-16(%rbp), %edi
	addl	-44(%rbp), %edi
	movslq	%edi, %rdi
	movzwl	(%rsi,%rdi,2), %esi
	shlq	$6, %rsi
	addq	%rsi, %rdx
	addq	$32, %rdx
	sarq	$6, %rdx
	cmpq	%rdx, %rcx
	jle	.LBB8_90
# %bb.89:                               # %cond.true
                                        #   in Loop: Header=BB8_84 Depth=2
	xorl	%ecx, %ecx
	jmp	.LBB8_91
.LBB8_90:                               # %cond.false
                                        #   in Loop: Header=BB8_84 Depth=2
	movq	img, %rcx
	addq	$13112, %rcx            # imm = 0x3338
	movslq	-12(%rbp), %rdx
	shlq	$6, %rdx
	addq	%rdx, %rcx
	movslq	-16(%rbp), %rdx
	movslq	(%rcx,%rdx,4), %rcx
	movq	img, %rdx
	addq	$12600, %rdx            # imm = 0x3138
	movl	-12(%rbp), %esi
	addl	-48(%rbp), %esi
	movslq	%esi, %rsi
	shlq	$5, %rsi
	addq	%rsi, %rdx
	movl	-16(%rbp), %esi
	addl	-44(%rbp), %esi
	movslq	%esi, %rsi
	movzwl	(%rdx,%rsi,2), %edx
	shlq	$6, %rdx
	addq	%rdx, %rcx
	addq	$32, %rcx
	sarq	$6, %rcx
.LBB8_91:                               # %cond.end
                                        #   in Loop: Header=BB8_84 Depth=2
	cmpq	%rcx, %rax
	jge	.LBB8_93
# %bb.92:                               # %cond.true1205
                                        #   in Loop: Header=BB8_84 Depth=2
	movq	img, %rax
	movslq	72684(%rax), %rax
	jmp	.LBB8_97
.LBB8_93:                               # %cond.false1208
                                        #   in Loop: Header=BB8_84 Depth=2
	xorl	%eax, %eax
	movq	img, %rcx
	addq	$13112, %rcx            # imm = 0x3338
	movslq	-12(%rbp), %rdx
	shlq	$6, %rdx
	addq	%rdx, %rcx
	movslq	-16(%rbp), %rdx
	movslq	(%rcx,%rdx,4), %rcx
	movq	img, %rdx
	addq	$12600, %rdx            # imm = 0x3138
	movl	-12(%rbp), %esi
	addl	-48(%rbp), %esi
	movslq	%esi, %rsi
	shlq	$5, %rsi
	addq	%rsi, %rdx
	movl	-16(%rbp), %esi
	addl	-44(%rbp), %esi
	movslq	%esi, %rsi
	movzwl	(%rdx,%rsi,2), %edx
	shlq	$6, %rdx
	addq	%rdx, %rcx
	addq	$32, %rcx
	sarq	$6, %rcx
	cmpq	%rcx, %rax
	jle	.LBB8_95
# %bb.94:                               # %cond.true1229
                                        #   in Loop: Header=BB8_84 Depth=2
	xorl	%eax, %eax
	jmp	.LBB8_96
.LBB8_95:                               # %cond.false1230
                                        #   in Loop: Header=BB8_84 Depth=2
	movq	img, %rax
	addq	$13112, %rax            # imm = 0x3338
	movslq	-12(%rbp), %rcx
	shlq	$6, %rcx
	addq	%rcx, %rax
	movslq	-16(%rbp), %rcx
	movslq	(%rax,%rcx,4), %rax
	movq	img, %rcx
	addq	$12600, %rcx            # imm = 0x3138
	movl	-12(%rbp), %edx
	addl	-48(%rbp), %edx
	movslq	%edx, %rdx
	shlq	$5, %rdx
	addq	%rdx, %rcx
	movl	-16(%rbp), %edx
	addl	-44(%rbp), %edx
	movslq	%edx, %rdx
	movzwl	(%rcx,%rdx,2), %ecx
	shlq	$6, %rcx
	addq	%rcx, %rax
	addq	$32, %rax
	sarq	$6, %rax
.LBB8_96:                               # %cond.end1249
                                        #   in Loop: Header=BB8_84 Depth=2
.LBB8_97:                               # %cond.end1251
                                        #   in Loop: Header=BB8_84 Depth=2
	movq	img, %rcx
	addq	$13112, %rcx            # imm = 0x3338
	movslq	-12(%rbp), %rdx
	shlq	$6, %rdx
	addq	%rdx, %rcx
	movslq	-16(%rbp), %rdx
	movl	%eax, (%rcx,%rdx,4)
	jmp	.LBB8_99
.LBB8_98:                               # %if.else1259
                                        #   in Loop: Header=BB8_84 Depth=2
	movq	img, %rax
	addq	$13112, %rax            # imm = 0x3338
	movslq	-12(%rbp), %rcx
	shlq	$6, %rcx
	addq	%rcx, %rax
	movslq	-16(%rbp), %rcx
	movl	(%rax,%rcx,4), %eax
	addl	$32, %eax
	sarl	$6, %eax
	movq	img, %rcx
	addq	$13112, %rcx            # imm = 0x3338
	movslq	-12(%rbp), %rdx
	shlq	$6, %rdx
	addq	%rdx, %rcx
	movslq	-16(%rbp), %rdx
	movl	%eax, (%rcx,%rdx,4)
.LBB8_99:                               # %if.end1272
                                        #   in Loop: Header=BB8_84 Depth=2
	jmp	.LBB8_100
.LBB8_100:                              # %if.end1273
                                        #   in Loop: Header=BB8_84 Depth=2
	jmp	.LBB8_101
.LBB8_101:                              # %for.inc1274
                                        #   in Loop: Header=BB8_84 Depth=2
	movl	-16(%rbp), %eax
	addl	$1, %eax
	movl	%eax, -16(%rbp)
	jmp	.LBB8_84
.LBB8_102:                              # %for.end1276
                                        #   in Loop: Header=BB8_82 Depth=1
	jmp	.LBB8_103
.LBB8_103:                              # %for.inc1277
                                        #   in Loop: Header=BB8_82 Depth=1
	movl	-12(%rbp), %eax
	addl	$1, %eax
	movl	%eax, -12(%rbp)
	jmp	.LBB8_82
.LBB8_104:                              # %for.end1279
	movq	img, %rax
	cmpl	$0, 72724(%rax)
	jne	.LBB8_114
# %bb.105:                              # %if.then1282
	movl	$0, -16(%rbp)
.LBB8_106:                              # %for.cond1283
                                        # =>This Loop Header: Depth=1
                                        #     Child Loop BB8_108 Depth 2
	cmpl	$8, -16(%rbp)
	jge	.LBB8_113
# %bb.107:                              # %for.body1286
                                        #   in Loop: Header=BB8_106 Depth=1
	movl	$0, -12(%rbp)
.LBB8_108:                              # %for.cond1287
                                        #   Parent Loop BB8_106 Depth=1
                                        # =>  This Inner Loop Header: Depth=2
	cmpl	$8, -12(%rbp)
	jge	.LBB8_111
# %bb.109:                              # %for.body1290
                                        #   in Loop: Header=BB8_108 Depth=2
	movq	img, %rax
	addq	$13112, %rax            # imm = 0x3338
	movslq	-12(%rbp), %rcx
	shlq	$6, %rcx
	addq	%rcx, %rax
	movslq	-16(%rbp), %rcx
	movl	(%rax,%rcx,4), %eax
	movq	enc_picture, %rcx
	movq	6424(%rcx), %rcx
	movq	img, %rdx
	movl	156(%rdx), %edx
	addl	-44(%rbp), %edx
	addl	-16(%rbp), %edx
	movslq	%edx, %rdx
	movq	(%rcx,%rdx,8), %rcx
	movq	img, %rdx
	movl	152(%rdx), %edx
	addl	-48(%rbp), %edx
	addl	-12(%rbp), %edx
	movslq	%edx, %rdx
	movw	%ax, (%rcx,%rdx,2)
# %bb.110:                              # %for.inc1305
                                        #   in Loop: Header=BB8_108 Depth=2
	movl	-12(%rbp), %eax
	addl	$1, %eax
	movl	%eax, -12(%rbp)
	jmp	.LBB8_108
.LBB8_111:                              # %for.end1307
                                        #   in Loop: Header=BB8_106 Depth=1
	jmp	.LBB8_112
.LBB8_112:                              # %for.inc1308
                                        #   in Loop: Header=BB8_106 Depth=1
	movl	-16(%rbp), %eax
	addl	$1, %eax
	movl	%eax, -16(%rbp)
	jmp	.LBB8_106
.LBB8_113:                              # %for.end1310
	jmp	.LBB8_114
.LBB8_114:                              # %if.end1311
	movl	-340(%rbp), %ebx
	cmpl	$415798293, -396(%rbp)  # imm = 0x18C89415
	jne	.LBB8_116
.LBB8_115:
	movl	%ebx, %eax
	addq	$664, %rsp              # imm = 0x298
	popq	%rbx
	popq	%rbp
	.cfi_def_cfa %rsp, 8
	retq
.LBB8_116:                              # %func_exit
	.cfi_def_cfa %rbp, 16
	callq	detect_breach
	jmp	.LBB8_115
.Lfunc_end8:
	.size	dct_luma8x8.3, .Lfunc_end8-dct_luma8x8.3
	.cfi_endproc
                                        # -- End function
	.section	.rodata.cst8,"aM",@progbits,8
	.p2align	3               # -- Begin function Mode_Decision_for_new_8x8IntraBlocks.4
.LCPI9_0:
	.quad	5055640609639927018     # double 1.0E+30
.LCPI9_1:
	.quad	4616189618054758400     # double 4
	.text
	.globl	Mode_Decision_for_new_8x8IntraBlocks.4
	.p2align	4, 0x90
	.type	Mode_Decision_for_new_8x8IntraBlocks.4,@function
Mode_Decision_for_new_8x8IntraBlocks.4: # @Mode_Decision_for_new_8x8IntraBlocks.4
	.cfi_startproc
# %bb.0:                                # %entry
	pushq	%rbp
	.cfi_def_cfa_offset 16
	.cfi_offset %rbp, -16
	movq	%rsp, %rbp
	.cfi_def_cfa_register %rbp
	pushq	%rbx
	subq	$1144, %rsp             # imm = 0x478
	.cfi_offset %rbx, -24
	vmovsd	.LCPI9_0(%rip), %xmm1   # xmm1 = mem[0],zero
	movl	$437796339, -196(%rbp)  # imm = 0x1A183DF3
	movl	%edi, -32(%rbp)
	vmovsd	%xmm0, -152(%rbp)
	movq	%rsi, -160(%rbp)
	movl	$0, -60(%rbp)
	movl	$0, -108(%rbp)
	vxorps	%xmm0, %xmm0, %xmm0
	vmovsd	%xmm0, -144(%rbp)
	movl	-32(%rbp), %eax
	cltd
	movl	$2, %ecx
	idivl	%ecx
	shll	$3, %edx
	movl	%edx, -40(%rbp)
	movl	-32(%rbp), %eax
	cltd
	idivl	%ecx
	shll	$3, %eax
	movl	%eax, -36(%rbp)
	movq	img, %rax
	movl	152(%rax), %eax
	addl	-40(%rbp), %eax
	movl	%eax, -68(%rbp)
	movq	img, %rax
	movl	156(%rax), %eax
	addl	-36(%rbp), %eax
	movl	%eax, -44(%rbp)
	movq	img, %rax
	movl	168(%rax), %eax
	addl	-40(%rbp), %eax
	movl	%eax, -96(%rbp)
	movq	img, %rax
	movl	172(%rax), %eax
	addl	-36(%rbp), %eax
	movl	%eax, -92(%rbp)
	movl	-68(%rbp), %eax
	cltd
	movl	$4, %ecx
	idivl	%ecx
	movl	%eax, -172(%rbp)
	movl	-44(%rbp), %eax
	cltd
	idivl	%ecx
	movl	%eax, -184(%rbp)
	vmovsd	%xmm1, -136(%rbp)
	movq	imgY_org, %rax
	movq	%rax, -168(%rbp)
	movq	img, %rax
	movq	14168(%rax), %rax
	movq	img, %rdx
	movslq	12(%rdx), %rdx
	imulq	$632, %rdx, %rdx        # imm = 0x278
	addq	%rdx, %rax
	movl	524(%rax), %eax
	movl	%eax, -56(%rbp)
	movq	img, %rax
	movl	12(%rax), %edi
	movl	-40(%rbp), %eax
	cltd
	idivl	%ecx
	movl	%eax, %esi
	movl	-36(%rbp), %eax
	cltd
	idivl	%ecx
	movl	%eax, %edx
	movl	$4294967295, %ecx       # imm = 0xFFFFFFFF
	xorl	%r8d, %r8d
	leaq	-224(%rbp), %r9
	callq	getLuma4x4Neighbour
	movq	img, %rax
	movl	12(%rax), %edi
	movl	-40(%rbp), %eax
	cltd
	movl	$4, %ecx
	idivl	%ecx
	movl	%eax, %esi
	movl	-36(%rbp), %eax
	cltd
	idivl	%ecx
	movl	%eax, %edx
	movl	$0, %ecx
	movl	$4294967295, %r8d       # imm = 0xFFFFFFFF
	leaq	-248(%rbp), %r9
	callq	getLuma4x4Neighbour
	movq	input, %rax
	cmpl	$0, 216(%rax)
	je	.LBB9_8
# %bb.1:                                # %if.then
	cmpl	$0, -248(%rbp)
	je	.LBB9_3
# %bb.2:                                # %cond.true
	movq	img, %rax
	movq	71784(%rax), %rax
	movslq	-244(%rbp), %rcx
	movl	(%rax,%rcx,4), %eax
	jmp	.LBB9_4
.LBB9_3:                                # %cond.false
	xorl	%eax, %eax
	jmp	.LBB9_4
.LBB9_4:                                # %cond.end
	movl	%eax, -248(%rbp)
	cmpl	$0, -224(%rbp)
	je	.LBB9_6
# %bb.5:                                # %cond.true19
	movq	img, %rax
	movq	71784(%rax), %rax
	movslq	-220(%rbp), %rcx
	movl	(%rax,%rcx,4), %eax
	jmp	.LBB9_7
.LBB9_6:                                # %cond.false24
	xorl	%eax, %eax
	jmp	.LBB9_7
.LBB9_7:                                # %cond.end25
	movl	%eax, -224(%rbp)
.LBB9_8:                                # %if.end
	movl	-32(%rbp), %eax
	cltd
	movl	$2, %ecx
	idivl	%ecx
	cmpl	$0, %eax
	je	.LBB9_13
# %bb.9:                                # %if.then30
	cmpl	$0, -248(%rbp)
	je	.LBB9_11
# %bb.10:                               # %cond.true33
	movq	img, %rax
	movq	112(%rax), %rax
	movslq	-232(%rbp), %rcx
	movq	(%rax,%rcx,8), %rax
	movslq	-228(%rbp), %rcx
	movl	(%rax,%rcx,4), %eax
	jmp	.LBB9_12
.LBB9_11:                               # %cond.false38
	movl	$4294967295, %eax       # imm = 0xFFFFFFFF
	jmp	.LBB9_12
.LBB9_12:                               # %cond.end39
	movl	%eax, -120(%rbp)
	jmp	.LBB9_17
.LBB9_13:                               # %if.else
	cmpl	$0, -248(%rbp)
	je	.LBB9_15
# %bb.14:                               # %cond.true43
	movq	img, %rax
	movq	104(%rax), %rax
	movslq	-232(%rbp), %rcx
	movq	(%rax,%rcx,8), %rax
	movslq	-228(%rbp), %rcx
	movl	(%rax,%rcx,4), %eax
	jmp	.LBB9_16
.LBB9_15:                               # %cond.false50
	movl	$4294967295, %eax       # imm = 0xFFFFFFFF
	jmp	.LBB9_16
.LBB9_16:                               # %cond.end51
	movl	%eax, -120(%rbp)
.LBB9_17:                               # %if.end53
	movl	-32(%rbp), %eax
	cltd
	movl	$2, %ecx
	idivl	%ecx
	cmpl	$0, %edx
	je	.LBB9_22
# %bb.18:                               # %if.then56
	cmpl	$0, -224(%rbp)
	je	.LBB9_20
# %bb.19:                               # %cond.true59
	movq	img, %rax
	movq	112(%rax), %rax
	movslq	-208(%rbp), %rcx
	movq	(%rax,%rcx,8), %rax
	movslq	-204(%rbp), %rcx
	movl	(%rax,%rcx,4), %eax
	jmp	.LBB9_21
.LBB9_20:                               # %cond.false67
	movl	$4294967295, %eax       # imm = 0xFFFFFFFF
	jmp	.LBB9_21
.LBB9_21:                               # %cond.end68
	movl	%eax, -124(%rbp)
	jmp	.LBB9_26
.LBB9_22:                               # %if.else70
	cmpl	$0, -224(%rbp)
	je	.LBB9_24
# %bb.23:                               # %cond.true73
	movq	img, %rax
	movq	104(%rax), %rax
	movslq	-208(%rbp), %rcx
	movq	(%rax,%rcx,8), %rax
	movslq	-204(%rbp), %rcx
	movl	(%rax,%rcx,4), %eax
	jmp	.LBB9_25
.LBB9_24:                               # %cond.false81
	movl	$4294967295, %eax       # imm = 0xFFFFFFFF
	jmp	.LBB9_25
.LBB9_25:                               # %cond.end82
	movl	%eax, -124(%rbp)
.LBB9_26:                               # %if.end84
	cmpl	$0, -120(%rbp)
	jl	.LBB9_28
# %bb.27:                               # %lor.lhs.false
	cmpl	$0, -124(%rbp)
	jge	.LBB9_29
.LBB9_28:                               # %cond.true86
	movl	$2, %eax
	jmp	.LBB9_33
.LBB9_29:                               # %cond.false87
	movl	-120(%rbp), %eax
	cmpl	-124(%rbp), %eax
	jge	.LBB9_31
# %bb.30:                               # %cond.true89
	movl	-120(%rbp), %eax
	jmp	.LBB9_32
.LBB9_31:                               # %cond.false90
	movl	-124(%rbp), %eax
.LBB9_32:                               # %cond.end91
.LBB9_33:                               # %cond.end93
	movl	%eax, -104(%rbp)
	movq	-160(%rbp), %rax
	movl	$2147483647, (%rax)     # imm = 0x7FFFFFFF
	movl	-68(%rbp), %edi
	movl	-44(%rbp), %esi
	leaq	-176(%rbp), %rdx
	leaq	-180(%rbp), %rcx
	leaq	-192(%rbp), %r8
	callq	intrapred_luma8x8
	movl	$0, -48(%rbp)
.LBB9_34:                               # %for.cond
                                        # =>This Loop Header: Depth=1
                                        #     Child Loop BB9_46 Depth 2
                                        #       Child Loop BB9_48 Depth 3
                                        #     Child Loop BB9_61 Depth 2
                                        #       Child Loop BB9_63 Depth 3
                                        #     Child Loop BB9_70 Depth 2
                                        #       Child Loop BB9_72 Depth 3
                                        #         Child Loop BB9_74 Depth 4
                                        #     Child Loop BB9_82 Depth 2
                                        #       Child Loop BB9_84 Depth 3
                                        #     Child Loop BB9_92 Depth 2
                                        #       Child Loop BB9_94 Depth 3
                                        #     Child Loop BB9_100 Depth 2
                                        #       Child Loop BB9_102 Depth 3
                                        #     Child Loop BB9_108 Depth 2
                                        #       Child Loop BB9_110 Depth 3
                                        #     Child Loop BB9_116 Depth 2
                                        #       Child Loop BB9_118 Depth 3
                                        #         Child Loop BB9_120 Depth 4
                                        #       Child Loop BB9_126 Depth 3
                                        #         Child Loop BB9_128 Depth 4
                                        #       Child Loop BB9_134 Depth 3
                                        #         Child Loop BB9_136 Depth 4
                                        #     Child Loop BB9_144 Depth 2
                                        #       Child Loop BB9_146 Depth 3
                                        #     Child Loop BB9_179 Depth 2
                                        #       Child Loop BB9_181 Depth 3
                                        #     Child Loop BB9_188 Depth 2
                                        #       Child Loop BB9_190 Depth 3
                                        #         Child Loop BB9_192 Depth 4
                                        #     Child Loop BB9_200 Depth 2
                                        #       Child Loop BB9_202 Depth 3
                                        #         Child Loop BB9_204 Depth 4
                                        #       Child Loop BB9_210 Depth 3
                                        #         Child Loop BB9_212 Depth 4
                                        #       Child Loop BB9_218 Depth 3
                                        #         Child Loop BB9_220 Depth 4
                                        #           Child Loop BB9_222 Depth 5
                                        #     Child Loop BB9_232 Depth 2
                                        #       Child Loop BB9_234 Depth 3
	cmpl	$9, -48(%rbp)
	jge	.LBB9_245
# %bb.35:                               # %for.body
                                        #   in Loop: Header=BB9_34 Depth=1
	cmpl	$2, -48(%rbp)
	je	.LBB9_44
# %bb.36:                               # %lor.lhs.false97
                                        #   in Loop: Header=BB9_34 Depth=1
	cmpl	$0, -48(%rbp)
	je	.LBB9_39
# %bb.37:                               # %lor.lhs.false99
                                        #   in Loop: Header=BB9_34 Depth=1
	cmpl	$7, -48(%rbp)
	je	.LBB9_39
# %bb.38:                               # %lor.lhs.false101
                                        #   in Loop: Header=BB9_34 Depth=1
	cmpl	$3, -48(%rbp)
	jne	.LBB9_40
.LBB9_39:                               # %land.lhs.true
                                        #   in Loop: Header=BB9_34 Depth=1
	cmpl	$0, -180(%rbp)
	jne	.LBB9_44
.LBB9_40:                               # %lor.lhs.false104
                                        #   in Loop: Header=BB9_34 Depth=1
	cmpl	$1, -48(%rbp)
	je	.LBB9_42
# %bb.41:                               # %lor.lhs.false106
                                        #   in Loop: Header=BB9_34 Depth=1
	cmpl	$8, -48(%rbp)
	jne	.LBB9_43
.LBB9_42:                               # %land.lhs.true108
                                        #   in Loop: Header=BB9_34 Depth=1
	cmpl	$0, -176(%rbp)
	jne	.LBB9_44
.LBB9_43:                               # %lor.lhs.false110
                                        #   in Loop: Header=BB9_34 Depth=1
	cmpl	$0, -192(%rbp)
	je	.LBB9_243
.LBB9_44:                               # %if.then112
                                        #   in Loop: Header=BB9_34 Depth=1
	movq	input, %rax
	cmpl	$0, 2464(%rax)
	jne	.LBB9_59
# %bb.45:                               # %if.then114
                                        #   in Loop: Header=BB9_34 Depth=1
	movl	$0, -16(%rbp)
	movl	$0, -52(%rbp)
.LBB9_46:                               # %for.cond115
                                        #   Parent Loop BB9_34 Depth=1
                                        # =>  This Loop Header: Depth=2
                                        #       Child Loop BB9_48 Depth 3
	cmpl	$8, -16(%rbp)
	jge	.LBB9_53
# %bb.47:                               # %for.body117
                                        #   in Loop: Header=BB9_46 Depth=2
	movl	$0, -12(%rbp)
.LBB9_48:                               # %for.cond118
                                        #   Parent Loop BB9_34 Depth=1
                                        #     Parent Loop BB9_46 Depth=2
                                        # =>    This Inner Loop Header: Depth=3
	cmpl	$8, -12(%rbp)
	jge	.LBB9_51
# %bb.49:                               # %for.body120
                                        #   in Loop: Header=BB9_48 Depth=3
	movq	-168(%rbp), %rax
	movl	-92(%rbp), %ecx
	addl	-16(%rbp), %ecx
	movslq	%ecx, %rcx
	movq	(%rax,%rcx,8), %rax
	movl	-96(%rbp), %ecx
	addl	-12(%rbp), %ecx
	movslq	%ecx, %rcx
	movzwl	(%rax,%rcx,2), %eax
	movq	img, %rcx
	addq	$7352, %rcx             # imm = 0x1CB8
	movslq	-48(%rbp), %rdx
	shlq	$7, %rdx
	addq	%rdx, %rcx
	movslq	-16(%rbp), %rdx
	shlq	$4, %rdx
	addq	%rdx, %rcx
	movslq	-12(%rbp), %rdx
	movzwl	(%rcx,%rdx,2), %ecx
	subl	%ecx, %eax
	movslq	-52(%rbp), %rcx
	movl	%eax, -640(%rbp,%rcx,4)
# %bb.50:                               # %for.inc
                                        #   in Loop: Header=BB9_48 Depth=3
	movl	-12(%rbp), %eax
	addl	$1, %eax
	movl	%eax, -12(%rbp)
	movl	-52(%rbp), %eax
	addl	$1, %eax
	movl	%eax, -52(%rbp)
	jmp	.LBB9_48
.LBB9_51:                               # %for.end
                                        #   in Loop: Header=BB9_46 Depth=2
	jmp	.LBB9_52
.LBB9_52:                               # %for.inc137
                                        #   in Loop: Header=BB9_46 Depth=2
	movl	-16(%rbp), %eax
	addl	$1, %eax
	movl	%eax, -16(%rbp)
	jmp	.LBB9_46
.LBB9_53:                               # %for.end139
                                        #   in Loop: Header=BB9_34 Depth=1
	movl	-48(%rbp), %eax
	cmpl	-104(%rbp), %eax
	jne	.LBB9_55
# %bb.54:                               # %cond.true142
                                        #   in Loop: Header=BB9_34 Depth=1
	xorl	%eax, %eax
	jmp	.LBB9_56
.LBB9_55:                               # %cond.false143
                                        #   in Loop: Header=BB9_34 Depth=1
	vmovsd	.LCPI9_1(%rip), %xmm0   # xmm0 = mem[0],zero
	vmulsd	-152(%rbp), %xmm0, %xmm0
	vroundsd	$9, %xmm0, %xmm0, %xmm0
	vcvttsd2si	%xmm0, %eax
.LBB9_56:                               # %cond.end146
                                        #   in Loop: Header=BB9_34 Depth=1
	leaq	-640(%rbp), %rdi
	movl	%eax, -116(%rbp)
	movq	input, %rax
	movl	24(%rax), %esi
	callq	SATD8X8
	addl	-116(%rbp), %eax
	movl	%eax, -116(%rbp)
	movl	-116(%rbp), %eax
	movq	-160(%rbp), %rcx
	cmpl	(%rcx), %eax
	jge	.LBB9_58
# %bb.57:                               # %if.then151
                                        #   in Loop: Header=BB9_34 Depth=1
	movl	-48(%rbp), %eax
	movl	%eax, -60(%rbp)
	movl	-116(%rbp), %eax
	movq	-160(%rbp), %rcx
	movl	%eax, (%rcx)
.LBB9_58:                               # %if.end152
                                        #   in Loop: Header=BB9_34 Depth=1
	jmp	.LBB9_242
.LBB9_59:                               # %if.else153
                                        #   in Loop: Header=BB9_34 Depth=1
	movq	img, %rax
	cmpl	$0, 72724(%rax)
	jne	.LBB9_91
# %bb.60:                               # %if.then155
                                        #   in Loop: Header=BB9_34 Depth=1
	movl	$0, -16(%rbp)
.LBB9_61:                               # %for.cond156
                                        #   Parent Loop BB9_34 Depth=1
                                        # =>  This Loop Header: Depth=2
                                        #       Child Loop BB9_63 Depth 3
	cmpl	$8, -16(%rbp)
	jge	.LBB9_68
# %bb.62:                               # %for.body159
                                        #   in Loop: Header=BB9_61 Depth=2
	movl	$0, -12(%rbp)
.LBB9_63:                               # %for.cond160
                                        #   Parent Loop BB9_34 Depth=1
                                        #     Parent Loop BB9_61 Depth=2
                                        # =>    This Inner Loop Header: Depth=3
	cmpl	$8, -12(%rbp)
	jge	.LBB9_66
# %bb.64:                               # %for.body163
                                        #   in Loop: Header=BB9_63 Depth=3
	movq	img, %rax
	addq	$7352, %rax             # imm = 0x1CB8
	movslq	-48(%rbp), %rcx
	shlq	$7, %rcx
	addq	%rcx, %rax
	movslq	-16(%rbp), %rcx
	shlq	$4, %rcx
	addq	%rcx, %rax
	movslq	-12(%rbp), %rcx
	movw	(%rax,%rcx,2), %ax
	movq	img, %rcx
	addq	$12600, %rcx            # imm = 0x3138
	movl	-40(%rbp), %edx
	addl	-12(%rbp), %edx
	movslq	%edx, %rdx
	shlq	$5, %rdx
	addq	%rdx, %rcx
	movl	-36(%rbp), %edx
	addl	-16(%rbp), %edx
	movslq	%edx, %rdx
	movw	%ax, (%rcx,%rdx,2)
	movq	-168(%rbp), %rax
	movl	-92(%rbp), %ecx
	addl	-16(%rbp), %ecx
	movslq	%ecx, %rcx
	movq	(%rax,%rcx,8), %rax
	movl	-96(%rbp), %ecx
	addl	-12(%rbp), %ecx
	movslq	%ecx, %rcx
	movzwl	(%rax,%rcx,2), %eax
	movq	img, %rcx
	addq	$7352, %rcx             # imm = 0x1CB8
	movslq	-48(%rbp), %rdx
	shlq	$7, %rdx
	addq	%rdx, %rcx
	movslq	-16(%rbp), %rdx
	shlq	$4, %rdx
	addq	%rdx, %rcx
	movslq	-12(%rbp), %rdx
	movzwl	(%rcx,%rdx,2), %ecx
	subl	%ecx, %eax
	movq	img, %rcx
	addq	$13112, %rcx            # imm = 0x3338
	movslq	-12(%rbp), %rdx
	shlq	$6, %rdx
	addq	%rdx, %rcx
	movslq	-16(%rbp), %rdx
	movl	%eax, (%rcx,%rdx,4)
# %bb.65:                               # %for.inc197
                                        #   in Loop: Header=BB9_63 Depth=3
	movl	-12(%rbp), %eax
	addl	$1, %eax
	movl	%eax, -12(%rbp)
	jmp	.LBB9_63
.LBB9_66:                               # %for.end199
                                        #   in Loop: Header=BB9_61 Depth=2
	jmp	.LBB9_67
.LBB9_67:                               # %for.inc200
                                        #   in Loop: Header=BB9_61 Depth=2
	movl	-16(%rbp), %eax
	addl	$1, %eax
	movl	%eax, -16(%rbp)
	jmp	.LBB9_61
.LBB9_68:                               # %for.end202
                                        #   in Loop: Header=BB9_34 Depth=1
	movb	$0, %al
	callq	store_coding_state_cs_cm
	movl	-32(%rbp), %esi
	movl	-48(%rbp), %edx
	vmovsd	-152(%rbp), %xmm0       # xmm0 = mem[0],zero
	vmovsd	-136(%rbp), %xmm1       # xmm1 = mem[0],zero
	movl	-104(%rbp), %ecx
	leaq	-128(%rbp), %rdi
	callq	RDCost_for_8x8IntraBlocks
	vmovsd	%xmm0, -144(%rbp)
	vmovsd	-136(%rbp), %xmm1       # xmm1 = mem[0],zero
	vucomisd	%xmm0, %xmm1
	jbe	.LBB9_90
# %bb.69:                               # %if.then206
                                        #   in Loop: Header=BB9_34 Depth=1
	movl	$0, -16(%rbp)
.LBB9_70:                               # %for.cond207
                                        #   Parent Loop BB9_34 Depth=1
                                        # =>  This Loop Header: Depth=2
                                        #       Child Loop BB9_72 Depth 3
                                        #         Child Loop BB9_74 Depth 4
	cmpl	$2, -16(%rbp)
	jge	.LBB9_81
# %bb.71:                               # %for.body210
                                        #   in Loop: Header=BB9_70 Depth=2
	movl	$0, -12(%rbp)
.LBB9_72:                               # %for.cond211
                                        #   Parent Loop BB9_34 Depth=1
                                        #     Parent Loop BB9_70 Depth=2
                                        # =>    This Loop Header: Depth=3
                                        #         Child Loop BB9_74 Depth 4
	cmpl	$65, -12(%rbp)
	jge	.LBB9_79
# %bb.73:                               # %for.body214
                                        #   in Loop: Header=BB9_72 Depth=3
	movl	$0, -52(%rbp)
.LBB9_74:                               # %for.cond215
                                        #   Parent Loop BB9_34 Depth=1
                                        #     Parent Loop BB9_70 Depth=2
                                        #       Parent Loop BB9_72 Depth=3
                                        # =>      This Inner Loop Header: Depth=4
	cmpl	$4, -52(%rbp)
	jge	.LBB9_77
# %bb.75:                               # %for.body218
                                        #   in Loop: Header=BB9_74 Depth=4
	movq	img, %rax
	movq	14136(%rax), %rax
	movslq	-32(%rbp), %rcx
	movq	(%rax,%rcx,8), %rax
	movslq	-52(%rbp), %rcx
	movq	(%rax,%rcx,8), %rax
	movslq	-16(%rbp), %rcx
	movq	(%rax,%rcx,8), %rax
	movslq	-12(%rbp), %rcx
	movl	(%rax,%rcx,4), %eax
	movq	cofAC8x8, %rcx
	movslq	-32(%rbp), %rdx
	movq	(%rcx,%rdx,8), %rcx
	movslq	-52(%rbp), %rdx
	movq	(%rcx,%rdx,8), %rcx
	movslq	-16(%rbp), %rdx
	movq	(%rcx,%rdx,8), %rcx
	movslq	-12(%rbp), %rdx
	movl	%eax, (%rcx,%rdx,4)
# %bb.76:                               # %for.inc235
                                        #   in Loop: Header=BB9_74 Depth=4
	movl	-52(%rbp), %eax
	addl	$1, %eax
	movl	%eax, -52(%rbp)
	jmp	.LBB9_74
.LBB9_77:                               # %for.end237
                                        #   in Loop: Header=BB9_72 Depth=3
	jmp	.LBB9_78
.LBB9_78:                               # %for.inc238
                                        #   in Loop: Header=BB9_72 Depth=3
	movl	-12(%rbp), %eax
	addl	$1, %eax
	movl	%eax, -12(%rbp)
	jmp	.LBB9_72
.LBB9_79:                               # %for.end240
                                        #   in Loop: Header=BB9_70 Depth=2
	jmp	.LBB9_80
.LBB9_80:                               # %for.inc241
                                        #   in Loop: Header=BB9_70 Depth=2
	movl	-16(%rbp), %eax
	addl	$1, %eax
	movl	%eax, -16(%rbp)
	jmp	.LBB9_70
.LBB9_81:                               # %for.end243
                                        #   in Loop: Header=BB9_34 Depth=1
	movl	$0, -28(%rbp)
.LBB9_82:                               # %for.cond244
                                        #   Parent Loop BB9_34 Depth=1
                                        # =>  This Loop Header: Depth=2
                                        #       Child Loop BB9_84 Depth 3
	cmpl	$8, -28(%rbp)
	jge	.LBB9_89
# %bb.83:                               # %for.body247
                                        #   in Loop: Header=BB9_82 Depth=2
	movl	$0, -24(%rbp)
.LBB9_84:                               # %for.cond248
                                        #   Parent Loop BB9_34 Depth=1
                                        #     Parent Loop BB9_82 Depth=2
                                        # =>    This Inner Loop Header: Depth=3
	cmpl	$8, -24(%rbp)
	jge	.LBB9_87
# %bb.85:                               # %for.body251
                                        #   in Loop: Header=BB9_84 Depth=3
	movq	enc_picture, %rax
	movq	6424(%rax), %rax
	movl	-44(%rbp), %ecx
	addl	-28(%rbp), %ecx
	movslq	%ecx, %rcx
	movq	(%rax,%rcx,8), %rax
	movl	-68(%rbp), %ecx
	addl	-24(%rbp), %ecx
	movslq	%ecx, %rcx
	movw	(%rax,%rcx,2), %ax
	movslq	-28(%rbp), %rcx
	shlq	$4, %rcx
	leaq	-384(%rbp), %rdx
	addq	%rcx, %rdx
	movslq	-24(%rbp), %rcx
	movw	%ax, (%rdx,%rcx,2)
# %bb.86:                               # %for.inc262
                                        #   in Loop: Header=BB9_84 Depth=3
	movl	-24(%rbp), %eax
	addl	$1, %eax
	movl	%eax, -24(%rbp)
	jmp	.LBB9_84
.LBB9_87:                               # %for.end264
                                        #   in Loop: Header=BB9_82 Depth=2
	jmp	.LBB9_88
.LBB9_88:                               # %for.inc265
                                        #   in Loop: Header=BB9_82 Depth=2
	movl	-28(%rbp), %eax
	addl	$1, %eax
	movl	%eax, -28(%rbp)
	jmp	.LBB9_82
.LBB9_89:                               # %for.end267
                                        #   in Loop: Header=BB9_34 Depth=1
	movl	-128(%rbp), %eax
	movl	%eax, -108(%rbp)
	vmovsd	-144(%rbp), %xmm0       # xmm0 = mem[0],zero
	vmovsd	%xmm0, -136(%rbp)
	movl	-48(%rbp), %eax
	movl	%eax, -60(%rbp)
.LBB9_90:                               # %if.end268
                                        #   in Loop: Header=BB9_34 Depth=1
	movb	$0, %al
	callq	reset_coding_state_cs_cm
	jmp	.LBB9_241
.LBB9_91:                               # %if.else269
                                        #   in Loop: Header=BB9_34 Depth=1
	movl	$0, -16(%rbp)
.LBB9_92:                               # %for.cond270
                                        #   Parent Loop BB9_34 Depth=1
                                        # =>  This Loop Header: Depth=2
                                        #       Child Loop BB9_94 Depth 3
	cmpl	$8, -16(%rbp)
	jge	.LBB9_99
# %bb.93:                               # %for.body273
                                        #   in Loop: Header=BB9_92 Depth=2
	movl	$0, -12(%rbp)
.LBB9_94:                               # %for.cond274
                                        #   Parent Loop BB9_34 Depth=1
                                        #     Parent Loop BB9_92 Depth=2
                                        # =>    This Inner Loop Header: Depth=3
	cmpl	$8, -12(%rbp)
	jge	.LBB9_97
# %bb.95:                               # %for.body277
                                        #   in Loop: Header=BB9_94 Depth=3
	movq	imgUV_org, %rax
	movq	(%rax), %rax
	movl	-92(%rbp), %ecx
	addl	-16(%rbp), %ecx
	movslq	%ecx, %rcx
	movq	(%rax,%rcx,8), %rax
	movl	-96(%rbp), %ecx
	addl	-12(%rbp), %ecx
	movslq	%ecx, %rcx
	movzwl	(%rax,%rcx,2), %eax
	movq	img, %rcx
	addq	$8504, %rcx             # imm = 0x2138
	movslq	-56(%rbp), %rdx
	shlq	$9, %rdx
	addq	%rdx, %rcx
	movl	-40(%rbp), %edx
	addl	-12(%rbp), %edx
	movslq	%edx, %rdx
	shlq	$5, %rdx
	addq	%rdx, %rcx
	movl	-36(%rbp), %edx
	addl	-16(%rbp), %edx
	movslq	%edx, %rdx
	movzwl	(%rcx,%rdx,2), %ecx
	subl	%ecx, %eax
	movl	%eax, -64(%rbp)
	movq	imgY_org, %rax
	movl	-92(%rbp), %ecx
	addl	-16(%rbp), %ecx
	movslq	%ecx, %rcx
	movq	(%rax,%rcx,8), %rax
	movl	-96(%rbp), %ecx
	addl	-12(%rbp), %ecx
	movslq	%ecx, %rcx
	movzwl	(%rax,%rcx,2), %eax
	movq	img, %rcx
	addq	$7352, %rcx             # imm = 0x1CB8
	movslq	-48(%rbp), %rdx
	shlq	$7, %rdx
	addq	%rdx, %rcx
	movslq	-16(%rbp), %rdx
	shlq	$4, %rdx
	addq	%rdx, %rcx
	movslq	-12(%rbp), %rdx
	movzwl	(%rcx,%rdx,2), %ecx
	subl	%ecx, %eax
	movl	%eax, -76(%rbp)
	movq	imgUV_org, %rax
	movq	8(%rax), %rax
	movl	-92(%rbp), %ecx
	addl	-16(%rbp), %ecx
	movslq	%ecx, %rcx
	movq	(%rax,%rcx,8), %rax
	movl	-96(%rbp), %ecx
	addl	-12(%rbp), %ecx
	movslq	%ecx, %rcx
	movzwl	(%rax,%rcx,2), %eax
	movq	img, %rcx
	addq	$8504, %rcx             # imm = 0x2138
	addq	$2048, %rcx             # imm = 0x800
	movslq	-56(%rbp), %rdx
	shlq	$9, %rdx
	addq	%rdx, %rcx
	movl	-40(%rbp), %edx
	addl	-12(%rbp), %edx
	movslq	%edx, %rdx
	shlq	$5, %rdx
	addq	%rdx, %rcx
	movl	-36(%rbp), %edx
	addl	-16(%rbp), %edx
	movslq	%edx, %rdx
	movzwl	(%rcx,%rdx,2), %ecx
	subl	%ecx, %eax
	movl	%eax, -72(%rbp)
	movl	-72(%rbp), %eax
	subl	-64(%rbp), %eax
	movslq	-12(%rbp), %rcx
	shlq	$6, %rcx
	movabsq	$resTrans_R, %rdx
	movq	%rdx, %rsi
	addq	%rcx, %rsi
	movslq	-16(%rbp), %rcx
	movl	%eax, (%rsi,%rcx,4)
	movl	-64(%rbp), %eax
	movslq	-12(%rbp), %rcx
	shlq	$6, %rcx
	addq	%rcx, %rdx
	movslq	-16(%rbp), %rcx
	movl	(%rdx,%rcx,4), %ecx
	sarl	$1, %ecx
	addl	%ecx, %eax
	movl	%eax, -88(%rbp)
	movl	-76(%rbp), %eax
	subl	-88(%rbp), %eax
	movslq	-12(%rbp), %rcx
	shlq	$6, %rcx
	movabsq	$resTrans_B, %rdx
	movq	%rdx, %rsi
	addq	%rcx, %rsi
	movslq	-16(%rbp), %rcx
	movl	%eax, (%rsi,%rcx,4)
	movl	-88(%rbp), %eax
	movslq	-12(%rbp), %rcx
	shlq	$6, %rcx
	addq	%rcx, %rdx
	movslq	-16(%rbp), %rcx
	movl	(%rdx,%rcx,4), %ecx
	sarl	$1, %ecx
	addl	%ecx, %eax
	movslq	-12(%rbp), %rcx
	shlq	$6, %rcx
	movabsq	$resTrans_G, %rdx
	addq	%rcx, %rdx
	movslq	-16(%rbp), %rcx
	movl	%eax, (%rdx,%rcx,4)
# %bb.96:                               # %for.inc358
                                        #   in Loop: Header=BB9_94 Depth=3
	movl	-12(%rbp), %eax
	addl	$1, %eax
	movl	%eax, -12(%rbp)
	jmp	.LBB9_94
.LBB9_97:                               # %for.end360
                                        #   in Loop: Header=BB9_92 Depth=2
	jmp	.LBB9_98
.LBB9_98:                               # %for.inc361
                                        #   in Loop: Header=BB9_92 Depth=2
	movl	-16(%rbp), %eax
	addl	$1, %eax
	movl	%eax, -16(%rbp)
	jmp	.LBB9_92
.LBB9_99:                               # %for.end363
                                        #   in Loop: Header=BB9_34 Depth=1
	movl	$0, -16(%rbp)
.LBB9_100:                              # %for.cond364
                                        #   Parent Loop BB9_34 Depth=1
                                        # =>  This Loop Header: Depth=2
                                        #       Child Loop BB9_102 Depth 3
	cmpl	$8, -16(%rbp)
	jge	.LBB9_107
# %bb.101:                              # %for.body367
                                        #   in Loop: Header=BB9_100 Depth=2
	movl	$0, -12(%rbp)
.LBB9_102:                              # %for.cond368
                                        #   Parent Loop BB9_34 Depth=1
                                        #     Parent Loop BB9_100 Depth=2
                                        # =>    This Inner Loop Header: Depth=3
	cmpl	$8, -12(%rbp)
	jge	.LBB9_105
# %bb.103:                              # %for.body371
                                        #   in Loop: Header=BB9_102 Depth=3
	movslq	-12(%rbp), %rax
	shlq	$6, %rax
	movabsq	$resTrans_G, %rcx
	addq	%rax, %rcx
	movslq	-16(%rbp), %rax
	movl	(%rcx,%rax,4), %eax
	movq	img, %rcx
	addq	$13112, %rcx            # imm = 0x3338
	movslq	-12(%rbp), %rdx
	shlq	$6, %rdx
	addq	%rdx, %rcx
	movslq	-16(%rbp), %rdx
	movl	%eax, (%rcx,%rdx,4)
# %bb.104:                              # %for.inc381
                                        #   in Loop: Header=BB9_102 Depth=3
	movl	-12(%rbp), %eax
	addl	$1, %eax
	movl	%eax, -12(%rbp)
	jmp	.LBB9_102
.LBB9_105:                              # %for.end383
                                        #   in Loop: Header=BB9_100 Depth=2
	jmp	.LBB9_106
.LBB9_106:                              # %for.inc384
                                        #   in Loop: Header=BB9_100 Depth=2
	movl	-16(%rbp), %eax
	addl	$1, %eax
	movl	%eax, -16(%rbp)
	jmp	.LBB9_100
.LBB9_107:                              # %for.end386
                                        #   in Loop: Header=BB9_34 Depth=1
	movb	$0, %al
	callq	store_coding_state_cs_cm
	movl	-32(%rbp), %esi
	movl	-48(%rbp), %edx
	vmovsd	-152(%rbp), %xmm0       # xmm0 = mem[0],zero
	vmovsd	-136(%rbp), %xmm1       # xmm1 = mem[0],zero
	movl	-104(%rbp), %ecx
	leaq	-128(%rbp), %rdi
	callq	RDCost_for_8x8IntraBlocks
	vcvttsd2si	%xmm0, %eax
	movl	%eax, -112(%rbp)
	movb	$0, %al
	callq	reset_coding_state_cs_cm
	movl	$0, -16(%rbp)
.LBB9_108:                              # %for.cond389
                                        #   Parent Loop BB9_34 Depth=1
                                        # =>  This Loop Header: Depth=2
                                        #       Child Loop BB9_110 Depth 3
	cmpl	$8, -16(%rbp)
	jge	.LBB9_115
# %bb.109:                              # %for.body392
                                        #   in Loop: Header=BB9_108 Depth=2
	movl	$0, -12(%rbp)
.LBB9_110:                              # %for.cond393
                                        #   Parent Loop BB9_34 Depth=1
                                        #     Parent Loop BB9_108 Depth=2
                                        # =>    This Inner Loop Header: Depth=3
	cmpl	$8, -12(%rbp)
	jge	.LBB9_113
# %bb.111:                              # %for.body396
                                        #   in Loop: Header=BB9_110 Depth=3
	movq	img, %rax
	addq	$13112, %rax            # imm = 0x3338
	movslq	-12(%rbp), %rcx
	shlq	$6, %rcx
	addq	%rcx, %rax
	movslq	-16(%rbp), %rcx
	movl	(%rax,%rcx,4), %eax
	movslq	-12(%rbp), %rcx
	shlq	$6, %rcx
	movabsq	$rec_resG, %rdx
	addq	%rcx, %rdx
	movslq	-16(%rbp), %rcx
	movl	%eax, (%rdx,%rcx,4)
# %bb.112:                              # %for.inc406
                                        #   in Loop: Header=BB9_110 Depth=3
	movl	-12(%rbp), %eax
	addl	$1, %eax
	movl	%eax, -12(%rbp)
	jmp	.LBB9_110
.LBB9_113:                              # %for.end408
                                        #   in Loop: Header=BB9_108 Depth=2
	jmp	.LBB9_114
.LBB9_114:                              # %for.inc409
                                        #   in Loop: Header=BB9_108 Depth=2
	movl	-16(%rbp), %eax
	addl	$1, %eax
	movl	%eax, -16(%rbp)
	jmp	.LBB9_108
.LBB9_115:                              # %for.end411
                                        #   in Loop: Header=BB9_34 Depth=1
	movb	$0, %al
	callq	store_coding_state_cs_cm
	movl	$0, -20(%rbp)
.LBB9_116:                              # %for.cond412
                                        #   Parent Loop BB9_34 Depth=1
                                        # =>  This Loop Header: Depth=2
                                        #       Child Loop BB9_118 Depth 3
                                        #         Child Loop BB9_120 Depth 4
                                        #       Child Loop BB9_126 Depth 3
                                        #         Child Loop BB9_128 Depth 4
                                        #       Child Loop BB9_134 Depth 3
                                        #         Child Loop BB9_136 Depth 4
	cmpl	$4, -20(%rbp)
	jge	.LBB9_143
# %bb.117:                              # %for.body415
                                        #   in Loop: Header=BB9_116 Depth=2
	movl	-20(%rbp), %eax
	cltd
	movl	$2, %ecx
	idivl	%ecx
	shll	$2, %edx
	movl	%edx, -80(%rbp)
	movl	-20(%rbp), %eax
	cltd
	idivl	%ecx
	shll	$2, %eax
	movl	%eax, -84(%rbp)
	movl	$0, -16(%rbp)
.LBB9_118:                              # %for.cond420
                                        #   Parent Loop BB9_34 Depth=1
                                        #     Parent Loop BB9_116 Depth=2
                                        # =>    This Loop Header: Depth=3
                                        #         Child Loop BB9_120 Depth 4
	cmpl	$4, -16(%rbp)
	jge	.LBB9_125
# %bb.119:                              # %for.body423
                                        #   in Loop: Header=BB9_118 Depth=3
	movl	$0, -12(%rbp)
.LBB9_120:                              # %for.cond424
                                        #   Parent Loop BB9_34 Depth=1
                                        #     Parent Loop BB9_116 Depth=2
                                        #       Parent Loop BB9_118 Depth=3
                                        # =>      This Inner Loop Header: Depth=4
	cmpl	$4, -12(%rbp)
	jge	.LBB9_123
# %bb.121:                              # %for.body427
                                        #   in Loop: Header=BB9_120 Depth=4
	movl	-12(%rbp), %eax
	addl	-80(%rbp), %eax
	cltq
	shlq	$6, %rax
	movabsq	$resTrans_R, %rcx
	addq	%rax, %rcx
	movl	-16(%rbp), %eax
	addl	-84(%rbp), %eax
	cltq
	movl	(%rcx,%rax,4), %eax
	movq	img, %rcx
	addq	$13112, %rcx            # imm = 0x3338
	movslq	-12(%rbp), %rdx
	shlq	$6, %rdx
	addq	%rdx, %rcx
	movslq	-16(%rbp), %rdx
	movl	%eax, (%rcx,%rdx,4)
# %bb.122:                              # %for.inc439
                                        #   in Loop: Header=BB9_120 Depth=4
	movl	-12(%rbp), %eax
	addl	$1, %eax
	movl	%eax, -12(%rbp)
	jmp	.LBB9_120
.LBB9_123:                              # %for.end441
                                        #   in Loop: Header=BB9_118 Depth=3
	jmp	.LBB9_124
.LBB9_124:                              # %for.inc442
                                        #   in Loop: Header=BB9_118 Depth=3
	movl	-16(%rbp), %eax
	addl	$1, %eax
	movl	%eax, -16(%rbp)
	jmp	.LBB9_118
.LBB9_125:                              # %for.end444
                                        #   in Loop: Header=BB9_116 Depth=2
	movl	-32(%rbp), %edi
	addl	$4, %edi
	movl	-20(%rbp), %esi
	xorl	%edx, %edx
	callq	RDCost_for_4x4Blocks_Chroma
	addl	-112(%rbp), %eax
	movl	%eax, -112(%rbp)
	movl	$0, -16(%rbp)
.LBB9_126:                              # %for.cond448
                                        #   Parent Loop BB9_34 Depth=1
                                        #     Parent Loop BB9_116 Depth=2
                                        # =>    This Loop Header: Depth=3
                                        #         Child Loop BB9_128 Depth 4
	cmpl	$4, -16(%rbp)
	jge	.LBB9_133
# %bb.127:                              # %for.body451
                                        #   in Loop: Header=BB9_126 Depth=3
	movl	$0, -12(%rbp)
.LBB9_128:                              # %for.cond452
                                        #   Parent Loop BB9_34 Depth=1
                                        #     Parent Loop BB9_116 Depth=2
                                        #       Parent Loop BB9_126 Depth=3
                                        # =>      This Inner Loop Header: Depth=4
	cmpl	$4, -12(%rbp)
	jge	.LBB9_131
# %bb.129:                              # %for.body455
                                        #   in Loop: Header=BB9_128 Depth=4
	movq	img, %rax
	addq	$13112, %rax            # imm = 0x3338
	movslq	-12(%rbp), %rcx
	shlq	$6, %rcx
	addq	%rcx, %rax
	movslq	-16(%rbp), %rcx
	movl	(%rax,%rcx,4), %eax
	movl	-12(%rbp), %ecx
	addl	-80(%rbp), %ecx
	movslq	%ecx, %rcx
	shlq	$6, %rcx
	movabsq	$rec_resR, %rdx
	addq	%rcx, %rdx
	movl	-16(%rbp), %ecx
	addl	-84(%rbp), %ecx
	movslq	%ecx, %rcx
	movl	%eax, (%rdx,%rcx,4)
	movl	-12(%rbp), %eax
	addl	-80(%rbp), %eax
	cltq
	shlq	$6, %rax
	movabsq	$resTrans_B, %rcx
	addq	%rax, %rcx
	movl	-16(%rbp), %eax
	addl	-84(%rbp), %eax
	cltq
	movl	(%rcx,%rax,4), %eax
	movq	img, %rcx
	addq	$13112, %rcx            # imm = 0x3338
	movslq	-12(%rbp), %rdx
	shlq	$6, %rdx
	addq	%rdx, %rcx
	movslq	-16(%rbp), %rdx
	movl	%eax, (%rcx,%rdx,4)
# %bb.130:                              # %for.inc478
                                        #   in Loop: Header=BB9_128 Depth=4
	movl	-12(%rbp), %eax
	addl	$1, %eax
	movl	%eax, -12(%rbp)
	jmp	.LBB9_128
.LBB9_131:                              # %for.end480
                                        #   in Loop: Header=BB9_126 Depth=3
	jmp	.LBB9_132
.LBB9_132:                              # %for.inc481
                                        #   in Loop: Header=BB9_126 Depth=3
	movl	-16(%rbp), %eax
	addl	$1, %eax
	movl	%eax, -16(%rbp)
	jmp	.LBB9_126
.LBB9_133:                              # %for.end483
                                        #   in Loop: Header=BB9_116 Depth=2
	movl	-32(%rbp), %edi
	addl	$8, %edi
	movl	-20(%rbp), %esi
	movl	$1, %edx
	callq	RDCost_for_4x4Blocks_Chroma
	addl	-112(%rbp), %eax
	movl	%eax, -112(%rbp)
	movl	$0, -16(%rbp)
.LBB9_134:                              # %for.cond487
                                        #   Parent Loop BB9_34 Depth=1
                                        #     Parent Loop BB9_116 Depth=2
                                        # =>    This Loop Header: Depth=3
                                        #         Child Loop BB9_136 Depth 4
	cmpl	$4, -16(%rbp)
	jge	.LBB9_141
# %bb.135:                              # %for.body490
                                        #   in Loop: Header=BB9_134 Depth=3
	movl	$0, -12(%rbp)
.LBB9_136:                              # %for.cond491
                                        #   Parent Loop BB9_34 Depth=1
                                        #     Parent Loop BB9_116 Depth=2
                                        #       Parent Loop BB9_134 Depth=3
                                        # =>      This Inner Loop Header: Depth=4
	cmpl	$4, -12(%rbp)
	jge	.LBB9_139
# %bb.137:                              # %for.body494
                                        #   in Loop: Header=BB9_136 Depth=4
	movq	img, %rax
	addq	$13112, %rax            # imm = 0x3338
	movslq	-12(%rbp), %rcx
	shlq	$6, %rcx
	addq	%rcx, %rax
	movslq	-16(%rbp), %rcx
	movl	(%rax,%rcx,4), %eax
	movl	-12(%rbp), %ecx
	addl	-80(%rbp), %ecx
	movslq	%ecx, %rcx
	shlq	$6, %rcx
	movabsq	$rec_resB, %rdx
	addq	%rcx, %rdx
	movl	-16(%rbp), %ecx
	addl	-84(%rbp), %ecx
	movslq	%ecx, %rcx
	movl	%eax, (%rdx,%rcx,4)
# %bb.138:                              # %for.inc506
                                        #   in Loop: Header=BB9_136 Depth=4
	movl	-12(%rbp), %eax
	addl	$1, %eax
	movl	%eax, -12(%rbp)
	jmp	.LBB9_136
.LBB9_139:                              # %for.end508
                                        #   in Loop: Header=BB9_134 Depth=3
	jmp	.LBB9_140
.LBB9_140:                              # %for.inc509
                                        #   in Loop: Header=BB9_134 Depth=3
	movl	-16(%rbp), %eax
	addl	$1, %eax
	movl	%eax, -16(%rbp)
	jmp	.LBB9_134
.LBB9_141:                              # %for.end511
                                        #   in Loop: Header=BB9_116 Depth=2
	jmp	.LBB9_142
.LBB9_142:                              # %for.inc512
                                        #   in Loop: Header=BB9_116 Depth=2
	movl	-20(%rbp), %eax
	addl	$1, %eax
	movl	%eax, -20(%rbp)
	jmp	.LBB9_116
.LBB9_143:                              # %for.end514
                                        #   in Loop: Header=BB9_34 Depth=1
	movb	$0, %al
	callq	reset_coding_state_cs_cm
	movl	$0, -16(%rbp)
.LBB9_144:                              # %for.cond515
                                        #   Parent Loop BB9_34 Depth=1
                                        # =>  This Loop Header: Depth=2
                                        #       Child Loop BB9_146 Depth 3
	cmpl	$8, -16(%rbp)
	jge	.LBB9_178
# %bb.145:                              # %for.body518
                                        #   in Loop: Header=BB9_144 Depth=2
	movl	$0, -12(%rbp)
.LBB9_146:                              # %for.cond519
                                        #   Parent Loop BB9_34 Depth=1
                                        #     Parent Loop BB9_144 Depth=2
                                        # =>    This Inner Loop Header: Depth=3
	cmpl	$8, -12(%rbp)
	jge	.LBB9_176
# %bb.147:                              # %for.body522
                                        #   in Loop: Header=BB9_146 Depth=3
	xorl	%eax, %eax
	movslq	-12(%rbp), %rcx
	shlq	$6, %rcx
	movabsq	$rec_resG, %rdx
	addq	%rcx, %rdx
	movslq	-16(%rbp), %rcx
	movl	(%rdx,%rcx,4), %ecx
	movslq	-12(%rbp), %rdx
	shlq	$6, %rdx
	movabsq	$rec_resB, %rsi
	movq	%rsi, %rdi
	addq	%rdx, %rdi
	movslq	-16(%rbp), %rdx
	movl	(%rdi,%rdx,4), %edx
	sarl	$1, %edx
	subl	%edx, %ecx
	movl	%ecx, -88(%rbp)
	movslq	-12(%rbp), %rcx
	shlq	$6, %rcx
	addq	%rcx, %rsi
	movslq	-16(%rbp), %rcx
	movl	(%rsi,%rcx,4), %ecx
	addl	-88(%rbp), %ecx
	movl	%ecx, -76(%rbp)
	movl	-88(%rbp), %ecx
	movslq	-12(%rbp), %rdx
	shlq	$6, %rdx
	movabsq	$rec_resR, %rsi
	movq	%rsi, %rdi
	addq	%rdx, %rdi
	movslq	-16(%rbp), %rdx
	movl	(%rdi,%rdx,4), %edx
	sarl	$1, %edx
	subl	%edx, %ecx
	movl	%ecx, -64(%rbp)
	movl	-64(%rbp), %ecx
	movslq	-12(%rbp), %rdx
	shlq	$6, %rdx
	addq	%rdx, %rsi
	movslq	-16(%rbp), %rdx
	addl	(%rsi,%rdx,4), %ecx
	movl	%ecx, -72(%rbp)
	movq	img, %rcx
	movl	72688(%rcx), %ecx
	movl	-64(%rbp), %edx
	movq	img, %rsi
	addq	$8504, %rsi             # imm = 0x2138
	movslq	-56(%rbp), %rdi
	shlq	$9, %rdi
	addq	%rdi, %rsi
	movl	-40(%rbp), %edi
	addl	-12(%rbp), %edi
	movslq	%edi, %rdi
	shlq	$5, %rdi
	addq	%rdi, %rsi
	movl	-36(%rbp), %edi
	addl	-16(%rbp), %edi
	movslq	%edi, %rdi
	movzwl	(%rsi,%rdi,2), %esi
	addl	%esi, %edx
	cmpl	%edx, %eax
	jle	.LBB9_149
# %bb.148:                              # %cond.true563
                                        #   in Loop: Header=BB9_146 Depth=3
	xorl	%eax, %eax
	jmp	.LBB9_150
.LBB9_149:                              # %cond.false564
                                        #   in Loop: Header=BB9_146 Depth=3
	movl	-64(%rbp), %eax
	movq	img, %rdx
	addq	$8504, %rdx             # imm = 0x2138
	movslq	-56(%rbp), %rsi
	shlq	$9, %rsi
	addq	%rsi, %rdx
	movl	-40(%rbp), %esi
	addl	-12(%rbp), %esi
	movslq	%esi, %rsi
	shlq	$5, %rsi
	addq	%rsi, %rdx
	movl	-36(%rbp), %esi
	addl	-16(%rbp), %esi
	movslq	%esi, %rsi
	movzwl	(%rdx,%rsi,2), %edx
	addl	%edx, %eax
.LBB9_150:                              # %cond.end577
                                        #   in Loop: Header=BB9_146 Depth=3
	cmpl	%eax, %ecx
	jge	.LBB9_152
# %bb.151:                              # %cond.true581
                                        #   in Loop: Header=BB9_146 Depth=3
	movq	img, %rax
	movl	72688(%rax), %eax
	jmp	.LBB9_156
.LBB9_152:                              # %cond.false583
                                        #   in Loop: Header=BB9_146 Depth=3
	xorl	%eax, %eax
	movl	-64(%rbp), %ecx
	movq	img, %rdx
	addq	$8504, %rdx             # imm = 0x2138
	movslq	-56(%rbp), %rsi
	shlq	$9, %rsi
	addq	%rsi, %rdx
	movl	-40(%rbp), %esi
	addl	-12(%rbp), %esi
	movslq	%esi, %rsi
	shlq	$5, %rsi
	addq	%rsi, %rdx
	movl	-36(%rbp), %esi
	addl	-16(%rbp), %esi
	movslq	%esi, %rsi
	movzwl	(%rdx,%rsi,2), %edx
	addl	%edx, %ecx
	cmpl	%ecx, %eax
	jle	.LBB9_154
# %bb.153:                              # %cond.true598
                                        #   in Loop: Header=BB9_146 Depth=3
	xorl	%eax, %eax
	jmp	.LBB9_155
.LBB9_154:                              # %cond.false599
                                        #   in Loop: Header=BB9_146 Depth=3
	movl	-64(%rbp), %eax
	movq	img, %rcx
	addq	$8504, %rcx             # imm = 0x2138
	movslq	-56(%rbp), %rdx
	shlq	$9, %rdx
	addq	%rdx, %rcx
	movl	-40(%rbp), %edx
	addl	-12(%rbp), %edx
	movslq	%edx, %rdx
	shlq	$5, %rdx
	addq	%rdx, %rcx
	movl	-36(%rbp), %edx
	addl	-16(%rbp), %edx
	movslq	%edx, %rdx
	movzwl	(%rcx,%rdx,2), %ecx
	addl	%ecx, %eax
.LBB9_155:                              # %cond.end612
                                        #   in Loop: Header=BB9_146 Depth=3
.LBB9_156:                              # %cond.end614
                                        #   in Loop: Header=BB9_146 Depth=3
	xorl	%ecx, %ecx
	movq	enc_picture, %rdx
	movq	6464(%rdx), %rdx
	movq	(%rdx), %rdx
	movl	-44(%rbp), %esi
	addl	-16(%rbp), %esi
	movslq	%esi, %rsi
	movq	(%rdx,%rsi,8), %rdx
	movl	-68(%rbp), %esi
	addl	-12(%rbp), %esi
	movslq	%esi, %rsi
	movw	%ax, (%rdx,%rsi,2)
	movq	img, %rax
	movl	72684(%rax), %eax
	movl	-76(%rbp), %edx
	movq	img, %rsi
	addq	$7352, %rsi             # imm = 0x1CB8
	movslq	-48(%rbp), %rdi
	shlq	$7, %rdi
	addq	%rdi, %rsi
	movslq	-16(%rbp), %rdi
	shlq	$4, %rdi
	addq	%rdi, %rsi
	movslq	-12(%rbp), %rdi
	movzwl	(%rsi,%rdi,2), %esi
	addl	%esi, %edx
	cmpl	%edx, %ecx
	jle	.LBB9_158
# %bb.157:                              # %cond.true635
                                        #   in Loop: Header=BB9_146 Depth=3
	xorl	%ecx, %ecx
	jmp	.LBB9_159
.LBB9_158:                              # %cond.false636
                                        #   in Loop: Header=BB9_146 Depth=3
	movl	-76(%rbp), %ecx
	movq	img, %rdx
	addq	$7352, %rdx             # imm = 0x1CB8
	movslq	-48(%rbp), %rsi
	shlq	$7, %rsi
	addq	%rsi, %rdx
	movslq	-16(%rbp), %rsi
	shlq	$4, %rsi
	addq	%rsi, %rdx
	movslq	-12(%rbp), %rsi
	movzwl	(%rdx,%rsi,2), %edx
	addl	%edx, %ecx
.LBB9_159:                              # %cond.end646
                                        #   in Loop: Header=BB9_146 Depth=3
	cmpl	%ecx, %eax
	jge	.LBB9_161
# %bb.160:                              # %cond.true650
                                        #   in Loop: Header=BB9_146 Depth=3
	movq	img, %rax
	movl	72684(%rax), %eax
	jmp	.LBB9_165
.LBB9_161:                              # %cond.false652
                                        #   in Loop: Header=BB9_146 Depth=3
	xorl	%eax, %eax
	movl	-76(%rbp), %ecx
	movq	img, %rdx
	addq	$7352, %rdx             # imm = 0x1CB8
	movslq	-48(%rbp), %rsi
	shlq	$7, %rsi
	addq	%rsi, %rdx
	movslq	-16(%rbp), %rsi
	shlq	$4, %rsi
	addq	%rsi, %rdx
	movslq	-12(%rbp), %rsi
	movzwl	(%rdx,%rsi,2), %edx
	addl	%edx, %ecx
	cmpl	%ecx, %eax
	jle	.LBB9_163
# %bb.162:                              # %cond.true664
                                        #   in Loop: Header=BB9_146 Depth=3
	xorl	%eax, %eax
	jmp	.LBB9_164
.LBB9_163:                              # %cond.false665
                                        #   in Loop: Header=BB9_146 Depth=3
	movl	-76(%rbp), %eax
	movq	img, %rcx
	addq	$7352, %rcx             # imm = 0x1CB8
	movslq	-48(%rbp), %rdx
	shlq	$7, %rdx
	addq	%rdx, %rcx
	movslq	-16(%rbp), %rdx
	shlq	$4, %rdx
	addq	%rdx, %rcx
	movslq	-12(%rbp), %rdx
	movzwl	(%rcx,%rdx,2), %ecx
	addl	%ecx, %eax
.LBB9_164:                              # %cond.end675
                                        #   in Loop: Header=BB9_146 Depth=3
.LBB9_165:                              # %cond.end677
                                        #   in Loop: Header=BB9_146 Depth=3
	xorl	%ecx, %ecx
	movq	enc_picture, %rdx
	movq	6424(%rdx), %rdx
	movl	-44(%rbp), %esi
	addl	-16(%rbp), %esi
	movslq	%esi, %rsi
	movq	(%rdx,%rsi,8), %rdx
	movl	-68(%rbp), %esi
	addl	-12(%rbp), %esi
	movslq	%esi, %rsi
	movw	%ax, (%rdx,%rsi,2)
	movq	img, %rax
	movl	72688(%rax), %eax
	movl	-72(%rbp), %edx
	movq	img, %rsi
	addq	$8504, %rsi             # imm = 0x2138
	addq	$2048, %rsi             # imm = 0x800
	movslq	-56(%rbp), %rdi
	shlq	$9, %rdi
	addq	%rdi, %rsi
	movl	-40(%rbp), %edi
	addl	-12(%rbp), %edi
	movslq	%edi, %rdi
	shlq	$5, %rdi
	addq	%rdi, %rsi
	movl	-36(%rbp), %edi
	addl	-16(%rbp), %edi
	movslq	%edi, %rdi
	movzwl	(%rsi,%rdi,2), %esi
	addl	%esi, %edx
	cmpl	%edx, %ecx
	jle	.LBB9_167
# %bb.166:                              # %cond.true702
                                        #   in Loop: Header=BB9_146 Depth=3
	xorl	%ecx, %ecx
	jmp	.LBB9_168
.LBB9_167:                              # %cond.false703
                                        #   in Loop: Header=BB9_146 Depth=3
	movl	-72(%rbp), %ecx
	movq	img, %rdx
	addq	$8504, %rdx             # imm = 0x2138
	addq	$2048, %rdx             # imm = 0x800
	movslq	-56(%rbp), %rsi
	shlq	$9, %rsi
	addq	%rsi, %rdx
	movl	-40(%rbp), %esi
	addl	-12(%rbp), %esi
	movslq	%esi, %rsi
	shlq	$5, %rsi
	addq	%rsi, %rdx
	movl	-36(%rbp), %esi
	addl	-16(%rbp), %esi
	movslq	%esi, %rsi
	movzwl	(%rdx,%rsi,2), %edx
	addl	%edx, %ecx
.LBB9_168:                              # %cond.end716
                                        #   in Loop: Header=BB9_146 Depth=3
	cmpl	%ecx, %eax
	jge	.LBB9_170
# %bb.169:                              # %cond.true720
                                        #   in Loop: Header=BB9_146 Depth=3
	movq	img, %rax
	movl	72688(%rax), %eax
	jmp	.LBB9_174
.LBB9_170:                              # %cond.false722
                                        #   in Loop: Header=BB9_146 Depth=3
	xorl	%eax, %eax
	movl	-72(%rbp), %ecx
	movq	img, %rdx
	addq	$8504, %rdx             # imm = 0x2138
	addq	$2048, %rdx             # imm = 0x800
	movslq	-56(%rbp), %rsi
	shlq	$9, %rsi
	addq	%rsi, %rdx
	movl	-40(%rbp), %esi
	addl	-12(%rbp), %esi
	movslq	%esi, %rsi
	shlq	$5, %rsi
	addq	%rsi, %rdx
	movl	-36(%rbp), %esi
	addl	-16(%rbp), %esi
	movslq	%esi, %rsi
	movzwl	(%rdx,%rsi,2), %edx
	addl	%edx, %ecx
	cmpl	%ecx, %eax
	jle	.LBB9_172
# %bb.171:                              # %cond.true737
                                        #   in Loop: Header=BB9_146 Depth=3
	xorl	%eax, %eax
	jmp	.LBB9_173
.LBB9_172:                              # %cond.false738
                                        #   in Loop: Header=BB9_146 Depth=3
	movl	-72(%rbp), %eax
	movq	img, %rcx
	addq	$8504, %rcx             # imm = 0x2138
	addq	$2048, %rcx             # imm = 0x800
	movslq	-56(%rbp), %rdx
	shlq	$9, %rdx
	addq	%rdx, %rcx
	movl	-40(%rbp), %edx
	addl	-12(%rbp), %edx
	movslq	%edx, %rdx
	shlq	$5, %rdx
	addq	%rdx, %rcx
	movl	-36(%rbp), %edx
	addl	-16(%rbp), %edx
	movslq	%edx, %rdx
	movzwl	(%rcx,%rdx,2), %ecx
	addl	%ecx, %eax
.LBB9_173:                              # %cond.end751
                                        #   in Loop: Header=BB9_146 Depth=3
.LBB9_174:                              # %cond.end753
                                        #   in Loop: Header=BB9_146 Depth=3
	movq	enc_picture, %rcx
	movq	6464(%rcx), %rcx
	movq	8(%rcx), %rcx
	movl	-44(%rbp), %edx
	addl	-16(%rbp), %edx
	movslq	%edx, %rdx
	movq	(%rcx,%rdx,8), %rcx
	movl	-68(%rbp), %edx
	addl	-12(%rbp), %edx
	movslq	%edx, %rdx
	movw	%ax, (%rcx,%rdx,2)
# %bb.175:                              # %for.inc764
                                        #   in Loop: Header=BB9_146 Depth=3
	movl	-12(%rbp), %eax
	addl	$1, %eax
	movl	%eax, -12(%rbp)
	jmp	.LBB9_146
.LBB9_176:                              # %for.end766
                                        #   in Loop: Header=BB9_144 Depth=2
	jmp	.LBB9_177
.LBB9_177:                              # %for.inc767
                                        #   in Loop: Header=BB9_144 Depth=2
	movl	-16(%rbp), %eax
	addl	$1, %eax
	movl	%eax, -16(%rbp)
	jmp	.LBB9_144
.LBB9_178:                              # %for.end769
                                        #   in Loop: Header=BB9_34 Depth=1
	movl	$0, -100(%rbp)
	movl	$0, -28(%rbp)
.LBB9_179:                              # %for.cond770
                                        #   Parent Loop BB9_34 Depth=1
                                        # =>  This Loop Header: Depth=2
                                        #       Child Loop BB9_181 Depth 3
	cmpl	$8, -28(%rbp)
	jge	.LBB9_186
# %bb.180:                              # %for.body773
                                        #   in Loop: Header=BB9_179 Depth=2
	movl	-68(%rbp), %eax
	movl	%eax, -24(%rbp)
.LBB9_181:                              # %for.cond774
                                        #   Parent Loop BB9_34 Depth=1
                                        #     Parent Loop BB9_179 Depth=2
                                        # =>    This Inner Loop Header: Depth=3
	movl	-24(%rbp), %eax
	movl	-68(%rbp), %ecx
	addl	$8, %ecx
	cmpl	%ecx, %eax
	jge	.LBB9_184
# %bb.182:                              # %for.body778
                                        #   in Loop: Header=BB9_181 Depth=3
	movq	imgY_org, %rax
	movl	-44(%rbp), %ecx
	addl	-28(%rbp), %ecx
	movslq	%ecx, %rcx
	movq	(%rax,%rcx,8), %rax
	movslq	-24(%rbp), %rcx
	movzwl	(%rax,%rcx,2), %eax
	movq	enc_picture, %rcx
	movq	6424(%rcx), %rcx
	movl	-44(%rbp), %edx
	addl	-28(%rbp), %edx
	movslq	%edx, %rdx
	movq	(%rcx,%rdx,8), %rcx
	movslq	-24(%rbp), %rdx
	movzwl	(%rcx,%rdx,2), %ecx
	subl	%ecx, %eax
	movq	imgY_org, %rcx
	movl	-44(%rbp), %edx
	addl	-28(%rbp), %edx
	movslq	%edx, %rdx
	movq	(%rcx,%rdx,8), %rcx
	movslq	-24(%rbp), %rdx
	movzwl	(%rcx,%rdx,2), %ecx
	movq	enc_picture, %rdx
	movq	6424(%rdx), %rdx
	movl	-44(%rbp), %esi
	addl	-28(%rbp), %esi
	movslq	%esi, %rsi
	movq	(%rdx,%rsi,8), %rdx
	movslq	-24(%rbp), %rsi
	movzwl	(%rdx,%rsi,2), %edx
	subl	%edx, %ecx
	imull	%ecx, %eax
	addl	-100(%rbp), %eax
	movl	%eax, -100(%rbp)
	movq	imgUV_org, %rax
	movq	(%rax), %rax
	movl	-44(%rbp), %ecx
	addl	-28(%rbp), %ecx
	movslq	%ecx, %rcx
	movq	(%rax,%rcx,8), %rax
	movslq	-24(%rbp), %rcx
	movzwl	(%rax,%rcx,2), %eax
	movq	enc_picture, %rcx
	movq	6464(%rcx), %rcx
	movq	(%rcx), %rcx
	movl	-44(%rbp), %edx
	addl	-28(%rbp), %edx
	movslq	%edx, %rdx
	movq	(%rcx,%rdx,8), %rcx
	movslq	-24(%rbp), %rdx
	movzwl	(%rcx,%rdx,2), %ecx
	subl	%ecx, %eax
	movq	imgUV_org, %rcx
	movq	(%rcx), %rcx
	movl	-44(%rbp), %edx
	addl	-28(%rbp), %edx
	movslq	%edx, %rdx
	movq	(%rcx,%rdx,8), %rcx
	movslq	-24(%rbp), %rdx
	movzwl	(%rcx,%rdx,2), %ecx
	movq	enc_picture, %rdx
	movq	6464(%rdx), %rdx
	movq	(%rdx), %rdx
	movl	-44(%rbp), %esi
	addl	-28(%rbp), %esi
	movslq	%esi, %rsi
	movq	(%rdx,%rsi,8), %rdx
	movslq	-24(%rbp), %rsi
	movzwl	(%rdx,%rsi,2), %edx
	subl	%edx, %ecx
	imull	%ecx, %eax
	addl	-100(%rbp), %eax
	movl	%eax, -100(%rbp)
	movq	imgUV_org, %rax
	movq	8(%rax), %rax
	movl	-44(%rbp), %ecx
	addl	-28(%rbp), %ecx
	movslq	%ecx, %rcx
	movq	(%rax,%rcx,8), %rax
	movslq	-24(%rbp), %rcx
	movzwl	(%rax,%rcx,2), %eax
	movq	enc_picture, %rcx
	movq	6464(%rcx), %rcx
	movq	8(%rcx), %rcx
	movl	-44(%rbp), %edx
	addl	-28(%rbp), %edx
	movslq	%edx, %rdx
	movq	(%rcx,%rdx,8), %rcx
	movslq	-24(%rbp), %rdx
	movzwl	(%rcx,%rdx,2), %ecx
	subl	%ecx, %eax
	movq	imgUV_org, %rcx
	movq	8(%rcx), %rcx
	movl	-44(%rbp), %edx
	addl	-28(%rbp), %edx
	movslq	%edx, %rdx
	movq	(%rcx,%rdx,8), %rcx
	movslq	-24(%rbp), %rdx
	movzwl	(%rcx,%rdx,2), %ecx
	movq	enc_picture, %rdx
	movq	6464(%rdx), %rdx
	movq	8(%rdx), %rdx
	movl	-44(%rbp), %esi
	addl	-28(%rbp), %esi
	movslq	%esi, %rsi
	movq	(%rdx,%rsi,8), %rdx
	movslq	-24(%rbp), %rsi
	movzwl	(%rdx,%rsi,2), %edx
	subl	%edx, %ecx
	imull	%ecx, %eax
	addl	-100(%rbp), %eax
	movl	%eax, -100(%rbp)
# %bb.183:                              # %for.inc877
                                        #   in Loop: Header=BB9_181 Depth=3
	movl	-24(%rbp), %eax
	addl	$1, %eax
	movl	%eax, -24(%rbp)
	jmp	.LBB9_181
.LBB9_184:                              # %for.end879
                                        #   in Loop: Header=BB9_179 Depth=2
	jmp	.LBB9_185
.LBB9_185:                              # %for.inc880
                                        #   in Loop: Header=BB9_179 Depth=2
	movl	-28(%rbp), %eax
	addl	$1, %eax
	movl	%eax, -28(%rbp)
	jmp	.LBB9_179
.LBB9_186:                              # %for.end882
                                        #   in Loop: Header=BB9_34 Depth=1
	vcvtsi2sdl	-100(%rbp), %xmm0, %xmm0
	vmovsd	-152(%rbp), %xmm1       # xmm1 = mem[0],zero
	vcvtsi2sdl	-112(%rbp), %xmm0, %xmm2
	vmulsd	%xmm2, %xmm1, %xmm1
	vaddsd	%xmm1, %xmm0, %xmm0
	vmovsd	%xmm0, -144(%rbp)
	vmovsd	-144(%rbp), %xmm0       # xmm0 = mem[0],zero
	vmovsd	-136(%rbp), %xmm1       # xmm1 = mem[0],zero
	vucomisd	%xmm0, %xmm1
	jbe	.LBB9_240
# %bb.187:                              # %if.then889
                                        #   in Loop: Header=BB9_34 Depth=1
	movl	$0, -16(%rbp)
.LBB9_188:                              # %for.cond890
                                        #   Parent Loop BB9_34 Depth=1
                                        # =>  This Loop Header: Depth=2
                                        #       Child Loop BB9_190 Depth 3
                                        #         Child Loop BB9_192 Depth 4
	cmpl	$2, -16(%rbp)
	jge	.LBB9_199
# %bb.189:                              # %for.body893
                                        #   in Loop: Header=BB9_188 Depth=2
	movl	$0, -12(%rbp)
.LBB9_190:                              # %for.cond894
                                        #   Parent Loop BB9_34 Depth=1
                                        #     Parent Loop BB9_188 Depth=2
                                        # =>    This Loop Header: Depth=3
                                        #         Child Loop BB9_192 Depth 4
	cmpl	$65, -12(%rbp)
	jge	.LBB9_197
# %bb.191:                              # %for.body897
                                        #   in Loop: Header=BB9_190 Depth=3
	movl	$0, -52(%rbp)
.LBB9_192:                              # %for.cond898
                                        #   Parent Loop BB9_34 Depth=1
                                        #     Parent Loop BB9_188 Depth=2
                                        #       Parent Loop BB9_190 Depth=3
                                        # =>      This Inner Loop Header: Depth=4
	cmpl	$4, -52(%rbp)
	jge	.LBB9_195
# %bb.193:                              # %for.body901
                                        #   in Loop: Header=BB9_192 Depth=4
	movq	img, %rax
	movq	14136(%rax), %rax
	movslq	-32(%rbp), %rcx
	movq	(%rax,%rcx,8), %rax
	movslq	-52(%rbp), %rcx
	movq	(%rax,%rcx,8), %rax
	movslq	-16(%rbp), %rcx
	movq	(%rax,%rcx,8), %rax
	movslq	-12(%rbp), %rcx
	movl	(%rax,%rcx,4), %eax
	movq	cofAC8x8, %rcx
	movslq	-32(%rbp), %rdx
	movq	(%rcx,%rdx,8), %rcx
	movslq	-52(%rbp), %rdx
	movq	(%rcx,%rdx,8), %rcx
	movslq	-16(%rbp), %rdx
	movq	(%rcx,%rdx,8), %rcx
	movslq	-12(%rbp), %rdx
	movl	%eax, (%rcx,%rdx,4)
# %bb.194:                              # %for.inc919
                                        #   in Loop: Header=BB9_192 Depth=4
	movl	-52(%rbp), %eax
	addl	$1, %eax
	movl	%eax, -52(%rbp)
	jmp	.LBB9_192
.LBB9_195:                              # %for.end921
                                        #   in Loop: Header=BB9_190 Depth=3
	jmp	.LBB9_196
.LBB9_196:                              # %for.inc922
                                        #   in Loop: Header=BB9_190 Depth=3
	movl	-12(%rbp), %eax
	addl	$1, %eax
	movl	%eax, -12(%rbp)
	jmp	.LBB9_190
.LBB9_197:                              # %for.end924
                                        #   in Loop: Header=BB9_188 Depth=2
	jmp	.LBB9_198
.LBB9_198:                              # %for.inc925
                                        #   in Loop: Header=BB9_188 Depth=2
	movl	-16(%rbp), %eax
	addl	$1, %eax
	movl	%eax, -16(%rbp)
	jmp	.LBB9_188
.LBB9_199:                              # %for.end927
                                        #   in Loop: Header=BB9_34 Depth=1
	movl	$0, -20(%rbp)
.LBB9_200:                              # %for.cond928
                                        #   Parent Loop BB9_34 Depth=1
                                        # =>  This Loop Header: Depth=2
                                        #       Child Loop BB9_202 Depth 3
                                        #         Child Loop BB9_204 Depth 4
                                        #       Child Loop BB9_210 Depth 3
                                        #         Child Loop BB9_212 Depth 4
                                        #       Child Loop BB9_218 Depth 3
                                        #         Child Loop BB9_220 Depth 4
                                        #           Child Loop BB9_222 Depth 5
	cmpl	$4, -20(%rbp)
	jge	.LBB9_231
# %bb.201:                              # %for.body931
                                        #   in Loop: Header=BB9_200 Depth=2
	movl	-20(%rbp), %eax
	cltd
	movl	$2, %ecx
	idivl	%ecx
	shll	$2, %edx
	movl	%edx, -80(%rbp)
	movl	-20(%rbp), %eax
	cltd
	idivl	%ecx
	shll	$2, %eax
	movl	%eax, -84(%rbp)
	movl	$0, -16(%rbp)
.LBB9_202:                              # %for.cond936
                                        #   Parent Loop BB9_34 Depth=1
                                        #     Parent Loop BB9_200 Depth=2
                                        # =>    This Loop Header: Depth=3
                                        #         Child Loop BB9_204 Depth 4
	cmpl	$2, -16(%rbp)
	jge	.LBB9_209
# %bb.203:                              # %for.body939
                                        #   in Loop: Header=BB9_202 Depth=3
	movl	$0, -12(%rbp)
.LBB9_204:                              # %for.cond940
                                        #   Parent Loop BB9_34 Depth=1
                                        #     Parent Loop BB9_200 Depth=2
                                        #       Parent Loop BB9_202 Depth=3
                                        # =>      This Inner Loop Header: Depth=4
	cmpl	$18, -12(%rbp)
	jge	.LBB9_207
# %bb.205:                              # %for.body943
                                        #   in Loop: Header=BB9_204 Depth=4
	movq	img, %rax
	movq	14136(%rax), %rax
	movl	-32(%rbp), %ecx
	addl	$4, %ecx
	movslq	%ecx, %rcx
	movq	(%rax,%rcx,8), %rax
	movslq	-20(%rbp), %rcx
	movq	(%rax,%rcx,8), %rax
	movslq	-16(%rbp), %rcx
	movq	(%rax,%rcx,8), %rax
	movslq	-12(%rbp), %rcx
	movl	(%rax,%rcx,4), %eax
	movslq	-20(%rbp), %rcx
	imulq	$144, %rcx, %rcx
	movabsq	$cofAC8x8_chroma, %rdx
	addq	%rcx, %rdx
	movslq	-16(%rbp), %rcx
	imulq	$72, %rcx, %rcx
	addq	%rcx, %rdx
	movslq	-12(%rbp), %rcx
	movl	%eax, (%rdx,%rcx,4)
# %bb.206:                              # %for.inc960
                                        #   in Loop: Header=BB9_204 Depth=4
	movl	-12(%rbp), %eax
	addl	$1, %eax
	movl	%eax, -12(%rbp)
	jmp	.LBB9_204
.LBB9_207:                              # %for.end962
                                        #   in Loop: Header=BB9_202 Depth=3
	jmp	.LBB9_208
.LBB9_208:                              # %for.inc963
                                        #   in Loop: Header=BB9_202 Depth=3
	movl	-16(%rbp), %eax
	addl	$1, %eax
	movl	%eax, -16(%rbp)
	jmp	.LBB9_202
.LBB9_209:                              # %for.end965
                                        #   in Loop: Header=BB9_200 Depth=2
	movl	$0, -16(%rbp)
.LBB9_210:                              # %for.cond966
                                        #   Parent Loop BB9_34 Depth=1
                                        #     Parent Loop BB9_200 Depth=2
                                        # =>    This Loop Header: Depth=3
                                        #         Child Loop BB9_212 Depth 4
	cmpl	$2, -16(%rbp)
	jge	.LBB9_217
# %bb.211:                              # %for.body969
                                        #   in Loop: Header=BB9_210 Depth=3
	movl	$0, -12(%rbp)
.LBB9_212:                              # %for.cond970
                                        #   Parent Loop BB9_34 Depth=1
                                        #     Parent Loop BB9_200 Depth=2
                                        #       Parent Loop BB9_210 Depth=3
                                        # =>      This Inner Loop Header: Depth=4
	cmpl	$18, -12(%rbp)
	jge	.LBB9_215
# %bb.213:                              # %for.body973
                                        #   in Loop: Header=BB9_212 Depth=4
	movabsq	$cofAC8x8_chroma, %rax
	addq	$576, %rax              # imm = 0x240
	movq	img, %rcx
	movq	14136(%rcx), %rcx
	movl	-32(%rbp), %edx
	addl	$8, %edx
	movslq	%edx, %rdx
	movq	(%rcx,%rdx,8), %rcx
	movslq	-20(%rbp), %rdx
	movq	(%rcx,%rdx,8), %rcx
	movslq	-16(%rbp), %rdx
	movq	(%rcx,%rdx,8), %rcx
	movslq	-12(%rbp), %rdx
	movl	(%rcx,%rdx,4), %ecx
	movslq	-20(%rbp), %rdx
	imulq	$144, %rdx, %rdx
	addq	%rdx, %rax
	movslq	-16(%rbp), %rdx
	imulq	$72, %rdx, %rdx
	addq	%rdx, %rax
	movslq	-12(%rbp), %rdx
	movl	%ecx, (%rax,%rdx,4)
# %bb.214:                              # %for.inc990
                                        #   in Loop: Header=BB9_212 Depth=4
	movl	-12(%rbp), %eax
	addl	$1, %eax
	movl	%eax, -12(%rbp)
	jmp	.LBB9_212
.LBB9_215:                              # %for.end992
                                        #   in Loop: Header=BB9_210 Depth=3
	jmp	.LBB9_216
.LBB9_216:                              # %for.inc993
                                        #   in Loop: Header=BB9_210 Depth=3
	movl	-16(%rbp), %eax
	addl	$1, %eax
	movl	%eax, -16(%rbp)
	jmp	.LBB9_210
.LBB9_217:                              # %for.end995
                                        #   in Loop: Header=BB9_200 Depth=2
	movl	$0, -12(%rbp)
.LBB9_218:                              # %for.cond996
                                        #   Parent Loop BB9_34 Depth=1
                                        #     Parent Loop BB9_200 Depth=2
                                        # =>    This Loop Header: Depth=3
                                        #         Child Loop BB9_220 Depth 4
                                        #           Child Loop BB9_222 Depth 5
	cmpl	$2, -12(%rbp)
	jge	.LBB9_229
# %bb.219:                              # %for.body999
                                        #   in Loop: Header=BB9_218 Depth=3
	movslq	-12(%rbp), %rax
	shlq	$6, %rax
	movabsq	$dc_level_temp, %rdi
	addq	%rax, %rdi
	movl	-32(%rbp), %eax
	cltd
	movl	$2, %esi
	idivl	%esi
	movl	%edx, %ecx
	shll	$1, %ecx
	movl	-20(%rbp), %eax
	cltd
	idivl	%esi
	addl	%edx, %ecx
	movslq	%ecx, %rax
	shlq	$4, %rax
	addq	%rax, %rdi
	movl	-32(%rbp), %eax
	cltd
	idivl	%esi
	movl	%eax, %ecx
	shll	$1, %ecx
	movl	-20(%rbp), %eax
	cltd
	idivl	%esi
	addl	%eax, %ecx
	movslq	%ecx, %rax
	movl	(%rdi,%rax,4), %edi
	movslq	-12(%rbp), %rax
	shlq	$6, %rax
	movabsq	$dc_level, %rbx
	addq	%rax, %rbx
	movl	-32(%rbp), %eax
	cltd
	idivl	%esi
	movl	%edx, %ecx
	shll	$1, %ecx
	movl	-20(%rbp), %eax
	cltd
	idivl	%esi
	addl	%edx, %ecx
	movslq	%ecx, %rax
	shlq	$4, %rax
	addq	%rax, %rbx
	movl	-32(%rbp), %eax
	cltd
	idivl	%esi
	movl	%eax, %ecx
	shll	$1, %ecx
	movl	-20(%rbp), %eax
	cltd
	idivl	%esi
	addl	%eax, %ecx
	movslq	%ecx, %rax
	movl	%edi, (%rbx,%rax,4)
	movslq	-12(%rbp), %rax
	shlq	$6, %rax
	movabsq	$cbp_chroma_block_temp, %rdi
	addq	%rax, %rdi
	movl	-32(%rbp), %eax
	cltd
	idivl	%esi
	movl	%edx, %ecx
	shll	$1, %ecx
	movl	-20(%rbp), %eax
	cltd
	idivl	%esi
	addl	%edx, %ecx
	movslq	%ecx, %rax
	shlq	$4, %rax
	addq	%rax, %rdi
	movl	-32(%rbp), %eax
	cltd
	idivl	%esi
	movl	%eax, %ecx
	shll	$1, %ecx
	movl	-20(%rbp), %eax
	cltd
	idivl	%esi
	addl	%eax, %ecx
	movslq	%ecx, %rax
	movl	(%rdi,%rax,4), %edi
	movslq	-12(%rbp), %rax
	shlq	$6, %rax
	movabsq	$cbp_chroma_block, %rbx
	addq	%rax, %rbx
	movl	-32(%rbp), %eax
	cltd
	idivl	%esi
	movl	%edx, %ecx
	shll	$1, %ecx
	movl	-20(%rbp), %eax
	cltd
	idivl	%esi
	addl	%edx, %ecx
	movslq	%ecx, %rax
	shlq	$4, %rax
	addq	%rax, %rbx
	movl	-32(%rbp), %eax
	cltd
	idivl	%esi
	movl	%eax, %ecx
	shll	$1, %ecx
	movl	-20(%rbp), %eax
	cltd
	idivl	%esi
	addl	%eax, %ecx
	movslq	%ecx, %rax
	movl	%edi, (%rbx,%rax,4)
	movl	$0, -28(%rbp)
.LBB9_220:                              # %for.cond1056
                                        #   Parent Loop BB9_34 Depth=1
                                        #     Parent Loop BB9_200 Depth=2
                                        #       Parent Loop BB9_218 Depth=3
                                        # =>      This Loop Header: Depth=4
                                        #           Child Loop BB9_222 Depth 5
	cmpl	$4, -28(%rbp)
	jge	.LBB9_227
# %bb.221:                              # %for.body1059
                                        #   in Loop: Header=BB9_220 Depth=4
	movl	$0, -24(%rbp)
.LBB9_222:                              # %for.cond1060
                                        #   Parent Loop BB9_34 Depth=1
                                        #     Parent Loop BB9_200 Depth=2
                                        #       Parent Loop BB9_218 Depth=3
                                        #         Parent Loop BB9_220 Depth=4
                                        # =>        This Inner Loop Header: Depth=5
	cmpl	$4, -24(%rbp)
	jge	.LBB9_225
# %bb.223:                              # %for.body1063
                                        #   in Loop: Header=BB9_222 Depth=5
	movq	enc_picture, %rax
	movq	6464(%rax), %rax
	movslq	-12(%rbp), %rcx
	movq	(%rax,%rcx,8), %rax
	movl	-44(%rbp), %ecx
	addl	-28(%rbp), %ecx
	addl	-84(%rbp), %ecx
	movslq	%ecx, %rcx
	movq	(%rax,%rcx,8), %rax
	movl	-68(%rbp), %ecx
	addl	-24(%rbp), %ecx
	addl	-80(%rbp), %ecx
	movslq	%ecx, %rcx
	movzwl	(%rax,%rcx,2), %eax
	movslq	-12(%rbp), %rcx
	shlq	$8, %rcx
	leaq	-1152(%rbp), %rdx
	addq	%rcx, %rdx
	movslq	-20(%rbp), %rcx
	shlq	$6, %rcx
	addq	%rcx, %rdx
	movslq	-28(%rbp), %rcx
	shlq	$4, %rcx
	addq	%rcx, %rdx
	movslq	-24(%rbp), %rcx
	movl	%eax, (%rdx,%rcx,4)
# %bb.224:                              # %for.inc1084
                                        #   in Loop: Header=BB9_222 Depth=5
	movl	-24(%rbp), %eax
	addl	$1, %eax
	movl	%eax, -24(%rbp)
	jmp	.LBB9_222
.LBB9_225:                              # %for.end1086
                                        #   in Loop: Header=BB9_220 Depth=4
	jmp	.LBB9_226
.LBB9_226:                              # %for.inc1087
                                        #   in Loop: Header=BB9_220 Depth=4
	movl	-28(%rbp), %eax
	addl	$1, %eax
	movl	%eax, -28(%rbp)
	jmp	.LBB9_220
.LBB9_227:                              # %for.end1089
                                        #   in Loop: Header=BB9_218 Depth=3
	jmp	.LBB9_228
.LBB9_228:                              # %for.inc1090
                                        #   in Loop: Header=BB9_218 Depth=3
	movl	-12(%rbp), %eax
	addl	$1, %eax
	movl	%eax, -12(%rbp)
	jmp	.LBB9_218
.LBB9_229:                              # %for.end1092
                                        #   in Loop: Header=BB9_200 Depth=2
	jmp	.LBB9_230
.LBB9_230:                              # %for.inc1093
                                        #   in Loop: Header=BB9_200 Depth=2
	movl	-20(%rbp), %eax
	addl	$1, %eax
	movl	%eax, -20(%rbp)
	jmp	.LBB9_200
.LBB9_231:                              # %for.end1095
                                        #   in Loop: Header=BB9_34 Depth=1
	movl	$0, -28(%rbp)
.LBB9_232:                              # %for.cond1096
                                        #   Parent Loop BB9_34 Depth=1
                                        # =>  This Loop Header: Depth=2
                                        #       Child Loop BB9_234 Depth 3
	cmpl	$8, -28(%rbp)
	jge	.LBB9_239
# %bb.233:                              # %for.body1099
                                        #   in Loop: Header=BB9_232 Depth=2
	movl	$0, -24(%rbp)
.LBB9_234:                              # %for.cond1100
                                        #   Parent Loop BB9_34 Depth=1
                                        #     Parent Loop BB9_232 Depth=2
                                        # =>    This Inner Loop Header: Depth=3
	cmpl	$8, -24(%rbp)
	jge	.LBB9_237
# %bb.235:                              # %for.body1103
                                        #   in Loop: Header=BB9_234 Depth=3
	movq	enc_picture, %rax
	movq	6424(%rax), %rax
	movl	-44(%rbp), %ecx
	addl	-28(%rbp), %ecx
	movslq	%ecx, %rcx
	movq	(%rax,%rcx,8), %rax
	movl	-68(%rbp), %ecx
	addl	-24(%rbp), %ecx
	movslq	%ecx, %rcx
	movw	(%rax,%rcx,2), %ax
	movslq	-28(%rbp), %rcx
	shlq	$4, %rcx
	leaq	-384(%rbp), %rdx
	addq	%rcx, %rdx
	movslq	-24(%rbp), %rcx
	movw	%ax, (%rdx,%rcx,2)
# %bb.236:                              # %for.inc1115
                                        #   in Loop: Header=BB9_234 Depth=3
	movl	-24(%rbp), %eax
	addl	$1, %eax
	movl	%eax, -24(%rbp)
	jmp	.LBB9_234
.LBB9_237:                              # %for.end1117
                                        #   in Loop: Header=BB9_232 Depth=2
	jmp	.LBB9_238
.LBB9_238:                              # %for.inc1118
                                        #   in Loop: Header=BB9_232 Depth=2
	movl	-28(%rbp), %eax
	addl	$1, %eax
	movl	%eax, -28(%rbp)
	jmp	.LBB9_232
.LBB9_239:                              # %for.end1120
                                        #   in Loop: Header=BB9_34 Depth=1
	movl	-128(%rbp), %eax
	movl	%eax, -108(%rbp)
	vmovsd	-144(%rbp), %xmm0       # xmm0 = mem[0],zero
	vmovsd	%xmm0, -136(%rbp)
	movl	-48(%rbp), %eax
	movl	%eax, -60(%rbp)
.LBB9_240:                              # %if.end1121
                                        #   in Loop: Header=BB9_34 Depth=1
	jmp	.LBB9_241
.LBB9_241:                              # %if.end1122
                                        #   in Loop: Header=BB9_34 Depth=1
	jmp	.LBB9_242
.LBB9_242:                              # %if.end1123
                                        #   in Loop: Header=BB9_34 Depth=1
	jmp	.LBB9_243
.LBB9_243:                              # %if.end1124
                                        #   in Loop: Header=BB9_34 Depth=1
	jmp	.LBB9_244
.LBB9_244:                              # %for.inc1125
                                        #   in Loop: Header=BB9_34 Depth=1
	movl	-48(%rbp), %eax
	addl	$1, %eax
	movl	%eax, -48(%rbp)
	jmp	.LBB9_34
.LBB9_245:                              # %for.end1127
	movl	-60(%rbp), %eax
	movq	img, %rcx
	movq	112(%rcx), %rcx
	movslq	-172(%rbp), %rdx
	movq	(%rcx,%rdx,8), %rcx
	movslq	-184(%rbp), %rdx
	movl	%eax, (%rcx,%rdx,4)
	movl	-104(%rbp), %eax
	cmpl	-60(%rbp), %eax
	jne	.LBB9_247
# %bb.246:                              # %cond.true1135
	movl	$4294967295, %eax       # imm = 0xFFFFFFFF
	jmp	.LBB9_251
.LBB9_247:                              # %cond.false1136
	movl	-60(%rbp), %eax
	cmpl	-104(%rbp), %eax
	jge	.LBB9_249
# %bb.248:                              # %cond.true1139
	movl	-60(%rbp), %eax
	jmp	.LBB9_250
.LBB9_249:                              # %cond.false1140
	movl	-60(%rbp), %eax
	subl	$1, %eax
.LBB9_250:                              # %cond.end1142
.LBB9_251:                              # %cond.end1144
	movq	img, %rcx
	movq	14168(%rcx), %rcx
	movq	img, %rdx
	movslq	12(%rdx), %rdx
	imulq	$632, %rdx, %rdx        # imm = 0x278
	addq	%rdx, %rcx
	movl	-32(%rbp), %edx
	shll	$2, %edx
	movslq	%edx, %rdx
	movl	%eax, 396(%rcx,%rdx,4)
	movl	$0, -16(%rbp)
.LBB9_252:                              # %for.cond1153
                                        # =>This Loop Header: Depth=1
                                        #     Child Loop BB9_254 Depth 2
	cmpl	$2, -16(%rbp)
	jge	.LBB9_259
# %bb.253:                              # %for.body1156
                                        #   in Loop: Header=BB9_252 Depth=1
	movl	$0, -12(%rbp)
.LBB9_254:                              # %for.cond1157
                                        #   Parent Loop BB9_252 Depth=1
                                        # =>  This Inner Loop Header: Depth=2
	cmpl	$2, -12(%rbp)
	jge	.LBB9_257
# %bb.255:                              # %for.body1160
                                        #   in Loop: Header=BB9_254 Depth=2
	movl	-60(%rbp), %ecx
	movq	img, %rax
	movq	112(%rax), %rsi
	movl	-12(%rbp), %edi
	movq	img, %rax
	movl	136(%rax), %eax
	shll	$2, %eax
	addl	%eax, %edi
	movl	-32(%rbp), %eax
	cltd
	movl	$2, %ebx
	idivl	%ebx
	shll	$1, %edx
	addl	%edx, %edi
	movslq	%edi, %rax
	movq	(%rsi,%rax,8), %rsi
	movl	-16(%rbp), %edi
	movq	img, %rax
	movl	140(%rax), %eax
	shll	$2, %eax
	addl	%eax, %edi
	movl	-32(%rbp), %eax
	cltd
	idivl	%ebx
	shll	$1, %eax
	addl	%eax, %edi
	movslq	%edi, %rax
	movl	%ecx, (%rsi,%rax,4)
# %bb.256:                              # %for.inc1176
                                        #   in Loop: Header=BB9_254 Depth=2
	movl	-12(%rbp), %eax
	addl	$1, %eax
	movl	%eax, -12(%rbp)
	jmp	.LBB9_254
.LBB9_257:                              # %for.end1178
                                        #   in Loop: Header=BB9_252 Depth=1
	jmp	.LBB9_258
.LBB9_258:                              # %for.inc1179
                                        #   in Loop: Header=BB9_252 Depth=1
	movl	-16(%rbp), %eax
	addl	$1, %eax
	movl	%eax, -16(%rbp)
	jmp	.LBB9_252
.LBB9_259:                              # %for.end1181
	movq	input, %rax
	cmpl	$0, 2464(%rax)
	jne	.LBB9_359
# %bb.260:                              # %if.then1184
	movq	img, %rax
	cmpl	$0, 72724(%rax)
	jne	.LBB9_270
# %bb.261:                              # %if.then1187
	movl	$0, -16(%rbp)
.LBB9_262:                              # %for.cond1188
                                        # =>This Loop Header: Depth=1
                                        #     Child Loop BB9_264 Depth 2
	cmpl	$8, -16(%rbp)
	jge	.LBB9_269
# %bb.263:                              # %for.body1191
                                        #   in Loop: Header=BB9_262 Depth=1
	movl	$0, -12(%rbp)
.LBB9_264:                              # %for.cond1192
                                        #   Parent Loop BB9_262 Depth=1
                                        # =>  This Inner Loop Header: Depth=2
	cmpl	$8, -12(%rbp)
	jge	.LBB9_267
# %bb.265:                              # %for.body1195
                                        #   in Loop: Header=BB9_264 Depth=2
	movq	img, %rax
	addq	$7352, %rax             # imm = 0x1CB8
	movslq	-60(%rbp), %rcx
	shlq	$7, %rcx
	addq	%rcx, %rax
	movslq	-16(%rbp), %rcx
	shlq	$4, %rcx
	addq	%rcx, %rax
	movslq	-12(%rbp), %rcx
	movw	(%rax,%rcx,2), %ax
	movq	img, %rcx
	addq	$12600, %rcx            # imm = 0x3138
	movl	-40(%rbp), %edx
	addl	-12(%rbp), %edx
	movslq	%edx, %rdx
	shlq	$5, %rdx
	addq	%rdx, %rcx
	movl	-36(%rbp), %edx
	addl	-16(%rbp), %edx
	movslq	%edx, %rdx
	movw	%ax, (%rcx,%rdx,2)
	movq	-168(%rbp), %rax
	movl	-92(%rbp), %ecx
	addl	-16(%rbp), %ecx
	movslq	%ecx, %rcx
	movq	(%rax,%rcx,8), %rax
	movl	-96(%rbp), %ecx
	addl	-12(%rbp), %ecx
	movslq	%ecx, %rcx
	movzwl	(%rax,%rcx,2), %eax
	movq	img, %rcx
	addq	$7352, %rcx             # imm = 0x1CB8
	movslq	-60(%rbp), %rdx
	shlq	$7, %rdx
	addq	%rdx, %rcx
	movslq	-16(%rbp), %rdx
	shlq	$4, %rdx
	addq	%rdx, %rcx
	movslq	-12(%rbp), %rdx
	movzwl	(%rcx,%rdx,2), %ecx
	subl	%ecx, %eax
	movq	img, %rcx
	addq	$13112, %rcx            # imm = 0x3338
	movslq	-12(%rbp), %rdx
	shlq	$6, %rdx
	addq	%rdx, %rcx
	movslq	-16(%rbp), %rdx
	movl	%eax, (%rcx,%rdx,4)
# %bb.266:                              # %for.inc1231
                                        #   in Loop: Header=BB9_264 Depth=2
	movl	-12(%rbp), %eax
	addl	$1, %eax
	movl	%eax, -12(%rbp)
	jmp	.LBB9_264
.LBB9_267:                              # %for.end1233
                                        #   in Loop: Header=BB9_262 Depth=1
	jmp	.LBB9_268
.LBB9_268:                              # %for.inc1234
                                        #   in Loop: Header=BB9_262 Depth=1
	movl	-16(%rbp), %eax
	addl	$1, %eax
	movl	%eax, -16(%rbp)
	jmp	.LBB9_262
.LBB9_269:                              # %for.end1236
	movl	-32(%rbp), %edi
	leaq	-188(%rbp), %rsi
	movl	$1, %edx
	callq	dct_luma8x8
	movl	%eax, -108(%rbp)
	jmp	.LBB9_358
.LBB9_270:                              # %if.else1238
	movl	$0, -16(%rbp)
.LBB9_271:                              # %for.cond1239
                                        # =>This Loop Header: Depth=1
                                        #     Child Loop BB9_273 Depth 2
	cmpl	$8, -16(%rbp)
	jge	.LBB9_278
# %bb.272:                              # %for.body1242
                                        #   in Loop: Header=BB9_271 Depth=1
	movl	$0, -12(%rbp)
.LBB9_273:                              # %for.cond1243
                                        #   Parent Loop BB9_271 Depth=1
                                        # =>  This Inner Loop Header: Depth=2
	cmpl	$8, -12(%rbp)
	jge	.LBB9_276
# %bb.274:                              # %for.body1246
                                        #   in Loop: Header=BB9_273 Depth=2
	movq	img, %rax
	addq	$7352, %rax             # imm = 0x1CB8
	movslq	-60(%rbp), %rcx
	shlq	$7, %rcx
	addq	%rcx, %rax
	movslq	-16(%rbp), %rcx
	shlq	$4, %rcx
	addq	%rcx, %rax
	movslq	-12(%rbp), %rcx
	movw	(%rax,%rcx,2), %ax
	movq	img, %rcx
	addq	$12600, %rcx            # imm = 0x3138
	movl	-40(%rbp), %edx
	addl	-12(%rbp), %edx
	movslq	%edx, %rdx
	shlq	$5, %rdx
	addq	%rdx, %rcx
	movl	-36(%rbp), %edx
	addl	-16(%rbp), %edx
	movslq	%edx, %rdx
	movw	%ax, (%rcx,%rdx,2)
	movq	imgUV_org, %rax
	movq	(%rax), %rax
	movl	-92(%rbp), %ecx
	addl	-16(%rbp), %ecx
	movslq	%ecx, %rcx
	movq	(%rax,%rcx,8), %rax
	movl	-96(%rbp), %ecx
	addl	-12(%rbp), %ecx
	movslq	%ecx, %rcx
	movzwl	(%rax,%rcx,2), %eax
	movq	img, %rcx
	addq	$8504, %rcx             # imm = 0x2138
	movslq	-56(%rbp), %rdx
	shlq	$9, %rdx
	addq	%rdx, %rcx
	movl	-40(%rbp), %edx
	addl	-12(%rbp), %edx
	movslq	%edx, %rdx
	shlq	$5, %rdx
	addq	%rdx, %rcx
	movl	-36(%rbp), %edx
	addl	-16(%rbp), %edx
	movslq	%edx, %rdx
	movzwl	(%rcx,%rdx,2), %ecx
	subl	%ecx, %eax
	movl	%eax, -64(%rbp)
	movq	imgY_org, %rax
	movl	-92(%rbp), %ecx
	addl	-16(%rbp), %ecx
	movslq	%ecx, %rcx
	movq	(%rax,%rcx,8), %rax
	movl	-96(%rbp), %ecx
	addl	-12(%rbp), %ecx
	movslq	%ecx, %rcx
	movzwl	(%rax,%rcx,2), %eax
	movq	img, %rcx
	addq	$7352, %rcx             # imm = 0x1CB8
	movslq	-60(%rbp), %rdx
	shlq	$7, %rdx
	addq	%rdx, %rcx
	movslq	-16(%rbp), %rdx
	shlq	$4, %rdx
	addq	%rdx, %rcx
	movslq	-12(%rbp), %rdx
	movzwl	(%rcx,%rdx,2), %ecx
	subl	%ecx, %eax
	movl	%eax, -76(%rbp)
	movq	imgUV_org, %rax
	movq	8(%rax), %rax
	movl	-92(%rbp), %ecx
	addl	-16(%rbp), %ecx
	movslq	%ecx, %rcx
	movq	(%rax,%rcx,8), %rax
	movl	-96(%rbp), %ecx
	addl	-12(%rbp), %ecx
	movslq	%ecx, %rcx
	movzwl	(%rax,%rcx,2), %eax
	movq	img, %rcx
	addq	$8504, %rcx             # imm = 0x2138
	addq	$2048, %rcx             # imm = 0x800
	movslq	-56(%rbp), %rdx
	shlq	$9, %rdx
	addq	%rdx, %rcx
	movl	-40(%rbp), %edx
	addl	-12(%rbp), %edx
	movslq	%edx, %rdx
	shlq	$5, %rdx
	addq	%rdx, %rcx
	movl	-36(%rbp), %edx
	addl	-16(%rbp), %edx
	movslq	%edx, %rdx
	movzwl	(%rcx,%rdx,2), %ecx
	subl	%ecx, %eax
	movl	%eax, -72(%rbp)
	movl	-72(%rbp), %eax
	subl	-64(%rbp), %eax
	movslq	-12(%rbp), %rcx
	shlq	$6, %rcx
	movabsq	$resTrans_R, %rdx
	movq	%rdx, %rsi
	addq	%rcx, %rsi
	movslq	-16(%rbp), %rcx
	movl	%eax, (%rsi,%rcx,4)
	movl	-64(%rbp), %eax
	movslq	-12(%rbp), %rcx
	shlq	$6, %rcx
	addq	%rcx, %rdx
	movslq	-16(%rbp), %rcx
	movl	(%rdx,%rcx,4), %ecx
	sarl	$1, %ecx
	addl	%ecx, %eax
	movl	%eax, -88(%rbp)
	movl	-76(%rbp), %eax
	subl	-88(%rbp), %eax
	movslq	-12(%rbp), %rcx
	shlq	$6, %rcx
	movabsq	$resTrans_B, %rdx
	movq	%rdx, %rsi
	addq	%rcx, %rsi
	movslq	-16(%rbp), %rcx
	movl	%eax, (%rsi,%rcx,4)
	movl	-88(%rbp), %eax
	movslq	-12(%rbp), %rcx
	shlq	$6, %rcx
	addq	%rcx, %rdx
	movslq	-16(%rbp), %rcx
	movl	(%rdx,%rcx,4), %ecx
	sarl	$1, %ecx
	addl	%ecx, %eax
	movslq	-12(%rbp), %rcx
	shlq	$6, %rcx
	movabsq	$resTrans_G, %rdx
	addq	%rcx, %rdx
	movslq	-16(%rbp), %rcx
	movl	%eax, (%rdx,%rcx,4)
# %bb.275:                              # %for.inc1343
                                        #   in Loop: Header=BB9_273 Depth=2
	movl	-12(%rbp), %eax
	addl	$1, %eax
	movl	%eax, -12(%rbp)
	jmp	.LBB9_273
.LBB9_276:                              # %for.end1345
                                        #   in Loop: Header=BB9_271 Depth=1
	jmp	.LBB9_277
.LBB9_277:                              # %for.inc1346
                                        #   in Loop: Header=BB9_271 Depth=1
	movl	-16(%rbp), %eax
	addl	$1, %eax
	movl	%eax, -16(%rbp)
	jmp	.LBB9_271
.LBB9_278:                              # %for.end1348
	movl	$0, -16(%rbp)
.LBB9_279:                              # %for.cond1349
                                        # =>This Loop Header: Depth=1
                                        #     Child Loop BB9_281 Depth 2
	cmpl	$8, -16(%rbp)
	jge	.LBB9_286
# %bb.280:                              # %for.body1352
                                        #   in Loop: Header=BB9_279 Depth=1
	movl	$0, -12(%rbp)
.LBB9_281:                              # %for.cond1353
                                        #   Parent Loop BB9_279 Depth=1
                                        # =>  This Inner Loop Header: Depth=2
	cmpl	$8, -12(%rbp)
	jge	.LBB9_284
# %bb.282:                              # %for.body1356
                                        #   in Loop: Header=BB9_281 Depth=2
	movslq	-12(%rbp), %rax
	shlq	$6, %rax
	movabsq	$resTrans_G, %rcx
	addq	%rax, %rcx
	movslq	-16(%rbp), %rax
	movl	(%rcx,%rax,4), %eax
	movq	img, %rcx
	addq	$13112, %rcx            # imm = 0x3338
	movslq	-12(%rbp), %rdx
	shlq	$6, %rdx
	addq	%rdx, %rcx
	movslq	-16(%rbp), %rdx
	movl	%eax, (%rcx,%rdx,4)
# %bb.283:                              # %for.inc1366
                                        #   in Loop: Header=BB9_281 Depth=2
	movl	-12(%rbp), %eax
	addl	$1, %eax
	movl	%eax, -12(%rbp)
	jmp	.LBB9_281
.LBB9_284:                              # %for.end1368
                                        #   in Loop: Header=BB9_279 Depth=1
	jmp	.LBB9_285
.LBB9_285:                              # %for.inc1369
                                        #   in Loop: Header=BB9_279 Depth=1
	movl	-16(%rbp), %eax
	addl	$1, %eax
	movl	%eax, -16(%rbp)
	jmp	.LBB9_279
.LBB9_286:                              # %for.end1371
	movl	-32(%rbp), %edi
	leaq	-188(%rbp), %rsi
	movl	$1, %edx
	callq	dct_luma8x8
	movl	%eax, -108(%rbp)
	movl	$0, -16(%rbp)
.LBB9_287:                              # %for.cond1373
                                        # =>This Loop Header: Depth=1
                                        #     Child Loop BB9_289 Depth 2
	cmpl	$8, -16(%rbp)
	jge	.LBB9_294
# %bb.288:                              # %for.body1376
                                        #   in Loop: Header=BB9_287 Depth=1
	movl	$0, -12(%rbp)
.LBB9_289:                              # %for.cond1377
                                        #   Parent Loop BB9_287 Depth=1
                                        # =>  This Inner Loop Header: Depth=2
	cmpl	$8, -12(%rbp)
	jge	.LBB9_292
# %bb.290:                              # %for.body1380
                                        #   in Loop: Header=BB9_289 Depth=2
	movq	img, %rax
	addq	$13112, %rax            # imm = 0x3338
	movslq	-12(%rbp), %rcx
	shlq	$6, %rcx
	addq	%rcx, %rax
	movslq	-16(%rbp), %rcx
	movl	(%rax,%rcx,4), %eax
	movslq	-12(%rbp), %rcx
	shlq	$6, %rcx
	movabsq	$rec_resG, %rdx
	addq	%rcx, %rdx
	movslq	-16(%rbp), %rcx
	movl	%eax, (%rdx,%rcx,4)
# %bb.291:                              # %for.inc1390
                                        #   in Loop: Header=BB9_289 Depth=2
	movl	-12(%rbp), %eax
	addl	$1, %eax
	movl	%eax, -12(%rbp)
	jmp	.LBB9_289
.LBB9_292:                              # %for.end1392
                                        #   in Loop: Header=BB9_287 Depth=1
	jmp	.LBB9_293
.LBB9_293:                              # %for.inc1393
                                        #   in Loop: Header=BB9_287 Depth=1
	movl	-16(%rbp), %eax
	addl	$1, %eax
	movl	%eax, -16(%rbp)
	jmp	.LBB9_287
.LBB9_294:                              # %for.end1395
	movl	$0, -20(%rbp)
.LBB9_295:                              # %for.cond1396
                                        # =>This Loop Header: Depth=1
                                        #     Child Loop BB9_297 Depth 2
                                        #       Child Loop BB9_299 Depth 3
                                        #     Child Loop BB9_305 Depth 2
                                        #       Child Loop BB9_307 Depth 3
                                        #     Child Loop BB9_313 Depth 2
                                        #       Child Loop BB9_315 Depth 3
	cmpl	$4, -20(%rbp)
	jge	.LBB9_322
# %bb.296:                              # %for.body1399
                                        #   in Loop: Header=BB9_295 Depth=1
	movl	-20(%rbp), %eax
	cltd
	movl	$2, %ecx
	idivl	%ecx
	shll	$2, %edx
	movl	%edx, -80(%rbp)
	movl	-20(%rbp), %eax
	cltd
	idivl	%ecx
	shll	$2, %eax
	movl	%eax, -84(%rbp)
	movl	$0, -16(%rbp)
.LBB9_297:                              # %for.cond1404
                                        #   Parent Loop BB9_295 Depth=1
                                        # =>  This Loop Header: Depth=2
                                        #       Child Loop BB9_299 Depth 3
	cmpl	$4, -16(%rbp)
	jge	.LBB9_304
# %bb.298:                              # %for.body1407
                                        #   in Loop: Header=BB9_297 Depth=2
	movl	$0, -12(%rbp)
.LBB9_299:                              # %for.cond1408
                                        #   Parent Loop BB9_295 Depth=1
                                        #     Parent Loop BB9_297 Depth=2
                                        # =>    This Inner Loop Header: Depth=3
	cmpl	$4, -12(%rbp)
	jge	.LBB9_302
# %bb.300:                              # %for.body1411
                                        #   in Loop: Header=BB9_299 Depth=3
	movl	-12(%rbp), %eax
	addl	-80(%rbp), %eax
	cltq
	shlq	$6, %rax
	movabsq	$resTrans_R, %rcx
	addq	%rax, %rcx
	movl	-16(%rbp), %eax
	addl	-84(%rbp), %eax
	cltq
	movl	(%rcx,%rax,4), %eax
	movq	img, %rcx
	addq	$13112, %rcx            # imm = 0x3338
	movslq	-12(%rbp), %rdx
	shlq	$6, %rdx
	addq	%rdx, %rcx
	movslq	-16(%rbp), %rdx
	movl	%eax, (%rcx,%rdx,4)
# %bb.301:                              # %for.inc1423
                                        #   in Loop: Header=BB9_299 Depth=3
	movl	-12(%rbp), %eax
	addl	$1, %eax
	movl	%eax, -12(%rbp)
	jmp	.LBB9_299
.LBB9_302:                              # %for.end1425
                                        #   in Loop: Header=BB9_297 Depth=2
	jmp	.LBB9_303
.LBB9_303:                              # %for.inc1426
                                        #   in Loop: Header=BB9_297 Depth=2
	movl	-16(%rbp), %eax
	addl	$1, %eax
	movl	%eax, -16(%rbp)
	jmp	.LBB9_297
.LBB9_304:                              # %for.end1428
                                        #   in Loop: Header=BB9_295 Depth=1
	movl	-32(%rbp), %esi
	addl	$4, %esi
	movl	-20(%rbp), %edx
	xorl	%edi, %edi
	callq	dct_chroma4x4
	movl	%eax, %ecx
	movl	-32(%rbp), %eax
	cltd
	movl	$2, %edi
	idivl	%edi
	movl	%edx, %esi
	shll	$1, %esi
	movl	-20(%rbp), %eax
	cltd
	idivl	%edi
	addl	%edx, %esi
	movslq	%esi, %rax
	shlq	$4, %rax
	movabsq	$cbp_chroma_block, %rbx
	addq	%rax, %rbx
	movl	-32(%rbp), %eax
	cltd
	idivl	%edi
	movl	%eax, %esi
	shll	$1, %esi
	movl	-20(%rbp), %eax
	cltd
	idivl	%edi
	addl	%eax, %esi
	movslq	%esi, %rax
	movl	%ecx, (%rbx,%rax,4)
	movl	-32(%rbp), %eax
	cltd
	idivl	%edi
	movl	%edx, %ecx
	shll	$1, %ecx
	movl	-20(%rbp), %eax
	cltd
	idivl	%edi
	addl	%edx, %ecx
	movslq	%ecx, %rax
	shlq	$4, %rax
	movabsq	$dc_level_temp, %rsi
	addq	%rax, %rsi
	movl	-32(%rbp), %eax
	cltd
	idivl	%edi
	movl	%eax, %ecx
	shll	$1, %ecx
	movl	-20(%rbp), %eax
	cltd
	idivl	%edi
	addl	%eax, %ecx
	movslq	%ecx, %rax
	movl	(%rsi,%rax,4), %esi
	movl	-32(%rbp), %eax
	cltd
	idivl	%edi
	movl	%edx, %ecx
	shll	$1, %ecx
	movl	-20(%rbp), %eax
	cltd
	idivl	%edi
	addl	%edx, %ecx
	movslq	%ecx, %rax
	shlq	$4, %rax
	movabsq	$dc_level, %rbx
	addq	%rax, %rbx
	movl	-32(%rbp), %eax
	cltd
	idivl	%edi
	movl	%eax, %ecx
	shll	$1, %ecx
	movl	-20(%rbp), %eax
	cltd
	idivl	%edi
	addl	%eax, %ecx
	movslq	%ecx, %rax
	movl	%esi, (%rbx,%rax,4)
	movl	$0, -16(%rbp)
.LBB9_305:                              # %for.cond1467
                                        #   Parent Loop BB9_295 Depth=1
                                        # =>  This Loop Header: Depth=2
                                        #       Child Loop BB9_307 Depth 3
	cmpl	$4, -16(%rbp)
	jge	.LBB9_312
# %bb.306:                              # %for.body1470
                                        #   in Loop: Header=BB9_305 Depth=2
	movl	$0, -12(%rbp)
.LBB9_307:                              # %for.cond1471
                                        #   Parent Loop BB9_295 Depth=1
                                        #     Parent Loop BB9_305 Depth=2
                                        # =>    This Inner Loop Header: Depth=3
	cmpl	$4, -12(%rbp)
	jge	.LBB9_310
# %bb.308:                              # %for.body1474
                                        #   in Loop: Header=BB9_307 Depth=3
	movq	img, %rax
	addq	$13112, %rax            # imm = 0x3338
	movslq	-12(%rbp), %rcx
	shlq	$6, %rcx
	addq	%rcx, %rax
	movslq	-16(%rbp), %rcx
	movl	(%rax,%rcx,4), %eax
	movl	-12(%rbp), %ecx
	addl	-80(%rbp), %ecx
	movslq	%ecx, %rcx
	shlq	$6, %rcx
	movabsq	$rec_resR, %rdx
	addq	%rcx, %rdx
	movl	-16(%rbp), %ecx
	addl	-84(%rbp), %ecx
	movslq	%ecx, %rcx
	movl	%eax, (%rdx,%rcx,4)
	movl	-12(%rbp), %eax
	addl	-80(%rbp), %eax
	cltq
	shlq	$6, %rax
	movabsq	$resTrans_B, %rcx
	addq	%rax, %rcx
	movl	-16(%rbp), %eax
	addl	-84(%rbp), %eax
	cltq
	movl	(%rcx,%rax,4), %eax
	movq	img, %rcx
	addq	$13112, %rcx            # imm = 0x3338
	movslq	-12(%rbp), %rdx
	shlq	$6, %rdx
	addq	%rdx, %rcx
	movslq	-16(%rbp), %rdx
	movl	%eax, (%rcx,%rdx,4)
# %bb.309:                              # %for.inc1497
                                        #   in Loop: Header=BB9_307 Depth=3
	movl	-12(%rbp), %eax
	addl	$1, %eax
	movl	%eax, -12(%rbp)
	jmp	.LBB9_307
.LBB9_310:                              # %for.end1499
                                        #   in Loop: Header=BB9_305 Depth=2
	jmp	.LBB9_311
.LBB9_311:                              # %for.inc1500
                                        #   in Loop: Header=BB9_305 Depth=2
	movl	-16(%rbp), %eax
	addl	$1, %eax
	movl	%eax, -16(%rbp)
	jmp	.LBB9_305
.LBB9_312:                              # %for.end1502
                                        #   in Loop: Header=BB9_295 Depth=1
	movl	-32(%rbp), %esi
	addl	$8, %esi
	movl	-20(%rbp), %edx
	movl	$1, %edi
	callq	dct_chroma4x4
	movl	%eax, %r9d
	movabsq	$dc_level, %r8
	addq	$64, %r8
	movabsq	$dc_level_temp, %rdi
	addq	$64, %rdi
	movabsq	$cbp_chroma_block, %rcx
	addq	$64, %rcx
	movl	-32(%rbp), %eax
	cltd
	movl	$2, %ebx
	idivl	%ebx
	movl	%edx, %esi
	shll	$1, %esi
	movl	-20(%rbp), %eax
	cltd
	idivl	%ebx
	addl	%edx, %esi
	movslq	%esi, %rax
	shlq	$4, %rax
	addq	%rax, %rcx
	movl	-32(%rbp), %eax
	cltd
	idivl	%ebx
	movl	%eax, %esi
	shll	$1, %esi
	movl	-20(%rbp), %eax
	cltd
	idivl	%ebx
	addl	%eax, %esi
	movslq	%esi, %rax
	movl	%r9d, (%rcx,%rax,4)
	movl	-32(%rbp), %eax
	cltd
	idivl	%ebx
	movl	%edx, %ecx
	shll	$1, %ecx
	movl	-20(%rbp), %eax
	cltd
	idivl	%ebx
	addl	%edx, %ecx
	movslq	%ecx, %rax
	shlq	$4, %rax
	addq	%rax, %rdi
	movl	-32(%rbp), %eax
	cltd
	idivl	%ebx
	movl	%eax, %ecx
	shll	$1, %ecx
	movl	-20(%rbp), %eax
	cltd
	idivl	%ebx
	addl	%eax, %ecx
	movslq	%ecx, %rax
	movl	(%rdi,%rax,4), %esi
	movl	-32(%rbp), %eax
	cltd
	idivl	%ebx
	movl	%edx, %ecx
	shll	$1, %ecx
	movl	-20(%rbp), %eax
	cltd
	idivl	%ebx
	addl	%edx, %ecx
	movslq	%ecx, %rax
	shlq	$4, %rax
	addq	%rax, %r8
	movl	-32(%rbp), %eax
	cltd
	idivl	%ebx
	movl	%eax, %ecx
	shll	$1, %ecx
	movl	-20(%rbp), %eax
	cltd
	idivl	%ebx
	addl	%eax, %ecx
	movslq	%ecx, %rax
	movl	%esi, (%r8,%rax,4)
	movl	$0, -16(%rbp)
.LBB9_313:                              # %for.cond1541
                                        #   Parent Loop BB9_295 Depth=1
                                        # =>  This Loop Header: Depth=2
                                        #       Child Loop BB9_315 Depth 3
	cmpl	$4, -16(%rbp)
	jge	.LBB9_320
# %bb.314:                              # %for.body1544
                                        #   in Loop: Header=BB9_313 Depth=2
	movl	$0, -12(%rbp)
.LBB9_315:                              # %for.cond1545
                                        #   Parent Loop BB9_295 Depth=1
                                        #     Parent Loop BB9_313 Depth=2
                                        # =>    This Inner Loop Header: Depth=3
	cmpl	$4, -12(%rbp)
	jge	.LBB9_318
# %bb.316:                              # %for.body1548
                                        #   in Loop: Header=BB9_315 Depth=3
	movq	img, %rax
	addq	$13112, %rax            # imm = 0x3338
	movslq	-12(%rbp), %rcx
	shlq	$6, %rcx
	addq	%rcx, %rax
	movslq	-16(%rbp), %rcx
	movl	(%rax,%rcx,4), %eax
	movl	-12(%rbp), %ecx
	addl	-80(%rbp), %ecx
	movslq	%ecx, %rcx
	shlq	$6, %rcx
	movabsq	$rec_resB, %rdx
	addq	%rcx, %rdx
	movl	-16(%rbp), %ecx
	addl	-84(%rbp), %ecx
	movslq	%ecx, %rcx
	movl	%eax, (%rdx,%rcx,4)
# %bb.317:                              # %for.inc1560
                                        #   in Loop: Header=BB9_315 Depth=3
	movl	-12(%rbp), %eax
	addl	$1, %eax
	movl	%eax, -12(%rbp)
	jmp	.LBB9_315
.LBB9_318:                              # %for.end1562
                                        #   in Loop: Header=BB9_313 Depth=2
	jmp	.LBB9_319
.LBB9_319:                              # %for.inc1563
                                        #   in Loop: Header=BB9_313 Depth=2
	movl	-16(%rbp), %eax
	addl	$1, %eax
	movl	%eax, -16(%rbp)
	jmp	.LBB9_313
.LBB9_320:                              # %for.end1565
                                        #   in Loop: Header=BB9_295 Depth=1
	jmp	.LBB9_321
.LBB9_321:                              # %for.inc1566
                                        #   in Loop: Header=BB9_295 Depth=1
	movl	-20(%rbp), %eax
	addl	$1, %eax
	movl	%eax, -20(%rbp)
	jmp	.LBB9_295
.LBB9_322:                              # %for.end1568
	movl	$0, -16(%rbp)
.LBB9_323:                              # %for.cond1569
                                        # =>This Loop Header: Depth=1
                                        #     Child Loop BB9_325 Depth 2
	cmpl	$8, -16(%rbp)
	jge	.LBB9_357
# %bb.324:                              # %for.body1572
                                        #   in Loop: Header=BB9_323 Depth=1
	movl	$0, -12(%rbp)
.LBB9_325:                              # %for.cond1573
                                        #   Parent Loop BB9_323 Depth=1
                                        # =>  This Inner Loop Header: Depth=2
	cmpl	$8, -12(%rbp)
	jge	.LBB9_355
# %bb.326:                              # %for.body1576
                                        #   in Loop: Header=BB9_325 Depth=2
	xorl	%eax, %eax
	movslq	-12(%rbp), %rcx
	shlq	$6, %rcx
	movabsq	$rec_resG, %rdx
	addq	%rcx, %rdx
	movslq	-16(%rbp), %rcx
	movl	(%rdx,%rcx,4), %ecx
	movslq	-12(%rbp), %rdx
	shlq	$6, %rdx
	movabsq	$rec_resB, %rsi
	movq	%rsi, %rdi
	addq	%rdx, %rdi
	movslq	-16(%rbp), %rdx
	movl	(%rdi,%rdx,4), %edx
	sarl	$1, %edx
	subl	%edx, %ecx
	movl	%ecx, -88(%rbp)
	movslq	-12(%rbp), %rcx
	shlq	$6, %rcx
	addq	%rcx, %rsi
	movslq	-16(%rbp), %rcx
	movl	(%rsi,%rcx,4), %ecx
	addl	-88(%rbp), %ecx
	movl	%ecx, -76(%rbp)
	movl	-88(%rbp), %ecx
	movslq	-12(%rbp), %rdx
	shlq	$6, %rdx
	movabsq	$rec_resR, %rsi
	movq	%rsi, %rdi
	addq	%rdx, %rdi
	movslq	-16(%rbp), %rdx
	movl	(%rdi,%rdx,4), %edx
	sarl	$1, %edx
	subl	%edx, %ecx
	movl	%ecx, -64(%rbp)
	movl	-64(%rbp), %ecx
	movslq	-12(%rbp), %rdx
	shlq	$6, %rdx
	addq	%rdx, %rsi
	movslq	-16(%rbp), %rdx
	addl	(%rsi,%rdx,4), %ecx
	movl	%ecx, -72(%rbp)
	movq	img, %rcx
	movl	72688(%rcx), %ecx
	movl	-64(%rbp), %edx
	movq	img, %rsi
	addq	$8504, %rsi             # imm = 0x2138
	movslq	-56(%rbp), %rdi
	shlq	$9, %rdi
	addq	%rdi, %rsi
	movl	-40(%rbp), %edi
	addl	-12(%rbp), %edi
	movslq	%edi, %rdi
	shlq	$5, %rdi
	addq	%rdi, %rsi
	movl	-36(%rbp), %edi
	addl	-16(%rbp), %edi
	movslq	%edi, %rdi
	movzwl	(%rsi,%rdi,2), %esi
	addl	%esi, %edx
	cmpl	%edx, %eax
	jle	.LBB9_328
# %bb.327:                              # %cond.true1618
                                        #   in Loop: Header=BB9_325 Depth=2
	xorl	%eax, %eax
	jmp	.LBB9_329
.LBB9_328:                              # %cond.false1619
                                        #   in Loop: Header=BB9_325 Depth=2
	movl	-64(%rbp), %eax
	movq	img, %rdx
	addq	$8504, %rdx             # imm = 0x2138
	movslq	-56(%rbp), %rsi
	shlq	$9, %rsi
	addq	%rsi, %rdx
	movl	-40(%rbp), %esi
	addl	-12(%rbp), %esi
	movslq	%esi, %rsi
	shlq	$5, %rsi
	addq	%rsi, %rdx
	movl	-36(%rbp), %esi
	addl	-16(%rbp), %esi
	movslq	%esi, %rsi
	movzwl	(%rdx,%rsi,2), %edx
	addl	%edx, %eax
.LBB9_329:                              # %cond.end1632
                                        #   in Loop: Header=BB9_325 Depth=2
	cmpl	%eax, %ecx
	jge	.LBB9_331
# %bb.330:                              # %cond.true1636
                                        #   in Loop: Header=BB9_325 Depth=2
	movq	img, %rax
	movl	72688(%rax), %eax
	jmp	.LBB9_335
.LBB9_331:                              # %cond.false1638
                                        #   in Loop: Header=BB9_325 Depth=2
	xorl	%eax, %eax
	movl	-64(%rbp), %ecx
	movq	img, %rdx
	addq	$8504, %rdx             # imm = 0x2138
	movslq	-56(%rbp), %rsi
	shlq	$9, %rsi
	addq	%rsi, %rdx
	movl	-40(%rbp), %esi
	addl	-12(%rbp), %esi
	movslq	%esi, %rsi
	shlq	$5, %rsi
	addq	%rsi, %rdx
	movl	-36(%rbp), %esi
	addl	-16(%rbp), %esi
	movslq	%esi, %rsi
	movzwl	(%rdx,%rsi,2), %edx
	addl	%edx, %ecx
	cmpl	%ecx, %eax
	jle	.LBB9_333
# %bb.332:                              # %cond.true1653
                                        #   in Loop: Header=BB9_325 Depth=2
	xorl	%eax, %eax
	jmp	.LBB9_334
.LBB9_333:                              # %cond.false1654
                                        #   in Loop: Header=BB9_325 Depth=2
	movl	-64(%rbp), %eax
	movq	img, %rcx
	addq	$8504, %rcx             # imm = 0x2138
	movslq	-56(%rbp), %rdx
	shlq	$9, %rdx
	addq	%rdx, %rcx
	movl	-40(%rbp), %edx
	addl	-12(%rbp), %edx
	movslq	%edx, %rdx
	shlq	$5, %rdx
	addq	%rdx, %rcx
	movl	-36(%rbp), %edx
	addl	-16(%rbp), %edx
	movslq	%edx, %rdx
	movzwl	(%rcx,%rdx,2), %ecx
	addl	%ecx, %eax
.LBB9_334:                              # %cond.end1667
                                        #   in Loop: Header=BB9_325 Depth=2
.LBB9_335:                              # %cond.end1669
                                        #   in Loop: Header=BB9_325 Depth=2
	xorl	%ecx, %ecx
	movq	enc_picture, %rdx
	movq	6464(%rdx), %rdx
	movq	(%rdx), %rdx
	movl	-44(%rbp), %esi
	addl	-16(%rbp), %esi
	movslq	%esi, %rsi
	movq	(%rdx,%rsi,8), %rdx
	movl	-68(%rbp), %esi
	addl	-12(%rbp), %esi
	movslq	%esi, %rsi
	movw	%ax, (%rdx,%rsi,2)
	movq	img, %rax
	movl	72684(%rax), %eax
	movl	-76(%rbp), %edx
	movq	img, %rsi
	addq	$7352, %rsi             # imm = 0x1CB8
	movslq	-60(%rbp), %rdi
	shlq	$7, %rdi
	addq	%rdi, %rsi
	movslq	-16(%rbp), %rdi
	shlq	$4, %rdi
	addq	%rdi, %rsi
	movslq	-12(%rbp), %rdi
	movzwl	(%rsi,%rdi,2), %esi
	addl	%esi, %edx
	cmpl	%edx, %ecx
	jle	.LBB9_337
# %bb.336:                              # %cond.true1692
                                        #   in Loop: Header=BB9_325 Depth=2
	xorl	%ecx, %ecx
	jmp	.LBB9_338
.LBB9_337:                              # %cond.false1693
                                        #   in Loop: Header=BB9_325 Depth=2
	movl	-76(%rbp), %ecx
	movq	img, %rdx
	addq	$7352, %rdx             # imm = 0x1CB8
	movslq	-60(%rbp), %rsi
	shlq	$7, %rsi
	addq	%rsi, %rdx
	movslq	-16(%rbp), %rsi
	shlq	$4, %rsi
	addq	%rsi, %rdx
	movslq	-12(%rbp), %rsi
	movzwl	(%rdx,%rsi,2), %edx
	addl	%edx, %ecx
.LBB9_338:                              # %cond.end1703
                                        #   in Loop: Header=BB9_325 Depth=2
	cmpl	%ecx, %eax
	jge	.LBB9_340
# %bb.339:                              # %cond.true1707
                                        #   in Loop: Header=BB9_325 Depth=2
	movq	img, %rax
	movl	72684(%rax), %eax
	jmp	.LBB9_344
.LBB9_340:                              # %cond.false1709
                                        #   in Loop: Header=BB9_325 Depth=2
	xorl	%eax, %eax
	movl	-76(%rbp), %ecx
	movq	img, %rdx
	addq	$7352, %rdx             # imm = 0x1CB8
	movslq	-60(%rbp), %rsi
	shlq	$7, %rsi
	addq	%rsi, %rdx
	movslq	-16(%rbp), %rsi
	shlq	$4, %rsi
	addq	%rsi, %rdx
	movslq	-12(%rbp), %rsi
	movzwl	(%rdx,%rsi,2), %edx
	addl	%edx, %ecx
	cmpl	%ecx, %eax
	jle	.LBB9_342
# %bb.341:                              # %cond.true1721
                                        #   in Loop: Header=BB9_325 Depth=2
	xorl	%eax, %eax
	jmp	.LBB9_343
.LBB9_342:                              # %cond.false1722
                                        #   in Loop: Header=BB9_325 Depth=2
	movl	-76(%rbp), %eax
	movq	img, %rcx
	addq	$7352, %rcx             # imm = 0x1CB8
	movslq	-60(%rbp), %rdx
	shlq	$7, %rdx
	addq	%rdx, %rcx
	movslq	-16(%rbp), %rdx
	shlq	$4, %rdx
	addq	%rdx, %rcx
	movslq	-12(%rbp), %rdx
	movzwl	(%rcx,%rdx,2), %ecx
	addl	%ecx, %eax
.LBB9_343:                              # %cond.end1732
                                        #   in Loop: Header=BB9_325 Depth=2
.LBB9_344:                              # %cond.end1734
                                        #   in Loop: Header=BB9_325 Depth=2
	xorl	%ecx, %ecx
	movq	enc_picture, %rdx
	movq	6424(%rdx), %rdx
	movl	-44(%rbp), %esi
	addl	-16(%rbp), %esi
	movslq	%esi, %rsi
	movq	(%rdx,%rsi,8), %rdx
	movl	-68(%rbp), %esi
	addl	-12(%rbp), %esi
	movslq	%esi, %rsi
	movw	%ax, (%rdx,%rsi,2)
	movq	img, %rax
	movl	72688(%rax), %eax
	movl	-72(%rbp), %edx
	movq	img, %rsi
	addq	$8504, %rsi             # imm = 0x2138
	addq	$2048, %rsi             # imm = 0x800
	movslq	-56(%rbp), %rdi
	shlq	$9, %rdi
	addq	%rdi, %rsi
	movl	-40(%rbp), %edi
	addl	-12(%rbp), %edi
	movslq	%edi, %rdi
	shlq	$5, %rdi
	addq	%rdi, %rsi
	movl	-36(%rbp), %edi
	addl	-16(%rbp), %edi
	movslq	%edi, %rdi
	movzwl	(%rsi,%rdi,2), %esi
	addl	%esi, %edx
	cmpl	%edx, %ecx
	jle	.LBB9_346
# %bb.345:                              # %cond.true1759
                                        #   in Loop: Header=BB9_325 Depth=2
	xorl	%ecx, %ecx
	jmp	.LBB9_347
.LBB9_346:                              # %cond.false1760
                                        #   in Loop: Header=BB9_325 Depth=2
	movl	-72(%rbp), %ecx
	movq	img, %rdx
	addq	$8504, %rdx             # imm = 0x2138
	addq	$2048, %rdx             # imm = 0x800
	movslq	-56(%rbp), %rsi
	shlq	$9, %rsi
	addq	%rsi, %rdx
	movl	-40(%rbp), %esi
	addl	-12(%rbp), %esi
	movslq	%esi, %rsi
	shlq	$5, %rsi
	addq	%rsi, %rdx
	movl	-36(%rbp), %esi
	addl	-16(%rbp), %esi
	movslq	%esi, %rsi
	movzwl	(%rdx,%rsi,2), %edx
	addl	%edx, %ecx
.LBB9_347:                              # %cond.end1773
                                        #   in Loop: Header=BB9_325 Depth=2
	cmpl	%ecx, %eax
	jge	.LBB9_349
# %bb.348:                              # %cond.true1777
                                        #   in Loop: Header=BB9_325 Depth=2
	movq	img, %rax
	movl	72688(%rax), %eax
	jmp	.LBB9_353
.LBB9_349:                              # %cond.false1779
                                        #   in Loop: Header=BB9_325 Depth=2
	xorl	%eax, %eax
	movl	-72(%rbp), %ecx
	movq	img, %rdx
	addq	$8504, %rdx             # imm = 0x2138
	addq	$2048, %rdx             # imm = 0x800
	movslq	-56(%rbp), %rsi
	shlq	$9, %rsi
	addq	%rsi, %rdx
	movl	-40(%rbp), %esi
	addl	-12(%rbp), %esi
	movslq	%esi, %rsi
	shlq	$5, %rsi
	addq	%rsi, %rdx
	movl	-36(%rbp), %esi
	addl	-16(%rbp), %esi
	movslq	%esi, %rsi
	movzwl	(%rdx,%rsi,2), %edx
	addl	%edx, %ecx
	cmpl	%ecx, %eax
	jle	.LBB9_351
# %bb.350:                              # %cond.true1794
                                        #   in Loop: Header=BB9_325 Depth=2
	xorl	%eax, %eax
	jmp	.LBB9_352
.LBB9_351:                              # %cond.false1795
                                        #   in Loop: Header=BB9_325 Depth=2
	movl	-72(%rbp), %eax
	movq	img, %rcx
	addq	$8504, %rcx             # imm = 0x2138
	addq	$2048, %rcx             # imm = 0x800
	movslq	-56(%rbp), %rdx
	shlq	$9, %rdx
	addq	%rdx, %rcx
	movl	-40(%rbp), %edx
	addl	-12(%rbp), %edx
	movslq	%edx, %rdx
	shlq	$5, %rdx
	addq	%rdx, %rcx
	movl	-36(%rbp), %edx
	addl	-16(%rbp), %edx
	movslq	%edx, %rdx
	movzwl	(%rcx,%rdx,2), %ecx
	addl	%ecx, %eax
.LBB9_352:                              # %cond.end1808
                                        #   in Loop: Header=BB9_325 Depth=2
.LBB9_353:                              # %cond.end1810
                                        #   in Loop: Header=BB9_325 Depth=2
	movq	enc_picture, %rcx
	movq	6464(%rcx), %rcx
	movq	8(%rcx), %rcx
	movl	-44(%rbp), %edx
	addl	-16(%rbp), %edx
	movslq	%edx, %rdx
	movq	(%rcx,%rdx,8), %rcx
	movl	-68(%rbp), %edx
	addl	-12(%rbp), %edx
	movslq	%edx, %rdx
	movw	%ax, (%rcx,%rdx,2)
# %bb.354:                              # %for.inc1821
                                        #   in Loop: Header=BB9_325 Depth=2
	movl	-12(%rbp), %eax
	addl	$1, %eax
	movl	%eax, -12(%rbp)
	jmp	.LBB9_325
.LBB9_355:                              # %for.end1823
                                        #   in Loop: Header=BB9_323 Depth=1
	jmp	.LBB9_356
.LBB9_356:                              # %for.inc1824
                                        #   in Loop: Header=BB9_323 Depth=1
	movl	-16(%rbp), %eax
	addl	$1, %eax
	movl	%eax, -16(%rbp)
	jmp	.LBB9_323
.LBB9_357:                              # %for.end1826
	jmp	.LBB9_358
.LBB9_358:                              # %if.end1827
	jmp	.LBB9_420
.LBB9_359:                              # %if.else1828
	movl	$0, -16(%rbp)
.LBB9_360:                              # %for.cond1829
                                        # =>This Loop Header: Depth=1
                                        #     Child Loop BB9_362 Depth 2
                                        #       Child Loop BB9_364 Depth 3
	cmpl	$2, -16(%rbp)
	jge	.LBB9_371
# %bb.361:                              # %for.body1832
                                        #   in Loop: Header=BB9_360 Depth=1
	movl	$0, -12(%rbp)
.LBB9_362:                              # %for.cond1833
                                        #   Parent Loop BB9_360 Depth=1
                                        # =>  This Loop Header: Depth=2
                                        #       Child Loop BB9_364 Depth 3
	cmpl	$65, -12(%rbp)
	jge	.LBB9_369
# %bb.363:                              # %for.body1836
                                        #   in Loop: Header=BB9_362 Depth=2
	movl	$0, -52(%rbp)
.LBB9_364:                              # %for.cond1837
                                        #   Parent Loop BB9_360 Depth=1
                                        #     Parent Loop BB9_362 Depth=2
                                        # =>    This Inner Loop Header: Depth=3
	cmpl	$4, -52(%rbp)
	jge	.LBB9_367
# %bb.365:                              # %for.body1840
                                        #   in Loop: Header=BB9_364 Depth=3
	movq	cofAC8x8, %rax
	movslq	-32(%rbp), %rcx
	movq	(%rax,%rcx,8), %rax
	movslq	-52(%rbp), %rcx
	movq	(%rax,%rcx,8), %rax
	movslq	-16(%rbp), %rcx
	movq	(%rax,%rcx,8), %rax
	movslq	-12(%rbp), %rcx
	movl	(%rax,%rcx,4), %eax
	movq	img, %rcx
	movq	14136(%rcx), %rcx
	movslq	-32(%rbp), %rdx
	movq	(%rcx,%rdx,8), %rcx
	movslq	-52(%rbp), %rdx
	movq	(%rcx,%rdx,8), %rcx
	movslq	-16(%rbp), %rdx
	movq	(%rcx,%rdx,8), %rcx
	movslq	-12(%rbp), %rdx
	movl	%eax, (%rcx,%rdx,4)
# %bb.366:                              # %for.inc1858
                                        #   in Loop: Header=BB9_364 Depth=3
	movl	-52(%rbp), %eax
	addl	$1, %eax
	movl	%eax, -52(%rbp)
	jmp	.LBB9_364
.LBB9_367:                              # %for.end1860
                                        #   in Loop: Header=BB9_362 Depth=2
	jmp	.LBB9_368
.LBB9_368:                              # %for.inc1861
                                        #   in Loop: Header=BB9_362 Depth=2
	movl	-12(%rbp), %eax
	addl	$1, %eax
	movl	%eax, -12(%rbp)
	jmp	.LBB9_362
.LBB9_369:                              # %for.end1863
                                        #   in Loop: Header=BB9_360 Depth=1
	jmp	.LBB9_370
.LBB9_370:                              # %for.inc1864
                                        #   in Loop: Header=BB9_360 Depth=1
	movl	-16(%rbp), %eax
	addl	$1, %eax
	movl	%eax, -16(%rbp)
	jmp	.LBB9_360
.LBB9_371:                              # %for.end1866
	movq	img, %rax
	cmpl	$0, 72724(%rax)
	je	.LBB9_393
# %bb.372:                              # %if.then1869
	movl	$0, -20(%rbp)
.LBB9_373:                              # %for.cond1870
                                        # =>This Loop Header: Depth=1
                                        #     Child Loop BB9_375 Depth 2
                                        #       Child Loop BB9_377 Depth 3
                                        #     Child Loop BB9_383 Depth 2
                                        #       Child Loop BB9_385 Depth 3
	cmpl	$4, -20(%rbp)
	jge	.LBB9_392
# %bb.374:                              # %for.body1873
                                        #   in Loop: Header=BB9_373 Depth=1
	movl	$0, -16(%rbp)
.LBB9_375:                              # %for.cond1874
                                        #   Parent Loop BB9_373 Depth=1
                                        # =>  This Loop Header: Depth=2
                                        #       Child Loop BB9_377 Depth 3
	cmpl	$2, -16(%rbp)
	jge	.LBB9_382
# %bb.376:                              # %for.body1877
                                        #   in Loop: Header=BB9_375 Depth=2
	movl	$0, -12(%rbp)
.LBB9_377:                              # %for.cond1878
                                        #   Parent Loop BB9_373 Depth=1
                                        #     Parent Loop BB9_375 Depth=2
                                        # =>    This Inner Loop Header: Depth=3
	cmpl	$18, -12(%rbp)
	jge	.LBB9_380
# %bb.378:                              # %for.body1881
                                        #   in Loop: Header=BB9_377 Depth=3
	movslq	-20(%rbp), %rax
	imulq	$144, %rax, %rax
	movabsq	$cofAC8x8_chroma, %rcx
	addq	%rax, %rcx
	movslq	-16(%rbp), %rax
	imulq	$72, %rax, %rax
	addq	%rax, %rcx
	movslq	-12(%rbp), %rax
	movl	(%rcx,%rax,4), %eax
	movq	img, %rcx
	movq	14136(%rcx), %rcx
	movl	-32(%rbp), %edx
	addl	$4, %edx
	movslq	%edx, %rdx
	movq	(%rcx,%rdx,8), %rcx
	movslq	-20(%rbp), %rdx
	movq	(%rcx,%rdx,8), %rcx
	movslq	-16(%rbp), %rdx
	movq	(%rcx,%rdx,8), %rcx
	movslq	-12(%rbp), %rdx
	movl	%eax, (%rcx,%rdx,4)
# %bb.379:                              # %for.inc1898
                                        #   in Loop: Header=BB9_377 Depth=3
	movl	-12(%rbp), %eax
	addl	$1, %eax
	movl	%eax, -12(%rbp)
	jmp	.LBB9_377
.LBB9_380:                              # %for.end1900
                                        #   in Loop: Header=BB9_375 Depth=2
	jmp	.LBB9_381
.LBB9_381:                              # %for.inc1901
                                        #   in Loop: Header=BB9_375 Depth=2
	movl	-16(%rbp), %eax
	addl	$1, %eax
	movl	%eax, -16(%rbp)
	jmp	.LBB9_375
.LBB9_382:                              # %for.end1903
                                        #   in Loop: Header=BB9_373 Depth=1
	movl	$0, -16(%rbp)
.LBB9_383:                              # %for.cond1904
                                        #   Parent Loop BB9_373 Depth=1
                                        # =>  This Loop Header: Depth=2
                                        #       Child Loop BB9_385 Depth 3
	cmpl	$2, -16(%rbp)
	jge	.LBB9_390
# %bb.384:                              # %for.body1907
                                        #   in Loop: Header=BB9_383 Depth=2
	movl	$0, -12(%rbp)
.LBB9_385:                              # %for.cond1908
                                        #   Parent Loop BB9_373 Depth=1
                                        #     Parent Loop BB9_383 Depth=2
                                        # =>    This Inner Loop Header: Depth=3
	cmpl	$18, -12(%rbp)
	jge	.LBB9_388
# %bb.386:                              # %for.body1911
                                        #   in Loop: Header=BB9_385 Depth=3
	movabsq	$cofAC8x8_chroma, %rax
	addq	$576, %rax              # imm = 0x240
	movslq	-20(%rbp), %rcx
	imulq	$144, %rcx, %rcx
	addq	%rcx, %rax
	movslq	-16(%rbp), %rcx
	imulq	$72, %rcx, %rcx
	addq	%rcx, %rax
	movslq	-12(%rbp), %rcx
	movl	(%rax,%rcx,4), %eax
	movq	img, %rcx
	movq	14136(%rcx), %rcx
	movl	-32(%rbp), %edx
	addl	$8, %edx
	movslq	%edx, %rdx
	movq	(%rcx,%rdx,8), %rcx
	movslq	-20(%rbp), %rdx
	movq	(%rcx,%rdx,8), %rcx
	movslq	-16(%rbp), %rdx
	movq	(%rcx,%rdx,8), %rcx
	movslq	-12(%rbp), %rdx
	movl	%eax, (%rcx,%rdx,4)
# %bb.387:                              # %for.inc1928
                                        #   in Loop: Header=BB9_385 Depth=3
	movl	-12(%rbp), %eax
	addl	$1, %eax
	movl	%eax, -12(%rbp)
	jmp	.LBB9_385
.LBB9_388:                              # %for.end1930
                                        #   in Loop: Header=BB9_383 Depth=2
	jmp	.LBB9_389
.LBB9_389:                              # %for.inc1931
                                        #   in Loop: Header=BB9_383 Depth=2
	movl	-16(%rbp), %eax
	addl	$1, %eax
	movl	%eax, -16(%rbp)
	jmp	.LBB9_383
.LBB9_390:                              # %for.end1933
                                        #   in Loop: Header=BB9_373 Depth=1
	jmp	.LBB9_391
.LBB9_391:                              # %for.inc1934
                                        #   in Loop: Header=BB9_373 Depth=1
	movl	-20(%rbp), %eax
	addl	$1, %eax
	movl	%eax, -20(%rbp)
	jmp	.LBB9_373
.LBB9_392:                              # %for.end1936
	jmp	.LBB9_393
.LBB9_393:                              # %if.end1937
	movl	$0, -28(%rbp)
.LBB9_394:                              # %for.cond1938
                                        # =>This Loop Header: Depth=1
                                        #     Child Loop BB9_396 Depth 2
	cmpl	$8, -28(%rbp)
	jge	.LBB9_401
# %bb.395:                              # %for.body1941
                                        #   in Loop: Header=BB9_394 Depth=1
	movl	$0, -24(%rbp)
.LBB9_396:                              # %for.cond1942
                                        #   Parent Loop BB9_394 Depth=1
                                        # =>  This Inner Loop Header: Depth=2
	cmpl	$8, -24(%rbp)
	jge	.LBB9_399
# %bb.397:                              # %for.body1945
                                        #   in Loop: Header=BB9_396 Depth=2
	movslq	-28(%rbp), %rax
	shlq	$4, %rax
	leaq	-384(%rbp), %rcx
	addq	%rax, %rcx
	movslq	-24(%rbp), %rax
	movw	(%rcx,%rax,2), %ax
	movq	enc_picture, %rcx
	movq	6424(%rcx), %rcx
	movl	-44(%rbp), %edx
	addl	-28(%rbp), %edx
	movslq	%edx, %rdx
	movq	(%rcx,%rdx,8), %rcx
	movl	-68(%rbp), %edx
	addl	-24(%rbp), %edx
	movslq	%edx, %rdx
	movw	%ax, (%rcx,%rdx,2)
	movq	img, %rax
	addq	$7352, %rax             # imm = 0x1CB8
	movslq	-60(%rbp), %rcx
	shlq	$7, %rcx
	addq	%rcx, %rax
	movslq	-28(%rbp), %rcx
	shlq	$4, %rcx
	addq	%rcx, %rax
	movslq	-24(%rbp), %rcx
	movw	(%rax,%rcx,2), %ax
	movq	img, %rcx
	addq	$12600, %rcx            # imm = 0x3138
	movl	-40(%rbp), %edx
	addl	-24(%rbp), %edx
	movslq	%edx, %rdx
	shlq	$5, %rdx
	addq	%rdx, %rcx
	movl	-36(%rbp), %edx
	addl	-28(%rbp), %edx
	movslq	%edx, %rdx
	movw	%ax, (%rcx,%rdx,2)
# %bb.398:                              # %for.inc1971
                                        #   in Loop: Header=BB9_396 Depth=2
	movl	-24(%rbp), %eax
	addl	$1, %eax
	movl	%eax, -24(%rbp)
	jmp	.LBB9_396
.LBB9_399:                              # %for.end1973
                                        #   in Loop: Header=BB9_394 Depth=1
	jmp	.LBB9_400
.LBB9_400:                              # %for.inc1974
                                        #   in Loop: Header=BB9_394 Depth=1
	movl	-28(%rbp), %eax
	addl	$1, %eax
	movl	%eax, -28(%rbp)
	jmp	.LBB9_394
.LBB9_401:                              # %for.end1976
	movq	img, %rax
	cmpl	$0, 72724(%rax)
	je	.LBB9_419
# %bb.402:                              # %if.then1979
	movl	$0, -20(%rbp)
.LBB9_403:                              # %for.cond1980
                                        # =>This Loop Header: Depth=1
                                        #     Child Loop BB9_405 Depth 2
                                        #       Child Loop BB9_407 Depth 3
                                        #         Child Loop BB9_409 Depth 4
	cmpl	$4, -20(%rbp)
	jge	.LBB9_418
# %bb.404:                              # %for.body1983
                                        #   in Loop: Header=BB9_403 Depth=1
	movl	-20(%rbp), %eax
	cltd
	movl	$2, %ecx
	idivl	%ecx
	shll	$2, %edx
	movl	%edx, -80(%rbp)
	movl	-20(%rbp), %eax
	cltd
	idivl	%ecx
	shll	$2, %eax
	movl	%eax, -84(%rbp)
	movl	$0, -12(%rbp)
.LBB9_405:                              # %for.cond1988
                                        #   Parent Loop BB9_403 Depth=1
                                        # =>  This Loop Header: Depth=2
                                        #       Child Loop BB9_407 Depth 3
                                        #         Child Loop BB9_409 Depth 4
	cmpl	$2, -12(%rbp)
	jge	.LBB9_416
# %bb.406:                              # %for.body1991
                                        #   in Loop: Header=BB9_405 Depth=2
	movl	$0, -28(%rbp)
.LBB9_407:                              # %for.cond1992
                                        #   Parent Loop BB9_403 Depth=1
                                        #     Parent Loop BB9_405 Depth=2
                                        # =>    This Loop Header: Depth=3
                                        #         Child Loop BB9_409 Depth 4
	cmpl	$4, -28(%rbp)
	jge	.LBB9_414
# %bb.408:                              # %for.body1995
                                        #   in Loop: Header=BB9_407 Depth=3
	movl	$0, -24(%rbp)
.LBB9_409:                              # %for.cond1996
                                        #   Parent Loop BB9_403 Depth=1
                                        #     Parent Loop BB9_405 Depth=2
                                        #       Parent Loop BB9_407 Depth=3
                                        # =>      This Inner Loop Header: Depth=4
	cmpl	$4, -24(%rbp)
	jge	.LBB9_412
# %bb.410:                              # %for.body1999
                                        #   in Loop: Header=BB9_409 Depth=4
	movslq	-12(%rbp), %rax
	shlq	$8, %rax
	leaq	-1152(%rbp), %rcx
	addq	%rax, %rcx
	movslq	-20(%rbp), %rax
	shlq	$6, %rax
	addq	%rax, %rcx
	movslq	-28(%rbp), %rax
	shlq	$4, %rax
	addq	%rax, %rcx
	movslq	-24(%rbp), %rax
	movl	(%rcx,%rax,4), %eax
	movq	enc_picture, %rcx
	movq	6464(%rcx), %rcx
	movslq	-12(%rbp), %rdx
	movq	(%rcx,%rdx,8), %rcx
	movl	-44(%rbp), %edx
	addl	-28(%rbp), %edx
	addl	-84(%rbp), %edx
	movslq	%edx, %rdx
	movq	(%rcx,%rdx,8), %rcx
	movl	-68(%rbp), %edx
	addl	-24(%rbp), %edx
	addl	-80(%rbp), %edx
	movslq	%edx, %rdx
	movw	%ax, (%rcx,%rdx,2)
# %bb.411:                              # %for.inc2020
                                        #   in Loop: Header=BB9_409 Depth=4
	movl	-24(%rbp), %eax
	addl	$1, %eax
	movl	%eax, -24(%rbp)
	jmp	.LBB9_409
.LBB9_412:                              # %for.end2022
                                        #   in Loop: Header=BB9_407 Depth=3
	jmp	.LBB9_413
.LBB9_413:                              # %for.inc2023
                                        #   in Loop: Header=BB9_407 Depth=3
	movl	-28(%rbp), %eax
	addl	$1, %eax
	movl	%eax, -28(%rbp)
	jmp	.LBB9_407
.LBB9_414:                              # %for.end2025
                                        #   in Loop: Header=BB9_405 Depth=2
	jmp	.LBB9_415
.LBB9_415:                              # %for.inc2026
                                        #   in Loop: Header=BB9_405 Depth=2
	movl	-12(%rbp), %eax
	addl	$1, %eax
	movl	%eax, -12(%rbp)
	jmp	.LBB9_405
.LBB9_416:                              # %for.end2028
                                        #   in Loop: Header=BB9_403 Depth=1
	jmp	.LBB9_417
.LBB9_417:                              # %for.inc2029
                                        #   in Loop: Header=BB9_403 Depth=1
	movl	-20(%rbp), %eax
	addl	$1, %eax
	movl	%eax, -20(%rbp)
	jmp	.LBB9_403
.LBB9_418:                              # %for.end2031
	jmp	.LBB9_419
.LBB9_419:                              # %if.end2032
	jmp	.LBB9_420
.LBB9_420:                              # %if.end2033
	movl	-108(%rbp), %ebx
	cmpl	$437796339, -196(%rbp)  # imm = 0x1A183DF3
	jne	.LBB9_422
.LBB9_421:
	movl	%ebx, %eax
	addq	$1144, %rsp             # imm = 0x478
	popq	%rbx
	popq	%rbp
	.cfi_def_cfa %rsp, 8
	retq
.LBB9_422:                              # %func_exit
	.cfi_def_cfa %rbp, 16
	callq	detect_breach
	jmp	.LBB9_421
.Lfunc_end9:
	.size	Mode_Decision_for_new_8x8IntraBlocks.4, .Lfunc_end9-Mode_Decision_for_new_8x8IntraBlocks.4
	.cfi_endproc
                                        # -- End function
	.globl	RDCost_for_8x8IntraBlocks.5 # -- Begin function RDCost_for_8x8IntraBlocks.5
	.p2align	4, 0x90
	.type	RDCost_for_8x8IntraBlocks.5,@function
RDCost_for_8x8IntraBlocks.5:            # @RDCost_for_8x8IntraBlocks.5
	.cfi_startproc
# %bb.0:                                # %entry
	pushq	%rbp
	.cfi_def_cfa_offset 16
	.cfi_offset %rbp, -16
	movq	%rsp, %rbp
	.cfi_def_cfa_register %rbp
	subq	$176, %rsp
	movl	$1084905932, -72(%rbp)  # imm = 0x40AA59CC
	movq	%rdi, -144(%rbp)
	movl	%esi, -8(%rbp)
	movl	%edx, -32(%rbp)
	vmovsd	%xmm0, -168(%rbp)
	vmovsd	%xmm1, -176(%rbp)
	movl	%ecx, -40(%rbp)
	vxorps	%xmm0, %xmm0, %xmm0
	vmovsd	%xmm0, -96(%rbp)
	movq	$0, -64(%rbp)
	movl	-8(%rbp), %eax
	cltd
	movl	$2, %ecx
	idivl	%ecx
	shll	$3, %edx
	movl	%edx, -84(%rbp)
	movl	-8(%rbp), %eax
	cltd
	idivl	%ecx
	shll	$3, %eax
	movl	%eax, -36(%rbp)
	movq	img, %rax
	movl	152(%rax), %eax
	addl	-84(%rbp), %eax
	movl	%eax, -44(%rbp)
	movq	img, %rax
	movl	156(%rax), %eax
	addl	-36(%rbp), %eax
	movl	%eax, -68(%rbp)
	movq	img, %rax
	movl	172(%rax), %eax
	addl	-36(%rbp), %eax
	movl	%eax, -76(%rbp)
	movq	imgY_org, %rax
	movq	%rax, -160(%rbp)
	movq	enc_picture, %rax
	movq	6424(%rax), %rax
	movq	%rax, -152(%rbp)
	movq	img, %rax
	movq	14160(%rax), %rax
	movq	%rax, -104(%rbp)
	movq	img, %rax
	movq	14168(%rax), %rax
	movq	img, %rcx
	movslq	12(%rcx), %rcx
	imulq	$632, %rcx, %rcx        # imm = 0x278
	addq	%rcx, %rax
	movq	%rax, -112(%rbp)
	movq	img, %rax
	addq	$14176, %rax            # imm = 0x3760
	movq	-112(%rbp), %rcx
	movslq	(%rcx), %rcx
	imulq	$48, %rcx, %rcx
	addq	%rcx, %rax
	movq	%rax, -24(%rbp)
	movq	input, %rax
	movslq	2364(%rax), %rax
	movq	assignSE2partition(,%rax,8), %rax
	movq	%rax, -128(%rbp)
	movl	$0, -80(%rbp)
	movl	-8(%rbp), %edi
	leaq	-80(%rbp), %rsi
	movl	$1, %edx
	callq	dct_luma8x8
	movq	-144(%rbp), %rcx
	movl	%eax, (%rcx)
	movl	$0, -12(%rbp)
.LBB10_1:                               # %for.cond
                                        # =>This Loop Header: Depth=1
                                        #     Child Loop BB10_3 Depth 2
	cmpl	$8, -12(%rbp)
	jge	.LBB10_8
# %bb.2:                                # %for.body
                                        #   in Loop: Header=BB10_1 Depth=1
	movl	-44(%rbp), %eax
	movl	%eax, -16(%rbp)
.LBB10_3:                               # %for.cond9
                                        #   Parent Loop BB10_1 Depth=1
                                        # =>  This Inner Loop Header: Depth=2
	movl	-16(%rbp), %eax
	movl	-44(%rbp), %ecx
	addl	$8, %ecx
	cmpl	%ecx, %eax
	jge	.LBB10_6
# %bb.4:                                # %for.body12
                                        #   in Loop: Header=BB10_3 Depth=2
	movq	img, %rax
	movq	71776(%rax), %rax
	movq	-160(%rbp), %rcx
	movl	-76(%rbp), %edx
	addl	-12(%rbp), %edx
	movslq	%edx, %rdx
	movq	(%rcx,%rdx,8), %rcx
	movslq	-16(%rbp), %rdx
	movzwl	(%rcx,%rdx,2), %ecx
	movq	-152(%rbp), %rdx
	movl	-68(%rbp), %esi
	addl	-12(%rbp), %esi
	movslq	%esi, %rsi
	movq	(%rdx,%rsi,8), %rdx
	movslq	-16(%rbp), %rsi
	movzwl	(%rdx,%rsi,2), %edx
	subl	%edx, %ecx
	movslq	%ecx, %rcx
	movslq	(%rax,%rcx,4), %rax
	addq	-64(%rbp), %rax
	movq	%rax, -64(%rbp)
# %bb.5:                                # %for.inc
                                        #   in Loop: Header=BB10_3 Depth=2
	movl	-16(%rbp), %eax
	addl	$1, %eax
	movl	%eax, -16(%rbp)
	jmp	.LBB10_3
.LBB10_6:                               # %for.end
                                        #   in Loop: Header=BB10_1 Depth=1
	jmp	.LBB10_7
.LBB10_7:                               # %for.inc28
                                        #   in Loop: Header=BB10_1 Depth=1
	movl	-12(%rbp), %eax
	addl	$1, %eax
	movl	%eax, -12(%rbp)
	jmp	.LBB10_1
.LBB10_8:                               # %for.end30
	movl	-40(%rbp), %eax
	cmpl	-32(%rbp), %eax
	jne	.LBB10_10
# %bb.9:                                # %cond.true
	movl	$4294967295, %eax       # imm = 0xFFFFFFFF
	jmp	.LBB10_14
.LBB10_10:                              # %cond.false
	movl	-32(%rbp), %eax
	cmpl	-40(%rbp), %eax
	jge	.LBB10_12
# %bb.11:                               # %cond.true35
	movl	-32(%rbp), %eax
	jmp	.LBB10_13
.LBB10_12:                              # %cond.false36
	movl	-32(%rbp), %eax
	subl	$1, %eax
.LBB10_13:                              # %cond.end
.LBB10_14:                              # %cond.end38
	movq	-24(%rbp), %rcx
	movl	%eax, 4(%rcx)
	movl	-8(%rbp), %eax
	movq	-24(%rbp), %rcx
	movl	%eax, 24(%rcx)
	movq	-24(%rbp), %rax
	movl	$4, (%rax)
	movq	input, %rax
	cmpl	$0, 2356(%rax)
	je	.LBB10_16
# %bb.15:                               # %if.then
	movq	-24(%rbp), %rax
	movabsq	$writeIntraPredMode_CABAC, %rcx
	movq	%rcx, 40(%rax)
.LBB10_16:                              # %if.end
	movq	img, %rax
	cmpl	$1, 24(%rax)
	je	.LBB10_18
# %bb.17:                               # %if.then45
	movq	-104(%rbp), %rax
	movq	24(%rax), %rax
	movq	-128(%rbp), %rcx
	movslq	16(%rcx), %rcx
	imulq	$120, %rcx, %rcx
	addq	%rcx, %rax
	movq	%rax, -56(%rbp)
	jmp	.LBB10_19
.LBB10_18:                              # %if.else
	movq	-104(%rbp), %rax
	movq	24(%rax), %rax
	movq	-128(%rbp), %rcx
	movslq	72(%rcx), %rcx
	imulq	$120, %rcx, %rcx
	addq	%rcx, %rax
	movq	%rax, -56(%rbp)
.LBB10_19:                              # %if.end53
	movq	input, %rax
	cmpl	$0, 2356(%rax)
	jne	.LBB10_21
# %bb.20:                               # %if.then57
	movq	-24(%rbp), %rdi
	movq	-56(%rbp), %rsi
	callq	writeSyntaxElement_Intra4x4PredictionMode
	jmp	.LBB10_22
.LBB10_21:                              # %if.else59
	movq	-56(%rbp), %rax
	movq	112(%rax), %rax
	movq	-24(%rbp), %rdi
	movq	-56(%rbp), %rsi
	callq	*%rax
.LBB10_22:                              # %if.end61
	movq	-24(%rbp), %rax
	movl	12(%rax), %eax
	movl	%eax, -4(%rbp)
	movq	-24(%rbp), %rax
	addq	$48, %rax
	movq	%rax, -24(%rbp)
	movq	-112(%rbp), %rax
	movl	(%rax), %ecx
	addl	$1, %ecx
	movl	%ecx, (%rax)
	movq	input, %rax
	cmpl	$0, 2356(%rax)
	jne	.LBB10_28
# %bb.23:                               # %if.then67
	movl	$0, -28(%rbp)
.LBB10_24:                              # %for.cond68
                                        # =>This Inner Loop Header: Depth=1
	cmpl	$4, -28(%rbp)
	jge	.LBB10_27
# %bb.25:                               # %for.body71
                                        #   in Loop: Header=BB10_24 Depth=1
	movl	-8(%rbp), %esi
	movl	-28(%rbp), %edx
	xorl	%edi, %edi
	xorl	%ecx, %ecx
	callq	writeCoeff4x4_CAVLC
	addl	-4(%rbp), %eax
	movl	%eax, -4(%rbp)
# %bb.26:                               # %for.inc74
                                        #   in Loop: Header=BB10_24 Depth=1
	movl	-28(%rbp), %eax
	addl	$1, %eax
	movl	%eax, -28(%rbp)
	jmp	.LBB10_24
.LBB10_27:                              # %for.end76
	jmp	.LBB10_29
.LBB10_28:                              # %if.else77
	movl	-8(%rbp), %edi
	movl	$1, %esi
	callq	writeLumaCoeff8x8_CABAC
	addl	-4(%rbp), %eax
	movl	%eax, -4(%rbp)
.LBB10_29:                              # %if.end80
	vcvtsi2sdq	-64(%rbp), %xmm0, %xmm0
	vmovsd	-168(%rbp), %xmm1       # xmm1 = mem[0],zero
	vcvtsi2sdl	-4(%rbp), %xmm0, %xmm2
	vmulsd	%xmm2, %xmm1, %xmm1
	vaddsd	%xmm1, %xmm0, %xmm0
	vmovsd	%xmm0, -96(%rbp)
	movq	img, %rax
	cmpl	$0, 72724(%rax)
	je	.LBB10_31
# %bb.30:                               # %if.then85
	vcvtsi2sdl	-4(%rbp), %xmm0, %xmm0
	vmovsd	%xmm0, -120(%rbp)
	jmp	.LBB10_32
.LBB10_31:                              # %if.else87
	vmovsd	-96(%rbp), %xmm0        # xmm0 = mem[0],zero
	vmovsd	%xmm0, -120(%rbp)
.LBB10_32:                              # %return
	vmovsd	-120(%rbp), %xmm0       # xmm0 = mem[0],zero
	cmpl	$1084905932, -72(%rbp)  # imm = 0x40AA59CC
	jne	.LBB10_34
.LBB10_33:
	addq	$176, %rsp
	popq	%rbp
	.cfi_def_cfa %rsp, 8
	retq
.LBB10_34:                              # %func_exit
	.cfi_def_cfa %rbp, 16
	vmovsd	%xmm0, -136(%rbp)       # 8-byte Spill
	callq	detect_breach
	vmovsd	-136(%rbp), %xmm0       # 8-byte Reload
                                        # xmm0 = mem[0],zero
	jmp	.LBB10_33
.Lfunc_end10:
	.size	RDCost_for_8x8IntraBlocks.5, .Lfunc_end10-RDCost_for_8x8IntraBlocks.5
	.cfi_endproc
                                        # -- End function
	.globl	intrapred_luma8x8.6     # -- Begin function intrapred_luma8x8.6
	.p2align	4, 0x90
	.type	intrapred_luma8x8.6,@function
intrapred_luma8x8.6:                    # @intrapred_luma8x8.6
	.cfi_startproc
# %bb.0:                                # %entry
	pushq	%rbp
	.cfi_def_cfa_offset 16
	.cfi_offset %rbp, -16
	movq	%rsp, %rbp
	.cfi_def_cfa_register %rbp
	subq	$464, %rsp              # imm = 0x1D0
	movl	$2064371389, -224(%rbp) # imm = 0x7B0BCEBD
	movl	%edi, -212(%rbp)
	movl	%esi, -216(%rbp)
	movq	%rdx, -272(%rbp)
	movq	%rcx, -256(%rbp)
	movq	%r8, -264(%rbp)
	movq	enc_picture, %rax
	movq	6424(%rax), %rax
	movq	%rax, -128(%rbp)
	movl	-212(%rbp), %eax
	andl	$15, %eax
	movl	%eax, -148(%rbp)
	movl	-216(%rbp), %eax
	andl	$15, %eax
	movl	%eax, -144(%rbp)
	movq	img, %rax
	movl	12(%rax), %eax
	movl	%eax, -156(%rbp)
	movl	$0, -4(%rbp)
.LBB11_1:                               # %for.cond
                                        # =>This Inner Loop Header: Depth=1
	cmpl	$8, -4(%rbp)
	jge	.LBB11_4
# %bb.2:                                # %for.body
                                        #   in Loop: Header=BB11_1 Depth=1
	movl	-156(%rbp), %edi
	movl	-148(%rbp), %esi
	subl	$1, %esi
	movl	-144(%rbp), %edx
	addl	-4(%rbp), %edx
	movslq	-4(%rbp), %rax
	imulq	$24, %rax, %rax
	leaq	-464(%rbp), %r8
	addq	%rax, %r8
	movl	$1, %ecx
	callq	getNeighbour
# %bb.3:                                # %for.inc
                                        #   in Loop: Header=BB11_1 Depth=1
	movl	-4(%rbp), %eax
	addl	$1, %eax
	movl	%eax, -4(%rbp)
	jmp	.LBB11_1
.LBB11_4:                               # %for.end
	movl	-156(%rbp), %edi
	movl	-148(%rbp), %esi
	movl	-144(%rbp), %edx
	subl	$1, %edx
	movl	$1, %ecx
	leaq	-208(%rbp), %r8
	callq	getNeighbour
	movl	-156(%rbp), %edi
	movl	-148(%rbp), %esi
	addl	$8, %esi
	movl	-144(%rbp), %edx
	subl	$1, %edx
	movl	$1, %ecx
	leaq	-184(%rbp), %r8
	callq	getNeighbour
	movl	-156(%rbp), %edi
	movl	-148(%rbp), %esi
	subl	$1, %esi
	movl	-144(%rbp), %edx
	subl	$1, %edx
	movl	$1, %ecx
	leaq	-248(%rbp), %r8
	callq	getNeighbour
	xorl	%eax, %eax
	cmpl	$0, -184(%rbp)
	je	.LBB11_8
# %bb.5:                                # %land.rhs
	xorl	%eax, %eax
	cmpl	$8, -148(%rbp)
	jne	.LBB11_7
# %bb.6:                                # %land.rhs9
	cmpl	$8, -144(%rbp)
	sete	%al
.LBB11_7:                               # %land.end
	xorb	$-1, %al
.LBB11_8:                               # %land.end11
	andb	$1, %al
	movzbl	%al, %eax
	movl	%eax, -184(%rbp)
	movq	input, %rax
	cmpl	$0, 216(%rax)
	je	.LBB11_26
# %bb.9:                                # %if.then
	movl	$0, -4(%rbp)
	movl	$1, -116(%rbp)
.LBB11_10:                              # %for.cond14
                                        # =>This Inner Loop Header: Depth=1
	cmpl	$8, -4(%rbp)
	jge	.LBB11_16
# %bb.11:                               # %for.body16
                                        #   in Loop: Header=BB11_10 Depth=1
	movslq	-4(%rbp), %rax
	imulq	$24, %rax, %rax
	leaq	-464(%rbp), %rcx
	addq	%rax, %rcx
	cmpl	$0, (%rcx)
	je	.LBB11_13
# %bb.12:                               # %cond.true
                                        #   in Loop: Header=BB11_10 Depth=1
	movq	img, %rax
	movq	71784(%rax), %rax
	movslq	-4(%rbp), %rcx
	imulq	$24, %rcx, %rcx
	leaq	-464(%rbp), %rdx
	addq	%rcx, %rdx
	movslq	4(%rdx), %rcx
	movl	(%rax,%rcx,4), %eax
	jmp	.LBB11_14
.LBB11_13:                              # %cond.false
                                        #   in Loop: Header=BB11_10 Depth=1
	xorl	%eax, %eax
	jmp	.LBB11_14
.LBB11_14:                              # %cond.end
                                        #   in Loop: Header=BB11_10 Depth=1
	andl	-116(%rbp), %eax
	movl	%eax, -116(%rbp)
# %bb.15:                               # %for.inc26
                                        #   in Loop: Header=BB11_10 Depth=1
	movl	-4(%rbp), %eax
	addl	$1, %eax
	movl	%eax, -4(%rbp)
	jmp	.LBB11_10
.LBB11_16:                              # %for.end28
	cmpl	$0, -208(%rbp)
	je	.LBB11_18
# %bb.17:                               # %cond.true31
	movq	img, %rax
	movq	71784(%rax), %rax
	movslq	-204(%rbp), %rcx
	movl	(%rax,%rcx,4), %eax
	jmp	.LBB11_19
.LBB11_18:                              # %cond.false36
	xorl	%eax, %eax
	jmp	.LBB11_19
.LBB11_19:                              # %cond.end37
	movl	%eax, -132(%rbp)
	cmpl	$0, -184(%rbp)
	je	.LBB11_21
# %bb.20:                               # %cond.true41
	movq	img, %rax
	movq	71784(%rax), %rax
	movslq	-180(%rbp), %rcx
	movl	(%rax,%rcx,4), %eax
	jmp	.LBB11_22
.LBB11_21:                              # %cond.false46
	xorl	%eax, %eax
	jmp	.LBB11_22
.LBB11_22:                              # %cond.end47
	movl	%eax, -220(%rbp)
	cmpl	$0, -248(%rbp)
	je	.LBB11_24
# %bb.23:                               # %cond.true51
	movq	img, %rax
	movq	71784(%rax), %rax
	movslq	-244(%rbp), %rcx
	movl	(%rax,%rcx,4), %eax
	jmp	.LBB11_25
.LBB11_24:                              # %cond.false56
	xorl	%eax, %eax
	jmp	.LBB11_25
.LBB11_25:                              # %cond.end57
	movl	%eax, -152(%rbp)
	jmp	.LBB11_27
.LBB11_26:                              # %if.else
	movl	-464(%rbp), %eax
	movl	%eax, -116(%rbp)
	movl	-208(%rbp), %eax
	movl	%eax, -132(%rbp)
	movl	-184(%rbp), %eax
	movl	%eax, -220(%rbp)
	movl	-248(%rbp), %eax
	movl	%eax, -152(%rbp)
.LBB11_27:                              # %if.end
	xorl	%eax, %eax
	movl	-116(%rbp), %ecx
	movq	-272(%rbp), %rdx
	movl	%ecx, (%rdx)
	movl	-132(%rbp), %ecx
	movq	-256(%rbp), %rdx
	movl	%ecx, (%rdx)
	cmpl	$0, -132(%rbp)
	je	.LBB11_30
# %bb.28:                               # %land.lhs.true
	xorl	%eax, %eax
	cmpl	$0, -116(%rbp)
	je	.LBB11_30
# %bb.29:                               # %land.rhs66
	cmpl	$0, -152(%rbp)
	setne	%al
.LBB11_30:                              # %land.end68
	andb	$1, %al
	movzbl	%al, %eax
	movq	-264(%rbp), %rcx
	movl	%eax, (%rcx)
	movl	-212(%rbp), %eax
	andl	$15, %eax
	movl	%eax, -4(%rbp)
	movl	-216(%rbp), %eax
	andl	$15, %eax
	movl	%eax, -136(%rbp)
	cmpl	$0, -132(%rbp)
	je	.LBB11_32
# %bb.31:                               # %if.then73
	movq	-128(%rbp), %rax
	movslq	-188(%rbp), %rcx
	movq	(%rax,%rcx,8), %rax
	movl	-192(%rbp), %ecx
	addl	$0, %ecx
	movslq	%ecx, %rcx
	movzwl	(%rax,%rcx,2), %eax
	movl	%eax, -108(%rbp)
	movq	-128(%rbp), %rax
	movslq	-188(%rbp), %rcx
	movq	(%rax,%rcx,8), %rax
	movl	-192(%rbp), %ecx
	addl	$1, %ecx
	movslq	%ecx, %rcx
	movzwl	(%rax,%rcx,2), %eax
	movl	%eax, -104(%rbp)
	movq	-128(%rbp), %rax
	movslq	-188(%rbp), %rcx
	movq	(%rax,%rcx,8), %rax
	movl	-192(%rbp), %ecx
	addl	$2, %ecx
	movslq	%ecx, %rcx
	movzwl	(%rax,%rcx,2), %eax
	movl	%eax, -100(%rbp)
	movq	-128(%rbp), %rax
	movslq	-188(%rbp), %rcx
	movq	(%rax,%rcx,8), %rax
	movl	-192(%rbp), %ecx
	addl	$3, %ecx
	movslq	%ecx, %rcx
	movzwl	(%rax,%rcx,2), %eax
	movl	%eax, -96(%rbp)
	movq	-128(%rbp), %rax
	movslq	-188(%rbp), %rcx
	movq	(%rax,%rcx,8), %rax
	movl	-192(%rbp), %ecx
	addl	$4, %ecx
	movslq	%ecx, %rcx
	movzwl	(%rax,%rcx,2), %eax
	movl	%eax, -92(%rbp)
	movq	-128(%rbp), %rax
	movslq	-188(%rbp), %rcx
	movq	(%rax,%rcx,8), %rax
	movl	-192(%rbp), %ecx
	addl	$5, %ecx
	movslq	%ecx, %rcx
	movzwl	(%rax,%rcx,2), %eax
	movl	%eax, -88(%rbp)
	movq	-128(%rbp), %rax
	movslq	-188(%rbp), %rcx
	movq	(%rax,%rcx,8), %rax
	movl	-192(%rbp), %ecx
	addl	$6, %ecx
	movslq	%ecx, %rcx
	movzwl	(%rax,%rcx,2), %eax
	movl	%eax, -84(%rbp)
	movq	-128(%rbp), %rax
	movslq	-188(%rbp), %rcx
	movq	(%rax,%rcx,8), %rax
	movl	-192(%rbp), %ecx
	addl	$7, %ecx
	movslq	%ecx, %rcx
	movzwl	(%rax,%rcx,2), %eax
	movl	%eax, -80(%rbp)
	jmp	.LBB11_33
.LBB11_32:                              # %if.else143
	movq	img, %rax
	movl	72680(%rax), %eax
	movl	%eax, -80(%rbp)
	movl	%eax, -84(%rbp)
	movl	%eax, -88(%rbp)
	movl	%eax, -92(%rbp)
	movl	%eax, -96(%rbp)
	movl	%eax, -100(%rbp)
	movl	%eax, -104(%rbp)
	movl	%eax, -108(%rbp)
.LBB11_33:                              # %if.end152
	cmpl	$0, -220(%rbp)
	je	.LBB11_35
# %bb.34:                               # %if.then154
	movq	-128(%rbp), %rax
	movslq	-164(%rbp), %rcx
	movq	(%rax,%rcx,8), %rax
	movl	-168(%rbp), %ecx
	addl	$0, %ecx
	movslq	%ecx, %rcx
	movzwl	(%rax,%rcx,2), %eax
	movl	%eax, -76(%rbp)
	movq	-128(%rbp), %rax
	movslq	-164(%rbp), %rcx
	movq	(%rax,%rcx,8), %rax
	movl	-168(%rbp), %ecx
	addl	$1, %ecx
	movslq	%ecx, %rcx
	movzwl	(%rax,%rcx,2), %eax
	movl	%eax, -72(%rbp)
	movq	-128(%rbp), %rax
	movslq	-164(%rbp), %rcx
	movq	(%rax,%rcx,8), %rax
	movl	-168(%rbp), %ecx
	addl	$2, %ecx
	movslq	%ecx, %rcx
	movzwl	(%rax,%rcx,2), %eax
	movl	%eax, -68(%rbp)
	movq	-128(%rbp), %rax
	movslq	-164(%rbp), %rcx
	movq	(%rax,%rcx,8), %rax
	movl	-168(%rbp), %ecx
	addl	$3, %ecx
	movslq	%ecx, %rcx
	movzwl	(%rax,%rcx,2), %eax
	movl	%eax, -64(%rbp)
	movq	-128(%rbp), %rax
	movslq	-164(%rbp), %rcx
	movq	(%rax,%rcx,8), %rax
	movl	-168(%rbp), %ecx
	addl	$4, %ecx
	movslq	%ecx, %rcx
	movzwl	(%rax,%rcx,2), %eax
	movl	%eax, -60(%rbp)
	movq	-128(%rbp), %rax
	movslq	-164(%rbp), %rcx
	movq	(%rax,%rcx,8), %rax
	movl	-168(%rbp), %ecx
	addl	$5, %ecx
	movslq	%ecx, %rcx
	movzwl	(%rax,%rcx,2), %eax
	movl	%eax, -56(%rbp)
	movq	-128(%rbp), %rax
	movslq	-164(%rbp), %rcx
	movq	(%rax,%rcx,8), %rax
	movl	-168(%rbp), %ecx
	addl	$6, %ecx
	movslq	%ecx, %rcx
	movzwl	(%rax,%rcx,2), %eax
	movl	%eax, -52(%rbp)
	movq	-128(%rbp), %rax
	movslq	-164(%rbp), %rcx
	movq	(%rax,%rcx,8), %rax
	movl	-168(%rbp), %ecx
	addl	$7, %ecx
	movslq	%ecx, %rcx
	movzwl	(%rax,%rcx,2), %eax
	movl	%eax, -48(%rbp)
	jmp	.LBB11_36
.LBB11_35:                              # %if.else227
	movl	-80(%rbp), %eax
	movl	%eax, -48(%rbp)
	movl	%eax, -52(%rbp)
	movl	%eax, -56(%rbp)
	movl	%eax, -60(%rbp)
	movl	%eax, -64(%rbp)
	movl	%eax, -68(%rbp)
	movl	%eax, -72(%rbp)
	movl	%eax, -76(%rbp)
.LBB11_36:                              # %if.end237
	cmpl	$0, -116(%rbp)
	je	.LBB11_38
# %bb.37:                               # %if.then239
	movq	-128(%rbp), %rax
	movslq	-444(%rbp), %rcx
	movq	(%rax,%rcx,8), %rax
	movslq	-448(%rbp), %rcx
	movzwl	(%rax,%rcx,2), %eax
	movl	%eax, -44(%rbp)
	movq	-128(%rbp), %rax
	movslq	-420(%rbp), %rcx
	movq	(%rax,%rcx,8), %rax
	movslq	-424(%rbp), %rcx
	movzwl	(%rax,%rcx,2), %eax
	movl	%eax, -40(%rbp)
	movq	-128(%rbp), %rax
	movslq	-396(%rbp), %rcx
	movq	(%rax,%rcx,8), %rax
	movslq	-400(%rbp), %rcx
	movzwl	(%rax,%rcx,2), %eax
	movl	%eax, -36(%rbp)
	movq	-128(%rbp), %rax
	movslq	-372(%rbp), %rcx
	movq	(%rax,%rcx,8), %rax
	movslq	-376(%rbp), %rcx
	movzwl	(%rax,%rcx,2), %eax
	movl	%eax, -32(%rbp)
	movq	-128(%rbp), %rax
	movslq	-348(%rbp), %rcx
	movq	(%rax,%rcx,8), %rax
	movslq	-352(%rbp), %rcx
	movzwl	(%rax,%rcx,2), %eax
	movl	%eax, -28(%rbp)
	movq	-128(%rbp), %rax
	movslq	-324(%rbp), %rcx
	movq	(%rax,%rcx,8), %rax
	movslq	-328(%rbp), %rcx
	movzwl	(%rax,%rcx,2), %eax
	movl	%eax, -24(%rbp)
	movq	-128(%rbp), %rax
	movslq	-300(%rbp), %rcx
	movq	(%rax,%rcx,8), %rax
	movslq	-304(%rbp), %rcx
	movzwl	(%rax,%rcx,2), %eax
	movl	%eax, -20(%rbp)
	movq	-128(%rbp), %rax
	movslq	-276(%rbp), %rcx
	movq	(%rax,%rcx,8), %rax
	movslq	-280(%rbp), %rcx
	movzwl	(%rax,%rcx,2), %eax
	movl	%eax, -16(%rbp)
	jmp	.LBB11_39
.LBB11_38:                              # %if.else320
	movq	img, %rax
	movl	72680(%rax), %eax
	movl	%eax, -16(%rbp)
	movl	%eax, -20(%rbp)
	movl	%eax, -24(%rbp)
	movl	%eax, -28(%rbp)
	movl	%eax, -32(%rbp)
	movl	%eax, -36(%rbp)
	movl	%eax, -40(%rbp)
	movl	%eax, -44(%rbp)
.LBB11_39:                              # %if.end330
	cmpl	$0, -152(%rbp)
	je	.LBB11_41
# %bb.40:                               # %if.then332
	movq	-128(%rbp), %rax
	movslq	-228(%rbp), %rcx
	movq	(%rax,%rcx,8), %rax
	movslq	-232(%rbp), %rcx
	movzwl	(%rax,%rcx,2), %eax
	movl	%eax, -112(%rbp)
	jmp	.LBB11_42
.LBB11_41:                              # %if.else341
	movq	img, %rax
	movl	72680(%rax), %eax
	movl	%eax, -112(%rbp)
.LBB11_42:                              # %if.end344
	movl	$0, -4(%rbp)
.LBB11_43:                              # %for.cond345
                                        # =>This Inner Loop Header: Depth=1
	cmpl	$9, -4(%rbp)
	jge	.LBB11_46
# %bb.44:                               # %for.body348
                                        #   in Loop: Header=BB11_43 Depth=1
	movq	img, %rax
	addq	$7352, %rax             # imm = 0x1CB8
	movslq	-4(%rbp), %rcx
	shlq	$7, %rcx
	addq	%rcx, %rax
	movw	$-1, (%rax)
# %bb.45:                               # %for.inc353
                                        #   in Loop: Header=BB11_43 Depth=1
	movl	-4(%rbp), %eax
	addl	$1, %eax
	movl	%eax, -4(%rbp)
	jmp	.LBB11_43
.LBB11_46:                              # %for.end355
	leaq	-112(%rbp), %rdi
	movl	-152(%rbp), %esi
	movl	-132(%rbp), %edx
	movl	-116(%rbp), %ecx
	callq	LowPassForIntra8x8Pred
	movl	$0, -140(%rbp)
	cmpl	$0, -132(%rbp)
	je	.LBB11_49
# %bb.47:                               # %land.lhs.true358
	cmpl	$0, -116(%rbp)
	je	.LBB11_49
# %bb.48:                               # %if.then360
	movl	-108(%rbp), %eax
	addl	-104(%rbp), %eax
	addl	-100(%rbp), %eax
	addl	-96(%rbp), %eax
	addl	-92(%rbp), %eax
	addl	-88(%rbp), %eax
	addl	-84(%rbp), %eax
	addl	-80(%rbp), %eax
	addl	-44(%rbp), %eax
	addl	-40(%rbp), %eax
	addl	-36(%rbp), %eax
	addl	-32(%rbp), %eax
	addl	-28(%rbp), %eax
	addl	-24(%rbp), %eax
	addl	-20(%rbp), %eax
	addl	-16(%rbp), %eax
	addl	$8, %eax
	sarl	$4, %eax
	movl	%eax, -140(%rbp)
	jmp	.LBB11_58
.LBB11_49:                              # %if.else393
	cmpl	$0, -132(%rbp)
	jne	.LBB11_52
# %bb.50:                               # %land.lhs.true395
	cmpl	$0, -116(%rbp)
	je	.LBB11_52
# %bb.51:                               # %if.then397
	movl	-44(%rbp), %eax
	addl	-40(%rbp), %eax
	addl	-36(%rbp), %eax
	addl	-32(%rbp), %eax
	addl	-28(%rbp), %eax
	addl	-24(%rbp), %eax
	addl	-20(%rbp), %eax
	addl	-16(%rbp), %eax
	addl	$4, %eax
	sarl	$3, %eax
	movl	%eax, -140(%rbp)
	jmp	.LBB11_57
.LBB11_52:                              # %if.else415
	cmpl	$0, -132(%rbp)
	je	.LBB11_55
# %bb.53:                               # %land.lhs.true417
	cmpl	$0, -116(%rbp)
	jne	.LBB11_55
# %bb.54:                               # %if.then419
	movl	-108(%rbp), %eax
	addl	-104(%rbp), %eax
	addl	-100(%rbp), %eax
	addl	-96(%rbp), %eax
	addl	-92(%rbp), %eax
	addl	-88(%rbp), %eax
	addl	-84(%rbp), %eax
	addl	-80(%rbp), %eax
	addl	$4, %eax
	sarl	$3, %eax
	movl	%eax, -140(%rbp)
	jmp	.LBB11_56
.LBB11_55:                              # %if.else437
	movq	img, %rax
	movl	72680(%rax), %eax
	movl	%eax, -140(%rbp)
.LBB11_56:                              # %if.end439
	jmp	.LBB11_57
.LBB11_57:                              # %if.end440
	jmp	.LBB11_58
.LBB11_58:                              # %if.end441
	movl	$0, -136(%rbp)
.LBB11_59:                              # %for.cond442
                                        # =>This Loop Header: Depth=1
                                        #     Child Loop BB11_61 Depth 2
	cmpl	$8, -136(%rbp)
	jge	.LBB11_66
# %bb.60:                               # %for.body445
                                        #   in Loop: Header=BB11_59 Depth=1
	movl	$0, -4(%rbp)
.LBB11_61:                              # %for.cond446
                                        #   Parent Loop BB11_59 Depth=1
                                        # =>  This Inner Loop Header: Depth=2
	cmpl	$8, -4(%rbp)
	jge	.LBB11_64
# %bb.62:                               # %for.body449
                                        #   in Loop: Header=BB11_61 Depth=2
	movl	-140(%rbp), %eax
	movq	img, %rcx
	addq	$7352, %rcx             # imm = 0x1CB8
	addq	$256, %rcx              # imm = 0x100
	movslq	-4(%rbp), %rdx
	shlq	$4, %rdx
	addq	%rdx, %rcx
	movslq	-136(%rbp), %rdx
	movw	%ax, (%rcx,%rdx,2)
# %bb.63:                               # %for.inc457
                                        #   in Loop: Header=BB11_61 Depth=2
	movl	-4(%rbp), %eax
	addl	$1, %eax
	movl	%eax, -4(%rbp)
	jmp	.LBB11_61
.LBB11_64:                              # %for.end459
                                        #   in Loop: Header=BB11_59 Depth=1
	jmp	.LBB11_65
.LBB11_65:                              # %for.inc460
                                        #   in Loop: Header=BB11_59 Depth=1
	movl	-136(%rbp), %eax
	addl	$1, %eax
	movl	%eax, -136(%rbp)
	jmp	.LBB11_59
.LBB11_66:                              # %for.end462
	movl	$0, -4(%rbp)
.LBB11_67:                              # %for.cond463
                                        # =>This Inner Loop Header: Depth=1
	cmpl	$8, -4(%rbp)
	jge	.LBB11_70
# %bb.68:                               # %for.body466
                                        #   in Loop: Header=BB11_67 Depth=1
	movslq	-4(%rbp), %rax
	movl	-108(%rbp,%rax,4), %eax
	movq	img, %rcx
	movslq	-4(%rbp), %rdx
	movw	%ax, 7464(%rcx,%rdx,2)
	movq	img, %rcx
	movslq	-4(%rbp), %rdx
	movw	%ax, 7448(%rcx,%rdx,2)
	movq	img, %rcx
	movslq	-4(%rbp), %rdx
	movw	%ax, 7432(%rcx,%rdx,2)
	movq	img, %rcx
	movslq	-4(%rbp), %rdx
	movw	%ax, 7416(%rcx,%rdx,2)
	movq	img, %rcx
	movslq	-4(%rbp), %rdx
	movw	%ax, 7400(%rcx,%rdx,2)
	movq	img, %rcx
	movslq	-4(%rbp), %rdx
	movw	%ax, 7384(%rcx,%rdx,2)
	movq	img, %rcx
	movslq	-4(%rbp), %rdx
	movw	%ax, 7368(%rcx,%rdx,2)
	movq	img, %rcx
	movslq	-4(%rbp), %rdx
	movw	%ax, 7352(%rcx,%rdx,2)
	movslq	-4(%rbp), %rax
	movl	-44(%rbp,%rax,4), %eax
	movq	img, %rcx
	addq	$7352, %rcx             # imm = 0x1CB8
	addq	$128, %rcx
	movslq	-4(%rbp), %rdx
	shlq	$4, %rdx
	addq	%rdx, %rcx
	movw	%ax, 14(%rcx)
