	.text
	.file	"vlc.c"
	.globl	ue_v                    # -- Begin function ue_v
	.p2align	4, 0x90
	.type	ue_v,@function
ue_v:                                   # @ue_v
	.cfi_startproc
# %bb.0:                                # %rand_bb
	pushq	%rbp
	.cfi_def_cfa_offset 16
	.cfi_offset %rbp, -16
	movq	%rsp, %rbp
	.cfi_def_cfa_register %rbp
	pushq	%r15
	pushq	%r14
	pushq	%rbx
	pushq	%rax
	.cfi_offset %rbx, -40
	.cfi_offset %r14, -32
	.cfi_offset %r15, -24
	movq	%rdx, %r14
	movl	%esi, %r15d
	movq	%rdi, %rbx
	callq	get_urand
	cmpl	$0, %eax
	jne	.LBB0_9
# %bb.1:                                # %func_ue_v.28
	movq	%rbx, %rdi
	movl	%r15d, %esi
	movq	%r14, %rdx
	callq	ue_v.28
	addq	$8, %rsp
	popq	%rbx
	popq	%r14
	popq	%r15
	popq	%rbp
	.cfi_def_cfa %rsp, 8
	retq
.LBB0_2:                                # %func_ue_v.58
	.cfi_def_cfa %rbp, 16
	movq	%rbx, %rdi
	movl	%r15d, %esi
	movq	%r14, %rdx
	callq	ue_v.58
	addq	$8, %rsp
	popq	%rbx
	popq	%r14
	popq	%r15
	popq	%rbp
	.cfi_def_cfa %rsp, 8
	retq
.LBB0_3:                                # %func_ue_v.60
	.cfi_def_cfa %rbp, 16
	movq	%rbx, %rdi
	movl	%r15d, %esi
	movq	%r14, %rdx
	callq	ue_v.60
	addq	$8, %rsp
	popq	%rbx
	popq	%r14
	popq	%r15
	popq	%rbp
	.cfi_def_cfa %rsp, 8
	retq
.LBB0_4:                                # %func_ue_v.73
	.cfi_def_cfa %rbp, 16
	movq	%rbx, %rdi
	movl	%r15d, %esi
	movq	%r14, %rdx
	callq	ue_v.73
	addq	$8, %rsp
	popq	%rbx
	popq	%r14
	popq	%r15
	popq	%rbp
	.cfi_def_cfa %rsp, 8
	retq
.LBB0_5:                                # %func_ue_v.78
	.cfi_def_cfa %rbp, 16
	movq	%rbx, %rdi
	movl	%r15d, %esi
	movq	%r14, %rdx
	callq	ue_v.78
	addq	$8, %rsp
	popq	%rbx
	popq	%r14
	popq	%r15
	popq	%rbp
	.cfi_def_cfa %rsp, 8
	retq
.LBB0_6:                                # %func_ue_v.89
	.cfi_def_cfa %rbp, 16
	movq	%rbx, %rdi
	movl	%r15d, %esi
	movq	%r14, %rdx
	callq	ue_v.89
	addq	$8, %rsp
	popq	%rbx
	popq	%r14
	popq	%r15
	popq	%rbp
	.cfi_def_cfa %rsp, 8
	retq
.LBB0_7:                                # %func_ue_v.91
	.cfi_def_cfa %rbp, 16
	movq	%rbx, %rdi
	movl	%r15d, %esi
	movq	%r14, %rdx
	callq	ue_v.91
	addq	$8, %rsp
	popq	%rbx
	popq	%r14
	popq	%r15
	popq	%rbp
	.cfi_def_cfa %rsp, 8
	retq
.LBB0_8:                                # %func_ue_v.93
	.cfi_def_cfa %rbp, 16
	movq	%rbx, %rdi
	movl	%r15d, %esi
	movq	%r14, %rdx
	callq	ue_v.93
	addq	$8, %rsp
	popq	%rbx
	popq	%r14
	popq	%r15
	popq	%rbp
	.cfi_def_cfa %rsp, 8
	retq
.LBB0_9:                                # %ctrl0
	.cfi_def_cfa %rbp, 16
	cmpl	$1, %eax
	je	.LBB0_2
# %bb.10:                               # %ctrl1
	cmpl	$2, %eax
	je	.LBB0_3
# %bb.11:                               # %ctrl2
	cmpl	$3, %eax
	je	.LBB0_4
# %bb.12:                               # %ctrl3
	cmpl	$4, %eax
	je	.LBB0_5
# %bb.13:                               # %ctrl4
	cmpl	$5, %eax
	je	.LBB0_6
# %bb.14:                               # %ctrl5
	cmpl	$6, %eax
	je	.LBB0_7
	jmp	.LBB0_8
.Lfunc_end0:
	.size	ue_v, .Lfunc_end0-ue_v
	.cfi_endproc
                                        # -- End function
	.globl	ue_linfo                # -- Begin function ue_linfo
	.p2align	4, 0x90
	.type	ue_linfo,@function
ue_linfo:                               # @ue_linfo
	.cfi_startproc
# %bb.0:                                # %rand_bb
	pushq	%rbp
	.cfi_def_cfa_offset 16
	.cfi_offset %rbp, -16
	movq	%rsp, %rbp
	.cfi_def_cfa_register %rbp
	pushq	%r15
	pushq	%r14
	pushq	%r12
	pushq	%rbx
	.cfi_offset %rbx, -48
	.cfi_offset %r12, -40
	.cfi_offset %r14, -32
	.cfi_offset %r15, -24
	movq	%rcx, %r14
	movq	%rdx, %r15
	movl	%esi, %r12d
	movl	%edi, %ebx
	callq	get_urand
	cmpl	$0, %eax
	jne	.LBB1_9
# %bb.1:                                # %func_ue_linfo.22
	movl	%ebx, %edi
	movl	%r12d, %esi
	movq	%r15, %rdx
	movq	%r14, %rcx
	callq	ue_linfo.22
	popq	%rbx
	popq	%r12
	popq	%r14
	popq	%r15
	popq	%rbp
	.cfi_def_cfa %rsp, 8
	retq
.LBB1_2:                                # %func_ue_linfo.56
	.cfi_def_cfa %rbp, 16
	movl	%ebx, %edi
	movl	%r12d, %esi
	movq	%r15, %rdx
	movq	%r14, %rcx
	callq	ue_linfo.56
	popq	%rbx
	popq	%r12
	popq	%r14
	popq	%r15
	popq	%rbp
	.cfi_def_cfa %rsp, 8
	retq
.LBB1_3:                                # %func_ue_linfo.83
	.cfi_def_cfa %rbp, 16
	movl	%ebx, %edi
	movl	%r12d, %esi
	movq	%r15, %rdx
	movq	%r14, %rcx
	callq	ue_linfo.83
	popq	%rbx
	popq	%r12
	popq	%r14
	popq	%r15
	popq	%rbp
	.cfi_def_cfa %rsp, 8
	retq
.LBB1_4:                                # %func_ue_linfo.126
	.cfi_def_cfa %rbp, 16
	movl	%ebx, %edi
	movl	%r12d, %esi
	movq	%r15, %rdx
	movq	%r14, %rcx
	callq	ue_linfo.126
	popq	%rbx
	popq	%r12
	popq	%r14
	popq	%r15
	popq	%rbp
	.cfi_def_cfa %rsp, 8
	retq
.LBB1_5:                                # %func_ue_linfo.131
	.cfi_def_cfa %rbp, 16
	movl	%ebx, %edi
	movl	%r12d, %esi
	movq	%r15, %rdx
	movq	%r14, %rcx
	callq	ue_linfo.131
	popq	%rbx
	popq	%r12
	popq	%r14
	popq	%r15
	popq	%rbp
	.cfi_def_cfa %rsp, 8
	retq
.LBB1_6:                                # %func_ue_linfo.133
	.cfi_def_cfa %rbp, 16
	movl	%ebx, %edi
	movl	%r12d, %esi
	movq	%r15, %rdx
	movq	%r14, %rcx
	callq	ue_linfo.133
	popq	%rbx
	popq	%r12
	popq	%r14
	popq	%r15
	popq	%rbp
	.cfi_def_cfa %rsp, 8
	retq
.LBB1_7:                                # %func_ue_linfo.145
	.cfi_def_cfa %rbp, 16
	movl	%ebx, %edi
	movl	%r12d, %esi
	movq	%r15, %rdx
	movq	%r14, %rcx
	callq	ue_linfo.145
	popq	%rbx
	popq	%r12
	popq	%r14
	popq	%r15
	popq	%rbp
	.cfi_def_cfa %rsp, 8
	retq
.LBB1_8:                                # %func_ue_linfo.147
	.cfi_def_cfa %rbp, 16
	movl	%ebx, %edi
	movl	%r12d, %esi
	movq	%r15, %rdx
	movq	%r14, %rcx
	callq	ue_linfo.147
	popq	%rbx
	popq	%r12
	popq	%r14
	popq	%r15
	popq	%rbp
	.cfi_def_cfa %rsp, 8
	retq
.LBB1_9:                                # %ctrl0
	.cfi_def_cfa %rbp, 16
	cmpl	$1, %eax
	je	.LBB1_2
# %bb.10:                               # %ctrl1
	cmpl	$2, %eax
	je	.LBB1_3
# %bb.11:                               # %ctrl2
	cmpl	$3, %eax
	je	.LBB1_4
# %bb.12:                               # %ctrl3
	cmpl	$4, %eax
	je	.LBB1_5
# %bb.13:                               # %ctrl4
	cmpl	$5, %eax
	je	.LBB1_6
# %bb.14:                               # %ctrl5
	cmpl	$6, %eax
	je	.LBB1_7
	jmp	.LBB1_8
.Lfunc_end1:
	.size	ue_linfo, .Lfunc_end1-ue_linfo
	.cfi_endproc
                                        # -- End function
	.globl	writeSyntaxElement_UVLC # -- Begin function writeSyntaxElement_UVLC
	.p2align	4, 0x90
	.type	writeSyntaxElement_UVLC,@function
writeSyntaxElement_UVLC:                # @writeSyntaxElement_UVLC
	.cfi_startproc
# %bb.0:                                # %rand_bb
	pushq	%rbp
	.cfi_def_cfa_offset 16
	.cfi_offset %rbp, -16
	movq	%rsp, %rbp
	.cfi_def_cfa_register %rbp
	pushq	%r14
	pushq	%rbx
	.cfi_offset %rbx, -32
	.cfi_offset %r14, -24
	movq	%rsi, %r14
	movq	%rdi, %rbx
	callq	get_urand
	cmpl	$0, %eax
	jne	.LBB2_2
# %bb.1:                                # %func_writeSyntaxElement_UVLC.3
	movq	%rbx, %rdi
	movq	%r14, %rsi
	callq	writeSyntaxElement_UVLC.3
	popq	%rbx
	popq	%r14
	popq	%rbp
	.cfi_def_cfa %rsp, 8
	retq
.LBB2_2:                                # %func_writeSyntaxElement_UVLC.57
	.cfi_def_cfa %rbp, 16
	movq	%rbx, %rdi
	movq	%r14, %rsi
	callq	writeSyntaxElement_UVLC.57
	popq	%rbx
	popq	%r14
	popq	%rbp
	.cfi_def_cfa %rsp, 8
	retq
.Lfunc_end2:
	.size	writeSyntaxElement_UVLC, .Lfunc_end2-writeSyntaxElement_UVLC
	.cfi_endproc
                                        # -- End function
	.globl	se_v                    # -- Begin function se_v
	.p2align	4, 0x90
	.type	se_v,@function
se_v:                                   # @se_v
	.cfi_startproc
# %bb.0:                                # %rand_bb
	pushq	%rbp
	.cfi_def_cfa_offset 16
	.cfi_offset %rbp, -16
	movq	%rsp, %rbp
	.cfi_def_cfa_register %rbp
	pushq	%r15
	pushq	%r14
	pushq	%rbx
	pushq	%rax
	.cfi_offset %rbx, -40
	.cfi_offset %r14, -32
	.cfi_offset %r15, -24
	movq	%rdx, %r14
	movl	%esi, %r15d
	movq	%rdi, %rbx
	callq	get_urand
	cmpl	$0, %eax
	jne	.LBB3_9
# %bb.1:                                # %func_se_v.49
	movq	%rbx, %rdi
	movl	%r15d, %esi
	movq	%r14, %rdx
	callq	se_v.49
	addq	$8, %rsp
	popq	%rbx
	popq	%r14
	popq	%r15
	popq	%rbp
	.cfi_def_cfa %rsp, 8
	retq
.LBB3_2:                                # %func_se_v.82
	.cfi_def_cfa %rbp, 16
	movq	%rbx, %rdi
	movl	%r15d, %esi
	movq	%r14, %rdx
	callq	se_v.82
	addq	$8, %rsp
	popq	%rbx
	popq	%r14
	popq	%r15
	popq	%rbp
	.cfi_def_cfa %rsp, 8
	retq
.LBB3_3:                                # %func_se_v.96
	.cfi_def_cfa %rbp, 16
	movq	%rbx, %rdi
	movl	%r15d, %esi
	movq	%r14, %rdx
	callq	se_v.96
	addq	$8, %rsp
	popq	%rbx
	popq	%r14
	popq	%r15
	popq	%rbp
	.cfi_def_cfa %rsp, 8
	retq
.LBB3_4:                                # %func_se_v.128
	.cfi_def_cfa %rbp, 16
	movq	%rbx, %rdi
	movl	%r15d, %esi
	movq	%r14, %rdx
	callq	se_v.128
	addq	$8, %rsp
	popq	%rbx
	popq	%r14
	popq	%r15
	popq	%rbp
	.cfi_def_cfa %rsp, 8
	retq
.LBB3_5:                                # %func_se_v.138
	.cfi_def_cfa %rbp, 16
	movq	%rbx, %rdi
	movl	%r15d, %esi
	movq	%r14, %rdx
	callq	se_v.138
	addq	$8, %rsp
	popq	%rbx
	popq	%r14
	popq	%r15
	popq	%rbp
	.cfi_def_cfa %rsp, 8
	retq
.LBB3_6:                                # %func_se_v.140
	.cfi_def_cfa %rbp, 16
	movq	%rbx, %rdi
	movl	%r15d, %esi
	movq	%r14, %rdx
	callq	se_v.140
	addq	$8, %rsp
	popq	%rbx
	popq	%r14
	popq	%r15
	popq	%rbp
	.cfi_def_cfa %rsp, 8
	retq
.LBB3_7:                                # %func_se_v.149
	.cfi_def_cfa %rbp, 16
	movq	%rbx, %rdi
	movl	%r15d, %esi
	movq	%r14, %rdx
	callq	se_v.149
	addq	$8, %rsp
	popq	%rbx
	popq	%r14
	popq	%r15
	popq	%rbp
	.cfi_def_cfa %rsp, 8
	retq
.LBB3_8:                                # %func_se_v.159
	.cfi_def_cfa %rbp, 16
	movq	%rbx, %rdi
	movl	%r15d, %esi
	movq	%r14, %rdx
	callq	se_v.159
	addq	$8, %rsp
	popq	%rbx
	popq	%r14
	popq	%r15
	popq	%rbp
	.cfi_def_cfa %rsp, 8
	retq
.LBB3_9:                                # %ctrl0
	.cfi_def_cfa %rbp, 16
	cmpl	$1, %eax
	je	.LBB3_2
# %bb.10:                               # %ctrl1
	cmpl	$2, %eax
	je	.LBB3_3
# %bb.11:                               # %ctrl2
	cmpl	$3, %eax
	je	.LBB3_4
# %bb.12:                               # %ctrl3
	cmpl	$4, %eax
	je	.LBB3_5
# %bb.13:                               # %ctrl4
	cmpl	$5, %eax
	je	.LBB3_6
# %bb.14:                               # %ctrl5
	cmpl	$6, %eax
	je	.LBB3_7
	jmp	.LBB3_8
.Lfunc_end3:
	.size	se_v, .Lfunc_end3-se_v
	.cfi_endproc
                                        # -- End function
	.globl	se_linfo                # -- Begin function se_linfo
	.p2align	4, 0x90
	.type	se_linfo,@function
se_linfo:                               # @se_linfo
	.cfi_startproc
# %bb.0:                                # %rand_bb
	pushq	%rbp
	.cfi_def_cfa_offset 16
	.cfi_offset %rbp, -16
	movq	%rsp, %rbp
	.cfi_def_cfa_register %rbp
	pushq	%r15
	pushq	%r14
	pushq	%r12
	pushq	%rbx
	.cfi_offset %rbx, -48
	.cfi_offset %r12, -40
	.cfi_offset %r14, -32
	.cfi_offset %r15, -24
	movq	%rcx, %r14
	movq	%rdx, %r15
	movl	%esi, %r12d
	movl	%edi, %ebx
	callq	get_urand
	cmpl	$0, %eax
	jne	.LBB4_9
# %bb.1:                                # %func_se_linfo.11
	movl	%ebx, %edi
	movl	%r12d, %esi
	movq	%r15, %rdx
	movq	%r14, %rcx
	callq	se_linfo.11
	popq	%rbx
	popq	%r12
	popq	%r14
	popq	%r15
	popq	%rbp
	.cfi_def_cfa %rsp, 8
	retq
.LBB4_2:                                # %func_se_linfo.87
	.cfi_def_cfa %rbp, 16
	movl	%ebx, %edi
	movl	%r12d, %esi
	movq	%r15, %rdx
	movq	%r14, %rcx
	callq	se_linfo.87
	popq	%rbx
	popq	%r12
	popq	%r14
	popq	%r15
	popq	%rbp
	.cfi_def_cfa %rsp, 8
	retq
.LBB4_3:                                # %func_se_linfo.109
	.cfi_def_cfa %rbp, 16
	movl	%ebx, %edi
	movl	%r12d, %esi
	movq	%r15, %rdx
	movq	%r14, %rcx
	callq	se_linfo.109
	popq	%rbx
	popq	%r12
	popq	%r14
	popq	%r15
	popq	%rbp
	.cfi_def_cfa %rsp, 8
	retq
.LBB4_4:                                # %func_se_linfo.120
	.cfi_def_cfa %rbp, 16
	movl	%ebx, %edi
	movl	%r12d, %esi
	movq	%r15, %rdx
	movq	%r14, %rcx
	callq	se_linfo.120
	popq	%rbx
	popq	%r12
	popq	%r14
	popq	%r15
	popq	%rbp
	.cfi_def_cfa %rsp, 8
	retq
.LBB4_5:                                # %func_se_linfo.152
	.cfi_def_cfa %rbp, 16
	movl	%ebx, %edi
	movl	%r12d, %esi
	movq	%r15, %rdx
	movq	%r14, %rcx
	callq	se_linfo.152
	popq	%rbx
	popq	%r12
	popq	%r14
	popq	%r15
	popq	%rbp
	.cfi_def_cfa %rsp, 8
	retq
.LBB4_6:                                # %func_se_linfo.155
	.cfi_def_cfa %rbp, 16
	movl	%ebx, %edi
	movl	%r12d, %esi
	movq	%r15, %rdx
	movq	%r14, %rcx
	callq	se_linfo.155
	popq	%rbx
	popq	%r12
	popq	%r14
	popq	%r15
	popq	%rbp
	.cfi_def_cfa %rsp, 8
	retq
.LBB4_7:                                # %func_se_linfo.157
	.cfi_def_cfa %rbp, 16
	movl	%ebx, %edi
	movl	%r12d, %esi
	movq	%r15, %rdx
	movq	%r14, %rcx
	callq	se_linfo.157
	popq	%rbx
	popq	%r12
	popq	%r14
	popq	%r15
	popq	%rbp
	.cfi_def_cfa %rsp, 8
	retq
.LBB4_8:                                # %func_se_linfo.158
	.cfi_def_cfa %rbp, 16
	movl	%ebx, %edi
	movl	%r12d, %esi
	movq	%r15, %rdx
	movq	%r14, %rcx
	callq	se_linfo.158
	popq	%rbx
	popq	%r12
	popq	%r14
	popq	%r15
	popq	%rbp
	.cfi_def_cfa %rsp, 8
	retq
.LBB4_9:                                # %ctrl0
	.cfi_def_cfa %rbp, 16
	cmpl	$1, %eax
	je	.LBB4_2
# %bb.10:                               # %ctrl1
	cmpl	$2, %eax
	je	.LBB4_3
# %bb.11:                               # %ctrl2
	cmpl	$3, %eax
	je	.LBB4_4
# %bb.12:                               # %ctrl3
	cmpl	$4, %eax
	je	.LBB4_5
# %bb.13:                               # %ctrl4
	cmpl	$5, %eax
	je	.LBB4_6
# %bb.14:                               # %ctrl5
	cmpl	$6, %eax
	je	.LBB4_7
	jmp	.LBB4_8
.Lfunc_end4:
	.size	se_linfo, .Lfunc_end4-se_linfo
	.cfi_endproc
                                        # -- End function
	.globl	u_1                     # -- Begin function u_1
	.p2align	4, 0x90
	.type	u_1,@function
u_1:                                    # @u_1
	.cfi_startproc
# %bb.0:                                # %rand_bb
	pushq	%rbp
	.cfi_def_cfa_offset 16
	.cfi_offset %rbp, -16
	movq	%rsp, %rbp
	.cfi_def_cfa_register %rbp
	pushq	%r15
	pushq	%r14
	pushq	%rbx
	pushq	%rax
	.cfi_offset %rbx, -40
	.cfi_offset %r14, -32
	.cfi_offset %r15, -24
	movq	%rdx, %r14
	movl	%esi, %r15d
	movq	%rdi, %rbx
	callq	get_urand
	cmpl	$0, %eax
	jne	.LBB5_9
# %bb.1:                                # %func_u_1.36
	movq	%rbx, %rdi
	movl	%r15d, %esi
	movq	%r14, %rdx
	callq	u_1.36
	addq	$8, %rsp
	popq	%rbx
	popq	%r14
	popq	%r15
	popq	%rbp
	.cfi_def_cfa %rsp, 8
	retq
.LBB5_2:                                # %func_u_1.65
	.cfi_def_cfa %rbp, 16
	movq	%rbx, %rdi
	movl	%r15d, %esi
	movq	%r14, %rdx
	callq	u_1.65
	addq	$8, %rsp
	popq	%rbx
	popq	%r14
	popq	%r15
	popq	%rbp
	.cfi_def_cfa %rsp, 8
	retq
.LBB5_3:                                # %func_u_1.107
	.cfi_def_cfa %rbp, 16
	movq	%rbx, %rdi
	movl	%r15d, %esi
	movq	%r14, %rdx
	callq	u_1.107
	addq	$8, %rsp
	popq	%rbx
	popq	%r14
	popq	%r15
	popq	%rbp
	.cfi_def_cfa %rsp, 8
	retq
.LBB5_4:                                # %func_u_1.144
	.cfi_def_cfa %rbp, 16
	movq	%rbx, %rdi
	movl	%r15d, %esi
	movq	%r14, %rdx
	callq	u_1.144
	addq	$8, %rsp
	popq	%rbx
	popq	%r14
	popq	%r15
	popq	%rbp
	.cfi_def_cfa %rsp, 8
	retq
.LBB5_5:                                # %func_u_1.150
	.cfi_def_cfa %rbp, 16
	movq	%rbx, %rdi
	movl	%r15d, %esi
	movq	%r14, %rdx
	callq	u_1.150
	addq	$8, %rsp
	popq	%rbx
	popq	%r14
	popq	%r15
	popq	%rbp
	.cfi_def_cfa %rsp, 8
	retq
.LBB5_6:                                # %func_u_1.154
	.cfi_def_cfa %rbp, 16
	movq	%rbx, %rdi
	movl	%r15d, %esi
	movq	%r14, %rdx
	callq	u_1.154
	addq	$8, %rsp
	popq	%rbx
	popq	%r14
	popq	%r15
	popq	%rbp
	.cfi_def_cfa %rsp, 8
	retq
.LBB5_7:                                # %func_u_1.156
	.cfi_def_cfa %rbp, 16
	movq	%rbx, %rdi
	movl	%r15d, %esi
	movq	%r14, %rdx
	callq	u_1.156
	addq	$8, %rsp
	popq	%rbx
	popq	%r14
	popq	%r15
	popq	%rbp
	.cfi_def_cfa %rsp, 8
	retq
.LBB5_8:                                # %func_u_1.160
	.cfi_def_cfa %rbp, 16
	movq	%rbx, %rdi
	movl	%r15d, %esi
	movq	%r14, %rdx
	callq	u_1.160
	addq	$8, %rsp
	popq	%rbx
	popq	%r14
	popq	%r15
	popq	%rbp
	.cfi_def_cfa %rsp, 8
	retq
.LBB5_9:                                # %ctrl0
	.cfi_def_cfa %rbp, 16
	cmpl	$1, %eax
	je	.LBB5_2
# %bb.10:                               # %ctrl1
	cmpl	$2, %eax
	je	.LBB5_3
# %bb.11:                               # %ctrl2
	cmpl	$3, %eax
	je	.LBB5_4
# %bb.12:                               # %ctrl3
	cmpl	$4, %eax
	je	.LBB5_5
# %bb.13:                               # %ctrl4
	cmpl	$5, %eax
	je	.LBB5_6
# %bb.14:                               # %ctrl5
	cmpl	$6, %eax
	je	.LBB5_7
	jmp	.LBB5_8
.Lfunc_end5:
	.size	u_1, .Lfunc_end5-u_1
	.cfi_endproc
                                        # -- End function
	.globl	writeSyntaxElement_fixed # -- Begin function writeSyntaxElement_fixed
	.p2align	4, 0x90
	.type	writeSyntaxElement_fixed,@function
writeSyntaxElement_fixed:               # @writeSyntaxElement_fixed
	.cfi_startproc
# %bb.0:                                # %rand_bb
	pushq	%rbp
	.cfi_def_cfa_offset 16
	.cfi_offset %rbp, -16
	movq	%rsp, %rbp
	.cfi_def_cfa_register %rbp
	pushq	%r14
	pushq	%rbx
	.cfi_offset %rbx, -32
	.cfi_offset %r14, -24
	movq	%rsi, %r14
	movq	%rdi, %rbx
	callq	get_urand
	cmpl	$0, %eax
	jne	.LBB6_2
# %bb.1:                                # %func_writeSyntaxElement_fixed.41
	movq	%rbx, %rdi
	movq	%r14, %rsi
	callq	writeSyntaxElement_fixed.41
	popq	%rbx
	popq	%r14
	popq	%rbp
	.cfi_def_cfa %rsp, 8
	retq
.LBB6_2:                                # %func_writeSyntaxElement_fixed.52
	.cfi_def_cfa %rbp, 16
	movq	%rbx, %rdi
	movq	%r14, %rsi
	callq	writeSyntaxElement_fixed.52
	popq	%rbx
	popq	%r14
	popq	%rbp
	.cfi_def_cfa %rsp, 8
	retq
.Lfunc_end6:
	.size	writeSyntaxElement_fixed, .Lfunc_end6-writeSyntaxElement_fixed
	.cfi_endproc
                                        # -- End function
	.globl	u_v                     # -- Begin function u_v
	.p2align	4, 0x90
	.type	u_v,@function
u_v:                                    # @u_v
	.cfi_startproc
# %bb.0:                                # %rand_bb
	pushq	%rbp
	.cfi_def_cfa_offset 16
	.cfi_offset %rbp, -16
	movq	%rsp, %rbp
	.cfi_def_cfa_register %rbp
	pushq	%r15
	pushq	%r14
	pushq	%r12
	pushq	%rbx
	.cfi_offset %rbx, -48
	.cfi_offset %r12, -40
	.cfi_offset %r14, -32
	.cfi_offset %r15, -24
	movq	%rcx, %r14
	movl	%edx, %r15d
	movq	%rsi, %r12
	movl	%edi, %ebx
	callq	get_urand
	cmpl	$0, %eax
	jne	.LBB7_9
# %bb.1:                                # %func_u_v.12
	movl	%ebx, %edi
	movq	%r12, %rsi
	movl	%r15d, %edx
	movq	%r14, %rcx
	callq	u_v.12
	popq	%rbx
	popq	%r12
	popq	%r14
	popq	%r15
	popq	%rbp
	.cfi_def_cfa %rsp, 8
	retq
.LBB7_2:                                # %func_u_v.26
	.cfi_def_cfa %rbp, 16
	movl	%ebx, %edi
	movq	%r12, %rsi
	movl	%r15d, %edx
	movq	%r14, %rcx
	callq	u_v.26
	popq	%rbx
	popq	%r12
	popq	%r14
	popq	%r15
	popq	%rbp
	.cfi_def_cfa %rsp, 8
	retq
.LBB7_3:                                # %func_u_v.48
	.cfi_def_cfa %rbp, 16
	movl	%ebx, %edi
	movq	%r12, %rsi
	movl	%r15d, %edx
	movq	%r14, %rcx
	callq	u_v.48
	popq	%rbx
	popq	%r12
	popq	%r14
	popq	%r15
	popq	%rbp
	.cfi_def_cfa %rsp, 8
	retq
.LBB7_4:                                # %func_u_v.95
	.cfi_def_cfa %rbp, 16
	movl	%ebx, %edi
	movq	%r12, %rsi
	movl	%r15d, %edx
	movq	%r14, %rcx
	callq	u_v.95
	popq	%rbx
	popq	%r12
	popq	%r14
	popq	%r15
	popq	%rbp
	.cfi_def_cfa %rsp, 8
	retq
.LBB7_5:                                # %func_u_v.101
	.cfi_def_cfa %rbp, 16
	movl	%ebx, %edi
	movq	%r12, %rsi
	movl	%r15d, %edx
	movq	%r14, %rcx
	callq	u_v.101
	popq	%rbx
	popq	%r12
	popq	%r14
	popq	%r15
	popq	%rbp
	.cfi_def_cfa %rsp, 8
	retq
.LBB7_6:                                # %func_u_v.103
	.cfi_def_cfa %rbp, 16
	movl	%ebx, %edi
	movq	%r12, %rsi
	movl	%r15d, %edx
	movq	%r14, %rcx
	callq	u_v.103
	popq	%rbx
	popq	%r12
	popq	%r14
	popq	%r15
	popq	%rbp
	.cfi_def_cfa %rsp, 8
	retq
.LBB7_7:                                # %func_u_v.125
	.cfi_def_cfa %rbp, 16
	movl	%ebx, %edi
	movq	%r12, %rsi
	movl	%r15d, %edx
	movq	%r14, %rcx
	callq	u_v.125
	popq	%rbx
	popq	%r12
	popq	%r14
	popq	%r15
	popq	%rbp
	.cfi_def_cfa %rsp, 8
	retq
.LBB7_8:                                # %func_u_v.135
	.cfi_def_cfa %rbp, 16
	movl	%ebx, %edi
	movq	%r12, %rsi
	movl	%r15d, %edx
	movq	%r14, %rcx
	callq	u_v.135
	popq	%rbx
	popq	%r12
	popq	%r14
	popq	%r15
	popq	%rbp
	.cfi_def_cfa %rsp, 8
	retq
.LBB7_9:                                # %ctrl0
	.cfi_def_cfa %rbp, 16
	cmpl	$1, %eax
	je	.LBB7_2
# %bb.10:                               # %ctrl1
	cmpl	$2, %eax
	je	.LBB7_3
# %bb.11:                               # %ctrl2
	cmpl	$3, %eax
	je	.LBB7_4
# %bb.12:                               # %ctrl3
	cmpl	$4, %eax
	je	.LBB7_5
# %bb.13:                               # %ctrl4
	cmpl	$5, %eax
	je	.LBB7_6
# %bb.14:                               # %ctrl5
	cmpl	$6, %eax
	je	.LBB7_7
	jmp	.LBB7_8
.Lfunc_end7:
	.size	u_v, .Lfunc_end7-u_v
	.cfi_endproc
                                        # -- End function
	.globl	cbp_linfo_intra         # -- Begin function cbp_linfo_intra
	.p2align	4, 0x90
	.type	cbp_linfo_intra,@function
cbp_linfo_intra:                        # @cbp_linfo_intra
	.cfi_startproc
# %bb.0:                                # %rand_bb
	pushq	%rbp
	.cfi_def_cfa_offset 16
	.cfi_offset %rbp, -16
	movq	%rsp, %rbp
	.cfi_def_cfa_register %rbp
	pushq	%r15
	pushq	%r14
	pushq	%r12
	pushq	%rbx
	.cfi_offset %rbx, -48
	.cfi_offset %r12, -40
	.cfi_offset %r14, -32
	.cfi_offset %r15, -24
	movq	%rcx, %r14
	movq	%rdx, %r15
	movl	%esi, %r12d
	movl	%edi, %ebx
	callq	get_urand
	cmpl	$0, %eax
	jne	.LBB8_9
# %bb.1:                                # %func_cbp_linfo_intra.5
	movl	%ebx, %edi
	movl	%r12d, %esi
	movq	%r15, %rdx
	movq	%r14, %rcx
	callq	cbp_linfo_intra.5
	popq	%rbx
	popq	%r12
	popq	%r14
	popq	%r15
	popq	%rbp
	.cfi_def_cfa %rsp, 8
	retq
.LBB8_2:                                # %func_cbp_linfo_intra.14
	.cfi_def_cfa %rbp, 16
	movl	%ebx, %edi
	movl	%r12d, %esi
	movq	%r15, %rdx
	movq	%r14, %rcx
	callq	cbp_linfo_intra.14
	popq	%rbx
	popq	%r12
	popq	%r14
	popq	%r15
	popq	%rbp
	.cfi_def_cfa %rsp, 8
	retq
.LBB8_3:                                # %func_cbp_linfo_intra.27
	.cfi_def_cfa %rbp, 16
	movl	%ebx, %edi
	movl	%r12d, %esi
	movq	%r15, %rdx
	movq	%r14, %rcx
	callq	cbp_linfo_intra.27
	popq	%rbx
	popq	%r12
	popq	%r14
	popq	%r15
	popq	%rbp
	.cfi_def_cfa %rsp, 8
	retq
.LBB8_4:                                # %func_cbp_linfo_intra.50
	.cfi_def_cfa %rbp, 16
	movl	%ebx, %edi
	movl	%r12d, %esi
	movq	%r15, %rdx
	movq	%r14, %rcx
	callq	cbp_linfo_intra.50
	popq	%rbx
	popq	%r12
	popq	%r14
	popq	%r15
	popq	%rbp
	.cfi_def_cfa %rsp, 8
	retq
.LBB8_5:                                # %func_cbp_linfo_intra.74
	.cfi_def_cfa %rbp, 16
	movl	%ebx, %edi
	movl	%r12d, %esi
	movq	%r15, %rdx
	movq	%r14, %rcx
	callq	cbp_linfo_intra.74
	popq	%rbx
	popq	%r12
	popq	%r14
	popq	%r15
	popq	%rbp
	.cfi_def_cfa %rsp, 8
	retq
.LBB8_6:                                # %func_cbp_linfo_intra.88
	.cfi_def_cfa %rbp, 16
	movl	%ebx, %edi
	movl	%r12d, %esi
	movq	%r15, %rdx
	movq	%r14, %rcx
	callq	cbp_linfo_intra.88
	popq	%rbx
	popq	%r12
	popq	%r14
	popq	%r15
	popq	%rbp
	.cfi_def_cfa %rsp, 8
	retq
.LBB8_7:                                # %func_cbp_linfo_intra.113
	.cfi_def_cfa %rbp, 16
	movl	%ebx, %edi
	movl	%r12d, %esi
	movq	%r15, %rdx
	movq	%r14, %rcx
	callq	cbp_linfo_intra.113
	popq	%rbx
	popq	%r12
	popq	%r14
	popq	%r15
	popq	%rbp
	.cfi_def_cfa %rsp, 8
	retq
.LBB8_8:                                # %func_cbp_linfo_intra.123
	.cfi_def_cfa %rbp, 16
	movl	%ebx, %edi
	movl	%r12d, %esi
	movq	%r15, %rdx
	movq	%r14, %rcx
	callq	cbp_linfo_intra.123
	popq	%rbx
	popq	%r12
	popq	%r14
	popq	%r15
	popq	%rbp
	.cfi_def_cfa %rsp, 8
	retq
.LBB8_9:                                # %ctrl0
	.cfi_def_cfa %rbp, 16
	cmpl	$1, %eax
	je	.LBB8_2
# %bb.10:                               # %ctrl1
	cmpl	$2, %eax
	je	.LBB8_3
# %bb.11:                               # %ctrl2
	cmpl	$3, %eax
	je	.LBB8_4
# %bb.12:                               # %ctrl3
	cmpl	$4, %eax
	je	.LBB8_5
# %bb.13:                               # %ctrl4
	cmpl	$5, %eax
	je	.LBB8_6
# %bb.14:                               # %ctrl5
	cmpl	$6, %eax
	je	.LBB8_7
	jmp	.LBB8_8
.Lfunc_end8:
	.size	cbp_linfo_intra, .Lfunc_end8-cbp_linfo_intra
	.cfi_endproc
                                        # -- End function
	.globl	cbp_linfo_inter         # -- Begin function cbp_linfo_inter
	.p2align	4, 0x90
	.type	cbp_linfo_inter,@function
cbp_linfo_inter:                        # @cbp_linfo_inter
	.cfi_startproc
# %bb.0:                                # %rand_bb
	pushq	%rbp
	.cfi_def_cfa_offset 16
	.cfi_offset %rbp, -16
	movq	%rsp, %rbp
	.cfi_def_cfa_register %rbp
	pushq	%r15
	pushq	%r14
	pushq	%r12
	pushq	%rbx
	.cfi_offset %rbx, -48
	.cfi_offset %r12, -40
	.cfi_offset %r14, -32
	.cfi_offset %r15, -24
	movq	%rcx, %r14
	movq	%rdx, %r15
	movl	%esi, %r12d
	movl	%edi, %ebx
	callq	get_urand
	cmpl	$0, %eax
	jne	.LBB9_9
# %bb.1:                                # %func_cbp_linfo_inter.21
	movl	%ebx, %edi
	movl	%r12d, %esi
	movq	%r15, %rdx
	movq	%r14, %rcx
	callq	cbp_linfo_inter.21
	popq	%rbx
	popq	%r12
	popq	%r14
	popq	%r15
	popq	%rbp
	.cfi_def_cfa %rsp, 8
	retq
.LBB9_2:                                # %func_cbp_linfo_inter.32
	.cfi_def_cfa %rbp, 16
	movl	%ebx, %edi
	movl	%r12d, %esi
	movq	%r15, %rdx
	movq	%r14, %rcx
	callq	cbp_linfo_inter.32
	popq	%rbx
	popq	%r12
	popq	%r14
	popq	%r15
	popq	%rbp
	.cfi_def_cfa %rsp, 8
	retq
.LBB9_3:                                # %func_cbp_linfo_inter.51
	.cfi_def_cfa %rbp, 16
	movl	%ebx, %edi
	movl	%r12d, %esi
	movq	%r15, %rdx
	movq	%r14, %rcx
	callq	cbp_linfo_inter.51
	popq	%rbx
	popq	%r12
	popq	%r14
	popq	%r15
	popq	%rbp
	.cfi_def_cfa %rsp, 8
	retq
.LBB9_4:                                # %func_cbp_linfo_inter.66
	.cfi_def_cfa %rbp, 16
	movl	%ebx, %edi
	movl	%r12d, %esi
	movq	%r15, %rdx
	movq	%r14, %rcx
	callq	cbp_linfo_inter.66
	popq	%rbx
	popq	%r12
	popq	%r14
	popq	%r15
	popq	%rbp
	.cfi_def_cfa %rsp, 8
	retq
.LBB9_5:                                # %func_cbp_linfo_inter.110
	.cfi_def_cfa %rbp, 16
	movl	%ebx, %edi
	movl	%r12d, %esi
	movq	%r15, %rdx
	movq	%r14, %rcx
	callq	cbp_linfo_inter.110
	popq	%rbx
	popq	%r12
	popq	%r14
	popq	%r15
	popq	%rbp
	.cfi_def_cfa %rsp, 8
	retq
.LBB9_6:                                # %func_cbp_linfo_inter.121
	.cfi_def_cfa %rbp, 16
	movl	%ebx, %edi
	movl	%r12d, %esi
	movq	%r15, %rdx
	movq	%r14, %rcx
	callq	cbp_linfo_inter.121
	popq	%rbx
	popq	%r12
	popq	%r14
	popq	%r15
	popq	%rbp
	.cfi_def_cfa %rsp, 8
	retq
.LBB9_7:                                # %func_cbp_linfo_inter.127
	.cfi_def_cfa %rbp, 16
	movl	%ebx, %edi
	movl	%r12d, %esi
	movq	%r15, %rdx
	movq	%r14, %rcx
	callq	cbp_linfo_inter.127
	popq	%rbx
	popq	%r12
	popq	%r14
	popq	%r15
	popq	%rbp
	.cfi_def_cfa %rsp, 8
	retq
.LBB9_8:                                # %func_cbp_linfo_inter.141
	.cfi_def_cfa %rbp, 16
	movl	%ebx, %edi
	movl	%r12d, %esi
	movq	%r15, %rdx
	movq	%r14, %rcx
	callq	cbp_linfo_inter.141
	popq	%rbx
	popq	%r12
	popq	%r14
	popq	%r15
	popq	%rbp
	.cfi_def_cfa %rsp, 8
	retq
.LBB9_9:                                # %ctrl0
	.cfi_def_cfa %rbp, 16
	cmpl	$1, %eax
	je	.LBB9_2
# %bb.10:                               # %ctrl1
	cmpl	$2, %eax
	je	.LBB9_3
# %bb.11:                               # %ctrl2
	cmpl	$3, %eax
	je	.LBB9_4
# %bb.12:                               # %ctrl3
	cmpl	$4, %eax
	je	.LBB9_5
# %bb.13:                               # %ctrl4
	cmpl	$5, %eax
	je	.LBB9_6
# %bb.14:                               # %ctrl5
	cmpl	$6, %eax
	je	.LBB9_7
	jmp	.LBB9_8
.Lfunc_end9:
	.size	cbp_linfo_inter, .Lfunc_end9-cbp_linfo_inter
	.cfi_endproc
                                        # -- End function
	.globl	levrun_linfo_c2x2       # -- Begin function levrun_linfo_c2x2
	.p2align	4, 0x90
	.type	levrun_linfo_c2x2,@function
levrun_linfo_c2x2:                      # @levrun_linfo_c2x2
	.cfi_startproc
# %bb.0:                                # %rand_bb
	pushq	%rbp
	.cfi_def_cfa_offset 16
	.cfi_offset %rbp, -16
	movq	%rsp, %rbp
	.cfi_def_cfa_register %rbp
	pushq	%r15
	pushq	%r14
	pushq	%r12
	pushq	%rbx
	.cfi_offset %rbx, -48
	.cfi_offset %r12, -40
	.cfi_offset %r14, -32
	.cfi_offset %r15, -24
	movq	%rcx, %r14
	movq	%rdx, %r15
	movl	%esi, %r12d
	movl	%edi, %ebx
	callq	get_urand
	cmpl	$0, %eax
	jne	.LBB10_9
# %bb.1:                                # %func_levrun_linfo_c2x2.16
	movl	%ebx, %edi
	movl	%r12d, %esi
	movq	%r15, %rdx
	movq	%r14, %rcx
	callq	levrun_linfo_c2x2.16
	popq	%rbx
	popq	%r12
	popq	%r14
	popq	%r15
	popq	%rbp
	.cfi_def_cfa %rsp, 8
	retq
.LBB10_2:                               # %func_levrun_linfo_c2x2.19
	.cfi_def_cfa %rbp, 16
	movl	%ebx, %edi
	movl	%r12d, %esi
	movq	%r15, %rdx
	movq	%r14, %rcx
	callq	levrun_linfo_c2x2.19
	popq	%rbx
	popq	%r12
	popq	%r14
	popq	%r15
	popq	%rbp
	.cfi_def_cfa %rsp, 8
	retq
.LBB10_3:                               # %func_levrun_linfo_c2x2.62
	.cfi_def_cfa %rbp, 16
	movl	%ebx, %edi
	movl	%r12d, %esi
	movq	%r15, %rdx
	movq	%r14, %rcx
	callq	levrun_linfo_c2x2.62
	popq	%rbx
	popq	%r12
	popq	%r14
	popq	%r15
	popq	%rbp
	.cfi_def_cfa %rsp, 8
	retq
.LBB10_4:                               # %func_levrun_linfo_c2x2.70
	.cfi_def_cfa %rbp, 16
	movl	%ebx, %edi
	movl	%r12d, %esi
	movq	%r15, %rdx
	movq	%r14, %rcx
	callq	levrun_linfo_c2x2.70
	popq	%rbx
	popq	%r12
	popq	%r14
	popq	%r15
	popq	%rbp
	.cfi_def_cfa %rsp, 8
	retq
.LBB10_5:                               # %func_levrun_linfo_c2x2.85
	.cfi_def_cfa %rbp, 16
	movl	%ebx, %edi
	movl	%r12d, %esi
	movq	%r15, %rdx
	movq	%r14, %rcx
	callq	levrun_linfo_c2x2.85
	popq	%rbx
	popq	%r12
	popq	%r14
	popq	%r15
	popq	%rbp
	.cfi_def_cfa %rsp, 8
	retq
.LBB10_6:                               # %func_levrun_linfo_c2x2.108
	.cfi_def_cfa %rbp, 16
	movl	%ebx, %edi
	movl	%r12d, %esi
	movq	%r15, %rdx
	movq	%r14, %rcx
	callq	levrun_linfo_c2x2.108
	popq	%rbx
	popq	%r12
	popq	%r14
	popq	%r15
	popq	%rbp
	.cfi_def_cfa %rsp, 8
	retq
.LBB10_7:                               # %func_levrun_linfo_c2x2.112
	.cfi_def_cfa %rbp, 16
	movl	%ebx, %edi
	movl	%r12d, %esi
	movq	%r15, %rdx
	movq	%r14, %rcx
	callq	levrun_linfo_c2x2.112
	popq	%rbx
	popq	%r12
	popq	%r14
	popq	%r15
	popq	%rbp
	.cfi_def_cfa %rsp, 8
	retq
.LBB10_8:                               # %func_levrun_linfo_c2x2.122
	.cfi_def_cfa %rbp, 16
	movl	%ebx, %edi
	movl	%r12d, %esi
	movq	%r15, %rdx
	movq	%r14, %rcx
	callq	levrun_linfo_c2x2.122
	popq	%rbx
	popq	%r12
	popq	%r14
	popq	%r15
	popq	%rbp
	.cfi_def_cfa %rsp, 8
	retq
.LBB10_9:                               # %ctrl0
	.cfi_def_cfa %rbp, 16
	cmpl	$1, %eax
	je	.LBB10_2
# %bb.10:                               # %ctrl1
	cmpl	$2, %eax
	je	.LBB10_3
# %bb.11:                               # %ctrl2
	cmpl	$3, %eax
	je	.LBB10_4
# %bb.12:                               # %ctrl3
	cmpl	$4, %eax
	je	.LBB10_5
# %bb.13:                               # %ctrl4
	cmpl	$5, %eax
	je	.LBB10_6
# %bb.14:                               # %ctrl5
	cmpl	$6, %eax
	je	.LBB10_7
	jmp	.LBB10_8
.Lfunc_end10:
	.size	levrun_linfo_c2x2, .Lfunc_end10-levrun_linfo_c2x2
	.cfi_endproc
                                        # -- End function
	.globl	levrun_linfo_inter      # -- Begin function levrun_linfo_inter
	.p2align	4, 0x90
	.type	levrun_linfo_inter,@function
levrun_linfo_inter:                     # @levrun_linfo_inter
	.cfi_startproc
# %bb.0:                                # %rand_bb
	pushq	%rbp
	.cfi_def_cfa_offset 16
	.cfi_offset %rbp, -16
	movq	%rsp, %rbp
	.cfi_def_cfa_register %rbp
	pushq	%r15
	pushq	%r14
	pushq	%r12
	pushq	%rbx
	.cfi_offset %rbx, -48
	.cfi_offset %r12, -40
	.cfi_offset %r14, -32
	.cfi_offset %r15, -24
	movq	%rcx, %r14
	movq	%rdx, %r15
	movl	%esi, %r12d
	movl	%edi, %ebx
	callq	get_urand
	cmpl	$0, %eax
	jne	.LBB11_9
# %bb.1:                                # %func_levrun_linfo_inter.2
	movl	%ebx, %edi
	movl	%r12d, %esi
	movq	%r15, %rdx
	movq	%r14, %rcx
	callq	levrun_linfo_inter.2
	popq	%rbx
	popq	%r12
	popq	%r14
	popq	%r15
	popq	%rbp
	.cfi_def_cfa %rsp, 8
	retq
.LBB11_2:                               # %func_levrun_linfo_inter.46
	.cfi_def_cfa %rbp, 16
	movl	%ebx, %edi
	movl	%r12d, %esi
	movq	%r15, %rdx
	movq	%r14, %rcx
	callq	levrun_linfo_inter.46
	popq	%rbx
	popq	%r12
	popq	%r14
	popq	%r15
	popq	%rbp
	.cfi_def_cfa %rsp, 8
	retq
.LBB11_3:                               # %func_levrun_linfo_inter.53
	.cfi_def_cfa %rbp, 16
	movl	%ebx, %edi
	movl	%r12d, %esi
	movq	%r15, %rdx
	movq	%r14, %rcx
	callq	levrun_linfo_inter.53
	popq	%rbx
	popq	%r12
	popq	%r14
	popq	%r15
	popq	%rbp
	.cfi_def_cfa %rsp, 8
	retq
.LBB11_4:                               # %func_levrun_linfo_inter.67
	.cfi_def_cfa %rbp, 16
	movl	%ebx, %edi
	movl	%r12d, %esi
	movq	%r15, %rdx
	movq	%r14, %rcx
	callq	levrun_linfo_inter.67
	popq	%rbx
	popq	%r12
	popq	%r14
	popq	%r15
	popq	%rbp
	.cfi_def_cfa %rsp, 8
	retq
.LBB11_5:                               # %func_levrun_linfo_inter.68
	.cfi_def_cfa %rbp, 16
	movl	%ebx, %edi
	movl	%r12d, %esi
	movq	%r15, %rdx
	movq	%r14, %rcx
	callq	levrun_linfo_inter.68
	popq	%rbx
	popq	%r12
	popq	%r14
	popq	%r15
	popq	%rbp
	.cfi_def_cfa %rsp, 8
	retq
.LBB11_6:                               # %func_levrun_linfo_inter.72
	.cfi_def_cfa %rbp, 16
	movl	%ebx, %edi
	movl	%r12d, %esi
	movq	%r15, %rdx
	movq	%r14, %rcx
	callq	levrun_linfo_inter.72
	popq	%rbx
	popq	%r12
	popq	%r14
	popq	%r15
	popq	%rbp
	.cfi_def_cfa %rsp, 8
	retq
.LBB11_7:                               # %func_levrun_linfo_inter.79
	.cfi_def_cfa %rbp, 16
	movl	%ebx, %edi
	movl	%r12d, %esi
	movq	%r15, %rdx
	movq	%r14, %rcx
	callq	levrun_linfo_inter.79
	popq	%rbx
	popq	%r12
	popq	%r14
	popq	%r15
	popq	%rbp
	.cfi_def_cfa %rsp, 8
	retq
.LBB11_8:                               # %func_levrun_linfo_inter.104
	.cfi_def_cfa %rbp, 16
	movl	%ebx, %edi
	movl	%r12d, %esi
	movq	%r15, %rdx
	movq	%r14, %rcx
	callq	levrun_linfo_inter.104
	popq	%rbx
	popq	%r12
	popq	%r14
	popq	%r15
	popq	%rbp
	.cfi_def_cfa %rsp, 8
	retq
.LBB11_9:                               # %ctrl0
	.cfi_def_cfa %rbp, 16
	cmpl	$1, %eax
	je	.LBB11_2
# %bb.10:                               # %ctrl1
	cmpl	$2, %eax
	je	.LBB11_3
# %bb.11:                               # %ctrl2
	cmpl	$3, %eax
	je	.LBB11_4
# %bb.12:                               # %ctrl3
	cmpl	$4, %eax
	je	.LBB11_5
# %bb.13:                               # %ctrl4
	cmpl	$5, %eax
	je	.LBB11_6
# %bb.14:                               # %ctrl5
	cmpl	$6, %eax
	je	.LBB11_7
	jmp	.LBB11_8
.Lfunc_end11:
	.size	levrun_linfo_inter, .Lfunc_end11-levrun_linfo_inter
	.cfi_endproc
                                        # -- End function
	.globl	levrun_linfo_intra      # -- Begin function levrun_linfo_intra
	.p2align	4, 0x90
	.type	levrun_linfo_intra,@function
levrun_linfo_intra:                     # @levrun_linfo_intra
	.cfi_startproc
# %bb.0:                                # %rand_bb
	pushq	%rbp
	.cfi_def_cfa_offset 16
	.cfi_offset %rbp, -16
	movq	%rsp, %rbp
	.cfi_def_cfa_register %rbp
	pushq	%r15
	pushq	%r14
	pushq	%r12
	pushq	%rbx
	.cfi_offset %rbx, -48
	.cfi_offset %r12, -40
	.cfi_offset %r14, -32
	.cfi_offset %r15, -24
	movq	%rcx, %r14
	movq	%rdx, %r15
	movl	%esi, %r12d
	movl	%edi, %ebx
	callq	get_urand
	cmpl	$0, %eax
	jne	.LBB12_9
# %bb.1:                                # %func_levrun_linfo_intra.1
	movl	%ebx, %edi
	movl	%r12d, %esi
	movq	%r15, %rdx
	movq	%r14, %rcx
	callq	levrun_linfo_intra.1
	popq	%rbx
	popq	%r12
	popq	%r14
	popq	%r15
	popq	%rbp
	.cfi_def_cfa %rsp, 8
	retq
.LBB12_2:                               # %func_levrun_linfo_intra.23
	.cfi_def_cfa %rbp, 16
	movl	%ebx, %edi
	movl	%r12d, %esi
	movq	%r15, %rdx
	movq	%r14, %rcx
	callq	levrun_linfo_intra.23
	popq	%rbx
	popq	%r12
	popq	%r14
	popq	%r15
	popq	%rbp
	.cfi_def_cfa %rsp, 8
	retq
.LBB12_3:                               # %func_levrun_linfo_intra.59
	.cfi_def_cfa %rbp, 16
	movl	%ebx, %edi
	movl	%r12d, %esi
	movq	%r15, %rdx
	movq	%r14, %rcx
	callq	levrun_linfo_intra.59
	popq	%rbx
	popq	%r12
	popq	%r14
	popq	%r15
	popq	%rbp
	.cfi_def_cfa %rsp, 8
	retq
.LBB12_4:                               # %func_levrun_linfo_intra.99
	.cfi_def_cfa %rbp, 16
	movl	%ebx, %edi
	movl	%r12d, %esi
	movq	%r15, %rdx
	movq	%r14, %rcx
	callq	levrun_linfo_intra.99
	popq	%rbx
	popq	%r12
	popq	%r14
	popq	%r15
	popq	%rbp
	.cfi_def_cfa %rsp, 8
	retq
.LBB12_5:                               # %func_levrun_linfo_intra.102
	.cfi_def_cfa %rbp, 16
	movl	%ebx, %edi
	movl	%r12d, %esi
	movq	%r15, %rdx
	movq	%r14, %rcx
	callq	levrun_linfo_intra.102
	popq	%rbx
	popq	%r12
	popq	%r14
	popq	%r15
	popq	%rbp
	.cfi_def_cfa %rsp, 8
	retq
.LBB12_6:                               # %func_levrun_linfo_intra.124
	.cfi_def_cfa %rbp, 16
	movl	%ebx, %edi
	movl	%r12d, %esi
	movq	%r15, %rdx
	movq	%r14, %rcx
	callq	levrun_linfo_intra.124
	popq	%rbx
	popq	%r12
	popq	%r14
	popq	%r15
	popq	%rbp
	.cfi_def_cfa %rsp, 8
	retq
.LBB12_7:                               # %func_levrun_linfo_intra.132
	.cfi_def_cfa %rbp, 16
	movl	%ebx, %edi
	movl	%r12d, %esi
	movq	%r15, %rdx
	movq	%r14, %rcx
	callq	levrun_linfo_intra.132
	popq	%rbx
	popq	%r12
	popq	%r14
	popq	%r15
	popq	%rbp
	.cfi_def_cfa %rsp, 8
	retq
.LBB12_8:                               # %func_levrun_linfo_intra.134
	.cfi_def_cfa %rbp, 16
	movl	%ebx, %edi
	movl	%r12d, %esi
	movq	%r15, %rdx
	movq	%r14, %rcx
	callq	levrun_linfo_intra.134
	popq	%rbx
	popq	%r12
	popq	%r14
	popq	%r15
	popq	%rbp
	.cfi_def_cfa %rsp, 8
	retq
.LBB12_9:                               # %ctrl0
	.cfi_def_cfa %rbp, 16
	cmpl	$1, %eax
	je	.LBB12_2
# %bb.10:                               # %ctrl1
	cmpl	$2, %eax
	je	.LBB12_3
# %bb.11:                               # %ctrl2
	cmpl	$3, %eax
	je	.LBB12_4
# %bb.12:                               # %ctrl3
	cmpl	$4, %eax
	je	.LBB12_5
# %bb.13:                               # %ctrl4
	cmpl	$5, %eax
	je	.LBB12_6
# %bb.14:                               # %ctrl5
	cmpl	$6, %eax
	je	.LBB12_7
	jmp	.LBB12_8
.Lfunc_end12:
	.size	levrun_linfo_intra, .Lfunc_end12-levrun_linfo_intra
	.cfi_endproc
                                        # -- End function
	.globl	symbol2uvlc             # -- Begin function symbol2uvlc
	.p2align	4, 0x90
	.type	symbol2uvlc,@function
symbol2uvlc:                            # @symbol2uvlc
	.cfi_startproc
# %bb.0:                                # %rand_bb
	pushq	%rbp
	.cfi_def_cfa_offset 16
	.cfi_offset %rbp, -16
	movq	%rsp, %rbp
	.cfi_def_cfa_register %rbp
	pushq	%rbx
	pushq	%rax
	.cfi_offset %rbx, -24
	movq	%rdi, %rbx
	callq	get_urand
	cmpl	$0, %eax
	jne	.LBB13_2
# %bb.1:                                # %func_symbol2uvlc.81
	movq	%rbx, %rdi
	callq	symbol2uvlc.81
	addq	$8, %rsp
	popq	%rbx
	popq	%rbp
	.cfi_def_cfa %rsp, 8
	retq
.LBB13_2:                               # %func_symbol2uvlc.115
	.cfi_def_cfa %rbp, 16
	movq	%rbx, %rdi
	callq	symbol2uvlc.115
	addq	$8, %rsp
	popq	%rbx
	popq	%rbp
	.cfi_def_cfa %rsp, 8
	retq
.Lfunc_end13:
	.size	symbol2uvlc, .Lfunc_end13-symbol2uvlc
	.cfi_endproc
                                        # -- End function
	.globl	writeUVLC2buffer        # -- Begin function writeUVLC2buffer
	.p2align	4, 0x90
	.type	writeUVLC2buffer,@function
writeUVLC2buffer:                       # @writeUVLC2buffer
	.cfi_startproc
# %bb.0:                                # %rand_bb
	pushq	%rbp
	.cfi_def_cfa_offset 16
	.cfi_offset %rbp, -16
	movq	%rsp, %rbp
	.cfi_def_cfa_register %rbp
	pushq	%r14
	pushq	%rbx
	.cfi_offset %rbx, -32
	.cfi_offset %r14, -24
	movq	%rsi, %r14
	movq	%rdi, %rbx
	callq	get_urand
	cmpl	$0, %eax
	jne	.LBB14_9
# %bb.1:                                # %func_writeUVLC2buffer.18
	movq	%rbx, %rdi
	movq	%r14, %rsi
	callq	writeUVLC2buffer.18
	popq	%rbx
	popq	%r14
	popq	%rbp
	.cfi_def_cfa %rsp, 8
	retq
.LBB14_2:                               # %func_writeUVLC2buffer.24
	.cfi_def_cfa %rbp, 16
	movq	%rbx, %rdi
	movq	%r14, %rsi
	callq	writeUVLC2buffer.24
	popq	%rbx
	popq	%r14
	popq	%rbp
	.cfi_def_cfa %rsp, 8
	retq
.LBB14_3:                               # %func_writeUVLC2buffer.25
	.cfi_def_cfa %rbp, 16
	movq	%rbx, %rdi
	movq	%r14, %rsi
	callq	writeUVLC2buffer.25
	popq	%rbx
	popq	%r14
	popq	%rbp
	.cfi_def_cfa %rsp, 8
	retq
.LBB14_4:                               # %func_writeUVLC2buffer.44
	.cfi_def_cfa %rbp, 16
	movq	%rbx, %rdi
	movq	%r14, %rsi
	callq	writeUVLC2buffer.44
	popq	%rbx
	popq	%r14
	popq	%rbp
	.cfi_def_cfa %rsp, 8
	retq
.LBB14_5:                               # %func_writeUVLC2buffer.55
	.cfi_def_cfa %rbp, 16
	movq	%rbx, %rdi
	movq	%r14, %rsi
	callq	writeUVLC2buffer.55
	popq	%rbx
	popq	%r14
	popq	%rbp
	.cfi_def_cfa %rsp, 8
	retq
.LBB14_6:                               # %func_writeUVLC2buffer.80
	.cfi_def_cfa %rbp, 16
	movq	%rbx, %rdi
	movq	%r14, %rsi
	callq	writeUVLC2buffer.80
	popq	%rbx
	popq	%r14
	popq	%rbp
	.cfi_def_cfa %rsp, 8
	retq
.LBB14_7:                               # %func_writeUVLC2buffer.92
	.cfi_def_cfa %rbp, 16
	movq	%rbx, %rdi
	movq	%r14, %rsi
	callq	writeUVLC2buffer.92
	popq	%rbx
	popq	%r14
	popq	%rbp
	.cfi_def_cfa %rsp, 8
	retq
.LBB14_8:                               # %func_writeUVLC2buffer.98
	.cfi_def_cfa %rbp, 16
	movq	%rbx, %rdi
	movq	%r14, %rsi
	callq	writeUVLC2buffer.98
	popq	%rbx
	popq	%r14
	popq	%rbp
	.cfi_def_cfa %rsp, 8
	retq
.LBB14_9:                               # %ctrl0
	.cfi_def_cfa %rbp, 16
	cmpl	$1, %eax
	je	.LBB14_2
# %bb.10:                               # %ctrl1
	cmpl	$2, %eax
	je	.LBB14_3
# %bb.11:                               # %ctrl2
	cmpl	$3, %eax
	je	.LBB14_4
# %bb.12:                               # %ctrl3
	cmpl	$4, %eax
	je	.LBB14_5
# %bb.13:                               # %ctrl4
	cmpl	$5, %eax
	je	.LBB14_6
# %bb.14:                               # %ctrl5
	cmpl	$6, %eax
	je	.LBB14_7
	jmp	.LBB14_8
.Lfunc_end14:
	.size	writeUVLC2buffer, .Lfunc_end14-writeUVLC2buffer
	.cfi_endproc
                                        # -- End function
	.globl	writeSyntaxElement_Intra4x4PredictionMode # -- Begin function writeSyntaxElement_Intra4x4PredictionMode
	.p2align	4, 0x90
	.type	writeSyntaxElement_Intra4x4PredictionMode,@function
writeSyntaxElement_Intra4x4PredictionMode: # @writeSyntaxElement_Intra4x4PredictionMode
	.cfi_startproc
# %bb.0:                                # %rand_bb
	pushq	%rbp
	.cfi_def_cfa_offset 16
	.cfi_offset %rbp, -16
	movq	%rsp, %rbp
	.cfi_def_cfa_register %rbp
	pushq	%r14
	pushq	%rbx
	.cfi_offset %rbx, -32
	.cfi_offset %r14, -24
	movq	%rsi, %r14
	movq	%rdi, %rbx
	callq	get_urand
	cmpl	$0, %eax
	jne	.LBB15_2
# %bb.1:                                # %func_writeSyntaxElement_Intra4x4PredictionMode.9
	movq	%rbx, %rdi
	movq	%r14, %rsi
	callq	writeSyntaxElement_Intra4x4PredictionMode.9
	popq	%rbx
	popq	%r14
	popq	%rbp
	.cfi_def_cfa %rsp, 8
	retq
.LBB15_2:                               # %func_writeSyntaxElement_Intra4x4PredictionMode.76
	.cfi_def_cfa %rbp, 16
	movq	%rbx, %rdi
	movq	%r14, %rsi
	callq	writeSyntaxElement_Intra4x4PredictionMode.76
	popq	%rbx
	popq	%r14
	popq	%rbp
	.cfi_def_cfa %rsp, 8
	retq
.Lfunc_end15:
	.size	writeSyntaxElement_Intra4x4PredictionMode, .Lfunc_end15-writeSyntaxElement_Intra4x4PredictionMode
	.cfi_endproc
                                        # -- End function
	.globl	writeSyntaxElement2Buf_UVLC # -- Begin function writeSyntaxElement2Buf_UVLC
	.p2align	4, 0x90
	.type	writeSyntaxElement2Buf_UVLC,@function
writeSyntaxElement2Buf_UVLC:            # @writeSyntaxElement2Buf_UVLC
	.cfi_startproc
# %bb.0:                                # %rand_bb
	pushq	%rbp
	.cfi_def_cfa_offset 16
	.cfi_offset %rbp, -16
	movq	%rsp, %rbp
	.cfi_def_cfa_register %rbp
	pushq	%r14
	pushq	%rbx
	.cfi_offset %rbx, -32
	.cfi_offset %r14, -24
	movq	%rsi, %r14
	movq	%rdi, %rbx
	callq	get_urand
	cmpl	$0, %eax
	jne	.LBB16_2
# %bb.1:                                # %func_writeSyntaxElement2Buf_UVLC.54
	movq	%rbx, %rdi
	movq	%r14, %rsi
	callq	writeSyntaxElement2Buf_UVLC.54
	popq	%rbx
	popq	%r14
	popq	%rbp
	.cfi_def_cfa %rsp, 8
	retq
.LBB16_2:                               # %func_writeSyntaxElement2Buf_UVLC.90
	.cfi_def_cfa %rbp, 16
	movq	%rbx, %rdi
	movq	%r14, %rsi
	callq	writeSyntaxElement2Buf_UVLC.90
	popq	%rbx
	popq	%r14
	popq	%rbp
	.cfi_def_cfa %rsp, 8
	retq
.Lfunc_end16:
	.size	writeSyntaxElement2Buf_UVLC, .Lfunc_end16-writeSyntaxElement2Buf_UVLC
	.cfi_endproc
                                        # -- End function
	.globl	writeSyntaxElement2Buf_Fixed # -- Begin function writeSyntaxElement2Buf_Fixed
	.p2align	4, 0x90
	.type	writeSyntaxElement2Buf_Fixed,@function
writeSyntaxElement2Buf_Fixed:           # @writeSyntaxElement2Buf_Fixed
	.cfi_startproc
# %bb.0:                                # %rand_bb
	pushq	%rbp
	.cfi_def_cfa_offset 16
	.cfi_offset %rbp, -16
	movq	%rsp, %rbp
	.cfi_def_cfa_register %rbp
	pushq	%r14
	pushq	%rbx
	.cfi_offset %rbx, -32
	.cfi_offset %r14, -24
	movq	%rsi, %r14
	movq	%rdi, %rbx
	callq	get_urand
	cmpl	$0, %eax
	jne	.LBB17_2
# %bb.1:                                # %func_writeSyntaxElement2Buf_Fixed.39
	movq	%rbx, %rdi
	movq	%r14, %rsi
	callq	writeSyntaxElement2Buf_Fixed.39
	popq	%rbx
	popq	%r14
	popq	%rbp
	.cfi_def_cfa %rsp, 8
	retq
.LBB17_2:                               # %func_writeSyntaxElement2Buf_Fixed.45
	.cfi_def_cfa %rbp, 16
	movq	%rbx, %rdi
	movq	%r14, %rsi
	callq	writeSyntaxElement2Buf_Fixed.45
	popq	%rbx
	popq	%r14
	popq	%rbp
	.cfi_def_cfa %rsp, 8
	retq
.Lfunc_end17:
	.size	writeSyntaxElement2Buf_Fixed, .Lfunc_end17-writeSyntaxElement2Buf_Fixed
	.cfi_endproc
                                        # -- End function
	.globl	symbol2vlc              # -- Begin function symbol2vlc
	.p2align	4, 0x90
	.type	symbol2vlc,@function
symbol2vlc:                             # @symbol2vlc
	.cfi_startproc
# %bb.0:                                # %rand_bb
	pushq	%rbp
	.cfi_def_cfa_offset 16
	.cfi_offset %rbp, -16
	movq	%rsp, %rbp
	.cfi_def_cfa_register %rbp
	pushq	%rbx
	pushq	%rax
	.cfi_offset %rbx, -24
	movq	%rdi, %rbx
	callq	get_urand
	cmpl	$0, %eax
	jne	.LBB18_2
# %bb.1:                                # %func_symbol2vlc.13
	movq	%rbx, %rdi
	callq	symbol2vlc.13
	addq	$8, %rsp
	popq	%rbx
	popq	%rbp
	.cfi_def_cfa %rsp, 8
	retq
.LBB18_2:                               # %func_symbol2vlc.38
	.cfi_def_cfa %rbp, 16
	movq	%rbx, %rdi
	callq	symbol2vlc.38
	addq	$8, %rsp
	popq	%rbx
	popq	%rbp
	.cfi_def_cfa %rsp, 8
	retq
.Lfunc_end18:
	.size	symbol2vlc, .Lfunc_end18-symbol2vlc
	.cfi_endproc
                                        # -- End function
	.globl	writeSyntaxElement_VLC  # -- Begin function writeSyntaxElement_VLC
	.p2align	4, 0x90
	.type	writeSyntaxElement_VLC,@function
writeSyntaxElement_VLC:                 # @writeSyntaxElement_VLC
	.cfi_startproc
# %bb.0:                                # %rand_bb
	pushq	%rbp
	.cfi_def_cfa_offset 16
	.cfi_offset %rbp, -16
	movq	%rsp, %rbp
	.cfi_def_cfa_register %rbp
	pushq	%r14
	pushq	%rbx
	.cfi_offset %rbx, -32
	.cfi_offset %r14, -24
	movq	%rsi, %r14
	movq	%rdi, %rbx
	callq	get_urand
	cmpl	$0, %eax
	jne	.LBB19_2
# %bb.1:                                # %func_writeSyntaxElement_VLC.63
	movq	%rbx, %rdi
	movq	%r14, %rsi
	callq	writeSyntaxElement_VLC.63
	popq	%rbx
	popq	%r14
	popq	%rbp
	.cfi_def_cfa %rsp, 8
	retq
.LBB19_2:                               # %func_writeSyntaxElement_VLC.64
	.cfi_def_cfa %rbp, 16
	movq	%rbx, %rdi
	movq	%r14, %rsi
	callq	writeSyntaxElement_VLC.64
	popq	%rbx
	popq	%r14
	popq	%rbp
	.cfi_def_cfa %rsp, 8
	retq
.Lfunc_end19:
	.size	writeSyntaxElement_VLC, .Lfunc_end19-writeSyntaxElement_VLC
	.cfi_endproc
                                        # -- End function
	.globl	writeSyntaxElement_NumCoeffTrailingOnes # -- Begin function writeSyntaxElement_NumCoeffTrailingOnes
	.p2align	4, 0x90
	.type	writeSyntaxElement_NumCoeffTrailingOnes,@function
writeSyntaxElement_NumCoeffTrailingOnes: # @writeSyntaxElement_NumCoeffTrailingOnes
	.cfi_startproc
# %bb.0:                                # %rand_bb
	pushq	%rbp
	.cfi_def_cfa_offset 16
	.cfi_offset %rbp, -16
	movq	%rsp, %rbp
	.cfi_def_cfa_register %rbp
	pushq	%r14
	pushq	%rbx
	.cfi_offset %rbx, -32
	.cfi_offset %r14, -24
	movq	%rsi, %r14
	movq	%rdi, %rbx
	callq	get_urand
	cmpl	$0, %eax
	jne	.LBB20_7
# %bb.1:                                # %func_writeSyntaxElement_NumCoeffTrailingOnes.17
	movq	%rbx, %rdi
	movq	%r14, %rsi
	callq	writeSyntaxElement_NumCoeffTrailingOnes.17
	popq	%rbx
	popq	%r14
	popq	%rbp
	.cfi_def_cfa %rsp, 8
	retq
.LBB20_2:                               # %func_writeSyntaxElement_NumCoeffTrailingOnes.37
	.cfi_def_cfa %rbp, 16
	movq	%rbx, %rdi
	movq	%r14, %rsi
	callq	writeSyntaxElement_NumCoeffTrailingOnes.37
	popq	%rbx
	popq	%r14
	popq	%rbp
	.cfi_def_cfa %rsp, 8
	retq
.LBB20_3:                               # %func_writeSyntaxElement_NumCoeffTrailingOnes.75
	.cfi_def_cfa %rbp, 16
	movq	%rbx, %rdi
	movq	%r14, %rsi
	callq	writeSyntaxElement_NumCoeffTrailingOnes.75
	popq	%rbx
	popq	%r14
	popq	%rbp
	.cfi_def_cfa %rsp, 8
	retq
.LBB20_4:                               # %func_writeSyntaxElement_NumCoeffTrailingOnes.106
	.cfi_def_cfa %rbp, 16
	movq	%rbx, %rdi
	movq	%r14, %rsi
	callq	writeSyntaxElement_NumCoeffTrailingOnes.106
	popq	%rbx
	popq	%r14
	popq	%rbp
	.cfi_def_cfa %rsp, 8
	retq
.LBB20_5:                               # %func_writeSyntaxElement_NumCoeffTrailingOnes.117
	.cfi_def_cfa %rbp, 16
	movq	%rbx, %rdi
	movq	%r14, %rsi
	callq	writeSyntaxElement_NumCoeffTrailingOnes.117
	popq	%rbx
	popq	%r14
	popq	%rbp
	.cfi_def_cfa %rsp, 8
	retq
.LBB20_6:                               # %func_writeSyntaxElement_NumCoeffTrailingOnes.118
	.cfi_def_cfa %rbp, 16
	movq	%rbx, %rdi
	movq	%r14, %rsi
	callq	writeSyntaxElement_NumCoeffTrailingOnes.118
	popq	%rbx
	popq	%r14
	popq	%rbp
	.cfi_def_cfa %rsp, 8
	retq
.LBB20_7:                               # %ctrl0
	.cfi_def_cfa %rbp, 16
	cmpl	$1, %eax
	je	.LBB20_2
# %bb.8:                                # %ctrl1
	cmpl	$2, %eax
	je	.LBB20_3
# %bb.9:                                # %ctrl2
	cmpl	$3, %eax
	je	.LBB20_4
# %bb.10:                               # %ctrl3
	cmpl	$4, %eax
	je	.LBB20_5
	jmp	.LBB20_6
.Lfunc_end20:
	.size	writeSyntaxElement_NumCoeffTrailingOnes, .Lfunc_end20-writeSyntaxElement_NumCoeffTrailingOnes
	.cfi_endproc
                                        # -- End function
	.globl	writeSyntaxElement_NumCoeffTrailingOnesChromaDC # -- Begin function writeSyntaxElement_NumCoeffTrailingOnesChromaDC
	.p2align	4, 0x90
	.type	writeSyntaxElement_NumCoeffTrailingOnesChromaDC,@function
writeSyntaxElement_NumCoeffTrailingOnesChromaDC: # @writeSyntaxElement_NumCoeffTrailingOnesChromaDC
	.cfi_startproc
# %bb.0:                                # %rand_bb
	pushq	%rbp
	.cfi_def_cfa_offset 16
	.cfi_offset %rbp, -16
	movq	%rsp, %rbp
	.cfi_def_cfa_register %rbp
	pushq	%r14
	pushq	%rbx
	.cfi_offset %rbx, -32
	.cfi_offset %r14, -24
	movq	%rsi, %r14
	movq	%rdi, %rbx
	callq	get_urand
	cmpl	$0, %eax
	jne	.LBB21_7
# %bb.1:                                # %func_writeSyntaxElement_NumCoeffTrailingOnesChromaDC.7
	movq	%rbx, %rdi
	movq	%r14, %rsi
	callq	writeSyntaxElement_NumCoeffTrailingOnesChromaDC.7
	popq	%rbx
	popq	%r14
	popq	%rbp
	.cfi_def_cfa %rsp, 8
	retq
.LBB21_2:                               # %func_writeSyntaxElement_NumCoeffTrailingOnesChromaDC.42
	.cfi_def_cfa %rbp, 16
	movq	%rbx, %rdi
	movq	%r14, %rsi
	callq	writeSyntaxElement_NumCoeffTrailingOnesChromaDC.42
	popq	%rbx
	popq	%r14
	popq	%rbp
	.cfi_def_cfa %rsp, 8
	retq
.LBB21_3:                               # %func_writeSyntaxElement_NumCoeffTrailingOnesChromaDC.43
	.cfi_def_cfa %rbp, 16
	movq	%rbx, %rdi
	movq	%r14, %rsi
	callq	writeSyntaxElement_NumCoeffTrailingOnesChromaDC.43
	popq	%rbx
	popq	%r14
	popq	%rbp
	.cfi_def_cfa %rsp, 8
	retq
.LBB21_4:                               # %func_writeSyntaxElement_NumCoeffTrailingOnesChromaDC.47
	.cfi_def_cfa %rbp, 16
	movq	%rbx, %rdi
	movq	%r14, %rsi
	callq	writeSyntaxElement_NumCoeffTrailingOnesChromaDC.47
	popq	%rbx
	popq	%r14
	popq	%rbp
	.cfi_def_cfa %rsp, 8
	retq
.LBB21_5:                               # %func_writeSyntaxElement_NumCoeffTrailingOnesChromaDC.86
	.cfi_def_cfa %rbp, 16
	movq	%rbx, %rdi
	movq	%r14, %rsi
	callq	writeSyntaxElement_NumCoeffTrailingOnesChromaDC.86
	popq	%rbx
	popq	%r14
	popq	%rbp
	.cfi_def_cfa %rsp, 8
	retq
.LBB21_6:                               # %func_writeSyntaxElement_NumCoeffTrailingOnesChromaDC.129
	.cfi_def_cfa %rbp, 16
	movq	%rbx, %rdi
	movq	%r14, %rsi
	callq	writeSyntaxElement_NumCoeffTrailingOnesChromaDC.129
	popq	%rbx
	popq	%r14
	popq	%rbp
	.cfi_def_cfa %rsp, 8
	retq
.LBB21_7:                               # %ctrl0
	.cfi_def_cfa %rbp, 16
	cmpl	$1, %eax
	je	.LBB21_2
# %bb.8:                                # %ctrl1
	cmpl	$2, %eax
	je	.LBB21_3
# %bb.9:                                # %ctrl2
	cmpl	$3, %eax
	je	.LBB21_4
# %bb.10:                               # %ctrl3
	cmpl	$4, %eax
	je	.LBB21_5
	jmp	.LBB21_6
.Lfunc_end21:
	.size	writeSyntaxElement_NumCoeffTrailingOnesChromaDC, .Lfunc_end21-writeSyntaxElement_NumCoeffTrailingOnesChromaDC
	.cfi_endproc
                                        # -- End function
	.globl	writeSyntaxElement_TotalZeros # -- Begin function writeSyntaxElement_TotalZeros
	.p2align	4, 0x90
	.type	writeSyntaxElement_TotalZeros,@function
writeSyntaxElement_TotalZeros:          # @writeSyntaxElement_TotalZeros
	.cfi_startproc
# %bb.0:                                # %rand_bb
	pushq	%rbp
	.cfi_def_cfa_offset 16
	.cfi_offset %rbp, -16
	movq	%rsp, %rbp
	.cfi_def_cfa_register %rbp
	pushq	%r14
	pushq	%rbx
	.cfi_offset %rbx, -32
	.cfi_offset %r14, -24
	movq	%rsi, %r14
	movq	%rdi, %rbx
	callq	get_urand
	cmpl	$0, %eax
	jne	.LBB22_7
# %bb.1:                                # %func_writeSyntaxElement_TotalZeros.8
	movq	%rbx, %rdi
	movq	%r14, %rsi
	callq	writeSyntaxElement_TotalZeros.8
	popq	%rbx
	popq	%r14
	popq	%rbp
	.cfi_def_cfa %rsp, 8
	retq
.LBB22_2:                               # %func_writeSyntaxElement_TotalZeros.31
	.cfi_def_cfa %rbp, 16
	movq	%rbx, %rdi
	movq	%r14, %rsi
	callq	writeSyntaxElement_TotalZeros.31
	popq	%rbx
	popq	%r14
	popq	%rbp
	.cfi_def_cfa %rsp, 8
	retq
.LBB22_3:                               # %func_writeSyntaxElement_TotalZeros.71
	.cfi_def_cfa %rbp, 16
	movq	%rbx, %rdi
	movq	%r14, %rsi
	callq	writeSyntaxElement_TotalZeros.71
	popq	%rbx
	popq	%r14
	popq	%rbp
	.cfi_def_cfa %rsp, 8
	retq
.LBB22_4:                               # %func_writeSyntaxElement_TotalZeros.97
	.cfi_def_cfa %rbp, 16
	movq	%rbx, %rdi
	movq	%r14, %rsi
	callq	writeSyntaxElement_TotalZeros.97
	popq	%rbx
	popq	%r14
	popq	%rbp
	.cfi_def_cfa %rsp, 8
	retq
.LBB22_5:                               # %func_writeSyntaxElement_TotalZeros.100
	.cfi_def_cfa %rbp, 16
	movq	%rbx, %rdi
	movq	%r14, %rsi
	callq	writeSyntaxElement_TotalZeros.100
	popq	%rbx
	popq	%r14
	popq	%rbp
	.cfi_def_cfa %rsp, 8
	retq
.LBB22_6:                               # %func_writeSyntaxElement_TotalZeros.116
	.cfi_def_cfa %rbp, 16
	movq	%rbx, %rdi
	movq	%r14, %rsi
	callq	writeSyntaxElement_TotalZeros.116
	popq	%rbx
	popq	%r14
	popq	%rbp
	.cfi_def_cfa %rsp, 8
	retq
.LBB22_7:                               # %ctrl0
	.cfi_def_cfa %rbp, 16
	cmpl	$1, %eax
	je	.LBB22_2
# %bb.8:                                # %ctrl1
	cmpl	$2, %eax
	je	.LBB22_3
# %bb.9:                                # %ctrl2
	cmpl	$3, %eax
	je	.LBB22_4
# %bb.10:                               # %ctrl3
	cmpl	$4, %eax
	je	.LBB22_5
	jmp	.LBB22_6
.Lfunc_end22:
	.size	writeSyntaxElement_TotalZeros, .Lfunc_end22-writeSyntaxElement_TotalZeros
	.cfi_endproc
                                        # -- End function
	.globl	writeSyntaxElement_TotalZerosChromaDC # -- Begin function writeSyntaxElement_TotalZerosChromaDC
	.p2align	4, 0x90
	.type	writeSyntaxElement_TotalZerosChromaDC,@function
writeSyntaxElement_TotalZerosChromaDC:  # @writeSyntaxElement_TotalZerosChromaDC
	.cfi_startproc
# %bb.0:                                # %rand_bb
	pushq	%rbp
	.cfi_def_cfa_offset 16
	.cfi_offset %rbp, -16
	movq	%rsp, %rbp
	.cfi_def_cfa_register %rbp
	pushq	%r14
	pushq	%rbx
	.cfi_offset %rbx, -32
	.cfi_offset %r14, -24
	movq	%rsi, %r14
	movq	%rdi, %rbx
	callq	get_urand
	cmpl	$0, %eax
	jne	.LBB23_9
# %bb.1:                                # %func_writeSyntaxElement_TotalZerosChromaDC.6
	movq	%rbx, %rdi
	movq	%r14, %rsi
	callq	writeSyntaxElement_TotalZerosChromaDC.6
	popq	%rbx
	popq	%r14
	popq	%rbp
	.cfi_def_cfa %rsp, 8
	retq
.LBB23_2:                               # %func_writeSyntaxElement_TotalZerosChromaDC.15
	.cfi_def_cfa %rbp, 16
	movq	%rbx, %rdi
	movq	%r14, %rsi
	callq	writeSyntaxElement_TotalZerosChromaDC.15
	popq	%rbx
	popq	%r14
	popq	%rbp
	.cfi_def_cfa %rsp, 8
	retq
.LBB23_3:                               # %func_writeSyntaxElement_TotalZerosChromaDC.20
	.cfi_def_cfa %rbp, 16
	movq	%rbx, %rdi
	movq	%r14, %rsi
	callq	writeSyntaxElement_TotalZerosChromaDC.20
	popq	%rbx
	popq	%r14
	popq	%rbp
	.cfi_def_cfa %rsp, 8
	retq
.LBB23_4:                               # %func_writeSyntaxElement_TotalZerosChromaDC.136
	.cfi_def_cfa %rbp, 16
	movq	%rbx, %rdi
	movq	%r14, %rsi
	callq	writeSyntaxElement_TotalZerosChromaDC.136
	popq	%rbx
	popq	%r14
	popq	%rbp
	.cfi_def_cfa %rsp, 8
	retq
.LBB23_5:                               # %func_writeSyntaxElement_TotalZerosChromaDC.137
	.cfi_def_cfa %rbp, 16
	movq	%rbx, %rdi
	movq	%r14, %rsi
	callq	writeSyntaxElement_TotalZerosChromaDC.137
	popq	%rbx
	popq	%r14
	popq	%rbp
	.cfi_def_cfa %rsp, 8
	retq
.LBB23_6:                               # %func_writeSyntaxElement_TotalZerosChromaDC.143
	.cfi_def_cfa %rbp, 16
	movq	%rbx, %rdi
	movq	%r14, %rsi
	callq	writeSyntaxElement_TotalZerosChromaDC.143
	popq	%rbx
	popq	%r14
	popq	%rbp
	.cfi_def_cfa %rsp, 8
	retq
.LBB23_7:                               # %func_writeSyntaxElement_TotalZerosChromaDC.146
	.cfi_def_cfa %rbp, 16
	movq	%rbx, %rdi
	movq	%r14, %rsi
	callq	writeSyntaxElement_TotalZerosChromaDC.146
	popq	%rbx
	popq	%r14
	popq	%rbp
	.cfi_def_cfa %rsp, 8
	retq
.LBB23_8:                               # %func_writeSyntaxElement_TotalZerosChromaDC.148
	.cfi_def_cfa %rbp, 16
	movq	%rbx, %rdi
	movq	%r14, %rsi
	callq	writeSyntaxElement_TotalZerosChromaDC.148
	popq	%rbx
	popq	%r14
	popq	%rbp
	.cfi_def_cfa %rsp, 8
	retq
.LBB23_9:                               # %ctrl0
	.cfi_def_cfa %rbp, 16
	cmpl	$1, %eax
	je	.LBB23_2
# %bb.10:                               # %ctrl1
	cmpl	$2, %eax
	je	.LBB23_3
# %bb.11:                               # %ctrl2
	cmpl	$3, %eax
	je	.LBB23_4
# %bb.12:                               # %ctrl3
	cmpl	$4, %eax
	je	.LBB23_5
# %bb.13:                               # %ctrl4
	cmpl	$5, %eax
	je	.LBB23_6
# %bb.14:                               # %ctrl5
	cmpl	$6, %eax
	je	.LBB23_7
	jmp	.LBB23_8
.Lfunc_end23:
	.size	writeSyntaxElement_TotalZerosChromaDC, .Lfunc_end23-writeSyntaxElement_TotalZerosChromaDC
	.cfi_endproc
                                        # -- End function
	.globl	writeSyntaxElement_Run  # -- Begin function writeSyntaxElement_Run
	.p2align	4, 0x90
	.type	writeSyntaxElement_Run,@function
writeSyntaxElement_Run:                 # @writeSyntaxElement_Run
	.cfi_startproc
# %bb.0:                                # %rand_bb
	pushq	%rbp
	.cfi_def_cfa_offset 16
	.cfi_offset %rbp, -16
	movq	%rsp, %rbp
	.cfi_def_cfa_register %rbp
	pushq	%r14
	pushq	%rbx
	.cfi_offset %rbx, -32
	.cfi_offset %r14, -24
	movq	%rsi, %r14
	movq	%rdi, %rbx
	callq	get_urand
	cmpl	$0, %eax
	jne	.LBB24_7
# %bb.1:                                # %func_writeSyntaxElement_Run.29
	movq	%rbx, %rdi
	movq	%r14, %rsi
	callq	writeSyntaxElement_Run.29
	popq	%rbx
	popq	%r14
	popq	%rbp
	.cfi_def_cfa %rsp, 8
	retq
.LBB24_2:                               # %func_writeSyntaxElement_Run.30
	.cfi_def_cfa %rbp, 16
	movq	%rbx, %rdi
	movq	%r14, %rsi
	callq	writeSyntaxElement_Run.30
	popq	%rbx
	popq	%r14
	popq	%rbp
	.cfi_def_cfa %rsp, 8
	retq
.LBB24_3:                               # %func_writeSyntaxElement_Run.33
	.cfi_def_cfa %rbp, 16
	movq	%rbx, %rdi
	movq	%r14, %rsi
	callq	writeSyntaxElement_Run.33
	popq	%rbx
	popq	%r14
	popq	%rbp
	.cfi_def_cfa %rsp, 8
	retq
.LBB24_4:                               # %func_writeSyntaxElement_Run.34
	.cfi_def_cfa %rbp, 16
	movq	%rbx, %rdi
	movq	%r14, %rsi
	callq	writeSyntaxElement_Run.34
	popq	%rbx
	popq	%r14
	popq	%rbp
	.cfi_def_cfa %rsp, 8
	retq
.LBB24_5:                               # %func_writeSyntaxElement_Run.35
	.cfi_def_cfa %rbp, 16
	movq	%rbx, %rdi
	movq	%r14, %rsi
	callq	writeSyntaxElement_Run.35
	popq	%rbx
	popq	%r14
	popq	%rbp
	.cfi_def_cfa %rsp, 8
	retq
.LBB24_6:                               # %func_writeSyntaxElement_Run.40
	.cfi_def_cfa %rbp, 16
	movq	%rbx, %rdi
	movq	%r14, %rsi
	callq	writeSyntaxElement_Run.40
	popq	%rbx
	popq	%r14
	popq	%rbp
	.cfi_def_cfa %rsp, 8
	retq
.LBB24_7:                               # %ctrl0
	.cfi_def_cfa %rbp, 16
	cmpl	$1, %eax
	je	.LBB24_2
# %bb.8:                                # %ctrl1
	cmpl	$2, %eax
	je	.LBB24_3
# %bb.9:                                # %ctrl2
	cmpl	$3, %eax
	je	.LBB24_4
# %bb.10:                               # %ctrl3
	cmpl	$4, %eax
	je	.LBB24_5
	jmp	.LBB24_6
.Lfunc_end24:
	.size	writeSyntaxElement_Run, .Lfunc_end24-writeSyntaxElement_Run
	.cfi_endproc
                                        # -- End function
	.globl	writeSyntaxElement_Level_VLC1 # -- Begin function writeSyntaxElement_Level_VLC1
	.p2align	4, 0x90
	.type	writeSyntaxElement_Level_VLC1,@function
writeSyntaxElement_Level_VLC1:          # @writeSyntaxElement_Level_VLC1
	.cfi_startproc
# %bb.0:                                # %rand_bb
	pushq	%rbp
	.cfi_def_cfa_offset 16
	.cfi_offset %rbp, -16
	movq	%rsp, %rbp
	.cfi_def_cfa_register %rbp
	pushq	%r14
	pushq	%rbx
	.cfi_offset %rbx, -32
	.cfi_offset %r14, -24
	movq	%rsi, %r14
	movq	%rdi, %rbx
	callq	get_urand
	cmpl	$0, %eax
	jne	.LBB25_9
# %bb.1:                                # %func_writeSyntaxElement_Level_VLC1.61
	movq	%rbx, %rdi
	movq	%r14, %rsi
	callq	writeSyntaxElement_Level_VLC1.61
	popq	%rbx
	popq	%r14
	popq	%rbp
	.cfi_def_cfa %rsp, 8
	retq
.LBB25_2:                               # %func_writeSyntaxElement_Level_VLC1.69
	.cfi_def_cfa %rbp, 16
	movq	%rbx, %rdi
	movq	%r14, %rsi
	callq	writeSyntaxElement_Level_VLC1.69
	popq	%rbx
	popq	%r14
	popq	%rbp
	.cfi_def_cfa %rsp, 8
	retq
.LBB25_3:                               # %func_writeSyntaxElement_Level_VLC1.114
	.cfi_def_cfa %rbp, 16
	movq	%rbx, %rdi
	movq	%r14, %rsi
	callq	writeSyntaxElement_Level_VLC1.114
	popq	%rbx
	popq	%r14
	popq	%rbp
	.cfi_def_cfa %rsp, 8
	retq
.LBB25_4:                               # %func_writeSyntaxElement_Level_VLC1.130
	.cfi_def_cfa %rbp, 16
	movq	%rbx, %rdi
	movq	%r14, %rsi
	callq	writeSyntaxElement_Level_VLC1.130
	popq	%rbx
	popq	%r14
	popq	%rbp
	.cfi_def_cfa %rsp, 8
	retq
.LBB25_5:                               # %func_writeSyntaxElement_Level_VLC1.139
	.cfi_def_cfa %rbp, 16
	movq	%rbx, %rdi
	movq	%r14, %rsi
	callq	writeSyntaxElement_Level_VLC1.139
	popq	%rbx
	popq	%r14
	popq	%rbp
	.cfi_def_cfa %rsp, 8
	retq
.LBB25_6:                               # %func_writeSyntaxElement_Level_VLC1.142
	.cfi_def_cfa %rbp, 16
	movq	%rbx, %rdi
	movq	%r14, %rsi
	callq	writeSyntaxElement_Level_VLC1.142
	popq	%rbx
	popq	%r14
	popq	%rbp
	.cfi_def_cfa %rsp, 8
	retq
.LBB25_7:                               # %func_writeSyntaxElement_Level_VLC1.151
	.cfi_def_cfa %rbp, 16
	movq	%rbx, %rdi
	movq	%r14, %rsi
	callq	writeSyntaxElement_Level_VLC1.151
	popq	%rbx
	popq	%r14
	popq	%rbp
	.cfi_def_cfa %rsp, 8
	retq
.LBB25_8:                               # %func_writeSyntaxElement_Level_VLC1.153
	.cfi_def_cfa %rbp, 16
	movq	%rbx, %rdi
	movq	%r14, %rsi
	callq	writeSyntaxElement_Level_VLC1.153
	popq	%rbx
	popq	%r14
	popq	%rbp
	.cfi_def_cfa %rsp, 8
	retq
.LBB25_9:                               # %ctrl0
	.cfi_def_cfa %rbp, 16
	cmpl	$1, %eax
	je	.LBB25_2
# %bb.10:                               # %ctrl1
	cmpl	$2, %eax
	je	.LBB25_3
# %bb.11:                               # %ctrl2
	cmpl	$3, %eax
	je	.LBB25_4
# %bb.12:                               # %ctrl3
	cmpl	$4, %eax
	je	.LBB25_5
# %bb.13:                               # %ctrl4
	cmpl	$5, %eax
	je	.LBB25_6
# %bb.14:                               # %ctrl5
	cmpl	$6, %eax
	je	.LBB25_7
	jmp	.LBB25_8
.Lfunc_end25:
	.size	writeSyntaxElement_Level_VLC1, .Lfunc_end25-writeSyntaxElement_Level_VLC1
	.cfi_endproc
                                        # -- End function
	.globl	writeSyntaxElement_Level_VLCN # -- Begin function writeSyntaxElement_Level_VLCN
	.p2align	4, 0x90
	.type	writeSyntaxElement_Level_VLCN,@function
writeSyntaxElement_Level_VLCN:          # @writeSyntaxElement_Level_VLCN
	.cfi_startproc
# %bb.0:                                # %rand_bb
	pushq	%rbp
	.cfi_def_cfa_offset 16
	.cfi_offset %rbp, -16
	movq	%rsp, %rbp
	.cfi_def_cfa_register %rbp
	pushq	%r15
	pushq	%r14
	pushq	%rbx
	pushq	%rax
	.cfi_offset %rbx, -40
	.cfi_offset %r14, -32
	.cfi_offset %r15, -24
	movq	%rdx, %r14
	movl	%esi, %r15d
	movq	%rdi, %rbx
	callq	get_urand
	cmpl	$0, %eax
	jne	.LBB26_9
# %bb.1:                                # %func_writeSyntaxElement_Level_VLCN.4
	movq	%rbx, %rdi
	movl	%r15d, %esi
	movq	%r14, %rdx
	callq	writeSyntaxElement_Level_VLCN.4
	addq	$8, %rsp
	popq	%rbx
	popq	%r14
	popq	%r15
	popq	%rbp
	.cfi_def_cfa %rsp, 8
	retq
.LBB26_2:                               # %func_writeSyntaxElement_Level_VLCN.10
	.cfi_def_cfa %rbp, 16
	movq	%rbx, %rdi
	movl	%r15d, %esi
	movq	%r14, %rdx
	callq	writeSyntaxElement_Level_VLCN.10
	addq	$8, %rsp
	popq	%rbx
	popq	%r14
	popq	%r15
	popq	%rbp
	.cfi_def_cfa %rsp, 8
	retq
.LBB26_3:                               # %func_writeSyntaxElement_Level_VLCN.77
	.cfi_def_cfa %rbp, 16
	movq	%rbx, %rdi
	movl	%r15d, %esi
	movq	%r14, %rdx
	callq	writeSyntaxElement_Level_VLCN.77
	addq	$8, %rsp
	popq	%rbx
	popq	%r14
	popq	%r15
	popq	%rbp
	.cfi_def_cfa %rsp, 8
	retq
.LBB26_4:                               # %func_writeSyntaxElement_Level_VLCN.84
	.cfi_def_cfa %rbp, 16
	movq	%rbx, %rdi
	movl	%r15d, %esi
	movq	%r14, %rdx
	callq	writeSyntaxElement_Level_VLCN.84
	addq	$8, %rsp
	popq	%rbx
	popq	%r14
	popq	%r15
	popq	%rbp
	.cfi_def_cfa %rsp, 8
	retq
.LBB26_5:                               # %func_writeSyntaxElement_Level_VLCN.94
	.cfi_def_cfa %rbp, 16
	movq	%rbx, %rdi
	movl	%r15d, %esi
	movq	%r14, %rdx
	callq	writeSyntaxElement_Level_VLCN.94
	addq	$8, %rsp
	popq	%rbx
	popq	%r14
	popq	%r15
	popq	%rbp
	.cfi_def_cfa %rsp, 8
	retq
.LBB26_6:                               # %func_writeSyntaxElement_Level_VLCN.105
	.cfi_def_cfa %rbp, 16
	movq	%rbx, %rdi
	movl	%r15d, %esi
	movq	%r14, %rdx
	callq	writeSyntaxElement_Level_VLCN.105
	addq	$8, %rsp
	popq	%rbx
	popq	%r14
	popq	%r15
	popq	%rbp
	.cfi_def_cfa %rsp, 8
	retq
.LBB26_7:                               # %func_writeSyntaxElement_Level_VLCN.111
	.cfi_def_cfa %rbp, 16
	movq	%rbx, %rdi
	movl	%r15d, %esi
	movq	%r14, %rdx
	callq	writeSyntaxElement_Level_VLCN.111
	addq	$8, %rsp
	popq	%rbx
	popq	%r14
	popq	%r15
	popq	%rbp
	.cfi_def_cfa %rsp, 8
	retq
.LBB26_8:                               # %func_writeSyntaxElement_Level_VLCN.119
	.cfi_def_cfa %rbp, 16
	movq	%rbx, %rdi
	movl	%r15d, %esi
	movq	%r14, %rdx
	callq	writeSyntaxElement_Level_VLCN.119
	addq	$8, %rsp
	popq	%rbx
	popq	%r14
	popq	%r15
	popq	%rbp
	.cfi_def_cfa %rsp, 8
	retq
.LBB26_9:                               # %ctrl0
	.cfi_def_cfa %rbp, 16
	cmpl	$1, %eax
	je	.LBB26_2
# %bb.10:                               # %ctrl1
	cmpl	$2, %eax
	je	.LBB26_3
# %bb.11:                               # %ctrl2
	cmpl	$3, %eax
	je	.LBB26_4
# %bb.12:                               # %ctrl3
	cmpl	$4, %eax
	je	.LBB26_5
# %bb.13:                               # %ctrl4
	cmpl	$5, %eax
	je	.LBB26_6
# %bb.14:                               # %ctrl5
	cmpl	$6, %eax
	je	.LBB26_7
	jmp	.LBB26_8
.Lfunc_end26:
	.size	writeSyntaxElement_Level_VLCN, .Lfunc_end26-writeSyntaxElement_Level_VLCN
	.cfi_endproc
                                        # -- End function
	.globl	writeVlcByteAlign       # -- Begin function writeVlcByteAlign
	.p2align	4, 0x90
	.type	writeVlcByteAlign,@function
writeVlcByteAlign:                      # @writeVlcByteAlign
	.cfi_startproc
# %bb.0:                                # %entry
	pushq	%rbp
	.cfi_def_cfa_offset 16
	.cfi_offset %rbp, -16
	movq	%rsp, %rbp
	.cfi_def_cfa_register %rbp
	movq	%rdi, -8(%rbp)
	movq	-8(%rbp), %rax
	cmpl	$8, 4(%rax)
	jge	.LBB27_2
# %bb.1:                                # %if.then
	movq	-8(%rbp), %rax
	movzbl	8(%rax), %eax
	movq	-8(%rbp), %rcx
	movl	4(%rcx), %ecx
                                        # kill: def $cl killed $ecx
	shll	%cl, %eax
	movq	-8(%rbp), %rdx
	movl	$8, %ecx
	subl	4(%rdx), %ecx
                                        # kill: def $cl killed $ecx
	movl	$255, %edx
	sarl	%cl, %edx
	orl	%edx, %eax
	movq	-8(%rbp), %rcx
	movb	%al, 8(%rcx)
	movq	-8(%rbp), %rax
	movl	4(%rax), %eax
	movq	stats, %rcx
	movq	img, %rdx
	movslq	24(%rdx), %rdx
	addl	1328(%rcx,%rdx,4), %eax
	movl	%eax, 1328(%rcx,%rdx,4)
	movq	-8(%rbp), %rax
	movb	8(%rax), %al
	movq	-8(%rbp), %rcx
	movq	32(%rcx), %rcx
	movq	-8(%rbp), %rdx
	movl	(%rdx), %esi
	movl	%esi, %edi
	addl	$1, %edi
	movl	%edi, (%rdx)
	movslq	%esi, %rdx
	movb	%al, (%rcx,%rdx)
	movq	-8(%rbp), %rax
	movl	$8, 4(%rax)
.LBB27_2:                               # %if.end
	popq	%rbp
	.cfi_def_cfa %rsp, 8
	retq
.Lfunc_end27:
	.size	writeVlcByteAlign, .Lfunc_end27-writeVlcByteAlign
	.cfi_endproc
                                        # -- End function
	.section	.rodata.cst8,"aM",@progbits,8
	.p2align	3               # -- Begin function levrun_linfo_intra.1
.LCPI28_0:
	.quad	4611686018427387904     # double 2
	.text
	.globl	levrun_linfo_intra.1
	.p2align	4, 0x90
	.type	levrun_linfo_intra.1,@function
levrun_linfo_intra.1:                   # @levrun_linfo_intra.1
	.cfi_startproc
# %bb.0:                                # %entry
	pushq	%rbp
	.cfi_def_cfa_offset 16
	.cfi_offset %rbp, -16
	movq	%rsp, %rbp
	.cfi_def_cfa_register %rbp
	pushq	%rbx
	subq	$104, %rsp
	.cfi_offset %rbx, -24
	movl	$1505509127, -40(%rbp)  # imm = 0x59BC3F07
	movl	%edi, -20(%rbp)
	movl	%esi, -16(%rbp)
	movq	%rdx, -48(%rbp)
	movq	%rcx, -64(%rbp)
	movq	.L__const.levrun_linfo_intra.LEVRUN, %rax
	movq	%rax, -56(%rbp)
	leaq	-112(%rbp), %rdi
	movabsq	$.L__const.levrun_linfo_intra.NTAB, %rsi
	movl	$45, %edx
	callq	memcpy
	cmpl	$0, -20(%rbp)
	jne	.LBB28_2
# %bb.1:                                # %if.then
	movq	-48(%rbp), %rax
	movl	$1, (%rax)
	jmp	.LBB28_15
.LBB28_2:                               # %if.end
	cmpl	$0, -20(%rbp)
	jg	.LBB28_4
# %bb.3:                                # %if.then2
	movl	$1, -36(%rbp)
	jmp	.LBB28_5
.LBB28_4:                               # %if.else
	movl	$0, -36(%rbp)
.LBB28_5:                               # %if.end3
	movl	-20(%rbp), %edi
	callq	abs
	movl	%eax, -32(%rbp)
	movl	-32(%rbp), %eax
	movslq	-16(%rbp), %rcx
	movzbl	-56(%rbp,%rcx), %ecx
	cmpl	%ecx, %eax
	jg	.LBB28_7
# %bb.6:                                # %if.then6
	movl	-32(%rbp), %eax
	subl	$1, %eax
	cltq
	imulq	$5, %rax, %rax
	leaq	-112(%rbp), %rcx
	addq	%rax, %rcx
	movslq	-16(%rbp), %rax
	movzbl	(%rcx,%rax), %eax
	addl	$1, %eax
	movl	%eax, -24(%rbp)
	jmp	.LBB28_8
.LBB28_7:                               # %if.else12
	movl	-32(%rbp), %eax
	movslq	-16(%rbp), %rcx
	movzbl	-56(%rbp,%rcx), %ecx
	subl	%ecx, %eax
	shll	$4, %eax
	addl	$16, %eax
	movl	-16(%rbp), %ecx
	shll	$1, %ecx
	addl	%ecx, %eax
	movl	%eax, -24(%rbp)
.LBB28_8:                               # %if.end20
	movl	-24(%rbp), %eax
	cltd
	movl	$2, %ecx
	idivl	%ecx
	movl	%eax, -28(%rbp)
	movl	$0, -12(%rbp)
.LBB28_9:                               # %for.cond
                                        # =>This Inner Loop Header: Depth=1
	xorl	%eax, %eax
	cmpl	$16, -12(%rbp)
	jge	.LBB28_11
# %bb.10:                               # %land.rhs
                                        #   in Loop: Header=BB28_9 Depth=1
	cmpl	$0, -28(%rbp)
	setne	%al
.LBB28_11:                              # %land.end
                                        #   in Loop: Header=BB28_9 Depth=1
	testb	$1, %al
	jne	.LBB28_12
	jmp	.LBB28_14
.LBB28_12:                              # %for.body
                                        #   in Loop: Header=BB28_9 Depth=1
	movl	-28(%rbp), %eax
	cltd
	movl	$2, %ecx
	idivl	%ecx
	movl	%eax, -28(%rbp)
# %bb.13:                               # %for.inc
                                        #   in Loop: Header=BB28_9 Depth=1
	movl	-12(%rbp), %eax
	addl	$1, %eax
	movl	%eax, -12(%rbp)
	jmp	.LBB28_9
.LBB28_14:                              # %for.end
	vmovsd	.LCPI28_0(%rip), %xmm0  # xmm0 = mem[0],zero
	movl	-12(%rbp), %eax
	shll	$1, %eax
	addl	$1, %eax
	movq	-48(%rbp), %rcx
	movl	%eax, (%rcx)
	movl	-24(%rbp), %ebx
	vcvtsi2sdl	-12(%rbp), %xmm0, %xmm1
	callq	pow
	vcvttsd2si	%xmm0, %eax
	subl	%eax, %ebx
	addl	-36(%rbp), %ebx
	movq	-64(%rbp), %rax
	movl	%ebx, (%rax)
.LBB28_15:                              # %return
	cmpl	$1505509127, -40(%rbp)  # imm = 0x59BC3F07
	jne	.LBB28_17
.LBB28_16:
	addq	$104, %rsp
	popq	%rbx
	popq	%rbp
	.cfi_def_cfa %rsp, 8
	retq
.LBB28_17:                              # %func_exit
	.cfi_def_cfa %rbp, 16
	callq	detect_breach
	jmp	.LBB28_16
.Lfunc_end28:
	.size	levrun_linfo_intra.1, .Lfunc_end28-levrun_linfo_intra.1
	.cfi_endproc
                                        # -- End function
	.section	.rodata.cst8,"aM",@progbits,8
	.p2align	3               # -- Begin function levrun_linfo_inter.2
.LCPI29_0:
	.quad	4611686018427387904     # double 2
	.text
	.globl	levrun_linfo_inter.2
	.p2align	4, 0x90
	.type	levrun_linfo_inter.2,@function
levrun_linfo_inter.2:                   # @levrun_linfo_inter.2
	.cfi_startproc
# %bb.0:                                # %entry
	pushq	%rbp
	.cfi_def_cfa_offset 16
	.cfi_offset %rbp, -16
	movq	%rsp, %rbp
	.cfi_def_cfa_register %rbp
	pushq	%rbx
	subq	$104, %rsp
	.cfi_offset %rbx, -24
	movl	$1700617350, -40(%rbp)  # imm = 0x655D5C86
	movl	%edi, -28(%rbp)
	movl	%esi, -16(%rbp)
	movq	%rdx, -48(%rbp)
	movq	%rcx, -72(%rbp)
	movq	.L__const.levrun_linfo_inter.LEVRUN, %rax
	movq	%rax, -64(%rbp)
	movq	.L__const.levrun_linfo_inter.LEVRUN+8, %rax
	movq	%rax, -56(%rbp)
	leaq	-112(%rbp), %rdi
	movabsq	$.L__const.levrun_linfo_inter.NTAB, %rsi
	movl	$40, %edx
	callq	memcpy
	cmpl	$0, -28(%rbp)
	jne	.LBB29_2
# %bb.1:                                # %if.then
	movq	-48(%rbp), %rax
	movl	$1, (%rax)
	jmp	.LBB29_15
.LBB29_2:                               # %if.end
	cmpl	$0, -28(%rbp)
	jg	.LBB29_4
# %bb.3:                                # %if.then2
	movl	$1, -36(%rbp)
	jmp	.LBB29_5
.LBB29_4:                               # %if.else
	movl	$0, -36(%rbp)
.LBB29_5:                               # %if.end3
	movl	-28(%rbp), %edi
	callq	abs
	movl	%eax, -32(%rbp)
	movl	-32(%rbp), %eax
	movslq	-16(%rbp), %rcx
	movzbl	-64(%rbp,%rcx), %ecx
	cmpl	%ecx, %eax
	jg	.LBB29_7
# %bb.6:                                # %if.then6
	movl	-32(%rbp), %eax
	subl	$1, %eax
	cltq
	imulq	$10, %rax, %rax
	leaq	-112(%rbp), %rcx
	addq	%rax, %rcx
	movslq	-16(%rbp), %rax
	movzbl	(%rcx,%rax), %eax
	addl	$1, %eax
	movl	%eax, -20(%rbp)
	jmp	.LBB29_8
.LBB29_7:                               # %if.else12
	movl	-32(%rbp), %eax
	movslq	-16(%rbp), %rcx
	movzbl	-64(%rbp,%rcx), %ecx
	subl	%ecx, %eax
	shll	$5, %eax
	movl	-16(%rbp), %ecx
	shll	$1, %ecx
	addl	%ecx, %eax
	movl	%eax, -20(%rbp)
.LBB29_8:                               # %if.end19
	movl	-20(%rbp), %eax
	cltd
	movl	$2, %ecx
	idivl	%ecx
	movl	%eax, -24(%rbp)
	movl	$0, -12(%rbp)
.LBB29_9:                               # %for.cond
                                        # =>This Inner Loop Header: Depth=1
	xorl	%eax, %eax
	cmpl	$16, -12(%rbp)
	jge	.LBB29_11
# %bb.10:                               # %land.rhs
                                        #   in Loop: Header=BB29_9 Depth=1
	cmpl	$0, -24(%rbp)
	setne	%al
.LBB29_11:                              # %land.end
                                        #   in Loop: Header=BB29_9 Depth=1
	testb	$1, %al
	jne	.LBB29_12
	jmp	.LBB29_14
.LBB29_12:                              # %for.body
                                        #   in Loop: Header=BB29_9 Depth=1
	movl	-24(%rbp), %eax
	cltd
	movl	$2, %ecx
	idivl	%ecx
	movl	%eax, -24(%rbp)
# %bb.13:                               # %for.inc
                                        #   in Loop: Header=BB29_9 Depth=1
	movl	-12(%rbp), %eax
	addl	$1, %eax
	movl	%eax, -12(%rbp)
	jmp	.LBB29_9
.LBB29_14:                              # %for.end
	vmovsd	.LCPI29_0(%rip), %xmm0  # xmm0 = mem[0],zero
	movl	-12(%rbp), %eax
	shll	$1, %eax
	addl	$1, %eax
	movq	-48(%rbp), %rcx
	movl	%eax, (%rcx)
	movl	-20(%rbp), %ebx
	vcvtsi2sdl	-12(%rbp), %xmm0, %xmm1
	callq	pow
	vcvttsd2si	%xmm0, %eax
	subl	%eax, %ebx
	addl	-36(%rbp), %ebx
	movq	-72(%rbp), %rax
	movl	%ebx, (%rax)
.LBB29_15:                              # %return
	cmpl	$1700617350, -40(%rbp)  # imm = 0x655D5C86
	jne	.LBB29_17
.LBB29_16:
	addq	$104, %rsp
	popq	%rbx
	popq	%rbp
	.cfi_def_cfa %rsp, 8
	retq
.LBB29_17:                              # %func_exit
	.cfi_def_cfa %rbp, 16
	callq	detect_breach
	jmp	.LBB29_16
.Lfunc_end29:
	.size	levrun_linfo_inter.2, .Lfunc_end29-levrun_linfo_inter.2
	.cfi_endproc
                                        # -- End function
	.globl	writeSyntaxElement_UVLC.3 # -- Begin function writeSyntaxElement_UVLC.3
	.p2align	4, 0x90
	.type	writeSyntaxElement_UVLC.3,@function
writeSyntaxElement_UVLC.3:              # @writeSyntaxElement_UVLC.3
	.cfi_startproc
# %bb.0:                                # %entry
	pushq	%rbp
	.cfi_def_cfa_offset 16
	.cfi_offset %rbp, -16
	movq	%rsp, %rbp
	.cfi_def_cfa_register %rbp
	pushq	%rbx
	subq	$24, %rsp
	.cfi_offset %rbx, -24
	movl	$1620782103, -20(%rbp)  # imm = 0x609B2C17
	movq	%rdi, -16(%rbp)
	movq	%rsi, -32(%rbp)
	movq	-16(%rbp), %rax
	movq	32(%rax), %rax
	movq	-16(%rbp), %rcx
	movl	4(%rcx), %edi
	movq	-16(%rbp), %rcx
	movl	8(%rcx), %esi
	movq	-16(%rbp), %rdx
	addq	$12, %rdx
	movq	-16(%rbp), %rcx
	addq	$16, %rcx
	callq	*%rax
	movq	-16(%rbp), %rdi
	callq	symbol2uvlc
	movq	-16(%rbp), %rdi
	movq	-32(%rbp), %rax
	movq	(%rax), %rsi
	callq	writeUVLC2buffer
	movq	-16(%rbp), %rax
	cmpl	$0, (%rax)
	je	.LBB30_2
# %bb.1:                                # %if.then
	movq	-32(%rbp), %rax
	movq	(%rax), %rax
	movl	$1, 40(%rax)
.LBB30_2:                               # %if.end
	movq	-16(%rbp), %rax
	movl	12(%rax), %ebx
	cmpl	$1620782103, -20(%rbp)  # imm = 0x609B2C17
	jne	.LBB30_4
.LBB30_3:
	movl	%ebx, %eax
	addq	$24, %rsp
	popq	%rbx
	popq	%rbp
	.cfi_def_cfa %rsp, 8
	retq
.LBB30_4:                               # %func_exit
	.cfi_def_cfa %rbp, 16
	callq	detect_breach
	jmp	.LBB30_3
.Lfunc_end30:
	.size	writeSyntaxElement_UVLC.3, .Lfunc_end30-writeSyntaxElement_UVLC.3
	.cfi_endproc
                                        # -- End function
	.globl	writeSyntaxElement_Level_VLCN.4 # -- Begin function writeSyntaxElement_Level_VLCN.4
	.p2align	4, 0x90
	.type	writeSyntaxElement_Level_VLCN.4,@function
writeSyntaxElement_Level_VLCN.4:        # @writeSyntaxElement_Level_VLCN.4
	.cfi_startproc
# %bb.0:                                # %entry
	pushq	%rbp
	.cfi_def_cfa_offset 16
	.cfi_offset %rbp, -16
	movq	%rsp, %rbp
	.cfi_def_cfa_register %rbp
	pushq	%rbx
	subq	$72, %rsp
	.cfi_offset %rbx, -24
	movl	$1185211852, -56(%rbp)  # imm = 0x46A4E5CC
	movq	%rdi, -24(%rbp)
	movl	%esi, -48(%rbp)
	movq	%rdx, -72(%rbp)
	movq	-24(%rbp), %rax
	movl	4(%rax), %eax
	movl	%eax, -28(%rbp)
	movl	-28(%rbp), %edi
	callq	abs
	xorl	%ecx, %ecx
	movl	%eax, -12(%rbp)
	movl	-28(%rbp), %eax
	cmpl	$0, %eax
	movl	$1, %eax
	cmovll	%eax, %ecx
	movl	%ecx, -36(%rbp)
	movl	-48(%rbp), %eax
	subl	$1, %eax
	movl	%eax, -16(%rbp)
	movl	-16(%rbp), %ecx
                                        # kill: def $cl killed $ecx
	movl	$15, %eax
	shll	%cl, %eax
	addl	$1, %eax
	movl	%eax, -40(%rbp)
	movl	-12(%rbp), %eax
	subl	$1, %eax
	movl	-16(%rbp), %ecx
                                        # kill: def $cl killed $ecx
	sarl	%cl, %eax
	movl	%eax, -64(%rbp)
	movl	-16(%rbp), %ecx
                                        # kill: def $cl killed $ecx
	movl	$4294967295, %eax       # imm = 0xFFFFFFFF
	shll	%cl, %eax
	xorl	$-1, %eax
	movl	%eax, -60(%rbp)
	movl	-12(%rbp), %eax
	subl	$1, %eax
	andl	-60(%rbp), %eax
	movl	%eax, -52(%rbp)
	movl	-12(%rbp), %eax
	cmpl	-40(%rbp), %eax
	jge	.LBB31_2
# %bb.1:                                # %if.then
	movl	-64(%rbp), %eax
	addl	-48(%rbp), %eax
	addl	$1, %eax
	movl	%eax, -32(%rbp)
	movl	-16(%rbp), %ecx
	addl	$1, %ecx
                                        # kill: def $cl killed $ecx
	movl	$1, %eax
	shll	%cl, %eax
	movl	-52(%rbp), %ecx
	shll	$1, %ecx
	orl	%ecx, %eax
	orl	-36(%rbp), %eax
	movl	%eax, -44(%rbp)
	jmp	.LBB31_3
.LBB31_2:                               # %if.else
	movl	$28, -32(%rbp)
	movl	-12(%rbp), %eax
	subl	-40(%rbp), %eax
	shll	$1, %eax
	orl	$4096, %eax             # imm = 0x1000
	orl	-36(%rbp), %eax
	movl	%eax, -44(%rbp)
.LBB31_3:                               # %if.end
	movl	-32(%rbp), %eax
	movq	-24(%rbp), %rcx
	movl	%eax, 12(%rcx)
	movl	-44(%rbp), %eax
	movq	-24(%rbp), %rcx
	movl	%eax, 16(%rcx)
	movq	-24(%rbp), %rdi
	callq	symbol2vlc
	movq	-24(%rbp), %rdi
	movq	-72(%rbp), %rax
	movq	(%rax), %rsi
	callq	writeUVLC2buffer
	movq	-24(%rbp), %rax
	movl	12(%rax), %ebx
	cmpl	$1185211852, -56(%rbp)  # imm = 0x46A4E5CC
	jne	.LBB31_5
.LBB31_4:
	movl	%ebx, %eax
	addq	$72, %rsp
	popq	%rbx
	popq	%rbp
	.cfi_def_cfa %rsp, 8
	retq
.LBB31_5:                               # %func_exit
	.cfi_def_cfa %rbp, 16
	callq	detect_breach
	jmp	.LBB31_4
.Lfunc_end31:
	.size	writeSyntaxElement_Level_VLCN.4, .Lfunc_end31-writeSyntaxElement_Level_VLCN.4
	.cfi_endproc
                                        # -- End function
	.globl	cbp_linfo_intra.5       # -- Begin function cbp_linfo_intra.5
	.p2align	4, 0x90
	.type	cbp_linfo_intra.5,@function
cbp_linfo_intra.5:                      # @cbp_linfo_intra.5
	.cfi_startproc
# %bb.0:                                # %entry
	pushq	%rbp
	.cfi_def_cfa_offset 16
	.cfi_offset %rbp, -16
	movq	%rsp, %rbp
	.cfi_def_cfa_register %rbp
	subq	$32, %rsp
	xorl	%eax, %eax
	movl	$1335618873, -8(%rbp)   # imm = 0x4F9BED39
	movl	%edi, -4(%rbp)
	movl	%esi, -12(%rbp)
	movq	%rdx, -32(%rbp)
	movq	%rcx, -24(%rbp)
	movq	img, %rcx
	movl	72700(%rcx), %ecx
	cmpl	$0, %ecx
	movl	$1, %ecx
	cmovnel	%ecx, %eax
	cltq
	imulq	$96, %rax, %rax
	movabsq	$NCBP, %rcx
	addq	%rax, %rcx
	movslq	-4(%rbp), %rax
	movzbl	(%rcx,%rax,2), %edi
	movl	-12(%rbp), %esi
	movq	-32(%rbp), %rdx
	movq	-24(%rbp), %rcx
	callq	ue_linfo
	cmpl	$1335618873, -8(%rbp)   # imm = 0x4F9BED39
	jne	.LBB32_2
.LBB32_1:
	addq	$32, %rsp
	popq	%rbp
	.cfi_def_cfa %rsp, 8
	retq
.LBB32_2:                               # %func_exit
	.cfi_def_cfa %rbp, 16
	callq	detect_breach
	jmp	.LBB32_1
.Lfunc_end32:
	.size	cbp_linfo_intra.5, .Lfunc_end32-cbp_linfo_intra.5
	.cfi_endproc
                                        # -- End function
	.globl	writeSyntaxElement_TotalZerosChromaDC.6 # -- Begin function writeSyntaxElement_TotalZerosChromaDC.6
	.p2align	4, 0x90
	.type	writeSyntaxElement_TotalZerosChromaDC.6,@function
writeSyntaxElement_TotalZerosChromaDC.6: # @writeSyntaxElement_TotalZerosChromaDC.6
	.cfi_startproc
# %bb.0:                                # %entry
	pushq	%rbp
	.cfi_def_cfa_offset 16
	.cfi_offset %rbp, -16
	movq	%rsp, %rbp
	.cfi_def_cfa_register %rbp
	pushq	%rbx
	subq	$40, %rsp
	.cfi_offset %rbx, -24
	movabsq	$writeSyntaxElement_TotalZerosChromaDC.codtab, %rax
	movabsq	$writeSyntaxElement_TotalZerosChromaDC.lentab, %rcx
	movl	$1557862760, -28(%rbp)  # imm = 0x5CDB1968
	movq	%rdi, -16(%rbp)
	movq	%rsi, -40(%rbp)
	movq	img, %rdx
	movl	72700(%rdx), %edx
	subl	$1, %edx
	movl	%edx, -24(%rbp)
	movq	-16(%rbp), %rdx
	movl	12(%rdx), %edx
	movl	%edx, -20(%rbp)
	movslq	-24(%rbp), %rdx
	imulq	$960, %rdx, %rdx        # imm = 0x3C0
	addq	%rdx, %rcx
	movslq	-20(%rbp), %rdx
	shlq	$6, %rdx
	addq	%rdx, %rcx
	movq	-16(%rbp), %rdx
	movslq	4(%rdx), %rdx
	movl	(%rcx,%rdx,4), %ecx
	movq	-16(%rbp), %rdx
	movl	%ecx, 12(%rdx)
	movslq	-24(%rbp), %rcx
	imulq	$960, %rcx, %rcx        # imm = 0x3C0
	addq	%rcx, %rax
	movslq	-20(%rbp), %rcx
	shlq	$6, %rcx
	addq	%rcx, %rax
	movq	-16(%rbp), %rcx
	movslq	4(%rcx), %rcx
	movl	(%rax,%rcx,4), %eax
	movq	-16(%rbp), %rcx
	movl	%eax, 16(%rcx)
	movq	-16(%rbp), %rax
	cmpl	$0, 12(%rax)
	jne	.LBB33_2
# %bb.1:                                # %if.then
	movq	-16(%rbp), %rax
	movl	4(%rax), %esi
	movabsq	$.L.str.2, %rdi
	movb	$0, %al
	callq	printf
	movl	$4294967295, %edi       # imm = 0xFFFFFFFF
	callq	exit
.LBB33_2:                               # %if.end
	movq	-16(%rbp), %rdi
	callq	symbol2vlc
	movq	-16(%rbp), %rdi
	movq	-40(%rbp), %rax
	movq	(%rax), %rsi
	callq	writeUVLC2buffer
	movq	-16(%rbp), %rax
	movl	12(%rax), %ebx
	cmpl	$1557862760, -28(%rbp)  # imm = 0x5CDB1968
	jne	.LBB33_4
.LBB33_3:
	movl	%ebx, %eax
	addq	$40, %rsp
	popq	%rbx
	popq	%rbp
	.cfi_def_cfa %rsp, 8
	retq
.LBB33_4:                               # %func_exit
	.cfi_def_cfa %rbp, 16
	callq	detect_breach
	jmp	.LBB33_3
.Lfunc_end33:
	.size	writeSyntaxElement_TotalZerosChromaDC.6, .Lfunc_end33-writeSyntaxElement_TotalZerosChromaDC.6
	.cfi_endproc
                                        # -- End function
	.globl	writeSyntaxElement_NumCoeffTrailingOnesChromaDC.7 # -- Begin function writeSyntaxElement_NumCoeffTrailingOnesChromaDC.7
	.p2align	4, 0x90
	.type	writeSyntaxElement_NumCoeffTrailingOnesChromaDC.7,@function
writeSyntaxElement_NumCoeffTrailingOnesChromaDC.7: # @writeSyntaxElement_NumCoeffTrailingOnesChromaDC.7
	.cfi_startproc
# %bb.0:                                # %entry
	pushq	%rbp
	.cfi_def_cfa_offset 16
	.cfi_offset %rbp, -16
	movq	%rsp, %rbp
	.cfi_def_cfa_register %rbp
	pushq	%rbx
	subq	$24, %rsp
	.cfi_offset %rbx, -24
	movabsq	$writeSyntaxElement_NumCoeffTrailingOnesChromaDC.codtab, %rax
	movabsq	$writeSyntaxElement_NumCoeffTrailingOnesChromaDC.lentab, %rcx
	movl	$1865669756, -24(%rbp)  # imm = 0x6F33DC7C
	movq	%rdi, -16(%rbp)
	movq	%rsi, -32(%rbp)
	movq	img, %rdx
	movl	72700(%rdx), %edx
	subl	$1, %edx
	movl	%edx, -20(%rbp)
	movslq	-20(%rbp), %rdx
	imulq	$272, %rdx, %rdx        # imm = 0x110
	addq	%rdx, %rcx
	movq	-16(%rbp), %rdx
	movslq	8(%rdx), %rdx
	imulq	$68, %rdx, %rdx
	addq	%rdx, %rcx
	movq	-16(%rbp), %rdx
	movslq	4(%rdx), %rdx
	movl	(%rcx,%rdx,4), %ecx
	movq	-16(%rbp), %rdx
	movl	%ecx, 12(%rdx)
	movslq	-20(%rbp), %rcx
	imulq	$272, %rcx, %rcx        # imm = 0x110
	addq	%rcx, %rax
	movq	-16(%rbp), %rcx
	movslq	8(%rcx), %rcx
	imulq	$68, %rcx, %rcx
	addq	%rcx, %rax
	movq	-16(%rbp), %rcx
	movslq	4(%rcx), %rcx
	movl	(%rax,%rcx,4), %eax
	movq	-16(%rbp), %rcx
	movl	%eax, 16(%rcx)
	movq	-16(%rbp), %rax
	cmpl	$0, 12(%rax)
	jne	.LBB34_2
# %bb.1:                                # %if.then
	movq	-16(%rbp), %rax
	movl	4(%rax), %esi
	movq	-16(%rbp), %rax
	movl	8(%rax), %edx
	movabsq	$.L.str.1, %rdi
	movb	$0, %al
	callq	printf
	movl	$4294967295, %edi       # imm = 0xFFFFFFFF
	callq	exit
.LBB34_2:                               # %if.end
	movq	-16(%rbp), %rdi
	callq	symbol2vlc
	movq	-16(%rbp), %rdi
	movq	-32(%rbp), %rax
	movq	(%rax), %rsi
	callq	writeUVLC2buffer
	movq	-16(%rbp), %rax
	movl	12(%rax), %ebx
	cmpl	$1865669756, -24(%rbp)  # imm = 0x6F33DC7C
	jne	.LBB34_4
.LBB34_3:
	movl	%ebx, %eax
	addq	$24, %rsp
	popq	%rbx
	popq	%rbp
	.cfi_def_cfa %rsp, 8
	retq
.LBB34_4:                               # %func_exit
	.cfi_def_cfa %rbp, 16
	callq	detect_breach
	jmp	.LBB34_3
.Lfunc_end34:
	.size	writeSyntaxElement_NumCoeffTrailingOnesChromaDC.7, .Lfunc_end34-writeSyntaxElement_NumCoeffTrailingOnesChromaDC.7
	.cfi_endproc
                                        # -- End function
	.globl	writeSyntaxElement_TotalZeros.8 # -- Begin function writeSyntaxElement_TotalZeros.8
	.p2align	4, 0x90
	.type	writeSyntaxElement_TotalZeros.8,@function
writeSyntaxElement_TotalZeros.8:        # @writeSyntaxElement_TotalZeros.8
	.cfi_startproc
# %bb.0:                                # %entry
	pushq	%rbp
	.cfi_def_cfa_offset 16
	.cfi_offset %rbp, -16
	movq	%rsp, %rbp
	.cfi_def_cfa_register %rbp
	pushq	%rbx
	subq	$24, %rsp
	.cfi_offset %rbx, -24
	movabsq	$writeSyntaxElement_TotalZeros.codtab, %rax
	movabsq	$writeSyntaxElement_TotalZeros.lentab, %rcx
	movl	$1631557739, -24(%rbp)  # imm = 0x613F986B
	movq	%rdi, -16(%rbp)
	movq	%rsi, -32(%rbp)
	movq	-16(%rbp), %rdx
	movl	12(%rdx), %edx
	movl	%edx, -20(%rbp)
	movslq	-20(%rbp), %rdx
	shlq	$6, %rdx
	addq	%rdx, %rcx
	movq	-16(%rbp), %rdx
	movslq	4(%rdx), %rdx
	movl	(%rcx,%rdx,4), %ecx
	movq	-16(%rbp), %rdx
	movl	%ecx, 12(%rdx)
	movslq	-20(%rbp), %rcx
	shlq	$6, %rcx
	addq	%rcx, %rax
	movq	-16(%rbp), %rcx
	movslq	4(%rcx), %rcx
	movl	(%rax,%rcx,4), %eax
	movq	-16(%rbp), %rcx
	movl	%eax, 16(%rcx)
	movq	-16(%rbp), %rax
	cmpl	$0, 12(%rax)
	jne	.LBB35_2
# %bb.1:                                # %if.then
	movq	-16(%rbp), %rax
	movl	4(%rax), %esi
	movabsq	$.L.str.2, %rdi
	movb	$0, %al
	callq	printf
	movl	$4294967295, %edi       # imm = 0xFFFFFFFF
	callq	exit
.LBB35_2:                               # %if.end
	movq	-16(%rbp), %rdi
	callq	symbol2vlc
	movq	-16(%rbp), %rdi
	movq	-32(%rbp), %rax
	movq	(%rax), %rsi
	callq	writeUVLC2buffer
	movq	-16(%rbp), %rax
	movl	12(%rax), %ebx
	cmpl	$1631557739, -24(%rbp)  # imm = 0x613F986B
	jne	.LBB35_4
.LBB35_3:
	movl	%ebx, %eax
	addq	$24, %rsp
	popq	%rbx
	popq	%rbp
	.cfi_def_cfa %rsp, 8
	retq
.LBB35_4:                               # %func_exit
	.cfi_def_cfa %rbp, 16
	callq	detect_breach
	jmp	.LBB35_3
.Lfunc_end35:
	.size	writeSyntaxElement_TotalZeros.8, .Lfunc_end35-writeSyntaxElement_TotalZeros.8
	.cfi_endproc
                                        # -- End function
	.globl	writeSyntaxElement_Intra4x4PredictionMode.9 # -- Begin function writeSyntaxElement_Intra4x4PredictionMode.9
	.p2align	4, 0x90
	.type	writeSyntaxElement_Intra4x4PredictionMode.9,@function
writeSyntaxElement_Intra4x4PredictionMode.9: # @writeSyntaxElement_Intra4x4PredictionMode.9
	.cfi_startproc
# %bb.0:                                # %entry
	pushq	%rbp
	.cfi_def_cfa_offset 16
	.cfi_offset %rbp, -16
	movq	%rsp, %rbp
	.cfi_def_cfa_register %rbp
	pushq	%rbx
	subq	$24, %rsp
	.cfi_offset %rbx, -24
	movl	$283051270, -20(%rbp)   # imm = 0x10DF0506
	movq	%rdi, -16(%rbp)
	movq	%rsi, -32(%rbp)
	movq	-16(%rbp), %rax
	cmpl	$-1, 4(%rax)
	jne	.LBB36_2
# %bb.1:                                # %if.then
	movq	-16(%rbp), %rax
	movl	$1, 12(%rax)
	movq	-16(%rbp), %rax
	movl	$1, 16(%rax)
	jmp	.LBB36_3
.LBB36_2:                               # %if.else
	movq	-16(%rbp), %rax
	movl	$4, 12(%rax)
	movq	-16(%rbp), %rax
	movl	4(%rax), %eax
	movq	-16(%rbp), %rcx
	movl	%eax, 16(%rcx)
.LBB36_3:                               # %if.end
	movq	-16(%rbp), %rax
	movl	16(%rax), %eax
	movq	-16(%rbp), %rcx
	movl	%eax, 20(%rcx)
	movq	-16(%rbp), %rdi
	movq	-32(%rbp), %rax
	movq	(%rax), %rsi
	callq	writeUVLC2buffer
	movq	-16(%rbp), %rax
	cmpl	$0, (%rax)
	je	.LBB36_5
# %bb.4:                                # %if.then6
	movq	-32(%rbp), %rax
	movq	(%rax), %rax
	movl	$1, 40(%rax)
.LBB36_5:                               # %if.end8
	movq	-16(%rbp), %rax
	movl	12(%rax), %ebx
	cmpl	$283051270, -20(%rbp)   # imm = 0x10DF0506
	jne	.LBB36_7
.LBB36_6:
	movl	%ebx, %eax
	addq	$24, %rsp
	popq	%rbx
	popq	%rbp
	.cfi_def_cfa %rsp, 8
	retq
.LBB36_7:                               # %func_exit
	.cfi_def_cfa %rbp, 16
	callq	detect_breach
	jmp	.LBB36_6
.Lfunc_end36:
	.size	writeSyntaxElement_Intra4x4PredictionMode.9, .Lfunc_end36-writeSyntaxElement_Intra4x4PredictionMode.9
	.cfi_endproc
                                        # -- End function
	.globl	writeSyntaxElement_Level_VLCN.10 # -- Begin function writeSyntaxElement_Level_VLCN.10
	.p2align	4, 0x90
	.type	writeSyntaxElement_Level_VLCN.10,@function
writeSyntaxElement_Level_VLCN.10:       # @writeSyntaxElement_Level_VLCN.10
	.cfi_startproc
# %bb.0:                                # %entry
	pushq	%rbp
	.cfi_def_cfa_offset 16
	.cfi_offset %rbp, -16
	movq	%rsp, %rbp
	.cfi_def_cfa_register %rbp
	pushq	%rbx
	subq	$72, %rsp
	.cfi_offset %rbx, -24
	movl	$950714488, -64(%rbp)   # imm = 0x38AAC078
	movq	%rdi, -24(%rbp)
	movl	%esi, -48(%rbp)
	movq	%rdx, -72(%rbp)
	movq	-24(%rbp), %rax
	movl	4(%rax), %eax
	movl	%eax, -36(%rbp)
	movl	-36(%rbp), %edi
	callq	abs
	xorl	%ecx, %ecx
	movl	%eax, -16(%rbp)
	movl	-36(%rbp), %eax
	cmpl	$0, %eax
	movl	$1, %eax
	cmovll	%eax, %ecx
	movl	%ecx, -40(%rbp)
	movl	-48(%rbp), %eax
	subl	$1, %eax
	movl	%eax, -12(%rbp)
	movl	-12(%rbp), %ecx
                                        # kill: def $cl killed $ecx
	movl	$15, %eax
	shll	%cl, %eax
	addl	$1, %eax
	movl	%eax, -32(%rbp)
	movl	-16(%rbp), %eax
	subl	$1, %eax
	movl	-12(%rbp), %ecx
                                        # kill: def $cl killed $ecx
	sarl	%cl, %eax
	movl	%eax, -56(%rbp)
	movl	-12(%rbp), %ecx
                                        # kill: def $cl killed $ecx
	movl	$4294967295, %eax       # imm = 0xFFFFFFFF
	shll	%cl, %eax
	xorl	$-1, %eax
	movl	%eax, -52(%rbp)
	movl	-16(%rbp), %eax
	subl	$1, %eax
	andl	-52(%rbp), %eax
	movl	%eax, -60(%rbp)
	movl	-16(%rbp), %eax
	cmpl	-32(%rbp), %eax
	jge	.LBB37_2
# %bb.1:                                # %if.then
	movl	-56(%rbp), %eax
	addl	-48(%rbp), %eax
	addl	$1, %eax
	movl	%eax, -28(%rbp)
	movl	-12(%rbp), %ecx
	addl	$1, %ecx
                                        # kill: def $cl killed $ecx
	movl	$1, %eax
	shll	%cl, %eax
	movl	-60(%rbp), %ecx
	shll	$1, %ecx
	orl	%ecx, %eax
	orl	-40(%rbp), %eax
	movl	%eax, -44(%rbp)
	jmp	.LBB37_3
.LBB37_2:                               # %if.else
	movl	$28, -28(%rbp)
	movl	-16(%rbp), %eax
	subl	-32(%rbp), %eax
	shll	$1, %eax
	orl	$4096, %eax             # imm = 0x1000
	orl	-40(%rbp), %eax
	movl	%eax, -44(%rbp)
.LBB37_3:                               # %if.end
	movl	-28(%rbp), %eax
	movq	-24(%rbp), %rcx
	movl	%eax, 12(%rcx)
	movl	-44(%rbp), %eax
	movq	-24(%rbp), %rcx
	movl	%eax, 16(%rcx)
	movq	-24(%rbp), %rdi
	callq	symbol2vlc
	movq	-24(%rbp), %rdi
	movq	-72(%rbp), %rax
	movq	(%rax), %rsi
	callq	writeUVLC2buffer
	movq	-24(%rbp), %rax
	movl	12(%rax), %ebx
	cmpl	$950714488, -64(%rbp)   # imm = 0x38AAC078
	jne	.LBB37_5
.LBB37_4:
	movl	%ebx, %eax
	addq	$72, %rsp
	popq	%rbx
	popq	%rbp
	.cfi_def_cfa %rsp, 8
	retq
.LBB37_5:                               # %func_exit
	.cfi_def_cfa %rbp, 16
	callq	detect_breach
	jmp	.LBB37_4
.Lfunc_end37:
	.size	writeSyntaxElement_Level_VLCN.10, .Lfunc_end37-writeSyntaxElement_Level_VLCN.10
	.cfi_endproc
                                        # -- End function
	.section	.rodata.cst8,"aM",@progbits,8
	.p2align	3               # -- Begin function se_linfo.11
.LCPI38_0:
	.quad	4611686018427387904     # double 2
	.text
	.globl	se_linfo.11
	.p2align	4, 0x90
	.type	se_linfo.11,@function
se_linfo.11:                            # @se_linfo.11
	.cfi_startproc
# %bb.0:                                # %entry
	pushq	%rbp
	.cfi_def_cfa_offset 16
	.cfi_offset %rbp, -16
	movq	%rsp, %rbp
	.cfi_def_cfa_register %rbp
	pushq	%rbx
	subq	$56, %rsp
	.cfi_offset %rbx, -24
	movl	$326207363, -32(%rbp)   # imm = 0x13718783
	movl	%edi, -28(%rbp)
	movl	%esi, -52(%rbp)
	movq	%rdx, -40(%rbp)
	movq	%rcx, -48(%rbp)
	movl	$0, -20(%rbp)
	cmpl	$0, -28(%rbp)
	jg	.LBB38_2
# %bb.1:                                # %if.then
	movl	$1, -20(%rbp)
.LBB38_2:                               # %if.end
	movl	-28(%rbp), %edi
	callq	abs
	shll	$1, %eax
	movl	%eax, -24(%rbp)
	movl	-24(%rbp), %eax
	cltd
	movl	$2, %ecx
	idivl	%ecx
	movl	%eax, -16(%rbp)
	movl	$0, -12(%rbp)
.LBB38_3:                               # %for.cond
                                        # =>This Inner Loop Header: Depth=1
	xorl	%eax, %eax
	cmpl	$16, -12(%rbp)
	jge	.LBB38_5
# %bb.4:                                # %land.rhs
                                        #   in Loop: Header=BB38_3 Depth=1
	cmpl	$0, -16(%rbp)
	setne	%al
.LBB38_5:                               # %land.end
                                        #   in Loop: Header=BB38_3 Depth=1
	testb	$1, %al
	jne	.LBB38_6
	jmp	.LBB38_8
.LBB38_6:                               # %for.body
                                        #   in Loop: Header=BB38_3 Depth=1
	movl	-16(%rbp), %eax
	cltd
	movl	$2, %ecx
	idivl	%ecx
	movl	%eax, -16(%rbp)
# %bb.7:                                # %for.inc
                                        #   in Loop: Header=BB38_3 Depth=1
	movl	-12(%rbp), %eax
	addl	$1, %eax
	movl	%eax, -12(%rbp)
	jmp	.LBB38_3
.LBB38_8:                               # %for.end
	vmovsd	.LCPI38_0(%rip), %xmm0  # xmm0 = mem[0],zero
	movl	-12(%rbp), %eax
	shll	$1, %eax
	addl	$1, %eax
	movq	-40(%rbp), %rcx
	movl	%eax, (%rcx)
	movl	-24(%rbp), %ebx
	vcvtsi2sdl	-12(%rbp), %xmm0, %xmm1
	callq	pow
	vcvttsd2si	%xmm0, %eax
	subl	%eax, %ebx
	addl	-20(%rbp), %ebx
	movq	-48(%rbp), %rax
	movl	%ebx, (%rax)
	cmpl	$326207363, -32(%rbp)   # imm = 0x13718783
	jne	.LBB38_10
.LBB38_9:
	addq	$56, %rsp
	popq	%rbx
	popq	%rbp
	.cfi_def_cfa %rsp, 8
	retq
.LBB38_10:                              # %func_exit
	.cfi_def_cfa %rbp, 16
	callq	detect_breach
	jmp	.LBB38_9
.Lfunc_end38:
	.size	se_linfo.11, .Lfunc_end38-se_linfo.11
	.cfi_endproc
                                        # -- End function
	.globl	u_v.12                  # -- Begin function u_v.12
	.p2align	4, 0x90
	.type	u_v.12,@function
u_v.12:                                 # @u_v.12
	.cfi_startproc
# %bb.0:                                # %entry
	pushq	%rbp
	.cfi_def_cfa_offset 16
	.cfi_offset %rbp, -16
	movq	%rsp, %rbp
	.cfi_def_cfa_register %rbp
	pushq	%rbx
	subq	$88, %rsp
	.cfi_offset %rbx, -24
	movl	$147337660, -24(%rbp)   # imm = 0x8C831BC
	movl	%edi, -28(%rbp)
	movq	%rsi, -48(%rbp)
	movl	%edx, -20(%rbp)
	movq	%rcx, -40(%rbp)
	leaq	-96(%rbp), %rax
	movq	%rax, -16(%rbp)
	movl	-20(%rbp), %eax
	movq	-16(%rbp), %rcx
	movl	%eax, 20(%rcx)
	movl	-28(%rbp), %eax
	movq	-16(%rbp), %rcx
	movl	%eax, 12(%rcx)
	movq	-16(%rbp), %rax
	movl	$0, (%rax)
	movl	-20(%rbp), %eax
	movq	-16(%rbp), %rcx
	movl	%eax, 4(%rcx)
	movq	-16(%rbp), %rax
	movl	$0, 8(%rax)
	movq	-16(%rbp), %rdi
	movq	-40(%rbp), %rsi
	callq	writeSyntaxElement_fixed
	movl	%eax, %ebx
	cmpl	$147337660, -24(%rbp)   # imm = 0x8C831BC
	jne	.LBB39_2
.LBB39_1:
	movl	%ebx, %eax
	addq	$88, %rsp
	popq	%rbx
	popq	%rbp
	.cfi_def_cfa %rsp, 8
	retq
.LBB39_2:                               # %func_exit
	.cfi_def_cfa %rbp, 16
	callq	detect_breach
	jmp	.LBB39_1
.Lfunc_end39:
	.size	u_v.12, .Lfunc_end39-u_v.12
	.cfi_endproc
                                        # -- End function
	.globl	symbol2vlc.13           # -- Begin function symbol2vlc.13
	.p2align	4, 0x90
	.type	symbol2vlc.13,@function
symbol2vlc.13:                          # @symbol2vlc.13
	.cfi_startproc
# %bb.0:                                # %entry
	pushq	%rbp
	.cfi_def_cfa_offset 16
	.cfi_offset %rbp, -16
	movq	%rsp, %rbp
	.cfi_def_cfa_register %rbp
	subq	$32, %rsp
	movl	$863440995, -20(%rbp)   # imm = 0x33771063
	movq	%rdi, -16(%rbp)
	movq	-16(%rbp), %rax
	movl	12(%rax), %eax
	movl	%eax, -4(%rbp)
	movq	-16(%rbp), %rax
	movl	$0, 20(%rax)
.LBB40_1:                               # %while.cond
                                        # =>This Inner Loop Header: Depth=1
	movl	-4(%rbp), %eax
	addl	$-1, %eax
	movl	%eax, -4(%rbp)
	cmpl	$0, %eax
	jl	.LBB40_3
# %bb.2:                                # %while.body
                                        #   in Loop: Header=BB40_1 Depth=1
	movq	-16(%rbp), %rax
	movl	20(%rax), %ecx
	shll	$1, %ecx
	movl	%ecx, 20(%rax)
	movq	-16(%rbp), %rax
	movl	16(%rax), %eax
	movl	-4(%rbp), %ecx
                                        # kill: def $cl killed $ecx
	sarl	%cl, %eax
	andl	$1, %eax
	movq	-16(%rbp), %rcx
	orl	20(%rcx), %eax
	movl	%eax, 20(%rcx)
	jmp	.LBB40_1
.LBB40_3:                               # %while.end
	cmpl	$863440995, -20(%rbp)   # imm = 0x33771063
	jne	.LBB40_5
.LBB40_4:
	xorl	%eax, %eax
	addq	$32, %rsp
	popq	%rbp
	.cfi_def_cfa %rsp, 8
	retq
.LBB40_5:                               # %func_exit
	.cfi_def_cfa %rbp, 16
	callq	detect_breach
	jmp	.LBB40_4
.Lfunc_end40:
	.size	symbol2vlc.13, .Lfunc_end40-symbol2vlc.13
	.cfi_endproc
                                        # -- End function
	.globl	cbp_linfo_intra.14      # -- Begin function cbp_linfo_intra.14
	.p2align	4, 0x90
	.type	cbp_linfo_intra.14,@function
cbp_linfo_intra.14:                     # @cbp_linfo_intra.14
	.cfi_startproc
# %bb.0:                                # %entry
	pushq	%rbp
	.cfi_def_cfa_offset 16
	.cfi_offset %rbp, -16
	movq	%rsp, %rbp
	.cfi_def_cfa_register %rbp
	subq	$32, %rsp
	xorl	%eax, %eax
	movl	$241018881, -8(%rbp)    # imm = 0xE5DA801
	movl	%edi, -12(%rbp)
	movl	%esi, -4(%rbp)
	movq	%rdx, -24(%rbp)
	movq	%rcx, -32(%rbp)
	movq	img, %rcx
	movl	72700(%rcx), %ecx
	cmpl	$0, %ecx
	movl	$1, %ecx
	cmovnel	%ecx, %eax
	cltq
	imulq	$96, %rax, %rax
	movabsq	$NCBP, %rcx
	addq	%rax, %rcx
	movslq	-12(%rbp), %rax
	movzbl	(%rcx,%rax,2), %edi
	movl	-4(%rbp), %esi
	movq	-24(%rbp), %rdx
	movq	-32(%rbp), %rcx
	callq	ue_linfo
	cmpl	$241018881, -8(%rbp)    # imm = 0xE5DA801
	jne	.LBB41_2
.LBB41_1:
	addq	$32, %rsp
	popq	%rbp
	.cfi_def_cfa %rsp, 8
	retq
.LBB41_2:                               # %func_exit
	.cfi_def_cfa %rbp, 16
	callq	detect_breach
	jmp	.LBB41_1
.Lfunc_end41:
	.size	cbp_linfo_intra.14, .Lfunc_end41-cbp_linfo_intra.14
	.cfi_endproc
                                        # -- End function
	.globl	writeSyntaxElement_TotalZerosChromaDC.15 # -- Begin function writeSyntaxElement_TotalZerosChromaDC.15
	.p2align	4, 0x90
	.type	writeSyntaxElement_TotalZerosChromaDC.15,@function
writeSyntaxElement_TotalZerosChromaDC.15: # @writeSyntaxElement_TotalZerosChromaDC.15
	.cfi_startproc
# %bb.0:                                # %entry
	pushq	%rbp
	.cfi_def_cfa_offset 16
	.cfi_offset %rbp, -16
	movq	%rsp, %rbp
	.cfi_def_cfa_register %rbp
	pushq	%rbx
	subq	$40, %rsp
	.cfi_offset %rbx, -24
	movabsq	$writeSyntaxElement_TotalZerosChromaDC.codtab, %rax
	movabsq	$writeSyntaxElement_TotalZerosChromaDC.lentab, %rcx
	movl	$492334400, -28(%rbp)   # imm = 0x1D586D40
	movq	%rdi, -16(%rbp)
	movq	%rsi, -40(%rbp)
	movq	img, %rdx
	movl	72700(%rdx), %edx
	subl	$1, %edx
	movl	%edx, -20(%rbp)
	movq	-16(%rbp), %rdx
	movl	12(%rdx), %edx
	movl	%edx, -24(%rbp)
	movslq	-20(%rbp), %rdx
	imulq	$960, %rdx, %rdx        # imm = 0x3C0
	addq	%rdx, %rcx
	movslq	-24(%rbp), %rdx
	shlq	$6, %rdx
	addq	%rdx, %rcx
	movq	-16(%rbp), %rdx
	movslq	4(%rdx), %rdx
	movl	(%rcx,%rdx,4), %ecx
	movq	-16(%rbp), %rdx
	movl	%ecx, 12(%rdx)
	movslq	-20(%rbp), %rcx
	imulq	$960, %rcx, %rcx        # imm = 0x3C0
	addq	%rcx, %rax
	movslq	-24(%rbp), %rcx
	shlq	$6, %rcx
	addq	%rcx, %rax
	movq	-16(%rbp), %rcx
	movslq	4(%rcx), %rcx
	movl	(%rax,%rcx,4), %eax
	movq	-16(%rbp), %rcx
	movl	%eax, 16(%rcx)
	movq	-16(%rbp), %rax
	cmpl	$0, 12(%rax)
	jne	.LBB42_2
# %bb.1:                                # %if.then
	movq	-16(%rbp), %rax
	movl	4(%rax), %esi
	movabsq	$.L.str.2, %rdi
	movb	$0, %al
	callq	printf
	movl	$4294967295, %edi       # imm = 0xFFFFFFFF
	callq	exit
.LBB42_2:                               # %if.end
	movq	-16(%rbp), %rdi
	callq	symbol2vlc
	movq	-16(%rbp), %rdi
	movq	-40(%rbp), %rax
	movq	(%rax), %rsi
	callq	writeUVLC2buffer
	movq	-16(%rbp), %rax
	movl	12(%rax), %ebx
	cmpl	$492334400, -28(%rbp)   # imm = 0x1D586D40
	jne	.LBB42_4
.LBB42_3:
	movl	%ebx, %eax
	addq	$40, %rsp
	popq	%rbx
	popq	%rbp
	.cfi_def_cfa %rsp, 8
	retq
.LBB42_4:                               # %func_exit
	.cfi_def_cfa %rbp, 16
	callq	detect_breach
	jmp	.LBB42_3
.Lfunc_end42:
	.size	writeSyntaxElement_TotalZerosChromaDC.15, .Lfunc_end42-writeSyntaxElement_TotalZerosChromaDC.15
	.cfi_endproc
                                        # -- End function
	.section	.rodata.cst8,"aM",@progbits,8
	.p2align	3               # -- Begin function levrun_linfo_c2x2.16
.LCPI43_0:
	.quad	4611686018427387904     # double 2
	.text
	.globl	levrun_linfo_c2x2.16
	.p2align	4, 0x90
	.type	levrun_linfo_c2x2.16,@function
levrun_linfo_c2x2.16:                   # @levrun_linfo_c2x2.16
	.cfi_startproc
# %bb.0:                                # %entry
	pushq	%rbp
	.cfi_def_cfa_offset 16
	.cfi_offset %rbp, -16
	movq	%rsp, %rbp
	.cfi_def_cfa_register %rbp
	pushq	%rbx
	subq	$88, %rsp
	.cfi_offset %rbx, -24
	movl	$1347893754, -40(%rbp)  # imm = 0x505739FA
	movl	%edi, -24(%rbp)
	movl	%esi, -16(%rbp)
	movq	%rdx, -48(%rbp)
	movq	%rcx, -72(%rbp)
	movq	.L__const.levrun_linfo_c2x2.NTAB, %rax
	movq	%rax, -96(%rbp)
	movq	.L__const.levrun_linfo_c2x2.NTAB+8, %rax
	movq	%rax, -88(%rbp)
	movq	.L__const.levrun_linfo_c2x2.LEVRUN, %rax
	movq	%rax, -64(%rbp)
	movq	.L__const.levrun_linfo_c2x2.LEVRUN+8, %rax
	movq	%rax, -56(%rbp)
	cmpl	$0, -24(%rbp)
	jne	.LBB43_2
# %bb.1:                                # %if.then
	movq	-48(%rbp), %rax
	movl	$1, (%rax)
	jmp	.LBB43_14
.LBB43_2:                               # %if.end
	movl	$0, -36(%rbp)
	cmpl	$0, -24(%rbp)
	jg	.LBB43_4
# %bb.3:                                # %if.then2
	movl	$1, -36(%rbp)
.LBB43_4:                               # %if.end3
	movl	-24(%rbp), %edi
	callq	abs
	movl	%eax, -20(%rbp)
	movl	-20(%rbp), %eax
	movslq	-16(%rbp), %rcx
	cmpl	-64(%rbp,%rcx,4), %eax
	jg	.LBB43_6
# %bb.5:                                # %if.then5
	movl	-20(%rbp), %eax
	subl	$1, %eax
	cltq
	shlq	$3, %rax
	leaq	-96(%rbp), %rcx
	addq	%rax, %rcx
	movslq	-16(%rbp), %rax
	movl	(%rcx,%rax,4), %eax
	addl	$1, %eax
	movl	%eax, -32(%rbp)
	jmp	.LBB43_7
.LBB43_6:                               # %if.else
	movl	-20(%rbp), %eax
	movslq	-16(%rbp), %rcx
	subl	-64(%rbp,%rcx,4), %eax
	shll	$3, %eax
	movl	-16(%rbp), %ecx
	shll	$1, %ecx
	addl	%ecx, %eax
	movl	%eax, -32(%rbp)
.LBB43_7:                               # %if.end15
	movl	-32(%rbp), %eax
	cltd
	movl	$2, %ecx
	idivl	%ecx
	movl	%eax, -28(%rbp)
	movl	$0, -12(%rbp)
.LBB43_8:                               # %for.cond
                                        # =>This Inner Loop Header: Depth=1
	xorl	%eax, %eax
	cmpl	$16, -12(%rbp)
	jge	.LBB43_10
# %bb.9:                                # %land.rhs
                                        #   in Loop: Header=BB43_8 Depth=1
	cmpl	$0, -28(%rbp)
	setne	%al
.LBB43_10:                              # %land.end
                                        #   in Loop: Header=BB43_8 Depth=1
	testb	$1, %al
	jne	.LBB43_11
	jmp	.LBB43_13
.LBB43_11:                              # %for.body
                                        #   in Loop: Header=BB43_8 Depth=1
	movl	-28(%rbp), %eax
	cltd
	movl	$2, %ecx
	idivl	%ecx
	movl	%eax, -28(%rbp)
# %bb.12:                               # %for.inc
                                        #   in Loop: Header=BB43_8 Depth=1
	movl	-12(%rbp), %eax
	addl	$1, %eax
	movl	%eax, -12(%rbp)
	jmp	.LBB43_8
.LBB43_13:                              # %for.end
	vmovsd	.LCPI43_0(%rip), %xmm0  # xmm0 = mem[0],zero
	movl	-12(%rbp), %eax
	shll	$1, %eax
	addl	$1, %eax
	movq	-48(%rbp), %rcx
	movl	%eax, (%rcx)
	movl	-32(%rbp), %ebx
	vcvtsi2sdl	-12(%rbp), %xmm0, %xmm1
	callq	pow
	vcvttsd2si	%xmm0, %eax
	subl	%eax, %ebx
	addl	-36(%rbp), %ebx
	movq	-72(%rbp), %rax
	movl	%ebx, (%rax)
.LBB43_14:                              # %return
	cmpl	$1347893754, -40(%rbp)  # imm = 0x505739FA
	jne	.LBB43_16
.LBB43_15:
	addq	$88, %rsp
	popq	%rbx
	popq	%rbp
	.cfi_def_cfa %rsp, 8
	retq
.LBB43_16:                              # %func_exit
	.cfi_def_cfa %rbp, 16
	callq	detect_breach
	jmp	.LBB43_15
.Lfunc_end43:
	.size	levrun_linfo_c2x2.16, .Lfunc_end43-levrun_linfo_c2x2.16
	.cfi_endproc
                                        # -- End function
	.globl	writeSyntaxElement_NumCoeffTrailingOnes.17 # -- Begin function writeSyntaxElement_NumCoeffTrailingOnes.17
	.p2align	4, 0x90
	.type	writeSyntaxElement_NumCoeffTrailingOnes.17,@function
writeSyntaxElement_NumCoeffTrailingOnes.17: # @writeSyntaxElement_NumCoeffTrailingOnes.17
	.cfi_startproc
# %bb.0:                                # %entry
	pushq	%rbp
	.cfi_def_cfa_offset 16
	.cfi_offset %rbp, -16
	movq	%rsp, %rbp
	.cfi_def_cfa_register %rbp
	pushq	%rbx
	subq	$24, %rsp
	.cfi_offset %rbx, -24
	movl	$927421789, -24(%rbp)   # imm = 0x3747555D
	movq	%rdi, -16(%rbp)
	movq	%rsi, -32(%rbp)
	movq	-16(%rbp), %rax
	movl	12(%rax), %eax
	movl	%eax, -20(%rbp)
	cmpl	$3, -20(%rbp)
	jne	.LBB44_5
# %bb.1:                                # %if.then
	movq	-16(%rbp), %rax
	movl	$6, 12(%rax)
	movq	-16(%rbp), %rax
	cmpl	$0, 4(%rax)
	jle	.LBB44_3
# %bb.2:                                # %if.then3
	movq	-16(%rbp), %rax
	movl	4(%rax), %eax
	subl	$1, %eax
	shll	$2, %eax
	movq	-16(%rbp), %rcx
	orl	8(%rcx), %eax
	movq	-16(%rbp), %rcx
	movl	%eax, 16(%rcx)
	jmp	.LBB44_4
.LBB44_3:                               # %if.else
	movq	-16(%rbp), %rax
	movl	$3, 16(%rax)
.LBB44_4:                               # %if.end
	jmp	.LBB44_6
.LBB44_5:                               # %if.else6
	movslq	-20(%rbp), %rax
	imulq	$272, %rax, %rax        # imm = 0x110
	movabsq	$writeSyntaxElement_NumCoeffTrailingOnes.lentab, %rcx
	addq	%rax, %rcx
	movq	-16(%rbp), %rax
	movslq	8(%rax), %rax
	imulq	$68, %rax, %rax
	addq	%rax, %rcx
	movq	-16(%rbp), %rax
	movslq	4(%rax), %rax
	movl	(%rcx,%rax,4), %eax
	movq	-16(%rbp), %rcx
	movl	%eax, 12(%rcx)
	movslq	-20(%rbp), %rax
	imulq	$272, %rax, %rax        # imm = 0x110
	movabsq	$writeSyntaxElement_NumCoeffTrailingOnes.codtab, %rcx
	addq	%rax, %rcx
	movq	-16(%rbp), %rax
	movslq	8(%rax), %rax
	imulq	$68, %rax, %rax
	addq	%rax, %rcx
	movq	-16(%rbp), %rax
	movslq	4(%rax), %rax
	movl	(%rcx,%rax,4), %eax
	movq	-16(%rbp), %rcx
	movl	%eax, 16(%rcx)
.LBB44_6:                               # %if.end23
	movq	-16(%rbp), %rax
	cmpl	$0, 12(%rax)
	jne	.LBB44_8
# %bb.7:                                # %if.then26
	movl	-20(%rbp), %esi
	movq	-16(%rbp), %rax
	movl	4(%rax), %edx
	movq	-16(%rbp), %rax
	movl	8(%rax), %ecx
	movabsq	$.L.str, %rdi
	movb	$0, %al
	callq	printf
	movl	$4294967295, %edi       # imm = 0xFFFFFFFF
	callq	exit
.LBB44_8:                               # %if.end29
	movq	-16(%rbp), %rdi
	callq	symbol2vlc
	movq	-16(%rbp), %rdi
	movq	-32(%rbp), %rax
	movq	(%rax), %rsi
	callq	writeUVLC2buffer
	movq	-16(%rbp), %rax
	movl	12(%rax), %ebx
	cmpl	$927421789, -24(%rbp)   # imm = 0x3747555D
	jne	.LBB44_10
.LBB44_9:
	movl	%ebx, %eax
	addq	$24, %rsp
	popq	%rbx
	popq	%rbp
	.cfi_def_cfa %rsp, 8
	retq
.LBB44_10:                              # %func_exit
	.cfi_def_cfa %rbp, 16
	callq	detect_breach
	jmp	.LBB44_9
.Lfunc_end44:
	.size	writeSyntaxElement_NumCoeffTrailingOnes.17, .Lfunc_end44-writeSyntaxElement_NumCoeffTrailingOnes.17
	.cfi_endproc
                                        # -- End function
	.globl	writeUVLC2buffer.18     # -- Begin function writeUVLC2buffer.18
	.p2align	4, 0x90
	.type	writeUVLC2buffer.18,@function
writeUVLC2buffer.18:                    # @writeUVLC2buffer.18
	.cfi_startproc
# %bb.0:                                # %entry
	pushq	%rbp
	.cfi_def_cfa_offset 16
	.cfi_offset %rbp, -16
	movq	%rsp, %rbp
	.cfi_def_cfa_register %rbp
	subq	$32, %rsp
	movl	$424878201, -28(%rbp)   # imm = 0x19532079
	movq	%rdi, -24(%rbp)
	movq	%rsi, -8(%rbp)
	movq	-24(%rbp), %rax
	movl	12(%rax), %ecx
	subl	$1, %ecx
                                        # kill: def $cl killed $ecx
	movl	$1, %eax
	shll	%cl, %eax
	movl	%eax, -12(%rbp)
	movl	$0, -16(%rbp)
.LBB45_1:                               # %for.cond
                                        # =>This Inner Loop Header: Depth=1
	movl	-16(%rbp), %eax
	movq	-24(%rbp), %rcx
	cmpl	12(%rcx), %eax
	jge	.LBB45_8
# %bb.2:                                # %for.body
                                        #   in Loop: Header=BB45_1 Depth=1
	movq	-8(%rbp), %rax
	movzbl	8(%rax), %ecx
	shll	$1, %ecx
	movb	%cl, 8(%rax)
	movq	-24(%rbp), %rax
	movl	20(%rax), %eax
	andl	-12(%rbp), %eax
	cmpl	$0, %eax
	je	.LBB45_4
# %bb.3:                                # %if.then
                                        #   in Loop: Header=BB45_1 Depth=1
	movq	-8(%rbp), %rax
	movzbl	8(%rax), %ecx
	orl	$1, %ecx
	movb	%cl, 8(%rax)
.LBB45_4:                               # %if.end
                                        #   in Loop: Header=BB45_1 Depth=1
	movq	-8(%rbp), %rax
	movl	4(%rax), %ecx
	addl	$-1, %ecx
	movl	%ecx, 4(%rax)
	movl	-12(%rbp), %eax
	shrl	$1, %eax
	movl	%eax, -12(%rbp)
	movq	-8(%rbp), %rax
	cmpl	$0, 4(%rax)
	jne	.LBB45_6
# %bb.5:                                # %if.then10
                                        #   in Loop: Header=BB45_1 Depth=1
	movq	-8(%rbp), %rax
	movl	$8, 4(%rax)
	movq	-8(%rbp), %rax
	movb	8(%rax), %al
	movq	-8(%rbp), %rcx
	movq	32(%rcx), %rcx
	movq	-8(%rbp), %rdx
	movl	(%rdx), %esi
	movl	%esi, %edi
	addl	$1, %edi
	movl	%edi, (%rdx)
	movslq	%esi, %rdx
	movb	%al, (%rcx,%rdx)
	movq	-8(%rbp), %rax
	movb	$0, 8(%rax)
.LBB45_6:                               # %if.end14
                                        #   in Loop: Header=BB45_1 Depth=1
	jmp	.LBB45_7
.LBB45_7:                               # %for.inc
                                        #   in Loop: Header=BB45_1 Depth=1
	movl	-16(%rbp), %eax
	addl	$1, %eax
	movl	%eax, -16(%rbp)
	jmp	.LBB45_1
.LBB45_8:                               # %for.end
	cmpl	$424878201, -28(%rbp)   # imm = 0x19532079
	jne	.LBB45_10
.LBB45_9:
	addq	$32, %rsp
	popq	%rbp
	.cfi_def_cfa %rsp, 8
	retq
.LBB45_10:                              # %func_exit
	.cfi_def_cfa %rbp, 16
	callq	detect_breach
	jmp	.LBB45_9
.Lfunc_end45:
	.size	writeUVLC2buffer.18, .Lfunc_end45-writeUVLC2buffer.18
	.cfi_endproc
                                        # -- End function
	.section	.rodata.cst8,"aM",@progbits,8
	.p2align	3               # -- Begin function levrun_linfo_c2x2.19
.LCPI46_0:
	.quad	4611686018427387904     # double 2
	.text
	.globl	levrun_linfo_c2x2.19
	.p2align	4, 0x90
	.type	levrun_linfo_c2x2.19,@function
levrun_linfo_c2x2.19:                   # @levrun_linfo_c2x2.19
	.cfi_startproc
# %bb.0:                                # %entry
	pushq	%rbp
	.cfi_def_cfa_offset 16
	.cfi_offset %rbp, -16
	movq	%rsp, %rbp
	.cfi_def_cfa_register %rbp
	pushq	%rbx
	subq	$88, %rsp
	.cfi_offset %rbx, -24
	movl	$1537093449, -40(%rbp)  # imm = 0x5B9E2F49
	movl	%edi, -20(%rbp)
	movl	%esi, -16(%rbp)
	movq	%rdx, -48(%rbp)
	movq	%rcx, -72(%rbp)
	movq	.L__const.levrun_linfo_c2x2.NTAB, %rax
	movq	%rax, -96(%rbp)
	movq	.L__const.levrun_linfo_c2x2.NTAB+8, %rax
	movq	%rax, -88(%rbp)
	movq	.L__const.levrun_linfo_c2x2.LEVRUN, %rax
	movq	%rax, -64(%rbp)
	movq	.L__const.levrun_linfo_c2x2.LEVRUN+8, %rax
	movq	%rax, -56(%rbp)
	cmpl	$0, -20(%rbp)
	jne	.LBB46_2
# %bb.1:                                # %if.then
	movq	-48(%rbp), %rax
	movl	$1, (%rax)
	jmp	.LBB46_14
.LBB46_2:                               # %if.end
	movl	$0, -36(%rbp)
	cmpl	$0, -20(%rbp)
	jg	.LBB46_4
# %bb.3:                                # %if.then2
	movl	$1, -36(%rbp)
.LBB46_4:                               # %if.end3
	movl	-20(%rbp), %edi
	callq	abs
	movl	%eax, -28(%rbp)
	movl	-28(%rbp), %eax
	movslq	-16(%rbp), %rcx
	cmpl	-64(%rbp,%rcx,4), %eax
	jg	.LBB46_6
# %bb.5:                                # %if.then5
	movl	-28(%rbp), %eax
	subl	$1, %eax
	cltq
	shlq	$3, %rax
	leaq	-96(%rbp), %rcx
	addq	%rax, %rcx
	movslq	-16(%rbp), %rax
	movl	(%rcx,%rax,4), %eax
	addl	$1, %eax
	movl	%eax, -32(%rbp)
	jmp	.LBB46_7
.LBB46_6:                               # %if.else
	movl	-28(%rbp), %eax
	movslq	-16(%rbp), %rcx
	subl	-64(%rbp,%rcx,4), %eax
	shll	$3, %eax
	movl	-16(%rbp), %ecx
	shll	$1, %ecx
	addl	%ecx, %eax
	movl	%eax, -32(%rbp)
.LBB46_7:                               # %if.end15
	movl	-32(%rbp), %eax
	cltd
	movl	$2, %ecx
	idivl	%ecx
	movl	%eax, -24(%rbp)
	movl	$0, -12(%rbp)
.LBB46_8:                               # %for.cond
                                        # =>This Inner Loop Header: Depth=1
	xorl	%eax, %eax
	cmpl	$16, -12(%rbp)
	jge	.LBB46_10
# %bb.9:                                # %land.rhs
                                        #   in Loop: Header=BB46_8 Depth=1
	cmpl	$0, -24(%rbp)
	setne	%al
.LBB46_10:                              # %land.end
                                        #   in Loop: Header=BB46_8 Depth=1
	testb	$1, %al
	jne	.LBB46_11
	jmp	.LBB46_13
.LBB46_11:                              # %for.body
                                        #   in Loop: Header=BB46_8 Depth=1
	movl	-24(%rbp), %eax
	cltd
	movl	$2, %ecx
	idivl	%ecx
	movl	%eax, -24(%rbp)
# %bb.12:                               # %for.inc
                                        #   in Loop: Header=BB46_8 Depth=1
	movl	-12(%rbp), %eax
	addl	$1, %eax
	movl	%eax, -12(%rbp)
	jmp	.LBB46_8
.LBB46_13:                              # %for.end
	vmovsd	.LCPI46_0(%rip), %xmm0  # xmm0 = mem[0],zero
	movl	-12(%rbp), %eax
	shll	$1, %eax
	addl	$1, %eax
	movq	-48(%rbp), %rcx
	movl	%eax, (%rcx)
	movl	-32(%rbp), %ebx
	vcvtsi2sdl	-12(%rbp), %xmm0, %xmm1
	callq	pow
	vcvttsd2si	%xmm0, %eax
	subl	%eax, %ebx
	addl	-36(%rbp), %ebx
	movq	-72(%rbp), %rax
	movl	%ebx, (%rax)
.LBB46_14:                              # %return
	cmpl	$1537093449, -40(%rbp)  # imm = 0x5B9E2F49
	jne	.LBB46_16
.LBB46_15:
	addq	$88, %rsp
	popq	%rbx
	popq	%rbp
	.cfi_def_cfa %rsp, 8
	retq
.LBB46_16:                              # %func_exit
	.cfi_def_cfa %rbp, 16
	callq	detect_breach
	jmp	.LBB46_15
.Lfunc_end46:
	.size	levrun_linfo_c2x2.19, .Lfunc_end46-levrun_linfo_c2x2.19
	.cfi_endproc
                                        # -- End function
	.globl	writeSyntaxElement_TotalZerosChromaDC.20 # -- Begin function writeSyntaxElement_TotalZerosChromaDC.20
	.p2align	4, 0x90
	.type	writeSyntaxElement_TotalZerosChromaDC.20,@function
writeSyntaxElement_TotalZerosChromaDC.20: # @writeSyntaxElement_TotalZerosChromaDC.20
	.cfi_startproc
# %bb.0:                                # %entry
	pushq	%rbp
	.cfi_def_cfa_offset 16
	.cfi_offset %rbp, -16
	movq	%rsp, %rbp
	.cfi_def_cfa_register %rbp
	pushq	%rbx
	subq	$40, %rsp
	.cfi_offset %rbx, -24
	movabsq	$writeSyntaxElement_TotalZerosChromaDC.codtab, %rax
	movabsq	$writeSyntaxElement_TotalZerosChromaDC.lentab, %rcx
	movl	$70222312, -28(%rbp)    # imm = 0x42F81E8
	movq	%rdi, -16(%rbp)
	movq	%rsi, -40(%rbp)
	movq	img, %rdx
	movl	72700(%rdx), %edx
	subl	$1, %edx
	movl	%edx, -24(%rbp)
	movq	-16(%rbp), %rdx
	movl	12(%rdx), %edx
	movl	%edx, -20(%rbp)
	movslq	-24(%rbp), %rdx
	imulq	$960, %rdx, %rdx        # imm = 0x3C0
	addq	%rdx, %rcx
	movslq	-20(%rbp), %rdx
	shlq	$6, %rdx
	addq	%rdx, %rcx
	movq	-16(%rbp), %rdx
	movslq	4(%rdx), %rdx
	movl	(%rcx,%rdx,4), %ecx
	movq	-16(%rbp), %rdx
	movl	%ecx, 12(%rdx)
	movslq	-24(%rbp), %rcx
	imulq	$960, %rcx, %rcx        # imm = 0x3C0
	addq	%rcx, %rax
	movslq	-20(%rbp), %rcx
	shlq	$6, %rcx
	addq	%rcx, %rax
	movq	-16(%rbp), %rcx
	movslq	4(%rcx), %rcx
	movl	(%rax,%rcx,4), %eax
	movq	-16(%rbp), %rcx
	movl	%eax, 16(%rcx)
	movq	-16(%rbp), %rax
	cmpl	$0, 12(%rax)
	jne	.LBB47_2
# %bb.1:                                # %if.then
	movq	-16(%rbp), %rax
	movl	4(%rax), %esi
	movabsq	$.L.str.2, %rdi
	movb	$0, %al
	callq	printf
	movl	$4294967295, %edi       # imm = 0xFFFFFFFF
	callq	exit
.LBB47_2:                               # %if.end
	movq	-16(%rbp), %rdi
	callq	symbol2vlc
	movq	-16(%rbp), %rdi
	movq	-40(%rbp), %rax
	movq	(%rax), %rsi
	callq	writeUVLC2buffer
	movq	-16(%rbp), %rax
	movl	12(%rax), %ebx
	cmpl	$70222312, -28(%rbp)    # imm = 0x42F81E8
	jne	.LBB47_4
.LBB47_3:
	movl	%ebx, %eax
	addq	$40, %rsp
	popq	%rbx
	popq	%rbp
	.cfi_def_cfa %rsp, 8
	retq
.LBB47_4:                               # %func_exit
	.cfi_def_cfa %rbp, 16
	callq	detect_breach
	jmp	.LBB47_3
.Lfunc_end47:
	.size	writeSyntaxElement_TotalZerosChromaDC.20, .Lfunc_end47-writeSyntaxElement_TotalZerosChromaDC.20
	.cfi_endproc
                                        # -- End function
	.globl	cbp_linfo_inter.21      # -- Begin function cbp_linfo_inter.21
	.p2align	4, 0x90
	.type	cbp_linfo_inter.21,@function
cbp_linfo_inter.21:                     # @cbp_linfo_inter.21
	.cfi_startproc
# %bb.0:                                # %entry
	pushq	%rbp
	.cfi_def_cfa_offset 16
	.cfi_offset %rbp, -16
	movq	%rsp, %rbp
	.cfi_def_cfa_register %rbp
	subq	$32, %rsp
	xorl	%eax, %eax
	movl	$1848321081, -12(%rbp)  # imm = 0x6E2B2439
	movl	%edi, -4(%rbp)
	movl	%esi, -8(%rbp)
	movq	%rdx, -24(%rbp)
	movq	%rcx, -32(%rbp)
	movq	img, %rcx
	movl	72700(%rcx), %ecx
	cmpl	$0, %ecx
	movl	$1, %ecx
	cmovnel	%ecx, %eax
	cltq
	imulq	$96, %rax, %rax
	movabsq	$NCBP, %rcx
	addq	%rax, %rcx
	movslq	-4(%rbp), %rax
	movzbl	1(%rcx,%rax,2), %edi
	movl	-8(%rbp), %esi
	movq	-24(%rbp), %rdx
	movq	-32(%rbp), %rcx
	callq	ue_linfo
	cmpl	$1848321081, -12(%rbp)  # imm = 0x6E2B2439
	jne	.LBB48_2
.LBB48_1:
	addq	$32, %rsp
	popq	%rbp
	.cfi_def_cfa %rsp, 8
	retq
.LBB48_2:                               # %func_exit
	.cfi_def_cfa %rbp, 16
	callq	detect_breach
	jmp	.LBB48_1
.Lfunc_end48:
	.size	cbp_linfo_inter.21, .Lfunc_end48-cbp_linfo_inter.21
	.cfi_endproc
                                        # -- End function
	.section	.rodata.cst8,"aM",@progbits,8
	.p2align	3               # -- Begin function ue_linfo.22
.LCPI49_0:
	.quad	4611686018427387904     # double 2
	.text
	.globl	ue_linfo.22
	.p2align	4, 0x90
	.type	ue_linfo.22,@function
ue_linfo.22:                            # @ue_linfo.22
	.cfi_startproc
# %bb.0:                                # %entry
	pushq	%rbp
	.cfi_def_cfa_offset 16
	.cfi_offset %rbp, -16
	movq	%rsp, %rbp
	.cfi_def_cfa_register %rbp
	pushq	%rbx
	subq	$40, %rsp
	.cfi_offset %rbx, -24
	movl	$761945384, -24(%rbp)   # imm = 0x2D6A5D28
	movl	%edi, -20(%rbp)
	movl	%esi, -44(%rbp)
	movq	%rdx, -40(%rbp)
	movq	%rcx, -32(%rbp)
	movl	-20(%rbp), %eax
	addl	$1, %eax
	cltd
	movl	$2, %ecx
	idivl	%ecx
	movl	%eax, -16(%rbp)
	movl	$0, -12(%rbp)
.LBB49_1:                               # %for.cond
                                        # =>This Inner Loop Header: Depth=1
	xorl	%eax, %eax
	cmpl	$16, -12(%rbp)
	jge	.LBB49_3
# %bb.2:                                # %land.rhs
                                        #   in Loop: Header=BB49_1 Depth=1
	cmpl	$0, -16(%rbp)
	setne	%al
.LBB49_3:                               # %land.end
                                        #   in Loop: Header=BB49_1 Depth=1
	testb	$1, %al
	jne	.LBB49_4
	jmp	.LBB49_6
.LBB49_4:                               # %for.body
                                        #   in Loop: Header=BB49_1 Depth=1
	movl	-16(%rbp), %eax
	cltd
	movl	$2, %ecx
	idivl	%ecx
	movl	%eax, -16(%rbp)
# %bb.5:                                # %for.inc
                                        #   in Loop: Header=BB49_1 Depth=1
	movl	-12(%rbp), %eax
	addl	$1, %eax
	movl	%eax, -12(%rbp)
	jmp	.LBB49_1
.LBB49_6:                               # %for.end
	vmovsd	.LCPI49_0(%rip), %xmm0  # xmm0 = mem[0],zero
	movl	-12(%rbp), %eax
	shll	$1, %eax
	addl	$1, %eax
	movq	-40(%rbp), %rcx
	movl	%eax, (%rcx)
	movl	-20(%rbp), %ebx
	addl	$1, %ebx
	vcvtsi2sdl	-12(%rbp), %xmm0, %xmm1
	callq	pow
	vcvttsd2si	%xmm0, %eax
	subl	%eax, %ebx
	movq	-32(%rbp), %rax
	movl	%ebx, (%rax)
	cmpl	$761945384, -24(%rbp)   # imm = 0x2D6A5D28
	jne	.LBB49_8
.LBB49_7:
	addq	$40, %rsp
	popq	%rbx
	popq	%rbp
	.cfi_def_cfa %rsp, 8
	retq
.LBB49_8:                               # %func_exit
	.cfi_def_cfa %rbp, 16
	callq	detect_breach
	jmp	.LBB49_7
.Lfunc_end49:
	.size	ue_linfo.22, .Lfunc_end49-ue_linfo.22
	.cfi_endproc
                                        # -- End function
	.section	.rodata.cst8,"aM",@progbits,8
	.p2align	3               # -- Begin function levrun_linfo_intra.23
.LCPI50_0:
	.quad	4611686018427387904     # double 2
	.text
	.globl	levrun_linfo_intra.23
	.p2align	4, 0x90
	.type	levrun_linfo_intra.23,@function
levrun_linfo_intra.23:                  # @levrun_linfo_intra.23
	.cfi_startproc
# %bb.0:                                # %entry
	pushq	%rbp
	.cfi_def_cfa_offset 16
	.cfi_offset %rbp, -16
	movq	%rsp, %rbp
	.cfi_def_cfa_register %rbp
	pushq	%rbx
	subq	$104, %rsp
	.cfi_offset %rbx, -24
	movl	$965641822, -40(%rbp)   # imm = 0x398E865E
	movl	%edi, -28(%rbp)
	movl	%esi, -16(%rbp)
	movq	%rdx, -48(%rbp)
	movq	%rcx, -64(%rbp)
	movq	.L__const.levrun_linfo_intra.LEVRUN, %rax
	movq	%rax, -56(%rbp)
	leaq	-112(%rbp), %rdi
	movabsq	$.L__const.levrun_linfo_intra.NTAB, %rsi
	movl	$45, %edx
	callq	memcpy
	cmpl	$0, -28(%rbp)
	jne	.LBB50_2
# %bb.1:                                # %if.then
	movq	-48(%rbp), %rax
	movl	$1, (%rax)
	jmp	.LBB50_15
.LBB50_2:                               # %if.end
	cmpl	$0, -28(%rbp)
	jg	.LBB50_4
# %bb.3:                                # %if.then2
	movl	$1, -36(%rbp)
	jmp	.LBB50_5
.LBB50_4:                               # %if.else
	movl	$0, -36(%rbp)
.LBB50_5:                               # %if.end3
	movl	-28(%rbp), %edi
	callq	abs
	movl	%eax, -24(%rbp)
	movl	-24(%rbp), %eax
	movslq	-16(%rbp), %rcx
	movzbl	-56(%rbp,%rcx), %ecx
	cmpl	%ecx, %eax
	jg	.LBB50_7
# %bb.6:                                # %if.then6
	movl	-24(%rbp), %eax
	subl	$1, %eax
	cltq
	imulq	$5, %rax, %rax
	leaq	-112(%rbp), %rcx
	addq	%rax, %rcx
	movslq	-16(%rbp), %rax
	movzbl	(%rcx,%rax), %eax
	addl	$1, %eax
	movl	%eax, -32(%rbp)
	jmp	.LBB50_8
.LBB50_7:                               # %if.else12
	movl	-24(%rbp), %eax
	movslq	-16(%rbp), %rcx
	movzbl	-56(%rbp,%rcx), %ecx
	subl	%ecx, %eax
	shll	$4, %eax
	addl	$16, %eax
	movl	-16(%rbp), %ecx
	shll	$1, %ecx
	addl	%ecx, %eax
	movl	%eax, -32(%rbp)
.LBB50_8:                               # %if.end20
	movl	-32(%rbp), %eax
	cltd
	movl	$2, %ecx
	idivl	%ecx
	movl	%eax, -20(%rbp)
	movl	$0, -12(%rbp)
.LBB50_9:                               # %for.cond
                                        # =>This Inner Loop Header: Depth=1
	xorl	%eax, %eax
	cmpl	$16, -12(%rbp)
	jge	.LBB50_11
# %bb.10:                               # %land.rhs
                                        #   in Loop: Header=BB50_9 Depth=1
	cmpl	$0, -20(%rbp)
	setne	%al
.LBB50_11:                              # %land.end
                                        #   in Loop: Header=BB50_9 Depth=1
	testb	$1, %al
	jne	.LBB50_12
	jmp	.LBB50_14
.LBB50_12:                              # %for.body
                                        #   in Loop: Header=BB50_9 Depth=1
	movl	-20(%rbp), %eax
	cltd
	movl	$2, %ecx
	idivl	%ecx
	movl	%eax, -20(%rbp)
# %bb.13:                               # %for.inc
                                        #   in Loop: Header=BB50_9 Depth=1
	movl	-12(%rbp), %eax
	addl	$1, %eax
	movl	%eax, -12(%rbp)
	jmp	.LBB50_9
.LBB50_14:                              # %for.end
	vmovsd	.LCPI50_0(%rip), %xmm0  # xmm0 = mem[0],zero
	movl	-12(%rbp), %eax
	shll	$1, %eax
	addl	$1, %eax
	movq	-48(%rbp), %rcx
	movl	%eax, (%rcx)
	movl	-32(%rbp), %ebx
	vcvtsi2sdl	-12(%rbp), %xmm0, %xmm1
	callq	pow
	vcvttsd2si	%xmm0, %eax
	subl	%eax, %ebx
	addl	-36(%rbp), %ebx
	movq	-64(%rbp), %rax
	movl	%ebx, (%rax)
.LBB50_15:                              # %return
	cmpl	$965641822, -40(%rbp)   # imm = 0x398E865E
	jne	.LBB50_17
.LBB50_16:
	addq	$104, %rsp
	popq	%rbx
	popq	%rbp
	.cfi_def_cfa %rsp, 8
	retq
.LBB50_17:                              # %func_exit
	.cfi_def_cfa %rbp, 16
	callq	detect_breach
	jmp	.LBB50_16
.Lfunc_end50:
	.size	levrun_linfo_intra.23, .Lfunc_end50-levrun_linfo_intra.23
	.cfi_endproc
                                        # -- End function
	.globl	writeUVLC2buffer.24     # -- Begin function writeUVLC2buffer.24
	.p2align	4, 0x90
	.type	writeUVLC2buffer.24,@function
writeUVLC2buffer.24:                    # @writeUVLC2buffer.24
	.cfi_startproc
# %bb.0:                                # %entry
	pushq	%rbp
	.cfi_def_cfa_offset 16
	.cfi_offset %rbp, -16
	movq	%rsp, %rbp
	.cfi_def_cfa_register %rbp
	subq	$32, %rsp
	movl	$640196508, -28(%rbp)   # imm = 0x26289F9C
	movq	%rdi, -24(%rbp)
	movq	%rsi, -8(%rbp)
	movq	-24(%rbp), %rax
	movl	12(%rax), %ecx
	subl	$1, %ecx
                                        # kill: def $cl killed $ecx
	movl	$1, %eax
	shll	%cl, %eax
	movl	%eax, -16(%rbp)
	movl	$0, -12(%rbp)
.LBB51_1:                               # %for.cond
                                        # =>This Inner Loop Header: Depth=1
	movl	-12(%rbp), %eax
	movq	-24(%rbp), %rcx
	cmpl	12(%rcx), %eax
	jge	.LBB51_8
# %bb.2:                                # %for.body
                                        #   in Loop: Header=BB51_1 Depth=1
	movq	-8(%rbp), %rax
	movzbl	8(%rax), %ecx
	shll	$1, %ecx
	movb	%cl, 8(%rax)
	movq	-24(%rbp), %rax
	movl	20(%rax), %eax
	andl	-16(%rbp), %eax
	cmpl	$0, %eax
	je	.LBB51_4
# %bb.3:                                # %if.then
                                        #   in Loop: Header=BB51_1 Depth=1
	movq	-8(%rbp), %rax
	movzbl	8(%rax), %ecx
	orl	$1, %ecx
	movb	%cl, 8(%rax)
.LBB51_4:                               # %if.end
                                        #   in Loop: Header=BB51_1 Depth=1
	movq	-8(%rbp), %rax
	movl	4(%rax), %ecx
	addl	$-1, %ecx
	movl	%ecx, 4(%rax)
	movl	-16(%rbp), %eax
	shrl	$1, %eax
	movl	%eax, -16(%rbp)
	movq	-8(%rbp), %rax
	cmpl	$0, 4(%rax)
	jne	.LBB51_6
# %bb.5:                                # %if.then10
                                        #   in Loop: Header=BB51_1 Depth=1
	movq	-8(%rbp), %rax
	movl	$8, 4(%rax)
	movq	-8(%rbp), %rax
	movb	8(%rax), %al
	movq	-8(%rbp), %rcx
	movq	32(%rcx), %rcx
	movq	-8(%rbp), %rdx
	movl	(%rdx), %esi
	movl	%esi, %edi
	addl	$1, %edi
	movl	%edi, (%rdx)
	movslq	%esi, %rdx
	movb	%al, (%rcx,%rdx)
	movq	-8(%rbp), %rax
	movb	$0, 8(%rax)
.LBB51_6:                               # %if.end14
                                        #   in Loop: Header=BB51_1 Depth=1
	jmp	.LBB51_7
.LBB51_7:                               # %for.inc
                                        #   in Loop: Header=BB51_1 Depth=1
	movl	-12(%rbp), %eax
	addl	$1, %eax
	movl	%eax, -12(%rbp)
	jmp	.LBB51_1
.LBB51_8:                               # %for.end
	cmpl	$640196508, -28(%rbp)   # imm = 0x26289F9C
	jne	.LBB51_10
.LBB51_9:
	addq	$32, %rsp
	popq	%rbp
	.cfi_def_cfa %rsp, 8
	retq
.LBB51_10:                              # %func_exit
	.cfi_def_cfa %rbp, 16
	callq	detect_breach
	jmp	.LBB51_9
.Lfunc_end51:
	.size	writeUVLC2buffer.24, .Lfunc_end51-writeUVLC2buffer.24
	.cfi_endproc
                                        # -- End function
	.globl	writeUVLC2buffer.25     # -- Begin function writeUVLC2buffer.25
	.p2align	4, 0x90
	.type	writeUVLC2buffer.25,@function
writeUVLC2buffer.25:                    # @writeUVLC2buffer.25
	.cfi_startproc
# %bb.0:                                # %entry
	pushq	%rbp
	.cfi_def_cfa_offset 16
	.cfi_offset %rbp, -16
	movq	%rsp, %rbp
	.cfi_def_cfa_register %rbp
	subq	$32, %rsp
	movl	$274478975, -28(%rbp)   # imm = 0x105C377F
	movq	%rdi, -24(%rbp)
	movq	%rsi, -8(%rbp)
	movq	-24(%rbp), %rax
	movl	12(%rax), %ecx
	subl	$1, %ecx
                                        # kill: def $cl killed $ecx
	movl	$1, %eax
	shll	%cl, %eax
	movl	%eax, -12(%rbp)
	movl	$0, -16(%rbp)
.LBB52_1:                               # %for.cond
                                        # =>This Inner Loop Header: Depth=1
	movl	-16(%rbp), %eax
	movq	-24(%rbp), %rcx
	cmpl	12(%rcx), %eax
	jge	.LBB52_8
# %bb.2:                                # %for.body
                                        #   in Loop: Header=BB52_1 Depth=1
	movq	-8(%rbp), %rax
	movzbl	8(%rax), %ecx
	shll	$1, %ecx
	movb	%cl, 8(%rax)
	movq	-24(%rbp), %rax
	movl	20(%rax), %eax
	andl	-12(%rbp), %eax
	cmpl	$0, %eax
	je	.LBB52_4
# %bb.3:                                # %if.then
                                        #   in Loop: Header=BB52_1 Depth=1
	movq	-8(%rbp), %rax
	movzbl	8(%rax), %ecx
	orl	$1, %ecx
	movb	%cl, 8(%rax)
.LBB52_4:                               # %if.end
                                        #   in Loop: Header=BB52_1 Depth=1
	movq	-8(%rbp), %rax
	movl	4(%rax), %ecx
	addl	$-1, %ecx
	movl	%ecx, 4(%rax)
	movl	-12(%rbp), %eax
	shrl	$1, %eax
	movl	%eax, -12(%rbp)
	movq	-8(%rbp), %rax
	cmpl	$0, 4(%rax)
	jne	.LBB52_6
# %bb.5:                                # %if.then10
                                        #   in Loop: Header=BB52_1 Depth=1
	movq	-8(%rbp), %rax
	movl	$8, 4(%rax)
	movq	-8(%rbp), %rax
	movb	8(%rax), %al
	movq	-8(%rbp), %rcx
	movq	32(%rcx), %rcx
	movq	-8(%rbp), %rdx
	movl	(%rdx), %esi
	movl	%esi, %edi
	addl	$1, %edi
	movl	%edi, (%rdx)
	movslq	%esi, %rdx
	movb	%al, (%rcx,%rdx)
	movq	-8(%rbp), %rax
	movb	$0, 8(%rax)
.LBB52_6:                               # %if.end14
                                        #   in Loop: Header=BB52_1 Depth=1
	jmp	.LBB52_7
.LBB52_7:                               # %for.inc
                                        #   in Loop: Header=BB52_1 Depth=1
	movl	-16(%rbp), %eax
	addl	$1, %eax
	movl	%eax, -16(%rbp)
	jmp	.LBB52_1
.LBB52_8:                               # %for.end
	cmpl	$274478975, -28(%rbp)   # imm = 0x105C377F
	jne	.LBB52_10
.LBB52_9:
	addq	$32, %rsp
	popq	%rbp
	.cfi_def_cfa %rsp, 8
	retq
.LBB52_10:                              # %func_exit
	.cfi_def_cfa %rbp, 16
	callq	detect_breach
	jmp	.LBB52_9
.Lfunc_end52:
	.size	writeUVLC2buffer.25, .Lfunc_end52-writeUVLC2buffer.25
	.cfi_endproc
                                        # -- End function
	.globl	u_v.26                  # -- Begin function u_v.26
	.p2align	4, 0x90
	.type	u_v.26,@function
u_v.26:                                 # @u_v.26
	.cfi_startproc
# %bb.0:                                # %entry
	pushq	%rbp
	.cfi_def_cfa_offset 16
	.cfi_offset %rbp, -16
	movq	%rsp, %rbp
	.cfi_def_cfa_register %rbp
	pushq	%rbx
	subq	$88, %rsp
	.cfi_offset %rbx, -24
	movl	$469658170, -24(%rbp)   # imm = 0x1BFE6A3A
	movl	%edi, -28(%rbp)
	movq	%rsi, -48(%rbp)
	movl	%edx, -20(%rbp)
	movq	%rcx, -40(%rbp)
	leaq	-96(%rbp), %rax
	movq	%rax, -16(%rbp)
	movl	-20(%rbp), %eax
	movq	-16(%rbp), %rcx
	movl	%eax, 20(%rcx)
	movl	-28(%rbp), %eax
	movq	-16(%rbp), %rcx
	movl	%eax, 12(%rcx)
	movq	-16(%rbp), %rax
	movl	$0, (%rax)
	movl	-20(%rbp), %eax
	movq	-16(%rbp), %rcx
	movl	%eax, 4(%rcx)
	movq	-16(%rbp), %rax
	movl	$0, 8(%rax)
	movq	-16(%rbp), %rdi
	movq	-40(%rbp), %rsi
	callq	writeSyntaxElement_fixed
	movl	%eax, %ebx
	cmpl	$469658170, -24(%rbp)   # imm = 0x1BFE6A3A
	jne	.LBB53_2
.LBB53_1:
	movl	%ebx, %eax
	addq	$88, %rsp
	popq	%rbx
	popq	%rbp
	.cfi_def_cfa %rsp, 8
	retq
.LBB53_2:                               # %func_exit
	.cfi_def_cfa %rbp, 16
	callq	detect_breach
	jmp	.LBB53_1
.Lfunc_end53:
	.size	u_v.26, .Lfunc_end53-u_v.26
	.cfi_endproc
                                        # -- End function
	.globl	cbp_linfo_intra.27      # -- Begin function cbp_linfo_intra.27
	.p2align	4, 0x90
	.type	cbp_linfo_intra.27,@function
cbp_linfo_intra.27:                     # @cbp_linfo_intra.27
	.cfi_startproc
# %bb.0:                                # %entry
	pushq	%rbp
	.cfi_def_cfa_offset 16
	.cfi_offset %rbp, -16
	movq	%rsp, %rbp
	.cfi_def_cfa_register %rbp
	subq	$32, %rsp
	xorl	%eax, %eax
	movl	$1983192638, -12(%rbp)  # imm = 0x76351E3E
	movl	%edi, -4(%rbp)
	movl	%esi, -8(%rbp)
	movq	%rdx, -32(%rbp)
	movq	%rcx, -24(%rbp)
	movq	img, %rcx
	movl	72700(%rcx), %ecx
	cmpl	$0, %ecx
	movl	$1, %ecx
	cmovnel	%ecx, %eax
	cltq
	imulq	$96, %rax, %rax
	movabsq	$NCBP, %rcx
	addq	%rax, %rcx
	movslq	-4(%rbp), %rax
	movzbl	(%rcx,%rax,2), %edi
	movl	-8(%rbp), %esi
	movq	-32(%rbp), %rdx
	movq	-24(%rbp), %rcx
	callq	ue_linfo
	cmpl	$1983192638, -12(%rbp)  # imm = 0x76351E3E
	jne	.LBB54_2
.LBB54_1:
	addq	$32, %rsp
	popq	%rbp
	.cfi_def_cfa %rsp, 8
	retq
.LBB54_2:                               # %func_exit
	.cfi_def_cfa %rbp, 16
	callq	detect_breach
	jmp	.LBB54_1
.Lfunc_end54:
	.size	cbp_linfo_intra.27, .Lfunc_end54-cbp_linfo_intra.27
	.cfi_endproc
                                        # -- End function
	.globl	ue_v.28                 # -- Begin function ue_v.28
	.p2align	4, 0x90
	.type	ue_v.28,@function
ue_v.28:                                # @ue_v.28
	.cfi_startproc
# %bb.0:                                # %entry
	pushq	%rbp
	.cfi_def_cfa_offset 16
	.cfi_offset %rbp, -16
	movq	%rsp, %rbp
	.cfi_def_cfa_register %rbp
	pushq	%rbx
	subq	$88, %rsp
	.cfi_offset %rbx, -24
	movl	$243145193, -20(%rbp)   # imm = 0xE7E19E9
	movq	%rdi, -40(%rbp)
	movl	%esi, -24(%rbp)
	movq	%rdx, -32(%rbp)
	leaq	-88(%rbp), %rax
	movq	%rax, -16(%rbp)
	movq	-16(%rbp), %rax
	movl	$0, (%rax)
	movq	-16(%rbp), %rax
	movabsq	$ue_linfo, %rcx
	movq	%rcx, 32(%rax)
	movl	-24(%rbp), %eax
	movq	-16(%rbp), %rcx
	movl	%eax, 4(%rcx)
	movq	-16(%rbp), %rax
	movl	$0, 8(%rax)
	movq	-16(%rbp), %rdi
	movq	-32(%rbp), %rsi
	callq	writeSyntaxElement_UVLC
	movl	%eax, %ebx
	cmpl	$243145193, -20(%rbp)   # imm = 0xE7E19E9
	jne	.LBB55_2
.LBB55_1:
	movl	%ebx, %eax
	addq	$88, %rsp
	popq	%rbx
	popq	%rbp
	.cfi_def_cfa %rsp, 8
	retq
.LBB55_2:                               # %func_exit
	.cfi_def_cfa %rbp, 16
	callq	detect_breach
	jmp	.LBB55_1
.Lfunc_end55:
	.size	ue_v.28, .Lfunc_end55-ue_v.28
	.cfi_endproc
                                        # -- End function
	.globl	writeSyntaxElement_Run.29 # -- Begin function writeSyntaxElement_Run.29
	.p2align	4, 0x90
	.type	writeSyntaxElement_Run.29,@function
writeSyntaxElement_Run.29:              # @writeSyntaxElement_Run.29
	.cfi_startproc
# %bb.0:                                # %entry
	pushq	%rbp
	.cfi_def_cfa_offset 16
	.cfi_offset %rbp, -16
	movq	%rsp, %rbp
	.cfi_def_cfa_register %rbp
	pushq	%rbx
	subq	$24, %rsp
	.cfi_offset %rbx, -24
	movabsq	$writeSyntaxElement_Run.codtab, %rax
	movabsq	$writeSyntaxElement_Run.lentab, %rcx
	movl	$1176455836, -24(%rbp)  # imm = 0x461F4A9C
	movq	%rdi, -16(%rbp)
	movq	%rsi, -32(%rbp)
	movq	-16(%rbp), %rdx
	movl	12(%rdx), %edx
	movl	%edx, -20(%rbp)
	movslq	-20(%rbp), %rdx
	shlq	$6, %rdx
	addq	%rdx, %rcx
	movq	-16(%rbp), %rdx
	movslq	4(%rdx), %rdx
	movl	(%rcx,%rdx,4), %ecx
	movq	-16(%rbp), %rdx
	movl	%ecx, 12(%rdx)
	movslq	-20(%rbp), %rcx
	shlq	$6, %rcx
	addq	%rcx, %rax
	movq	-16(%rbp), %rcx
	movslq	4(%rcx), %rcx
	movl	(%rax,%rcx,4), %eax
	movq	-16(%rbp), %rcx
	movl	%eax, 16(%rcx)
	movq	-16(%rbp), %rax
	cmpl	$0, 12(%rax)
	jne	.LBB56_2
# %bb.1:                                # %if.then
	movq	-16(%rbp), %rax
	movl	4(%rax), %esi
	movabsq	$.L.str.3, %rdi
	movb	$0, %al
	callq	printf
	movl	$4294967295, %edi       # imm = 0xFFFFFFFF
	callq	exit
.LBB56_2:                               # %if.end
	movq	-16(%rbp), %rdi
	callq	symbol2vlc
	movq	-16(%rbp), %rdi
	movq	-32(%rbp), %rax
	movq	(%rax), %rsi
	callq	writeUVLC2buffer
	movq	-16(%rbp), %rax
	movl	12(%rax), %ebx
	cmpl	$1176455836, -24(%rbp)  # imm = 0x461F4A9C
	jne	.LBB56_4
.LBB56_3:
	movl	%ebx, %eax
	addq	$24, %rsp
	popq	%rbx
	popq	%rbp
	.cfi_def_cfa %rsp, 8
	retq
.LBB56_4:                               # %func_exit
	.cfi_def_cfa %rbp, 16
	callq	detect_breach
	jmp	.LBB56_3
.Lfunc_end56:
	.size	writeSyntaxElement_Run.29, .Lfunc_end56-writeSyntaxElement_Run.29
	.cfi_endproc
                                        # -- End function
	.globl	writeSyntaxElement_Run.30 # -- Begin function writeSyntaxElement_Run.30
	.p2align	4, 0x90
	.type	writeSyntaxElement_Run.30,@function
writeSyntaxElement_Run.30:              # @writeSyntaxElement_Run.30
	.cfi_startproc
# %bb.0:                                # %entry
	pushq	%rbp
	.cfi_def_cfa_offset 16
	.cfi_offset %rbp, -16
	movq	%rsp, %rbp
	.cfi_def_cfa_register %rbp
	pushq	%rbx
	subq	$24, %rsp
	.cfi_offset %rbx, -24
	movabsq	$writeSyntaxElement_Run.codtab, %rax
	movabsq	$writeSyntaxElement_Run.lentab, %rcx
	movl	$1760907734, -24(%rbp)  # imm = 0x68F551D6
	movq	%rdi, -16(%rbp)
	movq	%rsi, -32(%rbp)
	movq	-16(%rbp), %rdx
	movl	12(%rdx), %edx
	movl	%edx, -20(%rbp)
	movslq	-20(%rbp), %rdx
	shlq	$6, %rdx
	addq	%rdx, %rcx
	movq	-16(%rbp), %rdx
	movslq	4(%rdx), %rdx
	movl	(%rcx,%rdx,4), %ecx
	movq	-16(%rbp), %rdx
	movl	%ecx, 12(%rdx)
	movslq	-20(%rbp), %rcx
	shlq	$6, %rcx
	addq	%rcx, %rax
	movq	-16(%rbp), %rcx
	movslq	4(%rcx), %rcx
	movl	(%rax,%rcx,4), %eax
	movq	-16(%rbp), %rcx
	movl	%eax, 16(%rcx)
	movq	-16(%rbp), %rax
	cmpl	$0, 12(%rax)
	jne	.LBB57_2
# %bb.1:                                # %if.then
	movq	-16(%rbp), %rax
	movl	4(%rax), %esi
	movabsq	$.L.str.3, %rdi
	movb	$0, %al
	callq	printf
	movl	$4294967295, %edi       # imm = 0xFFFFFFFF
	callq	exit
.LBB57_2:                               # %if.end
	movq	-16(%rbp), %rdi
	callq	symbol2vlc
	movq	-16(%rbp), %rdi
	movq	-32(%rbp), %rax
	movq	(%rax), %rsi
	callq	writeUVLC2buffer
	movq	-16(%rbp), %rax
	movl	12(%rax), %ebx
	cmpl	$1760907734, -24(%rbp)  # imm = 0x68F551D6
	jne	.LBB57_4
.LBB57_3:
	movl	%ebx, %eax
	addq	$24, %rsp
	popq	%rbx
	popq	%rbp
	.cfi_def_cfa %rsp, 8
	retq
.LBB57_4:                               # %func_exit
	.cfi_def_cfa %rbp, 16
	callq	detect_breach
	jmp	.LBB57_3
.Lfunc_end57:
	.size	writeSyntaxElement_Run.30, .Lfunc_end57-writeSyntaxElement_Run.30
	.cfi_endproc
                                        # -- End function
	.globl	writeSyntaxElement_TotalZeros.31 # -- Begin function writeSyntaxElement_TotalZeros.31
	.p2align	4, 0x90
	.type	writeSyntaxElement_TotalZeros.31,@function
writeSyntaxElement_TotalZeros.31:       # @writeSyntaxElement_TotalZeros.31
	.cfi_startproc
# %bb.0:                                # %entry
	pushq	%rbp
	.cfi_def_cfa_offset 16
	.cfi_offset %rbp, -16
	movq	%rsp, %rbp
	.cfi_def_cfa_register %rbp
	pushq	%rbx
	subq	$24, %rsp
	.cfi_offset %rbx, -24
	movabsq	$writeSyntaxElement_TotalZeros.codtab, %rax
	movabsq	$writeSyntaxElement_TotalZeros.lentab, %rcx
	movl	$2029331315, -24(%rbp)  # imm = 0x78F52373
	movq	%rdi, -16(%rbp)
	movq	%rsi, -32(%rbp)
	movq	-16(%rbp), %rdx
	movl	12(%rdx), %edx
	movl	%edx, -20(%rbp)
	movslq	-20(%rbp), %rdx
	shlq	$6, %rdx
	addq	%rdx, %rcx
	movq	-16(%rbp), %rdx
	movslq	4(%rdx), %rdx
	movl	(%rcx,%rdx,4), %ecx
	movq	-16(%rbp), %rdx
	movl	%ecx, 12(%rdx)
	movslq	-20(%rbp), %rcx
	shlq	$6, %rcx
	addq	%rcx, %rax
	movq	-16(%rbp), %rcx
	movslq	4(%rcx), %rcx
	movl	(%rax,%rcx,4), %eax
	movq	-16(%rbp), %rcx
	movl	%eax, 16(%rcx)
	movq	-16(%rbp), %rax
	cmpl	$0, 12(%rax)
	jne	.LBB58_2
# %bb.1:                                # %if.then
	movq	-16(%rbp), %rax
	movl	4(%rax), %esi
	movabsq	$.L.str.2, %rdi
	movb	$0, %al
	callq	printf
	movl	$4294967295, %edi       # imm = 0xFFFFFFFF
	callq	exit
.LBB58_2:                               # %if.end
	movq	-16(%rbp), %rdi
	callq	symbol2vlc
	movq	-16(%rbp), %rdi
	movq	-32(%rbp), %rax
	movq	(%rax), %rsi
	callq	writeUVLC2buffer
	movq	-16(%rbp), %rax
	movl	12(%rax), %ebx
	cmpl	$2029331315, -24(%rbp)  # imm = 0x78F52373
	jne	.LBB58_4
.LBB58_3:
	movl	%ebx, %eax
	addq	$24, %rsp
	popq	%rbx
	popq	%rbp
	.cfi_def_cfa %rsp, 8
	retq
.LBB58_4:                               # %func_exit
	.cfi_def_cfa %rbp, 16
	callq	detect_breach
	jmp	.LBB58_3
.Lfunc_end58:
	.size	writeSyntaxElement_TotalZeros.31, .Lfunc_end58-writeSyntaxElement_TotalZeros.31
	.cfi_endproc
                                        # -- End function
	.globl	cbp_linfo_inter.32      # -- Begin function cbp_linfo_inter.32
	.p2align	4, 0x90
	.type	cbp_linfo_inter.32,@function
cbp_linfo_inter.32:                     # @cbp_linfo_inter.32
	.cfi_startproc
# %bb.0:                                # %entry
	pushq	%rbp
	.cfi_def_cfa_offset 16
	.cfi_offset %rbp, -16
	movq	%rsp, %rbp
	.cfi_def_cfa_register %rbp
	subq	$32, %rsp
	xorl	%eax, %eax
	movl	$2005883544, -8(%rbp)   # imm = 0x778F5A98
	movl	%edi, -12(%rbp)
	movl	%esi, -4(%rbp)
	movq	%rdx, -32(%rbp)
	movq	%rcx, -24(%rbp)
	movq	img, %rcx
	movl	72700(%rcx), %ecx
	cmpl	$0, %ecx
	movl	$1, %ecx
	cmovnel	%ecx, %eax
	cltq
	imulq	$96, %rax, %rax
	movabsq	$NCBP, %rcx
	addq	%rax, %rcx
	movslq	-12(%rbp), %rax
	movzbl	1(%rcx,%rax,2), %edi
	movl	-4(%rbp), %esi
	movq	-32(%rbp), %rdx
	movq	-24(%rbp), %rcx
	callq	ue_linfo
	cmpl	$2005883544, -8(%rbp)   # imm = 0x778F5A98
	jne	.LBB59_2
.LBB59_1:
	addq	$32, %rsp
	popq	%rbp
	.cfi_def_cfa %rsp, 8
	retq
.LBB59_2:                               # %func_exit
	.cfi_def_cfa %rbp, 16
	callq	detect_breach
	jmp	.LBB59_1
.Lfunc_end59:
	.size	cbp_linfo_inter.32, .Lfunc_end59-cbp_linfo_inter.32
	.cfi_endproc
                                        # -- End function
	.globl	writeSyntaxElement_Run.33 # -- Begin function writeSyntaxElement_Run.33
	.p2align	4, 0x90
	.type	writeSyntaxElement_Run.33,@function
writeSyntaxElement_Run.33:              # @writeSyntaxElement_Run.33
	.cfi_startproc
# %bb.0:                                # %entry
	pushq	%rbp
	.cfi_def_cfa_offset 16
	.cfi_offset %rbp, -16
	movq	%rsp, %rbp
	.cfi_def_cfa_register %rbp
	pushq	%rbx
	subq	$24, %rsp
	.cfi_offset %rbx, -24
	movabsq	$writeSyntaxElement_Run.codtab, %rax
	movabsq	$writeSyntaxElement_Run.lentab, %rcx
	movl	$84586016, -24(%rbp)    # imm = 0x50AAE20
	movq	%rdi, -16(%rbp)
	movq	%rsi, -32(%rbp)
	movq	-16(%rbp), %rdx
	movl	12(%rdx), %edx
	movl	%edx, -20(%rbp)
	movslq	-20(%rbp), %rdx
	shlq	$6, %rdx
	addq	%rdx, %rcx
	movq	-16(%rbp), %rdx
	movslq	4(%rdx), %rdx
	movl	(%rcx,%rdx,4), %ecx
	movq	-16(%rbp), %rdx
	movl	%ecx, 12(%rdx)
	movslq	-20(%rbp), %rcx
	shlq	$6, %rcx
	addq	%rcx, %rax
	movq	-16(%rbp), %rcx
	movslq	4(%rcx), %rcx
	movl	(%rax,%rcx,4), %eax
	movq	-16(%rbp), %rcx
	movl	%eax, 16(%rcx)
	movq	-16(%rbp), %rax
	cmpl	$0, 12(%rax)
	jne	.LBB60_2
# %bb.1:                                # %if.then
	movq	-16(%rbp), %rax
	movl	4(%rax), %esi
	movabsq	$.L.str.3, %rdi
	movb	$0, %al
	callq	printf
	movl	$4294967295, %edi       # imm = 0xFFFFFFFF
	callq	exit
.LBB60_2:                               # %if.end
	movq	-16(%rbp), %rdi
	callq	symbol2vlc
	movq	-16(%rbp), %rdi
	movq	-32(%rbp), %rax
	movq	(%rax), %rsi
	callq	writeUVLC2buffer
	movq	-16(%rbp), %rax
	movl	12(%rax), %ebx
	cmpl	$84586016, -24(%rbp)    # imm = 0x50AAE20
	jne	.LBB60_4
.LBB60_3:
	movl	%ebx, %eax
	addq	$24, %rsp
	popq	%rbx
	popq	%rbp
	.cfi_def_cfa %rsp, 8
	retq
.LBB60_4:                               # %func_exit
	.cfi_def_cfa %rbp, 16
	callq	detect_breach
	jmp	.LBB60_3
.Lfunc_end60:
	.size	writeSyntaxElement_Run.33, .Lfunc_end60-writeSyntaxElement_Run.33
	.cfi_endproc
                                        # -- End function
	.globl	writeSyntaxElement_Run.34 # -- Begin function writeSyntaxElement_Run.34
	.p2align	4, 0x90
	.type	writeSyntaxElement_Run.34,@function
writeSyntaxElement_Run.34:              # @writeSyntaxElement_Run.34
	.cfi_startproc
# %bb.0:                                # %entry
	pushq	%rbp
	.cfi_def_cfa_offset 16
	.cfi_offset %rbp, -16
	movq	%rsp, %rbp
	.cfi_def_cfa_register %rbp
	pushq	%rbx
	subq	$24, %rsp
	.cfi_offset %rbx, -24
	movabsq	$writeSyntaxElement_Run.codtab, %rax
	movabsq	$writeSyntaxElement_Run.lentab, %rcx
	movl	$55796063, -24(%rbp)    # imm = 0x353615F
	movq	%rdi, -16(%rbp)
	movq	%rsi, -32(%rbp)
	movq	-16(%rbp), %rdx
	movl	12(%rdx), %edx
	movl	%edx, -20(%rbp)
	movslq	-20(%rbp), %rdx
	shlq	$6, %rdx
	addq	%rdx, %rcx
	movq	-16(%rbp), %rdx
	movslq	4(%rdx), %rdx
	movl	(%rcx,%rdx,4), %ecx
	movq	-16(%rbp), %rdx
	movl	%ecx, 12(%rdx)
	movslq	-20(%rbp), %rcx
	shlq	$6, %rcx
	addq	%rcx, %rax
	movq	-16(%rbp), %rcx
	movslq	4(%rcx), %rcx
	movl	(%rax,%rcx,4), %eax
	movq	-16(%rbp), %rcx
	movl	%eax, 16(%rcx)
	movq	-16(%rbp), %rax
	cmpl	$0, 12(%rax)
	jne	.LBB61_2
# %bb.1:                                # %if.then
	movq	-16(%rbp), %rax
	movl	4(%rax), %esi
	movabsq	$.L.str.3, %rdi
	movb	$0, %al
	callq	printf
	movl	$4294967295, %edi       # imm = 0xFFFFFFFF
	callq	exit
.LBB61_2:                               # %if.end
	movq	-16(%rbp), %rdi
	callq	symbol2vlc
	movq	-16(%rbp), %rdi
	movq	-32(%rbp), %rax
	movq	(%rax), %rsi
	callq	writeUVLC2buffer
	movq	-16(%rbp), %rax
	movl	12(%rax), %ebx
	cmpl	$55796063, -24(%rbp)    # imm = 0x353615F
	jne	.LBB61_4
.LBB61_3:
	movl	%ebx, %eax
	addq	$24, %rsp
	popq	%rbx
	popq	%rbp
	.cfi_def_cfa %rsp, 8
	retq
.LBB61_4:                               # %func_exit
	.cfi_def_cfa %rbp, 16
	callq	detect_breach
	jmp	.LBB61_3
.Lfunc_end61:
	.size	writeSyntaxElement_Run.34, .Lfunc_end61-writeSyntaxElement_Run.34
	.cfi_endproc
                                        # -- End function
	.globl	writeSyntaxElement_Run.35 # -- Begin function writeSyntaxElement_Run.35
	.p2align	4, 0x90
	.type	writeSyntaxElement_Run.35,@function
writeSyntaxElement_Run.35:              # @writeSyntaxElement_Run.35
	.cfi_startproc
# %bb.0:                                # %entry
	pushq	%rbp
	.cfi_def_cfa_offset 16
	.cfi_offset %rbp, -16
	movq	%rsp, %rbp
	.cfi_def_cfa_register %rbp
	pushq	%rbx
	subq	$24, %rsp
	.cfi_offset %rbx, -24
	movabsq	$writeSyntaxElement_Run.codtab, %rax
	movabsq	$writeSyntaxElement_Run.lentab, %rcx
	movl	$1366876404, -24(%rbp)  # imm = 0x5178E0F4
	movq	%rdi, -16(%rbp)
	movq	%rsi, -32(%rbp)
	movq	-16(%rbp), %rdx
	movl	12(%rdx), %edx
	movl	%edx, -20(%rbp)
	movslq	-20(%rbp), %rdx
	shlq	$6, %rdx
	addq	%rdx, %rcx
	movq	-16(%rbp), %rdx
	movslq	4(%rdx), %rdx
	movl	(%rcx,%rdx,4), %ecx
	movq	-16(%rbp), %rdx
	movl	%ecx, 12(%rdx)
	movslq	-20(%rbp), %rcx
	shlq	$6, %rcx
	addq	%rcx, %rax
	movq	-16(%rbp), %rcx
	movslq	4(%rcx), %rcx
	movl	(%rax,%rcx,4), %eax
	movq	-16(%rbp), %rcx
	movl	%eax, 16(%rcx)
	movq	-16(%rbp), %rax
	cmpl	$0, 12(%rax)
	jne	.LBB62_2
# %bb.1:                                # %if.then
	movq	-16(%rbp), %rax
	movl	4(%rax), %esi
	movabsq	$.L.str.3, %rdi
	movb	$0, %al
	callq	printf
	movl	$4294967295, %edi       # imm = 0xFFFFFFFF
	callq	exit
.LBB62_2:                               # %if.end
	movq	-16(%rbp), %rdi
	callq	symbol2vlc
	movq	-16(%rbp), %rdi
	movq	-32(%rbp), %rax
	movq	(%rax), %rsi
	callq	writeUVLC2buffer
	movq	-16(%rbp), %rax
	movl	12(%rax), %ebx
	cmpl	$1366876404, -24(%rbp)  # imm = 0x5178E0F4
	jne	.LBB62_4
.LBB62_3:
	movl	%ebx, %eax
	addq	$24, %rsp
	popq	%rbx
	popq	%rbp
	.cfi_def_cfa %rsp, 8
	retq
.LBB62_4:                               # %func_exit
	.cfi_def_cfa %rbp, 16
	callq	detect_breach
	jmp	.LBB62_3
.Lfunc_end62:
	.size	writeSyntaxElement_Run.35, .Lfunc_end62-writeSyntaxElement_Run.35
	.cfi_endproc
                                        # -- End function
	.globl	u_1.36                  # -- Begin function u_1.36
	.p2align	4, 0x90
	.type	u_1.36,@function
u_1.36:                                 # @u_1.36
	.cfi_startproc
# %bb.0:                                # %entry
	pushq	%rbp
	.cfi_def_cfa_offset 16
	.cfi_offset %rbp, -16
	movq	%rsp, %rbp
	.cfi_def_cfa_register %rbp
	pushq	%rbx
	subq	$88, %rsp
	.cfi_offset %rbx, -24
	movl	$1084948391, -24(%rbp)  # imm = 0x40AAFFA7
	movq	%rdi, -40(%rbp)
	movl	%esi, -20(%rbp)
	movq	%rdx, -32(%rbp)
	leaq	-88(%rbp), %rax
	movq	%rax, -16(%rbp)
	movl	-20(%rbp), %eax
	movq	-16(%rbp), %rcx
	movl	%eax, 20(%rcx)
	movq	-16(%rbp), %rax
	movl	$1, 12(%rax)
	movq	-16(%rbp), %rax
	movl	$0, (%rax)
	movl	-20(%rbp), %eax
	movq	-16(%rbp), %rcx
	movl	%eax, 4(%rcx)
	movq	-16(%rbp), %rax
	movl	$0, 8(%rax)
	movq	-16(%rbp), %rdi
	movq	-32(%rbp), %rsi
	callq	writeSyntaxElement_fixed
	movl	%eax, %ebx
	cmpl	$1084948391, -24(%rbp)  # imm = 0x40AAFFA7
	jne	.LBB63_2
.LBB63_1:
	movl	%ebx, %eax
	addq	$88, %rsp
	popq	%rbx
	popq	%rbp
	.cfi_def_cfa %rsp, 8
	retq
.LBB63_2:                               # %func_exit
	.cfi_def_cfa %rbp, 16
	callq	detect_breach
	jmp	.LBB63_1
.Lfunc_end63:
	.size	u_1.36, .Lfunc_end63-u_1.36
	.cfi_endproc
                                        # -- End function
	.globl	writeSyntaxElement_NumCoeffTrailingOnes.37 # -- Begin function writeSyntaxElement_NumCoeffTrailingOnes.37
	.p2align	4, 0x90
	.type	writeSyntaxElement_NumCoeffTrailingOnes.37,@function
writeSyntaxElement_NumCoeffTrailingOnes.37: # @writeSyntaxElement_NumCoeffTrailingOnes.37
	.cfi_startproc
# %bb.0:                                # %entry
	pushq	%rbp
	.cfi_def_cfa_offset 16
	.cfi_offset %rbp, -16
	movq	%rsp, %rbp
	.cfi_def_cfa_register %rbp
	pushq	%rbx
	subq	$24, %rsp
	.cfi_offset %rbx, -24
	movl	$1748589293, -24(%rbp)  # imm = 0x68395AED
	movq	%rdi, -16(%rbp)
	movq	%rsi, -32(%rbp)
	movq	-16(%rbp), %rax
	movl	12(%rax), %eax
	movl	%eax, -20(%rbp)
	cmpl	$3, -20(%rbp)
	jne	.LBB64_5
# %bb.1:                                # %if.then
	movq	-16(%rbp), %rax
	movl	$6, 12(%rax)
	movq	-16(%rbp), %rax
	cmpl	$0, 4(%rax)
	jle	.LBB64_3
# %bb.2:                                # %if.then3
	movq	-16(%rbp), %rax
	movl	4(%rax), %eax
	subl	$1, %eax
	shll	$2, %eax
	movq	-16(%rbp), %rcx
	orl	8(%rcx), %eax
	movq	-16(%rbp), %rcx
	movl	%eax, 16(%rcx)
	jmp	.LBB64_4
.LBB64_3:                               # %if.else
	movq	-16(%rbp), %rax
	movl	$3, 16(%rax)
.LBB64_4:                               # %if.end
	jmp	.LBB64_6
.LBB64_5:                               # %if.else6
	movslq	-20(%rbp), %rax
	imulq	$272, %rax, %rax        # imm = 0x110
	movabsq	$writeSyntaxElement_NumCoeffTrailingOnes.lentab, %rcx
	addq	%rax, %rcx
	movq	-16(%rbp), %rax
	movslq	8(%rax), %rax
	imulq	$68, %rax, %rax
	addq	%rax, %rcx
	movq	-16(%rbp), %rax
	movslq	4(%rax), %rax
	movl	(%rcx,%rax,4), %eax
	movq	-16(%rbp), %rcx
	movl	%eax, 12(%rcx)
	movslq	-20(%rbp), %rax
	imulq	$272, %rax, %rax        # imm = 0x110
	movabsq	$writeSyntaxElement_NumCoeffTrailingOnes.codtab, %rcx
	addq	%rax, %rcx
	movq	-16(%rbp), %rax
	movslq	8(%rax), %rax
	imulq	$68, %rax, %rax
	addq	%rax, %rcx
	movq	-16(%rbp), %rax
	movslq	4(%rax), %rax
	movl	(%rcx,%rax,4), %eax
	movq	-16(%rbp), %rcx
	movl	%eax, 16(%rcx)
.LBB64_6:                               # %if.end23
	movq	-16(%rbp), %rax
	cmpl	$0, 12(%rax)
	jne	.LBB64_8
# %bb.7:                                # %if.then26
	movl	-20(%rbp), %esi
	movq	-16(%rbp), %rax
	movl	4(%rax), %edx
	movq	-16(%rbp), %rax
	movl	8(%rax), %ecx
	movabsq	$.L.str, %rdi
	movb	$0, %al
	callq	printf
	movl	$4294967295, %edi       # imm = 0xFFFFFFFF
	callq	exit
.LBB64_8:                               # %if.end29
	movq	-16(%rbp), %rdi
	callq	symbol2vlc
	movq	-16(%rbp), %rdi
	movq	-32(%rbp), %rax
	movq	(%rax), %rsi
	callq	writeUVLC2buffer
	movq	-16(%rbp), %rax
	movl	12(%rax), %ebx
	cmpl	$1748589293, -24(%rbp)  # imm = 0x68395AED
	jne	.LBB64_10
.LBB64_9:
	movl	%ebx, %eax
	addq	$24, %rsp
	popq	%rbx
	popq	%rbp
	.cfi_def_cfa %rsp, 8
	retq
.LBB64_10:                              # %func_exit
	.cfi_def_cfa %rbp, 16
	callq	detect_breach
	jmp	.LBB64_9
.Lfunc_end64:
	.size	writeSyntaxElement_NumCoeffTrailingOnes.37, .Lfunc_end64-writeSyntaxElement_NumCoeffTrailingOnes.37
	.cfi_endproc
                                        # -- End function
	.globl	symbol2vlc.38           # -- Begin function symbol2vlc.38
	.p2align	4, 0x90
	.type	symbol2vlc.38,@function
symbol2vlc.38:                          # @symbol2vlc.38
	.cfi_startproc
# %bb.0:                                # %entry
	pushq	%rbp
	.cfi_def_cfa_offset 16
	.cfi_offset %rbp, -16
	movq	%rsp, %rbp
	.cfi_def_cfa_register %rbp
	subq	$32, %rsp
	movl	$1357549177, -20(%rbp)  # imm = 0x50EA8E79
	movq	%rdi, -16(%rbp)
	movq	-16(%rbp), %rax
	movl	12(%rax), %eax
	movl	%eax, -4(%rbp)
	movq	-16(%rbp), %rax
	movl	$0, 20(%rax)
.LBB65_1:                               # %while.cond
                                        # =>This Inner Loop Header: Depth=1
	movl	-4(%rbp), %eax
	addl	$-1, %eax
	movl	%eax, -4(%rbp)
	cmpl	$0, %eax
	jl	.LBB65_3
# %bb.2:                                # %while.body
                                        #   in Loop: Header=BB65_1 Depth=1
	movq	-16(%rbp), %rax
	movl	20(%rax), %ecx
	shll	$1, %ecx
	movl	%ecx, 20(%rax)
	movq	-16(%rbp), %rax
	movl	16(%rax), %eax
	movl	-4(%rbp), %ecx
                                        # kill: def $cl killed $ecx
	sarl	%cl, %eax
	andl	$1, %eax
	movq	-16(%rbp), %rcx
	orl	20(%rcx), %eax
	movl	%eax, 20(%rcx)
	jmp	.LBB65_1
.LBB65_3:                               # %while.end
	cmpl	$1357549177, -20(%rbp)  # imm = 0x50EA8E79
	jne	.LBB65_5
.LBB65_4:
	xorl	%eax, %eax
	addq	$32, %rsp
	popq	%rbp
	.cfi_def_cfa %rsp, 8
	retq
.LBB65_5:                               # %func_exit
	.cfi_def_cfa %rbp, 16
	callq	detect_breach
	jmp	.LBB65_4
.Lfunc_end65:
	.size	symbol2vlc.38, .Lfunc_end65-symbol2vlc.38
	.cfi_endproc
                                        # -- End function
	.globl	writeSyntaxElement2Buf_Fixed.39 # -- Begin function writeSyntaxElement2Buf_Fixed.39
	.p2align	4, 0x90
	.type	writeSyntaxElement2Buf_Fixed.39,@function
writeSyntaxElement2Buf_Fixed.39:        # @writeSyntaxElement2Buf_Fixed.39
	.cfi_startproc
# %bb.0:                                # %entry
	pushq	%rbp
	.cfi_def_cfa_offset 16
	.cfi_offset %rbp, -16
	movq	%rsp, %rbp
	.cfi_def_cfa_register %rbp
	pushq	%rbx
	subq	$24, %rsp
	.cfi_offset %rbx, -24
	movl	$1640256772, -12(%rbp)  # imm = 0x61C45504
	movq	%rdi, -24(%rbp)
	movq	%rsi, -32(%rbp)
	movq	-24(%rbp), %rdi
	movq	-32(%rbp), %rsi
	callq	writeUVLC2buffer
	movq	-24(%rbp), %rax
	movl	12(%rax), %ebx
	cmpl	$1640256772, -12(%rbp)  # imm = 0x61C45504
	jne	.LBB66_2
.LBB66_1:
	movl	%ebx, %eax
	addq	$24, %rsp
	popq	%rbx
	popq	%rbp
	.cfi_def_cfa %rsp, 8
	retq
.LBB66_2:                               # %func_exit
	.cfi_def_cfa %rbp, 16
	callq	detect_breach
	jmp	.LBB66_1
.Lfunc_end66:
	.size	writeSyntaxElement2Buf_Fixed.39, .Lfunc_end66-writeSyntaxElement2Buf_Fixed.39
	.cfi_endproc
                                        # -- End function
	.globl	writeSyntaxElement_Run.40 # -- Begin function writeSyntaxElement_Run.40
	.p2align	4, 0x90
	.type	writeSyntaxElement_Run.40,@function
writeSyntaxElement_Run.40:              # @writeSyntaxElement_Run.40
	.cfi_startproc
# %bb.0:                                # %entry
	pushq	%rbp
	.cfi_def_cfa_offset 16
	.cfi_offset %rbp, -16
	movq	%rsp, %rbp
	.cfi_def_cfa_register %rbp
	pushq	%rbx
	subq	$24, %rsp
	.cfi_offset %rbx, -24
	movabsq	$writeSyntaxElement_Run.codtab, %rax
	movabsq	$writeSyntaxElement_Run.lentab, %rcx
	movl	$1053321726, -24(%rbp)  # imm = 0x3EC869FE
	movq	%rdi, -16(%rbp)
	movq	%rsi, -32(%rbp)
	movq	-16(%rbp), %rdx
	movl	12(%rdx), %edx
	movl	%edx, -20(%rbp)
	movslq	-20(%rbp), %rdx
	shlq	$6, %rdx
	addq	%rdx, %rcx
	movq	-16(%rbp), %rdx
	movslq	4(%rdx), %rdx
	movl	(%rcx,%rdx,4), %ecx
	movq	-16(%rbp), %rdx
	movl	%ecx, 12(%rdx)
	movslq	-20(%rbp), %rcx
	shlq	$6, %rcx
	addq	%rcx, %rax
	movq	-16(%rbp), %rcx
	movslq	4(%rcx), %rcx
	movl	(%rax,%rcx,4), %eax
	movq	-16(%rbp), %rcx
	movl	%eax, 16(%rcx)
	movq	-16(%rbp), %rax
	cmpl	$0, 12(%rax)
	jne	.LBB67_2
# %bb.1:                                # %if.then
	movq	-16(%rbp), %rax
	movl	4(%rax), %esi
	movabsq	$.L.str.3, %rdi
	movb	$0, %al
	callq	printf
	movl	$4294967295, %edi       # imm = 0xFFFFFFFF
	callq	exit
.LBB67_2:                               # %if.end
	movq	-16(%rbp), %rdi
	callq	symbol2vlc
	movq	-16(%rbp), %rdi
	movq	-32(%rbp), %rax
	movq	(%rax), %rsi
	callq	writeUVLC2buffer
	movq	-16(%rbp), %rax
	movl	12(%rax), %ebx
	cmpl	$1053321726, -24(%rbp)  # imm = 0x3EC869FE
	jne	.LBB67_4
.LBB67_3:
	movl	%ebx, %eax
	addq	$24, %rsp
	popq	%rbx
	popq	%rbp
	.cfi_def_cfa %rsp, 8
	retq
.LBB67_4:                               # %func_exit
	.cfi_def_cfa %rbp, 16
	callq	detect_breach
	jmp	.LBB67_3
.Lfunc_end67:
	.size	writeSyntaxElement_Run.40, .Lfunc_end67-writeSyntaxElement_Run.40
	.cfi_endproc
                                        # -- End function
	.globl	writeSyntaxElement_fixed.41 # -- Begin function writeSyntaxElement_fixed.41
	.p2align	4, 0x90
	.type	writeSyntaxElement_fixed.41,@function
writeSyntaxElement_fixed.41:            # @writeSyntaxElement_fixed.41
	.cfi_startproc
# %bb.0:                                # %entry
	pushq	%rbp
	.cfi_def_cfa_offset 16
	.cfi_offset %rbp, -16
	movq	%rsp, %rbp
	.cfi_def_cfa_register %rbp
	pushq	%rbx
	subq	$24, %rsp
	.cfi_offset %rbx, -24
	movl	$353671415, -20(%rbp)   # imm = 0x151498F7
	movq	%rdi, -16(%rbp)
	movq	%rsi, -32(%rbp)
	movq	-16(%rbp), %rdi
	movq	-32(%rbp), %rax
	movq	(%rax), %rsi
	callq	writeUVLC2buffer
	movq	-16(%rbp), %rax
	cmpl	$0, (%rax)
	je	.LBB68_2
# %bb.1:                                # %if.then
	movq	-32(%rbp), %rax
	movq	(%rax), %rax
	movl	$1, 40(%rax)
.LBB68_2:                               # %if.end
	movq	-16(%rbp), %rax
	movl	12(%rax), %ebx
	cmpl	$353671415, -20(%rbp)   # imm = 0x151498F7
	jne	.LBB68_4
.LBB68_3:
	movl	%ebx, %eax
	addq	$24, %rsp
	popq	%rbx
	popq	%rbp
	.cfi_def_cfa %rsp, 8
	retq
.LBB68_4:                               # %func_exit
	.cfi_def_cfa %rbp, 16
	callq	detect_breach
	jmp	.LBB68_3
.Lfunc_end68:
	.size	writeSyntaxElement_fixed.41, .Lfunc_end68-writeSyntaxElement_fixed.41
	.cfi_endproc
                                        # -- End function
	.globl	writeSyntaxElement_NumCoeffTrailingOnesChromaDC.42 # -- Begin function writeSyntaxElement_NumCoeffTrailingOnesChromaDC.42
	.p2align	4, 0x90
	.type	writeSyntaxElement_NumCoeffTrailingOnesChromaDC.42,@function
writeSyntaxElement_NumCoeffTrailingOnesChromaDC.42: # @writeSyntaxElement_NumCoeffTrailingOnesChromaDC.42
	.cfi_startproc
# %bb.0:                                # %entry
	pushq	%rbp
	.cfi_def_cfa_offset 16
	.cfi_offset %rbp, -16
	movq	%rsp, %rbp
	.cfi_def_cfa_register %rbp
	pushq	%rbx
	subq	$24, %rsp
	.cfi_offset %rbx, -24
	movabsq	$writeSyntaxElement_NumCoeffTrailingOnesChromaDC.codtab, %rax
	movabsq	$writeSyntaxElement_NumCoeffTrailingOnesChromaDC.lentab, %rcx
	movl	$335604717, -24(%rbp)   # imm = 0x1400EBED
	movq	%rdi, -16(%rbp)
	movq	%rsi, -32(%rbp)
	movq	img, %rdx
	movl	72700(%rdx), %edx
	subl	$1, %edx
	movl	%edx, -20(%rbp)
	movslq	-20(%rbp), %rdx
	imulq	$272, %rdx, %rdx        # imm = 0x110
	addq	%rdx, %rcx
	movq	-16(%rbp), %rdx
	movslq	8(%rdx), %rdx
	imulq	$68, %rdx, %rdx
	addq	%rdx, %rcx
	movq	-16(%rbp), %rdx
	movslq	4(%rdx), %rdx
	movl	(%rcx,%rdx,4), %ecx
	movq	-16(%rbp), %rdx
	movl	%ecx, 12(%rdx)
	movslq	-20(%rbp), %rcx
	imulq	$272, %rcx, %rcx        # imm = 0x110
	addq	%rcx, %rax
	movq	-16(%rbp), %rcx
	movslq	8(%rcx), %rcx
	imulq	$68, %rcx, %rcx
	addq	%rcx, %rax
	movq	-16(%rbp), %rcx
	movslq	4(%rcx), %rcx
	movl	(%rax,%rcx,4), %eax
	movq	-16(%rbp), %rcx
	movl	%eax, 16(%rcx)
	movq	-16(%rbp), %rax
	cmpl	$0, 12(%rax)
	jne	.LBB69_2
# %bb.1:                                # %if.then
	movq	-16(%rbp), %rax
	movl	4(%rax), %esi
	movq	-16(%rbp), %rax
	movl	8(%rax), %edx
	movabsq	$.L.str.1, %rdi
	movb	$0, %al
	callq	printf
	movl	$4294967295, %edi       # imm = 0xFFFFFFFF
	callq	exit
.LBB69_2:                               # %if.end
	movq	-16(%rbp), %rdi
	callq	symbol2vlc
	movq	-16(%rbp), %rdi
	movq	-32(%rbp), %rax
	movq	(%rax), %rsi
	callq	writeUVLC2buffer
	movq	-16(%rbp), %rax
	movl	12(%rax), %ebx
	cmpl	$335604717, -24(%rbp)   # imm = 0x1400EBED
	jne	.LBB69_4
.LBB69_3:
	movl	%ebx, %eax
	addq	$24, %rsp
	popq	%rbx
	popq	%rbp
	.cfi_def_cfa %rsp, 8
	retq
.LBB69_4:                               # %func_exit
	.cfi_def_cfa %rbp, 16
	callq	detect_breach
	jmp	.LBB69_3
.Lfunc_end69:
	.size	writeSyntaxElement_NumCoeffTrailingOnesChromaDC.42, .Lfunc_end69-writeSyntaxElement_NumCoeffTrailingOnesChromaDC.42
	.cfi_endproc
                                        # -- End function
	.globl	writeSyntaxElement_NumCoeffTrailingOnesChromaDC.43 # -- Begin function writeSyntaxElement_NumCoeffTrailingOnesChromaDC.43
	.p2align	4, 0x90
	.type	writeSyntaxElement_NumCoeffTrailingOnesChromaDC.43,@function
writeSyntaxElement_NumCoeffTrailingOnesChromaDC.43: # @writeSyntaxElement_NumCoeffTrailingOnesChromaDC.43
	.cfi_startproc
# %bb.0:                                # %entry
	pushq	%rbp
	.cfi_def_cfa_offset 16
	.cfi_offset %rbp, -16
	movq	%rsp, %rbp
	.cfi_def_cfa_register %rbp
	pushq	%rbx
	subq	$24, %rsp
	.cfi_offset %rbx, -24
	movabsq	$writeSyntaxElement_NumCoeffTrailingOnesChromaDC.codtab, %rax
	movabsq	$writeSyntaxElement_NumCoeffTrailingOnesChromaDC.lentab, %rcx
	movl	$1049226356, -24(%rbp)  # imm = 0x3E89EC74
	movq	%rdi, -16(%rbp)
	movq	%rsi, -32(%rbp)
	movq	img, %rdx
	movl	72700(%rdx), %edx
	subl	$1, %edx
	movl	%edx, -20(%rbp)
	movslq	-20(%rbp), %rdx
	imulq	$272, %rdx, %rdx        # imm = 0x110
	addq	%rdx, %rcx
	movq	-16(%rbp), %rdx
	movslq	8(%rdx), %rdx
	imulq	$68, %rdx, %rdx
	addq	%rdx, %rcx
	movq	-16(%rbp), %rdx
	movslq	4(%rdx), %rdx
	movl	(%rcx,%rdx,4), %ecx
	movq	-16(%rbp), %rdx
	movl	%ecx, 12(%rdx)
	movslq	-20(%rbp), %rcx
	imulq	$272, %rcx, %rcx        # imm = 0x110
	addq	%rcx, %rax
	movq	-16(%rbp), %rcx
	movslq	8(%rcx), %rcx
	imulq	$68, %rcx, %rcx
	addq	%rcx, %rax
	movq	-16(%rbp), %rcx
	movslq	4(%rcx), %rcx
	movl	(%rax,%rcx,4), %eax
	movq	-16(%rbp), %rcx
	movl	%eax, 16(%rcx)
	movq	-16(%rbp), %rax
	cmpl	$0, 12(%rax)
	jne	.LBB70_2
# %bb.1:                                # %if.then
	movq	-16(%rbp), %rax
	movl	4(%rax), %esi
	movq	-16(%rbp), %rax
	movl	8(%rax), %edx
	movabsq	$.L.str.1, %rdi
	movb	$0, %al
	callq	printf
	movl	$4294967295, %edi       # imm = 0xFFFFFFFF
	callq	exit
.LBB70_2:                               # %if.end
	movq	-16(%rbp), %rdi
	callq	symbol2vlc
	movq	-16(%rbp), %rdi
	movq	-32(%rbp), %rax
	movq	(%rax), %rsi
	callq	writeUVLC2buffer
	movq	-16(%rbp), %rax
	movl	12(%rax), %ebx
	cmpl	$1049226356, -24(%rbp)  # imm = 0x3E89EC74
	jne	.LBB70_4
.LBB70_3:
	movl	%ebx, %eax
	addq	$24, %rsp
	popq	%rbx
	popq	%rbp
	.cfi_def_cfa %rsp, 8
	retq
.LBB70_4:                               # %func_exit
	.cfi_def_cfa %rbp, 16
	callq	detect_breach
	jmp	.LBB70_3
.Lfunc_end70:
	.size	writeSyntaxElement_NumCoeffTrailingOnesChromaDC.43, .Lfunc_end70-writeSyntaxElement_NumCoeffTrailingOnesChromaDC.43
	.cfi_endproc
                                        # -- End function
	.globl	writeUVLC2buffer.44     # -- Begin function writeUVLC2buffer.44
	.p2align	4, 0x90
	.type	writeUVLC2buffer.44,@function
writeUVLC2buffer.44:                    # @writeUVLC2buffer.44
	.cfi_startproc
# %bb.0:                                # %entry
	pushq	%rbp
	.cfi_def_cfa_offset 16
	.cfi_offset %rbp, -16
	movq	%rsp, %rbp
	.cfi_def_cfa_register %rbp
	subq	$32, %rsp
	movl	$829797674, -28(%rbp)   # imm = 0x3175B52A
	movq	%rdi, -24(%rbp)
	movq	%rsi, -8(%rbp)
	movq	-24(%rbp), %rax
	movl	12(%rax), %ecx
	subl	$1, %ecx
                                        # kill: def $cl killed $ecx
	movl	$1, %eax
	shll	%cl, %eax
	movl	%eax, -12(%rbp)
	movl	$0, -16(%rbp)
.LBB71_1:                               # %for.cond
                                        # =>This Inner Loop Header: Depth=1
	movl	-16(%rbp), %eax
	movq	-24(%rbp), %rcx
	cmpl	12(%rcx), %eax
	jge	.LBB71_8
# %bb.2:                                # %for.body
                                        #   in Loop: Header=BB71_1 Depth=1
	movq	-8(%rbp), %rax
	movzbl	8(%rax), %ecx
	shll	$1, %ecx
	movb	%cl, 8(%rax)
	movq	-24(%rbp), %rax
	movl	20(%rax), %eax
	andl	-12(%rbp), %eax
	cmpl	$0, %eax
	je	.LBB71_4
# %bb.3:                                # %if.then
                                        #   in Loop: Header=BB71_1 Depth=1
	movq	-8(%rbp), %rax
	movzbl	8(%rax), %ecx
	orl	$1, %ecx
	movb	%cl, 8(%rax)
.LBB71_4:                               # %if.end
                                        #   in Loop: Header=BB71_1 Depth=1
	movq	-8(%rbp), %rax
	movl	4(%rax), %ecx
	addl	$-1, %ecx
	movl	%ecx, 4(%rax)
	movl	-12(%rbp), %eax
	shrl	$1, %eax
	movl	%eax, -12(%rbp)
	movq	-8(%rbp), %rax
	cmpl	$0, 4(%rax)
	jne	.LBB71_6
# %bb.5:                                # %if.then10
                                        #   in Loop: Header=BB71_1 Depth=1
	movq	-8(%rbp), %rax
	movl	$8, 4(%rax)
	movq	-8(%rbp), %rax
	movb	8(%rax), %al
	movq	-8(%rbp), %rcx
	movq	32(%rcx), %rcx
	movq	-8(%rbp), %rdx
	movl	(%rdx), %esi
	movl	%esi, %edi
	addl	$1, %edi
	movl	%edi, (%rdx)
	movslq	%esi, %rdx
	movb	%al, (%rcx,%rdx)
	movq	-8(%rbp), %rax
	movb	$0, 8(%rax)
.LBB71_6:                               # %if.end14
                                        #   in Loop: Header=BB71_1 Depth=1
	jmp	.LBB71_7
.LBB71_7:                               # %for.inc
                                        #   in Loop: Header=BB71_1 Depth=1
	movl	-16(%rbp), %eax
	addl	$1, %eax
	movl	%eax, -16(%rbp)
	jmp	.LBB71_1
.LBB71_8:                               # %for.end
	cmpl	$829797674, -28(%rbp)   # imm = 0x3175B52A
	jne	.LBB71_10
.LBB71_9:
	addq	$32, %rsp
	popq	%rbp
	.cfi_def_cfa %rsp, 8
	retq
.LBB71_10:                              # %func_exit
	.cfi_def_cfa %rbp, 16
	callq	detect_breach
	jmp	.LBB71_9
.Lfunc_end71:
	.size	writeUVLC2buffer.44, .Lfunc_end71-writeUVLC2buffer.44
	.cfi_endproc
                                        # -- End function
	.globl	writeSyntaxElement2Buf_Fixed.45 # -- Begin function writeSyntaxElement2Buf_Fixed.45
	.p2align	4, 0x90
	.type	writeSyntaxElement2Buf_Fixed.45,@function
writeSyntaxElement2Buf_Fixed.45:        # @writeSyntaxElement2Buf_Fixed.45
	.cfi_startproc
# %bb.0:                                # %entry
	pushq	%rbp
	.cfi_def_cfa_offset 16
	.cfi_offset %rbp, -16
	movq	%rsp, %rbp
	.cfi_def_cfa_register %rbp
	pushq	%rbx
	subq	$24, %rsp
	.cfi_offset %rbx, -24
	movl	$1943429855, -12(%rbp)  # imm = 0x73D662DF
	movq	%rdi, -24(%rbp)
	movq	%rsi, -32(%rbp)
	movq	-24(%rbp), %rdi
	movq	-32(%rbp), %rsi
	callq	writeUVLC2buffer
	movq	-24(%rbp), %rax
	movl	12(%rax), %ebx
	cmpl	$1943429855, -12(%rbp)  # imm = 0x73D662DF
	jne	.LBB72_2
.LBB72_1:
	movl	%ebx, %eax
	addq	$24, %rsp
	popq	%rbx
	popq	%rbp
	.cfi_def_cfa %rsp, 8
	retq
.LBB72_2:                               # %func_exit
	.cfi_def_cfa %rbp, 16
	callq	detect_breach
	jmp	.LBB72_1
.Lfunc_end72:
	.size	writeSyntaxElement2Buf_Fixed.45, .Lfunc_end72-writeSyntaxElement2Buf_Fixed.45
	.cfi_endproc
                                        # -- End function
	.section	.rodata.cst8,"aM",@progbits,8
	.p2align	3               # -- Begin function levrun_linfo_inter.46
.LCPI73_0:
	.quad	4611686018427387904     # double 2
	.text
	.globl	levrun_linfo_inter.46
	.p2align	4, 0x90
	.type	levrun_linfo_inter.46,@function
levrun_linfo_inter.46:                  # @levrun_linfo_inter.46
	.cfi_startproc
# %bb.0:                                # %entry
	pushq	%rbp
	.cfi_def_cfa_offset 16
	.cfi_offset %rbp, -16
	movq	%rsp, %rbp
	.cfi_def_cfa_register %rbp
	pushq	%rbx
	subq	$104, %rsp
	.cfi_offset %rbx, -24
	movl	$574776554, -40(%rbp)   # imm = 0x224264EA
	movl	%edi, -24(%rbp)
	movl	%esi, -16(%rbp)
	movq	%rdx, -48(%rbp)
	movq	%rcx, -72(%rbp)
	movq	.L__const.levrun_linfo_inter.LEVRUN, %rax
	movq	%rax, -64(%rbp)
	movq	.L__const.levrun_linfo_inter.LEVRUN+8, %rax
	movq	%rax, -56(%rbp)
	leaq	-112(%rbp), %rdi
	movabsq	$.L__const.levrun_linfo_inter.NTAB, %rsi
	movl	$40, %edx
	callq	memcpy
	cmpl	$0, -24(%rbp)
	jne	.LBB73_2
# %bb.1:                                # %if.then
	movq	-48(%rbp), %rax
	movl	$1, (%rax)
	jmp	.LBB73_15
.LBB73_2:                               # %if.end
	cmpl	$0, -24(%rbp)
	jg	.LBB73_4
# %bb.3:                                # %if.then2
	movl	$1, -36(%rbp)
	jmp	.LBB73_5
.LBB73_4:                               # %if.else
	movl	$0, -36(%rbp)
.LBB73_5:                               # %if.end3
	movl	-24(%rbp), %edi
	callq	abs
	movl	%eax, -32(%rbp)
	movl	-32(%rbp), %eax
	movslq	-16(%rbp), %rcx
	movzbl	-64(%rbp,%rcx), %ecx
	cmpl	%ecx, %eax
	jg	.LBB73_7
# %bb.6:                                # %if.then6
	movl	-32(%rbp), %eax
	subl	$1, %eax
	cltq
	imulq	$10, %rax, %rax
	leaq	-112(%rbp), %rcx
	addq	%rax, %rcx
	movslq	-16(%rbp), %rax
	movzbl	(%rcx,%rax), %eax
	addl	$1, %eax
	movl	%eax, -20(%rbp)
	jmp	.LBB73_8
.LBB73_7:                               # %if.else12
	movl	-32(%rbp), %eax
	movslq	-16(%rbp), %rcx
	movzbl	-64(%rbp,%rcx), %ecx
	subl	%ecx, %eax
	shll	$5, %eax
	movl	-16(%rbp), %ecx
	shll	$1, %ecx
	addl	%ecx, %eax
	movl	%eax, -20(%rbp)
.LBB73_8:                               # %if.end19
	movl	-20(%rbp), %eax
	cltd
	movl	$2, %ecx
	idivl	%ecx
	movl	%eax, -28(%rbp)
	movl	$0, -12(%rbp)
.LBB73_9:                               # %for.cond
                                        # =>This Inner Loop Header: Depth=1
	xorl	%eax, %eax
	cmpl	$16, -12(%rbp)
	jge	.LBB73_11
# %bb.10:                               # %land.rhs
                                        #   in Loop: Header=BB73_9 Depth=1
	cmpl	$0, -28(%rbp)
	setne	%al
.LBB73_11:                              # %land.end
                                        #   in Loop: Header=BB73_9 Depth=1
	testb	$1, %al
	jne	.LBB73_12
	jmp	.LBB73_14
.LBB73_12:                              # %for.body
                                        #   in Loop: Header=BB73_9 Depth=1
	movl	-28(%rbp), %eax
	cltd
	movl	$2, %ecx
	idivl	%ecx
	movl	%eax, -28(%rbp)
# %bb.13:                               # %for.inc
                                        #   in Loop: Header=BB73_9 Depth=1
	movl	-12(%rbp), %eax
	addl	$1, %eax
	movl	%eax, -12(%rbp)
	jmp	.LBB73_9
.LBB73_14:                              # %for.end
	vmovsd	.LCPI73_0(%rip), %xmm0  # xmm0 = mem[0],zero
	movl	-12(%rbp), %eax
	shll	$1, %eax
	addl	$1, %eax
	movq	-48(%rbp), %rcx
	movl	%eax, (%rcx)
	movl	-20(%rbp), %ebx
	vcvtsi2sdl	-12(%rbp), %xmm0, %xmm1
	callq	pow
	vcvttsd2si	%xmm0, %eax
	subl	%eax, %ebx
	addl	-36(%rbp), %ebx
	movq	-72(%rbp), %rax
	movl	%ebx, (%rax)
.LBB73_15:                              # %return
	cmpl	$574776554, -40(%rbp)   # imm = 0x224264EA
	jne	.LBB73_17
.LBB73_16:
	addq	$104, %rsp
	popq	%rbx
	popq	%rbp
	.cfi_def_cfa %rsp, 8
	retq
.LBB73_17:                              # %func_exit
	.cfi_def_cfa %rbp, 16
	callq	detect_breach
	jmp	.LBB73_16
.Lfunc_end73:
	.size	levrun_linfo_inter.46, .Lfunc_end73-levrun_linfo_inter.46
	.cfi_endproc
                                        # -- End function
	.globl	writeSyntaxElement_NumCoeffTrailingOnesChromaDC.47 # -- Begin function writeSyntaxElement_NumCoeffTrailingOnesChromaDC.47
	.p2align	4, 0x90
	.type	writeSyntaxElement_NumCoeffTrailingOnesChromaDC.47,@function
writeSyntaxElement_NumCoeffTrailingOnesChromaDC.47: # @writeSyntaxElement_NumCoeffTrailingOnesChromaDC.47
	.cfi_startproc
# %bb.0:                                # %entry
	pushq	%rbp
	.cfi_def_cfa_offset 16
	.cfi_offset %rbp, -16
	movq	%rsp, %rbp
	.cfi_def_cfa_register %rbp
	pushq	%rbx
	subq	$24, %rsp
	.cfi_offset %rbx, -24
	movabsq	$writeSyntaxElement_NumCoeffTrailingOnesChromaDC.codtab, %rax
	movabsq	$writeSyntaxElement_NumCoeffTrailingOnesChromaDC.lentab, %rcx
	movl	$1348642342, -24(%rbp)  # imm = 0x5062A626
	movq	%rdi, -16(%rbp)
	movq	%rsi, -32(%rbp)
	movq	img, %rdx
	movl	72700(%rdx), %edx
	subl	$1, %edx
	movl	%edx, -20(%rbp)
	movslq	-20(%rbp), %rdx
	imulq	$272, %rdx, %rdx        # imm = 0x110
	addq	%rdx, %rcx
	movq	-16(%rbp), %rdx
	movslq	8(%rdx), %rdx
	imulq	$68, %rdx, %rdx
	addq	%rdx, %rcx
	movq	-16(%rbp), %rdx
	movslq	4(%rdx), %rdx
	movl	(%rcx,%rdx,4), %ecx
	movq	-16(%rbp), %rdx
	movl	%ecx, 12(%rdx)
	movslq	-20(%rbp), %rcx
	imulq	$272, %rcx, %rcx        # imm = 0x110
	addq	%rcx, %rax
	movq	-16(%rbp), %rcx
	movslq	8(%rcx), %rcx
	imulq	$68, %rcx, %rcx
	addq	%rcx, %rax
	movq	-16(%rbp), %rcx
	movslq	4(%rcx), %rcx
	movl	(%rax,%rcx,4), %eax
	movq	-16(%rbp), %rcx
	movl	%eax, 16(%rcx)
	movq	-16(%rbp), %rax
	cmpl	$0, 12(%rax)
	jne	.LBB74_2
# %bb.1:                                # %if.then
	movq	-16(%rbp), %rax
	movl	4(%rax), %esi
	movq	-16(%rbp), %rax
	movl	8(%rax), %edx
	movabsq	$.L.str.1, %rdi
	movb	$0, %al
	callq	printf
	movl	$4294967295, %edi       # imm = 0xFFFFFFFF
	callq	exit
.LBB74_2:                               # %if.end
	movq	-16(%rbp), %rdi
	callq	symbol2vlc
	movq	-16(%rbp), %rdi
	movq	-32(%rbp), %rax
	movq	(%rax), %rsi
	callq	writeUVLC2buffer
	movq	-16(%rbp), %rax
	movl	12(%rax), %ebx
	cmpl	$1348642342, -24(%rbp)  # imm = 0x5062A626
	jne	.LBB74_4
.LBB74_3:
	movl	%ebx, %eax
	addq	$24, %rsp
	popq	%rbx
	popq	%rbp
	.cfi_def_cfa %rsp, 8
	retq
.LBB74_4:                               # %func_exit
	.cfi_def_cfa %rbp, 16
	callq	detect_breach
	jmp	.LBB74_3
.Lfunc_end74:
	.size	writeSyntaxElement_NumCoeffTrailingOnesChromaDC.47, .Lfunc_end74-writeSyntaxElement_NumCoeffTrailingOnesChromaDC.47
	.cfi_endproc
                                        # -- End function
	.globl	u_v.48                  # -- Begin function u_v.48
	.p2align	4, 0x90
	.type	u_v.48,@function
u_v.48:                                 # @u_v.48
	.cfi_startproc
# %bb.0:                                # %entry
	pushq	%rbp
	.cfi_def_cfa_offset 16
	.cfi_offset %rbp, -16
	movq	%rsp, %rbp
	.cfi_def_cfa_register %rbp
	pushq	%rbx
	subq	$88, %rsp
	.cfi_offset %rbx, -24
	movl	$1346280490, -24(%rbp)  # imm = 0x503E9C2A
	movl	%edi, -28(%rbp)
	movq	%rsi, -48(%rbp)
	movl	%edx, -20(%rbp)
	movq	%rcx, -40(%rbp)
	leaq	-96(%rbp), %rax
	movq	%rax, -16(%rbp)
	movl	-20(%rbp), %eax
	movq	-16(%rbp), %rcx
	movl	%eax, 20(%rcx)
	movl	-28(%rbp), %eax
	movq	-16(%rbp), %rcx
	movl	%eax, 12(%rcx)
	movq	-16(%rbp), %rax
	movl	$0, (%rax)
	movl	-20(%rbp), %eax
	movq	-16(%rbp), %rcx
	movl	%eax, 4(%rcx)
	movq	-16(%rbp), %rax
	movl	$0, 8(%rax)
	movq	-16(%rbp), %rdi
	movq	-40(%rbp), %rsi
	callq	writeSyntaxElement_fixed
	movl	%eax, %ebx
	cmpl	$1346280490, -24(%rbp)  # imm = 0x503E9C2A
	jne	.LBB75_2
.LBB75_1:
	movl	%ebx, %eax
	addq	$88, %rsp
	popq	%rbx
	popq	%rbp
	.cfi_def_cfa %rsp, 8
	retq
.LBB75_2:                               # %func_exit
	.cfi_def_cfa %rbp, 16
	callq	detect_breach
	jmp	.LBB75_1
.Lfunc_end75:
	.size	u_v.48, .Lfunc_end75-u_v.48
	.cfi_endproc
                                        # -- End function
	.globl	se_v.49                 # -- Begin function se_v.49
	.p2align	4, 0x90
	.type	se_v.49,@function
se_v.49:                                # @se_v.49
	.cfi_startproc
# %bb.0:                                # %entry
	pushq	%rbp
	.cfi_def_cfa_offset 16
	.cfi_offset %rbp, -16
	movq	%rsp, %rbp
	.cfi_def_cfa_register %rbp
	pushq	%rbx
	subq	$88, %rsp
	.cfi_offset %rbx, -24
	movl	$1615887503, -20(%rbp)  # imm = 0x60507C8F
	movq	%rdi, -40(%rbp)
	movl	%esi, -24(%rbp)
	movq	%rdx, -32(%rbp)
	leaq	-88(%rbp), %rax
	movq	%rax, -16(%rbp)
	movq	-16(%rbp), %rax
	movl	$0, (%rax)
	movq	-16(%rbp), %rax
	movabsq	$se_linfo, %rcx
	movq	%rcx, 32(%rax)
	movl	-24(%rbp), %eax
	movq	-16(%rbp), %rcx
	movl	%eax, 4(%rcx)
	movq	-16(%rbp), %rax
	movl	$0, 8(%rax)
	movq	-16(%rbp), %rdi
	movq	-32(%rbp), %rsi
	callq	writeSyntaxElement_UVLC
	movl	%eax, %ebx
	cmpl	$1615887503, -20(%rbp)  # imm = 0x60507C8F
	jne	.LBB76_2
.LBB76_1:
	movl	%ebx, %eax
	addq	$88, %rsp
	popq	%rbx
	popq	%rbp
	.cfi_def_cfa %rsp, 8
	retq
.LBB76_2:                               # %func_exit
	.cfi_def_cfa %rbp, 16
	callq	detect_breach
	jmp	.LBB76_1
.Lfunc_end76:
	.size	se_v.49, .Lfunc_end76-se_v.49
	.cfi_endproc
                                        # -- End function
	.globl	cbp_linfo_intra.50      # -- Begin function cbp_linfo_intra.50
	.p2align	4, 0x90
	.type	cbp_linfo_intra.50,@function
cbp_linfo_intra.50:                     # @cbp_linfo_intra.50
	.cfi_startproc
# %bb.0:                                # %entry
	pushq	%rbp
	.cfi_def_cfa_offset 16
	.cfi_offset %rbp, -16
	movq	%rsp, %rbp
	.cfi_def_cfa_register %rbp
	subq	$32, %rsp
	xorl	%eax, %eax
	movl	$833559069, -12(%rbp)   # imm = 0x31AF1A1D
	movl	%edi, -4(%rbp)
	movl	%esi, -8(%rbp)
	movq	%rdx, -32(%rbp)
	movq	%rcx, -24(%rbp)
	movq	img, %rcx
	movl	72700(%rcx), %ecx
	cmpl	$0, %ecx
	movl	$1, %ecx
	cmovnel	%ecx, %eax
	cltq
	imulq	$96, %rax, %rax
	movabsq	$NCBP, %rcx
	addq	%rax, %rcx
	movslq	-4(%rbp), %rax
	movzbl	(%rcx,%rax,2), %edi
	movl	-8(%rbp), %esi
	movq	-32(%rbp), %rdx
	movq	-24(%rbp), %rcx
	callq	ue_linfo
	cmpl	$833559069, -12(%rbp)   # imm = 0x31AF1A1D
	jne	.LBB77_2
.LBB77_1:
	addq	$32, %rsp
	popq	%rbp
	.cfi_def_cfa %rsp, 8
	retq
.LBB77_2:                               # %func_exit
	.cfi_def_cfa %rbp, 16
	callq	detect_breach
	jmp	.LBB77_1
.Lfunc_end77:
	.size	cbp_linfo_intra.50, .Lfunc_end77-cbp_linfo_intra.50
	.cfi_endproc
                                        # -- End function
	.globl	cbp_linfo_inter.51      # -- Begin function cbp_linfo_inter.51
	.p2align	4, 0x90
	.type	cbp_linfo_inter.51,@function
cbp_linfo_inter.51:                     # @cbp_linfo_inter.51
	.cfi_startproc
# %bb.0:                                # %entry
	pushq	%rbp
	.cfi_def_cfa_offset 16
	.cfi_offset %rbp, -16
	movq	%rsp, %rbp
	.cfi_def_cfa_register %rbp
	subq	$32, %rsp
	xorl	%eax, %eax
	movl	$1795953009, -12(%rbp)  # imm = 0x6B0C1171
	movl	%edi, -4(%rbp)
	movl	%esi, -8(%rbp)
	movq	%rdx, -32(%rbp)
	movq	%rcx, -24(%rbp)
	movq	img, %rcx
	movl	72700(%rcx), %ecx
	cmpl	$0, %ecx
	movl	$1, %ecx
	cmovnel	%ecx, %eax
	cltq
	imulq	$96, %rax, %rax
	movabsq	$NCBP, %rcx
	addq	%rax, %rcx
	movslq	-4(%rbp), %rax
	movzbl	1(%rcx,%rax,2), %edi
	movl	-8(%rbp), %esi
	movq	-32(%rbp), %rdx
	movq	-24(%rbp), %rcx
	callq	ue_linfo
	cmpl	$1795953009, -12(%rbp)  # imm = 0x6B0C1171
	jne	.LBB78_2
.LBB78_1:
	addq	$32, %rsp
	popq	%rbp
	.cfi_def_cfa %rsp, 8
	retq
.LBB78_2:                               # %func_exit
	.cfi_def_cfa %rbp, 16
	callq	detect_breach
	jmp	.LBB78_1
.Lfunc_end78:
	.size	cbp_linfo_inter.51, .Lfunc_end78-cbp_linfo_inter.51
	.cfi_endproc
                                        # -- End function
	.globl	writeSyntaxElement_fixed.52 # -- Begin function writeSyntaxElement_fixed.52
	.p2align	4, 0x90
	.type	writeSyntaxElement_fixed.52,@function
writeSyntaxElement_fixed.52:            # @writeSyntaxElement_fixed.52
	.cfi_startproc
# %bb.0:                                # %entry
	pushq	%rbp
	.cfi_def_cfa_offset 16
	.cfi_offset %rbp, -16
	movq	%rsp, %rbp
	.cfi_def_cfa_register %rbp
	pushq	%rbx
	subq	$24, %rsp
	.cfi_offset %rbx, -24
	movl	$1642028717, -20(%rbp)  # imm = 0x61DF5EAD
	movq	%rdi, -16(%rbp)
	movq	%rsi, -32(%rbp)
	movq	-16(%rbp), %rdi
	movq	-32(%rbp), %rax
	movq	(%rax), %rsi
	callq	writeUVLC2buffer
	movq	-16(%rbp), %rax
	cmpl	$0, (%rax)
	je	.LBB79_2
# %bb.1:                                # %if.then
	movq	-32(%rbp), %rax
	movq	(%rax), %rax
	movl	$1, 40(%rax)
.LBB79_2:                               # %if.end
	movq	-16(%rbp), %rax
	movl	12(%rax), %ebx
	cmpl	$1642028717, -20(%rbp)  # imm = 0x61DF5EAD
	jne	.LBB79_4
.LBB79_3:
	movl	%ebx, %eax
	addq	$24, %rsp
	popq	%rbx
	popq	%rbp
	.cfi_def_cfa %rsp, 8
	retq
.LBB79_4:                               # %func_exit
	.cfi_def_cfa %rbp, 16
	callq	detect_breach
	jmp	.LBB79_3
.Lfunc_end79:
	.size	writeSyntaxElement_fixed.52, .Lfunc_end79-writeSyntaxElement_fixed.52
	.cfi_endproc
                                        # -- End function
	.section	.rodata.cst8,"aM",@progbits,8
	.p2align	3               # -- Begin function levrun_linfo_inter.53
.LCPI80_0:
	.quad	4611686018427387904     # double 2
	.text
	.globl	levrun_linfo_inter.53
	.p2align	4, 0x90
	.type	levrun_linfo_inter.53,@function
levrun_linfo_inter.53:                  # @levrun_linfo_inter.53
	.cfi_startproc
# %bb.0:                                # %entry
	pushq	%rbp
	.cfi_def_cfa_offset 16
	.cfi_offset %rbp, -16
	movq	%rsp, %rbp
	.cfi_def_cfa_register %rbp
	pushq	%rbx
	subq	$104, %rsp
	.cfi_offset %rbx, -24
	movl	$252267996, -40(%rbp)   # imm = 0xF094DDC
	movl	%edi, -20(%rbp)
	movl	%esi, -16(%rbp)
	movq	%rdx, -48(%rbp)
	movq	%rcx, -72(%rbp)
	movq	.L__const.levrun_linfo_inter.LEVRUN, %rax
	movq	%rax, -64(%rbp)
	movq	.L__const.levrun_linfo_inter.LEVRUN+8, %rax
	movq	%rax, -56(%rbp)
	leaq	-112(%rbp), %rdi
	movabsq	$.L__const.levrun_linfo_inter.NTAB, %rsi
	movl	$40, %edx
	callq	memcpy
	cmpl	$0, -20(%rbp)
	jne	.LBB80_2
# %bb.1:                                # %if.then
	movq	-48(%rbp), %rax
	movl	$1, (%rax)
	jmp	.LBB80_15
.LBB80_2:                               # %if.end
	cmpl	$0, -20(%rbp)
	jg	.LBB80_4
# %bb.3:                                # %if.then2
	movl	$1, -36(%rbp)
	jmp	.LBB80_5
.LBB80_4:                               # %if.else
	movl	$0, -36(%rbp)
.LBB80_5:                               # %if.end3
	movl	-20(%rbp), %edi
	callq	abs
	movl	%eax, -32(%rbp)
	movl	-32(%rbp), %eax
	movslq	-16(%rbp), %rcx
	movzbl	-64(%rbp,%rcx), %ecx
	cmpl	%ecx, %eax
	jg	.LBB80_7
# %bb.6:                                # %if.then6
	movl	-32(%rbp), %eax
	subl	$1, %eax
	cltq
	imulq	$10, %rax, %rax
	leaq	-112(%rbp), %rcx
	addq	%rax, %rcx
	movslq	-16(%rbp), %rax
	movzbl	(%rcx,%rax), %eax
	addl	$1, %eax
	movl	%eax, -24(%rbp)
	jmp	.LBB80_8
.LBB80_7:                               # %if.else12
	movl	-32(%rbp), %eax
	movslq	-16(%rbp), %rcx
	movzbl	-64(%rbp,%rcx), %ecx
	subl	%ecx, %eax
	shll	$5, %eax
	movl	-16(%rbp), %ecx
	shll	$1, %ecx
	addl	%ecx, %eax
	movl	%eax, -24(%rbp)
.LBB80_8:                               # %if.end19
	movl	-24(%rbp), %eax
	cltd
	movl	$2, %ecx
	idivl	%ecx
	movl	%eax, -28(%rbp)
	movl	$0, -12(%rbp)
.LBB80_9:                               # %for.cond
                                        # =>This Inner Loop Header: Depth=1
	xorl	%eax, %eax
	cmpl	$16, -12(%rbp)
	jge	.LBB80_11
# %bb.10:                               # %land.rhs
                                        #   in Loop: Header=BB80_9 Depth=1
	cmpl	$0, -28(%rbp)
	setne	%al
.LBB80_11:                              # %land.end
                                        #   in Loop: Header=BB80_9 Depth=1
	testb	$1, %al
	jne	.LBB80_12
	jmp	.LBB80_14
.LBB80_12:                              # %for.body
                                        #   in Loop: Header=BB80_9 Depth=1
	movl	-28(%rbp), %eax
	cltd
	movl	$2, %ecx
	idivl	%ecx
	movl	%eax, -28(%rbp)
# %bb.13:                               # %for.inc
                                        #   in Loop: Header=BB80_9 Depth=1
	movl	-12(%rbp), %eax
	addl	$1, %eax
	movl	%eax, -12(%rbp)
	jmp	.LBB80_9
.LBB80_14:                              # %for.end
	vmovsd	.LCPI80_0(%rip), %xmm0  # xmm0 = mem[0],zero
	movl	-12(%rbp), %eax
	shll	$1, %eax
	addl	$1, %eax
	movq	-48(%rbp), %rcx
	movl	%eax, (%rcx)
	movl	-24(%rbp), %ebx
	vcvtsi2sdl	-12(%rbp), %xmm0, %xmm1
	callq	pow
	vcvttsd2si	%xmm0, %eax
	subl	%eax, %ebx
	addl	-36(%rbp), %ebx
	movq	-72(%rbp), %rax
	movl	%ebx, (%rax)
.LBB80_15:                              # %return
	cmpl	$252267996, -40(%rbp)   # imm = 0xF094DDC
	jne	.LBB80_17
.LBB80_16:
	addq	$104, %rsp
	popq	%rbx
	popq	%rbp
	.cfi_def_cfa %rsp, 8
	retq
.LBB80_17:                              # %func_exit
	.cfi_def_cfa %rbp, 16
	callq	detect_breach
	jmp	.LBB80_16
.Lfunc_end80:
	.size	levrun_linfo_inter.53, .Lfunc_end80-levrun_linfo_inter.53
	.cfi_endproc
                                        # -- End function
	.globl	writeSyntaxElement2Buf_UVLC.54 # -- Begin function writeSyntaxElement2Buf_UVLC.54
	.p2align	4, 0x90
	.type	writeSyntaxElement2Buf_UVLC.54,@function
writeSyntaxElement2Buf_UVLC.54:         # @writeSyntaxElement2Buf_UVLC.54
	.cfi_startproc
# %bb.0:                                # %entry
	pushq	%rbp
	.cfi_def_cfa_offset 16
	.cfi_offset %rbp, -16
	movq	%rsp, %rbp
	.cfi_def_cfa_register %rbp
	pushq	%rbx
	subq	$24, %rsp
	.cfi_offset %rbx, -24
	movl	$881845707, -20(%rbp)   # imm = 0x348FE5CB
	movq	%rdi, -16(%rbp)
	movq	%rsi, -32(%rbp)
	movq	-16(%rbp), %rax
	movq	32(%rax), %rax
	movq	-16(%rbp), %rcx
	movl	4(%rcx), %edi
	movq	-16(%rbp), %rcx
	movl	8(%rcx), %esi
	movq	-16(%rbp), %rdx
	addq	$12, %rdx
	movq	-16(%rbp), %rcx
	addq	$16, %rcx
	callq	*%rax
	movq	-16(%rbp), %rdi
	callq	symbol2uvlc
	movq	-16(%rbp), %rdi
	movq	-32(%rbp), %rsi
	callq	writeUVLC2buffer
	movq	-16(%rbp), %rax
	movl	12(%rax), %ebx
	cmpl	$881845707, -20(%rbp)   # imm = 0x348FE5CB
	jne	.LBB81_2
.LBB81_1:
	movl	%ebx, %eax
	addq	$24, %rsp
	popq	%rbx
	popq	%rbp
	.cfi_def_cfa %rsp, 8
	retq
.LBB81_2:                               # %func_exit
	.cfi_def_cfa %rbp, 16
	callq	detect_breach
	jmp	.LBB81_1
.Lfunc_end81:
	.size	writeSyntaxElement2Buf_UVLC.54, .Lfunc_end81-writeSyntaxElement2Buf_UVLC.54
	.cfi_endproc
                                        # -- End function
	.globl	writeUVLC2buffer.55     # -- Begin function writeUVLC2buffer.55
	.p2align	4, 0x90
	.type	writeUVLC2buffer.55,@function
writeUVLC2buffer.55:                    # @writeUVLC2buffer.55
	.cfi_startproc
# %bb.0:                                # %entry
	pushq	%rbp
	.cfi_def_cfa_offset 16
	.cfi_offset %rbp, -16
	movq	%rsp, %rbp
	.cfi_def_cfa_register %rbp
	subq	$32, %rsp
	movl	$1226838665, -28(%rbp)  # imm = 0x49201289
	movq	%rdi, -24(%rbp)
	movq	%rsi, -8(%rbp)
	movq	-24(%rbp), %rax
	movl	12(%rax), %ecx
	subl	$1, %ecx
                                        # kill: def $cl killed $ecx
	movl	$1, %eax
	shll	%cl, %eax
	movl	%eax, -16(%rbp)
	movl	$0, -12(%rbp)
.LBB82_1:                               # %for.cond
                                        # =>This Inner Loop Header: Depth=1
	movl	-12(%rbp), %eax
	movq	-24(%rbp), %rcx
	cmpl	12(%rcx), %eax
	jge	.LBB82_8
# %bb.2:                                # %for.body
                                        #   in Loop: Header=BB82_1 Depth=1
	movq	-8(%rbp), %rax
	movzbl	8(%rax), %ecx
	shll	$1, %ecx
	movb	%cl, 8(%rax)
	movq	-24(%rbp), %rax
	movl	20(%rax), %eax
	andl	-16(%rbp), %eax
	cmpl	$0, %eax
	je	.LBB82_4
# %bb.3:                                # %if.then
                                        #   in Loop: Header=BB82_1 Depth=1
	movq	-8(%rbp), %rax
	movzbl	8(%rax), %ecx
	orl	$1, %ecx
	movb	%cl, 8(%rax)
.LBB82_4:                               # %if.end
                                        #   in Loop: Header=BB82_1 Depth=1
	movq	-8(%rbp), %rax
	movl	4(%rax), %ecx
	addl	$-1, %ecx
	movl	%ecx, 4(%rax)
	movl	-16(%rbp), %eax
	shrl	$1, %eax
	movl	%eax, -16(%rbp)
	movq	-8(%rbp), %rax
	cmpl	$0, 4(%rax)
	jne	.LBB82_6
# %bb.5:                                # %if.then10
                                        #   in Loop: Header=BB82_1 Depth=1
	movq	-8(%rbp), %rax
	movl	$8, 4(%rax)
	movq	-8(%rbp), %rax
	movb	8(%rax), %al
	movq	-8(%rbp), %rcx
	movq	32(%rcx), %rcx
	movq	-8(%rbp), %rdx
	movl	(%rdx), %esi
	movl	%esi, %edi
	addl	$1, %edi
	movl	%edi, (%rdx)
	movslq	%esi, %rdx
	movb	%al, (%rcx,%rdx)
	movq	-8(%rbp), %rax
	movb	$0, 8(%rax)
.LBB82_6:                               # %if.end14
                                        #   in Loop: Header=BB82_1 Depth=1
	jmp	.LBB82_7
.LBB82_7:                               # %for.inc
                                        #   in Loop: Header=BB82_1 Depth=1
	movl	-12(%rbp), %eax
	addl	$1, %eax
	movl	%eax, -12(%rbp)
	jmp	.LBB82_1
.LBB82_8:                               # %for.end
	cmpl	$1226838665, -28(%rbp)  # imm = 0x49201289
	jne	.LBB82_10
.LBB82_9:
	addq	$32, %rsp
	popq	%rbp
	.cfi_def_cfa %rsp, 8
	retq
.LBB82_10:                              # %func_exit
	.cfi_def_cfa %rbp, 16
	callq	detect_breach
	jmp	.LBB82_9
.Lfunc_end82:
	.size	writeUVLC2buffer.55, .Lfunc_end82-writeUVLC2buffer.55
	.cfi_endproc
                                        # -- End function
	.section	.rodata.cst8,"aM",@progbits,8
	.p2align	3               # -- Begin function ue_linfo.56
.LCPI83_0:
	.quad	4611686018427387904     # double 2
	.text
	.globl	ue_linfo.56
	.p2align	4, 0x90
	.type	ue_linfo.56,@function
ue_linfo.56:                            # @ue_linfo.56
	.cfi_startproc
# %bb.0:                                # %entry
	pushq	%rbp
	.cfi_def_cfa_offset 16
	.cfi_offset %rbp, -16
	movq	%rsp, %rbp
	.cfi_def_cfa_register %rbp
	pushq	%rbx
	subq	$40, %rsp
	.cfi_offset %rbx, -24
	movl	$756582070, -24(%rbp)   # imm = 0x2D1886B6
	movl	%edi, -20(%rbp)
	movl	%esi, -44(%rbp)
	movq	%rdx, -40(%rbp)
	movq	%rcx, -32(%rbp)
	movl	-20(%rbp), %eax
	addl	$1, %eax
	cltd
	movl	$2, %ecx
	idivl	%ecx
	movl	%eax, -16(%rbp)
	movl	$0, -12(%rbp)
.LBB83_1:                               # %for.cond
                                        # =>This Inner Loop Header: Depth=1
	xorl	%eax, %eax
	cmpl	$16, -12(%rbp)
	jge	.LBB83_3
# %bb.2:                                # %land.rhs
                                        #   in Loop: Header=BB83_1 Depth=1
	cmpl	$0, -16(%rbp)
	setne	%al
.LBB83_3:                               # %land.end
                                        #   in Loop: Header=BB83_1 Depth=1
	testb	$1, %al
	jne	.LBB83_4
	jmp	.LBB83_6
.LBB83_4:                               # %for.body
                                        #   in Loop: Header=BB83_1 Depth=1
	movl	-16(%rbp), %eax
	cltd
	movl	$2, %ecx
	idivl	%ecx
	movl	%eax, -16(%rbp)
# %bb.5:                                # %for.inc
                                        #   in Loop: Header=BB83_1 Depth=1
	movl	-12(%rbp), %eax
	addl	$1, %eax
	movl	%eax, -12(%rbp)
	jmp	.LBB83_1
.LBB83_6:                               # %for.end
	vmovsd	.LCPI83_0(%rip), %xmm0  # xmm0 = mem[0],zero
	movl	-12(%rbp), %eax
	shll	$1, %eax
	addl	$1, %eax
	movq	-40(%rbp), %rcx
	movl	%eax, (%rcx)
	movl	-20(%rbp), %ebx
	addl	$1, %ebx
	vcvtsi2sdl	-12(%rbp), %xmm0, %xmm1
	callq	pow
	vcvttsd2si	%xmm0, %eax
	subl	%eax, %ebx
	movq	-32(%rbp), %rax
	movl	%ebx, (%rax)
	cmpl	$756582070, -24(%rbp)   # imm = 0x2D1886B6
	jne	.LBB83_8
.LBB83_7:
	addq	$40, %rsp
	popq	%rbx
	popq	%rbp
	.cfi_def_cfa %rsp, 8
	retq
.LBB83_8:                               # %func_exit
	.cfi_def_cfa %rbp, 16
	callq	detect_breach
	jmp	.LBB83_7
.Lfunc_end83:
	.size	ue_linfo.56, .Lfunc_end83-ue_linfo.56
	.cfi_endproc
                                        # -- End function
	.globl	writeSyntaxElement_UVLC.57 # -- Begin function writeSyntaxElement_UVLC.57
	.p2align	4, 0x90
	.type	writeSyntaxElement_UVLC.57,@function
writeSyntaxElement_UVLC.57:             # @writeSyntaxElement_UVLC.57
	.cfi_startproc
# %bb.0:                                # %entry
	pushq	%rbp
	.cfi_def_cfa_offset 16
	.cfi_offset %rbp, -16
	movq	%rsp, %rbp
	.cfi_def_cfa_register %rbp
	pushq	%rbx
	subq	$24, %rsp
	.cfi_offset %rbx, -24
	movl	$1486749137, -20(%rbp)  # imm = 0x589DFDD1
	movq	%rdi, -16(%rbp)
	movq	%rsi, -32(%rbp)
	movq	-16(%rbp), %rax
	movq	32(%rax), %rax
	movq	-16(%rbp), %rcx
	movl	4(%rcx), %edi
	movq	-16(%rbp), %rcx
	movl	8(%rcx), %esi
	movq	-16(%rbp), %rdx
	addq	$12, %rdx
	movq	-16(%rbp), %rcx
	addq	$16, %rcx
	callq	*%rax
	movq	-16(%rbp), %rdi
	callq	symbol2uvlc
	movq	-16(%rbp), %rdi
	movq	-32(%rbp), %rax
	movq	(%rax), %rsi
	callq	writeUVLC2buffer
	movq	-16(%rbp), %rax
	cmpl	$0, (%rax)
	je	.LBB84_2
# %bb.1:                                # %if.then
	movq	-32(%rbp), %rax
	movq	(%rax), %rax
	movl	$1, 40(%rax)
.LBB84_2:                               # %if.end
	movq	-16(%rbp), %rax
	movl	12(%rax), %ebx
	cmpl	$1486749137, -20(%rbp)  # imm = 0x589DFDD1
	jne	.LBB84_4
.LBB84_3:
	movl	%ebx, %eax
	addq	$24, %rsp
	popq	%rbx
	popq	%rbp
	.cfi_def_cfa %rsp, 8
	retq
.LBB84_4:                               # %func_exit
	.cfi_def_cfa %rbp, 16
	callq	detect_breach
	jmp	.LBB84_3
.Lfunc_end84:
	.size	writeSyntaxElement_UVLC.57, .Lfunc_end84-writeSyntaxElement_UVLC.57
	.cfi_endproc
                                        # -- End function
	.globl	ue_v.58                 # -- Begin function ue_v.58
	.p2align	4, 0x90
	.type	ue_v.58,@function
ue_v.58:                                # @ue_v.58
	.cfi_startproc
# %bb.0:                                # %entry
	pushq	%rbp
	.cfi_def_cfa_offset 16
	.cfi_offset %rbp, -16
	movq	%rsp, %rbp
	.cfi_def_cfa_register %rbp
	pushq	%rbx
	subq	$88, %rsp
	.cfi_offset %rbx, -24
	movl	$1166939635, -24(%rbp)  # imm = 0x458E15F3
	movq	%rdi, -40(%rbp)
	movl	%esi, -20(%rbp)
	movq	%rdx, -32(%rbp)
	leaq	-88(%rbp), %rax
	movq	%rax, -16(%rbp)
	movq	-16(%rbp), %rax
	movl	$0, (%rax)
	movq	-16(%rbp), %rax
	movabsq	$ue_linfo, %rcx
	movq	%rcx, 32(%rax)
	movl	-20(%rbp), %eax
	movq	-16(%rbp), %rcx
	movl	%eax, 4(%rcx)
	movq	-16(%rbp), %rax
	movl	$0, 8(%rax)
	movq	-16(%rbp), %rdi
	movq	-32(%rbp), %rsi
	callq	writeSyntaxElement_UVLC
	movl	%eax, %ebx
	cmpl	$1166939635, -24(%rbp)  # imm = 0x458E15F3
	jne	.LBB85_2
.LBB85_1:
	movl	%ebx, %eax
	addq	$88, %rsp
	popq	%rbx
	popq	%rbp
	.cfi_def_cfa %rsp, 8
	retq
.LBB85_2:                               # %func_exit
	.cfi_def_cfa %rbp, 16
	callq	detect_breach
	jmp	.LBB85_1
.Lfunc_end85:
	.size	ue_v.58, .Lfunc_end85-ue_v.58
	.cfi_endproc
                                        # -- End function
	.section	.rodata.cst8,"aM",@progbits,8
	.p2align	3               # -- Begin function levrun_linfo_intra.59
.LCPI86_0:
	.quad	4611686018427387904     # double 2
	.text
	.globl	levrun_linfo_intra.59
	.p2align	4, 0x90
	.type	levrun_linfo_intra.59,@function
levrun_linfo_intra.59:                  # @levrun_linfo_intra.59
	.cfi_startproc
# %bb.0:                                # %entry
	pushq	%rbp
	.cfi_def_cfa_offset 16
	.cfi_offset %rbp, -16
	movq	%rsp, %rbp
	.cfi_def_cfa_register %rbp
	pushq	%rbx
	subq	$104, %rsp
	.cfi_offset %rbx, -24
	movl	$896123334, -40(%rbp)   # imm = 0x3569C1C6
	movl	%edi, -20(%rbp)
	movl	%esi, -16(%rbp)
	movq	%rdx, -48(%rbp)
	movq	%rcx, -64(%rbp)
	movq	.L__const.levrun_linfo_intra.LEVRUN, %rax
	movq	%rax, -56(%rbp)
	leaq	-112(%rbp), %rdi
	movabsq	$.L__const.levrun_linfo_intra.NTAB, %rsi
	movl	$45, %edx
	callq	memcpy
	cmpl	$0, -20(%rbp)
	jne	.LBB86_2
# %bb.1:                                # %if.then
	movq	-48(%rbp), %rax
	movl	$1, (%rax)
	jmp	.LBB86_15
.LBB86_2:                               # %if.end
	cmpl	$0, -20(%rbp)
	jg	.LBB86_4
# %bb.3:                                # %if.then2
	movl	$1, -36(%rbp)
	jmp	.LBB86_5
.LBB86_4:                               # %if.else
	movl	$0, -36(%rbp)
.LBB86_5:                               # %if.end3
	movl	-20(%rbp), %edi
	callq	abs
	movl	%eax, -24(%rbp)
	movl	-24(%rbp), %eax
	movslq	-16(%rbp), %rcx
	movzbl	-56(%rbp,%rcx), %ecx
	cmpl	%ecx, %eax
	jg	.LBB86_7
# %bb.6:                                # %if.then6
	movl	-24(%rbp), %eax
	subl	$1, %eax
	cltq
	imulq	$5, %rax, %rax
	leaq	-112(%rbp), %rcx
	addq	%rax, %rcx
	movslq	-16(%rbp), %rax
	movzbl	(%rcx,%rax), %eax
	addl	$1, %eax
	movl	%eax, -28(%rbp)
	jmp	.LBB86_8
.LBB86_7:                               # %if.else12
	movl	-24(%rbp), %eax
	movslq	-16(%rbp), %rcx
	movzbl	-56(%rbp,%rcx), %ecx
	subl	%ecx, %eax
	shll	$4, %eax
	addl	$16, %eax
	movl	-16(%rbp), %ecx
	shll	$1, %ecx
	addl	%ecx, %eax
	movl	%eax, -28(%rbp)
.LBB86_8:                               # %if.end20
	movl	-28(%rbp), %eax
	cltd
	movl	$2, %ecx
	idivl	%ecx
	movl	%eax, -32(%rbp)
	movl	$0, -12(%rbp)
.LBB86_9:                               # %for.cond
                                        # =>This Inner Loop Header: Depth=1
	xorl	%eax, %eax
	cmpl	$16, -12(%rbp)
	jge	.LBB86_11
# %bb.10:                               # %land.rhs
                                        #   in Loop: Header=BB86_9 Depth=1
	cmpl	$0, -32(%rbp)
	setne	%al
.LBB86_11:                              # %land.end
                                        #   in Loop: Header=BB86_9 Depth=1
	testb	$1, %al
	jne	.LBB86_12
	jmp	.LBB86_14
.LBB86_12:                              # %for.body
                                        #   in Loop: Header=BB86_9 Depth=1
	movl	-32(%rbp), %eax
	cltd
	movl	$2, %ecx
	idivl	%ecx
	movl	%eax, -32(%rbp)
# %bb.13:                               # %for.inc
                                        #   in Loop: Header=BB86_9 Depth=1
	movl	-12(%rbp), %eax
	addl	$1, %eax
	movl	%eax, -12(%rbp)
	jmp	.LBB86_9
.LBB86_14:                              # %for.end
	vmovsd	.LCPI86_0(%rip), %xmm0  # xmm0 = mem[0],zero
	movl	-12(%rbp), %eax
	shll	$1, %eax
	addl	$1, %eax
	movq	-48(%rbp), %rcx
	movl	%eax, (%rcx)
	movl	-28(%rbp), %ebx
	vcvtsi2sdl	-12(%rbp), %xmm0, %xmm1
	callq	pow
	vcvttsd2si	%xmm0, %eax
	subl	%eax, %ebx
	addl	-36(%rbp), %ebx
	movq	-64(%rbp), %rax
	movl	%ebx, (%rax)
.LBB86_15:                              # %return
	cmpl	$896123334, -40(%rbp)   # imm = 0x3569C1C6
	jne	.LBB86_17
.LBB86_16:
	addq	$104, %rsp
	popq	%rbx
	popq	%rbp
	.cfi_def_cfa %rsp, 8
	retq
.LBB86_17:                              # %func_exit
	.cfi_def_cfa %rbp, 16
	callq	detect_breach
	jmp	.LBB86_16
.Lfunc_end86:
	.size	levrun_linfo_intra.59, .Lfunc_end86-levrun_linfo_intra.59
	.cfi_endproc
                                        # -- End function
	.globl	ue_v.60                 # -- Begin function ue_v.60
	.p2align	4, 0x90
	.type	ue_v.60,@function
ue_v.60:                                # @ue_v.60
	.cfi_startproc
# %bb.0:                                # %entry
	pushq	%rbp
	.cfi_def_cfa_offset 16
	.cfi_offset %rbp, -16
	movq	%rsp, %rbp
	.cfi_def_cfa_register %rbp
	pushq	%rbx
	subq	$88, %rsp
	.cfi_offset %rbx, -24
	movl	$260448824, -24(%rbp)   # imm = 0xF862238
	movq	%rdi, -40(%rbp)
	movl	%esi, -20(%rbp)
	movq	%rdx, -32(%rbp)
	leaq	-88(%rbp), %rax
	movq	%rax, -16(%rbp)
	movq	-16(%rbp), %rax
	movl	$0, (%rax)
	movq	-16(%rbp), %rax
	movabsq	$ue_linfo, %rcx
	movq	%rcx, 32(%rax)
	movl	-20(%rbp), %eax
	movq	-16(%rbp), %rcx
	movl	%eax, 4(%rcx)
	movq	-16(%rbp), %rax
	movl	$0, 8(%rax)
	movq	-16(%rbp), %rdi
	movq	-32(%rbp), %rsi
	callq	writeSyntaxElement_UVLC
	movl	%eax, %ebx
	cmpl	$260448824, -24(%rbp)   # imm = 0xF862238
	jne	.LBB87_2
.LBB87_1:
	movl	%ebx, %eax
	addq	$88, %rsp
	popq	%rbx
	popq	%rbp
	.cfi_def_cfa %rsp, 8
	retq
.LBB87_2:                               # %func_exit
	.cfi_def_cfa %rbp, 16
	callq	detect_breach
	jmp	.LBB87_1
.Lfunc_end87:
	.size	ue_v.60, .Lfunc_end87-ue_v.60
	.cfi_endproc
                                        # -- End function
	.globl	writeSyntaxElement_Level_VLC1.61 # -- Begin function writeSyntaxElement_Level_VLC1.61
	.p2align	4, 0x90
	.type	writeSyntaxElement_Level_VLC1.61,@function
writeSyntaxElement_Level_VLC1.61:       # @writeSyntaxElement_Level_VLC1.61
	.cfi_startproc
# %bb.0:                                # %entry
	pushq	%rbp
	.cfi_def_cfa_offset 16
	.cfi_offset %rbp, -16
	movq	%rsp, %rbp
	.cfi_def_cfa_register %rbp
	pushq	%rbx
	subq	$40, %rsp
	.cfi_offset %rbx, -24
	movl	$1621800784, -36(%rbp)  # imm = 0x60AAB750
	movq	%rdi, -24(%rbp)
	movq	%rsi, -48(%rbp)
	movq	-24(%rbp), %rax
	movl	4(%rax), %eax
	movl	%eax, -32(%rbp)
	movl	-32(%rbp), %edi
	callq	abs
	xorl	%ecx, %ecx
	movl	%eax, -12(%rbp)
	movl	-32(%rbp), %eax
	cmpl	$0, %eax
	movl	$1, %eax
	cmovll	%eax, %ecx
	movl	%ecx, -28(%rbp)
	cmpl	$8, -12(%rbp)
	jge	.LBB88_2
# %bb.1:                                # %if.then
	movl	-12(%rbp), %eax
	shll	$1, %eax
	addl	-28(%rbp), %eax
	subl	$1, %eax
	movq	-24(%rbp), %rcx
	movl	%eax, 12(%rcx)
	movq	-24(%rbp), %rax
	movl	$1, 16(%rax)
	jmp	.LBB88_6
.LBB88_2:                               # %if.else
	cmpl	$16, -12(%rbp)
	jge	.LBB88_4
# %bb.3:                                # %if.then3
	movq	-24(%rbp), %rax
	movl	$19, 12(%rax)
	movl	-12(%rbp), %eax
	subl	$8, %eax
	shll	$1, %eax
	orl	$16, %eax
	orl	-28(%rbp), %eax
	movq	-24(%rbp), %rcx
	movl	%eax, 16(%rcx)
	jmp	.LBB88_5
.LBB88_4:                               # %if.else8
	movq	-24(%rbp), %rax
	movl	$28, 12(%rax)
	movl	-12(%rbp), %eax
	subl	$16, %eax
	shll	$1, %eax
	orl	$4096, %eax             # imm = 0x1000
	orl	-28(%rbp), %eax
	movq	-24(%rbp), %rcx
	movl	%eax, 16(%rcx)
.LBB88_5:                               # %if.end
	jmp	.LBB88_6
.LBB88_6:                               # %if.end15
	movq	-24(%rbp), %rdi
	callq	symbol2vlc
	movq	-24(%rbp), %rdi
	movq	-48(%rbp), %rax
	movq	(%rax), %rsi
	callq	writeUVLC2buffer
	movq	-24(%rbp), %rax
	movl	12(%rax), %ebx
	cmpl	$1621800784, -36(%rbp)  # imm = 0x60AAB750
	jne	.LBB88_8
.LBB88_7:
	movl	%ebx, %eax
	addq	$40, %rsp
	popq	%rbx
	popq	%rbp
	.cfi_def_cfa %rsp, 8
	retq
.LBB88_8:                               # %func_exit
	.cfi_def_cfa %rbp, 16
	callq	detect_breach
	jmp	.LBB88_7
.Lfunc_end88:
	.size	writeSyntaxElement_Level_VLC1.61, .Lfunc_end88-writeSyntaxElement_Level_VLC1.61
	.cfi_endproc
                                        # -- End function
	.section	.rodata.cst8,"aM",@progbits,8
	.p2align	3               # -- Begin function levrun_linfo_c2x2.62
.LCPI89_0:
	.quad	4611686018427387904     # double 2
	.text
	.globl	levrun_linfo_c2x2.62
	.p2align	4, 0x90
	.type	levrun_linfo_c2x2.62,@function
levrun_linfo_c2x2.62:                   # @levrun_linfo_c2x2.62
	.cfi_startproc
# %bb.0:                                # %entry
	pushq	%rbp
	.cfi_def_cfa_offset 16
	.cfi_offset %rbp, -16
	movq	%rsp, %rbp
	.cfi_def_cfa_register %rbp
	pushq	%rbx
	subq	$88, %rsp
	.cfi_offset %rbx, -24
	movl	$2028073671, -40(%rbp)  # imm = 0x78E1F2C7
	movl	%edi, -28(%rbp)
	movl	%esi, -16(%rbp)
	movq	%rdx, -48(%rbp)
	movq	%rcx, -72(%rbp)
	movq	.L__const.levrun_linfo_c2x2.NTAB, %rax
	movq	%rax, -96(%rbp)
	movq	.L__const.levrun_linfo_c2x2.NTAB+8, %rax
	movq	%rax, -88(%rbp)
	movq	.L__const.levrun_linfo_c2x2.LEVRUN, %rax
	movq	%rax, -64(%rbp)
	movq	.L__const.levrun_linfo_c2x2.LEVRUN+8, %rax
	movq	%rax, -56(%rbp)
	cmpl	$0, -28(%rbp)
	jne	.LBB89_2
# %bb.1:                                # %if.then
	movq	-48(%rbp), %rax
	movl	$1, (%rax)
	jmp	.LBB89_14
.LBB89_2:                               # %if.end
	movl	$0, -36(%rbp)
	cmpl	$0, -28(%rbp)
	jg	.LBB89_4
# %bb.3:                                # %if.then2
	movl	$1, -36(%rbp)
.LBB89_4:                               # %if.end3
	movl	-28(%rbp), %edi
	callq	abs
	movl	%eax, -20(%rbp)
	movl	-20(%rbp), %eax
	movslq	-16(%rbp), %rcx
	cmpl	-64(%rbp,%rcx,4), %eax
	jg	.LBB89_6
# %bb.5:                                # %if.then5
	movl	-20(%rbp), %eax
	subl	$1, %eax
	cltq
	shlq	$3, %rax
	leaq	-96(%rbp), %rcx
	addq	%rax, %rcx
	movslq	-16(%rbp), %rax
	movl	(%rcx,%rax,4), %eax
	addl	$1, %eax
	movl	%eax, -24(%rbp)
	jmp	.LBB89_7
.LBB89_6:                               # %if.else
	movl	-20(%rbp), %eax
	movslq	-16(%rbp), %rcx
	subl	-64(%rbp,%rcx,4), %eax
	shll	$3, %eax
	movl	-16(%rbp), %ecx
	shll	$1, %ecx
	addl	%ecx, %eax
	movl	%eax, -24(%rbp)
.LBB89_7:                               # %if.end15
	movl	-24(%rbp), %eax
	cltd
	movl	$2, %ecx
	idivl	%ecx
	movl	%eax, -32(%rbp)
	movl	$0, -12(%rbp)
.LBB89_8:                               # %for.cond
                                        # =>This Inner Loop Header: Depth=1
	xorl	%eax, %eax
	cmpl	$16, -12(%rbp)
	jge	.LBB89_10
# %bb.9:                                # %land.rhs
                                        #   in Loop: Header=BB89_8 Depth=1
	cmpl	$0, -32(%rbp)
	setne	%al
.LBB89_10:                              # %land.end
                                        #   in Loop: Header=BB89_8 Depth=1
	testb	$1, %al
	jne	.LBB89_11
	jmp	.LBB89_13
.LBB89_11:                              # %for.body
                                        #   in Loop: Header=BB89_8 Depth=1
	movl	-32(%rbp), %eax
	cltd
	movl	$2, %ecx
	idivl	%ecx
	movl	%eax, -32(%rbp)
# %bb.12:                               # %for.inc
                                        #   in Loop: Header=BB89_8 Depth=1
	movl	-12(%rbp), %eax
	addl	$1, %eax
	movl	%eax, -12(%rbp)
	jmp	.LBB89_8
.LBB89_13:                              # %for.end
	vmovsd	.LCPI89_0(%rip), %xmm0  # xmm0 = mem[0],zero
	movl	-12(%rbp), %eax
	shll	$1, %eax
	addl	$1, %eax
	movq	-48(%rbp), %rcx
	movl	%eax, (%rcx)
	movl	-24(%rbp), %ebx
	vcvtsi2sdl	-12(%rbp), %xmm0, %xmm1
	callq	pow
	vcvttsd2si	%xmm0, %eax
	subl	%eax, %ebx
	addl	-36(%rbp), %ebx
	movq	-72(%rbp), %rax
	movl	%ebx, (%rax)
.LBB89_14:                              # %return
	cmpl	$2028073671, -40(%rbp)  # imm = 0x78E1F2C7
	jne	.LBB89_16
.LBB89_15:
	addq	$88, %rsp
	popq	%rbx
	popq	%rbp
	.cfi_def_cfa %rsp, 8
	retq
.LBB89_16:                              # %func_exit
	.cfi_def_cfa %rbp, 16
	callq	detect_breach
	jmp	.LBB89_15
.Lfunc_end89:
	.size	levrun_linfo_c2x2.62, .Lfunc_end89-levrun_linfo_c2x2.62
	.cfi_endproc
                                        # -- End function
	.globl	writeSyntaxElement_VLC.63 # -- Begin function writeSyntaxElement_VLC.63
	.p2align	4, 0x90
	.type	writeSyntaxElement_VLC.63,@function
writeSyntaxElement_VLC.63:              # @writeSyntaxElement_VLC.63
	.cfi_startproc
# %bb.0:                                # %entry
	pushq	%rbp
	.cfi_def_cfa_offset 16
	.cfi_offset %rbp, -16
	movq	%rsp, %rbp
	.cfi_def_cfa_register %rbp
	pushq	%rbx
	subq	$24, %rsp
	.cfi_offset %rbx, -24
	movl	$346338127, -20(%rbp)   # imm = 0x14A4B34F
	movq	%rdi, -16(%rbp)
	movq	%rsi, -32(%rbp)
	movq	-16(%rbp), %rax
	movl	4(%rax), %eax
	movq	-16(%rbp), %rcx
	movl	%eax, 16(%rcx)
	movq	-16(%rbp), %rax
	movl	8(%rax), %eax
	movq	-16(%rbp), %rcx
	movl	%eax, 12(%rcx)
	movq	-16(%rbp), %rdi
	callq	symbol2vlc
	movq	-16(%rbp), %rdi
	movq	-32(%rbp), %rax
	movq	(%rax), %rsi
	callq	writeUVLC2buffer
	movq	-16(%rbp), %rax
	movl	12(%rax), %ebx
	cmpl	$346338127, -20(%rbp)   # imm = 0x14A4B34F
	jne	.LBB90_2
.LBB90_1:
	movl	%ebx, %eax
	addq	$24, %rsp
	popq	%rbx
	popq	%rbp
	.cfi_def_cfa %rsp, 8
	retq
.LBB90_2:                               # %func_exit
	.cfi_def_cfa %rbp, 16
	callq	detect_breach
	jmp	.LBB90_1
.Lfunc_end90:
	.size	writeSyntaxElement_VLC.63, .Lfunc_end90-writeSyntaxElement_VLC.63
	.cfi_endproc
                                        # -- End function
	.globl	writeSyntaxElement_VLC.64 # -- Begin function writeSyntaxElement_VLC.64
	.p2align	4, 0x90
	.type	writeSyntaxElement_VLC.64,@function
writeSyntaxElement_VLC.64:              # @writeSyntaxElement_VLC.64
	.cfi_startproc
# %bb.0:                                # %entry
	pushq	%rbp
	.cfi_def_cfa_offset 16
	.cfi_offset %rbp, -16
	movq	%rsp, %rbp
	.cfi_def_cfa_register %rbp
	pushq	%rbx
	subq	$24, %rsp
	.cfi_offset %rbx, -24
	movl	$1291612113, -20(%rbp)  # imm = 0x4CFC6FD1
	movq	%rdi, -16(%rbp)
	movq	%rsi, -32(%rbp)
	movq	-16(%rbp), %rax
	movl	4(%rax), %eax
	movq	-16(%rbp), %rcx
	movl	%eax, 16(%rcx)
	movq	-16(%rbp), %rax
	movl	8(%rax), %eax
	movq	-16(%rbp), %rcx
	movl	%eax, 12(%rcx)
	movq	-16(%rbp), %rdi
	callq	symbol2vlc
	movq	-16(%rbp), %rdi
	movq	-32(%rbp), %rax
	movq	(%rax), %rsi
	callq	writeUVLC2buffer
	movq	-16(%rbp), %rax
	movl	12(%rax), %ebx
	cmpl	$1291612113, -20(%rbp)  # imm = 0x4CFC6FD1
	jne	.LBB91_2
.LBB91_1:
	movl	%ebx, %eax
	addq	$24, %rsp
	popq	%rbx
	popq	%rbp
	.cfi_def_cfa %rsp, 8
	retq
.LBB91_2:                               # %func_exit
	.cfi_def_cfa %rbp, 16
	callq	detect_breach
	jmp	.LBB91_1
.Lfunc_end91:
	.size	writeSyntaxElement_VLC.64, .Lfunc_end91-writeSyntaxElement_VLC.64
	.cfi_endproc
                                        # -- End function
	.globl	u_1.65                  # -- Begin function u_1.65
	.p2align	4, 0x90
	.type	u_1.65,@function
u_1.65:                                 # @u_1.65
	.cfi_startproc
# %bb.0:                                # %entry
	pushq	%rbp
	.cfi_def_cfa_offset 16
	.cfi_offset %rbp, -16
	movq	%rsp, %rbp
	.cfi_def_cfa_register %rbp
	pushq	%rbx
	subq	$88, %rsp
	.cfi_offset %rbx, -24
	movl	$624965862, -24(%rbp)   # imm = 0x254038E6
	movq	%rdi, -40(%rbp)
	movl	%esi, -20(%rbp)
	movq	%rdx, -32(%rbp)
	leaq	-88(%rbp), %rax
	movq	%rax, -16(%rbp)
	movl	-20(%rbp), %eax
	movq	-16(%rbp), %rcx
	movl	%eax, 20(%rcx)
	movq	-16(%rbp), %rax
	movl	$1, 12(%rax)
	movq	-16(%rbp), %rax
	movl	$0, (%rax)
	movl	-20(%rbp), %eax
	movq	-16(%rbp), %rcx
	movl	%eax, 4(%rcx)
	movq	-16(%rbp), %rax
	movl	$0, 8(%rax)
	movq	-16(%rbp), %rdi
	movq	-32(%rbp), %rsi
	callq	writeSyntaxElement_fixed
	movl	%eax, %ebx
	cmpl	$624965862, -24(%rbp)   # imm = 0x254038E6
	jne	.LBB92_2
.LBB92_1:
	movl	%ebx, %eax
	addq	$88, %rsp
	popq	%rbx
	popq	%rbp
	.cfi_def_cfa %rsp, 8
	retq
.LBB92_2:                               # %func_exit
	.cfi_def_cfa %rbp, 16
	callq	detect_breach
	jmp	.LBB92_1
.Lfunc_end92:
	.size	u_1.65, .Lfunc_end92-u_1.65
	.cfi_endproc
                                        # -- End function
	.globl	cbp_linfo_inter.66      # -- Begin function cbp_linfo_inter.66
	.p2align	4, 0x90
	.type	cbp_linfo_inter.66,@function
cbp_linfo_inter.66:                     # @cbp_linfo_inter.66
	.cfi_startproc
# %bb.0:                                # %entry
	pushq	%rbp
	.cfi_def_cfa_offset 16
	.cfi_offset %rbp, -16
	movq	%rsp, %rbp
	.cfi_def_cfa_register %rbp
	subq	$32, %rsp
	xorl	%eax, %eax
	movl	$75660329, -8(%rbp)     # imm = 0x4827C29
	movl	%edi, -4(%rbp)
	movl	%esi, -12(%rbp)
	movq	%rdx, -24(%rbp)
	movq	%rcx, -32(%rbp)
	movq	img, %rcx
	movl	72700(%rcx), %ecx
	cmpl	$0, %ecx
	movl	$1, %ecx
	cmovnel	%ecx, %eax
	cltq
	imulq	$96, %rax, %rax
	movabsq	$NCBP, %rcx
	addq	%rax, %rcx
	movslq	-4(%rbp), %rax
	movzbl	1(%rcx,%rax,2), %edi
	movl	-12(%rbp), %esi
	movq	-24(%rbp), %rdx
	movq	-32(%rbp), %rcx
	callq	ue_linfo
	cmpl	$75660329, -8(%rbp)     # imm = 0x4827C29
	jne	.LBB93_2
.LBB93_1:
	addq	$32, %rsp
	popq	%rbp
	.cfi_def_cfa %rsp, 8
	retq
.LBB93_2:                               # %func_exit
	.cfi_def_cfa %rbp, 16
	callq	detect_breach
	jmp	.LBB93_1
.Lfunc_end93:
	.size	cbp_linfo_inter.66, .Lfunc_end93-cbp_linfo_inter.66
	.cfi_endproc
                                        # -- End function
	.section	.rodata.cst8,"aM",@progbits,8
	.p2align	3               # -- Begin function levrun_linfo_inter.67
.LCPI94_0:
	.quad	4611686018427387904     # double 2
	.text
	.globl	levrun_linfo_inter.67
	.p2align	4, 0x90
	.type	levrun_linfo_inter.67,@function
levrun_linfo_inter.67:                  # @levrun_linfo_inter.67
	.cfi_startproc
# %bb.0:                                # %entry
	pushq	%rbp
	.cfi_def_cfa_offset 16
	.cfi_offset %rbp, -16
	movq	%rsp, %rbp
	.cfi_def_cfa_register %rbp
	pushq	%rbx
	subq	$104, %rsp
	.cfi_offset %rbx, -24
	movl	$1242917715, -40(%rbp)  # imm = 0x4A156B53
	movl	%edi, -32(%rbp)
	movl	%esi, -16(%rbp)
	movq	%rdx, -48(%rbp)
	movq	%rcx, -72(%rbp)
	movq	.L__const.levrun_linfo_inter.LEVRUN, %rax
	movq	%rax, -64(%rbp)
	movq	.L__const.levrun_linfo_inter.LEVRUN+8, %rax
	movq	%rax, -56(%rbp)
	leaq	-112(%rbp), %rdi
	movabsq	$.L__const.levrun_linfo_inter.NTAB, %rsi
	movl	$40, %edx
	callq	memcpy
	cmpl	$0, -32(%rbp)
	jne	.LBB94_2
# %bb.1:                                # %if.then
	movq	-48(%rbp), %rax
	movl	$1, (%rax)
	jmp	.LBB94_15
.LBB94_2:                               # %if.end
	cmpl	$0, -32(%rbp)
	jg	.LBB94_4
# %bb.3:                                # %if.then2
	movl	$1, -36(%rbp)
	jmp	.LBB94_5
.LBB94_4:                               # %if.else
	movl	$0, -36(%rbp)
.LBB94_5:                               # %if.end3
	movl	-32(%rbp), %edi
	callq	abs
	movl	%eax, -20(%rbp)
	movl	-20(%rbp), %eax
	movslq	-16(%rbp), %rcx
	movzbl	-64(%rbp,%rcx), %ecx
	cmpl	%ecx, %eax
	jg	.LBB94_7
# %bb.6:                                # %if.then6
	movl	-20(%rbp), %eax
	subl	$1, %eax
	cltq
	imulq	$10, %rax, %rax
	leaq	-112(%rbp), %rcx
	addq	%rax, %rcx
	movslq	-16(%rbp), %rax
	movzbl	(%rcx,%rax), %eax
	addl	$1, %eax
	movl	%eax, -28(%rbp)
	jmp	.LBB94_8
.LBB94_7:                               # %if.else12
	movl	-20(%rbp), %eax
	movslq	-16(%rbp), %rcx
	movzbl	-64(%rbp,%rcx), %ecx
	subl	%ecx, %eax
	shll	$5, %eax
	movl	-16(%rbp), %ecx
	shll	$1, %ecx
	addl	%ecx, %eax
	movl	%eax, -28(%rbp)
.LBB94_8:                               # %if.end19
	movl	-28(%rbp), %eax
	cltd
	movl	$2, %ecx
	idivl	%ecx
	movl	%eax, -24(%rbp)
	movl	$0, -12(%rbp)
.LBB94_9:                               # %for.cond
                                        # =>This Inner Loop Header: Depth=1
	xorl	%eax, %eax
	cmpl	$16, -12(%rbp)
	jge	.LBB94_11
# %bb.10:                               # %land.rhs
                                        #   in Loop: Header=BB94_9 Depth=1
	cmpl	$0, -24(%rbp)
	setne	%al
.LBB94_11:                              # %land.end
                                        #   in Loop: Header=BB94_9 Depth=1
	testb	$1, %al
	jne	.LBB94_12
	jmp	.LBB94_14
.LBB94_12:                              # %for.body
                                        #   in Loop: Header=BB94_9 Depth=1
	movl	-24(%rbp), %eax
	cltd
	movl	$2, %ecx
	idivl	%ecx
	movl	%eax, -24(%rbp)
# %bb.13:                               # %for.inc
                                        #   in Loop: Header=BB94_9 Depth=1
	movl	-12(%rbp), %eax
	addl	$1, %eax
	movl	%eax, -12(%rbp)
	jmp	.LBB94_9
.LBB94_14:                              # %for.end
	vmovsd	.LCPI94_0(%rip), %xmm0  # xmm0 = mem[0],zero
	movl	-12(%rbp), %eax
	shll	$1, %eax
	addl	$1, %eax
	movq	-48(%rbp), %rcx
	movl	%eax, (%rcx)
	movl	-28(%rbp), %ebx
	vcvtsi2sdl	-12(%rbp), %xmm0, %xmm1
	callq	pow
	vcvttsd2si	%xmm0, %eax
	subl	%eax, %ebx
	addl	-36(%rbp), %ebx
	movq	-72(%rbp), %rax
	movl	%ebx, (%rax)
.LBB94_15:                              # %return
	cmpl	$1242917715, -40(%rbp)  # imm = 0x4A156B53
	jne	.LBB94_17
.LBB94_16:
	addq	$104, %rsp
	popq	%rbx
	popq	%rbp
	.cfi_def_cfa %rsp, 8
	retq
.LBB94_17:                              # %func_exit
	.cfi_def_cfa %rbp, 16
	callq	detect_breach
	jmp	.LBB94_16
.Lfunc_end94:
	.size	levrun_linfo_inter.67, .Lfunc_end94-levrun_linfo_inter.67
	.cfi_endproc
                                        # -- End function
	.section	.rodata.cst8,"aM",@progbits,8
	.p2align	3               # -- Begin function levrun_linfo_inter.68
.LCPI95_0:
	.quad	4611686018427387904     # double 2
	.text
	.globl	levrun_linfo_inter.68
	.p2align	4, 0x90
	.type	levrun_linfo_inter.68,@function
levrun_linfo_inter.68:                  # @levrun_linfo_inter.68
	.cfi_startproc
# %bb.0:                                # %entry
	pushq	%rbp
	.cfi_def_cfa_offset 16
	.cfi_offset %rbp, -16
	movq	%rsp, %rbp
	.cfi_def_cfa_register %rbp
	pushq	%rbx
	subq	$104, %rsp
	.cfi_offset %rbx, -24
	movl	$330836069, -40(%rbp)   # imm = 0x13B82865
	movl	%edi, -32(%rbp)
	movl	%esi, -16(%rbp)
	movq	%rdx, -48(%rbp)
	movq	%rcx, -72(%rbp)
	movq	.L__const.levrun_linfo_inter.LEVRUN, %rax
	movq	%rax, -64(%rbp)
	movq	.L__const.levrun_linfo_inter.LEVRUN+8, %rax
	movq	%rax, -56(%rbp)
	leaq	-112(%rbp), %rdi
	movabsq	$.L__const.levrun_linfo_inter.NTAB, %rsi
	movl	$40, %edx
	callq	memcpy
	cmpl	$0, -32(%rbp)
	jne	.LBB95_2
# %bb.1:                                # %if.then
	movq	-48(%rbp), %rax
	movl	$1, (%rax)
	jmp	.LBB95_15
.LBB95_2:                               # %if.end
	cmpl	$0, -32(%rbp)
	jg	.LBB95_4
# %bb.3:                                # %if.then2
	movl	$1, -36(%rbp)
	jmp	.LBB95_5
.LBB95_4:                               # %if.else
	movl	$0, -36(%rbp)
.LBB95_5:                               # %if.end3
	movl	-32(%rbp), %edi
	callq	abs
	movl	%eax, -20(%rbp)
	movl	-20(%rbp), %eax
	movslq	-16(%rbp), %rcx
	movzbl	-64(%rbp,%rcx), %ecx
	cmpl	%ecx, %eax
	jg	.LBB95_7
# %bb.6:                                # %if.then6
	movl	-20(%rbp), %eax
	subl	$1, %eax
	cltq
	imulq	$10, %rax, %rax
	leaq	-112(%rbp), %rcx
	addq	%rax, %rcx
	movslq	-16(%rbp), %rax
	movzbl	(%rcx,%rax), %eax
	addl	$1, %eax
	movl	%eax, -28(%rbp)
	jmp	.LBB95_8
.LBB95_7:                               # %if.else12
	movl	-20(%rbp), %eax
	movslq	-16(%rbp), %rcx
	movzbl	-64(%rbp,%rcx), %ecx
	subl	%ecx, %eax
	shll	$5, %eax
	movl	-16(%rbp), %ecx
	shll	$1, %ecx
	addl	%ecx, %eax
	movl	%eax, -28(%rbp)
.LBB95_8:                               # %if.end19
	movl	-28(%rbp), %eax
	cltd
	movl	$2, %ecx
	idivl	%ecx
	movl	%eax, -24(%rbp)
	movl	$0, -12(%rbp)
.LBB95_9:                               # %for.cond
                                        # =>This Inner Loop Header: Depth=1
	xorl	%eax, %eax
	cmpl	$16, -12(%rbp)
	jge	.LBB95_11
# %bb.10:                               # %land.rhs
                                        #   in Loop: Header=BB95_9 Depth=1
	cmpl	$0, -24(%rbp)
	setne	%al
.LBB95_11:                              # %land.end
                                        #   in Loop: Header=BB95_9 Depth=1
	testb	$1, %al
	jne	.LBB95_12
	jmp	.LBB95_14
.LBB95_12:                              # %for.body
                                        #   in Loop: Header=BB95_9 Depth=1
	movl	-24(%rbp), %eax
	cltd
	movl	$2, %ecx
	idivl	%ecx
	movl	%eax, -24(%rbp)
# %bb.13:                               # %for.inc
                                        #   in Loop: Header=BB95_9 Depth=1
	movl	-12(%rbp), %eax
	addl	$1, %eax
	movl	%eax, -12(%rbp)
	jmp	.LBB95_9
.LBB95_14:                              # %for.end
	vmovsd	.LCPI95_0(%rip), %xmm0  # xmm0 = mem[0],zero
	movl	-12(%rbp), %eax
	shll	$1, %eax
	addl	$1, %eax
	movq	-48(%rbp), %rcx
	movl	%eax, (%rcx)
	movl	-28(%rbp), %ebx
	vcvtsi2sdl	-12(%rbp), %xmm0, %xmm1
	callq	pow
	vcvttsd2si	%xmm0, %eax
	subl	%eax, %ebx
	addl	-36(%rbp), %ebx
	movq	-72(%rbp), %rax
	movl	%ebx, (%rax)
.LBB95_15:                              # %return
	cmpl	$330836069, -40(%rbp)   # imm = 0x13B82865
	jne	.LBB95_17
.LBB95_16:
	addq	$104, %rsp
	popq	%rbx
	popq	%rbp
	.cfi_def_cfa %rsp, 8
	retq
.LBB95_17:                              # %func_exit
	.cfi_def_cfa %rbp, 16
	callq	detect_breach
	jmp	.LBB95_16
.Lfunc_end95:
	.size	levrun_linfo_inter.68, .Lfunc_end95-levrun_linfo_inter.68
	.cfi_endproc
                                        # -- End function
	.globl	writeSyntaxElement_Level_VLC1.69 # -- Begin function writeSyntaxElement_Level_VLC1.69
	.p2align	4, 0x90
	.type	writeSyntaxElement_Level_VLC1.69,@function
writeSyntaxElement_Level_VLC1.69:       # @writeSyntaxElement_Level_VLC1.69
	.cfi_startproc
# %bb.0:                                # %entry
	pushq	%rbp
	.cfi_def_cfa_offset 16
	.cfi_offset %rbp, -16
	movq	%rsp, %rbp
	.cfi_def_cfa_register %rbp
	pushq	%rbx
	subq	$40, %rsp
	.cfi_offset %rbx, -24
	movl	$594386207, -36(%rbp)   # imm = 0x236D9D1F
	movq	%rdi, -24(%rbp)
	movq	%rsi, -48(%rbp)
	movq	-24(%rbp), %rax
	movl	4(%rax), %eax
	movl	%eax, -32(%rbp)
	movl	-32(%rbp), %edi
	callq	abs
	xorl	%ecx, %ecx
	movl	%eax, -12(%rbp)
	movl	-32(%rbp), %eax
	cmpl	$0, %eax
	movl	$1, %eax
	cmovll	%eax, %ecx
	movl	%ecx, -28(%rbp)
	cmpl	$8, -12(%rbp)
	jge	.LBB96_2
# %bb.1:                                # %if.then
	movl	-12(%rbp), %eax
	shll	$1, %eax
	addl	-28(%rbp), %eax
	subl	$1, %eax
	movq	-24(%rbp), %rcx
	movl	%eax, 12(%rcx)
	movq	-24(%rbp), %rax
	movl	$1, 16(%rax)
	jmp	.LBB96_6
.LBB96_2:                               # %if.else
	cmpl	$16, -12(%rbp)
	jge	.LBB96_4
# %bb.3:                                # %if.then3
	movq	-24(%rbp), %rax
	movl	$19, 12(%rax)
	movl	-12(%rbp), %eax
	subl	$8, %eax
	shll	$1, %eax
	orl	$16, %eax
	orl	-28(%rbp), %eax
	movq	-24(%rbp), %rcx
	movl	%eax, 16(%rcx)
	jmp	.LBB96_5
.LBB96_4:                               # %if.else8
	movq	-24(%rbp), %rax
	movl	$28, 12(%rax)
	movl	-12(%rbp), %eax
	subl	$16, %eax
	shll	$1, %eax
	orl	$4096, %eax             # imm = 0x1000
	orl	-28(%rbp), %eax
	movq	-24(%rbp), %rcx
	movl	%eax, 16(%rcx)
.LBB96_5:                               # %if.end
	jmp	.LBB96_6
.LBB96_6:                               # %if.end15
	movq	-24(%rbp), %rdi
	callq	symbol2vlc
	movq	-24(%rbp), %rdi
	movq	-48(%rbp), %rax
	movq	(%rax), %rsi
	callq	writeUVLC2buffer
	movq	-24(%rbp), %rax
	movl	12(%rax), %ebx
	cmpl	$594386207, -36(%rbp)   # imm = 0x236D9D1F
	jne	.LBB96_8
.LBB96_7:
	movl	%ebx, %eax
	addq	$40, %rsp
	popq	%rbx
	popq	%rbp
	.cfi_def_cfa %rsp, 8
	retq
.LBB96_8:                               # %func_exit
	.cfi_def_cfa %rbp, 16
	callq	detect_breach
	jmp	.LBB96_7
.Lfunc_end96:
	.size	writeSyntaxElement_Level_VLC1.69, .Lfunc_end96-writeSyntaxElement_Level_VLC1.69
	.cfi_endproc
                                        # -- End function
	.section	.rodata.cst8,"aM",@progbits,8
	.p2align	3               # -- Begin function levrun_linfo_c2x2.70
.LCPI97_0:
	.quad	4611686018427387904     # double 2
	.text
	.globl	levrun_linfo_c2x2.70
	.p2align	4, 0x90
	.type	levrun_linfo_c2x2.70,@function
levrun_linfo_c2x2.70:                   # @levrun_linfo_c2x2.70
	.cfi_startproc
# %bb.0:                                # %entry
	pushq	%rbp
	.cfi_def_cfa_offset 16
	.cfi_offset %rbp, -16
	movq	%rsp, %rbp
	.cfi_def_cfa_register %rbp
	pushq	%rbx
	subq	$88, %rsp
	.cfi_offset %rbx, -24
	movl	$1126209116, -40(%rbp)  # imm = 0x4320965C
	movl	%edi, -28(%rbp)
	movl	%esi, -16(%rbp)
	movq	%rdx, -48(%rbp)
	movq	%rcx, -72(%rbp)
	movq	.L__const.levrun_linfo_c2x2.NTAB, %rax
	movq	%rax, -96(%rbp)
	movq	.L__const.levrun_linfo_c2x2.NTAB+8, %rax
	movq	%rax, -88(%rbp)
	movq	.L__const.levrun_linfo_c2x2.LEVRUN, %rax
	movq	%rax, -64(%rbp)
	movq	.L__const.levrun_linfo_c2x2.LEVRUN+8, %rax
	movq	%rax, -56(%rbp)
	cmpl	$0, -28(%rbp)
	jne	.LBB97_2
# %bb.1:                                # %if.then
	movq	-48(%rbp), %rax
	movl	$1, (%rax)
	jmp	.LBB97_14
.LBB97_2:                               # %if.end
	movl	$0, -36(%rbp)
	cmpl	$0, -28(%rbp)
	jg	.LBB97_4
# %bb.3:                                # %if.then2
	movl	$1, -36(%rbp)
.LBB97_4:                               # %if.end3
	movl	-28(%rbp), %edi
	callq	abs
	movl	%eax, -24(%rbp)
	movl	-24(%rbp), %eax
	movslq	-16(%rbp), %rcx
	cmpl	-64(%rbp,%rcx,4), %eax
	jg	.LBB97_6
# %bb.5:                                # %if.then5
	movl	-24(%rbp), %eax
	subl	$1, %eax
	cltq
	shlq	$3, %rax
	leaq	-96(%rbp), %rcx
	addq	%rax, %rcx
	movslq	-16(%rbp), %rax
	movl	(%rcx,%rax,4), %eax
	addl	$1, %eax
	movl	%eax, -32(%rbp)
	jmp	.LBB97_7
.LBB97_6:                               # %if.else
	movl	-24(%rbp), %eax
	movslq	-16(%rbp), %rcx
	subl	-64(%rbp,%rcx,4), %eax
	shll	$3, %eax
	movl	-16(%rbp), %ecx
	shll	$1, %ecx
	addl	%ecx, %eax
	movl	%eax, -32(%rbp)
.LBB97_7:                               # %if.end15
	movl	-32(%rbp), %eax
	cltd
	movl	$2, %ecx
	idivl	%ecx
	movl	%eax, -20(%rbp)
	movl	$0, -12(%rbp)
.LBB97_8:                               # %for.cond
                                        # =>This Inner Loop Header: Depth=1
	xorl	%eax, %eax
	cmpl	$16, -12(%rbp)
	jge	.LBB97_10
# %bb.9:                                # %land.rhs
                                        #   in Loop: Header=BB97_8 Depth=1
	cmpl	$0, -20(%rbp)
	setne	%al
.LBB97_10:                              # %land.end
                                        #   in Loop: Header=BB97_8 Depth=1
	testb	$1, %al
	jne	.LBB97_11
	jmp	.LBB97_13
.LBB97_11:                              # %for.body
                                        #   in Loop: Header=BB97_8 Depth=1
	movl	-20(%rbp), %eax
	cltd
	movl	$2, %ecx
	idivl	%ecx
	movl	%eax, -20(%rbp)
# %bb.12:                               # %for.inc
                                        #   in Loop: Header=BB97_8 Depth=1
	movl	-12(%rbp), %eax
	addl	$1, %eax
	movl	%eax, -12(%rbp)
	jmp	.LBB97_8
.LBB97_13:                              # %for.end
	vmovsd	.LCPI97_0(%rip), %xmm0  # xmm0 = mem[0],zero
	movl	-12(%rbp), %eax
	shll	$1, %eax
	addl	$1, %eax
	movq	-48(%rbp), %rcx
	movl	%eax, (%rcx)
	movl	-32(%rbp), %ebx
	vcvtsi2sdl	-12(%rbp), %xmm0, %xmm1
	callq	pow
	vcvttsd2si	%xmm0, %eax
	subl	%eax, %ebx
	addl	-36(%rbp), %ebx
	movq	-72(%rbp), %rax
	movl	%ebx, (%rax)
.LBB97_14:                              # %return
	cmpl	$1126209116, -40(%rbp)  # imm = 0x4320965C
	jne	.LBB97_16
.LBB97_15:
	addq	$88, %rsp
	popq	%rbx
	popq	%rbp
	.cfi_def_cfa %rsp, 8
	retq
.LBB97_16:                              # %func_exit
	.cfi_def_cfa %rbp, 16
	callq	detect_breach
	jmp	.LBB97_15
.Lfunc_end97:
	.size	levrun_linfo_c2x2.70, .Lfunc_end97-levrun_linfo_c2x2.70
	.cfi_endproc
                                        # -- End function
	.globl	writeSyntaxElement_TotalZeros.71 # -- Begin function writeSyntaxElement_TotalZeros.71
	.p2align	4, 0x90
	.type	writeSyntaxElement_TotalZeros.71,@function
writeSyntaxElement_TotalZeros.71:       # @writeSyntaxElement_TotalZeros.71
	.cfi_startproc
# %bb.0:                                # %entry
	pushq	%rbp
	.cfi_def_cfa_offset 16
	.cfi_offset %rbp, -16
	movq	%rsp, %rbp
	.cfi_def_cfa_register %rbp
	pushq	%rbx
	subq	$24, %rsp
	.cfi_offset %rbx, -24
	movabsq	$writeSyntaxElement_TotalZeros.codtab, %rax
	movabsq	$writeSyntaxElement_TotalZeros.lentab, %rcx
	movl	$516514614, -24(%rbp)   # imm = 0x1EC96336
	movq	%rdi, -16(%rbp)
	movq	%rsi, -32(%rbp)
	movq	-16(%rbp), %rdx
	movl	12(%rdx), %edx
	movl	%edx, -20(%rbp)
	movslq	-20(%rbp), %rdx
	shlq	$6, %rdx
	addq	%rdx, %rcx
	movq	-16(%rbp), %rdx
	movslq	4(%rdx), %rdx
	movl	(%rcx,%rdx,4), %ecx
	movq	-16(%rbp), %rdx
	movl	%ecx, 12(%rdx)
	movslq	-20(%rbp), %rcx
	shlq	$6, %rcx
	addq	%rcx, %rax
	movq	-16(%rbp), %rcx
	movslq	4(%rcx), %rcx
	movl	(%rax,%rcx,4), %eax
	movq	-16(%rbp), %rcx
	movl	%eax, 16(%rcx)
	movq	-16(%rbp), %rax
	cmpl	$0, 12(%rax)
	jne	.LBB98_2
# %bb.1:                                # %if.then
	movq	-16(%rbp), %rax
	movl	4(%rax), %esi
	movabsq	$.L.str.2, %rdi
	movb	$0, %al
	callq	printf
	movl	$4294967295, %edi       # imm = 0xFFFFFFFF
	callq	exit
.LBB98_2:                               # %if.end
	movq	-16(%rbp), %rdi
	callq	symbol2vlc
	movq	-16(%rbp), %rdi
	movq	-32(%rbp), %rax
	movq	(%rax), %rsi
	callq	writeUVLC2buffer
	movq	-16(%rbp), %rax
	movl	12(%rax), %ebx
	cmpl	$516514614, -24(%rbp)   # imm = 0x1EC96336
	jne	.LBB98_4
.LBB98_3:
	movl	%ebx, %eax
	addq	$24, %rsp
	popq	%rbx
	popq	%rbp
	.cfi_def_cfa %rsp, 8
	retq
.LBB98_4:                               # %func_exit
	.cfi_def_cfa %rbp, 16
	callq	detect_breach
	jmp	.LBB98_3
.Lfunc_end98:
	.size	writeSyntaxElement_TotalZeros.71, .Lfunc_end98-writeSyntaxElement_TotalZeros.71
	.cfi_endproc
                                        # -- End function
	.section	.rodata.cst8,"aM",@progbits,8
	.p2align	3               # -- Begin function levrun_linfo_inter.72
.LCPI99_0:
	.quad	4611686018427387904     # double 2
	.text
	.globl	levrun_linfo_inter.72
	.p2align	4, 0x90
	.type	levrun_linfo_inter.72,@function
levrun_linfo_inter.72:                  # @levrun_linfo_inter.72
	.cfi_startproc
# %bb.0:                                # %entry
	pushq	%rbp
	.cfi_def_cfa_offset 16
	.cfi_offset %rbp, -16
	movq	%rsp, %rbp
	.cfi_def_cfa_register %rbp
	pushq	%rbx
	subq	$104, %rsp
	.cfi_offset %rbx, -24
	movl	$2026312520, -40(%rbp)  # imm = 0x78C71348
	movl	%edi, -28(%rbp)
	movl	%esi, -16(%rbp)
	movq	%rdx, -48(%rbp)
	movq	%rcx, -72(%rbp)
	movq	.L__const.levrun_linfo_inter.LEVRUN, %rax
	movq	%rax, -64(%rbp)
	movq	.L__const.levrun_linfo_inter.LEVRUN+8, %rax
	movq	%rax, -56(%rbp)
	leaq	-112(%rbp), %rdi
	movabsq	$.L__const.levrun_linfo_inter.NTAB, %rsi
	movl	$40, %edx
	callq	memcpy
	cmpl	$0, -28(%rbp)
	jne	.LBB99_2
# %bb.1:                                # %if.then
	movq	-48(%rbp), %rax
	movl	$1, (%rax)
	jmp	.LBB99_15
.LBB99_2:                               # %if.end
	cmpl	$0, -28(%rbp)
	jg	.LBB99_4
# %bb.3:                                # %if.then2
	movl	$1, -36(%rbp)
	jmp	.LBB99_5
.LBB99_4:                               # %if.else
	movl	$0, -36(%rbp)
.LBB99_5:                               # %if.end3
	movl	-28(%rbp), %edi
	callq	abs
	movl	%eax, -20(%rbp)
	movl	-20(%rbp), %eax
	movslq	-16(%rbp), %rcx
	movzbl	-64(%rbp,%rcx), %ecx
	cmpl	%ecx, %eax
	jg	.LBB99_7
# %bb.6:                                # %if.then6
	movl	-20(%rbp), %eax
	subl	$1, %eax
	cltq
	imulq	$10, %rax, %rax
	leaq	-112(%rbp), %rcx
	addq	%rax, %rcx
	movslq	-16(%rbp), %rax
	movzbl	(%rcx,%rax), %eax
	addl	$1, %eax
	movl	%eax, -32(%rbp)
	jmp	.LBB99_8
.LBB99_7:                               # %if.else12
	movl	-20(%rbp), %eax
	movslq	-16(%rbp), %rcx
	movzbl	-64(%rbp,%rcx), %ecx
	subl	%ecx, %eax
	shll	$5, %eax
	movl	-16(%rbp), %ecx
	shll	$1, %ecx
	addl	%ecx, %eax
	movl	%eax, -32(%rbp)
.LBB99_8:                               # %if.end19
	movl	-32(%rbp), %eax
	cltd
	movl	$2, %ecx
	idivl	%ecx
	movl	%eax, -24(%rbp)
	movl	$0, -12(%rbp)
.LBB99_9:                               # %for.cond
                                        # =>This Inner Loop Header: Depth=1
	xorl	%eax, %eax
	cmpl	$16, -12(%rbp)
	jge	.LBB99_11
# %bb.10:                               # %land.rhs
                                        #   in Loop: Header=BB99_9 Depth=1
	cmpl	$0, -24(%rbp)
	setne	%al
.LBB99_11:                              # %land.end
                                        #   in Loop: Header=BB99_9 Depth=1
	testb	$1, %al
	jne	.LBB99_12
	jmp	.LBB99_14
.LBB99_12:                              # %for.body
                                        #   in Loop: Header=BB99_9 Depth=1
	movl	-24(%rbp), %eax
	cltd
	movl	$2, %ecx
	idivl	%ecx
	movl	%eax, -24(%rbp)
# %bb.13:                               # %for.inc
                                        #   in Loop: Header=BB99_9 Depth=1
	movl	-12(%rbp), %eax
	addl	$1, %eax
	movl	%eax, -12(%rbp)
	jmp	.LBB99_9
.LBB99_14:                              # %for.end
	vmovsd	.LCPI99_0(%rip), %xmm0  # xmm0 = mem[0],zero
	movl	-12(%rbp), %eax
	shll	$1, %eax
	addl	$1, %eax
	movq	-48(%rbp), %rcx
	movl	%eax, (%rcx)
	movl	-32(%rbp), %ebx
	vcvtsi2sdl	-12(%rbp), %xmm0, %xmm1
	callq	pow
	vcvttsd2si	%xmm0, %eax
	subl	%eax, %ebx
	addl	-36(%rbp), %ebx
	movq	-72(%rbp), %rax
	movl	%ebx, (%rax)
.LBB99_15:                              # %return
	cmpl	$2026312520, -40(%rbp)  # imm = 0x78C71348
	jne	.LBB99_17
.LBB99_16:
	addq	$104, %rsp
	popq	%rbx
	popq	%rbp
	.cfi_def_cfa %rsp, 8
	retq
.LBB99_17:                              # %func_exit
	.cfi_def_cfa %rbp, 16
	callq	detect_breach
	jmp	.LBB99_16
.Lfunc_end99:
	.size	levrun_linfo_inter.72, .Lfunc_end99-levrun_linfo_inter.72
	.cfi_endproc
                                        # -- End function
	.globl	ue_v.73                 # -- Begin function ue_v.73
	.p2align	4, 0x90
	.type	ue_v.73,@function
ue_v.73:                                # @ue_v.73
	.cfi_startproc
# %bb.0:                                # %entry
	pushq	%rbp
	.cfi_def_cfa_offset 16
	.cfi_offset %rbp, -16
	movq	%rsp, %rbp
	.cfi_def_cfa_register %rbp
	pushq	%rbx
	subq	$88, %rsp
	.cfi_offset %rbx, -24
	movl	$542027822, -24(%rbp)   # imm = 0x204EB02E
	movq	%rdi, -40(%rbp)
	movl	%esi, -20(%rbp)
	movq	%rdx, -32(%rbp)
	leaq	-88(%rbp), %rax
	movq	%rax, -16(%rbp)
	movq	-16(%rbp), %rax
	movl	$0, (%rax)
	movq	-16(%rbp), %rax
	movabsq	$ue_linfo, %rcx
	movq	%rcx, 32(%rax)
	movl	-20(%rbp), %eax
	movq	-16(%rbp), %rcx
	movl	%eax, 4(%rcx)
	movq	-16(%rbp), %rax
	movl	$0, 8(%rax)
	movq	-16(%rbp), %rdi
	movq	-32(%rbp), %rsi
	callq	writeSyntaxElement_UVLC
	movl	%eax, %ebx
	cmpl	$542027822, -24(%rbp)   # imm = 0x204EB02E
	jne	.LBB100_2
.LBB100_1:
	movl	%ebx, %eax
	addq	$88, %rsp
	popq	%rbx
	popq	%rbp
	.cfi_def_cfa %rsp, 8
	retq
.LBB100_2:                              # %func_exit
	.cfi_def_cfa %rbp, 16
	callq	detect_breach
	jmp	.LBB100_1
.Lfunc_end100:
	.size	ue_v.73, .Lfunc_end100-ue_v.73
	.cfi_endproc
                                        # -- End function
	.globl	cbp_linfo_intra.74      # -- Begin function cbp_linfo_intra.74
	.p2align	4, 0x90
	.type	cbp_linfo_intra.74,@function
cbp_linfo_intra.74:                     # @cbp_linfo_intra.74
	.cfi_startproc
# %bb.0:                                # %entry
	pushq	%rbp
	.cfi_def_cfa_offset 16
	.cfi_offset %rbp, -16
	movq	%rsp, %rbp
	.cfi_def_cfa_register %rbp
	subq	$32, %rsp
	xorl	%eax, %eax
	movl	$1925007570, -12(%rbp)  # imm = 0x72BD48D2
	movl	%edi, -8(%rbp)
	movl	%esi, -4(%rbp)
	movq	%rdx, -24(%rbp)
	movq	%rcx, -32(%rbp)
	movq	img, %rcx
	movl	72700(%rcx), %ecx
	cmpl	$0, %ecx
	movl	$1, %ecx
	cmovnel	%ecx, %eax
	cltq
	imulq	$96, %rax, %rax
	movabsq	$NCBP, %rcx
	addq	%rax, %rcx
	movslq	-8(%rbp), %rax
	movzbl	(%rcx,%rax,2), %edi
	movl	-4(%rbp), %esi
	movq	-24(%rbp), %rdx
	movq	-32(%rbp), %rcx
	callq	ue_linfo
	cmpl	$1925007570, -12(%rbp)  # imm = 0x72BD48D2
	jne	.LBB101_2
.LBB101_1:
	addq	$32, %rsp
	popq	%rbp
	.cfi_def_cfa %rsp, 8
	retq
.LBB101_2:                              # %func_exit
	.cfi_def_cfa %rbp, 16
	callq	detect_breach
	jmp	.LBB101_1
.Lfunc_end101:
	.size	cbp_linfo_intra.74, .Lfunc_end101-cbp_linfo_intra.74
	.cfi_endproc
                                        # -- End function
	.globl	writeSyntaxElement_NumCoeffTrailingOnes.75 # -- Begin function writeSyntaxElement_NumCoeffTrailingOnes.75
	.p2align	4, 0x90
	.type	writeSyntaxElement_NumCoeffTrailingOnes.75,@function
writeSyntaxElement_NumCoeffTrailingOnes.75: # @writeSyntaxElement_NumCoeffTrailingOnes.75
	.cfi_startproc
# %bb.0:                                # %entry
	pushq	%rbp
	.cfi_def_cfa_offset 16
	.cfi_offset %rbp, -16
	movq	%rsp, %rbp
	.cfi_def_cfa_register %rbp
	pushq	%rbx
	subq	$24, %rsp
	.cfi_offset %rbx, -24
	movl	$1736674603, -24(%rbp)  # imm = 0x67838D2B
	movq	%rdi, -16(%rbp)
	movq	%rsi, -32(%rbp)
	movq	-16(%rbp), %rax
	movl	12(%rax), %eax
	movl	%eax, -20(%rbp)
	cmpl	$3, -20(%rbp)
	jne	.LBB102_5
# %bb.1:                                # %if.then
	movq	-16(%rbp), %rax
	movl	$6, 12(%rax)
	movq	-16(%rbp), %rax
	cmpl	$0, 4(%rax)
	jle	.LBB102_3
# %bb.2:                                # %if.then3
	movq	-16(%rbp), %rax
	movl	4(%rax), %eax
	subl	$1, %eax
	shll	$2, %eax
	movq	-16(%rbp), %rcx
	orl	8(%rcx), %eax
	movq	-16(%rbp), %rcx
	movl	%eax, 16(%rcx)
	jmp	.LBB102_4
.LBB102_3:                              # %if.else
	movq	-16(%rbp), %rax
	movl	$3, 16(%rax)
.LBB102_4:                              # %if.end
	jmp	.LBB102_6
.LBB102_5:                              # %if.else6
	movslq	-20(%rbp), %rax
	imulq	$272, %rax, %rax        # imm = 0x110
	movabsq	$writeSyntaxElement_NumCoeffTrailingOnes.lentab, %rcx
	addq	%rax, %rcx
	movq	-16(%rbp), %rax
	movslq	8(%rax), %rax
	imulq	$68, %rax, %rax
	addq	%rax, %rcx
	movq	-16(%rbp), %rax
	movslq	4(%rax), %rax
	movl	(%rcx,%rax,4), %eax
	movq	-16(%rbp), %rcx
	movl	%eax, 12(%rcx)
	movslq	-20(%rbp), %rax
	imulq	$272, %rax, %rax        # imm = 0x110
	movabsq	$writeSyntaxElement_NumCoeffTrailingOnes.codtab, %rcx
	addq	%rax, %rcx
	movq	-16(%rbp), %rax
	movslq	8(%rax), %rax
	imulq	$68, %rax, %rax
	addq	%rax, %rcx
	movq	-16(%rbp), %rax
	movslq	4(%rax), %rax
	movl	(%rcx,%rax,4), %eax
	movq	-16(%rbp), %rcx
	movl	%eax, 16(%rcx)
.LBB102_6:                              # %if.end23
	movq	-16(%rbp), %rax
	cmpl	$0, 12(%rax)
	jne	.LBB102_8
# %bb.7:                                # %if.then26
	movl	-20(%rbp), %esi
	movq	-16(%rbp), %rax
	movl	4(%rax), %edx
	movq	-16(%rbp), %rax
	movl	8(%rax), %ecx
	movabsq	$.L.str, %rdi
	movb	$0, %al
	callq	printf
	movl	$4294967295, %edi       # imm = 0xFFFFFFFF
	callq	exit
.LBB102_8:                              # %if.end29
	movq	-16(%rbp), %rdi
	callq	symbol2vlc
	movq	-16(%rbp), %rdi
	movq	-32(%rbp), %rax
	movq	(%rax), %rsi
	callq	writeUVLC2buffer
	movq	-16(%rbp), %rax
	movl	12(%rax), %ebx
	cmpl	$1736674603, -24(%rbp)  # imm = 0x67838D2B
	jne	.LBB102_10
.LBB102_9:
	movl	%ebx, %eax
	addq	$24, %rsp
	popq	%rbx
	popq	%rbp
	.cfi_def_cfa %rsp, 8
	retq
.LBB102_10:                             # %func_exit
	.cfi_def_cfa %rbp, 16
	callq	detect_breach
	jmp	.LBB102_9
.Lfunc_end102:
	.size	writeSyntaxElement_NumCoeffTrailingOnes.75, .Lfunc_end102-writeSyntaxElement_NumCoeffTrailingOnes.75
	.cfi_endproc
                                        # -- End function
	.globl	writeSyntaxElement_Intra4x4PredictionMode.76 # -- Begin function writeSyntaxElement_Intra4x4PredictionMode.76
	.p2align	4, 0x90
	.type	writeSyntaxElement_Intra4x4PredictionMode.76,@function
writeSyntaxElement_Intra4x4PredictionMode.76: # @writeSyntaxElement_Intra4x4PredictionMode.76
	.cfi_startproc
# %bb.0:                                # %entry
	pushq	%rbp
	.cfi_def_cfa_offset 16
	.cfi_offset %rbp, -16
	movq	%rsp, %rbp
	.cfi_def_cfa_register %rbp
	pushq	%rbx
	subq	$24, %rsp
	.cfi_offset %rbx, -24
	movl	$2087010475, -20(%rbp)  # imm = 0x7C6540AB
	movq	%rdi, -16(%rbp)
	movq	%rsi, -32(%rbp)
	movq	-16(%rbp), %rax
	cmpl	$-1, 4(%rax)
	jne	.LBB103_2
# %bb.1:                                # %if.then
	movq	-16(%rbp), %rax
	movl	$1, 12(%rax)
	movq	-16(%rbp), %rax
	movl	$1, 16(%rax)
	jmp	.LBB103_3
.LBB103_2:                              # %if.else
	movq	-16(%rbp), %rax
	movl	$4, 12(%rax)
	movq	-16(%rbp), %rax
	movl	4(%rax), %eax
	movq	-16(%rbp), %rcx
	movl	%eax, 16(%rcx)
.LBB103_3:                              # %if.end
	movq	-16(%rbp), %rax
	movl	16(%rax), %eax
	movq	-16(%rbp), %rcx
	movl	%eax, 20(%rcx)
	movq	-16(%rbp), %rdi
	movq	-32(%rbp), %rax
	movq	(%rax), %rsi
	callq	writeUVLC2buffer
	movq	-16(%rbp), %rax
	cmpl	$0, (%rax)
	je	.LBB103_5
# %bb.4:                                # %if.then6
	movq	-32(%rbp), %rax
	movq	(%rax), %rax
	movl	$1, 40(%rax)
.LBB103_5:                              # %if.end8
	movq	-16(%rbp), %rax
	movl	12(%rax), %ebx
	cmpl	$2087010475, -20(%rbp)  # imm = 0x7C6540AB
	jne	.LBB103_7
.LBB103_6:
	movl	%ebx, %eax
	addq	$24, %rsp
	popq	%rbx
	popq	%rbp
	.cfi_def_cfa %rsp, 8
	retq
.LBB103_7:                              # %func_exit
	.cfi_def_cfa %rbp, 16
	callq	detect_breach
	jmp	.LBB103_6
.Lfunc_end103:
	.size	writeSyntaxElement_Intra4x4PredictionMode.76, .Lfunc_end103-writeSyntaxElement_Intra4x4PredictionMode.76
	.cfi_endproc
                                        # -- End function
	.globl	writeSyntaxElement_Level_VLCN.77 # -- Begin function writeSyntaxElement_Level_VLCN.77
	.p2align	4, 0x90
	.type	writeSyntaxElement_Level_VLCN.77,@function
writeSyntaxElement_Level_VLCN.77:       # @writeSyntaxElement_Level_VLCN.77
	.cfi_startproc
# %bb.0:                                # %entry
	pushq	%rbp
	.cfi_def_cfa_offset 16
	.cfi_offset %rbp, -16
	movq	%rsp, %rbp
	.cfi_def_cfa_register %rbp
	pushq	%rbx
	subq	$72, %rsp
	.cfi_offset %rbx, -24
	movl	$881968447, -60(%rbp)   # imm = 0x3491C53F
	movq	%rdi, -24(%rbp)
	movl	%esi, -40(%rbp)
	movq	%rdx, -72(%rbp)
	movq	-24(%rbp), %rax
	movl	4(%rax), %eax
	movl	%eax, -28(%rbp)
	movl	-28(%rbp), %edi
	callq	abs
	xorl	%ecx, %ecx
	movl	%eax, -12(%rbp)
	movl	-28(%rbp), %eax
	cmpl	$0, %eax
	movl	$1, %eax
	cmovll	%eax, %ecx
	movl	%ecx, -36(%rbp)
	movl	-40(%rbp), %eax
	subl	$1, %eax
	movl	%eax, -16(%rbp)
	movl	-16(%rbp), %ecx
                                        # kill: def $cl killed $ecx
	movl	$15, %eax
	shll	%cl, %eax
	addl	$1, %eax
	movl	%eax, -48(%rbp)
	movl	-12(%rbp), %eax
	subl	$1, %eax
	movl	-16(%rbp), %ecx
                                        # kill: def $cl killed $ecx
	sarl	%cl, %eax
	movl	%eax, -52(%rbp)
	movl	-16(%rbp), %ecx
                                        # kill: def $cl killed $ecx
	movl	$4294967295, %eax       # imm = 0xFFFFFFFF
	shll	%cl, %eax
	xorl	$-1, %eax
	movl	%eax, -64(%rbp)
	movl	-12(%rbp), %eax
	subl	$1, %eax
	andl	-64(%rbp), %eax
	movl	%eax, -56(%rbp)
	movl	-12(%rbp), %eax
	cmpl	-48(%rbp), %eax
	jge	.LBB104_2
# %bb.1:                                # %if.then
	movl	-52(%rbp), %eax
	addl	-40(%rbp), %eax
	addl	$1, %eax
	movl	%eax, -32(%rbp)
	movl	-16(%rbp), %ecx
	addl	$1, %ecx
                                        # kill: def $cl killed $ecx
	movl	$1, %eax
	shll	%cl, %eax
	movl	-56(%rbp), %ecx
	shll	$1, %ecx
	orl	%ecx, %eax
	orl	-36(%rbp), %eax
	movl	%eax, -44(%rbp)
	jmp	.LBB104_3
.LBB104_2:                              # %if.else
	movl	$28, -32(%rbp)
	movl	-12(%rbp), %eax
	subl	-48(%rbp), %eax
	shll	$1, %eax
	orl	$4096, %eax             # imm = 0x1000
	orl	-36(%rbp), %eax
	movl	%eax, -44(%rbp)
.LBB104_3:                              # %if.end
	movl	-32(%rbp), %eax
	movq	-24(%rbp), %rcx
	movl	%eax, 12(%rcx)
	movl	-44(%rbp), %eax
	movq	-24(%rbp), %rcx
	movl	%eax, 16(%rcx)
	movq	-24(%rbp), %rdi
	callq	symbol2vlc
	movq	-24(%rbp), %rdi
	movq	-72(%rbp), %rax
	movq	(%rax), %rsi
	callq	writeUVLC2buffer
	movq	-24(%rbp), %rax
	movl	12(%rax), %ebx
	cmpl	$881968447, -60(%rbp)   # imm = 0x3491C53F
	jne	.LBB104_5
.LBB104_4:
	movl	%ebx, %eax
	addq	$72, %rsp
	popq	%rbx
	popq	%rbp
	.cfi_def_cfa %rsp, 8
	retq
.LBB104_5:                              # %func_exit
	.cfi_def_cfa %rbp, 16
	callq	detect_breach
	jmp	.LBB104_4
.Lfunc_end104:
	.size	writeSyntaxElement_Level_VLCN.77, .Lfunc_end104-writeSyntaxElement_Level_VLCN.77
	.cfi_endproc
                                        # -- End function
	.globl	ue_v.78                 # -- Begin function ue_v.78
	.p2align	4, 0x90
	.type	ue_v.78,@function
ue_v.78:                                # @ue_v.78
	.cfi_startproc
# %bb.0:                                # %entry
	pushq	%rbp
	.cfi_def_cfa_offset 16
	.cfi_offset %rbp, -16
	movq	%rsp, %rbp
	.cfi_def_cfa_register %rbp
	pushq	%rbx
	subq	$88, %rsp
	.cfi_offset %rbx, -24
	movl	$959666455, -24(%rbp)   # imm = 0x39335917
	movq	%rdi, -40(%rbp)
	movl	%esi, -20(%rbp)
	movq	%rdx, -32(%rbp)
	leaq	-88(%rbp), %rax
	movq	%rax, -16(%rbp)
	movq	-16(%rbp), %rax
	movl	$0, (%rax)
	movq	-16(%rbp), %rax
	movabsq	$ue_linfo, %rcx
	movq	%rcx, 32(%rax)
	movl	-20(%rbp), %eax
	movq	-16(%rbp), %rcx
	movl	%eax, 4(%rcx)
	movq	-16(%rbp), %rax
	movl	$0, 8(%rax)
	movq	-16(%rbp), %rdi
	movq	-32(%rbp), %rsi
	callq	writeSyntaxElement_UVLC
	movl	%eax, %ebx
	cmpl	$959666455, -24(%rbp)   # imm = 0x39335917
	jne	.LBB105_2
.LBB105_1:
	movl	%ebx, %eax
	addq	$88, %rsp
	popq	%rbx
	popq	%rbp
	.cfi_def_cfa %rsp, 8
	retq
.LBB105_2:                              # %func_exit
	.cfi_def_cfa %rbp, 16
	callq	detect_breach
	jmp	.LBB105_1
.Lfunc_end105:
	.size	ue_v.78, .Lfunc_end105-ue_v.78
	.cfi_endproc
                                        # -- End function
	.section	.rodata.cst8,"aM",@progbits,8
	.p2align	3               # -- Begin function levrun_linfo_inter.79
.LCPI106_0:
	.quad	4611686018427387904     # double 2
	.text
	.globl	levrun_linfo_inter.79
	.p2align	4, 0x90
	.type	levrun_linfo_inter.79,@function
levrun_linfo_inter.79:                  # @levrun_linfo_inter.79
	.cfi_startproc
# %bb.0:                                # %entry
	pushq	%rbp
	.cfi_def_cfa_offset 16
	.cfi_offset %rbp, -16
	movq	%rsp, %rbp
	.cfi_def_cfa_register %rbp
	pushq	%rbx
	subq	$104, %rsp
	.cfi_offset %rbx, -24
	movl	$1324753662, -40(%rbp)  # imm = 0x4EF622FE
	movl	%edi, -24(%rbp)
	movl	%esi, -16(%rbp)
	movq	%rdx, -48(%rbp)
	movq	%rcx, -72(%rbp)
	movq	.L__const.levrun_linfo_inter.LEVRUN, %rax
	movq	%rax, -64(%rbp)
	movq	.L__const.levrun_linfo_inter.LEVRUN+8, %rax
	movq	%rax, -56(%rbp)
	leaq	-112(%rbp), %rdi
	movabsq	$.L__const.levrun_linfo_inter.NTAB, %rsi
	movl	$40, %edx
	callq	memcpy
	cmpl	$0, -24(%rbp)
	jne	.LBB106_2
# %bb.1:                                # %if.then
	movq	-48(%rbp), %rax
	movl	$1, (%rax)
	jmp	.LBB106_15
.LBB106_2:                              # %if.end
	cmpl	$0, -24(%rbp)
	jg	.LBB106_4
# %bb.3:                                # %if.then2
	movl	$1, -36(%rbp)
	jmp	.LBB106_5
.LBB106_4:                              # %if.else
	movl	$0, -36(%rbp)
.LBB106_5:                              # %if.end3
	movl	-24(%rbp), %edi
	callq	abs
	movl	%eax, -20(%rbp)
	movl	-20(%rbp), %eax
	movslq	-16(%rbp), %rcx
	movzbl	-64(%rbp,%rcx), %ecx
	cmpl	%ecx, %eax
	jg	.LBB106_7
# %bb.6:                                # %if.then6
	movl	-20(%rbp), %eax
	subl	$1, %eax
	cltq
	imulq	$10, %rax, %rax
	leaq	-112(%rbp), %rcx
	addq	%rax, %rcx
	movslq	-16(%rbp), %rax
	movzbl	(%rcx,%rax), %eax
	addl	$1, %eax
	movl	%eax, -28(%rbp)
	jmp	.LBB106_8
.LBB106_7:                              # %if.else12
	movl	-20(%rbp), %eax
	movslq	-16(%rbp), %rcx
	movzbl	-64(%rbp,%rcx), %ecx
	subl	%ecx, %eax
	shll	$5, %eax
	movl	-16(%rbp), %ecx
	shll	$1, %ecx
	addl	%ecx, %eax
	movl	%eax, -28(%rbp)
.LBB106_8:                              # %if.end19
	movl	-28(%rbp), %eax
	cltd
	movl	$2, %ecx
	idivl	%ecx
	movl	%eax, -32(%rbp)
	movl	$0, -12(%rbp)
.LBB106_9:                              # %for.cond
                                        # =>This Inner Loop Header: Depth=1
	xorl	%eax, %eax
	cmpl	$16, -12(%rbp)
	jge	.LBB106_11
# %bb.10:                               # %land.rhs
                                        #   in Loop: Header=BB106_9 Depth=1
	cmpl	$0, -32(%rbp)
	setne	%al
.LBB106_11:                             # %land.end
                                        #   in Loop: Header=BB106_9 Depth=1
	testb	$1, %al
	jne	.LBB106_12
	jmp	.LBB106_14
.LBB106_12:                             # %for.body
                                        #   in Loop: Header=BB106_9 Depth=1
	movl	-32(%rbp), %eax
	cltd
	movl	$2, %ecx
	idivl	%ecx
	movl	%eax, -32(%rbp)
# %bb.13:                               # %for.inc
                                        #   in Loop: Header=BB106_9 Depth=1
	movl	-12(%rbp), %eax
	addl	$1, %eax
	movl	%eax, -12(%rbp)
	jmp	.LBB106_9
.LBB106_14:                             # %for.end
	vmovsd	.LCPI106_0(%rip), %xmm0 # xmm0 = mem[0],zero
	movl	-12(%rbp), %eax
	shll	$1, %eax
	addl	$1, %eax
	movq	-48(%rbp), %rcx
	movl	%eax, (%rcx)
	movl	-28(%rbp), %ebx
	vcvtsi2sdl	-12(%rbp), %xmm0, %xmm1
	callq	pow
	vcvttsd2si	%xmm0, %eax
	subl	%eax, %ebx
	addl	-36(%rbp), %ebx
	movq	-72(%rbp), %rax
	movl	%ebx, (%rax)
.LBB106_15:                             # %return
	cmpl	$1324753662, -40(%rbp)  # imm = 0x4EF622FE
	jne	.LBB106_17
.LBB106_16:
	addq	$104, %rsp
	popq	%rbx
	popq	%rbp
	.cfi_def_cfa %rsp, 8
	retq
.LBB106_17:                             # %func_exit
	.cfi_def_cfa %rbp, 16
	callq	detect_breach
	jmp	.LBB106_16
.Lfunc_end106:
	.size	levrun_linfo_inter.79, .Lfunc_end106-levrun_linfo_inter.79
	.cfi_endproc
                                        # -- End function
	.globl	writeUVLC2buffer.80     # -- Begin function writeUVLC2buffer.80
	.p2align	4, 0x90
	.type	writeUVLC2buffer.80,@function
writeUVLC2buffer.80:                    # @writeUVLC2buffer.80
	.cfi_startproc
# %bb.0:                                # %entry
	pushq	%rbp
	.cfi_def_cfa_offset 16
	.cfi_offset %rbp, -16
	movq	%rsp, %rbp
	.cfi_def_cfa_register %rbp
	subq	$32, %rsp
	movl	$445416833, -28(%rbp)   # imm = 0x1A8C8581
	movq	%rdi, -24(%rbp)
	movq	%rsi, -8(%rbp)
	movq	-24(%rbp), %rax
	movl	12(%rax), %ecx
	subl	$1, %ecx
                                        # kill: def $cl killed $ecx
	movl	$1, %eax
	shll	%cl, %eax
	movl	%eax, -12(%rbp)
	movl	$0, -16(%rbp)
.LBB107_1:                              # %for.cond
                                        # =>This Inner Loop Header: Depth=1
	movl	-16(%rbp), %eax
	movq	-24(%rbp), %rcx
	cmpl	12(%rcx), %eax
	jge	.LBB107_8
# %bb.2:                                # %for.body
                                        #   in Loop: Header=BB107_1 Depth=1
	movq	-8(%rbp), %rax
	movzbl	8(%rax), %ecx
	shll	$1, %ecx
	movb	%cl, 8(%rax)
	movq	-24(%rbp), %rax
	movl	20(%rax), %eax
	andl	-12(%rbp), %eax
	cmpl	$0, %eax
	je	.LBB107_4
# %bb.3:                                # %if.then
                                        #   in Loop: Header=BB107_1 Depth=1
	movq	-8(%rbp), %rax
	movzbl	8(%rax), %ecx
	orl	$1, %ecx
	movb	%cl, 8(%rax)
.LBB107_4:                              # %if.end
                                        #   in Loop: Header=BB107_1 Depth=1
	movq	-8(%rbp), %rax
	movl	4(%rax), %ecx
	addl	$-1, %ecx
	movl	%ecx, 4(%rax)
	movl	-12(%rbp), %eax
	shrl	$1, %eax
	movl	%eax, -12(%rbp)
	movq	-8(%rbp), %rax
	cmpl	$0, 4(%rax)
	jne	.LBB107_6
# %bb.5:                                # %if.then10
                                        #   in Loop: Header=BB107_1 Depth=1
	movq	-8(%rbp), %rax
	movl	$8, 4(%rax)
	movq	-8(%rbp), %rax
	movb	8(%rax), %al
	movq	-8(%rbp), %rcx
	movq	32(%rcx), %rcx
	movq	-8(%rbp), %rdx
	movl	(%rdx), %esi
	movl	%esi, %edi
	addl	$1, %edi
	movl	%edi, (%rdx)
	movslq	%esi, %rdx
	movb	%al, (%rcx,%rdx)
	movq	-8(%rbp), %rax
	movb	$0, 8(%rax)
.LBB107_6:                              # %if.end14
                                        #   in Loop: Header=BB107_1 Depth=1
	jmp	.LBB107_7
.LBB107_7:                              # %for.inc
                                        #   in Loop: Header=BB107_1 Depth=1
	movl	-16(%rbp), %eax
	addl	$1, %eax
	movl	%eax, -16(%rbp)
	jmp	.LBB107_1
.LBB107_8:                              # %for.end
	cmpl	$445416833, -28(%rbp)   # imm = 0x1A8C8581
	jne	.LBB107_10
.LBB107_9:
	addq	$32, %rsp
	popq	%rbp
	.cfi_def_cfa %rsp, 8
	retq
.LBB107_10:                             # %func_exit
	.cfi_def_cfa %rbp, 16
	callq	detect_breach
	jmp	.LBB107_9
.Lfunc_end107:
	.size	writeUVLC2buffer.80, .Lfunc_end107-writeUVLC2buffer.80
	.cfi_endproc
                                        # -- End function
	.globl	symbol2uvlc.81          # -- Begin function symbol2uvlc.81
	.p2align	4, 0x90
	.type	symbol2uvlc.81,@function
symbol2uvlc.81:                         # @symbol2uvlc.81
	.cfi_startproc
# %bb.0:                                # %entry
	pushq	%rbp
	.cfi_def_cfa_offset 16
	.cfi_offset %rbp, -16
	movq	%rsp, %rbp
	.cfi_def_cfa_register %rbp
	subq	$32, %rsp
	movl	$1590823103, -20(%rbp)  # imm = 0x5ED208BF
	movq	%rdi, -16(%rbp)
	movq	-16(%rbp), %rax
	movl	12(%rax), %eax
	cltd
	movl	$2, %ecx
	idivl	%ecx
	movl	%eax, -4(%rbp)
	movl	-4(%rbp), %ecx
                                        # kill: def $cl killed $ecx
	movl	$1, %eax
	movl	$1, %edx
	shll	%cl, %edx
	movq	-16(%rbp), %rcx
	movl	16(%rcx), %esi
	movl	-4(%rbp), %ecx
                                        # kill: def $cl killed $ecx
	shll	%cl, %eax
	subl	$1, %eax
	andl	%eax, %esi
	orl	%esi, %edx
	movq	-16(%rbp), %rax
	movl	%edx, 20(%rax)
	cmpl	$1590823103, -20(%rbp)  # imm = 0x5ED208BF
	jne	.LBB108_2
.LBB108_1:
	xorl	%eax, %eax
	addq	$32, %rsp
	popq	%rbp
	.cfi_def_cfa %rsp, 8
	retq
.LBB108_2:                              # %func_exit
	.cfi_def_cfa %rbp, 16
	callq	detect_breach
	jmp	.LBB108_1
.Lfunc_end108:
	.size	symbol2uvlc.81, .Lfunc_end108-symbol2uvlc.81
	.cfi_endproc
                                        # -- End function
	.globl	se_v.82                 # -- Begin function se_v.82
	.p2align	4, 0x90
	.type	se_v.82,@function
se_v.82:                                # @se_v.82
	.cfi_startproc
# %bb.0:                                # %entry
	pushq	%rbp
	.cfi_def_cfa_offset 16
	.cfi_offset %rbp, -16
	movq	%rsp, %rbp
	.cfi_def_cfa_register %rbp
	pushq	%rbx
	subq	$88, %rsp
	.cfi_offset %rbx, -24
	movl	$854262572, -24(%rbp)   # imm = 0x32EB032C
	movq	%rdi, -40(%rbp)
	movl	%esi, -20(%rbp)
	movq	%rdx, -32(%rbp)
	leaq	-88(%rbp), %rax
	movq	%rax, -16(%rbp)
	movq	-16(%rbp), %rax
	movl	$0, (%rax)
	movq	-16(%rbp), %rax
	movabsq	$se_linfo, %rcx
	movq	%rcx, 32(%rax)
	movl	-20(%rbp), %eax
	movq	-16(%rbp), %rcx
	movl	%eax, 4(%rcx)
	movq	-16(%rbp), %rax
	movl	$0, 8(%rax)
	movq	-16(%rbp), %rdi
	movq	-32(%rbp), %rsi
	callq	writeSyntaxElement_UVLC
	movl	%eax, %ebx
	cmpl	$854262572, -24(%rbp)   # imm = 0x32EB032C
	jne	.LBB109_2
.LBB109_1:
	movl	%ebx, %eax
	addq	$88, %rsp
	popq	%rbx
	popq	%rbp
	.cfi_def_cfa %rsp, 8
	retq
