	.text
	.file	"vlc.c"
	.globl	ue_v                    # -- Begin function ue_v
	.p2align	4, 0x90
	.type	ue_v,@function
ue_v:                                   # @ue_v
	.cfi_startproc
# %bb.0:                                # %rand_bb
	pushq	%rbp
	.cfi_def_cfa_offset 16
	.cfi_offset %rbp, -16
	movq	%rsp, %rbp
	.cfi_def_cfa_register %rbp
	pushq	%r15
	pushq	%r14
	pushq	%rbx
	pushq	%rax
	.cfi_offset %rbx, -40
	.cfi_offset %r14, -32
	.cfi_offset %r15, -24
	movq	%rdx, %r14
	movl	%esi, %r15d
	movq	%rdi, %rbx
	callq	get_rand
	cmpl	$0, %eax
	jne	.LBB0_9
# %bb.1:                                # %func_ue_v.78
	movq	%rbx, %rdi
	movl	%r15d, %esi
	movq	%r14, %rdx
	callq	ue_v.78
	addq	$8, %rsp
	popq	%rbx
	popq	%r14
	popq	%r15
	popq	%rbp
	.cfi_def_cfa %rsp, 8
	retq
.LBB0_2:                                # %func_ue_v.98
	.cfi_def_cfa %rbp, 16
	movq	%rbx, %rdi
	movl	%r15d, %esi
	movq	%r14, %rdx
	callq	ue_v.98
	addq	$8, %rsp
	popq	%rbx
	popq	%r14
	popq	%r15
	popq	%rbp
	.cfi_def_cfa %rsp, 8
	retq
.LBB0_3:                                # %func_ue_v.99
	.cfi_def_cfa %rbp, 16
	movq	%rbx, %rdi
	movl	%r15d, %esi
	movq	%r14, %rdx
	callq	ue_v.99
	addq	$8, %rsp
	popq	%rbx
	popq	%r14
	popq	%r15
	popq	%rbp
	.cfi_def_cfa %rsp, 8
	retq
.LBB0_4:                                # %func_ue_v.104
	.cfi_def_cfa %rbp, 16
	movq	%rbx, %rdi
	movl	%r15d, %esi
	movq	%r14, %rdx
	callq	ue_v.104
	addq	$8, %rsp
	popq	%rbx
	popq	%r14
	popq	%r15
	popq	%rbp
	.cfi_def_cfa %rsp, 8
	retq
.LBB0_5:                                # %func_ue_v.136
	.cfi_def_cfa %rbp, 16
	movq	%rbx, %rdi
	movl	%r15d, %esi
	movq	%r14, %rdx
	callq	ue_v.136
	addq	$8, %rsp
	popq	%rbx
	popq	%r14
	popq	%r15
	popq	%rbp
	.cfi_def_cfa %rsp, 8
	retq
.LBB0_6:                                # %func_ue_v.138
	.cfi_def_cfa %rbp, 16
	movq	%rbx, %rdi
	movl	%r15d, %esi
	movq	%r14, %rdx
	callq	ue_v.138
	addq	$8, %rsp
	popq	%rbx
	popq	%r14
	popq	%r15
	popq	%rbp
	.cfi_def_cfa %rsp, 8
	retq
.LBB0_7:                                # %func_ue_v.145
	.cfi_def_cfa %rbp, 16
	movq	%rbx, %rdi
	movl	%r15d, %esi
	movq	%r14, %rdx
	callq	ue_v.145
	addq	$8, %rsp
	popq	%rbx
	popq	%r14
	popq	%r15
	popq	%rbp
	.cfi_def_cfa %rsp, 8
	retq
.LBB0_8:                                # %func_ue_v.146
	.cfi_def_cfa %rbp, 16
	movq	%rbx, %rdi
	movl	%r15d, %esi
	movq	%r14, %rdx
	callq	ue_v.146
	addq	$8, %rsp
	popq	%rbx
	popq	%r14
	popq	%r15
	popq	%rbp
	.cfi_def_cfa %rsp, 8
	retq
.LBB0_9:                                # %ctrl0
	.cfi_def_cfa %rbp, 16
	cmpl	$1, %eax
	je	.LBB0_2
# %bb.10:                               # %ctrl1
	cmpl	$2, %eax
	je	.LBB0_3
# %bb.11:                               # %ctrl2
	cmpl	$3, %eax
	je	.LBB0_4
# %bb.12:                               # %ctrl3
	cmpl	$4, %eax
	je	.LBB0_5
# %bb.13:                               # %ctrl4
	cmpl	$5, %eax
	je	.LBB0_6
# %bb.14:                               # %ctrl5
	cmpl	$6, %eax
	je	.LBB0_7
	jmp	.LBB0_8
.Lfunc_end0:
	.size	ue_v, .Lfunc_end0-ue_v
	.cfi_endproc
                                        # -- End function
	.globl	ue_linfo                # -- Begin function ue_linfo
	.p2align	4, 0x90
	.type	ue_linfo,@function
ue_linfo:                               # @ue_linfo
	.cfi_startproc
# %bb.0:                                # %rand_bb
	pushq	%rbp
	.cfi_def_cfa_offset 16
	.cfi_offset %rbp, -16
	movq	%rsp, %rbp
	.cfi_def_cfa_register %rbp
	pushq	%r15
	pushq	%r14
	pushq	%r12
	pushq	%rbx
	.cfi_offset %rbx, -48
	.cfi_offset %r12, -40
	.cfi_offset %r14, -32
	.cfi_offset %r15, -24
	movq	%rcx, %r14
	movq	%rdx, %r15
	movl	%esi, %r12d
	movl	%edi, %ebx
	callq	get_rand
	cmpl	$0, %eax
	jne	.LBB1_9
# %bb.1:                                # %func_ue_linfo.60
	movl	%ebx, %edi
	movl	%r12d, %esi
	movq	%r15, %rdx
	movq	%r14, %rcx
	callq	ue_linfo.60
	popq	%rbx
	popq	%r12
	popq	%r14
	popq	%r15
	popq	%rbp
	.cfi_def_cfa %rsp, 8
	retq
.LBB1_2:                                # %func_ue_linfo.61
	.cfi_def_cfa %rbp, 16
	movl	%ebx, %edi
	movl	%r12d, %esi
	movq	%r15, %rdx
	movq	%r14, %rcx
	callq	ue_linfo.61
	popq	%rbx
	popq	%r12
	popq	%r14
	popq	%r15
	popq	%rbp
	.cfi_def_cfa %rsp, 8
	retq
.LBB1_3:                                # %func_ue_linfo.70
	.cfi_def_cfa %rbp, 16
	movl	%ebx, %edi
	movl	%r12d, %esi
	movq	%r15, %rdx
	movq	%r14, %rcx
	callq	ue_linfo.70
	popq	%rbx
	popq	%r12
	popq	%r14
	popq	%r15
	popq	%rbp
	.cfi_def_cfa %rsp, 8
	retq
.LBB1_4:                                # %func_ue_linfo.87
	.cfi_def_cfa %rbp, 16
	movl	%ebx, %edi
	movl	%r12d, %esi
	movq	%r15, %rdx
	movq	%r14, %rcx
	callq	ue_linfo.87
	popq	%rbx
	popq	%r12
	popq	%r14
	popq	%r15
	popq	%rbp
	.cfi_def_cfa %rsp, 8
	retq
.LBB1_5:                                # %func_ue_linfo.109
	.cfi_def_cfa %rbp, 16
	movl	%ebx, %edi
	movl	%r12d, %esi
	movq	%r15, %rdx
	movq	%r14, %rcx
	callq	ue_linfo.109
	popq	%rbx
	popq	%r12
	popq	%r14
	popq	%r15
	popq	%rbp
	.cfi_def_cfa %rsp, 8
	retq
.LBB1_6:                                # %func_ue_linfo.132
	.cfi_def_cfa %rbp, 16
	movl	%ebx, %edi
	movl	%r12d, %esi
	movq	%r15, %rdx
	movq	%r14, %rcx
	callq	ue_linfo.132
	popq	%rbx
	popq	%r12
	popq	%r14
	popq	%r15
	popq	%rbp
	.cfi_def_cfa %rsp, 8
	retq
.LBB1_7:                                # %func_ue_linfo.147
	.cfi_def_cfa %rbp, 16
	movl	%ebx, %edi
	movl	%r12d, %esi
	movq	%r15, %rdx
	movq	%r14, %rcx
	callq	ue_linfo.147
	popq	%rbx
	popq	%r12
	popq	%r14
	popq	%r15
	popq	%rbp
	.cfi_def_cfa %rsp, 8
	retq
.LBB1_8:                                # %func_ue_linfo.155
	.cfi_def_cfa %rbp, 16
	movl	%ebx, %edi
	movl	%r12d, %esi
	movq	%r15, %rdx
	movq	%r14, %rcx
	callq	ue_linfo.155
	popq	%rbx
	popq	%r12
	popq	%r14
	popq	%r15
	popq	%rbp
	.cfi_def_cfa %rsp, 8
	retq
.LBB1_9:                                # %ctrl0
	.cfi_def_cfa %rbp, 16
	cmpl	$1, %eax
	je	.LBB1_2
# %bb.10:                               # %ctrl1
	cmpl	$2, %eax
	je	.LBB1_3
# %bb.11:                               # %ctrl2
	cmpl	$3, %eax
	je	.LBB1_4
# %bb.12:                               # %ctrl3
	cmpl	$4, %eax
	je	.LBB1_5
# %bb.13:                               # %ctrl4
	cmpl	$5, %eax
	je	.LBB1_6
# %bb.14:                               # %ctrl5
	cmpl	$6, %eax
	je	.LBB1_7
	jmp	.LBB1_8
.Lfunc_end1:
	.size	ue_linfo, .Lfunc_end1-ue_linfo
	.cfi_endproc
                                        # -- End function
	.globl	writeSyntaxElement_UVLC # -- Begin function writeSyntaxElement_UVLC
	.p2align	4, 0x90
	.type	writeSyntaxElement_UVLC,@function
writeSyntaxElement_UVLC:                # @writeSyntaxElement_UVLC
	.cfi_startproc
# %bb.0:                                # %rand_bb
	pushq	%rbp
	.cfi_def_cfa_offset 16
	.cfi_offset %rbp, -16
	movq	%rsp, %rbp
	.cfi_def_cfa_register %rbp
	pushq	%r14
	pushq	%rbx
	.cfi_offset %rbx, -32
	.cfi_offset %r14, -24
	movq	%rsi, %r14
	movq	%rdi, %rbx
	callq	get_rand
	cmpl	$0, %eax
	jne	.LBB2_2
# %bb.1:                                # %func_writeSyntaxElement_UVLC.35
	movq	%rbx, %rdi
	movq	%r14, %rsi
	callq	writeSyntaxElement_UVLC.35
	popq	%rbx
	popq	%r14
	popq	%rbp
	.cfi_def_cfa %rsp, 8
	retq
.LBB2_2:                                # %func_writeSyntaxElement_UVLC.51
	.cfi_def_cfa %rbp, 16
	movq	%rbx, %rdi
	movq	%r14, %rsi
	callq	writeSyntaxElement_UVLC.51
	popq	%rbx
	popq	%r14
	popq	%rbp
	.cfi_def_cfa %rsp, 8
	retq
.Lfunc_end2:
	.size	writeSyntaxElement_UVLC, .Lfunc_end2-writeSyntaxElement_UVLC
	.cfi_endproc
                                        # -- End function
	.globl	se_v                    # -- Begin function se_v
	.p2align	4, 0x90
	.type	se_v,@function
se_v:                                   # @se_v
	.cfi_startproc
# %bb.0:                                # %rand_bb
	pushq	%rbp
	.cfi_def_cfa_offset 16
	.cfi_offset %rbp, -16
	movq	%rsp, %rbp
	.cfi_def_cfa_register %rbp
	pushq	%r15
	pushq	%r14
	pushq	%rbx
	pushq	%rax
	.cfi_offset %rbx, -40
	.cfi_offset %r14, -32
	.cfi_offset %r15, -24
	movq	%rdx, %r14
	movl	%esi, %r15d
	movq	%rdi, %rbx
	callq	get_rand
	cmpl	$0, %eax
	jne	.LBB3_9
# %bb.1:                                # %func_se_v.27
	movq	%rbx, %rdi
	movl	%r15d, %esi
	movq	%r14, %rdx
	callq	se_v.27
	addq	$8, %rsp
	popq	%rbx
	popq	%r14
	popq	%r15
	popq	%rbp
	.cfi_def_cfa %rsp, 8
	retq
.LBB3_2:                                # %func_se_v.32
	.cfi_def_cfa %rbp, 16
	movq	%rbx, %rdi
	movl	%r15d, %esi
	movq	%r14, %rdx
	callq	se_v.32
	addq	$8, %rsp
	popq	%rbx
	popq	%r14
	popq	%r15
	popq	%rbp
	.cfi_def_cfa %rsp, 8
	retq
.LBB3_3:                                # %func_se_v.36
	.cfi_def_cfa %rbp, 16
	movq	%rbx, %rdi
	movl	%r15d, %esi
	movq	%r14, %rdx
	callq	se_v.36
	addq	$8, %rsp
	popq	%rbx
	popq	%r14
	popq	%r15
	popq	%rbp
	.cfi_def_cfa %rsp, 8
	retq
.LBB3_4:                                # %func_se_v.63
	.cfi_def_cfa %rbp, 16
	movq	%rbx, %rdi
	movl	%r15d, %esi
	movq	%r14, %rdx
	callq	se_v.63
	addq	$8, %rsp
	popq	%rbx
	popq	%r14
	popq	%r15
	popq	%rbp
	.cfi_def_cfa %rsp, 8
	retq
.LBB3_5:                                # %func_se_v.81
	.cfi_def_cfa %rbp, 16
	movq	%rbx, %rdi
	movl	%r15d, %esi
	movq	%r14, %rdx
	callq	se_v.81
	addq	$8, %rsp
	popq	%rbx
	popq	%r14
	popq	%r15
	popq	%rbp
	.cfi_def_cfa %rsp, 8
	retq
.LBB3_6:                                # %func_se_v.101
	.cfi_def_cfa %rbp, 16
	movq	%rbx, %rdi
	movl	%r15d, %esi
	movq	%r14, %rdx
	callq	se_v.101
	addq	$8, %rsp
	popq	%rbx
	popq	%r14
	popq	%r15
	popq	%rbp
	.cfi_def_cfa %rsp, 8
	retq
.LBB3_7:                                # %func_se_v.105
	.cfi_def_cfa %rbp, 16
	movq	%rbx, %rdi
	movl	%r15d, %esi
	movq	%r14, %rdx
	callq	se_v.105
	addq	$8, %rsp
	popq	%rbx
	popq	%r14
	popq	%r15
	popq	%rbp
	.cfi_def_cfa %rsp, 8
	retq
.LBB3_8:                                # %func_se_v.117
	.cfi_def_cfa %rbp, 16
	movq	%rbx, %rdi
	movl	%r15d, %esi
	movq	%r14, %rdx
	callq	se_v.117
	addq	$8, %rsp
	popq	%rbx
	popq	%r14
	popq	%r15
	popq	%rbp
	.cfi_def_cfa %rsp, 8
	retq
.LBB3_9:                                # %ctrl0
	.cfi_def_cfa %rbp, 16
	cmpl	$1, %eax
	je	.LBB3_2
# %bb.10:                               # %ctrl1
	cmpl	$2, %eax
	je	.LBB3_3
# %bb.11:                               # %ctrl2
	cmpl	$3, %eax
	je	.LBB3_4
# %bb.12:                               # %ctrl3
	cmpl	$4, %eax
	je	.LBB3_5
# %bb.13:                               # %ctrl4
	cmpl	$5, %eax
	je	.LBB3_6
# %bb.14:                               # %ctrl5
	cmpl	$6, %eax
	je	.LBB3_7
	jmp	.LBB3_8
.Lfunc_end3:
	.size	se_v, .Lfunc_end3-se_v
	.cfi_endproc
                                        # -- End function
	.globl	se_linfo                # -- Begin function se_linfo
	.p2align	4, 0x90
	.type	se_linfo,@function
se_linfo:                               # @se_linfo
	.cfi_startproc
# %bb.0:                                # %rand_bb
	pushq	%rbp
	.cfi_def_cfa_offset 16
	.cfi_offset %rbp, -16
	movq	%rsp, %rbp
	.cfi_def_cfa_register %rbp
	pushq	%r15
	pushq	%r14
	pushq	%r12
	pushq	%rbx
	.cfi_offset %rbx, -48
	.cfi_offset %r12, -40
	.cfi_offset %r14, -32
	.cfi_offset %r15, -24
	movq	%rcx, %r14
	movq	%rdx, %r15
	movl	%esi, %r12d
	movl	%edi, %ebx
	callq	get_rand
	cmpl	$0, %eax
	jne	.LBB4_9
# %bb.1:                                # %func_se_linfo.13
	movl	%ebx, %edi
	movl	%r12d, %esi
	movq	%r15, %rdx
	movq	%r14, %rcx
	callq	se_linfo.13
	popq	%rbx
	popq	%r12
	popq	%r14
	popq	%r15
	popq	%rbp
	.cfi_def_cfa %rsp, 8
	retq
.LBB4_2:                                # %func_se_linfo.14
	.cfi_def_cfa %rbp, 16
	movl	%ebx, %edi
	movl	%r12d, %esi
	movq	%r15, %rdx
	movq	%r14, %rcx
	callq	se_linfo.14
	popq	%rbx
	popq	%r12
	popq	%r14
	popq	%r15
	popq	%rbp
	.cfi_def_cfa %rsp, 8
	retq
.LBB4_3:                                # %func_se_linfo.41
	.cfi_def_cfa %rbp, 16
	movl	%ebx, %edi
	movl	%r12d, %esi
	movq	%r15, %rdx
	movq	%r14, %rcx
	callq	se_linfo.41
	popq	%rbx
	popq	%r12
	popq	%r14
	popq	%r15
	popq	%rbp
	.cfi_def_cfa %rsp, 8
	retq
.LBB4_4:                                # %func_se_linfo.58
	.cfi_def_cfa %rbp, 16
	movl	%ebx, %edi
	movl	%r12d, %esi
	movq	%r15, %rdx
	movq	%r14, %rcx
	callq	se_linfo.58
	popq	%rbx
	popq	%r12
	popq	%r14
	popq	%r15
	popq	%rbp
	.cfi_def_cfa %rsp, 8
	retq
.LBB4_5:                                # %func_se_linfo.59
	.cfi_def_cfa %rbp, 16
	movl	%ebx, %edi
	movl	%r12d, %esi
	movq	%r15, %rdx
	movq	%r14, %rcx
	callq	se_linfo.59
	popq	%rbx
	popq	%r12
	popq	%r14
	popq	%r15
	popq	%rbp
	.cfi_def_cfa %rsp, 8
	retq
.LBB4_6:                                # %func_se_linfo.90
	.cfi_def_cfa %rbp, 16
	movl	%ebx, %edi
	movl	%r12d, %esi
	movq	%r15, %rdx
	movq	%r14, %rcx
	callq	se_linfo.90
	popq	%rbx
	popq	%r12
	popq	%r14
	popq	%r15
	popq	%rbp
	.cfi_def_cfa %rsp, 8
	retq
.LBB4_7:                                # %func_se_linfo.126
	.cfi_def_cfa %rbp, 16
	movl	%ebx, %edi
	movl	%r12d, %esi
	movq	%r15, %rdx
	movq	%r14, %rcx
	callq	se_linfo.126
	popq	%rbx
	popq	%r12
	popq	%r14
	popq	%r15
	popq	%rbp
	.cfi_def_cfa %rsp, 8
	retq
.LBB4_8:                                # %func_se_linfo.148
	.cfi_def_cfa %rbp, 16
	movl	%ebx, %edi
	movl	%r12d, %esi
	movq	%r15, %rdx
	movq	%r14, %rcx
	callq	se_linfo.148
	popq	%rbx
	popq	%r12
	popq	%r14
	popq	%r15
	popq	%rbp
	.cfi_def_cfa %rsp, 8
	retq
.LBB4_9:                                # %ctrl0
	.cfi_def_cfa %rbp, 16
	cmpl	$1, %eax
	je	.LBB4_2
# %bb.10:                               # %ctrl1
	cmpl	$2, %eax
	je	.LBB4_3
# %bb.11:                               # %ctrl2
	cmpl	$3, %eax
	je	.LBB4_4
# %bb.12:                               # %ctrl3
	cmpl	$4, %eax
	je	.LBB4_5
# %bb.13:                               # %ctrl4
	cmpl	$5, %eax
	je	.LBB4_6
# %bb.14:                               # %ctrl5
	cmpl	$6, %eax
	je	.LBB4_7
	jmp	.LBB4_8
.Lfunc_end4:
	.size	se_linfo, .Lfunc_end4-se_linfo
	.cfi_endproc
                                        # -- End function
	.globl	u_1                     # -- Begin function u_1
	.p2align	4, 0x90
	.type	u_1,@function
u_1:                                    # @u_1
	.cfi_startproc
# %bb.0:                                # %rand_bb
	pushq	%rbp
	.cfi_def_cfa_offset 16
	.cfi_offset %rbp, -16
	movq	%rsp, %rbp
	.cfi_def_cfa_register %rbp
	pushq	%r15
	pushq	%r14
	pushq	%rbx
	pushq	%rax
	.cfi_offset %rbx, -40
	.cfi_offset %r14, -32
	.cfi_offset %r15, -24
	movq	%rdx, %r14
	movl	%esi, %r15d
	movq	%rdi, %rbx
	callq	get_rand
	cmpl	$0, %eax
	jne	.LBB5_9
# %bb.1:                                # %func_u_1.5
	movq	%rbx, %rdi
	movl	%r15d, %esi
	movq	%r14, %rdx
	callq	u_1.5
	addq	$8, %rsp
	popq	%rbx
	popq	%r14
	popq	%r15
	popq	%rbp
	.cfi_def_cfa %rsp, 8
	retq
.LBB5_2:                                # %func_u_1.50
	.cfi_def_cfa %rbp, 16
	movq	%rbx, %rdi
	movl	%r15d, %esi
	movq	%r14, %rdx
	callq	u_1.50
	addq	$8, %rsp
	popq	%rbx
	popq	%r14
	popq	%r15
	popq	%rbp
	.cfi_def_cfa %rsp, 8
	retq
.LBB5_3:                                # %func_u_1.93
	.cfi_def_cfa %rbp, 16
	movq	%rbx, %rdi
	movl	%r15d, %esi
	movq	%r14, %rdx
	callq	u_1.93
	addq	$8, %rsp
	popq	%rbx
	popq	%r14
	popq	%r15
	popq	%rbp
	.cfi_def_cfa %rsp, 8
	retq
.LBB5_4:                                # %func_u_1.108
	.cfi_def_cfa %rbp, 16
	movq	%rbx, %rdi
	movl	%r15d, %esi
	movq	%r14, %rdx
	callq	u_1.108
	addq	$8, %rsp
	popq	%rbx
	popq	%r14
	popq	%r15
	popq	%rbp
	.cfi_def_cfa %rsp, 8
	retq
.LBB5_5:                                # %func_u_1.119
	.cfi_def_cfa %rbp, 16
	movq	%rbx, %rdi
	movl	%r15d, %esi
	movq	%r14, %rdx
	callq	u_1.119
	addq	$8, %rsp
	popq	%rbx
	popq	%r14
	popq	%r15
	popq	%rbp
	.cfi_def_cfa %rsp, 8
	retq
.LBB5_6:                                # %func_u_1.133
	.cfi_def_cfa %rbp, 16
	movq	%rbx, %rdi
	movl	%r15d, %esi
	movq	%r14, %rdx
	callq	u_1.133
	addq	$8, %rsp
	popq	%rbx
	popq	%r14
	popq	%r15
	popq	%rbp
	.cfi_def_cfa %rsp, 8
	retq
.LBB5_7:                                # %func_u_1.134
	.cfi_def_cfa %rbp, 16
	movq	%rbx, %rdi
	movl	%r15d, %esi
	movq	%r14, %rdx
	callq	u_1.134
	addq	$8, %rsp
	popq	%rbx
	popq	%r14
	popq	%r15
	popq	%rbp
	.cfi_def_cfa %rsp, 8
	retq
.LBB5_8:                                # %func_u_1.137
	.cfi_def_cfa %rbp, 16
	movq	%rbx, %rdi
	movl	%r15d, %esi
	movq	%r14, %rdx
	callq	u_1.137
	addq	$8, %rsp
	popq	%rbx
	popq	%r14
	popq	%r15
	popq	%rbp
	.cfi_def_cfa %rsp, 8
	retq
.LBB5_9:                                # %ctrl0
	.cfi_def_cfa %rbp, 16
	cmpl	$1, %eax
	je	.LBB5_2
# %bb.10:                               # %ctrl1
	cmpl	$2, %eax
	je	.LBB5_3
# %bb.11:                               # %ctrl2
	cmpl	$3, %eax
	je	.LBB5_4
# %bb.12:                               # %ctrl3
	cmpl	$4, %eax
	je	.LBB5_5
# %bb.13:                               # %ctrl4
	cmpl	$5, %eax
	je	.LBB5_6
# %bb.14:                               # %ctrl5
	cmpl	$6, %eax
	je	.LBB5_7
	jmp	.LBB5_8
.Lfunc_end5:
	.size	u_1, .Lfunc_end5-u_1
	.cfi_endproc
                                        # -- End function
	.globl	writeSyntaxElement_fixed # -- Begin function writeSyntaxElement_fixed
	.p2align	4, 0x90
	.type	writeSyntaxElement_fixed,@function
writeSyntaxElement_fixed:               # @writeSyntaxElement_fixed
	.cfi_startproc
# %bb.0:                                # %rand_bb
	pushq	%rbp
	.cfi_def_cfa_offset 16
	.cfi_offset %rbp, -16
	movq	%rsp, %rbp
	.cfi_def_cfa_register %rbp
	pushq	%r14
	pushq	%rbx
	.cfi_offset %rbx, -32
	.cfi_offset %r14, -24
	movq	%rsi, %r14
	movq	%rdi, %rbx
	callq	get_rand
	cmpl	$0, %eax
	jne	.LBB6_2
# %bb.1:                                # %func_writeSyntaxElement_fixed.16
	movq	%rbx, %rdi
	movq	%r14, %rsi
	callq	writeSyntaxElement_fixed.16
	popq	%rbx
	popq	%r14
	popq	%rbp
	.cfi_def_cfa %rsp, 8
	retq
.LBB6_2:                                # %func_writeSyntaxElement_fixed.21
	.cfi_def_cfa %rbp, 16
	movq	%rbx, %rdi
	movq	%r14, %rsi
	callq	writeSyntaxElement_fixed.21
	popq	%rbx
	popq	%r14
	popq	%rbp
	.cfi_def_cfa %rsp, 8
	retq
.Lfunc_end6:
	.size	writeSyntaxElement_fixed, .Lfunc_end6-writeSyntaxElement_fixed
	.cfi_endproc
                                        # -- End function
	.globl	u_v                     # -- Begin function u_v
	.p2align	4, 0x90
	.type	u_v,@function
u_v:                                    # @u_v
	.cfi_startproc
# %bb.0:                                # %rand_bb
	pushq	%rbp
	.cfi_def_cfa_offset 16
	.cfi_offset %rbp, -16
	movq	%rsp, %rbp
	.cfi_def_cfa_register %rbp
	pushq	%r15
	pushq	%r14
	pushq	%r12
	pushq	%rbx
	.cfi_offset %rbx, -48
	.cfi_offset %r12, -40
	.cfi_offset %r14, -32
	.cfi_offset %r15, -24
	movq	%rcx, %r14
	movl	%edx, %r15d
	movq	%rsi, %r12
	movl	%edi, %ebx
	callq	get_rand
	cmpl	$0, %eax
	jne	.LBB7_9
# %bb.1:                                # %func_u_v.6
	movl	%ebx, %edi
	movq	%r12, %rsi
	movl	%r15d, %edx
	movq	%r14, %rcx
	callq	u_v.6
	popq	%rbx
	popq	%r12
	popq	%r14
	popq	%r15
	popq	%rbp
	.cfi_def_cfa %rsp, 8
	retq
.LBB7_2:                                # %func_u_v.22
	.cfi_def_cfa %rbp, 16
	movl	%ebx, %edi
	movq	%r12, %rsi
	movl	%r15d, %edx
	movq	%r14, %rcx
	callq	u_v.22
	popq	%rbx
	popq	%r12
	popq	%r14
	popq	%r15
	popq	%rbp
	.cfi_def_cfa %rsp, 8
	retq
.LBB7_3:                                # %func_u_v.40
	.cfi_def_cfa %rbp, 16
	movl	%ebx, %edi
	movq	%r12, %rsi
	movl	%r15d, %edx
	movq	%r14, %rcx
	callq	u_v.40
	popq	%rbx
	popq	%r12
	popq	%r14
	popq	%r15
	popq	%rbp
	.cfi_def_cfa %rsp, 8
	retq
.LBB7_4:                                # %func_u_v.46
	.cfi_def_cfa %rbp, 16
	movl	%ebx, %edi
	movq	%r12, %rsi
	movl	%r15d, %edx
	movq	%r14, %rcx
	callq	u_v.46
	popq	%rbx
	popq	%r12
	popq	%r14
	popq	%r15
	popq	%rbp
	.cfi_def_cfa %rsp, 8
	retq
.LBB7_5:                                # %func_u_v.92
	.cfi_def_cfa %rbp, 16
	movl	%ebx, %edi
	movq	%r12, %rsi
	movl	%r15d, %edx
	movq	%r14, %rcx
	callq	u_v.92
	popq	%rbx
	popq	%r12
	popq	%r14
	popq	%r15
	popq	%rbp
	.cfi_def_cfa %rsp, 8
	retq
.LBB7_6:                                # %func_u_v.100
	.cfi_def_cfa %rbp, 16
	movl	%ebx, %edi
	movq	%r12, %rsi
	movl	%r15d, %edx
	movq	%r14, %rcx
	callq	u_v.100
	popq	%rbx
	popq	%r12
	popq	%r14
	popq	%r15
	popq	%rbp
	.cfi_def_cfa %rsp, 8
	retq
.LBB7_7:                                # %func_u_v.103
	.cfi_def_cfa %rbp, 16
	movl	%ebx, %edi
	movq	%r12, %rsi
	movl	%r15d, %edx
	movq	%r14, %rcx
	callq	u_v.103
	popq	%rbx
	popq	%r12
	popq	%r14
	popq	%r15
	popq	%rbp
	.cfi_def_cfa %rsp, 8
	retq
.LBB7_8:                                # %func_u_v.111
	.cfi_def_cfa %rbp, 16
	movl	%ebx, %edi
	movq	%r12, %rsi
	movl	%r15d, %edx
	movq	%r14, %rcx
	callq	u_v.111
	popq	%rbx
	popq	%r12
	popq	%r14
	popq	%r15
	popq	%rbp
	.cfi_def_cfa %rsp, 8
	retq
.LBB7_9:                                # %ctrl0
	.cfi_def_cfa %rbp, 16
	cmpl	$1, %eax
	je	.LBB7_2
# %bb.10:                               # %ctrl1
	cmpl	$2, %eax
	je	.LBB7_3
# %bb.11:                               # %ctrl2
	cmpl	$3, %eax
	je	.LBB7_4
# %bb.12:                               # %ctrl3
	cmpl	$4, %eax
	je	.LBB7_5
# %bb.13:                               # %ctrl4
	cmpl	$5, %eax
	je	.LBB7_6
# %bb.14:                               # %ctrl5
	cmpl	$6, %eax
	je	.LBB7_7
	jmp	.LBB7_8
.Lfunc_end7:
	.size	u_v, .Lfunc_end7-u_v
	.cfi_endproc
                                        # -- End function
	.globl	cbp_linfo_intra         # -- Begin function cbp_linfo_intra
	.p2align	4, 0x90
	.type	cbp_linfo_intra,@function
cbp_linfo_intra:                        # @cbp_linfo_intra
	.cfi_startproc
# %bb.0:                                # %rand_bb
	pushq	%rbp
	.cfi_def_cfa_offset 16
	.cfi_offset %rbp, -16
	movq	%rsp, %rbp
	.cfi_def_cfa_register %rbp
	pushq	%r15
	pushq	%r14
	pushq	%r12
	pushq	%rbx
	.cfi_offset %rbx, -48
	.cfi_offset %r12, -40
	.cfi_offset %r14, -32
	.cfi_offset %r15, -24
	movq	%rcx, %r14
	movq	%rdx, %r15
	movl	%esi, %r12d
	movl	%edi, %ebx
	callq	get_rand
	cmpl	$0, %eax
	jne	.LBB8_9
# %bb.1:                                # %func_cbp_linfo_intra.47
	movl	%ebx, %edi
	movl	%r12d, %esi
	movq	%r15, %rdx
	movq	%r14, %rcx
	callq	cbp_linfo_intra.47
	popq	%rbx
	popq	%r12
	popq	%r14
	popq	%r15
	popq	%rbp
	.cfi_def_cfa %rsp, 8
	retq
.LBB8_2:                                # %func_cbp_linfo_intra.67
	.cfi_def_cfa %rbp, 16
	movl	%ebx, %edi
	movl	%r12d, %esi
	movq	%r15, %rdx
	movq	%r14, %rcx
	callq	cbp_linfo_intra.67
	popq	%rbx
	popq	%r12
	popq	%r14
	popq	%r15
	popq	%rbp
	.cfi_def_cfa %rsp, 8
	retq
.LBB8_3:                                # %func_cbp_linfo_intra.77
	.cfi_def_cfa %rbp, 16
	movl	%ebx, %edi
	movl	%r12d, %esi
	movq	%r15, %rdx
	movq	%r14, %rcx
	callq	cbp_linfo_intra.77
	popq	%rbx
	popq	%r12
	popq	%r14
	popq	%r15
	popq	%rbp
	.cfi_def_cfa %rsp, 8
	retq
.LBB8_4:                                # %func_cbp_linfo_intra.121
	.cfi_def_cfa %rbp, 16
	movl	%ebx, %edi
	movl	%r12d, %esi
	movq	%r15, %rdx
	movq	%r14, %rcx
	callq	cbp_linfo_intra.121
	popq	%rbx
	popq	%r12
	popq	%r14
	popq	%r15
	popq	%rbp
	.cfi_def_cfa %rsp, 8
	retq
.LBB8_5:                                # %func_cbp_linfo_intra.130
	.cfi_def_cfa %rbp, 16
	movl	%ebx, %edi
	movl	%r12d, %esi
	movq	%r15, %rdx
	movq	%r14, %rcx
	callq	cbp_linfo_intra.130
	popq	%rbx
	popq	%r12
	popq	%r14
	popq	%r15
	popq	%rbp
	.cfi_def_cfa %rsp, 8
	retq
.LBB8_6:                                # %func_cbp_linfo_intra.149
	.cfi_def_cfa %rbp, 16
	movl	%ebx, %edi
	movl	%r12d, %esi
	movq	%r15, %rdx
	movq	%r14, %rcx
	callq	cbp_linfo_intra.149
	popq	%rbx
	popq	%r12
	popq	%r14
	popq	%r15
	popq	%rbp
	.cfi_def_cfa %rsp, 8
	retq
.LBB8_7:                                # %func_cbp_linfo_intra.152
	.cfi_def_cfa %rbp, 16
	movl	%ebx, %edi
	movl	%r12d, %esi
	movq	%r15, %rdx
	movq	%r14, %rcx
	callq	cbp_linfo_intra.152
	popq	%rbx
	popq	%r12
	popq	%r14
	popq	%r15
	popq	%rbp
	.cfi_def_cfa %rsp, 8
	retq
.LBB8_8:                                # %func_cbp_linfo_intra.154
	.cfi_def_cfa %rbp, 16
	movl	%ebx, %edi
	movl	%r12d, %esi
	movq	%r15, %rdx
	movq	%r14, %rcx
	callq	cbp_linfo_intra.154
	popq	%rbx
	popq	%r12
	popq	%r14
	popq	%r15
	popq	%rbp
	.cfi_def_cfa %rsp, 8
	retq
.LBB8_9:                                # %ctrl0
	.cfi_def_cfa %rbp, 16
	cmpl	$1, %eax
	je	.LBB8_2
# %bb.10:                               # %ctrl1
	cmpl	$2, %eax
	je	.LBB8_3
# %bb.11:                               # %ctrl2
	cmpl	$3, %eax
	je	.LBB8_4
# %bb.12:                               # %ctrl3
	cmpl	$4, %eax
	je	.LBB8_5
# %bb.13:                               # %ctrl4
	cmpl	$5, %eax
	je	.LBB8_6
# %bb.14:                               # %ctrl5
	cmpl	$6, %eax
	je	.LBB8_7
	jmp	.LBB8_8
.Lfunc_end8:
	.size	cbp_linfo_intra, .Lfunc_end8-cbp_linfo_intra
	.cfi_endproc
                                        # -- End function
	.globl	cbp_linfo_inter         # -- Begin function cbp_linfo_inter
	.p2align	4, 0x90
	.type	cbp_linfo_inter,@function
cbp_linfo_inter:                        # @cbp_linfo_inter
	.cfi_startproc
# %bb.0:                                # %rand_bb
	pushq	%rbp
	.cfi_def_cfa_offset 16
	.cfi_offset %rbp, -16
	movq	%rsp, %rbp
	.cfi_def_cfa_register %rbp
	pushq	%r15
	pushq	%r14
	pushq	%r12
	pushq	%rbx
	.cfi_offset %rbx, -48
	.cfi_offset %r12, -40
	.cfi_offset %r14, -32
	.cfi_offset %r15, -24
	movq	%rcx, %r14
	movq	%rdx, %r15
	movl	%esi, %r12d
	movl	%edi, %ebx
	callq	get_rand
	cmpl	$0, %eax
	jne	.LBB9_9
# %bb.1:                                # %func_cbp_linfo_inter.15
	movl	%ebx, %edi
	movl	%r12d, %esi
	movq	%r15, %rdx
	movq	%r14, %rcx
	callq	cbp_linfo_inter.15
	popq	%rbx
	popq	%r12
	popq	%r14
	popq	%r15
	popq	%rbp
	.cfi_def_cfa %rsp, 8
	retq
.LBB9_2:                                # %func_cbp_linfo_inter.52
	.cfi_def_cfa %rbp, 16
	movl	%ebx, %edi
	movl	%r12d, %esi
	movq	%r15, %rdx
	movq	%r14, %rcx
	callq	cbp_linfo_inter.52
	popq	%rbx
	popq	%r12
	popq	%r14
	popq	%r15
	popq	%rbp
	.cfi_def_cfa %rsp, 8
	retq
.LBB9_3:                                # %func_cbp_linfo_inter.57
	.cfi_def_cfa %rbp, 16
	movl	%ebx, %edi
	movl	%r12d, %esi
	movq	%r15, %rdx
	movq	%r14, %rcx
	callq	cbp_linfo_inter.57
	popq	%rbx
	popq	%r12
	popq	%r14
	popq	%r15
	popq	%rbp
	.cfi_def_cfa %rsp, 8
	retq
.LBB9_4:                                # %func_cbp_linfo_inter.65
	.cfi_def_cfa %rbp, 16
	movl	%ebx, %edi
	movl	%r12d, %esi
	movq	%r15, %rdx
	movq	%r14, %rcx
	callq	cbp_linfo_inter.65
	popq	%rbx
	popq	%r12
	popq	%r14
	popq	%r15
	popq	%rbp
	.cfi_def_cfa %rsp, 8
	retq
.LBB9_5:                                # %func_cbp_linfo_inter.89
	.cfi_def_cfa %rbp, 16
	movl	%ebx, %edi
	movl	%r12d, %esi
	movq	%r15, %rdx
	movq	%r14, %rcx
	callq	cbp_linfo_inter.89
	popq	%rbx
	popq	%r12
	popq	%r14
	popq	%r15
	popq	%rbp
	.cfi_def_cfa %rsp, 8
	retq
.LBB9_6:                                # %func_cbp_linfo_inter.110
	.cfi_def_cfa %rbp, 16
	movl	%ebx, %edi
	movl	%r12d, %esi
	movq	%r15, %rdx
	movq	%r14, %rcx
	callq	cbp_linfo_inter.110
	popq	%rbx
	popq	%r12
	popq	%r14
	popq	%r15
	popq	%rbp
	.cfi_def_cfa %rsp, 8
	retq
.LBB9_7:                                # %func_cbp_linfo_inter.114
	.cfi_def_cfa %rbp, 16
	movl	%ebx, %edi
	movl	%r12d, %esi
	movq	%r15, %rdx
	movq	%r14, %rcx
	callq	cbp_linfo_inter.114
	popq	%rbx
	popq	%r12
	popq	%r14
	popq	%r15
	popq	%rbp
	.cfi_def_cfa %rsp, 8
	retq
.LBB9_8:                                # %func_cbp_linfo_inter.115
	.cfi_def_cfa %rbp, 16
	movl	%ebx, %edi
	movl	%r12d, %esi
	movq	%r15, %rdx
	movq	%r14, %rcx
	callq	cbp_linfo_inter.115
	popq	%rbx
	popq	%r12
	popq	%r14
	popq	%r15
	popq	%rbp
	.cfi_def_cfa %rsp, 8
	retq
.LBB9_9:                                # %ctrl0
	.cfi_def_cfa %rbp, 16
	cmpl	$1, %eax
	je	.LBB9_2
# %bb.10:                               # %ctrl1
	cmpl	$2, %eax
	je	.LBB9_3
# %bb.11:                               # %ctrl2
	cmpl	$3, %eax
	je	.LBB9_4
# %bb.12:                               # %ctrl3
	cmpl	$4, %eax
	je	.LBB9_5
# %bb.13:                               # %ctrl4
	cmpl	$5, %eax
	je	.LBB9_6
# %bb.14:                               # %ctrl5
	cmpl	$6, %eax
	je	.LBB9_7
	jmp	.LBB9_8
.Lfunc_end9:
	.size	cbp_linfo_inter, .Lfunc_end9-cbp_linfo_inter
	.cfi_endproc
                                        # -- End function
	.globl	levrun_linfo_c2x2       # -- Begin function levrun_linfo_c2x2
	.p2align	4, 0x90
	.type	levrun_linfo_c2x2,@function
levrun_linfo_c2x2:                      # @levrun_linfo_c2x2
	.cfi_startproc
# %bb.0:                                # %rand_bb
	pushq	%rbp
	.cfi_def_cfa_offset 16
	.cfi_offset %rbp, -16
	movq	%rsp, %rbp
	.cfi_def_cfa_register %rbp
	pushq	%r15
	pushq	%r14
	pushq	%r12
	pushq	%rbx
	.cfi_offset %rbx, -48
	.cfi_offset %r12, -40
	.cfi_offset %r14, -32
	.cfi_offset %r15, -24
	movq	%rcx, %r14
	movq	%rdx, %r15
	movl	%esi, %r12d
	movl	%edi, %ebx
	callq	get_rand
	cmpl	$0, %eax
	jne	.LBB10_9
# %bb.1:                                # %func_levrun_linfo_c2x2.4
	movl	%ebx, %edi
	movl	%r12d, %esi
	movq	%r15, %rdx
	movq	%r14, %rcx
	callq	levrun_linfo_c2x2.4
	popq	%rbx
	popq	%r12
	popq	%r14
	popq	%r15
	popq	%rbp
	.cfi_def_cfa %rsp, 8
	retq
.LBB10_2:                               # %func_levrun_linfo_c2x2.19
	.cfi_def_cfa %rbp, 16
	movl	%ebx, %edi
	movl	%r12d, %esi
	movq	%r15, %rdx
	movq	%r14, %rcx
	callq	levrun_linfo_c2x2.19
	popq	%rbx
	popq	%r12
	popq	%r14
	popq	%r15
	popq	%rbp
	.cfi_def_cfa %rsp, 8
	retq
.LBB10_3:                               # %func_levrun_linfo_c2x2.34
	.cfi_def_cfa %rbp, 16
	movl	%ebx, %edi
	movl	%r12d, %esi
	movq	%r15, %rdx
	movq	%r14, %rcx
	callq	levrun_linfo_c2x2.34
	popq	%rbx
	popq	%r12
	popq	%r14
	popq	%r15
	popq	%rbp
	.cfi_def_cfa %rsp, 8
	retq
.LBB10_4:                               # %func_levrun_linfo_c2x2.84
	.cfi_def_cfa %rbp, 16
	movl	%ebx, %edi
	movl	%r12d, %esi
	movq	%r15, %rdx
	movq	%r14, %rcx
	callq	levrun_linfo_c2x2.84
	popq	%rbx
	popq	%r12
	popq	%r14
	popq	%r15
	popq	%rbp
	.cfi_def_cfa %rsp, 8
	retq
.LBB10_5:                               # %func_levrun_linfo_c2x2.120
	.cfi_def_cfa %rbp, 16
	movl	%ebx, %edi
	movl	%r12d, %esi
	movq	%r15, %rdx
	movq	%r14, %rcx
	callq	levrun_linfo_c2x2.120
	popq	%rbx
	popq	%r12
	popq	%r14
	popq	%r15
	popq	%rbp
	.cfi_def_cfa %rsp, 8
	retq
.LBB10_6:                               # %func_levrun_linfo_c2x2.123
	.cfi_def_cfa %rbp, 16
	movl	%ebx, %edi
	movl	%r12d, %esi
	movq	%r15, %rdx
	movq	%r14, %rcx
	callq	levrun_linfo_c2x2.123
	popq	%rbx
	popq	%r12
	popq	%r14
	popq	%r15
	popq	%rbp
	.cfi_def_cfa %rsp, 8
	retq
.LBB10_7:                               # %func_levrun_linfo_c2x2.127
	.cfi_def_cfa %rbp, 16
	movl	%ebx, %edi
	movl	%r12d, %esi
	movq	%r15, %rdx
	movq	%r14, %rcx
	callq	levrun_linfo_c2x2.127
	popq	%rbx
	popq	%r12
	popq	%r14
	popq	%r15
	popq	%rbp
	.cfi_def_cfa %rsp, 8
	retq
.LBB10_8:                               # %func_levrun_linfo_c2x2.135
	.cfi_def_cfa %rbp, 16
	movl	%ebx, %edi
	movl	%r12d, %esi
	movq	%r15, %rdx
	movq	%r14, %rcx
	callq	levrun_linfo_c2x2.135
	popq	%rbx
	popq	%r12
	popq	%r14
	popq	%r15
	popq	%rbp
	.cfi_def_cfa %rsp, 8
	retq
.LBB10_9:                               # %ctrl0
	.cfi_def_cfa %rbp, 16
	cmpl	$1, %eax
	je	.LBB10_2
# %bb.10:                               # %ctrl1
	cmpl	$2, %eax
	je	.LBB10_3
# %bb.11:                               # %ctrl2
	cmpl	$3, %eax
	je	.LBB10_4
# %bb.12:                               # %ctrl3
	cmpl	$4, %eax
	je	.LBB10_5
# %bb.13:                               # %ctrl4
	cmpl	$5, %eax
	je	.LBB10_6
# %bb.14:                               # %ctrl5
	cmpl	$6, %eax
	je	.LBB10_7
	jmp	.LBB10_8
.Lfunc_end10:
	.size	levrun_linfo_c2x2, .Lfunc_end10-levrun_linfo_c2x2
	.cfi_endproc
                                        # -- End function
	.globl	levrun_linfo_inter      # -- Begin function levrun_linfo_inter
	.p2align	4, 0x90
	.type	levrun_linfo_inter,@function
levrun_linfo_inter:                     # @levrun_linfo_inter
	.cfi_startproc
# %bb.0:                                # %rand_bb
	pushq	%rbp
	.cfi_def_cfa_offset 16
	.cfi_offset %rbp, -16
	movq	%rsp, %rbp
	.cfi_def_cfa_register %rbp
	pushq	%r15
	pushq	%r14
	pushq	%r12
	pushq	%rbx
	.cfi_offset %rbx, -48
	.cfi_offset %r12, -40
	.cfi_offset %r14, -32
	.cfi_offset %r15, -24
	movq	%rcx, %r14
	movq	%rdx, %r15
	movl	%esi, %r12d
	movl	%edi, %ebx
	callq	get_rand
	cmpl	$0, %eax
	jne	.LBB11_9
# %bb.1:                                # %func_levrun_linfo_inter.9
	movl	%ebx, %edi
	movl	%r12d, %esi
	movq	%r15, %rdx
	movq	%r14, %rcx
	callq	levrun_linfo_inter.9
	popq	%rbx
	popq	%r12
	popq	%r14
	popq	%r15
	popq	%rbp
	.cfi_def_cfa %rsp, 8
	retq
.LBB11_2:                               # %func_levrun_linfo_inter.25
	.cfi_def_cfa %rbp, 16
	movl	%ebx, %edi
	movl	%r12d, %esi
	movq	%r15, %rdx
	movq	%r14, %rcx
	callq	levrun_linfo_inter.25
	popq	%rbx
	popq	%r12
	popq	%r14
	popq	%r15
	popq	%rbp
	.cfi_def_cfa %rsp, 8
	retq
.LBB11_3:                               # %func_levrun_linfo_inter.76
	.cfi_def_cfa %rbp, 16
	movl	%ebx, %edi
	movl	%r12d, %esi
	movq	%r15, %rdx
	movq	%r14, %rcx
	callq	levrun_linfo_inter.76
	popq	%rbx
	popq	%r12
	popq	%r14
	popq	%r15
	popq	%rbp
	.cfi_def_cfa %rsp, 8
	retq
.LBB11_4:                               # %func_levrun_linfo_inter.97
	.cfi_def_cfa %rbp, 16
	movl	%ebx, %edi
	movl	%r12d, %esi
	movq	%r15, %rdx
	movq	%r14, %rcx
	callq	levrun_linfo_inter.97
	popq	%rbx
	popq	%r12
	popq	%r14
	popq	%r15
	popq	%rbp
	.cfi_def_cfa %rsp, 8
	retq
.LBB11_5:                               # %func_levrun_linfo_inter.116
	.cfi_def_cfa %rbp, 16
	movl	%ebx, %edi
	movl	%r12d, %esi
	movq	%r15, %rdx
	movq	%r14, %rcx
	callq	levrun_linfo_inter.116
	popq	%rbx
	popq	%r12
	popq	%r14
	popq	%r15
	popq	%rbp
	.cfi_def_cfa %rsp, 8
	retq
.LBB11_6:                               # %func_levrun_linfo_inter.131
	.cfi_def_cfa %rbp, 16
	movl	%ebx, %edi
	movl	%r12d, %esi
	movq	%r15, %rdx
	movq	%r14, %rcx
	callq	levrun_linfo_inter.131
	popq	%rbx
	popq	%r12
	popq	%r14
	popq	%r15
	popq	%rbp
	.cfi_def_cfa %rsp, 8
	retq
.LBB11_7:                               # %func_levrun_linfo_inter.156
	.cfi_def_cfa %rbp, 16
	movl	%ebx, %edi
	movl	%r12d, %esi
	movq	%r15, %rdx
	movq	%r14, %rcx
	callq	levrun_linfo_inter.156
	popq	%rbx
	popq	%r12
	popq	%r14
	popq	%r15
	popq	%rbp
	.cfi_def_cfa %rsp, 8
	retq
.LBB11_8:                               # %func_levrun_linfo_inter.157
	.cfi_def_cfa %rbp, 16
	movl	%ebx, %edi
	movl	%r12d, %esi
	movq	%r15, %rdx
	movq	%r14, %rcx
	callq	levrun_linfo_inter.157
	popq	%rbx
	popq	%r12
	popq	%r14
	popq	%r15
	popq	%rbp
	.cfi_def_cfa %rsp, 8
	retq
.LBB11_9:                               # %ctrl0
	.cfi_def_cfa %rbp, 16
	cmpl	$1, %eax
	je	.LBB11_2
# %bb.10:                               # %ctrl1
	cmpl	$2, %eax
	je	.LBB11_3
# %bb.11:                               # %ctrl2
	cmpl	$3, %eax
	je	.LBB11_4
# %bb.12:                               # %ctrl3
	cmpl	$4, %eax
	je	.LBB11_5
# %bb.13:                               # %ctrl4
	cmpl	$5, %eax
	je	.LBB11_6
# %bb.14:                               # %ctrl5
	cmpl	$6, %eax
	je	.LBB11_7
	jmp	.LBB11_8
.Lfunc_end11:
	.size	levrun_linfo_inter, .Lfunc_end11-levrun_linfo_inter
	.cfi_endproc
                                        # -- End function
	.globl	levrun_linfo_intra      # -- Begin function levrun_linfo_intra
	.p2align	4, 0x90
	.type	levrun_linfo_intra,@function
levrun_linfo_intra:                     # @levrun_linfo_intra
	.cfi_startproc
# %bb.0:                                # %rand_bb
	pushq	%rbp
	.cfi_def_cfa_offset 16
	.cfi_offset %rbp, -16
	movq	%rsp, %rbp
	.cfi_def_cfa_register %rbp
	pushq	%r15
	pushq	%r14
	pushq	%r12
	pushq	%rbx
	.cfi_offset %rbx, -48
	.cfi_offset %r12, -40
	.cfi_offset %r14, -32
	.cfi_offset %r15, -24
	movq	%rcx, %r14
	movq	%rdx, %r15
	movl	%esi, %r12d
	movl	%edi, %ebx
	callq	get_rand
	cmpl	$0, %eax
	jne	.LBB12_9
# %bb.1:                                # %func_levrun_linfo_intra.1
	movl	%ebx, %edi
	movl	%r12d, %esi
	movq	%r15, %rdx
	movq	%r14, %rcx
	callq	levrun_linfo_intra.1
	popq	%rbx
	popq	%r12
	popq	%r14
	popq	%r15
	popq	%rbp
	.cfi_def_cfa %rsp, 8
	retq
.LBB12_2:                               # %func_levrun_linfo_intra.2
	.cfi_def_cfa %rbp, 16
	movl	%ebx, %edi
	movl	%r12d, %esi
	movq	%r15, %rdx
	movq	%r14, %rcx
	callq	levrun_linfo_intra.2
	popq	%rbx
	popq	%r12
	popq	%r14
	popq	%r15
	popq	%rbp
	.cfi_def_cfa %rsp, 8
	retq
.LBB12_3:                               # %func_levrun_linfo_intra.43
	.cfi_def_cfa %rbp, 16
	movl	%ebx, %edi
	movl	%r12d, %esi
	movq	%r15, %rdx
	movq	%r14, %rcx
	callq	levrun_linfo_intra.43
	popq	%rbx
	popq	%r12
	popq	%r14
	popq	%r15
	popq	%rbp
	.cfi_def_cfa %rsp, 8
	retq
.LBB12_4:                               # %func_levrun_linfo_intra.80
	.cfi_def_cfa %rbp, 16
	movl	%ebx, %edi
	movl	%r12d, %esi
	movq	%r15, %rdx
	movq	%r14, %rcx
	callq	levrun_linfo_intra.80
	popq	%rbx
	popq	%r12
	popq	%r14
	popq	%r15
	popq	%rbp
	.cfi_def_cfa %rsp, 8
	retq
.LBB12_5:                               # %func_levrun_linfo_intra.82
	.cfi_def_cfa %rbp, 16
	movl	%ebx, %edi
	movl	%r12d, %esi
	movq	%r15, %rdx
	movq	%r14, %rcx
	callq	levrun_linfo_intra.82
	popq	%rbx
	popq	%r12
	popq	%r14
	popq	%r15
	popq	%rbp
	.cfi_def_cfa %rsp, 8
	retq
.LBB12_6:                               # %func_levrun_linfo_intra.106
	.cfi_def_cfa %rbp, 16
	movl	%ebx, %edi
	movl	%r12d, %esi
	movq	%r15, %rdx
	movq	%r14, %rcx
	callq	levrun_linfo_intra.106
	popq	%rbx
	popq	%r12
	popq	%r14
	popq	%r15
	popq	%rbp
	.cfi_def_cfa %rsp, 8
	retq
.LBB12_7:                               # %func_levrun_linfo_intra.140
	.cfi_def_cfa %rbp, 16
	movl	%ebx, %edi
	movl	%r12d, %esi
	movq	%r15, %rdx
	movq	%r14, %rcx
	callq	levrun_linfo_intra.140
	popq	%rbx
	popq	%r12
	popq	%r14
	popq	%r15
	popq	%rbp
	.cfi_def_cfa %rsp, 8
	retq
.LBB12_8:                               # %func_levrun_linfo_intra.141
	.cfi_def_cfa %rbp, 16
	movl	%ebx, %edi
	movl	%r12d, %esi
	movq	%r15, %rdx
	movq	%r14, %rcx
	callq	levrun_linfo_intra.141
	popq	%rbx
	popq	%r12
	popq	%r14
	popq	%r15
	popq	%rbp
	.cfi_def_cfa %rsp, 8
	retq
.LBB12_9:                               # %ctrl0
	.cfi_def_cfa %rbp, 16
	cmpl	$1, %eax
	je	.LBB12_2
# %bb.10:                               # %ctrl1
	cmpl	$2, %eax
	je	.LBB12_3
# %bb.11:                               # %ctrl2
	cmpl	$3, %eax
	je	.LBB12_4
# %bb.12:                               # %ctrl3
	cmpl	$4, %eax
	je	.LBB12_5
# %bb.13:                               # %ctrl4
	cmpl	$5, %eax
	je	.LBB12_6
# %bb.14:                               # %ctrl5
	cmpl	$6, %eax
	je	.LBB12_7
	jmp	.LBB12_8
.Lfunc_end12:
	.size	levrun_linfo_intra, .Lfunc_end12-levrun_linfo_intra
	.cfi_endproc
                                        # -- End function
	.globl	symbol2uvlc             # -- Begin function symbol2uvlc
	.p2align	4, 0x90
	.type	symbol2uvlc,@function
symbol2uvlc:                            # @symbol2uvlc
	.cfi_startproc
# %bb.0:                                # %rand_bb
	pushq	%rbp
	.cfi_def_cfa_offset 16
	.cfi_offset %rbp, -16
	movq	%rsp, %rbp
	.cfi_def_cfa_register %rbp
	pushq	%rbx
	pushq	%rax
	.cfi_offset %rbx, -24
	movq	%rdi, %rbx
	callq	get_rand
	cmpl	$0, %eax
	jne	.LBB13_2
# %bb.1:                                # %func_symbol2uvlc.18
	movq	%rbx, %rdi
	callq	symbol2uvlc.18
	addq	$8, %rsp
	popq	%rbx
	popq	%rbp
	.cfi_def_cfa %rsp, 8
	retq
.LBB13_2:                               # %func_symbol2uvlc.95
	.cfi_def_cfa %rbp, 16
	movq	%rbx, %rdi
	callq	symbol2uvlc.95
	addq	$8, %rsp
	popq	%rbx
	popq	%rbp
	.cfi_def_cfa %rsp, 8
	retq
.Lfunc_end13:
	.size	symbol2uvlc, .Lfunc_end13-symbol2uvlc
	.cfi_endproc
                                        # -- End function
	.globl	writeUVLC2buffer        # -- Begin function writeUVLC2buffer
	.p2align	4, 0x90
	.type	writeUVLC2buffer,@function
writeUVLC2buffer:                       # @writeUVLC2buffer
	.cfi_startproc
# %bb.0:                                # %rand_bb
	pushq	%rbp
	.cfi_def_cfa_offset 16
	.cfi_offset %rbp, -16
	movq	%rsp, %rbp
	.cfi_def_cfa_register %rbp
	pushq	%r14
	pushq	%rbx
	.cfi_offset %rbx, -32
	.cfi_offset %r14, -24
	movq	%rsi, %r14
	movq	%rdi, %rbx
	callq	get_rand
	cmpl	$0, %eax
	jne	.LBB14_9
# %bb.1:                                # %func_writeUVLC2buffer.42
	movq	%rbx, %rdi
	movq	%r14, %rsi
	callq	writeUVLC2buffer.42
	popq	%rbx
	popq	%r14
	popq	%rbp
	.cfi_def_cfa %rsp, 8
	retq
.LBB14_2:                               # %func_writeUVLC2buffer.49
	.cfi_def_cfa %rbp, 16
	movq	%rbx, %rdi
	movq	%r14, %rsi
	callq	writeUVLC2buffer.49
	popq	%rbx
	popq	%r14
	popq	%rbp
	.cfi_def_cfa %rsp, 8
	retq
.LBB14_3:                               # %func_writeUVLC2buffer.54
	.cfi_def_cfa %rbp, 16
	movq	%rbx, %rdi
	movq	%r14, %rsi
	callq	writeUVLC2buffer.54
	popq	%rbx
	popq	%r14
	popq	%rbp
	.cfi_def_cfa %rsp, 8
	retq
.LBB14_4:                               # %func_writeUVLC2buffer.62
	.cfi_def_cfa %rbp, 16
	movq	%rbx, %rdi
	movq	%r14, %rsi
	callq	writeUVLC2buffer.62
	popq	%rbx
	popq	%r14
	popq	%rbp
	.cfi_def_cfa %rsp, 8
	retq
.LBB14_5:                               # %func_writeUVLC2buffer.66
	.cfi_def_cfa %rbp, 16
	movq	%rbx, %rdi
	movq	%r14, %rsi
	callq	writeUVLC2buffer.66
	popq	%rbx
	popq	%r14
	popq	%rbp
	.cfi_def_cfa %rsp, 8
	retq
.LBB14_6:                               # %func_writeUVLC2buffer.73
	.cfi_def_cfa %rbp, 16
	movq	%rbx, %rdi
	movq	%r14, %rsi
	callq	writeUVLC2buffer.73
	popq	%rbx
	popq	%r14
	popq	%rbp
	.cfi_def_cfa %rsp, 8
	retq
.LBB14_7:                               # %func_writeUVLC2buffer.88
	.cfi_def_cfa %rbp, 16
	movq	%rbx, %rdi
	movq	%r14, %rsi
	callq	writeUVLC2buffer.88
	popq	%rbx
	popq	%r14
	popq	%rbp
	.cfi_def_cfa %rsp, 8
	retq
.LBB14_8:                               # %func_writeUVLC2buffer.102
	.cfi_def_cfa %rbp, 16
	movq	%rbx, %rdi
	movq	%r14, %rsi
	callq	writeUVLC2buffer.102
	popq	%rbx
	popq	%r14
	popq	%rbp
	.cfi_def_cfa %rsp, 8
	retq
.LBB14_9:                               # %ctrl0
	.cfi_def_cfa %rbp, 16
	cmpl	$1, %eax
	je	.LBB14_2
# %bb.10:                               # %ctrl1
	cmpl	$2, %eax
	je	.LBB14_3
# %bb.11:                               # %ctrl2
	cmpl	$3, %eax
	je	.LBB14_4
# %bb.12:                               # %ctrl3
	cmpl	$4, %eax
	je	.LBB14_5
# %bb.13:                               # %ctrl4
	cmpl	$5, %eax
	je	.LBB14_6
# %bb.14:                               # %ctrl5
	cmpl	$6, %eax
	je	.LBB14_7
	jmp	.LBB14_8
.Lfunc_end14:
	.size	writeUVLC2buffer, .Lfunc_end14-writeUVLC2buffer
	.cfi_endproc
                                        # -- End function
	.globl	writeSyntaxElement_Intra4x4PredictionMode # -- Begin function writeSyntaxElement_Intra4x4PredictionMode
	.p2align	4, 0x90
	.type	writeSyntaxElement_Intra4x4PredictionMode,@function
writeSyntaxElement_Intra4x4PredictionMode: # @writeSyntaxElement_Intra4x4PredictionMode
	.cfi_startproc
# %bb.0:                                # %rand_bb
	pushq	%rbp
	.cfi_def_cfa_offset 16
	.cfi_offset %rbp, -16
	movq	%rsp, %rbp
	.cfi_def_cfa_register %rbp
	pushq	%r14
	pushq	%rbx
	.cfi_offset %rbx, -32
	.cfi_offset %r14, -24
	movq	%rsi, %r14
	movq	%rdi, %rbx
	callq	get_rand
	cmpl	$0, %eax
	jne	.LBB15_2
# %bb.1:                                # %func_writeSyntaxElement_Intra4x4PredictionMode.38
	movq	%rbx, %rdi
	movq	%r14, %rsi
	callq	writeSyntaxElement_Intra4x4PredictionMode.38
	popq	%rbx
	popq	%r14
	popq	%rbp
	.cfi_def_cfa %rsp, 8
	retq
.LBB15_2:                               # %func_writeSyntaxElement_Intra4x4PredictionMode.53
	.cfi_def_cfa %rbp, 16
	movq	%rbx, %rdi
	movq	%r14, %rsi
	callq	writeSyntaxElement_Intra4x4PredictionMode.53
	popq	%rbx
	popq	%r14
	popq	%rbp
	.cfi_def_cfa %rsp, 8
	retq
.Lfunc_end15:
	.size	writeSyntaxElement_Intra4x4PredictionMode, .Lfunc_end15-writeSyntaxElement_Intra4x4PredictionMode
	.cfi_endproc
                                        # -- End function
	.globl	writeSyntaxElement2Buf_UVLC # -- Begin function writeSyntaxElement2Buf_UVLC
	.p2align	4, 0x90
	.type	writeSyntaxElement2Buf_UVLC,@function
writeSyntaxElement2Buf_UVLC:            # @writeSyntaxElement2Buf_UVLC
	.cfi_startproc
# %bb.0:                                # %rand_bb
	pushq	%rbp
	.cfi_def_cfa_offset 16
	.cfi_offset %rbp, -16
	movq	%rsp, %rbp
	.cfi_def_cfa_register %rbp
	pushq	%r14
	pushq	%rbx
	.cfi_offset %rbx, -32
	.cfi_offset %r14, -24
	movq	%rsi, %r14
	movq	%rdi, %rbx
	callq	get_rand
	cmpl	$0, %eax
	jne	.LBB16_2
# %bb.1:                                # %func_writeSyntaxElement2Buf_UVLC.11
	movq	%rbx, %rdi
	movq	%r14, %rsi
	callq	writeSyntaxElement2Buf_UVLC.11
	popq	%rbx
	popq	%r14
	popq	%rbp
	.cfi_def_cfa %rsp, 8
	retq
.LBB16_2:                               # %func_writeSyntaxElement2Buf_UVLC.31
	.cfi_def_cfa %rbp, 16
	movq	%rbx, %rdi
	movq	%r14, %rsi
	callq	writeSyntaxElement2Buf_UVLC.31
	popq	%rbx
	popq	%r14
	popq	%rbp
	.cfi_def_cfa %rsp, 8
	retq
.Lfunc_end16:
	.size	writeSyntaxElement2Buf_UVLC, .Lfunc_end16-writeSyntaxElement2Buf_UVLC
	.cfi_endproc
                                        # -- End function
	.globl	writeSyntaxElement2Buf_Fixed # -- Begin function writeSyntaxElement2Buf_Fixed
	.p2align	4, 0x90
	.type	writeSyntaxElement2Buf_Fixed,@function
writeSyntaxElement2Buf_Fixed:           # @writeSyntaxElement2Buf_Fixed
	.cfi_startproc
# %bb.0:                                # %rand_bb
	pushq	%rbp
	.cfi_def_cfa_offset 16
	.cfi_offset %rbp, -16
	movq	%rsp, %rbp
	.cfi_def_cfa_register %rbp
	pushq	%r14
	pushq	%rbx
	.cfi_offset %rbx, -32
	.cfi_offset %r14, -24
	movq	%rsi, %r14
	movq	%rdi, %rbx
	callq	get_rand
	cmpl	$0, %eax
	jne	.LBB17_2
# %bb.1:                                # %func_writeSyntaxElement2Buf_Fixed.20
	movq	%rbx, %rdi
	movq	%r14, %rsi
	callq	writeSyntaxElement2Buf_Fixed.20
	popq	%rbx
	popq	%r14
	popq	%rbp
	.cfi_def_cfa %rsp, 8
	retq
.LBB17_2:                               # %func_writeSyntaxElement2Buf_Fixed.39
	.cfi_def_cfa %rbp, 16
	movq	%rbx, %rdi
	movq	%r14, %rsi
	callq	writeSyntaxElement2Buf_Fixed.39
	popq	%rbx
	popq	%r14
	popq	%rbp
	.cfi_def_cfa %rsp, 8
	retq
.Lfunc_end17:
	.size	writeSyntaxElement2Buf_Fixed, .Lfunc_end17-writeSyntaxElement2Buf_Fixed
	.cfi_endproc
                                        # -- End function
	.globl	symbol2vlc              # -- Begin function symbol2vlc
	.p2align	4, 0x90
	.type	symbol2vlc,@function
symbol2vlc:                             # @symbol2vlc
	.cfi_startproc
# %bb.0:                                # %rand_bb
	pushq	%rbp
	.cfi_def_cfa_offset 16
	.cfi_offset %rbp, -16
	movq	%rsp, %rbp
	.cfi_def_cfa_register %rbp
	pushq	%rbx
	pushq	%rax
	.cfi_offset %rbx, -24
	movq	%rdi, %rbx
	callq	get_rand
	cmpl	$0, %eax
	jne	.LBB18_2
# %bb.1:                                # %func_symbol2vlc.29
	movq	%rbx, %rdi
	callq	symbol2vlc.29
	addq	$8, %rsp
	popq	%rbx
	popq	%rbp
	.cfi_def_cfa %rsp, 8
	retq
.LBB18_2:                               # %func_symbol2vlc.55
	.cfi_def_cfa %rbp, 16
	movq	%rbx, %rdi
	callq	symbol2vlc.55
	addq	$8, %rsp
	popq	%rbx
	popq	%rbp
	.cfi_def_cfa %rsp, 8
	retq
.Lfunc_end18:
	.size	symbol2vlc, .Lfunc_end18-symbol2vlc
	.cfi_endproc
                                        # -- End function
	.globl	writeSyntaxElement_VLC  # -- Begin function writeSyntaxElement_VLC
	.p2align	4, 0x90
	.type	writeSyntaxElement_VLC,@function
writeSyntaxElement_VLC:                 # @writeSyntaxElement_VLC
	.cfi_startproc
# %bb.0:                                # %rand_bb
	pushq	%rbp
	.cfi_def_cfa_offset 16
	.cfi_offset %rbp, -16
	movq	%rsp, %rbp
	.cfi_def_cfa_register %rbp
	pushq	%r14
	pushq	%rbx
	.cfi_offset %rbx, -32
	.cfi_offset %r14, -24
	movq	%rsi, %r14
	movq	%rdi, %rbx
	callq	get_rand
	cmpl	$0, %eax
	jne	.LBB19_2
# %bb.1:                                # %func_writeSyntaxElement_VLC.7
	movq	%rbx, %rdi
	movq	%r14, %rsi
	callq	writeSyntaxElement_VLC.7
	popq	%rbx
	popq	%r14
	popq	%rbp
	.cfi_def_cfa %rsp, 8
	retq
.LBB19_2:                               # %func_writeSyntaxElement_VLC.113
	.cfi_def_cfa %rbp, 16
	movq	%rbx, %rdi
	movq	%r14, %rsi
	callq	writeSyntaxElement_VLC.113
	popq	%rbx
	popq	%r14
	popq	%rbp
	.cfi_def_cfa %rsp, 8
	retq
.Lfunc_end19:
	.size	writeSyntaxElement_VLC, .Lfunc_end19-writeSyntaxElement_VLC
	.cfi_endproc
                                        # -- End function
	.globl	writeSyntaxElement_NumCoeffTrailingOnes # -- Begin function writeSyntaxElement_NumCoeffTrailingOnes
	.p2align	4, 0x90
	.type	writeSyntaxElement_NumCoeffTrailingOnes,@function
writeSyntaxElement_NumCoeffTrailingOnes: # @writeSyntaxElement_NumCoeffTrailingOnes
	.cfi_startproc
# %bb.0:                                # %rand_bb
	pushq	%rbp
	.cfi_def_cfa_offset 16
	.cfi_offset %rbp, -16
	movq	%rsp, %rbp
	.cfi_def_cfa_register %rbp
	pushq	%r14
	pushq	%rbx
	.cfi_offset %rbx, -32
	.cfi_offset %r14, -24
	movq	%rsi, %r14
	movq	%rdi, %rbx
	callq	get_rand
	cmpl	$0, %eax
	jne	.LBB20_7
# %bb.1:                                # %func_writeSyntaxElement_NumCoeffTrailingOnes.3
	movq	%rbx, %rdi
	movq	%r14, %rsi
	callq	writeSyntaxElement_NumCoeffTrailingOnes.3
	popq	%rbx
	popq	%r14
	popq	%rbp
	.cfi_def_cfa %rsp, 8
	retq
.LBB20_2:                               # %func_writeSyntaxElement_NumCoeffTrailingOnes.26
	.cfi_def_cfa %rbp, 16
	movq	%rbx, %rdi
	movq	%r14, %rsi
	callq	writeSyntaxElement_NumCoeffTrailingOnes.26
	popq	%rbx
	popq	%r14
	popq	%rbp
	.cfi_def_cfa %rsp, 8
	retq
.LBB20_3:                               # %func_writeSyntaxElement_NumCoeffTrailingOnes.64
	.cfi_def_cfa %rbp, 16
	movq	%rbx, %rdi
	movq	%r14, %rsi
	callq	writeSyntaxElement_NumCoeffTrailingOnes.64
	popq	%rbx
	popq	%r14
	popq	%rbp
	.cfi_def_cfa %rsp, 8
	retq
.LBB20_4:                               # %func_writeSyntaxElement_NumCoeffTrailingOnes.79
	.cfi_def_cfa %rbp, 16
	movq	%rbx, %rdi
	movq	%r14, %rsi
	callq	writeSyntaxElement_NumCoeffTrailingOnes.79
	popq	%rbx
	popq	%r14
	popq	%rbp
	.cfi_def_cfa %rsp, 8
	retq
.LBB20_5:                               # %func_writeSyntaxElement_NumCoeffTrailingOnes.83
	.cfi_def_cfa %rbp, 16
	movq	%rbx, %rdi
	movq	%r14, %rsi
	callq	writeSyntaxElement_NumCoeffTrailingOnes.83
	popq	%rbx
	popq	%r14
	popq	%rbp
	.cfi_def_cfa %rsp, 8
	retq
.LBB20_6:                               # %func_writeSyntaxElement_NumCoeffTrailingOnes.129
	.cfi_def_cfa %rbp, 16
	movq	%rbx, %rdi
	movq	%r14, %rsi
	callq	writeSyntaxElement_NumCoeffTrailingOnes.129
	popq	%rbx
	popq	%r14
	popq	%rbp
	.cfi_def_cfa %rsp, 8
	retq
.LBB20_7:                               # %ctrl0
	.cfi_def_cfa %rbp, 16
	cmpl	$1, %eax
	je	.LBB20_2
# %bb.8:                                # %ctrl1
	cmpl	$2, %eax
	je	.LBB20_3
# %bb.9:                                # %ctrl2
	cmpl	$3, %eax
	je	.LBB20_4
# %bb.10:                               # %ctrl3
	cmpl	$4, %eax
	je	.LBB20_5
	jmp	.LBB20_6
.Lfunc_end20:
	.size	writeSyntaxElement_NumCoeffTrailingOnes, .Lfunc_end20-writeSyntaxElement_NumCoeffTrailingOnes
	.cfi_endproc
                                        # -- End function
	.globl	writeSyntaxElement_NumCoeffTrailingOnesChromaDC # -- Begin function writeSyntaxElement_NumCoeffTrailingOnesChromaDC
	.p2align	4, 0x90
	.type	writeSyntaxElement_NumCoeffTrailingOnesChromaDC,@function
writeSyntaxElement_NumCoeffTrailingOnesChromaDC: # @writeSyntaxElement_NumCoeffTrailingOnesChromaDC
	.cfi_startproc
# %bb.0:                                # %rand_bb
	pushq	%rbp
	.cfi_def_cfa_offset 16
	.cfi_offset %rbp, -16
	movq	%rsp, %rbp
	.cfi_def_cfa_register %rbp
	pushq	%r14
	pushq	%rbx
	.cfi_offset %rbx, -32
	.cfi_offset %r14, -24
	movq	%rsi, %r14
	movq	%rdi, %rbx
	callq	get_rand
	cmpl	$0, %eax
	jne	.LBB21_7
# %bb.1:                                # %func_writeSyntaxElement_NumCoeffTrailingOnesChromaDC.24
	movq	%rbx, %rdi
	movq	%r14, %rsi
	callq	writeSyntaxElement_NumCoeffTrailingOnesChromaDC.24
	popq	%rbx
	popq	%r14
	popq	%rbp
	.cfi_def_cfa %rsp, 8
	retq
.LBB21_2:                               # %func_writeSyntaxElement_NumCoeffTrailingOnesChromaDC.37
	.cfi_def_cfa %rbp, 16
	movq	%rbx, %rdi
	movq	%r14, %rsi
	callq	writeSyntaxElement_NumCoeffTrailingOnesChromaDC.37
	popq	%rbx
	popq	%r14
	popq	%rbp
	.cfi_def_cfa %rsp, 8
	retq
.LBB21_3:                               # %func_writeSyntaxElement_NumCoeffTrailingOnesChromaDC.69
	.cfi_def_cfa %rbp, 16
	movq	%rbx, %rdi
	movq	%r14, %rsi
	callq	writeSyntaxElement_NumCoeffTrailingOnesChromaDC.69
	popq	%rbx
	popq	%r14
	popq	%rbp
	.cfi_def_cfa %rsp, 8
	retq
.LBB21_4:                               # %func_writeSyntaxElement_NumCoeffTrailingOnesChromaDC.118
	.cfi_def_cfa %rbp, 16
	movq	%rbx, %rdi
	movq	%r14, %rsi
	callq	writeSyntaxElement_NumCoeffTrailingOnesChromaDC.118
	popq	%rbx
	popq	%r14
	popq	%rbp
	.cfi_def_cfa %rsp, 8
	retq
.LBB21_5:                               # %func_writeSyntaxElement_NumCoeffTrailingOnesChromaDC.124
	.cfi_def_cfa %rbp, 16
	movq	%rbx, %rdi
	movq	%r14, %rsi
	callq	writeSyntaxElement_NumCoeffTrailingOnesChromaDC.124
	popq	%rbx
	popq	%r14
	popq	%rbp
	.cfi_def_cfa %rsp, 8
	retq
.LBB21_6:                               # %func_writeSyntaxElement_NumCoeffTrailingOnesChromaDC.128
	.cfi_def_cfa %rbp, 16
	movq	%rbx, %rdi
	movq	%r14, %rsi
	callq	writeSyntaxElement_NumCoeffTrailingOnesChromaDC.128
	popq	%rbx
	popq	%r14
	popq	%rbp
	.cfi_def_cfa %rsp, 8
	retq
.LBB21_7:                               # %ctrl0
	.cfi_def_cfa %rbp, 16
	cmpl	$1, %eax
	je	.LBB21_2
# %bb.8:                                # %ctrl1
	cmpl	$2, %eax
	je	.LBB21_3
# %bb.9:                                # %ctrl2
	cmpl	$3, %eax
	je	.LBB21_4
# %bb.10:                               # %ctrl3
	cmpl	$4, %eax
	je	.LBB21_5
	jmp	.LBB21_6
.Lfunc_end21:
	.size	writeSyntaxElement_NumCoeffTrailingOnesChromaDC, .Lfunc_end21-writeSyntaxElement_NumCoeffTrailingOnesChromaDC
	.cfi_endproc
                                        # -- End function
	.globl	writeSyntaxElement_TotalZeros # -- Begin function writeSyntaxElement_TotalZeros
	.p2align	4, 0x90
	.type	writeSyntaxElement_TotalZeros,@function
writeSyntaxElement_TotalZeros:          # @writeSyntaxElement_TotalZeros
	.cfi_startproc
# %bb.0:                                # %rand_bb
	pushq	%rbp
	.cfi_def_cfa_offset 16
	.cfi_offset %rbp, -16
	movq	%rsp, %rbp
	.cfi_def_cfa_register %rbp
	pushq	%r14
	pushq	%rbx
	.cfi_offset %rbx, -32
	.cfi_offset %r14, -24
	movq	%rsi, %r14
	movq	%rdi, %rbx
	callq	get_rand
	cmpl	$0, %eax
	jne	.LBB22_7
# %bb.1:                                # %func_writeSyntaxElement_TotalZeros.17
	movq	%rbx, %rdi
	movq	%r14, %rsi
	callq	writeSyntaxElement_TotalZeros.17
	popq	%rbx
	popq	%r14
	popq	%rbp
	.cfi_def_cfa %rsp, 8
	retq
.LBB22_2:                               # %func_writeSyntaxElement_TotalZeros.23
	.cfi_def_cfa %rbp, 16
	movq	%rbx, %rdi
	movq	%r14, %rsi
	callq	writeSyntaxElement_TotalZeros.23
	popq	%rbx
	popq	%r14
	popq	%rbp
	.cfi_def_cfa %rsp, 8
	retq
.LBB22_3:                               # %func_writeSyntaxElement_TotalZeros.28
	.cfi_def_cfa %rbp, 16
	movq	%rbx, %rdi
	movq	%r14, %rsi
	callq	writeSyntaxElement_TotalZeros.28
	popq	%rbx
	popq	%r14
	popq	%rbp
	.cfi_def_cfa %rsp, 8
	retq
.LBB22_4:                               # %func_writeSyntaxElement_TotalZeros.71
	.cfi_def_cfa %rbp, 16
	movq	%rbx, %rdi
	movq	%r14, %rsi
	callq	writeSyntaxElement_TotalZeros.71
	popq	%rbx
	popq	%r14
	popq	%rbp
	.cfi_def_cfa %rsp, 8
	retq
.LBB22_5:                               # %func_writeSyntaxElement_TotalZeros.86
	.cfi_def_cfa %rbp, 16
	movq	%rbx, %rdi
	movq	%r14, %rsi
	callq	writeSyntaxElement_TotalZeros.86
	popq	%rbx
	popq	%r14
	popq	%rbp
	.cfi_def_cfa %rsp, 8
	retq
.LBB22_6:                               # %func_writeSyntaxElement_TotalZeros.94
	.cfi_def_cfa %rbp, 16
	movq	%rbx, %rdi
	movq	%r14, %rsi
	callq	writeSyntaxElement_TotalZeros.94
	popq	%rbx
	popq	%r14
	popq	%rbp
	.cfi_def_cfa %rsp, 8
	retq
.LBB22_7:                               # %ctrl0
	.cfi_def_cfa %rbp, 16
	cmpl	$1, %eax
	je	.LBB22_2
# %bb.8:                                # %ctrl1
	cmpl	$2, %eax
	je	.LBB22_3
# %bb.9:                                # %ctrl2
	cmpl	$3, %eax
	je	.LBB22_4
# %bb.10:                               # %ctrl3
	cmpl	$4, %eax
	je	.LBB22_5
	jmp	.LBB22_6
.Lfunc_end22:
	.size	writeSyntaxElement_TotalZeros, .Lfunc_end22-writeSyntaxElement_TotalZeros
	.cfi_endproc
                                        # -- End function
	.globl	writeSyntaxElement_TotalZerosChromaDC # -- Begin function writeSyntaxElement_TotalZerosChromaDC
	.p2align	4, 0x90
	.type	writeSyntaxElement_TotalZerosChromaDC,@function
writeSyntaxElement_TotalZerosChromaDC:  # @writeSyntaxElement_TotalZerosChromaDC
	.cfi_startproc
# %bb.0:                                # %rand_bb
	pushq	%rbp
	.cfi_def_cfa_offset 16
	.cfi_offset %rbp, -16
	movq	%rsp, %rbp
	.cfi_def_cfa_register %rbp
	pushq	%r14
	pushq	%rbx
	.cfi_offset %rbx, -32
	.cfi_offset %r14, -24
	movq	%rsi, %r14
	movq	%rdi, %rbx
	callq	get_rand
	cmpl	$0, %eax
	jne	.LBB23_9
# %bb.1:                                # %func_writeSyntaxElement_TotalZerosChromaDC.8
	movq	%rbx, %rdi
	movq	%r14, %rsi
	callq	writeSyntaxElement_TotalZerosChromaDC.8
	popq	%rbx
	popq	%r14
	popq	%rbp
	.cfi_def_cfa %rsp, 8
	retq
.LBB23_2:                               # %func_writeSyntaxElement_TotalZerosChromaDC.30
	.cfi_def_cfa %rbp, 16
	movq	%rbx, %rdi
	movq	%r14, %rsi
	callq	writeSyntaxElement_TotalZerosChromaDC.30
	popq	%rbx
	popq	%r14
	popq	%rbp
	.cfi_def_cfa %rsp, 8
	retq
.LBB23_3:                               # %func_writeSyntaxElement_TotalZerosChromaDC.45
	.cfi_def_cfa %rbp, 16
	movq	%rbx, %rdi
	movq	%r14, %rsi
	callq	writeSyntaxElement_TotalZerosChromaDC.45
	popq	%rbx
	popq	%r14
	popq	%rbp
	.cfi_def_cfa %rsp, 8
	retq
.LBB23_4:                               # %func_writeSyntaxElement_TotalZerosChromaDC.74
	.cfi_def_cfa %rbp, 16
	movq	%rbx, %rdi
	movq	%r14, %rsi
	callq	writeSyntaxElement_TotalZerosChromaDC.74
	popq	%rbx
	popq	%r14
	popq	%rbp
	.cfi_def_cfa %rsp, 8
	retq
.LBB23_5:                               # %func_writeSyntaxElement_TotalZerosChromaDC.96
	.cfi_def_cfa %rbp, 16
	movq	%rbx, %rdi
	movq	%r14, %rsi
	callq	writeSyntaxElement_TotalZerosChromaDC.96
	popq	%rbx
	popq	%r14
	popq	%rbp
	.cfi_def_cfa %rsp, 8
	retq
.LBB23_6:                               # %func_writeSyntaxElement_TotalZerosChromaDC.107
	.cfi_def_cfa %rbp, 16
	movq	%rbx, %rdi
	movq	%r14, %rsi
	callq	writeSyntaxElement_TotalZerosChromaDC.107
	popq	%rbx
	popq	%r14
	popq	%rbp
	.cfi_def_cfa %rsp, 8
	retq
.LBB23_7:                               # %func_writeSyntaxElement_TotalZerosChromaDC.112
	.cfi_def_cfa %rbp, 16
	movq	%rbx, %rdi
	movq	%r14, %rsi
	callq	writeSyntaxElement_TotalZerosChromaDC.112
	popq	%rbx
	popq	%r14
	popq	%rbp
	.cfi_def_cfa %rsp, 8
	retq
.LBB23_8:                               # %func_writeSyntaxElement_TotalZerosChromaDC.122
	.cfi_def_cfa %rbp, 16
	movq	%rbx, %rdi
	movq	%r14, %rsi
	callq	writeSyntaxElement_TotalZerosChromaDC.122
	popq	%rbx
	popq	%r14
	popq	%rbp
	.cfi_def_cfa %rsp, 8
	retq
.LBB23_9:                               # %ctrl0
	.cfi_def_cfa %rbp, 16
	cmpl	$1, %eax
	je	.LBB23_2
# %bb.10:                               # %ctrl1
	cmpl	$2, %eax
	je	.LBB23_3
# %bb.11:                               # %ctrl2
	cmpl	$3, %eax
	je	.LBB23_4
# %bb.12:                               # %ctrl3
	cmpl	$4, %eax
	je	.LBB23_5
# %bb.13:                               # %ctrl4
	cmpl	$5, %eax
	je	.LBB23_6
# %bb.14:                               # %ctrl5
	cmpl	$6, %eax
	je	.LBB23_7
	jmp	.LBB23_8
.Lfunc_end23:
	.size	writeSyntaxElement_TotalZerosChromaDC, .Lfunc_end23-writeSyntaxElement_TotalZerosChromaDC
	.cfi_endproc
                                        # -- End function
	.globl	writeSyntaxElement_Run  # -- Begin function writeSyntaxElement_Run
	.p2align	4, 0x90
	.type	writeSyntaxElement_Run,@function
writeSyntaxElement_Run:                 # @writeSyntaxElement_Run
	.cfi_startproc
# %bb.0:                                # %rand_bb
	pushq	%rbp
	.cfi_def_cfa_offset 16
	.cfi_offset %rbp, -16
	movq	%rsp, %rbp
	.cfi_def_cfa_register %rbp
	pushq	%r14
	pushq	%rbx
	.cfi_offset %rbx, -32
	.cfi_offset %r14, -24
	movq	%rsi, %r14
	movq	%rdi, %rbx
	callq	get_rand
	cmpl	$0, %eax
	jne	.LBB24_7
# %bb.1:                                # %func_writeSyntaxElement_Run.10
	movq	%rbx, %rdi
	movq	%r14, %rsi
	callq	writeSyntaxElement_Run.10
	popq	%rbx
	popq	%r14
	popq	%rbp
	.cfi_def_cfa %rsp, 8
	retq
.LBB24_2:                               # %func_writeSyntaxElement_Run.12
	.cfi_def_cfa %rbp, 16
	movq	%rbx, %rdi
	movq	%r14, %rsi
	callq	writeSyntaxElement_Run.12
	popq	%rbx
	popq	%r14
	popq	%rbp
	.cfi_def_cfa %rsp, 8
	retq
.LBB24_3:                               # %func_writeSyntaxElement_Run.33
	.cfi_def_cfa %rbp, 16
	movq	%rbx, %rdi
	movq	%r14, %rsi
	callq	writeSyntaxElement_Run.33
	popq	%rbx
	popq	%r14
	popq	%rbp
	.cfi_def_cfa %rsp, 8
	retq
.LBB24_4:                               # %func_writeSyntaxElement_Run.44
	.cfi_def_cfa %rbp, 16
	movq	%rbx, %rdi
	movq	%r14, %rsi
	callq	writeSyntaxElement_Run.44
	popq	%rbx
	popq	%r14
	popq	%rbp
	.cfi_def_cfa %rsp, 8
	retq
.LBB24_5:                               # %func_writeSyntaxElement_Run.85
	.cfi_def_cfa %rbp, 16
	movq	%rbx, %rdi
	movq	%r14, %rsi
	callq	writeSyntaxElement_Run.85
	popq	%rbx
	popq	%r14
	popq	%rbp
	.cfi_def_cfa %rsp, 8
	retq
.LBB24_6:                               # %func_writeSyntaxElement_Run.91
	.cfi_def_cfa %rbp, 16
	movq	%rbx, %rdi
	movq	%r14, %rsi
	callq	writeSyntaxElement_Run.91
	popq	%rbx
	popq	%r14
	popq	%rbp
	.cfi_def_cfa %rsp, 8
	retq
.LBB24_7:                               # %ctrl0
	.cfi_def_cfa %rbp, 16
	cmpl	$1, %eax
	je	.LBB24_2
# %bb.8:                                # %ctrl1
	cmpl	$2, %eax
	je	.LBB24_3
# %bb.9:                                # %ctrl2
	cmpl	$3, %eax
	je	.LBB24_4
# %bb.10:                               # %ctrl3
	cmpl	$4, %eax
	je	.LBB24_5
	jmp	.LBB24_6
.Lfunc_end24:
	.size	writeSyntaxElement_Run, .Lfunc_end24-writeSyntaxElement_Run
	.cfi_endproc
                                        # -- End function
	.globl	writeSyntaxElement_Level_VLC1 # -- Begin function writeSyntaxElement_Level_VLC1
	.p2align	4, 0x90
	.type	writeSyntaxElement_Level_VLC1,@function
writeSyntaxElement_Level_VLC1:          # @writeSyntaxElement_Level_VLC1
	.cfi_startproc
# %bb.0:                                # %rand_bb
	pushq	%rbp
	.cfi_def_cfa_offset 16
	.cfi_offset %rbp, -16
	movq	%rsp, %rbp
	.cfi_def_cfa_register %rbp
	pushq	%r14
	pushq	%rbx
	.cfi_offset %rbx, -32
	.cfi_offset %r14, -24
	movq	%rsi, %r14
	movq	%rdi, %rbx
	callq	get_rand
	cmpl	$0, %eax
	jne	.LBB25_9
# %bb.1:                                # %func_writeSyntaxElement_Level_VLC1.56
	movq	%rbx, %rdi
	movq	%r14, %rsi
	callq	writeSyntaxElement_Level_VLC1.56
	popq	%rbx
	popq	%r14
	popq	%rbp
	.cfi_def_cfa %rsp, 8
	retq
.LBB25_2:                               # %func_writeSyntaxElement_Level_VLC1.75
	.cfi_def_cfa %rbp, 16
	movq	%rbx, %rdi
	movq	%r14, %rsi
	callq	writeSyntaxElement_Level_VLC1.75
	popq	%rbx
	popq	%r14
	popq	%rbp
	.cfi_def_cfa %rsp, 8
	retq
.LBB25_3:                               # %func_writeSyntaxElement_Level_VLC1.125
	.cfi_def_cfa %rbp, 16
	movq	%rbx, %rdi
	movq	%r14, %rsi
	callq	writeSyntaxElement_Level_VLC1.125
	popq	%rbx
	popq	%r14
	popq	%rbp
	.cfi_def_cfa %rsp, 8
	retq
.LBB25_4:                               # %func_writeSyntaxElement_Level_VLC1.142
	.cfi_def_cfa %rbp, 16
	movq	%rbx, %rdi
	movq	%r14, %rsi
	callq	writeSyntaxElement_Level_VLC1.142
	popq	%rbx
	popq	%r14
	popq	%rbp
	.cfi_def_cfa %rsp, 8
	retq
.LBB25_5:                               # %func_writeSyntaxElement_Level_VLC1.144
	.cfi_def_cfa %rbp, 16
	movq	%rbx, %rdi
	movq	%r14, %rsi
	callq	writeSyntaxElement_Level_VLC1.144
	popq	%rbx
	popq	%r14
	popq	%rbp
	.cfi_def_cfa %rsp, 8
	retq
.LBB25_6:                               # %func_writeSyntaxElement_Level_VLC1.150
	.cfi_def_cfa %rbp, 16
	movq	%rbx, %rdi
	movq	%r14, %rsi
	callq	writeSyntaxElement_Level_VLC1.150
	popq	%rbx
	popq	%r14
	popq	%rbp
	.cfi_def_cfa %rsp, 8
	retq
.LBB25_7:                               # %func_writeSyntaxElement_Level_VLC1.151
	.cfi_def_cfa %rbp, 16
	movq	%rbx, %rdi
	movq	%r14, %rsi
	callq	writeSyntaxElement_Level_VLC1.151
	popq	%rbx
	popq	%r14
	popq	%rbp
	.cfi_def_cfa %rsp, 8
	retq
.LBB25_8:                               # %func_writeSyntaxElement_Level_VLC1.159
	.cfi_def_cfa %rbp, 16
	movq	%rbx, %rdi
	movq	%r14, %rsi
	callq	writeSyntaxElement_Level_VLC1.159
	popq	%rbx
	popq	%r14
	popq	%rbp
	.cfi_def_cfa %rsp, 8
	retq
.LBB25_9:                               # %ctrl0
	.cfi_def_cfa %rbp, 16
	cmpl	$1, %eax
	je	.LBB25_2
# %bb.10:                               # %ctrl1
	cmpl	$2, %eax
	je	.LBB25_3
# %bb.11:                               # %ctrl2
	cmpl	$3, %eax
	je	.LBB25_4
# %bb.12:                               # %ctrl3
	cmpl	$4, %eax
	je	.LBB25_5
# %bb.13:                               # %ctrl4
	cmpl	$5, %eax
	je	.LBB25_6
# %bb.14:                               # %ctrl5
	cmpl	$6, %eax
	je	.LBB25_7
	jmp	.LBB25_8
.Lfunc_end25:
	.size	writeSyntaxElement_Level_VLC1, .Lfunc_end25-writeSyntaxElement_Level_VLC1
	.cfi_endproc
                                        # -- End function
	.globl	writeSyntaxElement_Level_VLCN # -- Begin function writeSyntaxElement_Level_VLCN
	.p2align	4, 0x90
	.type	writeSyntaxElement_Level_VLCN,@function
writeSyntaxElement_Level_VLCN:          # @writeSyntaxElement_Level_VLCN
	.cfi_startproc
# %bb.0:                                # %rand_bb
	pushq	%rbp
	.cfi_def_cfa_offset 16
	.cfi_offset %rbp, -16
	movq	%rsp, %rbp
	.cfi_def_cfa_register %rbp
	pushq	%r15
	pushq	%r14
	pushq	%rbx
	pushq	%rax
	.cfi_offset %rbx, -40
	.cfi_offset %r14, -32
	.cfi_offset %r15, -24
	movq	%rdx, %r14
	movl	%esi, %r15d
	movq	%rdi, %rbx
	callq	get_rand
	cmpl	$0, %eax
	jne	.LBB26_9
# %bb.1:                                # %func_writeSyntaxElement_Level_VLCN.48
	movq	%rbx, %rdi
	movl	%r15d, %esi
	movq	%r14, %rdx
	callq	writeSyntaxElement_Level_VLCN.48
	addq	$8, %rsp
	popq	%rbx
	popq	%r14
	popq	%r15
	popq	%rbp
	.cfi_def_cfa %rsp, 8
	retq
.LBB26_2:                               # %func_writeSyntaxElement_Level_VLCN.68
	.cfi_def_cfa %rbp, 16
	movq	%rbx, %rdi
	movl	%r15d, %esi
	movq	%r14, %rdx
	callq	writeSyntaxElement_Level_VLCN.68
	addq	$8, %rsp
	popq	%rbx
	popq	%r14
	popq	%r15
	popq	%rbp
	.cfi_def_cfa %rsp, 8
	retq
.LBB26_3:                               # %func_writeSyntaxElement_Level_VLCN.72
	.cfi_def_cfa %rbp, 16
	movq	%rbx, %rdi
	movl	%r15d, %esi
	movq	%r14, %rdx
	callq	writeSyntaxElement_Level_VLCN.72
	addq	$8, %rsp
	popq	%rbx
	popq	%r14
	popq	%r15
	popq	%rbp
	.cfi_def_cfa %rsp, 8
	retq
.LBB26_4:                               # %func_writeSyntaxElement_Level_VLCN.139
	.cfi_def_cfa %rbp, 16
	movq	%rbx, %rdi
	movl	%r15d, %esi
	movq	%r14, %rdx
	callq	writeSyntaxElement_Level_VLCN.139
	addq	$8, %rsp
	popq	%rbx
	popq	%r14
	popq	%r15
	popq	%rbp
	.cfi_def_cfa %rsp, 8
	retq
.LBB26_5:                               # %func_writeSyntaxElement_Level_VLCN.143
	.cfi_def_cfa %rbp, 16
	movq	%rbx, %rdi
	movl	%r15d, %esi
	movq	%r14, %rdx
	callq	writeSyntaxElement_Level_VLCN.143
	addq	$8, %rsp
	popq	%rbx
	popq	%r14
	popq	%r15
	popq	%rbp
	.cfi_def_cfa %rsp, 8
	retq
.LBB26_6:                               # %func_writeSyntaxElement_Level_VLCN.153
	.cfi_def_cfa %rbp, 16
	movq	%rbx, %rdi
	movl	%r15d, %esi
	movq	%r14, %rdx
	callq	writeSyntaxElement_Level_VLCN.153
	addq	$8, %rsp
	popq	%rbx
	popq	%r14
	popq	%r15
	popq	%rbp
	.cfi_def_cfa %rsp, 8
	retq
.LBB26_7:                               # %func_writeSyntaxElement_Level_VLCN.158
	.cfi_def_cfa %rbp, 16
	movq	%rbx, %rdi
	movl	%r15d, %esi
	movq	%r14, %rdx
	callq	writeSyntaxElement_Level_VLCN.158
	addq	$8, %rsp
	popq	%rbx
	popq	%r14
	popq	%r15
	popq	%rbp
	.cfi_def_cfa %rsp, 8
	retq
.LBB26_8:                               # %func_writeSyntaxElement_Level_VLCN.160
	.cfi_def_cfa %rbp, 16
	movq	%rbx, %rdi
	movl	%r15d, %esi
	movq	%r14, %rdx
	callq	writeSyntaxElement_Level_VLCN.160
	addq	$8, %rsp
	popq	%rbx
	popq	%r14
	popq	%r15
	popq	%rbp
	.cfi_def_cfa %rsp, 8
	retq
.LBB26_9:                               # %ctrl0
	.cfi_def_cfa %rbp, 16
	cmpl	$1, %eax
	je	.LBB26_2
# %bb.10:                               # %ctrl1
	cmpl	$2, %eax
	je	.LBB26_3
# %bb.11:                               # %ctrl2
	cmpl	$3, %eax
	je	.LBB26_4
# %bb.12:                               # %ctrl3
	cmpl	$4, %eax
	je	.LBB26_5
# %bb.13:                               # %ctrl4
	cmpl	$5, %eax
	je	.LBB26_6
# %bb.14:                               # %ctrl5
	cmpl	$6, %eax
	je	.LBB26_7
	jmp	.LBB26_8
.Lfunc_end26:
	.size	writeSyntaxElement_Level_VLCN, .Lfunc_end26-writeSyntaxElement_Level_VLCN
	.cfi_endproc
                                        # -- End function
	.globl	writeVlcByteAlign       # -- Begin function writeVlcByteAlign
	.p2align	4, 0x90
	.type	writeVlcByteAlign,@function
writeVlcByteAlign:                      # @writeVlcByteAlign
	.cfi_startproc
# %bb.0:                                # %entry
	pushq	%rbp
	.cfi_def_cfa_offset 16
	.cfi_offset %rbp, -16
	movq	%rsp, %rbp
	.cfi_def_cfa_register %rbp
	movq	%rdi, -8(%rbp)
	movq	-8(%rbp), %rax
	cmpl	$8, 4(%rax)
	jge	.LBB27_2
# %bb.1:                                # %if.then
	movq	-8(%rbp), %rax
	movzbl	8(%rax), %eax
	movq	-8(%rbp), %rcx
	movl	4(%rcx), %ecx
                                        # kill: def $cl killed $ecx
	shll	%cl, %eax
	movq	-8(%rbp), %rdx
	movl	$8, %ecx
	subl	4(%rdx), %ecx
                                        # kill: def $cl killed $ecx
	movl	$255, %edx
	sarl	%cl, %edx
	orl	%edx, %eax
	movq	-8(%rbp), %rcx
	movb	%al, 8(%rcx)
	movq	-8(%rbp), %rax
	movl	4(%rax), %eax
	movq	stats, %rcx
	movq	img, %rdx
	movslq	24(%rdx), %rdx
	addl	1328(%rcx,%rdx,4), %eax
	movl	%eax, 1328(%rcx,%rdx,4)
	movq	-8(%rbp), %rax
	movb	8(%rax), %al
	movq	-8(%rbp), %rcx
	movq	32(%rcx), %rcx
	movq	-8(%rbp), %rdx
	movl	(%rdx), %esi
	movl	%esi, %edi
	addl	$1, %edi
	movl	%edi, (%rdx)
	movslq	%esi, %rdx
	movb	%al, (%rcx,%rdx)
	movq	-8(%rbp), %rax
	movl	$8, 4(%rax)
.LBB27_2:                               # %if.end
	popq	%rbp
	.cfi_def_cfa %rsp, 8
	retq
.Lfunc_end27:
	.size	writeVlcByteAlign, .Lfunc_end27-writeVlcByteAlign
	.cfi_endproc
                                        # -- End function
	.section	.rodata.cst8,"aM",@progbits,8
	.p2align	3               # -- Begin function levrun_linfo_intra.1
.LCPI28_0:
	.quad	4611686018427387904     # double 2
	.text
	.globl	levrun_linfo_intra.1
	.p2align	4, 0x90
	.type	levrun_linfo_intra.1,@function
levrun_linfo_intra.1:                   # @levrun_linfo_intra.1
	.cfi_startproc
# %bb.0:                                # %entry
	pushq	%rbp
	.cfi_def_cfa_offset 16
	.cfi_offset %rbp, -16
	movq	%rsp, %rbp
	.cfi_def_cfa_register %rbp
	pushq	%rbx
	subq	$104, %rsp
	.cfi_offset %rbx, -24
	movl	$908308610, -40(%rbp)   # imm = 0x3623B082
	movl	%edi, -20(%rbp)
	movl	%esi, -16(%rbp)
	movq	%rdx, -48(%rbp)
	movq	%rcx, -64(%rbp)
	movq	.L__const.levrun_linfo_intra.LEVRUN, %rax
	movq	%rax, -56(%rbp)
	leaq	-112(%rbp), %rdi
	movabsq	$.L__const.levrun_linfo_intra.NTAB, %rsi
	movl	$45, %edx
	callq	memcpy
	cmpl	$0, -20(%rbp)
	jne	.LBB28_2
# %bb.1:                                # %if.then
	movq	-48(%rbp), %rax
	movl	$1, (%rax)
	jmp	.LBB28_15
.LBB28_2:                               # %if.end
	cmpl	$0, -20(%rbp)
	jg	.LBB28_4
# %bb.3:                                # %if.then2
	movl	$1, -36(%rbp)
	jmp	.LBB28_5
.LBB28_4:                               # %if.else
	movl	$0, -36(%rbp)
.LBB28_5:                               # %if.end3
	movl	-20(%rbp), %edi
	callq	abs
	movl	%eax, -32(%rbp)
	movl	-32(%rbp), %eax
	movslq	-16(%rbp), %rcx
	movzbl	-56(%rbp,%rcx), %ecx
	cmpl	%ecx, %eax
	jg	.LBB28_7
# %bb.6:                                # %if.then6
	movl	-32(%rbp), %eax
	subl	$1, %eax
	cltq
	imulq	$5, %rax, %rax
	leaq	-112(%rbp), %rcx
	addq	%rax, %rcx
	movslq	-16(%rbp), %rax
	movzbl	(%rcx,%rax), %eax
	addl	$1, %eax
	movl	%eax, -24(%rbp)
	jmp	.LBB28_8
.LBB28_7:                               # %if.else12
	movl	-32(%rbp), %eax
	movslq	-16(%rbp), %rcx
	movzbl	-56(%rbp,%rcx), %ecx
	subl	%ecx, %eax
	shll	$4, %eax
	addl	$16, %eax
	movl	-16(%rbp), %ecx
	shll	$1, %ecx
	addl	%ecx, %eax
	movl	%eax, -24(%rbp)
.LBB28_8:                               # %if.end20
	movl	-24(%rbp), %eax
	cltd
	movl	$2, %ecx
	idivl	%ecx
	movl	%eax, -28(%rbp)
	movl	$0, -12(%rbp)
.LBB28_9:                               # %for.cond
                                        # =>This Inner Loop Header: Depth=1
	xorl	%eax, %eax
	cmpl	$16, -12(%rbp)
	jge	.LBB28_11
# %bb.10:                               # %land.rhs
                                        #   in Loop: Header=BB28_9 Depth=1
	cmpl	$0, -28(%rbp)
	setne	%al
.LBB28_11:                              # %land.end
                                        #   in Loop: Header=BB28_9 Depth=1
	testb	$1, %al
	jne	.LBB28_12
	jmp	.LBB28_14
.LBB28_12:                              # %for.body
                                        #   in Loop: Header=BB28_9 Depth=1
	movl	-28(%rbp), %eax
	cltd
	movl	$2, %ecx
	idivl	%ecx
	movl	%eax, -28(%rbp)
# %bb.13:                               # %for.inc
                                        #   in Loop: Header=BB28_9 Depth=1
	movl	-12(%rbp), %eax
	addl	$1, %eax
	movl	%eax, -12(%rbp)
	jmp	.LBB28_9
.LBB28_14:                              # %for.end
	vmovsd	.LCPI28_0(%rip), %xmm0  # xmm0 = mem[0],zero
	movl	-12(%rbp), %eax
	shll	$1, %eax
	addl	$1, %eax
	movq	-48(%rbp), %rcx
	movl	%eax, (%rcx)
	movl	-24(%rbp), %ebx
	vcvtsi2sdl	-12(%rbp), %xmm0, %xmm1
	callq	pow
	vcvttsd2si	%xmm0, %eax
	subl	%eax, %ebx
	addl	-36(%rbp), %ebx
	movq	-64(%rbp), %rax
	movl	%ebx, (%rax)
.LBB28_15:                              # %return
	cmpl	$908308610, -40(%rbp)   # imm = 0x3623B082
	jne	.LBB28_17
.LBB28_16:
	addq	$104, %rsp
	popq	%rbx
	popq	%rbp
	.cfi_def_cfa %rsp, 8
	retq
.LBB28_17:                              # %func_exit
	.cfi_def_cfa %rbp, 16
	callq	detect_breach
	jmp	.LBB28_16
.Lfunc_end28:
	.size	levrun_linfo_intra.1, .Lfunc_end28-levrun_linfo_intra.1
	.cfi_endproc
                                        # -- End function
	.section	.rodata.cst8,"aM",@progbits,8
	.p2align	3               # -- Begin function levrun_linfo_intra.2
.LCPI29_0:
	.quad	4611686018427387904     # double 2
	.text
	.globl	levrun_linfo_intra.2
	.p2align	4, 0x90
	.type	levrun_linfo_intra.2,@function
levrun_linfo_intra.2:                   # @levrun_linfo_intra.2
	.cfi_startproc
# %bb.0:                                # %entry
	pushq	%rbp
	.cfi_def_cfa_offset 16
	.cfi_offset %rbp, -16
	movq	%rsp, %rbp
	.cfi_def_cfa_register %rbp
	pushq	%rbx
	subq	$104, %rsp
	.cfi_offset %rbx, -24
	movl	$1533998819, -40(%rbp)  # imm = 0x5B6EF6E3
	movl	%edi, -28(%rbp)
	movl	%esi, -16(%rbp)
	movq	%rdx, -48(%rbp)
	movq	%rcx, -64(%rbp)
	movq	.L__const.levrun_linfo_intra.LEVRUN, %rax
	movq	%rax, -56(%rbp)
	leaq	-112(%rbp), %rdi
	movabsq	$.L__const.levrun_linfo_intra.NTAB, %rsi
	movl	$45, %edx
	callq	memcpy
	cmpl	$0, -28(%rbp)
	jne	.LBB29_2
# %bb.1:                                # %if.then
	movq	-48(%rbp), %rax
	movl	$1, (%rax)
	jmp	.LBB29_15
.LBB29_2:                               # %if.end
	cmpl	$0, -28(%rbp)
	jg	.LBB29_4
# %bb.3:                                # %if.then2
	movl	$1, -36(%rbp)
	jmp	.LBB29_5
.LBB29_4:                               # %if.else
	movl	$0, -36(%rbp)
.LBB29_5:                               # %if.end3
	movl	-28(%rbp), %edi
	callq	abs
	movl	%eax, -24(%rbp)
	movl	-24(%rbp), %eax
	movslq	-16(%rbp), %rcx
	movzbl	-56(%rbp,%rcx), %ecx
	cmpl	%ecx, %eax
	jg	.LBB29_7
# %bb.6:                                # %if.then6
	movl	-24(%rbp), %eax
	subl	$1, %eax
	cltq
	imulq	$5, %rax, %rax
	leaq	-112(%rbp), %rcx
	addq	%rax, %rcx
	movslq	-16(%rbp), %rax
	movzbl	(%rcx,%rax), %eax
	addl	$1, %eax
	movl	%eax, -20(%rbp)
	jmp	.LBB29_8
.LBB29_7:                               # %if.else12
	movl	-24(%rbp), %eax
	movslq	-16(%rbp), %rcx
	movzbl	-56(%rbp,%rcx), %ecx
	subl	%ecx, %eax
	shll	$4, %eax
	addl	$16, %eax
	movl	-16(%rbp), %ecx
	shll	$1, %ecx
	addl	%ecx, %eax
	movl	%eax, -20(%rbp)
.LBB29_8:                               # %if.end20
	movl	-20(%rbp), %eax
	cltd
	movl	$2, %ecx
	idivl	%ecx
	movl	%eax, -32(%rbp)
	movl	$0, -12(%rbp)
.LBB29_9:                               # %for.cond
                                        # =>This Inner Loop Header: Depth=1
	xorl	%eax, %eax
	cmpl	$16, -12(%rbp)
	jge	.LBB29_11
# %bb.10:                               # %land.rhs
                                        #   in Loop: Header=BB29_9 Depth=1
	cmpl	$0, -32(%rbp)
	setne	%al
.LBB29_11:                              # %land.end
                                        #   in Loop: Header=BB29_9 Depth=1
	testb	$1, %al
	jne	.LBB29_12
	jmp	.LBB29_14
.LBB29_12:                              # %for.body
                                        #   in Loop: Header=BB29_9 Depth=1
	movl	-32(%rbp), %eax
	cltd
	movl	$2, %ecx
	idivl	%ecx
	movl	%eax, -32(%rbp)
# %bb.13:                               # %for.inc
                                        #   in Loop: Header=BB29_9 Depth=1
	movl	-12(%rbp), %eax
	addl	$1, %eax
	movl	%eax, -12(%rbp)
	jmp	.LBB29_9
.LBB29_14:                              # %for.end
	vmovsd	.LCPI29_0(%rip), %xmm0  # xmm0 = mem[0],zero
	movl	-12(%rbp), %eax
	shll	$1, %eax
	addl	$1, %eax
	movq	-48(%rbp), %rcx
	movl	%eax, (%rcx)
	movl	-20(%rbp), %ebx
	vcvtsi2sdl	-12(%rbp), %xmm0, %xmm1
	callq	pow
	vcvttsd2si	%xmm0, %eax
	subl	%eax, %ebx
	addl	-36(%rbp), %ebx
	movq	-64(%rbp), %rax
	movl	%ebx, (%rax)
.LBB29_15:                              # %return
	cmpl	$1533998819, -40(%rbp)  # imm = 0x5B6EF6E3
	jne	.LBB29_17
.LBB29_16:
	addq	$104, %rsp
	popq	%rbx
	popq	%rbp
	.cfi_def_cfa %rsp, 8
	retq
.LBB29_17:                              # %func_exit
	.cfi_def_cfa %rbp, 16
	callq	detect_breach
	jmp	.LBB29_16
.Lfunc_end29:
	.size	levrun_linfo_intra.2, .Lfunc_end29-levrun_linfo_intra.2
	.cfi_endproc
                                        # -- End function
	.globl	writeSyntaxElement_NumCoeffTrailingOnes.3 # -- Begin function writeSyntaxElement_NumCoeffTrailingOnes.3
	.p2align	4, 0x90
	.type	writeSyntaxElement_NumCoeffTrailingOnes.3,@function
writeSyntaxElement_NumCoeffTrailingOnes.3: # @writeSyntaxElement_NumCoeffTrailingOnes.3
	.cfi_startproc
# %bb.0:                                # %entry
	pushq	%rbp
	.cfi_def_cfa_offset 16
	.cfi_offset %rbp, -16
	movq	%rsp, %rbp
	.cfi_def_cfa_register %rbp
	pushq	%rbx
	subq	$24, %rsp
	.cfi_offset %rbx, -24
	movl	$626113726, -24(%rbp)   # imm = 0x2551BCBE
	movq	%rdi, -16(%rbp)
	movq	%rsi, -32(%rbp)
	movq	-16(%rbp), %rax
	movl	12(%rax), %eax
	movl	%eax, -20(%rbp)
	cmpl	$3, -20(%rbp)
	jne	.LBB30_5
# %bb.1:                                # %if.then
	movq	-16(%rbp), %rax
	movl	$6, 12(%rax)
	movq	-16(%rbp), %rax
	cmpl	$0, 4(%rax)
	jle	.LBB30_3
# %bb.2:                                # %if.then3
	movq	-16(%rbp), %rax
	movl	4(%rax), %eax
	subl	$1, %eax
	shll	$2, %eax
	movq	-16(%rbp), %rcx
	orl	8(%rcx), %eax
	movq	-16(%rbp), %rcx
	movl	%eax, 16(%rcx)
	jmp	.LBB30_4
.LBB30_3:                               # %if.else
	movq	-16(%rbp), %rax
	movl	$3, 16(%rax)
.LBB30_4:                               # %if.end
	jmp	.LBB30_6
.LBB30_5:                               # %if.else6
	movslq	-20(%rbp), %rax
	imulq	$272, %rax, %rax        # imm = 0x110
	movabsq	$writeSyntaxElement_NumCoeffTrailingOnes.lentab, %rcx
	addq	%rax, %rcx
	movq	-16(%rbp), %rax
	movslq	8(%rax), %rax
	imulq	$68, %rax, %rax
	addq	%rax, %rcx
	movq	-16(%rbp), %rax
	movslq	4(%rax), %rax
	movl	(%rcx,%rax,4), %eax
	movq	-16(%rbp), %rcx
	movl	%eax, 12(%rcx)
	movslq	-20(%rbp), %rax
	imulq	$272, %rax, %rax        # imm = 0x110
	movabsq	$writeSyntaxElement_NumCoeffTrailingOnes.codtab, %rcx
	addq	%rax, %rcx
	movq	-16(%rbp), %rax
	movslq	8(%rax), %rax
	imulq	$68, %rax, %rax
	addq	%rax, %rcx
	movq	-16(%rbp), %rax
	movslq	4(%rax), %rax
	movl	(%rcx,%rax,4), %eax
	movq	-16(%rbp), %rcx
	movl	%eax, 16(%rcx)
.LBB30_6:                               # %if.end23
	movq	-16(%rbp), %rax
	cmpl	$0, 12(%rax)
	jne	.LBB30_8
# %bb.7:                                # %if.then26
	movl	-20(%rbp), %esi
	movq	-16(%rbp), %rax
	movl	4(%rax), %edx
	movq	-16(%rbp), %rax
	movl	8(%rax), %ecx
	movabsq	$.L.str, %rdi
	movb	$0, %al
	callq	printf
	movl	$4294967295, %edi       # imm = 0xFFFFFFFF
	callq	exit
.LBB30_8:                               # %if.end29
	movq	-16(%rbp), %rdi
	callq	symbol2vlc
	movq	-16(%rbp), %rdi
	movq	-32(%rbp), %rax
	movq	(%rax), %rsi
	callq	writeUVLC2buffer
	movq	-16(%rbp), %rax
	movl	12(%rax), %ebx
	cmpl	$626113726, -24(%rbp)   # imm = 0x2551BCBE
	jne	.LBB30_10
.LBB30_9:
	movl	%ebx, %eax
	addq	$24, %rsp
	popq	%rbx
	popq	%rbp
	.cfi_def_cfa %rsp, 8
	retq
.LBB30_10:                              # %func_exit
	.cfi_def_cfa %rbp, 16
	callq	detect_breach
	jmp	.LBB30_9
.Lfunc_end30:
	.size	writeSyntaxElement_NumCoeffTrailingOnes.3, .Lfunc_end30-writeSyntaxElement_NumCoeffTrailingOnes.3
	.cfi_endproc
                                        # -- End function
	.section	.rodata.cst8,"aM",@progbits,8
	.p2align	3               # -- Begin function levrun_linfo_c2x2.4
.LCPI31_0:
	.quad	4611686018427387904     # double 2
	.text
	.globl	levrun_linfo_c2x2.4
	.p2align	4, 0x90
	.type	levrun_linfo_c2x2.4,@function
levrun_linfo_c2x2.4:                    # @levrun_linfo_c2x2.4
	.cfi_startproc
# %bb.0:                                # %entry
	pushq	%rbp
	.cfi_def_cfa_offset 16
	.cfi_offset %rbp, -16
	movq	%rsp, %rbp
	.cfi_def_cfa_register %rbp
	pushq	%rbx
	subq	$88, %rsp
	.cfi_offset %rbx, -24
	movl	$961194165, -40(%rbp)   # imm = 0x394AA8B5
	movl	%edi, -32(%rbp)
	movl	%esi, -16(%rbp)
	movq	%rdx, -48(%rbp)
	movq	%rcx, -72(%rbp)
	movq	.L__const.levrun_linfo_c2x2.NTAB, %rax
	movq	%rax, -96(%rbp)
	movq	.L__const.levrun_linfo_c2x2.NTAB+8, %rax
	movq	%rax, -88(%rbp)
	movq	.L__const.levrun_linfo_c2x2.LEVRUN, %rax
	movq	%rax, -64(%rbp)
	movq	.L__const.levrun_linfo_c2x2.LEVRUN+8, %rax
	movq	%rax, -56(%rbp)
	cmpl	$0, -32(%rbp)
	jne	.LBB31_2
# %bb.1:                                # %if.then
	movq	-48(%rbp), %rax
	movl	$1, (%rax)
	jmp	.LBB31_14
.LBB31_2:                               # %if.end
	movl	$0, -36(%rbp)
	cmpl	$0, -32(%rbp)
	jg	.LBB31_4
# %bb.3:                                # %if.then2
	movl	$1, -36(%rbp)
.LBB31_4:                               # %if.end3
	movl	-32(%rbp), %edi
	callq	abs
	movl	%eax, -24(%rbp)
	movl	-24(%rbp), %eax
	movslq	-16(%rbp), %rcx
	cmpl	-64(%rbp,%rcx,4), %eax
	jg	.LBB31_6
# %bb.5:                                # %if.then5
	movl	-24(%rbp), %eax
	subl	$1, %eax
	cltq
	shlq	$3, %rax
	leaq	-96(%rbp), %rcx
	addq	%rax, %rcx
	movslq	-16(%rbp), %rax
	movl	(%rcx,%rax,4), %eax
	addl	$1, %eax
	movl	%eax, -28(%rbp)
	jmp	.LBB31_7
.LBB31_6:                               # %if.else
	movl	-24(%rbp), %eax
	movslq	-16(%rbp), %rcx
	subl	-64(%rbp,%rcx,4), %eax
	shll	$3, %eax
	movl	-16(%rbp), %ecx
	shll	$1, %ecx
	addl	%ecx, %eax
	movl	%eax, -28(%rbp)
.LBB31_7:                               # %if.end15
	movl	-28(%rbp), %eax
	cltd
	movl	$2, %ecx
	idivl	%ecx
	movl	%eax, -20(%rbp)
	movl	$0, -12(%rbp)
.LBB31_8:                               # %for.cond
                                        # =>This Inner Loop Header: Depth=1
	xorl	%eax, %eax
	cmpl	$16, -12(%rbp)
	jge	.LBB31_10
# %bb.9:                                # %land.rhs
                                        #   in Loop: Header=BB31_8 Depth=1
	cmpl	$0, -20(%rbp)
	setne	%al
.LBB31_10:                              # %land.end
                                        #   in Loop: Header=BB31_8 Depth=1
	testb	$1, %al
	jne	.LBB31_11
	jmp	.LBB31_13
.LBB31_11:                              # %for.body
                                        #   in Loop: Header=BB31_8 Depth=1
	movl	-20(%rbp), %eax
	cltd
	movl	$2, %ecx
	idivl	%ecx
	movl	%eax, -20(%rbp)
# %bb.12:                               # %for.inc
                                        #   in Loop: Header=BB31_8 Depth=1
	movl	-12(%rbp), %eax
	addl	$1, %eax
	movl	%eax, -12(%rbp)
	jmp	.LBB31_8
.LBB31_13:                              # %for.end
	vmovsd	.LCPI31_0(%rip), %xmm0  # xmm0 = mem[0],zero
	movl	-12(%rbp), %eax
	shll	$1, %eax
	addl	$1, %eax
	movq	-48(%rbp), %rcx
	movl	%eax, (%rcx)
	movl	-28(%rbp), %ebx
	vcvtsi2sdl	-12(%rbp), %xmm0, %xmm1
	callq	pow
	vcvttsd2si	%xmm0, %eax
	subl	%eax, %ebx
	addl	-36(%rbp), %ebx
	movq	-72(%rbp), %rax
	movl	%ebx, (%rax)
.LBB31_14:                              # %return
	cmpl	$961194165, -40(%rbp)   # imm = 0x394AA8B5
	jne	.LBB31_16
.LBB31_15:
	addq	$88, %rsp
	popq	%rbx
	popq	%rbp
	.cfi_def_cfa %rsp, 8
	retq
.LBB31_16:                              # %func_exit
	.cfi_def_cfa %rbp, 16
	callq	detect_breach
	jmp	.LBB31_15
.Lfunc_end31:
	.size	levrun_linfo_c2x2.4, .Lfunc_end31-levrun_linfo_c2x2.4
	.cfi_endproc
                                        # -- End function
	.globl	u_1.5                   # -- Begin function u_1.5
	.p2align	4, 0x90
	.type	u_1.5,@function
u_1.5:                                  # @u_1.5
	.cfi_startproc
# %bb.0:                                # %entry
	pushq	%rbp
	.cfi_def_cfa_offset 16
	.cfi_offset %rbp, -16
	movq	%rsp, %rbp
	.cfi_def_cfa_register %rbp
	pushq	%rbx
	subq	$88, %rsp
	.cfi_offset %rbx, -24
	movl	$1090269482, -24(%rbp)  # imm = 0x40FC312A
	movq	%rdi, -40(%rbp)
	movl	%esi, -20(%rbp)
	movq	%rdx, -32(%rbp)
	leaq	-88(%rbp), %rax
	movq	%rax, -16(%rbp)
	movl	-20(%rbp), %eax
	movq	-16(%rbp), %rcx
	movl	%eax, 20(%rcx)
	movq	-16(%rbp), %rax
	movl	$1, 12(%rax)
	movq	-16(%rbp), %rax
	movl	$0, (%rax)
	movl	-20(%rbp), %eax
	movq	-16(%rbp), %rcx
	movl	%eax, 4(%rcx)
	movq	-16(%rbp), %rax
	movl	$0, 8(%rax)
	movq	-16(%rbp), %rdi
	movq	-32(%rbp), %rsi
	callq	writeSyntaxElement_fixed
	movl	%eax, %ebx
	cmpl	$1090269482, -24(%rbp)  # imm = 0x40FC312A
	jne	.LBB32_2
.LBB32_1:
	movl	%ebx, %eax
	addq	$88, %rsp
	popq	%rbx
	popq	%rbp
	.cfi_def_cfa %rsp, 8
	retq
.LBB32_2:                               # %func_exit
	.cfi_def_cfa %rbp, 16
	callq	detect_breach
	jmp	.LBB32_1
.Lfunc_end32:
	.size	u_1.5, .Lfunc_end32-u_1.5
	.cfi_endproc
                                        # -- End function
	.globl	u_v.6                   # -- Begin function u_v.6
	.p2align	4, 0x90
	.type	u_v.6,@function
u_v.6:                                  # @u_v.6
	.cfi_startproc
# %bb.0:                                # %entry
	pushq	%rbp
	.cfi_def_cfa_offset 16
	.cfi_offset %rbp, -16
	movq	%rsp, %rbp
	.cfi_def_cfa_register %rbp
	pushq	%rbx
	subq	$88, %rsp
	.cfi_offset %rbx, -24
	movl	$6830921, -24(%rbp)     # imm = 0x683B49
	movl	%edi, -28(%rbp)
	movq	%rsi, -48(%rbp)
	movl	%edx, -20(%rbp)
	movq	%rcx, -40(%rbp)
	leaq	-96(%rbp), %rax
	movq	%rax, -16(%rbp)
	movl	-20(%rbp), %eax
	movq	-16(%rbp), %rcx
	movl	%eax, 20(%rcx)
	movl	-28(%rbp), %eax
	movq	-16(%rbp), %rcx
	movl	%eax, 12(%rcx)
	movq	-16(%rbp), %rax
	movl	$0, (%rax)
	movl	-20(%rbp), %eax
	movq	-16(%rbp), %rcx
	movl	%eax, 4(%rcx)
	movq	-16(%rbp), %rax
	movl	$0, 8(%rax)
	movq	-16(%rbp), %rdi
	movq	-40(%rbp), %rsi
	callq	writeSyntaxElement_fixed
	movl	%eax, %ebx
	cmpl	$6830921, -24(%rbp)     # imm = 0x683B49
	jne	.LBB33_2
.LBB33_1:
	movl	%ebx, %eax
	addq	$88, %rsp
	popq	%rbx
	popq	%rbp
	.cfi_def_cfa %rsp, 8
	retq
.LBB33_2:                               # %func_exit
	.cfi_def_cfa %rbp, 16
	callq	detect_breach
	jmp	.LBB33_1
.Lfunc_end33:
	.size	u_v.6, .Lfunc_end33-u_v.6
	.cfi_endproc
                                        # -- End function
	.globl	writeSyntaxElement_VLC.7 # -- Begin function writeSyntaxElement_VLC.7
	.p2align	4, 0x90
	.type	writeSyntaxElement_VLC.7,@function
writeSyntaxElement_VLC.7:               # @writeSyntaxElement_VLC.7
	.cfi_startproc
# %bb.0:                                # %entry
	pushq	%rbp
	.cfi_def_cfa_offset 16
	.cfi_offset %rbp, -16
	movq	%rsp, %rbp
	.cfi_def_cfa_register %rbp
	pushq	%rbx
	subq	$24, %rsp
	.cfi_offset %rbx, -24
	movl	$2007558923, -20(%rbp)  # imm = 0x77A8EB0B
	movq	%rdi, -16(%rbp)
	movq	%rsi, -32(%rbp)
	movq	-16(%rbp), %rax
	movl	4(%rax), %eax
	movq	-16(%rbp), %rcx
	movl	%eax, 16(%rcx)
	movq	-16(%rbp), %rax
	movl	8(%rax), %eax
	movq	-16(%rbp), %rcx
	movl	%eax, 12(%rcx)
	movq	-16(%rbp), %rdi
	callq	symbol2vlc
	movq	-16(%rbp), %rdi
	movq	-32(%rbp), %rax
	movq	(%rax), %rsi
	callq	writeUVLC2buffer
	movq	-16(%rbp), %rax
	movl	12(%rax), %ebx
	cmpl	$2007558923, -20(%rbp)  # imm = 0x77A8EB0B
	jne	.LBB34_2
.LBB34_1:
	movl	%ebx, %eax
	addq	$24, %rsp
	popq	%rbx
	popq	%rbp
	.cfi_def_cfa %rsp, 8
	retq
.LBB34_2:                               # %func_exit
	.cfi_def_cfa %rbp, 16
	callq	detect_breach
	jmp	.LBB34_1
.Lfunc_end34:
	.size	writeSyntaxElement_VLC.7, .Lfunc_end34-writeSyntaxElement_VLC.7
	.cfi_endproc
                                        # -- End function
	.globl	writeSyntaxElement_TotalZerosChromaDC.8 # -- Begin function writeSyntaxElement_TotalZerosChromaDC.8
	.p2align	4, 0x90
	.type	writeSyntaxElement_TotalZerosChromaDC.8,@function
writeSyntaxElement_TotalZerosChromaDC.8: # @writeSyntaxElement_TotalZerosChromaDC.8
	.cfi_startproc
# %bb.0:                                # %entry
	pushq	%rbp
	.cfi_def_cfa_offset 16
	.cfi_offset %rbp, -16
	movq	%rsp, %rbp
	.cfi_def_cfa_register %rbp
	pushq	%rbx
	subq	$40, %rsp
	.cfi_offset %rbx, -24
	movabsq	$writeSyntaxElement_TotalZerosChromaDC.codtab, %rax
	movabsq	$writeSyntaxElement_TotalZerosChromaDC.lentab, %rcx
	movl	$830935309, -28(%rbp)   # imm = 0x3187110D
	movq	%rdi, -16(%rbp)
	movq	%rsi, -40(%rbp)
	movq	img, %rdx
	movl	72700(%rdx), %edx
	subl	$1, %edx
	movl	%edx, -24(%rbp)
	movq	-16(%rbp), %rdx
	movl	12(%rdx), %edx
	movl	%edx, -20(%rbp)
	movslq	-24(%rbp), %rdx
	imulq	$960, %rdx, %rdx        # imm = 0x3C0
	addq	%rdx, %rcx
	movslq	-20(%rbp), %rdx
	shlq	$6, %rdx
	addq	%rdx, %rcx
	movq	-16(%rbp), %rdx
	movslq	4(%rdx), %rdx
	movl	(%rcx,%rdx,4), %ecx
	movq	-16(%rbp), %rdx
	movl	%ecx, 12(%rdx)
	movslq	-24(%rbp), %rcx
	imulq	$960, %rcx, %rcx        # imm = 0x3C0
	addq	%rcx, %rax
	movslq	-20(%rbp), %rcx
	shlq	$6, %rcx
	addq	%rcx, %rax
	movq	-16(%rbp), %rcx
	movslq	4(%rcx), %rcx
	movl	(%rax,%rcx,4), %eax
	movq	-16(%rbp), %rcx
	movl	%eax, 16(%rcx)
	movq	-16(%rbp), %rax
	cmpl	$0, 12(%rax)
	jne	.LBB35_2
# %bb.1:                                # %if.then
	movq	-16(%rbp), %rax
	movl	4(%rax), %esi
	movabsq	$.L.str.2, %rdi
	movb	$0, %al
	callq	printf
	movl	$4294967295, %edi       # imm = 0xFFFFFFFF
	callq	exit
.LBB35_2:                               # %if.end
	movq	-16(%rbp), %rdi
	callq	symbol2vlc
	movq	-16(%rbp), %rdi
	movq	-40(%rbp), %rax
	movq	(%rax), %rsi
	callq	writeUVLC2buffer
	movq	-16(%rbp), %rax
	movl	12(%rax), %ebx
	cmpl	$830935309, -28(%rbp)   # imm = 0x3187110D
	jne	.LBB35_4
.LBB35_3:
	movl	%ebx, %eax
	addq	$40, %rsp
	popq	%rbx
	popq	%rbp
	.cfi_def_cfa %rsp, 8
	retq
.LBB35_4:                               # %func_exit
	.cfi_def_cfa %rbp, 16
	callq	detect_breach
	jmp	.LBB35_3
.Lfunc_end35:
	.size	writeSyntaxElement_TotalZerosChromaDC.8, .Lfunc_end35-writeSyntaxElement_TotalZerosChromaDC.8
	.cfi_endproc
                                        # -- End function
	.section	.rodata.cst8,"aM",@progbits,8
	.p2align	3               # -- Begin function levrun_linfo_inter.9
.LCPI36_0:
	.quad	4611686018427387904     # double 2
	.text
	.globl	levrun_linfo_inter.9
	.p2align	4, 0x90
	.type	levrun_linfo_inter.9,@function
levrun_linfo_inter.9:                   # @levrun_linfo_inter.9
	.cfi_startproc
# %bb.0:                                # %entry
	pushq	%rbp
	.cfi_def_cfa_offset 16
	.cfi_offset %rbp, -16
	movq	%rsp, %rbp
	.cfi_def_cfa_register %rbp
	pushq	%rbx
	subq	$104, %rsp
	.cfi_offset %rbx, -24
	movl	$1669833239, -40(%rbp)  # imm = 0x6387A217
	movl	%edi, -28(%rbp)
	movl	%esi, -16(%rbp)
	movq	%rdx, -48(%rbp)
	movq	%rcx, -72(%rbp)
	movq	.L__const.levrun_linfo_inter.LEVRUN, %rax
	movq	%rax, -64(%rbp)
	movq	.L__const.levrun_linfo_inter.LEVRUN+8, %rax
	movq	%rax, -56(%rbp)
	leaq	-112(%rbp), %rdi
	movabsq	$.L__const.levrun_linfo_inter.NTAB, %rsi
	movl	$40, %edx
	callq	memcpy
	cmpl	$0, -28(%rbp)
	jne	.LBB36_2
# %bb.1:                                # %if.then
	movq	-48(%rbp), %rax
	movl	$1, (%rax)
	jmp	.LBB36_15
.LBB36_2:                               # %if.end
	cmpl	$0, -28(%rbp)
	jg	.LBB36_4
# %bb.3:                                # %if.then2
	movl	$1, -36(%rbp)
	jmp	.LBB36_5
.LBB36_4:                               # %if.else
	movl	$0, -36(%rbp)
.LBB36_5:                               # %if.end3
	movl	-28(%rbp), %edi
	callq	abs
	movl	%eax, -20(%rbp)
	movl	-20(%rbp), %eax
	movslq	-16(%rbp), %rcx
	movzbl	-64(%rbp,%rcx), %ecx
	cmpl	%ecx, %eax
	jg	.LBB36_7
# %bb.6:                                # %if.then6
	movl	-20(%rbp), %eax
	subl	$1, %eax
	cltq
	imulq	$10, %rax, %rax
	leaq	-112(%rbp), %rcx
	addq	%rax, %rcx
	movslq	-16(%rbp), %rax
	movzbl	(%rcx,%rax), %eax
	addl	$1, %eax
	movl	%eax, -32(%rbp)
	jmp	.LBB36_8
.LBB36_7:                               # %if.else12
	movl	-20(%rbp), %eax
	movslq	-16(%rbp), %rcx
	movzbl	-64(%rbp,%rcx), %ecx
	subl	%ecx, %eax
	shll	$5, %eax
	movl	-16(%rbp), %ecx
	shll	$1, %ecx
	addl	%ecx, %eax
	movl	%eax, -32(%rbp)
.LBB36_8:                               # %if.end19
	movl	-32(%rbp), %eax
	cltd
	movl	$2, %ecx
	idivl	%ecx
	movl	%eax, -24(%rbp)
	movl	$0, -12(%rbp)
.LBB36_9:                               # %for.cond
                                        # =>This Inner Loop Header: Depth=1
	xorl	%eax, %eax
	cmpl	$16, -12(%rbp)
	jge	.LBB36_11
# %bb.10:                               # %land.rhs
                                        #   in Loop: Header=BB36_9 Depth=1
	cmpl	$0, -24(%rbp)
	setne	%al
.LBB36_11:                              # %land.end
                                        #   in Loop: Header=BB36_9 Depth=1
	testb	$1, %al
	jne	.LBB36_12
	jmp	.LBB36_14
.LBB36_12:                              # %for.body
                                        #   in Loop: Header=BB36_9 Depth=1
	movl	-24(%rbp), %eax
	cltd
	movl	$2, %ecx
	idivl	%ecx
	movl	%eax, -24(%rbp)
# %bb.13:                               # %for.inc
                                        #   in Loop: Header=BB36_9 Depth=1
	movl	-12(%rbp), %eax
	addl	$1, %eax
	movl	%eax, -12(%rbp)
	jmp	.LBB36_9
.LBB36_14:                              # %for.end
	vmovsd	.LCPI36_0(%rip), %xmm0  # xmm0 = mem[0],zero
	movl	-12(%rbp), %eax
	shll	$1, %eax
	addl	$1, %eax
	movq	-48(%rbp), %rcx
	movl	%eax, (%rcx)
	movl	-32(%rbp), %ebx
	vcvtsi2sdl	-12(%rbp), %xmm0, %xmm1
	callq	pow
	vcvttsd2si	%xmm0, %eax
	subl	%eax, %ebx
	addl	-36(%rbp), %ebx
	movq	-72(%rbp), %rax
	movl	%ebx, (%rax)
.LBB36_15:                              # %return
	cmpl	$1669833239, -40(%rbp)  # imm = 0x6387A217
	jne	.LBB36_17
.LBB36_16:
	addq	$104, %rsp
	popq	%rbx
	popq	%rbp
	.cfi_def_cfa %rsp, 8
	retq
.LBB36_17:                              # %func_exit
	.cfi_def_cfa %rbp, 16
	callq	detect_breach
	jmp	.LBB36_16
.Lfunc_end36:
	.size	levrun_linfo_inter.9, .Lfunc_end36-levrun_linfo_inter.9
	.cfi_endproc
                                        # -- End function
	.globl	writeSyntaxElement_Run.10 # -- Begin function writeSyntaxElement_Run.10
	.p2align	4, 0x90
	.type	writeSyntaxElement_Run.10,@function
writeSyntaxElement_Run.10:              # @writeSyntaxElement_Run.10
	.cfi_startproc
# %bb.0:                                # %entry
	pushq	%rbp
	.cfi_def_cfa_offset 16
	.cfi_offset %rbp, -16
	movq	%rsp, %rbp
	.cfi_def_cfa_register %rbp
	pushq	%rbx
	subq	$24, %rsp
	.cfi_offset %rbx, -24
	movabsq	$writeSyntaxElement_Run.codtab, %rax
	movabsq	$writeSyntaxElement_Run.lentab, %rcx
	movl	$631883797, -24(%rbp)   # imm = 0x25A9C815
	movq	%rdi, -16(%rbp)
	movq	%rsi, -32(%rbp)
	movq	-16(%rbp), %rdx
	movl	12(%rdx), %edx
	movl	%edx, -20(%rbp)
	movslq	-20(%rbp), %rdx
	shlq	$6, %rdx
	addq	%rdx, %rcx
	movq	-16(%rbp), %rdx
	movslq	4(%rdx), %rdx
	movl	(%rcx,%rdx,4), %ecx
	movq	-16(%rbp), %rdx
	movl	%ecx, 12(%rdx)
	movslq	-20(%rbp), %rcx
	shlq	$6, %rcx
	addq	%rcx, %rax
	movq	-16(%rbp), %rcx
	movslq	4(%rcx), %rcx
	movl	(%rax,%rcx,4), %eax
	movq	-16(%rbp), %rcx
	movl	%eax, 16(%rcx)
	movq	-16(%rbp), %rax
	cmpl	$0, 12(%rax)
	jne	.LBB37_2
# %bb.1:                                # %if.then
	movq	-16(%rbp), %rax
	movl	4(%rax), %esi
	movabsq	$.L.str.3, %rdi
	movb	$0, %al
	callq	printf
	movl	$4294967295, %edi       # imm = 0xFFFFFFFF
	callq	exit
.LBB37_2:                               # %if.end
	movq	-16(%rbp), %rdi
	callq	symbol2vlc
	movq	-16(%rbp), %rdi
	movq	-32(%rbp), %rax
	movq	(%rax), %rsi
	callq	writeUVLC2buffer
	movq	-16(%rbp), %rax
	movl	12(%rax), %ebx
	cmpl	$631883797, -24(%rbp)   # imm = 0x25A9C815
	jne	.LBB37_4
.LBB37_3:
	movl	%ebx, %eax
	addq	$24, %rsp
	popq	%rbx
	popq	%rbp
	.cfi_def_cfa %rsp, 8
	retq
.LBB37_4:                               # %func_exit
	.cfi_def_cfa %rbp, 16
	callq	detect_breach
	jmp	.LBB37_3
.Lfunc_end37:
	.size	writeSyntaxElement_Run.10, .Lfunc_end37-writeSyntaxElement_Run.10
	.cfi_endproc
                                        # -- End function
	.globl	writeSyntaxElement2Buf_UVLC.11 # -- Begin function writeSyntaxElement2Buf_UVLC.11
	.p2align	4, 0x90
	.type	writeSyntaxElement2Buf_UVLC.11,@function
writeSyntaxElement2Buf_UVLC.11:         # @writeSyntaxElement2Buf_UVLC.11
	.cfi_startproc
# %bb.0:                                # %entry
	pushq	%rbp
	.cfi_def_cfa_offset 16
	.cfi_offset %rbp, -16
	movq	%rsp, %rbp
	.cfi_def_cfa_register %rbp
	pushq	%rbx
	subq	$24, %rsp
	.cfi_offset %rbx, -24
	movl	$1476599344, -20(%rbp)  # imm = 0x58031E30
	movq	%rdi, -16(%rbp)
	movq	%rsi, -32(%rbp)
	movq	-16(%rbp), %rax
	movq	32(%rax), %rax
	movq	-16(%rbp), %rcx
	movl	4(%rcx), %edi
	movq	-16(%rbp), %rcx
	movl	8(%rcx), %esi
	movq	-16(%rbp), %rdx
	addq	$12, %rdx
	movq	-16(%rbp), %rcx
	addq	$16, %rcx
	callq	*%rax
	movq	-16(%rbp), %rdi
	callq	symbol2uvlc
	movq	-16(%rbp), %rdi
	movq	-32(%rbp), %rsi
	callq	writeUVLC2buffer
	movq	-16(%rbp), %rax
	movl	12(%rax), %ebx
	cmpl	$1476599344, -20(%rbp)  # imm = 0x58031E30
	jne	.LBB38_2
.LBB38_1:
	movl	%ebx, %eax
	addq	$24, %rsp
	popq	%rbx
	popq	%rbp
	.cfi_def_cfa %rsp, 8
	retq
.LBB38_2:                               # %func_exit
	.cfi_def_cfa %rbp, 16
	callq	detect_breach
	jmp	.LBB38_1
.Lfunc_end38:
	.size	writeSyntaxElement2Buf_UVLC.11, .Lfunc_end38-writeSyntaxElement2Buf_UVLC.11
	.cfi_endproc
                                        # -- End function
	.globl	writeSyntaxElement_Run.12 # -- Begin function writeSyntaxElement_Run.12
	.p2align	4, 0x90
	.type	writeSyntaxElement_Run.12,@function
writeSyntaxElement_Run.12:              # @writeSyntaxElement_Run.12
	.cfi_startproc
# %bb.0:                                # %entry
	pushq	%rbp
	.cfi_def_cfa_offset 16
	.cfi_offset %rbp, -16
	movq	%rsp, %rbp
	.cfi_def_cfa_register %rbp
	pushq	%rbx
	subq	$24, %rsp
	.cfi_offset %rbx, -24
	movabsq	$writeSyntaxElement_Run.codtab, %rax
	movabsq	$writeSyntaxElement_Run.lentab, %rcx
	movl	$1960190654, -24(%rbp)  # imm = 0x74D622BE
	movq	%rdi, -16(%rbp)
	movq	%rsi, -32(%rbp)
	movq	-16(%rbp), %rdx
	movl	12(%rdx), %edx
	movl	%edx, -20(%rbp)
	movslq	-20(%rbp), %rdx
	shlq	$6, %rdx
	addq	%rdx, %rcx
	movq	-16(%rbp), %rdx
	movslq	4(%rdx), %rdx
	movl	(%rcx,%rdx,4), %ecx
	movq	-16(%rbp), %rdx
	movl	%ecx, 12(%rdx)
	movslq	-20(%rbp), %rcx
	shlq	$6, %rcx
	addq	%rcx, %rax
	movq	-16(%rbp), %rcx
	movslq	4(%rcx), %rcx
	movl	(%rax,%rcx,4), %eax
	movq	-16(%rbp), %rcx
	movl	%eax, 16(%rcx)
	movq	-16(%rbp), %rax
	cmpl	$0, 12(%rax)
	jne	.LBB39_2
# %bb.1:                                # %if.then
	movq	-16(%rbp), %rax
	movl	4(%rax), %esi
	movabsq	$.L.str.3, %rdi
	movb	$0, %al
	callq	printf
	movl	$4294967295, %edi       # imm = 0xFFFFFFFF
	callq	exit
.LBB39_2:                               # %if.end
	movq	-16(%rbp), %rdi
	callq	symbol2vlc
	movq	-16(%rbp), %rdi
	movq	-32(%rbp), %rax
	movq	(%rax), %rsi
	callq	writeUVLC2buffer
	movq	-16(%rbp), %rax
	movl	12(%rax), %ebx
	cmpl	$1960190654, -24(%rbp)  # imm = 0x74D622BE
	jne	.LBB39_4
.LBB39_3:
	movl	%ebx, %eax
	addq	$24, %rsp
	popq	%rbx
	popq	%rbp
	.cfi_def_cfa %rsp, 8
	retq
.LBB39_4:                               # %func_exit
	.cfi_def_cfa %rbp, 16
	callq	detect_breach
	jmp	.LBB39_3
.Lfunc_end39:
	.size	writeSyntaxElement_Run.12, .Lfunc_end39-writeSyntaxElement_Run.12
	.cfi_endproc
                                        # -- End function
	.section	.rodata.cst8,"aM",@progbits,8
	.p2align	3               # -- Begin function se_linfo.13
.LCPI40_0:
	.quad	4611686018427387904     # double 2
	.text
	.globl	se_linfo.13
	.p2align	4, 0x90
	.type	se_linfo.13,@function
se_linfo.13:                            # @se_linfo.13
	.cfi_startproc
# %bb.0:                                # %entry
	pushq	%rbp
	.cfi_def_cfa_offset 16
	.cfi_offset %rbp, -16
	movq	%rsp, %rbp
	.cfi_def_cfa_register %rbp
	pushq	%rbx
	subq	$56, %rsp
	.cfi_offset %rbx, -24
	movl	$1445065660, -32(%rbp)  # imm = 0x5621F3BC
	movl	%edi, -28(%rbp)
	movl	%esi, -52(%rbp)
	movq	%rdx, -40(%rbp)
	movq	%rcx, -48(%rbp)
	movl	$0, -24(%rbp)
	cmpl	$0, -28(%rbp)
	jg	.LBB40_2
# %bb.1:                                # %if.then
	movl	$1, -24(%rbp)
.LBB40_2:                               # %if.end
	movl	-28(%rbp), %edi
	callq	abs
	shll	$1, %eax
	movl	%eax, -20(%rbp)
	movl	-20(%rbp), %eax
	cltd
	movl	$2, %ecx
	idivl	%ecx
	movl	%eax, -16(%rbp)
	movl	$0, -12(%rbp)
.LBB40_3:                               # %for.cond
                                        # =>This Inner Loop Header: Depth=1
	xorl	%eax, %eax
	cmpl	$16, -12(%rbp)
	jge	.LBB40_5
# %bb.4:                                # %land.rhs
                                        #   in Loop: Header=BB40_3 Depth=1
	cmpl	$0, -16(%rbp)
	setne	%al
.LBB40_5:                               # %land.end
                                        #   in Loop: Header=BB40_3 Depth=1
	testb	$1, %al
	jne	.LBB40_6
	jmp	.LBB40_8
.LBB40_6:                               # %for.body
                                        #   in Loop: Header=BB40_3 Depth=1
	movl	-16(%rbp), %eax
	cltd
	movl	$2, %ecx
	idivl	%ecx
	movl	%eax, -16(%rbp)
# %bb.7:                                # %for.inc
                                        #   in Loop: Header=BB40_3 Depth=1
	movl	-12(%rbp), %eax
	addl	$1, %eax
	movl	%eax, -12(%rbp)
	jmp	.LBB40_3
.LBB40_8:                               # %for.end
	vmovsd	.LCPI40_0(%rip), %xmm0  # xmm0 = mem[0],zero
	movl	-12(%rbp), %eax
	shll	$1, %eax
	addl	$1, %eax
	movq	-40(%rbp), %rcx
	movl	%eax, (%rcx)
	movl	-20(%rbp), %ebx
	vcvtsi2sdl	-12(%rbp), %xmm0, %xmm1
	callq	pow
	vcvttsd2si	%xmm0, %eax
	subl	%eax, %ebx
	addl	-24(%rbp), %ebx
	movq	-48(%rbp), %rax
	movl	%ebx, (%rax)
	cmpl	$1445065660, -32(%rbp)  # imm = 0x5621F3BC
	jne	.LBB40_10
.LBB40_9:
	addq	$56, %rsp
	popq	%rbx
	popq	%rbp
	.cfi_def_cfa %rsp, 8
	retq
.LBB40_10:                              # %func_exit
	.cfi_def_cfa %rbp, 16
	callq	detect_breach
	jmp	.LBB40_9
.Lfunc_end40:
	.size	se_linfo.13, .Lfunc_end40-se_linfo.13
	.cfi_endproc
                                        # -- End function
	.section	.rodata.cst8,"aM",@progbits,8
	.p2align	3               # -- Begin function se_linfo.14
.LCPI41_0:
	.quad	4611686018427387904     # double 2
	.text
	.globl	se_linfo.14
	.p2align	4, 0x90
	.type	se_linfo.14,@function
se_linfo.14:                            # @se_linfo.14
	.cfi_startproc
# %bb.0:                                # %entry
	pushq	%rbp
	.cfi_def_cfa_offset 16
	.cfi_offset %rbp, -16
	movq	%rsp, %rbp
	.cfi_def_cfa_register %rbp
	pushq	%rbx
	subq	$56, %rsp
	.cfi_offset %rbx, -24
	movl	$2065020290, -32(%rbp)  # imm = 0x7B15B582
	movl	%edi, -28(%rbp)
	movl	%esi, -52(%rbp)
	movq	%rdx, -40(%rbp)
	movq	%rcx, -48(%rbp)
	movl	$0, -24(%rbp)
	cmpl	$0, -28(%rbp)
	jg	.LBB41_2
# %bb.1:                                # %if.then
	movl	$1, -24(%rbp)
.LBB41_2:                               # %if.end
	movl	-28(%rbp), %edi
	callq	abs
	shll	$1, %eax
	movl	%eax, -20(%rbp)
	movl	-20(%rbp), %eax
	cltd
	movl	$2, %ecx
	idivl	%ecx
	movl	%eax, -16(%rbp)
	movl	$0, -12(%rbp)
.LBB41_3:                               # %for.cond
                                        # =>This Inner Loop Header: Depth=1
	xorl	%eax, %eax
	cmpl	$16, -12(%rbp)
	jge	.LBB41_5
# %bb.4:                                # %land.rhs
                                        #   in Loop: Header=BB41_3 Depth=1
	cmpl	$0, -16(%rbp)
	setne	%al
.LBB41_5:                               # %land.end
                                        #   in Loop: Header=BB41_3 Depth=1
	testb	$1, %al
	jne	.LBB41_6
	jmp	.LBB41_8
.LBB41_6:                               # %for.body
                                        #   in Loop: Header=BB41_3 Depth=1
	movl	-16(%rbp), %eax
	cltd
	movl	$2, %ecx
	idivl	%ecx
	movl	%eax, -16(%rbp)
# %bb.7:                                # %for.inc
                                        #   in Loop: Header=BB41_3 Depth=1
	movl	-12(%rbp), %eax
	addl	$1, %eax
	movl	%eax, -12(%rbp)
	jmp	.LBB41_3
.LBB41_8:                               # %for.end
	vmovsd	.LCPI41_0(%rip), %xmm0  # xmm0 = mem[0],zero
	movl	-12(%rbp), %eax
	shll	$1, %eax
	addl	$1, %eax
	movq	-40(%rbp), %rcx
	movl	%eax, (%rcx)
	movl	-20(%rbp), %ebx
	vcvtsi2sdl	-12(%rbp), %xmm0, %xmm1
	callq	pow
	vcvttsd2si	%xmm0, %eax
	subl	%eax, %ebx
	addl	-24(%rbp), %ebx
	movq	-48(%rbp), %rax
	movl	%ebx, (%rax)
	cmpl	$2065020290, -32(%rbp)  # imm = 0x7B15B582
	jne	.LBB41_10
.LBB41_9:
	addq	$56, %rsp
	popq	%rbx
	popq	%rbp
	.cfi_def_cfa %rsp, 8
	retq
.LBB41_10:                              # %func_exit
	.cfi_def_cfa %rbp, 16
	callq	detect_breach
	jmp	.LBB41_9
.Lfunc_end41:
	.size	se_linfo.14, .Lfunc_end41-se_linfo.14
	.cfi_endproc
                                        # -- End function
	.globl	cbp_linfo_inter.15      # -- Begin function cbp_linfo_inter.15
	.p2align	4, 0x90
	.type	cbp_linfo_inter.15,@function
cbp_linfo_inter.15:                     # @cbp_linfo_inter.15
	.cfi_startproc
# %bb.0:                                # %entry
	pushq	%rbp
	.cfi_def_cfa_offset 16
	.cfi_offset %rbp, -16
	movq	%rsp, %rbp
	.cfi_def_cfa_register %rbp
	subq	$32, %rsp
	xorl	%eax, %eax
	movl	$1532361356, -8(%rbp)   # imm = 0x5B55FA8C
	movl	%edi, -12(%rbp)
	movl	%esi, -4(%rbp)
	movq	%rdx, -32(%rbp)
	movq	%rcx, -24(%rbp)
	movq	img, %rcx
	movl	72700(%rcx), %ecx
	cmpl	$0, %ecx
	movl	$1, %ecx
	cmovnel	%ecx, %eax
	cltq
	imulq	$96, %rax, %rax
	movabsq	$NCBP, %rcx
	addq	%rax, %rcx
	movslq	-12(%rbp), %rax
	movzbl	1(%rcx,%rax,2), %edi
	movl	-4(%rbp), %esi
	movq	-32(%rbp), %rdx
	movq	-24(%rbp), %rcx
	callq	ue_linfo
	cmpl	$1532361356, -8(%rbp)   # imm = 0x5B55FA8C
	jne	.LBB42_2
.LBB42_1:
	addq	$32, %rsp
	popq	%rbp
	.cfi_def_cfa %rsp, 8
	retq
.LBB42_2:                               # %func_exit
	.cfi_def_cfa %rbp, 16
	callq	detect_breach
	jmp	.LBB42_1
.Lfunc_end42:
	.size	cbp_linfo_inter.15, .Lfunc_end42-cbp_linfo_inter.15
	.cfi_endproc
                                        # -- End function
	.globl	writeSyntaxElement_fixed.16 # -- Begin function writeSyntaxElement_fixed.16
	.p2align	4, 0x90
	.type	writeSyntaxElement_fixed.16,@function
writeSyntaxElement_fixed.16:            # @writeSyntaxElement_fixed.16
	.cfi_startproc
# %bb.0:                                # %entry
	pushq	%rbp
	.cfi_def_cfa_offset 16
	.cfi_offset %rbp, -16
	movq	%rsp, %rbp
	.cfi_def_cfa_register %rbp
	pushq	%rbx
	subq	$24, %rsp
	.cfi_offset %rbx, -24
	movl	$384340929, -20(%rbp)   # imm = 0x16E893C1
	movq	%rdi, -16(%rbp)
	movq	%rsi, -32(%rbp)
	movq	-16(%rbp), %rdi
	movq	-32(%rbp), %rax
	movq	(%rax), %rsi
	callq	writeUVLC2buffer
	movq	-16(%rbp), %rax
	cmpl	$0, (%rax)
	je	.LBB43_2
# %bb.1:                                # %if.then
	movq	-32(%rbp), %rax
	movq	(%rax), %rax
	movl	$1, 40(%rax)
.LBB43_2:                               # %if.end
	movq	-16(%rbp), %rax
	movl	12(%rax), %ebx
	cmpl	$384340929, -20(%rbp)   # imm = 0x16E893C1
	jne	.LBB43_4
.LBB43_3:
	movl	%ebx, %eax
	addq	$24, %rsp
	popq	%rbx
	popq	%rbp
	.cfi_def_cfa %rsp, 8
	retq
.LBB43_4:                               # %func_exit
	.cfi_def_cfa %rbp, 16
	callq	detect_breach
	jmp	.LBB43_3
.Lfunc_end43:
	.size	writeSyntaxElement_fixed.16, .Lfunc_end43-writeSyntaxElement_fixed.16
	.cfi_endproc
                                        # -- End function
	.globl	writeSyntaxElement_TotalZeros.17 # -- Begin function writeSyntaxElement_TotalZeros.17
	.p2align	4, 0x90
	.type	writeSyntaxElement_TotalZeros.17,@function
writeSyntaxElement_TotalZeros.17:       # @writeSyntaxElement_TotalZeros.17
	.cfi_startproc
# %bb.0:                                # %entry
	pushq	%rbp
	.cfi_def_cfa_offset 16
	.cfi_offset %rbp, -16
	movq	%rsp, %rbp
	.cfi_def_cfa_register %rbp
	pushq	%rbx
	subq	$24, %rsp
	.cfi_offset %rbx, -24
	movabsq	$writeSyntaxElement_TotalZeros.codtab, %rax
	movabsq	$writeSyntaxElement_TotalZeros.lentab, %rcx
	movl	$498249236, -24(%rbp)   # imm = 0x1DB2AE14
	movq	%rdi, -16(%rbp)
	movq	%rsi, -32(%rbp)
	movq	-16(%rbp), %rdx
	movl	12(%rdx), %edx
	movl	%edx, -20(%rbp)
	movslq	-20(%rbp), %rdx
	shlq	$6, %rdx
	addq	%rdx, %rcx
	movq	-16(%rbp), %rdx
	movslq	4(%rdx), %rdx
	movl	(%rcx,%rdx,4), %ecx
	movq	-16(%rbp), %rdx
	movl	%ecx, 12(%rdx)
	movslq	-20(%rbp), %rcx
	shlq	$6, %rcx
	addq	%rcx, %rax
	movq	-16(%rbp), %rcx
	movslq	4(%rcx), %rcx
	movl	(%rax,%rcx,4), %eax
	movq	-16(%rbp), %rcx
	movl	%eax, 16(%rcx)
	movq	-16(%rbp), %rax
	cmpl	$0, 12(%rax)
	jne	.LBB44_2
# %bb.1:                                # %if.then
	movq	-16(%rbp), %rax
	movl	4(%rax), %esi
	movabsq	$.L.str.2, %rdi
	movb	$0, %al
	callq	printf
	movl	$4294967295, %edi       # imm = 0xFFFFFFFF
	callq	exit
.LBB44_2:                               # %if.end
	movq	-16(%rbp), %rdi
	callq	symbol2vlc
	movq	-16(%rbp), %rdi
	movq	-32(%rbp), %rax
	movq	(%rax), %rsi
	callq	writeUVLC2buffer
	movq	-16(%rbp), %rax
	movl	12(%rax), %ebx
	cmpl	$498249236, -24(%rbp)   # imm = 0x1DB2AE14
	jne	.LBB44_4
.LBB44_3:
	movl	%ebx, %eax
	addq	$24, %rsp
	popq	%rbx
	popq	%rbp
	.cfi_def_cfa %rsp, 8
	retq
.LBB44_4:                               # %func_exit
	.cfi_def_cfa %rbp, 16
	callq	detect_breach
	jmp	.LBB44_3
.Lfunc_end44:
	.size	writeSyntaxElement_TotalZeros.17, .Lfunc_end44-writeSyntaxElement_TotalZeros.17
	.cfi_endproc
                                        # -- End function
	.globl	symbol2uvlc.18          # -- Begin function symbol2uvlc.18
	.p2align	4, 0x90
	.type	symbol2uvlc.18,@function
symbol2uvlc.18:                         # @symbol2uvlc.18
	.cfi_startproc
# %bb.0:                                # %entry
	pushq	%rbp
	.cfi_def_cfa_offset 16
	.cfi_offset %rbp, -16
	movq	%rsp, %rbp
	.cfi_def_cfa_register %rbp
	subq	$32, %rsp
	movl	$866148591, -20(%rbp)   # imm = 0x33A060EF
	movq	%rdi, -16(%rbp)
	movq	-16(%rbp), %rax
	movl	12(%rax), %eax
	cltd
	movl	$2, %ecx
	idivl	%ecx
	movl	%eax, -4(%rbp)
	movl	-4(%rbp), %ecx
                                        # kill: def $cl killed $ecx
	movl	$1, %eax
	movl	$1, %edx
	shll	%cl, %edx
	movq	-16(%rbp), %rcx
	movl	16(%rcx), %esi
	movl	-4(%rbp), %ecx
                                        # kill: def $cl killed $ecx
	shll	%cl, %eax
	subl	$1, %eax
	andl	%eax, %esi
	orl	%esi, %edx
	movq	-16(%rbp), %rax
	movl	%edx, 20(%rax)
	cmpl	$866148591, -20(%rbp)   # imm = 0x33A060EF
	jne	.LBB45_2
.LBB45_1:
	xorl	%eax, %eax
	addq	$32, %rsp
	popq	%rbp
	.cfi_def_cfa %rsp, 8
	retq
.LBB45_2:                               # %func_exit
	.cfi_def_cfa %rbp, 16
	callq	detect_breach
	jmp	.LBB45_1
.Lfunc_end45:
	.size	symbol2uvlc.18, .Lfunc_end45-symbol2uvlc.18
	.cfi_endproc
                                        # -- End function
	.section	.rodata.cst8,"aM",@progbits,8
	.p2align	3               # -- Begin function levrun_linfo_c2x2.19
.LCPI46_0:
	.quad	4611686018427387904     # double 2
	.text
	.globl	levrun_linfo_c2x2.19
	.p2align	4, 0x90
	.type	levrun_linfo_c2x2.19,@function
levrun_linfo_c2x2.19:                   # @levrun_linfo_c2x2.19
	.cfi_startproc
# %bb.0:                                # %entry
	pushq	%rbp
	.cfi_def_cfa_offset 16
	.cfi_offset %rbp, -16
	movq	%rsp, %rbp
	.cfi_def_cfa_register %rbp
	pushq	%rbx
	subq	$88, %rsp
	.cfi_offset %rbx, -24
	movl	$948172857, -40(%rbp)   # imm = 0x3883F839
	movl	%edi, -32(%rbp)
	movl	%esi, -16(%rbp)
	movq	%rdx, -48(%rbp)
	movq	%rcx, -72(%rbp)
	movq	.L__const.levrun_linfo_c2x2.NTAB, %rax
	movq	%rax, -96(%rbp)
	movq	.L__const.levrun_linfo_c2x2.NTAB+8, %rax
	movq	%rax, -88(%rbp)
	movq	.L__const.levrun_linfo_c2x2.LEVRUN, %rax
	movq	%rax, -64(%rbp)
	movq	.L__const.levrun_linfo_c2x2.LEVRUN+8, %rax
	movq	%rax, -56(%rbp)
	cmpl	$0, -32(%rbp)
	jne	.LBB46_2
# %bb.1:                                # %if.then
	movq	-48(%rbp), %rax
	movl	$1, (%rax)
	jmp	.LBB46_14
.LBB46_2:                               # %if.end
	movl	$0, -36(%rbp)
	cmpl	$0, -32(%rbp)
	jg	.LBB46_4
# %bb.3:                                # %if.then2
	movl	$1, -36(%rbp)
.LBB46_4:                               # %if.end3
	movl	-32(%rbp), %edi
	callq	abs
	movl	%eax, -20(%rbp)
	movl	-20(%rbp), %eax
	movslq	-16(%rbp), %rcx
	cmpl	-64(%rbp,%rcx,4), %eax
	jg	.LBB46_6
# %bb.5:                                # %if.then5
	movl	-20(%rbp), %eax
	subl	$1, %eax
	cltq
	shlq	$3, %rax
	leaq	-96(%rbp), %rcx
	addq	%rax, %rcx
	movslq	-16(%rbp), %rax
	movl	(%rcx,%rax,4), %eax
	addl	$1, %eax
	movl	%eax, -28(%rbp)
	jmp	.LBB46_7
.LBB46_6:                               # %if.else
	movl	-20(%rbp), %eax
	movslq	-16(%rbp), %rcx
	subl	-64(%rbp,%rcx,4), %eax
	shll	$3, %eax
	movl	-16(%rbp), %ecx
	shll	$1, %ecx
	addl	%ecx, %eax
	movl	%eax, -28(%rbp)
.LBB46_7:                               # %if.end15
	movl	-28(%rbp), %eax
	cltd
	movl	$2, %ecx
	idivl	%ecx
	movl	%eax, -24(%rbp)
	movl	$0, -12(%rbp)
.LBB46_8:                               # %for.cond
                                        # =>This Inner Loop Header: Depth=1
	xorl	%eax, %eax
	cmpl	$16, -12(%rbp)
	jge	.LBB46_10
# %bb.9:                                # %land.rhs
                                        #   in Loop: Header=BB46_8 Depth=1
	cmpl	$0, -24(%rbp)
	setne	%al
.LBB46_10:                              # %land.end
                                        #   in Loop: Header=BB46_8 Depth=1
	testb	$1, %al
	jne	.LBB46_11
	jmp	.LBB46_13
.LBB46_11:                              # %for.body
                                        #   in Loop: Header=BB46_8 Depth=1
	movl	-24(%rbp), %eax
	cltd
	movl	$2, %ecx
	idivl	%ecx
	movl	%eax, -24(%rbp)
# %bb.12:                               # %for.inc
                                        #   in Loop: Header=BB46_8 Depth=1
	movl	-12(%rbp), %eax
	addl	$1, %eax
	movl	%eax, -12(%rbp)
	jmp	.LBB46_8
.LBB46_13:                              # %for.end
	vmovsd	.LCPI46_0(%rip), %xmm0  # xmm0 = mem[0],zero
	movl	-12(%rbp), %eax
	shll	$1, %eax
	addl	$1, %eax
	movq	-48(%rbp), %rcx
	movl	%eax, (%rcx)
	movl	-28(%rbp), %ebx
	vcvtsi2sdl	-12(%rbp), %xmm0, %xmm1
	callq	pow
	vcvttsd2si	%xmm0, %eax
	subl	%eax, %ebx
	addl	-36(%rbp), %ebx
	movq	-72(%rbp), %rax
	movl	%ebx, (%rax)
.LBB46_14:                              # %return
	cmpl	$948172857, -40(%rbp)   # imm = 0x3883F839
	jne	.LBB46_16
.LBB46_15:
	addq	$88, %rsp
	popq	%rbx
	popq	%rbp
	.cfi_def_cfa %rsp, 8
	retq
.LBB46_16:                              # %func_exit
	.cfi_def_cfa %rbp, 16
	callq	detect_breach
	jmp	.LBB46_15
.Lfunc_end46:
	.size	levrun_linfo_c2x2.19, .Lfunc_end46-levrun_linfo_c2x2.19
	.cfi_endproc
                                        # -- End function
	.globl	writeSyntaxElement2Buf_Fixed.20 # -- Begin function writeSyntaxElement2Buf_Fixed.20
	.p2align	4, 0x90
	.type	writeSyntaxElement2Buf_Fixed.20,@function
writeSyntaxElement2Buf_Fixed.20:        # @writeSyntaxElement2Buf_Fixed.20
	.cfi_startproc
# %bb.0:                                # %entry
	pushq	%rbp
	.cfi_def_cfa_offset 16
	.cfi_offset %rbp, -16
	movq	%rsp, %rbp
	.cfi_def_cfa_register %rbp
	pushq	%rbx
	subq	$24, %rsp
	.cfi_offset %rbx, -24
	movl	$1224880917, -12(%rbp)  # imm = 0x49023315
	movq	%rdi, -24(%rbp)
	movq	%rsi, -32(%rbp)
	movq	-24(%rbp), %rdi
	movq	-32(%rbp), %rsi
	callq	writeUVLC2buffer
	movq	-24(%rbp), %rax
	movl	12(%rax), %ebx
	cmpl	$1224880917, -12(%rbp)  # imm = 0x49023315
	jne	.LBB47_2
.LBB47_1:
	movl	%ebx, %eax
	addq	$24, %rsp
	popq	%rbx
	popq	%rbp
	.cfi_def_cfa %rsp, 8
	retq
.LBB47_2:                               # %func_exit
	.cfi_def_cfa %rbp, 16
	callq	detect_breach
	jmp	.LBB47_1
.Lfunc_end47:
	.size	writeSyntaxElement2Buf_Fixed.20, .Lfunc_end47-writeSyntaxElement2Buf_Fixed.20
	.cfi_endproc
                                        # -- End function
	.globl	writeSyntaxElement_fixed.21 # -- Begin function writeSyntaxElement_fixed.21
	.p2align	4, 0x90
	.type	writeSyntaxElement_fixed.21,@function
writeSyntaxElement_fixed.21:            # @writeSyntaxElement_fixed.21
	.cfi_startproc
# %bb.0:                                # %entry
	pushq	%rbp
	.cfi_def_cfa_offset 16
	.cfi_offset %rbp, -16
	movq	%rsp, %rbp
	.cfi_def_cfa_register %rbp
	pushq	%rbx
	subq	$24, %rsp
	.cfi_offset %rbx, -24
	movl	$946412933, -20(%rbp)   # imm = 0x38691D85
	movq	%rdi, -16(%rbp)
	movq	%rsi, -32(%rbp)
	movq	-16(%rbp), %rdi
	movq	-32(%rbp), %rax
	movq	(%rax), %rsi
	callq	writeUVLC2buffer
	movq	-16(%rbp), %rax
	cmpl	$0, (%rax)
	je	.LBB48_2
# %bb.1:                                # %if.then
	movq	-32(%rbp), %rax
	movq	(%rax), %rax
	movl	$1, 40(%rax)
.LBB48_2:                               # %if.end
	movq	-16(%rbp), %rax
	movl	12(%rax), %ebx
	cmpl	$946412933, -20(%rbp)   # imm = 0x38691D85
	jne	.LBB48_4
.LBB48_3:
	movl	%ebx, %eax
	addq	$24, %rsp
	popq	%rbx
	popq	%rbp
	.cfi_def_cfa %rsp, 8
	retq
.LBB48_4:                               # %func_exit
	.cfi_def_cfa %rbp, 16
	callq	detect_breach
	jmp	.LBB48_3
.Lfunc_end48:
	.size	writeSyntaxElement_fixed.21, .Lfunc_end48-writeSyntaxElement_fixed.21
	.cfi_endproc
                                        # -- End function
	.globl	u_v.22                  # -- Begin function u_v.22
	.p2align	4, 0x90
	.type	u_v.22,@function
u_v.22:                                 # @u_v.22
	.cfi_startproc
# %bb.0:                                # %entry
	pushq	%rbp
	.cfi_def_cfa_offset 16
	.cfi_offset %rbp, -16
	movq	%rsp, %rbp
	.cfi_def_cfa_register %rbp
	pushq	%rbx
	subq	$88, %rsp
	.cfi_offset %rbx, -24
	movl	$1232067061, -24(%rbp)  # imm = 0x496FD9F5
	movl	%edi, -28(%rbp)
	movq	%rsi, -48(%rbp)
	movl	%edx, -20(%rbp)
	movq	%rcx, -40(%rbp)
	leaq	-96(%rbp), %rax
	movq	%rax, -16(%rbp)
	movl	-20(%rbp), %eax
	movq	-16(%rbp), %rcx
	movl	%eax, 20(%rcx)
	movl	-28(%rbp), %eax
	movq	-16(%rbp), %rcx
	movl	%eax, 12(%rcx)
	movq	-16(%rbp), %rax
	movl	$0, (%rax)
	movl	-20(%rbp), %eax
	movq	-16(%rbp), %rcx
	movl	%eax, 4(%rcx)
	movq	-16(%rbp), %rax
	movl	$0, 8(%rax)
	movq	-16(%rbp), %rdi
	movq	-40(%rbp), %rsi
	callq	writeSyntaxElement_fixed
	movl	%eax, %ebx
	cmpl	$1232067061, -24(%rbp)  # imm = 0x496FD9F5
	jne	.LBB49_2
.LBB49_1:
	movl	%ebx, %eax
	addq	$88, %rsp
	popq	%rbx
	popq	%rbp
	.cfi_def_cfa %rsp, 8
	retq
.LBB49_2:                               # %func_exit
	.cfi_def_cfa %rbp, 16
	callq	detect_breach
	jmp	.LBB49_1
.Lfunc_end49:
	.size	u_v.22, .Lfunc_end49-u_v.22
	.cfi_endproc
                                        # -- End function
	.globl	writeSyntaxElement_TotalZeros.23 # -- Begin function writeSyntaxElement_TotalZeros.23
	.p2align	4, 0x90
	.type	writeSyntaxElement_TotalZeros.23,@function
writeSyntaxElement_TotalZeros.23:       # @writeSyntaxElement_TotalZeros.23
	.cfi_startproc
# %bb.0:                                # %entry
	pushq	%rbp
	.cfi_def_cfa_offset 16
	.cfi_offset %rbp, -16
	movq	%rsp, %rbp
	.cfi_def_cfa_register %rbp
	pushq	%rbx
	subq	$24, %rsp
	.cfi_offset %rbx, -24
	movabsq	$writeSyntaxElement_TotalZeros.codtab, %rax
	movabsq	$writeSyntaxElement_TotalZeros.lentab, %rcx
	movl	$780004913, -24(%rbp)   # imm = 0x2E7DEE31
	movq	%rdi, -16(%rbp)
	movq	%rsi, -32(%rbp)
	movq	-16(%rbp), %rdx
	movl	12(%rdx), %edx
	movl	%edx, -20(%rbp)
	movslq	-20(%rbp), %rdx
	shlq	$6, %rdx
	addq	%rdx, %rcx
	movq	-16(%rbp), %rdx
	movslq	4(%rdx), %rdx
	movl	(%rcx,%rdx,4), %ecx
	movq	-16(%rbp), %rdx
	movl	%ecx, 12(%rdx)
	movslq	-20(%rbp), %rcx
	shlq	$6, %rcx
	addq	%rcx, %rax
	movq	-16(%rbp), %rcx
	movslq	4(%rcx), %rcx
	movl	(%rax,%rcx,4), %eax
	movq	-16(%rbp), %rcx
	movl	%eax, 16(%rcx)
	movq	-16(%rbp), %rax
	cmpl	$0, 12(%rax)
	jne	.LBB50_2
# %bb.1:                                # %if.then
	movq	-16(%rbp), %rax
	movl	4(%rax), %esi
	movabsq	$.L.str.2, %rdi
	movb	$0, %al
	callq	printf
	movl	$4294967295, %edi       # imm = 0xFFFFFFFF
	callq	exit
.LBB50_2:                               # %if.end
	movq	-16(%rbp), %rdi
	callq	symbol2vlc
	movq	-16(%rbp), %rdi
	movq	-32(%rbp), %rax
	movq	(%rax), %rsi
	callq	writeUVLC2buffer
	movq	-16(%rbp), %rax
	movl	12(%rax), %ebx
	cmpl	$780004913, -24(%rbp)   # imm = 0x2E7DEE31
	jne	.LBB50_4
.LBB50_3:
	movl	%ebx, %eax
	addq	$24, %rsp
	popq	%rbx
	popq	%rbp
	.cfi_def_cfa %rsp, 8
	retq
.LBB50_4:                               # %func_exit
	.cfi_def_cfa %rbp, 16
	callq	detect_breach
	jmp	.LBB50_3
.Lfunc_end50:
	.size	writeSyntaxElement_TotalZeros.23, .Lfunc_end50-writeSyntaxElement_TotalZeros.23
	.cfi_endproc
                                        # -- End function
	.globl	writeSyntaxElement_NumCoeffTrailingOnesChromaDC.24 # -- Begin function writeSyntaxElement_NumCoeffTrailingOnesChromaDC.24
	.p2align	4, 0x90
	.type	writeSyntaxElement_NumCoeffTrailingOnesChromaDC.24,@function
writeSyntaxElement_NumCoeffTrailingOnesChromaDC.24: # @writeSyntaxElement_NumCoeffTrailingOnesChromaDC.24
	.cfi_startproc
# %bb.0:                                # %entry
	pushq	%rbp
	.cfi_def_cfa_offset 16
	.cfi_offset %rbp, -16
	movq	%rsp, %rbp
	.cfi_def_cfa_register %rbp
	pushq	%rbx
	subq	$24, %rsp
	.cfi_offset %rbx, -24
	movabsq	$writeSyntaxElement_NumCoeffTrailingOnesChromaDC.codtab, %rax
	movabsq	$writeSyntaxElement_NumCoeffTrailingOnesChromaDC.lentab, %rcx
	movl	$1672176525, -24(%rbp)  # imm = 0x63AB638D
	movq	%rdi, -16(%rbp)
	movq	%rsi, -32(%rbp)
	movq	img, %rdx
	movl	72700(%rdx), %edx
	subl	$1, %edx
	movl	%edx, -20(%rbp)
	movslq	-20(%rbp), %rdx
	imulq	$272, %rdx, %rdx        # imm = 0x110
	addq	%rdx, %rcx
	movq	-16(%rbp), %rdx
	movslq	8(%rdx), %rdx
	imulq	$68, %rdx, %rdx
	addq	%rdx, %rcx
	movq	-16(%rbp), %rdx
	movslq	4(%rdx), %rdx
	movl	(%rcx,%rdx,4), %ecx
	movq	-16(%rbp), %rdx
	movl	%ecx, 12(%rdx)
	movslq	-20(%rbp), %rcx
	imulq	$272, %rcx, %rcx        # imm = 0x110
	addq	%rcx, %rax
	movq	-16(%rbp), %rcx
	movslq	8(%rcx), %rcx
	imulq	$68, %rcx, %rcx
	addq	%rcx, %rax
	movq	-16(%rbp), %rcx
	movslq	4(%rcx), %rcx
	movl	(%rax,%rcx,4), %eax
	movq	-16(%rbp), %rcx
	movl	%eax, 16(%rcx)
	movq	-16(%rbp), %rax
	cmpl	$0, 12(%rax)
	jne	.LBB51_2
# %bb.1:                                # %if.then
	movq	-16(%rbp), %rax
	movl	4(%rax), %esi
	movq	-16(%rbp), %rax
	movl	8(%rax), %edx
	movabsq	$.L.str.1, %rdi
	movb	$0, %al
	callq	printf
	movl	$4294967295, %edi       # imm = 0xFFFFFFFF
	callq	exit
.LBB51_2:                               # %if.end
	movq	-16(%rbp), %rdi
	callq	symbol2vlc
	movq	-16(%rbp), %rdi
	movq	-32(%rbp), %rax
	movq	(%rax), %rsi
	callq	writeUVLC2buffer
	movq	-16(%rbp), %rax
	movl	12(%rax), %ebx
	cmpl	$1672176525, -24(%rbp)  # imm = 0x63AB638D
	jne	.LBB51_4
.LBB51_3:
	movl	%ebx, %eax
	addq	$24, %rsp
	popq	%rbx
	popq	%rbp
	.cfi_def_cfa %rsp, 8
	retq
.LBB51_4:                               # %func_exit
	.cfi_def_cfa %rbp, 16
	callq	detect_breach
	jmp	.LBB51_3
.Lfunc_end51:
	.size	writeSyntaxElement_NumCoeffTrailingOnesChromaDC.24, .Lfunc_end51-writeSyntaxElement_NumCoeffTrailingOnesChromaDC.24
	.cfi_endproc
                                        # -- End function
	.section	.rodata.cst8,"aM",@progbits,8
	.p2align	3               # -- Begin function levrun_linfo_inter.25
.LCPI52_0:
	.quad	4611686018427387904     # double 2
	.text
	.globl	levrun_linfo_inter.25
	.p2align	4, 0x90
	.type	levrun_linfo_inter.25,@function
levrun_linfo_inter.25:                  # @levrun_linfo_inter.25
	.cfi_startproc
# %bb.0:                                # %entry
	pushq	%rbp
	.cfi_def_cfa_offset 16
	.cfi_offset %rbp, -16
	movq	%rsp, %rbp
	.cfi_def_cfa_register %rbp
	pushq	%rbx
	subq	$104, %rsp
	.cfi_offset %rbx, -24
	movl	$1945280189, -40(%rbp)  # imm = 0x73F29EBD
	movl	%edi, -28(%rbp)
	movl	%esi, -16(%rbp)
	movq	%rdx, -48(%rbp)
	movq	%rcx, -72(%rbp)
	movq	.L__const.levrun_linfo_inter.LEVRUN, %rax
	movq	%rax, -64(%rbp)
	movq	.L__const.levrun_linfo_inter.LEVRUN+8, %rax
	movq	%rax, -56(%rbp)
	leaq	-112(%rbp), %rdi
	movabsq	$.L__const.levrun_linfo_inter.NTAB, %rsi
	movl	$40, %edx
	callq	memcpy
	cmpl	$0, -28(%rbp)
	jne	.LBB52_2
# %bb.1:                                # %if.then
	movq	-48(%rbp), %rax
	movl	$1, (%rax)
	jmp	.LBB52_15
.LBB52_2:                               # %if.end
	cmpl	$0, -28(%rbp)
	jg	.LBB52_4
# %bb.3:                                # %if.then2
	movl	$1, -36(%rbp)
	jmp	.LBB52_5
.LBB52_4:                               # %if.else
	movl	$0, -36(%rbp)
.LBB52_5:                               # %if.end3
	movl	-28(%rbp), %edi
	callq	abs
	movl	%eax, -20(%rbp)
	movl	-20(%rbp), %eax
	movslq	-16(%rbp), %rcx
	movzbl	-64(%rbp,%rcx), %ecx
	cmpl	%ecx, %eax
	jg	.LBB52_7
# %bb.6:                                # %if.then6
	movl	-20(%rbp), %eax
	subl	$1, %eax
	cltq
	imulq	$10, %rax, %rax
	leaq	-112(%rbp), %rcx
	addq	%rax, %rcx
	movslq	-16(%rbp), %rax
	movzbl	(%rcx,%rax), %eax
	addl	$1, %eax
	movl	%eax, -32(%rbp)
	jmp	.LBB52_8
.LBB52_7:                               # %if.else12
	movl	-20(%rbp), %eax
	movslq	-16(%rbp), %rcx
	movzbl	-64(%rbp,%rcx), %ecx
	subl	%ecx, %eax
	shll	$5, %eax
	movl	-16(%rbp), %ecx
	shll	$1, %ecx
	addl	%ecx, %eax
	movl	%eax, -32(%rbp)
.LBB52_8:                               # %if.end19
	movl	-32(%rbp), %eax
	cltd
	movl	$2, %ecx
	idivl	%ecx
	movl	%eax, -24(%rbp)
	movl	$0, -12(%rbp)
.LBB52_9:                               # %for.cond
                                        # =>This Inner Loop Header: Depth=1
	xorl	%eax, %eax
	cmpl	$16, -12(%rbp)
	jge	.LBB52_11
# %bb.10:                               # %land.rhs
                                        #   in Loop: Header=BB52_9 Depth=1
	cmpl	$0, -24(%rbp)
	setne	%al
.LBB52_11:                              # %land.end
                                        #   in Loop: Header=BB52_9 Depth=1
	testb	$1, %al
	jne	.LBB52_12
	jmp	.LBB52_14
.LBB52_12:                              # %for.body
                                        #   in Loop: Header=BB52_9 Depth=1
	movl	-24(%rbp), %eax
	cltd
	movl	$2, %ecx
	idivl	%ecx
	movl	%eax, -24(%rbp)
# %bb.13:                               # %for.inc
                                        #   in Loop: Header=BB52_9 Depth=1
	movl	-12(%rbp), %eax
	addl	$1, %eax
	movl	%eax, -12(%rbp)
	jmp	.LBB52_9
.LBB52_14:                              # %for.end
	vmovsd	.LCPI52_0(%rip), %xmm0  # xmm0 = mem[0],zero
	movl	-12(%rbp), %eax
	shll	$1, %eax
	addl	$1, %eax
	movq	-48(%rbp), %rcx
	movl	%eax, (%rcx)
	movl	-32(%rbp), %ebx
	vcvtsi2sdl	-12(%rbp), %xmm0, %xmm1
	callq	pow
	vcvttsd2si	%xmm0, %eax
	subl	%eax, %ebx
	addl	-36(%rbp), %ebx
	movq	-72(%rbp), %rax
	movl	%ebx, (%rax)
.LBB52_15:                              # %return
	cmpl	$1945280189, -40(%rbp)  # imm = 0x73F29EBD
	jne	.LBB52_17
.LBB52_16:
	addq	$104, %rsp
	popq	%rbx
	popq	%rbp
	.cfi_def_cfa %rsp, 8
	retq
.LBB52_17:                              # %func_exit
	.cfi_def_cfa %rbp, 16
	callq	detect_breach
	jmp	.LBB52_16
.Lfunc_end52:
	.size	levrun_linfo_inter.25, .Lfunc_end52-levrun_linfo_inter.25
	.cfi_endproc
                                        # -- End function
	.globl	writeSyntaxElement_NumCoeffTrailingOnes.26 # -- Begin function writeSyntaxElement_NumCoeffTrailingOnes.26
	.p2align	4, 0x90
	.type	writeSyntaxElement_NumCoeffTrailingOnes.26,@function
writeSyntaxElement_NumCoeffTrailingOnes.26: # @writeSyntaxElement_NumCoeffTrailingOnes.26
	.cfi_startproc
# %bb.0:                                # %entry
	pushq	%rbp
	.cfi_def_cfa_offset 16
	.cfi_offset %rbp, -16
	movq	%rsp, %rbp
	.cfi_def_cfa_register %rbp
	pushq	%rbx
	subq	$24, %rsp
	.cfi_offset %rbx, -24
	movl	$211564514, -24(%rbp)   # imm = 0xC9C37E2
	movq	%rdi, -16(%rbp)
	movq	%rsi, -32(%rbp)
	movq	-16(%rbp), %rax
	movl	12(%rax), %eax
	movl	%eax, -20(%rbp)
	cmpl	$3, -20(%rbp)
	jne	.LBB53_5
# %bb.1:                                # %if.then
	movq	-16(%rbp), %rax
	movl	$6, 12(%rax)
	movq	-16(%rbp), %rax
	cmpl	$0, 4(%rax)
	jle	.LBB53_3
# %bb.2:                                # %if.then3
	movq	-16(%rbp), %rax
	movl	4(%rax), %eax
	subl	$1, %eax
	shll	$2, %eax
	movq	-16(%rbp), %rcx
	orl	8(%rcx), %eax
	movq	-16(%rbp), %rcx
	movl	%eax, 16(%rcx)
	jmp	.LBB53_4
.LBB53_3:                               # %if.else
	movq	-16(%rbp), %rax
	movl	$3, 16(%rax)
.LBB53_4:                               # %if.end
	jmp	.LBB53_6
.LBB53_5:                               # %if.else6
	movslq	-20(%rbp), %rax
	imulq	$272, %rax, %rax        # imm = 0x110
	movabsq	$writeSyntaxElement_NumCoeffTrailingOnes.lentab, %rcx
	addq	%rax, %rcx
	movq	-16(%rbp), %rax
	movslq	8(%rax), %rax
	imulq	$68, %rax, %rax
	addq	%rax, %rcx
	movq	-16(%rbp), %rax
	movslq	4(%rax), %rax
	movl	(%rcx,%rax,4), %eax
	movq	-16(%rbp), %rcx
	movl	%eax, 12(%rcx)
	movslq	-20(%rbp), %rax
	imulq	$272, %rax, %rax        # imm = 0x110
	movabsq	$writeSyntaxElement_NumCoeffTrailingOnes.codtab, %rcx
	addq	%rax, %rcx
	movq	-16(%rbp), %rax
	movslq	8(%rax), %rax
	imulq	$68, %rax, %rax
	addq	%rax, %rcx
	movq	-16(%rbp), %rax
	movslq	4(%rax), %rax
	movl	(%rcx,%rax,4), %eax
	movq	-16(%rbp), %rcx
	movl	%eax, 16(%rcx)
.LBB53_6:                               # %if.end23
	movq	-16(%rbp), %rax
	cmpl	$0, 12(%rax)
	jne	.LBB53_8
# %bb.7:                                # %if.then26
	movl	-20(%rbp), %esi
	movq	-16(%rbp), %rax
	movl	4(%rax), %edx
	movq	-16(%rbp), %rax
	movl	8(%rax), %ecx
	movabsq	$.L.str, %rdi
	movb	$0, %al
	callq	printf
	movl	$4294967295, %edi       # imm = 0xFFFFFFFF
	callq	exit
.LBB53_8:                               # %if.end29
	movq	-16(%rbp), %rdi
	callq	symbol2vlc
	movq	-16(%rbp), %rdi
	movq	-32(%rbp), %rax
	movq	(%rax), %rsi
	callq	writeUVLC2buffer
	movq	-16(%rbp), %rax
	movl	12(%rax), %ebx
	cmpl	$211564514, -24(%rbp)   # imm = 0xC9C37E2
	jne	.LBB53_10
.LBB53_9:
	movl	%ebx, %eax
	addq	$24, %rsp
	popq	%rbx
	popq	%rbp
	.cfi_def_cfa %rsp, 8
	retq
.LBB53_10:                              # %func_exit
	.cfi_def_cfa %rbp, 16
	callq	detect_breach
	jmp	.LBB53_9
.Lfunc_end53:
	.size	writeSyntaxElement_NumCoeffTrailingOnes.26, .Lfunc_end53-writeSyntaxElement_NumCoeffTrailingOnes.26
	.cfi_endproc
                                        # -- End function
	.globl	se_v.27                 # -- Begin function se_v.27
	.p2align	4, 0x90
	.type	se_v.27,@function
se_v.27:                                # @se_v.27
	.cfi_startproc
# %bb.0:                                # %entry
	pushq	%rbp
	.cfi_def_cfa_offset 16
	.cfi_offset %rbp, -16
	movq	%rsp, %rbp
	.cfi_def_cfa_register %rbp
	pushq	%rbx
	subq	$88, %rsp
	.cfi_offset %rbx, -24
	movl	$1763134234, -24(%rbp)  # imm = 0x69174B1A
	movq	%rdi, -40(%rbp)
	movl	%esi, -20(%rbp)
	movq	%rdx, -32(%rbp)
	leaq	-88(%rbp), %rax
	movq	%rax, -16(%rbp)
	movq	-16(%rbp), %rax
	movl	$0, (%rax)
	movq	-16(%rbp), %rax
	movabsq	$se_linfo, %rcx
	movq	%rcx, 32(%rax)
	movl	-20(%rbp), %eax
	movq	-16(%rbp), %rcx
	movl	%eax, 4(%rcx)
	movq	-16(%rbp), %rax
	movl	$0, 8(%rax)
	movq	-16(%rbp), %rdi
	movq	-32(%rbp), %rsi
	callq	writeSyntaxElement_UVLC
	movl	%eax, %ebx
	cmpl	$1763134234, -24(%rbp)  # imm = 0x69174B1A
	jne	.LBB54_2
.LBB54_1:
	movl	%ebx, %eax
	addq	$88, %rsp
	popq	%rbx
	popq	%rbp
	.cfi_def_cfa %rsp, 8
	retq
.LBB54_2:                               # %func_exit
	.cfi_def_cfa %rbp, 16
	callq	detect_breach
	jmp	.LBB54_1
.Lfunc_end54:
	.size	se_v.27, .Lfunc_end54-se_v.27
	.cfi_endproc
                                        # -- End function
	.globl	writeSyntaxElement_TotalZeros.28 # -- Begin function writeSyntaxElement_TotalZeros.28
	.p2align	4, 0x90
	.type	writeSyntaxElement_TotalZeros.28,@function
writeSyntaxElement_TotalZeros.28:       # @writeSyntaxElement_TotalZeros.28
	.cfi_startproc
# %bb.0:                                # %entry
	pushq	%rbp
	.cfi_def_cfa_offset 16
	.cfi_offset %rbp, -16
	movq	%rsp, %rbp
	.cfi_def_cfa_register %rbp
	pushq	%rbx
	subq	$24, %rsp
	.cfi_offset %rbx, -24
	movabsq	$writeSyntaxElement_TotalZeros.codtab, %rax
	movabsq	$writeSyntaxElement_TotalZeros.lentab, %rcx
	movl	$18808387, -24(%rbp)    # imm = 0x11EFE43
	movq	%rdi, -16(%rbp)
	movq	%rsi, -32(%rbp)
	movq	-16(%rbp), %rdx
	movl	12(%rdx), %edx
	movl	%edx, -20(%rbp)
	movslq	-20(%rbp), %rdx
	shlq	$6, %rdx
	addq	%rdx, %rcx
	movq	-16(%rbp), %rdx
	movslq	4(%rdx), %rdx
	movl	(%rcx,%rdx,4), %ecx
	movq	-16(%rbp), %rdx
	movl	%ecx, 12(%rdx)
	movslq	-20(%rbp), %rcx
	shlq	$6, %rcx
	addq	%rcx, %rax
	movq	-16(%rbp), %rcx
	movslq	4(%rcx), %rcx
	movl	(%rax,%rcx,4), %eax
	movq	-16(%rbp), %rcx
	movl	%eax, 16(%rcx)
	movq	-16(%rbp), %rax
	cmpl	$0, 12(%rax)
	jne	.LBB55_2
# %bb.1:                                # %if.then
	movq	-16(%rbp), %rax
	movl	4(%rax), %esi
	movabsq	$.L.str.2, %rdi
	movb	$0, %al
	callq	printf
	movl	$4294967295, %edi       # imm = 0xFFFFFFFF
	callq	exit
.LBB55_2:                               # %if.end
	movq	-16(%rbp), %rdi
	callq	symbol2vlc
	movq	-16(%rbp), %rdi
	movq	-32(%rbp), %rax
	movq	(%rax), %rsi
	callq	writeUVLC2buffer
	movq	-16(%rbp), %rax
	movl	12(%rax), %ebx
	cmpl	$18808387, -24(%rbp)    # imm = 0x11EFE43
	jne	.LBB55_4
.LBB55_3:
	movl	%ebx, %eax
	addq	$24, %rsp
	popq	%rbx
	popq	%rbp
	.cfi_def_cfa %rsp, 8
	retq
.LBB55_4:                               # %func_exit
	.cfi_def_cfa %rbp, 16
	callq	detect_breach
	jmp	.LBB55_3
.Lfunc_end55:
	.size	writeSyntaxElement_TotalZeros.28, .Lfunc_end55-writeSyntaxElement_TotalZeros.28
	.cfi_endproc
                                        # -- End function
	.globl	symbol2vlc.29           # -- Begin function symbol2vlc.29
	.p2align	4, 0x90
	.type	symbol2vlc.29,@function
symbol2vlc.29:                          # @symbol2vlc.29
	.cfi_startproc
# %bb.0:                                # %entry
	pushq	%rbp
	.cfi_def_cfa_offset 16
	.cfi_offset %rbp, -16
	movq	%rsp, %rbp
	.cfi_def_cfa_register %rbp
	subq	$32, %rsp
	movl	$442443778, -20(%rbp)   # imm = 0x1A5F2802
	movq	%rdi, -16(%rbp)
	movq	-16(%rbp), %rax
	movl	12(%rax), %eax
	movl	%eax, -4(%rbp)
	movq	-16(%rbp), %rax
	movl	$0, 20(%rax)
.LBB56_1:                               # %while.cond
                                        # =>This Inner Loop Header: Depth=1
	movl	-4(%rbp), %eax
	addl	$-1, %eax
	movl	%eax, -4(%rbp)
	cmpl	$0, %eax
	jl	.LBB56_3
# %bb.2:                                # %while.body
                                        #   in Loop: Header=BB56_1 Depth=1
	movq	-16(%rbp), %rax
	movl	20(%rax), %ecx
	shll	$1, %ecx
	movl	%ecx, 20(%rax)
	movq	-16(%rbp), %rax
	movl	16(%rax), %eax
	movl	-4(%rbp), %ecx
                                        # kill: def $cl killed $ecx
	sarl	%cl, %eax
	andl	$1, %eax
	movq	-16(%rbp), %rcx
	orl	20(%rcx), %eax
	movl	%eax, 20(%rcx)
	jmp	.LBB56_1
.LBB56_3:                               # %while.end
	cmpl	$442443778, -20(%rbp)   # imm = 0x1A5F2802
	jne	.LBB56_5
.LBB56_4:
	xorl	%eax, %eax
	addq	$32, %rsp
	popq	%rbp
	.cfi_def_cfa %rsp, 8
	retq
.LBB56_5:                               # %func_exit
	.cfi_def_cfa %rbp, 16
	callq	detect_breach
	jmp	.LBB56_4
.Lfunc_end56:
	.size	symbol2vlc.29, .Lfunc_end56-symbol2vlc.29
	.cfi_endproc
                                        # -- End function
	.globl	writeSyntaxElement_TotalZerosChromaDC.30 # -- Begin function writeSyntaxElement_TotalZerosChromaDC.30
	.p2align	4, 0x90
	.type	writeSyntaxElement_TotalZerosChromaDC.30,@function
writeSyntaxElement_TotalZerosChromaDC.30: # @writeSyntaxElement_TotalZerosChromaDC.30
	.cfi_startproc
# %bb.0:                                # %entry
	pushq	%rbp
	.cfi_def_cfa_offset 16
	.cfi_offset %rbp, -16
	movq	%rsp, %rbp
	.cfi_def_cfa_register %rbp
	pushq	%rbx
	subq	$40, %rsp
	.cfi_offset %rbx, -24
	movabsq	$writeSyntaxElement_TotalZerosChromaDC.codtab, %rax
	movabsq	$writeSyntaxElement_TotalZerosChromaDC.lentab, %rcx
	movl	$800316855, -28(%rbp)   # imm = 0x2FB3DDB7
	movq	%rdi, -16(%rbp)
	movq	%rsi, -40(%rbp)
	movq	img, %rdx
	movl	72700(%rdx), %edx
	subl	$1, %edx
	movl	%edx, -20(%rbp)
	movq	-16(%rbp), %rdx
	movl	12(%rdx), %edx
	movl	%edx, -24(%rbp)
	movslq	-20(%rbp), %rdx
	imulq	$960, %rdx, %rdx        # imm = 0x3C0
	addq	%rdx, %rcx
	movslq	-24(%rbp), %rdx
	shlq	$6, %rdx
	addq	%rdx, %rcx
	movq	-16(%rbp), %rdx
	movslq	4(%rdx), %rdx
	movl	(%rcx,%rdx,4), %ecx
	movq	-16(%rbp), %rdx
	movl	%ecx, 12(%rdx)
	movslq	-20(%rbp), %rcx
	imulq	$960, %rcx, %rcx        # imm = 0x3C0
	addq	%rcx, %rax
	movslq	-24(%rbp), %rcx
	shlq	$6, %rcx
	addq	%rcx, %rax
	movq	-16(%rbp), %rcx
	movslq	4(%rcx), %rcx
	movl	(%rax,%rcx,4), %eax
	movq	-16(%rbp), %rcx
	movl	%eax, 16(%rcx)
	movq	-16(%rbp), %rax
	cmpl	$0, 12(%rax)
	jne	.LBB57_2
# %bb.1:                                # %if.then
	movq	-16(%rbp), %rax
	movl	4(%rax), %esi
	movabsq	$.L.str.2, %rdi
	movb	$0, %al
	callq	printf
	movl	$4294967295, %edi       # imm = 0xFFFFFFFF
	callq	exit
.LBB57_2:                               # %if.end
	movq	-16(%rbp), %rdi
	callq	symbol2vlc
	movq	-16(%rbp), %rdi
	movq	-40(%rbp), %rax
	movq	(%rax), %rsi
	callq	writeUVLC2buffer
	movq	-16(%rbp), %rax
	movl	12(%rax), %ebx
	cmpl	$800316855, -28(%rbp)   # imm = 0x2FB3DDB7
	jne	.LBB57_4
.LBB57_3:
	movl	%ebx, %eax
	addq	$40, %rsp
	popq	%rbx
	popq	%rbp
	.cfi_def_cfa %rsp, 8
	retq
.LBB57_4:                               # %func_exit
	.cfi_def_cfa %rbp, 16
	callq	detect_breach
	jmp	.LBB57_3
.Lfunc_end57:
	.size	writeSyntaxElement_TotalZerosChromaDC.30, .Lfunc_end57-writeSyntaxElement_TotalZerosChromaDC.30
	.cfi_endproc
                                        # -- End function
	.globl	writeSyntaxElement2Buf_UVLC.31 # -- Begin function writeSyntaxElement2Buf_UVLC.31
	.p2align	4, 0x90
	.type	writeSyntaxElement2Buf_UVLC.31,@function
writeSyntaxElement2Buf_UVLC.31:         # @writeSyntaxElement2Buf_UVLC.31
	.cfi_startproc
# %bb.0:                                # %entry
	pushq	%rbp
	.cfi_def_cfa_offset 16
	.cfi_offset %rbp, -16
	movq	%rsp, %rbp
	.cfi_def_cfa_register %rbp
	pushq	%rbx
	subq	$24, %rsp
	.cfi_offset %rbx, -24
	movl	$462320266, -20(%rbp)   # imm = 0x1B8E728A
	movq	%rdi, -16(%rbp)
	movq	%rsi, -32(%rbp)
	movq	-16(%rbp), %rax
	movq	32(%rax), %rax
	movq	-16(%rbp), %rcx
	movl	4(%rcx), %edi
	movq	-16(%rbp), %rcx
	movl	8(%rcx), %esi
	movq	-16(%rbp), %rdx
	addq	$12, %rdx
	movq	-16(%rbp), %rcx
	addq	$16, %rcx
	callq	*%rax
	movq	-16(%rbp), %rdi
	callq	symbol2uvlc
	movq	-16(%rbp), %rdi
	movq	-32(%rbp), %rsi
	callq	writeUVLC2buffer
	movq	-16(%rbp), %rax
	movl	12(%rax), %ebx
	cmpl	$462320266, -20(%rbp)   # imm = 0x1B8E728A
	jne	.LBB58_2
.LBB58_1:
	movl	%ebx, %eax
	addq	$24, %rsp
	popq	%rbx
	popq	%rbp
	.cfi_def_cfa %rsp, 8
	retq
.LBB58_2:                               # %func_exit
	.cfi_def_cfa %rbp, 16
	callq	detect_breach
	jmp	.LBB58_1
.Lfunc_end58:
	.size	writeSyntaxElement2Buf_UVLC.31, .Lfunc_end58-writeSyntaxElement2Buf_UVLC.31
	.cfi_endproc
                                        # -- End function
	.globl	se_v.32                 # -- Begin function se_v.32
	.p2align	4, 0x90
	.type	se_v.32,@function
se_v.32:                                # @se_v.32
	.cfi_startproc
# %bb.0:                                # %entry
	pushq	%rbp
	.cfi_def_cfa_offset 16
	.cfi_offset %rbp, -16
	movq	%rsp, %rbp
	.cfi_def_cfa_register %rbp
	pushq	%rbx
	subq	$88, %rsp
	.cfi_offset %rbx, -24
	movl	$296851553, -20(%rbp)   # imm = 0x11B19861
	movq	%rdi, -40(%rbp)
	movl	%esi, -24(%rbp)
	movq	%rdx, -32(%rbp)
	leaq	-88(%rbp), %rax
	movq	%rax, -16(%rbp)
	movq	-16(%rbp), %rax
	movl	$0, (%rax)
	movq	-16(%rbp), %rax
	movabsq	$se_linfo, %rcx
	movq	%rcx, 32(%rax)
	movl	-24(%rbp), %eax
	movq	-16(%rbp), %rcx
	movl	%eax, 4(%rcx)
	movq	-16(%rbp), %rax
	movl	$0, 8(%rax)
	movq	-16(%rbp), %rdi
	movq	-32(%rbp), %rsi
	callq	writeSyntaxElement_UVLC
	movl	%eax, %ebx
	cmpl	$296851553, -20(%rbp)   # imm = 0x11B19861
	jne	.LBB59_2
.LBB59_1:
	movl	%ebx, %eax
	addq	$88, %rsp
	popq	%rbx
	popq	%rbp
	.cfi_def_cfa %rsp, 8
	retq
.LBB59_2:                               # %func_exit
	.cfi_def_cfa %rbp, 16
	callq	detect_breach
	jmp	.LBB59_1
.Lfunc_end59:
	.size	se_v.32, .Lfunc_end59-se_v.32
	.cfi_endproc
                                        # -- End function
	.globl	writeSyntaxElement_Run.33 # -- Begin function writeSyntaxElement_Run.33
	.p2align	4, 0x90
	.type	writeSyntaxElement_Run.33,@function
writeSyntaxElement_Run.33:              # @writeSyntaxElement_Run.33
	.cfi_startproc
# %bb.0:                                # %entry
	pushq	%rbp
	.cfi_def_cfa_offset 16
	.cfi_offset %rbp, -16
	movq	%rsp, %rbp
	.cfi_def_cfa_register %rbp
	pushq	%rbx
	subq	$24, %rsp
	.cfi_offset %rbx, -24
	movabsq	$writeSyntaxElement_Run.codtab, %rax
	movabsq	$writeSyntaxElement_Run.lentab, %rcx
	movl	$873757062, -24(%rbp)   # imm = 0x34147986
	movq	%rdi, -16(%rbp)
	movq	%rsi, -32(%rbp)
	movq	-16(%rbp), %rdx
	movl	12(%rdx), %edx
	movl	%edx, -20(%rbp)
	movslq	-20(%rbp), %rdx
	shlq	$6, %rdx
	addq	%rdx, %rcx
	movq	-16(%rbp), %rdx
	movslq	4(%rdx), %rdx
	movl	(%rcx,%rdx,4), %ecx
	movq	-16(%rbp), %rdx
	movl	%ecx, 12(%rdx)
	movslq	-20(%rbp), %rcx
	shlq	$6, %rcx
	addq	%rcx, %rax
	movq	-16(%rbp), %rcx
	movslq	4(%rcx), %rcx
	movl	(%rax,%rcx,4), %eax
	movq	-16(%rbp), %rcx
	movl	%eax, 16(%rcx)
	movq	-16(%rbp), %rax
	cmpl	$0, 12(%rax)
	jne	.LBB60_2
# %bb.1:                                # %if.then
	movq	-16(%rbp), %rax
	movl	4(%rax), %esi
	movabsq	$.L.str.3, %rdi
	movb	$0, %al
	callq	printf
	movl	$4294967295, %edi       # imm = 0xFFFFFFFF
	callq	exit
.LBB60_2:                               # %if.end
	movq	-16(%rbp), %rdi
	callq	symbol2vlc
	movq	-16(%rbp), %rdi
	movq	-32(%rbp), %rax
	movq	(%rax), %rsi
	callq	writeUVLC2buffer
	movq	-16(%rbp), %rax
	movl	12(%rax), %ebx
	cmpl	$873757062, -24(%rbp)   # imm = 0x34147986
	jne	.LBB60_4
.LBB60_3:
	movl	%ebx, %eax
	addq	$24, %rsp
	popq	%rbx
	popq	%rbp
	.cfi_def_cfa %rsp, 8
	retq
.LBB60_4:                               # %func_exit
	.cfi_def_cfa %rbp, 16
	callq	detect_breach
	jmp	.LBB60_3
.Lfunc_end60:
	.size	writeSyntaxElement_Run.33, .Lfunc_end60-writeSyntaxElement_Run.33
	.cfi_endproc
                                        # -- End function
	.section	.rodata.cst8,"aM",@progbits,8
	.p2align	3               # -- Begin function levrun_linfo_c2x2.34
.LCPI61_0:
	.quad	4611686018427387904     # double 2
	.text
	.globl	levrun_linfo_c2x2.34
	.p2align	4, 0x90
	.type	levrun_linfo_c2x2.34,@function
levrun_linfo_c2x2.34:                   # @levrun_linfo_c2x2.34
	.cfi_startproc
# %bb.0:                                # %entry
	pushq	%rbp
	.cfi_def_cfa_offset 16
	.cfi_offset %rbp, -16
	movq	%rsp, %rbp
	.cfi_def_cfa_register %rbp
	pushq	%rbx
	subq	$88, %rsp
	.cfi_offset %rbx, -24
	movl	$1922685734, -40(%rbp)  # imm = 0x7299DB26
	movl	%edi, -28(%rbp)
	movl	%esi, -16(%rbp)
	movq	%rdx, -48(%rbp)
	movq	%rcx, -72(%rbp)
	movq	.L__const.levrun_linfo_c2x2.NTAB, %rax
	movq	%rax, -96(%rbp)
	movq	.L__const.levrun_linfo_c2x2.NTAB+8, %rax
	movq	%rax, -88(%rbp)
	movq	.L__const.levrun_linfo_c2x2.LEVRUN, %rax
	movq	%rax, -64(%rbp)
	movq	.L__const.levrun_linfo_c2x2.LEVRUN+8, %rax
	movq	%rax, -56(%rbp)
	cmpl	$0, -28(%rbp)
	jne	.LBB61_2
# %bb.1:                                # %if.then
	movq	-48(%rbp), %rax
	movl	$1, (%rax)
	jmp	.LBB61_14
.LBB61_2:                               # %if.end
	movl	$0, -36(%rbp)
	cmpl	$0, -28(%rbp)
	jg	.LBB61_4
# %bb.3:                                # %if.then2
	movl	$1, -36(%rbp)
.LBB61_4:                               # %if.end3
	movl	-28(%rbp), %edi
	callq	abs
	movl	%eax, -24(%rbp)
	movl	-24(%rbp), %eax
	movslq	-16(%rbp), %rcx
	cmpl	-64(%rbp,%rcx,4), %eax
	jg	.LBB61_6
# %bb.5:                                # %if.then5
	movl	-24(%rbp), %eax
	subl	$1, %eax
	cltq
	shlq	$3, %rax
	leaq	-96(%rbp), %rcx
	addq	%rax, %rcx
	movslq	-16(%rbp), %rax
	movl	(%rcx,%rax,4), %eax
	addl	$1, %eax
	movl	%eax, -20(%rbp)
	jmp	.LBB61_7
.LBB61_6:                               # %if.else
	movl	-24(%rbp), %eax
	movslq	-16(%rbp), %rcx
	subl	-64(%rbp,%rcx,4), %eax
	shll	$3, %eax
	movl	-16(%rbp), %ecx
	shll	$1, %ecx
	addl	%ecx, %eax
	movl	%eax, -20(%rbp)
.LBB61_7:                               # %if.end15
	movl	-20(%rbp), %eax
	cltd
	movl	$2, %ecx
	idivl	%ecx
	movl	%eax, -32(%rbp)
	movl	$0, -12(%rbp)
.LBB61_8:                               # %for.cond
                                        # =>This Inner Loop Header: Depth=1
	xorl	%eax, %eax
	cmpl	$16, -12(%rbp)
	jge	.LBB61_10
# %bb.9:                                # %land.rhs
                                        #   in Loop: Header=BB61_8 Depth=1
	cmpl	$0, -32(%rbp)
	setne	%al
.LBB61_10:                              # %land.end
                                        #   in Loop: Header=BB61_8 Depth=1
	testb	$1, %al
	jne	.LBB61_11
	jmp	.LBB61_13
.LBB61_11:                              # %for.body
                                        #   in Loop: Header=BB61_8 Depth=1
	movl	-32(%rbp), %eax
	cltd
	movl	$2, %ecx
	idivl	%ecx
	movl	%eax, -32(%rbp)
# %bb.12:                               # %for.inc
                                        #   in Loop: Header=BB61_8 Depth=1
	movl	-12(%rbp), %eax
	addl	$1, %eax
	movl	%eax, -12(%rbp)
	jmp	.LBB61_8
.LBB61_13:                              # %for.end
	vmovsd	.LCPI61_0(%rip), %xmm0  # xmm0 = mem[0],zero
	movl	-12(%rbp), %eax
	shll	$1, %eax
	addl	$1, %eax
	movq	-48(%rbp), %rcx
	movl	%eax, (%rcx)
	movl	-20(%rbp), %ebx
	vcvtsi2sdl	-12(%rbp), %xmm0, %xmm1
	callq	pow
	vcvttsd2si	%xmm0, %eax
	subl	%eax, %ebx
	addl	-36(%rbp), %ebx
	movq	-72(%rbp), %rax
	movl	%ebx, (%rax)
.LBB61_14:                              # %return
	cmpl	$1922685734, -40(%rbp)  # imm = 0x7299DB26
	jne	.LBB61_16
.LBB61_15:
	addq	$88, %rsp
	popq	%rbx
	popq	%rbp
	.cfi_def_cfa %rsp, 8
	retq
.LBB61_16:                              # %func_exit
	.cfi_def_cfa %rbp, 16
	callq	detect_breach
	jmp	.LBB61_15
.Lfunc_end61:
	.size	levrun_linfo_c2x2.34, .Lfunc_end61-levrun_linfo_c2x2.34
	.cfi_endproc
                                        # -- End function
	.globl	writeSyntaxElement_UVLC.35 # -- Begin function writeSyntaxElement_UVLC.35
	.p2align	4, 0x90
	.type	writeSyntaxElement_UVLC.35,@function
writeSyntaxElement_UVLC.35:             # @writeSyntaxElement_UVLC.35
	.cfi_startproc
# %bb.0:                                # %entry
	pushq	%rbp
	.cfi_def_cfa_offset 16
	.cfi_offset %rbp, -16
	movq	%rsp, %rbp
	.cfi_def_cfa_register %rbp
	pushq	%rbx
	subq	$24, %rsp
	.cfi_offset %rbx, -24
	movl	$642478536, -20(%rbp)   # imm = 0x264B71C8
	movq	%rdi, -16(%rbp)
	movq	%rsi, -32(%rbp)
	movq	-16(%rbp), %rax
	movq	32(%rax), %rax
	movq	-16(%rbp), %rcx
	movl	4(%rcx), %edi
	movq	-16(%rbp), %rcx
	movl	8(%rcx), %esi
	movq	-16(%rbp), %rdx
	addq	$12, %rdx
	movq	-16(%rbp), %rcx
	addq	$16, %rcx
	callq	*%rax
	movq	-16(%rbp), %rdi
	callq	symbol2uvlc
	movq	-16(%rbp), %rdi
	movq	-32(%rbp), %rax
	movq	(%rax), %rsi
	callq	writeUVLC2buffer
	movq	-16(%rbp), %rax
	cmpl	$0, (%rax)
	je	.LBB62_2
# %bb.1:                                # %if.then
	movq	-32(%rbp), %rax
	movq	(%rax), %rax
	movl	$1, 40(%rax)
.LBB62_2:                               # %if.end
	movq	-16(%rbp), %rax
	movl	12(%rax), %ebx
	cmpl	$642478536, -20(%rbp)   # imm = 0x264B71C8
	jne	.LBB62_4
.LBB62_3:
	movl	%ebx, %eax
	addq	$24, %rsp
	popq	%rbx
	popq	%rbp
	.cfi_def_cfa %rsp, 8
	retq
.LBB62_4:                               # %func_exit
	.cfi_def_cfa %rbp, 16
	callq	detect_breach
	jmp	.LBB62_3
.Lfunc_end62:
	.size	writeSyntaxElement_UVLC.35, .Lfunc_end62-writeSyntaxElement_UVLC.35
	.cfi_endproc
                                        # -- End function
	.globl	se_v.36                 # -- Begin function se_v.36
	.p2align	4, 0x90
	.type	se_v.36,@function
se_v.36:                                # @se_v.36
	.cfi_startproc
# %bb.0:                                # %entry
	pushq	%rbp
	.cfi_def_cfa_offset 16
	.cfi_offset %rbp, -16
	movq	%rsp, %rbp
	.cfi_def_cfa_register %rbp
	pushq	%rbx
	subq	$88, %rsp
	.cfi_offset %rbx, -24
	movl	$1338908562, -24(%rbp)  # imm = 0x4FCE1F92
	movq	%rdi, -40(%rbp)
	movl	%esi, -20(%rbp)
	movq	%rdx, -32(%rbp)
	leaq	-88(%rbp), %rax
	movq	%rax, -16(%rbp)
	movq	-16(%rbp), %rax
	movl	$0, (%rax)
	movq	-16(%rbp), %rax
	movabsq	$se_linfo, %rcx
	movq	%rcx, 32(%rax)
	movl	-20(%rbp), %eax
	movq	-16(%rbp), %rcx
	movl	%eax, 4(%rcx)
	movq	-16(%rbp), %rax
	movl	$0, 8(%rax)
	movq	-16(%rbp), %rdi
	movq	-32(%rbp), %rsi
	callq	writeSyntaxElement_UVLC
	movl	%eax, %ebx
	cmpl	$1338908562, -24(%rbp)  # imm = 0x4FCE1F92
	jne	.LBB63_2
.LBB63_1:
	movl	%ebx, %eax
	addq	$88, %rsp
	popq	%rbx
	popq	%rbp
	.cfi_def_cfa %rsp, 8
	retq
.LBB63_2:                               # %func_exit
	.cfi_def_cfa %rbp, 16
	callq	detect_breach
	jmp	.LBB63_1
.Lfunc_end63:
	.size	se_v.36, .Lfunc_end63-se_v.36
	.cfi_endproc
                                        # -- End function
	.globl	writeSyntaxElement_NumCoeffTrailingOnesChromaDC.37 # -- Begin function writeSyntaxElement_NumCoeffTrailingOnesChromaDC.37
	.p2align	4, 0x90
	.type	writeSyntaxElement_NumCoeffTrailingOnesChromaDC.37,@function
writeSyntaxElement_NumCoeffTrailingOnesChromaDC.37: # @writeSyntaxElement_NumCoeffTrailingOnesChromaDC.37
	.cfi_startproc
# %bb.0:                                # %entry
	pushq	%rbp
	.cfi_def_cfa_offset 16
	.cfi_offset %rbp, -16
	movq	%rsp, %rbp
	.cfi_def_cfa_register %rbp
	pushq	%rbx
	subq	$24, %rsp
	.cfi_offset %rbx, -24
	movabsq	$writeSyntaxElement_NumCoeffTrailingOnesChromaDC.codtab, %rax
	movabsq	$writeSyntaxElement_NumCoeffTrailingOnesChromaDC.lentab, %rcx
	movl	$899063592, -24(%rbp)   # imm = 0x35969F28
	movq	%rdi, -16(%rbp)
	movq	%rsi, -32(%rbp)
	movq	img, %rdx
	movl	72700(%rdx), %edx
	subl	$1, %edx
	movl	%edx, -20(%rbp)
	movslq	-20(%rbp), %rdx
	imulq	$272, %rdx, %rdx        # imm = 0x110
	addq	%rdx, %rcx
	movq	-16(%rbp), %rdx
	movslq	8(%rdx), %rdx
	imulq	$68, %rdx, %rdx
	addq	%rdx, %rcx
	movq	-16(%rbp), %rdx
	movslq	4(%rdx), %rdx
	movl	(%rcx,%rdx,4), %ecx
	movq	-16(%rbp), %rdx
	movl	%ecx, 12(%rdx)
	movslq	-20(%rbp), %rcx
	imulq	$272, %rcx, %rcx        # imm = 0x110
	addq	%rcx, %rax
	movq	-16(%rbp), %rcx
	movslq	8(%rcx), %rcx
	imulq	$68, %rcx, %rcx
	addq	%rcx, %rax
	movq	-16(%rbp), %rcx
	movslq	4(%rcx), %rcx
	movl	(%rax,%rcx,4), %eax
	movq	-16(%rbp), %rcx
	movl	%eax, 16(%rcx)
	movq	-16(%rbp), %rax
	cmpl	$0, 12(%rax)
	jne	.LBB64_2
# %bb.1:                                # %if.then
	movq	-16(%rbp), %rax
	movl	4(%rax), %esi
	movq	-16(%rbp), %rax
	movl	8(%rax), %edx
	movabsq	$.L.str.1, %rdi
	movb	$0, %al
	callq	printf
	movl	$4294967295, %edi       # imm = 0xFFFFFFFF
	callq	exit
.LBB64_2:                               # %if.end
	movq	-16(%rbp), %rdi
	callq	symbol2vlc
	movq	-16(%rbp), %rdi
	movq	-32(%rbp), %rax
	movq	(%rax), %rsi
	callq	writeUVLC2buffer
	movq	-16(%rbp), %rax
	movl	12(%rax), %ebx
	cmpl	$899063592, -24(%rbp)   # imm = 0x35969F28
	jne	.LBB64_4
.LBB64_3:
	movl	%ebx, %eax
	addq	$24, %rsp
	popq	%rbx
	popq	%rbp
	.cfi_def_cfa %rsp, 8
	retq
.LBB64_4:                               # %func_exit
	.cfi_def_cfa %rbp, 16
	callq	detect_breach
	jmp	.LBB64_3
.Lfunc_end64:
	.size	writeSyntaxElement_NumCoeffTrailingOnesChromaDC.37, .Lfunc_end64-writeSyntaxElement_NumCoeffTrailingOnesChromaDC.37
	.cfi_endproc
                                        # -- End function
	.globl	writeSyntaxElement_Intra4x4PredictionMode.38 # -- Begin function writeSyntaxElement_Intra4x4PredictionMode.38
	.p2align	4, 0x90
	.type	writeSyntaxElement_Intra4x4PredictionMode.38,@function
writeSyntaxElement_Intra4x4PredictionMode.38: # @writeSyntaxElement_Intra4x4PredictionMode.38
	.cfi_startproc
# %bb.0:                                # %entry
	pushq	%rbp
	.cfi_def_cfa_offset 16
	.cfi_offset %rbp, -16
	movq	%rsp, %rbp
	.cfi_def_cfa_register %rbp
	pushq	%rbx
	subq	$24, %rsp
	.cfi_offset %rbx, -24
	movl	$1936574643, -20(%rbp)  # imm = 0x736DC8B3
	movq	%rdi, -16(%rbp)
	movq	%rsi, -32(%rbp)
	movq	-16(%rbp), %rax
	cmpl	$-1, 4(%rax)
	jne	.LBB65_2
# %bb.1:                                # %if.then
	movq	-16(%rbp), %rax
	movl	$1, 12(%rax)
	movq	-16(%rbp), %rax
	movl	$1, 16(%rax)
	jmp	.LBB65_3
.LBB65_2:                               # %if.else
	movq	-16(%rbp), %rax
	movl	$4, 12(%rax)
	movq	-16(%rbp), %rax
	movl	4(%rax), %eax
	movq	-16(%rbp), %rcx
	movl	%eax, 16(%rcx)
.LBB65_3:                               # %if.end
	movq	-16(%rbp), %rax
	movl	16(%rax), %eax
	movq	-16(%rbp), %rcx
	movl	%eax, 20(%rcx)
	movq	-16(%rbp), %rdi
	movq	-32(%rbp), %rax
	movq	(%rax), %rsi
	callq	writeUVLC2buffer
	movq	-16(%rbp), %rax
	cmpl	$0, (%rax)
	je	.LBB65_5
# %bb.4:                                # %if.then6
	movq	-32(%rbp), %rax
	movq	(%rax), %rax
	movl	$1, 40(%rax)
.LBB65_5:                               # %if.end8
	movq	-16(%rbp), %rax
	movl	12(%rax), %ebx
	cmpl	$1936574643, -20(%rbp)  # imm = 0x736DC8B3
	jne	.LBB65_7
.LBB65_6:
	movl	%ebx, %eax
	addq	$24, %rsp
	popq	%rbx
	popq	%rbp
	.cfi_def_cfa %rsp, 8
	retq
.LBB65_7:                               # %func_exit
	.cfi_def_cfa %rbp, 16
	callq	detect_breach
	jmp	.LBB65_6
.Lfunc_end65:
	.size	writeSyntaxElement_Intra4x4PredictionMode.38, .Lfunc_end65-writeSyntaxElement_Intra4x4PredictionMode.38
	.cfi_endproc
                                        # -- End function
	.globl	writeSyntaxElement2Buf_Fixed.39 # -- Begin function writeSyntaxElement2Buf_Fixed.39
	.p2align	4, 0x90
	.type	writeSyntaxElement2Buf_Fixed.39,@function
writeSyntaxElement2Buf_Fixed.39:        # @writeSyntaxElement2Buf_Fixed.39
	.cfi_startproc
# %bb.0:                                # %entry
	pushq	%rbp
	.cfi_def_cfa_offset 16
	.cfi_offset %rbp, -16
	movq	%rsp, %rbp
	.cfi_def_cfa_register %rbp
	pushq	%rbx
	subq	$24, %rsp
	.cfi_offset %rbx, -24
	movl	$1897260176, -12(%rbp)  # imm = 0x7115E490
	movq	%rdi, -24(%rbp)
	movq	%rsi, -32(%rbp)
	movq	-24(%rbp), %rdi
	movq	-32(%rbp), %rsi
	callq	writeUVLC2buffer
	movq	-24(%rbp), %rax
	movl	12(%rax), %ebx
	cmpl	$1897260176, -12(%rbp)  # imm = 0x7115E490
	jne	.LBB66_2
.LBB66_1:
	movl	%ebx, %eax
	addq	$24, %rsp
	popq	%rbx
	popq	%rbp
	.cfi_def_cfa %rsp, 8
	retq
.LBB66_2:                               # %func_exit
	.cfi_def_cfa %rbp, 16
	callq	detect_breach
	jmp	.LBB66_1
.Lfunc_end66:
	.size	writeSyntaxElement2Buf_Fixed.39, .Lfunc_end66-writeSyntaxElement2Buf_Fixed.39
	.cfi_endproc
                                        # -- End function
	.globl	u_v.40                  # -- Begin function u_v.40
	.p2align	4, 0x90
	.type	u_v.40,@function
u_v.40:                                 # @u_v.40
	.cfi_startproc
# %bb.0:                                # %entry
	pushq	%rbp
	.cfi_def_cfa_offset 16
	.cfi_offset %rbp, -16
	movq	%rsp, %rbp
	.cfi_def_cfa_register %rbp
	pushq	%rbx
	subq	$88, %rsp
	.cfi_offset %rbx, -24
	movl	$775475488, -24(%rbp)   # imm = 0x2E38D120
	movl	%edi, -28(%rbp)
	movq	%rsi, -48(%rbp)
	movl	%edx, -20(%rbp)
	movq	%rcx, -40(%rbp)
	leaq	-96(%rbp), %rax
	movq	%rax, -16(%rbp)
	movl	-20(%rbp), %eax
	movq	-16(%rbp), %rcx
	movl	%eax, 20(%rcx)
	movl	-28(%rbp), %eax
	movq	-16(%rbp), %rcx
	movl	%eax, 12(%rcx)
	movq	-16(%rbp), %rax
	movl	$0, (%rax)
	movl	-20(%rbp), %eax
	movq	-16(%rbp), %rcx
	movl	%eax, 4(%rcx)
	movq	-16(%rbp), %rax
	movl	$0, 8(%rax)
	movq	-16(%rbp), %rdi
	movq	-40(%rbp), %rsi
	callq	writeSyntaxElement_fixed
	movl	%eax, %ebx
	cmpl	$775475488, -24(%rbp)   # imm = 0x2E38D120
	jne	.LBB67_2
.LBB67_1:
	movl	%ebx, %eax
	addq	$88, %rsp
	popq	%rbx
	popq	%rbp
	.cfi_def_cfa %rsp, 8
	retq
.LBB67_2:                               # %func_exit
	.cfi_def_cfa %rbp, 16
	callq	detect_breach
	jmp	.LBB67_1
.Lfunc_end67:
	.size	u_v.40, .Lfunc_end67-u_v.40
	.cfi_endproc
                                        # -- End function
	.section	.rodata.cst8,"aM",@progbits,8
	.p2align	3               # -- Begin function se_linfo.41
.LCPI68_0:
	.quad	4611686018427387904     # double 2
	.text
	.globl	se_linfo.41
	.p2align	4, 0x90
	.type	se_linfo.41,@function
se_linfo.41:                            # @se_linfo.41
	.cfi_startproc
# %bb.0:                                # %entry
	pushq	%rbp
	.cfi_def_cfa_offset 16
	.cfi_offset %rbp, -16
	movq	%rsp, %rbp
	.cfi_def_cfa_register %rbp
	pushq	%rbx
	subq	$56, %rsp
	.cfi_offset %rbx, -24
	movl	$142314166, -32(%rbp)   # imm = 0x87B8AB6
	movl	%edi, -28(%rbp)
	movl	%esi, -52(%rbp)
	movq	%rdx, -40(%rbp)
	movq	%rcx, -48(%rbp)
	movl	$0, -24(%rbp)
	cmpl	$0, -28(%rbp)
	jg	.LBB68_2
# %bb.1:                                # %if.then
	movl	$1, -24(%rbp)
.LBB68_2:                               # %if.end
	movl	-28(%rbp), %edi
	callq	abs
	shll	$1, %eax
	movl	%eax, -20(%rbp)
	movl	-20(%rbp), %eax
	cltd
	movl	$2, %ecx
	idivl	%ecx
	movl	%eax, -16(%rbp)
	movl	$0, -12(%rbp)
.LBB68_3:                               # %for.cond
                                        # =>This Inner Loop Header: Depth=1
	xorl	%eax, %eax
	cmpl	$16, -12(%rbp)
	jge	.LBB68_5
# %bb.4:                                # %land.rhs
                                        #   in Loop: Header=BB68_3 Depth=1
	cmpl	$0, -16(%rbp)
	setne	%al
.LBB68_5:                               # %land.end
                                        #   in Loop: Header=BB68_3 Depth=1
	testb	$1, %al
	jne	.LBB68_6
	jmp	.LBB68_8
.LBB68_6:                               # %for.body
                                        #   in Loop: Header=BB68_3 Depth=1
	movl	-16(%rbp), %eax
	cltd
	movl	$2, %ecx
	idivl	%ecx
	movl	%eax, -16(%rbp)
# %bb.7:                                # %for.inc
                                        #   in Loop: Header=BB68_3 Depth=1
	movl	-12(%rbp), %eax
	addl	$1, %eax
	movl	%eax, -12(%rbp)
	jmp	.LBB68_3
.LBB68_8:                               # %for.end
	vmovsd	.LCPI68_0(%rip), %xmm0  # xmm0 = mem[0],zero
	movl	-12(%rbp), %eax
	shll	$1, %eax
	addl	$1, %eax
	movq	-40(%rbp), %rcx
	movl	%eax, (%rcx)
	movl	-20(%rbp), %ebx
	vcvtsi2sdl	-12(%rbp), %xmm0, %xmm1
	callq	pow
	vcvttsd2si	%xmm0, %eax
	subl	%eax, %ebx
	addl	-24(%rbp), %ebx
	movq	-48(%rbp), %rax
	movl	%ebx, (%rax)
	cmpl	$142314166, -32(%rbp)   # imm = 0x87B8AB6
	jne	.LBB68_10
.LBB68_9:
	addq	$56, %rsp
	popq	%rbx
	popq	%rbp
	.cfi_def_cfa %rsp, 8
	retq
.LBB68_10:                              # %func_exit
	.cfi_def_cfa %rbp, 16
	callq	detect_breach
	jmp	.LBB68_9
.Lfunc_end68:
	.size	se_linfo.41, .Lfunc_end68-se_linfo.41
	.cfi_endproc
                                        # -- End function
	.globl	writeUVLC2buffer.42     # -- Begin function writeUVLC2buffer.42
	.p2align	4, 0x90
	.type	writeUVLC2buffer.42,@function
writeUVLC2buffer.42:                    # @writeUVLC2buffer.42
	.cfi_startproc
# %bb.0:                                # %entry
	pushq	%rbp
	.cfi_def_cfa_offset 16
	.cfi_offset %rbp, -16
	movq	%rsp, %rbp
	.cfi_def_cfa_register %rbp
	subq	$32, %rsp
	movl	$194630119, -28(%rbp)   # imm = 0xB99D1E7
	movq	%rdi, -24(%rbp)
	movq	%rsi, -8(%rbp)
	movq	-24(%rbp), %rax
	movl	12(%rax), %ecx
	subl	$1, %ecx
                                        # kill: def $cl killed $ecx
	movl	$1, %eax
	shll	%cl, %eax
	movl	%eax, -16(%rbp)
	movl	$0, -12(%rbp)
.LBB69_1:                               # %for.cond
                                        # =>This Inner Loop Header: Depth=1
	movl	-12(%rbp), %eax
	movq	-24(%rbp), %rcx
	cmpl	12(%rcx), %eax
	jge	.LBB69_8
# %bb.2:                                # %for.body
                                        #   in Loop: Header=BB69_1 Depth=1
	movq	-8(%rbp), %rax
	movzbl	8(%rax), %ecx
	shll	$1, %ecx
	movb	%cl, 8(%rax)
	movq	-24(%rbp), %rax
	movl	20(%rax), %eax
	andl	-16(%rbp), %eax
	cmpl	$0, %eax
	je	.LBB69_4
# %bb.3:                                # %if.then
                                        #   in Loop: Header=BB69_1 Depth=1
	movq	-8(%rbp), %rax
	movzbl	8(%rax), %ecx
	orl	$1, %ecx
	movb	%cl, 8(%rax)
.LBB69_4:                               # %if.end
                                        #   in Loop: Header=BB69_1 Depth=1
	movq	-8(%rbp), %rax
	movl	4(%rax), %ecx
	addl	$-1, %ecx
	movl	%ecx, 4(%rax)
	movl	-16(%rbp), %eax
	shrl	$1, %eax
	movl	%eax, -16(%rbp)
	movq	-8(%rbp), %rax
	cmpl	$0, 4(%rax)
	jne	.LBB69_6
# %bb.5:                                # %if.then10
                                        #   in Loop: Header=BB69_1 Depth=1
	movq	-8(%rbp), %rax
	movl	$8, 4(%rax)
	movq	-8(%rbp), %rax
	movb	8(%rax), %al
	movq	-8(%rbp), %rcx
	movq	32(%rcx), %rcx
	movq	-8(%rbp), %rdx
	movl	(%rdx), %esi
	movl	%esi, %edi
	addl	$1, %edi
	movl	%edi, (%rdx)
	movslq	%esi, %rdx
	movb	%al, (%rcx,%rdx)
	movq	-8(%rbp), %rax
	movb	$0, 8(%rax)
.LBB69_6:                               # %if.end14
                                        #   in Loop: Header=BB69_1 Depth=1
	jmp	.LBB69_7
.LBB69_7:                               # %for.inc
                                        #   in Loop: Header=BB69_1 Depth=1
	movl	-12(%rbp), %eax
	addl	$1, %eax
	movl	%eax, -12(%rbp)
	jmp	.LBB69_1
.LBB69_8:                               # %for.end
	cmpl	$194630119, -28(%rbp)   # imm = 0xB99D1E7
	jne	.LBB69_10
.LBB69_9:
	addq	$32, %rsp
	popq	%rbp
	.cfi_def_cfa %rsp, 8
	retq
.LBB69_10:                              # %func_exit
	.cfi_def_cfa %rbp, 16
	callq	detect_breach
	jmp	.LBB69_9
.Lfunc_end69:
	.size	writeUVLC2buffer.42, .Lfunc_end69-writeUVLC2buffer.42
	.cfi_endproc
                                        # -- End function
	.section	.rodata.cst8,"aM",@progbits,8
	.p2align	3               # -- Begin function levrun_linfo_intra.43
.LCPI70_0:
	.quad	4611686018427387904     # double 2
	.text
	.globl	levrun_linfo_intra.43
	.p2align	4, 0x90
	.type	levrun_linfo_intra.43,@function
levrun_linfo_intra.43:                  # @levrun_linfo_intra.43
	.cfi_startproc
# %bb.0:                                # %entry
	pushq	%rbp
	.cfi_def_cfa_offset 16
	.cfi_offset %rbp, -16
	movq	%rsp, %rbp
	.cfi_def_cfa_register %rbp
	pushq	%rbx
	subq	$104, %rsp
	.cfi_offset %rbx, -24
	movl	$108488828, -40(%rbp)   # imm = 0x677687C
	movl	%edi, -20(%rbp)
	movl	%esi, -16(%rbp)
	movq	%rdx, -48(%rbp)
	movq	%rcx, -64(%rbp)
	movq	.L__const.levrun_linfo_intra.LEVRUN, %rax
	movq	%rax, -56(%rbp)
	leaq	-112(%rbp), %rdi
	movabsq	$.L__const.levrun_linfo_intra.NTAB, %rsi
	movl	$45, %edx
	callq	memcpy
	cmpl	$0, -20(%rbp)
	jne	.LBB70_2
# %bb.1:                                # %if.then
	movq	-48(%rbp), %rax
	movl	$1, (%rax)
	jmp	.LBB70_15
.LBB70_2:                               # %if.end
	cmpl	$0, -20(%rbp)
	jg	.LBB70_4
# %bb.3:                                # %if.then2
	movl	$1, -36(%rbp)
	jmp	.LBB70_5
.LBB70_4:                               # %if.else
	movl	$0, -36(%rbp)
.LBB70_5:                               # %if.end3
	movl	-20(%rbp), %edi
	callq	abs
	movl	%eax, -24(%rbp)
	movl	-24(%rbp), %eax
	movslq	-16(%rbp), %rcx
	movzbl	-56(%rbp,%rcx), %ecx
	cmpl	%ecx, %eax
	jg	.LBB70_7
# %bb.6:                                # %if.then6
	movl	-24(%rbp), %eax
	subl	$1, %eax
	cltq
	imulq	$5, %rax, %rax
	leaq	-112(%rbp), %rcx
	addq	%rax, %rcx
	movslq	-16(%rbp), %rax
	movzbl	(%rcx,%rax), %eax
	addl	$1, %eax
	movl	%eax, -32(%rbp)
	jmp	.LBB70_8
.LBB70_7:                               # %if.else12
	movl	-24(%rbp), %eax
	movslq	-16(%rbp), %rcx
	movzbl	-56(%rbp,%rcx), %ecx
	subl	%ecx, %eax
	shll	$4, %eax
	addl	$16, %eax
	movl	-16(%rbp), %ecx
	shll	$1, %ecx
	addl	%ecx, %eax
	movl	%eax, -32(%rbp)
.LBB70_8:                               # %if.end20
	movl	-32(%rbp), %eax
	cltd
	movl	$2, %ecx
	idivl	%ecx
	movl	%eax, -28(%rbp)
	movl	$0, -12(%rbp)
.LBB70_9:                               # %for.cond
                                        # =>This Inner Loop Header: Depth=1
	xorl	%eax, %eax
	cmpl	$16, -12(%rbp)
	jge	.LBB70_11
# %bb.10:                               # %land.rhs
                                        #   in Loop: Header=BB70_9 Depth=1
	cmpl	$0, -28(%rbp)
	setne	%al
.LBB70_11:                              # %land.end
                                        #   in Loop: Header=BB70_9 Depth=1
	testb	$1, %al
	jne	.LBB70_12
	jmp	.LBB70_14
.LBB70_12:                              # %for.body
                                        #   in Loop: Header=BB70_9 Depth=1
	movl	-28(%rbp), %eax
	cltd
	movl	$2, %ecx
	idivl	%ecx
	movl	%eax, -28(%rbp)
# %bb.13:                               # %for.inc
                                        #   in Loop: Header=BB70_9 Depth=1
	movl	-12(%rbp), %eax
	addl	$1, %eax
	movl	%eax, -12(%rbp)
	jmp	.LBB70_9
.LBB70_14:                              # %for.end
	vmovsd	.LCPI70_0(%rip), %xmm0  # xmm0 = mem[0],zero
	movl	-12(%rbp), %eax
	shll	$1, %eax
	addl	$1, %eax
	movq	-48(%rbp), %rcx
	movl	%eax, (%rcx)
	movl	-32(%rbp), %ebx
	vcvtsi2sdl	-12(%rbp), %xmm0, %xmm1
	callq	pow
	vcvttsd2si	%xmm0, %eax
	subl	%eax, %ebx
	addl	-36(%rbp), %ebx
	movq	-64(%rbp), %rax
	movl	%ebx, (%rax)
.LBB70_15:                              # %return
	cmpl	$108488828, -40(%rbp)   # imm = 0x677687C
	jne	.LBB70_17
.LBB70_16:
	addq	$104, %rsp
	popq	%rbx
	popq	%rbp
	.cfi_def_cfa %rsp, 8
	retq
.LBB70_17:                              # %func_exit
	.cfi_def_cfa %rbp, 16
	callq	detect_breach
	jmp	.LBB70_16
.Lfunc_end70:
	.size	levrun_linfo_intra.43, .Lfunc_end70-levrun_linfo_intra.43
	.cfi_endproc
                                        # -- End function
	.globl	writeSyntaxElement_Run.44 # -- Begin function writeSyntaxElement_Run.44
	.p2align	4, 0x90
	.type	writeSyntaxElement_Run.44,@function
writeSyntaxElement_Run.44:              # @writeSyntaxElement_Run.44
	.cfi_startproc
# %bb.0:                                # %entry
	pushq	%rbp
	.cfi_def_cfa_offset 16
	.cfi_offset %rbp, -16
	movq	%rsp, %rbp
	.cfi_def_cfa_register %rbp
	pushq	%rbx
	subq	$24, %rsp
	.cfi_offset %rbx, -24
	movabsq	$writeSyntaxElement_Run.codtab, %rax
	movabsq	$writeSyntaxElement_Run.lentab, %rcx
	movl	$676281798, -24(%rbp)   # imm = 0x284F3DC6
	movq	%rdi, -16(%rbp)
	movq	%rsi, -32(%rbp)
	movq	-16(%rbp), %rdx
	movl	12(%rdx), %edx
	movl	%edx, -20(%rbp)
	movslq	-20(%rbp), %rdx
	shlq	$6, %rdx
	addq	%rdx, %rcx
	movq	-16(%rbp), %rdx
	movslq	4(%rdx), %rdx
	movl	(%rcx,%rdx,4), %ecx
	movq	-16(%rbp), %rdx
	movl	%ecx, 12(%rdx)
	movslq	-20(%rbp), %rcx
	shlq	$6, %rcx
	addq	%rcx, %rax
	movq	-16(%rbp), %rcx
	movslq	4(%rcx), %rcx
	movl	(%rax,%rcx,4), %eax
	movq	-16(%rbp), %rcx
	movl	%eax, 16(%rcx)
	movq	-16(%rbp), %rax
	cmpl	$0, 12(%rax)
	jne	.LBB71_2
# %bb.1:                                # %if.then
	movq	-16(%rbp), %rax
	movl	4(%rax), %esi
	movabsq	$.L.str.3, %rdi
	movb	$0, %al
	callq	printf
	movl	$4294967295, %edi       # imm = 0xFFFFFFFF
	callq	exit
.LBB71_2:                               # %if.end
	movq	-16(%rbp), %rdi
	callq	symbol2vlc
	movq	-16(%rbp), %rdi
	movq	-32(%rbp), %rax
	movq	(%rax), %rsi
	callq	writeUVLC2buffer
	movq	-16(%rbp), %rax
	movl	12(%rax), %ebx
	cmpl	$676281798, -24(%rbp)   # imm = 0x284F3DC6
	jne	.LBB71_4
.LBB71_3:
	movl	%ebx, %eax
	addq	$24, %rsp
	popq	%rbx
	popq	%rbp
	.cfi_def_cfa %rsp, 8
	retq
.LBB71_4:                               # %func_exit
	.cfi_def_cfa %rbp, 16
	callq	detect_breach
	jmp	.LBB71_3
.Lfunc_end71:
	.size	writeSyntaxElement_Run.44, .Lfunc_end71-writeSyntaxElement_Run.44
	.cfi_endproc
                                        # -- End function
	.globl	writeSyntaxElement_TotalZerosChromaDC.45 # -- Begin function writeSyntaxElement_TotalZerosChromaDC.45
	.p2align	4, 0x90
	.type	writeSyntaxElement_TotalZerosChromaDC.45,@function
writeSyntaxElement_TotalZerosChromaDC.45: # @writeSyntaxElement_TotalZerosChromaDC.45
	.cfi_startproc
# %bb.0:                                # %entry
	pushq	%rbp
	.cfi_def_cfa_offset 16
	.cfi_offset %rbp, -16
	movq	%rsp, %rbp
	.cfi_def_cfa_register %rbp
	pushq	%rbx
	subq	$40, %rsp
	.cfi_offset %rbx, -24
	movabsq	$writeSyntaxElement_TotalZerosChromaDC.codtab, %rax
	movabsq	$writeSyntaxElement_TotalZerosChromaDC.lentab, %rcx
	movl	$1231780959, -28(%rbp)  # imm = 0x496B7C5F
	movq	%rdi, -16(%rbp)
	movq	%rsi, -40(%rbp)
	movq	img, %rdx
	movl	72700(%rdx), %edx
	subl	$1, %edx
	movl	%edx, -24(%rbp)
	movq	-16(%rbp), %rdx
	movl	12(%rdx), %edx
	movl	%edx, -20(%rbp)
	movslq	-24(%rbp), %rdx
	imulq	$960, %rdx, %rdx        # imm = 0x3C0
	addq	%rdx, %rcx
	movslq	-20(%rbp), %rdx
	shlq	$6, %rdx
	addq	%rdx, %rcx
	movq	-16(%rbp), %rdx
	movslq	4(%rdx), %rdx
	movl	(%rcx,%rdx,4), %ecx
	movq	-16(%rbp), %rdx
	movl	%ecx, 12(%rdx)
	movslq	-24(%rbp), %rcx
	imulq	$960, %rcx, %rcx        # imm = 0x3C0
	addq	%rcx, %rax
	movslq	-20(%rbp), %rcx
	shlq	$6, %rcx
	addq	%rcx, %rax
	movq	-16(%rbp), %rcx
	movslq	4(%rcx), %rcx
	movl	(%rax,%rcx,4), %eax
	movq	-16(%rbp), %rcx
	movl	%eax, 16(%rcx)
	movq	-16(%rbp), %rax
	cmpl	$0, 12(%rax)
	jne	.LBB72_2
# %bb.1:                                # %if.then
	movq	-16(%rbp), %rax
	movl	4(%rax), %esi
	movabsq	$.L.str.2, %rdi
	movb	$0, %al
	callq	printf
	movl	$4294967295, %edi       # imm = 0xFFFFFFFF
	callq	exit
.LBB72_2:                               # %if.end
	movq	-16(%rbp), %rdi
	callq	symbol2vlc
	movq	-16(%rbp), %rdi
	movq	-40(%rbp), %rax
	movq	(%rax), %rsi
	callq	writeUVLC2buffer
	movq	-16(%rbp), %rax
	movl	12(%rax), %ebx
	cmpl	$1231780959, -28(%rbp)  # imm = 0x496B7C5F
	jne	.LBB72_4
.LBB72_3:
	movl	%ebx, %eax
	addq	$40, %rsp
	popq	%rbx
	popq	%rbp
	.cfi_def_cfa %rsp, 8
	retq
.LBB72_4:                               # %func_exit
	.cfi_def_cfa %rbp, 16
	callq	detect_breach
	jmp	.LBB72_3
.Lfunc_end72:
	.size	writeSyntaxElement_TotalZerosChromaDC.45, .Lfunc_end72-writeSyntaxElement_TotalZerosChromaDC.45
	.cfi_endproc
                                        # -- End function
	.globl	u_v.46                  # -- Begin function u_v.46
	.p2align	4, 0x90
	.type	u_v.46,@function
u_v.46:                                 # @u_v.46
	.cfi_startproc
# %bb.0:                                # %entry
	pushq	%rbp
	.cfi_def_cfa_offset 16
	.cfi_offset %rbp, -16
	movq	%rsp, %rbp
	.cfi_def_cfa_register %rbp
	pushq	%rbx
	subq	$88, %rsp
	.cfi_offset %rbx, -24
	movl	$219979032, -24(%rbp)   # imm = 0xD1C9D18
	movl	%edi, -28(%rbp)
	movq	%rsi, -48(%rbp)
	movl	%edx, -20(%rbp)
	movq	%rcx, -40(%rbp)
	leaq	-96(%rbp), %rax
	movq	%rax, -16(%rbp)
	movl	-20(%rbp), %eax
	movq	-16(%rbp), %rcx
	movl	%eax, 20(%rcx)
	movl	-28(%rbp), %eax
	movq	-16(%rbp), %rcx
	movl	%eax, 12(%rcx)
	movq	-16(%rbp), %rax
	movl	$0, (%rax)
	movl	-20(%rbp), %eax
	movq	-16(%rbp), %rcx
	movl	%eax, 4(%rcx)
	movq	-16(%rbp), %rax
	movl	$0, 8(%rax)
	movq	-16(%rbp), %rdi
	movq	-40(%rbp), %rsi
	callq	writeSyntaxElement_fixed
	movl	%eax, %ebx
	cmpl	$219979032, -24(%rbp)   # imm = 0xD1C9D18
	jne	.LBB73_2
.LBB73_1:
	movl	%ebx, %eax
	addq	$88, %rsp
	popq	%rbx
	popq	%rbp
	.cfi_def_cfa %rsp, 8
	retq
.LBB73_2:                               # %func_exit
	.cfi_def_cfa %rbp, 16
	callq	detect_breach
	jmp	.LBB73_1
.Lfunc_end73:
	.size	u_v.46, .Lfunc_end73-u_v.46
	.cfi_endproc
                                        # -- End function
	.globl	cbp_linfo_intra.47      # -- Begin function cbp_linfo_intra.47
	.p2align	4, 0x90
	.type	cbp_linfo_intra.47,@function
cbp_linfo_intra.47:                     # @cbp_linfo_intra.47
	.cfi_startproc
# %bb.0:                                # %entry
	pushq	%rbp
	.cfi_def_cfa_offset 16
	.cfi_offset %rbp, -16
	movq	%rsp, %rbp
	.cfi_def_cfa_register %rbp
	subq	$32, %rsp
	xorl	%eax, %eax
	movl	$1822448582, -12(%rbp)  # imm = 0x6CA05BC6
	movl	%edi, -4(%rbp)
	movl	%esi, -8(%rbp)
	movq	%rdx, -24(%rbp)
	movq	%rcx, -32(%rbp)
	movq	img, %rcx
	movl	72700(%rcx), %ecx
	cmpl	$0, %ecx
	movl	$1, %ecx
	cmovnel	%ecx, %eax
	cltq
	imulq	$96, %rax, %rax
	movabsq	$NCBP, %rcx
	addq	%rax, %rcx
	movslq	-4(%rbp), %rax
	movzbl	(%rcx,%rax,2), %edi
	movl	-8(%rbp), %esi
	movq	-24(%rbp), %rdx
	movq	-32(%rbp), %rcx
	callq	ue_linfo
	cmpl	$1822448582, -12(%rbp)  # imm = 0x6CA05BC6
	jne	.LBB74_2
.LBB74_1:
	addq	$32, %rsp
	popq	%rbp
	.cfi_def_cfa %rsp, 8
	retq
.LBB74_2:                               # %func_exit
	.cfi_def_cfa %rbp, 16
	callq	detect_breach
	jmp	.LBB74_1
.Lfunc_end74:
	.size	cbp_linfo_intra.47, .Lfunc_end74-cbp_linfo_intra.47
	.cfi_endproc
                                        # -- End function
	.globl	writeSyntaxElement_Level_VLCN.48 # -- Begin function writeSyntaxElement_Level_VLCN.48
	.p2align	4, 0x90
	.type	writeSyntaxElement_Level_VLCN.48,@function
writeSyntaxElement_Level_VLCN.48:       # @writeSyntaxElement_Level_VLCN.48
	.cfi_startproc
# %bb.0:                                # %entry
	pushq	%rbp
	.cfi_def_cfa_offset 16
	.cfi_offset %rbp, -16
	movq	%rsp, %rbp
	.cfi_def_cfa_register %rbp
	pushq	%rbx
	subq	$72, %rsp
	.cfi_offset %rbx, -24
	movl	$2036849854, -64(%rbp)  # imm = 0x7967DCBE
	movq	%rdi, -24(%rbp)
	movl	%esi, -44(%rbp)
	movq	%rdx, -72(%rbp)
	movq	-24(%rbp), %rax
	movl	4(%rax), %eax
	movl	%eax, -32(%rbp)
	movl	-32(%rbp), %edi
	callq	abs
	xorl	%ecx, %ecx
	movl	%eax, -16(%rbp)
	movl	-32(%rbp), %eax
	cmpl	$0, %eax
	movl	$1, %eax
	cmovll	%eax, %ecx
	movl	%ecx, -48(%rbp)
	movl	-44(%rbp), %eax
	subl	$1, %eax
	movl	%eax, -12(%rbp)
	movl	-12(%rbp), %ecx
                                        # kill: def $cl killed $ecx
	movl	$15, %eax
	shll	%cl, %eax
	addl	$1, %eax
	movl	%eax, -28(%rbp)
	movl	-16(%rbp), %eax
	subl	$1, %eax
	movl	-12(%rbp), %ecx
                                        # kill: def $cl killed $ecx
	sarl	%cl, %eax
	movl	%eax, -60(%rbp)
	movl	-12(%rbp), %ecx
                                        # kill: def $cl killed $ecx
	movl	$4294967295, %eax       # imm = 0xFFFFFFFF
	shll	%cl, %eax
	xorl	$-1, %eax
	movl	%eax, -52(%rbp)
	movl	-16(%rbp), %eax
	subl	$1, %eax
	andl	-52(%rbp), %eax
	movl	%eax, -56(%rbp)
	movl	-16(%rbp), %eax
	cmpl	-28(%rbp), %eax
	jge	.LBB75_2
# %bb.1:                                # %if.then
	movl	-60(%rbp), %eax
	addl	-44(%rbp), %eax
	addl	$1, %eax
	movl	%eax, -36(%rbp)
	movl	-12(%rbp), %ecx
	addl	$1, %ecx
                                        # kill: def $cl killed $ecx
	movl	$1, %eax
	shll	%cl, %eax
	movl	-56(%rbp), %ecx
	shll	$1, %ecx
	orl	%ecx, %eax
	orl	-48(%rbp), %eax
	movl	%eax, -40(%rbp)
	jmp	.LBB75_3
.LBB75_2:                               # %if.else
	movl	$28, -36(%rbp)
	movl	-16(%rbp), %eax
	subl	-28(%rbp), %eax
	shll	$1, %eax
	orl	$4096, %eax             # imm = 0x1000
	orl	-48(%rbp), %eax
	movl	%eax, -40(%rbp)
.LBB75_3:                               # %if.end
	movl	-36(%rbp), %eax
	movq	-24(%rbp), %rcx
	movl	%eax, 12(%rcx)
	movl	-40(%rbp), %eax
	movq	-24(%rbp), %rcx
	movl	%eax, 16(%rcx)
	movq	-24(%rbp), %rdi
	callq	symbol2vlc
	movq	-24(%rbp), %rdi
	movq	-72(%rbp), %rax
	movq	(%rax), %rsi
	callq	writeUVLC2buffer
	movq	-24(%rbp), %rax
	movl	12(%rax), %ebx
	cmpl	$2036849854, -64(%rbp)  # imm = 0x7967DCBE
	jne	.LBB75_5
.LBB75_4:
	movl	%ebx, %eax
	addq	$72, %rsp
	popq	%rbx
	popq	%rbp
	.cfi_def_cfa %rsp, 8
	retq
.LBB75_5:                               # %func_exit
	.cfi_def_cfa %rbp, 16
	callq	detect_breach
	jmp	.LBB75_4
.Lfunc_end75:
	.size	writeSyntaxElement_Level_VLCN.48, .Lfunc_end75-writeSyntaxElement_Level_VLCN.48
	.cfi_endproc
                                        # -- End function
	.globl	writeUVLC2buffer.49     # -- Begin function writeUVLC2buffer.49
	.p2align	4, 0x90
	.type	writeUVLC2buffer.49,@function
writeUVLC2buffer.49:                    # @writeUVLC2buffer.49
	.cfi_startproc
# %bb.0:                                # %entry
	pushq	%rbp
	.cfi_def_cfa_offset 16
	.cfi_offset %rbp, -16
	movq	%rsp, %rbp
	.cfi_def_cfa_register %rbp
	subq	$32, %rsp
	movl	$1132235696, -28(%rbp)  # imm = 0x437C8BB0
	movq	%rdi, -24(%rbp)
	movq	%rsi, -8(%rbp)
	movq	-24(%rbp), %rax
	movl	12(%rax), %ecx
	subl	$1, %ecx
                                        # kill: def $cl killed $ecx
	movl	$1, %eax
	shll	%cl, %eax
	movl	%eax, -12(%rbp)
	movl	$0, -16(%rbp)
.LBB76_1:                               # %for.cond
                                        # =>This Inner Loop Header: Depth=1
	movl	-16(%rbp), %eax
	movq	-24(%rbp), %rcx
	cmpl	12(%rcx), %eax
	jge	.LBB76_8
# %bb.2:                                # %for.body
                                        #   in Loop: Header=BB76_1 Depth=1
	movq	-8(%rbp), %rax
	movzbl	8(%rax), %ecx
	shll	$1, %ecx
	movb	%cl, 8(%rax)
	movq	-24(%rbp), %rax
	movl	20(%rax), %eax
	andl	-12(%rbp), %eax
	cmpl	$0, %eax
	je	.LBB76_4
# %bb.3:                                # %if.then
                                        #   in Loop: Header=BB76_1 Depth=1
	movq	-8(%rbp), %rax
	movzbl	8(%rax), %ecx
	orl	$1, %ecx
	movb	%cl, 8(%rax)
.LBB76_4:                               # %if.end
                                        #   in Loop: Header=BB76_1 Depth=1
	movq	-8(%rbp), %rax
	movl	4(%rax), %ecx
	addl	$-1, %ecx
	movl	%ecx, 4(%rax)
	movl	-12(%rbp), %eax
	shrl	$1, %eax
	movl	%eax, -12(%rbp)
	movq	-8(%rbp), %rax
	cmpl	$0, 4(%rax)
	jne	.LBB76_6
# %bb.5:                                # %if.then10
                                        #   in Loop: Header=BB76_1 Depth=1
	movq	-8(%rbp), %rax
	movl	$8, 4(%rax)
	movq	-8(%rbp), %rax
	movb	8(%rax), %al
	movq	-8(%rbp), %rcx
	movq	32(%rcx), %rcx
	movq	-8(%rbp), %rdx
	movl	(%rdx), %esi
	movl	%esi, %edi
	addl	$1, %edi
	movl	%edi, (%rdx)
	movslq	%esi, %rdx
	movb	%al, (%rcx,%rdx)
	movq	-8(%rbp), %rax
	movb	$0, 8(%rax)
.LBB76_6:                               # %if.end14
                                        #   in Loop: Header=BB76_1 Depth=1
	jmp	.LBB76_7
.LBB76_7:                               # %for.inc
                                        #   in Loop: Header=BB76_1 Depth=1
	movl	-16(%rbp), %eax
	addl	$1, %eax
	movl	%eax, -16(%rbp)
	jmp	.LBB76_1
.LBB76_8:                               # %for.end
	cmpl	$1132235696, -28(%rbp)  # imm = 0x437C8BB0
	jne	.LBB76_10
.LBB76_9:
	addq	$32, %rsp
	popq	%rbp
	.cfi_def_cfa %rsp, 8
	retq
.LBB76_10:                              # %func_exit
	.cfi_def_cfa %rbp, 16
	callq	detect_breach
	jmp	.LBB76_9
.Lfunc_end76:
	.size	writeUVLC2buffer.49, .Lfunc_end76-writeUVLC2buffer.49
	.cfi_endproc
                                        # -- End function
	.globl	u_1.50                  # -- Begin function u_1.50
	.p2align	4, 0x90
	.type	u_1.50,@function
u_1.50:                                 # @u_1.50
	.cfi_startproc
# %bb.0:                                # %entry
	pushq	%rbp
	.cfi_def_cfa_offset 16
	.cfi_offset %rbp, -16
	movq	%rsp, %rbp
	.cfi_def_cfa_register %rbp
	pushq	%rbx
	subq	$88, %rsp
	.cfi_offset %rbx, -24
	movl	$199959552, -24(%rbp)   # imm = 0xBEB2400
	movq	%rdi, -40(%rbp)
	movl	%esi, -20(%rbp)
	movq	%rdx, -32(%rbp)
	leaq	-88(%rbp), %rax
	movq	%rax, -16(%rbp)
	movl	-20(%rbp), %eax
	movq	-16(%rbp), %rcx
	movl	%eax, 20(%rcx)
	movq	-16(%rbp), %rax
	movl	$1, 12(%rax)
	movq	-16(%rbp), %rax
	movl	$0, (%rax)
	movl	-20(%rbp), %eax
	movq	-16(%rbp), %rcx
	movl	%eax, 4(%rcx)
	movq	-16(%rbp), %rax
	movl	$0, 8(%rax)
	movq	-16(%rbp), %rdi
	movq	-32(%rbp), %rsi
	callq	writeSyntaxElement_fixed
	movl	%eax, %ebx
	cmpl	$199959552, -24(%rbp)   # imm = 0xBEB2400
	jne	.LBB77_2
.LBB77_1:
	movl	%ebx, %eax
	addq	$88, %rsp
	popq	%rbx
	popq	%rbp
	.cfi_def_cfa %rsp, 8
	retq
.LBB77_2:                               # %func_exit
	.cfi_def_cfa %rbp, 16
	callq	detect_breach
	jmp	.LBB77_1
.Lfunc_end77:
	.size	u_1.50, .Lfunc_end77-u_1.50
	.cfi_endproc
                                        # -- End function
	.globl	writeSyntaxElement_UVLC.51 # -- Begin function writeSyntaxElement_UVLC.51
	.p2align	4, 0x90
	.type	writeSyntaxElement_UVLC.51,@function
writeSyntaxElement_UVLC.51:             # @writeSyntaxElement_UVLC.51
	.cfi_startproc
# %bb.0:                                # %entry
	pushq	%rbp
	.cfi_def_cfa_offset 16
	.cfi_offset %rbp, -16
	movq	%rsp, %rbp
	.cfi_def_cfa_register %rbp
	pushq	%rbx
	subq	$24, %rsp
	.cfi_offset %rbx, -24
	movl	$2054386892, -20(%rbp)  # imm = 0x7A7374CC
	movq	%rdi, -16(%rbp)
	movq	%rsi, -32(%rbp)
	movq	-16(%rbp), %rax
	movq	32(%rax), %rax
	movq	-16(%rbp), %rcx
	movl	4(%rcx), %edi
	movq	-16(%rbp), %rcx
	movl	8(%rcx), %esi
	movq	-16(%rbp), %rdx
	addq	$12, %rdx
	movq	-16(%rbp), %rcx
	addq	$16, %rcx
	callq	*%rax
	movq	-16(%rbp), %rdi
	callq	symbol2uvlc
	movq	-16(%rbp), %rdi
	movq	-32(%rbp), %rax
	movq	(%rax), %rsi
	callq	writeUVLC2buffer
	movq	-16(%rbp), %rax
	cmpl	$0, (%rax)
	je	.LBB78_2
# %bb.1:                                # %if.then
	movq	-32(%rbp), %rax
	movq	(%rax), %rax
	movl	$1, 40(%rax)
.LBB78_2:                               # %if.end
	movq	-16(%rbp), %rax
	movl	12(%rax), %ebx
	cmpl	$2054386892, -20(%rbp)  # imm = 0x7A7374CC
	jne	.LBB78_4
.LBB78_3:
	movl	%ebx, %eax
	addq	$24, %rsp
	popq	%rbx
	popq	%rbp
	.cfi_def_cfa %rsp, 8
	retq
.LBB78_4:                               # %func_exit
	.cfi_def_cfa %rbp, 16
	callq	detect_breach
	jmp	.LBB78_3
.Lfunc_end78:
	.size	writeSyntaxElement_UVLC.51, .Lfunc_end78-writeSyntaxElement_UVLC.51
	.cfi_endproc
                                        # -- End function
	.globl	cbp_linfo_inter.52      # -- Begin function cbp_linfo_inter.52
	.p2align	4, 0x90
	.type	cbp_linfo_inter.52,@function
cbp_linfo_inter.52:                     # @cbp_linfo_inter.52
	.cfi_startproc
# %bb.0:                                # %entry
	pushq	%rbp
	.cfi_def_cfa_offset 16
	.cfi_offset %rbp, -16
	movq	%rsp, %rbp
	.cfi_def_cfa_register %rbp
	subq	$32, %rsp
	xorl	%eax, %eax
	movl	$1749076068, -8(%rbp)   # imm = 0x6840C864
	movl	%edi, -12(%rbp)
	movl	%esi, -4(%rbp)
	movq	%rdx, -24(%rbp)
	movq	%rcx, -32(%rbp)
	movq	img, %rcx
	movl	72700(%rcx), %ecx
	cmpl	$0, %ecx
	movl	$1, %ecx
	cmovnel	%ecx, %eax
	cltq
	imulq	$96, %rax, %rax
	movabsq	$NCBP, %rcx
	addq	%rax, %rcx
	movslq	-12(%rbp), %rax
	movzbl	1(%rcx,%rax,2), %edi
	movl	-4(%rbp), %esi
	movq	-24(%rbp), %rdx
	movq	-32(%rbp), %rcx
	callq	ue_linfo
	cmpl	$1749076068, -8(%rbp)   # imm = 0x6840C864
	jne	.LBB79_2
.LBB79_1:
	addq	$32, %rsp
	popq	%rbp
	.cfi_def_cfa %rsp, 8
	retq
.LBB79_2:                               # %func_exit
	.cfi_def_cfa %rbp, 16
	callq	detect_breach
	jmp	.LBB79_1
.Lfunc_end79:
	.size	cbp_linfo_inter.52, .Lfunc_end79-cbp_linfo_inter.52
	.cfi_endproc
                                        # -- End function
	.globl	writeSyntaxElement_Intra4x4PredictionMode.53 # -- Begin function writeSyntaxElement_Intra4x4PredictionMode.53
	.p2align	4, 0x90
	.type	writeSyntaxElement_Intra4x4PredictionMode.53,@function
writeSyntaxElement_Intra4x4PredictionMode.53: # @writeSyntaxElement_Intra4x4PredictionMode.53
	.cfi_startproc
# %bb.0:                                # %entry
	pushq	%rbp
	.cfi_def_cfa_offset 16
	.cfi_offset %rbp, -16
	movq	%rsp, %rbp
	.cfi_def_cfa_register %rbp
	pushq	%rbx
	subq	$24, %rsp
	.cfi_offset %rbx, -24
	movl	$2129978127, -20(%rbp)  # imm = 0x7EF4E30F
	movq	%rdi, -16(%rbp)
	movq	%rsi, -32(%rbp)
	movq	-16(%rbp), %rax
	cmpl	$-1, 4(%rax)
	jne	.LBB80_2
# %bb.1:                                # %if.then
	movq	-16(%rbp), %rax
	movl	$1, 12(%rax)
	movq	-16(%rbp), %rax
	movl	$1, 16(%rax)
	jmp	.LBB80_3
.LBB80_2:                               # %if.else
	movq	-16(%rbp), %rax
	movl	$4, 12(%rax)
	movq	-16(%rbp), %rax
	movl	4(%rax), %eax
	movq	-16(%rbp), %rcx
	movl	%eax, 16(%rcx)
.LBB80_3:                               # %if.end
	movq	-16(%rbp), %rax
	movl	16(%rax), %eax
	movq	-16(%rbp), %rcx
	movl	%eax, 20(%rcx)
	movq	-16(%rbp), %rdi
	movq	-32(%rbp), %rax
	movq	(%rax), %rsi
	callq	writeUVLC2buffer
	movq	-16(%rbp), %rax
	cmpl	$0, (%rax)
	je	.LBB80_5
# %bb.4:                                # %if.then6
	movq	-32(%rbp), %rax
	movq	(%rax), %rax
	movl	$1, 40(%rax)
.LBB80_5:                               # %if.end8
	movq	-16(%rbp), %rax
	movl	12(%rax), %ebx
	cmpl	$2129978127, -20(%rbp)  # imm = 0x7EF4E30F
	jne	.LBB80_7
.LBB80_6:
	movl	%ebx, %eax
	addq	$24, %rsp
	popq	%rbx
	popq	%rbp
	.cfi_def_cfa %rsp, 8
	retq
.LBB80_7:                               # %func_exit
	.cfi_def_cfa %rbp, 16
	callq	detect_breach
	jmp	.LBB80_6
.Lfunc_end80:
	.size	writeSyntaxElement_Intra4x4PredictionMode.53, .Lfunc_end80-writeSyntaxElement_Intra4x4PredictionMode.53
	.cfi_endproc
                                        # -- End function
	.globl	writeUVLC2buffer.54     # -- Begin function writeUVLC2buffer.54
	.p2align	4, 0x90
	.type	writeUVLC2buffer.54,@function
writeUVLC2buffer.54:                    # @writeUVLC2buffer.54
	.cfi_startproc
# %bb.0:                                # %entry
	pushq	%rbp
	.cfi_def_cfa_offset 16
	.cfi_offset %rbp, -16
	movq	%rsp, %rbp
	.cfi_def_cfa_register %rbp
	subq	$32, %rsp
	movl	$1646678403, -28(%rbp)  # imm = 0x62265183
	movq	%rdi, -24(%rbp)
	movq	%rsi, -8(%rbp)
	movq	-24(%rbp), %rax
	movl	12(%rax), %ecx
	subl	$1, %ecx
                                        # kill: def $cl killed $ecx
	movl	$1, %eax
	shll	%cl, %eax
	movl	%eax, -16(%rbp)
	movl	$0, -12(%rbp)
.LBB81_1:                               # %for.cond
                                        # =>This Inner Loop Header: Depth=1
	movl	-12(%rbp), %eax
	movq	-24(%rbp), %rcx
	cmpl	12(%rcx), %eax
	jge	.LBB81_8
# %bb.2:                                # %for.body
                                        #   in Loop: Header=BB81_1 Depth=1
	movq	-8(%rbp), %rax
	movzbl	8(%rax), %ecx
	shll	$1, %ecx
	movb	%cl, 8(%rax)
	movq	-24(%rbp), %rax
	movl	20(%rax), %eax
	andl	-16(%rbp), %eax
	cmpl	$0, %eax
	je	.LBB81_4
# %bb.3:                                # %if.then
                                        #   in Loop: Header=BB81_1 Depth=1
	movq	-8(%rbp), %rax
	movzbl	8(%rax), %ecx
	orl	$1, %ecx
	movb	%cl, 8(%rax)
.LBB81_4:                               # %if.end
                                        #   in Loop: Header=BB81_1 Depth=1
	movq	-8(%rbp), %rax
	movl	4(%rax), %ecx
	addl	$-1, %ecx
	movl	%ecx, 4(%rax)
	movl	-16(%rbp), %eax
	shrl	$1, %eax
	movl	%eax, -16(%rbp)
	movq	-8(%rbp), %rax
	cmpl	$0, 4(%rax)
	jne	.LBB81_6
# %bb.5:                                # %if.then10
                                        #   in Loop: Header=BB81_1 Depth=1
	movq	-8(%rbp), %rax
	movl	$8, 4(%rax)
	movq	-8(%rbp), %rax
	movb	8(%rax), %al
	movq	-8(%rbp), %rcx
	movq	32(%rcx), %rcx
	movq	-8(%rbp), %rdx
	movl	(%rdx), %esi
	movl	%esi, %edi
	addl	$1, %edi
	movl	%edi, (%rdx)
	movslq	%esi, %rdx
	movb	%al, (%rcx,%rdx)
	movq	-8(%rbp), %rax
	movb	$0, 8(%rax)
.LBB81_6:                               # %if.end14
                                        #   in Loop: Header=BB81_1 Depth=1
	jmp	.LBB81_7
.LBB81_7:                               # %for.inc
                                        #   in Loop: Header=BB81_1 Depth=1
	movl	-12(%rbp), %eax
	addl	$1, %eax
	movl	%eax, -12(%rbp)
	jmp	.LBB81_1
.LBB81_8:                               # %for.end
	cmpl	$1646678403, -28(%rbp)  # imm = 0x62265183
	jne	.LBB81_10
.LBB81_9:
	addq	$32, %rsp
	popq	%rbp
	.cfi_def_cfa %rsp, 8
	retq
.LBB81_10:                              # %func_exit
	.cfi_def_cfa %rbp, 16
	callq	detect_breach
	jmp	.LBB81_9
.Lfunc_end81:
	.size	writeUVLC2buffer.54, .Lfunc_end81-writeUVLC2buffer.54
	.cfi_endproc
                                        # -- End function
	.globl	symbol2vlc.55           # -- Begin function symbol2vlc.55
	.p2align	4, 0x90
	.type	symbol2vlc.55,@function
symbol2vlc.55:                          # @symbol2vlc.55
	.cfi_startproc
# %bb.0:                                # %entry
	pushq	%rbp
	.cfi_def_cfa_offset 16
	.cfi_offset %rbp, -16
	movq	%rsp, %rbp
	.cfi_def_cfa_register %rbp
	subq	$32, %rsp
	movl	$1954568620, -20(%rbp)  # imm = 0x748059AC
	movq	%rdi, -16(%rbp)
	movq	-16(%rbp), %rax
	movl	12(%rax), %eax
	movl	%eax, -4(%rbp)
	movq	-16(%rbp), %rax
	movl	$0, 20(%rax)
.LBB82_1:                               # %while.cond
                                        # =>This Inner Loop Header: Depth=1
	movl	-4(%rbp), %eax
	addl	$-1, %eax
	movl	%eax, -4(%rbp)
	cmpl	$0, %eax
	jl	.LBB82_3
# %bb.2:                                # %while.body
                                        #   in Loop: Header=BB82_1 Depth=1
	movq	-16(%rbp), %rax
	movl	20(%rax), %ecx
	shll	$1, %ecx
	movl	%ecx, 20(%rax)
	movq	-16(%rbp), %rax
	movl	16(%rax), %eax
	movl	-4(%rbp), %ecx
                                        # kill: def $cl killed $ecx
	sarl	%cl, %eax
	andl	$1, %eax
	movq	-16(%rbp), %rcx
	orl	20(%rcx), %eax
	movl	%eax, 20(%rcx)
	jmp	.LBB82_1
.LBB82_3:                               # %while.end
	cmpl	$1954568620, -20(%rbp)  # imm = 0x748059AC
	jne	.LBB82_5
.LBB82_4:
	xorl	%eax, %eax
	addq	$32, %rsp
	popq	%rbp
	.cfi_def_cfa %rsp, 8
	retq
.LBB82_5:                               # %func_exit
	.cfi_def_cfa %rbp, 16
	callq	detect_breach
	jmp	.LBB82_4
.Lfunc_end82:
	.size	symbol2vlc.55, .Lfunc_end82-symbol2vlc.55
	.cfi_endproc
                                        # -- End function
	.globl	writeSyntaxElement_Level_VLC1.56 # -- Begin function writeSyntaxElement_Level_VLC1.56
	.p2align	4, 0x90
	.type	writeSyntaxElement_Level_VLC1.56,@function
writeSyntaxElement_Level_VLC1.56:       # @writeSyntaxElement_Level_VLC1.56
	.cfi_startproc
# %bb.0:                                # %entry
	pushq	%rbp
	.cfi_def_cfa_offset 16
	.cfi_offset %rbp, -16
	movq	%rsp, %rbp
	.cfi_def_cfa_register %rbp
	pushq	%rbx
	subq	$40, %rsp
	.cfi_offset %rbx, -24
	movl	$331657439, -36(%rbp)   # imm = 0x13C4B0DF
	movq	%rdi, -24(%rbp)
	movq	%rsi, -48(%rbp)
	movq	-24(%rbp), %rax
	movl	4(%rax), %eax
	movl	%eax, -32(%rbp)
	movl	-32(%rbp), %edi
	callq	abs
	xorl	%ecx, %ecx
	movl	%eax, -12(%rbp)
	movl	-32(%rbp), %eax
	cmpl	$0, %eax
	movl	$1, %eax
	cmovll	%eax, %ecx
	movl	%ecx, -28(%rbp)
	cmpl	$8, -12(%rbp)
	jge	.LBB83_2
# %bb.1:                                # %if.then
	movl	-12(%rbp), %eax
	shll	$1, %eax
	addl	-28(%rbp), %eax
	subl	$1, %eax
	movq	-24(%rbp), %rcx
	movl	%eax, 12(%rcx)
	movq	-24(%rbp), %rax
	movl	$1, 16(%rax)
	jmp	.LBB83_6
.LBB83_2:                               # %if.else
	cmpl	$16, -12(%rbp)
	jge	.LBB83_4
# %bb.3:                                # %if.then3
	movq	-24(%rbp), %rax
	movl	$19, 12(%rax)
	movl	-12(%rbp), %eax
	subl	$8, %eax
	shll	$1, %eax
	orl	$16, %eax
	orl	-28(%rbp), %eax
	movq	-24(%rbp), %rcx
	movl	%eax, 16(%rcx)
	jmp	.LBB83_5
.LBB83_4:                               # %if.else8
	movq	-24(%rbp), %rax
	movl	$28, 12(%rax)
	movl	-12(%rbp), %eax
	subl	$16, %eax
	shll	$1, %eax
	orl	$4096, %eax             # imm = 0x1000
	orl	-28(%rbp), %eax
	movq	-24(%rbp), %rcx
	movl	%eax, 16(%rcx)
.LBB83_5:                               # %if.end
	jmp	.LBB83_6
.LBB83_6:                               # %if.end15
	movq	-24(%rbp), %rdi
	callq	symbol2vlc
	movq	-24(%rbp), %rdi
	movq	-48(%rbp), %rax
	movq	(%rax), %rsi
	callq	writeUVLC2buffer
	movq	-24(%rbp), %rax
	movl	12(%rax), %ebx
	cmpl	$331657439, -36(%rbp)   # imm = 0x13C4B0DF
	jne	.LBB83_8
.LBB83_7:
	movl	%ebx, %eax
	addq	$40, %rsp
	popq	%rbx
	popq	%rbp
	.cfi_def_cfa %rsp, 8
	retq
.LBB83_8:                               # %func_exit
	.cfi_def_cfa %rbp, 16
	callq	detect_breach
	jmp	.LBB83_7
.Lfunc_end83:
	.size	writeSyntaxElement_Level_VLC1.56, .Lfunc_end83-writeSyntaxElement_Level_VLC1.56
	.cfi_endproc
                                        # -- End function
	.globl	cbp_linfo_inter.57      # -- Begin function cbp_linfo_inter.57
	.p2align	4, 0x90
	.type	cbp_linfo_inter.57,@function
cbp_linfo_inter.57:                     # @cbp_linfo_inter.57
	.cfi_startproc
# %bb.0:                                # %entry
	pushq	%rbp
	.cfi_def_cfa_offset 16
	.cfi_offset %rbp, -16
	movq	%rsp, %rbp
	.cfi_def_cfa_register %rbp
	subq	$32, %rsp
	xorl	%eax, %eax
	movl	$538493442, -12(%rbp)   # imm = 0x2018C202
	movl	%edi, -8(%rbp)
	movl	%esi, -4(%rbp)
	movq	%rdx, -24(%rbp)
	movq	%rcx, -32(%rbp)
	movq	img, %rcx
	movl	72700(%rcx), %ecx
	cmpl	$0, %ecx
	movl	$1, %ecx
	cmovnel	%ecx, %eax
	cltq
	imulq	$96, %rax, %rax
	movabsq	$NCBP, %rcx
	addq	%rax, %rcx
	movslq	-8(%rbp), %rax
	movzbl	1(%rcx,%rax,2), %edi
	movl	-4(%rbp), %esi
	movq	-24(%rbp), %rdx
	movq	-32(%rbp), %rcx
	callq	ue_linfo
	cmpl	$538493442, -12(%rbp)   # imm = 0x2018C202
	jne	.LBB84_2
.LBB84_1:
	addq	$32, %rsp
	popq	%rbp
	.cfi_def_cfa %rsp, 8
	retq
.LBB84_2:                               # %func_exit
	.cfi_def_cfa %rbp, 16
	callq	detect_breach
	jmp	.LBB84_1
.Lfunc_end84:
	.size	cbp_linfo_inter.57, .Lfunc_end84-cbp_linfo_inter.57
	.cfi_endproc
                                        # -- End function
	.section	.rodata.cst8,"aM",@progbits,8
	.p2align	3               # -- Begin function se_linfo.58
.LCPI85_0:
	.quad	4611686018427387904     # double 2
	.text
	.globl	se_linfo.58
	.p2align	4, 0x90
	.type	se_linfo.58,@function
se_linfo.58:                            # @se_linfo.58
	.cfi_startproc
# %bb.0:                                # %entry
	pushq	%rbp
	.cfi_def_cfa_offset 16
	.cfi_offset %rbp, -16
	movq	%rsp, %rbp
	.cfi_def_cfa_register %rbp
	pushq	%rbx
	subq	$56, %rsp
	.cfi_offset %rbx, -24
	movl	$517232916, -32(%rbp)   # imm = 0x1ED45914
	movl	%edi, -28(%rbp)
	movl	%esi, -52(%rbp)
	movq	%rdx, -40(%rbp)
	movq	%rcx, -48(%rbp)
	movl	$0, -20(%rbp)
	cmpl	$0, -28(%rbp)
	jg	.LBB85_2
# %bb.1:                                # %if.then
	movl	$1, -20(%rbp)
.LBB85_2:                               # %if.end
	movl	-28(%rbp), %edi
	callq	abs
	shll	$1, %eax
	movl	%eax, -24(%rbp)
	movl	-24(%rbp), %eax
	cltd
	movl	$2, %ecx
	idivl	%ecx
	movl	%eax, -16(%rbp)
	movl	$0, -12(%rbp)
.LBB85_3:                               # %for.cond
                                        # =>This Inner Loop Header: Depth=1
	xorl	%eax, %eax
	cmpl	$16, -12(%rbp)
	jge	.LBB85_5
# %bb.4:                                # %land.rhs
                                        #   in Loop: Header=BB85_3 Depth=1
	cmpl	$0, -16(%rbp)
	setne	%al
.LBB85_5:                               # %land.end
                                        #   in Loop: Header=BB85_3 Depth=1
	testb	$1, %al
	jne	.LBB85_6
	jmp	.LBB85_8
.LBB85_6:                               # %for.body
                                        #   in Loop: Header=BB85_3 Depth=1
	movl	-16(%rbp), %eax
	cltd
	movl	$2, %ecx
	idivl	%ecx
	movl	%eax, -16(%rbp)
# %bb.7:                                # %for.inc
                                        #   in Loop: Header=BB85_3 Depth=1
	movl	-12(%rbp), %eax
	addl	$1, %eax
	movl	%eax, -12(%rbp)
	jmp	.LBB85_3
.LBB85_8:                               # %for.end
	vmovsd	.LCPI85_0(%rip), %xmm0  # xmm0 = mem[0],zero
	movl	-12(%rbp), %eax
	shll	$1, %eax
	addl	$1, %eax
	movq	-40(%rbp), %rcx
	movl	%eax, (%rcx)
	movl	-24(%rbp), %ebx
	vcvtsi2sdl	-12(%rbp), %xmm0, %xmm1
	callq	pow
	vcvttsd2si	%xmm0, %eax
	subl	%eax, %ebx
	addl	-20(%rbp), %ebx
	movq	-48(%rbp), %rax
	movl	%ebx, (%rax)
	cmpl	$517232916, -32(%rbp)   # imm = 0x1ED45914
	jne	.LBB85_10
.LBB85_9:
	addq	$56, %rsp
	popq	%rbx
	popq	%rbp
	.cfi_def_cfa %rsp, 8
	retq
.LBB85_10:                              # %func_exit
	.cfi_def_cfa %rbp, 16
	callq	detect_breach
	jmp	.LBB85_9
.Lfunc_end85:
	.size	se_linfo.58, .Lfunc_end85-se_linfo.58
	.cfi_endproc
                                        # -- End function
	.section	.rodata.cst8,"aM",@progbits,8
	.p2align	3               # -- Begin function se_linfo.59
.LCPI86_0:
	.quad	4611686018427387904     # double 2
	.text
	.globl	se_linfo.59
	.p2align	4, 0x90
	.type	se_linfo.59,@function
se_linfo.59:                            # @se_linfo.59
	.cfi_startproc
# %bb.0:                                # %entry
	pushq	%rbp
	.cfi_def_cfa_offset 16
	.cfi_offset %rbp, -16
	movq	%rsp, %rbp
	.cfi_def_cfa_register %rbp
	pushq	%rbx
	subq	$56, %rsp
	.cfi_offset %rbx, -24
	movl	$1652854671, -32(%rbp)  # imm = 0x62848F8F
	movl	%edi, -28(%rbp)
	movl	%esi, -52(%rbp)
	movq	%rdx, -40(%rbp)
	movq	%rcx, -48(%rbp)
	movl	$0, -20(%rbp)
	cmpl	$0, -28(%rbp)
	jg	.LBB86_2
# %bb.1:                                # %if.then
	movl	$1, -20(%rbp)
.LBB86_2:                               # %if.end
	movl	-28(%rbp), %edi
	callq	abs
	shll	$1, %eax
	movl	%eax, -24(%rbp)
	movl	-24(%rbp), %eax
	cltd
	movl	$2, %ecx
	idivl	%ecx
	movl	%eax, -16(%rbp)
	movl	$0, -12(%rbp)
.LBB86_3:                               # %for.cond
                                        # =>This Inner Loop Header: Depth=1
	xorl	%eax, %eax
	cmpl	$16, -12(%rbp)
	jge	.LBB86_5
# %bb.4:                                # %land.rhs
                                        #   in Loop: Header=BB86_3 Depth=1
	cmpl	$0, -16(%rbp)
	setne	%al
.LBB86_5:                               # %land.end
                                        #   in Loop: Header=BB86_3 Depth=1
	testb	$1, %al
	jne	.LBB86_6
	jmp	.LBB86_8
.LBB86_6:                               # %for.body
                                        #   in Loop: Header=BB86_3 Depth=1
	movl	-16(%rbp), %eax
	cltd
	movl	$2, %ecx
	idivl	%ecx
	movl	%eax, -16(%rbp)
# %bb.7:                                # %for.inc
                                        #   in Loop: Header=BB86_3 Depth=1
	movl	-12(%rbp), %eax
	addl	$1, %eax
	movl	%eax, -12(%rbp)
	jmp	.LBB86_3
.LBB86_8:                               # %for.end
	vmovsd	.LCPI86_0(%rip), %xmm0  # xmm0 = mem[0],zero
	movl	-12(%rbp), %eax
	shll	$1, %eax
	addl	$1, %eax
	movq	-40(%rbp), %rcx
	movl	%eax, (%rcx)
	movl	-24(%rbp), %ebx
	vcvtsi2sdl	-12(%rbp), %xmm0, %xmm1
	callq	pow
	vcvttsd2si	%xmm0, %eax
	subl	%eax, %ebx
	addl	-20(%rbp), %ebx
	movq	-48(%rbp), %rax
	movl	%ebx, (%rax)
	cmpl	$1652854671, -32(%rbp)  # imm = 0x62848F8F
	jne	.LBB86_10
.LBB86_9:
	addq	$56, %rsp
	popq	%rbx
	popq	%rbp
	.cfi_def_cfa %rsp, 8
	retq
.LBB86_10:                              # %func_exit
	.cfi_def_cfa %rbp, 16
	callq	detect_breach
	jmp	.LBB86_9
.Lfunc_end86:
	.size	se_linfo.59, .Lfunc_end86-se_linfo.59
	.cfi_endproc
                                        # -- End function
	.section	.rodata.cst8,"aM",@progbits,8
	.p2align	3               # -- Begin function ue_linfo.60
.LCPI87_0:
	.quad	4611686018427387904     # double 2
	.text
	.globl	ue_linfo.60
	.p2align	4, 0x90
	.type	ue_linfo.60,@function
ue_linfo.60:                            # @ue_linfo.60
	.cfi_startproc
# %bb.0:                                # %entry
	pushq	%rbp
	.cfi_def_cfa_offset 16
	.cfi_offset %rbp, -16
	movq	%rsp, %rbp
	.cfi_def_cfa_register %rbp
	pushq	%rbx
	subq	$40, %rsp
	.cfi_offset %rbx, -24
	movl	$843943613, -24(%rbp)   # imm = 0x324D8EBD
	movl	%edi, -20(%rbp)
	movl	%esi, -44(%rbp)
	movq	%rdx, -32(%rbp)
	movq	%rcx, -40(%rbp)
	movl	-20(%rbp), %eax
	addl	$1, %eax
	cltd
	movl	$2, %ecx
	idivl	%ecx
	movl	%eax, -16(%rbp)
	movl	$0, -12(%rbp)
.LBB87_1:                               # %for.cond
                                        # =>This Inner Loop Header: Depth=1
	xorl	%eax, %eax
	cmpl	$16, -12(%rbp)
	jge	.LBB87_3
# %bb.2:                                # %land.rhs
                                        #   in Loop: Header=BB87_1 Depth=1
	cmpl	$0, -16(%rbp)
	setne	%al
.LBB87_3:                               # %land.end
                                        #   in Loop: Header=BB87_1 Depth=1
	testb	$1, %al
	jne	.LBB87_4
	jmp	.LBB87_6
.LBB87_4:                               # %for.body
                                        #   in Loop: Header=BB87_1 Depth=1
	movl	-16(%rbp), %eax
	cltd
	movl	$2, %ecx
	idivl	%ecx
	movl	%eax, -16(%rbp)
# %bb.5:                                # %for.inc
                                        #   in Loop: Header=BB87_1 Depth=1
	movl	-12(%rbp), %eax
	addl	$1, %eax
	movl	%eax, -12(%rbp)
	jmp	.LBB87_1
.LBB87_6:                               # %for.end
	vmovsd	.LCPI87_0(%rip), %xmm0  # xmm0 = mem[0],zero
	movl	-12(%rbp), %eax
	shll	$1, %eax
	addl	$1, %eax
	movq	-32(%rbp), %rcx
	movl	%eax, (%rcx)
	movl	-20(%rbp), %ebx
	addl	$1, %ebx
	vcvtsi2sdl	-12(%rbp), %xmm0, %xmm1
	callq	pow
	vcvttsd2si	%xmm0, %eax
	subl	%eax, %ebx
	movq	-40(%rbp), %rax
	movl	%ebx, (%rax)
	cmpl	$843943613, -24(%rbp)   # imm = 0x324D8EBD
	jne	.LBB87_8
.LBB87_7:
	addq	$40, %rsp
	popq	%rbx
	popq	%rbp
	.cfi_def_cfa %rsp, 8
	retq
.LBB87_8:                               # %func_exit
	.cfi_def_cfa %rbp, 16
	callq	detect_breach
	jmp	.LBB87_7
.Lfunc_end87:
	.size	ue_linfo.60, .Lfunc_end87-ue_linfo.60
	.cfi_endproc
                                        # -- End function
	.section	.rodata.cst8,"aM",@progbits,8
	.p2align	3               # -- Begin function ue_linfo.61
.LCPI88_0:
	.quad	4611686018427387904     # double 2
	.text
	.globl	ue_linfo.61
	.p2align	4, 0x90
	.type	ue_linfo.61,@function
ue_linfo.61:                            # @ue_linfo.61
	.cfi_startproc
# %bb.0:                                # %entry
	pushq	%rbp
	.cfi_def_cfa_offset 16
	.cfi_offset %rbp, -16
	movq	%rsp, %rbp
	.cfi_def_cfa_register %rbp
	pushq	%rbx
	subq	$40, %rsp
	.cfi_offset %rbx, -24
	movl	$734164819, -24(%rbp)   # imm = 0x2BC27753
	movl	%edi, -20(%rbp)
	movl	%esi, -44(%rbp)
	movq	%rdx, -32(%rbp)
	movq	%rcx, -40(%rbp)
	movl	-20(%rbp), %eax
	addl	$1, %eax
	cltd
	movl	$2, %ecx
	idivl	%ecx
	movl	%eax, -16(%rbp)
	movl	$0, -12(%rbp)
.LBB88_1:                               # %for.cond
                                        # =>This Inner Loop Header: Depth=1
	xorl	%eax, %eax
	cmpl	$16, -12(%rbp)
	jge	.LBB88_3
# %bb.2:                                # %land.rhs
                                        #   in Loop: Header=BB88_1 Depth=1
	cmpl	$0, -16(%rbp)
	setne	%al
.LBB88_3:                               # %land.end
                                        #   in Loop: Header=BB88_1 Depth=1
	testb	$1, %al
	jne	.LBB88_4
	jmp	.LBB88_6
.LBB88_4:                               # %for.body
                                        #   in Loop: Header=BB88_1 Depth=1
	movl	-16(%rbp), %eax
	cltd
	movl	$2, %ecx
	idivl	%ecx
	movl	%eax, -16(%rbp)
# %bb.5:                                # %for.inc
                                        #   in Loop: Header=BB88_1 Depth=1
	movl	-12(%rbp), %eax
	addl	$1, %eax
	movl	%eax, -12(%rbp)
	jmp	.LBB88_1
.LBB88_6:                               # %for.end
	vmovsd	.LCPI88_0(%rip), %xmm0  # xmm0 = mem[0],zero
	movl	-12(%rbp), %eax
	shll	$1, %eax
	addl	$1, %eax
	movq	-32(%rbp), %rcx
	movl	%eax, (%rcx)
	movl	-20(%rbp), %ebx
	addl	$1, %ebx
	vcvtsi2sdl	-12(%rbp), %xmm0, %xmm1
	callq	pow
	vcvttsd2si	%xmm0, %eax
	subl	%eax, %ebx
	movq	-40(%rbp), %rax
	movl	%ebx, (%rax)
	cmpl	$734164819, -24(%rbp)   # imm = 0x2BC27753
	jne	.LBB88_8
.LBB88_7:
	addq	$40, %rsp
	popq	%rbx
	popq	%rbp
	.cfi_def_cfa %rsp, 8
	retq
.LBB88_8:                               # %func_exit
	.cfi_def_cfa %rbp, 16
	callq	detect_breach
	jmp	.LBB88_7
.Lfunc_end88:
	.size	ue_linfo.61, .Lfunc_end88-ue_linfo.61
	.cfi_endproc
                                        # -- End function
	.globl	writeUVLC2buffer.62     # -- Begin function writeUVLC2buffer.62
	.p2align	4, 0x90
	.type	writeUVLC2buffer.62,@function
writeUVLC2buffer.62:                    # @writeUVLC2buffer.62
	.cfi_startproc
# %bb.0:                                # %entry
	pushq	%rbp
	.cfi_def_cfa_offset 16
	.cfi_offset %rbp, -16
	movq	%rsp, %rbp
	.cfi_def_cfa_register %rbp
	subq	$32, %rsp
	movl	$859959010, -28(%rbp)   # imm = 0x3341EEE2
	movq	%rdi, -24(%rbp)
	movq	%rsi, -8(%rbp)
	movq	-24(%rbp), %rax
	movl	12(%rax), %ecx
	subl	$1, %ecx
                                        # kill: def $cl killed $ecx
	movl	$1, %eax
	shll	%cl, %eax
	movl	%eax, -12(%rbp)
	movl	$0, -16(%rbp)
.LBB89_1:                               # %for.cond
                                        # =>This Inner Loop Header: Depth=1
	movl	-16(%rbp), %eax
	movq	-24(%rbp), %rcx
	cmpl	12(%rcx), %eax
	jge	.LBB89_8
# %bb.2:                                # %for.body
                                        #   in Loop: Header=BB89_1 Depth=1
	movq	-8(%rbp), %rax
	movzbl	8(%rax), %ecx
	shll	$1, %ecx
	movb	%cl, 8(%rax)
	movq	-24(%rbp), %rax
	movl	20(%rax), %eax
	andl	-12(%rbp), %eax
	cmpl	$0, %eax
	je	.LBB89_4
# %bb.3:                                # %if.then
                                        #   in Loop: Header=BB89_1 Depth=1
	movq	-8(%rbp), %rax
	movzbl	8(%rax), %ecx
	orl	$1, %ecx
	movb	%cl, 8(%rax)
.LBB89_4:                               # %if.end
                                        #   in Loop: Header=BB89_1 Depth=1
	movq	-8(%rbp), %rax
	movl	4(%rax), %ecx
	addl	$-1, %ecx
	movl	%ecx, 4(%rax)
	movl	-12(%rbp), %eax
	shrl	$1, %eax
	movl	%eax, -12(%rbp)
	movq	-8(%rbp), %rax
	cmpl	$0, 4(%rax)
	jne	.LBB89_6
# %bb.5:                                # %if.then10
                                        #   in Loop: Header=BB89_1 Depth=1
	movq	-8(%rbp), %rax
	movl	$8, 4(%rax)
	movq	-8(%rbp), %rax
	movb	8(%rax), %al
	movq	-8(%rbp), %rcx
	movq	32(%rcx), %rcx
	movq	-8(%rbp), %rdx
	movl	(%rdx), %esi
	movl	%esi, %edi
	addl	$1, %edi
	movl	%edi, (%rdx)
	movslq	%esi, %rdx
	movb	%al, (%rcx,%rdx)
	movq	-8(%rbp), %rax
	movb	$0, 8(%rax)
.LBB89_6:                               # %if.end14
                                        #   in Loop: Header=BB89_1 Depth=1
	jmp	.LBB89_7
.LBB89_7:                               # %for.inc
                                        #   in Loop: Header=BB89_1 Depth=1
	movl	-16(%rbp), %eax
	addl	$1, %eax
	movl	%eax, -16(%rbp)
	jmp	.LBB89_1
.LBB89_8:                               # %for.end
	cmpl	$859959010, -28(%rbp)   # imm = 0x3341EEE2
	jne	.LBB89_10
.LBB89_9:
	addq	$32, %rsp
	popq	%rbp
	.cfi_def_cfa %rsp, 8
	retq
.LBB89_10:                              # %func_exit
	.cfi_def_cfa %rbp, 16
	callq	detect_breach
	jmp	.LBB89_9
.Lfunc_end89:
	.size	writeUVLC2buffer.62, .Lfunc_end89-writeUVLC2buffer.62
	.cfi_endproc
                                        # -- End function
	.globl	se_v.63                 # -- Begin function se_v.63
	.p2align	4, 0x90
	.type	se_v.63,@function
se_v.63:                                # @se_v.63
	.cfi_startproc
# %bb.0:                                # %entry
	pushq	%rbp
	.cfi_def_cfa_offset 16
	.cfi_offset %rbp, -16
	movq	%rsp, %rbp
	.cfi_def_cfa_register %rbp
	pushq	%rbx
	subq	$88, %rsp
	.cfi_offset %rbx, -24
	movl	$1380886314, -24(%rbp)  # imm = 0x524EA72A
	movq	%rdi, -40(%rbp)
	movl	%esi, -20(%rbp)
	movq	%rdx, -32(%rbp)
	leaq	-88(%rbp), %rax
	movq	%rax, -16(%rbp)
	movq	-16(%rbp), %rax
	movl	$0, (%rax)
	movq	-16(%rbp), %rax
	movabsq	$se_linfo, %rcx
	movq	%rcx, 32(%rax)
	movl	-20(%rbp), %eax
	movq	-16(%rbp), %rcx
	movl	%eax, 4(%rcx)
	movq	-16(%rbp), %rax
	movl	$0, 8(%rax)
	movq	-16(%rbp), %rdi
	movq	-32(%rbp), %rsi
	callq	writeSyntaxElement_UVLC
	movl	%eax, %ebx
	cmpl	$1380886314, -24(%rbp)  # imm = 0x524EA72A
	jne	.LBB90_2
.LBB90_1:
	movl	%ebx, %eax
	addq	$88, %rsp
	popq	%rbx
	popq	%rbp
	.cfi_def_cfa %rsp, 8
	retq
.LBB90_2:                               # %func_exit
	.cfi_def_cfa %rbp, 16
	callq	detect_breach
	jmp	.LBB90_1
.Lfunc_end90:
	.size	se_v.63, .Lfunc_end90-se_v.63
	.cfi_endproc
                                        # -- End function
	.globl	writeSyntaxElement_NumCoeffTrailingOnes.64 # -- Begin function writeSyntaxElement_NumCoeffTrailingOnes.64
	.p2align	4, 0x90
	.type	writeSyntaxElement_NumCoeffTrailingOnes.64,@function
writeSyntaxElement_NumCoeffTrailingOnes.64: # @writeSyntaxElement_NumCoeffTrailingOnes.64
	.cfi_startproc
# %bb.0:                                # %entry
	pushq	%rbp
	.cfi_def_cfa_offset 16
	.cfi_offset %rbp, -16
	movq	%rsp, %rbp
	.cfi_def_cfa_register %rbp
	pushq	%rbx
	subq	$24, %rsp
	.cfi_offset %rbx, -24
	movl	$1629832055, -24(%rbp)  # imm = 0x61254377
	movq	%rdi, -16(%rbp)
	movq	%rsi, -32(%rbp)
	movq	-16(%rbp), %rax
	movl	12(%rax), %eax
	movl	%eax, -20(%rbp)
	cmpl	$3, -20(%rbp)
	jne	.LBB91_5
# %bb.1:                                # %if.then
	movq	-16(%rbp), %rax
	movl	$6, 12(%rax)
	movq	-16(%rbp), %rax
	cmpl	$0, 4(%rax)
	jle	.LBB91_3
# %bb.2:                                # %if.then3
	movq	-16(%rbp), %rax
	movl	4(%rax), %eax
	subl	$1, %eax
	shll	$2, %eax
	movq	-16(%rbp), %rcx
	orl	8(%rcx), %eax
	movq	-16(%rbp), %rcx
	movl	%eax, 16(%rcx)
	jmp	.LBB91_4
.LBB91_3:                               # %if.else
	movq	-16(%rbp), %rax
	movl	$3, 16(%rax)
.LBB91_4:                               # %if.end
	jmp	.LBB91_6
.LBB91_5:                               # %if.else6
	movslq	-20(%rbp), %rax
	imulq	$272, %rax, %rax        # imm = 0x110
	movabsq	$writeSyntaxElement_NumCoeffTrailingOnes.lentab, %rcx
	addq	%rax, %rcx
	movq	-16(%rbp), %rax
	movslq	8(%rax), %rax
	imulq	$68, %rax, %rax
	addq	%rax, %rcx
	movq	-16(%rbp), %rax
	movslq	4(%rax), %rax
	movl	(%rcx,%rax,4), %eax
	movq	-16(%rbp), %rcx
	movl	%eax, 12(%rcx)
	movslq	-20(%rbp), %rax
	imulq	$272, %rax, %rax        # imm = 0x110
	movabsq	$writeSyntaxElement_NumCoeffTrailingOnes.codtab, %rcx
	addq	%rax, %rcx
	movq	-16(%rbp), %rax
	movslq	8(%rax), %rax
	imulq	$68, %rax, %rax
	addq	%rax, %rcx
	movq	-16(%rbp), %rax
	movslq	4(%rax), %rax
	movl	(%rcx,%rax,4), %eax
	movq	-16(%rbp), %rcx
	movl	%eax, 16(%rcx)
.LBB91_6:                               # %if.end23
	movq	-16(%rbp), %rax
	cmpl	$0, 12(%rax)
	jne	.LBB91_8
# %bb.7:                                # %if.then26
	movl	-20(%rbp), %esi
	movq	-16(%rbp), %rax
	movl	4(%rax), %edx
	movq	-16(%rbp), %rax
	movl	8(%rax), %ecx
	movabsq	$.L.str, %rdi
	movb	$0, %al
	callq	printf
	movl	$4294967295, %edi       # imm = 0xFFFFFFFF
	callq	exit
.LBB91_8:                               # %if.end29
	movq	-16(%rbp), %rdi
	callq	symbol2vlc
	movq	-16(%rbp), %rdi
	movq	-32(%rbp), %rax
	movq	(%rax), %rsi
	callq	writeUVLC2buffer
	movq	-16(%rbp), %rax
	movl	12(%rax), %ebx
	cmpl	$1629832055, -24(%rbp)  # imm = 0x61254377
	jne	.LBB91_10
.LBB91_9:
	movl	%ebx, %eax
	addq	$24, %rsp
	popq	%rbx
	popq	%rbp
	.cfi_def_cfa %rsp, 8
	retq
.LBB91_10:                              # %func_exit
	.cfi_def_cfa %rbp, 16
	callq	detect_breach
	jmp	.LBB91_9
.Lfunc_end91:
	.size	writeSyntaxElement_NumCoeffTrailingOnes.64, .Lfunc_end91-writeSyntaxElement_NumCoeffTrailingOnes.64
	.cfi_endproc
                                        # -- End function
	.globl	cbp_linfo_inter.65      # -- Begin function cbp_linfo_inter.65
	.p2align	4, 0x90
	.type	cbp_linfo_inter.65,@function
cbp_linfo_inter.65:                     # @cbp_linfo_inter.65
	.cfi_startproc
# %bb.0:                                # %entry
	pushq	%rbp
	.cfi_def_cfa_offset 16
	.cfi_offset %rbp, -16
	movq	%rsp, %rbp
	.cfi_def_cfa_register %rbp
	subq	$32, %rsp
	xorl	%eax, %eax
	movl	$877216543, -8(%rbp)    # imm = 0x3449431F
	movl	%edi, -4(%rbp)
	movl	%esi, -12(%rbp)
	movq	%rdx, -24(%rbp)
	movq	%rcx, -32(%rbp)
	movq	img, %rcx
	movl	72700(%rcx), %ecx
	cmpl	$0, %ecx
	movl	$1, %ecx
	cmovnel	%ecx, %eax
	cltq
	imulq	$96, %rax, %rax
	movabsq	$NCBP, %rcx
	addq	%rax, %rcx
	movslq	-4(%rbp), %rax
	movzbl	1(%rcx,%rax,2), %edi
	movl	-12(%rbp), %esi
	movq	-24(%rbp), %rdx
	movq	-32(%rbp), %rcx
	callq	ue_linfo
	cmpl	$877216543, -8(%rbp)    # imm = 0x3449431F
	jne	.LBB92_2
.LBB92_1:
	addq	$32, %rsp
	popq	%rbp
	.cfi_def_cfa %rsp, 8
	retq
.LBB92_2:                               # %func_exit
	.cfi_def_cfa %rbp, 16
	callq	detect_breach
	jmp	.LBB92_1
.Lfunc_end92:
	.size	cbp_linfo_inter.65, .Lfunc_end92-cbp_linfo_inter.65
	.cfi_endproc
                                        # -- End function
	.globl	writeUVLC2buffer.66     # -- Begin function writeUVLC2buffer.66
	.p2align	4, 0x90
	.type	writeUVLC2buffer.66,@function
writeUVLC2buffer.66:                    # @writeUVLC2buffer.66
	.cfi_startproc
# %bb.0:                                # %entry
	pushq	%rbp
	.cfi_def_cfa_offset 16
	.cfi_offset %rbp, -16
	movq	%rsp, %rbp
	.cfi_def_cfa_register %rbp
	subq	$32, %rsp
	movl	$1096510883, -28(%rbp)  # imm = 0x415B6DA3
	movq	%rdi, -24(%rbp)
	movq	%rsi, -8(%rbp)
	movq	-24(%rbp), %rax
	movl	12(%rax), %ecx
	subl	$1, %ecx
                                        # kill: def $cl killed $ecx
	movl	$1, %eax
	shll	%cl, %eax
	movl	%eax, -16(%rbp)
	movl	$0, -12(%rbp)
.LBB93_1:                               # %for.cond
                                        # =>This Inner Loop Header: Depth=1
	movl	-12(%rbp), %eax
	movq	-24(%rbp), %rcx
	cmpl	12(%rcx), %eax
	jge	.LBB93_8
# %bb.2:                                # %for.body
                                        #   in Loop: Header=BB93_1 Depth=1
	movq	-8(%rbp), %rax
	movzbl	8(%rax), %ecx
	shll	$1, %ecx
	movb	%cl, 8(%rax)
	movq	-24(%rbp), %rax
	movl	20(%rax), %eax
	andl	-16(%rbp), %eax
	cmpl	$0, %eax
	je	.LBB93_4
# %bb.3:                                # %if.then
                                        #   in Loop: Header=BB93_1 Depth=1
	movq	-8(%rbp), %rax
	movzbl	8(%rax), %ecx
	orl	$1, %ecx
	movb	%cl, 8(%rax)
.LBB93_4:                               # %if.end
                                        #   in Loop: Header=BB93_1 Depth=1
	movq	-8(%rbp), %rax
	movl	4(%rax), %ecx
	addl	$-1, %ecx
	movl	%ecx, 4(%rax)
	movl	-16(%rbp), %eax
	shrl	$1, %eax
	movl	%eax, -16(%rbp)
	movq	-8(%rbp), %rax
	cmpl	$0, 4(%rax)
	jne	.LBB93_6
# %bb.5:                                # %if.then10
                                        #   in Loop: Header=BB93_1 Depth=1
	movq	-8(%rbp), %rax
	movl	$8, 4(%rax)
	movq	-8(%rbp), %rax
	movb	8(%rax), %al
	movq	-8(%rbp), %rcx
	movq	32(%rcx), %rcx
	movq	-8(%rbp), %rdx
	movl	(%rdx), %esi
	movl	%esi, %edi
	addl	$1, %edi
	movl	%edi, (%rdx)
	movslq	%esi, %rdx
	movb	%al, (%rcx,%rdx)
	movq	-8(%rbp), %rax
	movb	$0, 8(%rax)
.LBB93_6:                               # %if.end14
                                        #   in Loop: Header=BB93_1 Depth=1
	jmp	.LBB93_7
.LBB93_7:                               # %for.inc
                                        #   in Loop: Header=BB93_1 Depth=1
	movl	-12(%rbp), %eax
	addl	$1, %eax
	movl	%eax, -12(%rbp)
	jmp	.LBB93_1
.LBB93_8:                               # %for.end
	cmpl	$1096510883, -28(%rbp)  # imm = 0x415B6DA3
	jne	.LBB93_10
.LBB93_9:
	addq	$32, %rsp
	popq	%rbp
	.cfi_def_cfa %rsp, 8
	retq
.LBB93_10:                              # %func_exit
	.cfi_def_cfa %rbp, 16
	callq	detect_breach
	jmp	.LBB93_9
.Lfunc_end93:
	.size	writeUVLC2buffer.66, .Lfunc_end93-writeUVLC2buffer.66
	.cfi_endproc
                                        # -- End function
	.globl	cbp_linfo_intra.67      # -- Begin function cbp_linfo_intra.67
	.p2align	4, 0x90
	.type	cbp_linfo_intra.67,@function
cbp_linfo_intra.67:                     # @cbp_linfo_intra.67
	.cfi_startproc
# %bb.0:                                # %entry
	pushq	%rbp
	.cfi_def_cfa_offset 16
	.cfi_offset %rbp, -16
	movq	%rsp, %rbp
	.cfi_def_cfa_register %rbp
	subq	$32, %rsp
	xorl	%eax, %eax
	movl	$976313611, -4(%rbp)    # imm = 0x3A315D0B
	movl	%edi, -8(%rbp)
	movl	%esi, -12(%rbp)
	movq	%rdx, -24(%rbp)
	movq	%rcx, -32(%rbp)
	movq	img, %rcx
	movl	72700(%rcx), %ecx
	cmpl	$0, %ecx
	movl	$1, %ecx
	cmovnel	%ecx, %eax
	cltq
	imulq	$96, %rax, %rax
	movabsq	$NCBP, %rcx
	addq	%rax, %rcx
	movslq	-8(%rbp), %rax
	movzbl	(%rcx,%rax,2), %edi
	movl	-12(%rbp), %esi
	movq	-24(%rbp), %rdx
	movq	-32(%rbp), %rcx
	callq	ue_linfo
	cmpl	$976313611, -4(%rbp)    # imm = 0x3A315D0B
	jne	.LBB94_2
.LBB94_1:
	addq	$32, %rsp
	popq	%rbp
	.cfi_def_cfa %rsp, 8
	retq
.LBB94_2:                               # %func_exit
	.cfi_def_cfa %rbp, 16
	callq	detect_breach
	jmp	.LBB94_1
.Lfunc_end94:
	.size	cbp_linfo_intra.67, .Lfunc_end94-cbp_linfo_intra.67
	.cfi_endproc
                                        # -- End function
	.globl	writeSyntaxElement_Level_VLCN.68 # -- Begin function writeSyntaxElement_Level_VLCN.68
	.p2align	4, 0x90
	.type	writeSyntaxElement_Level_VLCN.68,@function
writeSyntaxElement_Level_VLCN.68:       # @writeSyntaxElement_Level_VLCN.68
	.cfi_startproc
# %bb.0:                                # %entry
	pushq	%rbp
	.cfi_def_cfa_offset 16
	.cfi_offset %rbp, -16
	movq	%rsp, %rbp
	.cfi_def_cfa_register %rbp
	pushq	%rbx
	subq	$72, %rsp
	.cfi_offset %rbx, -24
	movl	$880978796, -56(%rbp)   # imm = 0x3482AB6C
	movq	%rdi, -24(%rbp)
	movl	%esi, -28(%rbp)
	movq	%rdx, -72(%rbp)
	movq	-24(%rbp), %rax
	movl	4(%rax), %eax
	movl	%eax, -32(%rbp)
	movl	-32(%rbp), %edi
	callq	abs
	xorl	%ecx, %ecx
	movl	%eax, -12(%rbp)
	movl	-32(%rbp), %eax
	cmpl	$0, %eax
	movl	$1, %eax
	cmovll	%eax, %ecx
	movl	%ecx, -48(%rbp)
	movl	-28(%rbp), %eax
	subl	$1, %eax
	movl	%eax, -16(%rbp)
	movl	-16(%rbp), %ecx
                                        # kill: def $cl killed $ecx
	movl	$15, %eax
	shll	%cl, %eax
	addl	$1, %eax
	movl	%eax, -36(%rbp)
	movl	-12(%rbp), %eax
	subl	$1, %eax
	movl	-16(%rbp), %ecx
                                        # kill: def $cl killed $ecx
	sarl	%cl, %eax
	movl	%eax, -60(%rbp)
	movl	-16(%rbp), %ecx
                                        # kill: def $cl killed $ecx
	movl	$4294967295, %eax       # imm = 0xFFFFFFFF
	shll	%cl, %eax
	xorl	$-1, %eax
	movl	%eax, -64(%rbp)
	movl	-12(%rbp), %eax
	subl	$1, %eax
	andl	-64(%rbp), %eax
	movl	%eax, -52(%rbp)
	movl	-12(%rbp), %eax
	cmpl	-36(%rbp), %eax
	jge	.LBB95_2
# %bb.1:                                # %if.then
	movl	-60(%rbp), %eax
	addl	-28(%rbp), %eax
	addl	$1, %eax
	movl	%eax, -44(%rbp)
	movl	-16(%rbp), %ecx
	addl	$1, %ecx
                                        # kill: def $cl killed $ecx
	movl	$1, %eax
	shll	%cl, %eax
	movl	-52(%rbp), %ecx
	shll	$1, %ecx
	orl	%ecx, %eax
	orl	-48(%rbp), %eax
	movl	%eax, -40(%rbp)
	jmp	.LBB95_3
.LBB95_2:                               # %if.else
	movl	$28, -44(%rbp)
	movl	-12(%rbp), %eax
	subl	-36(%rbp), %eax
	shll	$1, %eax
	orl	$4096, %eax             # imm = 0x1000
	orl	-48(%rbp), %eax
	movl	%eax, -40(%rbp)
.LBB95_3:                               # %if.end
	movl	-44(%rbp), %eax
	movq	-24(%rbp), %rcx
	movl	%eax, 12(%rcx)
	movl	-40(%rbp), %eax
	movq	-24(%rbp), %rcx
	movl	%eax, 16(%rcx)
	movq	-24(%rbp), %rdi
	callq	symbol2vlc
	movq	-24(%rbp), %rdi
	movq	-72(%rbp), %rax
	movq	(%rax), %rsi
	callq	writeUVLC2buffer
	movq	-24(%rbp), %rax
	movl	12(%rax), %ebx
	cmpl	$880978796, -56(%rbp)   # imm = 0x3482AB6C
	jne	.LBB95_5
.LBB95_4:
	movl	%ebx, %eax
	addq	$72, %rsp
	popq	%rbx
	popq	%rbp
	.cfi_def_cfa %rsp, 8
	retq
.LBB95_5:                               # %func_exit
	.cfi_def_cfa %rbp, 16
	callq	detect_breach
	jmp	.LBB95_4
.Lfunc_end95:
	.size	writeSyntaxElement_Level_VLCN.68, .Lfunc_end95-writeSyntaxElement_Level_VLCN.68
	.cfi_endproc
                                        # -- End function
	.globl	writeSyntaxElement_NumCoeffTrailingOnesChromaDC.69 # -- Begin function writeSyntaxElement_NumCoeffTrailingOnesChromaDC.69
	.p2align	4, 0x90
	.type	writeSyntaxElement_NumCoeffTrailingOnesChromaDC.69,@function
writeSyntaxElement_NumCoeffTrailingOnesChromaDC.69: # @writeSyntaxElement_NumCoeffTrailingOnesChromaDC.69
	.cfi_startproc
# %bb.0:                                # %entry
	pushq	%rbp
	.cfi_def_cfa_offset 16
	.cfi_offset %rbp, -16
	movq	%rsp, %rbp
	.cfi_def_cfa_register %rbp
	pushq	%rbx
	subq	$24, %rsp
	.cfi_offset %rbx, -24
	movabsq	$writeSyntaxElement_NumCoeffTrailingOnesChromaDC.codtab, %rax
	movabsq	$writeSyntaxElement_NumCoeffTrailingOnesChromaDC.lentab, %rcx
	movl	$1215207984, -24(%rbp)  # imm = 0x486E9A30
	movq	%rdi, -16(%rbp)
	movq	%rsi, -32(%rbp)
	movq	img, %rdx
	movl	72700(%rdx), %edx
	subl	$1, %edx
	movl	%edx, -20(%rbp)
	movslq	-20(%rbp), %rdx
	imulq	$272, %rdx, %rdx        # imm = 0x110
	addq	%rdx, %rcx
	movq	-16(%rbp), %rdx
	movslq	8(%rdx), %rdx
	imulq	$68, %rdx, %rdx
	addq	%rdx, %rcx
	movq	-16(%rbp), %rdx
	movslq	4(%rdx), %rdx
	movl	(%rcx,%rdx,4), %ecx
	movq	-16(%rbp), %rdx
	movl	%ecx, 12(%rdx)
	movslq	-20(%rbp), %rcx
	imulq	$272, %rcx, %rcx        # imm = 0x110
	addq	%rcx, %rax
	movq	-16(%rbp), %rcx
	movslq	8(%rcx), %rcx
	imulq	$68, %rcx, %rcx
	addq	%rcx, %rax
	movq	-16(%rbp), %rcx
	movslq	4(%rcx), %rcx
	movl	(%rax,%rcx,4), %eax
	movq	-16(%rbp), %rcx
	movl	%eax, 16(%rcx)
	movq	-16(%rbp), %rax
	cmpl	$0, 12(%rax)
	jne	.LBB96_2
# %bb.1:                                # %if.then
	movq	-16(%rbp), %rax
	movl	4(%rax), %esi
	movq	-16(%rbp), %rax
	movl	8(%rax), %edx
	movabsq	$.L.str.1, %rdi
	movb	$0, %al
	callq	printf
	movl	$4294967295, %edi       # imm = 0xFFFFFFFF
	callq	exit
.LBB96_2:                               # %if.end
	movq	-16(%rbp), %rdi
	callq	symbol2vlc
	movq	-16(%rbp), %rdi
	movq	-32(%rbp), %rax
	movq	(%rax), %rsi
	callq	writeUVLC2buffer
	movq	-16(%rbp), %rax
	movl	12(%rax), %ebx
	cmpl	$1215207984, -24(%rbp)  # imm = 0x486E9A30
	jne	.LBB96_4
.LBB96_3:
	movl	%ebx, %eax
	addq	$24, %rsp
	popq	%rbx
	popq	%rbp
	.cfi_def_cfa %rsp, 8
	retq
.LBB96_4:                               # %func_exit
	.cfi_def_cfa %rbp, 16
	callq	detect_breach
	jmp	.LBB96_3
.Lfunc_end96:
	.size	writeSyntaxElement_NumCoeffTrailingOnesChromaDC.69, .Lfunc_end96-writeSyntaxElement_NumCoeffTrailingOnesChromaDC.69
	.cfi_endproc
                                        # -- End function
	.section	.rodata.cst8,"aM",@progbits,8
	.p2align	3               # -- Begin function ue_linfo.70
.LCPI97_0:
	.quad	4611686018427387904     # double 2
	.text
	.globl	ue_linfo.70
	.p2align	4, 0x90
	.type	ue_linfo.70,@function
ue_linfo.70:                            # @ue_linfo.70
	.cfi_startproc
# %bb.0:                                # %entry
	pushq	%rbp
	.cfi_def_cfa_offset 16
	.cfi_offset %rbp, -16
	movq	%rsp, %rbp
	.cfi_def_cfa_register %rbp
	pushq	%rbx
	subq	$40, %rsp
	.cfi_offset %rbx, -24
	movl	$161458454, -24(%rbp)   # imm = 0x99FA916
	movl	%edi, -20(%rbp)
	movl	%esi, -44(%rbp)
	movq	%rdx, -32(%rbp)
	movq	%rcx, -40(%rbp)
	movl	-20(%rbp), %eax
	addl	$1, %eax
	cltd
	movl	$2, %ecx
	idivl	%ecx
	movl	%eax, -16(%rbp)
	movl	$0, -12(%rbp)
.LBB97_1:                               # %for.cond
                                        # =>This Inner Loop Header: Depth=1
	xorl	%eax, %eax
	cmpl	$16, -12(%rbp)
	jge	.LBB97_3
# %bb.2:                                # %land.rhs
                                        #   in Loop: Header=BB97_1 Depth=1
	cmpl	$0, -16(%rbp)
	setne	%al
.LBB97_3:                               # %land.end
                                        #   in Loop: Header=BB97_1 Depth=1
	testb	$1, %al
	jne	.LBB97_4
	jmp	.LBB97_6
.LBB97_4:                               # %for.body
                                        #   in Loop: Header=BB97_1 Depth=1
	movl	-16(%rbp), %eax
	cltd
	movl	$2, %ecx
	idivl	%ecx
	movl	%eax, -16(%rbp)
# %bb.5:                                # %for.inc
                                        #   in Loop: Header=BB97_1 Depth=1
	movl	-12(%rbp), %eax
	addl	$1, %eax
	movl	%eax, -12(%rbp)
	jmp	.LBB97_1
.LBB97_6:                               # %for.end
	vmovsd	.LCPI97_0(%rip), %xmm0  # xmm0 = mem[0],zero
	movl	-12(%rbp), %eax
	shll	$1, %eax
	addl	$1, %eax
	movq	-32(%rbp), %rcx
	movl	%eax, (%rcx)
	movl	-20(%rbp), %ebx
	addl	$1, %ebx
	vcvtsi2sdl	-12(%rbp), %xmm0, %xmm1
	callq	pow
	vcvttsd2si	%xmm0, %eax
	subl	%eax, %ebx
	movq	-40(%rbp), %rax
	movl	%ebx, (%rax)
	cmpl	$161458454, -24(%rbp)   # imm = 0x99FA916
	jne	.LBB97_8
.LBB97_7:
	addq	$40, %rsp
	popq	%rbx
	popq	%rbp
	.cfi_def_cfa %rsp, 8
	retq
.LBB97_8:                               # %func_exit
	.cfi_def_cfa %rbp, 16
	callq	detect_breach
	jmp	.LBB97_7
.Lfunc_end97:
	.size	ue_linfo.70, .Lfunc_end97-ue_linfo.70
	.cfi_endproc
                                        # -- End function
	.globl	writeSyntaxElement_TotalZeros.71 # -- Begin function writeSyntaxElement_TotalZeros.71
	.p2align	4, 0x90
	.type	writeSyntaxElement_TotalZeros.71,@function
writeSyntaxElement_TotalZeros.71:       # @writeSyntaxElement_TotalZeros.71
	.cfi_startproc
# %bb.0:                                # %entry
	pushq	%rbp
	.cfi_def_cfa_offset 16
	.cfi_offset %rbp, -16
	movq	%rsp, %rbp
	.cfi_def_cfa_register %rbp
	pushq	%rbx
	subq	$24, %rsp
	.cfi_offset %rbx, -24
	movabsq	$writeSyntaxElement_TotalZeros.codtab, %rax
	movabsq	$writeSyntaxElement_TotalZeros.lentab, %rcx
	movl	$355873679, -24(%rbp)   # imm = 0x1536338F
	movq	%rdi, -16(%rbp)
	movq	%rsi, -32(%rbp)
	movq	-16(%rbp), %rdx
	movl	12(%rdx), %edx
	movl	%edx, -20(%rbp)
	movslq	-20(%rbp), %rdx
	shlq	$6, %rdx
	addq	%rdx, %rcx
	movq	-16(%rbp), %rdx
	movslq	4(%rdx), %rdx
	movl	(%rcx,%rdx,4), %ecx
	movq	-16(%rbp), %rdx
	movl	%ecx, 12(%rdx)
	movslq	-20(%rbp), %rcx
	shlq	$6, %rcx
	addq	%rcx, %rax
	movq	-16(%rbp), %rcx
	movslq	4(%rcx), %rcx
	movl	(%rax,%rcx,4), %eax
	movq	-16(%rbp), %rcx
	movl	%eax, 16(%rcx)
	movq	-16(%rbp), %rax
	cmpl	$0, 12(%rax)
	jne	.LBB98_2
# %bb.1:                                # %if.then
	movq	-16(%rbp), %rax
	movl	4(%rax), %esi
	movabsq	$.L.str.2, %rdi
	movb	$0, %al
	callq	printf
	movl	$4294967295, %edi       # imm = 0xFFFFFFFF
	callq	exit
.LBB98_2:                               # %if.end
	movq	-16(%rbp), %rdi
	callq	symbol2vlc
	movq	-16(%rbp), %rdi
	movq	-32(%rbp), %rax
	movq	(%rax), %rsi
	callq	writeUVLC2buffer
	movq	-16(%rbp), %rax
	movl	12(%rax), %ebx
	cmpl	$355873679, -24(%rbp)   # imm = 0x1536338F
	jne	.LBB98_4
.LBB98_3:
	movl	%ebx, %eax
	addq	$24, %rsp
	popq	%rbx
	popq	%rbp
	.cfi_def_cfa %rsp, 8
	retq
.LBB98_4:                               # %func_exit
	.cfi_def_cfa %rbp, 16
	callq	detect_breach
	jmp	.LBB98_3
.Lfunc_end98:
	.size	writeSyntaxElement_TotalZeros.71, .Lfunc_end98-writeSyntaxElement_TotalZeros.71
	.cfi_endproc
                                        # -- End function
	.globl	writeSyntaxElement_Level_VLCN.72 # -- Begin function writeSyntaxElement_Level_VLCN.72
	.p2align	4, 0x90
	.type	writeSyntaxElement_Level_VLCN.72,@function
writeSyntaxElement_Level_VLCN.72:       # @writeSyntaxElement_Level_VLCN.72
	.cfi_startproc
# %bb.0:                                # %entry
	pushq	%rbp
	.cfi_def_cfa_offset 16
	.cfi_offset %rbp, -16
	movq	%rsp, %rbp
	.cfi_def_cfa_register %rbp
	pushq	%rbx
	subq	$72, %rsp
	.cfi_offset %rbx, -24
	movl	$334978460, -60(%rbp)   # imm = 0x13F75D9C
	movq	%rdi, -24(%rbp)
	movl	%esi, -44(%rbp)
	movq	%rdx, -72(%rbp)
	movq	-24(%rbp), %rax
	movl	4(%rax), %eax
	movl	%eax, -36(%rbp)
	movl	-36(%rbp), %edi
	callq	abs
	xorl	%ecx, %ecx
	movl	%eax, -16(%rbp)
	movl	-36(%rbp), %eax
	cmpl	$0, %eax
	movl	$1, %eax
	cmovll	%eax, %ecx
	movl	%ecx, -48(%rbp)
	movl	-44(%rbp), %eax
	subl	$1, %eax
	movl	%eax, -12(%rbp)
	movl	-12(%rbp), %ecx
                                        # kill: def $cl killed $ecx
	movl	$15, %eax
	shll	%cl, %eax
	addl	$1, %eax
	movl	%eax, -28(%rbp)
	movl	-16(%rbp), %eax
	subl	$1, %eax
	movl	-12(%rbp), %ecx
                                        # kill: def $cl killed $ecx
	sarl	%cl, %eax
	movl	%eax, -64(%rbp)
	movl	-12(%rbp), %ecx
                                        # kill: def $cl killed $ecx
	movl	$4294967295, %eax       # imm = 0xFFFFFFFF
	shll	%cl, %eax
	xorl	$-1, %eax
	movl	%eax, -52(%rbp)
	movl	-16(%rbp), %eax
	subl	$1, %eax
	andl	-52(%rbp), %eax
	movl	%eax, -56(%rbp)
	movl	-16(%rbp), %eax
	cmpl	-28(%rbp), %eax
	jge	.LBB99_2
# %bb.1:                                # %if.then
	movl	-64(%rbp), %eax
	addl	-44(%rbp), %eax
	addl	$1, %eax
	movl	%eax, -40(%rbp)
	movl	-12(%rbp), %ecx
	addl	$1, %ecx
                                        # kill: def $cl killed $ecx
	movl	$1, %eax
	shll	%cl, %eax
	movl	-56(%rbp), %ecx
	shll	$1, %ecx
	orl	%ecx, %eax
	orl	-48(%rbp), %eax
	movl	%eax, -32(%rbp)
	jmp	.LBB99_3
.LBB99_2:                               # %if.else
	movl	$28, -40(%rbp)
	movl	-16(%rbp), %eax
	subl	-28(%rbp), %eax
	shll	$1, %eax
	orl	$4096, %eax             # imm = 0x1000
	orl	-48(%rbp), %eax
	movl	%eax, -32(%rbp)
.LBB99_3:                               # %if.end
	movl	-40(%rbp), %eax
	movq	-24(%rbp), %rcx
	movl	%eax, 12(%rcx)
	movl	-32(%rbp), %eax
	movq	-24(%rbp), %rcx
	movl	%eax, 16(%rcx)
	movq	-24(%rbp), %rdi
	callq	symbol2vlc
	movq	-24(%rbp), %rdi
	movq	-72(%rbp), %rax
	movq	(%rax), %rsi
	callq	writeUVLC2buffer
	movq	-24(%rbp), %rax
	movl	12(%rax), %ebx
	cmpl	$334978460, -60(%rbp)   # imm = 0x13F75D9C
	jne	.LBB99_5
.LBB99_4:
	movl	%ebx, %eax
	addq	$72, %rsp
	popq	%rbx
	popq	%rbp
	.cfi_def_cfa %rsp, 8
	retq
.LBB99_5:                               # %func_exit
	.cfi_def_cfa %rbp, 16
	callq	detect_breach
	jmp	.LBB99_4
.Lfunc_end99:
	.size	writeSyntaxElement_Level_VLCN.72, .Lfunc_end99-writeSyntaxElement_Level_VLCN.72
	.cfi_endproc
                                        # -- End function
	.globl	writeUVLC2buffer.73     # -- Begin function writeUVLC2buffer.73
	.p2align	4, 0x90
	.type	writeUVLC2buffer.73,@function
writeUVLC2buffer.73:                    # @writeUVLC2buffer.73
	.cfi_startproc
# %bb.0:                                # %entry
	pushq	%rbp
	.cfi_def_cfa_offset 16
	.cfi_offset %rbp, -16
	movq	%rsp, %rbp
	.cfi_def_cfa_register %rbp
	subq	$32, %rsp
	movl	$1213880335, -28(%rbp)  # imm = 0x485A580F
	movq	%rdi, -24(%rbp)
	movq	%rsi, -8(%rbp)
	movq	-24(%rbp), %rax
	movl	12(%rax), %ecx
	subl	$1, %ecx
                                        # kill: def $cl killed $ecx
	movl	$1, %eax
	shll	%cl, %eax
	movl	%eax, -16(%rbp)
	movl	$0, -12(%rbp)
.LBB100_1:                              # %for.cond
                                        # =>This Inner Loop Header: Depth=1
	movl	-12(%rbp), %eax
	movq	-24(%rbp), %rcx
	cmpl	12(%rcx), %eax
	jge	.LBB100_8
# %bb.2:                                # %for.body
                                        #   in Loop: Header=BB100_1 Depth=1
	movq	-8(%rbp), %rax
	movzbl	8(%rax), %ecx
	shll	$1, %ecx
	movb	%cl, 8(%rax)
	movq	-24(%rbp), %rax
	movl	20(%rax), %eax
	andl	-16(%rbp), %eax
	cmpl	$0, %eax
	je	.LBB100_4
# %bb.3:                                # %if.then
                                        #   in Loop: Header=BB100_1 Depth=1
	movq	-8(%rbp), %rax
	movzbl	8(%rax), %ecx
	orl	$1, %ecx
	movb	%cl, 8(%rax)
.LBB100_4:                              # %if.end
                                        #   in Loop: Header=BB100_1 Depth=1
	movq	-8(%rbp), %rax
	movl	4(%rax), %ecx
	addl	$-1, %ecx
	movl	%ecx, 4(%rax)
	movl	-16(%rbp), %eax
	shrl	$1, %eax
	movl	%eax, -16(%rbp)
	movq	-8(%rbp), %rax
	cmpl	$0, 4(%rax)
	jne	.LBB100_6
# %bb.5:                                # %if.then10
                                        #   in Loop: Header=BB100_1 Depth=1
	movq	-8(%rbp), %rax
	movl	$8, 4(%rax)
	movq	-8(%rbp), %rax
	movb	8(%rax), %al
	movq	-8(%rbp), %rcx
	movq	32(%rcx), %rcx
	movq	-8(%rbp), %rdx
	movl	(%rdx), %esi
	movl	%esi, %edi
	addl	$1, %edi
	movl	%edi, (%rdx)
	movslq	%esi, %rdx
	movb	%al, (%rcx,%rdx)
	movq	-8(%rbp), %rax
	movb	$0, 8(%rax)
.LBB100_6:                              # %if.end14
                                        #   in Loop: Header=BB100_1 Depth=1
	jmp	.LBB100_7
.LBB100_7:                              # %for.inc
                                        #   in Loop: Header=BB100_1 Depth=1
	movl	-12(%rbp), %eax
	addl	$1, %eax
	movl	%eax, -12(%rbp)
	jmp	.LBB100_1
.LBB100_8:                              # %for.end
	cmpl	$1213880335, -28(%rbp)  # imm = 0x485A580F
	jne	.LBB100_10
.LBB100_9:
	addq	$32, %rsp
	popq	%rbp
	.cfi_def_cfa %rsp, 8
	retq
.LBB100_10:                             # %func_exit
	.cfi_def_cfa %rbp, 16
	callq	detect_breach
	jmp	.LBB100_9
.Lfunc_end100:
	.size	writeUVLC2buffer.73, .Lfunc_end100-writeUVLC2buffer.73
	.cfi_endproc
                                        # -- End function
	.globl	writeSyntaxElement_TotalZerosChromaDC.74 # -- Begin function writeSyntaxElement_TotalZerosChromaDC.74
	.p2align	4, 0x90
	.type	writeSyntaxElement_TotalZerosChromaDC.74,@function
writeSyntaxElement_TotalZerosChromaDC.74: # @writeSyntaxElement_TotalZerosChromaDC.74
	.cfi_startproc
# %bb.0:                                # %entry
	pushq	%rbp
	.cfi_def_cfa_offset 16
	.cfi_offset %rbp, -16
	movq	%rsp, %rbp
	.cfi_def_cfa_register %rbp
	pushq	%rbx
	subq	$40, %rsp
	.cfi_offset %rbx, -24
	movabsq	$writeSyntaxElement_TotalZerosChromaDC.codtab, %rax
	movabsq	$writeSyntaxElement_TotalZerosChromaDC.lentab, %rcx
	movl	$1914379665, -28(%rbp)  # imm = 0x721B1D91
	movq	%rdi, -16(%rbp)
	movq	%rsi, -40(%rbp)
	movq	img, %rdx
	movl	72700(%rdx), %edx
	subl	$1, %edx
	movl	%edx, -24(%rbp)
	movq	-16(%rbp), %rdx
	movl	12(%rdx), %edx
	movl	%edx, -20(%rbp)
	movslq	-24(%rbp), %rdx
	imulq	$960, %rdx, %rdx        # imm = 0x3C0
	addq	%rdx, %rcx
	movslq	-20(%rbp), %rdx
	shlq	$6, %rdx
	addq	%rdx, %rcx
	movq	-16(%rbp), %rdx
	movslq	4(%rdx), %rdx
	movl	(%rcx,%rdx,4), %ecx
	movq	-16(%rbp), %rdx
	movl	%ecx, 12(%rdx)
	movslq	-24(%rbp), %rcx
	imulq	$960, %rcx, %rcx        # imm = 0x3C0
	addq	%rcx, %rax
	movslq	-20(%rbp), %rcx
	shlq	$6, %rcx
	addq	%rcx, %rax
	movq	-16(%rbp), %rcx
	movslq	4(%rcx), %rcx
	movl	(%rax,%rcx,4), %eax
	movq	-16(%rbp), %rcx
	movl	%eax, 16(%rcx)
	movq	-16(%rbp), %rax
	cmpl	$0, 12(%rax)
	jne	.LBB101_2
# %bb.1:                                # %if.then
	movq	-16(%rbp), %rax
	movl	4(%rax), %esi
	movabsq	$.L.str.2, %rdi
	movb	$0, %al
	callq	printf
	movl	$4294967295, %edi       # imm = 0xFFFFFFFF
	callq	exit
.LBB101_2:                              # %if.end
	movq	-16(%rbp), %rdi
	callq	symbol2vlc
	movq	-16(%rbp), %rdi
	movq	-40(%rbp), %rax
	movq	(%rax), %rsi
	callq	writeUVLC2buffer
	movq	-16(%rbp), %rax
	movl	12(%rax), %ebx
	cmpl	$1914379665, -28(%rbp)  # imm = 0x721B1D91
	jne	.LBB101_4
.LBB101_3:
	movl	%ebx, %eax
	addq	$40, %rsp
	popq	%rbx
	popq	%rbp
	.cfi_def_cfa %rsp, 8
	retq
.LBB101_4:                              # %func_exit
	.cfi_def_cfa %rbp, 16
	callq	detect_breach
	jmp	.LBB101_3
.Lfunc_end101:
	.size	writeSyntaxElement_TotalZerosChromaDC.74, .Lfunc_end101-writeSyntaxElement_TotalZerosChromaDC.74
	.cfi_endproc
                                        # -- End function
	.globl	writeSyntaxElement_Level_VLC1.75 # -- Begin function writeSyntaxElement_Level_VLC1.75
	.p2align	4, 0x90
	.type	writeSyntaxElement_Level_VLC1.75,@function
writeSyntaxElement_Level_VLC1.75:       # @writeSyntaxElement_Level_VLC1.75
	.cfi_startproc
# %bb.0:                                # %entry
	pushq	%rbp
	.cfi_def_cfa_offset 16
	.cfi_offset %rbp, -16
	movq	%rsp, %rbp
	.cfi_def_cfa_register %rbp
	pushq	%rbx
	subq	$40, %rsp
	.cfi_offset %rbx, -24
	movl	$1593646382, -36(%rbp)  # imm = 0x5EFD1D2E
	movq	%rdi, -24(%rbp)
	movq	%rsi, -48(%rbp)
	movq	-24(%rbp), %rax
	movl	4(%rax), %eax
	movl	%eax, -32(%rbp)
	movl	-32(%rbp), %edi
	callq	abs
	xorl	%ecx, %ecx
	movl	%eax, -12(%rbp)
	movl	-32(%rbp), %eax
	cmpl	$0, %eax
	movl	$1, %eax
	cmovll	%eax, %ecx
	movl	%ecx, -28(%rbp)
	cmpl	$8, -12(%rbp)
	jge	.LBB102_2
# %bb.1:                                # %if.then
	movl	-12(%rbp), %eax
	shll	$1, %eax
	addl	-28(%rbp), %eax
	subl	$1, %eax
	movq	-24(%rbp), %rcx
	movl	%eax, 12(%rcx)
	movq	-24(%rbp), %rax
	movl	$1, 16(%rax)
	jmp	.LBB102_6
.LBB102_2:                              # %if.else
	cmpl	$16, -12(%rbp)
	jge	.LBB102_4
# %bb.3:                                # %if.then3
	movq	-24(%rbp), %rax
	movl	$19, 12(%rax)
	movl	-12(%rbp), %eax
	subl	$8, %eax
	shll	$1, %eax
	orl	$16, %eax
	orl	-28(%rbp), %eax
	movq	-24(%rbp), %rcx
	movl	%eax, 16(%rcx)
	jmp	.LBB102_5
.LBB102_4:                              # %if.else8
	movq	-24(%rbp), %rax
	movl	$28, 12(%rax)
	movl	-12(%rbp), %eax
	subl	$16, %eax
	shll	$1, %eax
	orl	$4096, %eax             # imm = 0x1000
	orl	-28(%rbp), %eax
	movq	-24(%rbp), %rcx
	movl	%eax, 16(%rcx)
.LBB102_5:                              # %if.end
	jmp	.LBB102_6
.LBB102_6:                              # %if.end15
	movq	-24(%rbp), %rdi
	callq	symbol2vlc
	movq	-24(%rbp), %rdi
	movq	-48(%rbp), %rax
	movq	(%rax), %rsi
	callq	writeUVLC2buffer
	movq	-24(%rbp), %rax
	movl	12(%rax), %ebx
	cmpl	$1593646382, -36(%rbp)  # imm = 0x5EFD1D2E
	jne	.LBB102_8
.LBB102_7:
	movl	%ebx, %eax
	addq	$40, %rsp
	popq	%rbx
	popq	%rbp
	.cfi_def_cfa %rsp, 8
	retq
.LBB102_8:                              # %func_exit
	.cfi_def_cfa %rbp, 16
	callq	detect_breach
	jmp	.LBB102_7
.Lfunc_end102:
	.size	writeSyntaxElement_Level_VLC1.75, .Lfunc_end102-writeSyntaxElement_Level_VLC1.75
	.cfi_endproc
                                        # -- End function
	.section	.rodata.cst8,"aM",@progbits,8
	.p2align	3               # -- Begin function levrun_linfo_inter.76
.LCPI103_0:
	.quad	4611686018427387904     # double 2
	.text
	.globl	levrun_linfo_inter.76
	.p2align	4, 0x90
	.type	levrun_linfo_inter.76,@function
levrun_linfo_inter.76:                  # @levrun_linfo_inter.76
	.cfi_startproc
# %bb.0:                                # %entry
	pushq	%rbp
	.cfi_def_cfa_offset 16
	.cfi_offset %rbp, -16
	movq	%rsp, %rbp
	.cfi_def_cfa_register %rbp
	pushq	%rbx
	subq	$104, %rsp
	.cfi_offset %rbx, -24
	movl	$294055802, -40(%rbp)   # imm = 0x1186EF7A
	movl	%edi, -28(%rbp)
	movl	%esi, -16(%rbp)
	movq	%rdx, -48(%rbp)
	movq	%rcx, -72(%rbp)
	movq	.L__const.levrun_linfo_inter.LEVRUN, %rax
	movq	%rax, -64(%rbp)
	movq	.L__const.levrun_linfo_inter.LEVRUN+8, %rax
	movq	%rax, -56(%rbp)
	leaq	-112(%rbp), %rdi
	movabsq	$.L__const.levrun_linfo_inter.NTAB, %rsi
	movl	$40, %edx
	callq	memcpy
	cmpl	$0, -28(%rbp)
	jne	.LBB103_2
# %bb.1:                                # %if.then
	movq	-48(%rbp), %rax
	movl	$1, (%rax)
	jmp	.LBB103_15
.LBB103_2:                              # %if.end
	cmpl	$0, -28(%rbp)
	jg	.LBB103_4
# %bb.3:                                # %if.then2
	movl	$1, -36(%rbp)
	jmp	.LBB103_5
.LBB103_4:                              # %if.else
	movl	$0, -36(%rbp)
.LBB103_5:                              # %if.end3
	movl	-28(%rbp), %edi
	callq	abs
	movl	%eax, -32(%rbp)
	movl	-32(%rbp), %eax
	movslq	-16(%rbp), %rcx
	movzbl	-64(%rbp,%rcx), %ecx
	cmpl	%ecx, %eax
	jg	.LBB103_7
# %bb.6:                                # %if.then6
	movl	-32(%rbp), %eax
	subl	$1, %eax
	cltq
	imulq	$10, %rax, %rax
	leaq	-112(%rbp), %rcx
	addq	%rax, %rcx
	movslq	-16(%rbp), %rax
	movzbl	(%rcx,%rax), %eax
	addl	$1, %eax
	movl	%eax, -20(%rbp)
	jmp	.LBB103_8
.LBB103_7:                              # %if.else12
	movl	-32(%rbp), %eax
	movslq	-16(%rbp), %rcx
	movzbl	-64(%rbp,%rcx), %ecx
	subl	%ecx, %eax
	shll	$5, %eax
	movl	-16(%rbp), %ecx
	shll	$1, %ecx
	addl	%ecx, %eax
	movl	%eax, -20(%rbp)
.LBB103_8:                              # %if.end19
	movl	-20(%rbp), %eax
	cltd
	movl	$2, %ecx
	idivl	%ecx
	movl	%eax, -24(%rbp)
	movl	$0, -12(%rbp)
.LBB103_9:                              # %for.cond
                                        # =>This Inner Loop Header: Depth=1
	xorl	%eax, %eax
	cmpl	$16, -12(%rbp)
	jge	.LBB103_11
# %bb.10:                               # %land.rhs
                                        #   in Loop: Header=BB103_9 Depth=1
	cmpl	$0, -24(%rbp)
	setne	%al
.LBB103_11:                             # %land.end
                                        #   in Loop: Header=BB103_9 Depth=1
	testb	$1, %al
	jne	.LBB103_12
	jmp	.LBB103_14
.LBB103_12:                             # %for.body
                                        #   in Loop: Header=BB103_9 Depth=1
	movl	-24(%rbp), %eax
	cltd
	movl	$2, %ecx
	idivl	%ecx
	movl	%eax, -24(%rbp)
# %bb.13:                               # %for.inc
                                        #   in Loop: Header=BB103_9 Depth=1
	movl	-12(%rbp), %eax
	addl	$1, %eax
	movl	%eax, -12(%rbp)
	jmp	.LBB103_9
.LBB103_14:                             # %for.end
	vmovsd	.LCPI103_0(%rip), %xmm0 # xmm0 = mem[0],zero
	movl	-12(%rbp), %eax
	shll	$1, %eax
	addl	$1, %eax
	movq	-48(%rbp), %rcx
	movl	%eax, (%rcx)
	movl	-20(%rbp), %ebx
	vcvtsi2sdl	-12(%rbp), %xmm0, %xmm1
	callq	pow
	vcvttsd2si	%xmm0, %eax
	subl	%eax, %ebx
	addl	-36(%rbp), %ebx
	movq	-72(%rbp), %rax
	movl	%ebx, (%rax)
.LBB103_15:                             # %return
	cmpl	$294055802, -40(%rbp)   # imm = 0x1186EF7A
	jne	.LBB103_17
.LBB103_16:
	addq	$104, %rsp
	popq	%rbx
	popq	%rbp
	.cfi_def_cfa %rsp, 8
	retq
.LBB103_17:                             # %func_exit
	.cfi_def_cfa %rbp, 16
	callq	detect_breach
	jmp	.LBB103_16
.Lfunc_end103:
	.size	levrun_linfo_inter.76, .Lfunc_end103-levrun_linfo_inter.76
	.cfi_endproc
                                        # -- End function
	.globl	cbp_linfo_intra.77      # -- Begin function cbp_linfo_intra.77
	.p2align	4, 0x90
	.type	cbp_linfo_intra.77,@function
cbp_linfo_intra.77:                     # @cbp_linfo_intra.77
	.cfi_startproc
# %bb.0:                                # %entry
	pushq	%rbp
	.cfi_def_cfa_offset 16
	.cfi_offset %rbp, -16
	movq	%rsp, %rbp
	.cfi_def_cfa_register %rbp
	subq	$32, %rsp
	xorl	%eax, %eax
	movl	$1545954744, -12(%rbp)  # imm = 0x5C2565B8
	movl	%edi, -4(%rbp)
	movl	%esi, -8(%rbp)
	movq	%rdx, -32(%rbp)
	movq	%rcx, -24(%rbp)
	movq	img, %rcx
	movl	72700(%rcx), %ecx
	cmpl	$0, %ecx
	movl	$1, %ecx
	cmovnel	%ecx, %eax
	cltq
	imulq	$96, %rax, %rax
	movabsq	$NCBP, %rcx
	addq	%rax, %rcx
	movslq	-4(%rbp), %rax
	movzbl	(%rcx,%rax,2), %edi
	movl	-8(%rbp), %esi
	movq	-32(%rbp), %rdx
	movq	-24(%rbp), %rcx
	callq	ue_linfo
	cmpl	$1545954744, -12(%rbp)  # imm = 0x5C2565B8
	jne	.LBB104_2
.LBB104_1:
	addq	$32, %rsp
	popq	%rbp
	.cfi_def_cfa %rsp, 8
	retq
.LBB104_2:                              # %func_exit
	.cfi_def_cfa %rbp, 16
	callq	detect_breach
	jmp	.LBB104_1
.Lfunc_end104:
	.size	cbp_linfo_intra.77, .Lfunc_end104-cbp_linfo_intra.77
	.cfi_endproc
                                        # -- End function
	.globl	ue_v.78                 # -- Begin function ue_v.78
	.p2align	4, 0x90
	.type	ue_v.78,@function
ue_v.78:                                # @ue_v.78
	.cfi_startproc
# %bb.0:                                # %entry
	pushq	%rbp
	.cfi_def_cfa_offset 16
	.cfi_offset %rbp, -16
	movq	%rsp, %rbp
	.cfi_def_cfa_register %rbp
	pushq	%rbx
	subq	$88, %rsp
	.cfi_offset %rbx, -24
	movl	$1188968626, -20(%rbp)  # imm = 0x46DE38B2
	movq	%rdi, -40(%rbp)
	movl	%esi, -24(%rbp)
	movq	%rdx, -32(%rbp)
	leaq	-88(%rbp), %rax
	movq	%rax, -16(%rbp)
	movq	-16(%rbp), %rax
	movl	$0, (%rax)
	movq	-16(%rbp), %rax
	movabsq	$ue_linfo, %rcx
	movq	%rcx, 32(%rax)
	movl	-24(%rbp), %eax
	movq	-16(%rbp), %rcx
	movl	%eax, 4(%rcx)
	movq	-16(%rbp), %rax
	movl	$0, 8(%rax)
	movq	-16(%rbp), %rdi
	movq	-32(%rbp), %rsi
	callq	writeSyntaxElement_UVLC
	movl	%eax, %ebx
	cmpl	$1188968626, -20(%rbp)  # imm = 0x46DE38B2
	jne	.LBB105_2
.LBB105_1:
	movl	%ebx, %eax
	addq	$88, %rsp
	popq	%rbx
	popq	%rbp
	.cfi_def_cfa %rsp, 8
	retq
.LBB105_2:                              # %func_exit
	.cfi_def_cfa %rbp, 16
	callq	detect_breach
	jmp	.LBB105_1
.Lfunc_end105:
	.size	ue_v.78, .Lfunc_end105-ue_v.78
	.cfi_endproc
                                        # -- End function
	.globl	writeSyntaxElement_NumCoeffTrailingOnes.79 # -- Begin function writeSyntaxElement_NumCoeffTrailingOnes.79
	.p2align	4, 0x90
	.type	writeSyntaxElement_NumCoeffTrailingOnes.79,@function
writeSyntaxElement_NumCoeffTrailingOnes.79: # @writeSyntaxElement_NumCoeffTrailingOnes.79
	.cfi_startproc
# %bb.0:                                # %entry
	pushq	%rbp
	.cfi_def_cfa_offset 16
	.cfi_offset %rbp, -16
	movq	%rsp, %rbp
	.cfi_def_cfa_register %rbp
	pushq	%rbx
	subq	$24, %rsp
	.cfi_offset %rbx, -24
	movl	$271332120, -24(%rbp)   # imm = 0x102C3318
	movq	%rdi, -16(%rbp)
	movq	%rsi, -32(%rbp)
	movq	-16(%rbp), %rax
	movl	12(%rax), %eax
	movl	%eax, -20(%rbp)
	cmpl	$3, -20(%rbp)
	jne	.LBB106_5
# %bb.1:                                # %if.then
	movq	-16(%rbp), %rax
	movl	$6, 12(%rax)
	movq	-16(%rbp), %rax
	cmpl	$0, 4(%rax)
	jle	.LBB106_3
# %bb.2:                                # %if.then3
	movq	-16(%rbp), %rax
	movl	4(%rax), %eax
	subl	$1, %eax
	shll	$2, %eax
	movq	-16(%rbp), %rcx
	orl	8(%rcx), %eax
	movq	-16(%rbp), %rcx
	movl	%eax, 16(%rcx)
	jmp	.LBB106_4
.LBB106_3:                              # %if.else
	movq	-16(%rbp), %rax
	movl	$3, 16(%rax)
.LBB106_4:                              # %if.end
	jmp	.LBB106_6
.LBB106_5:                              # %if.else6
	movslq	-20(%rbp), %rax
	imulq	$272, %rax, %rax        # imm = 0x110
	movabsq	$writeSyntaxElement_NumCoeffTrailingOnes.lentab, %rcx
	addq	%rax, %rcx
	movq	-16(%rbp), %rax
	movslq	8(%rax), %rax
	imulq	$68, %rax, %rax
	addq	%rax, %rcx
	movq	-16(%rbp), %rax
	movslq	4(%rax), %rax
	movl	(%rcx,%rax,4), %eax
	movq	-16(%rbp), %rcx
	movl	%eax, 12(%rcx)
	movslq	-20(%rbp), %rax
	imulq	$272, %rax, %rax        # imm = 0x110
	movabsq	$writeSyntaxElement_NumCoeffTrailingOnes.codtab, %rcx
	addq	%rax, %rcx
	movq	-16(%rbp), %rax
	movslq	8(%rax), %rax
	imulq	$68, %rax, %rax
	addq	%rax, %rcx
	movq	-16(%rbp), %rax
	movslq	4(%rax), %rax
	movl	(%rcx,%rax,4), %eax
	movq	-16(%rbp), %rcx
	movl	%eax, 16(%rcx)
.LBB106_6:                              # %if.end23
	movq	-16(%rbp), %rax
	cmpl	$0, 12(%rax)
	jne	.LBB106_8
# %bb.7:                                # %if.then26
	movl	-20(%rbp), %esi
	movq	-16(%rbp), %rax
	movl	4(%rax), %edx
	movq	-16(%rbp), %rax
	movl	8(%rax), %ecx
	movabsq	$.L.str, %rdi
	movb	$0, %al
	callq	printf
	movl	$4294967295, %edi       # imm = 0xFFFFFFFF
	callq	exit
.LBB106_8:                              # %if.end29
	movq	-16(%rbp), %rdi
	callq	symbol2vlc
	movq	-16(%rbp), %rdi
	movq	-32(%rbp), %rax
	movq	(%rax), %rsi
	callq	writeUVLC2buffer
	movq	-16(%rbp), %rax
	movl	12(%rax), %ebx
	cmpl	$271332120, -24(%rbp)   # imm = 0x102C3318
	jne	.LBB106_10
.LBB106_9:
	movl	%ebx, %eax
	addq	$24, %rsp
	popq	%rbx
	popq	%rbp
	.cfi_def_cfa %rsp, 8
	retq
.LBB106_10:                             # %func_exit
	.cfi_def_cfa %rbp, 16
	callq	detect_breach
	jmp	.LBB106_9
.Lfunc_end106:
	.size	writeSyntaxElement_NumCoeffTrailingOnes.79, .Lfunc_end106-writeSyntaxElement_NumCoeffTrailingOnes.79
	.cfi_endproc
                                        # -- End function
	.section	.rodata.cst8,"aM",@progbits,8
	.p2align	3               # -- Begin function levrun_linfo_intra.80
.LCPI107_0:
	.quad	4611686018427387904     # double 2
	.text
	.globl	levrun_linfo_intra.80
	.p2align	4, 0x90
	.type	levrun_linfo_intra.80,@function
levrun_linfo_intra.80:                  # @levrun_linfo_intra.80
	.cfi_startproc
# %bb.0:                                # %entry
	pushq	%rbp
	.cfi_def_cfa_offset 16
	.cfi_offset %rbp, -16
	movq	%rsp, %rbp
	.cfi_def_cfa_register %rbp
	pushq	%rbx
	subq	$104, %rsp
	.cfi_offset %rbx, -24
	movl	$1723452107, -40(%rbp)  # imm = 0x66B9CACB
	movl	%edi, -20(%rbp)
	movl	%esi, -16(%rbp)
	movq	%rdx, -48(%rbp)
	movq	%rcx, -64(%rbp)
	movq	.L__const.levrun_linfo_intra.LEVRUN, %rax
	movq	%rax, -56(%rbp)
	leaq	-112(%rbp), %rdi
	movabsq	$.L__const.levrun_linfo_intra.NTAB, %rsi
	movl	$45, %edx
	callq	memcpy
	cmpl	$0, -20(%rbp)
	jne	.LBB107_2
# %bb.1:                                # %if.then
	movq	-48(%rbp), %rax
	movl	$1, (%rax)
	jmp	.LBB107_15
.LBB107_2:                              # %if.end
	cmpl	$0, -20(%rbp)
	jg	.LBB107_4
# %bb.3:                                # %if.then2
	movl	$1, -36(%rbp)
	jmp	.LBB107_5
.LBB107_4:                              # %if.else
	movl	$0, -36(%rbp)
.LBB107_5:                              # %if.end3
	movl	-20(%rbp), %edi
	callq	abs
	movl	%eax, -28(%rbp)
	movl	-28(%rbp), %eax
	movslq	-16(%rbp), %rcx
	movzbl	-56(%rbp,%rcx), %ecx
	cmpl	%ecx, %eax
	jg	.LBB107_7
# %bb.6:                                # %if.then6
	movl	-28(%rbp), %eax
	subl	$1, %eax
	cltq
	imulq	$5, %rax, %rax
	leaq	-112(%rbp), %rcx
	addq	%rax, %rcx
	movslq	-16(%rbp), %rax
	movzbl	(%rcx,%rax), %eax
	addl	$1, %eax
	movl	%eax, -32(%rbp)
	jmp	.LBB107_8
.LBB107_7:                              # %if.else12
	movl	-28(%rbp), %eax
	movslq	-16(%rbp), %rcx
	movzbl	-56(%rbp,%rcx), %ecx
	subl	%ecx, %eax
	shll	$4, %eax
	addl	$16, %eax
	movl	-16(%rbp), %ecx
	shll	$1, %ecx
	addl	%ecx, %eax
	movl	%eax, -32(%rbp)
.LBB107_8:                              # %if.end20
	movl	-32(%rbp), %eax
	cltd
	movl	$2, %ecx
	idivl	%ecx
	movl	%eax, -24(%rbp)
	movl	$0, -12(%rbp)
.LBB107_9:                              # %for.cond
                                        # =>This Inner Loop Header: Depth=1
	xorl	%eax, %eax
	cmpl	$16, -12(%rbp)
	jge	.LBB107_11
# %bb.10:                               # %land.rhs
                                        #   in Loop: Header=BB107_9 Depth=1
	cmpl	$0, -24(%rbp)
	setne	%al
.LBB107_11:                             # %land.end
                                        #   in Loop: Header=BB107_9 Depth=1
	testb	$1, %al
	jne	.LBB107_12
	jmp	.LBB107_14
.LBB107_12:                             # %for.body
                                        #   in Loop: Header=BB107_9 Depth=1
	movl	-24(%rbp), %eax
	cltd
	movl	$2, %ecx
	idivl	%ecx
	movl	%eax, -24(%rbp)
# %bb.13:                               # %for.inc
                                        #   in Loop: Header=BB107_9 Depth=1
	movl	-12(%rbp), %eax
	addl	$1, %eax
	movl	%eax, -12(%rbp)
	jmp	.LBB107_9
.LBB107_14:                             # %for.end
	vmovsd	.LCPI107_0(%rip), %xmm0 # xmm0 = mem[0],zero
	movl	-12(%rbp), %eax
	shll	$1, %eax
	addl	$1, %eax
	movq	-48(%rbp), %rcx
	movl	%eax, (%rcx)
	movl	-32(%rbp), %ebx
	vcvtsi2sdl	-12(%rbp), %xmm0, %xmm1
	callq	pow
	vcvttsd2si	%xmm0, %eax
	subl	%eax, %ebx
	addl	-36(%rbp), %ebx
	movq	-64(%rbp), %rax
	movl	%ebx, (%rax)
.LBB107_15:                             # %return
	cmpl	$1723452107, -40(%rbp)  # imm = 0x66B9CACB
	jne	.LBB107_17
.LBB107_16:
	addq	$104, %rsp
	popq	%rbx
	popq	%rbp
	.cfi_def_cfa %rsp, 8
	retq
.LBB107_17:                             # %func_exit
	.cfi_def_cfa %rbp, 16
	callq	detect_breach
	jmp	.LBB107_16
.Lfunc_end107:
	.size	levrun_linfo_intra.80, .Lfunc_end107-levrun_linfo_intra.80
	.cfi_endproc
                                        # -- End function
	.globl	se_v.81                 # -- Begin function se_v.81
	.p2align	4, 0x90
	.type	se_v.81,@function
se_v.81:                                # @se_v.81
	.cfi_startproc
# %bb.0:                                # %entry
	pushq	%rbp
	.cfi_def_cfa_offset 16
	.cfi_offset %rbp, -16
	movq	%rsp, %rbp
	.cfi_def_cfa_register %rbp
	pushq	%rbx
	subq	$88, %rsp
	.cfi_offset %rbx, -24
	movl	$23515724, -20(%rbp)    # imm = 0x166D24C
	movq	%rdi, -40(%rbp)
	movl	%esi, -24(%rbp)
	movq	%rdx, -32(%rbp)
	leaq	-88(%rbp), %rax
	movq	%rax, -16(%rbp)
	movq	-16(%rbp), %rax
	movl	$0, (%rax)
	movq	-16(%rbp), %rax
	movabsq	$se_linfo, %rcx
	movq	%rcx, 32(%rax)
	movl	-24(%rbp), %eax
	movq	-16(%rbp), %rcx
	movl	%eax, 4(%rcx)
	movq	-16(%rbp), %rax
	movl	$0, 8(%rax)
	movq	-16(%rbp), %rdi
	movq	-32(%rbp), %rsi
	callq	writeSyntaxElement_UVLC
	movl	%eax, %ebx
	cmpl	$23515724, -20(%rbp)    # imm = 0x166D24C
	jne	.LBB108_2
.LBB108_1:
	movl	%ebx, %eax
	addq	$88, %rsp
	popq	%rbx
	popq	%rbp
	.cfi_def_cfa %rsp, 8
	retq
.LBB108_2:                              # %func_exit
	.cfi_def_cfa %rbp, 16
	callq	detect_breach
	jmp	.LBB108_1
.Lfunc_end108:
	.size	se_v.81, .Lfunc_end108-se_v.81
	.cfi_endproc
                                        # -- End function
	.section	.rodata.cst8,"aM",@progbits,8
	.p2align	3               # -- Begin function levrun_linfo_intra.82
.LCPI109_0:
	.quad	4611686018427387904     # double 2
	.text
	.globl	levrun_linfo_intra.82
	.p2align	4, 0x90
	.type	levrun_linfo_intra.82,@function
levrun_linfo_intra.82:                  # @levrun_linfo_intra.82
	.cfi_startproc
# %bb.0:                                # %entry
	pushq	%rbp
	.cfi_def_cfa_offset 16
	.cfi_offset %rbp, -16
	movq	%rsp, %rbp
	.cfi_def_cfa_register %rbp
	pushq	%rbx
	subq	$104, %rsp
	.cfi_offset %rbx, -24
	movl	$708885582, -40(%rbp)   # imm = 0x2A40BC4E
	movl	%edi, -24(%rbp)
	movl	%esi, -16(%rbp)
	movq	%rdx, -48(%rbp)
	movq	%rcx, -64(%rbp)
	movq	.L__const.levrun_linfo_intra.LEVRUN, %rax
	movq	%rax, -56(%rbp)
	leaq	-112(%rbp), %rdi
	movabsq	$.L__const.levrun_linfo_intra.NTAB, %rsi
	movl	$45, %edx
	callq	memcpy
	cmpl	$0, -24(%rbp)
	jne	.LBB109_2
# %bb.1:                                # %if.then
	movq	-48(%rbp), %rax
	movl	$1, (%rax)
	jmp	.LBB109_15
.LBB109_2:                              # %if.end
	cmpl	$0, -24(%rbp)
	jg	.LBB109_4
# %bb.3:                                # %if.then2
	movl	$1, -36(%rbp)
	jmp	.LBB109_5
.LBB109_4:                              # %if.else
	movl	$0, -36(%rbp)
.LBB109_5:                              # %if.end3
	movl	-24(%rbp), %edi
	callq	abs
	movl	%eax, -32(%rbp)
	movl	-32(%rbp), %eax
	movslq	-16(%rbp), %rcx
	movzbl	-56(%rbp,%rcx), %ecx
	cmpl	%ecx, %eax
	jg	.LBB109_7
# %bb.6:                                # %if.then6
	movl	-32(%rbp), %eax
	subl	$1, %eax
	cltq
	imulq	$5, %rax, %rax
	leaq	-112(%rbp), %rcx
	addq	%rax, %rcx
	movslq	-16(%rbp), %rax
	movzbl	(%rcx,%rax), %eax
	addl	$1, %eax
	movl	%eax, -20(%rbp)
	jmp	.LBB109_8
.LBB109_7:                              # %if.else12
	movl	-32(%rbp), %eax
	movslq	-16(%rbp), %rcx
	movzbl	-56(%rbp,%rcx), %ecx
	subl	%ecx, %eax
	shll	$4, %eax
	addl	$16, %eax
	movl	-16(%rbp), %ecx
	shll	$1, %ecx
	addl	%ecx, %eax
	movl	%eax, -20(%rbp)
.LBB109_8:                              # %if.end20
	movl	-20(%rbp), %eax
	cltd
	movl	$2, %ecx
	idivl	%ecx
	movl	%eax, -28(%rbp)
	movl	$0, -12(%rbp)
.LBB109_9:                              # %for.cond
                                        # =>This Inner Loop Header: Depth=1
	xorl	%eax, %eax
	cmpl	$16, -12(%rbp)
	jge	.LBB109_11
# %bb.10:                               # %land.rhs
                                        #   in Loop: Header=BB109_9 Depth=1
	cmpl	$0, -28(%rbp)
	setne	%al
.LBB109_11:                             # %land.end
                                        #   in Loop: Header=BB109_9 Depth=1
	testb	$1, %al
	jne	.LBB109_12
	jmp	.LBB109_14
.LBB109_12:                             # %for.body
                                        #   in Loop: Header=BB109_9 Depth=1
	movl	-28(%rbp), %eax
	cltd
	movl	$2, %ecx
	idivl	%ecx
	movl	%eax, -28(%rbp)
# %bb.13:                               # %for.inc
                                        #   in Loop: Header=BB109_9 Depth=1
	movl	-12(%rbp), %eax
	addl	$1, %eax
	movl	%eax, -12(%rbp)
	jmp	.LBB109_9
.LBB109_14:                             # %for.end
	vmovsd	.LCPI109_0(%rip), %xmm0 # xmm0 = mem[0],zero
	movl	-12(%rbp), %eax
	shll	$1, %eax
	addl	$1, %eax
	movq	-48(%rbp), %rcx
	movl	%eax, (%rcx)
	movl	-20(%rbp), %ebx
	vcvtsi2sdl	-12(%rbp), %xmm0, %xmm1
	callq	pow
	vcvttsd2si	%xmm0, %eax
	subl	%eax, %ebx
	addl	-36(%rbp), %ebx
	movq	-64(%rbp), %rax
	movl	%ebx, (%rax)
.LBB109_15:                             # %return
	cmpl	$708885582, -40(%rbp)   # imm = 0x2A40BC4E
	jne	.LBB109_17
.LBB109_16:
	addq	$104, %rsp
	popq	%rbx
	popq	%rbp
	.cfi_def_cfa %rsp, 8
	retq
