	.text
	.file	"vlc.c"
	.globl	ue_v                    # -- Begin function ue_v
	.p2align	4, 0x90
	.type	ue_v,@function
ue_v:                                   # @ue_v
	.cfi_startproc
# %bb.0:                                # %rand_bb
	pushq	%rbp
	.cfi_def_cfa_offset 16
	.cfi_offset %rbp, -16
	movq	%rsp, %rbp
	.cfi_def_cfa_register %rbp
	pushq	%r15
	pushq	%r14
	pushq	%rbx
	pushq	%rax
	.cfi_offset %rbx, -40
	.cfi_offset %r14, -32
	.cfi_offset %r15, -24
	movq	%rdx, %r14
	movl	%esi, %r15d
	movq	%rdi, %rbx
	callq	get_urand
	cmpl	$0, %eax
	jne	.LBB0_17
# %bb.1:                                # %func_ue_v.4
	movq	%rbx, %rdi
	movl	%r15d, %esi
	movq	%r14, %rdx
	callq	ue_v.4
	addq	$8, %rsp
	popq	%rbx
	popq	%r14
	popq	%r15
	popq	%rbp
	.cfi_def_cfa %rsp, 8
	retq
.LBB0_2:                                # %func_ue_v.32
	.cfi_def_cfa %rbp, 16
	movq	%rbx, %rdi
	movl	%r15d, %esi
	movq	%r14, %rdx
	callq	ue_v.32
	addq	$8, %rsp
	popq	%rbx
	popq	%r14
	popq	%r15
	popq	%rbp
	.cfi_def_cfa %rsp, 8
	retq
.LBB0_3:                                # %func_ue_v.54
	.cfi_def_cfa %rbp, 16
	movq	%rbx, %rdi
	movl	%r15d, %esi
	movq	%r14, %rdx
	callq	ue_v.54
	addq	$8, %rsp
	popq	%rbx
	popq	%r14
	popq	%r15
	popq	%rbp
	.cfi_def_cfa %rsp, 8
	retq
.LBB0_4:                                # %func_ue_v.77
	.cfi_def_cfa %rbp, 16
	movq	%rbx, %rdi
	movl	%r15d, %esi
	movq	%r14, %rdx
	callq	ue_v.77
	addq	$8, %rsp
	popq	%rbx
	popq	%r14
	popq	%r15
	popq	%rbp
	.cfi_def_cfa %rsp, 8
	retq
.LBB0_5:                                # %func_ue_v.100
	.cfi_def_cfa %rbp, 16
	movq	%rbx, %rdi
	movl	%r15d, %esi
	movq	%r14, %rdx
	callq	ue_v.100
	addq	$8, %rsp
	popq	%rbx
	popq	%r14
	popq	%r15
	popq	%rbp
	.cfi_def_cfa %rsp, 8
	retq
.LBB0_6:                                # %func_ue_v.131
	.cfi_def_cfa %rbp, 16
	movq	%rbx, %rdi
	movl	%r15d, %esi
	movq	%r14, %rdx
	callq	ue_v.131
	addq	$8, %rsp
	popq	%rbx
	popq	%r14
	popq	%r15
	popq	%rbp
	.cfi_def_cfa %rsp, 8
	retq
.LBB0_7:                                # %func_ue_v.144
	.cfi_def_cfa %rbp, 16
	movq	%rbx, %rdi
	movl	%r15d, %esi
	movq	%r14, %rdx
	callq	ue_v.144
	addq	$8, %rsp
	popq	%rbx
	popq	%r14
	popq	%r15
	popq	%rbp
	.cfi_def_cfa %rsp, 8
	retq
.LBB0_8:                                # %func_ue_v.148
	.cfi_def_cfa %rbp, 16
	movq	%rbx, %rdi
	movl	%r15d, %esi
	movq	%r14, %rdx
	callq	ue_v.148
	addq	$8, %rsp
	popq	%rbx
	popq	%r14
	popq	%r15
	popq	%rbp
	.cfi_def_cfa %rsp, 8
	retq
.LBB0_9:                                # %func_ue_v.155
	.cfi_def_cfa %rbp, 16
	movq	%rbx, %rdi
	movl	%r15d, %esi
	movq	%r14, %rdx
	callq	ue_v.155
	addq	$8, %rsp
	popq	%rbx
	popq	%r14
	popq	%r15
	popq	%rbp
	.cfi_def_cfa %rsp, 8
	retq
.LBB0_10:                               # %func_ue_v.179
	.cfi_def_cfa %rbp, 16
	movq	%rbx, %rdi
	movl	%r15d, %esi
	movq	%r14, %rdx
	callq	ue_v.179
	addq	$8, %rsp
	popq	%rbx
	popq	%r14
	popq	%r15
	popq	%rbp
	.cfi_def_cfa %rsp, 8
	retq
.LBB0_11:                               # %func_ue_v.206
	.cfi_def_cfa %rbp, 16
	movq	%rbx, %rdi
	movl	%r15d, %esi
	movq	%r14, %rdx
	callq	ue_v.206
	addq	$8, %rsp
	popq	%rbx
	popq	%r14
	popq	%r15
	popq	%rbp
	.cfi_def_cfa %rsp, 8
	retq
.LBB0_12:                               # %func_ue_v.234
	.cfi_def_cfa %rbp, 16
	movq	%rbx, %rdi
	movl	%r15d, %esi
	movq	%r14, %rdx
	callq	ue_v.234
	addq	$8, %rsp
	popq	%rbx
	popq	%r14
	popq	%r15
	popq	%rbp
	.cfi_def_cfa %rsp, 8
	retq
.LBB0_13:                               # %func_ue_v.257
	.cfi_def_cfa %rbp, 16
	movq	%rbx, %rdi
	movl	%r15d, %esi
	movq	%r14, %rdx
	callq	ue_v.257
	addq	$8, %rsp
	popq	%rbx
	popq	%r14
	popq	%r15
	popq	%rbp
	.cfi_def_cfa %rsp, 8
	retq
.LBB0_14:                               # %func_ue_v.261
	.cfi_def_cfa %rbp, 16
	movq	%rbx, %rdi
	movl	%r15d, %esi
	movq	%r14, %rdx
	callq	ue_v.261
	addq	$8, %rsp
	popq	%rbx
	popq	%r14
	popq	%r15
	popq	%rbp
	.cfi_def_cfa %rsp, 8
	retq
.LBB0_15:                               # %func_ue_v.262
	.cfi_def_cfa %rbp, 16
	movq	%rbx, %rdi
	movl	%r15d, %esi
	movq	%r14, %rdx
	callq	ue_v.262
	addq	$8, %rsp
	popq	%rbx
	popq	%r14
	popq	%r15
	popq	%rbp
	.cfi_def_cfa %rsp, 8
	retq
.LBB0_16:                               # %func_ue_v.265
	.cfi_def_cfa %rbp, 16
	movq	%rbx, %rdi
	movl	%r15d, %esi
	movq	%r14, %rdx
	callq	ue_v.265
	addq	$8, %rsp
	popq	%rbx
	popq	%r14
	popq	%r15
	popq	%rbp
	.cfi_def_cfa %rsp, 8
	retq
.LBB0_17:                               # %ctrl0
	.cfi_def_cfa %rbp, 16
	cmpl	$1, %eax
	je	.LBB0_2
# %bb.18:                               # %ctrl1
	cmpl	$2, %eax
	je	.LBB0_3
# %bb.19:                               # %ctrl2
	cmpl	$3, %eax
	je	.LBB0_4
# %bb.20:                               # %ctrl3
	cmpl	$4, %eax
	je	.LBB0_5
# %bb.21:                               # %ctrl4
	cmpl	$5, %eax
	je	.LBB0_6
# %bb.22:                               # %ctrl5
	cmpl	$6, %eax
	je	.LBB0_7
# %bb.23:                               # %ctrl6
	cmpl	$7, %eax
	je	.LBB0_8
# %bb.24:                               # %ctrl7
	cmpl	$8, %eax
	je	.LBB0_9
# %bb.25:                               # %ctrl8
	cmpl	$9, %eax
	je	.LBB0_10
# %bb.26:                               # %ctrl9
	cmpl	$10, %eax
	je	.LBB0_11
# %bb.27:                               # %ctrl10
	cmpl	$11, %eax
	je	.LBB0_12
# %bb.28:                               # %ctrl11
	cmpl	$12, %eax
	je	.LBB0_13
# %bb.29:                               # %ctrl12
	cmpl	$13, %eax
	je	.LBB0_14
# %bb.30:                               # %ctrl13
	cmpl	$14, %eax
	je	.LBB0_15
	jmp	.LBB0_16
.Lfunc_end0:
	.size	ue_v, .Lfunc_end0-ue_v
	.cfi_endproc
                                        # -- End function
	.globl	ue_linfo                # -- Begin function ue_linfo
	.p2align	4, 0x90
	.type	ue_linfo,@function
ue_linfo:                               # @ue_linfo
	.cfi_startproc
# %bb.0:                                # %rand_bb
	pushq	%rbp
	.cfi_def_cfa_offset 16
	.cfi_offset %rbp, -16
	movq	%rsp, %rbp
	.cfi_def_cfa_register %rbp
	pushq	%r15
	pushq	%r14
	pushq	%r12
	pushq	%rbx
	.cfi_offset %rbx, -48
	.cfi_offset %r12, -40
	.cfi_offset %r14, -32
	.cfi_offset %r15, -24
	movq	%rcx, %r14
	movq	%rdx, %r15
	movl	%esi, %r12d
	movl	%edi, %ebx
	callq	get_urand
	cmpl	$0, %eax
	jne	.LBB1_17
# %bb.1:                                # %func_ue_linfo.5
	movl	%ebx, %edi
	movl	%r12d, %esi
	movq	%r15, %rdx
	movq	%r14, %rcx
	callq	ue_linfo.5
	popq	%rbx
	popq	%r12
	popq	%r14
	popq	%r15
	popq	%rbp
	.cfi_def_cfa %rsp, 8
	retq
.LBB1_2:                                # %func_ue_linfo.10
	.cfi_def_cfa %rbp, 16
	movl	%ebx, %edi
	movl	%r12d, %esi
	movq	%r15, %rdx
	movq	%r14, %rcx
	callq	ue_linfo.10
	popq	%rbx
	popq	%r12
	popq	%r14
	popq	%r15
	popq	%rbp
	.cfi_def_cfa %rsp, 8
	retq
.LBB1_3:                                # %func_ue_linfo.19
	.cfi_def_cfa %rbp, 16
	movl	%ebx, %edi
	movl	%r12d, %esi
	movq	%r15, %rdx
	movq	%r14, %rcx
	callq	ue_linfo.19
	popq	%rbx
	popq	%r12
	popq	%r14
	popq	%r15
	popq	%rbp
	.cfi_def_cfa %rsp, 8
	retq
.LBB1_4:                                # %func_ue_linfo.34
	.cfi_def_cfa %rbp, 16
	movl	%ebx, %edi
	movl	%r12d, %esi
	movq	%r15, %rdx
	movq	%r14, %rcx
	callq	ue_linfo.34
	popq	%rbx
	popq	%r12
	popq	%r14
	popq	%r15
	popq	%rbp
	.cfi_def_cfa %rsp, 8
	retq
.LBB1_5:                                # %func_ue_linfo.71
	.cfi_def_cfa %rbp, 16
	movl	%ebx, %edi
	movl	%r12d, %esi
	movq	%r15, %rdx
	movq	%r14, %rcx
	callq	ue_linfo.71
	popq	%rbx
	popq	%r12
	popq	%r14
	popq	%r15
	popq	%rbp
	.cfi_def_cfa %rsp, 8
	retq
.LBB1_6:                                # %func_ue_linfo.72
	.cfi_def_cfa %rbp, 16
	movl	%ebx, %edi
	movl	%r12d, %esi
	movq	%r15, %rdx
	movq	%r14, %rcx
	callq	ue_linfo.72
	popq	%rbx
	popq	%r12
	popq	%r14
	popq	%r15
	popq	%rbp
	.cfi_def_cfa %rsp, 8
	retq
.LBB1_7:                                # %func_ue_linfo.85
	.cfi_def_cfa %rbp, 16
	movl	%ebx, %edi
	movl	%r12d, %esi
	movq	%r15, %rdx
	movq	%r14, %rcx
	callq	ue_linfo.85
	popq	%rbx
	popq	%r12
	popq	%r14
	popq	%r15
	popq	%rbp
	.cfi_def_cfa %rsp, 8
	retq
.LBB1_8:                                # %func_ue_linfo.123
	.cfi_def_cfa %rbp, 16
	movl	%ebx, %edi
	movl	%r12d, %esi
	movq	%r15, %rdx
	movq	%r14, %rcx
	callq	ue_linfo.123
	popq	%rbx
	popq	%r12
	popq	%r14
	popq	%r15
	popq	%rbp
	.cfi_def_cfa %rsp, 8
	retq
.LBB1_9:                                # %func_ue_linfo.126
	.cfi_def_cfa %rbp, 16
	movl	%ebx, %edi
	movl	%r12d, %esi
	movq	%r15, %rdx
	movq	%r14, %rcx
	callq	ue_linfo.126
	popq	%rbx
	popq	%r12
	popq	%r14
	popq	%r15
	popq	%rbp
	.cfi_def_cfa %rsp, 8
	retq
.LBB1_10:                               # %func_ue_linfo.139
	.cfi_def_cfa %rbp, 16
	movl	%ebx, %edi
	movl	%r12d, %esi
	movq	%r15, %rdx
	movq	%r14, %rcx
	callq	ue_linfo.139
	popq	%rbx
	popq	%r12
	popq	%r14
	popq	%r15
	popq	%rbp
	.cfi_def_cfa %rsp, 8
	retq
.LBB1_11:                               # %func_ue_linfo.154
	.cfi_def_cfa %rbp, 16
	movl	%ebx, %edi
	movl	%r12d, %esi
	movq	%r15, %rdx
	movq	%r14, %rcx
	callq	ue_linfo.154
	popq	%rbx
	popq	%r12
	popq	%r14
	popq	%r15
	popq	%rbp
	.cfi_def_cfa %rsp, 8
	retq
.LBB1_12:                               # %func_ue_linfo.158
	.cfi_def_cfa %rbp, 16
	movl	%ebx, %edi
	movl	%r12d, %esi
	movq	%r15, %rdx
	movq	%r14, %rcx
	callq	ue_linfo.158
	popq	%rbx
	popq	%r12
	popq	%r14
	popq	%r15
	popq	%rbp
	.cfi_def_cfa %rsp, 8
	retq
.LBB1_13:                               # %func_ue_linfo.183
	.cfi_def_cfa %rbp, 16
	movl	%ebx, %edi
	movl	%r12d, %esi
	movq	%r15, %rdx
	movq	%r14, %rcx
	callq	ue_linfo.183
	popq	%rbx
	popq	%r12
	popq	%r14
	popq	%r15
	popq	%rbp
	.cfi_def_cfa %rsp, 8
	retq
.LBB1_14:                               # %func_ue_linfo.186
	.cfi_def_cfa %rbp, 16
	movl	%ebx, %edi
	movl	%r12d, %esi
	movq	%r15, %rdx
	movq	%r14, %rcx
	callq	ue_linfo.186
	popq	%rbx
	popq	%r12
	popq	%r14
	popq	%r15
	popq	%rbp
	.cfi_def_cfa %rsp, 8
	retq
.LBB1_15:                               # %func_ue_linfo.198
	.cfi_def_cfa %rbp, 16
	movl	%ebx, %edi
	movl	%r12d, %esi
	movq	%r15, %rdx
	movq	%r14, %rcx
	callq	ue_linfo.198
	popq	%rbx
	popq	%r12
	popq	%r14
	popq	%r15
	popq	%rbp
	.cfi_def_cfa %rsp, 8
	retq
.LBB1_16:                               # %func_ue_linfo.210
	.cfi_def_cfa %rbp, 16
	movl	%ebx, %edi
	movl	%r12d, %esi
	movq	%r15, %rdx
	movq	%r14, %rcx
	callq	ue_linfo.210
	popq	%rbx
	popq	%r12
	popq	%r14
	popq	%r15
	popq	%rbp
	.cfi_def_cfa %rsp, 8
	retq
.LBB1_17:                               # %ctrl0
	.cfi_def_cfa %rbp, 16
	cmpl	$1, %eax
	je	.LBB1_2
# %bb.18:                               # %ctrl1
	cmpl	$2, %eax
	je	.LBB1_3
# %bb.19:                               # %ctrl2
	cmpl	$3, %eax
	je	.LBB1_4
# %bb.20:                               # %ctrl3
	cmpl	$4, %eax
	je	.LBB1_5
# %bb.21:                               # %ctrl4
	cmpl	$5, %eax
	je	.LBB1_6
# %bb.22:                               # %ctrl5
	cmpl	$6, %eax
	je	.LBB1_7
# %bb.23:                               # %ctrl6
	cmpl	$7, %eax
	je	.LBB1_8
# %bb.24:                               # %ctrl7
	cmpl	$8, %eax
	je	.LBB1_9
# %bb.25:                               # %ctrl8
	cmpl	$9, %eax
	je	.LBB1_10
# %bb.26:                               # %ctrl9
	cmpl	$10, %eax
	je	.LBB1_11
# %bb.27:                               # %ctrl10
	cmpl	$11, %eax
	je	.LBB1_12
# %bb.28:                               # %ctrl11
	cmpl	$12, %eax
	je	.LBB1_13
# %bb.29:                               # %ctrl12
	cmpl	$13, %eax
	je	.LBB1_14
# %bb.30:                               # %ctrl13
	cmpl	$14, %eax
	je	.LBB1_15
	jmp	.LBB1_16
.Lfunc_end1:
	.size	ue_linfo, .Lfunc_end1-ue_linfo
	.cfi_endproc
                                        # -- End function
	.globl	writeSyntaxElement_UVLC # -- Begin function writeSyntaxElement_UVLC
	.p2align	4, 0x90
	.type	writeSyntaxElement_UVLC,@function
writeSyntaxElement_UVLC:                # @writeSyntaxElement_UVLC
	.cfi_startproc
# %bb.0:                                # %rand_bb
	pushq	%rbp
	.cfi_def_cfa_offset 16
	.cfi_offset %rbp, -16
	movq	%rsp, %rbp
	.cfi_def_cfa_register %rbp
	pushq	%r14
	pushq	%rbx
	.cfi_offset %rbx, -32
	.cfi_offset %r14, -24
	movq	%rsi, %r14
	movq	%rdi, %rbx
	callq	get_urand
	cmpl	$0, %eax
	jne	.LBB2_2
# %bb.1:                                # %func_writeSyntaxElement_UVLC.28
	movq	%rbx, %rdi
	movq	%r14, %rsi
	callq	writeSyntaxElement_UVLC.28
	popq	%rbx
	popq	%r14
	popq	%rbp
	.cfi_def_cfa %rsp, 8
	retq
.LBB2_2:                                # %func_writeSyntaxElement_UVLC.36
	.cfi_def_cfa %rbp, 16
	movq	%rbx, %rdi
	movq	%r14, %rsi
	callq	writeSyntaxElement_UVLC.36
	popq	%rbx
	popq	%r14
	popq	%rbp
	.cfi_def_cfa %rsp, 8
	retq
.Lfunc_end2:
	.size	writeSyntaxElement_UVLC, .Lfunc_end2-writeSyntaxElement_UVLC
	.cfi_endproc
                                        # -- End function
	.globl	se_v                    # -- Begin function se_v
	.p2align	4, 0x90
	.type	se_v,@function
se_v:                                   # @se_v
	.cfi_startproc
# %bb.0:                                # %rand_bb
	pushq	%rbp
	.cfi_def_cfa_offset 16
	.cfi_offset %rbp, -16
	movq	%rsp, %rbp
	.cfi_def_cfa_register %rbp
	pushq	%r15
	pushq	%r14
	pushq	%rbx
	pushq	%rax
	.cfi_offset %rbx, -40
	.cfi_offset %r14, -32
	.cfi_offset %r15, -24
	movq	%rdx, %r14
	movl	%esi, %r15d
	movq	%rdi, %rbx
	callq	get_urand
	cmpl	$0, %eax
	jne	.LBB3_17
# %bb.1:                                # %func_se_v.2
	movq	%rbx, %rdi
	movl	%r15d, %esi
	movq	%r14, %rdx
	callq	se_v.2
	addq	$8, %rsp
	popq	%rbx
	popq	%r14
	popq	%r15
	popq	%rbp
	.cfi_def_cfa %rsp, 8
	retq
.LBB3_2:                                # %func_se_v.39
	.cfi_def_cfa %rbp, 16
	movq	%rbx, %rdi
	movl	%r15d, %esi
	movq	%r14, %rdx
	callq	se_v.39
	addq	$8, %rsp
	popq	%rbx
	popq	%r14
	popq	%r15
	popq	%rbp
	.cfi_def_cfa %rsp, 8
	retq
.LBB3_3:                                # %func_se_v.52
	.cfi_def_cfa %rbp, 16
	movq	%rbx, %rdi
	movl	%r15d, %esi
	movq	%r14, %rdx
	callq	se_v.52
	addq	$8, %rsp
	popq	%rbx
	popq	%r14
	popq	%r15
	popq	%rbp
	.cfi_def_cfa %rsp, 8
	retq
.LBB3_4:                                # %func_se_v.78
	.cfi_def_cfa %rbp, 16
	movq	%rbx, %rdi
	movl	%r15d, %esi
	movq	%r14, %rdx
	callq	se_v.78
	addq	$8, %rsp
	popq	%rbx
	popq	%r14
	popq	%r15
	popq	%rbp
	.cfi_def_cfa %rsp, 8
	retq
.LBB3_5:                                # %func_se_v.96
	.cfi_def_cfa %rbp, 16
	movq	%rbx, %rdi
	movl	%r15d, %esi
	movq	%r14, %rdx
	callq	se_v.96
	addq	$8, %rsp
	popq	%rbx
	popq	%r14
	popq	%r15
	popq	%rbp
	.cfi_def_cfa %rsp, 8
	retq
.LBB3_6:                                # %func_se_v.127
	.cfi_def_cfa %rbp, 16
	movq	%rbx, %rdi
	movl	%r15d, %esi
	movq	%r14, %rdx
	callq	se_v.127
	addq	$8, %rsp
	popq	%rbx
	popq	%r14
	popq	%r15
	popq	%rbp
	.cfi_def_cfa %rsp, 8
	retq
.LBB3_7:                                # %func_se_v.163
	.cfi_def_cfa %rbp, 16
	movq	%rbx, %rdi
	movl	%r15d, %esi
	movq	%r14, %rdx
	callq	se_v.163
	addq	$8, %rsp
	popq	%rbx
	popq	%r14
	popq	%r15
	popq	%rbp
	.cfi_def_cfa %rsp, 8
	retq
.LBB3_8:                                # %func_se_v.188
	.cfi_def_cfa %rbp, 16
	movq	%rbx, %rdi
	movl	%r15d, %esi
	movq	%r14, %rdx
	callq	se_v.188
	addq	$8, %rsp
	popq	%rbx
	popq	%r14
	popq	%r15
	popq	%rbp
	.cfi_def_cfa %rsp, 8
	retq
.LBB3_9:                                # %func_se_v.194
	.cfi_def_cfa %rbp, 16
	movq	%rbx, %rdi
	movl	%r15d, %esi
	movq	%r14, %rdx
	callq	se_v.194
	addq	$8, %rsp
	popq	%rbx
	popq	%r14
	popq	%r15
	popq	%rbp
	.cfi_def_cfa %rsp, 8
	retq
.LBB3_10:                               # %func_se_v.197
	.cfi_def_cfa %rbp, 16
	movq	%rbx, %rdi
	movl	%r15d, %esi
	movq	%r14, %rdx
	callq	se_v.197
	addq	$8, %rsp
	popq	%rbx
	popq	%r14
	popq	%r15
	popq	%rbp
	.cfi_def_cfa %rsp, 8
	retq
.LBB3_11:                               # %func_se_v.201
	.cfi_def_cfa %rbp, 16
	movq	%rbx, %rdi
	movl	%r15d, %esi
	movq	%r14, %rdx
	callq	se_v.201
	addq	$8, %rsp
	popq	%rbx
	popq	%r14
	popq	%r15
	popq	%rbp
	.cfi_def_cfa %rsp, 8
	retq
.LBB3_12:                               # %func_se_v.224
	.cfi_def_cfa %rbp, 16
	movq	%rbx, %rdi
	movl	%r15d, %esi
	movq	%r14, %rdx
	callq	se_v.224
	addq	$8, %rsp
	popq	%rbx
	popq	%r14
	popq	%r15
	popq	%rbp
	.cfi_def_cfa %rsp, 8
	retq
.LBB3_13:                               # %func_se_v.227
	.cfi_def_cfa %rbp, 16
	movq	%rbx, %rdi
	movl	%r15d, %esi
	movq	%r14, %rdx
	callq	se_v.227
	addq	$8, %rsp
	popq	%rbx
	popq	%r14
	popq	%r15
	popq	%rbp
	.cfi_def_cfa %rsp, 8
	retq
.LBB3_14:                               # %func_se_v.238
	.cfi_def_cfa %rbp, 16
	movq	%rbx, %rdi
	movl	%r15d, %esi
	movq	%r14, %rdx
	callq	se_v.238
	addq	$8, %rsp
	popq	%rbx
	popq	%r14
	popq	%r15
	popq	%rbp
	.cfi_def_cfa %rsp, 8
	retq
.LBB3_15:                               # %func_se_v.240
	.cfi_def_cfa %rbp, 16
	movq	%rbx, %rdi
	movl	%r15d, %esi
	movq	%r14, %rdx
	callq	se_v.240
	addq	$8, %rsp
	popq	%rbx
	popq	%r14
	popq	%r15
	popq	%rbp
	.cfi_def_cfa %rsp, 8
	retq
.LBB3_16:                               # %func_se_v.254
	.cfi_def_cfa %rbp, 16
	movq	%rbx, %rdi
	movl	%r15d, %esi
	movq	%r14, %rdx
	callq	se_v.254
	addq	$8, %rsp
	popq	%rbx
	popq	%r14
	popq	%r15
	popq	%rbp
	.cfi_def_cfa %rsp, 8
	retq
.LBB3_17:                               # %ctrl0
	.cfi_def_cfa %rbp, 16
	cmpl	$1, %eax
	je	.LBB3_2
# %bb.18:                               # %ctrl1
	cmpl	$2, %eax
	je	.LBB3_3
# %bb.19:                               # %ctrl2
	cmpl	$3, %eax
	je	.LBB3_4
# %bb.20:                               # %ctrl3
	cmpl	$4, %eax
	je	.LBB3_5
# %bb.21:                               # %ctrl4
	cmpl	$5, %eax
	je	.LBB3_6
# %bb.22:                               # %ctrl5
	cmpl	$6, %eax
	je	.LBB3_7
# %bb.23:                               # %ctrl6
	cmpl	$7, %eax
	je	.LBB3_8
# %bb.24:                               # %ctrl7
	cmpl	$8, %eax
	je	.LBB3_9
# %bb.25:                               # %ctrl8
	cmpl	$9, %eax
	je	.LBB3_10
# %bb.26:                               # %ctrl9
	cmpl	$10, %eax
	je	.LBB3_11
# %bb.27:                               # %ctrl10
	cmpl	$11, %eax
	je	.LBB3_12
# %bb.28:                               # %ctrl11
	cmpl	$12, %eax
	je	.LBB3_13
# %bb.29:                               # %ctrl12
	cmpl	$13, %eax
	je	.LBB3_14
# %bb.30:                               # %ctrl13
	cmpl	$14, %eax
	je	.LBB3_15
	jmp	.LBB3_16
.Lfunc_end3:
	.size	se_v, .Lfunc_end3-se_v
	.cfi_endproc
                                        # -- End function
	.globl	se_linfo                # -- Begin function se_linfo
	.p2align	4, 0x90
	.type	se_linfo,@function
se_linfo:                               # @se_linfo
	.cfi_startproc
# %bb.0:                                # %rand_bb
	pushq	%rbp
	.cfi_def_cfa_offset 16
	.cfi_offset %rbp, -16
	movq	%rsp, %rbp
	.cfi_def_cfa_register %rbp
	pushq	%r15
	pushq	%r14
	pushq	%r12
	pushq	%rbx
	.cfi_offset %rbx, -48
	.cfi_offset %r12, -40
	.cfi_offset %r14, -32
	.cfi_offset %r15, -24
	movq	%rcx, %r14
	movq	%rdx, %r15
	movl	%esi, %r12d
	movl	%edi, %ebx
	callq	get_urand
	cmpl	$0, %eax
	jne	.LBB4_17
# %bb.1:                                # %func_se_linfo.14
	movl	%ebx, %edi
	movl	%r12d, %esi
	movq	%r15, %rdx
	movq	%r14, %rcx
	callq	se_linfo.14
	popq	%rbx
	popq	%r12
	popq	%r14
	popq	%r15
	popq	%rbp
	.cfi_def_cfa %rsp, 8
	retq
.LBB4_2:                                # %func_se_linfo.53
	.cfi_def_cfa %rbp, 16
	movl	%ebx, %edi
	movl	%r12d, %esi
	movq	%r15, %rdx
	movq	%r14, %rcx
	callq	se_linfo.53
	popq	%rbx
	popq	%r12
	popq	%r14
	popq	%r15
	popq	%rbp
	.cfi_def_cfa %rsp, 8
	retq
.LBB4_3:                                # %func_se_linfo.62
	.cfi_def_cfa %rbp, 16
	movl	%ebx, %edi
	movl	%r12d, %esi
	movq	%r15, %rdx
	movq	%r14, %rcx
	callq	se_linfo.62
	popq	%rbx
	popq	%r12
	popq	%r14
	popq	%r15
	popq	%rbp
	.cfi_def_cfa %rsp, 8
	retq
.LBB4_4:                                # %func_se_linfo.79
	.cfi_def_cfa %rbp, 16
	movl	%ebx, %edi
	movl	%r12d, %esi
	movq	%r15, %rdx
	movq	%r14, %rcx
	callq	se_linfo.79
	popq	%rbx
	popq	%r12
	popq	%r14
	popq	%r15
	popq	%rbp
	.cfi_def_cfa %rsp, 8
	retq
.LBB4_5:                                # %func_se_linfo.106
	.cfi_def_cfa %rbp, 16
	movl	%ebx, %edi
	movl	%r12d, %esi
	movq	%r15, %rdx
	movq	%r14, %rcx
	callq	se_linfo.106
	popq	%rbx
	popq	%r12
	popq	%r14
	popq	%r15
	popq	%rbp
	.cfi_def_cfa %rsp, 8
	retq
.LBB4_6:                                # %func_se_linfo.122
	.cfi_def_cfa %rbp, 16
	movl	%ebx, %edi
	movl	%r12d, %esi
	movq	%r15, %rdx
	movq	%r14, %rcx
	callq	se_linfo.122
	popq	%rbx
	popq	%r12
	popq	%r14
	popq	%r15
	popq	%rbp
	.cfi_def_cfa %rsp, 8
	retq
.LBB4_7:                                # %func_se_linfo.153
	.cfi_def_cfa %rbp, 16
	movl	%ebx, %edi
	movl	%r12d, %esi
	movq	%r15, %rdx
	movq	%r14, %rcx
	callq	se_linfo.153
	popq	%rbx
	popq	%r12
	popq	%r14
	popq	%r15
	popq	%rbp
	.cfi_def_cfa %rsp, 8
	retq
.LBB4_8:                                # %func_se_linfo.165
	.cfi_def_cfa %rbp, 16
	movl	%ebx, %edi
	movl	%r12d, %esi
	movq	%r15, %rdx
	movq	%r14, %rcx
	callq	se_linfo.165
	popq	%rbx
	popq	%r12
	popq	%r14
	popq	%r15
	popq	%rbp
	.cfi_def_cfa %rsp, 8
	retq
.LBB4_9:                                # %func_se_linfo.189
	.cfi_def_cfa %rbp, 16
	movl	%ebx, %edi
	movl	%r12d, %esi
	movq	%r15, %rdx
	movq	%r14, %rcx
	callq	se_linfo.189
	popq	%rbx
	popq	%r12
	popq	%r14
	popq	%r15
	popq	%rbp
	.cfi_def_cfa %rsp, 8
	retq
.LBB4_10:                               # %func_se_linfo.208
	.cfi_def_cfa %rbp, 16
	movl	%ebx, %edi
	movl	%r12d, %esi
	movq	%r15, %rdx
	movq	%r14, %rcx
	callq	se_linfo.208
	popq	%rbx
	popq	%r12
	popq	%r14
	popq	%r15
	popq	%rbp
	.cfi_def_cfa %rsp, 8
	retq
.LBB4_11:                               # %func_se_linfo.226
	.cfi_def_cfa %rbp, 16
	movl	%ebx, %edi
	movl	%r12d, %esi
	movq	%r15, %rdx
	movq	%r14, %rcx
	callq	se_linfo.226
	popq	%rbx
	popq	%r12
	popq	%r14
	popq	%r15
	popq	%rbp
	.cfi_def_cfa %rsp, 8
	retq
.LBB4_12:                               # %func_se_linfo.252
	.cfi_def_cfa %rbp, 16
	movl	%ebx, %edi
	movl	%r12d, %esi
	movq	%r15, %rdx
	movq	%r14, %rcx
	callq	se_linfo.252
	popq	%rbx
	popq	%r12
	popq	%r14
	popq	%r15
	popq	%rbp
	.cfi_def_cfa %rsp, 8
	retq
.LBB4_13:                               # %func_se_linfo.259
	.cfi_def_cfa %rbp, 16
	movl	%ebx, %edi
	movl	%r12d, %esi
	movq	%r15, %rdx
	movq	%r14, %rcx
	callq	se_linfo.259
	popq	%rbx
	popq	%r12
	popq	%r14
	popq	%r15
	popq	%rbp
	.cfi_def_cfa %rsp, 8
	retq
.LBB4_14:                               # %func_se_linfo.270
	.cfi_def_cfa %rbp, 16
	movl	%ebx, %edi
	movl	%r12d, %esi
	movq	%r15, %rdx
	movq	%r14, %rcx
	callq	se_linfo.270
	popq	%rbx
	popq	%r12
	popq	%r14
	popq	%r15
	popq	%rbp
	.cfi_def_cfa %rsp, 8
	retq
.LBB4_15:                               # %func_se_linfo.271
	.cfi_def_cfa %rbp, 16
	movl	%ebx, %edi
	movl	%r12d, %esi
	movq	%r15, %rdx
	movq	%r14, %rcx
	callq	se_linfo.271
	popq	%rbx
	popq	%r12
	popq	%r14
	popq	%r15
	popq	%rbp
	.cfi_def_cfa %rsp, 8
	retq
.LBB4_16:                               # %func_se_linfo.278
	.cfi_def_cfa %rbp, 16
	movl	%ebx, %edi
	movl	%r12d, %esi
	movq	%r15, %rdx
	movq	%r14, %rcx
	callq	se_linfo.278
	popq	%rbx
	popq	%r12
	popq	%r14
	popq	%r15
	popq	%rbp
	.cfi_def_cfa %rsp, 8
	retq
.LBB4_17:                               # %ctrl0
	.cfi_def_cfa %rbp, 16
	cmpl	$1, %eax
	je	.LBB4_2
# %bb.18:                               # %ctrl1
	cmpl	$2, %eax
	je	.LBB4_3
# %bb.19:                               # %ctrl2
	cmpl	$3, %eax
	je	.LBB4_4
# %bb.20:                               # %ctrl3
	cmpl	$4, %eax
	je	.LBB4_5
# %bb.21:                               # %ctrl4
	cmpl	$5, %eax
	je	.LBB4_6
# %bb.22:                               # %ctrl5
	cmpl	$6, %eax
	je	.LBB4_7
# %bb.23:                               # %ctrl6
	cmpl	$7, %eax
	je	.LBB4_8
# %bb.24:                               # %ctrl7
	cmpl	$8, %eax
	je	.LBB4_9
# %bb.25:                               # %ctrl8
	cmpl	$9, %eax
	je	.LBB4_10
# %bb.26:                               # %ctrl9
	cmpl	$10, %eax
	je	.LBB4_11
# %bb.27:                               # %ctrl10
	cmpl	$11, %eax
	je	.LBB4_12
# %bb.28:                               # %ctrl11
	cmpl	$12, %eax
	je	.LBB4_13
# %bb.29:                               # %ctrl12
	cmpl	$13, %eax
	je	.LBB4_14
# %bb.30:                               # %ctrl13
	cmpl	$14, %eax
	je	.LBB4_15
	jmp	.LBB4_16
.Lfunc_end4:
	.size	se_linfo, .Lfunc_end4-se_linfo
	.cfi_endproc
                                        # -- End function
	.globl	u_1                     # -- Begin function u_1
	.p2align	4, 0x90
	.type	u_1,@function
u_1:                                    # @u_1
	.cfi_startproc
# %bb.0:                                # %rand_bb
	pushq	%rbp
	.cfi_def_cfa_offset 16
	.cfi_offset %rbp, -16
	movq	%rsp, %rbp
	.cfi_def_cfa_register %rbp
	pushq	%r15
	pushq	%r14
	pushq	%rbx
	pushq	%rax
	.cfi_offset %rbx, -40
	.cfi_offset %r14, -32
	.cfi_offset %r15, -24
	movq	%rdx, %r14
	movl	%esi, %r15d
	movq	%rdi, %rbx
	callq	get_urand
	cmpl	$0, %eax
	jne	.LBB5_17
# %bb.1:                                # %func_u_1.11
	movq	%rbx, %rdi
	movl	%r15d, %esi
	movq	%r14, %rdx
	callq	u_1.11
	addq	$8, %rsp
	popq	%rbx
	popq	%r14
	popq	%r15
	popq	%rbp
	.cfi_def_cfa %rsp, 8
	retq
.LBB5_2:                                # %func_u_1.13
	.cfi_def_cfa %rbp, 16
	movq	%rbx, %rdi
	movl	%r15d, %esi
	movq	%r14, %rdx
	callq	u_1.13
	addq	$8, %rsp
	popq	%rbx
	popq	%r14
	popq	%r15
	popq	%rbp
	.cfi_def_cfa %rsp, 8
	retq
.LBB5_3:                                # %func_u_1.26
	.cfi_def_cfa %rbp, 16
	movq	%rbx, %rdi
	movl	%r15d, %esi
	movq	%r14, %rdx
	callq	u_1.26
	addq	$8, %rsp
	popq	%rbx
	popq	%r14
	popq	%r15
	popq	%rbp
	.cfi_def_cfa %rsp, 8
	retq
.LBB5_4:                                # %func_u_1.94
	.cfi_def_cfa %rbp, 16
	movq	%rbx, %rdi
	movl	%r15d, %esi
	movq	%r14, %rdx
	callq	u_1.94
	addq	$8, %rsp
	popq	%rbx
	popq	%r14
	popq	%r15
	popq	%rbp
	.cfi_def_cfa %rsp, 8
	retq
.LBB5_5:                                # %func_u_1.109
	.cfi_def_cfa %rbp, 16
	movq	%rbx, %rdi
	movl	%r15d, %esi
	movq	%r14, %rdx
	callq	u_1.109
	addq	$8, %rsp
	popq	%rbx
	popq	%r14
	popq	%r15
	popq	%rbp
	.cfi_def_cfa %rsp, 8
	retq
.LBB5_6:                                # %func_u_1.121
	.cfi_def_cfa %rbp, 16
	movq	%rbx, %rdi
	movl	%r15d, %esi
	movq	%r14, %rdx
	callq	u_1.121
	addq	$8, %rsp
	popq	%rbx
	popq	%r14
	popq	%r15
	popq	%rbp
	.cfi_def_cfa %rsp, 8
	retq
.LBB5_7:                                # %func_u_1.136
	.cfi_def_cfa %rbp, 16
	movq	%rbx, %rdi
	movl	%r15d, %esi
	movq	%r14, %rdx
	callq	u_1.136
	addq	$8, %rsp
	popq	%rbx
	popq	%r14
	popq	%r15
	popq	%rbp
	.cfi_def_cfa %rsp, 8
	retq
.LBB5_8:                                # %func_u_1.140
	.cfi_def_cfa %rbp, 16
	movq	%rbx, %rdi
	movl	%r15d, %esi
	movq	%r14, %rdx
	callq	u_1.140
	addq	$8, %rsp
	popq	%rbx
	popq	%r14
	popq	%r15
	popq	%rbp
	.cfi_def_cfa %rsp, 8
	retq
.LBB5_9:                                # %func_u_1.174
	.cfi_def_cfa %rbp, 16
	movq	%rbx, %rdi
	movl	%r15d, %esi
	movq	%r14, %rdx
	callq	u_1.174
	addq	$8, %rsp
	popq	%rbx
	popq	%r14
	popq	%r15
	popq	%rbp
	.cfi_def_cfa %rsp, 8
	retq
.LBB5_10:                               # %func_u_1.184
	.cfi_def_cfa %rbp, 16
	movq	%rbx, %rdi
	movl	%r15d, %esi
	movq	%r14, %rdx
	callq	u_1.184
	addq	$8, %rsp
	popq	%rbx
	popq	%r14
	popq	%r15
	popq	%rbp
	.cfi_def_cfa %rsp, 8
	retq
.LBB5_11:                               # %func_u_1.187
	.cfi_def_cfa %rbp, 16
	movq	%rbx, %rdi
	movl	%r15d, %esi
	movq	%r14, %rdx
	callq	u_1.187
	addq	$8, %rsp
	popq	%rbx
	popq	%r14
	popq	%r15
	popq	%rbp
	.cfi_def_cfa %rsp, 8
	retq
.LBB5_12:                               # %func_u_1.190
	.cfi_def_cfa %rbp, 16
	movq	%rbx, %rdi
	movl	%r15d, %esi
	movq	%r14, %rdx
	callq	u_1.190
	addq	$8, %rsp
	popq	%rbx
	popq	%r14
	popq	%r15
	popq	%rbp
	.cfi_def_cfa %rsp, 8
	retq
.LBB5_13:                               # %func_u_1.204
	.cfi_def_cfa %rbp, 16
	movq	%rbx, %rdi
	movl	%r15d, %esi
	movq	%r14, %rdx
	callq	u_1.204
	addq	$8, %rsp
	popq	%rbx
	popq	%r14
	popq	%r15
	popq	%rbp
	.cfi_def_cfa %rsp, 8
	retq
.LBB5_14:                               # %func_u_1.209
	.cfi_def_cfa %rbp, 16
	movq	%rbx, %rdi
	movl	%r15d, %esi
	movq	%r14, %rdx
	callq	u_1.209
	addq	$8, %rsp
	popq	%rbx
	popq	%r14
	popq	%r15
	popq	%rbp
	.cfi_def_cfa %rsp, 8
	retq
.LBB5_15:                               # %func_u_1.222
	.cfi_def_cfa %rbp, 16
	movq	%rbx, %rdi
	movl	%r15d, %esi
	movq	%r14, %rdx
	callq	u_1.222
	addq	$8, %rsp
	popq	%rbx
	popq	%r14
	popq	%r15
	popq	%rbp
	.cfi_def_cfa %rsp, 8
	retq
.LBB5_16:                               # %func_u_1.241
	.cfi_def_cfa %rbp, 16
	movq	%rbx, %rdi
	movl	%r15d, %esi
	movq	%r14, %rdx
	callq	u_1.241
	addq	$8, %rsp
	popq	%rbx
	popq	%r14
	popq	%r15
	popq	%rbp
	.cfi_def_cfa %rsp, 8
	retq
.LBB5_17:                               # %ctrl0
	.cfi_def_cfa %rbp, 16
	cmpl	$1, %eax
	je	.LBB5_2
# %bb.18:                               # %ctrl1
	cmpl	$2, %eax
	je	.LBB5_3
# %bb.19:                               # %ctrl2
	cmpl	$3, %eax
	je	.LBB5_4
# %bb.20:                               # %ctrl3
	cmpl	$4, %eax
	je	.LBB5_5
# %bb.21:                               # %ctrl4
	cmpl	$5, %eax
	je	.LBB5_6
# %bb.22:                               # %ctrl5
	cmpl	$6, %eax
	je	.LBB5_7
# %bb.23:                               # %ctrl6
	cmpl	$7, %eax
	je	.LBB5_8
# %bb.24:                               # %ctrl7
	cmpl	$8, %eax
	je	.LBB5_9
# %bb.25:                               # %ctrl8
	cmpl	$9, %eax
	je	.LBB5_10
# %bb.26:                               # %ctrl9
	cmpl	$10, %eax
	je	.LBB5_11
# %bb.27:                               # %ctrl10
	cmpl	$11, %eax
	je	.LBB5_12
# %bb.28:                               # %ctrl11
	cmpl	$12, %eax
	je	.LBB5_13
# %bb.29:                               # %ctrl12
	cmpl	$13, %eax
	je	.LBB5_14
# %bb.30:                               # %ctrl13
	cmpl	$14, %eax
	je	.LBB5_15
	jmp	.LBB5_16
.Lfunc_end5:
	.size	u_1, .Lfunc_end5-u_1
	.cfi_endproc
                                        # -- End function
	.globl	writeSyntaxElement_fixed # -- Begin function writeSyntaxElement_fixed
	.p2align	4, 0x90
	.type	writeSyntaxElement_fixed,@function
writeSyntaxElement_fixed:               # @writeSyntaxElement_fixed
	.cfi_startproc
# %bb.0:                                # %rand_bb
	pushq	%rbp
	.cfi_def_cfa_offset 16
	.cfi_offset %rbp, -16
	movq	%rsp, %rbp
	.cfi_def_cfa_register %rbp
	pushq	%r14
	pushq	%rbx
	.cfi_offset %rbx, -32
	.cfi_offset %r14, -24
	movq	%rsi, %r14
	movq	%rdi, %rbx
	callq	get_urand
	cmpl	$0, %eax
	jne	.LBB6_2
# %bb.1:                                # %func_writeSyntaxElement_fixed.25
	movq	%rbx, %rdi
	movq	%r14, %rsi
	callq	writeSyntaxElement_fixed.25
	popq	%rbx
	popq	%r14
	popq	%rbp
	.cfi_def_cfa %rsp, 8
	retq
.LBB6_2:                                # %func_writeSyntaxElement_fixed.46
	.cfi_def_cfa %rbp, 16
	movq	%rbx, %rdi
	movq	%r14, %rsi
	callq	writeSyntaxElement_fixed.46
	popq	%rbx
	popq	%r14
	popq	%rbp
	.cfi_def_cfa %rsp, 8
	retq
.Lfunc_end6:
	.size	writeSyntaxElement_fixed, .Lfunc_end6-writeSyntaxElement_fixed
	.cfi_endproc
                                        # -- End function
	.globl	u_v                     # -- Begin function u_v
	.p2align	4, 0x90
	.type	u_v,@function
u_v:                                    # @u_v
	.cfi_startproc
# %bb.0:                                # %rand_bb
	pushq	%rbp
	.cfi_def_cfa_offset 16
	.cfi_offset %rbp, -16
	movq	%rsp, %rbp
	.cfi_def_cfa_register %rbp
	pushq	%r15
	pushq	%r14
	pushq	%r12
	pushq	%rbx
	.cfi_offset %rbx, -48
	.cfi_offset %r12, -40
	.cfi_offset %r14, -32
	.cfi_offset %r15, -24
	movq	%rcx, %r14
	movl	%edx, %r15d
	movq	%rsi, %r12
	movl	%edi, %ebx
	callq	get_urand
	cmpl	$0, %eax
	jne	.LBB7_17
# %bb.1:                                # %func_u_v.24
	movl	%ebx, %edi
	movq	%r12, %rsi
	movl	%r15d, %edx
	movq	%r14, %rcx
	callq	u_v.24
	popq	%rbx
	popq	%r12
	popq	%r14
	popq	%r15
	popq	%rbp
	.cfi_def_cfa %rsp, 8
	retq
.LBB7_2:                                # %func_u_v.29
	.cfi_def_cfa %rbp, 16
	movl	%ebx, %edi
	movq	%r12, %rsi
	movl	%r15d, %edx
	movq	%r14, %rcx
	callq	u_v.29
	popq	%rbx
	popq	%r12
	popq	%r14
	popq	%r15
	popq	%rbp
	.cfi_def_cfa %rsp, 8
	retq
.LBB7_3:                                # %func_u_v.61
	.cfi_def_cfa %rbp, 16
	movl	%ebx, %edi
	movq	%r12, %rsi
	movl	%r15d, %edx
	movq	%r14, %rcx
	callq	u_v.61
	popq	%rbx
	popq	%r12
	popq	%r14
	popq	%r15
	popq	%rbp
	.cfi_def_cfa %rsp, 8
	retq
.LBB7_4:                                # %func_u_v.63
	.cfi_def_cfa %rbp, 16
	movl	%ebx, %edi
	movq	%r12, %rsi
	movl	%r15d, %edx
	movq	%r14, %rcx
	callq	u_v.63
	popq	%rbx
	popq	%r12
	popq	%r14
	popq	%r15
	popq	%rbp
	.cfi_def_cfa %rsp, 8
	retq
.LBB7_5:                                # %func_u_v.66
	.cfi_def_cfa %rbp, 16
	movl	%ebx, %edi
	movq	%r12, %rsi
	movl	%r15d, %edx
	movq	%r14, %rcx
	callq	u_v.66
	popq	%rbx
	popq	%r12
	popq	%r14
	popq	%r15
	popq	%rbp
	.cfi_def_cfa %rsp, 8
	retq
.LBB7_6:                                # %func_u_v.90
	.cfi_def_cfa %rbp, 16
	movl	%ebx, %edi
	movq	%r12, %rsi
	movl	%r15d, %edx
	movq	%r14, %rcx
	callq	u_v.90
	popq	%rbx
	popq	%r12
	popq	%r14
	popq	%r15
	popq	%rbp
	.cfi_def_cfa %rsp, 8
	retq
.LBB7_7:                                # %func_u_v.91
	.cfi_def_cfa %rbp, 16
	movl	%ebx, %edi
	movq	%r12, %rsi
	movl	%r15d, %edx
	movq	%r14, %rcx
	callq	u_v.91
	popq	%rbx
	popq	%r12
	popq	%r14
	popq	%r15
	popq	%rbp
	.cfi_def_cfa %rsp, 8
	retq
.LBB7_8:                                # %func_u_v.103
	.cfi_def_cfa %rbp, 16
	movl	%ebx, %edi
	movq	%r12, %rsi
	movl	%r15d, %edx
	movq	%r14, %rcx
	callq	u_v.103
	popq	%rbx
	popq	%r12
	popq	%r14
	popq	%r15
	popq	%rbp
	.cfi_def_cfa %rsp, 8
	retq
.LBB7_9:                                # %func_u_v.112
	.cfi_def_cfa %rbp, 16
	movl	%ebx, %edi
	movq	%r12, %rsi
	movl	%r15d, %edx
	movq	%r14, %rcx
	callq	u_v.112
	popq	%rbx
	popq	%r12
	popq	%r14
	popq	%r15
	popq	%rbp
	.cfi_def_cfa %rsp, 8
	retq
.LBB7_10:                               # %func_u_v.113
	.cfi_def_cfa %rbp, 16
	movl	%ebx, %edi
	movq	%r12, %rsi
	movl	%r15d, %edx
	movq	%r14, %rcx
	callq	u_v.113
	popq	%rbx
	popq	%r12
	popq	%r14
	popq	%r15
	popq	%rbp
	.cfi_def_cfa %rsp, 8
	retq
.LBB7_11:                               # %func_u_v.128
	.cfi_def_cfa %rbp, 16
	movl	%ebx, %edi
	movq	%r12, %rsi
	movl	%r15d, %edx
	movq	%r14, %rcx
	callq	u_v.128
	popq	%rbx
	popq	%r12
	popq	%r14
	popq	%r15
	popq	%rbp
	.cfi_def_cfa %rsp, 8
	retq
.LBB7_12:                               # %func_u_v.137
	.cfi_def_cfa %rbp, 16
	movl	%ebx, %edi
	movq	%r12, %rsi
	movl	%r15d, %edx
	movq	%r14, %rcx
	callq	u_v.137
	popq	%rbx
	popq	%r12
	popq	%r14
	popq	%r15
	popq	%rbp
	.cfi_def_cfa %rsp, 8
	retq
.LBB7_13:                               # %func_u_v.205
	.cfi_def_cfa %rbp, 16
	movl	%ebx, %edi
	movq	%r12, %rsi
	movl	%r15d, %edx
	movq	%r14, %rcx
	callq	u_v.205
	popq	%rbx
	popq	%r12
	popq	%r14
	popq	%r15
	popq	%rbp
	.cfi_def_cfa %rsp, 8
	retq
.LBB7_14:                               # %func_u_v.219
	.cfi_def_cfa %rbp, 16
	movl	%ebx, %edi
	movq	%r12, %rsi
	movl	%r15d, %edx
	movq	%r14, %rcx
	callq	u_v.219
	popq	%rbx
	popq	%r12
	popq	%r14
	popq	%r15
	popq	%rbp
	.cfi_def_cfa %rsp, 8
	retq
.LBB7_15:                               # %func_u_v.258
	.cfi_def_cfa %rbp, 16
	movl	%ebx, %edi
	movq	%r12, %rsi
	movl	%r15d, %edx
	movq	%r14, %rcx
	callq	u_v.258
	popq	%rbx
	popq	%r12
	popq	%r14
	popq	%r15
	popq	%rbp
	.cfi_def_cfa %rsp, 8
	retq
.LBB7_16:                               # %func_u_v.260
	.cfi_def_cfa %rbp, 16
	movl	%ebx, %edi
	movq	%r12, %rsi
	movl	%r15d, %edx
	movq	%r14, %rcx
	callq	u_v.260
	popq	%rbx
	popq	%r12
	popq	%r14
	popq	%r15
	popq	%rbp
	.cfi_def_cfa %rsp, 8
	retq
.LBB7_17:                               # %ctrl0
	.cfi_def_cfa %rbp, 16
	cmpl	$1, %eax
	je	.LBB7_2
# %bb.18:                               # %ctrl1
	cmpl	$2, %eax
	je	.LBB7_3
# %bb.19:                               # %ctrl2
	cmpl	$3, %eax
	je	.LBB7_4
# %bb.20:                               # %ctrl3
	cmpl	$4, %eax
	je	.LBB7_5
# %bb.21:                               # %ctrl4
	cmpl	$5, %eax
	je	.LBB7_6
# %bb.22:                               # %ctrl5
	cmpl	$6, %eax
	je	.LBB7_7
# %bb.23:                               # %ctrl6
	cmpl	$7, %eax
	je	.LBB7_8
# %bb.24:                               # %ctrl7
	cmpl	$8, %eax
	je	.LBB7_9
# %bb.25:                               # %ctrl8
	cmpl	$9, %eax
	je	.LBB7_10
# %bb.26:                               # %ctrl9
	cmpl	$10, %eax
	je	.LBB7_11
# %bb.27:                               # %ctrl10
	cmpl	$11, %eax
	je	.LBB7_12
# %bb.28:                               # %ctrl11
	cmpl	$12, %eax
	je	.LBB7_13
# %bb.29:                               # %ctrl12
	cmpl	$13, %eax
	je	.LBB7_14
# %bb.30:                               # %ctrl13
	cmpl	$14, %eax
	je	.LBB7_15
	jmp	.LBB7_16
.Lfunc_end7:
	.size	u_v, .Lfunc_end7-u_v
	.cfi_endproc
                                        # -- End function
	.globl	cbp_linfo_intra         # -- Begin function cbp_linfo_intra
	.p2align	4, 0x90
	.type	cbp_linfo_intra,@function
cbp_linfo_intra:                        # @cbp_linfo_intra
	.cfi_startproc
# %bb.0:                                # %rand_bb
	pushq	%rbp
	.cfi_def_cfa_offset 16
	.cfi_offset %rbp, -16
	movq	%rsp, %rbp
	.cfi_def_cfa_register %rbp
	pushq	%r15
	pushq	%r14
	pushq	%r12
	pushq	%rbx
	.cfi_offset %rbx, -48
	.cfi_offset %r12, -40
	.cfi_offset %r14, -32
	.cfi_offset %r15, -24
	movq	%rcx, %r14
	movq	%rdx, %r15
	movl	%esi, %r12d
	movl	%edi, %ebx
	callq	get_urand
	cmpl	$0, %eax
	jne	.LBB8_17
# %bb.1:                                # %func_cbp_linfo_intra.40
	movl	%ebx, %edi
	movl	%r12d, %esi
	movq	%r15, %rdx
	movq	%r14, %rcx
	callq	cbp_linfo_intra.40
	popq	%rbx
	popq	%r12
	popq	%r14
	popq	%r15
	popq	%rbp
	.cfi_def_cfa %rsp, 8
	retq
.LBB8_2:                                # %func_cbp_linfo_intra.48
	.cfi_def_cfa %rbp, 16
	movl	%ebx, %edi
	movl	%r12d, %esi
	movq	%r15, %rdx
	movq	%r14, %rcx
	callq	cbp_linfo_intra.48
	popq	%rbx
	popq	%r12
	popq	%r14
	popq	%r15
	popq	%rbp
	.cfi_def_cfa %rsp, 8
	retq
.LBB8_3:                                # %func_cbp_linfo_intra.64
	.cfi_def_cfa %rbp, 16
	movl	%ebx, %edi
	movl	%r12d, %esi
	movq	%r15, %rdx
	movq	%r14, %rcx
	callq	cbp_linfo_intra.64
	popq	%rbx
	popq	%r12
	popq	%r14
	popq	%r15
	popq	%rbp
	.cfi_def_cfa %rsp, 8
	retq
.LBB8_4:                                # %func_cbp_linfo_intra.69
	.cfi_def_cfa %rbp, 16
	movl	%ebx, %edi
	movl	%r12d, %esi
	movq	%r15, %rdx
	movq	%r14, %rcx
	callq	cbp_linfo_intra.69
	popq	%rbx
	popq	%r12
	popq	%r14
	popq	%r15
	popq	%rbp
	.cfi_def_cfa %rsp, 8
	retq
.LBB8_5:                                # %func_cbp_linfo_intra.87
	.cfi_def_cfa %rbp, 16
	movl	%ebx, %edi
	movl	%r12d, %esi
	movq	%r15, %rdx
	movq	%r14, %rcx
	callq	cbp_linfo_intra.87
	popq	%rbx
	popq	%r12
	popq	%r14
	popq	%r15
	popq	%rbp
	.cfi_def_cfa %rsp, 8
	retq
.LBB8_6:                                # %func_cbp_linfo_intra.98
	.cfi_def_cfa %rbp, 16
	movl	%ebx, %edi
	movl	%r12d, %esi
	movq	%r15, %rdx
	movq	%r14, %rcx
	callq	cbp_linfo_intra.98
	popq	%rbx
	popq	%r12
	popq	%r14
	popq	%r15
	popq	%rbp
	.cfi_def_cfa %rsp, 8
	retq
.LBB8_7:                                # %func_cbp_linfo_intra.114
	.cfi_def_cfa %rbp, 16
	movl	%ebx, %edi
	movl	%r12d, %esi
	movq	%r15, %rdx
	movq	%r14, %rcx
	callq	cbp_linfo_intra.114
	popq	%rbx
	popq	%r12
	popq	%r14
	popq	%r15
	popq	%rbp
	.cfi_def_cfa %rsp, 8
	retq
.LBB8_8:                                # %func_cbp_linfo_intra.129
	.cfi_def_cfa %rbp, 16
	movl	%ebx, %edi
	movl	%r12d, %esi
	movq	%r15, %rdx
	movq	%r14, %rcx
	callq	cbp_linfo_intra.129
	popq	%rbx
	popq	%r12
	popq	%r14
	popq	%r15
	popq	%rbp
	.cfi_def_cfa %rsp, 8
	retq
.LBB8_9:                                # %func_cbp_linfo_intra.167
	.cfi_def_cfa %rbp, 16
	movl	%ebx, %edi
	movl	%r12d, %esi
	movq	%r15, %rdx
	movq	%r14, %rcx
	callq	cbp_linfo_intra.167
	popq	%rbx
	popq	%r12
	popq	%r14
	popq	%r15
	popq	%rbp
	.cfi_def_cfa %rsp, 8
	retq
.LBB8_10:                               # %func_cbp_linfo_intra.172
	.cfi_def_cfa %rbp, 16
	movl	%ebx, %edi
	movl	%r12d, %esi
	movq	%r15, %rdx
	movq	%r14, %rcx
	callq	cbp_linfo_intra.172
	popq	%rbx
	popq	%r12
	popq	%r14
	popq	%r15
	popq	%rbp
	.cfi_def_cfa %rsp, 8
	retq
.LBB8_11:                               # %func_cbp_linfo_intra.180
	.cfi_def_cfa %rbp, 16
	movl	%ebx, %edi
	movl	%r12d, %esi
	movq	%r15, %rdx
	movq	%r14, %rcx
	callq	cbp_linfo_intra.180
	popq	%rbx
	popq	%r12
	popq	%r14
	popq	%r15
	popq	%rbp
	.cfi_def_cfa %rsp, 8
	retq
.LBB8_12:                               # %func_cbp_linfo_intra.199
	.cfi_def_cfa %rbp, 16
	movl	%ebx, %edi
	movl	%r12d, %esi
	movq	%r15, %rdx
	movq	%r14, %rcx
	callq	cbp_linfo_intra.199
	popq	%rbx
	popq	%r12
	popq	%r14
	popq	%r15
	popq	%rbp
	.cfi_def_cfa %rsp, 8
	retq
.LBB8_13:                               # %func_cbp_linfo_intra.207
	.cfi_def_cfa %rbp, 16
	movl	%ebx, %edi
	movl	%r12d, %esi
	movq	%r15, %rdx
	movq	%r14, %rcx
	callq	cbp_linfo_intra.207
	popq	%rbx
	popq	%r12
	popq	%r14
	popq	%r15
	popq	%rbp
	.cfi_def_cfa %rsp, 8
	retq
.LBB8_14:                               # %func_cbp_linfo_intra.212
	.cfi_def_cfa %rbp, 16
	movl	%ebx, %edi
	movl	%r12d, %esi
	movq	%r15, %rdx
	movq	%r14, %rcx
	callq	cbp_linfo_intra.212
	popq	%rbx
	popq	%r12
	popq	%r14
	popq	%r15
	popq	%rbp
	.cfi_def_cfa %rsp, 8
	retq
.LBB8_15:                               # %func_cbp_linfo_intra.237
	.cfi_def_cfa %rbp, 16
	movl	%ebx, %edi
	movl	%r12d, %esi
	movq	%r15, %rdx
	movq	%r14, %rcx
	callq	cbp_linfo_intra.237
	popq	%rbx
	popq	%r12
	popq	%r14
	popq	%r15
	popq	%rbp
	.cfi_def_cfa %rsp, 8
	retq
.LBB8_16:                               # %func_cbp_linfo_intra.239
	.cfi_def_cfa %rbp, 16
	movl	%ebx, %edi
	movl	%r12d, %esi
	movq	%r15, %rdx
	movq	%r14, %rcx
	callq	cbp_linfo_intra.239
	popq	%rbx
	popq	%r12
	popq	%r14
	popq	%r15
	popq	%rbp
	.cfi_def_cfa %rsp, 8
	retq
.LBB8_17:                               # %ctrl0
	.cfi_def_cfa %rbp, 16
	cmpl	$1, %eax
	je	.LBB8_2
# %bb.18:                               # %ctrl1
	cmpl	$2, %eax
	je	.LBB8_3
# %bb.19:                               # %ctrl2
	cmpl	$3, %eax
	je	.LBB8_4
# %bb.20:                               # %ctrl3
	cmpl	$4, %eax
	je	.LBB8_5
# %bb.21:                               # %ctrl4
	cmpl	$5, %eax
	je	.LBB8_6
# %bb.22:                               # %ctrl5
	cmpl	$6, %eax
	je	.LBB8_7
# %bb.23:                               # %ctrl6
	cmpl	$7, %eax
	je	.LBB8_8
# %bb.24:                               # %ctrl7
	cmpl	$8, %eax
	je	.LBB8_9
# %bb.25:                               # %ctrl8
	cmpl	$9, %eax
	je	.LBB8_10
# %bb.26:                               # %ctrl9
	cmpl	$10, %eax
	je	.LBB8_11
# %bb.27:                               # %ctrl10
	cmpl	$11, %eax
	je	.LBB8_12
# %bb.28:                               # %ctrl11
	cmpl	$12, %eax
	je	.LBB8_13
# %bb.29:                               # %ctrl12
	cmpl	$13, %eax
	je	.LBB8_14
# %bb.30:                               # %ctrl13
	cmpl	$14, %eax
	je	.LBB8_15
	jmp	.LBB8_16
.Lfunc_end8:
	.size	cbp_linfo_intra, .Lfunc_end8-cbp_linfo_intra
	.cfi_endproc
                                        # -- End function
	.globl	cbp_linfo_inter         # -- Begin function cbp_linfo_inter
	.p2align	4, 0x90
	.type	cbp_linfo_inter,@function
cbp_linfo_inter:                        # @cbp_linfo_inter
	.cfi_startproc
# %bb.0:                                # %rand_bb
	pushq	%rbp
	.cfi_def_cfa_offset 16
	.cfi_offset %rbp, -16
	movq	%rsp, %rbp
	.cfi_def_cfa_register %rbp
	pushq	%r15
	pushq	%r14
	pushq	%r12
	pushq	%rbx
	.cfi_offset %rbx, -48
	.cfi_offset %r12, -40
	.cfi_offset %r14, -32
	.cfi_offset %r15, -24
	movq	%rcx, %r14
	movq	%rdx, %r15
	movl	%esi, %r12d
	movl	%edi, %ebx
	callq	get_urand
	cmpl	$0, %eax
	jne	.LBB9_17
# %bb.1:                                # %func_cbp_linfo_inter.3
	movl	%ebx, %edi
	movl	%r12d, %esi
	movq	%r15, %rdx
	movq	%r14, %rcx
	callq	cbp_linfo_inter.3
	popq	%rbx
	popq	%r12
	popq	%r14
	popq	%r15
	popq	%rbp
	.cfi_def_cfa %rsp, 8
	retq
.LBB9_2:                                # %func_cbp_linfo_inter.30
	.cfi_def_cfa %rbp, 16
	movl	%ebx, %edi
	movl	%r12d, %esi
	movq	%r15, %rdx
	movq	%r14, %rcx
	callq	cbp_linfo_inter.30
	popq	%rbx
	popq	%r12
	popq	%r14
	popq	%r15
	popq	%rbp
	.cfi_def_cfa %rsp, 8
	retq
.LBB9_3:                                # %func_cbp_linfo_inter.42
	.cfi_def_cfa %rbp, 16
	movl	%ebx, %edi
	movl	%r12d, %esi
	movq	%r15, %rdx
	movq	%r14, %rcx
	callq	cbp_linfo_inter.42
	popq	%rbx
	popq	%r12
	popq	%r14
	popq	%r15
	popq	%rbp
	.cfi_def_cfa %rsp, 8
	retq
.LBB9_4:                                # %func_cbp_linfo_inter.55
	.cfi_def_cfa %rbp, 16
	movl	%ebx, %edi
	movl	%r12d, %esi
	movq	%r15, %rdx
	movq	%r14, %rcx
	callq	cbp_linfo_inter.55
	popq	%rbx
	popq	%r12
	popq	%r14
	popq	%r15
	popq	%rbp
	.cfi_def_cfa %rsp, 8
	retq
.LBB9_5:                                # %func_cbp_linfo_inter.56
	.cfi_def_cfa %rbp, 16
	movl	%ebx, %edi
	movl	%r12d, %esi
	movq	%r15, %rdx
	movq	%r14, %rcx
	callq	cbp_linfo_inter.56
	popq	%rbx
	popq	%r12
	popq	%r14
	popq	%r15
	popq	%rbp
	.cfi_def_cfa %rsp, 8
	retq
.LBB9_6:                                # %func_cbp_linfo_inter.75
	.cfi_def_cfa %rbp, 16
	movl	%ebx, %edi
	movl	%r12d, %esi
	movq	%r15, %rdx
	movq	%r14, %rcx
	callq	cbp_linfo_inter.75
	popq	%rbx
	popq	%r12
	popq	%r14
	popq	%r15
	popq	%rbp
	.cfi_def_cfa %rsp, 8
	retq
.LBB9_7:                                # %func_cbp_linfo_inter.115
	.cfi_def_cfa %rbp, 16
	movl	%ebx, %edi
	movl	%r12d, %esi
	movq	%r15, %rdx
	movq	%r14, %rcx
	callq	cbp_linfo_inter.115
	popq	%rbx
	popq	%r12
	popq	%r14
	popq	%r15
	popq	%rbp
	.cfi_def_cfa %rsp, 8
	retq
.LBB9_8:                                # %func_cbp_linfo_inter.117
	.cfi_def_cfa %rbp, 16
	movl	%ebx, %edi
	movl	%r12d, %esi
	movq	%r15, %rdx
	movq	%r14, %rcx
	callq	cbp_linfo_inter.117
	popq	%rbx
	popq	%r12
	popq	%r14
	popq	%r15
	popq	%rbp
	.cfi_def_cfa %rsp, 8
	retq
.LBB9_9:                                # %func_cbp_linfo_inter.124
	.cfi_def_cfa %rbp, 16
	movl	%ebx, %edi
	movl	%r12d, %esi
	movq	%r15, %rdx
	movq	%r14, %rcx
	callq	cbp_linfo_inter.124
	popq	%rbx
	popq	%r12
	popq	%r14
	popq	%r15
	popq	%rbp
	.cfi_def_cfa %rsp, 8
	retq
.LBB9_10:                               # %func_cbp_linfo_inter.173
	.cfi_def_cfa %rbp, 16
	movl	%ebx, %edi
	movl	%r12d, %esi
	movq	%r15, %rdx
	movq	%r14, %rcx
	callq	cbp_linfo_inter.173
	popq	%rbx
	popq	%r12
	popq	%r14
	popq	%r15
	popq	%rbp
	.cfi_def_cfa %rsp, 8
	retq
.LBB9_11:                               # %func_cbp_linfo_inter.181
	.cfi_def_cfa %rbp, 16
	movl	%ebx, %edi
	movl	%r12d, %esi
	movq	%r15, %rdx
	movq	%r14, %rcx
	callq	cbp_linfo_inter.181
	popq	%rbx
	popq	%r12
	popq	%r14
	popq	%r15
	popq	%rbp
	.cfi_def_cfa %rsp, 8
	retq
.LBB9_12:                               # %func_cbp_linfo_inter.203
	.cfi_def_cfa %rbp, 16
	movl	%ebx, %edi
	movl	%r12d, %esi
	movq	%r15, %rdx
	movq	%r14, %rcx
	callq	cbp_linfo_inter.203
	popq	%rbx
	popq	%r12
	popq	%r14
	popq	%r15
	popq	%rbp
	.cfi_def_cfa %rsp, 8
	retq
.LBB9_13:                               # %func_cbp_linfo_inter.218
	.cfi_def_cfa %rbp, 16
	movl	%ebx, %edi
	movl	%r12d, %esi
	movq	%r15, %rdx
	movq	%r14, %rcx
	callq	cbp_linfo_inter.218
	popq	%rbx
	popq	%r12
	popq	%r14
	popq	%r15
	popq	%rbp
	.cfi_def_cfa %rsp, 8
	retq
.LBB9_14:                               # %func_cbp_linfo_inter.220
	.cfi_def_cfa %rbp, 16
	movl	%ebx, %edi
	movl	%r12d, %esi
	movq	%r15, %rdx
	movq	%r14, %rcx
	callq	cbp_linfo_inter.220
	popq	%rbx
	popq	%r12
	popq	%r14
	popq	%r15
	popq	%rbp
	.cfi_def_cfa %rsp, 8
	retq
.LBB9_15:                               # %func_cbp_linfo_inter.230
	.cfi_def_cfa %rbp, 16
	movl	%ebx, %edi
	movl	%r12d, %esi
	movq	%r15, %rdx
	movq	%r14, %rcx
	callq	cbp_linfo_inter.230
	popq	%rbx
	popq	%r12
	popq	%r14
	popq	%r15
	popq	%rbp
	.cfi_def_cfa %rsp, 8
	retq
.LBB9_16:                               # %func_cbp_linfo_inter.233
	.cfi_def_cfa %rbp, 16
	movl	%ebx, %edi
	movl	%r12d, %esi
	movq	%r15, %rdx
	movq	%r14, %rcx
	callq	cbp_linfo_inter.233
	popq	%rbx
	popq	%r12
	popq	%r14
	popq	%r15
	popq	%rbp
	.cfi_def_cfa %rsp, 8
	retq
.LBB9_17:                               # %ctrl0
	.cfi_def_cfa %rbp, 16
	cmpl	$1, %eax
	je	.LBB9_2
# %bb.18:                               # %ctrl1
	cmpl	$2, %eax
	je	.LBB9_3
# %bb.19:                               # %ctrl2
	cmpl	$3, %eax
	je	.LBB9_4
# %bb.20:                               # %ctrl3
	cmpl	$4, %eax
	je	.LBB9_5
# %bb.21:                               # %ctrl4
	cmpl	$5, %eax
	je	.LBB9_6
# %bb.22:                               # %ctrl5
	cmpl	$6, %eax
	je	.LBB9_7
# %bb.23:                               # %ctrl6
	cmpl	$7, %eax
	je	.LBB9_8
# %bb.24:                               # %ctrl7
	cmpl	$8, %eax
	je	.LBB9_9
# %bb.25:                               # %ctrl8
	cmpl	$9, %eax
	je	.LBB9_10
# %bb.26:                               # %ctrl9
	cmpl	$10, %eax
	je	.LBB9_11
# %bb.27:                               # %ctrl10
	cmpl	$11, %eax
	je	.LBB9_12
# %bb.28:                               # %ctrl11
	cmpl	$12, %eax
	je	.LBB9_13
# %bb.29:                               # %ctrl12
	cmpl	$13, %eax
	je	.LBB9_14
# %bb.30:                               # %ctrl13
	cmpl	$14, %eax
	je	.LBB9_15
	jmp	.LBB9_16
.Lfunc_end9:
	.size	cbp_linfo_inter, .Lfunc_end9-cbp_linfo_inter
	.cfi_endproc
                                        # -- End function
	.globl	levrun_linfo_c2x2       # -- Begin function levrun_linfo_c2x2
	.p2align	4, 0x90
	.type	levrun_linfo_c2x2,@function
levrun_linfo_c2x2:                      # @levrun_linfo_c2x2
	.cfi_startproc
# %bb.0:                                # %rand_bb
	pushq	%rbp
	.cfi_def_cfa_offset 16
	.cfi_offset %rbp, -16
	movq	%rsp, %rbp
	.cfi_def_cfa_register %rbp
	pushq	%r15
	pushq	%r14
	pushq	%r12
	pushq	%rbx
	.cfi_offset %rbx, -48
	.cfi_offset %r12, -40
	.cfi_offset %r14, -32
	.cfi_offset %r15, -24
	movq	%rcx, %r14
	movq	%rdx, %r15
	movl	%esi, %r12d
	movl	%edi, %ebx
	callq	get_urand
	cmpl	$0, %eax
	jne	.LBB10_17
# %bb.1:                                # %func_levrun_linfo_c2x2.65
	movl	%ebx, %edi
	movl	%r12d, %esi
	movq	%r15, %rdx
	movq	%r14, %rcx
	callq	levrun_linfo_c2x2.65
	popq	%rbx
	popq	%r12
	popq	%r14
	popq	%r15
	popq	%rbp
	.cfi_def_cfa %rsp, 8
	retq
.LBB10_2:                               # %func_levrun_linfo_c2x2.67
	.cfi_def_cfa %rbp, 16
	movl	%ebx, %edi
	movl	%r12d, %esi
	movq	%r15, %rdx
	movq	%r14, %rcx
	callq	levrun_linfo_c2x2.67
	popq	%rbx
	popq	%r12
	popq	%r14
	popq	%r15
	popq	%rbp
	.cfi_def_cfa %rsp, 8
	retq
.LBB10_3:                               # %func_levrun_linfo_c2x2.105
	.cfi_def_cfa %rbp, 16
	movl	%ebx, %edi
	movl	%r12d, %esi
	movq	%r15, %rdx
	movq	%r14, %rcx
	callq	levrun_linfo_c2x2.105
	popq	%rbx
	popq	%r12
	popq	%r14
	popq	%r15
	popq	%rbp
	.cfi_def_cfa %rsp, 8
	retq
.LBB10_4:                               # %func_levrun_linfo_c2x2.149
	.cfi_def_cfa %rbp, 16
	movl	%ebx, %edi
	movl	%r12d, %esi
	movq	%r15, %rdx
	movq	%r14, %rcx
	callq	levrun_linfo_c2x2.149
	popq	%rbx
	popq	%r12
	popq	%r14
	popq	%r15
	popq	%rbp
	.cfi_def_cfa %rsp, 8
	retq
.LBB10_5:                               # %func_levrun_linfo_c2x2.160
	.cfi_def_cfa %rbp, 16
	movl	%ebx, %edi
	movl	%r12d, %esi
	movq	%r15, %rdx
	movq	%r14, %rcx
	callq	levrun_linfo_c2x2.160
	popq	%rbx
	popq	%r12
	popq	%r14
	popq	%r15
	popq	%rbp
	.cfi_def_cfa %rsp, 8
	retq
.LBB10_6:                               # %func_levrun_linfo_c2x2.176
	.cfi_def_cfa %rbp, 16
	movl	%ebx, %edi
	movl	%r12d, %esi
	movq	%r15, %rdx
	movq	%r14, %rcx
	callq	levrun_linfo_c2x2.176
	popq	%rbx
	popq	%r12
	popq	%r14
	popq	%r15
	popq	%rbp
	.cfi_def_cfa %rsp, 8
	retq
.LBB10_7:                               # %func_levrun_linfo_c2x2.193
	.cfi_def_cfa %rbp, 16
	movl	%ebx, %edi
	movl	%r12d, %esi
	movq	%r15, %rdx
	movq	%r14, %rcx
	callq	levrun_linfo_c2x2.193
	popq	%rbx
	popq	%r12
	popq	%r14
	popq	%r15
	popq	%rbp
	.cfi_def_cfa %rsp, 8
	retq
.LBB10_8:                               # %func_levrun_linfo_c2x2.235
	.cfi_def_cfa %rbp, 16
	movl	%ebx, %edi
	movl	%r12d, %esi
	movq	%r15, %rdx
	movq	%r14, %rcx
	callq	levrun_linfo_c2x2.235
	popq	%rbx
	popq	%r12
	popq	%r14
	popq	%r15
	popq	%rbp
	.cfi_def_cfa %rsp, 8
	retq
.LBB10_9:                               # %func_levrun_linfo_c2x2.245
	.cfi_def_cfa %rbp, 16
	movl	%ebx, %edi
	movl	%r12d, %esi
	movq	%r15, %rdx
	movq	%r14, %rcx
	callq	levrun_linfo_c2x2.245
	popq	%rbx
	popq	%r12
	popq	%r14
	popq	%r15
	popq	%rbp
	.cfi_def_cfa %rsp, 8
	retq
.LBB10_10:                              # %func_levrun_linfo_c2x2.249
	.cfi_def_cfa %rbp, 16
	movl	%ebx, %edi
	movl	%r12d, %esi
	movq	%r15, %rdx
	movq	%r14, %rcx
	callq	levrun_linfo_c2x2.249
	popq	%rbx
	popq	%r12
	popq	%r14
	popq	%r15
	popq	%rbp
	.cfi_def_cfa %rsp, 8
	retq
.LBB10_11:                              # %func_levrun_linfo_c2x2.272
	.cfi_def_cfa %rbp, 16
	movl	%ebx, %edi
	movl	%r12d, %esi
	movq	%r15, %rdx
	movq	%r14, %rcx
	callq	levrun_linfo_c2x2.272
	popq	%rbx
	popq	%r12
	popq	%r14
	popq	%r15
	popq	%rbp
	.cfi_def_cfa %rsp, 8
	retq
.LBB10_12:                              # %func_levrun_linfo_c2x2.275
	.cfi_def_cfa %rbp, 16
	movl	%ebx, %edi
	movl	%r12d, %esi
	movq	%r15, %rdx
	movq	%r14, %rcx
	callq	levrun_linfo_c2x2.275
	popq	%rbx
	popq	%r12
	popq	%r14
	popq	%r15
	popq	%rbp
	.cfi_def_cfa %rsp, 8
	retq
.LBB10_13:                              # %func_levrun_linfo_c2x2.276
	.cfi_def_cfa %rbp, 16
	movl	%ebx, %edi
	movl	%r12d, %esi
	movq	%r15, %rdx
	movq	%r14, %rcx
	callq	levrun_linfo_c2x2.276
	popq	%rbx
	popq	%r12
	popq	%r14
	popq	%r15
	popq	%rbp
	.cfi_def_cfa %rsp, 8
	retq
.LBB10_14:                              # %func_levrun_linfo_c2x2.277
	.cfi_def_cfa %rbp, 16
	movl	%ebx, %edi
	movl	%r12d, %esi
	movq	%r15, %rdx
	movq	%r14, %rcx
	callq	levrun_linfo_c2x2.277
	popq	%rbx
	popq	%r12
	popq	%r14
	popq	%r15
	popq	%rbp
	.cfi_def_cfa %rsp, 8
	retq
.LBB10_15:                              # %func_levrun_linfo_c2x2.279
	.cfi_def_cfa %rbp, 16
	movl	%ebx, %edi
	movl	%r12d, %esi
	movq	%r15, %rdx
	movq	%r14, %rcx
	callq	levrun_linfo_c2x2.279
	popq	%rbx
	popq	%r12
	popq	%r14
	popq	%r15
	popq	%rbp
	.cfi_def_cfa %rsp, 8
	retq
.LBB10_16:                              # %func_levrun_linfo_c2x2.280
	.cfi_def_cfa %rbp, 16
	movl	%ebx, %edi
	movl	%r12d, %esi
	movq	%r15, %rdx
	movq	%r14, %rcx
	callq	levrun_linfo_c2x2.280
	popq	%rbx
	popq	%r12
	popq	%r14
	popq	%r15
	popq	%rbp
	.cfi_def_cfa %rsp, 8
	retq
.LBB10_17:                              # %ctrl0
	.cfi_def_cfa %rbp, 16
	cmpl	$1, %eax
	je	.LBB10_2
# %bb.18:                               # %ctrl1
	cmpl	$2, %eax
	je	.LBB10_3
# %bb.19:                               # %ctrl2
	cmpl	$3, %eax
	je	.LBB10_4
# %bb.20:                               # %ctrl3
	cmpl	$4, %eax
	je	.LBB10_5
# %bb.21:                               # %ctrl4
	cmpl	$5, %eax
	je	.LBB10_6
# %bb.22:                               # %ctrl5
	cmpl	$6, %eax
	je	.LBB10_7
# %bb.23:                               # %ctrl6
	cmpl	$7, %eax
	je	.LBB10_8
# %bb.24:                               # %ctrl7
	cmpl	$8, %eax
	je	.LBB10_9
# %bb.25:                               # %ctrl8
	cmpl	$9, %eax
	je	.LBB10_10
# %bb.26:                               # %ctrl9
	cmpl	$10, %eax
	je	.LBB10_11
# %bb.27:                               # %ctrl10
	cmpl	$11, %eax
	je	.LBB10_12
# %bb.28:                               # %ctrl11
	cmpl	$12, %eax
	je	.LBB10_13
# %bb.29:                               # %ctrl12
	cmpl	$13, %eax
	je	.LBB10_14
# %bb.30:                               # %ctrl13
	cmpl	$14, %eax
	je	.LBB10_15
	jmp	.LBB10_16
.Lfunc_end10:
	.size	levrun_linfo_c2x2, .Lfunc_end10-levrun_linfo_c2x2
	.cfi_endproc
                                        # -- End function
	.globl	levrun_linfo_inter      # -- Begin function levrun_linfo_inter
	.p2align	4, 0x90
	.type	levrun_linfo_inter,@function
levrun_linfo_inter:                     # @levrun_linfo_inter
	.cfi_startproc
# %bb.0:                                # %rand_bb
	pushq	%rbp
	.cfi_def_cfa_offset 16
	.cfi_offset %rbp, -16
	movq	%rsp, %rbp
	.cfi_def_cfa_register %rbp
	pushq	%r15
	pushq	%r14
	pushq	%r12
	pushq	%rbx
	.cfi_offset %rbx, -48
	.cfi_offset %r12, -40
	.cfi_offset %r14, -32
	.cfi_offset %r15, -24
	movq	%rcx, %r14
	movq	%rdx, %r15
	movl	%esi, %r12d
	movl	%edi, %ebx
	callq	get_urand
	cmpl	$0, %eax
	jne	.LBB11_17
# %bb.1:                                # %func_levrun_linfo_inter.58
	movl	%ebx, %edi
	movl	%r12d, %esi
	movq	%r15, %rdx
	movq	%r14, %rcx
	callq	levrun_linfo_inter.58
	popq	%rbx
	popq	%r12
	popq	%r14
	popq	%r15
	popq	%rbp
	.cfi_def_cfa %rsp, 8
	retq
.LBB11_2:                               # %func_levrun_linfo_inter.76
	.cfi_def_cfa %rbp, 16
	movl	%ebx, %edi
	movl	%r12d, %esi
	movq	%r15, %rdx
	movq	%r14, %rcx
	callq	levrun_linfo_inter.76
	popq	%rbx
	popq	%r12
	popq	%r14
	popq	%r15
	popq	%rbp
	.cfi_def_cfa %rsp, 8
	retq
.LBB11_3:                               # %func_levrun_linfo_inter.95
	.cfi_def_cfa %rbp, 16
	movl	%ebx, %edi
	movl	%r12d, %esi
	movq	%r15, %rdx
	movq	%r14, %rcx
	callq	levrun_linfo_inter.95
	popq	%rbx
	popq	%r12
	popq	%r14
	popq	%r15
	popq	%rbp
	.cfi_def_cfa %rsp, 8
	retq
.LBB11_4:                               # %func_levrun_linfo_inter.108
	.cfi_def_cfa %rbp, 16
	movl	%ebx, %edi
	movl	%r12d, %esi
	movq	%r15, %rdx
	movq	%r14, %rcx
	callq	levrun_linfo_inter.108
	popq	%rbx
	popq	%r12
	popq	%r14
	popq	%r15
	popq	%rbp
	.cfi_def_cfa %rsp, 8
	retq
.LBB11_5:                               # %func_levrun_linfo_inter.119
	.cfi_def_cfa %rbp, 16
	movl	%ebx, %edi
	movl	%r12d, %esi
	movq	%r15, %rdx
	movq	%r14, %rcx
	callq	levrun_linfo_inter.119
	popq	%rbx
	popq	%r12
	popq	%r14
	popq	%r15
	popq	%rbp
	.cfi_def_cfa %rsp, 8
	retq
.LBB11_6:                               # %func_levrun_linfo_inter.162
	.cfi_def_cfa %rbp, 16
	movl	%ebx, %edi
	movl	%r12d, %esi
	movq	%r15, %rdx
	movq	%r14, %rcx
	callq	levrun_linfo_inter.162
	popq	%rbx
	popq	%r12
	popq	%r14
	popq	%r15
	popq	%rbp
	.cfi_def_cfa %rsp, 8
	retq
.LBB11_7:                               # %func_levrun_linfo_inter.168
	.cfi_def_cfa %rbp, 16
	movl	%ebx, %edi
	movl	%r12d, %esi
	movq	%r15, %rdx
	movq	%r14, %rcx
	callq	levrun_linfo_inter.168
	popq	%rbx
	popq	%r12
	popq	%r14
	popq	%r15
	popq	%rbp
	.cfi_def_cfa %rsp, 8
	retq
.LBB11_8:                               # %func_levrun_linfo_inter.178
	.cfi_def_cfa %rbp, 16
	movl	%ebx, %edi
	movl	%r12d, %esi
	movq	%r15, %rdx
	movq	%r14, %rcx
	callq	levrun_linfo_inter.178
	popq	%rbx
	popq	%r12
	popq	%r14
	popq	%r15
	popq	%rbp
	.cfi_def_cfa %rsp, 8
	retq
.LBB11_9:                               # %func_levrun_linfo_inter.182
	.cfi_def_cfa %rbp, 16
	movl	%ebx, %edi
	movl	%r12d, %esi
	movq	%r15, %rdx
	movq	%r14, %rcx
	callq	levrun_linfo_inter.182
	popq	%rbx
	popq	%r12
	popq	%r14
	popq	%r15
	popq	%rbp
	.cfi_def_cfa %rsp, 8
	retq
.LBB11_10:                              # %func_levrun_linfo_inter.200
	.cfi_def_cfa %rbp, 16
	movl	%ebx, %edi
	movl	%r12d, %esi
	movq	%r15, %rdx
	movq	%r14, %rcx
	callq	levrun_linfo_inter.200
	popq	%rbx
	popq	%r12
	popq	%r14
	popq	%r15
	popq	%rbp
	.cfi_def_cfa %rsp, 8
	retq
.LBB11_11:                              # %func_levrun_linfo_inter.228
	.cfi_def_cfa %rbp, 16
	movl	%ebx, %edi
	movl	%r12d, %esi
	movq	%r15, %rdx
	movq	%r14, %rcx
	callq	levrun_linfo_inter.228
	popq	%rbx
	popq	%r12
	popq	%r14
	popq	%r15
	popq	%rbp
	.cfi_def_cfa %rsp, 8
	retq
.LBB11_12:                              # %func_levrun_linfo_inter.246
	.cfi_def_cfa %rbp, 16
	movl	%ebx, %edi
	movl	%r12d, %esi
	movq	%r15, %rdx
	movq	%r14, %rcx
	callq	levrun_linfo_inter.246
	popq	%rbx
	popq	%r12
	popq	%r14
	popq	%r15
	popq	%rbp
	.cfi_def_cfa %rsp, 8
	retq
.LBB11_13:                              # %func_levrun_linfo_inter.247
	.cfi_def_cfa %rbp, 16
	movl	%ebx, %edi
	movl	%r12d, %esi
	movq	%r15, %rdx
	movq	%r14, %rcx
	callq	levrun_linfo_inter.247
	popq	%rbx
	popq	%r12
	popq	%r14
	popq	%r15
	popq	%rbp
	.cfi_def_cfa %rsp, 8
	retq
.LBB11_14:                              # %func_levrun_linfo_inter.263
	.cfi_def_cfa %rbp, 16
	movl	%ebx, %edi
	movl	%r12d, %esi
	movq	%r15, %rdx
	movq	%r14, %rcx
	callq	levrun_linfo_inter.263
	popq	%rbx
	popq	%r12
	popq	%r14
	popq	%r15
	popq	%rbp
	.cfi_def_cfa %rsp, 8
	retq
.LBB11_15:                              # %func_levrun_linfo_inter.268
	.cfi_def_cfa %rbp, 16
	movl	%ebx, %edi
	movl	%r12d, %esi
	movq	%r15, %rdx
	movq	%r14, %rcx
	callq	levrun_linfo_inter.268
	popq	%rbx
	popq	%r12
	popq	%r14
	popq	%r15
	popq	%rbp
	.cfi_def_cfa %rsp, 8
	retq
.LBB11_16:                              # %func_levrun_linfo_inter.274
	.cfi_def_cfa %rbp, 16
	movl	%ebx, %edi
	movl	%r12d, %esi
	movq	%r15, %rdx
	movq	%r14, %rcx
	callq	levrun_linfo_inter.274
	popq	%rbx
	popq	%r12
	popq	%r14
	popq	%r15
	popq	%rbp
	.cfi_def_cfa %rsp, 8
	retq
.LBB11_17:                              # %ctrl0
	.cfi_def_cfa %rbp, 16
	cmpl	$1, %eax
	je	.LBB11_2
# %bb.18:                               # %ctrl1
	cmpl	$2, %eax
	je	.LBB11_3
# %bb.19:                               # %ctrl2
	cmpl	$3, %eax
	je	.LBB11_4
# %bb.20:                               # %ctrl3
	cmpl	$4, %eax
	je	.LBB11_5
# %bb.21:                               # %ctrl4
	cmpl	$5, %eax
	je	.LBB11_6
# %bb.22:                               # %ctrl5
	cmpl	$6, %eax
	je	.LBB11_7
# %bb.23:                               # %ctrl6
	cmpl	$7, %eax
	je	.LBB11_8
# %bb.24:                               # %ctrl7
	cmpl	$8, %eax
	je	.LBB11_9
# %bb.25:                               # %ctrl8
	cmpl	$9, %eax
	je	.LBB11_10
# %bb.26:                               # %ctrl9
	cmpl	$10, %eax
	je	.LBB11_11
# %bb.27:                               # %ctrl10
	cmpl	$11, %eax
	je	.LBB11_12
# %bb.28:                               # %ctrl11
	cmpl	$12, %eax
	je	.LBB11_13
# %bb.29:                               # %ctrl12
	cmpl	$13, %eax
	je	.LBB11_14
# %bb.30:                               # %ctrl13
	cmpl	$14, %eax
	je	.LBB11_15
	jmp	.LBB11_16
.Lfunc_end11:
	.size	levrun_linfo_inter, .Lfunc_end11-levrun_linfo_inter
	.cfi_endproc
                                        # -- End function
	.globl	levrun_linfo_intra      # -- Begin function levrun_linfo_intra
	.p2align	4, 0x90
	.type	levrun_linfo_intra,@function
levrun_linfo_intra:                     # @levrun_linfo_intra
	.cfi_startproc
# %bb.0:                                # %rand_bb
	pushq	%rbp
	.cfi_def_cfa_offset 16
	.cfi_offset %rbp, -16
	movq	%rsp, %rbp
	.cfi_def_cfa_register %rbp
	pushq	%r15
	pushq	%r14
	pushq	%r12
	pushq	%rbx
	.cfi_offset %rbx, -48
	.cfi_offset %r12, -40
	.cfi_offset %r14, -32
	.cfi_offset %r15, -24
	movq	%rcx, %r14
	movq	%rdx, %r15
	movl	%esi, %r12d
	movl	%edi, %ebx
	callq	get_urand
	cmpl	$0, %eax
	jne	.LBB12_17
# %bb.1:                                # %func_levrun_linfo_intra.21
	movl	%ebx, %edi
	movl	%r12d, %esi
	movq	%r15, %rdx
	movq	%r14, %rcx
	callq	levrun_linfo_intra.21
	popq	%rbx
	popq	%r12
	popq	%r14
	popq	%r15
	popq	%rbp
	.cfi_def_cfa %rsp, 8
	retq
.LBB12_2:                               # %func_levrun_linfo_intra.35
	.cfi_def_cfa %rbp, 16
	movl	%ebx, %edi
	movl	%r12d, %esi
	movq	%r15, %rdx
	movq	%r14, %rcx
	callq	levrun_linfo_intra.35
	popq	%rbx
	popq	%r12
	popq	%r14
	popq	%r15
	popq	%rbp
	.cfi_def_cfa %rsp, 8
	retq
.LBB12_3:                               # %func_levrun_linfo_intra.43
	.cfi_def_cfa %rbp, 16
	movl	%ebx, %edi
	movl	%r12d, %esi
	movq	%r15, %rdx
	movq	%r14, %rcx
	callq	levrun_linfo_intra.43
	popq	%rbx
	popq	%r12
	popq	%r14
	popq	%r15
	popq	%rbp
	.cfi_def_cfa %rsp, 8
	retq
.LBB12_4:                               # %func_levrun_linfo_intra.82
	.cfi_def_cfa %rbp, 16
	movl	%ebx, %edi
	movl	%r12d, %esi
	movq	%r15, %rdx
	movq	%r14, %rcx
	callq	levrun_linfo_intra.82
	popq	%rbx
	popq	%r12
	popq	%r14
	popq	%r15
	popq	%rbp
	.cfi_def_cfa %rsp, 8
	retq
.LBB12_5:                               # %func_levrun_linfo_intra.89
	.cfi_def_cfa %rbp, 16
	movl	%ebx, %edi
	movl	%r12d, %esi
	movq	%r15, %rdx
	movq	%r14, %rcx
	callq	levrun_linfo_intra.89
	popq	%rbx
	popq	%r12
	popq	%r14
	popq	%r15
	popq	%rbp
	.cfi_def_cfa %rsp, 8
	retq
.LBB12_6:                               # %func_levrun_linfo_intra.97
	.cfi_def_cfa %rbp, 16
	movl	%ebx, %edi
	movl	%r12d, %esi
	movq	%r15, %rdx
	movq	%r14, %rcx
	callq	levrun_linfo_intra.97
	popq	%rbx
	popq	%r12
	popq	%r14
	popq	%r15
	popq	%rbp
	.cfi_def_cfa %rsp, 8
	retq
.LBB12_7:                               # %func_levrun_linfo_intra.102
	.cfi_def_cfa %rbp, 16
	movl	%ebx, %edi
	movl	%r12d, %esi
	movq	%r15, %rdx
	movq	%r14, %rcx
	callq	levrun_linfo_intra.102
	popq	%rbx
	popq	%r12
	popq	%r14
	popq	%r15
	popq	%rbp
	.cfi_def_cfa %rsp, 8
	retq
.LBB12_8:                               # %func_levrun_linfo_intra.107
	.cfi_def_cfa %rbp, 16
	movl	%ebx, %edi
	movl	%r12d, %esi
	movq	%r15, %rdx
	movq	%r14, %rcx
	callq	levrun_linfo_intra.107
	popq	%rbx
	popq	%r12
	popq	%r14
	popq	%r15
	popq	%rbp
	.cfi_def_cfa %rsp, 8
	retq
.LBB12_9:                               # %func_levrun_linfo_intra.120
	.cfi_def_cfa %rbp, 16
	movl	%ebx, %edi
	movl	%r12d, %esi
	movq	%r15, %rdx
	movq	%r14, %rcx
	callq	levrun_linfo_intra.120
	popq	%rbx
	popq	%r12
	popq	%r14
	popq	%r15
	popq	%rbp
	.cfi_def_cfa %rsp, 8
	retq
.LBB12_10:                              # %func_levrun_linfo_intra.138
	.cfi_def_cfa %rbp, 16
	movl	%ebx, %edi
	movl	%r12d, %esi
	movq	%r15, %rdx
	movq	%r14, %rcx
	callq	levrun_linfo_intra.138
	popq	%rbx
	popq	%r12
	popq	%r14
	popq	%r15
	popq	%rbp
	.cfi_def_cfa %rsp, 8
	retq
.LBB12_11:                              # %func_levrun_linfo_intra.141
	.cfi_def_cfa %rbp, 16
	movl	%ebx, %edi
	movl	%r12d, %esi
	movq	%r15, %rdx
	movq	%r14, %rcx
	callq	levrun_linfo_intra.141
	popq	%rbx
	popq	%r12
	popq	%r14
	popq	%r15
	popq	%rbp
	.cfi_def_cfa %rsp, 8
	retq
.LBB12_12:                              # %func_levrun_linfo_intra.152
	.cfi_def_cfa %rbp, 16
	movl	%ebx, %edi
	movl	%r12d, %esi
	movq	%r15, %rdx
	movq	%r14, %rcx
	callq	levrun_linfo_intra.152
	popq	%rbx
	popq	%r12
	popq	%r14
	popq	%r15
	popq	%rbp
	.cfi_def_cfa %rsp, 8
	retq
.LBB12_13:                              # %func_levrun_linfo_intra.170
	.cfi_def_cfa %rbp, 16
	movl	%ebx, %edi
	movl	%r12d, %esi
	movq	%r15, %rdx
	movq	%r14, %rcx
	callq	levrun_linfo_intra.170
	popq	%rbx
	popq	%r12
	popq	%r14
	popq	%r15
	popq	%rbp
	.cfi_def_cfa %rsp, 8
	retq
.LBB12_14:                              # %func_levrun_linfo_intra.171
	.cfi_def_cfa %rbp, 16
	movl	%ebx, %edi
	movl	%r12d, %esi
	movq	%r15, %rdx
	movq	%r14, %rcx
	callq	levrun_linfo_intra.171
	popq	%rbx
	popq	%r12
	popq	%r14
	popq	%r15
	popq	%rbp
	.cfi_def_cfa %rsp, 8
	retq
.LBB12_15:                              # %func_levrun_linfo_intra.175
	.cfi_def_cfa %rbp, 16
	movl	%ebx, %edi
	movl	%r12d, %esi
	movq	%r15, %rdx
	movq	%r14, %rcx
	callq	levrun_linfo_intra.175
	popq	%rbx
	popq	%r12
	popq	%r14
	popq	%r15
	popq	%rbp
	.cfi_def_cfa %rsp, 8
	retq
.LBB12_16:                              # %func_levrun_linfo_intra.232
	.cfi_def_cfa %rbp, 16
	movl	%ebx, %edi
	movl	%r12d, %esi
	movq	%r15, %rdx
	movq	%r14, %rcx
	callq	levrun_linfo_intra.232
	popq	%rbx
	popq	%r12
	popq	%r14
	popq	%r15
	popq	%rbp
	.cfi_def_cfa %rsp, 8
	retq
.LBB12_17:                              # %ctrl0
	.cfi_def_cfa %rbp, 16
	cmpl	$1, %eax
	je	.LBB12_2
# %bb.18:                               # %ctrl1
	cmpl	$2, %eax
	je	.LBB12_3
# %bb.19:                               # %ctrl2
	cmpl	$3, %eax
	je	.LBB12_4
# %bb.20:                               # %ctrl3
	cmpl	$4, %eax
	je	.LBB12_5
# %bb.21:                               # %ctrl4
	cmpl	$5, %eax
	je	.LBB12_6
# %bb.22:                               # %ctrl5
	cmpl	$6, %eax
	je	.LBB12_7
# %bb.23:                               # %ctrl6
	cmpl	$7, %eax
	je	.LBB12_8
# %bb.24:                               # %ctrl7
	cmpl	$8, %eax
	je	.LBB12_9
# %bb.25:                               # %ctrl8
	cmpl	$9, %eax
	je	.LBB12_10
# %bb.26:                               # %ctrl9
	cmpl	$10, %eax
	je	.LBB12_11
# %bb.27:                               # %ctrl10
	cmpl	$11, %eax
	je	.LBB12_12
# %bb.28:                               # %ctrl11
	cmpl	$12, %eax
	je	.LBB12_13
# %bb.29:                               # %ctrl12
	cmpl	$13, %eax
	je	.LBB12_14
# %bb.30:                               # %ctrl13
	cmpl	$14, %eax
	je	.LBB12_15
	jmp	.LBB12_16
.Lfunc_end12:
	.size	levrun_linfo_intra, .Lfunc_end12-levrun_linfo_intra
	.cfi_endproc
                                        # -- End function
	.globl	symbol2uvlc             # -- Begin function symbol2uvlc
	.p2align	4, 0x90
	.type	symbol2uvlc,@function
symbol2uvlc:                            # @symbol2uvlc
	.cfi_startproc
# %bb.0:                                # %rand_bb
	pushq	%rbp
	.cfi_def_cfa_offset 16
	.cfi_offset %rbp, -16
	movq	%rsp, %rbp
	.cfi_def_cfa_register %rbp
	pushq	%rbx
	pushq	%rax
	.cfi_offset %rbx, -24
	movq	%rdi, %rbx
	callq	get_urand
	cmpl	$0, %eax
	jne	.LBB13_2
# %bb.1:                                # %func_symbol2uvlc.8
	movq	%rbx, %rdi
	callq	symbol2uvlc.8
	addq	$8, %rsp
	popq	%rbx
	popq	%rbp
	.cfi_def_cfa %rsp, 8
	retq
.LBB13_2:                               # %func_symbol2uvlc.17
	.cfi_def_cfa %rbp, 16
	movq	%rbx, %rdi
	callq	symbol2uvlc.17
	addq	$8, %rsp
	popq	%rbx
	popq	%rbp
	.cfi_def_cfa %rsp, 8
	retq
.Lfunc_end13:
	.size	symbol2uvlc, .Lfunc_end13-symbol2uvlc
	.cfi_endproc
                                        # -- End function
	.globl	writeUVLC2buffer        # -- Begin function writeUVLC2buffer
	.p2align	4, 0x90
	.type	writeUVLC2buffer,@function
writeUVLC2buffer:                       # @writeUVLC2buffer
	.cfi_startproc
# %bb.0:                                # %rand_bb
	pushq	%rbp
	.cfi_def_cfa_offset 16
	.cfi_offset %rbp, -16
	movq	%rsp, %rbp
	.cfi_def_cfa_register %rbp
	pushq	%r14
	pushq	%rbx
	.cfi_offset %rbx, -32
	.cfi_offset %r14, -24
	movq	%rsi, %r14
	movq	%rdi, %rbx
	callq	get_urand
	cmpl	$0, %eax
	jne	.LBB14_17
# %bb.1:                                # %func_writeUVLC2buffer.37
	movq	%rbx, %rdi
	movq	%r14, %rsi
	callq	writeUVLC2buffer.37
	popq	%rbx
	popq	%r14
	popq	%rbp
	.cfi_def_cfa %rsp, 8
	retq
.LBB14_2:                               # %func_writeUVLC2buffer.80
	.cfi_def_cfa %rbp, 16
	movq	%rbx, %rdi
	movq	%r14, %rsi
	callq	writeUVLC2buffer.80
	popq	%rbx
	popq	%r14
	popq	%rbp
	.cfi_def_cfa %rsp, 8
	retq
.LBB14_3:                               # %func_writeUVLC2buffer.143
	.cfi_def_cfa %rbp, 16
	movq	%rbx, %rdi
	movq	%r14, %rsi
	callq	writeUVLC2buffer.143
	popq	%rbx
	popq	%r14
	popq	%rbp
	.cfi_def_cfa %rsp, 8
	retq
.LBB14_4:                               # %func_writeUVLC2buffer.147
	.cfi_def_cfa %rbp, 16
	movq	%rbx, %rdi
	movq	%r14, %rsi
	callq	writeUVLC2buffer.147
	popq	%rbx
	popq	%r14
	popq	%rbp
	.cfi_def_cfa %rsp, 8
	retq
.LBB14_5:                               # %func_writeUVLC2buffer.161
	.cfi_def_cfa %rbp, 16
	movq	%rbx, %rdi
	movq	%r14, %rsi
	callq	writeUVLC2buffer.161
	popq	%rbx
	popq	%r14
	popq	%rbp
	.cfi_def_cfa %rsp, 8
	retq
.LBB14_6:                               # %func_writeUVLC2buffer.169
	.cfi_def_cfa %rbp, 16
	movq	%rbx, %rdi
	movq	%r14, %rsi
	callq	writeUVLC2buffer.169
	popq	%rbx
	popq	%r14
	popq	%rbp
	.cfi_def_cfa %rsp, 8
	retq
.LBB14_7:                               # %func_writeUVLC2buffer.185
	.cfi_def_cfa %rbp, 16
	movq	%rbx, %rdi
	movq	%r14, %rsi
	callq	writeUVLC2buffer.185
	popq	%rbx
	popq	%r14
	popq	%rbp
	.cfi_def_cfa %rsp, 8
	retq
.LBB14_8:                               # %func_writeUVLC2buffer.196
	.cfi_def_cfa %rbp, 16
	movq	%rbx, %rdi
	movq	%r14, %rsi
	callq	writeUVLC2buffer.196
	popq	%rbx
	popq	%r14
	popq	%rbp
	.cfi_def_cfa %rsp, 8
	retq
.LBB14_9:                               # %func_writeUVLC2buffer.202
	.cfi_def_cfa %rbp, 16
	movq	%rbx, %rdi
	movq	%r14, %rsi
	callq	writeUVLC2buffer.202
	popq	%rbx
	popq	%r14
	popq	%rbp
	.cfi_def_cfa %rsp, 8
	retq
.LBB14_10:                              # %func_writeUVLC2buffer.214
	.cfi_def_cfa %rbp, 16
	movq	%rbx, %rdi
	movq	%r14, %rsi
	callq	writeUVLC2buffer.214
	popq	%rbx
	popq	%r14
	popq	%rbp
	.cfi_def_cfa %rsp, 8
	retq
.LBB14_11:                              # %func_writeUVLC2buffer.215
	.cfi_def_cfa %rbp, 16
	movq	%rbx, %rdi
	movq	%r14, %rsi
	callq	writeUVLC2buffer.215
	popq	%rbx
	popq	%r14
	popq	%rbp
	.cfi_def_cfa %rsp, 8
	retq
.LBB14_12:                              # %func_writeUVLC2buffer.231
	.cfi_def_cfa %rbp, 16
	movq	%rbx, %rdi
	movq	%r14, %rsi
	callq	writeUVLC2buffer.231
	popq	%rbx
	popq	%r14
	popq	%rbp
	.cfi_def_cfa %rsp, 8
	retq
.LBB14_13:                              # %func_writeUVLC2buffer.243
	.cfi_def_cfa %rbp, 16
	movq	%rbx, %rdi
	movq	%r14, %rsi
	callq	writeUVLC2buffer.243
	popq	%rbx
	popq	%r14
	popq	%rbp
	.cfi_def_cfa %rsp, 8
	retq
.LBB14_14:                              # %func_writeUVLC2buffer.244
	.cfi_def_cfa %rbp, 16
	movq	%rbx, %rdi
	movq	%r14, %rsi
	callq	writeUVLC2buffer.244
	popq	%rbx
	popq	%r14
	popq	%rbp
	.cfi_def_cfa %rsp, 8
	retq
.LBB14_15:                              # %func_writeUVLC2buffer.251
	.cfi_def_cfa %rbp, 16
	movq	%rbx, %rdi
	movq	%r14, %rsi
	callq	writeUVLC2buffer.251
	popq	%rbx
	popq	%r14
	popq	%rbp
	.cfi_def_cfa %rsp, 8
	retq
.LBB14_16:                              # %func_writeUVLC2buffer.255
	.cfi_def_cfa %rbp, 16
	movq	%rbx, %rdi
	movq	%r14, %rsi
	callq	writeUVLC2buffer.255
	popq	%rbx
	popq	%r14
	popq	%rbp
	.cfi_def_cfa %rsp, 8
	retq
.LBB14_17:                              # %ctrl0
	.cfi_def_cfa %rbp, 16
	cmpl	$1, %eax
	je	.LBB14_2
# %bb.18:                               # %ctrl1
	cmpl	$2, %eax
	je	.LBB14_3
# %bb.19:                               # %ctrl2
	cmpl	$3, %eax
	je	.LBB14_4
# %bb.20:                               # %ctrl3
	cmpl	$4, %eax
	je	.LBB14_5
# %bb.21:                               # %ctrl4
	cmpl	$5, %eax
	je	.LBB14_6
# %bb.22:                               # %ctrl5
	cmpl	$6, %eax
	je	.LBB14_7
# %bb.23:                               # %ctrl6
	cmpl	$7, %eax
	je	.LBB14_8
# %bb.24:                               # %ctrl7
	cmpl	$8, %eax
	je	.LBB14_9
# %bb.25:                               # %ctrl8
	cmpl	$9, %eax
	je	.LBB14_10
# %bb.26:                               # %ctrl9
	cmpl	$10, %eax
	je	.LBB14_11
# %bb.27:                               # %ctrl10
	cmpl	$11, %eax
	je	.LBB14_12
# %bb.28:                               # %ctrl11
	cmpl	$12, %eax
	je	.LBB14_13
# %bb.29:                               # %ctrl12
	cmpl	$13, %eax
	je	.LBB14_14
# %bb.30:                               # %ctrl13
	cmpl	$14, %eax
	je	.LBB14_15
	jmp	.LBB14_16
.Lfunc_end14:
	.size	writeUVLC2buffer, .Lfunc_end14-writeUVLC2buffer
	.cfi_endproc
                                        # -- End function
	.globl	writeSyntaxElement_Intra4x4PredictionMode # -- Begin function writeSyntaxElement_Intra4x4PredictionMode
	.p2align	4, 0x90
	.type	writeSyntaxElement_Intra4x4PredictionMode,@function
writeSyntaxElement_Intra4x4PredictionMode: # @writeSyntaxElement_Intra4x4PredictionMode
	.cfi_startproc
# %bb.0:                                # %rand_bb
	pushq	%rbp
	.cfi_def_cfa_offset 16
	.cfi_offset %rbp, -16
	movq	%rsp, %rbp
	.cfi_def_cfa_register %rbp
	pushq	%r14
	pushq	%rbx
	.cfi_offset %rbx, -32
	.cfi_offset %r14, -24
	movq	%rsi, %r14
	movq	%rdi, %rbx
	callq	get_urand
	cmpl	$0, %eax
	jne	.LBB15_2
# %bb.1:                                # %func_writeSyntaxElement_Intra4x4PredictionMode.73
	movq	%rbx, %rdi
	movq	%r14, %rsi
	callq	writeSyntaxElement_Intra4x4PredictionMode.73
	popq	%rbx
	popq	%r14
	popq	%rbp
	.cfi_def_cfa %rsp, 8
	retq
.LBB15_2:                               # %func_writeSyntaxElement_Intra4x4PredictionMode.84
	.cfi_def_cfa %rbp, 16
	movq	%rbx, %rdi
	movq	%r14, %rsi
	callq	writeSyntaxElement_Intra4x4PredictionMode.84
	popq	%rbx
	popq	%r14
	popq	%rbp
	.cfi_def_cfa %rsp, 8
	retq
.Lfunc_end15:
	.size	writeSyntaxElement_Intra4x4PredictionMode, .Lfunc_end15-writeSyntaxElement_Intra4x4PredictionMode
	.cfi_endproc
                                        # -- End function
	.globl	writeSyntaxElement2Buf_UVLC # -- Begin function writeSyntaxElement2Buf_UVLC
	.p2align	4, 0x90
	.type	writeSyntaxElement2Buf_UVLC,@function
writeSyntaxElement2Buf_UVLC:            # @writeSyntaxElement2Buf_UVLC
	.cfi_startproc
# %bb.0:                                # %rand_bb
	pushq	%rbp
	.cfi_def_cfa_offset 16
	.cfi_offset %rbp, -16
	movq	%rsp, %rbp
	.cfi_def_cfa_register %rbp
	pushq	%r14
	pushq	%rbx
	.cfi_offset %rbx, -32
	.cfi_offset %r14, -24
	movq	%rsi, %r14
	movq	%rdi, %rbx
	callq	get_urand
	cmpl	$0, %eax
	jne	.LBB16_2
# %bb.1:                                # %func_writeSyntaxElement2Buf_UVLC.27
	movq	%rbx, %rdi
	movq	%r14, %rsi
	callq	writeSyntaxElement2Buf_UVLC.27
	popq	%rbx
	popq	%r14
	popq	%rbp
	.cfi_def_cfa %rsp, 8
	retq
.LBB16_2:                               # %func_writeSyntaxElement2Buf_UVLC.57
	.cfi_def_cfa %rbp, 16
	movq	%rbx, %rdi
	movq	%r14, %rsi
	callq	writeSyntaxElement2Buf_UVLC.57
	popq	%rbx
	popq	%r14
	popq	%rbp
	.cfi_def_cfa %rsp, 8
	retq
.Lfunc_end16:
	.size	writeSyntaxElement2Buf_UVLC, .Lfunc_end16-writeSyntaxElement2Buf_UVLC
	.cfi_endproc
                                        # -- End function
	.globl	writeSyntaxElement2Buf_Fixed # -- Begin function writeSyntaxElement2Buf_Fixed
	.p2align	4, 0x90
	.type	writeSyntaxElement2Buf_Fixed,@function
writeSyntaxElement2Buf_Fixed:           # @writeSyntaxElement2Buf_Fixed
	.cfi_startproc
# %bb.0:                                # %rand_bb
	pushq	%rbp
	.cfi_def_cfa_offset 16
	.cfi_offset %rbp, -16
	movq	%rsp, %rbp
	.cfi_def_cfa_register %rbp
	pushq	%r14
	pushq	%rbx
	.cfi_offset %rbx, -32
	.cfi_offset %r14, -24
	movq	%rsi, %r14
	movq	%rdi, %rbx
	callq	get_urand
	cmpl	$0, %eax
	jne	.LBB17_2
# %bb.1:                                # %func_writeSyntaxElement2Buf_Fixed.50
	movq	%rbx, %rdi
	movq	%r14, %rsi
	callq	writeSyntaxElement2Buf_Fixed.50
	popq	%rbx
	popq	%r14
	popq	%rbp
	.cfi_def_cfa %rsp, 8
	retq
.LBB17_2:                               # %func_writeSyntaxElement2Buf_Fixed.99
	.cfi_def_cfa %rbp, 16
	movq	%rbx, %rdi
	movq	%r14, %rsi
	callq	writeSyntaxElement2Buf_Fixed.99
	popq	%rbx
	popq	%r14
	popq	%rbp
	.cfi_def_cfa %rsp, 8
	retq
.Lfunc_end17:
	.size	writeSyntaxElement2Buf_Fixed, .Lfunc_end17-writeSyntaxElement2Buf_Fixed
	.cfi_endproc
                                        # -- End function
	.globl	symbol2vlc              # -- Begin function symbol2vlc
	.p2align	4, 0x90
	.type	symbol2vlc,@function
symbol2vlc:                             # @symbol2vlc
	.cfi_startproc
# %bb.0:                                # %rand_bb
	pushq	%rbp
	.cfi_def_cfa_offset 16
	.cfi_offset %rbp, -16
	movq	%rsp, %rbp
	.cfi_def_cfa_register %rbp
	pushq	%rbx
	pushq	%rax
	.cfi_offset %rbx, -24
	movq	%rdi, %rbx
	callq	get_urand
	cmpl	$0, %eax
	jne	.LBB18_2
# %bb.1:                                # %func_symbol2vlc.22
	movq	%rbx, %rdi
	callq	symbol2vlc.22
	addq	$8, %rsp
	popq	%rbx
	popq	%rbp
	.cfi_def_cfa %rsp, 8
	retq
.LBB18_2:                               # %func_symbol2vlc.44
	.cfi_def_cfa %rbp, 16
	movq	%rbx, %rdi
	callq	symbol2vlc.44
	addq	$8, %rsp
	popq	%rbx
	popq	%rbp
	.cfi_def_cfa %rsp, 8
	retq
.Lfunc_end18:
	.size	symbol2vlc, .Lfunc_end18-symbol2vlc
	.cfi_endproc
                                        # -- End function
	.globl	writeSyntaxElement_VLC  # -- Begin function writeSyntaxElement_VLC
	.p2align	4, 0x90
	.type	writeSyntaxElement_VLC,@function
writeSyntaxElement_VLC:                 # @writeSyntaxElement_VLC
	.cfi_startproc
# %bb.0:                                # %rand_bb
	pushq	%rbp
	.cfi_def_cfa_offset 16
	.cfi_offset %rbp, -16
	movq	%rsp, %rbp
	.cfi_def_cfa_register %rbp
	pushq	%r14
	pushq	%rbx
	.cfi_offset %rbx, -32
	.cfi_offset %r14, -24
	movq	%rsi, %r14
	movq	%rdi, %rbx
	callq	get_urand
	cmpl	$0, %eax
	jne	.LBB19_2
# %bb.1:                                # %func_writeSyntaxElement_VLC.1
	movq	%rbx, %rdi
	movq	%r14, %rsi
	callq	writeSyntaxElement_VLC.1
	popq	%rbx
	popq	%r14
	popq	%rbp
	.cfi_def_cfa %rsp, 8
	retq
.LBB19_2:                               # %func_writeSyntaxElement_VLC.7
	.cfi_def_cfa %rbp, 16
	movq	%rbx, %rdi
	movq	%r14, %rsi
	callq	writeSyntaxElement_VLC.7
	popq	%rbx
	popq	%r14
	popq	%rbp
	.cfi_def_cfa %rsp, 8
	retq
.Lfunc_end19:
	.size	writeSyntaxElement_VLC, .Lfunc_end19-writeSyntaxElement_VLC
	.cfi_endproc
                                        # -- End function
	.globl	writeSyntaxElement_NumCoeffTrailingOnes # -- Begin function writeSyntaxElement_NumCoeffTrailingOnes
	.p2align	4, 0x90
	.type	writeSyntaxElement_NumCoeffTrailingOnes,@function
writeSyntaxElement_NumCoeffTrailingOnes: # @writeSyntaxElement_NumCoeffTrailingOnes
	.cfi_startproc
# %bb.0:                                # %rand_bb
	pushq	%rbp
	.cfi_def_cfa_offset 16
	.cfi_offset %rbp, -16
	movq	%rsp, %rbp
	.cfi_def_cfa_register %rbp
	pushq	%r14
	pushq	%rbx
	.cfi_offset %rbx, -32
	.cfi_offset %r14, -24
	movq	%rsi, %r14
	movq	%rdi, %rbx
	callq	get_urand
	cmpl	$0, %eax
	jne	.LBB20_7
# %bb.1:                                # %func_writeSyntaxElement_NumCoeffTrailingOnes.6
	movq	%rbx, %rdi
	movq	%r14, %rsi
	callq	writeSyntaxElement_NumCoeffTrailingOnes.6
	popq	%rbx
	popq	%r14
	popq	%rbp
	.cfi_def_cfa %rsp, 8
	retq
.LBB20_2:                               # %func_writeSyntaxElement_NumCoeffTrailingOnes.16
	.cfi_def_cfa %rbp, 16
	movq	%rbx, %rdi
	movq	%r14, %rsi
	callq	writeSyntaxElement_NumCoeffTrailingOnes.16
	popq	%rbx
	popq	%r14
	popq	%rbp
	.cfi_def_cfa %rsp, 8
	retq
.LBB20_3:                               # %func_writeSyntaxElement_NumCoeffTrailingOnes.45
	.cfi_def_cfa %rbp, 16
	movq	%rbx, %rdi
	movq	%r14, %rsi
	callq	writeSyntaxElement_NumCoeffTrailingOnes.45
	popq	%rbx
	popq	%r14
	popq	%rbp
	.cfi_def_cfa %rsp, 8
	retq
.LBB20_4:                               # %func_writeSyntaxElement_NumCoeffTrailingOnes.47
	.cfi_def_cfa %rbp, 16
	movq	%rbx, %rdi
	movq	%r14, %rsi
	callq	writeSyntaxElement_NumCoeffTrailingOnes.47
	popq	%rbx
	popq	%r14
	popq	%rbp
	.cfi_def_cfa %rsp, 8
	retq
.LBB20_5:                               # %func_writeSyntaxElement_NumCoeffTrailingOnes.51
	.cfi_def_cfa %rbp, 16
	movq	%rbx, %rdi
	movq	%r14, %rsi
	callq	writeSyntaxElement_NumCoeffTrailingOnes.51
	popq	%rbx
	popq	%r14
	popq	%rbp
	.cfi_def_cfa %rsp, 8
	retq
.LBB20_6:                               # %func_writeSyntaxElement_NumCoeffTrailingOnes.70
	.cfi_def_cfa %rbp, 16
	movq	%rbx, %rdi
	movq	%r14, %rsi
	callq	writeSyntaxElement_NumCoeffTrailingOnes.70
	popq	%rbx
	popq	%r14
	popq	%rbp
	.cfi_def_cfa %rsp, 8
	retq
.LBB20_7:                               # %ctrl0
	.cfi_def_cfa %rbp, 16
	cmpl	$1, %eax
	je	.LBB20_2
# %bb.8:                                # %ctrl1
	cmpl	$2, %eax
	je	.LBB20_3
# %bb.9:                                # %ctrl2
	cmpl	$3, %eax
	je	.LBB20_4
# %bb.10:                               # %ctrl3
	cmpl	$4, %eax
	je	.LBB20_5
	jmp	.LBB20_6
.Lfunc_end20:
	.size	writeSyntaxElement_NumCoeffTrailingOnes, .Lfunc_end20-writeSyntaxElement_NumCoeffTrailingOnes
	.cfi_endproc
                                        # -- End function
	.globl	writeSyntaxElement_NumCoeffTrailingOnesChromaDC # -- Begin function writeSyntaxElement_NumCoeffTrailingOnesChromaDC
	.p2align	4, 0x90
	.type	writeSyntaxElement_NumCoeffTrailingOnesChromaDC,@function
writeSyntaxElement_NumCoeffTrailingOnesChromaDC: # @writeSyntaxElement_NumCoeffTrailingOnesChromaDC
	.cfi_startproc
# %bb.0:                                # %rand_bb
	pushq	%rbp
	.cfi_def_cfa_offset 16
	.cfi_offset %rbp, -16
	movq	%rsp, %rbp
	.cfi_def_cfa_register %rbp
	pushq	%r14
	pushq	%rbx
	.cfi_offset %rbx, -32
	.cfi_offset %r14, -24
	movq	%rsi, %r14
	movq	%rdi, %rbx
	callq	get_urand
	cmpl	$0, %eax
	jne	.LBB21_7
# %bb.1:                                # %func_writeSyntaxElement_NumCoeffTrailingOnesChromaDC.31
	movq	%rbx, %rdi
	movq	%r14, %rsi
	callq	writeSyntaxElement_NumCoeffTrailingOnesChromaDC.31
	popq	%rbx
	popq	%r14
	popq	%rbp
	.cfi_def_cfa %rsp, 8
	retq
.LBB21_2:                               # %func_writeSyntaxElement_NumCoeffTrailingOnesChromaDC.33
	.cfi_def_cfa %rbp, 16
	movq	%rbx, %rdi
	movq	%r14, %rsi
	callq	writeSyntaxElement_NumCoeffTrailingOnesChromaDC.33
	popq	%rbx
	popq	%r14
	popq	%rbp
	.cfi_def_cfa %rsp, 8
	retq
.LBB21_3:                               # %func_writeSyntaxElement_NumCoeffTrailingOnesChromaDC.60
	.cfi_def_cfa %rbp, 16
	movq	%rbx, %rdi
	movq	%r14, %rsi
	callq	writeSyntaxElement_NumCoeffTrailingOnesChromaDC.60
	popq	%rbx
	popq	%r14
	popq	%rbp
	.cfi_def_cfa %rsp, 8
	retq
.LBB21_4:                               # %func_writeSyntaxElement_NumCoeffTrailingOnesChromaDC.68
	.cfi_def_cfa %rbp, 16
	movq	%rbx, %rdi
	movq	%r14, %rsi
	callq	writeSyntaxElement_NumCoeffTrailingOnesChromaDC.68
	popq	%rbx
	popq	%r14
	popq	%rbp
	.cfi_def_cfa %rsp, 8
	retq
.LBB21_5:                               # %func_writeSyntaxElement_NumCoeffTrailingOnesChromaDC.74
	.cfi_def_cfa %rbp, 16
	movq	%rbx, %rdi
	movq	%r14, %rsi
	callq	writeSyntaxElement_NumCoeffTrailingOnesChromaDC.74
	popq	%rbx
	popq	%r14
	popq	%rbp
	.cfi_def_cfa %rsp, 8
	retq
.LBB21_6:                               # %func_writeSyntaxElement_NumCoeffTrailingOnesChromaDC.88
	.cfi_def_cfa %rbp, 16
	movq	%rbx, %rdi
	movq	%r14, %rsi
	callq	writeSyntaxElement_NumCoeffTrailingOnesChromaDC.88
	popq	%rbx
	popq	%r14
	popq	%rbp
	.cfi_def_cfa %rsp, 8
	retq
.LBB21_7:                               # %ctrl0
	.cfi_def_cfa %rbp, 16
	cmpl	$1, %eax
	je	.LBB21_2
# %bb.8:                                # %ctrl1
	cmpl	$2, %eax
	je	.LBB21_3
# %bb.9:                                # %ctrl2
	cmpl	$3, %eax
	je	.LBB21_4
# %bb.10:                               # %ctrl3
	cmpl	$4, %eax
	je	.LBB21_5
	jmp	.LBB21_6
.Lfunc_end21:
	.size	writeSyntaxElement_NumCoeffTrailingOnesChromaDC, .Lfunc_end21-writeSyntaxElement_NumCoeffTrailingOnesChromaDC
	.cfi_endproc
                                        # -- End function
	.globl	writeSyntaxElement_TotalZeros # -- Begin function writeSyntaxElement_TotalZeros
	.p2align	4, 0x90
	.type	writeSyntaxElement_TotalZeros,@function
writeSyntaxElement_TotalZeros:          # @writeSyntaxElement_TotalZeros
	.cfi_startproc
# %bb.0:                                # %rand_bb
	pushq	%rbp
	.cfi_def_cfa_offset 16
	.cfi_offset %rbp, -16
	movq	%rsp, %rbp
	.cfi_def_cfa_register %rbp
	pushq	%r14
	pushq	%rbx
	.cfi_offset %rbx, -32
	.cfi_offset %r14, -24
	movq	%rsi, %r14
	movq	%rdi, %rbx
	callq	get_urand
	cmpl	$0, %eax
	jne	.LBB22_7
# %bb.1:                                # %func_writeSyntaxElement_TotalZeros.15
	movq	%rbx, %rdi
	movq	%r14, %rsi
	callq	writeSyntaxElement_TotalZeros.15
	popq	%rbx
	popq	%r14
	popq	%rbp
	.cfi_def_cfa %rsp, 8
	retq
.LBB22_2:                               # %func_writeSyntaxElement_TotalZeros.86
	.cfi_def_cfa %rbp, 16
	movq	%rbx, %rdi
	movq	%r14, %rsi
	callq	writeSyntaxElement_TotalZeros.86
	popq	%rbx
	popq	%r14
	popq	%rbp
	.cfi_def_cfa %rsp, 8
	retq
.LBB22_3:                               # %func_writeSyntaxElement_TotalZeros.111
	.cfi_def_cfa %rbp, 16
	movq	%rbx, %rdi
	movq	%r14, %rsi
	callq	writeSyntaxElement_TotalZeros.111
	popq	%rbx
	popq	%r14
	popq	%rbp
	.cfi_def_cfa %rsp, 8
	retq
.LBB22_4:                               # %func_writeSyntaxElement_TotalZeros.118
	.cfi_def_cfa %rbp, 16
	movq	%rbx, %rdi
	movq	%r14, %rsi
	callq	writeSyntaxElement_TotalZeros.118
	popq	%rbx
	popq	%r14
	popq	%rbp
	.cfi_def_cfa %rsp, 8
	retq
.LBB22_5:                               # %func_writeSyntaxElement_TotalZeros.125
	.cfi_def_cfa %rbp, 16
	movq	%rbx, %rdi
	movq	%r14, %rsi
	callq	writeSyntaxElement_TotalZeros.125
	popq	%rbx
	popq	%r14
	popq	%rbp
	.cfi_def_cfa %rsp, 8
	retq
.LBB22_6:                               # %func_writeSyntaxElement_TotalZeros.142
	.cfi_def_cfa %rbp, 16
	movq	%rbx, %rdi
	movq	%r14, %rsi
	callq	writeSyntaxElement_TotalZeros.142
	popq	%rbx
	popq	%r14
	popq	%rbp
	.cfi_def_cfa %rsp, 8
	retq
.LBB22_7:                               # %ctrl0
	.cfi_def_cfa %rbp, 16
	cmpl	$1, %eax
	je	.LBB22_2
# %bb.8:                                # %ctrl1
	cmpl	$2, %eax
	je	.LBB22_3
# %bb.9:                                # %ctrl2
	cmpl	$3, %eax
	je	.LBB22_4
# %bb.10:                               # %ctrl3
	cmpl	$4, %eax
	je	.LBB22_5
	jmp	.LBB22_6
.Lfunc_end22:
	.size	writeSyntaxElement_TotalZeros, .Lfunc_end22-writeSyntaxElement_TotalZeros
	.cfi_endproc
                                        # -- End function
	.globl	writeSyntaxElement_TotalZerosChromaDC # -- Begin function writeSyntaxElement_TotalZerosChromaDC
	.p2align	4, 0x90
	.type	writeSyntaxElement_TotalZerosChromaDC,@function
writeSyntaxElement_TotalZerosChromaDC:  # @writeSyntaxElement_TotalZerosChromaDC
	.cfi_startproc
# %bb.0:                                # %rand_bb
	pushq	%rbp
	.cfi_def_cfa_offset 16
	.cfi_offset %rbp, -16
	movq	%rsp, %rbp
	.cfi_def_cfa_register %rbp
	pushq	%r14
	pushq	%rbx
	.cfi_offset %rbx, -32
	.cfi_offset %r14, -24
	movq	%rsi, %r14
	movq	%rdi, %rbx
	callq	get_urand
	cmpl	$0, %eax
	jne	.LBB23_17
# %bb.1:                                # %func_writeSyntaxElement_TotalZerosChromaDC.49
	movq	%rbx, %rdi
	movq	%r14, %rsi
	callq	writeSyntaxElement_TotalZerosChromaDC.49
	popq	%rbx
	popq	%r14
	popq	%rbp
	.cfi_def_cfa %rsp, 8
	retq
.LBB23_2:                               # %func_writeSyntaxElement_TotalZerosChromaDC.92
	.cfi_def_cfa %rbp, 16
	movq	%rbx, %rdi
	movq	%r14, %rsi
	callq	writeSyntaxElement_TotalZerosChromaDC.92
	popq	%rbx
	popq	%r14
	popq	%rbp
	.cfi_def_cfa %rsp, 8
	retq
.LBB23_3:                               # %func_writeSyntaxElement_TotalZerosChromaDC.110
	.cfi_def_cfa %rbp, 16
	movq	%rbx, %rdi
	movq	%r14, %rsi
	callq	writeSyntaxElement_TotalZerosChromaDC.110
	popq	%rbx
	popq	%r14
	popq	%rbp
	.cfi_def_cfa %rsp, 8
	retq
.LBB23_4:                               # %func_writeSyntaxElement_TotalZerosChromaDC.134
	.cfi_def_cfa %rbp, 16
	movq	%rbx, %rdi
	movq	%r14, %rsi
	callq	writeSyntaxElement_TotalZerosChromaDC.134
	popq	%rbx
	popq	%r14
	popq	%rbp
	.cfi_def_cfa %rsp, 8
	retq
.LBB23_5:                               # %func_writeSyntaxElement_TotalZerosChromaDC.150
	.cfi_def_cfa %rbp, 16
	movq	%rbx, %rdi
	movq	%r14, %rsi
	callq	writeSyntaxElement_TotalZerosChromaDC.150
	popq	%rbx
	popq	%r14
	popq	%rbp
	.cfi_def_cfa %rsp, 8
	retq
.LBB23_6:                               # %func_writeSyntaxElement_TotalZerosChromaDC.151
	.cfi_def_cfa %rbp, 16
	movq	%rbx, %rdi
	movq	%r14, %rsi
	callq	writeSyntaxElement_TotalZerosChromaDC.151
	popq	%rbx
	popq	%r14
	popq	%rbp
	.cfi_def_cfa %rsp, 8
	retq
.LBB23_7:                               # %func_writeSyntaxElement_TotalZerosChromaDC.216
	.cfi_def_cfa %rbp, 16
	movq	%rbx, %rdi
	movq	%r14, %rsi
	callq	writeSyntaxElement_TotalZerosChromaDC.216
	popq	%rbx
	popq	%r14
	popq	%rbp
	.cfi_def_cfa %rsp, 8
	retq
.LBB23_8:                               # %func_writeSyntaxElement_TotalZerosChromaDC.229
	.cfi_def_cfa %rbp, 16
	movq	%rbx, %rdi
	movq	%r14, %rsi
	callq	writeSyntaxElement_TotalZerosChromaDC.229
	popq	%rbx
	popq	%r14
	popq	%rbp
	.cfi_def_cfa %rsp, 8
	retq
.LBB23_9:                               # %func_writeSyntaxElement_TotalZerosChromaDC.242
	.cfi_def_cfa %rbp, 16
	movq	%rbx, %rdi
	movq	%r14, %rsi
	callq	writeSyntaxElement_TotalZerosChromaDC.242
	popq	%rbx
	popq	%r14
	popq	%rbp
	.cfi_def_cfa %rsp, 8
	retq
.LBB23_10:                              # %func_writeSyntaxElement_TotalZerosChromaDC.253
	.cfi_def_cfa %rbp, 16
	movq	%rbx, %rdi
	movq	%r14, %rsi
	callq	writeSyntaxElement_TotalZerosChromaDC.253
	popq	%rbx
	popq	%r14
	popq	%rbp
	.cfi_def_cfa %rsp, 8
	retq
.LBB23_11:                              # %func_writeSyntaxElement_TotalZerosChromaDC.256
	.cfi_def_cfa %rbp, 16
	movq	%rbx, %rdi
	movq	%r14, %rsi
	callq	writeSyntaxElement_TotalZerosChromaDC.256
	popq	%rbx
	popq	%r14
	popq	%rbp
	.cfi_def_cfa %rsp, 8
	retq
.LBB23_12:                              # %func_writeSyntaxElement_TotalZerosChromaDC.264
	.cfi_def_cfa %rbp, 16
	movq	%rbx, %rdi
	movq	%r14, %rsi
	callq	writeSyntaxElement_TotalZerosChromaDC.264
	popq	%rbx
	popq	%r14
	popq	%rbp
	.cfi_def_cfa %rsp, 8
	retq
.LBB23_13:                              # %func_writeSyntaxElement_TotalZerosChromaDC.266
	.cfi_def_cfa %rbp, 16
	movq	%rbx, %rdi
	movq	%r14, %rsi
	callq	writeSyntaxElement_TotalZerosChromaDC.266
	popq	%rbx
	popq	%r14
	popq	%rbp
	.cfi_def_cfa %rsp, 8
	retq
.LBB23_14:                              # %func_writeSyntaxElement_TotalZerosChromaDC.267
	.cfi_def_cfa %rbp, 16
	movq	%rbx, %rdi
	movq	%r14, %rsi
	callq	writeSyntaxElement_TotalZerosChromaDC.267
	popq	%rbx
	popq	%r14
	popq	%rbp
	.cfi_def_cfa %rsp, 8
	retq
.LBB23_15:                              # %func_writeSyntaxElement_TotalZerosChromaDC.269
	.cfi_def_cfa %rbp, 16
	movq	%rbx, %rdi
	movq	%r14, %rsi
	callq	writeSyntaxElement_TotalZerosChromaDC.269
	popq	%rbx
	popq	%r14
	popq	%rbp
	.cfi_def_cfa %rsp, 8
	retq
.LBB23_16:                              # %func_writeSyntaxElement_TotalZerosChromaDC.273
	.cfi_def_cfa %rbp, 16
	movq	%rbx, %rdi
	movq	%r14, %rsi
	callq	writeSyntaxElement_TotalZerosChromaDC.273
	popq	%rbx
	popq	%r14
	popq	%rbp
	.cfi_def_cfa %rsp, 8
	retq
.LBB23_17:                              # %ctrl0
	.cfi_def_cfa %rbp, 16
	cmpl	$1, %eax
	je	.LBB23_2
# %bb.18:                               # %ctrl1
	cmpl	$2, %eax
	je	.LBB23_3
# %bb.19:                               # %ctrl2
	cmpl	$3, %eax
	je	.LBB23_4
# %bb.20:                               # %ctrl3
	cmpl	$4, %eax
	je	.LBB23_5
# %bb.21:                               # %ctrl4
	cmpl	$5, %eax
	je	.LBB23_6
# %bb.22:                               # %ctrl5
	cmpl	$6, %eax
	je	.LBB23_7
# %bb.23:                               # %ctrl6
	cmpl	$7, %eax
	je	.LBB23_8
# %bb.24:                               # %ctrl7
	cmpl	$8, %eax
	je	.LBB23_9
# %bb.25:                               # %ctrl8
	cmpl	$9, %eax
	je	.LBB23_10
# %bb.26:                               # %ctrl9
	cmpl	$10, %eax
	je	.LBB23_11
# %bb.27:                               # %ctrl10
	cmpl	$11, %eax
	je	.LBB23_12
# %bb.28:                               # %ctrl11
	cmpl	$12, %eax
	je	.LBB23_13
# %bb.29:                               # %ctrl12
	cmpl	$13, %eax
	je	.LBB23_14
# %bb.30:                               # %ctrl13
	cmpl	$14, %eax
	je	.LBB23_15
	jmp	.LBB23_16
.Lfunc_end23:
	.size	writeSyntaxElement_TotalZerosChromaDC, .Lfunc_end23-writeSyntaxElement_TotalZerosChromaDC
	.cfi_endproc
                                        # -- End function
	.globl	writeSyntaxElement_Run  # -- Begin function writeSyntaxElement_Run
	.p2align	4, 0x90
	.type	writeSyntaxElement_Run,@function
writeSyntaxElement_Run:                 # @writeSyntaxElement_Run
	.cfi_startproc
# %bb.0:                                # %rand_bb
	pushq	%rbp
	.cfi_def_cfa_offset 16
	.cfi_offset %rbp, -16
	movq	%rsp, %rbp
	.cfi_def_cfa_register %rbp
	pushq	%r14
	pushq	%rbx
	.cfi_offset %rbx, -32
	.cfi_offset %r14, -24
	movq	%rsi, %r14
	movq	%rdi, %rbx
	callq	get_urand
	cmpl	$0, %eax
	jne	.LBB24_7
# %bb.1:                                # %func_writeSyntaxElement_Run.20
	movq	%rbx, %rdi
	movq	%r14, %rsi
	callq	writeSyntaxElement_Run.20
	popq	%rbx
	popq	%r14
	popq	%rbp
	.cfi_def_cfa %rsp, 8
	retq
.LBB24_2:                               # %func_writeSyntaxElement_Run.81
	.cfi_def_cfa %rbp, 16
	movq	%rbx, %rdi
	movq	%r14, %rsi
	callq	writeSyntaxElement_Run.81
	popq	%rbx
	popq	%r14
	popq	%rbp
	.cfi_def_cfa %rsp, 8
	retq
.LBB24_3:                               # %func_writeSyntaxElement_Run.83
	.cfi_def_cfa %rbp, 16
	movq	%rbx, %rdi
	movq	%r14, %rsi
	callq	writeSyntaxElement_Run.83
	popq	%rbx
	popq	%r14
	popq	%rbp
	.cfi_def_cfa %rsp, 8
	retq
.LBB24_4:                               # %func_writeSyntaxElement_Run.93
	.cfi_def_cfa %rbp, 16
	movq	%rbx, %rdi
	movq	%r14, %rsi
	callq	writeSyntaxElement_Run.93
	popq	%rbx
	popq	%r14
	popq	%rbp
	.cfi_def_cfa %rsp, 8
	retq
.LBB24_5:                               # %func_writeSyntaxElement_Run.104
	.cfi_def_cfa %rbp, 16
	movq	%rbx, %rdi
	movq	%r14, %rsi
	callq	writeSyntaxElement_Run.104
	popq	%rbx
	popq	%r14
	popq	%rbp
	.cfi_def_cfa %rsp, 8
	retq
.LBB24_6:                               # %func_writeSyntaxElement_Run.116
	.cfi_def_cfa %rbp, 16
	movq	%rbx, %rdi
	movq	%r14, %rsi
	callq	writeSyntaxElement_Run.116
	popq	%rbx
	popq	%r14
	popq	%rbp
	.cfi_def_cfa %rsp, 8
	retq
.LBB24_7:                               # %ctrl0
	.cfi_def_cfa %rbp, 16
	cmpl	$1, %eax
	je	.LBB24_2
# %bb.8:                                # %ctrl1
	cmpl	$2, %eax
	je	.LBB24_3
# %bb.9:                                # %ctrl2
	cmpl	$3, %eax
	je	.LBB24_4
# %bb.10:                               # %ctrl3
	cmpl	$4, %eax
	je	.LBB24_5
	jmp	.LBB24_6
.Lfunc_end24:
	.size	writeSyntaxElement_Run, .Lfunc_end24-writeSyntaxElement_Run
	.cfi_endproc
                                        # -- End function
	.globl	writeSyntaxElement_Level_VLC1 # -- Begin function writeSyntaxElement_Level_VLC1
	.p2align	4, 0x90
	.type	writeSyntaxElement_Level_VLC1,@function
writeSyntaxElement_Level_VLC1:          # @writeSyntaxElement_Level_VLC1
	.cfi_startproc
# %bb.0:                                # %rand_bb
	pushq	%rbp
	.cfi_def_cfa_offset 16
	.cfi_offset %rbp, -16
	movq	%rsp, %rbp
	.cfi_def_cfa_register %rbp
	pushq	%r14
	pushq	%rbx
	.cfi_offset %rbx, -32
	.cfi_offset %r14, -24
	movq	%rsi, %r14
	movq	%rdi, %rbx
	callq	get_urand
	cmpl	$0, %eax
	jne	.LBB25_17
# %bb.1:                                # %func_writeSyntaxElement_Level_VLC1.9
	movq	%rbx, %rdi
	movq	%r14, %rsi
	callq	writeSyntaxElement_Level_VLC1.9
	popq	%rbx
	popq	%r14
	popq	%rbp
	.cfi_def_cfa %rsp, 8
	retq
.LBB25_2:                               # %func_writeSyntaxElement_Level_VLC1.23
	.cfi_def_cfa %rbp, 16
	movq	%rbx, %rdi
	movq	%r14, %rsi
	callq	writeSyntaxElement_Level_VLC1.23
	popq	%rbx
	popq	%r14
	popq	%rbp
	.cfi_def_cfa %rsp, 8
	retq
.LBB25_3:                               # %func_writeSyntaxElement_Level_VLC1.41
	.cfi_def_cfa %rbp, 16
	movq	%rbx, %rdi
	movq	%r14, %rsi
	callq	writeSyntaxElement_Level_VLC1.41
	popq	%rbx
	popq	%r14
	popq	%rbp
	.cfi_def_cfa %rsp, 8
	retq
.LBB25_4:                               # %func_writeSyntaxElement_Level_VLC1.101
	.cfi_def_cfa %rbp, 16
	movq	%rbx, %rdi
	movq	%r14, %rsi
	callq	writeSyntaxElement_Level_VLC1.101
	popq	%rbx
	popq	%r14
	popq	%rbp
	.cfi_def_cfa %rsp, 8
	retq
.LBB25_5:                               # %func_writeSyntaxElement_Level_VLC1.133
	.cfi_def_cfa %rbp, 16
	movq	%rbx, %rdi
	movq	%r14, %rsi
	callq	writeSyntaxElement_Level_VLC1.133
	popq	%rbx
	popq	%r14
	popq	%rbp
	.cfi_def_cfa %rsp, 8
	retq
.LBB25_6:                               # %func_writeSyntaxElement_Level_VLC1.145
	.cfi_def_cfa %rbp, 16
	movq	%rbx, %rdi
	movq	%r14, %rsi
	callq	writeSyntaxElement_Level_VLC1.145
	popq	%rbx
	popq	%r14
	popq	%rbp
	.cfi_def_cfa %rsp, 8
	retq
.LBB25_7:                               # %func_writeSyntaxElement_Level_VLC1.146
	.cfi_def_cfa %rbp, 16
	movq	%rbx, %rdi
	movq	%r14, %rsi
	callq	writeSyntaxElement_Level_VLC1.146
	popq	%rbx
	popq	%r14
	popq	%rbp
	.cfi_def_cfa %rsp, 8
	retq
.LBB25_8:                               # %func_writeSyntaxElement_Level_VLC1.156
	.cfi_def_cfa %rbp, 16
	movq	%rbx, %rdi
	movq	%r14, %rsi
	callq	writeSyntaxElement_Level_VLC1.156
	popq	%rbx
	popq	%r14
	popq	%rbp
	.cfi_def_cfa %rsp, 8
	retq
.LBB25_9:                               # %func_writeSyntaxElement_Level_VLC1.157
	.cfi_def_cfa %rbp, 16
	movq	%rbx, %rdi
	movq	%r14, %rsi
	callq	writeSyntaxElement_Level_VLC1.157
	popq	%rbx
	popq	%r14
	popq	%rbp
	.cfi_def_cfa %rsp, 8
	retq
.LBB25_10:                              # %func_writeSyntaxElement_Level_VLC1.164
	.cfi_def_cfa %rbp, 16
	movq	%rbx, %rdi
	movq	%r14, %rsi
	callq	writeSyntaxElement_Level_VLC1.164
	popq	%rbx
	popq	%r14
	popq	%rbp
	.cfi_def_cfa %rsp, 8
	retq
.LBB25_11:                              # %func_writeSyntaxElement_Level_VLC1.177
	.cfi_def_cfa %rbp, 16
	movq	%rbx, %rdi
	movq	%r14, %rsi
	callq	writeSyntaxElement_Level_VLC1.177
	popq	%rbx
	popq	%r14
	popq	%rbp
	.cfi_def_cfa %rsp, 8
	retq
.LBB25_12:                              # %func_writeSyntaxElement_Level_VLC1.192
	.cfi_def_cfa %rbp, 16
	movq	%rbx, %rdi
	movq	%r14, %rsi
	callq	writeSyntaxElement_Level_VLC1.192
	popq	%rbx
	popq	%r14
	popq	%rbp
	.cfi_def_cfa %rsp, 8
	retq
.LBB25_13:                              # %func_writeSyntaxElement_Level_VLC1.213
	.cfi_def_cfa %rbp, 16
	movq	%rbx, %rdi
	movq	%r14, %rsi
	callq	writeSyntaxElement_Level_VLC1.213
	popq	%rbx
	popq	%r14
	popq	%rbp
	.cfi_def_cfa %rsp, 8
	retq
.LBB25_14:                              # %func_writeSyntaxElement_Level_VLC1.236
	.cfi_def_cfa %rbp, 16
	movq	%rbx, %rdi
	movq	%r14, %rsi
	callq	writeSyntaxElement_Level_VLC1.236
	popq	%rbx
	popq	%r14
	popq	%rbp
	.cfi_def_cfa %rsp, 8
	retq
.LBB25_15:                              # %func_writeSyntaxElement_Level_VLC1.248
	.cfi_def_cfa %rbp, 16
	movq	%rbx, %rdi
	movq	%r14, %rsi
	callq	writeSyntaxElement_Level_VLC1.248
	popq	%rbx
	popq	%r14
	popq	%rbp
	.cfi_def_cfa %rsp, 8
	retq
.LBB25_16:                              # %func_writeSyntaxElement_Level_VLC1.250
	.cfi_def_cfa %rbp, 16
	movq	%rbx, %rdi
	movq	%r14, %rsi
	callq	writeSyntaxElement_Level_VLC1.250
	popq	%rbx
	popq	%r14
	popq	%rbp
	.cfi_def_cfa %rsp, 8
	retq
.LBB25_17:                              # %ctrl0
	.cfi_def_cfa %rbp, 16
	cmpl	$1, %eax
	je	.LBB25_2
# %bb.18:                               # %ctrl1
	cmpl	$2, %eax
	je	.LBB25_3
# %bb.19:                               # %ctrl2
	cmpl	$3, %eax
	je	.LBB25_4
# %bb.20:                               # %ctrl3
	cmpl	$4, %eax
	je	.LBB25_5
# %bb.21:                               # %ctrl4
	cmpl	$5, %eax
	je	.LBB25_6
# %bb.22:                               # %ctrl5
	cmpl	$6, %eax
	je	.LBB25_7
# %bb.23:                               # %ctrl6
	cmpl	$7, %eax
	je	.LBB25_8
# %bb.24:                               # %ctrl7
	cmpl	$8, %eax
	je	.LBB25_9
# %bb.25:                               # %ctrl8
	cmpl	$9, %eax
	je	.LBB25_10
# %bb.26:                               # %ctrl9
	cmpl	$10, %eax
	je	.LBB25_11
# %bb.27:                               # %ctrl10
	cmpl	$11, %eax
	je	.LBB25_12
# %bb.28:                               # %ctrl11
	cmpl	$12, %eax
	je	.LBB25_13
# %bb.29:                               # %ctrl12
	cmpl	$13, %eax
	je	.LBB25_14
# %bb.30:                               # %ctrl13
	cmpl	$14, %eax
	je	.LBB25_15
	jmp	.LBB25_16
.Lfunc_end25:
	.size	writeSyntaxElement_Level_VLC1, .Lfunc_end25-writeSyntaxElement_Level_VLC1
	.cfi_endproc
                                        # -- End function
	.globl	writeSyntaxElement_Level_VLCN # -- Begin function writeSyntaxElement_Level_VLCN
	.p2align	4, 0x90
	.type	writeSyntaxElement_Level_VLCN,@function
writeSyntaxElement_Level_VLCN:          # @writeSyntaxElement_Level_VLCN
	.cfi_startproc
# %bb.0:                                # %rand_bb
	pushq	%rbp
	.cfi_def_cfa_offset 16
	.cfi_offset %rbp, -16
	movq	%rsp, %rbp
	.cfi_def_cfa_register %rbp
	pushq	%r15
	pushq	%r14
	pushq	%rbx
	pushq	%rax
	.cfi_offset %rbx, -40
	.cfi_offset %r14, -32
	.cfi_offset %r15, -24
	movq	%rdx, %r14
	movl	%esi, %r15d
	movq	%rdi, %rbx
	callq	get_urand
	cmpl	$0, %eax
	jne	.LBB26_17
# %bb.1:                                # %func_writeSyntaxElement_Level_VLCN.12
	movq	%rbx, %rdi
	movl	%r15d, %esi
	movq	%r14, %rdx
	callq	writeSyntaxElement_Level_VLCN.12
	addq	$8, %rsp
	popq	%rbx
	popq	%r14
	popq	%r15
	popq	%rbp
	.cfi_def_cfa %rsp, 8
	retq
.LBB26_2:                               # %func_writeSyntaxElement_Level_VLCN.18
	.cfi_def_cfa %rbp, 16
	movq	%rbx, %rdi
	movl	%r15d, %esi
	movq	%r14, %rdx
	callq	writeSyntaxElement_Level_VLCN.18
	addq	$8, %rsp
	popq	%rbx
	popq	%r14
	popq	%r15
	popq	%rbp
	.cfi_def_cfa %rsp, 8
	retq
.LBB26_3:                               # %func_writeSyntaxElement_Level_VLCN.38
	.cfi_def_cfa %rbp, 16
	movq	%rbx, %rdi
	movl	%r15d, %esi
	movq	%r14, %rdx
	callq	writeSyntaxElement_Level_VLCN.38
	addq	$8, %rsp
	popq	%rbx
	popq	%r14
	popq	%r15
	popq	%rbp
	.cfi_def_cfa %rsp, 8
	retq
.LBB26_4:                               # %func_writeSyntaxElement_Level_VLCN.59
	.cfi_def_cfa %rbp, 16
	movq	%rbx, %rdi
	movl	%r15d, %esi
	movq	%r14, %rdx
	callq	writeSyntaxElement_Level_VLCN.59
	addq	$8, %rsp
	popq	%rbx
	popq	%r14
	popq	%r15
	popq	%rbp
	.cfi_def_cfa %rsp, 8
	retq
.LBB26_5:                               # %func_writeSyntaxElement_Level_VLCN.130
	.cfi_def_cfa %rbp, 16
	movq	%rbx, %rdi
	movl	%r15d, %esi
	movq	%r14, %rdx
	callq	writeSyntaxElement_Level_VLCN.130
	addq	$8, %rsp
	popq	%rbx
	popq	%r14
	popq	%r15
	popq	%rbp
	.cfi_def_cfa %rsp, 8
	retq
.LBB26_6:                               # %func_writeSyntaxElement_Level_VLCN.132
	.cfi_def_cfa %rbp, 16
	movq	%rbx, %rdi
	movl	%r15d, %esi
	movq	%r14, %rdx
	callq	writeSyntaxElement_Level_VLCN.132
	addq	$8, %rsp
	popq	%rbx
	popq	%r14
	popq	%r15
	popq	%rbp
	.cfi_def_cfa %rsp, 8
	retq
.LBB26_7:                               # %func_writeSyntaxElement_Level_VLCN.135
	.cfi_def_cfa %rbp, 16
	movq	%rbx, %rdi
	movl	%r15d, %esi
	movq	%r14, %rdx
	callq	writeSyntaxElement_Level_VLCN.135
	addq	$8, %rsp
	popq	%rbx
	popq	%r14
	popq	%r15
	popq	%rbp
	.cfi_def_cfa %rsp, 8
	retq
.LBB26_8:                               # %func_writeSyntaxElement_Level_VLCN.159
	.cfi_def_cfa %rbp, 16
	movq	%rbx, %rdi
	movl	%r15d, %esi
	movq	%r14, %rdx
	callq	writeSyntaxElement_Level_VLCN.159
	addq	$8, %rsp
	popq	%rbx
	popq	%r14
	popq	%r15
	popq	%rbp
	.cfi_def_cfa %rsp, 8
	retq
.LBB26_9:                               # %func_writeSyntaxElement_Level_VLCN.166
	.cfi_def_cfa %rbp, 16
	movq	%rbx, %rdi
	movl	%r15d, %esi
	movq	%r14, %rdx
	callq	writeSyntaxElement_Level_VLCN.166
	addq	$8, %rsp
	popq	%rbx
	popq	%r14
	popq	%r15
	popq	%rbp
	.cfi_def_cfa %rsp, 8
	retq
.LBB26_10:                              # %func_writeSyntaxElement_Level_VLCN.191
	.cfi_def_cfa %rbp, 16
	movq	%rbx, %rdi
	movl	%r15d, %esi
	movq	%r14, %rdx
	callq	writeSyntaxElement_Level_VLCN.191
	addq	$8, %rsp
	popq	%rbx
	popq	%r14
	popq	%r15
	popq	%rbp
	.cfi_def_cfa %rsp, 8
	retq
.LBB26_11:                              # %func_writeSyntaxElement_Level_VLCN.195
	.cfi_def_cfa %rbp, 16
	movq	%rbx, %rdi
	movl	%r15d, %esi
	movq	%r14, %rdx
	callq	writeSyntaxElement_Level_VLCN.195
	addq	$8, %rsp
	popq	%rbx
	popq	%r14
	popq	%r15
	popq	%rbp
	.cfi_def_cfa %rsp, 8
	retq
.LBB26_12:                              # %func_writeSyntaxElement_Level_VLCN.211
	.cfi_def_cfa %rbp, 16
	movq	%rbx, %rdi
	movl	%r15d, %esi
	movq	%r14, %rdx
	callq	writeSyntaxElement_Level_VLCN.211
	addq	$8, %rsp
	popq	%rbx
	popq	%r14
	popq	%r15
	popq	%rbp
	.cfi_def_cfa %rsp, 8
	retq
.LBB26_13:                              # %func_writeSyntaxElement_Level_VLCN.217
	.cfi_def_cfa %rbp, 16
	movq	%rbx, %rdi
	movl	%r15d, %esi
	movq	%r14, %rdx
	callq	writeSyntaxElement_Level_VLCN.217
	addq	$8, %rsp
	popq	%rbx
	popq	%r14
	popq	%r15
	popq	%rbp
	.cfi_def_cfa %rsp, 8
	retq
.LBB26_14:                              # %func_writeSyntaxElement_Level_VLCN.221
	.cfi_def_cfa %rbp, 16
	movq	%rbx, %rdi
	movl	%r15d, %esi
	movq	%r14, %rdx
	callq	writeSyntaxElement_Level_VLCN.221
	addq	$8, %rsp
	popq	%rbx
	popq	%r14
	popq	%r15
	popq	%rbp
	.cfi_def_cfa %rsp, 8
	retq
.LBB26_15:                              # %func_writeSyntaxElement_Level_VLCN.223
	.cfi_def_cfa %rbp, 16
	movq	%rbx, %rdi
	movl	%r15d, %esi
	movq	%r14, %rdx
	callq	writeSyntaxElement_Level_VLCN.223
	addq	$8, %rsp
	popq	%rbx
	popq	%r14
	popq	%r15
	popq	%rbp
	.cfi_def_cfa %rsp, 8
	retq
.LBB26_16:                              # %func_writeSyntaxElement_Level_VLCN.225
	.cfi_def_cfa %rbp, 16
	movq	%rbx, %rdi
	movl	%r15d, %esi
	movq	%r14, %rdx
	callq	writeSyntaxElement_Level_VLCN.225
	addq	$8, %rsp
	popq	%rbx
	popq	%r14
	popq	%r15
	popq	%rbp
	.cfi_def_cfa %rsp, 8
	retq
.LBB26_17:                              # %ctrl0
	.cfi_def_cfa %rbp, 16
	cmpl	$1, %eax
	je	.LBB26_2
# %bb.18:                               # %ctrl1
	cmpl	$2, %eax
	je	.LBB26_3
# %bb.19:                               # %ctrl2
	cmpl	$3, %eax
	je	.LBB26_4
# %bb.20:                               # %ctrl3
	cmpl	$4, %eax
	je	.LBB26_5
# %bb.21:                               # %ctrl4
	cmpl	$5, %eax
	je	.LBB26_6
# %bb.22:                               # %ctrl5
	cmpl	$6, %eax
	je	.LBB26_7
# %bb.23:                               # %ctrl6
	cmpl	$7, %eax
	je	.LBB26_8
# %bb.24:                               # %ctrl7
	cmpl	$8, %eax
	je	.LBB26_9
# %bb.25:                               # %ctrl8
	cmpl	$9, %eax
	je	.LBB26_10
# %bb.26:                               # %ctrl9
	cmpl	$10, %eax
	je	.LBB26_11
# %bb.27:                               # %ctrl10
	cmpl	$11, %eax
	je	.LBB26_12
# %bb.28:                               # %ctrl11
	cmpl	$12, %eax
	je	.LBB26_13
# %bb.29:                               # %ctrl12
	cmpl	$13, %eax
	je	.LBB26_14
# %bb.30:                               # %ctrl13
	cmpl	$14, %eax
	je	.LBB26_15
	jmp	.LBB26_16
.Lfunc_end26:
	.size	writeSyntaxElement_Level_VLCN, .Lfunc_end26-writeSyntaxElement_Level_VLCN
	.cfi_endproc
                                        # -- End function
	.globl	writeVlcByteAlign       # -- Begin function writeVlcByteAlign
	.p2align	4, 0x90
	.type	writeVlcByteAlign,@function
writeVlcByteAlign:                      # @writeVlcByteAlign
	.cfi_startproc
# %bb.0:                                # %entry
	pushq	%rbp
	.cfi_def_cfa_offset 16
	.cfi_offset %rbp, -16
	movq	%rsp, %rbp
	.cfi_def_cfa_register %rbp
	movq	%rdi, -8(%rbp)
	movq	-8(%rbp), %rax
	cmpl	$8, 4(%rax)
	jge	.LBB27_2
# %bb.1:                                # %if.then
	movq	-8(%rbp), %rax
	movzbl	8(%rax), %eax
	movq	-8(%rbp), %rcx
	movl	4(%rcx), %ecx
                                        # kill: def $cl killed $ecx
	shll	%cl, %eax
	movq	-8(%rbp), %rdx
	movl	$8, %ecx
	subl	4(%rdx), %ecx
                                        # kill: def $cl killed $ecx
	movl	$255, %edx
	sarl	%cl, %edx
	orl	%edx, %eax
	movq	-8(%rbp), %rcx
	movb	%al, 8(%rcx)
	movq	-8(%rbp), %rax
	movl	4(%rax), %eax
	movq	stats, %rcx
	movq	img, %rdx
	movslq	24(%rdx), %rdx
	addl	1328(%rcx,%rdx,4), %eax
	movl	%eax, 1328(%rcx,%rdx,4)
	movq	-8(%rbp), %rax
	movb	8(%rax), %al
	movq	-8(%rbp), %rcx
	movq	32(%rcx), %rcx
	movq	-8(%rbp), %rdx
	movl	(%rdx), %esi
	movl	%esi, %edi
	addl	$1, %edi
	movl	%edi, (%rdx)
	movslq	%esi, %rdx
	movb	%al, (%rcx,%rdx)
	movq	-8(%rbp), %rax
	movl	$8, 4(%rax)
.LBB27_2:                               # %if.end
	popq	%rbp
	.cfi_def_cfa %rsp, 8
	retq
.Lfunc_end27:
	.size	writeVlcByteAlign, .Lfunc_end27-writeVlcByteAlign
	.cfi_endproc
                                        # -- End function
	.globl	writeSyntaxElement_VLC.1 # -- Begin function writeSyntaxElement_VLC.1
	.p2align	4, 0x90
	.type	writeSyntaxElement_VLC.1,@function
writeSyntaxElement_VLC.1:               # @writeSyntaxElement_VLC.1
	.cfi_startproc
# %bb.0:                                # %entry
	pushq	%rbp
	.cfi_def_cfa_offset 16
	.cfi_offset %rbp, -16
	movq	%rsp, %rbp
	.cfi_def_cfa_register %rbp
	pushq	%rbx
	subq	$24, %rsp
	.cfi_offset %rbx, -24
	movl	$834129673, -20(%rbp)   # imm = 0x31B7CF09
	movq	%rdi, -16(%rbp)
	movq	%rsi, -32(%rbp)
	movq	-16(%rbp), %rax
	movl	4(%rax), %eax
	movq	-16(%rbp), %rcx
	movl	%eax, 16(%rcx)
	movq	-16(%rbp), %rax
	movl	8(%rax), %eax
	movq	-16(%rbp), %rcx
	movl	%eax, 12(%rcx)
	movq	-16(%rbp), %rdi
	callq	symbol2vlc
	movq	-16(%rbp), %rdi
	movq	-32(%rbp), %rax
	movq	(%rax), %rsi
	callq	writeUVLC2buffer
	movq	-16(%rbp), %rax
	movl	12(%rax), %ebx
	cmpl	$834129673, -20(%rbp)   # imm = 0x31B7CF09
	jne	.LBB28_2
.LBB28_1:
	movl	%ebx, %eax
	addq	$24, %rsp
	popq	%rbx
	popq	%rbp
	.cfi_def_cfa %rsp, 8
	retq
.LBB28_2:                               # %func_exit
	.cfi_def_cfa %rbp, 16
	callq	detect_breach
	jmp	.LBB28_1
.Lfunc_end28:
	.size	writeSyntaxElement_VLC.1, .Lfunc_end28-writeSyntaxElement_VLC.1
	.cfi_endproc
                                        # -- End function
	.globl	se_v.2                  # -- Begin function se_v.2
	.p2align	4, 0x90
	.type	se_v.2,@function
se_v.2:                                 # @se_v.2
	.cfi_startproc
# %bb.0:                                # %entry
	pushq	%rbp
	.cfi_def_cfa_offset 16
	.cfi_offset %rbp, -16
	movq	%rsp, %rbp
	.cfi_def_cfa_register %rbp
	pushq	%rbx
	subq	$88, %rsp
	.cfi_offset %rbx, -24
	movl	$1112222552, -24(%rbp)  # imm = 0x424B2B58
	movq	%rdi, -40(%rbp)
	movl	%esi, -20(%rbp)
	movq	%rdx, -32(%rbp)
	leaq	-88(%rbp), %rax
	movq	%rax, -16(%rbp)
	movq	-16(%rbp), %rax
	movl	$0, (%rax)
	movq	-16(%rbp), %rax
	movabsq	$se_linfo, %rcx
	movq	%rcx, 32(%rax)
	movl	-20(%rbp), %eax
	movq	-16(%rbp), %rcx
	movl	%eax, 4(%rcx)
	movq	-16(%rbp), %rax
	movl	$0, 8(%rax)
	movq	-16(%rbp), %rdi
	movq	-32(%rbp), %rsi
	callq	writeSyntaxElement_UVLC
	movl	%eax, %ebx
	cmpl	$1112222552, -24(%rbp)  # imm = 0x424B2B58
	jne	.LBB29_2
.LBB29_1:
	movl	%ebx, %eax
	addq	$88, %rsp
	popq	%rbx
	popq	%rbp
	.cfi_def_cfa %rsp, 8
	retq
.LBB29_2:                               # %func_exit
	.cfi_def_cfa %rbp, 16
	callq	detect_breach
	jmp	.LBB29_1
.Lfunc_end29:
	.size	se_v.2, .Lfunc_end29-se_v.2
	.cfi_endproc
                                        # -- End function
	.globl	cbp_linfo_inter.3       # -- Begin function cbp_linfo_inter.3
	.p2align	4, 0x90
	.type	cbp_linfo_inter.3,@function
cbp_linfo_inter.3:                      # @cbp_linfo_inter.3
	.cfi_startproc
# %bb.0:                                # %entry
	pushq	%rbp
	.cfi_def_cfa_offset 16
	.cfi_offset %rbp, -16
	movq	%rsp, %rbp
	.cfi_def_cfa_register %rbp
	subq	$32, %rsp
	xorl	%eax, %eax
	movl	$291996104, -12(%rbp)   # imm = 0x116781C8
	movl	%edi, -8(%rbp)
	movl	%esi, -4(%rbp)
	movq	%rdx, -24(%rbp)
	movq	%rcx, -32(%rbp)
	movq	img, %rcx
	movl	72700(%rcx), %ecx
	cmpl	$0, %ecx
	movl	$1, %ecx
	cmovnel	%ecx, %eax
	cltq
	imulq	$96, %rax, %rax
	movabsq	$NCBP, %rcx
	addq	%rax, %rcx
	movslq	-8(%rbp), %rax
	movzbl	1(%rcx,%rax,2), %edi
	movl	-4(%rbp), %esi
	movq	-24(%rbp), %rdx
	movq	-32(%rbp), %rcx
	callq	ue_linfo
	cmpl	$291996104, -12(%rbp)   # imm = 0x116781C8
	jne	.LBB30_2
.LBB30_1:
	addq	$32, %rsp
	popq	%rbp
	.cfi_def_cfa %rsp, 8
	retq
.LBB30_2:                               # %func_exit
	.cfi_def_cfa %rbp, 16
	callq	detect_breach
	jmp	.LBB30_1
.Lfunc_end30:
	.size	cbp_linfo_inter.3, .Lfunc_end30-cbp_linfo_inter.3
	.cfi_endproc
                                        # -- End function
	.globl	ue_v.4                  # -- Begin function ue_v.4
	.p2align	4, 0x90
	.type	ue_v.4,@function
ue_v.4:                                 # @ue_v.4
	.cfi_startproc
# %bb.0:                                # %entry
	pushq	%rbp
	.cfi_def_cfa_offset 16
	.cfi_offset %rbp, -16
	movq	%rsp, %rbp
	.cfi_def_cfa_register %rbp
	pushq	%rbx
	subq	$88, %rsp
	.cfi_offset %rbx, -24
	movl	$1151930734, -20(%rbp)  # imm = 0x44A9116E
	movq	%rdi, -40(%rbp)
	movl	%esi, -24(%rbp)
	movq	%rdx, -32(%rbp)
	leaq	-88(%rbp), %rax
	movq	%rax, -16(%rbp)
	movq	-16(%rbp), %rax
	movl	$0, (%rax)
	movq	-16(%rbp), %rax
	movabsq	$ue_linfo, %rcx
	movq	%rcx, 32(%rax)
	movl	-24(%rbp), %eax
	movq	-16(%rbp), %rcx
	movl	%eax, 4(%rcx)
	movq	-16(%rbp), %rax
	movl	$0, 8(%rax)
	movq	-16(%rbp), %rdi
	movq	-32(%rbp), %rsi
	callq	writeSyntaxElement_UVLC
	movl	%eax, %ebx
	cmpl	$1151930734, -20(%rbp)  # imm = 0x44A9116E
	jne	.LBB31_2
.LBB31_1:
	movl	%ebx, %eax
	addq	$88, %rsp
	popq	%rbx
	popq	%rbp
	.cfi_def_cfa %rsp, 8
	retq
.LBB31_2:                               # %func_exit
	.cfi_def_cfa %rbp, 16
	callq	detect_breach
	jmp	.LBB31_1
.Lfunc_end31:
	.size	ue_v.4, .Lfunc_end31-ue_v.4
	.cfi_endproc
                                        # -- End function
	.section	.rodata.cst8,"aM",@progbits,8
	.p2align	3               # -- Begin function ue_linfo.5
.LCPI32_0:
	.quad	4611686018427387904     # double 2
	.text
	.globl	ue_linfo.5
	.p2align	4, 0x90
	.type	ue_linfo.5,@function
ue_linfo.5:                             # @ue_linfo.5
	.cfi_startproc
# %bb.0:                                # %entry
	pushq	%rbp
	.cfi_def_cfa_offset 16
	.cfi_offset %rbp, -16
	movq	%rsp, %rbp
	.cfi_def_cfa_register %rbp
	pushq	%rbx
	subq	$40, %rsp
	.cfi_offset %rbx, -24
	movl	$890420473, -24(%rbp)   # imm = 0x3512BCF9
	movl	%edi, -20(%rbp)
	movl	%esi, -44(%rbp)
	movq	%rdx, -40(%rbp)
	movq	%rcx, -32(%rbp)
	movl	-20(%rbp), %eax
	addl	$1, %eax
	cltd
	movl	$2, %ecx
	idivl	%ecx
	movl	%eax, -16(%rbp)
	movl	$0, -12(%rbp)
.LBB32_1:                               # %for.cond
                                        # =>This Inner Loop Header: Depth=1
	xorl	%eax, %eax
	cmpl	$16, -12(%rbp)
	jge	.LBB32_3
# %bb.2:                                # %land.rhs
                                        #   in Loop: Header=BB32_1 Depth=1
	cmpl	$0, -16(%rbp)
	setne	%al
.LBB32_3:                               # %land.end
                                        #   in Loop: Header=BB32_1 Depth=1
	testb	$1, %al
	jne	.LBB32_4
	jmp	.LBB32_6
.LBB32_4:                               # %for.body
                                        #   in Loop: Header=BB32_1 Depth=1
	movl	-16(%rbp), %eax
	cltd
	movl	$2, %ecx
	idivl	%ecx
	movl	%eax, -16(%rbp)
# %bb.5:                                # %for.inc
                                        #   in Loop: Header=BB32_1 Depth=1
	movl	-12(%rbp), %eax
	addl	$1, %eax
	movl	%eax, -12(%rbp)
	jmp	.LBB32_1
.LBB32_6:                               # %for.end
	vmovsd	.LCPI32_0(%rip), %xmm0  # xmm0 = mem[0],zero
	movl	-12(%rbp), %eax
	shll	$1, %eax
	addl	$1, %eax
	movq	-40(%rbp), %rcx
	movl	%eax, (%rcx)
	movl	-20(%rbp), %ebx
	addl	$1, %ebx
	vcvtsi2sdl	-12(%rbp), %xmm0, %xmm1
	callq	pow
	vcvttsd2si	%xmm0, %eax
	subl	%eax, %ebx
	movq	-32(%rbp), %rax
	movl	%ebx, (%rax)
	cmpl	$890420473, -24(%rbp)   # imm = 0x3512BCF9
	jne	.LBB32_8
.LBB32_7:
	addq	$40, %rsp
	popq	%rbx
	popq	%rbp
	.cfi_def_cfa %rsp, 8
	retq
.LBB32_8:                               # %func_exit
	.cfi_def_cfa %rbp, 16
	callq	detect_breach
	jmp	.LBB32_7
.Lfunc_end32:
	.size	ue_linfo.5, .Lfunc_end32-ue_linfo.5
	.cfi_endproc
                                        # -- End function
	.globl	writeSyntaxElement_NumCoeffTrailingOnes.6 # -- Begin function writeSyntaxElement_NumCoeffTrailingOnes.6
	.p2align	4, 0x90
	.type	writeSyntaxElement_NumCoeffTrailingOnes.6,@function
writeSyntaxElement_NumCoeffTrailingOnes.6: # @writeSyntaxElement_NumCoeffTrailingOnes.6
	.cfi_startproc
# %bb.0:                                # %entry
	pushq	%rbp
	.cfi_def_cfa_offset 16
	.cfi_offset %rbp, -16
	movq	%rsp, %rbp
	.cfi_def_cfa_register %rbp
	pushq	%rbx
	subq	$24, %rsp
	.cfi_offset %rbx, -24
	movl	$1935677775, -24(%rbp)  # imm = 0x7360194F
	movq	%rdi, -16(%rbp)
	movq	%rsi, -32(%rbp)
	movq	-16(%rbp), %rax
	movl	12(%rax), %eax
	movl	%eax, -20(%rbp)
	cmpl	$3, -20(%rbp)
	jne	.LBB33_5
# %bb.1:                                # %if.then
	movq	-16(%rbp), %rax
	movl	$6, 12(%rax)
	movq	-16(%rbp), %rax
	cmpl	$0, 4(%rax)
	jle	.LBB33_3
# %bb.2:                                # %if.then3
	movq	-16(%rbp), %rax
	movl	4(%rax), %eax
	subl	$1, %eax
	shll	$2, %eax
	movq	-16(%rbp), %rcx
	orl	8(%rcx), %eax
	movq	-16(%rbp), %rcx
	movl	%eax, 16(%rcx)
	jmp	.LBB33_4
.LBB33_3:                               # %if.else
	movq	-16(%rbp), %rax
	movl	$3, 16(%rax)
.LBB33_4:                               # %if.end
	jmp	.LBB33_6
.LBB33_5:                               # %if.else6
	movslq	-20(%rbp), %rax
	imulq	$272, %rax, %rax        # imm = 0x110
	movabsq	$writeSyntaxElement_NumCoeffTrailingOnes.lentab, %rcx
	addq	%rax, %rcx
	movq	-16(%rbp), %rax
	movslq	8(%rax), %rax
	imulq	$68, %rax, %rax
	addq	%rax, %rcx
	movq	-16(%rbp), %rax
	movslq	4(%rax), %rax
	movl	(%rcx,%rax,4), %eax
	movq	-16(%rbp), %rcx
	movl	%eax, 12(%rcx)
	movslq	-20(%rbp), %rax
	imulq	$272, %rax, %rax        # imm = 0x110
	movabsq	$writeSyntaxElement_NumCoeffTrailingOnes.codtab, %rcx
	addq	%rax, %rcx
	movq	-16(%rbp), %rax
	movslq	8(%rax), %rax
	imulq	$68, %rax, %rax
	addq	%rax, %rcx
	movq	-16(%rbp), %rax
	movslq	4(%rax), %rax
	movl	(%rcx,%rax,4), %eax
	movq	-16(%rbp), %rcx
	movl	%eax, 16(%rcx)
.LBB33_6:                               # %if.end23
	movq	-16(%rbp), %rax
	cmpl	$0, 12(%rax)
	jne	.LBB33_8
# %bb.7:                                # %if.then26
	movl	-20(%rbp), %esi
	movq	-16(%rbp), %rax
	movl	4(%rax), %edx
	movq	-16(%rbp), %rax
	movl	8(%rax), %ecx
	movabsq	$.L.str, %rdi
	movb	$0, %al
	callq	printf
	movl	$4294967295, %edi       # imm = 0xFFFFFFFF
	callq	exit
.LBB33_8:                               # %if.end29
	movq	-16(%rbp), %rdi
	callq	symbol2vlc
	movq	-16(%rbp), %rdi
	movq	-32(%rbp), %rax
	movq	(%rax), %rsi
	callq	writeUVLC2buffer
	movq	-16(%rbp), %rax
	movl	12(%rax), %ebx
	cmpl	$1935677775, -24(%rbp)  # imm = 0x7360194F
	jne	.LBB33_10
.LBB33_9:
	movl	%ebx, %eax
	addq	$24, %rsp
	popq	%rbx
	popq	%rbp
	.cfi_def_cfa %rsp, 8
	retq
.LBB33_10:                              # %func_exit
	.cfi_def_cfa %rbp, 16
	callq	detect_breach
	jmp	.LBB33_9
.Lfunc_end33:
	.size	writeSyntaxElement_NumCoeffTrailingOnes.6, .Lfunc_end33-writeSyntaxElement_NumCoeffTrailingOnes.6
	.cfi_endproc
                                        # -- End function
	.globl	writeSyntaxElement_VLC.7 # -- Begin function writeSyntaxElement_VLC.7
	.p2align	4, 0x90
	.type	writeSyntaxElement_VLC.7,@function
writeSyntaxElement_VLC.7:               # @writeSyntaxElement_VLC.7
	.cfi_startproc
# %bb.0:                                # %entry
	pushq	%rbp
	.cfi_def_cfa_offset 16
	.cfi_offset %rbp, -16
	movq	%rsp, %rbp
	.cfi_def_cfa_register %rbp
	pushq	%rbx
	subq	$24, %rsp
	.cfi_offset %rbx, -24
	movl	$1113599491, -20(%rbp)  # imm = 0x42602E03
	movq	%rdi, -16(%rbp)
	movq	%rsi, -32(%rbp)
	movq	-16(%rbp), %rax
	movl	4(%rax), %eax
	movq	-16(%rbp), %rcx
	movl	%eax, 16(%rcx)
	movq	-16(%rbp), %rax
	movl	8(%rax), %eax
	movq	-16(%rbp), %rcx
	movl	%eax, 12(%rcx)
	movq	-16(%rbp), %rdi
	callq	symbol2vlc
	movq	-16(%rbp), %rdi
	movq	-32(%rbp), %rax
	movq	(%rax), %rsi
	callq	writeUVLC2buffer
	movq	-16(%rbp), %rax
	movl	12(%rax), %ebx
	cmpl	$1113599491, -20(%rbp)  # imm = 0x42602E03
	jne	.LBB34_2
.LBB34_1:
	movl	%ebx, %eax
	addq	$24, %rsp
	popq	%rbx
	popq	%rbp
	.cfi_def_cfa %rsp, 8
	retq
.LBB34_2:                               # %func_exit
	.cfi_def_cfa %rbp, 16
	callq	detect_breach
	jmp	.LBB34_1
.Lfunc_end34:
	.size	writeSyntaxElement_VLC.7, .Lfunc_end34-writeSyntaxElement_VLC.7
	.cfi_endproc
                                        # -- End function
	.globl	symbol2uvlc.8           # -- Begin function symbol2uvlc.8
	.p2align	4, 0x90
	.type	symbol2uvlc.8,@function
symbol2uvlc.8:                          # @symbol2uvlc.8
	.cfi_startproc
# %bb.0:                                # %entry
	pushq	%rbp
	.cfi_def_cfa_offset 16
	.cfi_offset %rbp, -16
	movq	%rsp, %rbp
	.cfi_def_cfa_register %rbp
	subq	$32, %rsp
	movl	$483135241, -20(%rbp)   # imm = 0x1CCC0F09
	movq	%rdi, -16(%rbp)
	movq	-16(%rbp), %rax
	movl	12(%rax), %eax
	cltd
	movl	$2, %ecx
	idivl	%ecx
	movl	%eax, -4(%rbp)
	movl	-4(%rbp), %ecx
                                        # kill: def $cl killed $ecx
	movl	$1, %eax
	movl	$1, %edx
	shll	%cl, %edx
	movq	-16(%rbp), %rcx
	movl	16(%rcx), %esi
	movl	-4(%rbp), %ecx
                                        # kill: def $cl killed $ecx
	shll	%cl, %eax
	subl	$1, %eax
	andl	%eax, %esi
	orl	%esi, %edx
	movq	-16(%rbp), %rax
	movl	%edx, 20(%rax)
	cmpl	$483135241, -20(%rbp)   # imm = 0x1CCC0F09
	jne	.LBB35_2
.LBB35_1:
	xorl	%eax, %eax
	addq	$32, %rsp
	popq	%rbp
	.cfi_def_cfa %rsp, 8
	retq
.LBB35_2:                               # %func_exit
	.cfi_def_cfa %rbp, 16
	callq	detect_breach
	jmp	.LBB35_1
.Lfunc_end35:
	.size	symbol2uvlc.8, .Lfunc_end35-symbol2uvlc.8
	.cfi_endproc
                                        # -- End function
	.globl	writeSyntaxElement_Level_VLC1.9 # -- Begin function writeSyntaxElement_Level_VLC1.9
	.p2align	4, 0x90
	.type	writeSyntaxElement_Level_VLC1.9,@function
writeSyntaxElement_Level_VLC1.9:        # @writeSyntaxElement_Level_VLC1.9
	.cfi_startproc
# %bb.0:                                # %entry
	pushq	%rbp
	.cfi_def_cfa_offset 16
	.cfi_offset %rbp, -16
	movq	%rsp, %rbp
	.cfi_def_cfa_register %rbp
	pushq	%rbx
	subq	$40, %rsp
	.cfi_offset %rbx, -24
	movl	$1496405024, -36(%rbp)  # imm = 0x59315420
	movq	%rdi, -24(%rbp)
	movq	%rsi, -48(%rbp)
	movq	-24(%rbp), %rax
	movl	4(%rax), %eax
	movl	%eax, -32(%rbp)
	movl	-32(%rbp), %edi
	callq	abs
	xorl	%ecx, %ecx
	movl	%eax, -12(%rbp)
	movl	-32(%rbp), %eax
	cmpl	$0, %eax
	movl	$1, %eax
	cmovll	%eax, %ecx
	movl	%ecx, -28(%rbp)
	cmpl	$8, -12(%rbp)
	jge	.LBB36_2
# %bb.1:                                # %if.then
	movl	-12(%rbp), %eax
	shll	$1, %eax
	addl	-28(%rbp), %eax
	subl	$1, %eax
	movq	-24(%rbp), %rcx
	movl	%eax, 12(%rcx)
	movq	-24(%rbp), %rax
	movl	$1, 16(%rax)
	jmp	.LBB36_6
.LBB36_2:                               # %if.else
	cmpl	$16, -12(%rbp)
	jge	.LBB36_4
# %bb.3:                                # %if.then3
	movq	-24(%rbp), %rax
	movl	$19, 12(%rax)
	movl	-12(%rbp), %eax
	subl	$8, %eax
	shll	$1, %eax
	orl	$16, %eax
	orl	-28(%rbp), %eax
	movq	-24(%rbp), %rcx
	movl	%eax, 16(%rcx)
	jmp	.LBB36_5
.LBB36_4:                               # %if.else8
	movq	-24(%rbp), %rax
	movl	$28, 12(%rax)
	movl	-12(%rbp), %eax
	subl	$16, %eax
	shll	$1, %eax
	orl	$4096, %eax             # imm = 0x1000
	orl	-28(%rbp), %eax
	movq	-24(%rbp), %rcx
	movl	%eax, 16(%rcx)
.LBB36_5:                               # %if.end
	jmp	.LBB36_6
.LBB36_6:                               # %if.end15
	movq	-24(%rbp), %rdi
	callq	symbol2vlc
	movq	-24(%rbp), %rdi
	movq	-48(%rbp), %rax
	movq	(%rax), %rsi
	callq	writeUVLC2buffer
	movq	-24(%rbp), %rax
	movl	12(%rax), %ebx
	cmpl	$1496405024, -36(%rbp)  # imm = 0x59315420
	jne	.LBB36_8
.LBB36_7:
	movl	%ebx, %eax
	addq	$40, %rsp
	popq	%rbx
	popq	%rbp
	.cfi_def_cfa %rsp, 8
	retq
.LBB36_8:                               # %func_exit
	.cfi_def_cfa %rbp, 16
	callq	detect_breach
	jmp	.LBB36_7
.Lfunc_end36:
	.size	writeSyntaxElement_Level_VLC1.9, .Lfunc_end36-writeSyntaxElement_Level_VLC1.9
	.cfi_endproc
                                        # -- End function
	.section	.rodata.cst8,"aM",@progbits,8
	.p2align	3               # -- Begin function ue_linfo.10
.LCPI37_0:
	.quad	4611686018427387904     # double 2
	.text
	.globl	ue_linfo.10
	.p2align	4, 0x90
	.type	ue_linfo.10,@function
ue_linfo.10:                            # @ue_linfo.10
	.cfi_startproc
# %bb.0:                                # %entry
	pushq	%rbp
	.cfi_def_cfa_offset 16
	.cfi_offset %rbp, -16
	movq	%rsp, %rbp
	.cfi_def_cfa_register %rbp
	pushq	%rbx
	subq	$40, %rsp
	.cfi_offset %rbx, -24
	movl	$1805255523, -24(%rbp)  # imm = 0x6B9A0363
	movl	%edi, -20(%rbp)
	movl	%esi, -44(%rbp)
	movq	%rdx, -40(%rbp)
	movq	%rcx, -32(%rbp)
	movl	-20(%rbp), %eax
	addl	$1, %eax
	cltd
	movl	$2, %ecx
	idivl	%ecx
	movl	%eax, -16(%rbp)
	movl	$0, -12(%rbp)
.LBB37_1:                               # %for.cond
                                        # =>This Inner Loop Header: Depth=1
	xorl	%eax, %eax
	cmpl	$16, -12(%rbp)
	jge	.LBB37_3
# %bb.2:                                # %land.rhs
                                        #   in Loop: Header=BB37_1 Depth=1
	cmpl	$0, -16(%rbp)
	setne	%al
.LBB37_3:                               # %land.end
                                        #   in Loop: Header=BB37_1 Depth=1
	testb	$1, %al
	jne	.LBB37_4
	jmp	.LBB37_6
.LBB37_4:                               # %for.body
                                        #   in Loop: Header=BB37_1 Depth=1
	movl	-16(%rbp), %eax
	cltd
	movl	$2, %ecx
	idivl	%ecx
	movl	%eax, -16(%rbp)
# %bb.5:                                # %for.inc
                                        #   in Loop: Header=BB37_1 Depth=1
	movl	-12(%rbp), %eax
	addl	$1, %eax
	movl	%eax, -12(%rbp)
	jmp	.LBB37_1
.LBB37_6:                               # %for.end
	vmovsd	.LCPI37_0(%rip), %xmm0  # xmm0 = mem[0],zero
	movl	-12(%rbp), %eax
	shll	$1, %eax
	addl	$1, %eax
	movq	-40(%rbp), %rcx
	movl	%eax, (%rcx)
	movl	-20(%rbp), %ebx
	addl	$1, %ebx
	vcvtsi2sdl	-12(%rbp), %xmm0, %xmm1
	callq	pow
	vcvttsd2si	%xmm0, %eax
	subl	%eax, %ebx
	movq	-32(%rbp), %rax
	movl	%ebx, (%rax)
	cmpl	$1805255523, -24(%rbp)  # imm = 0x6B9A0363
	jne	.LBB37_8
.LBB37_7:
	addq	$40, %rsp
	popq	%rbx
	popq	%rbp
	.cfi_def_cfa %rsp, 8
	retq
.LBB37_8:                               # %func_exit
	.cfi_def_cfa %rbp, 16
	callq	detect_breach
	jmp	.LBB37_7
.Lfunc_end37:
	.size	ue_linfo.10, .Lfunc_end37-ue_linfo.10
	.cfi_endproc
                                        # -- End function
	.globl	u_1.11                  # -- Begin function u_1.11
	.p2align	4, 0x90
	.type	u_1.11,@function
u_1.11:                                 # @u_1.11
	.cfi_startproc
# %bb.0:                                # %entry
	pushq	%rbp
	.cfi_def_cfa_offset 16
	.cfi_offset %rbp, -16
	movq	%rsp, %rbp
	.cfi_def_cfa_register %rbp
	pushq	%rbx
	subq	$88, %rsp
	.cfi_offset %rbx, -24
	movl	$607600736, -24(%rbp)   # imm = 0x24374060
	movq	%rdi, -40(%rbp)
	movl	%esi, -20(%rbp)
	movq	%rdx, -32(%rbp)
	leaq	-88(%rbp), %rax
	movq	%rax, -16(%rbp)
	movl	-20(%rbp), %eax
	movq	-16(%rbp), %rcx
	movl	%eax, 20(%rcx)
	movq	-16(%rbp), %rax
	movl	$1, 12(%rax)
	movq	-16(%rbp), %rax
	movl	$0, (%rax)
	movl	-20(%rbp), %eax
	movq	-16(%rbp), %rcx
	movl	%eax, 4(%rcx)
	movq	-16(%rbp), %rax
	movl	$0, 8(%rax)
	movq	-16(%rbp), %rdi
	movq	-32(%rbp), %rsi
	callq	writeSyntaxElement_fixed
	movl	%eax, %ebx
	cmpl	$607600736, -24(%rbp)   # imm = 0x24374060
	jne	.LBB38_2
.LBB38_1:
	movl	%ebx, %eax
	addq	$88, %rsp
	popq	%rbx
	popq	%rbp
	.cfi_def_cfa %rsp, 8
	retq
.LBB38_2:                               # %func_exit
	.cfi_def_cfa %rbp, 16
	callq	detect_breach
	jmp	.LBB38_1
.Lfunc_end38:
	.size	u_1.11, .Lfunc_end38-u_1.11
	.cfi_endproc
                                        # -- End function
	.globl	writeSyntaxElement_Level_VLCN.12 # -- Begin function writeSyntaxElement_Level_VLCN.12
	.p2align	4, 0x90
	.type	writeSyntaxElement_Level_VLCN.12,@function
writeSyntaxElement_Level_VLCN.12:       # @writeSyntaxElement_Level_VLCN.12
	.cfi_startproc
# %bb.0:                                # %entry
	pushq	%rbp
	.cfi_def_cfa_offset 16
	.cfi_offset %rbp, -16
	movq	%rsp, %rbp
	.cfi_def_cfa_register %rbp
	pushq	%rbx
	subq	$72, %rsp
	.cfi_offset %rbx, -24
	movl	$1894392891, -56(%rbp)  # imm = 0x70EA243B
	movq	%rdi, -24(%rbp)
	movl	%esi, -48(%rbp)
	movq	%rdx, -72(%rbp)
	movq	-24(%rbp), %rax
	movl	4(%rax), %eax
	movl	%eax, -32(%rbp)
	movl	-32(%rbp), %edi
	callq	abs
	xorl	%ecx, %ecx
	movl	%eax, -12(%rbp)
	movl	-32(%rbp), %eax
	cmpl	$0, %eax
	movl	$1, %eax
	cmovll	%eax, %ecx
	movl	%ecx, -36(%rbp)
	movl	-48(%rbp), %eax
	subl	$1, %eax
	movl	%eax, -16(%rbp)
	movl	-16(%rbp), %ecx
                                        # kill: def $cl killed $ecx
	movl	$15, %eax
	shll	%cl, %eax
	addl	$1, %eax
	movl	%eax, -44(%rbp)
	movl	-12(%rbp), %eax
	subl	$1, %eax
	movl	-16(%rbp), %ecx
                                        # kill: def $cl killed $ecx
	sarl	%cl, %eax
	movl	%eax, -52(%rbp)
	movl	-16(%rbp), %ecx
                                        # kill: def $cl killed $ecx
	movl	$4294967295, %eax       # imm = 0xFFFFFFFF
	shll	%cl, %eax
	xorl	$-1, %eax
	movl	%eax, -60(%rbp)
	movl	-12(%rbp), %eax
	subl	$1, %eax
	andl	-60(%rbp), %eax
	movl	%eax, -64(%rbp)
	movl	-12(%rbp), %eax
	cmpl	-44(%rbp), %eax
	jge	.LBB39_2
# %bb.1:                                # %if.then
	movl	-52(%rbp), %eax
	addl	-48(%rbp), %eax
	addl	$1, %eax
	movl	%eax, -28(%rbp)
	movl	-16(%rbp), %ecx
	addl	$1, %ecx
                                        # kill: def $cl killed $ecx
	movl	$1, %eax
	shll	%cl, %eax
	movl	-64(%rbp), %ecx
	shll	$1, %ecx
	orl	%ecx, %eax
	orl	-36(%rbp), %eax
	movl	%eax, -40(%rbp)
	jmp	.LBB39_3
.LBB39_2:                               # %if.else
	movl	$28, -28(%rbp)
	movl	-12(%rbp), %eax
	subl	-44(%rbp), %eax
	shll	$1, %eax
	orl	$4096, %eax             # imm = 0x1000
	orl	-36(%rbp), %eax
	movl	%eax, -40(%rbp)
.LBB39_3:                               # %if.end
	movl	-28(%rbp), %eax
	movq	-24(%rbp), %rcx
	movl	%eax, 12(%rcx)
	movl	-40(%rbp), %eax
	movq	-24(%rbp), %rcx
	movl	%eax, 16(%rcx)
	movq	-24(%rbp), %rdi
	callq	symbol2vlc
	movq	-24(%rbp), %rdi
	movq	-72(%rbp), %rax
	movq	(%rax), %rsi
	callq	writeUVLC2buffer
	movq	-24(%rbp), %rax
	movl	12(%rax), %ebx
	cmpl	$1894392891, -56(%rbp)  # imm = 0x70EA243B
	jne	.LBB39_5
.LBB39_4:
	movl	%ebx, %eax
	addq	$72, %rsp
	popq	%rbx
	popq	%rbp
	.cfi_def_cfa %rsp, 8
	retq
.LBB39_5:                               # %func_exit
	.cfi_def_cfa %rbp, 16
	callq	detect_breach
	jmp	.LBB39_4
.Lfunc_end39:
	.size	writeSyntaxElement_Level_VLCN.12, .Lfunc_end39-writeSyntaxElement_Level_VLCN.12
	.cfi_endproc
                                        # -- End function
	.globl	u_1.13                  # -- Begin function u_1.13
	.p2align	4, 0x90
	.type	u_1.13,@function
u_1.13:                                 # @u_1.13
	.cfi_startproc
# %bb.0:                                # %entry
	pushq	%rbp
	.cfi_def_cfa_offset 16
	.cfi_offset %rbp, -16
	movq	%rsp, %rbp
	.cfi_def_cfa_register %rbp
	pushq	%rbx
	subq	$88, %rsp
	.cfi_offset %rbx, -24
	movl	$656996193, -24(%rbp)   # imm = 0x2728F761
	movq	%rdi, -40(%rbp)
	movl	%esi, -20(%rbp)
	movq	%rdx, -32(%rbp)
	leaq	-88(%rbp), %rax
	movq	%rax, -16(%rbp)
	movl	-20(%rbp), %eax
	movq	-16(%rbp), %rcx
	movl	%eax, 20(%rcx)
	movq	-16(%rbp), %rax
	movl	$1, 12(%rax)
	movq	-16(%rbp), %rax
	movl	$0, (%rax)
	movl	-20(%rbp), %eax
	movq	-16(%rbp), %rcx
	movl	%eax, 4(%rcx)
	movq	-16(%rbp), %rax
	movl	$0, 8(%rax)
	movq	-16(%rbp), %rdi
	movq	-32(%rbp), %rsi
	callq	writeSyntaxElement_fixed
	movl	%eax, %ebx
	cmpl	$656996193, -24(%rbp)   # imm = 0x2728F761
	jne	.LBB40_2
.LBB40_1:
	movl	%ebx, %eax
	addq	$88, %rsp
	popq	%rbx
	popq	%rbp
	.cfi_def_cfa %rsp, 8
	retq
.LBB40_2:                               # %func_exit
	.cfi_def_cfa %rbp, 16
	callq	detect_breach
	jmp	.LBB40_1
.Lfunc_end40:
	.size	u_1.13, .Lfunc_end40-u_1.13
	.cfi_endproc
                                        # -- End function
	.section	.rodata.cst8,"aM",@progbits,8
	.p2align	3               # -- Begin function se_linfo.14
.LCPI41_0:
	.quad	4611686018427387904     # double 2
	.text
	.globl	se_linfo.14
	.p2align	4, 0x90
	.type	se_linfo.14,@function
se_linfo.14:                            # @se_linfo.14
	.cfi_startproc
# %bb.0:                                # %entry
	pushq	%rbp
	.cfi_def_cfa_offset 16
	.cfi_offset %rbp, -16
	movq	%rsp, %rbp
	.cfi_def_cfa_register %rbp
	pushq	%rbx
	subq	$56, %rsp
	.cfi_offset %rbx, -24
	movl	$619308898, -32(%rbp)   # imm = 0x24E9E762
	movl	%edi, -28(%rbp)
	movl	%esi, -52(%rbp)
	movq	%rdx, -40(%rbp)
	movq	%rcx, -48(%rbp)
	movl	$0, -24(%rbp)
	cmpl	$0, -28(%rbp)
	jg	.LBB41_2
# %bb.1:                                # %if.then
	movl	$1, -24(%rbp)
.LBB41_2:                               # %if.end
	movl	-28(%rbp), %edi
	callq	abs
	shll	$1, %eax
	movl	%eax, -20(%rbp)
	movl	-20(%rbp), %eax
	cltd
	movl	$2, %ecx
	idivl	%ecx
	movl	%eax, -16(%rbp)
	movl	$0, -12(%rbp)
.LBB41_3:                               # %for.cond
                                        # =>This Inner Loop Header: Depth=1
	xorl	%eax, %eax
	cmpl	$16, -12(%rbp)
	jge	.LBB41_5
# %bb.4:                                # %land.rhs
                                        #   in Loop: Header=BB41_3 Depth=1
	cmpl	$0, -16(%rbp)
	setne	%al
.LBB41_5:                               # %land.end
                                        #   in Loop: Header=BB41_3 Depth=1
	testb	$1, %al
	jne	.LBB41_6
	jmp	.LBB41_8
.LBB41_6:                               # %for.body
                                        #   in Loop: Header=BB41_3 Depth=1
	movl	-16(%rbp), %eax
	cltd
	movl	$2, %ecx
	idivl	%ecx
	movl	%eax, -16(%rbp)
# %bb.7:                                # %for.inc
                                        #   in Loop: Header=BB41_3 Depth=1
	movl	-12(%rbp), %eax
	addl	$1, %eax
	movl	%eax, -12(%rbp)
	jmp	.LBB41_3
.LBB41_8:                               # %for.end
	vmovsd	.LCPI41_0(%rip), %xmm0  # xmm0 = mem[0],zero
	movl	-12(%rbp), %eax
	shll	$1, %eax
	addl	$1, %eax
	movq	-40(%rbp), %rcx
	movl	%eax, (%rcx)
	movl	-20(%rbp), %ebx
	vcvtsi2sdl	-12(%rbp), %xmm0, %xmm1
	callq	pow
	vcvttsd2si	%xmm0, %eax
	subl	%eax, %ebx
	addl	-24(%rbp), %ebx
	movq	-48(%rbp), %rax
	movl	%ebx, (%rax)
	cmpl	$619308898, -32(%rbp)   # imm = 0x24E9E762
	jne	.LBB41_10
.LBB41_9:
	addq	$56, %rsp
	popq	%rbx
	popq	%rbp
	.cfi_def_cfa %rsp, 8
	retq
.LBB41_10:                              # %func_exit
	.cfi_def_cfa %rbp, 16
	callq	detect_breach
	jmp	.LBB41_9
.Lfunc_end41:
	.size	se_linfo.14, .Lfunc_end41-se_linfo.14
	.cfi_endproc
                                        # -- End function
	.globl	writeSyntaxElement_TotalZeros.15 # -- Begin function writeSyntaxElement_TotalZeros.15
	.p2align	4, 0x90
	.type	writeSyntaxElement_TotalZeros.15,@function
writeSyntaxElement_TotalZeros.15:       # @writeSyntaxElement_TotalZeros.15
	.cfi_startproc
# %bb.0:                                # %entry
	pushq	%rbp
	.cfi_def_cfa_offset 16
	.cfi_offset %rbp, -16
	movq	%rsp, %rbp
	.cfi_def_cfa_register %rbp
	pushq	%rbx
	subq	$24, %rsp
	.cfi_offset %rbx, -24
	movabsq	$writeSyntaxElement_TotalZeros.codtab, %rax
	movabsq	$writeSyntaxElement_TotalZeros.lentab, %rcx
	movl	$219918337, -24(%rbp)   # imm = 0xD1BB001
	movq	%rdi, -16(%rbp)
	movq	%rsi, -32(%rbp)
	movq	-16(%rbp), %rdx
	movl	12(%rdx), %edx
	movl	%edx, -20(%rbp)
	movslq	-20(%rbp), %rdx
	shlq	$6, %rdx
	addq	%rdx, %rcx
	movq	-16(%rbp), %rdx
	movslq	4(%rdx), %rdx
	movl	(%rcx,%rdx,4), %ecx
	movq	-16(%rbp), %rdx
	movl	%ecx, 12(%rdx)
	movslq	-20(%rbp), %rcx
	shlq	$6, %rcx
	addq	%rcx, %rax
	movq	-16(%rbp), %rcx
	movslq	4(%rcx), %rcx
	movl	(%rax,%rcx,4), %eax
	movq	-16(%rbp), %rcx
	movl	%eax, 16(%rcx)
	movq	-16(%rbp), %rax
	cmpl	$0, 12(%rax)
	jne	.LBB42_2
# %bb.1:                                # %if.then
	movq	-16(%rbp), %rax
	movl	4(%rax), %esi
	movabsq	$.L.str.2, %rdi
	movb	$0, %al
	callq	printf
	movl	$4294967295, %edi       # imm = 0xFFFFFFFF
	callq	exit
.LBB42_2:                               # %if.end
	movq	-16(%rbp), %rdi
	callq	symbol2vlc
	movq	-16(%rbp), %rdi
	movq	-32(%rbp), %rax
	movq	(%rax), %rsi
	callq	writeUVLC2buffer
	movq	-16(%rbp), %rax
	movl	12(%rax), %ebx
	cmpl	$219918337, -24(%rbp)   # imm = 0xD1BB001
	jne	.LBB42_4
.LBB42_3:
	movl	%ebx, %eax
	addq	$24, %rsp
	popq	%rbx
	popq	%rbp
	.cfi_def_cfa %rsp, 8
	retq
.LBB42_4:                               # %func_exit
	.cfi_def_cfa %rbp, 16
	callq	detect_breach
	jmp	.LBB42_3
.Lfunc_end42:
	.size	writeSyntaxElement_TotalZeros.15, .Lfunc_end42-writeSyntaxElement_TotalZeros.15
	.cfi_endproc
                                        # -- End function
	.globl	writeSyntaxElement_NumCoeffTrailingOnes.16 # -- Begin function writeSyntaxElement_NumCoeffTrailingOnes.16
	.p2align	4, 0x90
	.type	writeSyntaxElement_NumCoeffTrailingOnes.16,@function
writeSyntaxElement_NumCoeffTrailingOnes.16: # @writeSyntaxElement_NumCoeffTrailingOnes.16
	.cfi_startproc
# %bb.0:                                # %entry
	pushq	%rbp
	.cfi_def_cfa_offset 16
	.cfi_offset %rbp, -16
	movq	%rsp, %rbp
	.cfi_def_cfa_register %rbp
	pushq	%rbx
	subq	$24, %rsp
	.cfi_offset %rbx, -24
	movl	$248712010, -24(%rbp)   # imm = 0xED30B4A
	movq	%rdi, -16(%rbp)
	movq	%rsi, -32(%rbp)
	movq	-16(%rbp), %rax
	movl	12(%rax), %eax
	movl	%eax, -20(%rbp)
	cmpl	$3, -20(%rbp)
	jne	.LBB43_5
# %bb.1:                                # %if.then
	movq	-16(%rbp), %rax
	movl	$6, 12(%rax)
	movq	-16(%rbp), %rax
	cmpl	$0, 4(%rax)
	jle	.LBB43_3
# %bb.2:                                # %if.then3
	movq	-16(%rbp), %rax
	movl	4(%rax), %eax
	subl	$1, %eax
	shll	$2, %eax
	movq	-16(%rbp), %rcx
	orl	8(%rcx), %eax
	movq	-16(%rbp), %rcx
	movl	%eax, 16(%rcx)
	jmp	.LBB43_4
.LBB43_3:                               # %if.else
	movq	-16(%rbp), %rax
	movl	$3, 16(%rax)
.LBB43_4:                               # %if.end
	jmp	.LBB43_6
.LBB43_5:                               # %if.else6
	movslq	-20(%rbp), %rax
	imulq	$272, %rax, %rax        # imm = 0x110
	movabsq	$writeSyntaxElement_NumCoeffTrailingOnes.lentab, %rcx
	addq	%rax, %rcx
	movq	-16(%rbp), %rax
	movslq	8(%rax), %rax
	imulq	$68, %rax, %rax
	addq	%rax, %rcx
	movq	-16(%rbp), %rax
	movslq	4(%rax), %rax
	movl	(%rcx,%rax,4), %eax
	movq	-16(%rbp), %rcx
	movl	%eax, 12(%rcx)
	movslq	-20(%rbp), %rax
	imulq	$272, %rax, %rax        # imm = 0x110
	movabsq	$writeSyntaxElement_NumCoeffTrailingOnes.codtab, %rcx
	addq	%rax, %rcx
	movq	-16(%rbp), %rax
	movslq	8(%rax), %rax
	imulq	$68, %rax, %rax
	addq	%rax, %rcx
	movq	-16(%rbp), %rax
	movslq	4(%rax), %rax
	movl	(%rcx,%rax,4), %eax
	movq	-16(%rbp), %rcx
	movl	%eax, 16(%rcx)
.LBB43_6:                               # %if.end23
	movq	-16(%rbp), %rax
	cmpl	$0, 12(%rax)
	jne	.LBB43_8
# %bb.7:                                # %if.then26
	movl	-20(%rbp), %esi
	movq	-16(%rbp), %rax
	movl	4(%rax), %edx
	movq	-16(%rbp), %rax
	movl	8(%rax), %ecx
	movabsq	$.L.str, %rdi
	movb	$0, %al
	callq	printf
	movl	$4294967295, %edi       # imm = 0xFFFFFFFF
	callq	exit
.LBB43_8:                               # %if.end29
	movq	-16(%rbp), %rdi
	callq	symbol2vlc
	movq	-16(%rbp), %rdi
	movq	-32(%rbp), %rax
	movq	(%rax), %rsi
	callq	writeUVLC2buffer
	movq	-16(%rbp), %rax
	movl	12(%rax), %ebx
	cmpl	$248712010, -24(%rbp)   # imm = 0xED30B4A
	jne	.LBB43_10
.LBB43_9:
	movl	%ebx, %eax
	addq	$24, %rsp
	popq	%rbx
	popq	%rbp
	.cfi_def_cfa %rsp, 8
	retq
.LBB43_10:                              # %func_exit
	.cfi_def_cfa %rbp, 16
	callq	detect_breach
	jmp	.LBB43_9
.Lfunc_end43:
	.size	writeSyntaxElement_NumCoeffTrailingOnes.16, .Lfunc_end43-writeSyntaxElement_NumCoeffTrailingOnes.16
	.cfi_endproc
                                        # -- End function
	.globl	symbol2uvlc.17          # -- Begin function symbol2uvlc.17
	.p2align	4, 0x90
	.type	symbol2uvlc.17,@function
symbol2uvlc.17:                         # @symbol2uvlc.17
	.cfi_startproc
# %bb.0:                                # %entry
	pushq	%rbp
	.cfi_def_cfa_offset 16
	.cfi_offset %rbp, -16
	movq	%rsp, %rbp
	.cfi_def_cfa_register %rbp
	subq	$32, %rsp
	movl	$1709679935, -20(%rbp)  # imm = 0x65E7A53F
	movq	%rdi, -16(%rbp)
	movq	-16(%rbp), %rax
	movl	12(%rax), %eax
	cltd
	movl	$2, %ecx
	idivl	%ecx
	movl	%eax, -4(%rbp)
	movl	-4(%rbp), %ecx
                                        # kill: def $cl killed $ecx
	movl	$1, %eax
	movl	$1, %edx
	shll	%cl, %edx
	movq	-16(%rbp), %rcx
	movl	16(%rcx), %esi
	movl	-4(%rbp), %ecx
                                        # kill: def $cl killed $ecx
	shll	%cl, %eax
	subl	$1, %eax
	andl	%eax, %esi
	orl	%esi, %edx
	movq	-16(%rbp), %rax
	movl	%edx, 20(%rax)
	cmpl	$1709679935, -20(%rbp)  # imm = 0x65E7A53F
	jne	.LBB44_2
.LBB44_1:
	xorl	%eax, %eax
	addq	$32, %rsp
	popq	%rbp
	.cfi_def_cfa %rsp, 8
	retq
.LBB44_2:                               # %func_exit
	.cfi_def_cfa %rbp, 16
	callq	detect_breach
	jmp	.LBB44_1
.Lfunc_end44:
	.size	symbol2uvlc.17, .Lfunc_end44-symbol2uvlc.17
	.cfi_endproc
                                        # -- End function
	.globl	writeSyntaxElement_Level_VLCN.18 # -- Begin function writeSyntaxElement_Level_VLCN.18
	.p2align	4, 0x90
	.type	writeSyntaxElement_Level_VLCN.18,@function
writeSyntaxElement_Level_VLCN.18:       # @writeSyntaxElement_Level_VLCN.18
	.cfi_startproc
# %bb.0:                                # %entry
	pushq	%rbp
	.cfi_def_cfa_offset 16
	.cfi_offset %rbp, -16
	movq	%rsp, %rbp
	.cfi_def_cfa_register %rbp
	pushq	%rbx
	subq	$72, %rsp
	.cfi_offset %rbx, -24
	movl	$210209984, -52(%rbp)   # imm = 0xC878CC0
	movq	%rdi, -24(%rbp)
	movl	%esi, -36(%rbp)
	movq	%rdx, -72(%rbp)
	movq	-24(%rbp), %rax
	movl	4(%rax), %eax
	movl	%eax, -32(%rbp)
	movl	-32(%rbp), %edi
	callq	abs
	xorl	%ecx, %ecx
	movl	%eax, -16(%rbp)
	movl	-32(%rbp), %eax
	cmpl	$0, %eax
	movl	$1, %eax
	cmovll	%eax, %ecx
	movl	%ecx, -48(%rbp)
	movl	-36(%rbp), %eax
	subl	$1, %eax
	movl	%eax, -12(%rbp)
	movl	-12(%rbp), %ecx
                                        # kill: def $cl killed $ecx
	movl	$15, %eax
	shll	%cl, %eax
	addl	$1, %eax
	movl	%eax, -40(%rbp)
	movl	-16(%rbp), %eax
	subl	$1, %eax
	movl	-12(%rbp), %ecx
                                        # kill: def $cl killed $ecx
	sarl	%cl, %eax
	movl	%eax, -64(%rbp)
	movl	-12(%rbp), %ecx
                                        # kill: def $cl killed $ecx
	movl	$4294967295, %eax       # imm = 0xFFFFFFFF
	shll	%cl, %eax
	xorl	$-1, %eax
	movl	%eax, -60(%rbp)
	movl	-16(%rbp), %eax
	subl	$1, %eax
	andl	-60(%rbp), %eax
	movl	%eax, -56(%rbp)
	movl	-16(%rbp), %eax
	cmpl	-40(%rbp), %eax
	jge	.LBB45_2
# %bb.1:                                # %if.then
	movl	-64(%rbp), %eax
	addl	-36(%rbp), %eax
	addl	$1, %eax
	movl	%eax, -44(%rbp)
	movl	-12(%rbp), %ecx
	addl	$1, %ecx
                                        # kill: def $cl killed $ecx
	movl	$1, %eax
	shll	%cl, %eax
	movl	-56(%rbp), %ecx
	shll	$1, %ecx
	orl	%ecx, %eax
	orl	-48(%rbp), %eax
	movl	%eax, -28(%rbp)
	jmp	.LBB45_3
.LBB45_2:                               # %if.else
	movl	$28, -44(%rbp)
	movl	-16(%rbp), %eax
	subl	-40(%rbp), %eax
	shll	$1, %eax
	orl	$4096, %eax             # imm = 0x1000
	orl	-48(%rbp), %eax
	movl	%eax, -28(%rbp)
.LBB45_3:                               # %if.end
	movl	-44(%rbp), %eax
	movq	-24(%rbp), %rcx
	movl	%eax, 12(%rcx)
	movl	-28(%rbp), %eax
	movq	-24(%rbp), %rcx
	movl	%eax, 16(%rcx)
	movq	-24(%rbp), %rdi
	callq	symbol2vlc
	movq	-24(%rbp), %rdi
	movq	-72(%rbp), %rax
	movq	(%rax), %rsi
	callq	writeUVLC2buffer
	movq	-24(%rbp), %rax
	movl	12(%rax), %ebx
	cmpl	$210209984, -52(%rbp)   # imm = 0xC878CC0
	jne	.LBB45_5
.LBB45_4:
	movl	%ebx, %eax
	addq	$72, %rsp
	popq	%rbx
	popq	%rbp
	.cfi_def_cfa %rsp, 8
	retq
.LBB45_5:                               # %func_exit
	.cfi_def_cfa %rbp, 16
	callq	detect_breach
	jmp	.LBB45_4
.Lfunc_end45:
	.size	writeSyntaxElement_Level_VLCN.18, .Lfunc_end45-writeSyntaxElement_Level_VLCN.18
	.cfi_endproc
                                        # -- End function
	.section	.rodata.cst8,"aM",@progbits,8
	.p2align	3               # -- Begin function ue_linfo.19
.LCPI46_0:
	.quad	4611686018427387904     # double 2
	.text
	.globl	ue_linfo.19
	.p2align	4, 0x90
	.type	ue_linfo.19,@function
ue_linfo.19:                            # @ue_linfo.19
	.cfi_startproc
# %bb.0:                                # %entry
	pushq	%rbp
	.cfi_def_cfa_offset 16
	.cfi_offset %rbp, -16
	movq	%rsp, %rbp
	.cfi_def_cfa_register %rbp
	pushq	%rbx
	subq	$40, %rsp
	.cfi_offset %rbx, -24
	movl	$433761613, -24(%rbp)   # imm = 0x19DAAD4D
	movl	%edi, -20(%rbp)
	movl	%esi, -44(%rbp)
	movq	%rdx, -32(%rbp)
	movq	%rcx, -40(%rbp)
	movl	-20(%rbp), %eax
	addl	$1, %eax
	cltd
	movl	$2, %ecx
	idivl	%ecx
	movl	%eax, -16(%rbp)
	movl	$0, -12(%rbp)
.LBB46_1:                               # %for.cond
                                        # =>This Inner Loop Header: Depth=1
	xorl	%eax, %eax
	cmpl	$16, -12(%rbp)
	jge	.LBB46_3
# %bb.2:                                # %land.rhs
                                        #   in Loop: Header=BB46_1 Depth=1
	cmpl	$0, -16(%rbp)
	setne	%al
.LBB46_3:                               # %land.end
                                        #   in Loop: Header=BB46_1 Depth=1
	testb	$1, %al
	jne	.LBB46_4
	jmp	.LBB46_6
.LBB46_4:                               # %for.body
                                        #   in Loop: Header=BB46_1 Depth=1
	movl	-16(%rbp), %eax
	cltd
	movl	$2, %ecx
	idivl	%ecx
	movl	%eax, -16(%rbp)
# %bb.5:                                # %for.inc
                                        #   in Loop: Header=BB46_1 Depth=1
	movl	-12(%rbp), %eax
	addl	$1, %eax
	movl	%eax, -12(%rbp)
	jmp	.LBB46_1
.LBB46_6:                               # %for.end
	vmovsd	.LCPI46_0(%rip), %xmm0  # xmm0 = mem[0],zero
	movl	-12(%rbp), %eax
	shll	$1, %eax
	addl	$1, %eax
	movq	-32(%rbp), %rcx
	movl	%eax, (%rcx)
	movl	-20(%rbp), %ebx
	addl	$1, %ebx
	vcvtsi2sdl	-12(%rbp), %xmm0, %xmm1
	callq	pow
	vcvttsd2si	%xmm0, %eax
	subl	%eax, %ebx
	movq	-40(%rbp), %rax
	movl	%ebx, (%rax)
	cmpl	$433761613, -24(%rbp)   # imm = 0x19DAAD4D
	jne	.LBB46_8
.LBB46_7:
	addq	$40, %rsp
	popq	%rbx
	popq	%rbp
	.cfi_def_cfa %rsp, 8
	retq
.LBB46_8:                               # %func_exit
	.cfi_def_cfa %rbp, 16
	callq	detect_breach
	jmp	.LBB46_7
.Lfunc_end46:
	.size	ue_linfo.19, .Lfunc_end46-ue_linfo.19
	.cfi_endproc
                                        # -- End function
	.globl	writeSyntaxElement_Run.20 # -- Begin function writeSyntaxElement_Run.20
	.p2align	4, 0x90
	.type	writeSyntaxElement_Run.20,@function
writeSyntaxElement_Run.20:              # @writeSyntaxElement_Run.20
	.cfi_startproc
# %bb.0:                                # %entry
	pushq	%rbp
	.cfi_def_cfa_offset 16
	.cfi_offset %rbp, -16
	movq	%rsp, %rbp
	.cfi_def_cfa_register %rbp
	pushq	%rbx
	subq	$24, %rsp
	.cfi_offset %rbx, -24
	movabsq	$writeSyntaxElement_Run.codtab, %rax
	movabsq	$writeSyntaxElement_Run.lentab, %rcx
	movl	$290849799, -24(%rbp)   # imm = 0x11560407
	movq	%rdi, -16(%rbp)
	movq	%rsi, -32(%rbp)
	movq	-16(%rbp), %rdx
	movl	12(%rdx), %edx
	movl	%edx, -20(%rbp)
	movslq	-20(%rbp), %rdx
	shlq	$6, %rdx
	addq	%rdx, %rcx
	movq	-16(%rbp), %rdx
	movslq	4(%rdx), %rdx
	movl	(%rcx,%rdx,4), %ecx
	movq	-16(%rbp), %rdx
	movl	%ecx, 12(%rdx)
	movslq	-20(%rbp), %rcx
	shlq	$6, %rcx
	addq	%rcx, %rax
	movq	-16(%rbp), %rcx
	movslq	4(%rcx), %rcx
	movl	(%rax,%rcx,4), %eax
	movq	-16(%rbp), %rcx
	movl	%eax, 16(%rcx)
	movq	-16(%rbp), %rax
	cmpl	$0, 12(%rax)
	jne	.LBB47_2
# %bb.1:                                # %if.then
	movq	-16(%rbp), %rax
	movl	4(%rax), %esi
	movabsq	$.L.str.3, %rdi
	movb	$0, %al
	callq	printf
	movl	$4294967295, %edi       # imm = 0xFFFFFFFF
	callq	exit
.LBB47_2:                               # %if.end
	movq	-16(%rbp), %rdi
	callq	symbol2vlc
	movq	-16(%rbp), %rdi
	movq	-32(%rbp), %rax
	movq	(%rax), %rsi
	callq	writeUVLC2buffer
	movq	-16(%rbp), %rax
	movl	12(%rax), %ebx
	cmpl	$290849799, -24(%rbp)   # imm = 0x11560407
	jne	.LBB47_4
.LBB47_3:
	movl	%ebx, %eax
	addq	$24, %rsp
	popq	%rbx
	popq	%rbp
	.cfi_def_cfa %rsp, 8
	retq
.LBB47_4:                               # %func_exit
	.cfi_def_cfa %rbp, 16
	callq	detect_breach
	jmp	.LBB47_3
.Lfunc_end47:
	.size	writeSyntaxElement_Run.20, .Lfunc_end47-writeSyntaxElement_Run.20
	.cfi_endproc
                                        # -- End function
	.section	.rodata.cst8,"aM",@progbits,8
	.p2align	3               # -- Begin function levrun_linfo_intra.21
.LCPI48_0:
	.quad	4611686018427387904     # double 2
	.text
	.globl	levrun_linfo_intra.21
	.p2align	4, 0x90
	.type	levrun_linfo_intra.21,@function
levrun_linfo_intra.21:                  # @levrun_linfo_intra.21
	.cfi_startproc
# %bb.0:                                # %entry
	pushq	%rbp
	.cfi_def_cfa_offset 16
	.cfi_offset %rbp, -16
	movq	%rsp, %rbp
	.cfi_def_cfa_register %rbp
	pushq	%rbx
	subq	$104, %rsp
	.cfi_offset %rbx, -24
	movl	$1605235560, -40(%rbp)  # imm = 0x5FADF368
	movl	%edi, -20(%rbp)
	movl	%esi, -16(%rbp)
	movq	%rdx, -48(%rbp)
	movq	%rcx, -64(%rbp)
	movq	.L__const.levrun_linfo_intra.LEVRUN, %rax
	movq	%rax, -56(%rbp)
	leaq	-112(%rbp), %rdi
	movabsq	$.L__const.levrun_linfo_intra.NTAB, %rsi
	movl	$45, %edx
	callq	memcpy
	cmpl	$0, -20(%rbp)
	jne	.LBB48_2
# %bb.1:                                # %if.then
	movq	-48(%rbp), %rax
	movl	$1, (%rax)
	jmp	.LBB48_15
.LBB48_2:                               # %if.end
	cmpl	$0, -20(%rbp)
	jg	.LBB48_4
# %bb.3:                                # %if.then2
	movl	$1, -36(%rbp)
	jmp	.LBB48_5
.LBB48_4:                               # %if.else
	movl	$0, -36(%rbp)
.LBB48_5:                               # %if.end3
	movl	-20(%rbp), %edi
	callq	abs
	movl	%eax, -28(%rbp)
	movl	-28(%rbp), %eax
	movslq	-16(%rbp), %rcx
	movzbl	-56(%rbp,%rcx), %ecx
	cmpl	%ecx, %eax
	jg	.LBB48_7
# %bb.6:                                # %if.then6
	movl	-28(%rbp), %eax
	subl	$1, %eax
	cltq
	imulq	$5, %rax, %rax
	leaq	-112(%rbp), %rcx
	addq	%rax, %rcx
	movslq	-16(%rbp), %rax
	movzbl	(%rcx,%rax), %eax
	addl	$1, %eax
	movl	%eax, -32(%rbp)
	jmp	.LBB48_8
.LBB48_7:                               # %if.else12
	movl	-28(%rbp), %eax
	movslq	-16(%rbp), %rcx
	movzbl	-56(%rbp,%rcx), %ecx
	subl	%ecx, %eax
	shll	$4, %eax
	addl	$16, %eax
	movl	-16(%rbp), %ecx
	shll	$1, %ecx
	addl	%ecx, %eax
	movl	%eax, -32(%rbp)
.LBB48_8:                               # %if.end20
	movl	-32(%rbp), %eax
	cltd
	movl	$2, %ecx
	idivl	%ecx
	movl	%eax, -24(%rbp)
	movl	$0, -12(%rbp)
.LBB48_9:                               # %for.cond
                                        # =>This Inner Loop Header: Depth=1
	xorl	%eax, %eax
	cmpl	$16, -12(%rbp)
	jge	.LBB48_11
# %bb.10:                               # %land.rhs
                                        #   in Loop: Header=BB48_9 Depth=1
	cmpl	$0, -24(%rbp)
	setne	%al
.LBB48_11:                              # %land.end
                                        #   in Loop: Header=BB48_9 Depth=1
	testb	$1, %al
	jne	.LBB48_12
	jmp	.LBB48_14
.LBB48_12:                              # %for.body
                                        #   in Loop: Header=BB48_9 Depth=1
	movl	-24(%rbp), %eax
	cltd
	movl	$2, %ecx
	idivl	%ecx
	movl	%eax, -24(%rbp)
# %bb.13:                               # %for.inc
                                        #   in Loop: Header=BB48_9 Depth=1
	movl	-12(%rbp), %eax
	addl	$1, %eax
	movl	%eax, -12(%rbp)
	jmp	.LBB48_9
.LBB48_14:                              # %for.end
	vmovsd	.LCPI48_0(%rip), %xmm0  # xmm0 = mem[0],zero
	movl	-12(%rbp), %eax
	shll	$1, %eax
	addl	$1, %eax
	movq	-48(%rbp), %rcx
	movl	%eax, (%rcx)
	movl	-32(%rbp), %ebx
	vcvtsi2sdl	-12(%rbp), %xmm0, %xmm1
	callq	pow
	vcvttsd2si	%xmm0, %eax
	subl	%eax, %ebx
	addl	-36(%rbp), %ebx
	movq	-64(%rbp), %rax
	movl	%ebx, (%rax)
.LBB48_15:                              # %return
	cmpl	$1605235560, -40(%rbp)  # imm = 0x5FADF368
	jne	.LBB48_17
.LBB48_16:
	addq	$104, %rsp
	popq	%rbx
	popq	%rbp
	.cfi_def_cfa %rsp, 8
	retq
.LBB48_17:                              # %func_exit
	.cfi_def_cfa %rbp, 16
	callq	detect_breach
	jmp	.LBB48_16
.Lfunc_end48:
	.size	levrun_linfo_intra.21, .Lfunc_end48-levrun_linfo_intra.21
	.cfi_endproc
                                        # -- End function
	.globl	symbol2vlc.22           # -- Begin function symbol2vlc.22
	.p2align	4, 0x90
	.type	symbol2vlc.22,@function
symbol2vlc.22:                          # @symbol2vlc.22
	.cfi_startproc
# %bb.0:                                # %entry
	pushq	%rbp
	.cfi_def_cfa_offset 16
	.cfi_offset %rbp, -16
	movq	%rsp, %rbp
	.cfi_def_cfa_register %rbp
	subq	$32, %rsp
	movl	$1113015824, -20(%rbp)  # imm = 0x42574610
	movq	%rdi, -16(%rbp)
	movq	-16(%rbp), %rax
	movl	12(%rax), %eax
	movl	%eax, -4(%rbp)
	movq	-16(%rbp), %rax
	movl	$0, 20(%rax)
.LBB49_1:                               # %while.cond
                                        # =>This Inner Loop Header: Depth=1
	movl	-4(%rbp), %eax
	addl	$-1, %eax
	movl	%eax, -4(%rbp)
	cmpl	$0, %eax
	jl	.LBB49_3
# %bb.2:                                # %while.body
                                        #   in Loop: Header=BB49_1 Depth=1
	movq	-16(%rbp), %rax
	movl	20(%rax), %ecx
	shll	$1, %ecx
	movl	%ecx, 20(%rax)
	movq	-16(%rbp), %rax
	movl	16(%rax), %eax
	movl	-4(%rbp), %ecx
                                        # kill: def $cl killed $ecx
	sarl	%cl, %eax
	andl	$1, %eax
	movq	-16(%rbp), %rcx
	orl	20(%rcx), %eax
	movl	%eax, 20(%rcx)
	jmp	.LBB49_1
.LBB49_3:                               # %while.end
	cmpl	$1113015824, -20(%rbp)  # imm = 0x42574610
	jne	.LBB49_5
.LBB49_4:
	xorl	%eax, %eax
	addq	$32, %rsp
	popq	%rbp
	.cfi_def_cfa %rsp, 8
	retq
.LBB49_5:                               # %func_exit
	.cfi_def_cfa %rbp, 16
	callq	detect_breach
	jmp	.LBB49_4
.Lfunc_end49:
	.size	symbol2vlc.22, .Lfunc_end49-symbol2vlc.22
	.cfi_endproc
                                        # -- End function
	.globl	writeSyntaxElement_Level_VLC1.23 # -- Begin function writeSyntaxElement_Level_VLC1.23
	.p2align	4, 0x90
	.type	writeSyntaxElement_Level_VLC1.23,@function
writeSyntaxElement_Level_VLC1.23:       # @writeSyntaxElement_Level_VLC1.23
	.cfi_startproc
# %bb.0:                                # %entry
	pushq	%rbp
	.cfi_def_cfa_offset 16
	.cfi_offset %rbp, -16
	movq	%rsp, %rbp
	.cfi_def_cfa_register %rbp
	pushq	%rbx
	subq	$40, %rsp
	.cfi_offset %rbx, -24
	movl	$828385263, -36(%rbp)   # imm = 0x316027EF
	movq	%rdi, -24(%rbp)
	movq	%rsi, -48(%rbp)
	movq	-24(%rbp), %rax
	movl	4(%rax), %eax
	movl	%eax, -32(%rbp)
	movl	-32(%rbp), %edi
	callq	abs
	xorl	%ecx, %ecx
	movl	%eax, -12(%rbp)
	movl	-32(%rbp), %eax
	cmpl	$0, %eax
	movl	$1, %eax
	cmovll	%eax, %ecx
	movl	%ecx, -28(%rbp)
	cmpl	$8, -12(%rbp)
	jge	.LBB50_2
# %bb.1:                                # %if.then
	movl	-12(%rbp), %eax
	shll	$1, %eax
	addl	-28(%rbp), %eax
	subl	$1, %eax
	movq	-24(%rbp), %rcx
	movl	%eax, 12(%rcx)
	movq	-24(%rbp), %rax
	movl	$1, 16(%rax)
	jmp	.LBB50_6
.LBB50_2:                               # %if.else
	cmpl	$16, -12(%rbp)
	jge	.LBB50_4
# %bb.3:                                # %if.then3
	movq	-24(%rbp), %rax
	movl	$19, 12(%rax)
	movl	-12(%rbp), %eax
	subl	$8, %eax
	shll	$1, %eax
	orl	$16, %eax
	orl	-28(%rbp), %eax
	movq	-24(%rbp), %rcx
	movl	%eax, 16(%rcx)
	jmp	.LBB50_5
.LBB50_4:                               # %if.else8
	movq	-24(%rbp), %rax
	movl	$28, 12(%rax)
	movl	-12(%rbp), %eax
	subl	$16, %eax
	shll	$1, %eax
	orl	$4096, %eax             # imm = 0x1000
	orl	-28(%rbp), %eax
	movq	-24(%rbp), %rcx
	movl	%eax, 16(%rcx)
.LBB50_5:                               # %if.end
	jmp	.LBB50_6
.LBB50_6:                               # %if.end15
	movq	-24(%rbp), %rdi
	callq	symbol2vlc
	movq	-24(%rbp), %rdi
	movq	-48(%rbp), %rax
	movq	(%rax), %rsi
	callq	writeUVLC2buffer
	movq	-24(%rbp), %rax
	movl	12(%rax), %ebx
	cmpl	$828385263, -36(%rbp)   # imm = 0x316027EF
	jne	.LBB50_8
.LBB50_7:
	movl	%ebx, %eax
	addq	$40, %rsp
	popq	%rbx
	popq	%rbp
	.cfi_def_cfa %rsp, 8
	retq
.LBB50_8:                               # %func_exit
	.cfi_def_cfa %rbp, 16
	callq	detect_breach
	jmp	.LBB50_7
.Lfunc_end50:
	.size	writeSyntaxElement_Level_VLC1.23, .Lfunc_end50-writeSyntaxElement_Level_VLC1.23
	.cfi_endproc
                                        # -- End function
	.globl	u_v.24                  # -- Begin function u_v.24
	.p2align	4, 0x90
	.type	u_v.24,@function
u_v.24:                                 # @u_v.24
	.cfi_startproc
# %bb.0:                                # %entry
	pushq	%rbp
	.cfi_def_cfa_offset 16
	.cfi_offset %rbp, -16
	movq	%rsp, %rbp
	.cfi_def_cfa_register %rbp
	pushq	%rbx
	subq	$88, %rsp
	.cfi_offset %rbx, -24
	movl	$19589682, -24(%rbp)    # imm = 0x12AEA32
	movl	%edi, -28(%rbp)
	movq	%rsi, -48(%rbp)
	movl	%edx, -20(%rbp)
	movq	%rcx, -40(%rbp)
	leaq	-96(%rbp), %rax
	movq	%rax, -16(%rbp)
	movl	-20(%rbp), %eax
	movq	-16(%rbp), %rcx
	movl	%eax, 20(%rcx)
	movl	-28(%rbp), %eax
	movq	-16(%rbp), %rcx
	movl	%eax, 12(%rcx)
	movq	-16(%rbp), %rax
	movl	$0, (%rax)
	movl	-20(%rbp), %eax
	movq	-16(%rbp), %rcx
	movl	%eax, 4(%rcx)
	movq	-16(%rbp), %rax
	movl	$0, 8(%rax)
	movq	-16(%rbp), %rdi
	movq	-40(%rbp), %rsi
	callq	writeSyntaxElement_fixed
	movl	%eax, %ebx
	cmpl	$19589682, -24(%rbp)    # imm = 0x12AEA32
	jne	.LBB51_2
.LBB51_1:
	movl	%ebx, %eax
	addq	$88, %rsp
	popq	%rbx
	popq	%rbp
	.cfi_def_cfa %rsp, 8
	retq
.LBB51_2:                               # %func_exit
	.cfi_def_cfa %rbp, 16
	callq	detect_breach
	jmp	.LBB51_1
.Lfunc_end51:
	.size	u_v.24, .Lfunc_end51-u_v.24
	.cfi_endproc
                                        # -- End function
	.globl	writeSyntaxElement_fixed.25 # -- Begin function writeSyntaxElement_fixed.25
	.p2align	4, 0x90
	.type	writeSyntaxElement_fixed.25,@function
writeSyntaxElement_fixed.25:            # @writeSyntaxElement_fixed.25
	.cfi_startproc
# %bb.0:                                # %entry
	pushq	%rbp
	.cfi_def_cfa_offset 16
	.cfi_offset %rbp, -16
	movq	%rsp, %rbp
	.cfi_def_cfa_register %rbp
	pushq	%rbx
	subq	$24, %rsp
	.cfi_offset %rbx, -24
	movl	$1613954110, -20(%rbp)  # imm = 0x6032FC3E
	movq	%rdi, -16(%rbp)
	movq	%rsi, -32(%rbp)
	movq	-16(%rbp), %rdi
	movq	-32(%rbp), %rax
	movq	(%rax), %rsi
	callq	writeUVLC2buffer
	movq	-16(%rbp), %rax
	cmpl	$0, (%rax)
	je	.LBB52_2
# %bb.1:                                # %if.then
	movq	-32(%rbp), %rax
	movq	(%rax), %rax
	movl	$1, 40(%rax)
.LBB52_2:                               # %if.end
	movq	-16(%rbp), %rax
	movl	12(%rax), %ebx
	cmpl	$1613954110, -20(%rbp)  # imm = 0x6032FC3E
	jne	.LBB52_4
.LBB52_3:
	movl	%ebx, %eax
	addq	$24, %rsp
	popq	%rbx
	popq	%rbp
	.cfi_def_cfa %rsp, 8
	retq
.LBB52_4:                               # %func_exit
	.cfi_def_cfa %rbp, 16
	callq	detect_breach
	jmp	.LBB52_3
.Lfunc_end52:
	.size	writeSyntaxElement_fixed.25, .Lfunc_end52-writeSyntaxElement_fixed.25
	.cfi_endproc
                                        # -- End function
	.globl	u_1.26                  # -- Begin function u_1.26
	.p2align	4, 0x90
	.type	u_1.26,@function
u_1.26:                                 # @u_1.26
	.cfi_startproc
# %bb.0:                                # %entry
	pushq	%rbp
	.cfi_def_cfa_offset 16
	.cfi_offset %rbp, -16
	movq	%rsp, %rbp
	.cfi_def_cfa_register %rbp
	pushq	%rbx
	subq	$88, %rsp
	.cfi_offset %rbx, -24
	movl	$1819814896, -24(%rbp)  # imm = 0x6C782BF0
	movq	%rdi, -40(%rbp)
	movl	%esi, -20(%rbp)
	movq	%rdx, -32(%rbp)
	leaq	-88(%rbp), %rax
	movq	%rax, -16(%rbp)
	movl	-20(%rbp), %eax
	movq	-16(%rbp), %rcx
	movl	%eax, 20(%rcx)
	movq	-16(%rbp), %rax
	movl	$1, 12(%rax)
	movq	-16(%rbp), %rax
	movl	$0, (%rax)
	movl	-20(%rbp), %eax
	movq	-16(%rbp), %rcx
	movl	%eax, 4(%rcx)
	movq	-16(%rbp), %rax
	movl	$0, 8(%rax)
	movq	-16(%rbp), %rdi
	movq	-32(%rbp), %rsi
	callq	writeSyntaxElement_fixed
	movl	%eax, %ebx
	cmpl	$1819814896, -24(%rbp)  # imm = 0x6C782BF0
	jne	.LBB53_2
.LBB53_1:
	movl	%ebx, %eax
	addq	$88, %rsp
	popq	%rbx
	popq	%rbp
	.cfi_def_cfa %rsp, 8
	retq
.LBB53_2:                               # %func_exit
	.cfi_def_cfa %rbp, 16
	callq	detect_breach
	jmp	.LBB53_1
.Lfunc_end53:
	.size	u_1.26, .Lfunc_end53-u_1.26
	.cfi_endproc
                                        # -- End function
	.globl	writeSyntaxElement2Buf_UVLC.27 # -- Begin function writeSyntaxElement2Buf_UVLC.27
	.p2align	4, 0x90
	.type	writeSyntaxElement2Buf_UVLC.27,@function
writeSyntaxElement2Buf_UVLC.27:         # @writeSyntaxElement2Buf_UVLC.27
	.cfi_startproc
# %bb.0:                                # %entry
	pushq	%rbp
	.cfi_def_cfa_offset 16
	.cfi_offset %rbp, -16
	movq	%rsp, %rbp
	.cfi_def_cfa_register %rbp
	pushq	%rbx
	subq	$24, %rsp
	.cfi_offset %rbx, -24
	movl	$412101078, -20(%rbp)   # imm = 0x189029D6
	movq	%rdi, -16(%rbp)
	movq	%rsi, -32(%rbp)
	movq	-16(%rbp), %rax
	movq	32(%rax), %rax
	movq	-16(%rbp), %rcx
	movl	4(%rcx), %edi
	movq	-16(%rbp), %rcx
	movl	8(%rcx), %esi
	movq	-16(%rbp), %rdx
	addq	$12, %rdx
	movq	-16(%rbp), %rcx
	addq	$16, %rcx
	callq	*%rax
	movq	-16(%rbp), %rdi
	callq	symbol2uvlc
	movq	-16(%rbp), %rdi
	movq	-32(%rbp), %rsi
	callq	writeUVLC2buffer
	movq	-16(%rbp), %rax
	movl	12(%rax), %ebx
	cmpl	$412101078, -20(%rbp)   # imm = 0x189029D6
	jne	.LBB54_2
.LBB54_1:
	movl	%ebx, %eax
	addq	$24, %rsp
	popq	%rbx
	popq	%rbp
	.cfi_def_cfa %rsp, 8
	retq
.LBB54_2:                               # %func_exit
	.cfi_def_cfa %rbp, 16
	callq	detect_breach
	jmp	.LBB54_1
.Lfunc_end54:
	.size	writeSyntaxElement2Buf_UVLC.27, .Lfunc_end54-writeSyntaxElement2Buf_UVLC.27
	.cfi_endproc
                                        # -- End function
	.globl	writeSyntaxElement_UVLC.28 # -- Begin function writeSyntaxElement_UVLC.28
	.p2align	4, 0x90
	.type	writeSyntaxElement_UVLC.28,@function
writeSyntaxElement_UVLC.28:             # @writeSyntaxElement_UVLC.28
	.cfi_startproc
# %bb.0:                                # %entry
	pushq	%rbp
	.cfi_def_cfa_offset 16
	.cfi_offset %rbp, -16
	movq	%rsp, %rbp
	.cfi_def_cfa_register %rbp
	pushq	%rbx
	subq	$24, %rsp
	.cfi_offset %rbx, -24
	movl	$693492959, -20(%rbp)   # imm = 0x2955DCDF
	movq	%rdi, -16(%rbp)
	movq	%rsi, -32(%rbp)
	movq	-16(%rbp), %rax
	movq	32(%rax), %rax
	movq	-16(%rbp), %rcx
	movl	4(%rcx), %edi
	movq	-16(%rbp), %rcx
	movl	8(%rcx), %esi
	movq	-16(%rbp), %rdx
	addq	$12, %rdx
	movq	-16(%rbp), %rcx
	addq	$16, %rcx
	callq	*%rax
	movq	-16(%rbp), %rdi
	callq	symbol2uvlc
	movq	-16(%rbp), %rdi
	movq	-32(%rbp), %rax
	movq	(%rax), %rsi
	callq	writeUVLC2buffer
	movq	-16(%rbp), %rax
	cmpl	$0, (%rax)
	je	.LBB55_2
# %bb.1:                                # %if.then
	movq	-32(%rbp), %rax
	movq	(%rax), %rax
	movl	$1, 40(%rax)
.LBB55_2:                               # %if.end
	movq	-16(%rbp), %rax
	movl	12(%rax), %ebx
	cmpl	$693492959, -20(%rbp)   # imm = 0x2955DCDF
	jne	.LBB55_4
.LBB55_3:
	movl	%ebx, %eax
	addq	$24, %rsp
	popq	%rbx
	popq	%rbp
	.cfi_def_cfa %rsp, 8
	retq
.LBB55_4:                               # %func_exit
	.cfi_def_cfa %rbp, 16
	callq	detect_breach
	jmp	.LBB55_3
.Lfunc_end55:
	.size	writeSyntaxElement_UVLC.28, .Lfunc_end55-writeSyntaxElement_UVLC.28
	.cfi_endproc
                                        # -- End function
	.globl	u_v.29                  # -- Begin function u_v.29
	.p2align	4, 0x90
	.type	u_v.29,@function
u_v.29:                                 # @u_v.29
	.cfi_startproc
# %bb.0:                                # %entry
	pushq	%rbp
	.cfi_def_cfa_offset 16
	.cfi_offset %rbp, -16
	movq	%rsp, %rbp
	.cfi_def_cfa_register %rbp
	pushq	%rbx
	subq	$88, %rsp
	.cfi_offset %rbx, -24
	movl	$1278017274, -28(%rbp)  # imm = 0x4C2CFEFA
	movl	%edi, -24(%rbp)
	movq	%rsi, -48(%rbp)
	movl	%edx, -20(%rbp)
	movq	%rcx, -40(%rbp)
	leaq	-96(%rbp), %rax
	movq	%rax, -16(%rbp)
	movl	-20(%rbp), %eax
	movq	-16(%rbp), %rcx
	movl	%eax, 20(%rcx)
	movl	-24(%rbp), %eax
	movq	-16(%rbp), %rcx
	movl	%eax, 12(%rcx)
	movq	-16(%rbp), %rax
	movl	$0, (%rax)
	movl	-20(%rbp), %eax
	movq	-16(%rbp), %rcx
	movl	%eax, 4(%rcx)
	movq	-16(%rbp), %rax
	movl	$0, 8(%rax)
	movq	-16(%rbp), %rdi
	movq	-40(%rbp), %rsi
	callq	writeSyntaxElement_fixed
	movl	%eax, %ebx
	cmpl	$1278017274, -28(%rbp)  # imm = 0x4C2CFEFA
	jne	.LBB56_2
.LBB56_1:
	movl	%ebx, %eax
	addq	$88, %rsp
	popq	%rbx
	popq	%rbp
	.cfi_def_cfa %rsp, 8
	retq
.LBB56_2:                               # %func_exit
	.cfi_def_cfa %rbp, 16
	callq	detect_breach
	jmp	.LBB56_1
.Lfunc_end56:
	.size	u_v.29, .Lfunc_end56-u_v.29
	.cfi_endproc
                                        # -- End function
	.globl	cbp_linfo_inter.30      # -- Begin function cbp_linfo_inter.30
	.p2align	4, 0x90
	.type	cbp_linfo_inter.30,@function
cbp_linfo_inter.30:                     # @cbp_linfo_inter.30
	.cfi_startproc
# %bb.0:                                # %entry
	pushq	%rbp
	.cfi_def_cfa_offset 16
	.cfi_offset %rbp, -16
	movq	%rsp, %rbp
	.cfi_def_cfa_register %rbp
	subq	$32, %rsp
	xorl	%eax, %eax
	movl	$1257536780, -4(%rbp)   # imm = 0x4AF47D0C
	movl	%edi, -8(%rbp)
	movl	%esi, -12(%rbp)
	movq	%rdx, -32(%rbp)
	movq	%rcx, -24(%rbp)
	movq	img, %rcx
	movl	72700(%rcx), %ecx
	cmpl	$0, %ecx
	movl	$1, %ecx
	cmovnel	%ecx, %eax
	cltq
	imulq	$96, %rax, %rax
	movabsq	$NCBP, %rcx
	addq	%rax, %rcx
	movslq	-8(%rbp), %rax
	movzbl	1(%rcx,%rax,2), %edi
	movl	-12(%rbp), %esi
	movq	-32(%rbp), %rdx
	movq	-24(%rbp), %rcx
	callq	ue_linfo
	cmpl	$1257536780, -4(%rbp)   # imm = 0x4AF47D0C
	jne	.LBB57_2
.LBB57_1:
	addq	$32, %rsp
	popq	%rbp
	.cfi_def_cfa %rsp, 8
	retq
.LBB57_2:                               # %func_exit
	.cfi_def_cfa %rbp, 16
	callq	detect_breach
	jmp	.LBB57_1
.Lfunc_end57:
	.size	cbp_linfo_inter.30, .Lfunc_end57-cbp_linfo_inter.30
	.cfi_endproc
                                        # -- End function
	.globl	writeSyntaxElement_NumCoeffTrailingOnesChromaDC.31 # -- Begin function writeSyntaxElement_NumCoeffTrailingOnesChromaDC.31
	.p2align	4, 0x90
	.type	writeSyntaxElement_NumCoeffTrailingOnesChromaDC.31,@function
writeSyntaxElement_NumCoeffTrailingOnesChromaDC.31: # @writeSyntaxElement_NumCoeffTrailingOnesChromaDC.31
	.cfi_startproc
# %bb.0:                                # %entry
	pushq	%rbp
	.cfi_def_cfa_offset 16
	.cfi_offset %rbp, -16
	movq	%rsp, %rbp
	.cfi_def_cfa_register %rbp
	pushq	%rbx
	subq	$24, %rsp
	.cfi_offset %rbx, -24
	movabsq	$writeSyntaxElement_NumCoeffTrailingOnesChromaDC.codtab, %rax
	movabsq	$writeSyntaxElement_NumCoeffTrailingOnesChromaDC.lentab, %rcx
	movl	$1908345648, -24(%rbp)  # imm = 0x71BF0B30
	movq	%rdi, -16(%rbp)
	movq	%rsi, -32(%rbp)
	movq	img, %rdx
	movl	72700(%rdx), %edx
	subl	$1, %edx
	movl	%edx, -20(%rbp)
	movslq	-20(%rbp), %rdx
	imulq	$272, %rdx, %rdx        # imm = 0x110
	addq	%rdx, %rcx
	movq	-16(%rbp), %rdx
	movslq	8(%rdx), %rdx
	imulq	$68, %rdx, %rdx
	addq	%rdx, %rcx
	movq	-16(%rbp), %rdx
	movslq	4(%rdx), %rdx
	movl	(%rcx,%rdx,4), %ecx
	movq	-16(%rbp), %rdx
	movl	%ecx, 12(%rdx)
	movslq	-20(%rbp), %rcx
	imulq	$272, %rcx, %rcx        # imm = 0x110
	addq	%rcx, %rax
	movq	-16(%rbp), %rcx
	movslq	8(%rcx), %rcx
	imulq	$68, %rcx, %rcx
	addq	%rcx, %rax
	movq	-16(%rbp), %rcx
	movslq	4(%rcx), %rcx
	movl	(%rax,%rcx,4), %eax
	movq	-16(%rbp), %rcx
	movl	%eax, 16(%rcx)
	movq	-16(%rbp), %rax
	cmpl	$0, 12(%rax)
	jne	.LBB58_2
# %bb.1:                                # %if.then
	movq	-16(%rbp), %rax
	movl	4(%rax), %esi
	movq	-16(%rbp), %rax
	movl	8(%rax), %edx
	movabsq	$.L.str.1, %rdi
	movb	$0, %al
	callq	printf
	movl	$4294967295, %edi       # imm = 0xFFFFFFFF
	callq	exit
.LBB58_2:                               # %if.end
	movq	-16(%rbp), %rdi
	callq	symbol2vlc
	movq	-16(%rbp), %rdi
	movq	-32(%rbp), %rax
	movq	(%rax), %rsi
	callq	writeUVLC2buffer
	movq	-16(%rbp), %rax
	movl	12(%rax), %ebx
	cmpl	$1908345648, -24(%rbp)  # imm = 0x71BF0B30
	jne	.LBB58_4
.LBB58_3:
	movl	%ebx, %eax
	addq	$24, %rsp
	popq	%rbx
	popq	%rbp
	.cfi_def_cfa %rsp, 8
	retq
.LBB58_4:                               # %func_exit
	.cfi_def_cfa %rbp, 16
	callq	detect_breach
	jmp	.LBB58_3
.Lfunc_end58:
	.size	writeSyntaxElement_NumCoeffTrailingOnesChromaDC.31, .Lfunc_end58-writeSyntaxElement_NumCoeffTrailingOnesChromaDC.31
	.cfi_endproc
                                        # -- End function
	.globl	ue_v.32                 # -- Begin function ue_v.32
	.p2align	4, 0x90
	.type	ue_v.32,@function
ue_v.32:                                # @ue_v.32
	.cfi_startproc
# %bb.0:                                # %entry
	pushq	%rbp
	.cfi_def_cfa_offset 16
	.cfi_offset %rbp, -16
	movq	%rsp, %rbp
	.cfi_def_cfa_register %rbp
	pushq	%rbx
	subq	$88, %rsp
	.cfi_offset %rbx, -24
	movl	$156091288, -20(%rbp)   # imm = 0x94DC398
	movq	%rdi, -40(%rbp)
	movl	%esi, -24(%rbp)
	movq	%rdx, -32(%rbp)
	leaq	-88(%rbp), %rax
	movq	%rax, -16(%rbp)
	movq	-16(%rbp), %rax
	movl	$0, (%rax)
	movq	-16(%rbp), %rax
	movabsq	$ue_linfo, %rcx
	movq	%rcx, 32(%rax)
	movl	-24(%rbp), %eax
	movq	-16(%rbp), %rcx
	movl	%eax, 4(%rcx)
	movq	-16(%rbp), %rax
	movl	$0, 8(%rax)
	movq	-16(%rbp), %rdi
	movq	-32(%rbp), %rsi
	callq	writeSyntaxElement_UVLC
	movl	%eax, %ebx
	cmpl	$156091288, -20(%rbp)   # imm = 0x94DC398
	jne	.LBB59_2
.LBB59_1:
	movl	%ebx, %eax
	addq	$88, %rsp
	popq	%rbx
	popq	%rbp
	.cfi_def_cfa %rsp, 8
	retq
.LBB59_2:                               # %func_exit
	.cfi_def_cfa %rbp, 16
	callq	detect_breach
	jmp	.LBB59_1
.Lfunc_end59:
	.size	ue_v.32, .Lfunc_end59-ue_v.32
	.cfi_endproc
                                        # -- End function
	.globl	writeSyntaxElement_NumCoeffTrailingOnesChromaDC.33 # -- Begin function writeSyntaxElement_NumCoeffTrailingOnesChromaDC.33
	.p2align	4, 0x90
	.type	writeSyntaxElement_NumCoeffTrailingOnesChromaDC.33,@function
writeSyntaxElement_NumCoeffTrailingOnesChromaDC.33: # @writeSyntaxElement_NumCoeffTrailingOnesChromaDC.33
	.cfi_startproc
# %bb.0:                                # %entry
	pushq	%rbp
	.cfi_def_cfa_offset 16
	.cfi_offset %rbp, -16
	movq	%rsp, %rbp
	.cfi_def_cfa_register %rbp
	pushq	%rbx
	subq	$24, %rsp
	.cfi_offset %rbx, -24
	movabsq	$writeSyntaxElement_NumCoeffTrailingOnesChromaDC.codtab, %rax
	movabsq	$writeSyntaxElement_NumCoeffTrailingOnesChromaDC.lentab, %rcx
	movl	$165386993, -24(%rbp)   # imm = 0x9DB9AF1
	movq	%rdi, -16(%rbp)
	movq	%rsi, -32(%rbp)
	movq	img, %rdx
	movl	72700(%rdx), %edx
	subl	$1, %edx
	movl	%edx, -20(%rbp)
	movslq	-20(%rbp), %rdx
	imulq	$272, %rdx, %rdx        # imm = 0x110
	addq	%rdx, %rcx
	movq	-16(%rbp), %rdx
	movslq	8(%rdx), %rdx
	imulq	$68, %rdx, %rdx
	addq	%rdx, %rcx
	movq	-16(%rbp), %rdx
	movslq	4(%rdx), %rdx
	movl	(%rcx,%rdx,4), %ecx
	movq	-16(%rbp), %rdx
	movl	%ecx, 12(%rdx)
	movslq	-20(%rbp), %rcx
	imulq	$272, %rcx, %rcx        # imm = 0x110
	addq	%rcx, %rax
	movq	-16(%rbp), %rcx
	movslq	8(%rcx), %rcx
	imulq	$68, %rcx, %rcx
	addq	%rcx, %rax
	movq	-16(%rbp), %rcx
	movslq	4(%rcx), %rcx
	movl	(%rax,%rcx,4), %eax
	movq	-16(%rbp), %rcx
	movl	%eax, 16(%rcx)
	movq	-16(%rbp), %rax
	cmpl	$0, 12(%rax)
	jne	.LBB60_2
# %bb.1:                                # %if.then
	movq	-16(%rbp), %rax
	movl	4(%rax), %esi
	movq	-16(%rbp), %rax
	movl	8(%rax), %edx
	movabsq	$.L.str.1, %rdi
	movb	$0, %al
	callq	printf
	movl	$4294967295, %edi       # imm = 0xFFFFFFFF
	callq	exit
.LBB60_2:                               # %if.end
	movq	-16(%rbp), %rdi
	callq	symbol2vlc
	movq	-16(%rbp), %rdi
	movq	-32(%rbp), %rax
	movq	(%rax), %rsi
	callq	writeUVLC2buffer
	movq	-16(%rbp), %rax
	movl	12(%rax), %ebx
	cmpl	$165386993, -24(%rbp)   # imm = 0x9DB9AF1
	jne	.LBB60_4
.LBB60_3:
	movl	%ebx, %eax
	addq	$24, %rsp
	popq	%rbx
	popq	%rbp
	.cfi_def_cfa %rsp, 8
	retq
.LBB60_4:                               # %func_exit
	.cfi_def_cfa %rbp, 16
	callq	detect_breach
	jmp	.LBB60_3
.Lfunc_end60:
	.size	writeSyntaxElement_NumCoeffTrailingOnesChromaDC.33, .Lfunc_end60-writeSyntaxElement_NumCoeffTrailingOnesChromaDC.33
	.cfi_endproc
                                        # -- End function
	.section	.rodata.cst8,"aM",@progbits,8
	.p2align	3               # -- Begin function ue_linfo.34
.LCPI61_0:
	.quad	4611686018427387904     # double 2
	.text
	.globl	ue_linfo.34
	.p2align	4, 0x90
	.type	ue_linfo.34,@function
ue_linfo.34:                            # @ue_linfo.34
	.cfi_startproc
# %bb.0:                                # %entry
	pushq	%rbp
	.cfi_def_cfa_offset 16
	.cfi_offset %rbp, -16
	movq	%rsp, %rbp
	.cfi_def_cfa_register %rbp
	pushq	%rbx
	subq	$40, %rsp
	.cfi_offset %rbx, -24
	movl	$492505542, -24(%rbp)   # imm = 0x1D5B09C6
	movl	%edi, -20(%rbp)
	movl	%esi, -44(%rbp)
	movq	%rdx, -32(%rbp)
	movq	%rcx, -40(%rbp)
	movl	-20(%rbp), %eax
	addl	$1, %eax
	cltd
	movl	$2, %ecx
	idivl	%ecx
	movl	%eax, -16(%rbp)
	movl	$0, -12(%rbp)
.LBB61_1:                               # %for.cond
                                        # =>This Inner Loop Header: Depth=1
	xorl	%eax, %eax
	cmpl	$16, -12(%rbp)
	jge	.LBB61_3
# %bb.2:                                # %land.rhs
                                        #   in Loop: Header=BB61_1 Depth=1
	cmpl	$0, -16(%rbp)
	setne	%al
.LBB61_3:                               # %land.end
                                        #   in Loop: Header=BB61_1 Depth=1
	testb	$1, %al
	jne	.LBB61_4
	jmp	.LBB61_6
.LBB61_4:                               # %for.body
                                        #   in Loop: Header=BB61_1 Depth=1
	movl	-16(%rbp), %eax
	cltd
	movl	$2, %ecx
	idivl	%ecx
	movl	%eax, -16(%rbp)
# %bb.5:                                # %for.inc
                                        #   in Loop: Header=BB61_1 Depth=1
	movl	-12(%rbp), %eax
	addl	$1, %eax
	movl	%eax, -12(%rbp)
	jmp	.LBB61_1
.LBB61_6:                               # %for.end
	vmovsd	.LCPI61_0(%rip), %xmm0  # xmm0 = mem[0],zero
	movl	-12(%rbp), %eax
	shll	$1, %eax
	addl	$1, %eax
	movq	-32(%rbp), %rcx
	movl	%eax, (%rcx)
	movl	-20(%rbp), %ebx
	addl	$1, %ebx
	vcvtsi2sdl	-12(%rbp), %xmm0, %xmm1
	callq	pow
	vcvttsd2si	%xmm0, %eax
	subl	%eax, %ebx
	movq	-40(%rbp), %rax
	movl	%ebx, (%rax)
	cmpl	$492505542, -24(%rbp)   # imm = 0x1D5B09C6
	jne	.LBB61_8
.LBB61_7:
	addq	$40, %rsp
	popq	%rbx
	popq	%rbp
	.cfi_def_cfa %rsp, 8
	retq
.LBB61_8:                               # %func_exit
	.cfi_def_cfa %rbp, 16
	callq	detect_breach
	jmp	.LBB61_7
.Lfunc_end61:
	.size	ue_linfo.34, .Lfunc_end61-ue_linfo.34
	.cfi_endproc
                                        # -- End function
	.section	.rodata.cst8,"aM",@progbits,8
	.p2align	3               # -- Begin function levrun_linfo_intra.35
.LCPI62_0:
	.quad	4611686018427387904     # double 2
	.text
	.globl	levrun_linfo_intra.35
	.p2align	4, 0x90
	.type	levrun_linfo_intra.35,@function
levrun_linfo_intra.35:                  # @levrun_linfo_intra.35
	.cfi_startproc
# %bb.0:                                # %entry
	pushq	%rbp
	.cfi_def_cfa_offset 16
	.cfi_offset %rbp, -16
	movq	%rsp, %rbp
	.cfi_def_cfa_register %rbp
	pushq	%rbx
	subq	$104, %rsp
	.cfi_offset %rbx, -24
	movl	$1613820112, -40(%rbp)  # imm = 0x6030F0D0
	movl	%edi, -28(%rbp)
	movl	%esi, -16(%rbp)
	movq	%rdx, -48(%rbp)
	movq	%rcx, -64(%rbp)
	movq	.L__const.levrun_linfo_intra.LEVRUN, %rax
	movq	%rax, -56(%rbp)
	leaq	-112(%rbp), %rdi
	movabsq	$.L__const.levrun_linfo_intra.NTAB, %rsi
	movl	$45, %edx
	callq	memcpy
	cmpl	$0, -28(%rbp)
	jne	.LBB62_2
# %bb.1:                                # %if.then
	movq	-48(%rbp), %rax
	movl	$1, (%rax)
	jmp	.LBB62_15
.LBB62_2:                               # %if.end
	cmpl	$0, -28(%rbp)
	jg	.LBB62_4
# %bb.3:                                # %if.then2
	movl	$1, -36(%rbp)
	jmp	.LBB62_5
.LBB62_4:                               # %if.else
	movl	$0, -36(%rbp)
.LBB62_5:                               # %if.end3
	movl	-28(%rbp), %edi
	callq	abs
	movl	%eax, -20(%rbp)
	movl	-20(%rbp), %eax
	movslq	-16(%rbp), %rcx
	movzbl	-56(%rbp,%rcx), %ecx
	cmpl	%ecx, %eax
	jg	.LBB62_7
# %bb.6:                                # %if.then6
	movl	-20(%rbp), %eax
	subl	$1, %eax
	cltq
	imulq	$5, %rax, %rax
	leaq	-112(%rbp), %rcx
	addq	%rax, %rcx
	movslq	-16(%rbp), %rax
	movzbl	(%rcx,%rax), %eax
	addl	$1, %eax
	movl	%eax, -32(%rbp)
	jmp	.LBB62_8
.LBB62_7:                               # %if.else12
	movl	-20(%rbp), %eax
	movslq	-16(%rbp), %rcx
	movzbl	-56(%rbp,%rcx), %ecx
	subl	%ecx, %eax
	shll	$4, %eax
	addl	$16, %eax
	movl	-16(%rbp), %ecx
	shll	$1, %ecx
	addl	%ecx, %eax
	movl	%eax, -32(%rbp)
.LBB62_8:                               # %if.end20
	movl	-32(%rbp), %eax
	cltd
	movl	$2, %ecx
	idivl	%ecx
	movl	%eax, -24(%rbp)
	movl	$0, -12(%rbp)
.LBB62_9:                               # %for.cond
                                        # =>This Inner Loop Header: Depth=1
	xorl	%eax, %eax
	cmpl	$16, -12(%rbp)
	jge	.LBB62_11
# %bb.10:                               # %land.rhs
                                        #   in Loop: Header=BB62_9 Depth=1
	cmpl	$0, -24(%rbp)
	setne	%al
.LBB62_11:                              # %land.end
                                        #   in Loop: Header=BB62_9 Depth=1
	testb	$1, %al
	jne	.LBB62_12
	jmp	.LBB62_14
.LBB62_12:                              # %for.body
                                        #   in Loop: Header=BB62_9 Depth=1
	movl	-24(%rbp), %eax
	cltd
	movl	$2, %ecx
	idivl	%ecx
	movl	%eax, -24(%rbp)
# %bb.13:                               # %for.inc
                                        #   in Loop: Header=BB62_9 Depth=1
	movl	-12(%rbp), %eax
	addl	$1, %eax
	movl	%eax, -12(%rbp)
	jmp	.LBB62_9
.LBB62_14:                              # %for.end
	vmovsd	.LCPI62_0(%rip), %xmm0  # xmm0 = mem[0],zero
	movl	-12(%rbp), %eax
	shll	$1, %eax
	addl	$1, %eax
	movq	-48(%rbp), %rcx
	movl	%eax, (%rcx)
	movl	-32(%rbp), %ebx
	vcvtsi2sdl	-12(%rbp), %xmm0, %xmm1
	callq	pow
	vcvttsd2si	%xmm0, %eax
	subl	%eax, %ebx
	addl	-36(%rbp), %ebx
	movq	-64(%rbp), %rax
	movl	%ebx, (%rax)
.LBB62_15:                              # %return
	cmpl	$1613820112, -40(%rbp)  # imm = 0x6030F0D0
	jne	.LBB62_17
.LBB62_16:
	addq	$104, %rsp
	popq	%rbx
	popq	%rbp
	.cfi_def_cfa %rsp, 8
	retq
.LBB62_17:                              # %func_exit
	.cfi_def_cfa %rbp, 16
	callq	detect_breach
	jmp	.LBB62_16
.Lfunc_end62:
	.size	levrun_linfo_intra.35, .Lfunc_end62-levrun_linfo_intra.35
	.cfi_endproc
                                        # -- End function
	.globl	writeSyntaxElement_UVLC.36 # -- Begin function writeSyntaxElement_UVLC.36
	.p2align	4, 0x90
	.type	writeSyntaxElement_UVLC.36,@function
writeSyntaxElement_UVLC.36:             # @writeSyntaxElement_UVLC.36
	.cfi_startproc
# %bb.0:                                # %entry
	pushq	%rbp
	.cfi_def_cfa_offset 16
	.cfi_offset %rbp, -16
	movq	%rsp, %rbp
	.cfi_def_cfa_register %rbp
	pushq	%rbx
	subq	$24, %rsp
	.cfi_offset %rbx, -24
	movl	$1657620207, -20(%rbp)  # imm = 0x62CD46EF
	movq	%rdi, -16(%rbp)
	movq	%rsi, -32(%rbp)
	movq	-16(%rbp), %rax
	movq	32(%rax), %rax
	movq	-16(%rbp), %rcx
	movl	4(%rcx), %edi
	movq	-16(%rbp), %rcx
	movl	8(%rcx), %esi
	movq	-16(%rbp), %rdx
	addq	$12, %rdx
	movq	-16(%rbp), %rcx
	addq	$16, %rcx
	callq	*%rax
	movq	-16(%rbp), %rdi
	callq	symbol2uvlc
	movq	-16(%rbp), %rdi
	movq	-32(%rbp), %rax
	movq	(%rax), %rsi
	callq	writeUVLC2buffer
	movq	-16(%rbp), %rax
	cmpl	$0, (%rax)
	je	.LBB63_2
# %bb.1:                                # %if.then
	movq	-32(%rbp), %rax
	movq	(%rax), %rax
	movl	$1, 40(%rax)
.LBB63_2:                               # %if.end
	movq	-16(%rbp), %rax
	movl	12(%rax), %ebx
	cmpl	$1657620207, -20(%rbp)  # imm = 0x62CD46EF
	jne	.LBB63_4
.LBB63_3:
	movl	%ebx, %eax
	addq	$24, %rsp
	popq	%rbx
	popq	%rbp
	.cfi_def_cfa %rsp, 8
	retq
.LBB63_4:                               # %func_exit
	.cfi_def_cfa %rbp, 16
	callq	detect_breach
	jmp	.LBB63_3
.Lfunc_end63:
	.size	writeSyntaxElement_UVLC.36, .Lfunc_end63-writeSyntaxElement_UVLC.36
	.cfi_endproc
                                        # -- End function
	.globl	writeUVLC2buffer.37     # -- Begin function writeUVLC2buffer.37
	.p2align	4, 0x90
	.type	writeUVLC2buffer.37,@function
writeUVLC2buffer.37:                    # @writeUVLC2buffer.37
	.cfi_startproc
# %bb.0:                                # %entry
	pushq	%rbp
	.cfi_def_cfa_offset 16
	.cfi_offset %rbp, -16
	movq	%rsp, %rbp
	.cfi_def_cfa_register %rbp
	subq	$32, %rsp
	movl	$1016714504, -28(%rbp)  # imm = 0x3C99D508
	movq	%rdi, -24(%rbp)
	movq	%rsi, -8(%rbp)
	movq	-24(%rbp), %rax
	movl	12(%rax), %ecx
	subl	$1, %ecx
                                        # kill: def $cl killed $ecx
	movl	$1, %eax
	shll	%cl, %eax
	movl	%eax, -16(%rbp)
	movl	$0, -12(%rbp)
.LBB64_1:                               # %for.cond
                                        # =>This Inner Loop Header: Depth=1
	movl	-12(%rbp), %eax
	movq	-24(%rbp), %rcx
	cmpl	12(%rcx), %eax
	jge	.LBB64_8
# %bb.2:                                # %for.body
                                        #   in Loop: Header=BB64_1 Depth=1
	movq	-8(%rbp), %rax
	movzbl	8(%rax), %ecx
	shll	$1, %ecx
	movb	%cl, 8(%rax)
	movq	-24(%rbp), %rax
	movl	20(%rax), %eax
	andl	-16(%rbp), %eax
	cmpl	$0, %eax
	je	.LBB64_4
# %bb.3:                                # %if.then
                                        #   in Loop: Header=BB64_1 Depth=1
	movq	-8(%rbp), %rax
	movzbl	8(%rax), %ecx
	orl	$1, %ecx
	movb	%cl, 8(%rax)
.LBB64_4:                               # %if.end
                                        #   in Loop: Header=BB64_1 Depth=1
	movq	-8(%rbp), %rax
	movl	4(%rax), %ecx
	addl	$-1, %ecx
	movl	%ecx, 4(%rax)
	movl	-16(%rbp), %eax
	shrl	$1, %eax
	movl	%eax, -16(%rbp)
	movq	-8(%rbp), %rax
	cmpl	$0, 4(%rax)
	jne	.LBB64_6
# %bb.5:                                # %if.then10
                                        #   in Loop: Header=BB64_1 Depth=1
	movq	-8(%rbp), %rax
	movl	$8, 4(%rax)
	movq	-8(%rbp), %rax
	movb	8(%rax), %al
	movq	-8(%rbp), %rcx
	movq	32(%rcx), %rcx
	movq	-8(%rbp), %rdx
	movl	(%rdx), %esi
	movl	%esi, %edi
	addl	$1, %edi
	movl	%edi, (%rdx)
	movslq	%esi, %rdx
	movb	%al, (%rcx,%rdx)
	movq	-8(%rbp), %rax
	movb	$0, 8(%rax)
.LBB64_6:                               # %if.end14
                                        #   in Loop: Header=BB64_1 Depth=1
	jmp	.LBB64_7
.LBB64_7:                               # %for.inc
                                        #   in Loop: Header=BB64_1 Depth=1
	movl	-12(%rbp), %eax
	addl	$1, %eax
	movl	%eax, -12(%rbp)
	jmp	.LBB64_1
.LBB64_8:                               # %for.end
	cmpl	$1016714504, -28(%rbp)  # imm = 0x3C99D508
	jne	.LBB64_10
.LBB64_9:
	addq	$32, %rsp
	popq	%rbp
	.cfi_def_cfa %rsp, 8
	retq
.LBB64_10:                              # %func_exit
	.cfi_def_cfa %rbp, 16
	callq	detect_breach
	jmp	.LBB64_9
.Lfunc_end64:
	.size	writeUVLC2buffer.37, .Lfunc_end64-writeUVLC2buffer.37
	.cfi_endproc
                                        # -- End function
	.globl	writeSyntaxElement_Level_VLCN.38 # -- Begin function writeSyntaxElement_Level_VLCN.38
	.p2align	4, 0x90
	.type	writeSyntaxElement_Level_VLCN.38,@function
writeSyntaxElement_Level_VLCN.38:       # @writeSyntaxElement_Level_VLCN.38
	.cfi_startproc
# %bb.0:                                # %entry
	pushq	%rbp
	.cfi_def_cfa_offset 16
	.cfi_offset %rbp, -16
	movq	%rsp, %rbp
	.cfi_def_cfa_register %rbp
	pushq	%rbx
	subq	$72, %rsp
	.cfi_offset %rbx, -24
	movl	$1793016756, -64(%rbp)  # imm = 0x6ADF43B4
	movq	%rdi, -24(%rbp)
	movl	%esi, -28(%rbp)
	movq	%rdx, -72(%rbp)
	movq	-24(%rbp), %rax
	movl	4(%rax), %eax
	movl	%eax, -48(%rbp)
	movl	-48(%rbp), %edi
	callq	abs
	xorl	%ecx, %ecx
	movl	%eax, -12(%rbp)
	movl	-48(%rbp), %eax
	cmpl	$0, %eax
	movl	$1, %eax
	cmovll	%eax, %ecx
	movl	%ecx, -32(%rbp)
	movl	-28(%rbp), %eax
	subl	$1, %eax
	movl	%eax, -16(%rbp)
	movl	-16(%rbp), %ecx
                                        # kill: def $cl killed $ecx
	movl	$15, %eax
	shll	%cl, %eax
	addl	$1, %eax
	movl	%eax, -44(%rbp)
	movl	-12(%rbp), %eax
	subl	$1, %eax
	movl	-16(%rbp), %ecx
                                        # kill: def $cl killed $ecx
	sarl	%cl, %eax
	movl	%eax, -60(%rbp)
	movl	-16(%rbp), %ecx
                                        # kill: def $cl killed $ecx
	movl	$4294967295, %eax       # imm = 0xFFFFFFFF
	shll	%cl, %eax
	xorl	$-1, %eax
	movl	%eax, -52(%rbp)
	movl	-12(%rbp), %eax
	subl	$1, %eax
	andl	-52(%rbp), %eax
	movl	%eax, -56(%rbp)
	movl	-12(%rbp), %eax
	cmpl	-44(%rbp), %eax
	jge	.LBB65_2
# %bb.1:                                # %if.then
	movl	-60(%rbp), %eax
	addl	-28(%rbp), %eax
	addl	$1, %eax
	movl	%eax, -36(%rbp)
	movl	-16(%rbp), %ecx
	addl	$1, %ecx
                                        # kill: def $cl killed $ecx
	movl	$1, %eax
	shll	%cl, %eax
	movl	-56(%rbp), %ecx
	shll	$1, %ecx
	orl	%ecx, %eax
	orl	-32(%rbp), %eax
	movl	%eax, -40(%rbp)
	jmp	.LBB65_3
.LBB65_2:                               # %if.else
	movl	$28, -36(%rbp)
	movl	-12(%rbp), %eax
	subl	-44(%rbp), %eax
	shll	$1, %eax
	orl	$4096, %eax             # imm = 0x1000
	orl	-32(%rbp), %eax
	movl	%eax, -40(%rbp)
.LBB65_3:                               # %if.end
	movl	-36(%rbp), %eax
	movq	-24(%rbp), %rcx
	movl	%eax, 12(%rcx)
	movl	-40(%rbp), %eax
	movq	-24(%rbp), %rcx
	movl	%eax, 16(%rcx)
	movq	-24(%rbp), %rdi
	callq	symbol2vlc
	movq	-24(%rbp), %rdi
	movq	-72(%rbp), %rax
	movq	(%rax), %rsi
	callq	writeUVLC2buffer
	movq	-24(%rbp), %rax
	movl	12(%rax), %ebx
	cmpl	$1793016756, -64(%rbp)  # imm = 0x6ADF43B4
	jne	.LBB65_5
.LBB65_4:
	movl	%ebx, %eax
	addq	$72, %rsp
	popq	%rbx
	popq	%rbp
	.cfi_def_cfa %rsp, 8
	retq
.LBB65_5:                               # %func_exit
	.cfi_def_cfa %rbp, 16
	callq	detect_breach
	jmp	.LBB65_4
.Lfunc_end65:
	.size	writeSyntaxElement_Level_VLCN.38, .Lfunc_end65-writeSyntaxElement_Level_VLCN.38
	.cfi_endproc
                                        # -- End function
	.globl	se_v.39                 # -- Begin function se_v.39
	.p2align	4, 0x90
	.type	se_v.39,@function
se_v.39:                                # @se_v.39
	.cfi_startproc
# %bb.0:                                # %entry
	pushq	%rbp
	.cfi_def_cfa_offset 16
	.cfi_offset %rbp, -16
	movq	%rsp, %rbp
	.cfi_def_cfa_register %rbp
	pushq	%rbx
	subq	$88, %rsp
	.cfi_offset %rbx, -24
	movl	$342219860, -20(%rbp)   # imm = 0x1465DC54
	movq	%rdi, -40(%rbp)
	movl	%esi, -24(%rbp)
	movq	%rdx, -32(%rbp)
	leaq	-88(%rbp), %rax
	movq	%rax, -16(%rbp)
	movq	-16(%rbp), %rax
	movl	$0, (%rax)
	movq	-16(%rbp), %rax
	movabsq	$se_linfo, %rcx
	movq	%rcx, 32(%rax)
	movl	-24(%rbp), %eax
	movq	-16(%rbp), %rcx
	movl	%eax, 4(%rcx)
	movq	-16(%rbp), %rax
	movl	$0, 8(%rax)
	movq	-16(%rbp), %rdi
	movq	-32(%rbp), %rsi
	callq	writeSyntaxElement_UVLC
	movl	%eax, %ebx
	cmpl	$342219860, -20(%rbp)   # imm = 0x1465DC54
	jne	.LBB66_2
.LBB66_1:
	movl	%ebx, %eax
	addq	$88, %rsp
	popq	%rbx
	popq	%rbp
	.cfi_def_cfa %rsp, 8
	retq
.LBB66_2:                               # %func_exit
	.cfi_def_cfa %rbp, 16
	callq	detect_breach
	jmp	.LBB66_1
.Lfunc_end66:
	.size	se_v.39, .Lfunc_end66-se_v.39
	.cfi_endproc
                                        # -- End function
	.globl	cbp_linfo_intra.40      # -- Begin function cbp_linfo_intra.40
	.p2align	4, 0x90
	.type	cbp_linfo_intra.40,@function
cbp_linfo_intra.40:                     # @cbp_linfo_intra.40
	.cfi_startproc
# %bb.0:                                # %entry
	pushq	%rbp
	.cfi_def_cfa_offset 16
	.cfi_offset %rbp, -16
	movq	%rsp, %rbp
	.cfi_def_cfa_register %rbp
	subq	$32, %rsp
	xorl	%eax, %eax
	movl	$377331475, -12(%rbp)   # imm = 0x167D9F13
	movl	%edi, -8(%rbp)
	movl	%esi, -4(%rbp)
	movq	%rdx, -24(%rbp)
	movq	%rcx, -32(%rbp)
	movq	img, %rcx
	movl	72700(%rcx), %ecx
	cmpl	$0, %ecx
	movl	$1, %ecx
	cmovnel	%ecx, %eax
	cltq
	imulq	$96, %rax, %rax
	movabsq	$NCBP, %rcx
	addq	%rax, %rcx
	movslq	-8(%rbp), %rax
	movzbl	(%rcx,%rax,2), %edi
	movl	-4(%rbp), %esi
	movq	-24(%rbp), %rdx
	movq	-32(%rbp), %rcx
	callq	ue_linfo
	cmpl	$377331475, -12(%rbp)   # imm = 0x167D9F13
	jne	.LBB67_2
.LBB67_1:
	addq	$32, %rsp
	popq	%rbp
	.cfi_def_cfa %rsp, 8
	retq
.LBB67_2:                               # %func_exit
	.cfi_def_cfa %rbp, 16
	callq	detect_breach
	jmp	.LBB67_1
.Lfunc_end67:
	.size	cbp_linfo_intra.40, .Lfunc_end67-cbp_linfo_intra.40
	.cfi_endproc
                                        # -- End function
	.globl	writeSyntaxElement_Level_VLC1.41 # -- Begin function writeSyntaxElement_Level_VLC1.41
	.p2align	4, 0x90
	.type	writeSyntaxElement_Level_VLC1.41,@function
writeSyntaxElement_Level_VLC1.41:       # @writeSyntaxElement_Level_VLC1.41
	.cfi_startproc
# %bb.0:                                # %entry
	pushq	%rbp
	.cfi_def_cfa_offset 16
	.cfi_offset %rbp, -16
	movq	%rsp, %rbp
	.cfi_def_cfa_register %rbp
	pushq	%rbx
	subq	$40, %rsp
	.cfi_offset %rbx, -24
	movl	$304874650, -36(%rbp)   # imm = 0x122C049A
	movq	%rdi, -24(%rbp)
	movq	%rsi, -48(%rbp)
	movq	-24(%rbp), %rax
	movl	4(%rax), %eax
	movl	%eax, -32(%rbp)
	movl	-32(%rbp), %edi
	callq	abs
	xorl	%ecx, %ecx
	movl	%eax, -12(%rbp)
	movl	-32(%rbp), %eax
	cmpl	$0, %eax
	movl	$1, %eax
	cmovll	%eax, %ecx
	movl	%ecx, -28(%rbp)
	cmpl	$8, -12(%rbp)
	jge	.LBB68_2
# %bb.1:                                # %if.then
	movl	-12(%rbp), %eax
	shll	$1, %eax
	addl	-28(%rbp), %eax
	subl	$1, %eax
	movq	-24(%rbp), %rcx
	movl	%eax, 12(%rcx)
	movq	-24(%rbp), %rax
	movl	$1, 16(%rax)
	jmp	.LBB68_6
.LBB68_2:                               # %if.else
	cmpl	$16, -12(%rbp)
	jge	.LBB68_4
# %bb.3:                                # %if.then3
	movq	-24(%rbp), %rax
	movl	$19, 12(%rax)
	movl	-12(%rbp), %eax
	subl	$8, %eax
	shll	$1, %eax
	orl	$16, %eax
	orl	-28(%rbp), %eax
	movq	-24(%rbp), %rcx
	movl	%eax, 16(%rcx)
	jmp	.LBB68_5
.LBB68_4:                               # %if.else8
	movq	-24(%rbp), %rax
	movl	$28, 12(%rax)
	movl	-12(%rbp), %eax
	subl	$16, %eax
	shll	$1, %eax
	orl	$4096, %eax             # imm = 0x1000
	orl	-28(%rbp), %eax
	movq	-24(%rbp), %rcx
	movl	%eax, 16(%rcx)
.LBB68_5:                               # %if.end
	jmp	.LBB68_6
.LBB68_6:                               # %if.end15
	movq	-24(%rbp), %rdi
	callq	symbol2vlc
	movq	-24(%rbp), %rdi
	movq	-48(%rbp), %rax
	movq	(%rax), %rsi
	callq	writeUVLC2buffer
	movq	-24(%rbp), %rax
	movl	12(%rax), %ebx
	cmpl	$304874650, -36(%rbp)   # imm = 0x122C049A
	jne	.LBB68_8
.LBB68_7:
	movl	%ebx, %eax
	addq	$40, %rsp
	popq	%rbx
	popq	%rbp
	.cfi_def_cfa %rsp, 8
	retq
.LBB68_8:                               # %func_exit
	.cfi_def_cfa %rbp, 16
	callq	detect_breach
	jmp	.LBB68_7
.Lfunc_end68:
	.size	writeSyntaxElement_Level_VLC1.41, .Lfunc_end68-writeSyntaxElement_Level_VLC1.41
	.cfi_endproc
                                        # -- End function
	.globl	cbp_linfo_inter.42      # -- Begin function cbp_linfo_inter.42
	.p2align	4, 0x90
	.type	cbp_linfo_inter.42,@function
cbp_linfo_inter.42:                     # @cbp_linfo_inter.42
	.cfi_startproc
# %bb.0:                                # %entry
	pushq	%rbp
	.cfi_def_cfa_offset 16
	.cfi_offset %rbp, -16
	movq	%rsp, %rbp
	.cfi_def_cfa_register %rbp
	subq	$32, %rsp
	xorl	%eax, %eax
	movl	$1784255207, -8(%rbp)   # imm = 0x6A5992E7
	movl	%edi, -12(%rbp)
	movl	%esi, -4(%rbp)
	movq	%rdx, -24(%rbp)
	movq	%rcx, -32(%rbp)
	movq	img, %rcx
	movl	72700(%rcx), %ecx
	cmpl	$0, %ecx
	movl	$1, %ecx
	cmovnel	%ecx, %eax
	cltq
	imulq	$96, %rax, %rax
	movabsq	$NCBP, %rcx
	addq	%rax, %rcx
	movslq	-12(%rbp), %rax
	movzbl	1(%rcx,%rax,2), %edi
	movl	-4(%rbp), %esi
	movq	-24(%rbp), %rdx
	movq	-32(%rbp), %rcx
	callq	ue_linfo
	cmpl	$1784255207, -8(%rbp)   # imm = 0x6A5992E7
	jne	.LBB69_2
.LBB69_1:
	addq	$32, %rsp
	popq	%rbp
	.cfi_def_cfa %rsp, 8
	retq
.LBB69_2:                               # %func_exit
	.cfi_def_cfa %rbp, 16
	callq	detect_breach
	jmp	.LBB69_1
.Lfunc_end69:
	.size	cbp_linfo_inter.42, .Lfunc_end69-cbp_linfo_inter.42
	.cfi_endproc
                                        # -- End function
	.section	.rodata.cst8,"aM",@progbits,8
	.p2align	3               # -- Begin function levrun_linfo_intra.43
.LCPI70_0:
	.quad	4611686018427387904     # double 2
	.text
	.globl	levrun_linfo_intra.43
	.p2align	4, 0x90
	.type	levrun_linfo_intra.43,@function
levrun_linfo_intra.43:                  # @levrun_linfo_intra.43
	.cfi_startproc
# %bb.0:                                # %entry
	pushq	%rbp
	.cfi_def_cfa_offset 16
	.cfi_offset %rbp, -16
	movq	%rsp, %rbp
	.cfi_def_cfa_register %rbp
	pushq	%rbx
	subq	$104, %rsp
	.cfi_offset %rbx, -24
	movl	$1366361900, -40(%rbp)  # imm = 0x5171072C
	movl	%edi, -20(%rbp)
	movl	%esi, -16(%rbp)
	movq	%rdx, -48(%rbp)
	movq	%rcx, -64(%rbp)
	movq	.L__const.levrun_linfo_intra.LEVRUN, %rax
	movq	%rax, -56(%rbp)
	leaq	-112(%rbp), %rdi
	movabsq	$.L__const.levrun_linfo_intra.NTAB, %rsi
	movl	$45, %edx
	callq	memcpy
	cmpl	$0, -20(%rbp)
	jne	.LBB70_2
# %bb.1:                                # %if.then
	movq	-48(%rbp), %rax
	movl	$1, (%rax)
	jmp	.LBB70_15
.LBB70_2:                               # %if.end
	cmpl	$0, -20(%rbp)
	jg	.LBB70_4
# %bb.3:                                # %if.then2
	movl	$1, -36(%rbp)
	jmp	.LBB70_5
.LBB70_4:                               # %if.else
	movl	$0, -36(%rbp)
.LBB70_5:                               # %if.end3
	movl	-20(%rbp), %edi
	callq	abs
	movl	%eax, -24(%rbp)
	movl	-24(%rbp), %eax
	movslq	-16(%rbp), %rcx
	movzbl	-56(%rbp,%rcx), %ecx
	cmpl	%ecx, %eax
	jg	.LBB70_7
# %bb.6:                                # %if.then6
	movl	-24(%rbp), %eax
	subl	$1, %eax
	cltq
	imulq	$5, %rax, %rax
	leaq	-112(%rbp), %rcx
	addq	%rax, %rcx
	movslq	-16(%rbp), %rax
	movzbl	(%rcx,%rax), %eax
	addl	$1, %eax
	movl	%eax, -28(%rbp)
	jmp	.LBB70_8
.LBB70_7:                               # %if.else12
	movl	-24(%rbp), %eax
	movslq	-16(%rbp), %rcx
	movzbl	-56(%rbp,%rcx), %ecx
	subl	%ecx, %eax
	shll	$4, %eax
	addl	$16, %eax
	movl	-16(%rbp), %ecx
	shll	$1, %ecx
	addl	%ecx, %eax
	movl	%eax, -28(%rbp)
.LBB70_8:                               # %if.end20
	movl	-28(%rbp), %eax
	cltd
	movl	$2, %ecx
	idivl	%ecx
	movl	%eax, -32(%rbp)
	movl	$0, -12(%rbp)
.LBB70_9:                               # %for.cond
                                        # =>This Inner Loop Header: Depth=1
	xorl	%eax, %eax
	cmpl	$16, -12(%rbp)
	jge	.LBB70_11
# %bb.10:                               # %land.rhs
                                        #   in Loop: Header=BB70_9 Depth=1
	cmpl	$0, -32(%rbp)
	setne	%al
.LBB70_11:                              # %land.end
                                        #   in Loop: Header=BB70_9 Depth=1
	testb	$1, %al
	jne	.LBB70_12
	jmp	.LBB70_14
.LBB70_12:                              # %for.body
                                        #   in Loop: Header=BB70_9 Depth=1
	movl	-32(%rbp), %eax
	cltd
	movl	$2, %ecx
	idivl	%ecx
	movl	%eax, -32(%rbp)
# %bb.13:                               # %for.inc
                                        #   in Loop: Header=BB70_9 Depth=1
	movl	-12(%rbp), %eax
	addl	$1, %eax
	movl	%eax, -12(%rbp)
	jmp	.LBB70_9
.LBB70_14:                              # %for.end
	vmovsd	.LCPI70_0(%rip), %xmm0  # xmm0 = mem[0],zero
	movl	-12(%rbp), %eax
	shll	$1, %eax
	addl	$1, %eax
	movq	-48(%rbp), %rcx
	movl	%eax, (%rcx)
	movl	-28(%rbp), %ebx
	vcvtsi2sdl	-12(%rbp), %xmm0, %xmm1
	callq	pow
	vcvttsd2si	%xmm0, %eax
	subl	%eax, %ebx
	addl	-36(%rbp), %ebx
	movq	-64(%rbp), %rax
	movl	%ebx, (%rax)
.LBB70_15:                              # %return
	cmpl	$1366361900, -40(%rbp)  # imm = 0x5171072C
	jne	.LBB70_17
.LBB70_16:
	addq	$104, %rsp
	popq	%rbx
	popq	%rbp
	.cfi_def_cfa %rsp, 8
	retq
.LBB70_17:                              # %func_exit
	.cfi_def_cfa %rbp, 16
	callq	detect_breach
	jmp	.LBB70_16
.Lfunc_end70:
	.size	levrun_linfo_intra.43, .Lfunc_end70-levrun_linfo_intra.43
	.cfi_endproc
                                        # -- End function
	.globl	symbol2vlc.44           # -- Begin function symbol2vlc.44
	.p2align	4, 0x90
	.type	symbol2vlc.44,@function
symbol2vlc.44:                          # @symbol2vlc.44
	.cfi_startproc
# %bb.0:                                # %entry
	pushq	%rbp
	.cfi_def_cfa_offset 16
	.cfi_offset %rbp, -16
	movq	%rsp, %rbp
	.cfi_def_cfa_register %rbp
	subq	$32, %rsp
	movl	$275885701, -20(%rbp)   # imm = 0x1071AE85
	movq	%rdi, -16(%rbp)
	movq	-16(%rbp), %rax
	movl	12(%rax), %eax
	movl	%eax, -4(%rbp)
	movq	-16(%rbp), %rax
	movl	$0, 20(%rax)
.LBB71_1:                               # %while.cond
                                        # =>This Inner Loop Header: Depth=1
	movl	-4(%rbp), %eax
	addl	$-1, %eax
	movl	%eax, -4(%rbp)
	cmpl	$0, %eax
	jl	.LBB71_3
# %bb.2:                                # %while.body
                                        #   in Loop: Header=BB71_1 Depth=1
	movq	-16(%rbp), %rax
	movl	20(%rax), %ecx
	shll	$1, %ecx
	movl	%ecx, 20(%rax)
	movq	-16(%rbp), %rax
	movl	16(%rax), %eax
	movl	-4(%rbp), %ecx
                                        # kill: def $cl killed $ecx
	sarl	%cl, %eax
	andl	$1, %eax
	movq	-16(%rbp), %rcx
	orl	20(%rcx), %eax
	movl	%eax, 20(%rcx)
	jmp	.LBB71_1
.LBB71_3:                               # %while.end
	cmpl	$275885701, -20(%rbp)   # imm = 0x1071AE85
	jne	.LBB71_5
.LBB71_4:
	xorl	%eax, %eax
	addq	$32, %rsp
	popq	%rbp
	.cfi_def_cfa %rsp, 8
	retq
.LBB71_5:                               # %func_exit
	.cfi_def_cfa %rbp, 16
	callq	detect_breach
	jmp	.LBB71_4
.Lfunc_end71:
	.size	symbol2vlc.44, .Lfunc_end71-symbol2vlc.44
	.cfi_endproc
                                        # -- End function
	.globl	writeSyntaxElement_NumCoeffTrailingOnes.45 # -- Begin function writeSyntaxElement_NumCoeffTrailingOnes.45
	.p2align	4, 0x90
	.type	writeSyntaxElement_NumCoeffTrailingOnes.45,@function
writeSyntaxElement_NumCoeffTrailingOnes.45: # @writeSyntaxElement_NumCoeffTrailingOnes.45
	.cfi_startproc
# %bb.0:                                # %entry
	pushq	%rbp
	.cfi_def_cfa_offset 16
	.cfi_offset %rbp, -16
	movq	%rsp, %rbp
	.cfi_def_cfa_register %rbp
	pushq	%rbx
	subq	$24, %rsp
	.cfi_offset %rbx, -24
	movl	$201877202, -24(%rbp)   # imm = 0xC0866D2
	movq	%rdi, -16(%rbp)
	movq	%rsi, -32(%rbp)
	movq	-16(%rbp), %rax
	movl	12(%rax), %eax
	movl	%eax, -20(%rbp)
	cmpl	$3, -20(%rbp)
	jne	.LBB72_5
# %bb.1:                                # %if.then
	movq	-16(%rbp), %rax
	movl	$6, 12(%rax)
	movq	-16(%rbp), %rax
	cmpl	$0, 4(%rax)
	jle	.LBB72_3
# %bb.2:                                # %if.then3
	movq	-16(%rbp), %rax
	movl	4(%rax), %eax
	subl	$1, %eax
	shll	$2, %eax
	movq	-16(%rbp), %rcx
	orl	8(%rcx), %eax
	movq	-16(%rbp), %rcx
	movl	%eax, 16(%rcx)
	jmp	.LBB72_4
.LBB72_3:                               # %if.else
	movq	-16(%rbp), %rax
	movl	$3, 16(%rax)
.LBB72_4:                               # %if.end
	jmp	.LBB72_6
.LBB72_5:                               # %if.else6
	movslq	-20(%rbp), %rax
	imulq	$272, %rax, %rax        # imm = 0x110
	movabsq	$writeSyntaxElement_NumCoeffTrailingOnes.lentab, %rcx
	addq	%rax, %rcx
	movq	-16(%rbp), %rax
	movslq	8(%rax), %rax
	imulq	$68, %rax, %rax
	addq	%rax, %rcx
	movq	-16(%rbp), %rax
	movslq	4(%rax), %rax
	movl	(%rcx,%rax,4), %eax
	movq	-16(%rbp), %rcx
	movl	%eax, 12(%rcx)
	movslq	-20(%rbp), %rax
	imulq	$272, %rax, %rax        # imm = 0x110
	movabsq	$writeSyntaxElement_NumCoeffTrailingOnes.codtab, %rcx
	addq	%rax, %rcx
	movq	-16(%rbp), %rax
	movslq	8(%rax), %rax
	imulq	$68, %rax, %rax
	addq	%rax, %rcx
	movq	-16(%rbp), %rax
	movslq	4(%rax), %rax
	movl	(%rcx,%rax,4), %eax
	movq	-16(%rbp), %rcx
	movl	%eax, 16(%rcx)
.LBB72_6:                               # %if.end23
	movq	-16(%rbp), %rax
	cmpl	$0, 12(%rax)
	jne	.LBB72_8
# %bb.7:                                # %if.then26
	movl	-20(%rbp), %esi
	movq	-16(%rbp), %rax
	movl	4(%rax), %edx
	movq	-16(%rbp), %rax
	movl	8(%rax), %ecx
	movabsq	$.L.str, %rdi
	movb	$0, %al
	callq	printf
	movl	$4294967295, %edi       # imm = 0xFFFFFFFF
	callq	exit
.LBB72_8:                               # %if.end29
	movq	-16(%rbp), %rdi
	callq	symbol2vlc
	movq	-16(%rbp), %rdi
	movq	-32(%rbp), %rax
	movq	(%rax), %rsi
	callq	writeUVLC2buffer
	movq	-16(%rbp), %rax
	movl	12(%rax), %ebx
	cmpl	$201877202, -24(%rbp)   # imm = 0xC0866D2
	jne	.LBB72_10
.LBB72_9:
	movl	%ebx, %eax
	addq	$24, %rsp
	popq	%rbx
	popq	%rbp
	.cfi_def_cfa %rsp, 8
	retq
.LBB72_10:                              # %func_exit
	.cfi_def_cfa %rbp, 16
	callq	detect_breach
	jmp	.LBB72_9
.Lfunc_end72:
	.size	writeSyntaxElement_NumCoeffTrailingOnes.45, .Lfunc_end72-writeSyntaxElement_NumCoeffTrailingOnes.45
	.cfi_endproc
                                        # -- End function
	.globl	writeSyntaxElement_fixed.46 # -- Begin function writeSyntaxElement_fixed.46
	.p2align	4, 0x90
	.type	writeSyntaxElement_fixed.46,@function
writeSyntaxElement_fixed.46:            # @writeSyntaxElement_fixed.46
	.cfi_startproc
# %bb.0:                                # %entry
	pushq	%rbp
	.cfi_def_cfa_offset 16
	.cfi_offset %rbp, -16
	movq	%rsp, %rbp
	.cfi_def_cfa_register %rbp
	pushq	%rbx
	subq	$24, %rsp
	.cfi_offset %rbx, -24
	movl	$1013710042, -20(%rbp)  # imm = 0x3C6BFCDA
	movq	%rdi, -16(%rbp)
	movq	%rsi, -32(%rbp)
	movq	-16(%rbp), %rdi
	movq	-32(%rbp), %rax
	movq	(%rax), %rsi
	callq	writeUVLC2buffer
	movq	-16(%rbp), %rax
	cmpl	$0, (%rax)
	je	.LBB73_2
# %bb.1:                                # %if.then
	movq	-32(%rbp), %rax
	movq	(%rax), %rax
	movl	$1, 40(%rax)
.LBB73_2:                               # %if.end
	movq	-16(%rbp), %rax
	movl	12(%rax), %ebx
	cmpl	$1013710042, -20(%rbp)  # imm = 0x3C6BFCDA
	jne	.LBB73_4
.LBB73_3:
	movl	%ebx, %eax
	addq	$24, %rsp
	popq	%rbx
	popq	%rbp
	.cfi_def_cfa %rsp, 8
	retq
.LBB73_4:                               # %func_exit
	.cfi_def_cfa %rbp, 16
	callq	detect_breach
	jmp	.LBB73_3
.Lfunc_end73:
	.size	writeSyntaxElement_fixed.46, .Lfunc_end73-writeSyntaxElement_fixed.46
	.cfi_endproc
                                        # -- End function
	.globl	writeSyntaxElement_NumCoeffTrailingOnes.47 # -- Begin function writeSyntaxElement_NumCoeffTrailingOnes.47
	.p2align	4, 0x90
	.type	writeSyntaxElement_NumCoeffTrailingOnes.47,@function
writeSyntaxElement_NumCoeffTrailingOnes.47: # @writeSyntaxElement_NumCoeffTrailingOnes.47
	.cfi_startproc
# %bb.0:                                # %entry
	pushq	%rbp
	.cfi_def_cfa_offset 16
	.cfi_offset %rbp, -16
	movq	%rsp, %rbp
	.cfi_def_cfa_register %rbp
	pushq	%rbx
	subq	$24, %rsp
	.cfi_offset %rbx, -24
	movl	$2053546437, -24(%rbp)  # imm = 0x7A66A1C5
	movq	%rdi, -16(%rbp)
	movq	%rsi, -32(%rbp)
	movq	-16(%rbp), %rax
	movl	12(%rax), %eax
	movl	%eax, -20(%rbp)
	cmpl	$3, -20(%rbp)
	jne	.LBB74_5
# %bb.1:                                # %if.then
	movq	-16(%rbp), %rax
	movl	$6, 12(%rax)
	movq	-16(%rbp), %rax
	cmpl	$0, 4(%rax)
	jle	.LBB74_3
# %bb.2:                                # %if.then3
	movq	-16(%rbp), %rax
	movl	4(%rax), %eax
	subl	$1, %eax
	shll	$2, %eax
	movq	-16(%rbp), %rcx
	orl	8(%rcx), %eax
	movq	-16(%rbp), %rcx
	movl	%eax, 16(%rcx)
	jmp	.LBB74_4
.LBB74_3:                               # %if.else
	movq	-16(%rbp), %rax
	movl	$3, 16(%rax)
.LBB74_4:                               # %if.end
	jmp	.LBB74_6
.LBB74_5:                               # %if.else6
	movslq	-20(%rbp), %rax
	imulq	$272, %rax, %rax        # imm = 0x110
	movabsq	$writeSyntaxElement_NumCoeffTrailingOnes.lentab, %rcx
	addq	%rax, %rcx
	movq	-16(%rbp), %rax
	movslq	8(%rax), %rax
	imulq	$68, %rax, %rax
	addq	%rax, %rcx
	movq	-16(%rbp), %rax
	movslq	4(%rax), %rax
	movl	(%rcx,%rax,4), %eax
	movq	-16(%rbp), %rcx
	movl	%eax, 12(%rcx)
	movslq	-20(%rbp), %rax
	imulq	$272, %rax, %rax        # imm = 0x110
	movabsq	$writeSyntaxElement_NumCoeffTrailingOnes.codtab, %rcx
	addq	%rax, %rcx
	movq	-16(%rbp), %rax
	movslq	8(%rax), %rax
	imulq	$68, %rax, %rax
	addq	%rax, %rcx
	movq	-16(%rbp), %rax
	movslq	4(%rax), %rax
	movl	(%rcx,%rax,4), %eax
	movq	-16(%rbp), %rcx
	movl	%eax, 16(%rcx)
.LBB74_6:                               # %if.end23
	movq	-16(%rbp), %rax
	cmpl	$0, 12(%rax)
	jne	.LBB74_8
# %bb.7:                                # %if.then26
	movl	-20(%rbp), %esi
	movq	-16(%rbp), %rax
	movl	4(%rax), %edx
	movq	-16(%rbp), %rax
	movl	8(%rax), %ecx
	movabsq	$.L.str, %rdi
	movb	$0, %al
	callq	printf
	movl	$4294967295, %edi       # imm = 0xFFFFFFFF
	callq	exit
.LBB74_8:                               # %if.end29
	movq	-16(%rbp), %rdi
	callq	symbol2vlc
	movq	-16(%rbp), %rdi
	movq	-32(%rbp), %rax
	movq	(%rax), %rsi
	callq	writeUVLC2buffer
	movq	-16(%rbp), %rax
	movl	12(%rax), %ebx
	cmpl	$2053546437, -24(%rbp)  # imm = 0x7A66A1C5
	jne	.LBB74_10
.LBB74_9:
	movl	%ebx, %eax
	addq	$24, %rsp
	popq	%rbx
	popq	%rbp
	.cfi_def_cfa %rsp, 8
	retq
.LBB74_10:                              # %func_exit
	.cfi_def_cfa %rbp, 16
	callq	detect_breach
	jmp	.LBB74_9
.Lfunc_end74:
	.size	writeSyntaxElement_NumCoeffTrailingOnes.47, .Lfunc_end74-writeSyntaxElement_NumCoeffTrailingOnes.47
	.cfi_endproc
                                        # -- End function
	.globl	cbp_linfo_intra.48      # -- Begin function cbp_linfo_intra.48
	.p2align	4, 0x90
	.type	cbp_linfo_intra.48,@function
cbp_linfo_intra.48:                     # @cbp_linfo_intra.48
	.cfi_startproc
# %bb.0:                                # %entry
	pushq	%rbp
	.cfi_def_cfa_offset 16
	.cfi_offset %rbp, -16
	movq	%rsp, %rbp
	.cfi_def_cfa_register %rbp
	subq	$32, %rsp
	xorl	%eax, %eax
	movl	$425087793, -8(%rbp)    # imm = 0x19565331
	movl	%edi, -4(%rbp)
	movl	%esi, -12(%rbp)
	movq	%rdx, -24(%rbp)
	movq	%rcx, -32(%rbp)
	movq	img, %rcx
	movl	72700(%rcx), %ecx
	cmpl	$0, %ecx
	movl	$1, %ecx
	cmovnel	%ecx, %eax
	cltq
	imulq	$96, %rax, %rax
	movabsq	$NCBP, %rcx
	addq	%rax, %rcx
	movslq	-4(%rbp), %rax
	movzbl	(%rcx,%rax,2), %edi
	movl	-12(%rbp), %esi
	movq	-24(%rbp), %rdx
	movq	-32(%rbp), %rcx
	callq	ue_linfo
	cmpl	$425087793, -8(%rbp)    # imm = 0x19565331
	jne	.LBB75_2
.LBB75_1:
	addq	$32, %rsp
	popq	%rbp
	.cfi_def_cfa %rsp, 8
	retq
.LBB75_2:                               # %func_exit
	.cfi_def_cfa %rbp, 16
	callq	detect_breach
	jmp	.LBB75_1
.Lfunc_end75:
	.size	cbp_linfo_intra.48, .Lfunc_end75-cbp_linfo_intra.48
	.cfi_endproc
                                        # -- End function
	.globl	writeSyntaxElement_TotalZerosChromaDC.49 # -- Begin function writeSyntaxElement_TotalZerosChromaDC.49
	.p2align	4, 0x90
	.type	writeSyntaxElement_TotalZerosChromaDC.49,@function
writeSyntaxElement_TotalZerosChromaDC.49: # @writeSyntaxElement_TotalZerosChromaDC.49
	.cfi_startproc
# %bb.0:                                # %entry
	pushq	%rbp
	.cfi_def_cfa_offset 16
	.cfi_offset %rbp, -16
	movq	%rsp, %rbp
	.cfi_def_cfa_register %rbp
	pushq	%rbx
	subq	$40, %rsp
	.cfi_offset %rbx, -24
	movabsq	$writeSyntaxElement_TotalZerosChromaDC.codtab, %rax
	movabsq	$writeSyntaxElement_TotalZerosChromaDC.lentab, %rcx
	movl	$71903731, -28(%rbp)    # imm = 0x44929F3
	movq	%rdi, -16(%rbp)
	movq	%rsi, -40(%rbp)
	movq	img, %rdx
	movl	72700(%rdx), %edx
	subl	$1, %edx
	movl	%edx, -24(%rbp)
	movq	-16(%rbp), %rdx
	movl	12(%rdx), %edx
	movl	%edx, -20(%rbp)
	movslq	-24(%rbp), %rdx
	imulq	$960, %rdx, %rdx        # imm = 0x3C0
	addq	%rdx, %rcx
	movslq	-20(%rbp), %rdx
	shlq	$6, %rdx
	addq	%rdx, %rcx
	movq	-16(%rbp), %rdx
	movslq	4(%rdx), %rdx
	movl	(%rcx,%rdx,4), %ecx
	movq	-16(%rbp), %rdx
	movl	%ecx, 12(%rdx)
	movslq	-24(%rbp), %rcx
	imulq	$960, %rcx, %rcx        # imm = 0x3C0
	addq	%rcx, %rax
	movslq	-20(%rbp), %rcx
	shlq	$6, %rcx
	addq	%rcx, %rax
	movq	-16(%rbp), %rcx
	movslq	4(%rcx), %rcx
	movl	(%rax,%rcx,4), %eax
	movq	-16(%rbp), %rcx
	movl	%eax, 16(%rcx)
	movq	-16(%rbp), %rax
	cmpl	$0, 12(%rax)
	jne	.LBB76_2
# %bb.1:                                # %if.then
	movq	-16(%rbp), %rax
	movl	4(%rax), %esi
	movabsq	$.L.str.2, %rdi
	movb	$0, %al
	callq	printf
	movl	$4294967295, %edi       # imm = 0xFFFFFFFF
	callq	exit
.LBB76_2:                               # %if.end
	movq	-16(%rbp), %rdi
	callq	symbol2vlc
	movq	-16(%rbp), %rdi
	movq	-40(%rbp), %rax
	movq	(%rax), %rsi
	callq	writeUVLC2buffer
	movq	-16(%rbp), %rax
	movl	12(%rax), %ebx
	cmpl	$71903731, -28(%rbp)    # imm = 0x44929F3
	jne	.LBB76_4
.LBB76_3:
	movl	%ebx, %eax
	addq	$40, %rsp
	popq	%rbx
	popq	%rbp
	.cfi_def_cfa %rsp, 8
	retq
.LBB76_4:                               # %func_exit
	.cfi_def_cfa %rbp, 16
	callq	detect_breach
	jmp	.LBB76_3
.Lfunc_end76:
	.size	writeSyntaxElement_TotalZerosChromaDC.49, .Lfunc_end76-writeSyntaxElement_TotalZerosChromaDC.49
	.cfi_endproc
                                        # -- End function
	.globl	writeSyntaxElement2Buf_Fixed.50 # -- Begin function writeSyntaxElement2Buf_Fixed.50
	.p2align	4, 0x90
	.type	writeSyntaxElement2Buf_Fixed.50,@function
writeSyntaxElement2Buf_Fixed.50:        # @writeSyntaxElement2Buf_Fixed.50
	.cfi_startproc
# %bb.0:                                # %entry
	pushq	%rbp
	.cfi_def_cfa_offset 16
	.cfi_offset %rbp, -16
	movq	%rsp, %rbp
	.cfi_def_cfa_register %rbp
	pushq	%rbx
	subq	$24, %rsp
	.cfi_offset %rbx, -24
	movl	$1102545782, -12(%rbp)  # imm = 0x41B78376
	movq	%rdi, -24(%rbp)
	movq	%rsi, -32(%rbp)
	movq	-24(%rbp), %rdi
	movq	-32(%rbp), %rsi
	callq	writeUVLC2buffer
	movq	-24(%rbp), %rax
	movl	12(%rax), %ebx
	cmpl	$1102545782, -12(%rbp)  # imm = 0x41B78376
	jne	.LBB77_2
.LBB77_1:
	movl	%ebx, %eax
	addq	$24, %rsp
	popq	%rbx
	popq	%rbp
	.cfi_def_cfa %rsp, 8
	retq
.LBB77_2:                               # %func_exit
	.cfi_def_cfa %rbp, 16
	callq	detect_breach
	jmp	.LBB77_1
.Lfunc_end77:
	.size	writeSyntaxElement2Buf_Fixed.50, .Lfunc_end77-writeSyntaxElement2Buf_Fixed.50
	.cfi_endproc
                                        # -- End function
	.globl	writeSyntaxElement_NumCoeffTrailingOnes.51 # -- Begin function writeSyntaxElement_NumCoeffTrailingOnes.51
	.p2align	4, 0x90
	.type	writeSyntaxElement_NumCoeffTrailingOnes.51,@function
writeSyntaxElement_NumCoeffTrailingOnes.51: # @writeSyntaxElement_NumCoeffTrailingOnes.51
	.cfi_startproc
# %bb.0:                                # %entry
	pushq	%rbp
	.cfi_def_cfa_offset 16
	.cfi_offset %rbp, -16
	movq	%rsp, %rbp
	.cfi_def_cfa_register %rbp
	pushq	%rbx
	subq	$24, %rsp
	.cfi_offset %rbx, -24
	movl	$1598790118, -24(%rbp)  # imm = 0x5F4B99E6
	movq	%rdi, -16(%rbp)
	movq	%rsi, -32(%rbp)
	movq	-16(%rbp), %rax
	movl	12(%rax), %eax
	movl	%eax, -20(%rbp)
	cmpl	$3, -20(%rbp)
	jne	.LBB78_5
# %bb.1:                                # %if.then
	movq	-16(%rbp), %rax
	movl	$6, 12(%rax)
	movq	-16(%rbp), %rax
	cmpl	$0, 4(%rax)
	jle	.LBB78_3
# %bb.2:                                # %if.then3
	movq	-16(%rbp), %rax
	movl	4(%rax), %eax
	subl	$1, %eax
	shll	$2, %eax
	movq	-16(%rbp), %rcx
	orl	8(%rcx), %eax
	movq	-16(%rbp), %rcx
	movl	%eax, 16(%rcx)
	jmp	.LBB78_4
.LBB78_3:                               # %if.else
	movq	-16(%rbp), %rax
	movl	$3, 16(%rax)
.LBB78_4:                               # %if.end
	jmp	.LBB78_6
.LBB78_5:                               # %if.else6
	movslq	-20(%rbp), %rax
	imulq	$272, %rax, %rax        # imm = 0x110
	movabsq	$writeSyntaxElement_NumCoeffTrailingOnes.lentab, %rcx
	addq	%rax, %rcx
	movq	-16(%rbp), %rax
	movslq	8(%rax), %rax
	imulq	$68, %rax, %rax
	addq	%rax, %rcx
	movq	-16(%rbp), %rax
	movslq	4(%rax), %rax
	movl	(%rcx,%rax,4), %eax
	movq	-16(%rbp), %rcx
	movl	%eax, 12(%rcx)
	movslq	-20(%rbp), %rax
	imulq	$272, %rax, %rax        # imm = 0x110
	movabsq	$writeSyntaxElement_NumCoeffTrailingOnes.codtab, %rcx
	addq	%rax, %rcx
	movq	-16(%rbp), %rax
	movslq	8(%rax), %rax
	imulq	$68, %rax, %rax
	addq	%rax, %rcx
	movq	-16(%rbp), %rax
	movslq	4(%rax), %rax
	movl	(%rcx,%rax,4), %eax
	movq	-16(%rbp), %rcx
	movl	%eax, 16(%rcx)
.LBB78_6:                               # %if.end23
	movq	-16(%rbp), %rax
	cmpl	$0, 12(%rax)
	jne	.LBB78_8
# %bb.7:                                # %if.then26
	movl	-20(%rbp), %esi
	movq	-16(%rbp), %rax
	movl	4(%rax), %edx
	movq	-16(%rbp), %rax
	movl	8(%rax), %ecx
	movabsq	$.L.str, %rdi
	movb	$0, %al
	callq	printf
	movl	$4294967295, %edi       # imm = 0xFFFFFFFF
	callq	exit
.LBB78_8:                               # %if.end29
	movq	-16(%rbp), %rdi
	callq	symbol2vlc
	movq	-16(%rbp), %rdi
	movq	-32(%rbp), %rax
	movq	(%rax), %rsi
	callq	writeUVLC2buffer
	movq	-16(%rbp), %rax
	movl	12(%rax), %ebx
	cmpl	$1598790118, -24(%rbp)  # imm = 0x5F4B99E6
	jne	.LBB78_10
.LBB78_9:
	movl	%ebx, %eax
	addq	$24, %rsp
	popq	%rbx
	popq	%rbp
	.cfi_def_cfa %rsp, 8
	retq
.LBB78_10:                              # %func_exit
	.cfi_def_cfa %rbp, 16
	callq	detect_breach
	jmp	.LBB78_9
.Lfunc_end78:
	.size	writeSyntaxElement_NumCoeffTrailingOnes.51, .Lfunc_end78-writeSyntaxElement_NumCoeffTrailingOnes.51
	.cfi_endproc
                                        # -- End function
	.globl	se_v.52                 # -- Begin function se_v.52
	.p2align	4, 0x90
	.type	se_v.52,@function
se_v.52:                                # @se_v.52
	.cfi_startproc
# %bb.0:                                # %entry
	pushq	%rbp
	.cfi_def_cfa_offset 16
	.cfi_offset %rbp, -16
	movq	%rsp, %rbp
	.cfi_def_cfa_register %rbp
	pushq	%rbx
	subq	$88, %rsp
	.cfi_offset %rbx, -24
	movl	$1378619162, -24(%rbp)  # imm = 0x522C0F1A
	movq	%rdi, -40(%rbp)
	movl	%esi, -20(%rbp)
	movq	%rdx, -32(%rbp)
	leaq	-88(%rbp), %rax
	movq	%rax, -16(%rbp)
	movq	-16(%rbp), %rax
	movl	$0, (%rax)
	movq	-16(%rbp), %rax
	movabsq	$se_linfo, %rcx
	movq	%rcx, 32(%rax)
	movl	-20(%rbp), %eax
	movq	-16(%rbp), %rcx
	movl	%eax, 4(%rcx)
	movq	-16(%rbp), %rax
	movl	$0, 8(%rax)
	movq	-16(%rbp), %rdi
	movq	-32(%rbp), %rsi
	callq	writeSyntaxElement_UVLC
	movl	%eax, %ebx
	cmpl	$1378619162, -24(%rbp)  # imm = 0x522C0F1A
	jne	.LBB79_2
.LBB79_1:
	movl	%ebx, %eax
	addq	$88, %rsp
	popq	%rbx
	popq	%rbp
	.cfi_def_cfa %rsp, 8
	retq
.LBB79_2:                               # %func_exit
	.cfi_def_cfa %rbp, 16
	callq	detect_breach
	jmp	.LBB79_1
.Lfunc_end79:
	.size	se_v.52, .Lfunc_end79-se_v.52
	.cfi_endproc
                                        # -- End function
	.section	.rodata.cst8,"aM",@progbits,8
	.p2align	3               # -- Begin function se_linfo.53
.LCPI80_0:
	.quad	4611686018427387904     # double 2
	.text
	.globl	se_linfo.53
	.p2align	4, 0x90
	.type	se_linfo.53,@function
se_linfo.53:                            # @se_linfo.53
	.cfi_startproc
# %bb.0:                                # %entry
	pushq	%rbp
	.cfi_def_cfa_offset 16
	.cfi_offset %rbp, -16
	movq	%rsp, %rbp
	.cfi_def_cfa_register %rbp
	pushq	%rbx
	subq	$56, %rsp
	.cfi_offset %rbx, -24
	movl	$691698066, -32(%rbp)   # imm = 0x293A7992
	movl	%edi, -28(%rbp)
	movl	%esi, -52(%rbp)
	movq	%rdx, -40(%rbp)
	movq	%rcx, -48(%rbp)
	movl	$0, -24(%rbp)
	cmpl	$0, -28(%rbp)
	jg	.LBB80_2
# %bb.1:                                # %if.then
	movl	$1, -24(%rbp)
.LBB80_2:                               # %if.end
	movl	-28(%rbp), %edi
	callq	abs
	shll	$1, %eax
	movl	%eax, -20(%rbp)
	movl	-20(%rbp), %eax
	cltd
	movl	$2, %ecx
	idivl	%ecx
	movl	%eax, -16(%rbp)
	movl	$0, -12(%rbp)
.LBB80_3:                               # %for.cond
                                        # =>This Inner Loop Header: Depth=1
	xorl	%eax, %eax
	cmpl	$16, -12(%rbp)
	jge	.LBB80_5
# %bb.4:                                # %land.rhs
                                        #   in Loop: Header=BB80_3 Depth=1
	cmpl	$0, -16(%rbp)
	setne	%al
.LBB80_5:                               # %land.end
                                        #   in Loop: Header=BB80_3 Depth=1
	testb	$1, %al
	jne	.LBB80_6
	jmp	.LBB80_8
.LBB80_6:                               # %for.body
                                        #   in Loop: Header=BB80_3 Depth=1
	movl	-16(%rbp), %eax
	cltd
	movl	$2, %ecx
	idivl	%ecx
	movl	%eax, -16(%rbp)
# %bb.7:                                # %for.inc
                                        #   in Loop: Header=BB80_3 Depth=1
	movl	-12(%rbp), %eax
	addl	$1, %eax
	movl	%eax, -12(%rbp)
	jmp	.LBB80_3
.LBB80_8:                               # %for.end
	vmovsd	.LCPI80_0(%rip), %xmm0  # xmm0 = mem[0],zero
	movl	-12(%rbp), %eax
	shll	$1, %eax
	addl	$1, %eax
	movq	-40(%rbp), %rcx
	movl	%eax, (%rcx)
	movl	-20(%rbp), %ebx
	vcvtsi2sdl	-12(%rbp), %xmm0, %xmm1
	callq	pow
	vcvttsd2si	%xmm0, %eax
	subl	%eax, %ebx
	addl	-24(%rbp), %ebx
	movq	-48(%rbp), %rax
	movl	%ebx, (%rax)
	cmpl	$691698066, -32(%rbp)   # imm = 0x293A7992
	jne	.LBB80_10
.LBB80_9:
	addq	$56, %rsp
	popq	%rbx
	popq	%rbp
	.cfi_def_cfa %rsp, 8
	retq
.LBB80_10:                              # %func_exit
	.cfi_def_cfa %rbp, 16
	callq	detect_breach
	jmp	.LBB80_9
.Lfunc_end80:
	.size	se_linfo.53, .Lfunc_end80-se_linfo.53
	.cfi_endproc
                                        # -- End function
	.globl	ue_v.54                 # -- Begin function ue_v.54
	.p2align	4, 0x90
	.type	ue_v.54,@function
ue_v.54:                                # @ue_v.54
	.cfi_startproc
# %bb.0:                                # %entry
	pushq	%rbp
	.cfi_def_cfa_offset 16
	.cfi_offset %rbp, -16
	movq	%rsp, %rbp
	.cfi_def_cfa_register %rbp
	pushq	%rbx
	subq	$88, %rsp
	.cfi_offset %rbx, -24
	movl	$900578917, -20(%rbp)   # imm = 0x35ADBE65
	movq	%rdi, -40(%rbp)
	movl	%esi, -24(%rbp)
	movq	%rdx, -32(%rbp)
	leaq	-88(%rbp), %rax
	movq	%rax, -16(%rbp)
	movq	-16(%rbp), %rax
	movl	$0, (%rax)
	movq	-16(%rbp), %rax
	movabsq	$ue_linfo, %rcx
	movq	%rcx, 32(%rax)
	movl	-24(%rbp), %eax
	movq	-16(%rbp), %rcx
	movl	%eax, 4(%rcx)
	movq	-16(%rbp), %rax
	movl	$0, 8(%rax)
	movq	-16(%rbp), %rdi
	movq	-32(%rbp), %rsi
	callq	writeSyntaxElement_UVLC
	movl	%eax, %ebx
	cmpl	$900578917, -20(%rbp)   # imm = 0x35ADBE65
	jne	.LBB81_2
.LBB81_1:
	movl	%ebx, %eax
	addq	$88, %rsp
	popq	%rbx
	popq	%rbp
	.cfi_def_cfa %rsp, 8
	retq
.LBB81_2:                               # %func_exit
	.cfi_def_cfa %rbp, 16
	callq	detect_breach
	jmp	.LBB81_1
.Lfunc_end81:
	.size	ue_v.54, .Lfunc_end81-ue_v.54
	.cfi_endproc
                                        # -- End function
	.globl	cbp_linfo_inter.55      # -- Begin function cbp_linfo_inter.55
	.p2align	4, 0x90
	.type	cbp_linfo_inter.55,@function
cbp_linfo_inter.55:                     # @cbp_linfo_inter.55
	.cfi_startproc
# %bb.0:                                # %entry
	pushq	%rbp
	.cfi_def_cfa_offset 16
	.cfi_offset %rbp, -16
	movq	%rsp, %rbp
	.cfi_def_cfa_register %rbp
	subq	$32, %rsp
	xorl	%eax, %eax
	movl	$1519887206, -12(%rbp)  # imm = 0x5A97A366
	movl	%edi, -8(%rbp)
	movl	%esi, -4(%rbp)
	movq	%rdx, -24(%rbp)
	movq	%rcx, -32(%rbp)
	movq	img, %rcx
	movl	72700(%rcx), %ecx
	cmpl	$0, %ecx
	movl	$1, %ecx
	cmovnel	%ecx, %eax
	cltq
	imulq	$96, %rax, %rax
	movabsq	$NCBP, %rcx
	addq	%rax, %rcx
	movslq	-8(%rbp), %rax
	movzbl	1(%rcx,%rax,2), %edi
	movl	-4(%rbp), %esi
	movq	-24(%rbp), %rdx
	movq	-32(%rbp), %rcx
	callq	ue_linfo
	cmpl	$1519887206, -12(%rbp)  # imm = 0x5A97A366
	jne	.LBB82_2
.LBB82_1:
	addq	$32, %rsp
	popq	%rbp
	.cfi_def_cfa %rsp, 8
	retq
.LBB82_2:                               # %func_exit
	.cfi_def_cfa %rbp, 16
	callq	detect_breach
	jmp	.LBB82_1
.Lfunc_end82:
	.size	cbp_linfo_inter.55, .Lfunc_end82-cbp_linfo_inter.55
	.cfi_endproc
                                        # -- End function
	.globl	cbp_linfo_inter.56      # -- Begin function cbp_linfo_inter.56
	.p2align	4, 0x90
	.type	cbp_linfo_inter.56,@function
cbp_linfo_inter.56:                     # @cbp_linfo_inter.56
	.cfi_startproc
# %bb.0:                                # %entry
	pushq	%rbp
	.cfi_def_cfa_offset 16
	.cfi_offset %rbp, -16
	movq	%rsp, %rbp
	.cfi_def_cfa_register %rbp
	subq	$32, %rsp
	xorl	%eax, %eax
	movl	$618149553, -12(%rbp)   # imm = 0x24D836B1
	movl	%edi, -4(%rbp)
	movl	%esi, -8(%rbp)
	movq	%rdx, -32(%rbp)
	movq	%rcx, -24(%rbp)
	movq	img, %rcx
	movl	72700(%rcx), %ecx
	cmpl	$0, %ecx
	movl	$1, %ecx
	cmovnel	%ecx, %eax
	cltq
	imulq	$96, %rax, %rax
	movabsq	$NCBP, %rcx
	addq	%rax, %rcx
	movslq	-4(%rbp), %rax
	movzbl	1(%rcx,%rax,2), %edi
	movl	-8(%rbp), %esi
	movq	-32(%rbp), %rdx
	movq	-24(%rbp), %rcx
	callq	ue_linfo
	cmpl	$618149553, -12(%rbp)   # imm = 0x24D836B1
	jne	.LBB83_2
.LBB83_1:
	addq	$32, %rsp
	popq	%rbp
	.cfi_def_cfa %rsp, 8
	retq
.LBB83_2:                               # %func_exit
	.cfi_def_cfa %rbp, 16
	callq	detect_breach
	jmp	.LBB83_1
.Lfunc_end83:
	.size	cbp_linfo_inter.56, .Lfunc_end83-cbp_linfo_inter.56
	.cfi_endproc
                                        # -- End function
	.globl	writeSyntaxElement2Buf_UVLC.57 # -- Begin function writeSyntaxElement2Buf_UVLC.57
	.p2align	4, 0x90
	.type	writeSyntaxElement2Buf_UVLC.57,@function
writeSyntaxElement2Buf_UVLC.57:         # @writeSyntaxElement2Buf_UVLC.57
	.cfi_startproc
# %bb.0:                                # %entry
	pushq	%rbp
	.cfi_def_cfa_offset 16
	.cfi_offset %rbp, -16
	movq	%rsp, %rbp
	.cfi_def_cfa_register %rbp
	pushq	%rbx
	subq	$24, %rsp
	.cfi_offset %rbx, -24
	movl	$115787260, -20(%rbp)   # imm = 0x6E6C5FC
	movq	%rdi, -16(%rbp)
	movq	%rsi, -32(%rbp)
	movq	-16(%rbp), %rax
	movq	32(%rax), %rax
	movq	-16(%rbp), %rcx
	movl	4(%rcx), %edi
	movq	-16(%rbp), %rcx
	movl	8(%rcx), %esi
	movq	-16(%rbp), %rdx
	addq	$12, %rdx
	movq	-16(%rbp), %rcx
	addq	$16, %rcx
	callq	*%rax
	movq	-16(%rbp), %rdi
	callq	symbol2uvlc
	movq	-16(%rbp), %rdi
	movq	-32(%rbp), %rsi
	callq	writeUVLC2buffer
	movq	-16(%rbp), %rax
	movl	12(%rax), %ebx
	cmpl	$115787260, -20(%rbp)   # imm = 0x6E6C5FC
	jne	.LBB84_2
.LBB84_1:
	movl	%ebx, %eax
	addq	$24, %rsp
	popq	%rbx
	popq	%rbp
	.cfi_def_cfa %rsp, 8
	retq
.LBB84_2:                               # %func_exit
	.cfi_def_cfa %rbp, 16
	callq	detect_breach
	jmp	.LBB84_1
.Lfunc_end84:
	.size	writeSyntaxElement2Buf_UVLC.57, .Lfunc_end84-writeSyntaxElement2Buf_UVLC.57
	.cfi_endproc
                                        # -- End function
	.section	.rodata.cst8,"aM",@progbits,8
	.p2align	3               # -- Begin function levrun_linfo_inter.58
.LCPI85_0:
	.quad	4611686018427387904     # double 2
	.text
	.globl	levrun_linfo_inter.58
	.p2align	4, 0x90
	.type	levrun_linfo_inter.58,@function
levrun_linfo_inter.58:                  # @levrun_linfo_inter.58
	.cfi_startproc
# %bb.0:                                # %entry
	pushq	%rbp
	.cfi_def_cfa_offset 16
	.cfi_offset %rbp, -16
	movq	%rsp, %rbp
	.cfi_def_cfa_register %rbp
	pushq	%rbx
	subq	$104, %rsp
	.cfi_offset %rbx, -24
	movl	$1102021332, -40(%rbp)  # imm = 0x41AF82D4
	movl	%edi, -24(%rbp)
	movl	%esi, -16(%rbp)
	movq	%rdx, -48(%rbp)
	movq	%rcx, -72(%rbp)
	movq	.L__const.levrun_linfo_inter.LEVRUN, %rax
	movq	%rax, -64(%rbp)
	movq	.L__const.levrun_linfo_inter.LEVRUN+8, %rax
	movq	%rax, -56(%rbp)
	leaq	-112(%rbp), %rdi
	movabsq	$.L__const.levrun_linfo_inter.NTAB, %rsi
	movl	$40, %edx
	callq	memcpy
	cmpl	$0, -24(%rbp)
	jne	.LBB85_2
# %bb.1:                                # %if.then
	movq	-48(%rbp), %rax
	movl	$1, (%rax)
	jmp	.LBB85_15
.LBB85_2:                               # %if.end
	cmpl	$0, -24(%rbp)
	jg	.LBB85_4
# %bb.3:                                # %if.then2
	movl	$1, -36(%rbp)
	jmp	.LBB85_5
.LBB85_4:                               # %if.else
	movl	$0, -36(%rbp)
.LBB85_5:                               # %if.end3
	movl	-24(%rbp), %edi
	callq	abs
	movl	%eax, -20(%rbp)
	movl	-20(%rbp), %eax
	movslq	-16(%rbp), %rcx
	movzbl	-64(%rbp,%rcx), %ecx
	cmpl	%ecx, %eax
	jg	.LBB85_7
# %bb.6:                                # %if.then6
	movl	-20(%rbp), %eax
	subl	$1, %eax
	cltq
	imulq	$10, %rax, %rax
	leaq	-112(%rbp), %rcx
	addq	%rax, %rcx
	movslq	-16(%rbp), %rax
	movzbl	(%rcx,%rax), %eax
	addl	$1, %eax
	movl	%eax, -28(%rbp)
	jmp	.LBB85_8
.LBB85_7:                               # %if.else12
	movl	-20(%rbp), %eax
	movslq	-16(%rbp), %rcx
	movzbl	-64(%rbp,%rcx), %ecx
	subl	%ecx, %eax
	shll	$5, %eax
	movl	-16(%rbp), %ecx
	shll	$1, %ecx
	addl	%ecx, %eax
	movl	%eax, -28(%rbp)
.LBB85_8:                               # %if.end19
	movl	-28(%rbp), %eax
	cltd
	movl	$2, %ecx
	idivl	%ecx
	movl	%eax, -32(%rbp)
	movl	$0, -12(%rbp)
.LBB85_9:                               # %for.cond
                                        # =>This Inner Loop Header: Depth=1
	xorl	%eax, %eax
	cmpl	$16, -12(%rbp)
	jge	.LBB85_11
# %bb.10:                               # %land.rhs
                                        #   in Loop: Header=BB85_9 Depth=1
	cmpl	$0, -32(%rbp)
	setne	%al
.LBB85_11:                              # %land.end
                                        #   in Loop: Header=BB85_9 Depth=1
	testb	$1, %al
	jne	.LBB85_12
	jmp	.LBB85_14
.LBB85_12:                              # %for.body
                                        #   in Loop: Header=BB85_9 Depth=1
	movl	-32(%rbp), %eax
	cltd
	movl	$2, %ecx
	idivl	%ecx
	movl	%eax, -32(%rbp)
# %bb.13:                               # %for.inc
                                        #   in Loop: Header=BB85_9 Depth=1
	movl	-12(%rbp), %eax
	addl	$1, %eax
	movl	%eax, -12(%rbp)
	jmp	.LBB85_9
.LBB85_14:                              # %for.end
	vmovsd	.LCPI85_0(%rip), %xmm0  # xmm0 = mem[0],zero
	movl	-12(%rbp), %eax
	shll	$1, %eax
	addl	$1, %eax
	movq	-48(%rbp), %rcx
	movl	%eax, (%rcx)
	movl	-28(%rbp), %ebx
	vcvtsi2sdl	-12(%rbp), %xmm0, %xmm1
	callq	pow
	vcvttsd2si	%xmm0, %eax
	subl	%eax, %ebx
	addl	-36(%rbp), %ebx
	movq	-72(%rbp), %rax
	movl	%ebx, (%rax)
.LBB85_15:                              # %return
	cmpl	$1102021332, -40(%rbp)  # imm = 0x41AF82D4
	jne	.LBB85_17
.LBB85_16:
	addq	$104, %rsp
	popq	%rbx
	popq	%rbp
	.cfi_def_cfa %rsp, 8
	retq
.LBB85_17:                              # %func_exit
	.cfi_def_cfa %rbp, 16
	callq	detect_breach
	jmp	.LBB85_16
.Lfunc_end85:
	.size	levrun_linfo_inter.58, .Lfunc_end85-levrun_linfo_inter.58
	.cfi_endproc
                                        # -- End function
	.globl	writeSyntaxElement_Level_VLCN.59 # -- Begin function writeSyntaxElement_Level_VLCN.59
	.p2align	4, 0x90
	.type	writeSyntaxElement_Level_VLCN.59,@function
writeSyntaxElement_Level_VLCN.59:       # @writeSyntaxElement_Level_VLCN.59
	.cfi_startproc
# %bb.0:                                # %entry
	pushq	%rbp
	.cfi_def_cfa_offset 16
	.cfi_offset %rbp, -16
	movq	%rsp, %rbp
	.cfi_def_cfa_register %rbp
	pushq	%rbx
	subq	$72, %rsp
	.cfi_offset %rbx, -24
	movl	$467199913, -64(%rbp)   # imm = 0x1BD8E7A9
	movq	%rdi, -24(%rbp)
	movl	%esi, -28(%rbp)
	movq	%rdx, -72(%rbp)
	movq	-24(%rbp), %rax
	movl	4(%rax), %eax
	movl	%eax, -40(%rbp)
	movl	-40(%rbp), %edi
	callq	abs
	xorl	%ecx, %ecx
	movl	%eax, -16(%rbp)
	movl	-40(%rbp), %eax
	cmpl	$0, %eax
	movl	$1, %eax
	cmovll	%eax, %ecx
	movl	%ecx, -36(%rbp)
	movl	-28(%rbp), %eax
	subl	$1, %eax
	movl	%eax, -12(%rbp)
	movl	-12(%rbp), %ecx
                                        # kill: def $cl killed $ecx
	movl	$15, %eax
	shll	%cl, %eax
	addl	$1, %eax
	movl	%eax, -48(%rbp)
	movl	-16(%rbp), %eax
	subl	$1, %eax
	movl	-12(%rbp), %ecx
                                        # kill: def $cl killed $ecx
	sarl	%cl, %eax
	movl	%eax, -60(%rbp)
	movl	-12(%rbp), %ecx
                                        # kill: def $cl killed $ecx
	movl	$4294967295, %eax       # imm = 0xFFFFFFFF
	shll	%cl, %eax
	xorl	$-1, %eax
	movl	%eax, -52(%rbp)
	movl	-16(%rbp), %eax
	subl	$1, %eax
	andl	-52(%rbp), %eax
	movl	%eax, -56(%rbp)
	movl	-16(%rbp), %eax
	cmpl	-48(%rbp), %eax
	jge	.LBB86_2
# %bb.1:                                # %if.then
	movl	-60(%rbp), %eax
	addl	-28(%rbp), %eax
	addl	$1, %eax
	movl	%eax, -32(%rbp)
	movl	-12(%rbp), %ecx
	addl	$1, %ecx
                                        # kill: def $cl killed $ecx
	movl	$1, %eax
	shll	%cl, %eax
	movl	-56(%rbp), %ecx
	shll	$1, %ecx
	orl	%ecx, %eax
	orl	-36(%rbp), %eax
	movl	%eax, -44(%rbp)
	jmp	.LBB86_3
.LBB86_2:                               # %if.else
	movl	$28, -32(%rbp)
	movl	-16(%rbp), %eax
	subl	-48(%rbp), %eax
	shll	$1, %eax
	orl	$4096, %eax             # imm = 0x1000
	orl	-36(%rbp), %eax
	movl	%eax, -44(%rbp)
.LBB86_3:                               # %if.end
	movl	-32(%rbp), %eax
	movq	-24(%rbp), %rcx
	movl	%eax, 12(%rcx)
	movl	-44(%rbp), %eax
	movq	-24(%rbp), %rcx
	movl	%eax, 16(%rcx)
	movq	-24(%rbp), %rdi
	callq	symbol2vlc
	movq	-24(%rbp), %rdi
	movq	-72(%rbp), %rax
	movq	(%rax), %rsi
	callq	writeUVLC2buffer
	movq	-24(%rbp), %rax
	movl	12(%rax), %ebx
	cmpl	$467199913, -64(%rbp)   # imm = 0x1BD8E7A9
	jne	.LBB86_5
.LBB86_4:
	movl	%ebx, %eax
	addq	$72, %rsp
	popq	%rbx
	popq	%rbp
	.cfi_def_cfa %rsp, 8
	retq
.LBB86_5:                               # %func_exit
	.cfi_def_cfa %rbp, 16
	callq	detect_breach
	jmp	.LBB86_4
.Lfunc_end86:
	.size	writeSyntaxElement_Level_VLCN.59, .Lfunc_end86-writeSyntaxElement_Level_VLCN.59
	.cfi_endproc
                                        # -- End function
	.globl	writeSyntaxElement_NumCoeffTrailingOnesChromaDC.60 # -- Begin function writeSyntaxElement_NumCoeffTrailingOnesChromaDC.60
	.p2align	4, 0x90
	.type	writeSyntaxElement_NumCoeffTrailingOnesChromaDC.60,@function
writeSyntaxElement_NumCoeffTrailingOnesChromaDC.60: # @writeSyntaxElement_NumCoeffTrailingOnesChromaDC.60
	.cfi_startproc
# %bb.0:                                # %entry
	pushq	%rbp
	.cfi_def_cfa_offset 16
	.cfi_offset %rbp, -16
	movq	%rsp, %rbp
	.cfi_def_cfa_register %rbp
	pushq	%rbx
	subq	$24, %rsp
	.cfi_offset %rbx, -24
	movabsq	$writeSyntaxElement_NumCoeffTrailingOnesChromaDC.codtab, %rax
	movabsq	$writeSyntaxElement_NumCoeffTrailingOnesChromaDC.lentab, %rcx
	movl	$346610248, -24(%rbp)   # imm = 0x14A8DA48
	movq	%rdi, -16(%rbp)
	movq	%rsi, -32(%rbp)
	movq	img, %rdx
	movl	72700(%rdx), %edx
	subl	$1, %edx
	movl	%edx, -20(%rbp)
	movslq	-20(%rbp), %rdx
	imulq	$272, %rdx, %rdx        # imm = 0x110
	addq	%rdx, %rcx
	movq	-16(%rbp), %rdx
	movslq	8(%rdx), %rdx
	imulq	$68, %rdx, %rdx
	addq	%rdx, %rcx
	movq	-16(%rbp), %rdx
	movslq	4(%rdx), %rdx
	movl	(%rcx,%rdx,4), %ecx
	movq	-16(%rbp), %rdx
	movl	%ecx, 12(%rdx)
	movslq	-20(%rbp), %rcx
	imulq	$272, %rcx, %rcx        # imm = 0x110
	addq	%rcx, %rax
	movq	-16(%rbp), %rcx
	movslq	8(%rcx), %rcx
	imulq	$68, %rcx, %rcx
	addq	%rcx, %rax
	movq	-16(%rbp), %rcx
	movslq	4(%rcx), %rcx
	movl	(%rax,%rcx,4), %eax
	movq	-16(%rbp), %rcx
	movl	%eax, 16(%rcx)
	movq	-16(%rbp), %rax
	cmpl	$0, 12(%rax)
	jne	.LBB87_2
# %bb.1:                                # %if.then
	movq	-16(%rbp), %rax
	movl	4(%rax), %esi
	movq	-16(%rbp), %rax
	movl	8(%rax), %edx
	movabsq	$.L.str.1, %rdi
	movb	$0, %al
	callq	printf
	movl	$4294967295, %edi       # imm = 0xFFFFFFFF
	callq	exit
.LBB87_2:                               # %if.end
	movq	-16(%rbp), %rdi
	callq	symbol2vlc
	movq	-16(%rbp), %rdi
	movq	-32(%rbp), %rax
	movq	(%rax), %rsi
	callq	writeUVLC2buffer
	movq	-16(%rbp), %rax
	movl	12(%rax), %ebx
	cmpl	$346610248, -24(%rbp)   # imm = 0x14A8DA48
	jne	.LBB87_4
.LBB87_3:
	movl	%ebx, %eax
	addq	$24, %rsp
	popq	%rbx
	popq	%rbp
	.cfi_def_cfa %rsp, 8
	retq
.LBB87_4:                               # %func_exit
	.cfi_def_cfa %rbp, 16
	callq	detect_breach
	jmp	.LBB87_3
.Lfunc_end87:
	.size	writeSyntaxElement_NumCoeffTrailingOnesChromaDC.60, .Lfunc_end87-writeSyntaxElement_NumCoeffTrailingOnesChromaDC.60
	.cfi_endproc
                                        # -- End function
	.globl	u_v.61                  # -- Begin function u_v.61
	.p2align	4, 0x90
	.type	u_v.61,@function
u_v.61:                                 # @u_v.61
	.cfi_startproc
# %bb.0:                                # %entry
	pushq	%rbp
	.cfi_def_cfa_offset 16
	.cfi_offset %rbp, -16
	movq	%rsp, %rbp
	.cfi_def_cfa_register %rbp
	pushq	%rbx
	subq	$88, %rsp
	.cfi_offset %rbx, -24
	movl	$333688448, -24(%rbp)   # imm = 0x13E3AE80
	movl	%edi, -28(%rbp)
	movq	%rsi, -48(%rbp)
	movl	%edx, -20(%rbp)
	movq	%rcx, -40(%rbp)
	leaq	-96(%rbp), %rax
	movq	%rax, -16(%rbp)
	movl	-20(%rbp), %eax
	movq	-16(%rbp), %rcx
	movl	%eax, 20(%rcx)
	movl	-28(%rbp), %eax
	movq	-16(%rbp), %rcx
	movl	%eax, 12(%rcx)
	movq	-16(%rbp), %rax
	movl	$0, (%rax)
	movl	-20(%rbp), %eax
	movq	-16(%rbp), %rcx
	movl	%eax, 4(%rcx)
	movq	-16(%rbp), %rax
	movl	$0, 8(%rax)
	movq	-16(%rbp), %rdi
	movq	-40(%rbp), %rsi
	callq	writeSyntaxElement_fixed
	movl	%eax, %ebx
	cmpl	$333688448, -24(%rbp)   # imm = 0x13E3AE80
	jne	.LBB88_2
.LBB88_1:
	movl	%ebx, %eax
	addq	$88, %rsp
	popq	%rbx
	popq	%rbp
	.cfi_def_cfa %rsp, 8
	retq
.LBB88_2:                               # %func_exit
	.cfi_def_cfa %rbp, 16
	callq	detect_breach
	jmp	.LBB88_1
.Lfunc_end88:
	.size	u_v.61, .Lfunc_end88-u_v.61
	.cfi_endproc
                                        # -- End function
	.section	.rodata.cst8,"aM",@progbits,8
	.p2align	3               # -- Begin function se_linfo.62
.LCPI89_0:
	.quad	4611686018427387904     # double 2
	.text
	.globl	se_linfo.62
	.p2align	4, 0x90
	.type	se_linfo.62,@function
se_linfo.62:                            # @se_linfo.62
	.cfi_startproc
# %bb.0:                                # %entry
	pushq	%rbp
	.cfi_def_cfa_offset 16
	.cfi_offset %rbp, -16
	movq	%rsp, %rbp
	.cfi_def_cfa_register %rbp
	pushq	%rbx
	subq	$56, %rsp
	.cfi_offset %rbx, -24
	movl	$1515730160, -32(%rbp)  # imm = 0x5A5834F0
	movl	%edi, -20(%rbp)
	movl	%esi, -52(%rbp)
	movq	%rdx, -48(%rbp)
	movq	%rcx, -40(%rbp)
	movl	$0, -24(%rbp)
	cmpl	$0, -20(%rbp)
	jg	.LBB89_2
# %bb.1:                                # %if.then
	movl	$1, -24(%rbp)
.LBB89_2:                               # %if.end
	movl	-20(%rbp), %edi
	callq	abs
	shll	$1, %eax
	movl	%eax, -28(%rbp)
	movl	-28(%rbp), %eax
	cltd
	movl	$2, %ecx
	idivl	%ecx
	movl	%eax, -16(%rbp)
	movl	$0, -12(%rbp)
.LBB89_3:                               # %for.cond
                                        # =>This Inner Loop Header: Depth=1
	xorl	%eax, %eax
	cmpl	$16, -12(%rbp)
	jge	.LBB89_5
# %bb.4:                                # %land.rhs
                                        #   in Loop: Header=BB89_3 Depth=1
	cmpl	$0, -16(%rbp)
	setne	%al
.LBB89_5:                               # %land.end
                                        #   in Loop: Header=BB89_3 Depth=1
	testb	$1, %al
	jne	.LBB89_6
	jmp	.LBB89_8
.LBB89_6:                               # %for.body
                                        #   in Loop: Header=BB89_3 Depth=1
	movl	-16(%rbp), %eax
	cltd
	movl	$2, %ecx
	idivl	%ecx
	movl	%eax, -16(%rbp)
# %bb.7:                                # %for.inc
                                        #   in Loop: Header=BB89_3 Depth=1
	movl	-12(%rbp), %eax
	addl	$1, %eax
	movl	%eax, -12(%rbp)
	jmp	.LBB89_3
.LBB89_8:                               # %for.end
	vmovsd	.LCPI89_0(%rip), %xmm0  # xmm0 = mem[0],zero
	movl	-12(%rbp), %eax
	shll	$1, %eax
	addl	$1, %eax
	movq	-48(%rbp), %rcx
	movl	%eax, (%rcx)
	movl	-28(%rbp), %ebx
	vcvtsi2sdl	-12(%rbp), %xmm0, %xmm1
	callq	pow
	vcvttsd2si	%xmm0, %eax
	subl	%eax, %ebx
	addl	-24(%rbp), %ebx
	movq	-40(%rbp), %rax
	movl	%ebx, (%rax)
	cmpl	$1515730160, -32(%rbp)  # imm = 0x5A5834F0
	jne	.LBB89_10
.LBB89_9:
	addq	$56, %rsp
	popq	%rbx
	popq	%rbp
	.cfi_def_cfa %rsp, 8
	retq
.LBB89_10:                              # %func_exit
	.cfi_def_cfa %rbp, 16
	callq	detect_breach
	jmp	.LBB89_9
.Lfunc_end89:
	.size	se_linfo.62, .Lfunc_end89-se_linfo.62
	.cfi_endproc
                                        # -- End function
	.globl	u_v.63                  # -- Begin function u_v.63
	.p2align	4, 0x90
	.type	u_v.63,@function
u_v.63:                                 # @u_v.63
	.cfi_startproc
# %bb.0:                                # %entry
	pushq	%rbp
	.cfi_def_cfa_offset 16
	.cfi_offset %rbp, -16
	movq	%rsp, %rbp
	.cfi_def_cfa_register %rbp
	pushq	%rbx
	subq	$88, %rsp
	.cfi_offset %rbx, -24
	movl	$2092785389, -24(%rbp)  # imm = 0x7CBD5EED
	movl	%edi, -28(%rbp)
	movq	%rsi, -48(%rbp)
	movl	%edx, -20(%rbp)
	movq	%rcx, -40(%rbp)
	leaq	-96(%rbp), %rax
	movq	%rax, -16(%rbp)
	movl	-20(%rbp), %eax
	movq	-16(%rbp), %rcx
	movl	%eax, 20(%rcx)
	movl	-28(%rbp), %eax
	movq	-16(%rbp), %rcx
	movl	%eax, 12(%rcx)
	movq	-16(%rbp), %rax
	movl	$0, (%rax)
	movl	-20(%rbp), %eax
	movq	-16(%rbp), %rcx
	movl	%eax, 4(%rcx)
	movq	-16(%rbp), %rax
	movl	$0, 8(%rax)
	movq	-16(%rbp), %rdi
	movq	-40(%rbp), %rsi
	callq	writeSyntaxElement_fixed
	movl	%eax, %ebx
	cmpl	$2092785389, -24(%rbp)  # imm = 0x7CBD5EED
	jne	.LBB90_2
.LBB90_1:
	movl	%ebx, %eax
	addq	$88, %rsp
	popq	%rbx
	popq	%rbp
	.cfi_def_cfa %rsp, 8
	retq
.LBB90_2:                               # %func_exit
	.cfi_def_cfa %rbp, 16
	callq	detect_breach
	jmp	.LBB90_1
.Lfunc_end90:
	.size	u_v.63, .Lfunc_end90-u_v.63
	.cfi_endproc
                                        # -- End function
	.globl	cbp_linfo_intra.64      # -- Begin function cbp_linfo_intra.64
	.p2align	4, 0x90
	.type	cbp_linfo_intra.64,@function
cbp_linfo_intra.64:                     # @cbp_linfo_intra.64
	.cfi_startproc
# %bb.0:                                # %entry
	pushq	%rbp
	.cfi_def_cfa_offset 16
	.cfi_offset %rbp, -16
	movq	%rsp, %rbp
	.cfi_def_cfa_register %rbp
	subq	$32, %rsp
	xorl	%eax, %eax
	movl	$1049401476, -8(%rbp)   # imm = 0x3E8C9884
	movl	%edi, -12(%rbp)
	movl	%esi, -4(%rbp)
	movq	%rdx, -32(%rbp)
	movq	%rcx, -24(%rbp)
	movq	img, %rcx
	movl	72700(%rcx), %ecx
	cmpl	$0, %ecx
	movl	$1, %ecx
	cmovnel	%ecx, %eax
	cltq
	imulq	$96, %rax, %rax
	movabsq	$NCBP, %rcx
	addq	%rax, %rcx
	movslq	-12(%rbp), %rax
	movzbl	(%rcx,%rax,2), %edi
	movl	-4(%rbp), %esi
	movq	-32(%rbp), %rdx
	movq	-24(%rbp), %rcx
	callq	ue_linfo
	cmpl	$1049401476, -8(%rbp)   # imm = 0x3E8C9884
	jne	.LBB91_2
.LBB91_1:
	addq	$32, %rsp
	popq	%rbp
	.cfi_def_cfa %rsp, 8
	retq
.LBB91_2:                               # %func_exit
	.cfi_def_cfa %rbp, 16
	callq	detect_breach
	jmp	.LBB91_1
.Lfunc_end91:
	.size	cbp_linfo_intra.64, .Lfunc_end91-cbp_linfo_intra.64
	.cfi_endproc
                                        # -- End function
	.section	.rodata.cst8,"aM",@progbits,8
	.p2align	3               # -- Begin function levrun_linfo_c2x2.65
.LCPI92_0:
	.quad	4611686018427387904     # double 2
	.text
	.globl	levrun_linfo_c2x2.65
	.p2align	4, 0x90
	.type	levrun_linfo_c2x2.65,@function
levrun_linfo_c2x2.65:                   # @levrun_linfo_c2x2.65
	.cfi_startproc
# %bb.0:                                # %entry
	pushq	%rbp
	.cfi_def_cfa_offset 16
	.cfi_offset %rbp, -16
	movq	%rsp, %rbp
	.cfi_def_cfa_register %rbp
	pushq	%rbx
	subq	$88, %rsp
	.cfi_offset %rbx, -24
	movl	$1160976284, -40(%rbp)  # imm = 0x4533179C
	movl	%edi, -28(%rbp)
	movl	%esi, -16(%rbp)
	movq	%rdx, -48(%rbp)
	movq	%rcx, -72(%rbp)
	movq	.L__const.levrun_linfo_c2x2.NTAB, %rax
	movq	%rax, -96(%rbp)
	movq	.L__const.levrun_linfo_c2x2.NTAB+8, %rax
	movq	%rax, -88(%rbp)
	movq	.L__const.levrun_linfo_c2x2.LEVRUN, %rax
	movq	%rax, -64(%rbp)
	movq	.L__const.levrun_linfo_c2x2.LEVRUN+8, %rax
	movq	%rax, -56(%rbp)
	cmpl	$0, -28(%rbp)
	jne	.LBB92_2
# %bb.1:                                # %if.then
	movq	-48(%rbp), %rax
	movl	$1, (%rax)
	jmp	.LBB92_14
.LBB92_2:                               # %if.end
	movl	$0, -36(%rbp)
	cmpl	$0, -28(%rbp)
	jg	.LBB92_4
# %bb.3:                                # %if.then2
	movl	$1, -36(%rbp)
.LBB92_4:                               # %if.end3
	movl	-28(%rbp), %edi
	callq	abs
	movl	%eax, -20(%rbp)
	movl	-20(%rbp), %eax
	movslq	-16(%rbp), %rcx
	cmpl	-64(%rbp,%rcx,4), %eax
	jg	.LBB92_6
# %bb.5:                                # %if.then5
	movl	-20(%rbp), %eax
	subl	$1, %eax
	cltq
	shlq	$3, %rax
	leaq	-96(%rbp), %rcx
	addq	%rax, %rcx
	movslq	-16(%rbp), %rax
	movl	(%rcx,%rax,4), %eax
	addl	$1, %eax
	movl	%eax, -24(%rbp)
	jmp	.LBB92_7
.LBB92_6:                               # %if.else
	movl	-20(%rbp), %eax
	movslq	-16(%rbp), %rcx
	subl	-64(%rbp,%rcx,4), %eax
	shll	$3, %eax
	movl	-16(%rbp), %ecx
	shll	$1, %ecx
	addl	%ecx, %eax
	movl	%eax, -24(%rbp)
.LBB92_7:                               # %if.end15
	movl	-24(%rbp), %eax
	cltd
	movl	$2, %ecx
	idivl	%ecx
	movl	%eax, -32(%rbp)
	movl	$0, -12(%rbp)
.LBB92_8:                               # %for.cond
                                        # =>This Inner Loop Header: Depth=1
	xorl	%eax, %eax
	cmpl	$16, -12(%rbp)
	jge	.LBB92_10
# %bb.9:                                # %land.rhs
                                        #   in Loop: Header=BB92_8 Depth=1
	cmpl	$0, -32(%rbp)
	setne	%al
.LBB92_10:                              # %land.end
                                        #   in Loop: Header=BB92_8 Depth=1
	testb	$1, %al
	jne	.LBB92_11
	jmp	.LBB92_13
.LBB92_11:                              # %for.body
                                        #   in Loop: Header=BB92_8 Depth=1
	movl	-32(%rbp), %eax
	cltd
	movl	$2, %ecx
	idivl	%ecx
	movl	%eax, -32(%rbp)
# %bb.12:                               # %for.inc
                                        #   in Loop: Header=BB92_8 Depth=1
	movl	-12(%rbp), %eax
	addl	$1, %eax
	movl	%eax, -12(%rbp)
	jmp	.LBB92_8
.LBB92_13:                              # %for.end
	vmovsd	.LCPI92_0(%rip), %xmm0  # xmm0 = mem[0],zero
	movl	-12(%rbp), %eax
	shll	$1, %eax
	addl	$1, %eax
	movq	-48(%rbp), %rcx
	movl	%eax, (%rcx)
	movl	-24(%rbp), %ebx
	vcvtsi2sdl	-12(%rbp), %xmm0, %xmm1
	callq	pow
	vcvttsd2si	%xmm0, %eax
	subl	%eax, %ebx
	addl	-36(%rbp), %ebx
	movq	-72(%rbp), %rax
	movl	%ebx, (%rax)
.LBB92_14:                              # %return
	cmpl	$1160976284, -40(%rbp)  # imm = 0x4533179C
	jne	.LBB92_16
.LBB92_15:
	addq	$88, %rsp
	popq	%rbx
	popq	%rbp
	.cfi_def_cfa %rsp, 8
	retq
.LBB92_16:                              # %func_exit
	.cfi_def_cfa %rbp, 16
	callq	detect_breach
	jmp	.LBB92_15
.Lfunc_end92:
	.size	levrun_linfo_c2x2.65, .Lfunc_end92-levrun_linfo_c2x2.65
	.cfi_endproc
                                        # -- End function
	.globl	u_v.66                  # -- Begin function u_v.66
	.p2align	4, 0x90
	.type	u_v.66,@function
u_v.66:                                 # @u_v.66
	.cfi_startproc
# %bb.0:                                # %entry
	pushq	%rbp
	.cfi_def_cfa_offset 16
	.cfi_offset %rbp, -16
	movq	%rsp, %rbp
	.cfi_def_cfa_register %rbp
	pushq	%rbx
	subq	$88, %rsp
	.cfi_offset %rbx, -24
	movl	$634267093, -24(%rbp)   # imm = 0x25CE25D5
	movl	%edi, -28(%rbp)
	movq	%rsi, -48(%rbp)
	movl	%edx, -20(%rbp)
	movq	%rcx, -40(%rbp)
	leaq	-96(%rbp), %rax
	movq	%rax, -16(%rbp)
	movl	-20(%rbp), %eax
	movq	-16(%rbp), %rcx
	movl	%eax, 20(%rcx)
	movl	-28(%rbp), %eax
	movq	-16(%rbp), %rcx
	movl	%eax, 12(%rcx)
	movq	-16(%rbp), %rax
	movl	$0, (%rax)
	movl	-20(%rbp), %eax
	movq	-16(%rbp), %rcx
	movl	%eax, 4(%rcx)
	movq	-16(%rbp), %rax
	movl	$0, 8(%rax)
	movq	-16(%rbp), %rdi
	movq	-40(%rbp), %rsi
	callq	writeSyntaxElement_fixed
	movl	%eax, %ebx
	cmpl	$634267093, -24(%rbp)   # imm = 0x25CE25D5
	jne	.LBB93_2
.LBB93_1:
	movl	%ebx, %eax
	addq	$88, %rsp
	popq	%rbx
	popq	%rbp
	.cfi_def_cfa %rsp, 8
	retq
.LBB93_2:                               # %func_exit
	.cfi_def_cfa %rbp, 16
	callq	detect_breach
	jmp	.LBB93_1
.Lfunc_end93:
	.size	u_v.66, .Lfunc_end93-u_v.66
	.cfi_endproc
                                        # -- End function
	.section	.rodata.cst8,"aM",@progbits,8
	.p2align	3               # -- Begin function levrun_linfo_c2x2.67
.LCPI94_0:
	.quad	4611686018427387904     # double 2
	.text
	.globl	levrun_linfo_c2x2.67
	.p2align	4, 0x90
	.type	levrun_linfo_c2x2.67,@function
levrun_linfo_c2x2.67:                   # @levrun_linfo_c2x2.67
	.cfi_startproc
# %bb.0:                                # %entry
	pushq	%rbp
	.cfi_def_cfa_offset 16
	.cfi_offset %rbp, -16
	movq	%rsp, %rbp
	.cfi_def_cfa_register %rbp
	pushq	%rbx
	subq	$88, %rsp
	.cfi_offset %rbx, -24
	movl	$547150710, -40(%rbp)   # imm = 0x209CDB76
	movl	%edi, -24(%rbp)
	movl	%esi, -16(%rbp)
	movq	%rdx, -48(%rbp)
	movq	%rcx, -72(%rbp)
	movq	.L__const.levrun_linfo_c2x2.NTAB, %rax
	movq	%rax, -96(%rbp)
	movq	.L__const.levrun_linfo_c2x2.NTAB+8, %rax
	movq	%rax, -88(%rbp)
	movq	.L__const.levrun_linfo_c2x2.LEVRUN, %rax
	movq	%rax, -64(%rbp)
	movq	.L__const.levrun_linfo_c2x2.LEVRUN+8, %rax
	movq	%rax, -56(%rbp)
	cmpl	$0, -24(%rbp)
	jne	.LBB94_2
# %bb.1:                                # %if.then
	movq	-48(%rbp), %rax
	movl	$1, (%rax)
	jmp	.LBB94_14
.LBB94_2:                               # %if.end
	movl	$0, -36(%rbp)
	cmpl	$0, -24(%rbp)
	jg	.LBB94_4
# %bb.3:                                # %if.then2
	movl	$1, -36(%rbp)
.LBB94_4:                               # %if.end3
	movl	-24(%rbp), %edi
	callq	abs
	movl	%eax, -28(%rbp)
	movl	-28(%rbp), %eax
	movslq	-16(%rbp), %rcx
	cmpl	-64(%rbp,%rcx,4), %eax
	jg	.LBB94_6
# %bb.5:                                # %if.then5
	movl	-28(%rbp), %eax
	subl	$1, %eax
	cltq
	shlq	$3, %rax
	leaq	-96(%rbp), %rcx
	addq	%rax, %rcx
	movslq	-16(%rbp), %rax
	movl	(%rcx,%rax,4), %eax
	addl	$1, %eax
	movl	%eax, -20(%rbp)
	jmp	.LBB94_7
.LBB94_6:                               # %if.else
	movl	-28(%rbp), %eax
	movslq	-16(%rbp), %rcx
	subl	-64(%rbp,%rcx,4), %eax
	shll	$3, %eax
	movl	-16(%rbp), %ecx
	shll	$1, %ecx
	addl	%ecx, %eax
	movl	%eax, -20(%rbp)
.LBB94_7:                               # %if.end15
	movl	-20(%rbp), %eax
	cltd
	movl	$2, %ecx
	idivl	%ecx
	movl	%eax, -32(%rbp)
	movl	$0, -12(%rbp)
.LBB94_8:                               # %for.cond
                                        # =>This Inner Loop Header: Depth=1
	xorl	%eax, %eax
	cmpl	$16, -12(%rbp)
	jge	.LBB94_10
# %bb.9:                                # %land.rhs
                                        #   in Loop: Header=BB94_8 Depth=1
	cmpl	$0, -32(%rbp)
	setne	%al
.LBB94_10:                              # %land.end
                                        #   in Loop: Header=BB94_8 Depth=1
	testb	$1, %al
	jne	.LBB94_11
	jmp	.LBB94_13
.LBB94_11:                              # %for.body
                                        #   in Loop: Header=BB94_8 Depth=1
	movl	-32(%rbp), %eax
	cltd
	movl	$2, %ecx
	idivl	%ecx
	movl	%eax, -32(%rbp)
# %bb.12:                               # %for.inc
                                        #   in Loop: Header=BB94_8 Depth=1
	movl	-12(%rbp), %eax
	addl	$1, %eax
	movl	%eax, -12(%rbp)
	jmp	.LBB94_8
.LBB94_13:                              # %for.end
	vmovsd	.LCPI94_0(%rip), %xmm0  # xmm0 = mem[0],zero
	movl	-12(%rbp), %eax
	shll	$1, %eax
	addl	$1, %eax
	movq	-48(%rbp), %rcx
	movl	%eax, (%rcx)
	movl	-20(%rbp), %ebx
	vcvtsi2sdl	-12(%rbp), %xmm0, %xmm1
	callq	pow
	vcvttsd2si	%xmm0, %eax
	subl	%eax, %ebx
	addl	-36(%rbp), %ebx
	movq	-72(%rbp), %rax
	movl	%ebx, (%rax)
.LBB94_14:                              # %return
	cmpl	$547150710, -40(%rbp)   # imm = 0x209CDB76
	jne	.LBB94_16
.LBB94_15:
	addq	$88, %rsp
	popq	%rbx
	popq	%rbp
	.cfi_def_cfa %rsp, 8
	retq
.LBB94_16:                              # %func_exit
	.cfi_def_cfa %rbp, 16
	callq	detect_breach
	jmp	.LBB94_15
.Lfunc_end94:
	.size	levrun_linfo_c2x2.67, .Lfunc_end94-levrun_linfo_c2x2.67
	.cfi_endproc
                                        # -- End function
	.globl	writeSyntaxElement_NumCoeffTrailingOnesChromaDC.68 # -- Begin function writeSyntaxElement_NumCoeffTrailingOnesChromaDC.68
	.p2align	4, 0x90
	.type	writeSyntaxElement_NumCoeffTrailingOnesChromaDC.68,@function
writeSyntaxElement_NumCoeffTrailingOnesChromaDC.68: # @writeSyntaxElement_NumCoeffTrailingOnesChromaDC.68
	.cfi_startproc
# %bb.0:                                # %entry
	pushq	%rbp
	.cfi_def_cfa_offset 16
	.cfi_offset %rbp, -16
	movq	%rsp, %rbp
	.cfi_def_cfa_register %rbp
	pushq	%rbx
	subq	$24, %rsp
	.cfi_offset %rbx, -24
	movabsq	$writeSyntaxElement_NumCoeffTrailingOnesChromaDC.codtab, %rax
	movabsq	$writeSyntaxElement_NumCoeffTrailingOnesChromaDC.lentab, %rcx
	movl	$2142022463, -24(%rbp)  # imm = 0x7FACAB3F
	movq	%rdi, -16(%rbp)
	movq	%rsi, -32(%rbp)
	movq	img, %rdx
	movl	72700(%rdx), %edx
	subl	$1, %edx
	movl	%edx, -20(%rbp)
	movslq	-20(%rbp), %rdx
	imulq	$272, %rdx, %rdx        # imm = 0x110
	addq	%rdx, %rcx
	movq	-16(%rbp), %rdx
	movslq	8(%rdx), %rdx
	imulq	$68, %rdx, %rdx
	addq	%rdx, %rcx
	movq	-16(%rbp), %rdx
	movslq	4(%rdx), %rdx
	movl	(%rcx,%rdx,4), %ecx
	movq	-16(%rbp), %rdx
	movl	%ecx, 12(%rdx)
	movslq	-20(%rbp), %rcx
	imulq	$272, %rcx, %rcx        # imm = 0x110
	addq	%rcx, %rax
	movq	-16(%rbp), %rcx
	movslq	8(%rcx), %rcx
	imulq	$68, %rcx, %rcx
	addq	%rcx, %rax
	movq	-16(%rbp), %rcx
	movslq	4(%rcx), %rcx
	movl	(%rax,%rcx,4), %eax
	movq	-16(%rbp), %rcx
	movl	%eax, 16(%rcx)
	movq	-16(%rbp), %rax
	cmpl	$0, 12(%rax)
	jne	.LBB95_2
# %bb.1:                                # %if.then
	movq	-16(%rbp), %rax
	movl	4(%rax), %esi
	movq	-16(%rbp), %rax
	movl	8(%rax), %edx
	movabsq	$.L.str.1, %rdi
	movb	$0, %al
	callq	printf
	movl	$4294967295, %edi       # imm = 0xFFFFFFFF
	callq	exit
.LBB95_2:                               # %if.end
	movq	-16(%rbp), %rdi
	callq	symbol2vlc
	movq	-16(%rbp), %rdi
	movq	-32(%rbp), %rax
	movq	(%rax), %rsi
	callq	writeUVLC2buffer
	movq	-16(%rbp), %rax
	movl	12(%rax), %ebx
	cmpl	$2142022463, -24(%rbp)  # imm = 0x7FACAB3F
	jne	.LBB95_4
.LBB95_3:
	movl	%ebx, %eax
	addq	$24, %rsp
	popq	%rbx
	popq	%rbp
	.cfi_def_cfa %rsp, 8
	retq
.LBB95_4:                               # %func_exit
	.cfi_def_cfa %rbp, 16
	callq	detect_breach
	jmp	.LBB95_3
.Lfunc_end95:
	.size	writeSyntaxElement_NumCoeffTrailingOnesChromaDC.68, .Lfunc_end95-writeSyntaxElement_NumCoeffTrailingOnesChromaDC.68
	.cfi_endproc
                                        # -- End function
	.globl	cbp_linfo_intra.69      # -- Begin function cbp_linfo_intra.69
	.p2align	4, 0x90
	.type	cbp_linfo_intra.69,@function
cbp_linfo_intra.69:                     # @cbp_linfo_intra.69
	.cfi_startproc
# %bb.0:                                # %entry
	pushq	%rbp
	.cfi_def_cfa_offset 16
	.cfi_offset %rbp, -16
	movq	%rsp, %rbp
	.cfi_def_cfa_register %rbp
	subq	$32, %rsp
	xorl	%eax, %eax
	movl	$1245539538, -8(%rbp)   # imm = 0x4A3D6CD2
	movl	%edi, -4(%rbp)
	movl	%esi, -12(%rbp)
	movq	%rdx, -32(%rbp)
	movq	%rcx, -24(%rbp)
	movq	img, %rcx
	movl	72700(%rcx), %ecx
	cmpl	$0, %ecx
	movl	$1, %ecx
	cmovnel	%ecx, %eax
	cltq
	imulq	$96, %rax, %rax
	movabsq	$NCBP, %rcx
	addq	%rax, %rcx
	movslq	-4(%rbp), %rax
	movzbl	(%rcx,%rax,2), %edi
	movl	-12(%rbp), %esi
	movq	-32(%rbp), %rdx
	movq	-24(%rbp), %rcx
	callq	ue_linfo
	cmpl	$1245539538, -8(%rbp)   # imm = 0x4A3D6CD2
	jne	.LBB96_2
.LBB96_1:
	addq	$32, %rsp
	popq	%rbp
	.cfi_def_cfa %rsp, 8
	retq
.LBB96_2:                               # %func_exit
	.cfi_def_cfa %rbp, 16
	callq	detect_breach
	jmp	.LBB96_1
.Lfunc_end96:
	.size	cbp_linfo_intra.69, .Lfunc_end96-cbp_linfo_intra.69
	.cfi_endproc
                                        # -- End function
	.globl	writeSyntaxElement_NumCoeffTrailingOnes.70 # -- Begin function writeSyntaxElement_NumCoeffTrailingOnes.70
	.p2align	4, 0x90
	.type	writeSyntaxElement_NumCoeffTrailingOnes.70,@function
writeSyntaxElement_NumCoeffTrailingOnes.70: # @writeSyntaxElement_NumCoeffTrailingOnes.70
	.cfi_startproc
# %bb.0:                                # %entry
	pushq	%rbp
	.cfi_def_cfa_offset 16
	.cfi_offset %rbp, -16
	movq	%rsp, %rbp
	.cfi_def_cfa_register %rbp
	pushq	%rbx
	subq	$24, %rsp
	.cfi_offset %rbx, -24
	movl	$1990977548, -24(%rbp)  # imm = 0x76ABE80C
	movq	%rdi, -16(%rbp)
	movq	%rsi, -32(%rbp)
	movq	-16(%rbp), %rax
	movl	12(%rax), %eax
	movl	%eax, -20(%rbp)
	cmpl	$3, -20(%rbp)
	jne	.LBB97_5
# %bb.1:                                # %if.then
	movq	-16(%rbp), %rax
	movl	$6, 12(%rax)
	movq	-16(%rbp), %rax
	cmpl	$0, 4(%rax)
	jle	.LBB97_3
# %bb.2:                                # %if.then3
	movq	-16(%rbp), %rax
	movl	4(%rax), %eax
	subl	$1, %eax
	shll	$2, %eax
	movq	-16(%rbp), %rcx
	orl	8(%rcx), %eax
	movq	-16(%rbp), %rcx
	movl	%eax, 16(%rcx)
	jmp	.LBB97_4
.LBB97_3:                               # %if.else
	movq	-16(%rbp), %rax
	movl	$3, 16(%rax)
.LBB97_4:                               # %if.end
	jmp	.LBB97_6
.LBB97_5:                               # %if.else6
	movslq	-20(%rbp), %rax
	imulq	$272, %rax, %rax        # imm = 0x110
	movabsq	$writeSyntaxElement_NumCoeffTrailingOnes.lentab, %rcx
	addq	%rax, %rcx
	movq	-16(%rbp), %rax
	movslq	8(%rax), %rax
	imulq	$68, %rax, %rax
	addq	%rax, %rcx
	movq	-16(%rbp), %rax
	movslq	4(%rax), %rax
	movl	(%rcx,%rax,4), %eax
	movq	-16(%rbp), %rcx
	movl	%eax, 12(%rcx)
	movslq	-20(%rbp), %rax
	imulq	$272, %rax, %rax        # imm = 0x110
