	.text
	.file	"vlc.c"
	.globl	ue_v                    # -- Begin function ue_v
	.p2align	4, 0x90
	.type	ue_v,@function
ue_v:                                   # @ue_v
	.cfi_startproc
# %bb.0:                                # %rand_bb
	pushq	%rbp
	.cfi_def_cfa_offset 16
	.cfi_offset %rbp, -16
	movq	%rsp, %rbp
	.cfi_def_cfa_register %rbp
	pushq	%r15
	pushq	%r14
	pushq	%rbx
	pushq	%rax
	.cfi_offset %rbx, -40
	.cfi_offset %r14, -32
	.cfi_offset %r15, -24
	movq	%rdx, %r14
	movl	%esi, %r15d
	movq	%rdi, %rbx
	callq	get_rand
	cmpl	$0, %eax
	jne	.LBB0_5
# %bb.1:                                # %func_ue_v.23
	movq	%rbx, %rdi
	movl	%r15d, %esi
	movq	%r14, %rdx
	callq	ue_v.23
	addq	$8, %rsp
	popq	%rbx
	popq	%r14
	popq	%r15
	popq	%rbp
	.cfi_def_cfa %rsp, 8
	retq
.LBB0_2:                                # %func_ue_v.58
	.cfi_def_cfa %rbp, 16
	movq	%rbx, %rdi
	movl	%r15d, %esi
	movq	%r14, %rdx
	callq	ue_v.58
	addq	$8, %rsp
	popq	%rbx
	popq	%r14
	popq	%r15
	popq	%rbp
	.cfi_def_cfa %rsp, 8
	retq
.LBB0_3:                                # %func_ue_v.83
	.cfi_def_cfa %rbp, 16
	movq	%rbx, %rdi
	movl	%r15d, %esi
	movq	%r14, %rdx
	callq	ue_v.83
	addq	$8, %rsp
	popq	%rbx
	popq	%r14
	popq	%r15
	popq	%rbp
	.cfi_def_cfa %rsp, 8
	retq
.LBB0_4:                                # %func_ue_v.84
	.cfi_def_cfa %rbp, 16
	movq	%rbx, %rdi
	movl	%r15d, %esi
	movq	%r14, %rdx
	callq	ue_v.84
	addq	$8, %rsp
	popq	%rbx
	popq	%r14
	popq	%r15
	popq	%rbp
	.cfi_def_cfa %rsp, 8
	retq
.LBB0_5:                                # %ctrl0
	.cfi_def_cfa %rbp, 16
	cmpl	$1, %eax
	je	.LBB0_2
# %bb.6:                                # %ctrl1
	cmpl	$2, %eax
	je	.LBB0_3
	jmp	.LBB0_4
.Lfunc_end0:
	.size	ue_v, .Lfunc_end0-ue_v
	.cfi_endproc
                                        # -- End function
	.globl	ue_linfo                # -- Begin function ue_linfo
	.p2align	4, 0x90
	.type	ue_linfo,@function
ue_linfo:                               # @ue_linfo
	.cfi_startproc
# %bb.0:                                # %rand_bb
	pushq	%rbp
	.cfi_def_cfa_offset 16
	.cfi_offset %rbp, -16
	movq	%rsp, %rbp
	.cfi_def_cfa_register %rbp
	pushq	%r15
	pushq	%r14
	pushq	%r12
	pushq	%rbx
	.cfi_offset %rbx, -48
	.cfi_offset %r12, -40
	.cfi_offset %r14, -32
	.cfi_offset %r15, -24
	movq	%rcx, %r14
	movq	%rdx, %r15
	movl	%esi, %r12d
	movl	%edi, %ebx
	callq	get_rand
	cmpl	$0, %eax
	jne	.LBB1_5
# %bb.1:                                # %func_ue_linfo.37
	movl	%ebx, %edi
	movl	%r12d, %esi
	movq	%r15, %rdx
	movq	%r14, %rcx
	callq	ue_linfo.37
	popq	%rbx
	popq	%r12
	popq	%r14
	popq	%r15
	popq	%rbp
	.cfi_def_cfa %rsp, 8
	retq
.LBB1_2:                                # %func_ue_linfo.73
	.cfi_def_cfa %rbp, 16
	movl	%ebx, %edi
	movl	%r12d, %esi
	movq	%r15, %rdx
	movq	%r14, %rcx
	callq	ue_linfo.73
	popq	%rbx
	popq	%r12
	popq	%r14
	popq	%r15
	popq	%rbp
	.cfi_def_cfa %rsp, 8
	retq
.LBB1_3:                                # %func_ue_linfo.78
	.cfi_def_cfa %rbp, 16
	movl	%ebx, %edi
	movl	%r12d, %esi
	movq	%r15, %rdx
	movq	%r14, %rcx
	callq	ue_linfo.78
	popq	%rbx
	popq	%r12
	popq	%r14
	popq	%r15
	popq	%rbp
	.cfi_def_cfa %rsp, 8
	retq
.LBB1_4:                                # %func_ue_linfo.81
	.cfi_def_cfa %rbp, 16
	movl	%ebx, %edi
	movl	%r12d, %esi
	movq	%r15, %rdx
	movq	%r14, %rcx
	callq	ue_linfo.81
	popq	%rbx
	popq	%r12
	popq	%r14
	popq	%r15
	popq	%rbp
	.cfi_def_cfa %rsp, 8
	retq
.LBB1_5:                                # %ctrl0
	.cfi_def_cfa %rbp, 16
	cmpl	$1, %eax
	je	.LBB1_2
# %bb.6:                                # %ctrl1
	cmpl	$2, %eax
	je	.LBB1_3
	jmp	.LBB1_4
.Lfunc_end1:
	.size	ue_linfo, .Lfunc_end1-ue_linfo
	.cfi_endproc
                                        # -- End function
	.globl	writeSyntaxElement_UVLC # -- Begin function writeSyntaxElement_UVLC
	.p2align	4, 0x90
	.type	writeSyntaxElement_UVLC,@function
writeSyntaxElement_UVLC:                # @writeSyntaxElement_UVLC
	.cfi_startproc
# %bb.0:                                # %rand_bb
	pushq	%rbp
	.cfi_def_cfa_offset 16
	.cfi_offset %rbp, -16
	movq	%rsp, %rbp
	.cfi_def_cfa_register %rbp
	pushq	%r14
	pushq	%rbx
	.cfi_offset %rbx, -32
	.cfi_offset %r14, -24
	movq	%rsi, %r14
	movq	%rdi, %rbx
	callq	get_rand
	cmpl	$0, %eax
	jne	.LBB2_2
# %bb.1:                                # %func_writeSyntaxElement_UVLC.17
	movq	%rbx, %rdi
	movq	%r14, %rsi
	callq	writeSyntaxElement_UVLC.17
	popq	%rbx
	popq	%r14
	popq	%rbp
	.cfi_def_cfa %rsp, 8
	retq
.LBB2_2:                                # %func_writeSyntaxElement_UVLC.31
	.cfi_def_cfa %rbp, 16
	movq	%rbx, %rdi
	movq	%r14, %rsi
	callq	writeSyntaxElement_UVLC.31
	popq	%rbx
	popq	%r14
	popq	%rbp
	.cfi_def_cfa %rsp, 8
	retq
.Lfunc_end2:
	.size	writeSyntaxElement_UVLC, .Lfunc_end2-writeSyntaxElement_UVLC
	.cfi_endproc
                                        # -- End function
	.globl	se_v                    # -- Begin function se_v
	.p2align	4, 0x90
	.type	se_v,@function
se_v:                                   # @se_v
	.cfi_startproc
# %bb.0:                                # %rand_bb
	pushq	%rbp
	.cfi_def_cfa_offset 16
	.cfi_offset %rbp, -16
	movq	%rsp, %rbp
	.cfi_def_cfa_register %rbp
	pushq	%r15
	pushq	%r14
	pushq	%rbx
	pushq	%rax
	.cfi_offset %rbx, -40
	.cfi_offset %r14, -32
	.cfi_offset %r15, -24
	movq	%rdx, %r14
	movl	%esi, %r15d
	movq	%rdi, %rbx
	callq	get_rand
	cmpl	$0, %eax
	jne	.LBB3_5
# %bb.1:                                # %func_se_v.11
	movq	%rbx, %rdi
	movl	%r15d, %esi
	movq	%r14, %rdx
	callq	se_v.11
	addq	$8, %rsp
	popq	%rbx
	popq	%r14
	popq	%r15
	popq	%rbp
	.cfi_def_cfa %rsp, 8
	retq
.LBB3_2:                                # %func_se_v.35
	.cfi_def_cfa %rbp, 16
	movq	%rbx, %rdi
	movl	%r15d, %esi
	movq	%r14, %rdx
	callq	se_v.35
	addq	$8, %rsp
	popq	%rbx
	popq	%r14
	popq	%r15
	popq	%rbp
	.cfi_def_cfa %rsp, 8
	retq
.LBB3_3:                                # %func_se_v.49
	.cfi_def_cfa %rbp, 16
	movq	%rbx, %rdi
	movl	%r15d, %esi
	movq	%r14, %rdx
	callq	se_v.49
	addq	$8, %rsp
	popq	%rbx
	popq	%r14
	popq	%r15
	popq	%rbp
	.cfi_def_cfa %rsp, 8
	retq
.LBB3_4:                                # %func_se_v.54
	.cfi_def_cfa %rbp, 16
	movq	%rbx, %rdi
	movl	%r15d, %esi
	movq	%r14, %rdx
	callq	se_v.54
	addq	$8, %rsp
	popq	%rbx
	popq	%r14
	popq	%r15
	popq	%rbp
	.cfi_def_cfa %rsp, 8
	retq
.LBB3_5:                                # %ctrl0
	.cfi_def_cfa %rbp, 16
	cmpl	$1, %eax
	je	.LBB3_2
# %bb.6:                                # %ctrl1
	cmpl	$2, %eax
	je	.LBB3_3
	jmp	.LBB3_4
.Lfunc_end3:
	.size	se_v, .Lfunc_end3-se_v
	.cfi_endproc
                                        # -- End function
	.globl	se_linfo                # -- Begin function se_linfo
	.p2align	4, 0x90
	.type	se_linfo,@function
se_linfo:                               # @se_linfo
	.cfi_startproc
# %bb.0:                                # %rand_bb
	pushq	%rbp
	.cfi_def_cfa_offset 16
	.cfi_offset %rbp, -16
	movq	%rsp, %rbp
	.cfi_def_cfa_register %rbp
	pushq	%r15
	pushq	%r14
	pushq	%r12
	pushq	%rbx
	.cfi_offset %rbx, -48
	.cfi_offset %r12, -40
	.cfi_offset %r14, -32
	.cfi_offset %r15, -24
	movq	%rcx, %r14
	movq	%rdx, %r15
	movl	%esi, %r12d
	movl	%edi, %ebx
	callq	get_rand
	cmpl	$0, %eax
	jne	.LBB4_5
# %bb.1:                                # %func_se_linfo.20
	movl	%ebx, %edi
	movl	%r12d, %esi
	movq	%r15, %rdx
	movq	%r14, %rcx
	callq	se_linfo.20
	popq	%rbx
	popq	%r12
	popq	%r14
	popq	%r15
	popq	%rbp
	.cfi_def_cfa %rsp, 8
	retq
.LBB4_2:                                # %func_se_linfo.32
	.cfi_def_cfa %rbp, 16
	movl	%ebx, %edi
	movl	%r12d, %esi
	movq	%r15, %rdx
	movq	%r14, %rcx
	callq	se_linfo.32
	popq	%rbx
	popq	%r12
	popq	%r14
	popq	%r15
	popq	%rbp
	.cfi_def_cfa %rsp, 8
	retq
.LBB4_3:                                # %func_se_linfo.45
	.cfi_def_cfa %rbp, 16
	movl	%ebx, %edi
	movl	%r12d, %esi
	movq	%r15, %rdx
	movq	%r14, %rcx
	callq	se_linfo.45
	popq	%rbx
	popq	%r12
	popq	%r14
	popq	%r15
	popq	%rbp
	.cfi_def_cfa %rsp, 8
	retq
.LBB4_4:                                # %func_se_linfo.71
	.cfi_def_cfa %rbp, 16
	movl	%ebx, %edi
	movl	%r12d, %esi
	movq	%r15, %rdx
	movq	%r14, %rcx
	callq	se_linfo.71
	popq	%rbx
	popq	%r12
	popq	%r14
	popq	%r15
	popq	%rbp
	.cfi_def_cfa %rsp, 8
	retq
.LBB4_5:                                # %ctrl0
	.cfi_def_cfa %rbp, 16
	cmpl	$1, %eax
	je	.LBB4_2
# %bb.6:                                # %ctrl1
	cmpl	$2, %eax
	je	.LBB4_3
	jmp	.LBB4_4
.Lfunc_end4:
	.size	se_linfo, .Lfunc_end4-se_linfo
	.cfi_endproc
                                        # -- End function
	.globl	u_1                     # -- Begin function u_1
	.p2align	4, 0x90
	.type	u_1,@function
u_1:                                    # @u_1
	.cfi_startproc
# %bb.0:                                # %rand_bb
	pushq	%rbp
	.cfi_def_cfa_offset 16
	.cfi_offset %rbp, -16
	movq	%rsp, %rbp
	.cfi_def_cfa_register %rbp
	pushq	%r15
	pushq	%r14
	pushq	%rbx
	pushq	%rax
	.cfi_offset %rbx, -40
	.cfi_offset %r14, -32
	.cfi_offset %r15, -24
	movq	%rdx, %r14
	movl	%esi, %r15d
	movq	%rdi, %rbx
	callq	get_rand
	cmpl	$0, %eax
	jne	.LBB5_5
# %bb.1:                                # %func_u_1.33
	movq	%rbx, %rdi
	movl	%r15d, %esi
	movq	%r14, %rdx
	callq	u_1.33
	addq	$8, %rsp
	popq	%rbx
	popq	%r14
	popq	%r15
	popq	%rbp
	.cfi_def_cfa %rsp, 8
	retq
.LBB5_2:                                # %func_u_1.53
	.cfi_def_cfa %rbp, 16
	movq	%rbx, %rdi
	movl	%r15d, %esi
	movq	%r14, %rdx
	callq	u_1.53
	addq	$8, %rsp
	popq	%rbx
	popq	%r14
	popq	%r15
	popq	%rbp
	.cfi_def_cfa %rsp, 8
	retq
.LBB5_3:                                # %func_u_1.57
	.cfi_def_cfa %rbp, 16
	movq	%rbx, %rdi
	movl	%r15d, %esi
	movq	%r14, %rdx
	callq	u_1.57
	addq	$8, %rsp
	popq	%rbx
	popq	%r14
	popq	%r15
	popq	%rbp
	.cfi_def_cfa %rsp, 8
	retq
.LBB5_4:                                # %func_u_1.79
	.cfi_def_cfa %rbp, 16
	movq	%rbx, %rdi
	movl	%r15d, %esi
	movq	%r14, %rdx
	callq	u_1.79
	addq	$8, %rsp
	popq	%rbx
	popq	%r14
	popq	%r15
	popq	%rbp
	.cfi_def_cfa %rsp, 8
	retq
.LBB5_5:                                # %ctrl0
	.cfi_def_cfa %rbp, 16
	cmpl	$1, %eax
	je	.LBB5_2
# %bb.6:                                # %ctrl1
	cmpl	$2, %eax
	je	.LBB5_3
	jmp	.LBB5_4
.Lfunc_end5:
	.size	u_1, .Lfunc_end5-u_1
	.cfi_endproc
                                        # -- End function
	.globl	writeSyntaxElement_fixed # -- Begin function writeSyntaxElement_fixed
	.p2align	4, 0x90
	.type	writeSyntaxElement_fixed,@function
writeSyntaxElement_fixed:               # @writeSyntaxElement_fixed
	.cfi_startproc
# %bb.0:                                # %rand_bb
	pushq	%rbp
	.cfi_def_cfa_offset 16
	.cfi_offset %rbp, -16
	movq	%rsp, %rbp
	.cfi_def_cfa_register %rbp
	pushq	%r14
	pushq	%rbx
	.cfi_offset %rbx, -32
	.cfi_offset %r14, -24
	movq	%rsi, %r14
	movq	%rdi, %rbx
	callq	get_rand
	cmpl	$0, %eax
	jne	.LBB6_2
# %bb.1:                                # %func_writeSyntaxElement_fixed.22
	movq	%rbx, %rdi
	movq	%r14, %rsi
	callq	writeSyntaxElement_fixed.22
	popq	%rbx
	popq	%r14
	popq	%rbp
	.cfi_def_cfa %rsp, 8
	retq
.LBB6_2:                                # %func_writeSyntaxElement_fixed.36
	.cfi_def_cfa %rbp, 16
	movq	%rbx, %rdi
	movq	%r14, %rsi
	callq	writeSyntaxElement_fixed.36
	popq	%rbx
	popq	%r14
	popq	%rbp
	.cfi_def_cfa %rsp, 8
	retq
.Lfunc_end6:
	.size	writeSyntaxElement_fixed, .Lfunc_end6-writeSyntaxElement_fixed
	.cfi_endproc
                                        # -- End function
	.globl	u_v                     # -- Begin function u_v
	.p2align	4, 0x90
	.type	u_v,@function
u_v:                                    # @u_v
	.cfi_startproc
# %bb.0:                                # %rand_bb
	pushq	%rbp
	.cfi_def_cfa_offset 16
	.cfi_offset %rbp, -16
	movq	%rsp, %rbp
	.cfi_def_cfa_register %rbp
	pushq	%r15
	pushq	%r14
	pushq	%r12
	pushq	%rbx
	.cfi_offset %rbx, -48
	.cfi_offset %r12, -40
	.cfi_offset %r14, -32
	.cfi_offset %r15, -24
	movq	%rcx, %r14
	movl	%edx, %r15d
	movq	%rsi, %r12
	movl	%edi, %ebx
	callq	get_rand
	cmpl	$0, %eax
	jne	.LBB7_5
# %bb.1:                                # %func_u_v.55
	movl	%ebx, %edi
	movq	%r12, %rsi
	movl	%r15d, %edx
	movq	%r14, %rcx
	callq	u_v.55
	popq	%rbx
	popq	%r12
	popq	%r14
	popq	%r15
	popq	%rbp
	.cfi_def_cfa %rsp, 8
	retq
.LBB7_2:                                # %func_u_v.76
	.cfi_def_cfa %rbp, 16
	movl	%ebx, %edi
	movq	%r12, %rsi
	movl	%r15d, %edx
	movq	%r14, %rcx
	callq	u_v.76
	popq	%rbx
	popq	%r12
	popq	%r14
	popq	%r15
	popq	%rbp
	.cfi_def_cfa %rsp, 8
	retq
.LBB7_3:                                # %func_u_v.77
	.cfi_def_cfa %rbp, 16
	movl	%ebx, %edi
	movq	%r12, %rsi
	movl	%r15d, %edx
	movq	%r14, %rcx
	callq	u_v.77
	popq	%rbx
	popq	%r12
	popq	%r14
	popq	%r15
	popq	%rbp
	.cfi_def_cfa %rsp, 8
	retq
.LBB7_4:                                # %func_u_v.89
	.cfi_def_cfa %rbp, 16
	movl	%ebx, %edi
	movq	%r12, %rsi
	movl	%r15d, %edx
	movq	%r14, %rcx
	callq	u_v.89
	popq	%rbx
	popq	%r12
	popq	%r14
	popq	%r15
	popq	%rbp
	.cfi_def_cfa %rsp, 8
	retq
.LBB7_5:                                # %ctrl0
	.cfi_def_cfa %rbp, 16
	cmpl	$1, %eax
	je	.LBB7_2
# %bb.6:                                # %ctrl1
	cmpl	$2, %eax
	je	.LBB7_3
	jmp	.LBB7_4
.Lfunc_end7:
	.size	u_v, .Lfunc_end7-u_v
	.cfi_endproc
                                        # -- End function
	.globl	cbp_linfo_intra         # -- Begin function cbp_linfo_intra
	.p2align	4, 0x90
	.type	cbp_linfo_intra,@function
cbp_linfo_intra:                        # @cbp_linfo_intra
	.cfi_startproc
# %bb.0:                                # %rand_bb
	pushq	%rbp
	.cfi_def_cfa_offset 16
	.cfi_offset %rbp, -16
	movq	%rsp, %rbp
	.cfi_def_cfa_register %rbp
	pushq	%r15
	pushq	%r14
	pushq	%r12
	pushq	%rbx
	.cfi_offset %rbx, -48
	.cfi_offset %r12, -40
	.cfi_offset %r14, -32
	.cfi_offset %r15, -24
	movq	%rcx, %r14
	movq	%rdx, %r15
	movl	%esi, %r12d
	movl	%edi, %ebx
	callq	get_rand
	cmpl	$0, %eax
	jne	.LBB8_5
# %bb.1:                                # %func_cbp_linfo_intra.51
	movl	%ebx, %edi
	movl	%r12d, %esi
	movq	%r15, %rdx
	movq	%r14, %rcx
	callq	cbp_linfo_intra.51
	popq	%rbx
	popq	%r12
	popq	%r14
	popq	%r15
	popq	%rbp
	.cfi_def_cfa %rsp, 8
	retq
.LBB8_2:                                # %func_cbp_linfo_intra.60
	.cfi_def_cfa %rbp, 16
	movl	%ebx, %edi
	movl	%r12d, %esi
	movq	%r15, %rdx
	movq	%r14, %rcx
	callq	cbp_linfo_intra.60
	popq	%rbx
	popq	%r12
	popq	%r14
	popq	%r15
	popq	%rbp
	.cfi_def_cfa %rsp, 8
	retq
.LBB8_3:                                # %func_cbp_linfo_intra.82
	.cfi_def_cfa %rbp, 16
	movl	%ebx, %edi
	movl	%r12d, %esi
	movq	%r15, %rdx
	movq	%r14, %rcx
	callq	cbp_linfo_intra.82
	popq	%rbx
	popq	%r12
	popq	%r14
	popq	%r15
	popq	%rbp
	.cfi_def_cfa %rsp, 8
	retq
.LBB8_4:                                # %func_cbp_linfo_intra.90
	.cfi_def_cfa %rbp, 16
	movl	%ebx, %edi
	movl	%r12d, %esi
	movq	%r15, %rdx
	movq	%r14, %rcx
	callq	cbp_linfo_intra.90
	popq	%rbx
	popq	%r12
	popq	%r14
	popq	%r15
	popq	%rbp
	.cfi_def_cfa %rsp, 8
	retq
.LBB8_5:                                # %ctrl0
	.cfi_def_cfa %rbp, 16
	cmpl	$1, %eax
	je	.LBB8_2
# %bb.6:                                # %ctrl1
	cmpl	$2, %eax
	je	.LBB8_3
	jmp	.LBB8_4
.Lfunc_end8:
	.size	cbp_linfo_intra, .Lfunc_end8-cbp_linfo_intra
	.cfi_endproc
                                        # -- End function
	.globl	cbp_linfo_inter         # -- Begin function cbp_linfo_inter
	.p2align	4, 0x90
	.type	cbp_linfo_inter,@function
cbp_linfo_inter:                        # @cbp_linfo_inter
	.cfi_startproc
# %bb.0:                                # %rand_bb
	pushq	%rbp
	.cfi_def_cfa_offset 16
	.cfi_offset %rbp, -16
	movq	%rsp, %rbp
	.cfi_def_cfa_register %rbp
	pushq	%r15
	pushq	%r14
	pushq	%r12
	pushq	%rbx
	.cfi_offset %rbx, -48
	.cfi_offset %r12, -40
	.cfi_offset %r14, -32
	.cfi_offset %r15, -24
	movq	%rcx, %r14
	movq	%rdx, %r15
	movl	%esi, %r12d
	movl	%edi, %ebx
	callq	get_rand
	cmpl	$0, %eax
	jne	.LBB9_5
# %bb.1:                                # %func_cbp_linfo_inter.30
	movl	%ebx, %edi
	movl	%r12d, %esi
	movq	%r15, %rdx
	movq	%r14, %rcx
	callq	cbp_linfo_inter.30
	popq	%rbx
	popq	%r12
	popq	%r14
	popq	%r15
	popq	%rbp
	.cfi_def_cfa %rsp, 8
	retq
.LBB9_2:                                # %func_cbp_linfo_inter.38
	.cfi_def_cfa %rbp, 16
	movl	%ebx, %edi
	movl	%r12d, %esi
	movq	%r15, %rdx
	movq	%r14, %rcx
	callq	cbp_linfo_inter.38
	popq	%rbx
	popq	%r12
	popq	%r14
	popq	%r15
	popq	%rbp
	.cfi_def_cfa %rsp, 8
	retq
.LBB9_3:                                # %func_cbp_linfo_inter.52
	.cfi_def_cfa %rbp, 16
	movl	%ebx, %edi
	movl	%r12d, %esi
	movq	%r15, %rdx
	movq	%r14, %rcx
	callq	cbp_linfo_inter.52
	popq	%rbx
	popq	%r12
	popq	%r14
	popq	%r15
	popq	%rbp
	.cfi_def_cfa %rsp, 8
	retq
.LBB9_4:                                # %func_cbp_linfo_inter.86
	.cfi_def_cfa %rbp, 16
	movl	%ebx, %edi
	movl	%r12d, %esi
	movq	%r15, %rdx
	movq	%r14, %rcx
	callq	cbp_linfo_inter.86
	popq	%rbx
	popq	%r12
	popq	%r14
	popq	%r15
	popq	%rbp
	.cfi_def_cfa %rsp, 8
	retq
.LBB9_5:                                # %ctrl0
	.cfi_def_cfa %rbp, 16
	cmpl	$1, %eax
	je	.LBB9_2
# %bb.6:                                # %ctrl1
	cmpl	$2, %eax
	je	.LBB9_3
	jmp	.LBB9_4
.Lfunc_end9:
	.size	cbp_linfo_inter, .Lfunc_end9-cbp_linfo_inter
	.cfi_endproc
                                        # -- End function
	.globl	levrun_linfo_c2x2       # -- Begin function levrun_linfo_c2x2
	.p2align	4, 0x90
	.type	levrun_linfo_c2x2,@function
levrun_linfo_c2x2:                      # @levrun_linfo_c2x2
	.cfi_startproc
# %bb.0:                                # %rand_bb
	pushq	%rbp
	.cfi_def_cfa_offset 16
	.cfi_offset %rbp, -16
	movq	%rsp, %rbp
	.cfi_def_cfa_register %rbp
	pushq	%r15
	pushq	%r14
	pushq	%r12
	pushq	%rbx
	.cfi_offset %rbx, -48
	.cfi_offset %r12, -40
	.cfi_offset %r14, -32
	.cfi_offset %r15, -24
	movq	%rcx, %r14
	movq	%rdx, %r15
	movl	%esi, %r12d
	movl	%edi, %ebx
	callq	get_rand
	cmpl	$0, %eax
	jne	.LBB10_5
# %bb.1:                                # %func_levrun_linfo_c2x2.8
	movl	%ebx, %edi
	movl	%r12d, %esi
	movq	%r15, %rdx
	movq	%r14, %rcx
	callq	levrun_linfo_c2x2.8
	popq	%rbx
	popq	%r12
	popq	%r14
	popq	%r15
	popq	%rbp
	.cfi_def_cfa %rsp, 8
	retq
.LBB10_2:                               # %func_levrun_linfo_c2x2.10
	.cfi_def_cfa %rbp, 16
	movl	%ebx, %edi
	movl	%r12d, %esi
	movq	%r15, %rdx
	movq	%r14, %rcx
	callq	levrun_linfo_c2x2.10
	popq	%rbx
	popq	%r12
	popq	%r14
	popq	%r15
	popq	%rbp
	.cfi_def_cfa %rsp, 8
	retq
.LBB10_3:                               # %func_levrun_linfo_c2x2.15
	.cfi_def_cfa %rbp, 16
	movl	%ebx, %edi
	movl	%r12d, %esi
	movq	%r15, %rdx
	movq	%r14, %rcx
	callq	levrun_linfo_c2x2.15
	popq	%rbx
	popq	%r12
	popq	%r14
	popq	%r15
	popq	%rbp
	.cfi_def_cfa %rsp, 8
	retq
.LBB10_4:                               # %func_levrun_linfo_c2x2.18
	.cfi_def_cfa %rbp, 16
	movl	%ebx, %edi
	movl	%r12d, %esi
	movq	%r15, %rdx
	movq	%r14, %rcx
	callq	levrun_linfo_c2x2.18
	popq	%rbx
	popq	%r12
	popq	%r14
	popq	%r15
	popq	%rbp
	.cfi_def_cfa %rsp, 8
	retq
.LBB10_5:                               # %ctrl0
	.cfi_def_cfa %rbp, 16
	cmpl	$1, %eax
	je	.LBB10_2
# %bb.6:                                # %ctrl1
	cmpl	$2, %eax
	je	.LBB10_3
	jmp	.LBB10_4
.Lfunc_end10:
	.size	levrun_linfo_c2x2, .Lfunc_end10-levrun_linfo_c2x2
	.cfi_endproc
                                        # -- End function
	.globl	levrun_linfo_inter      # -- Begin function levrun_linfo_inter
	.p2align	4, 0x90
	.type	levrun_linfo_inter,@function
levrun_linfo_inter:                     # @levrun_linfo_inter
	.cfi_startproc
# %bb.0:                                # %rand_bb
	pushq	%rbp
	.cfi_def_cfa_offset 16
	.cfi_offset %rbp, -16
	movq	%rsp, %rbp
	.cfi_def_cfa_register %rbp
	pushq	%r15
	pushq	%r14
	pushq	%r12
	pushq	%rbx
	.cfi_offset %rbx, -48
	.cfi_offset %r12, -40
	.cfi_offset %r14, -32
	.cfi_offset %r15, -24
	movq	%rcx, %r14
	movq	%rdx, %r15
	movl	%esi, %r12d
	movl	%edi, %ebx
	callq	get_rand
	cmpl	$0, %eax
	jne	.LBB11_5
# %bb.1:                                # %func_levrun_linfo_inter.7
	movl	%ebx, %edi
	movl	%r12d, %esi
	movq	%r15, %rdx
	movq	%r14, %rcx
	callq	levrun_linfo_inter.7
	popq	%rbx
	popq	%r12
	popq	%r14
	popq	%r15
	popq	%rbp
	.cfi_def_cfa %rsp, 8
	retq
.LBB11_2:                               # %func_levrun_linfo_inter.42
	.cfi_def_cfa %rbp, 16
	movl	%ebx, %edi
	movl	%r12d, %esi
	movq	%r15, %rdx
	movq	%r14, %rcx
	callq	levrun_linfo_inter.42
	popq	%rbx
	popq	%r12
	popq	%r14
	popq	%r15
	popq	%rbp
	.cfi_def_cfa %rsp, 8
	retq
.LBB11_3:                               # %func_levrun_linfo_inter.67
	.cfi_def_cfa %rbp, 16
	movl	%ebx, %edi
	movl	%r12d, %esi
	movq	%r15, %rdx
	movq	%r14, %rcx
	callq	levrun_linfo_inter.67
	popq	%rbx
	popq	%r12
	popq	%r14
	popq	%r15
	popq	%rbp
	.cfi_def_cfa %rsp, 8
	retq
.LBB11_4:                               # %func_levrun_linfo_inter.85
	.cfi_def_cfa %rbp, 16
	movl	%ebx, %edi
	movl	%r12d, %esi
	movq	%r15, %rdx
	movq	%r14, %rcx
	callq	levrun_linfo_inter.85
	popq	%rbx
	popq	%r12
	popq	%r14
	popq	%r15
	popq	%rbp
	.cfi_def_cfa %rsp, 8
	retq
.LBB11_5:                               # %ctrl0
	.cfi_def_cfa %rbp, 16
	cmpl	$1, %eax
	je	.LBB11_2
# %bb.6:                                # %ctrl1
	cmpl	$2, %eax
	je	.LBB11_3
	jmp	.LBB11_4
.Lfunc_end11:
	.size	levrun_linfo_inter, .Lfunc_end11-levrun_linfo_inter
	.cfi_endproc
                                        # -- End function
	.globl	levrun_linfo_intra      # -- Begin function levrun_linfo_intra
	.p2align	4, 0x90
	.type	levrun_linfo_intra,@function
levrun_linfo_intra:                     # @levrun_linfo_intra
	.cfi_startproc
# %bb.0:                                # %rand_bb
	pushq	%rbp
	.cfi_def_cfa_offset 16
	.cfi_offset %rbp, -16
	movq	%rsp, %rbp
	.cfi_def_cfa_register %rbp
	pushq	%r15
	pushq	%r14
	pushq	%r12
	pushq	%rbx
	.cfi_offset %rbx, -48
	.cfi_offset %r12, -40
	.cfi_offset %r14, -32
	.cfi_offset %r15, -24
	movq	%rcx, %r14
	movq	%rdx, %r15
	movl	%esi, %r12d
	movl	%edi, %ebx
	callq	get_rand
	cmpl	$0, %eax
	jne	.LBB12_5
# %bb.1:                                # %func_levrun_linfo_intra.9
	movl	%ebx, %edi
	movl	%r12d, %esi
	movq	%r15, %rdx
	movq	%r14, %rcx
	callq	levrun_linfo_intra.9
	popq	%rbx
	popq	%r12
	popq	%r14
	popq	%r15
	popq	%rbp
	.cfi_def_cfa %rsp, 8
	retq
.LBB12_2:                               # %func_levrun_linfo_intra.39
	.cfi_def_cfa %rbp, 16
	movl	%ebx, %edi
	movl	%r12d, %esi
	movq	%r15, %rdx
	movq	%r14, %rcx
	callq	levrun_linfo_intra.39
	popq	%rbx
	popq	%r12
	popq	%r14
	popq	%r15
	popq	%rbp
	.cfi_def_cfa %rsp, 8
	retq
.LBB12_3:                               # %func_levrun_linfo_intra.48
	.cfi_def_cfa %rbp, 16
	movl	%ebx, %edi
	movl	%r12d, %esi
	movq	%r15, %rdx
	movq	%r14, %rcx
	callq	levrun_linfo_intra.48
	popq	%rbx
	popq	%r12
	popq	%r14
	popq	%r15
	popq	%rbp
	.cfi_def_cfa %rsp, 8
	retq
.LBB12_4:                               # %func_levrun_linfo_intra.66
	.cfi_def_cfa %rbp, 16
	movl	%ebx, %edi
	movl	%r12d, %esi
	movq	%r15, %rdx
	movq	%r14, %rcx
	callq	levrun_linfo_intra.66
	popq	%rbx
	popq	%r12
	popq	%r14
	popq	%r15
	popq	%rbp
	.cfi_def_cfa %rsp, 8
	retq
.LBB12_5:                               # %ctrl0
	.cfi_def_cfa %rbp, 16
	cmpl	$1, %eax
	je	.LBB12_2
# %bb.6:                                # %ctrl1
	cmpl	$2, %eax
	je	.LBB12_3
	jmp	.LBB12_4
.Lfunc_end12:
	.size	levrun_linfo_intra, .Lfunc_end12-levrun_linfo_intra
	.cfi_endproc
                                        # -- End function
	.globl	symbol2uvlc             # -- Begin function symbol2uvlc
	.p2align	4, 0x90
	.type	symbol2uvlc,@function
symbol2uvlc:                            # @symbol2uvlc
	.cfi_startproc
# %bb.0:                                # %rand_bb
	pushq	%rbp
	.cfi_def_cfa_offset 16
	.cfi_offset %rbp, -16
	movq	%rsp, %rbp
	.cfi_def_cfa_register %rbp
	pushq	%rbx
	pushq	%rax
	.cfi_offset %rbx, -24
	movq	%rdi, %rbx
	callq	get_rand
	cmpl	$0, %eax
	jne	.LBB13_2
# %bb.1:                                # %func_symbol2uvlc.6
	movq	%rbx, %rdi
	callq	symbol2uvlc.6
	addq	$8, %rsp
	popq	%rbx
	popq	%rbp
	.cfi_def_cfa %rsp, 8
	retq
.LBB13_2:                               # %func_symbol2uvlc.27
	.cfi_def_cfa %rbp, 16
	movq	%rbx, %rdi
	callq	symbol2uvlc.27
	addq	$8, %rsp
	popq	%rbx
	popq	%rbp
	.cfi_def_cfa %rsp, 8
	retq
.Lfunc_end13:
	.size	symbol2uvlc, .Lfunc_end13-symbol2uvlc
	.cfi_endproc
                                        # -- End function
	.globl	writeUVLC2buffer        # -- Begin function writeUVLC2buffer
	.p2align	4, 0x90
	.type	writeUVLC2buffer,@function
writeUVLC2buffer:                       # @writeUVLC2buffer
	.cfi_startproc
# %bb.0:                                # %rand_bb
	pushq	%rbp
	.cfi_def_cfa_offset 16
	.cfi_offset %rbp, -16
	movq	%rsp, %rbp
	.cfi_def_cfa_register %rbp
	pushq	%r14
	pushq	%rbx
	.cfi_offset %rbx, -32
	.cfi_offset %r14, -24
	movq	%rsi, %r14
	movq	%rdi, %rbx
	callq	get_rand
	cmpl	$0, %eax
	jne	.LBB14_5
# %bb.1:                                # %func_writeUVLC2buffer.34
	movq	%rbx, %rdi
	movq	%r14, %rsi
	callq	writeUVLC2buffer.34
	popq	%rbx
	popq	%r14
	popq	%rbp
	.cfi_def_cfa %rsp, 8
	retq
.LBB14_2:                               # %func_writeUVLC2buffer.44
	.cfi_def_cfa %rbp, 16
	movq	%rbx, %rdi
	movq	%r14, %rsi
	callq	writeUVLC2buffer.44
	popq	%rbx
	popq	%r14
	popq	%rbp
	.cfi_def_cfa %rsp, 8
	retq
.LBB14_3:                               # %func_writeUVLC2buffer.47
	.cfi_def_cfa %rbp, 16
	movq	%rbx, %rdi
	movq	%r14, %rsi
	callq	writeUVLC2buffer.47
	popq	%rbx
	popq	%r14
	popq	%rbp
	.cfi_def_cfa %rsp, 8
	retq
.LBB14_4:                               # %func_writeUVLC2buffer.50
	.cfi_def_cfa %rbp, 16
	movq	%rbx, %rdi
	movq	%r14, %rsi
	callq	writeUVLC2buffer.50
	popq	%rbx
	popq	%r14
	popq	%rbp
	.cfi_def_cfa %rsp, 8
	retq
.LBB14_5:                               # %ctrl0
	.cfi_def_cfa %rbp, 16
	cmpl	$1, %eax
	je	.LBB14_2
# %bb.6:                                # %ctrl1
	cmpl	$2, %eax
	je	.LBB14_3
	jmp	.LBB14_4
.Lfunc_end14:
	.size	writeUVLC2buffer, .Lfunc_end14-writeUVLC2buffer
	.cfi_endproc
                                        # -- End function
	.globl	writeSyntaxElement_Intra4x4PredictionMode # -- Begin function writeSyntaxElement_Intra4x4PredictionMode
	.p2align	4, 0x90
	.type	writeSyntaxElement_Intra4x4PredictionMode,@function
writeSyntaxElement_Intra4x4PredictionMode: # @writeSyntaxElement_Intra4x4PredictionMode
	.cfi_startproc
# %bb.0:                                # %rand_bb
	pushq	%rbp
	.cfi_def_cfa_offset 16
	.cfi_offset %rbp, -16
	movq	%rsp, %rbp
	.cfi_def_cfa_register %rbp
	pushq	%r14
	pushq	%rbx
	.cfi_offset %rbx, -32
	.cfi_offset %r14, -24
	movq	%rsi, %r14
	movq	%rdi, %rbx
	callq	get_rand
	cmpl	$0, %eax
	jne	.LBB15_2
# %bb.1:                                # %func_writeSyntaxElement_Intra4x4PredictionMode.28
	movq	%rbx, %rdi
	movq	%r14, %rsi
	callq	writeSyntaxElement_Intra4x4PredictionMode.28
	popq	%rbx
	popq	%r14
	popq	%rbp
	.cfi_def_cfa %rsp, 8
	retq
.LBB15_2:                               # %func_writeSyntaxElement_Intra4x4PredictionMode.91
	.cfi_def_cfa %rbp, 16
	movq	%rbx, %rdi
	movq	%r14, %rsi
	callq	writeSyntaxElement_Intra4x4PredictionMode.91
	popq	%rbx
	popq	%r14
	popq	%rbp
	.cfi_def_cfa %rsp, 8
	retq
.Lfunc_end15:
	.size	writeSyntaxElement_Intra4x4PredictionMode, .Lfunc_end15-writeSyntaxElement_Intra4x4PredictionMode
	.cfi_endproc
                                        # -- End function
	.globl	writeSyntaxElement2Buf_UVLC # -- Begin function writeSyntaxElement2Buf_UVLC
	.p2align	4, 0x90
	.type	writeSyntaxElement2Buf_UVLC,@function
writeSyntaxElement2Buf_UVLC:            # @writeSyntaxElement2Buf_UVLC
	.cfi_startproc
# %bb.0:                                # %rand_bb
	pushq	%rbp
	.cfi_def_cfa_offset 16
	.cfi_offset %rbp, -16
	movq	%rsp, %rbp
	.cfi_def_cfa_register %rbp
	pushq	%r14
	pushq	%rbx
	.cfi_offset %rbx, -32
	.cfi_offset %r14, -24
	movq	%rsi, %r14
	movq	%rdi, %rbx
	callq	get_rand
	cmpl	$0, %eax
	jne	.LBB16_2
# %bb.1:                                # %func_writeSyntaxElement2Buf_UVLC.1
	movq	%rbx, %rdi
	movq	%r14, %rsi
	callq	writeSyntaxElement2Buf_UVLC.1
	popq	%rbx
	popq	%r14
	popq	%rbp
	.cfi_def_cfa %rsp, 8
	retq
.LBB16_2:                               # %func_writeSyntaxElement2Buf_UVLC.3
	.cfi_def_cfa %rbp, 16
	movq	%rbx, %rdi
	movq	%r14, %rsi
	callq	writeSyntaxElement2Buf_UVLC.3
	popq	%rbx
	popq	%r14
	popq	%rbp
	.cfi_def_cfa %rsp, 8
	retq
.Lfunc_end16:
	.size	writeSyntaxElement2Buf_UVLC, .Lfunc_end16-writeSyntaxElement2Buf_UVLC
	.cfi_endproc
                                        # -- End function
	.globl	writeSyntaxElement2Buf_Fixed # -- Begin function writeSyntaxElement2Buf_Fixed
	.p2align	4, 0x90
	.type	writeSyntaxElement2Buf_Fixed,@function
writeSyntaxElement2Buf_Fixed:           # @writeSyntaxElement2Buf_Fixed
	.cfi_startproc
# %bb.0:                                # %rand_bb
	pushq	%rbp
	.cfi_def_cfa_offset 16
	.cfi_offset %rbp, -16
	movq	%rsp, %rbp
	.cfi_def_cfa_register %rbp
	pushq	%r14
	pushq	%rbx
	.cfi_offset %rbx, -32
	.cfi_offset %r14, -24
	movq	%rsi, %r14
	movq	%rdi, %rbx
	callq	get_rand
	cmpl	$0, %eax
	jne	.LBB17_2
# %bb.1:                                # %func_writeSyntaxElement2Buf_Fixed.43
	movq	%rbx, %rdi
	movq	%r14, %rsi
	callq	writeSyntaxElement2Buf_Fixed.43
	popq	%rbx
	popq	%r14
	popq	%rbp
	.cfi_def_cfa %rsp, 8
	retq
.LBB17_2:                               # %func_writeSyntaxElement2Buf_Fixed.59
	.cfi_def_cfa %rbp, 16
	movq	%rbx, %rdi
	movq	%r14, %rsi
	callq	writeSyntaxElement2Buf_Fixed.59
	popq	%rbx
	popq	%r14
	popq	%rbp
	.cfi_def_cfa %rsp, 8
	retq
.Lfunc_end17:
	.size	writeSyntaxElement2Buf_Fixed, .Lfunc_end17-writeSyntaxElement2Buf_Fixed
	.cfi_endproc
                                        # -- End function
	.globl	symbol2vlc              # -- Begin function symbol2vlc
	.p2align	4, 0x90
	.type	symbol2vlc,@function
symbol2vlc:                             # @symbol2vlc
	.cfi_startproc
# %bb.0:                                # %rand_bb
	pushq	%rbp
	.cfi_def_cfa_offset 16
	.cfi_offset %rbp, -16
	movq	%rsp, %rbp
	.cfi_def_cfa_register %rbp
	pushq	%rbx
	pushq	%rax
	.cfi_offset %rbx, -24
	movq	%rdi, %rbx
	callq	get_rand
	cmpl	$0, %eax
	jne	.LBB18_2
# %bb.1:                                # %func_symbol2vlc.4
	movq	%rbx, %rdi
	callq	symbol2vlc.4
	addq	$8, %rsp
	popq	%rbx
	popq	%rbp
	.cfi_def_cfa %rsp, 8
	retq
.LBB18_2:                               # %func_symbol2vlc.25
	.cfi_def_cfa %rbp, 16
	movq	%rbx, %rdi
	callq	symbol2vlc.25
	addq	$8, %rsp
	popq	%rbx
	popq	%rbp
	.cfi_def_cfa %rsp, 8
	retq
.Lfunc_end18:
	.size	symbol2vlc, .Lfunc_end18-symbol2vlc
	.cfi_endproc
                                        # -- End function
	.globl	writeSyntaxElement_VLC  # -- Begin function writeSyntaxElement_VLC
	.p2align	4, 0x90
	.type	writeSyntaxElement_VLC,@function
writeSyntaxElement_VLC:                 # @writeSyntaxElement_VLC
	.cfi_startproc
# %bb.0:                                # %rand_bb
	pushq	%rbp
	.cfi_def_cfa_offset 16
	.cfi_offset %rbp, -16
	movq	%rsp, %rbp
	.cfi_def_cfa_register %rbp
	pushq	%r14
	pushq	%rbx
	.cfi_offset %rbx, -32
	.cfi_offset %r14, -24
	movq	%rsi, %r14
	movq	%rdi, %rbx
	callq	get_rand
	cmpl	$0, %eax
	jne	.LBB19_2
# %bb.1:                                # %func_writeSyntaxElement_VLC.24
	movq	%rbx, %rdi
	movq	%r14, %rsi
	callq	writeSyntaxElement_VLC.24
	popq	%rbx
	popq	%r14
	popq	%rbp
	.cfi_def_cfa %rsp, 8
	retq
.LBB19_2:                               # %func_writeSyntaxElement_VLC.64
	.cfi_def_cfa %rbp, 16
	movq	%rbx, %rdi
	movq	%r14, %rsi
	callq	writeSyntaxElement_VLC.64
	popq	%rbx
	popq	%r14
	popq	%rbp
	.cfi_def_cfa %rsp, 8
	retq
.Lfunc_end19:
	.size	writeSyntaxElement_VLC, .Lfunc_end19-writeSyntaxElement_VLC
	.cfi_endproc
                                        # -- End function
	.globl	writeSyntaxElement_NumCoeffTrailingOnes # -- Begin function writeSyntaxElement_NumCoeffTrailingOnes
	.p2align	4, 0x90
	.type	writeSyntaxElement_NumCoeffTrailingOnes,@function
writeSyntaxElement_NumCoeffTrailingOnes: # @writeSyntaxElement_NumCoeffTrailingOnes
	.cfi_startproc
# %bb.0:                                # %rand_bb
	pushq	%rbp
	.cfi_def_cfa_offset 16
	.cfi_offset %rbp, -16
	movq	%rsp, %rbp
	.cfi_def_cfa_register %rbp
	pushq	%r14
	pushq	%rbx
	.cfi_offset %rbx, -32
	.cfi_offset %r14, -24
	movq	%rsi, %r14
	movq	%rdi, %rbx
	callq	get_rand
	cmpl	$0, %eax
	jne	.LBB20_5
# %bb.1:                                # %func_writeSyntaxElement_NumCoeffTrailingOnes.21
	movq	%rbx, %rdi
	movq	%r14, %rsi
	callq	writeSyntaxElement_NumCoeffTrailingOnes.21
	popq	%rbx
	popq	%r14
	popq	%rbp
	.cfi_def_cfa %rsp, 8
	retq
.LBB20_2:                               # %func_writeSyntaxElement_NumCoeffTrailingOnes.40
	.cfi_def_cfa %rbp, 16
	movq	%rbx, %rdi
	movq	%r14, %rsi
	callq	writeSyntaxElement_NumCoeffTrailingOnes.40
	popq	%rbx
	popq	%r14
	popq	%rbp
	.cfi_def_cfa %rsp, 8
	retq
.LBB20_3:                               # %func_writeSyntaxElement_NumCoeffTrailingOnes.72
	.cfi_def_cfa %rbp, 16
	movq	%rbx, %rdi
	movq	%r14, %rsi
	callq	writeSyntaxElement_NumCoeffTrailingOnes.72
	popq	%rbx
	popq	%r14
	popq	%rbp
	.cfi_def_cfa %rsp, 8
	retq
.LBB20_4:                               # %func_writeSyntaxElement_NumCoeffTrailingOnes.74
	.cfi_def_cfa %rbp, 16
	movq	%rbx, %rdi
	movq	%r14, %rsi
	callq	writeSyntaxElement_NumCoeffTrailingOnes.74
	popq	%rbx
	popq	%r14
	popq	%rbp
	.cfi_def_cfa %rsp, 8
	retq
.LBB20_5:                               # %ctrl0
	.cfi_def_cfa %rbp, 16
	cmpl	$1, %eax
	je	.LBB20_2
# %bb.6:                                # %ctrl1
	cmpl	$2, %eax
	je	.LBB20_3
	jmp	.LBB20_4
.Lfunc_end20:
	.size	writeSyntaxElement_NumCoeffTrailingOnes, .Lfunc_end20-writeSyntaxElement_NumCoeffTrailingOnes
	.cfi_endproc
                                        # -- End function
	.globl	writeSyntaxElement_NumCoeffTrailingOnesChromaDC # -- Begin function writeSyntaxElement_NumCoeffTrailingOnesChromaDC
	.p2align	4, 0x90
	.type	writeSyntaxElement_NumCoeffTrailingOnesChromaDC,@function
writeSyntaxElement_NumCoeffTrailingOnesChromaDC: # @writeSyntaxElement_NumCoeffTrailingOnesChromaDC
	.cfi_startproc
# %bb.0:                                # %rand_bb
	pushq	%rbp
	.cfi_def_cfa_offset 16
	.cfi_offset %rbp, -16
	movq	%rsp, %rbp
	.cfi_def_cfa_register %rbp
	pushq	%r14
	pushq	%rbx
	.cfi_offset %rbx, -32
	.cfi_offset %r14, -24
	movq	%rsi, %r14
	movq	%rdi, %rbx
	callq	get_rand
	cmpl	$0, %eax
	jne	.LBB21_5
# %bb.1:                                # %func_writeSyntaxElement_NumCoeffTrailingOnesChromaDC.41
	movq	%rbx, %rdi
	movq	%r14, %rsi
	callq	writeSyntaxElement_NumCoeffTrailingOnesChromaDC.41
	popq	%rbx
	popq	%r14
	popq	%rbp
	.cfi_def_cfa %rsp, 8
	retq
.LBB21_2:                               # %func_writeSyntaxElement_NumCoeffTrailingOnesChromaDC.61
	.cfi_def_cfa %rbp, 16
	movq	%rbx, %rdi
	movq	%r14, %rsi
	callq	writeSyntaxElement_NumCoeffTrailingOnesChromaDC.61
	popq	%rbx
	popq	%r14
	popq	%rbp
	.cfi_def_cfa %rsp, 8
	retq
.LBB21_3:                               # %func_writeSyntaxElement_NumCoeffTrailingOnesChromaDC.88
	.cfi_def_cfa %rbp, 16
	movq	%rbx, %rdi
	movq	%r14, %rsi
	callq	writeSyntaxElement_NumCoeffTrailingOnesChromaDC.88
	popq	%rbx
	popq	%r14
	popq	%rbp
	.cfi_def_cfa %rsp, 8
	retq
.LBB21_4:                               # %func_writeSyntaxElement_NumCoeffTrailingOnesChromaDC.92
	.cfi_def_cfa %rbp, 16
	movq	%rbx, %rdi
	movq	%r14, %rsi
	callq	writeSyntaxElement_NumCoeffTrailingOnesChromaDC.92
	popq	%rbx
	popq	%r14
	popq	%rbp
	.cfi_def_cfa %rsp, 8
	retq
.LBB21_5:                               # %ctrl0
	.cfi_def_cfa %rbp, 16
	cmpl	$1, %eax
	je	.LBB21_2
# %bb.6:                                # %ctrl1
	cmpl	$2, %eax
	je	.LBB21_3
	jmp	.LBB21_4
.Lfunc_end21:
	.size	writeSyntaxElement_NumCoeffTrailingOnesChromaDC, .Lfunc_end21-writeSyntaxElement_NumCoeffTrailingOnesChromaDC
	.cfi_endproc
                                        # -- End function
	.globl	writeSyntaxElement_TotalZeros # -- Begin function writeSyntaxElement_TotalZeros
	.p2align	4, 0x90
	.type	writeSyntaxElement_TotalZeros,@function
writeSyntaxElement_TotalZeros:          # @writeSyntaxElement_TotalZeros
	.cfi_startproc
# %bb.0:                                # %rand_bb
	pushq	%rbp
	.cfi_def_cfa_offset 16
	.cfi_offset %rbp, -16
	movq	%rsp, %rbp
	.cfi_def_cfa_register %rbp
	pushq	%r14
	pushq	%rbx
	.cfi_offset %rbx, -32
	.cfi_offset %r14, -24
	movq	%rsi, %r14
	movq	%rdi, %rbx
	callq	get_rand
	cmpl	$0, %eax
	jne	.LBB22_5
# %bb.1:                                # %func_writeSyntaxElement_TotalZeros.5
	movq	%rbx, %rdi
	movq	%r14, %rsi
	callq	writeSyntaxElement_TotalZeros.5
	popq	%rbx
	popq	%r14
	popq	%rbp
	.cfi_def_cfa %rsp, 8
	retq
.LBB22_2:                               # %func_writeSyntaxElement_TotalZeros.12
	.cfi_def_cfa %rbp, 16
	movq	%rbx, %rdi
	movq	%r14, %rsi
	callq	writeSyntaxElement_TotalZeros.12
	popq	%rbx
	popq	%r14
	popq	%rbp
	.cfi_def_cfa %rsp, 8
	retq
.LBB22_3:                               # %func_writeSyntaxElement_TotalZeros.16
	.cfi_def_cfa %rbp, 16
	movq	%rbx, %rdi
	movq	%r14, %rsi
	callq	writeSyntaxElement_TotalZeros.16
	popq	%rbx
	popq	%r14
	popq	%rbp
	.cfi_def_cfa %rsp, 8
	retq
.LBB22_4:                               # %func_writeSyntaxElement_TotalZeros.29
	.cfi_def_cfa %rbp, 16
	movq	%rbx, %rdi
	movq	%r14, %rsi
	callq	writeSyntaxElement_TotalZeros.29
	popq	%rbx
	popq	%r14
	popq	%rbp
	.cfi_def_cfa %rsp, 8
	retq
.LBB22_5:                               # %ctrl0
	.cfi_def_cfa %rbp, 16
	cmpl	$1, %eax
	je	.LBB22_2
# %bb.6:                                # %ctrl1
	cmpl	$2, %eax
	je	.LBB22_3
	jmp	.LBB22_4
.Lfunc_end22:
	.size	writeSyntaxElement_TotalZeros, .Lfunc_end22-writeSyntaxElement_TotalZeros
	.cfi_endproc
                                        # -- End function
	.globl	writeSyntaxElement_TotalZerosChromaDC # -- Begin function writeSyntaxElement_TotalZerosChromaDC
	.p2align	4, 0x90
	.type	writeSyntaxElement_TotalZerosChromaDC,@function
writeSyntaxElement_TotalZerosChromaDC:  # @writeSyntaxElement_TotalZerosChromaDC
	.cfi_startproc
# %bb.0:                                # %rand_bb
	pushq	%rbp
	.cfi_def_cfa_offset 16
	.cfi_offset %rbp, -16
	movq	%rsp, %rbp
	.cfi_def_cfa_register %rbp
	pushq	%r14
	pushq	%rbx
	.cfi_offset %rbx, -32
	.cfi_offset %r14, -24
	movq	%rsi, %r14
	movq	%rdi, %rbx
	callq	get_rand
	cmpl	$0, %eax
	jne	.LBB23_5
# %bb.1:                                # %func_writeSyntaxElement_TotalZerosChromaDC.13
	movq	%rbx, %rdi
	movq	%r14, %rsi
	callq	writeSyntaxElement_TotalZerosChromaDC.13
	popq	%rbx
	popq	%r14
	popq	%rbp
	.cfi_def_cfa %rsp, 8
	retq
.LBB23_2:                               # %func_writeSyntaxElement_TotalZerosChromaDC.14
	.cfi_def_cfa %rbp, 16
	movq	%rbx, %rdi
	movq	%r14, %rsi
	callq	writeSyntaxElement_TotalZerosChromaDC.14
	popq	%rbx
	popq	%r14
	popq	%rbp
	.cfi_def_cfa %rsp, 8
	retq
.LBB23_3:                               # %func_writeSyntaxElement_TotalZerosChromaDC.46
	.cfi_def_cfa %rbp, 16
	movq	%rbx, %rdi
	movq	%r14, %rsi
	callq	writeSyntaxElement_TotalZerosChromaDC.46
	popq	%rbx
	popq	%r14
	popq	%rbp
	.cfi_def_cfa %rsp, 8
	retq
.LBB23_4:                               # %func_writeSyntaxElement_TotalZerosChromaDC.56
	.cfi_def_cfa %rbp, 16
	movq	%rbx, %rdi
	movq	%r14, %rsi
	callq	writeSyntaxElement_TotalZerosChromaDC.56
	popq	%rbx
	popq	%r14
	popq	%rbp
	.cfi_def_cfa %rsp, 8
	retq
.LBB23_5:                               # %ctrl0
	.cfi_def_cfa %rbp, 16
	cmpl	$1, %eax
	je	.LBB23_2
# %bb.6:                                # %ctrl1
	cmpl	$2, %eax
	je	.LBB23_3
	jmp	.LBB23_4
.Lfunc_end23:
	.size	writeSyntaxElement_TotalZerosChromaDC, .Lfunc_end23-writeSyntaxElement_TotalZerosChromaDC
	.cfi_endproc
                                        # -- End function
	.globl	writeSyntaxElement_Run  # -- Begin function writeSyntaxElement_Run
	.p2align	4, 0x90
	.type	writeSyntaxElement_Run,@function
writeSyntaxElement_Run:                 # @writeSyntaxElement_Run
	.cfi_startproc
# %bb.0:                                # %rand_bb
	pushq	%rbp
	.cfi_def_cfa_offset 16
	.cfi_offset %rbp, -16
	movq	%rsp, %rbp
	.cfi_def_cfa_register %rbp
	pushq	%r14
	pushq	%rbx
	.cfi_offset %rbx, -32
	.cfi_offset %r14, -24
	movq	%rsi, %r14
	movq	%rdi, %rbx
	callq	get_rand
	cmpl	$0, %eax
	jne	.LBB24_5
# %bb.1:                                # %func_writeSyntaxElement_Run.19
	movq	%rbx, %rdi
	movq	%r14, %rsi
	callq	writeSyntaxElement_Run.19
	popq	%rbx
	popq	%r14
	popq	%rbp
	.cfi_def_cfa %rsp, 8
	retq
.LBB24_2:                               # %func_writeSyntaxElement_Run.75
	.cfi_def_cfa %rbp, 16
	movq	%rbx, %rdi
	movq	%r14, %rsi
	callq	writeSyntaxElement_Run.75
	popq	%rbx
	popq	%r14
	popq	%rbp
	.cfi_def_cfa %rsp, 8
	retq
.LBB24_3:                               # %func_writeSyntaxElement_Run.80
	.cfi_def_cfa %rbp, 16
	movq	%rbx, %rdi
	movq	%r14, %rsi
	callq	writeSyntaxElement_Run.80
	popq	%rbx
	popq	%r14
	popq	%rbp
	.cfi_def_cfa %rsp, 8
	retq
.LBB24_4:                               # %func_writeSyntaxElement_Run.87
	.cfi_def_cfa %rbp, 16
	movq	%rbx, %rdi
	movq	%r14, %rsi
	callq	writeSyntaxElement_Run.87
	popq	%rbx
	popq	%r14
	popq	%rbp
	.cfi_def_cfa %rsp, 8
	retq
.LBB24_5:                               # %ctrl0
	.cfi_def_cfa %rbp, 16
	cmpl	$1, %eax
	je	.LBB24_2
# %bb.6:                                # %ctrl1
	cmpl	$2, %eax
	je	.LBB24_3
	jmp	.LBB24_4
.Lfunc_end24:
	.size	writeSyntaxElement_Run, .Lfunc_end24-writeSyntaxElement_Run
	.cfi_endproc
                                        # -- End function
	.globl	writeSyntaxElement_Level_VLC1 # -- Begin function writeSyntaxElement_Level_VLC1
	.p2align	4, 0x90
	.type	writeSyntaxElement_Level_VLC1,@function
writeSyntaxElement_Level_VLC1:          # @writeSyntaxElement_Level_VLC1
	.cfi_startproc
# %bb.0:                                # %rand_bb
	pushq	%rbp
	.cfi_def_cfa_offset 16
	.cfi_offset %rbp, -16
	movq	%rsp, %rbp
	.cfi_def_cfa_register %rbp
	pushq	%r14
	pushq	%rbx
	.cfi_offset %rbx, -32
	.cfi_offset %r14, -24
	movq	%rsi, %r14
	movq	%rdi, %rbx
	callq	get_rand
	cmpl	$0, %eax
	jne	.LBB25_5
# %bb.1:                                # %func_writeSyntaxElement_Level_VLC1.2
	movq	%rbx, %rdi
	movq	%r14, %rsi
	callq	writeSyntaxElement_Level_VLC1.2
	popq	%rbx
	popq	%r14
	popq	%rbp
	.cfi_def_cfa %rsp, 8
	retq
.LBB25_2:                               # %func_writeSyntaxElement_Level_VLC1.62
	.cfi_def_cfa %rbp, 16
	movq	%rbx, %rdi
	movq	%r14, %rsi
	callq	writeSyntaxElement_Level_VLC1.62
	popq	%rbx
	popq	%r14
	popq	%rbp
	.cfi_def_cfa %rsp, 8
	retq
.LBB25_3:                               # %func_writeSyntaxElement_Level_VLC1.63
	.cfi_def_cfa %rbp, 16
	movq	%rbx, %rdi
	movq	%r14, %rsi
	callq	writeSyntaxElement_Level_VLC1.63
	popq	%rbx
	popq	%r14
	popq	%rbp
	.cfi_def_cfa %rsp, 8
	retq
.LBB25_4:                               # %func_writeSyntaxElement_Level_VLC1.69
	.cfi_def_cfa %rbp, 16
	movq	%rbx, %rdi
	movq	%r14, %rsi
	callq	writeSyntaxElement_Level_VLC1.69
	popq	%rbx
	popq	%r14
	popq	%rbp
	.cfi_def_cfa %rsp, 8
	retq
.LBB25_5:                               # %ctrl0
	.cfi_def_cfa %rbp, 16
	cmpl	$1, %eax
	je	.LBB25_2
# %bb.6:                                # %ctrl1
	cmpl	$2, %eax
	je	.LBB25_3
	jmp	.LBB25_4
.Lfunc_end25:
	.size	writeSyntaxElement_Level_VLC1, .Lfunc_end25-writeSyntaxElement_Level_VLC1
	.cfi_endproc
                                        # -- End function
	.globl	writeSyntaxElement_Level_VLCN # -- Begin function writeSyntaxElement_Level_VLCN
	.p2align	4, 0x90
	.type	writeSyntaxElement_Level_VLCN,@function
writeSyntaxElement_Level_VLCN:          # @writeSyntaxElement_Level_VLCN
	.cfi_startproc
# %bb.0:                                # %rand_bb
	pushq	%rbp
	.cfi_def_cfa_offset 16
	.cfi_offset %rbp, -16
	movq	%rsp, %rbp
	.cfi_def_cfa_register %rbp
	pushq	%r15
	pushq	%r14
	pushq	%rbx
	pushq	%rax
	.cfi_offset %rbx, -40
	.cfi_offset %r14, -32
	.cfi_offset %r15, -24
	movq	%rdx, %r14
	movl	%esi, %r15d
	movq	%rdi, %rbx
	callq	get_rand
	cmpl	$0, %eax
	jne	.LBB26_5
# %bb.1:                                # %func_writeSyntaxElement_Level_VLCN.26
	movq	%rbx, %rdi
	movl	%r15d, %esi
	movq	%r14, %rdx
	callq	writeSyntaxElement_Level_VLCN.26
	addq	$8, %rsp
	popq	%rbx
	popq	%r14
	popq	%r15
	popq	%rbp
	.cfi_def_cfa %rsp, 8
	retq
.LBB26_2:                               # %func_writeSyntaxElement_Level_VLCN.65
	.cfi_def_cfa %rbp, 16
	movq	%rbx, %rdi
	movl	%r15d, %esi
	movq	%r14, %rdx
	callq	writeSyntaxElement_Level_VLCN.65
	addq	$8, %rsp
	popq	%rbx
	popq	%r14
	popq	%r15
	popq	%rbp
	.cfi_def_cfa %rsp, 8
	retq
.LBB26_3:                               # %func_writeSyntaxElement_Level_VLCN.68
	.cfi_def_cfa %rbp, 16
	movq	%rbx, %rdi
	movl	%r15d, %esi
	movq	%r14, %rdx
	callq	writeSyntaxElement_Level_VLCN.68
	addq	$8, %rsp
	popq	%rbx
	popq	%r14
	popq	%r15
	popq	%rbp
	.cfi_def_cfa %rsp, 8
	retq
.LBB26_4:                               # %func_writeSyntaxElement_Level_VLCN.70
	.cfi_def_cfa %rbp, 16
	movq	%rbx, %rdi
	movl	%r15d, %esi
	movq	%r14, %rdx
	callq	writeSyntaxElement_Level_VLCN.70
	addq	$8, %rsp
	popq	%rbx
	popq	%r14
	popq	%r15
	popq	%rbp
	.cfi_def_cfa %rsp, 8
	retq
.LBB26_5:                               # %ctrl0
	.cfi_def_cfa %rbp, 16
	cmpl	$1, %eax
	je	.LBB26_2
# %bb.6:                                # %ctrl1
	cmpl	$2, %eax
	je	.LBB26_3
	jmp	.LBB26_4
.Lfunc_end26:
	.size	writeSyntaxElement_Level_VLCN, .Lfunc_end26-writeSyntaxElement_Level_VLCN
	.cfi_endproc
                                        # -- End function
	.globl	writeVlcByteAlign       # -- Begin function writeVlcByteAlign
	.p2align	4, 0x90
	.type	writeVlcByteAlign,@function
writeVlcByteAlign:                      # @writeVlcByteAlign
	.cfi_startproc
# %bb.0:                                # %entry
	pushq	%rbp
	.cfi_def_cfa_offset 16
	.cfi_offset %rbp, -16
	movq	%rsp, %rbp
	.cfi_def_cfa_register %rbp
	movq	%rdi, -8(%rbp)
	movq	-8(%rbp), %rax
	cmpl	$8, 4(%rax)
	jge	.LBB27_2
# %bb.1:                                # %if.then
	movq	-8(%rbp), %rax
	movzbl	8(%rax), %eax
	movq	-8(%rbp), %rcx
	movl	4(%rcx), %ecx
                                        # kill: def $cl killed $ecx
	shll	%cl, %eax
	movq	-8(%rbp), %rdx
	movl	$8, %ecx
	subl	4(%rdx), %ecx
                                        # kill: def $cl killed $ecx
	movl	$255, %edx
	sarl	%cl, %edx
	orl	%edx, %eax
	movq	-8(%rbp), %rcx
	movb	%al, 8(%rcx)
	movq	-8(%rbp), %rax
	movl	4(%rax), %eax
	movq	stats, %rcx
	movq	img, %rdx
	movslq	24(%rdx), %rdx
	addl	1328(%rcx,%rdx,4), %eax
	movl	%eax, 1328(%rcx,%rdx,4)
	movq	-8(%rbp), %rax
	movb	8(%rax), %al
	movq	-8(%rbp), %rcx
	movq	32(%rcx), %rcx
	movq	-8(%rbp), %rdx
	movl	(%rdx), %esi
	movl	%esi, %edi
	addl	$1, %edi
	movl	%edi, (%rdx)
	movslq	%esi, %rdx
	movb	%al, (%rcx,%rdx)
	movq	-8(%rbp), %rax
	movl	$8, 4(%rax)
.LBB27_2:                               # %if.end
	popq	%rbp
	.cfi_def_cfa %rsp, 8
	retq
.Lfunc_end27:
	.size	writeVlcByteAlign, .Lfunc_end27-writeVlcByteAlign
	.cfi_endproc
                                        # -- End function
	.globl	writeSyntaxElement2Buf_UVLC.1 # -- Begin function writeSyntaxElement2Buf_UVLC.1
	.p2align	4, 0x90
	.type	writeSyntaxElement2Buf_UVLC.1,@function
writeSyntaxElement2Buf_UVLC.1:          # @writeSyntaxElement2Buf_UVLC.1
	.cfi_startproc
# %bb.0:                                # %entry
	pushq	%rbp
	.cfi_def_cfa_offset 16
	.cfi_offset %rbp, -16
	movq	%rsp, %rbp
	.cfi_def_cfa_register %rbp
	pushq	%rbx
	subq	$24, %rsp
	.cfi_offset %rbx, -24
	movl	$1377424232, -20(%rbp)  # imm = 0x5219D368
	movq	%rdi, -16(%rbp)
	movq	%rsi, -32(%rbp)
	movq	-16(%rbp), %rax
	movq	32(%rax), %rax
	movq	-16(%rbp), %rcx
	movl	4(%rcx), %edi
	movq	-16(%rbp), %rcx
	movl	8(%rcx), %esi
	movq	-16(%rbp), %rdx
	addq	$12, %rdx
	movq	-16(%rbp), %rcx
	addq	$16, %rcx
	callq	*%rax
	movq	-16(%rbp), %rdi
	callq	symbol2uvlc
	movq	-16(%rbp), %rdi
	movq	-32(%rbp), %rsi
	callq	writeUVLC2buffer
	movq	-16(%rbp), %rax
	movl	12(%rax), %ebx
	cmpl	$1377424232, -20(%rbp)  # imm = 0x5219D368
	jne	.LBB28_2
.LBB28_1:
	movl	%ebx, %eax
	addq	$24, %rsp
	popq	%rbx
	popq	%rbp
	.cfi_def_cfa %rsp, 8
	retq
.LBB28_2:                               # %func_exit
	.cfi_def_cfa %rbp, 16
	callq	detect_breach
	jmp	.LBB28_1
.Lfunc_end28:
	.size	writeSyntaxElement2Buf_UVLC.1, .Lfunc_end28-writeSyntaxElement2Buf_UVLC.1
	.cfi_endproc
                                        # -- End function
	.globl	writeSyntaxElement_Level_VLC1.2 # -- Begin function writeSyntaxElement_Level_VLC1.2
	.p2align	4, 0x90
	.type	writeSyntaxElement_Level_VLC1.2,@function
writeSyntaxElement_Level_VLC1.2:        # @writeSyntaxElement_Level_VLC1.2
	.cfi_startproc
# %bb.0:                                # %entry
	pushq	%rbp
	.cfi_def_cfa_offset 16
	.cfi_offset %rbp, -16
	movq	%rsp, %rbp
	.cfi_def_cfa_register %rbp
	pushq	%rbx
	subq	$40, %rsp
	.cfi_offset %rbx, -24
	movl	$553072089, -36(%rbp)   # imm = 0x20F735D9
	movq	%rdi, -24(%rbp)
	movq	%rsi, -48(%rbp)
	movq	-24(%rbp), %rax
	movl	4(%rax), %eax
	movl	%eax, -32(%rbp)
	movl	-32(%rbp), %edi
	callq	abs
	xorl	%ecx, %ecx
	movl	%eax, -12(%rbp)
	movl	-32(%rbp), %eax
	cmpl	$0, %eax
	movl	$1, %eax
	cmovll	%eax, %ecx
	movl	%ecx, -28(%rbp)
	cmpl	$8, -12(%rbp)
	jge	.LBB29_2
# %bb.1:                                # %if.then
	movl	-12(%rbp), %eax
	shll	$1, %eax
	addl	-28(%rbp), %eax
	subl	$1, %eax
	movq	-24(%rbp), %rcx
	movl	%eax, 12(%rcx)
	movq	-24(%rbp), %rax
	movl	$1, 16(%rax)
	jmp	.LBB29_6
.LBB29_2:                               # %if.else
	cmpl	$16, -12(%rbp)
	jge	.LBB29_4
# %bb.3:                                # %if.then3
	movq	-24(%rbp), %rax
	movl	$19, 12(%rax)
	movl	-12(%rbp), %eax
	subl	$8, %eax
	shll	$1, %eax
	orl	$16, %eax
	orl	-28(%rbp), %eax
	movq	-24(%rbp), %rcx
	movl	%eax, 16(%rcx)
	jmp	.LBB29_5
.LBB29_4:                               # %if.else8
	movq	-24(%rbp), %rax
	movl	$28, 12(%rax)
	movl	-12(%rbp), %eax
	subl	$16, %eax
	shll	$1, %eax
	orl	$4096, %eax             # imm = 0x1000
	orl	-28(%rbp), %eax
	movq	-24(%rbp), %rcx
	movl	%eax, 16(%rcx)
.LBB29_5:                               # %if.end
	jmp	.LBB29_6
.LBB29_6:                               # %if.end15
	movq	-24(%rbp), %rdi
	callq	symbol2vlc
	movq	-24(%rbp), %rdi
	movq	-48(%rbp), %rax
	movq	(%rax), %rsi
	callq	writeUVLC2buffer
	movq	-24(%rbp), %rax
	movl	12(%rax), %ebx
	cmpl	$553072089, -36(%rbp)   # imm = 0x20F735D9
	jne	.LBB29_8
.LBB29_7:
	movl	%ebx, %eax
	addq	$40, %rsp
	popq	%rbx
	popq	%rbp
	.cfi_def_cfa %rsp, 8
	retq
.LBB29_8:                               # %func_exit
	.cfi_def_cfa %rbp, 16
	callq	detect_breach
	jmp	.LBB29_7
.Lfunc_end29:
	.size	writeSyntaxElement_Level_VLC1.2, .Lfunc_end29-writeSyntaxElement_Level_VLC1.2
	.cfi_endproc
                                        # -- End function
	.globl	writeSyntaxElement2Buf_UVLC.3 # -- Begin function writeSyntaxElement2Buf_UVLC.3
	.p2align	4, 0x90
	.type	writeSyntaxElement2Buf_UVLC.3,@function
writeSyntaxElement2Buf_UVLC.3:          # @writeSyntaxElement2Buf_UVLC.3
	.cfi_startproc
# %bb.0:                                # %entry
	pushq	%rbp
	.cfi_def_cfa_offset 16
	.cfi_offset %rbp, -16
	movq	%rsp, %rbp
	.cfi_def_cfa_register %rbp
	pushq	%rbx
	subq	$24, %rsp
	.cfi_offset %rbx, -24
	movl	$556651535, -20(%rbp)   # imm = 0x212DD40F
	movq	%rdi, -16(%rbp)
	movq	%rsi, -32(%rbp)
	movq	-16(%rbp), %rax
	movq	32(%rax), %rax
	movq	-16(%rbp), %rcx
	movl	4(%rcx), %edi
	movq	-16(%rbp), %rcx
	movl	8(%rcx), %esi
	movq	-16(%rbp), %rdx
	addq	$12, %rdx
	movq	-16(%rbp), %rcx
	addq	$16, %rcx
	callq	*%rax
	movq	-16(%rbp), %rdi
	callq	symbol2uvlc
	movq	-16(%rbp), %rdi
	movq	-32(%rbp), %rsi
	callq	writeUVLC2buffer
	movq	-16(%rbp), %rax
	movl	12(%rax), %ebx
	cmpl	$556651535, -20(%rbp)   # imm = 0x212DD40F
	jne	.LBB30_2
.LBB30_1:
	movl	%ebx, %eax
	addq	$24, %rsp
	popq	%rbx
	popq	%rbp
	.cfi_def_cfa %rsp, 8
	retq
.LBB30_2:                               # %func_exit
	.cfi_def_cfa %rbp, 16
	callq	detect_breach
	jmp	.LBB30_1
.Lfunc_end30:
	.size	writeSyntaxElement2Buf_UVLC.3, .Lfunc_end30-writeSyntaxElement2Buf_UVLC.3
	.cfi_endproc
                                        # -- End function
	.globl	symbol2vlc.4            # -- Begin function symbol2vlc.4
	.p2align	4, 0x90
	.type	symbol2vlc.4,@function
symbol2vlc.4:                           # @symbol2vlc.4
	.cfi_startproc
# %bb.0:                                # %entry
	pushq	%rbp
	.cfi_def_cfa_offset 16
	.cfi_offset %rbp, -16
	movq	%rsp, %rbp
	.cfi_def_cfa_register %rbp
	subq	$32, %rsp
	movl	$2079404305, -20(%rbp)  # imm = 0x7BF13111
	movq	%rdi, -16(%rbp)
	movq	-16(%rbp), %rax
	movl	12(%rax), %eax
	movl	%eax, -4(%rbp)
	movq	-16(%rbp), %rax
	movl	$0, 20(%rax)
.LBB31_1:                               # %while.cond
                                        # =>This Inner Loop Header: Depth=1
	movl	-4(%rbp), %eax
	addl	$-1, %eax
	movl	%eax, -4(%rbp)
	cmpl	$0, %eax
	jl	.LBB31_3
# %bb.2:                                # %while.body
                                        #   in Loop: Header=BB31_1 Depth=1
	movq	-16(%rbp), %rax
	movl	20(%rax), %ecx
	shll	$1, %ecx
	movl	%ecx, 20(%rax)
	movq	-16(%rbp), %rax
	movl	16(%rax), %eax
	movl	-4(%rbp), %ecx
                                        # kill: def $cl killed $ecx
	sarl	%cl, %eax
	andl	$1, %eax
	movq	-16(%rbp), %rcx
	orl	20(%rcx), %eax
	movl	%eax, 20(%rcx)
	jmp	.LBB31_1
.LBB31_3:                               # %while.end
	cmpl	$2079404305, -20(%rbp)  # imm = 0x7BF13111
	jne	.LBB31_5
.LBB31_4:
	xorl	%eax, %eax
	addq	$32, %rsp
	popq	%rbp
	.cfi_def_cfa %rsp, 8
	retq
.LBB31_5:                               # %func_exit
	.cfi_def_cfa %rbp, 16
	callq	detect_breach
	jmp	.LBB31_4
.Lfunc_end31:
	.size	symbol2vlc.4, .Lfunc_end31-symbol2vlc.4
	.cfi_endproc
                                        # -- End function
	.globl	writeSyntaxElement_TotalZeros.5 # -- Begin function writeSyntaxElement_TotalZeros.5
	.p2align	4, 0x90
	.type	writeSyntaxElement_TotalZeros.5,@function
writeSyntaxElement_TotalZeros.5:        # @writeSyntaxElement_TotalZeros.5
	.cfi_startproc
# %bb.0:                                # %entry
	pushq	%rbp
	.cfi_def_cfa_offset 16
	.cfi_offset %rbp, -16
	movq	%rsp, %rbp
	.cfi_def_cfa_register %rbp
	pushq	%rbx
	subq	$24, %rsp
	.cfi_offset %rbx, -24
	movabsq	$writeSyntaxElement_TotalZeros.codtab, %rax
	movabsq	$writeSyntaxElement_TotalZeros.lentab, %rcx
	movl	$978052823, -24(%rbp)   # imm = 0x3A4BE6D7
	movq	%rdi, -16(%rbp)
	movq	%rsi, -32(%rbp)
	movq	-16(%rbp), %rdx
	movl	12(%rdx), %edx
	movl	%edx, -20(%rbp)
	movslq	-20(%rbp), %rdx
	shlq	$6, %rdx
	addq	%rdx, %rcx
	movq	-16(%rbp), %rdx
	movslq	4(%rdx), %rdx
	movl	(%rcx,%rdx,4), %ecx
	movq	-16(%rbp), %rdx
	movl	%ecx, 12(%rdx)
	movslq	-20(%rbp), %rcx
	shlq	$6, %rcx
	addq	%rcx, %rax
	movq	-16(%rbp), %rcx
	movslq	4(%rcx), %rcx
	movl	(%rax,%rcx,4), %eax
	movq	-16(%rbp), %rcx
	movl	%eax, 16(%rcx)
	movq	-16(%rbp), %rax
	cmpl	$0, 12(%rax)
	jne	.LBB32_2
# %bb.1:                                # %if.then
	movq	-16(%rbp), %rax
	movl	4(%rax), %esi
	movabsq	$.L.str.2, %rdi
	movb	$0, %al
	callq	printf
	movl	$4294967295, %edi       # imm = 0xFFFFFFFF
	callq	exit
.LBB32_2:                               # %if.end
	movq	-16(%rbp), %rdi
	callq	symbol2vlc
	movq	-16(%rbp), %rdi
	movq	-32(%rbp), %rax
	movq	(%rax), %rsi
	callq	writeUVLC2buffer
	movq	-16(%rbp), %rax
	movl	12(%rax), %ebx
	cmpl	$978052823, -24(%rbp)   # imm = 0x3A4BE6D7
	jne	.LBB32_4
.LBB32_3:
	movl	%ebx, %eax
	addq	$24, %rsp
	popq	%rbx
	popq	%rbp
	.cfi_def_cfa %rsp, 8
	retq
.LBB32_4:                               # %func_exit
	.cfi_def_cfa %rbp, 16
	callq	detect_breach
	jmp	.LBB32_3
.Lfunc_end32:
	.size	writeSyntaxElement_TotalZeros.5, .Lfunc_end32-writeSyntaxElement_TotalZeros.5
	.cfi_endproc
                                        # -- End function
	.globl	symbol2uvlc.6           # -- Begin function symbol2uvlc.6
	.p2align	4, 0x90
	.type	symbol2uvlc.6,@function
symbol2uvlc.6:                          # @symbol2uvlc.6
	.cfi_startproc
# %bb.0:                                # %entry
	pushq	%rbp
	.cfi_def_cfa_offset 16
	.cfi_offset %rbp, -16
	movq	%rsp, %rbp
	.cfi_def_cfa_register %rbp
	subq	$32, %rsp
	movl	$1546329979, -20(%rbp)  # imm = 0x5C2B1F7B
	movq	%rdi, -16(%rbp)
	movq	-16(%rbp), %rax
	movl	12(%rax), %eax
	cltd
	movl	$2, %ecx
	idivl	%ecx
	movl	%eax, -4(%rbp)
	movl	-4(%rbp), %ecx
                                        # kill: def $cl killed $ecx
	movl	$1, %eax
	movl	$1, %edx
	shll	%cl, %edx
	movq	-16(%rbp), %rcx
	movl	16(%rcx), %esi
	movl	-4(%rbp), %ecx
                                        # kill: def $cl killed $ecx
	shll	%cl, %eax
	subl	$1, %eax
	andl	%eax, %esi
	orl	%esi, %edx
	movq	-16(%rbp), %rax
	movl	%edx, 20(%rax)
	cmpl	$1546329979, -20(%rbp)  # imm = 0x5C2B1F7B
	jne	.LBB33_2
.LBB33_1:
	xorl	%eax, %eax
	addq	$32, %rsp
	popq	%rbp
	.cfi_def_cfa %rsp, 8
	retq
.LBB33_2:                               # %func_exit
	.cfi_def_cfa %rbp, 16
	callq	detect_breach
	jmp	.LBB33_1
.Lfunc_end33:
	.size	symbol2uvlc.6, .Lfunc_end33-symbol2uvlc.6
	.cfi_endproc
                                        # -- End function
	.section	.rodata.cst8,"aM",@progbits,8
	.p2align	3               # -- Begin function levrun_linfo_inter.7
.LCPI34_0:
	.quad	4611686018427387904     # double 2
	.text
	.globl	levrun_linfo_inter.7
	.p2align	4, 0x90
	.type	levrun_linfo_inter.7,@function
levrun_linfo_inter.7:                   # @levrun_linfo_inter.7
	.cfi_startproc
# %bb.0:                                # %entry
	pushq	%rbp
	.cfi_def_cfa_offset 16
	.cfi_offset %rbp, -16
	movq	%rsp, %rbp
	.cfi_def_cfa_register %rbp
	pushq	%rbx
	subq	$104, %rsp
	.cfi_offset %rbx, -24
	movl	$1821328488, -40(%rbp)  # imm = 0x6C8F4468
	movl	%edi, -24(%rbp)
	movl	%esi, -16(%rbp)
	movq	%rdx, -48(%rbp)
	movq	%rcx, -72(%rbp)
	movq	.L__const.levrun_linfo_inter.LEVRUN, %rax
	movq	%rax, -64(%rbp)
	movq	.L__const.levrun_linfo_inter.LEVRUN+8, %rax
	movq	%rax, -56(%rbp)
	leaq	-112(%rbp), %rdi
	movabsq	$.L__const.levrun_linfo_inter.NTAB, %rsi
	movl	$40, %edx
	callq	memcpy
	cmpl	$0, -24(%rbp)
	jne	.LBB34_2
# %bb.1:                                # %if.then
	movq	-48(%rbp), %rax
	movl	$1, (%rax)
	jmp	.LBB34_15
.LBB34_2:                               # %if.end
	cmpl	$0, -24(%rbp)
	jg	.LBB34_4
# %bb.3:                                # %if.then2
	movl	$1, -36(%rbp)
	jmp	.LBB34_5
.LBB34_4:                               # %if.else
	movl	$0, -36(%rbp)
.LBB34_5:                               # %if.end3
	movl	-24(%rbp), %edi
	callq	abs
	movl	%eax, -20(%rbp)
	movl	-20(%rbp), %eax
	movslq	-16(%rbp), %rcx
	movzbl	-64(%rbp,%rcx), %ecx
	cmpl	%ecx, %eax
	jg	.LBB34_7
# %bb.6:                                # %if.then6
	movl	-20(%rbp), %eax
	subl	$1, %eax
	cltq
	imulq	$10, %rax, %rax
	leaq	-112(%rbp), %rcx
	addq	%rax, %rcx
	movslq	-16(%rbp), %rax
	movzbl	(%rcx,%rax), %eax
	addl	$1, %eax
	movl	%eax, -32(%rbp)
	jmp	.LBB34_8
.LBB34_7:                               # %if.else12
	movl	-20(%rbp), %eax
	movslq	-16(%rbp), %rcx
	movzbl	-64(%rbp,%rcx), %ecx
	subl	%ecx, %eax
	shll	$5, %eax
	movl	-16(%rbp), %ecx
	shll	$1, %ecx
	addl	%ecx, %eax
	movl	%eax, -32(%rbp)
.LBB34_8:                               # %if.end19
	movl	-32(%rbp), %eax
	cltd
	movl	$2, %ecx
	idivl	%ecx
	movl	%eax, -28(%rbp)
	movl	$0, -12(%rbp)
.LBB34_9:                               # %for.cond
                                        # =>This Inner Loop Header: Depth=1
	xorl	%eax, %eax
	cmpl	$16, -12(%rbp)
	jge	.LBB34_11
# %bb.10:                               # %land.rhs
                                        #   in Loop: Header=BB34_9 Depth=1
	cmpl	$0, -28(%rbp)
	setne	%al
.LBB34_11:                              # %land.end
                                        #   in Loop: Header=BB34_9 Depth=1
	testb	$1, %al
	jne	.LBB34_12
	jmp	.LBB34_14
.LBB34_12:                              # %for.body
                                        #   in Loop: Header=BB34_9 Depth=1
	movl	-28(%rbp), %eax
	cltd
	movl	$2, %ecx
	idivl	%ecx
	movl	%eax, -28(%rbp)
# %bb.13:                               # %for.inc
                                        #   in Loop: Header=BB34_9 Depth=1
	movl	-12(%rbp), %eax
	addl	$1, %eax
	movl	%eax, -12(%rbp)
	jmp	.LBB34_9
.LBB34_14:                              # %for.end
	vmovsd	.LCPI34_0(%rip), %xmm0  # xmm0 = mem[0],zero
	movl	-12(%rbp), %eax
	shll	$1, %eax
	addl	$1, %eax
	movq	-48(%rbp), %rcx
	movl	%eax, (%rcx)
	movl	-32(%rbp), %ebx
	vcvtsi2sdl	-12(%rbp), %xmm0, %xmm1
	callq	pow
	vcvttsd2si	%xmm0, %eax
	subl	%eax, %ebx
	addl	-36(%rbp), %ebx
	movq	-72(%rbp), %rax
	movl	%ebx, (%rax)
.LBB34_15:                              # %return
	cmpl	$1821328488, -40(%rbp)  # imm = 0x6C8F4468
	jne	.LBB34_17
.LBB34_16:
	addq	$104, %rsp
	popq	%rbx
	popq	%rbp
	.cfi_def_cfa %rsp, 8
	retq
.LBB34_17:                              # %func_exit
	.cfi_def_cfa %rbp, 16
	callq	detect_breach
	jmp	.LBB34_16
.Lfunc_end34:
	.size	levrun_linfo_inter.7, .Lfunc_end34-levrun_linfo_inter.7
	.cfi_endproc
                                        # -- End function
	.section	.rodata.cst8,"aM",@progbits,8
	.p2align	3               # -- Begin function levrun_linfo_c2x2.8
.LCPI35_0:
	.quad	4611686018427387904     # double 2
	.text
	.globl	levrun_linfo_c2x2.8
	.p2align	4, 0x90
	.type	levrun_linfo_c2x2.8,@function
levrun_linfo_c2x2.8:                    # @levrun_linfo_c2x2.8
	.cfi_startproc
# %bb.0:                                # %entry
	pushq	%rbp
	.cfi_def_cfa_offset 16
	.cfi_offset %rbp, -16
	movq	%rsp, %rbp
	.cfi_def_cfa_register %rbp
	pushq	%rbx
	subq	$88, %rsp
	.cfi_offset %rbx, -24
	movl	$763684924, -40(%rbp)   # imm = 0x2D84E83C
	movl	%edi, -24(%rbp)
	movl	%esi, -16(%rbp)
	movq	%rdx, -48(%rbp)
	movq	%rcx, -72(%rbp)
	movq	.L__const.levrun_linfo_c2x2.NTAB, %rax
	movq	%rax, -96(%rbp)
	movq	.L__const.levrun_linfo_c2x2.NTAB+8, %rax
	movq	%rax, -88(%rbp)
	movq	.L__const.levrun_linfo_c2x2.LEVRUN, %rax
	movq	%rax, -64(%rbp)
	movq	.L__const.levrun_linfo_c2x2.LEVRUN+8, %rax
	movq	%rax, -56(%rbp)
	cmpl	$0, -24(%rbp)
	jne	.LBB35_2
# %bb.1:                                # %if.then
	movq	-48(%rbp), %rax
	movl	$1, (%rax)
	jmp	.LBB35_14
.LBB35_2:                               # %if.end
	movl	$0, -36(%rbp)
	cmpl	$0, -24(%rbp)
	jg	.LBB35_4
# %bb.3:                                # %if.then2
	movl	$1, -36(%rbp)
.LBB35_4:                               # %if.end3
	movl	-24(%rbp), %edi
	callq	abs
	movl	%eax, -32(%rbp)
	movl	-32(%rbp), %eax
	movslq	-16(%rbp), %rcx
	cmpl	-64(%rbp,%rcx,4), %eax
	jg	.LBB35_6
# %bb.5:                                # %if.then5
	movl	-32(%rbp), %eax
	subl	$1, %eax
	cltq
	shlq	$3, %rax
	leaq	-96(%rbp), %rcx
	addq	%rax, %rcx
	movslq	-16(%rbp), %rax
	movl	(%rcx,%rax,4), %eax
	addl	$1, %eax
	movl	%eax, -28(%rbp)
	jmp	.LBB35_7
.LBB35_6:                               # %if.else
	movl	-32(%rbp), %eax
	movslq	-16(%rbp), %rcx
	subl	-64(%rbp,%rcx,4), %eax
	shll	$3, %eax
	movl	-16(%rbp), %ecx
	shll	$1, %ecx
	addl	%ecx, %eax
	movl	%eax, -28(%rbp)
.LBB35_7:                               # %if.end15
	movl	-28(%rbp), %eax
	cltd
	movl	$2, %ecx
	idivl	%ecx
	movl	%eax, -20(%rbp)
	movl	$0, -12(%rbp)
.LBB35_8:                               # %for.cond
                                        # =>This Inner Loop Header: Depth=1
	xorl	%eax, %eax
	cmpl	$16, -12(%rbp)
	jge	.LBB35_10
# %bb.9:                                # %land.rhs
                                        #   in Loop: Header=BB35_8 Depth=1
	cmpl	$0, -20(%rbp)
	setne	%al
.LBB35_10:                              # %land.end
                                        #   in Loop: Header=BB35_8 Depth=1
	testb	$1, %al
	jne	.LBB35_11
	jmp	.LBB35_13
.LBB35_11:                              # %for.body
                                        #   in Loop: Header=BB35_8 Depth=1
	movl	-20(%rbp), %eax
	cltd
	movl	$2, %ecx
	idivl	%ecx
	movl	%eax, -20(%rbp)
# %bb.12:                               # %for.inc
                                        #   in Loop: Header=BB35_8 Depth=1
	movl	-12(%rbp), %eax
	addl	$1, %eax
	movl	%eax, -12(%rbp)
	jmp	.LBB35_8
.LBB35_13:                              # %for.end
	vmovsd	.LCPI35_0(%rip), %xmm0  # xmm0 = mem[0],zero
	movl	-12(%rbp), %eax
	shll	$1, %eax
	addl	$1, %eax
	movq	-48(%rbp), %rcx
	movl	%eax, (%rcx)
	movl	-28(%rbp), %ebx
	vcvtsi2sdl	-12(%rbp), %xmm0, %xmm1
	callq	pow
	vcvttsd2si	%xmm0, %eax
	subl	%eax, %ebx
	addl	-36(%rbp), %ebx
	movq	-72(%rbp), %rax
	movl	%ebx, (%rax)
.LBB35_14:                              # %return
	cmpl	$763684924, -40(%rbp)   # imm = 0x2D84E83C
	jne	.LBB35_16
.LBB35_15:
	addq	$88, %rsp
	popq	%rbx
	popq	%rbp
	.cfi_def_cfa %rsp, 8
	retq
.LBB35_16:                              # %func_exit
	.cfi_def_cfa %rbp, 16
	callq	detect_breach
	jmp	.LBB35_15
.Lfunc_end35:
	.size	levrun_linfo_c2x2.8, .Lfunc_end35-levrun_linfo_c2x2.8
	.cfi_endproc
                                        # -- End function
	.section	.rodata.cst8,"aM",@progbits,8
	.p2align	3               # -- Begin function levrun_linfo_intra.9
.LCPI36_0:
	.quad	4611686018427387904     # double 2
	.text
	.globl	levrun_linfo_intra.9
	.p2align	4, 0x90
	.type	levrun_linfo_intra.9,@function
levrun_linfo_intra.9:                   # @levrun_linfo_intra.9
	.cfi_startproc
# %bb.0:                                # %entry
	pushq	%rbp
	.cfi_def_cfa_offset 16
	.cfi_offset %rbp, -16
	movq	%rsp, %rbp
	.cfi_def_cfa_register %rbp
	pushq	%rbx
	subq	$104, %rsp
	.cfi_offset %rbx, -24
	movl	$1249509312, -40(%rbp)  # imm = 0x4A79FFC0
	movl	%edi, -32(%rbp)
	movl	%esi, -16(%rbp)
	movq	%rdx, -48(%rbp)
	movq	%rcx, -64(%rbp)
	movq	.L__const.levrun_linfo_intra.LEVRUN, %rax
	movq	%rax, -56(%rbp)
	leaq	-112(%rbp), %rdi
	movabsq	$.L__const.levrun_linfo_intra.NTAB, %rsi
	movl	$45, %edx
	callq	memcpy
	cmpl	$0, -32(%rbp)
	jne	.LBB36_2
# %bb.1:                                # %if.then
	movq	-48(%rbp), %rax
	movl	$1, (%rax)
	jmp	.LBB36_15
.LBB36_2:                               # %if.end
	cmpl	$0, -32(%rbp)
	jg	.LBB36_4
# %bb.3:                                # %if.then2
	movl	$1, -36(%rbp)
	jmp	.LBB36_5
.LBB36_4:                               # %if.else
	movl	$0, -36(%rbp)
.LBB36_5:                               # %if.end3
	movl	-32(%rbp), %edi
	callq	abs
	movl	%eax, -24(%rbp)
	movl	-24(%rbp), %eax
	movslq	-16(%rbp), %rcx
	movzbl	-56(%rbp,%rcx), %ecx
	cmpl	%ecx, %eax
	jg	.LBB36_7
# %bb.6:                                # %if.then6
	movl	-24(%rbp), %eax
	subl	$1, %eax
	cltq
	imulq	$5, %rax, %rax
	leaq	-112(%rbp), %rcx
	addq	%rax, %rcx
	movslq	-16(%rbp), %rax
	movzbl	(%rcx,%rax), %eax
	addl	$1, %eax
	movl	%eax, -20(%rbp)
	jmp	.LBB36_8
.LBB36_7:                               # %if.else12
	movl	-24(%rbp), %eax
	movslq	-16(%rbp), %rcx
	movzbl	-56(%rbp,%rcx), %ecx
	subl	%ecx, %eax
	shll	$4, %eax
	addl	$16, %eax
	movl	-16(%rbp), %ecx
	shll	$1, %ecx
	addl	%ecx, %eax
	movl	%eax, -20(%rbp)
.LBB36_8:                               # %if.end20
	movl	-20(%rbp), %eax
	cltd
	movl	$2, %ecx
	idivl	%ecx
	movl	%eax, -28(%rbp)
	movl	$0, -12(%rbp)
.LBB36_9:                               # %for.cond
                                        # =>This Inner Loop Header: Depth=1
	xorl	%eax, %eax
	cmpl	$16, -12(%rbp)
	jge	.LBB36_11
# %bb.10:                               # %land.rhs
                                        #   in Loop: Header=BB36_9 Depth=1
	cmpl	$0, -28(%rbp)
	setne	%al
.LBB36_11:                              # %land.end
                                        #   in Loop: Header=BB36_9 Depth=1
	testb	$1, %al
	jne	.LBB36_12
	jmp	.LBB36_14
.LBB36_12:                              # %for.body
                                        #   in Loop: Header=BB36_9 Depth=1
	movl	-28(%rbp), %eax
	cltd
	movl	$2, %ecx
	idivl	%ecx
	movl	%eax, -28(%rbp)
# %bb.13:                               # %for.inc
                                        #   in Loop: Header=BB36_9 Depth=1
	movl	-12(%rbp), %eax
	addl	$1, %eax
	movl	%eax, -12(%rbp)
	jmp	.LBB36_9
.LBB36_14:                              # %for.end
	vmovsd	.LCPI36_0(%rip), %xmm0  # xmm0 = mem[0],zero
	movl	-12(%rbp), %eax
	shll	$1, %eax
	addl	$1, %eax
	movq	-48(%rbp), %rcx
	movl	%eax, (%rcx)
	movl	-20(%rbp), %ebx
	vcvtsi2sdl	-12(%rbp), %xmm0, %xmm1
	callq	pow
	vcvttsd2si	%xmm0, %eax
	subl	%eax, %ebx
	addl	-36(%rbp), %ebx
	movq	-64(%rbp), %rax
	movl	%ebx, (%rax)
.LBB36_15:                              # %return
	cmpl	$1249509312, -40(%rbp)  # imm = 0x4A79FFC0
	jne	.LBB36_17
.LBB36_16:
	addq	$104, %rsp
	popq	%rbx
	popq	%rbp
	.cfi_def_cfa %rsp, 8
	retq
.LBB36_17:                              # %func_exit
	.cfi_def_cfa %rbp, 16
	callq	detect_breach
	jmp	.LBB36_16
.Lfunc_end36:
	.size	levrun_linfo_intra.9, .Lfunc_end36-levrun_linfo_intra.9
	.cfi_endproc
                                        # -- End function
	.section	.rodata.cst8,"aM",@progbits,8
	.p2align	3               # -- Begin function levrun_linfo_c2x2.10
.LCPI37_0:
	.quad	4611686018427387904     # double 2
	.text
	.globl	levrun_linfo_c2x2.10
	.p2align	4, 0x90
	.type	levrun_linfo_c2x2.10,@function
levrun_linfo_c2x2.10:                   # @levrun_linfo_c2x2.10
	.cfi_startproc
# %bb.0:                                # %entry
	pushq	%rbp
	.cfi_def_cfa_offset 16
	.cfi_offset %rbp, -16
	movq	%rsp, %rbp
	.cfi_def_cfa_register %rbp
	pushq	%rbx
	subq	$88, %rsp
	.cfi_offset %rbx, -24
	movl	$572850525, -40(%rbp)   # imm = 0x2225015D
	movl	%edi, -32(%rbp)
	movl	%esi, -16(%rbp)
	movq	%rdx, -48(%rbp)
	movq	%rcx, -72(%rbp)
	movq	.L__const.levrun_linfo_c2x2.NTAB, %rax
	movq	%rax, -96(%rbp)
	movq	.L__const.levrun_linfo_c2x2.NTAB+8, %rax
	movq	%rax, -88(%rbp)
	movq	.L__const.levrun_linfo_c2x2.LEVRUN, %rax
	movq	%rax, -64(%rbp)
	movq	.L__const.levrun_linfo_c2x2.LEVRUN+8, %rax
	movq	%rax, -56(%rbp)
	cmpl	$0, -32(%rbp)
	jne	.LBB37_2
# %bb.1:                                # %if.then
	movq	-48(%rbp), %rax
	movl	$1, (%rax)
	jmp	.LBB37_14
.LBB37_2:                               # %if.end
	movl	$0, -36(%rbp)
	cmpl	$0, -32(%rbp)
	jg	.LBB37_4
# %bb.3:                                # %if.then2
	movl	$1, -36(%rbp)
.LBB37_4:                               # %if.end3
	movl	-32(%rbp), %edi
	callq	abs
	movl	%eax, -20(%rbp)
	movl	-20(%rbp), %eax
	movslq	-16(%rbp), %rcx
	cmpl	-64(%rbp,%rcx,4), %eax
	jg	.LBB37_6
# %bb.5:                                # %if.then5
	movl	-20(%rbp), %eax
	subl	$1, %eax
	cltq
	shlq	$3, %rax
	leaq	-96(%rbp), %rcx
	addq	%rax, %rcx
	movslq	-16(%rbp), %rax
	movl	(%rcx,%rax,4), %eax
	addl	$1, %eax
	movl	%eax, -24(%rbp)
	jmp	.LBB37_7
.LBB37_6:                               # %if.else
	movl	-20(%rbp), %eax
	movslq	-16(%rbp), %rcx
	subl	-64(%rbp,%rcx,4), %eax
	shll	$3, %eax
	movl	-16(%rbp), %ecx
	shll	$1, %ecx
	addl	%ecx, %eax
	movl	%eax, -24(%rbp)
.LBB37_7:                               # %if.end15
	movl	-24(%rbp), %eax
	cltd
	movl	$2, %ecx
	idivl	%ecx
	movl	%eax, -28(%rbp)
	movl	$0, -12(%rbp)
.LBB37_8:                               # %for.cond
                                        # =>This Inner Loop Header: Depth=1
	xorl	%eax, %eax
	cmpl	$16, -12(%rbp)
	jge	.LBB37_10
# %bb.9:                                # %land.rhs
                                        #   in Loop: Header=BB37_8 Depth=1
	cmpl	$0, -28(%rbp)
	setne	%al
.LBB37_10:                              # %land.end
                                        #   in Loop: Header=BB37_8 Depth=1
	testb	$1, %al
	jne	.LBB37_11
	jmp	.LBB37_13
.LBB37_11:                              # %for.body
                                        #   in Loop: Header=BB37_8 Depth=1
	movl	-28(%rbp), %eax
	cltd
	movl	$2, %ecx
	idivl	%ecx
	movl	%eax, -28(%rbp)
# %bb.12:                               # %for.inc
                                        #   in Loop: Header=BB37_8 Depth=1
	movl	-12(%rbp), %eax
	addl	$1, %eax
	movl	%eax, -12(%rbp)
	jmp	.LBB37_8
.LBB37_13:                              # %for.end
	vmovsd	.LCPI37_0(%rip), %xmm0  # xmm0 = mem[0],zero
	movl	-12(%rbp), %eax
	shll	$1, %eax
	addl	$1, %eax
	movq	-48(%rbp), %rcx
	movl	%eax, (%rcx)
	movl	-24(%rbp), %ebx
	vcvtsi2sdl	-12(%rbp), %xmm0, %xmm1
	callq	pow
	vcvttsd2si	%xmm0, %eax
	subl	%eax, %ebx
	addl	-36(%rbp), %ebx
	movq	-72(%rbp), %rax
	movl	%ebx, (%rax)
.LBB37_14:                              # %return
	cmpl	$572850525, -40(%rbp)   # imm = 0x2225015D
	jne	.LBB37_16
.LBB37_15:
	addq	$88, %rsp
	popq	%rbx
	popq	%rbp
	.cfi_def_cfa %rsp, 8
	retq
.LBB37_16:                              # %func_exit
	.cfi_def_cfa %rbp, 16
	callq	detect_breach
	jmp	.LBB37_15
.Lfunc_end37:
	.size	levrun_linfo_c2x2.10, .Lfunc_end37-levrun_linfo_c2x2.10
	.cfi_endproc
                                        # -- End function
	.globl	se_v.11                 # -- Begin function se_v.11
	.p2align	4, 0x90
	.type	se_v.11,@function
se_v.11:                                # @se_v.11
	.cfi_startproc
# %bb.0:                                # %entry
	pushq	%rbp
	.cfi_def_cfa_offset 16
	.cfi_offset %rbp, -16
	movq	%rsp, %rbp
	.cfi_def_cfa_register %rbp
	pushq	%rbx
	subq	$88, %rsp
	.cfi_offset %rbx, -24
	movl	$1567917517, -24(%rbp)  # imm = 0x5D7485CD
	movq	%rdi, -40(%rbp)
	movl	%esi, -20(%rbp)
	movq	%rdx, -32(%rbp)
	leaq	-88(%rbp), %rax
	movq	%rax, -16(%rbp)
	movq	-16(%rbp), %rax
	movl	$0, (%rax)
	movq	-16(%rbp), %rax
	movabsq	$se_linfo, %rcx
	movq	%rcx, 32(%rax)
	movl	-20(%rbp), %eax
	movq	-16(%rbp), %rcx
	movl	%eax, 4(%rcx)
	movq	-16(%rbp), %rax
	movl	$0, 8(%rax)
	movq	-16(%rbp), %rdi
	movq	-32(%rbp), %rsi
	callq	writeSyntaxElement_UVLC
	movl	%eax, %ebx
	cmpl	$1567917517, -24(%rbp)  # imm = 0x5D7485CD
	jne	.LBB38_2
.LBB38_1:
	movl	%ebx, %eax
	addq	$88, %rsp
	popq	%rbx
	popq	%rbp
	.cfi_def_cfa %rsp, 8
	retq
.LBB38_2:                               # %func_exit
	.cfi_def_cfa %rbp, 16
	callq	detect_breach
	jmp	.LBB38_1
.Lfunc_end38:
	.size	se_v.11, .Lfunc_end38-se_v.11
	.cfi_endproc
                                        # -- End function
	.globl	writeSyntaxElement_TotalZeros.12 # -- Begin function writeSyntaxElement_TotalZeros.12
	.p2align	4, 0x90
	.type	writeSyntaxElement_TotalZeros.12,@function
writeSyntaxElement_TotalZeros.12:       # @writeSyntaxElement_TotalZeros.12
	.cfi_startproc
# %bb.0:                                # %entry
	pushq	%rbp
	.cfi_def_cfa_offset 16
	.cfi_offset %rbp, -16
	movq	%rsp, %rbp
	.cfi_def_cfa_register %rbp
	pushq	%rbx
	subq	$24, %rsp
	.cfi_offset %rbx, -24
	movabsq	$writeSyntaxElement_TotalZeros.codtab, %rax
	movabsq	$writeSyntaxElement_TotalZeros.lentab, %rcx
	movl	$120954921, -24(%rbp)   # imm = 0x735A029
	movq	%rdi, -16(%rbp)
	movq	%rsi, -32(%rbp)
	movq	-16(%rbp), %rdx
	movl	12(%rdx), %edx
	movl	%edx, -20(%rbp)
	movslq	-20(%rbp), %rdx
	shlq	$6, %rdx
	addq	%rdx, %rcx
	movq	-16(%rbp), %rdx
	movslq	4(%rdx), %rdx
	movl	(%rcx,%rdx,4), %ecx
	movq	-16(%rbp), %rdx
	movl	%ecx, 12(%rdx)
	movslq	-20(%rbp), %rcx
	shlq	$6, %rcx
	addq	%rcx, %rax
	movq	-16(%rbp), %rcx
	movslq	4(%rcx), %rcx
	movl	(%rax,%rcx,4), %eax
	movq	-16(%rbp), %rcx
	movl	%eax, 16(%rcx)
	movq	-16(%rbp), %rax
	cmpl	$0, 12(%rax)
	jne	.LBB39_2
# %bb.1:                                # %if.then
	movq	-16(%rbp), %rax
	movl	4(%rax), %esi
	movabsq	$.L.str.2, %rdi
	movb	$0, %al
	callq	printf
	movl	$4294967295, %edi       # imm = 0xFFFFFFFF
	callq	exit
.LBB39_2:                               # %if.end
	movq	-16(%rbp), %rdi
	callq	symbol2vlc
	movq	-16(%rbp), %rdi
	movq	-32(%rbp), %rax
	movq	(%rax), %rsi
	callq	writeUVLC2buffer
	movq	-16(%rbp), %rax
	movl	12(%rax), %ebx
	cmpl	$120954921, -24(%rbp)   # imm = 0x735A029
	jne	.LBB39_4
.LBB39_3:
	movl	%ebx, %eax
	addq	$24, %rsp
	popq	%rbx
	popq	%rbp
	.cfi_def_cfa %rsp, 8
	retq
.LBB39_4:                               # %func_exit
	.cfi_def_cfa %rbp, 16
	callq	detect_breach
	jmp	.LBB39_3
.Lfunc_end39:
	.size	writeSyntaxElement_TotalZeros.12, .Lfunc_end39-writeSyntaxElement_TotalZeros.12
	.cfi_endproc
                                        # -- End function
	.globl	writeSyntaxElement_TotalZerosChromaDC.13 # -- Begin function writeSyntaxElement_TotalZerosChromaDC.13
	.p2align	4, 0x90
	.type	writeSyntaxElement_TotalZerosChromaDC.13,@function
writeSyntaxElement_TotalZerosChromaDC.13: # @writeSyntaxElement_TotalZerosChromaDC.13
	.cfi_startproc
# %bb.0:                                # %entry
	pushq	%rbp
	.cfi_def_cfa_offset 16
	.cfi_offset %rbp, -16
	movq	%rsp, %rbp
	.cfi_def_cfa_register %rbp
	pushq	%rbx
	subq	$40, %rsp
	.cfi_offset %rbx, -24
	movabsq	$writeSyntaxElement_TotalZerosChromaDC.codtab, %rax
	movabsq	$writeSyntaxElement_TotalZerosChromaDC.lentab, %rcx
	movl	$38143233, -28(%rbp)    # imm = 0x2460501
	movq	%rdi, -16(%rbp)
	movq	%rsi, -40(%rbp)
	movq	img, %rdx
	movl	72700(%rdx), %edx
	subl	$1, %edx
	movl	%edx, -24(%rbp)
	movq	-16(%rbp), %rdx
	movl	12(%rdx), %edx
	movl	%edx, -20(%rbp)
	movslq	-24(%rbp), %rdx
	imulq	$960, %rdx, %rdx        # imm = 0x3C0
	addq	%rdx, %rcx
	movslq	-20(%rbp), %rdx
	shlq	$6, %rdx
	addq	%rdx, %rcx
	movq	-16(%rbp), %rdx
	movslq	4(%rdx), %rdx
	movl	(%rcx,%rdx,4), %ecx
	movq	-16(%rbp), %rdx
	movl	%ecx, 12(%rdx)
	movslq	-24(%rbp), %rcx
	imulq	$960, %rcx, %rcx        # imm = 0x3C0
	addq	%rcx, %rax
	movslq	-20(%rbp), %rcx
	shlq	$6, %rcx
	addq	%rcx, %rax
	movq	-16(%rbp), %rcx
	movslq	4(%rcx), %rcx
	movl	(%rax,%rcx,4), %eax
	movq	-16(%rbp), %rcx
	movl	%eax, 16(%rcx)
	movq	-16(%rbp), %rax
	cmpl	$0, 12(%rax)
	jne	.LBB40_2
# %bb.1:                                # %if.then
	movq	-16(%rbp), %rax
	movl	4(%rax), %esi
	movabsq	$.L.str.2, %rdi
	movb	$0, %al
	callq	printf
	movl	$4294967295, %edi       # imm = 0xFFFFFFFF
	callq	exit
.LBB40_2:                               # %if.end
	movq	-16(%rbp), %rdi
	callq	symbol2vlc
	movq	-16(%rbp), %rdi
	movq	-40(%rbp), %rax
	movq	(%rax), %rsi
	callq	writeUVLC2buffer
	movq	-16(%rbp), %rax
	movl	12(%rax), %ebx
	cmpl	$38143233, -28(%rbp)    # imm = 0x2460501
	jne	.LBB40_4
.LBB40_3:
	movl	%ebx, %eax
	addq	$40, %rsp
	popq	%rbx
	popq	%rbp
	.cfi_def_cfa %rsp, 8
	retq
.LBB40_4:                               # %func_exit
	.cfi_def_cfa %rbp, 16
	callq	detect_breach
	jmp	.LBB40_3
.Lfunc_end40:
	.size	writeSyntaxElement_TotalZerosChromaDC.13, .Lfunc_end40-writeSyntaxElement_TotalZerosChromaDC.13
	.cfi_endproc
                                        # -- End function
	.globl	writeSyntaxElement_TotalZerosChromaDC.14 # -- Begin function writeSyntaxElement_TotalZerosChromaDC.14
	.p2align	4, 0x90
	.type	writeSyntaxElement_TotalZerosChromaDC.14,@function
writeSyntaxElement_TotalZerosChromaDC.14: # @writeSyntaxElement_TotalZerosChromaDC.14
	.cfi_startproc
# %bb.0:                                # %entry
	pushq	%rbp
	.cfi_def_cfa_offset 16
	.cfi_offset %rbp, -16
	movq	%rsp, %rbp
	.cfi_def_cfa_register %rbp
	pushq	%rbx
	subq	$40, %rsp
	.cfi_offset %rbx, -24
	movabsq	$writeSyntaxElement_TotalZerosChromaDC.codtab, %rax
	movabsq	$writeSyntaxElement_TotalZerosChromaDC.lentab, %rcx
	movl	$1538307701, -28(%rbp)  # imm = 0x5BB0B675
	movq	%rdi, -16(%rbp)
	movq	%rsi, -40(%rbp)
	movq	img, %rdx
	movl	72700(%rdx), %edx
	subl	$1, %edx
	movl	%edx, -24(%rbp)
	movq	-16(%rbp), %rdx
	movl	12(%rdx), %edx
	movl	%edx, -20(%rbp)
	movslq	-24(%rbp), %rdx
	imulq	$960, %rdx, %rdx        # imm = 0x3C0
	addq	%rdx, %rcx
	movslq	-20(%rbp), %rdx
	shlq	$6, %rdx
	addq	%rdx, %rcx
	movq	-16(%rbp), %rdx
	movslq	4(%rdx), %rdx
	movl	(%rcx,%rdx,4), %ecx
	movq	-16(%rbp), %rdx
	movl	%ecx, 12(%rdx)
	movslq	-24(%rbp), %rcx
	imulq	$960, %rcx, %rcx        # imm = 0x3C0
	addq	%rcx, %rax
	movslq	-20(%rbp), %rcx
	shlq	$6, %rcx
	addq	%rcx, %rax
	movq	-16(%rbp), %rcx
	movslq	4(%rcx), %rcx
	movl	(%rax,%rcx,4), %eax
	movq	-16(%rbp), %rcx
	movl	%eax, 16(%rcx)
	movq	-16(%rbp), %rax
	cmpl	$0, 12(%rax)
	jne	.LBB41_2
# %bb.1:                                # %if.then
	movq	-16(%rbp), %rax
	movl	4(%rax), %esi
	movabsq	$.L.str.2, %rdi
	movb	$0, %al
	callq	printf
	movl	$4294967295, %edi       # imm = 0xFFFFFFFF
	callq	exit
.LBB41_2:                               # %if.end
	movq	-16(%rbp), %rdi
	callq	symbol2vlc
	movq	-16(%rbp), %rdi
	movq	-40(%rbp), %rax
	movq	(%rax), %rsi
	callq	writeUVLC2buffer
	movq	-16(%rbp), %rax
	movl	12(%rax), %ebx
	cmpl	$1538307701, -28(%rbp)  # imm = 0x5BB0B675
	jne	.LBB41_4
.LBB41_3:
	movl	%ebx, %eax
	addq	$40, %rsp
	popq	%rbx
	popq	%rbp
	.cfi_def_cfa %rsp, 8
	retq
.LBB41_4:                               # %func_exit
	.cfi_def_cfa %rbp, 16
	callq	detect_breach
	jmp	.LBB41_3
.Lfunc_end41:
	.size	writeSyntaxElement_TotalZerosChromaDC.14, .Lfunc_end41-writeSyntaxElement_TotalZerosChromaDC.14
	.cfi_endproc
                                        # -- End function
	.section	.rodata.cst8,"aM",@progbits,8
	.p2align	3               # -- Begin function levrun_linfo_c2x2.15
.LCPI42_0:
	.quad	4611686018427387904     # double 2
	.text
	.globl	levrun_linfo_c2x2.15
	.p2align	4, 0x90
	.type	levrun_linfo_c2x2.15,@function
levrun_linfo_c2x2.15:                   # @levrun_linfo_c2x2.15
	.cfi_startproc
# %bb.0:                                # %entry
	pushq	%rbp
	.cfi_def_cfa_offset 16
	.cfi_offset %rbp, -16
	movq	%rsp, %rbp
	.cfi_def_cfa_register %rbp
	pushq	%rbx
	subq	$88, %rsp
	.cfi_offset %rbx, -24
	movl	$401348, -40(%rbp)      # imm = 0x61FC4
	movl	%edi, -32(%rbp)
	movl	%esi, -16(%rbp)
	movq	%rdx, -48(%rbp)
	movq	%rcx, -72(%rbp)
	movq	.L__const.levrun_linfo_c2x2.NTAB, %rax
	movq	%rax, -96(%rbp)
	movq	.L__const.levrun_linfo_c2x2.NTAB+8, %rax
	movq	%rax, -88(%rbp)
	movq	.L__const.levrun_linfo_c2x2.LEVRUN, %rax
	movq	%rax, -64(%rbp)
	movq	.L__const.levrun_linfo_c2x2.LEVRUN+8, %rax
	movq	%rax, -56(%rbp)
	cmpl	$0, -32(%rbp)
	jne	.LBB42_2
# %bb.1:                                # %if.then
	movq	-48(%rbp), %rax
	movl	$1, (%rax)
	jmp	.LBB42_14
.LBB42_2:                               # %if.end
	movl	$0, -36(%rbp)
	cmpl	$0, -32(%rbp)
	jg	.LBB42_4
# %bb.3:                                # %if.then2
	movl	$1, -36(%rbp)
.LBB42_4:                               # %if.end3
	movl	-32(%rbp), %edi
	callq	abs
	movl	%eax, -24(%rbp)
	movl	-24(%rbp), %eax
	movslq	-16(%rbp), %rcx
	cmpl	-64(%rbp,%rcx,4), %eax
	jg	.LBB42_6
# %bb.5:                                # %if.then5
	movl	-24(%rbp), %eax
	subl	$1, %eax
	cltq
	shlq	$3, %rax
	leaq	-96(%rbp), %rcx
	addq	%rax, %rcx
	movslq	-16(%rbp), %rax
	movl	(%rcx,%rax,4), %eax
	addl	$1, %eax
	movl	%eax, -20(%rbp)
	jmp	.LBB42_7
.LBB42_6:                               # %if.else
	movl	-24(%rbp), %eax
	movslq	-16(%rbp), %rcx
	subl	-64(%rbp,%rcx,4), %eax
	shll	$3, %eax
	movl	-16(%rbp), %ecx
	shll	$1, %ecx
	addl	%ecx, %eax
	movl	%eax, -20(%rbp)
.LBB42_7:                               # %if.end15
	movl	-20(%rbp), %eax
	cltd
	movl	$2, %ecx
	idivl	%ecx
	movl	%eax, -28(%rbp)
	movl	$0, -12(%rbp)
.LBB42_8:                               # %for.cond
                                        # =>This Inner Loop Header: Depth=1
	xorl	%eax, %eax
	cmpl	$16, -12(%rbp)
	jge	.LBB42_10
# %bb.9:                                # %land.rhs
                                        #   in Loop: Header=BB42_8 Depth=1
	cmpl	$0, -28(%rbp)
	setne	%al
.LBB42_10:                              # %land.end
                                        #   in Loop: Header=BB42_8 Depth=1
	testb	$1, %al
	jne	.LBB42_11
	jmp	.LBB42_13
.LBB42_11:                              # %for.body
                                        #   in Loop: Header=BB42_8 Depth=1
	movl	-28(%rbp), %eax
	cltd
	movl	$2, %ecx
	idivl	%ecx
	movl	%eax, -28(%rbp)
# %bb.12:                               # %for.inc
                                        #   in Loop: Header=BB42_8 Depth=1
	movl	-12(%rbp), %eax
	addl	$1, %eax
	movl	%eax, -12(%rbp)
	jmp	.LBB42_8
.LBB42_13:                              # %for.end
	vmovsd	.LCPI42_0(%rip), %xmm0  # xmm0 = mem[0],zero
	movl	-12(%rbp), %eax
	shll	$1, %eax
	addl	$1, %eax
	movq	-48(%rbp), %rcx
	movl	%eax, (%rcx)
	movl	-20(%rbp), %ebx
	vcvtsi2sdl	-12(%rbp), %xmm0, %xmm1
	callq	pow
	vcvttsd2si	%xmm0, %eax
	subl	%eax, %ebx
	addl	-36(%rbp), %ebx
	movq	-72(%rbp), %rax
	movl	%ebx, (%rax)
.LBB42_14:                              # %return
	cmpl	$401348, -40(%rbp)      # imm = 0x61FC4
	jne	.LBB42_16
.LBB42_15:
	addq	$88, %rsp
	popq	%rbx
	popq	%rbp
	.cfi_def_cfa %rsp, 8
	retq
.LBB42_16:                              # %func_exit
	.cfi_def_cfa %rbp, 16
	callq	detect_breach
	jmp	.LBB42_15
.Lfunc_end42:
	.size	levrun_linfo_c2x2.15, .Lfunc_end42-levrun_linfo_c2x2.15
	.cfi_endproc
                                        # -- End function
	.globl	writeSyntaxElement_TotalZeros.16 # -- Begin function writeSyntaxElement_TotalZeros.16
	.p2align	4, 0x90
	.type	writeSyntaxElement_TotalZeros.16,@function
writeSyntaxElement_TotalZeros.16:       # @writeSyntaxElement_TotalZeros.16
	.cfi_startproc
# %bb.0:                                # %entry
	pushq	%rbp
	.cfi_def_cfa_offset 16
	.cfi_offset %rbp, -16
	movq	%rsp, %rbp
	.cfi_def_cfa_register %rbp
	pushq	%rbx
	subq	$24, %rsp
	.cfi_offset %rbx, -24
	movabsq	$writeSyntaxElement_TotalZeros.codtab, %rax
	movabsq	$writeSyntaxElement_TotalZeros.lentab, %rcx
	movl	$1935806329, -24(%rbp)  # imm = 0x73620F79
	movq	%rdi, -16(%rbp)
	movq	%rsi, -32(%rbp)
	movq	-16(%rbp), %rdx
	movl	12(%rdx), %edx
	movl	%edx, -20(%rbp)
	movslq	-20(%rbp), %rdx
	shlq	$6, %rdx
	addq	%rdx, %rcx
	movq	-16(%rbp), %rdx
	movslq	4(%rdx), %rdx
	movl	(%rcx,%rdx,4), %ecx
	movq	-16(%rbp), %rdx
	movl	%ecx, 12(%rdx)
	movslq	-20(%rbp), %rcx
	shlq	$6, %rcx
	addq	%rcx, %rax
	movq	-16(%rbp), %rcx
	movslq	4(%rcx), %rcx
	movl	(%rax,%rcx,4), %eax
	movq	-16(%rbp), %rcx
	movl	%eax, 16(%rcx)
	movq	-16(%rbp), %rax
	cmpl	$0, 12(%rax)
	jne	.LBB43_2
# %bb.1:                                # %if.then
	movq	-16(%rbp), %rax
	movl	4(%rax), %esi
	movabsq	$.L.str.2, %rdi
	movb	$0, %al
	callq	printf
	movl	$4294967295, %edi       # imm = 0xFFFFFFFF
	callq	exit
.LBB43_2:                               # %if.end
	movq	-16(%rbp), %rdi
	callq	symbol2vlc
	movq	-16(%rbp), %rdi
	movq	-32(%rbp), %rax
	movq	(%rax), %rsi
	callq	writeUVLC2buffer
	movq	-16(%rbp), %rax
	movl	12(%rax), %ebx
	cmpl	$1935806329, -24(%rbp)  # imm = 0x73620F79
	jne	.LBB43_4
.LBB43_3:
	movl	%ebx, %eax
	addq	$24, %rsp
	popq	%rbx
	popq	%rbp
	.cfi_def_cfa %rsp, 8
	retq
.LBB43_4:                               # %func_exit
	.cfi_def_cfa %rbp, 16
	callq	detect_breach
	jmp	.LBB43_3
.Lfunc_end43:
	.size	writeSyntaxElement_TotalZeros.16, .Lfunc_end43-writeSyntaxElement_TotalZeros.16
	.cfi_endproc
                                        # -- End function
	.globl	writeSyntaxElement_UVLC.17 # -- Begin function writeSyntaxElement_UVLC.17
	.p2align	4, 0x90
	.type	writeSyntaxElement_UVLC.17,@function
writeSyntaxElement_UVLC.17:             # @writeSyntaxElement_UVLC.17
	.cfi_startproc
# %bb.0:                                # %entry
	pushq	%rbp
	.cfi_def_cfa_offset 16
	.cfi_offset %rbp, -16
	movq	%rsp, %rbp
	.cfi_def_cfa_register %rbp
	pushq	%rbx
	subq	$24, %rsp
	.cfi_offset %rbx, -24
	movl	$1827523830, -20(%rbp)  # imm = 0x6CEDCCF6
	movq	%rdi, -16(%rbp)
	movq	%rsi, -32(%rbp)
	movq	-16(%rbp), %rax
	movq	32(%rax), %rax
	movq	-16(%rbp), %rcx
	movl	4(%rcx), %edi
	movq	-16(%rbp), %rcx
	movl	8(%rcx), %esi
	movq	-16(%rbp), %rdx
	addq	$12, %rdx
	movq	-16(%rbp), %rcx
	addq	$16, %rcx
	callq	*%rax
	movq	-16(%rbp), %rdi
	callq	symbol2uvlc
	movq	-16(%rbp), %rdi
	movq	-32(%rbp), %rax
	movq	(%rax), %rsi
	callq	writeUVLC2buffer
	movq	-16(%rbp), %rax
	cmpl	$0, (%rax)
	je	.LBB44_2
# %bb.1:                                # %if.then
	movq	-32(%rbp), %rax
	movq	(%rax), %rax
	movl	$1, 40(%rax)
.LBB44_2:                               # %if.end
	movq	-16(%rbp), %rax
	movl	12(%rax), %ebx
	cmpl	$1827523830, -20(%rbp)  # imm = 0x6CEDCCF6
	jne	.LBB44_4
.LBB44_3:
	movl	%ebx, %eax
	addq	$24, %rsp
	popq	%rbx
	popq	%rbp
	.cfi_def_cfa %rsp, 8
	retq
.LBB44_4:                               # %func_exit
	.cfi_def_cfa %rbp, 16
	callq	detect_breach
	jmp	.LBB44_3
.Lfunc_end44:
	.size	writeSyntaxElement_UVLC.17, .Lfunc_end44-writeSyntaxElement_UVLC.17
	.cfi_endproc
                                        # -- End function
	.section	.rodata.cst8,"aM",@progbits,8
	.p2align	3               # -- Begin function levrun_linfo_c2x2.18
.LCPI45_0:
	.quad	4611686018427387904     # double 2
	.text
	.globl	levrun_linfo_c2x2.18
	.p2align	4, 0x90
	.type	levrun_linfo_c2x2.18,@function
levrun_linfo_c2x2.18:                   # @levrun_linfo_c2x2.18
	.cfi_startproc
# %bb.0:                                # %entry
	pushq	%rbp
	.cfi_def_cfa_offset 16
	.cfi_offset %rbp, -16
	movq	%rsp, %rbp
	.cfi_def_cfa_register %rbp
	pushq	%rbx
	subq	$88, %rsp
	.cfi_offset %rbx, -24
	movl	$833474935, -40(%rbp)   # imm = 0x31ADD177
	movl	%edi, -28(%rbp)
	movl	%esi, -16(%rbp)
	movq	%rdx, -48(%rbp)
	movq	%rcx, -72(%rbp)
	movq	.L__const.levrun_linfo_c2x2.NTAB, %rax
	movq	%rax, -96(%rbp)
	movq	.L__const.levrun_linfo_c2x2.NTAB+8, %rax
	movq	%rax, -88(%rbp)
	movq	.L__const.levrun_linfo_c2x2.LEVRUN, %rax
	movq	%rax, -64(%rbp)
	movq	.L__const.levrun_linfo_c2x2.LEVRUN+8, %rax
	movq	%rax, -56(%rbp)
	cmpl	$0, -28(%rbp)
	jne	.LBB45_2
# %bb.1:                                # %if.then
	movq	-48(%rbp), %rax
	movl	$1, (%rax)
	jmp	.LBB45_14
.LBB45_2:                               # %if.end
	movl	$0, -36(%rbp)
	cmpl	$0, -28(%rbp)
	jg	.LBB45_4
# %bb.3:                                # %if.then2
	movl	$1, -36(%rbp)
.LBB45_4:                               # %if.end3
	movl	-28(%rbp), %edi
	callq	abs
	movl	%eax, -24(%rbp)
	movl	-24(%rbp), %eax
	movslq	-16(%rbp), %rcx
	cmpl	-64(%rbp,%rcx,4), %eax
	jg	.LBB45_6
# %bb.5:                                # %if.then5
	movl	-24(%rbp), %eax
	subl	$1, %eax
	cltq
	shlq	$3, %rax
	leaq	-96(%rbp), %rcx
	addq	%rax, %rcx
	movslq	-16(%rbp), %rax
	movl	(%rcx,%rax,4), %eax
	addl	$1, %eax
	movl	%eax, -32(%rbp)
	jmp	.LBB45_7
.LBB45_6:                               # %if.else
	movl	-24(%rbp), %eax
	movslq	-16(%rbp), %rcx
	subl	-64(%rbp,%rcx,4), %eax
	shll	$3, %eax
	movl	-16(%rbp), %ecx
	shll	$1, %ecx
	addl	%ecx, %eax
	movl	%eax, -32(%rbp)
.LBB45_7:                               # %if.end15
	movl	-32(%rbp), %eax
	cltd
	movl	$2, %ecx
	idivl	%ecx
	movl	%eax, -20(%rbp)
	movl	$0, -12(%rbp)
.LBB45_8:                               # %for.cond
                                        # =>This Inner Loop Header: Depth=1
	xorl	%eax, %eax
	cmpl	$16, -12(%rbp)
	jge	.LBB45_10
# %bb.9:                                # %land.rhs
                                        #   in Loop: Header=BB45_8 Depth=1
	cmpl	$0, -20(%rbp)
	setne	%al
.LBB45_10:                              # %land.end
                                        #   in Loop: Header=BB45_8 Depth=1
	testb	$1, %al
	jne	.LBB45_11
	jmp	.LBB45_13
.LBB45_11:                              # %for.body
                                        #   in Loop: Header=BB45_8 Depth=1
	movl	-20(%rbp), %eax
	cltd
	movl	$2, %ecx
	idivl	%ecx
	movl	%eax, -20(%rbp)
# %bb.12:                               # %for.inc
                                        #   in Loop: Header=BB45_8 Depth=1
	movl	-12(%rbp), %eax
	addl	$1, %eax
	movl	%eax, -12(%rbp)
	jmp	.LBB45_8
.LBB45_13:                              # %for.end
	vmovsd	.LCPI45_0(%rip), %xmm0  # xmm0 = mem[0],zero
	movl	-12(%rbp), %eax
	shll	$1, %eax
	addl	$1, %eax
	movq	-48(%rbp), %rcx
	movl	%eax, (%rcx)
	movl	-32(%rbp), %ebx
	vcvtsi2sdl	-12(%rbp), %xmm0, %xmm1
	callq	pow
	vcvttsd2si	%xmm0, %eax
	subl	%eax, %ebx
	addl	-36(%rbp), %ebx
	movq	-72(%rbp), %rax
	movl	%ebx, (%rax)
.LBB45_14:                              # %return
	cmpl	$833474935, -40(%rbp)   # imm = 0x31ADD177
	jne	.LBB45_16
.LBB45_15:
	addq	$88, %rsp
	popq	%rbx
	popq	%rbp
	.cfi_def_cfa %rsp, 8
	retq
.LBB45_16:                              # %func_exit
	.cfi_def_cfa %rbp, 16
	callq	detect_breach
	jmp	.LBB45_15
.Lfunc_end45:
	.size	levrun_linfo_c2x2.18, .Lfunc_end45-levrun_linfo_c2x2.18
	.cfi_endproc
                                        # -- End function
	.globl	writeSyntaxElement_Run.19 # -- Begin function writeSyntaxElement_Run.19
	.p2align	4, 0x90
	.type	writeSyntaxElement_Run.19,@function
writeSyntaxElement_Run.19:              # @writeSyntaxElement_Run.19
	.cfi_startproc
# %bb.0:                                # %entry
	pushq	%rbp
	.cfi_def_cfa_offset 16
	.cfi_offset %rbp, -16
	movq	%rsp, %rbp
	.cfi_def_cfa_register %rbp
	pushq	%rbx
	subq	$24, %rsp
	.cfi_offset %rbx, -24
	movabsq	$writeSyntaxElement_Run.codtab, %rax
	movabsq	$writeSyntaxElement_Run.lentab, %rcx
	movl	$1118019063, -24(%rbp)  # imm = 0x42A39DF7
	movq	%rdi, -16(%rbp)
	movq	%rsi, -32(%rbp)
	movq	-16(%rbp), %rdx
	movl	12(%rdx), %edx
	movl	%edx, -20(%rbp)
	movslq	-20(%rbp), %rdx
	shlq	$6, %rdx
	addq	%rdx, %rcx
	movq	-16(%rbp), %rdx
	movslq	4(%rdx), %rdx
	movl	(%rcx,%rdx,4), %ecx
	movq	-16(%rbp), %rdx
	movl	%ecx, 12(%rdx)
	movslq	-20(%rbp), %rcx
	shlq	$6, %rcx
	addq	%rcx, %rax
	movq	-16(%rbp), %rcx
	movslq	4(%rcx), %rcx
	movl	(%rax,%rcx,4), %eax
	movq	-16(%rbp), %rcx
	movl	%eax, 16(%rcx)
	movq	-16(%rbp), %rax
	cmpl	$0, 12(%rax)
	jne	.LBB46_2
# %bb.1:                                # %if.then
	movq	-16(%rbp), %rax
	movl	4(%rax), %esi
	movabsq	$.L.str.3, %rdi
	movb	$0, %al
	callq	printf
	movl	$4294967295, %edi       # imm = 0xFFFFFFFF
	callq	exit
.LBB46_2:                               # %if.end
	movq	-16(%rbp), %rdi
	callq	symbol2vlc
	movq	-16(%rbp), %rdi
	movq	-32(%rbp), %rax
	movq	(%rax), %rsi
	callq	writeUVLC2buffer
	movq	-16(%rbp), %rax
	movl	12(%rax), %ebx
	cmpl	$1118019063, -24(%rbp)  # imm = 0x42A39DF7
	jne	.LBB46_4
.LBB46_3:
	movl	%ebx, %eax
	addq	$24, %rsp
	popq	%rbx
	popq	%rbp
	.cfi_def_cfa %rsp, 8
	retq
.LBB46_4:                               # %func_exit
	.cfi_def_cfa %rbp, 16
	callq	detect_breach
	jmp	.LBB46_3
.Lfunc_end46:
	.size	writeSyntaxElement_Run.19, .Lfunc_end46-writeSyntaxElement_Run.19
	.cfi_endproc
                                        # -- End function
	.section	.rodata.cst8,"aM",@progbits,8
	.p2align	3               # -- Begin function se_linfo.20
.LCPI47_0:
	.quad	4611686018427387904     # double 2
	.text
	.globl	se_linfo.20
	.p2align	4, 0x90
	.type	se_linfo.20,@function
se_linfo.20:                            # @se_linfo.20
	.cfi_startproc
# %bb.0:                                # %entry
	pushq	%rbp
	.cfi_def_cfa_offset 16
	.cfi_offset %rbp, -16
	movq	%rsp, %rbp
	.cfi_def_cfa_register %rbp
	pushq	%rbx
	subq	$56, %rsp
	.cfi_offset %rbx, -24
	movl	$674911436, -32(%rbp)   # imm = 0x283A54CC
	movl	%edi, -24(%rbp)
	movl	%esi, -52(%rbp)
	movq	%rdx, -48(%rbp)
	movq	%rcx, -40(%rbp)
	movl	$0, -20(%rbp)
	cmpl	$0, -24(%rbp)
	jg	.LBB47_2
# %bb.1:                                # %if.then
	movl	$1, -20(%rbp)
.LBB47_2:                               # %if.end
	movl	-24(%rbp), %edi
	callq	abs
	shll	$1, %eax
	movl	%eax, -28(%rbp)
	movl	-28(%rbp), %eax
	cltd
	movl	$2, %ecx
	idivl	%ecx
	movl	%eax, -16(%rbp)
	movl	$0, -12(%rbp)
.LBB47_3:                               # %for.cond
                                        # =>This Inner Loop Header: Depth=1
	xorl	%eax, %eax
	cmpl	$16, -12(%rbp)
	jge	.LBB47_5
# %bb.4:                                # %land.rhs
                                        #   in Loop: Header=BB47_3 Depth=1
	cmpl	$0, -16(%rbp)
	setne	%al
.LBB47_5:                               # %land.end
                                        #   in Loop: Header=BB47_3 Depth=1
	testb	$1, %al
	jne	.LBB47_6
	jmp	.LBB47_8
.LBB47_6:                               # %for.body
                                        #   in Loop: Header=BB47_3 Depth=1
	movl	-16(%rbp), %eax
	cltd
	movl	$2, %ecx
	idivl	%ecx
	movl	%eax, -16(%rbp)
# %bb.7:                                # %for.inc
                                        #   in Loop: Header=BB47_3 Depth=1
	movl	-12(%rbp), %eax
	addl	$1, %eax
	movl	%eax, -12(%rbp)
	jmp	.LBB47_3
.LBB47_8:                               # %for.end
	vmovsd	.LCPI47_0(%rip), %xmm0  # xmm0 = mem[0],zero
	movl	-12(%rbp), %eax
	shll	$1, %eax
	addl	$1, %eax
	movq	-48(%rbp), %rcx
	movl	%eax, (%rcx)
	movl	-28(%rbp), %ebx
	vcvtsi2sdl	-12(%rbp), %xmm0, %xmm1
	callq	pow
	vcvttsd2si	%xmm0, %eax
	subl	%eax, %ebx
	addl	-20(%rbp), %ebx
	movq	-40(%rbp), %rax
	movl	%ebx, (%rax)
	cmpl	$674911436, -32(%rbp)   # imm = 0x283A54CC
	jne	.LBB47_10
.LBB47_9:
	addq	$56, %rsp
	popq	%rbx
	popq	%rbp
	.cfi_def_cfa %rsp, 8
	retq
.LBB47_10:                              # %func_exit
	.cfi_def_cfa %rbp, 16
	callq	detect_breach
	jmp	.LBB47_9
.Lfunc_end47:
	.size	se_linfo.20, .Lfunc_end47-se_linfo.20
	.cfi_endproc
                                        # -- End function
	.globl	writeSyntaxElement_NumCoeffTrailingOnes.21 # -- Begin function writeSyntaxElement_NumCoeffTrailingOnes.21
	.p2align	4, 0x90
	.type	writeSyntaxElement_NumCoeffTrailingOnes.21,@function
writeSyntaxElement_NumCoeffTrailingOnes.21: # @writeSyntaxElement_NumCoeffTrailingOnes.21
	.cfi_startproc
# %bb.0:                                # %entry
	pushq	%rbp
	.cfi_def_cfa_offset 16
	.cfi_offset %rbp, -16
	movq	%rsp, %rbp
	.cfi_def_cfa_register %rbp
	pushq	%rbx
	subq	$24, %rsp
	.cfi_offset %rbx, -24
	movl	$272777085, -24(%rbp)   # imm = 0x10423F7D
	movq	%rdi, -16(%rbp)
	movq	%rsi, -32(%rbp)
	movq	-16(%rbp), %rax
	movl	12(%rax), %eax
	movl	%eax, -20(%rbp)
	cmpl	$3, -20(%rbp)
	jne	.LBB48_5
# %bb.1:                                # %if.then
	movq	-16(%rbp), %rax
	movl	$6, 12(%rax)
	movq	-16(%rbp), %rax
	cmpl	$0, 4(%rax)
	jle	.LBB48_3
# %bb.2:                                # %if.then3
	movq	-16(%rbp), %rax
	movl	4(%rax), %eax
	subl	$1, %eax
	shll	$2, %eax
	movq	-16(%rbp), %rcx
	orl	8(%rcx), %eax
	movq	-16(%rbp), %rcx
	movl	%eax, 16(%rcx)
	jmp	.LBB48_4
.LBB48_3:                               # %if.else
	movq	-16(%rbp), %rax
	movl	$3, 16(%rax)
.LBB48_4:                               # %if.end
	jmp	.LBB48_6
.LBB48_5:                               # %if.else6
	movslq	-20(%rbp), %rax
	imulq	$272, %rax, %rax        # imm = 0x110
	movabsq	$writeSyntaxElement_NumCoeffTrailingOnes.lentab, %rcx
	addq	%rax, %rcx
	movq	-16(%rbp), %rax
	movslq	8(%rax), %rax
	imulq	$68, %rax, %rax
	addq	%rax, %rcx
	movq	-16(%rbp), %rax
	movslq	4(%rax), %rax
	movl	(%rcx,%rax,4), %eax
	movq	-16(%rbp), %rcx
	movl	%eax, 12(%rcx)
	movslq	-20(%rbp), %rax
	imulq	$272, %rax, %rax        # imm = 0x110
	movabsq	$writeSyntaxElement_NumCoeffTrailingOnes.codtab, %rcx
	addq	%rax, %rcx
	movq	-16(%rbp), %rax
	movslq	8(%rax), %rax
	imulq	$68, %rax, %rax
	addq	%rax, %rcx
	movq	-16(%rbp), %rax
	movslq	4(%rax), %rax
	movl	(%rcx,%rax,4), %eax
	movq	-16(%rbp), %rcx
	movl	%eax, 16(%rcx)
.LBB48_6:                               # %if.end23
	movq	-16(%rbp), %rax
	cmpl	$0, 12(%rax)
	jne	.LBB48_8
# %bb.7:                                # %if.then26
	movl	-20(%rbp), %esi
	movq	-16(%rbp), %rax
	movl	4(%rax), %edx
	movq	-16(%rbp), %rax
	movl	8(%rax), %ecx
	movabsq	$.L.str, %rdi
	movb	$0, %al
	callq	printf
	movl	$4294967295, %edi       # imm = 0xFFFFFFFF
	callq	exit
.LBB48_8:                               # %if.end29
	movq	-16(%rbp), %rdi
	callq	symbol2vlc
	movq	-16(%rbp), %rdi
	movq	-32(%rbp), %rax
	movq	(%rax), %rsi
	callq	writeUVLC2buffer
	movq	-16(%rbp), %rax
	movl	12(%rax), %ebx
	cmpl	$272777085, -24(%rbp)   # imm = 0x10423F7D
	jne	.LBB48_10
.LBB48_9:
	movl	%ebx, %eax
	addq	$24, %rsp
	popq	%rbx
	popq	%rbp
	.cfi_def_cfa %rsp, 8
	retq
.LBB48_10:                              # %func_exit
	.cfi_def_cfa %rbp, 16
	callq	detect_breach
	jmp	.LBB48_9
.Lfunc_end48:
	.size	writeSyntaxElement_NumCoeffTrailingOnes.21, .Lfunc_end48-writeSyntaxElement_NumCoeffTrailingOnes.21
	.cfi_endproc
                                        # -- End function
	.globl	writeSyntaxElement_fixed.22 # -- Begin function writeSyntaxElement_fixed.22
	.p2align	4, 0x90
	.type	writeSyntaxElement_fixed.22,@function
writeSyntaxElement_fixed.22:            # @writeSyntaxElement_fixed.22
	.cfi_startproc
# %bb.0:                                # %entry
	pushq	%rbp
	.cfi_def_cfa_offset 16
	.cfi_offset %rbp, -16
	movq	%rsp, %rbp
	.cfi_def_cfa_register %rbp
	pushq	%rbx
	subq	$24, %rsp
	.cfi_offset %rbx, -24
	movl	$21189430, -20(%rbp)    # imm = 0x1435336
	movq	%rdi, -16(%rbp)
	movq	%rsi, -32(%rbp)
	movq	-16(%rbp), %rdi
	movq	-32(%rbp), %rax
	movq	(%rax), %rsi
	callq	writeUVLC2buffer
	movq	-16(%rbp), %rax
	cmpl	$0, (%rax)
	je	.LBB49_2
# %bb.1:                                # %if.then
	movq	-32(%rbp), %rax
	movq	(%rax), %rax
	movl	$1, 40(%rax)
.LBB49_2:                               # %if.end
	movq	-16(%rbp), %rax
	movl	12(%rax), %ebx
	cmpl	$21189430, -20(%rbp)    # imm = 0x1435336
	jne	.LBB49_4
.LBB49_3:
	movl	%ebx, %eax
	addq	$24, %rsp
	popq	%rbx
	popq	%rbp
	.cfi_def_cfa %rsp, 8
	retq
.LBB49_4:                               # %func_exit
	.cfi_def_cfa %rbp, 16
	callq	detect_breach
	jmp	.LBB49_3
.Lfunc_end49:
	.size	writeSyntaxElement_fixed.22, .Lfunc_end49-writeSyntaxElement_fixed.22
	.cfi_endproc
                                        # -- End function
	.globl	ue_v.23                 # -- Begin function ue_v.23
	.p2align	4, 0x90
	.type	ue_v.23,@function
ue_v.23:                                # @ue_v.23
	.cfi_startproc
# %bb.0:                                # %entry
	pushq	%rbp
	.cfi_def_cfa_offset 16
	.cfi_offset %rbp, -16
	movq	%rsp, %rbp
	.cfi_def_cfa_register %rbp
	pushq	%rbx
	subq	$88, %rsp
	.cfi_offset %rbx, -24
	movl	$1872627565, -24(%rbp)  # imm = 0x6F9E076D
	movq	%rdi, -40(%rbp)
	movl	%esi, -20(%rbp)
	movq	%rdx, -32(%rbp)
	leaq	-88(%rbp), %rax
	movq	%rax, -16(%rbp)
	movq	-16(%rbp), %rax
	movl	$0, (%rax)
	movq	-16(%rbp), %rax
	movabsq	$ue_linfo, %rcx
	movq	%rcx, 32(%rax)
	movl	-20(%rbp), %eax
	movq	-16(%rbp), %rcx
	movl	%eax, 4(%rcx)
	movq	-16(%rbp), %rax
	movl	$0, 8(%rax)
	movq	-16(%rbp), %rdi
	movq	-32(%rbp), %rsi
	callq	writeSyntaxElement_UVLC
	movl	%eax, %ebx
	cmpl	$1872627565, -24(%rbp)  # imm = 0x6F9E076D
	jne	.LBB50_2
.LBB50_1:
	movl	%ebx, %eax
	addq	$88, %rsp
	popq	%rbx
	popq	%rbp
	.cfi_def_cfa %rsp, 8
	retq
.LBB50_2:                               # %func_exit
	.cfi_def_cfa %rbp, 16
	callq	detect_breach
	jmp	.LBB50_1
.Lfunc_end50:
	.size	ue_v.23, .Lfunc_end50-ue_v.23
	.cfi_endproc
                                        # -- End function
	.globl	writeSyntaxElement_VLC.24 # -- Begin function writeSyntaxElement_VLC.24
	.p2align	4, 0x90
	.type	writeSyntaxElement_VLC.24,@function
writeSyntaxElement_VLC.24:              # @writeSyntaxElement_VLC.24
	.cfi_startproc
# %bb.0:                                # %entry
	pushq	%rbp
	.cfi_def_cfa_offset 16
	.cfi_offset %rbp, -16
	movq	%rsp, %rbp
	.cfi_def_cfa_register %rbp
	pushq	%rbx
	subq	$24, %rsp
	.cfi_offset %rbx, -24
	movl	$1935637555, -20(%rbp)  # imm = 0x735F7C33
	movq	%rdi, -16(%rbp)
	movq	%rsi, -32(%rbp)
	movq	-16(%rbp), %rax
	movl	4(%rax), %eax
	movq	-16(%rbp), %rcx
	movl	%eax, 16(%rcx)
	movq	-16(%rbp), %rax
	movl	8(%rax), %eax
	movq	-16(%rbp), %rcx
	movl	%eax, 12(%rcx)
	movq	-16(%rbp), %rdi
	callq	symbol2vlc
	movq	-16(%rbp), %rdi
	movq	-32(%rbp), %rax
	movq	(%rax), %rsi
	callq	writeUVLC2buffer
	movq	-16(%rbp), %rax
	movl	12(%rax), %ebx
	cmpl	$1935637555, -20(%rbp)  # imm = 0x735F7C33
	jne	.LBB51_2
.LBB51_1:
	movl	%ebx, %eax
	addq	$24, %rsp
	popq	%rbx
	popq	%rbp
	.cfi_def_cfa %rsp, 8
	retq
.LBB51_2:                               # %func_exit
	.cfi_def_cfa %rbp, 16
	callq	detect_breach
	jmp	.LBB51_1
.Lfunc_end51:
	.size	writeSyntaxElement_VLC.24, .Lfunc_end51-writeSyntaxElement_VLC.24
	.cfi_endproc
                                        # -- End function
	.globl	symbol2vlc.25           # -- Begin function symbol2vlc.25
	.p2align	4, 0x90
	.type	symbol2vlc.25,@function
symbol2vlc.25:                          # @symbol2vlc.25
	.cfi_startproc
# %bb.0:                                # %entry
	pushq	%rbp
	.cfi_def_cfa_offset 16
	.cfi_offset %rbp, -16
	movq	%rsp, %rbp
	.cfi_def_cfa_register %rbp
	subq	$32, %rsp
	movl	$661125646, -20(%rbp)   # imm = 0x2767FA0E
	movq	%rdi, -16(%rbp)
	movq	-16(%rbp), %rax
	movl	12(%rax), %eax
	movl	%eax, -4(%rbp)
	movq	-16(%rbp), %rax
	movl	$0, 20(%rax)
.LBB52_1:                               # %while.cond
                                        # =>This Inner Loop Header: Depth=1
	movl	-4(%rbp), %eax
	addl	$-1, %eax
	movl	%eax, -4(%rbp)
	cmpl	$0, %eax
	jl	.LBB52_3
# %bb.2:                                # %while.body
                                        #   in Loop: Header=BB52_1 Depth=1
	movq	-16(%rbp), %rax
	movl	20(%rax), %ecx
	shll	$1, %ecx
	movl	%ecx, 20(%rax)
	movq	-16(%rbp), %rax
	movl	16(%rax), %eax
	movl	-4(%rbp), %ecx
                                        # kill: def $cl killed $ecx
	sarl	%cl, %eax
	andl	$1, %eax
	movq	-16(%rbp), %rcx
	orl	20(%rcx), %eax
	movl	%eax, 20(%rcx)
	jmp	.LBB52_1
.LBB52_3:                               # %while.end
	cmpl	$661125646, -20(%rbp)   # imm = 0x2767FA0E
	jne	.LBB52_5
.LBB52_4:
	xorl	%eax, %eax
	addq	$32, %rsp
	popq	%rbp
	.cfi_def_cfa %rsp, 8
	retq
.LBB52_5:                               # %func_exit
	.cfi_def_cfa %rbp, 16
	callq	detect_breach
	jmp	.LBB52_4
.Lfunc_end52:
	.size	symbol2vlc.25, .Lfunc_end52-symbol2vlc.25
	.cfi_endproc
                                        # -- End function
	.globl	writeSyntaxElement_Level_VLCN.26 # -- Begin function writeSyntaxElement_Level_VLCN.26
	.p2align	4, 0x90
	.type	writeSyntaxElement_Level_VLCN.26,@function
writeSyntaxElement_Level_VLCN.26:       # @writeSyntaxElement_Level_VLCN.26
	.cfi_startproc
# %bb.0:                                # %entry
	pushq	%rbp
	.cfi_def_cfa_offset 16
	.cfi_offset %rbp, -16
	movq	%rsp, %rbp
	.cfi_def_cfa_register %rbp
	pushq	%rbx
	subq	$72, %rsp
	.cfi_offset %rbx, -24
	movl	$1148546943, -56(%rbp)  # imm = 0x44756F7F
	movq	%rdi, -24(%rbp)
	movl	%esi, -28(%rbp)
	movq	%rdx, -72(%rbp)
	movq	-24(%rbp), %rax
	movl	4(%rax), %eax
	movl	%eax, -32(%rbp)
	movl	-32(%rbp), %edi
	callq	abs
	xorl	%ecx, %ecx
	movl	%eax, -16(%rbp)
	movl	-32(%rbp), %eax
	cmpl	$0, %eax
	movl	$1, %eax
	cmovll	%eax, %ecx
	movl	%ecx, -40(%rbp)
	movl	-28(%rbp), %eax
	subl	$1, %eax
	movl	%eax, -12(%rbp)
	movl	-12(%rbp), %ecx
                                        # kill: def $cl killed $ecx
	movl	$15, %eax
	shll	%cl, %eax
	addl	$1, %eax
	movl	%eax, -44(%rbp)
	movl	-16(%rbp), %eax
	subl	$1, %eax
	movl	-12(%rbp), %ecx
                                        # kill: def $cl killed $ecx
	sarl	%cl, %eax
	movl	%eax, -52(%rbp)
	movl	-12(%rbp), %ecx
                                        # kill: def $cl killed $ecx
	movl	$4294967295, %eax       # imm = 0xFFFFFFFF
	shll	%cl, %eax
	xorl	$-1, %eax
	movl	%eax, -60(%rbp)
	movl	-16(%rbp), %eax
	subl	$1, %eax
	andl	-60(%rbp), %eax
	movl	%eax, -64(%rbp)
	movl	-16(%rbp), %eax
	cmpl	-44(%rbp), %eax
	jge	.LBB53_2
# %bb.1:                                # %if.then
	movl	-52(%rbp), %eax
	addl	-28(%rbp), %eax
	addl	$1, %eax
	movl	%eax, -36(%rbp)
	movl	-12(%rbp), %ecx
	addl	$1, %ecx
                                        # kill: def $cl killed $ecx
	movl	$1, %eax
	shll	%cl, %eax
	movl	-64(%rbp), %ecx
	shll	$1, %ecx
	orl	%ecx, %eax
	orl	-40(%rbp), %eax
	movl	%eax, -48(%rbp)
	jmp	.LBB53_3
.LBB53_2:                               # %if.else
	movl	$28, -36(%rbp)
	movl	-16(%rbp), %eax
	subl	-44(%rbp), %eax
	shll	$1, %eax
	orl	$4096, %eax             # imm = 0x1000
	orl	-40(%rbp), %eax
	movl	%eax, -48(%rbp)
.LBB53_3:                               # %if.end
	movl	-36(%rbp), %eax
	movq	-24(%rbp), %rcx
	movl	%eax, 12(%rcx)
	movl	-48(%rbp), %eax
	movq	-24(%rbp), %rcx
	movl	%eax, 16(%rcx)
	movq	-24(%rbp), %rdi
	callq	symbol2vlc
	movq	-24(%rbp), %rdi
	movq	-72(%rbp), %rax
	movq	(%rax), %rsi
	callq	writeUVLC2buffer
	movq	-24(%rbp), %rax
	movl	12(%rax), %ebx
	cmpl	$1148546943, -56(%rbp)  # imm = 0x44756F7F
	jne	.LBB53_5
.LBB53_4:
	movl	%ebx, %eax
	addq	$72, %rsp
	popq	%rbx
	popq	%rbp
	.cfi_def_cfa %rsp, 8
	retq
.LBB53_5:                               # %func_exit
	.cfi_def_cfa %rbp, 16
	callq	detect_breach
	jmp	.LBB53_4
.Lfunc_end53:
	.size	writeSyntaxElement_Level_VLCN.26, .Lfunc_end53-writeSyntaxElement_Level_VLCN.26
	.cfi_endproc
                                        # -- End function
	.globl	symbol2uvlc.27          # -- Begin function symbol2uvlc.27
	.p2align	4, 0x90
	.type	symbol2uvlc.27,@function
symbol2uvlc.27:                         # @symbol2uvlc.27
	.cfi_startproc
# %bb.0:                                # %entry
	pushq	%rbp
	.cfi_def_cfa_offset 16
	.cfi_offset %rbp, -16
	movq	%rsp, %rbp
	.cfi_def_cfa_register %rbp
	subq	$32, %rsp
	movl	$840116581, -20(%rbp)   # imm = 0x32132965
	movq	%rdi, -16(%rbp)
	movq	-16(%rbp), %rax
	movl	12(%rax), %eax
	cltd
	movl	$2, %ecx
	idivl	%ecx
	movl	%eax, -4(%rbp)
	movl	-4(%rbp), %ecx
                                        # kill: def $cl killed $ecx
	movl	$1, %eax
	movl	$1, %edx
	shll	%cl, %edx
	movq	-16(%rbp), %rcx
	movl	16(%rcx), %esi
	movl	-4(%rbp), %ecx
                                        # kill: def $cl killed $ecx
	shll	%cl, %eax
	subl	$1, %eax
	andl	%eax, %esi
	orl	%esi, %edx
	movq	-16(%rbp), %rax
	movl	%edx, 20(%rax)
	cmpl	$840116581, -20(%rbp)   # imm = 0x32132965
	jne	.LBB54_2
.LBB54_1:
	xorl	%eax, %eax
	addq	$32, %rsp
	popq	%rbp
	.cfi_def_cfa %rsp, 8
	retq
.LBB54_2:                               # %func_exit
	.cfi_def_cfa %rbp, 16
	callq	detect_breach
	jmp	.LBB54_1
.Lfunc_end54:
	.size	symbol2uvlc.27, .Lfunc_end54-symbol2uvlc.27
	.cfi_endproc
                                        # -- End function
	.globl	writeSyntaxElement_Intra4x4PredictionMode.28 # -- Begin function writeSyntaxElement_Intra4x4PredictionMode.28
	.p2align	4, 0x90
	.type	writeSyntaxElement_Intra4x4PredictionMode.28,@function
writeSyntaxElement_Intra4x4PredictionMode.28: # @writeSyntaxElement_Intra4x4PredictionMode.28
	.cfi_startproc
# %bb.0:                                # %entry
	pushq	%rbp
	.cfi_def_cfa_offset 16
	.cfi_offset %rbp, -16
	movq	%rsp, %rbp
	.cfi_def_cfa_register %rbp
	pushq	%rbx
	subq	$24, %rsp
	.cfi_offset %rbx, -24
	movl	$1968051847, -20(%rbp)  # imm = 0x754E1687
	movq	%rdi, -16(%rbp)
	movq	%rsi, -32(%rbp)
	movq	-16(%rbp), %rax
	cmpl	$-1, 4(%rax)
	jne	.LBB55_2
# %bb.1:                                # %if.then
	movq	-16(%rbp), %rax
	movl	$1, 12(%rax)
	movq	-16(%rbp), %rax
	movl	$1, 16(%rax)
	jmp	.LBB55_3
.LBB55_2:                               # %if.else
	movq	-16(%rbp), %rax
	movl	$4, 12(%rax)
	movq	-16(%rbp), %rax
	movl	4(%rax), %eax
	movq	-16(%rbp), %rcx
	movl	%eax, 16(%rcx)
.LBB55_3:                               # %if.end
	movq	-16(%rbp), %rax
	movl	16(%rax), %eax
	movq	-16(%rbp), %rcx
	movl	%eax, 20(%rcx)
	movq	-16(%rbp), %rdi
	movq	-32(%rbp), %rax
	movq	(%rax), %rsi
	callq	writeUVLC2buffer
	movq	-16(%rbp), %rax
	cmpl	$0, (%rax)
	je	.LBB55_5
# %bb.4:                                # %if.then6
	movq	-32(%rbp), %rax
	movq	(%rax), %rax
	movl	$1, 40(%rax)
.LBB55_5:                               # %if.end8
	movq	-16(%rbp), %rax
	movl	12(%rax), %ebx
	cmpl	$1968051847, -20(%rbp)  # imm = 0x754E1687
	jne	.LBB55_7
.LBB55_6:
	movl	%ebx, %eax
	addq	$24, %rsp
	popq	%rbx
	popq	%rbp
	.cfi_def_cfa %rsp, 8
	retq
.LBB55_7:                               # %func_exit
	.cfi_def_cfa %rbp, 16
	callq	detect_breach
	jmp	.LBB55_6
.Lfunc_end55:
	.size	writeSyntaxElement_Intra4x4PredictionMode.28, .Lfunc_end55-writeSyntaxElement_Intra4x4PredictionMode.28
	.cfi_endproc
                                        # -- End function
	.globl	writeSyntaxElement_TotalZeros.29 # -- Begin function writeSyntaxElement_TotalZeros.29
	.p2align	4, 0x90
	.type	writeSyntaxElement_TotalZeros.29,@function
writeSyntaxElement_TotalZeros.29:       # @writeSyntaxElement_TotalZeros.29
	.cfi_startproc
# %bb.0:                                # %entry
	pushq	%rbp
	.cfi_def_cfa_offset 16
	.cfi_offset %rbp, -16
	movq	%rsp, %rbp
	.cfi_def_cfa_register %rbp
	pushq	%rbx
	subq	$24, %rsp
	.cfi_offset %rbx, -24
	movabsq	$writeSyntaxElement_TotalZeros.codtab, %rax
	movabsq	$writeSyntaxElement_TotalZeros.lentab, %rcx
	movl	$399851619, -24(%rbp)   # imm = 0x17D54063
	movq	%rdi, -16(%rbp)
	movq	%rsi, -32(%rbp)
	movq	-16(%rbp), %rdx
	movl	12(%rdx), %edx
	movl	%edx, -20(%rbp)
	movslq	-20(%rbp), %rdx
	shlq	$6, %rdx
	addq	%rdx, %rcx
	movq	-16(%rbp), %rdx
	movslq	4(%rdx), %rdx
	movl	(%rcx,%rdx,4), %ecx
	movq	-16(%rbp), %rdx
	movl	%ecx, 12(%rdx)
	movslq	-20(%rbp), %rcx
	shlq	$6, %rcx
	addq	%rcx, %rax
	movq	-16(%rbp), %rcx
	movslq	4(%rcx), %rcx
	movl	(%rax,%rcx,4), %eax
	movq	-16(%rbp), %rcx
	movl	%eax, 16(%rcx)
	movq	-16(%rbp), %rax
	cmpl	$0, 12(%rax)
	jne	.LBB56_2
# %bb.1:                                # %if.then
	movq	-16(%rbp), %rax
	movl	4(%rax), %esi
	movabsq	$.L.str.2, %rdi
	movb	$0, %al
	callq	printf
	movl	$4294967295, %edi       # imm = 0xFFFFFFFF
	callq	exit
.LBB56_2:                               # %if.end
	movq	-16(%rbp), %rdi
	callq	symbol2vlc
	movq	-16(%rbp), %rdi
	movq	-32(%rbp), %rax
	movq	(%rax), %rsi
	callq	writeUVLC2buffer
	movq	-16(%rbp), %rax
	movl	12(%rax), %ebx
	cmpl	$399851619, -24(%rbp)   # imm = 0x17D54063
	jne	.LBB56_4
.LBB56_3:
	movl	%ebx, %eax
	addq	$24, %rsp
	popq	%rbx
	popq	%rbp
	.cfi_def_cfa %rsp, 8
	retq
.LBB56_4:                               # %func_exit
	.cfi_def_cfa %rbp, 16
	callq	detect_breach
	jmp	.LBB56_3
.Lfunc_end56:
	.size	writeSyntaxElement_TotalZeros.29, .Lfunc_end56-writeSyntaxElement_TotalZeros.29
	.cfi_endproc
                                        # -- End function
	.globl	cbp_linfo_inter.30      # -- Begin function cbp_linfo_inter.30
	.p2align	4, 0x90
	.type	cbp_linfo_inter.30,@function
cbp_linfo_inter.30:                     # @cbp_linfo_inter.30
	.cfi_startproc
# %bb.0:                                # %entry
	pushq	%rbp
	.cfi_def_cfa_offset 16
	.cfi_offset %rbp, -16
	movq	%rsp, %rbp
	.cfi_def_cfa_register %rbp
	subq	$32, %rsp
	xorl	%eax, %eax
	movl	$391129001, -8(%rbp)    # imm = 0x175027A9
	movl	%edi, -4(%rbp)
	movl	%esi, -12(%rbp)
	movq	%rdx, -32(%rbp)
	movq	%rcx, -24(%rbp)
	movq	img, %rcx
	movl	72700(%rcx), %ecx
	cmpl	$0, %ecx
	movl	$1, %ecx
	cmovnel	%ecx, %eax
	cltq
	imulq	$96, %rax, %rax
	movabsq	$NCBP, %rcx
	addq	%rax, %rcx
	movslq	-4(%rbp), %rax
	movzbl	1(%rcx,%rax,2), %edi
	movl	-12(%rbp), %esi
	movq	-32(%rbp), %rdx
	movq	-24(%rbp), %rcx
	callq	ue_linfo
	cmpl	$391129001, -8(%rbp)    # imm = 0x175027A9
	jne	.LBB57_2
.LBB57_1:
	addq	$32, %rsp
	popq	%rbp
	.cfi_def_cfa %rsp, 8
	retq
.LBB57_2:                               # %func_exit
	.cfi_def_cfa %rbp, 16
	callq	detect_breach
	jmp	.LBB57_1
.Lfunc_end57:
	.size	cbp_linfo_inter.30, .Lfunc_end57-cbp_linfo_inter.30
	.cfi_endproc
                                        # -- End function
	.globl	writeSyntaxElement_UVLC.31 # -- Begin function writeSyntaxElement_UVLC.31
	.p2align	4, 0x90
	.type	writeSyntaxElement_UVLC.31,@function
writeSyntaxElement_UVLC.31:             # @writeSyntaxElement_UVLC.31
	.cfi_startproc
# %bb.0:                                # %entry
	pushq	%rbp
	.cfi_def_cfa_offset 16
	.cfi_offset %rbp, -16
	movq	%rsp, %rbp
	.cfi_def_cfa_register %rbp
	pushq	%rbx
	subq	$24, %rsp
	.cfi_offset %rbx, -24
	movl	$77970777, -20(%rbp)    # imm = 0x4A5BD59
	movq	%rdi, -16(%rbp)
	movq	%rsi, -32(%rbp)
	movq	-16(%rbp), %rax
	movq	32(%rax), %rax
	movq	-16(%rbp), %rcx
	movl	4(%rcx), %edi
	movq	-16(%rbp), %rcx
	movl	8(%rcx), %esi
	movq	-16(%rbp), %rdx
	addq	$12, %rdx
	movq	-16(%rbp), %rcx
	addq	$16, %rcx
	callq	*%rax
	movq	-16(%rbp), %rdi
	callq	symbol2uvlc
	movq	-16(%rbp), %rdi
	movq	-32(%rbp), %rax
	movq	(%rax), %rsi
	callq	writeUVLC2buffer
	movq	-16(%rbp), %rax
	cmpl	$0, (%rax)
	je	.LBB58_2
# %bb.1:                                # %if.then
	movq	-32(%rbp), %rax
	movq	(%rax), %rax
	movl	$1, 40(%rax)
.LBB58_2:                               # %if.end
	movq	-16(%rbp), %rax
	movl	12(%rax), %ebx
	cmpl	$77970777, -20(%rbp)    # imm = 0x4A5BD59
	jne	.LBB58_4
.LBB58_3:
	movl	%ebx, %eax
	addq	$24, %rsp
	popq	%rbx
	popq	%rbp
	.cfi_def_cfa %rsp, 8
	retq
.LBB58_4:                               # %func_exit
	.cfi_def_cfa %rbp, 16
	callq	detect_breach
	jmp	.LBB58_3
.Lfunc_end58:
	.size	writeSyntaxElement_UVLC.31, .Lfunc_end58-writeSyntaxElement_UVLC.31
	.cfi_endproc
                                        # -- End function
	.section	.rodata.cst8,"aM",@progbits,8
	.p2align	3               # -- Begin function se_linfo.32
.LCPI59_0:
	.quad	4611686018427387904     # double 2
	.text
	.globl	se_linfo.32
	.p2align	4, 0x90
	.type	se_linfo.32,@function
se_linfo.32:                            # @se_linfo.32
	.cfi_startproc
# %bb.0:                                # %entry
	pushq	%rbp
	.cfi_def_cfa_offset 16
	.cfi_offset %rbp, -16
	movq	%rsp, %rbp
	.cfi_def_cfa_register %rbp
	pushq	%rbx
	subq	$56, %rsp
	.cfi_offset %rbx, -24
	movl	$1880521414, -32(%rbp)  # imm = 0x70167AC6
	movl	%edi, -28(%rbp)
	movl	%esi, -52(%rbp)
	movq	%rdx, -40(%rbp)
	movq	%rcx, -48(%rbp)
	movl	$0, -20(%rbp)
	cmpl	$0, -28(%rbp)
	jg	.LBB59_2
# %bb.1:                                # %if.then
	movl	$1, -20(%rbp)
.LBB59_2:                               # %if.end
	movl	-28(%rbp), %edi
	callq	abs
	shll	$1, %eax
	movl	%eax, -24(%rbp)
	movl	-24(%rbp), %eax
	cltd
	movl	$2, %ecx
	idivl	%ecx
	movl	%eax, -16(%rbp)
	movl	$0, -12(%rbp)
.LBB59_3:                               # %for.cond
                                        # =>This Inner Loop Header: Depth=1
	xorl	%eax, %eax
	cmpl	$16, -12(%rbp)
	jge	.LBB59_5
# %bb.4:                                # %land.rhs
                                        #   in Loop: Header=BB59_3 Depth=1
	cmpl	$0, -16(%rbp)
	setne	%al
.LBB59_5:                               # %land.end
                                        #   in Loop: Header=BB59_3 Depth=1
	testb	$1, %al
	jne	.LBB59_6
	jmp	.LBB59_8
.LBB59_6:                               # %for.body
                                        #   in Loop: Header=BB59_3 Depth=1
	movl	-16(%rbp), %eax
	cltd
	movl	$2, %ecx
	idivl	%ecx
	movl	%eax, -16(%rbp)
# %bb.7:                                # %for.inc
                                        #   in Loop: Header=BB59_3 Depth=1
	movl	-12(%rbp), %eax
	addl	$1, %eax
	movl	%eax, -12(%rbp)
	jmp	.LBB59_3
.LBB59_8:                               # %for.end
	vmovsd	.LCPI59_0(%rip), %xmm0  # xmm0 = mem[0],zero
	movl	-12(%rbp), %eax
	shll	$1, %eax
	addl	$1, %eax
	movq	-40(%rbp), %rcx
	movl	%eax, (%rcx)
	movl	-24(%rbp), %ebx
	vcvtsi2sdl	-12(%rbp), %xmm0, %xmm1
	callq	pow
	vcvttsd2si	%xmm0, %eax
	subl	%eax, %ebx
	addl	-20(%rbp), %ebx
	movq	-48(%rbp), %rax
	movl	%ebx, (%rax)
	cmpl	$1880521414, -32(%rbp)  # imm = 0x70167AC6
	jne	.LBB59_10
.LBB59_9:
	addq	$56, %rsp
	popq	%rbx
	popq	%rbp
	.cfi_def_cfa %rsp, 8
	retq
.LBB59_10:                              # %func_exit
	.cfi_def_cfa %rbp, 16
	callq	detect_breach
	jmp	.LBB59_9
.Lfunc_end59:
	.size	se_linfo.32, .Lfunc_end59-se_linfo.32
	.cfi_endproc
                                        # -- End function
	.globl	u_1.33                  # -- Begin function u_1.33
	.p2align	4, 0x90
	.type	u_1.33,@function
u_1.33:                                 # @u_1.33
	.cfi_startproc
# %bb.0:                                # %entry
	pushq	%rbp
	.cfi_def_cfa_offset 16
	.cfi_offset %rbp, -16
	movq	%rsp, %rbp
	.cfi_def_cfa_register %rbp
	pushq	%rbx
	subq	$88, %rsp
	.cfi_offset %rbx, -24
	movl	$241875384, -24(%rbp)   # imm = 0xE6AB9B8
	movq	%rdi, -40(%rbp)
	movl	%esi, -20(%rbp)
	movq	%rdx, -32(%rbp)
	leaq	-88(%rbp), %rax
	movq	%rax, -16(%rbp)
	movl	-20(%rbp), %eax
	movq	-16(%rbp), %rcx
	movl	%eax, 20(%rcx)
	movq	-16(%rbp), %rax
	movl	$1, 12(%rax)
	movq	-16(%rbp), %rax
	movl	$0, (%rax)
	movl	-20(%rbp), %eax
	movq	-16(%rbp), %rcx
	movl	%eax, 4(%rcx)
	movq	-16(%rbp), %rax
	movl	$0, 8(%rax)
	movq	-16(%rbp), %rdi
	movq	-32(%rbp), %rsi
	callq	writeSyntaxElement_fixed
	movl	%eax, %ebx
	cmpl	$241875384, -24(%rbp)   # imm = 0xE6AB9B8
	jne	.LBB60_2
.LBB60_1:
	movl	%ebx, %eax
	addq	$88, %rsp
	popq	%rbx
	popq	%rbp
	.cfi_def_cfa %rsp, 8
	retq
.LBB60_2:                               # %func_exit
	.cfi_def_cfa %rbp, 16
	callq	detect_breach
	jmp	.LBB60_1
.Lfunc_end60:
	.size	u_1.33, .Lfunc_end60-u_1.33
	.cfi_endproc
                                        # -- End function
	.globl	writeUVLC2buffer.34     # -- Begin function writeUVLC2buffer.34
	.p2align	4, 0x90
	.type	writeUVLC2buffer.34,@function
writeUVLC2buffer.34:                    # @writeUVLC2buffer.34
	.cfi_startproc
# %bb.0:                                # %entry
	pushq	%rbp
	.cfi_def_cfa_offset 16
	.cfi_offset %rbp, -16
	movq	%rsp, %rbp
	.cfi_def_cfa_register %rbp
	subq	$32, %rsp
	movl	$1181192675, -28(%rbp)  # imm = 0x466791E3
	movq	%rdi, -24(%rbp)
	movq	%rsi, -8(%rbp)
	movq	-24(%rbp), %rax
	movl	12(%rax), %ecx
	subl	$1, %ecx
                                        # kill: def $cl killed $ecx
	movl	$1, %eax
	shll	%cl, %eax
	movl	%eax, -12(%rbp)
	movl	$0, -16(%rbp)
.LBB61_1:                               # %for.cond
                                        # =>This Inner Loop Header: Depth=1
	movl	-16(%rbp), %eax
	movq	-24(%rbp), %rcx
	cmpl	12(%rcx), %eax
	jge	.LBB61_8
# %bb.2:                                # %for.body
                                        #   in Loop: Header=BB61_1 Depth=1
	movq	-8(%rbp), %rax
	movzbl	8(%rax), %ecx
	shll	$1, %ecx
	movb	%cl, 8(%rax)
	movq	-24(%rbp), %rax
	movl	20(%rax), %eax
	andl	-12(%rbp), %eax
	cmpl	$0, %eax
	je	.LBB61_4
# %bb.3:                                # %if.then
                                        #   in Loop: Header=BB61_1 Depth=1
	movq	-8(%rbp), %rax
	movzbl	8(%rax), %ecx
	orl	$1, %ecx
	movb	%cl, 8(%rax)
.LBB61_4:                               # %if.end
                                        #   in Loop: Header=BB61_1 Depth=1
	movq	-8(%rbp), %rax
	movl	4(%rax), %ecx
	addl	$-1, %ecx
	movl	%ecx, 4(%rax)
	movl	-12(%rbp), %eax
	shrl	$1, %eax
	movl	%eax, -12(%rbp)
	movq	-8(%rbp), %rax
	cmpl	$0, 4(%rax)
	jne	.LBB61_6
# %bb.5:                                # %if.then10
                                        #   in Loop: Header=BB61_1 Depth=1
	movq	-8(%rbp), %rax
	movl	$8, 4(%rax)
	movq	-8(%rbp), %rax
	movb	8(%rax), %al
	movq	-8(%rbp), %rcx
	movq	32(%rcx), %rcx
	movq	-8(%rbp), %rdx
	movl	(%rdx), %esi
	movl	%esi, %edi
	addl	$1, %edi
	movl	%edi, (%rdx)
	movslq	%esi, %rdx
	movb	%al, (%rcx,%rdx)
	movq	-8(%rbp), %rax
	movb	$0, 8(%rax)
.LBB61_6:                               # %if.end14
                                        #   in Loop: Header=BB61_1 Depth=1
	jmp	.LBB61_7
.LBB61_7:                               # %for.inc
                                        #   in Loop: Header=BB61_1 Depth=1
	movl	-16(%rbp), %eax
	addl	$1, %eax
	movl	%eax, -16(%rbp)
	jmp	.LBB61_1
.LBB61_8:                               # %for.end
	cmpl	$1181192675, -28(%rbp)  # imm = 0x466791E3
	jne	.LBB61_10
.LBB61_9:
	addq	$32, %rsp
	popq	%rbp
	.cfi_def_cfa %rsp, 8
	retq
.LBB61_10:                              # %func_exit
	.cfi_def_cfa %rbp, 16
	callq	detect_breach
	jmp	.LBB61_9
.Lfunc_end61:
	.size	writeUVLC2buffer.34, .Lfunc_end61-writeUVLC2buffer.34
	.cfi_endproc
                                        # -- End function
	.globl	se_v.35                 # -- Begin function se_v.35
	.p2align	4, 0x90
	.type	se_v.35,@function
se_v.35:                                # @se_v.35
	.cfi_startproc
# %bb.0:                                # %entry
	pushq	%rbp
	.cfi_def_cfa_offset 16
	.cfi_offset %rbp, -16
	movq	%rsp, %rbp
	.cfi_def_cfa_register %rbp
	pushq	%rbx
	subq	$88, %rsp
	.cfi_offset %rbx, -24
	movl	$679347338, -20(%rbp)   # imm = 0x287E048A
	movq	%rdi, -40(%rbp)
	movl	%esi, -24(%rbp)
	movq	%rdx, -32(%rbp)
	leaq	-88(%rbp), %rax
	movq	%rax, -16(%rbp)
	movq	-16(%rbp), %rax
	movl	$0, (%rax)
	movq	-16(%rbp), %rax
	movabsq	$se_linfo, %rcx
	movq	%rcx, 32(%rax)
	movl	-24(%rbp), %eax
	movq	-16(%rbp), %rcx
	movl	%eax, 4(%rcx)
	movq	-16(%rbp), %rax
	movl	$0, 8(%rax)
	movq	-16(%rbp), %rdi
	movq	-32(%rbp), %rsi
	callq	writeSyntaxElement_UVLC
	movl	%eax, %ebx
	cmpl	$679347338, -20(%rbp)   # imm = 0x287E048A
	jne	.LBB62_2
.LBB62_1:
	movl	%ebx, %eax
	addq	$88, %rsp
	popq	%rbx
	popq	%rbp
	.cfi_def_cfa %rsp, 8
	retq
.LBB62_2:                               # %func_exit
	.cfi_def_cfa %rbp, 16
	callq	detect_breach
	jmp	.LBB62_1
.Lfunc_end62:
	.size	se_v.35, .Lfunc_end62-se_v.35
	.cfi_endproc
                                        # -- End function
	.globl	writeSyntaxElement_fixed.36 # -- Begin function writeSyntaxElement_fixed.36
	.p2align	4, 0x90
	.type	writeSyntaxElement_fixed.36,@function
writeSyntaxElement_fixed.36:            # @writeSyntaxElement_fixed.36
	.cfi_startproc
# %bb.0:                                # %entry
	pushq	%rbp
	.cfi_def_cfa_offset 16
	.cfi_offset %rbp, -16
	movq	%rsp, %rbp
	.cfi_def_cfa_register %rbp
	pushq	%rbx
	subq	$24, %rsp
	.cfi_offset %rbx, -24
	movl	$38126761, -20(%rbp)    # imm = 0x245C4A9
	movq	%rdi, -16(%rbp)
	movq	%rsi, -32(%rbp)
	movq	-16(%rbp), %rdi
	movq	-32(%rbp), %rax
	movq	(%rax), %rsi
	callq	writeUVLC2buffer
	movq	-16(%rbp), %rax
	cmpl	$0, (%rax)
	je	.LBB63_2
# %bb.1:                                # %if.then
	movq	-32(%rbp), %rax
	movq	(%rax), %rax
	movl	$1, 40(%rax)
.LBB63_2:                               # %if.end
	movq	-16(%rbp), %rax
	movl	12(%rax), %ebx
	cmpl	$38126761, -20(%rbp)    # imm = 0x245C4A9
	jne	.LBB63_4
.LBB63_3:
	movl	%ebx, %eax
	addq	$24, %rsp
	popq	%rbx
	popq	%rbp
	.cfi_def_cfa %rsp, 8
	retq
.LBB63_4:                               # %func_exit
	.cfi_def_cfa %rbp, 16
	callq	detect_breach
	jmp	.LBB63_3
.Lfunc_end63:
	.size	writeSyntaxElement_fixed.36, .Lfunc_end63-writeSyntaxElement_fixed.36
	.cfi_endproc
                                        # -- End function
	.section	.rodata.cst8,"aM",@progbits,8
	.p2align	3               # -- Begin function ue_linfo.37
.LCPI64_0:
	.quad	4611686018427387904     # double 2
	.text
	.globl	ue_linfo.37
	.p2align	4, 0x90
	.type	ue_linfo.37,@function
ue_linfo.37:                            # @ue_linfo.37
	.cfi_startproc
# %bb.0:                                # %entry
	pushq	%rbp
	.cfi_def_cfa_offset 16
	.cfi_offset %rbp, -16
	movq	%rsp, %rbp
	.cfi_def_cfa_register %rbp
	pushq	%rbx
	subq	$40, %rsp
	.cfi_offset %rbx, -24
	movl	$1920691021, -24(%rbp)  # imm = 0x727B6B4D
	movl	%edi, -20(%rbp)
	movl	%esi, -44(%rbp)
	movq	%rdx, -40(%rbp)
	movq	%rcx, -32(%rbp)
	movl	-20(%rbp), %eax
	addl	$1, %eax
	cltd
	movl	$2, %ecx
	idivl	%ecx
	movl	%eax, -16(%rbp)
	movl	$0, -12(%rbp)
.LBB64_1:                               # %for.cond
                                        # =>This Inner Loop Header: Depth=1
	xorl	%eax, %eax
	cmpl	$16, -12(%rbp)
	jge	.LBB64_3
# %bb.2:                                # %land.rhs
                                        #   in Loop: Header=BB64_1 Depth=1
	cmpl	$0, -16(%rbp)
	setne	%al
.LBB64_3:                               # %land.end
                                        #   in Loop: Header=BB64_1 Depth=1
	testb	$1, %al
	jne	.LBB64_4
	jmp	.LBB64_6
.LBB64_4:                               # %for.body
                                        #   in Loop: Header=BB64_1 Depth=1
	movl	-16(%rbp), %eax
	cltd
	movl	$2, %ecx
	idivl	%ecx
	movl	%eax, -16(%rbp)
# %bb.5:                                # %for.inc
                                        #   in Loop: Header=BB64_1 Depth=1
	movl	-12(%rbp), %eax
	addl	$1, %eax
	movl	%eax, -12(%rbp)
	jmp	.LBB64_1
.LBB64_6:                               # %for.end
	vmovsd	.LCPI64_0(%rip), %xmm0  # xmm0 = mem[0],zero
	movl	-12(%rbp), %eax
	shll	$1, %eax
	addl	$1, %eax
	movq	-40(%rbp), %rcx
	movl	%eax, (%rcx)
	movl	-20(%rbp), %ebx
	addl	$1, %ebx
	vcvtsi2sdl	-12(%rbp), %xmm0, %xmm1
	callq	pow
	vcvttsd2si	%xmm0, %eax
	subl	%eax, %ebx
	movq	-32(%rbp), %rax
	movl	%ebx, (%rax)
	cmpl	$1920691021, -24(%rbp)  # imm = 0x727B6B4D
	jne	.LBB64_8
.LBB64_7:
	addq	$40, %rsp
	popq	%rbx
	popq	%rbp
	.cfi_def_cfa %rsp, 8
	retq
.LBB64_8:                               # %func_exit
	.cfi_def_cfa %rbp, 16
	callq	detect_breach
	jmp	.LBB64_7
.Lfunc_end64:
	.size	ue_linfo.37, .Lfunc_end64-ue_linfo.37
	.cfi_endproc
                                        # -- End function
	.globl	cbp_linfo_inter.38      # -- Begin function cbp_linfo_inter.38
	.p2align	4, 0x90
	.type	cbp_linfo_inter.38,@function
cbp_linfo_inter.38:                     # @cbp_linfo_inter.38
	.cfi_startproc
# %bb.0:                                # %entry
	pushq	%rbp
	.cfi_def_cfa_offset 16
	.cfi_offset %rbp, -16
	movq	%rsp, %rbp
	.cfi_def_cfa_register %rbp
	subq	$32, %rsp
	xorl	%eax, %eax
	movl	$1749171472, -8(%rbp)   # imm = 0x68423D10
	movl	%edi, -12(%rbp)
	movl	%esi, -4(%rbp)
	movq	%rdx, -24(%rbp)
	movq	%rcx, -32(%rbp)
	movq	img, %rcx
	movl	72700(%rcx), %ecx
	cmpl	$0, %ecx
	movl	$1, %ecx
	cmovnel	%ecx, %eax
	cltq
	imulq	$96, %rax, %rax
	movabsq	$NCBP, %rcx
	addq	%rax, %rcx
	movslq	-12(%rbp), %rax
	movzbl	1(%rcx,%rax,2), %edi
	movl	-4(%rbp), %esi
	movq	-24(%rbp), %rdx
	movq	-32(%rbp), %rcx
	callq	ue_linfo
	cmpl	$1749171472, -8(%rbp)   # imm = 0x68423D10
	jne	.LBB65_2
.LBB65_1:
	addq	$32, %rsp
	popq	%rbp
	.cfi_def_cfa %rsp, 8
	retq
.LBB65_2:                               # %func_exit
	.cfi_def_cfa %rbp, 16
	callq	detect_breach
	jmp	.LBB65_1
.Lfunc_end65:
	.size	cbp_linfo_inter.38, .Lfunc_end65-cbp_linfo_inter.38
	.cfi_endproc
                                        # -- End function
	.section	.rodata.cst8,"aM",@progbits,8
	.p2align	3               # -- Begin function levrun_linfo_intra.39
.LCPI66_0:
	.quad	4611686018427387904     # double 2
	.text
	.globl	levrun_linfo_intra.39
	.p2align	4, 0x90
	.type	levrun_linfo_intra.39,@function
levrun_linfo_intra.39:                  # @levrun_linfo_intra.39
	.cfi_startproc
# %bb.0:                                # %entry
	pushq	%rbp
	.cfi_def_cfa_offset 16
	.cfi_offset %rbp, -16
	movq	%rsp, %rbp
	.cfi_def_cfa_register %rbp
	pushq	%rbx
	subq	$104, %rsp
	.cfi_offset %rbx, -24
	movl	$405451409, -40(%rbp)   # imm = 0x182AB291
	movl	%edi, -24(%rbp)
	movl	%esi, -16(%rbp)
	movq	%rdx, -48(%rbp)
	movq	%rcx, -64(%rbp)
	movq	.L__const.levrun_linfo_intra.LEVRUN, %rax
	movq	%rax, -56(%rbp)
	leaq	-112(%rbp), %rdi
	movabsq	$.L__const.levrun_linfo_intra.NTAB, %rsi
	movl	$45, %edx
	callq	memcpy
	cmpl	$0, -24(%rbp)
	jne	.LBB66_2
# %bb.1:                                # %if.then
	movq	-48(%rbp), %rax
	movl	$1, (%rax)
	jmp	.LBB66_15
.LBB66_2:                               # %if.end
	cmpl	$0, -24(%rbp)
	jg	.LBB66_4
# %bb.3:                                # %if.then2
	movl	$1, -36(%rbp)
	jmp	.LBB66_5
.LBB66_4:                               # %if.else
	movl	$0, -36(%rbp)
.LBB66_5:                               # %if.end3
	movl	-24(%rbp), %edi
	callq	abs
	movl	%eax, -28(%rbp)
	movl	-28(%rbp), %eax
	movslq	-16(%rbp), %rcx
	movzbl	-56(%rbp,%rcx), %ecx
	cmpl	%ecx, %eax
	jg	.LBB66_7
# %bb.6:                                # %if.then6
	movl	-28(%rbp), %eax
	subl	$1, %eax
	cltq
	imulq	$5, %rax, %rax
	leaq	-112(%rbp), %rcx
	addq	%rax, %rcx
	movslq	-16(%rbp), %rax
	movzbl	(%rcx,%rax), %eax
	addl	$1, %eax
	movl	%eax, -32(%rbp)
	jmp	.LBB66_8
.LBB66_7:                               # %if.else12
	movl	-28(%rbp), %eax
	movslq	-16(%rbp), %rcx
	movzbl	-56(%rbp,%rcx), %ecx
	subl	%ecx, %eax
	shll	$4, %eax
	addl	$16, %eax
	movl	-16(%rbp), %ecx
	shll	$1, %ecx
	addl	%ecx, %eax
	movl	%eax, -32(%rbp)
.LBB66_8:                               # %if.end20
	movl	-32(%rbp), %eax
	cltd
	movl	$2, %ecx
	idivl	%ecx
	movl	%eax, -20(%rbp)
	movl	$0, -12(%rbp)
.LBB66_9:                               # %for.cond
                                        # =>This Inner Loop Header: Depth=1
	xorl	%eax, %eax
	cmpl	$16, -12(%rbp)
	jge	.LBB66_11
# %bb.10:                               # %land.rhs
                                        #   in Loop: Header=BB66_9 Depth=1
	cmpl	$0, -20(%rbp)
	setne	%al
.LBB66_11:                              # %land.end
                                        #   in Loop: Header=BB66_9 Depth=1
	testb	$1, %al
	jne	.LBB66_12
	jmp	.LBB66_14
.LBB66_12:                              # %for.body
                                        #   in Loop: Header=BB66_9 Depth=1
	movl	-20(%rbp), %eax
	cltd
	movl	$2, %ecx
	idivl	%ecx
	movl	%eax, -20(%rbp)
# %bb.13:                               # %for.inc
                                        #   in Loop: Header=BB66_9 Depth=1
	movl	-12(%rbp), %eax
	addl	$1, %eax
	movl	%eax, -12(%rbp)
	jmp	.LBB66_9
.LBB66_14:                              # %for.end
	vmovsd	.LCPI66_0(%rip), %xmm0  # xmm0 = mem[0],zero
	movl	-12(%rbp), %eax
	shll	$1, %eax
	addl	$1, %eax
	movq	-48(%rbp), %rcx
	movl	%eax, (%rcx)
	movl	-32(%rbp), %ebx
	vcvtsi2sdl	-12(%rbp), %xmm0, %xmm1
	callq	pow
	vcvttsd2si	%xmm0, %eax
	subl	%eax, %ebx
	addl	-36(%rbp), %ebx
	movq	-64(%rbp), %rax
	movl	%ebx, (%rax)
.LBB66_15:                              # %return
	cmpl	$405451409, -40(%rbp)   # imm = 0x182AB291
	jne	.LBB66_17
.LBB66_16:
	addq	$104, %rsp
	popq	%rbx
	popq	%rbp
	.cfi_def_cfa %rsp, 8
	retq
.LBB66_17:                              # %func_exit
	.cfi_def_cfa %rbp, 16
	callq	detect_breach
	jmp	.LBB66_16
.Lfunc_end66:
	.size	levrun_linfo_intra.39, .Lfunc_end66-levrun_linfo_intra.39
	.cfi_endproc
                                        # -- End function
	.globl	writeSyntaxElement_NumCoeffTrailingOnes.40 # -- Begin function writeSyntaxElement_NumCoeffTrailingOnes.40
	.p2align	4, 0x90
	.type	writeSyntaxElement_NumCoeffTrailingOnes.40,@function
writeSyntaxElement_NumCoeffTrailingOnes.40: # @writeSyntaxElement_NumCoeffTrailingOnes.40
	.cfi_startproc
# %bb.0:                                # %entry
	pushq	%rbp
	.cfi_def_cfa_offset 16
	.cfi_offset %rbp, -16
	movq	%rsp, %rbp
	.cfi_def_cfa_register %rbp
	pushq	%rbx
	subq	$24, %rsp
	.cfi_offset %rbx, -24
	movl	$867963017, -24(%rbp)   # imm = 0x33BC1089
	movq	%rdi, -16(%rbp)
	movq	%rsi, -32(%rbp)
	movq	-16(%rbp), %rax
	movl	12(%rax), %eax
	movl	%eax, -20(%rbp)
	cmpl	$3, -20(%rbp)
	jne	.LBB67_5
# %bb.1:                                # %if.then
	movq	-16(%rbp), %rax
	movl	$6, 12(%rax)
	movq	-16(%rbp), %rax
	cmpl	$0, 4(%rax)
	jle	.LBB67_3
# %bb.2:                                # %if.then3
	movq	-16(%rbp), %rax
	movl	4(%rax), %eax
	subl	$1, %eax
	shll	$2, %eax
	movq	-16(%rbp), %rcx
	orl	8(%rcx), %eax
	movq	-16(%rbp), %rcx
	movl	%eax, 16(%rcx)
	jmp	.LBB67_4
.LBB67_3:                               # %if.else
	movq	-16(%rbp), %rax
	movl	$3, 16(%rax)
.LBB67_4:                               # %if.end
	jmp	.LBB67_6
.LBB67_5:                               # %if.else6
	movslq	-20(%rbp), %rax
	imulq	$272, %rax, %rax        # imm = 0x110
	movabsq	$writeSyntaxElement_NumCoeffTrailingOnes.lentab, %rcx
	addq	%rax, %rcx
	movq	-16(%rbp), %rax
	movslq	8(%rax), %rax
	imulq	$68, %rax, %rax
	addq	%rax, %rcx
	movq	-16(%rbp), %rax
	movslq	4(%rax), %rax
	movl	(%rcx,%rax,4), %eax
	movq	-16(%rbp), %rcx
	movl	%eax, 12(%rcx)
	movslq	-20(%rbp), %rax
	imulq	$272, %rax, %rax        # imm = 0x110
	movabsq	$writeSyntaxElement_NumCoeffTrailingOnes.codtab, %rcx
	addq	%rax, %rcx
	movq	-16(%rbp), %rax
	movslq	8(%rax), %rax
	imulq	$68, %rax, %rax
	addq	%rax, %rcx
	movq	-16(%rbp), %rax
	movslq	4(%rax), %rax
	movl	(%rcx,%rax,4), %eax
	movq	-16(%rbp), %rcx
	movl	%eax, 16(%rcx)
.LBB67_6:                               # %if.end23
	movq	-16(%rbp), %rax
	cmpl	$0, 12(%rax)
	jne	.LBB67_8
# %bb.7:                                # %if.then26
	movl	-20(%rbp), %esi
	movq	-16(%rbp), %rax
	movl	4(%rax), %edx
	movq	-16(%rbp), %rax
	movl	8(%rax), %ecx
	movabsq	$.L.str, %rdi
	movb	$0, %al
	callq	printf
	movl	$4294967295, %edi       # imm = 0xFFFFFFFF
	callq	exit
.LBB67_8:                               # %if.end29
	movq	-16(%rbp), %rdi
	callq	symbol2vlc
	movq	-16(%rbp), %rdi
	movq	-32(%rbp), %rax
	movq	(%rax), %rsi
	callq	writeUVLC2buffer
	movq	-16(%rbp), %rax
	movl	12(%rax), %ebx
	cmpl	$867963017, -24(%rbp)   # imm = 0x33BC1089
	jne	.LBB67_10
.LBB67_9:
	movl	%ebx, %eax
	addq	$24, %rsp
	popq	%rbx
	popq	%rbp
	.cfi_def_cfa %rsp, 8
	retq
.LBB67_10:                              # %func_exit
	.cfi_def_cfa %rbp, 16
	callq	detect_breach
	jmp	.LBB67_9
.Lfunc_end67:
	.size	writeSyntaxElement_NumCoeffTrailingOnes.40, .Lfunc_end67-writeSyntaxElement_NumCoeffTrailingOnes.40
	.cfi_endproc
                                        # -- End function
	.globl	writeSyntaxElement_NumCoeffTrailingOnesChromaDC.41 # -- Begin function writeSyntaxElement_NumCoeffTrailingOnesChromaDC.41
	.p2align	4, 0x90
	.type	writeSyntaxElement_NumCoeffTrailingOnesChromaDC.41,@function
writeSyntaxElement_NumCoeffTrailingOnesChromaDC.41: # @writeSyntaxElement_NumCoeffTrailingOnesChromaDC.41
	.cfi_startproc
# %bb.0:                                # %entry
	pushq	%rbp
	.cfi_def_cfa_offset 16
	.cfi_offset %rbp, -16
	movq	%rsp, %rbp
	.cfi_def_cfa_register %rbp
	pushq	%rbx
	subq	$24, %rsp
	.cfi_offset %rbx, -24
	movabsq	$writeSyntaxElement_NumCoeffTrailingOnesChromaDC.codtab, %rax
	movabsq	$writeSyntaxElement_NumCoeffTrailingOnesChromaDC.lentab, %rcx
	movl	$890260511, -24(%rbp)   # imm = 0x35104C1F
	movq	%rdi, -16(%rbp)
	movq	%rsi, -32(%rbp)
	movq	img, %rdx
	movl	72700(%rdx), %edx
	subl	$1, %edx
	movl	%edx, -20(%rbp)
	movslq	-20(%rbp), %rdx
	imulq	$272, %rdx, %rdx        # imm = 0x110
	addq	%rdx, %rcx
	movq	-16(%rbp), %rdx
	movslq	8(%rdx), %rdx
	imulq	$68, %rdx, %rdx
	addq	%rdx, %rcx
	movq	-16(%rbp), %rdx
	movslq	4(%rdx), %rdx
	movl	(%rcx,%rdx,4), %ecx
	movq	-16(%rbp), %rdx
	movl	%ecx, 12(%rdx)
	movslq	-20(%rbp), %rcx
	imulq	$272, %rcx, %rcx        # imm = 0x110
	addq	%rcx, %rax
	movq	-16(%rbp), %rcx
	movslq	8(%rcx), %rcx
	imulq	$68, %rcx, %rcx
	addq	%rcx, %rax
	movq	-16(%rbp), %rcx
	movslq	4(%rcx), %rcx
	movl	(%rax,%rcx,4), %eax
	movq	-16(%rbp), %rcx
	movl	%eax, 16(%rcx)
	movq	-16(%rbp), %rax
	cmpl	$0, 12(%rax)
	jne	.LBB68_2
# %bb.1:                                # %if.then
	movq	-16(%rbp), %rax
	movl	4(%rax), %esi
	movq	-16(%rbp), %rax
	movl	8(%rax), %edx
	movabsq	$.L.str.1, %rdi
	movb	$0, %al
	callq	printf
	movl	$4294967295, %edi       # imm = 0xFFFFFFFF
	callq	exit
.LBB68_2:                               # %if.end
	movq	-16(%rbp), %rdi
	callq	symbol2vlc
	movq	-16(%rbp), %rdi
	movq	-32(%rbp), %rax
	movq	(%rax), %rsi
	callq	writeUVLC2buffer
	movq	-16(%rbp), %rax
	movl	12(%rax), %ebx
	cmpl	$890260511, -24(%rbp)   # imm = 0x35104C1F
	jne	.LBB68_4
.LBB68_3:
	movl	%ebx, %eax
	addq	$24, %rsp
	popq	%rbx
	popq	%rbp
	.cfi_def_cfa %rsp, 8
	retq
.LBB68_4:                               # %func_exit
	.cfi_def_cfa %rbp, 16
	callq	detect_breach
	jmp	.LBB68_3
.Lfunc_end68:
	.size	writeSyntaxElement_NumCoeffTrailingOnesChromaDC.41, .Lfunc_end68-writeSyntaxElement_NumCoeffTrailingOnesChromaDC.41
	.cfi_endproc
                                        # -- End function
	.section	.rodata.cst8,"aM",@progbits,8
	.p2align	3               # -- Begin function levrun_linfo_inter.42
.LCPI69_0:
	.quad	4611686018427387904     # double 2
	.text
	.globl	levrun_linfo_inter.42
	.p2align	4, 0x90
	.type	levrun_linfo_inter.42,@function
levrun_linfo_inter.42:                  # @levrun_linfo_inter.42
	.cfi_startproc
# %bb.0:                                # %entry
	pushq	%rbp
	.cfi_def_cfa_offset 16
	.cfi_offset %rbp, -16
	movq	%rsp, %rbp
	.cfi_def_cfa_register %rbp
	pushq	%rbx
	subq	$104, %rsp
	.cfi_offset %rbx, -24
	movl	$640198035, -40(%rbp)   # imm = 0x2628A593
	movl	%edi, -24(%rbp)
	movl	%esi, -16(%rbp)
	movq	%rdx, -48(%rbp)
	movq	%rcx, -72(%rbp)
	movq	.L__const.levrun_linfo_inter.LEVRUN, %rax
	movq	%rax, -64(%rbp)
	movq	.L__const.levrun_linfo_inter.LEVRUN+8, %rax
	movq	%rax, -56(%rbp)
	leaq	-112(%rbp), %rdi
	movabsq	$.L__const.levrun_linfo_inter.NTAB, %rsi
	movl	$40, %edx
	callq	memcpy
	cmpl	$0, -24(%rbp)
	jne	.LBB69_2
# %bb.1:                                # %if.then
	movq	-48(%rbp), %rax
	movl	$1, (%rax)
	jmp	.LBB69_15
.LBB69_2:                               # %if.end
	cmpl	$0, -24(%rbp)
	jg	.LBB69_4
# %bb.3:                                # %if.then2
	movl	$1, -36(%rbp)
	jmp	.LBB69_5
.LBB69_4:                               # %if.else
	movl	$0, -36(%rbp)
.LBB69_5:                               # %if.end3
	movl	-24(%rbp), %edi
	callq	abs
	movl	%eax, -28(%rbp)
	movl	-28(%rbp), %eax
	movslq	-16(%rbp), %rcx
	movzbl	-64(%rbp,%rcx), %ecx
	cmpl	%ecx, %eax
	jg	.LBB69_7
# %bb.6:                                # %if.then6
	movl	-28(%rbp), %eax
	subl	$1, %eax
	cltq
	imulq	$10, %rax, %rax
	leaq	-112(%rbp), %rcx
	addq	%rax, %rcx
	movslq	-16(%rbp), %rax
	movzbl	(%rcx,%rax), %eax
	addl	$1, %eax
	movl	%eax, -32(%rbp)
	jmp	.LBB69_8
.LBB69_7:                               # %if.else12
	movl	-28(%rbp), %eax
	movslq	-16(%rbp), %rcx
	movzbl	-64(%rbp,%rcx), %ecx
	subl	%ecx, %eax
	shll	$5, %eax
	movl	-16(%rbp), %ecx
	shll	$1, %ecx
	addl	%ecx, %eax
	movl	%eax, -32(%rbp)
.LBB69_8:                               # %if.end19
	movl	-32(%rbp), %eax
	cltd
	movl	$2, %ecx
	idivl	%ecx
	movl	%eax, -20(%rbp)
	movl	$0, -12(%rbp)
.LBB69_9:                               # %for.cond
                                        # =>This Inner Loop Header: Depth=1
	xorl	%eax, %eax
	cmpl	$16, -12(%rbp)
	jge	.LBB69_11
# %bb.10:                               # %land.rhs
                                        #   in Loop: Header=BB69_9 Depth=1
	cmpl	$0, -20(%rbp)
	setne	%al
.LBB69_11:                              # %land.end
                                        #   in Loop: Header=BB69_9 Depth=1
	testb	$1, %al
	jne	.LBB69_12
	jmp	.LBB69_14
.LBB69_12:                              # %for.body
                                        #   in Loop: Header=BB69_9 Depth=1
	movl	-20(%rbp), %eax
	cltd
	movl	$2, %ecx
	idivl	%ecx
	movl	%eax, -20(%rbp)
# %bb.13:                               # %for.inc
                                        #   in Loop: Header=BB69_9 Depth=1
	movl	-12(%rbp), %eax
	addl	$1, %eax
	movl	%eax, -12(%rbp)
	jmp	.LBB69_9
.LBB69_14:                              # %for.end
	vmovsd	.LCPI69_0(%rip), %xmm0  # xmm0 = mem[0],zero
	movl	-12(%rbp), %eax
	shll	$1, %eax
	addl	$1, %eax
	movq	-48(%rbp), %rcx
	movl	%eax, (%rcx)
	movl	-32(%rbp), %ebx
	vcvtsi2sdl	-12(%rbp), %xmm0, %xmm1
	callq	pow
	vcvttsd2si	%xmm0, %eax
	subl	%eax, %ebx
	addl	-36(%rbp), %ebx
	movq	-72(%rbp), %rax
	movl	%ebx, (%rax)
.LBB69_15:                              # %return
	cmpl	$640198035, -40(%rbp)   # imm = 0x2628A593
	jne	.LBB69_17
.LBB69_16:
	addq	$104, %rsp
	popq	%rbx
	popq	%rbp
	.cfi_def_cfa %rsp, 8
	retq
.LBB69_17:                              # %func_exit
	.cfi_def_cfa %rbp, 16
	callq	detect_breach
	jmp	.LBB69_16
.Lfunc_end69:
	.size	levrun_linfo_inter.42, .Lfunc_end69-levrun_linfo_inter.42
	.cfi_endproc
                                        # -- End function
	.globl	writeSyntaxElement2Buf_Fixed.43 # -- Begin function writeSyntaxElement2Buf_Fixed.43
	.p2align	4, 0x90
	.type	writeSyntaxElement2Buf_Fixed.43,@function
writeSyntaxElement2Buf_Fixed.43:        # @writeSyntaxElement2Buf_Fixed.43
	.cfi_startproc
# %bb.0:                                # %entry
	pushq	%rbp
	.cfi_def_cfa_offset 16
	.cfi_offset %rbp, -16
	movq	%rsp, %rbp
	.cfi_def_cfa_register %rbp
	pushq	%rbx
	subq	$24, %rsp
	.cfi_offset %rbx, -24
	movl	$483611685, -12(%rbp)   # imm = 0x1CD35425
	movq	%rdi, -24(%rbp)
	movq	%rsi, -32(%rbp)
	movq	-24(%rbp), %rdi
	movq	-32(%rbp), %rsi
	callq	writeUVLC2buffer
	movq	-24(%rbp), %rax
	movl	12(%rax), %ebx
	cmpl	$483611685, -12(%rbp)   # imm = 0x1CD35425
	jne	.LBB70_2
.LBB70_1:
	movl	%ebx, %eax
	addq	$24, %rsp
	popq	%rbx
	popq	%rbp
	.cfi_def_cfa %rsp, 8
	retq
.LBB70_2:                               # %func_exit
	.cfi_def_cfa %rbp, 16
	callq	detect_breach
	jmp	.LBB70_1
.Lfunc_end70:
	.size	writeSyntaxElement2Buf_Fixed.43, .Lfunc_end70-writeSyntaxElement2Buf_Fixed.43
	.cfi_endproc
                                        # -- End function
	.globl	writeUVLC2buffer.44     # -- Begin function writeUVLC2buffer.44
	.p2align	4, 0x90
	.type	writeUVLC2buffer.44,@function
writeUVLC2buffer.44:                    # @writeUVLC2buffer.44
	.cfi_startproc
# %bb.0:                                # %entry
	pushq	%rbp
	.cfi_def_cfa_offset 16
	.cfi_offset %rbp, -16
	movq	%rsp, %rbp
	.cfi_def_cfa_register %rbp
	subq	$32, %rsp
	movl	$947497524, -28(%rbp)   # imm = 0x3879AA34
	movq	%rdi, -24(%rbp)
	movq	%rsi, -8(%rbp)
	movq	-24(%rbp), %rax
	movl	12(%rax), %ecx
	subl	$1, %ecx
                                        # kill: def $cl killed $ecx
	movl	$1, %eax
	shll	%cl, %eax
	movl	%eax, -12(%rbp)
	movl	$0, -16(%rbp)
.LBB71_1:                               # %for.cond
                                        # =>This Inner Loop Header: Depth=1
	movl	-16(%rbp), %eax
	movq	-24(%rbp), %rcx
	cmpl	12(%rcx), %eax
	jge	.LBB71_8
# %bb.2:                                # %for.body
                                        #   in Loop: Header=BB71_1 Depth=1
	movq	-8(%rbp), %rax
	movzbl	8(%rax), %ecx
	shll	$1, %ecx
	movb	%cl, 8(%rax)
	movq	-24(%rbp), %rax
	movl	20(%rax), %eax
	andl	-12(%rbp), %eax
	cmpl	$0, %eax
	je	.LBB71_4
# %bb.3:                                # %if.then
                                        #   in Loop: Header=BB71_1 Depth=1
	movq	-8(%rbp), %rax
	movzbl	8(%rax), %ecx
	orl	$1, %ecx
	movb	%cl, 8(%rax)
.LBB71_4:                               # %if.end
                                        #   in Loop: Header=BB71_1 Depth=1
	movq	-8(%rbp), %rax
	movl	4(%rax), %ecx
	addl	$-1, %ecx
	movl	%ecx, 4(%rax)
	movl	-12(%rbp), %eax
	shrl	$1, %eax
	movl	%eax, -12(%rbp)
	movq	-8(%rbp), %rax
	cmpl	$0, 4(%rax)
	jne	.LBB71_6
# %bb.5:                                # %if.then10
                                        #   in Loop: Header=BB71_1 Depth=1
	movq	-8(%rbp), %rax
	movl	$8, 4(%rax)
	movq	-8(%rbp), %rax
	movb	8(%rax), %al
	movq	-8(%rbp), %rcx
	movq	32(%rcx), %rcx
	movq	-8(%rbp), %rdx
	movl	(%rdx), %esi
	movl	%esi, %edi
	addl	$1, %edi
	movl	%edi, (%rdx)
	movslq	%esi, %rdx
	movb	%al, (%rcx,%rdx)
	movq	-8(%rbp), %rax
	movb	$0, 8(%rax)
.LBB71_6:                               # %if.end14
                                        #   in Loop: Header=BB71_1 Depth=1
	jmp	.LBB71_7
.LBB71_7:                               # %for.inc
                                        #   in Loop: Header=BB71_1 Depth=1
	movl	-16(%rbp), %eax
	addl	$1, %eax
	movl	%eax, -16(%rbp)
	jmp	.LBB71_1
.LBB71_8:                               # %for.end
	cmpl	$947497524, -28(%rbp)   # imm = 0x3879AA34
	jne	.LBB71_10
.LBB71_9:
	addq	$32, %rsp
	popq	%rbp
	.cfi_def_cfa %rsp, 8
	retq
.LBB71_10:                              # %func_exit
	.cfi_def_cfa %rbp, 16
	callq	detect_breach
	jmp	.LBB71_9
.Lfunc_end71:
	.size	writeUVLC2buffer.44, .Lfunc_end71-writeUVLC2buffer.44
	.cfi_endproc
                                        # -- End function
	.section	.rodata.cst8,"aM",@progbits,8
	.p2align	3               # -- Begin function se_linfo.45
.LCPI72_0:
	.quad	4611686018427387904     # double 2
	.text
	.globl	se_linfo.45
	.p2align	4, 0x90
	.type	se_linfo.45,@function
se_linfo.45:                            # @se_linfo.45
	.cfi_startproc
# %bb.0:                                # %entry
	pushq	%rbp
	.cfi_def_cfa_offset 16
	.cfi_offset %rbp, -16
	movq	%rsp, %rbp
	.cfi_def_cfa_register %rbp
	pushq	%rbx
	subq	$56, %rsp
	.cfi_offset %rbx, -24
	movl	$1040955029, -32(%rbp)  # imm = 0x3E0BB695
	movl	%edi, -28(%rbp)
	movl	%esi, -52(%rbp)
	movq	%rdx, -48(%rbp)
	movq	%rcx, -40(%rbp)
	movl	$0, -20(%rbp)
	cmpl	$0, -28(%rbp)
	jg	.LBB72_2
# %bb.1:                                # %if.then
	movl	$1, -20(%rbp)
.LBB72_2:                               # %if.end
	movl	-28(%rbp), %edi
	callq	abs
	shll	$1, %eax
	movl	%eax, -24(%rbp)
	movl	-24(%rbp), %eax
	cltd
	movl	$2, %ecx
	idivl	%ecx
	movl	%eax, -16(%rbp)
	movl	$0, -12(%rbp)
.LBB72_3:                               # %for.cond
                                        # =>This Inner Loop Header: Depth=1
	xorl	%eax, %eax
	cmpl	$16, -12(%rbp)
	jge	.LBB72_5
# %bb.4:                                # %land.rhs
                                        #   in Loop: Header=BB72_3 Depth=1
	cmpl	$0, -16(%rbp)
	setne	%al
.LBB72_5:                               # %land.end
                                        #   in Loop: Header=BB72_3 Depth=1
	testb	$1, %al
	jne	.LBB72_6
	jmp	.LBB72_8
.LBB72_6:                               # %for.body
                                        #   in Loop: Header=BB72_3 Depth=1
	movl	-16(%rbp), %eax
	cltd
	movl	$2, %ecx
	idivl	%ecx
	movl	%eax, -16(%rbp)
# %bb.7:                                # %for.inc
                                        #   in Loop: Header=BB72_3 Depth=1
	movl	-12(%rbp), %eax
	addl	$1, %eax
	movl	%eax, -12(%rbp)
	jmp	.LBB72_3
.LBB72_8:                               # %for.end
	vmovsd	.LCPI72_0(%rip), %xmm0  # xmm0 = mem[0],zero
	movl	-12(%rbp), %eax
	shll	$1, %eax
	addl	$1, %eax
	movq	-48(%rbp), %rcx
	movl	%eax, (%rcx)
	movl	-24(%rbp), %ebx
	vcvtsi2sdl	-12(%rbp), %xmm0, %xmm1
	callq	pow
	vcvttsd2si	%xmm0, %eax
	subl	%eax, %ebx
	addl	-20(%rbp), %ebx
	movq	-40(%rbp), %rax
	movl	%ebx, (%rax)
	cmpl	$1040955029, -32(%rbp)  # imm = 0x3E0BB695
	jne	.LBB72_10
.LBB72_9:
	addq	$56, %rsp
	popq	%rbx
	popq	%rbp
	.cfi_def_cfa %rsp, 8
	retq
.LBB72_10:                              # %func_exit
	.cfi_def_cfa %rbp, 16
	callq	detect_breach
	jmp	.LBB72_9
.Lfunc_end72:
	.size	se_linfo.45, .Lfunc_end72-se_linfo.45
	.cfi_endproc
                                        # -- End function
	.globl	writeSyntaxElement_TotalZerosChromaDC.46 # -- Begin function writeSyntaxElement_TotalZerosChromaDC.46
	.p2align	4, 0x90
	.type	writeSyntaxElement_TotalZerosChromaDC.46,@function
writeSyntaxElement_TotalZerosChromaDC.46: # @writeSyntaxElement_TotalZerosChromaDC.46
	.cfi_startproc
# %bb.0:                                # %entry
	pushq	%rbp
	.cfi_def_cfa_offset 16
	.cfi_offset %rbp, -16
	movq	%rsp, %rbp
	.cfi_def_cfa_register %rbp
	pushq	%rbx
	subq	$40, %rsp
	.cfi_offset %rbx, -24
	movabsq	$writeSyntaxElement_TotalZerosChromaDC.codtab, %rax
	movabsq	$writeSyntaxElement_TotalZerosChromaDC.lentab, %rcx
	movl	$295862697, -28(%rbp)   # imm = 0x11A281A9
	movq	%rdi, -16(%rbp)
	movq	%rsi, -40(%rbp)
	movq	img, %rdx
	movl	72700(%rdx), %edx
	subl	$1, %edx
	movl	%edx, -20(%rbp)
	movq	-16(%rbp), %rdx
	movl	12(%rdx), %edx
	movl	%edx, -24(%rbp)
	movslq	-20(%rbp), %rdx
	imulq	$960, %rdx, %rdx        # imm = 0x3C0
	addq	%rdx, %rcx
	movslq	-24(%rbp), %rdx
	shlq	$6, %rdx
	addq	%rdx, %rcx
	movq	-16(%rbp), %rdx
	movslq	4(%rdx), %rdx
	movl	(%rcx,%rdx,4), %ecx
	movq	-16(%rbp), %rdx
	movl	%ecx, 12(%rdx)
	movslq	-20(%rbp), %rcx
	imulq	$960, %rcx, %rcx        # imm = 0x3C0
	addq	%rcx, %rax
	movslq	-24(%rbp), %rcx
	shlq	$6, %rcx
	addq	%rcx, %rax
	movq	-16(%rbp), %rcx
	movslq	4(%rcx), %rcx
	movl	(%rax,%rcx,4), %eax
	movq	-16(%rbp), %rcx
	movl	%eax, 16(%rcx)
	movq	-16(%rbp), %rax
	cmpl	$0, 12(%rax)
	jne	.LBB73_2
# %bb.1:                                # %if.then
	movq	-16(%rbp), %rax
	movl	4(%rax), %esi
	movabsq	$.L.str.2, %rdi
	movb	$0, %al
	callq	printf
	movl	$4294967295, %edi       # imm = 0xFFFFFFFF
	callq	exit
.LBB73_2:                               # %if.end
	movq	-16(%rbp), %rdi
	callq	symbol2vlc
	movq	-16(%rbp), %rdi
	movq	-40(%rbp), %rax
	movq	(%rax), %rsi
	callq	writeUVLC2buffer
	movq	-16(%rbp), %rax
	movl	12(%rax), %ebx
	cmpl	$295862697, -28(%rbp)   # imm = 0x11A281A9
	jne	.LBB73_4
.LBB73_3:
	movl	%ebx, %eax
	addq	$40, %rsp
	popq	%rbx
	popq	%rbp
	.cfi_def_cfa %rsp, 8
	retq
.LBB73_4:                               # %func_exit
	.cfi_def_cfa %rbp, 16
	callq	detect_breach
	jmp	.LBB73_3
.Lfunc_end73:
	.size	writeSyntaxElement_TotalZerosChromaDC.46, .Lfunc_end73-writeSyntaxElement_TotalZerosChromaDC.46
	.cfi_endproc
                                        # -- End function
	.globl	writeUVLC2buffer.47     # -- Begin function writeUVLC2buffer.47
	.p2align	4, 0x90
	.type	writeUVLC2buffer.47,@function
writeUVLC2buffer.47:                    # @writeUVLC2buffer.47
	.cfi_startproc
# %bb.0:                                # %entry
	pushq	%rbp
	.cfi_def_cfa_offset 16
	.cfi_offset %rbp, -16
	movq	%rsp, %rbp
	.cfi_def_cfa_register %rbp
	subq	$32, %rsp
	movl	$920639932, -28(%rbp)   # imm = 0x36DFD9BC
	movq	%rdi, -24(%rbp)
	movq	%rsi, -8(%rbp)
	movq	-24(%rbp), %rax
	movl	12(%rax), %ecx
	subl	$1, %ecx
                                        # kill: def $cl killed $ecx
	movl	$1, %eax
	shll	%cl, %eax
	movl	%eax, -16(%rbp)
	movl	$0, -12(%rbp)
.LBB74_1:                               # %for.cond
                                        # =>This Inner Loop Header: Depth=1
	movl	-12(%rbp), %eax
	movq	-24(%rbp), %rcx
	cmpl	12(%rcx), %eax
	jge	.LBB74_8
# %bb.2:                                # %for.body
                                        #   in Loop: Header=BB74_1 Depth=1
	movq	-8(%rbp), %rax
	movzbl	8(%rax), %ecx
	shll	$1, %ecx
	movb	%cl, 8(%rax)
	movq	-24(%rbp), %rax
	movl	20(%rax), %eax
	andl	-16(%rbp), %eax
	cmpl	$0, %eax
	je	.LBB74_4
# %bb.3:                                # %if.then
                                        #   in Loop: Header=BB74_1 Depth=1
	movq	-8(%rbp), %rax
	movzbl	8(%rax), %ecx
	orl	$1, %ecx
	movb	%cl, 8(%rax)
.LBB74_4:                               # %if.end
                                        #   in Loop: Header=BB74_1 Depth=1
	movq	-8(%rbp), %rax
	movl	4(%rax), %ecx
	addl	$-1, %ecx
	movl	%ecx, 4(%rax)
	movl	-16(%rbp), %eax
	shrl	$1, %eax
	movl	%eax, -16(%rbp)
	movq	-8(%rbp), %rax
	cmpl	$0, 4(%rax)
	jne	.LBB74_6
# %bb.5:                                # %if.then10
                                        #   in Loop: Header=BB74_1 Depth=1
	movq	-8(%rbp), %rax
	movl	$8, 4(%rax)
	movq	-8(%rbp), %rax
	movb	8(%rax), %al
	movq	-8(%rbp), %rcx
	movq	32(%rcx), %rcx
	movq	-8(%rbp), %rdx
	movl	(%rdx), %esi
	movl	%esi, %edi
	addl	$1, %edi
	movl	%edi, (%rdx)
	movslq	%esi, %rdx
	movb	%al, (%rcx,%rdx)
	movq	-8(%rbp), %rax
	movb	$0, 8(%rax)
.LBB74_6:                               # %if.end14
                                        #   in Loop: Header=BB74_1 Depth=1
	jmp	.LBB74_7
.LBB74_7:                               # %for.inc
                                        #   in Loop: Header=BB74_1 Depth=1
	movl	-12(%rbp), %eax
	addl	$1, %eax
	movl	%eax, -12(%rbp)
	jmp	.LBB74_1
.LBB74_8:                               # %for.end
	cmpl	$920639932, -28(%rbp)   # imm = 0x36DFD9BC
	jne	.LBB74_10
.LBB74_9:
	addq	$32, %rsp
	popq	%rbp
	.cfi_def_cfa %rsp, 8
	retq
.LBB74_10:                              # %func_exit
	.cfi_def_cfa %rbp, 16
	callq	detect_breach
	jmp	.LBB74_9
.Lfunc_end74:
	.size	writeUVLC2buffer.47, .Lfunc_end74-writeUVLC2buffer.47
	.cfi_endproc
                                        # -- End function
	.section	.rodata.cst8,"aM",@progbits,8
	.p2align	3               # -- Begin function levrun_linfo_intra.48
.LCPI75_0:
	.quad	4611686018427387904     # double 2
	.text
	.globl	levrun_linfo_intra.48
	.p2align	4, 0x90
	.type	levrun_linfo_intra.48,@function
levrun_linfo_intra.48:                  # @levrun_linfo_intra.48
	.cfi_startproc
# %bb.0:                                # %entry
	pushq	%rbp
	.cfi_def_cfa_offset 16
	.cfi_offset %rbp, -16
	movq	%rsp, %rbp
	.cfi_def_cfa_register %rbp
	pushq	%rbx
	subq	$104, %rsp
	.cfi_offset %rbx, -24
	movl	$1542625815, -40(%rbp)  # imm = 0x5BF29A17
	movl	%edi, -32(%rbp)
	movl	%esi, -16(%rbp)
	movq	%rdx, -48(%rbp)
	movq	%rcx, -64(%rbp)
	movq	.L__const.levrun_linfo_intra.LEVRUN, %rax
	movq	%rax, -56(%rbp)
	leaq	-112(%rbp), %rdi
	movabsq	$.L__const.levrun_linfo_intra.NTAB, %rsi
	movl	$45, %edx
	callq	memcpy
	cmpl	$0, -32(%rbp)
	jne	.LBB75_2
# %bb.1:                                # %if.then
	movq	-48(%rbp), %rax
	movl	$1, (%rax)
	jmp	.LBB75_15
.LBB75_2:                               # %if.end
	cmpl	$0, -32(%rbp)
	jg	.LBB75_4
# %bb.3:                                # %if.then2
	movl	$1, -36(%rbp)
	jmp	.LBB75_5
.LBB75_4:                               # %if.else
	movl	$0, -36(%rbp)
.LBB75_5:                               # %if.end3
	movl	-32(%rbp), %edi
	callq	abs
	movl	%eax, -24(%rbp)
	movl	-24(%rbp), %eax
	movslq	-16(%rbp), %rcx
	movzbl	-56(%rbp,%rcx), %ecx
	cmpl	%ecx, %eax
	jg	.LBB75_7
# %bb.6:                                # %if.then6
	movl	-24(%rbp), %eax
	subl	$1, %eax
	cltq
	imulq	$5, %rax, %rax
	leaq	-112(%rbp), %rcx
	addq	%rax, %rcx
	movslq	-16(%rbp), %rax
	movzbl	(%rcx,%rax), %eax
	addl	$1, %eax
	movl	%eax, -28(%rbp)
	jmp	.LBB75_8
.LBB75_7:                               # %if.else12
	movl	-24(%rbp), %eax
	movslq	-16(%rbp), %rcx
	movzbl	-56(%rbp,%rcx), %ecx
	subl	%ecx, %eax
	shll	$4, %eax
	addl	$16, %eax
	movl	-16(%rbp), %ecx
	shll	$1, %ecx
	addl	%ecx, %eax
	movl	%eax, -28(%rbp)
.LBB75_8:                               # %if.end20
	movl	-28(%rbp), %eax
	cltd
	movl	$2, %ecx
	idivl	%ecx
	movl	%eax, -20(%rbp)
	movl	$0, -12(%rbp)
.LBB75_9:                               # %for.cond
                                        # =>This Inner Loop Header: Depth=1
	xorl	%eax, %eax
	cmpl	$16, -12(%rbp)
	jge	.LBB75_11
# %bb.10:                               # %land.rhs
                                        #   in Loop: Header=BB75_9 Depth=1
	cmpl	$0, -20(%rbp)
	setne	%al
.LBB75_11:                              # %land.end
                                        #   in Loop: Header=BB75_9 Depth=1
	testb	$1, %al
	jne	.LBB75_12
	jmp	.LBB75_14
.LBB75_12:                              # %for.body
                                        #   in Loop: Header=BB75_9 Depth=1
	movl	-20(%rbp), %eax
	cltd
	movl	$2, %ecx
	idivl	%ecx
	movl	%eax, -20(%rbp)
# %bb.13:                               # %for.inc
                                        #   in Loop: Header=BB75_9 Depth=1
	movl	-12(%rbp), %eax
	addl	$1, %eax
	movl	%eax, -12(%rbp)
	jmp	.LBB75_9
.LBB75_14:                              # %for.end
	vmovsd	.LCPI75_0(%rip), %xmm0  # xmm0 = mem[0],zero
	movl	-12(%rbp), %eax
	shll	$1, %eax
	addl	$1, %eax
	movq	-48(%rbp), %rcx
	movl	%eax, (%rcx)
	movl	-28(%rbp), %ebx
	vcvtsi2sdl	-12(%rbp), %xmm0, %xmm1
	callq	pow
	vcvttsd2si	%xmm0, %eax
	subl	%eax, %ebx
	addl	-36(%rbp), %ebx
	movq	-64(%rbp), %rax
	movl	%ebx, (%rax)
.LBB75_15:                              # %return
	cmpl	$1542625815, -40(%rbp)  # imm = 0x5BF29A17
	jne	.LBB75_17
.LBB75_16:
	addq	$104, %rsp
	popq	%rbx
	popq	%rbp
	.cfi_def_cfa %rsp, 8
	retq
.LBB75_17:                              # %func_exit
	.cfi_def_cfa %rbp, 16
	callq	detect_breach
	jmp	.LBB75_16
.Lfunc_end75:
	.size	levrun_linfo_intra.48, .Lfunc_end75-levrun_linfo_intra.48
	.cfi_endproc
                                        # -- End function
	.globl	se_v.49                 # -- Begin function se_v.49
	.p2align	4, 0x90
	.type	se_v.49,@function
se_v.49:                                # @se_v.49
	.cfi_startproc
# %bb.0:                                # %entry
	pushq	%rbp
	.cfi_def_cfa_offset 16
	.cfi_offset %rbp, -16
	movq	%rsp, %rbp
	.cfi_def_cfa_register %rbp
	pushq	%rbx
	subq	$88, %rsp
	.cfi_offset %rbx, -24
	movl	$965675100, -20(%rbp)   # imm = 0x398F085C
	movq	%rdi, -40(%rbp)
	movl	%esi, -24(%rbp)
	movq	%rdx, -32(%rbp)
	leaq	-88(%rbp), %rax
	movq	%rax, -16(%rbp)
	movq	-16(%rbp), %rax
	movl	$0, (%rax)
	movq	-16(%rbp), %rax
	movabsq	$se_linfo, %rcx
	movq	%rcx, 32(%rax)
	movl	-24(%rbp), %eax
	movq	-16(%rbp), %rcx
	movl	%eax, 4(%rcx)
	movq	-16(%rbp), %rax
	movl	$0, 8(%rax)
	movq	-16(%rbp), %rdi
	movq	-32(%rbp), %rsi
	callq	writeSyntaxElement_UVLC
	movl	%eax, %ebx
	cmpl	$965675100, -20(%rbp)   # imm = 0x398F085C
	jne	.LBB76_2
.LBB76_1:
	movl	%ebx, %eax
	addq	$88, %rsp
	popq	%rbx
	popq	%rbp
	.cfi_def_cfa %rsp, 8
	retq
.LBB76_2:                               # %func_exit
	.cfi_def_cfa %rbp, 16
	callq	detect_breach
	jmp	.LBB76_1
.Lfunc_end76:
	.size	se_v.49, .Lfunc_end76-se_v.49
	.cfi_endproc
                                        # -- End function
	.globl	writeUVLC2buffer.50     # -- Begin function writeUVLC2buffer.50
	.p2align	4, 0x90
	.type	writeUVLC2buffer.50,@function
writeUVLC2buffer.50:                    # @writeUVLC2buffer.50
	.cfi_startproc
# %bb.0:                                # %entry
	pushq	%rbp
	.cfi_def_cfa_offset 16
	.cfi_offset %rbp, -16
	movq	%rsp, %rbp
	.cfi_def_cfa_register %rbp
	subq	$32, %rsp
	movl	$755840245, -28(%rbp)   # imm = 0x2D0D34F5
	movq	%rdi, -24(%rbp)
	movq	%rsi, -8(%rbp)
	movq	-24(%rbp), %rax
	movl	12(%rax), %ecx
	subl	$1, %ecx
                                        # kill: def $cl killed $ecx
	movl	$1, %eax
	shll	%cl, %eax
	movl	%eax, -12(%rbp)
	movl	$0, -16(%rbp)
.LBB77_1:                               # %for.cond
                                        # =>This Inner Loop Header: Depth=1
	movl	-16(%rbp), %eax
	movq	-24(%rbp), %rcx
	cmpl	12(%rcx), %eax
	jge	.LBB77_8
# %bb.2:                                # %for.body
                                        #   in Loop: Header=BB77_1 Depth=1
	movq	-8(%rbp), %rax
	movzbl	8(%rax), %ecx
	shll	$1, %ecx
	movb	%cl, 8(%rax)
	movq	-24(%rbp), %rax
	movl	20(%rax), %eax
	andl	-12(%rbp), %eax
	cmpl	$0, %eax
	je	.LBB77_4
# %bb.3:                                # %if.then
                                        #   in Loop: Header=BB77_1 Depth=1
	movq	-8(%rbp), %rax
	movzbl	8(%rax), %ecx
	orl	$1, %ecx
	movb	%cl, 8(%rax)
.LBB77_4:                               # %if.end
                                        #   in Loop: Header=BB77_1 Depth=1
	movq	-8(%rbp), %rax
	movl	4(%rax), %ecx
	addl	$-1, %ecx
	movl	%ecx, 4(%rax)
	movl	-12(%rbp), %eax
	shrl	$1, %eax
	movl	%eax, -12(%rbp)
	movq	-8(%rbp), %rax
	cmpl	$0, 4(%rax)
	jne	.LBB77_6
# %bb.5:                                # %if.then10
                                        #   in Loop: Header=BB77_1 Depth=1
	movq	-8(%rbp), %rax
	movl	$8, 4(%rax)
	movq	-8(%rbp), %rax
	movb	8(%rax), %al
	movq	-8(%rbp), %rcx
	movq	32(%rcx), %rcx
	movq	-8(%rbp), %rdx
	movl	(%rdx), %esi
	movl	%esi, %edi
	addl	$1, %edi
	movl	%edi, (%rdx)
	movslq	%esi, %rdx
	movb	%al, (%rcx,%rdx)
	movq	-8(%rbp), %rax
	movb	$0, 8(%rax)
.LBB77_6:                               # %if.end14
                                        #   in Loop: Header=BB77_1 Depth=1
	jmp	.LBB77_7
.LBB77_7:                               # %for.inc
                                        #   in Loop: Header=BB77_1 Depth=1
	movl	-16(%rbp), %eax
	addl	$1, %eax
	movl	%eax, -16(%rbp)
	jmp	.LBB77_1
.LBB77_8:                               # %for.end
	cmpl	$755840245, -28(%rbp)   # imm = 0x2D0D34F5
	jne	.LBB77_10
.LBB77_9:
	addq	$32, %rsp
	popq	%rbp
	.cfi_def_cfa %rsp, 8
	retq
.LBB77_10:                              # %func_exit
	.cfi_def_cfa %rbp, 16
	callq	detect_breach
	jmp	.LBB77_9
.Lfunc_end77:
	.size	writeUVLC2buffer.50, .Lfunc_end77-writeUVLC2buffer.50
	.cfi_endproc
                                        # -- End function
	.globl	cbp_linfo_intra.51      # -- Begin function cbp_linfo_intra.51
	.p2align	4, 0x90
	.type	cbp_linfo_intra.51,@function
cbp_linfo_intra.51:                     # @cbp_linfo_intra.51
	.cfi_startproc
# %bb.0:                                # %entry
	pushq	%rbp
	.cfi_def_cfa_offset 16
	.cfi_offset %rbp, -16
	movq	%rsp, %rbp
	.cfi_def_cfa_register %rbp
	subq	$32, %rsp
	xorl	%eax, %eax
	movl	$1942783110, -12(%rbp)  # imm = 0x73CC8486
	movl	%edi, -8(%rbp)
	movl	%esi, -4(%rbp)
	movq	%rdx, -24(%rbp)
	movq	%rcx, -32(%rbp)
	movq	img, %rcx
	movl	72700(%rcx), %ecx
	cmpl	$0, %ecx
	movl	$1, %ecx
	cmovnel	%ecx, %eax
	cltq
	imulq	$96, %rax, %rax
	movabsq	$NCBP, %rcx
	addq	%rax, %rcx
	movslq	-8(%rbp), %rax
	movzbl	(%rcx,%rax,2), %edi
	movl	-4(%rbp), %esi
	movq	-24(%rbp), %rdx
	movq	-32(%rbp), %rcx
	callq	ue_linfo
	cmpl	$1942783110, -12(%rbp)  # imm = 0x73CC8486
	jne	.LBB78_2
.LBB78_1:
	addq	$32, %rsp
	popq	%rbp
	.cfi_def_cfa %rsp, 8
	retq
.LBB78_2:                               # %func_exit
	.cfi_def_cfa %rbp, 16
	callq	detect_breach
	jmp	.LBB78_1
.Lfunc_end78:
	.size	cbp_linfo_intra.51, .Lfunc_end78-cbp_linfo_intra.51
	.cfi_endproc
                                        # -- End function
	.globl	cbp_linfo_inter.52      # -- Begin function cbp_linfo_inter.52
	.p2align	4, 0x90
	.type	cbp_linfo_inter.52,@function
cbp_linfo_inter.52:                     # @cbp_linfo_inter.52
	.cfi_startproc
# %bb.0:                                # %entry
	pushq	%rbp
	.cfi_def_cfa_offset 16
	.cfi_offset %rbp, -16
	movq	%rsp, %rbp
	.cfi_def_cfa_register %rbp
	subq	$32, %rsp
	xorl	%eax, %eax
	movl	$860008351, -8(%rbp)    # imm = 0x3342AF9F
	movl	%edi, -4(%rbp)
	movl	%esi, -12(%rbp)
	movq	%rdx, -24(%rbp)
	movq	%rcx, -32(%rbp)
	movq	img, %rcx
	movl	72700(%rcx), %ecx
	cmpl	$0, %ecx
	movl	$1, %ecx
	cmovnel	%ecx, %eax
	cltq
	imulq	$96, %rax, %rax
	movabsq	$NCBP, %rcx
	addq	%rax, %rcx
	movslq	-4(%rbp), %rax
	movzbl	1(%rcx,%rax,2), %edi
	movl	-12(%rbp), %esi
	movq	-24(%rbp), %rdx
	movq	-32(%rbp), %rcx
	callq	ue_linfo
	cmpl	$860008351, -8(%rbp)    # imm = 0x3342AF9F
	jne	.LBB79_2
.LBB79_1:
	addq	$32, %rsp
	popq	%rbp
	.cfi_def_cfa %rsp, 8
	retq
.LBB79_2:                               # %func_exit
	.cfi_def_cfa %rbp, 16
	callq	detect_breach
	jmp	.LBB79_1
.Lfunc_end79:
	.size	cbp_linfo_inter.52, .Lfunc_end79-cbp_linfo_inter.52
	.cfi_endproc
                                        # -- End function
	.globl	u_1.53                  # -- Begin function u_1.53
	.p2align	4, 0x90
	.type	u_1.53,@function
u_1.53:                                 # @u_1.53
	.cfi_startproc
# %bb.0:                                # %entry
	pushq	%rbp
	.cfi_def_cfa_offset 16
	.cfi_offset %rbp, -16
	movq	%rsp, %rbp
	.cfi_def_cfa_register %rbp
	pushq	%rbx
	subq	$88, %rsp
	.cfi_offset %rbx, -24
	movl	$1316577785, -24(%rbp)  # imm = 0x4E7961F9
	movq	%rdi, -40(%rbp)
	movl	%esi, -20(%rbp)
	movq	%rdx, -32(%rbp)
	leaq	-88(%rbp), %rax
	movq	%rax, -16(%rbp)
	movl	-20(%rbp), %eax
	movq	-16(%rbp), %rcx
	movl	%eax, 20(%rcx)
	movq	-16(%rbp), %rax
	movl	$1, 12(%rax)
	movq	-16(%rbp), %rax
	movl	$0, (%rax)
	movl	-20(%rbp), %eax
	movq	-16(%rbp), %rcx
	movl	%eax, 4(%rcx)
	movq	-16(%rbp), %rax
	movl	$0, 8(%rax)
	movq	-16(%rbp), %rdi
	movq	-32(%rbp), %rsi
	callq	writeSyntaxElement_fixed
	movl	%eax, %ebx
	cmpl	$1316577785, -24(%rbp)  # imm = 0x4E7961F9
	jne	.LBB80_2
.LBB80_1:
	movl	%ebx, %eax
	addq	$88, %rsp
	popq	%rbx
	popq	%rbp
	.cfi_def_cfa %rsp, 8
	retq
.LBB80_2:                               # %func_exit
	.cfi_def_cfa %rbp, 16
	callq	detect_breach
	jmp	.LBB80_1
.Lfunc_end80:
	.size	u_1.53, .Lfunc_end80-u_1.53
	.cfi_endproc
                                        # -- End function
	.globl	se_v.54                 # -- Begin function se_v.54
	.p2align	4, 0x90
	.type	se_v.54,@function
se_v.54:                                # @se_v.54
	.cfi_startproc
# %bb.0:                                # %entry
	pushq	%rbp
	.cfi_def_cfa_offset 16
	.cfi_offset %rbp, -16
	movq	%rsp, %rbp
	.cfi_def_cfa_register %rbp
	pushq	%rbx
	subq	$88, %rsp
	.cfi_offset %rbx, -24
	movl	$333315998, -24(%rbp)   # imm = 0x13DDFF9E
	movq	%rdi, -40(%rbp)
	movl	%esi, -20(%rbp)
	movq	%rdx, -32(%rbp)
	leaq	-88(%rbp), %rax
	movq	%rax, -16(%rbp)
	movq	-16(%rbp), %rax
	movl	$0, (%rax)
	movq	-16(%rbp), %rax
	movabsq	$se_linfo, %rcx
	movq	%rcx, 32(%rax)
	movl	-20(%rbp), %eax
	movq	-16(%rbp), %rcx
	movl	%eax, 4(%rcx)
	movq	-16(%rbp), %rax
	movl	$0, 8(%rax)
	movq	-16(%rbp), %rdi
	movq	-32(%rbp), %rsi
	callq	writeSyntaxElement_UVLC
	movl	%eax, %ebx
	cmpl	$333315998, -24(%rbp)   # imm = 0x13DDFF9E
	jne	.LBB81_2
.LBB81_1:
	movl	%ebx, %eax
	addq	$88, %rsp
	popq	%rbx
	popq	%rbp
	.cfi_def_cfa %rsp, 8
	retq
.LBB81_2:                               # %func_exit
	.cfi_def_cfa %rbp, 16
	callq	detect_breach
	jmp	.LBB81_1
.Lfunc_end81:
	.size	se_v.54, .Lfunc_end81-se_v.54
	.cfi_endproc
                                        # -- End function
	.globl	u_v.55                  # -- Begin function u_v.55
	.p2align	4, 0x90
	.type	u_v.55,@function
u_v.55:                                 # @u_v.55
	.cfi_startproc
# %bb.0:                                # %entry
	pushq	%rbp
	.cfi_def_cfa_offset 16
	.cfi_offset %rbp, -16
	movq	%rsp, %rbp
	.cfi_def_cfa_register %rbp
	pushq	%rbx
	subq	$88, %rsp
	.cfi_offset %rbx, -24
	movl	$118690735, -24(%rbp)   # imm = 0x71313AF
	movl	%edi, -28(%rbp)
	movq	%rsi, -48(%rbp)
	movl	%edx, -20(%rbp)
	movq	%rcx, -40(%rbp)
	leaq	-96(%rbp), %rax
	movq	%rax, -16(%rbp)
	movl	-20(%rbp), %eax
	movq	-16(%rbp), %rcx
	movl	%eax, 20(%rcx)
	movl	-28(%rbp), %eax
	movq	-16(%rbp), %rcx
	movl	%eax, 12(%rcx)
	movq	-16(%rbp), %rax
	movl	$0, (%rax)
	movl	-20(%rbp), %eax
	movq	-16(%rbp), %rcx
	movl	%eax, 4(%rcx)
	movq	-16(%rbp), %rax
	movl	$0, 8(%rax)
	movq	-16(%rbp), %rdi
	movq	-40(%rbp), %rsi
	callq	writeSyntaxElement_fixed
	movl	%eax, %ebx
	cmpl	$118690735, -24(%rbp)   # imm = 0x71313AF
	jne	.LBB82_2
.LBB82_1:
	movl	%ebx, %eax
	addq	$88, %rsp
	popq	%rbx
	popq	%rbp
	.cfi_def_cfa %rsp, 8
	retq
.LBB82_2:                               # %func_exit
	.cfi_def_cfa %rbp, 16
	callq	detect_breach
	jmp	.LBB82_1
.Lfunc_end82:
	.size	u_v.55, .Lfunc_end82-u_v.55
	.cfi_endproc
                                        # -- End function
	.globl	writeSyntaxElement_TotalZerosChromaDC.56 # -- Begin function writeSyntaxElement_TotalZerosChromaDC.56
	.p2align	4, 0x90
	.type	writeSyntaxElement_TotalZerosChromaDC.56,@function
writeSyntaxElement_TotalZerosChromaDC.56: # @writeSyntaxElement_TotalZerosChromaDC.56
	.cfi_startproc
# %bb.0:                                # %entry
	pushq	%rbp
	.cfi_def_cfa_offset 16
	.cfi_offset %rbp, -16
	movq	%rsp, %rbp
	.cfi_def_cfa_register %rbp
	pushq	%rbx
	subq	$40, %rsp
	.cfi_offset %rbx, -24
	movabsq	$writeSyntaxElement_TotalZerosChromaDC.codtab, %rax
	movabsq	$writeSyntaxElement_TotalZerosChromaDC.lentab, %rcx
	movl	$205650170, -28(%rbp)   # imm = 0xC41F8FA
	movq	%rdi, -16(%rbp)
	movq	%rsi, -40(%rbp)
	movq	img, %rdx
	movl	72700(%rdx), %edx
	subl	$1, %edx
	movl	%edx, -24(%rbp)
	movq	-16(%rbp), %rdx
	movl	12(%rdx), %edx
	movl	%edx, -20(%rbp)
	movslq	-24(%rbp), %rdx
	imulq	$960, %rdx, %rdx        # imm = 0x3C0
	addq	%rdx, %rcx
	movslq	-20(%rbp), %rdx
	shlq	$6, %rdx
	addq	%rdx, %rcx
	movq	-16(%rbp), %rdx
	movslq	4(%rdx), %rdx
	movl	(%rcx,%rdx,4), %ecx
	movq	-16(%rbp), %rdx
	movl	%ecx, 12(%rdx)
	movslq	-24(%rbp), %rcx
	imulq	$960, %rcx, %rcx        # imm = 0x3C0
	addq	%rcx, %rax
	movslq	-20(%rbp), %rcx
	shlq	$6, %rcx
	addq	%rcx, %rax
	movq	-16(%rbp), %rcx
	movslq	4(%rcx), %rcx
	movl	(%rax,%rcx,4), %eax
	movq	-16(%rbp), %rcx
	movl	%eax, 16(%rcx)
	movq	-16(%rbp), %rax
	cmpl	$0, 12(%rax)
	jne	.LBB83_2
# %bb.1:                                # %if.then
	movq	-16(%rbp), %rax
	movl	4(%rax), %esi
	movabsq	$.L.str.2, %rdi
	movb	$0, %al
	callq	printf
	movl	$4294967295, %edi       # imm = 0xFFFFFFFF
	callq	exit
.LBB83_2:                               # %if.end
	movq	-16(%rbp), %rdi
	callq	symbol2vlc
	movq	-16(%rbp), %rdi
	movq	-40(%rbp), %rax
	movq	(%rax), %rsi
	callq	writeUVLC2buffer
	movq	-16(%rbp), %rax
	movl	12(%rax), %ebx
	cmpl	$205650170, -28(%rbp)   # imm = 0xC41F8FA
	jne	.LBB83_4
.LBB83_3:
	movl	%ebx, %eax
	addq	$40, %rsp
	popq	%rbx
	popq	%rbp
	.cfi_def_cfa %rsp, 8
	retq
.LBB83_4:                               # %func_exit
	.cfi_def_cfa %rbp, 16
	callq	detect_breach
	jmp	.LBB83_3
.Lfunc_end83:
	.size	writeSyntaxElement_TotalZerosChromaDC.56, .Lfunc_end83-writeSyntaxElement_TotalZerosChromaDC.56
	.cfi_endproc
                                        # -- End function
	.globl	u_1.57                  # -- Begin function u_1.57
	.p2align	4, 0x90
	.type	u_1.57,@function
u_1.57:                                 # @u_1.57
	.cfi_startproc
# %bb.0:                                # %entry
	pushq	%rbp
	.cfi_def_cfa_offset 16
	.cfi_offset %rbp, -16
	movq	%rsp, %rbp
	.cfi_def_cfa_register %rbp
	pushq	%rbx
	subq	$88, %rsp
	.cfi_offset %rbx, -24
	movl	$363809245, -24(%rbp)   # imm = 0x15AF49DD
	movq	%rdi, -40(%rbp)
	movl	%esi, -20(%rbp)
	movq	%rdx, -32(%rbp)
	leaq	-88(%rbp), %rax
	movq	%rax, -16(%rbp)
	movl	-20(%rbp), %eax
	movq	-16(%rbp), %rcx
	movl	%eax, 20(%rcx)
	movq	-16(%rbp), %rax
	movl	$1, 12(%rax)
	movq	-16(%rbp), %rax
	movl	$0, (%rax)
	movl	-20(%rbp), %eax
	movq	-16(%rbp), %rcx
	movl	%eax, 4(%rcx)
	movq	-16(%rbp), %rax
	movl	$0, 8(%rax)
	movq	-16(%rbp), %rdi
	movq	-32(%rbp), %rsi
	callq	writeSyntaxElement_fixed
	movl	%eax, %ebx
	cmpl	$363809245, -24(%rbp)   # imm = 0x15AF49DD
	jne	.LBB84_2
.LBB84_1:
	movl	%ebx, %eax
	addq	$88, %rsp
	popq	%rbx
	popq	%rbp
	.cfi_def_cfa %rsp, 8
	retq
.LBB84_2:                               # %func_exit
	.cfi_def_cfa %rbp, 16
	callq	detect_breach
	jmp	.LBB84_1
.Lfunc_end84:
	.size	u_1.57, .Lfunc_end84-u_1.57
	.cfi_endproc
                                        # -- End function
	.globl	ue_v.58                 # -- Begin function ue_v.58
	.p2align	4, 0x90
	.type	ue_v.58,@function
ue_v.58:                                # @ue_v.58
	.cfi_startproc
# %bb.0:                                # %entry
	pushq	%rbp
	.cfi_def_cfa_offset 16
	.cfi_offset %rbp, -16
	movq	%rsp, %rbp
	.cfi_def_cfa_register %rbp
	pushq	%rbx
	subq	$88, %rsp
	.cfi_offset %rbx, -24
	movl	$1035570253, -20(%rbp)  # imm = 0x3DB98C4D
	movq	%rdi, -40(%rbp)
	movl	%esi, -24(%rbp)
	movq	%rdx, -32(%rbp)
	leaq	-88(%rbp), %rax
	movq	%rax, -16(%rbp)
	movq	-16(%rbp), %rax
	movl	$0, (%rax)
	movq	-16(%rbp), %rax
	movabsq	$ue_linfo, %rcx
	movq	%rcx, 32(%rax)
	movl	-24(%rbp), %eax
	movq	-16(%rbp), %rcx
	movl	%eax, 4(%rcx)
	movq	-16(%rbp), %rax
	movl	$0, 8(%rax)
	movq	-16(%rbp), %rdi
	movq	-32(%rbp), %rsi
	callq	writeSyntaxElement_UVLC
	movl	%eax, %ebx
	cmpl	$1035570253, -20(%rbp)  # imm = 0x3DB98C4D
	jne	.LBB85_2
.LBB85_1:
	movl	%ebx, %eax
	addq	$88, %rsp
	popq	%rbx
	popq	%rbp
	.cfi_def_cfa %rsp, 8
	retq
.LBB85_2:                               # %func_exit
	.cfi_def_cfa %rbp, 16
	callq	detect_breach
	jmp	.LBB85_1
.Lfunc_end85:
	.size	ue_v.58, .Lfunc_end85-ue_v.58
	.cfi_endproc
                                        # -- End function
	.globl	writeSyntaxElement2Buf_Fixed.59 # -- Begin function writeSyntaxElement2Buf_Fixed.59
	.p2align	4, 0x90
	.type	writeSyntaxElement2Buf_Fixed.59,@function
writeSyntaxElement2Buf_Fixed.59:        # @writeSyntaxElement2Buf_Fixed.59
	.cfi_startproc
# %bb.0:                                # %entry
	pushq	%rbp
	.cfi_def_cfa_offset 16
	.cfi_offset %rbp, -16
	movq	%rsp, %rbp
	.cfi_def_cfa_register %rbp
	pushq	%rbx
	subq	$24, %rsp
	.cfi_offset %rbx, -24
	movl	$431984598, -12(%rbp)   # imm = 0x19BF8FD6
	movq	%rdi, -24(%rbp)
	movq	%rsi, -32(%rbp)
	movq	-24(%rbp), %rdi
	movq	-32(%rbp), %rsi
	callq	writeUVLC2buffer
	movq	-24(%rbp), %rax
	movl	12(%rax), %ebx
	cmpl	$431984598, -12(%rbp)   # imm = 0x19BF8FD6
	jne	.LBB86_2
.LBB86_1:
	movl	%ebx, %eax
	addq	$24, %rsp
	popq	%rbx
	popq	%rbp
	.cfi_def_cfa %rsp, 8
	retq
.LBB86_2:                               # %func_exit
	.cfi_def_cfa %rbp, 16
	callq	detect_breach
	jmp	.LBB86_1
.Lfunc_end86:
	.size	writeSyntaxElement2Buf_Fixed.59, .Lfunc_end86-writeSyntaxElement2Buf_Fixed.59
	.cfi_endproc
                                        # -- End function
	.globl	cbp_linfo_intra.60      # -- Begin function cbp_linfo_intra.60
	.p2align	4, 0x90
	.type	cbp_linfo_intra.60,@function
cbp_linfo_intra.60:                     # @cbp_linfo_intra.60
	.cfi_startproc
# %bb.0:                                # %entry
	pushq	%rbp
	.cfi_def_cfa_offset 16
	.cfi_offset %rbp, -16
	movq	%rsp, %rbp
	.cfi_def_cfa_register %rbp
	subq	$32, %rsp
	xorl	%eax, %eax
	movl	$1133644768, -8(%rbp)   # imm = 0x43920BE0
	movl	%edi, -4(%rbp)
	movl	%esi, -12(%rbp)
	movq	%rdx, -32(%rbp)
	movq	%rcx, -24(%rbp)
	movq	img, %rcx
	movl	72700(%rcx), %ecx
	cmpl	$0, %ecx
	movl	$1, %ecx
	cmovnel	%ecx, %eax
	cltq
	imulq	$96, %rax, %rax
	movabsq	$NCBP, %rcx
	addq	%rax, %rcx
	movslq	-4(%rbp), %rax
	movzbl	(%rcx,%rax,2), %edi
	movl	-12(%rbp), %esi
	movq	-32(%rbp), %rdx
	movq	-24(%rbp), %rcx
	callq	ue_linfo
	cmpl	$1133644768, -8(%rbp)   # imm = 0x43920BE0
	jne	.LBB87_2
.LBB87_1:
	addq	$32, %rsp
	popq	%rbp
	.cfi_def_cfa %rsp, 8
	retq
.LBB87_2:                               # %func_exit
	.cfi_def_cfa %rbp, 16
	callq	detect_breach
	jmp	.LBB87_1
.Lfunc_end87:
	.size	cbp_linfo_intra.60, .Lfunc_end87-cbp_linfo_intra.60
	.cfi_endproc
                                        # -- End function
	.globl	writeSyntaxElement_NumCoeffTrailingOnesChromaDC.61 # -- Begin function writeSyntaxElement_NumCoeffTrailingOnesChromaDC.61
	.p2align	4, 0x90
	.type	writeSyntaxElement_NumCoeffTrailingOnesChromaDC.61,@function
writeSyntaxElement_NumCoeffTrailingOnesChromaDC.61: # @writeSyntaxElement_NumCoeffTrailingOnesChromaDC.61
	.cfi_startproc
# %bb.0:                                # %entry
	pushq	%rbp
	.cfi_def_cfa_offset 16
	.cfi_offset %rbp, -16
	movq	%rsp, %rbp
	.cfi_def_cfa_register %rbp
	pushq	%rbx
	subq	$24, %rsp
	.cfi_offset %rbx, -24
	movabsq	$writeSyntaxElement_NumCoeffTrailingOnesChromaDC.codtab, %rax
	movabsq	$writeSyntaxElement_NumCoeffTrailingOnesChromaDC.lentab, %rcx
	movl	$684710456, -24(%rbp)   # imm = 0x28CFDA38
	movq	%rdi, -16(%rbp)
	movq	%rsi, -32(%rbp)
	movq	img, %rdx
	movl	72700(%rdx), %edx
	subl	$1, %edx
	movl	%edx, -20(%rbp)
	movslq	-20(%rbp), %rdx
	imulq	$272, %rdx, %rdx        # imm = 0x110
	addq	%rdx, %rcx
	movq	-16(%rbp), %rdx
	movslq	8(%rdx), %rdx
	imulq	$68, %rdx, %rdx
	addq	%rdx, %rcx
	movq	-16(%rbp), %rdx
	movslq	4(%rdx), %rdx
	movl	(%rcx,%rdx,4), %ecx
	movq	-16(%rbp), %rdx
	movl	%ecx, 12(%rdx)
	movslq	-20(%rbp), %rcx
	imulq	$272, %rcx, %rcx        # imm = 0x110
	addq	%rcx, %rax
	movq	-16(%rbp), %rcx
	movslq	8(%rcx), %rcx
	imulq	$68, %rcx, %rcx
	addq	%rcx, %rax
	movq	-16(%rbp), %rcx
	movslq	4(%rcx), %rcx
	movl	(%rax,%rcx,4), %eax
	movq	-16(%rbp), %rcx
	movl	%eax, 16(%rcx)
	movq	-16(%rbp), %rax
	cmpl	$0, 12(%rax)
	jne	.LBB88_2
# %bb.1:                                # %if.then
	movq	-16(%rbp), %rax
	movl	4(%rax), %esi
	movq	-16(%rbp), %rax
	movl	8(%rax), %edx
	movabsq	$.L.str.1, %rdi
	movb	$0, %al
	callq	printf
	movl	$4294967295, %edi       # imm = 0xFFFFFFFF
	callq	exit
.LBB88_2:                               # %if.end
	movq	-16(%rbp), %rdi
	callq	symbol2vlc
	movq	-16(%rbp), %rdi
	movq	-32(%rbp), %rax
	movq	(%rax), %rsi
	callq	writeUVLC2buffer
	movq	-16(%rbp), %rax
	movl	12(%rax), %ebx
	cmpl	$684710456, -24(%rbp)   # imm = 0x28CFDA38
	jne	.LBB88_4
.LBB88_3:
	movl	%ebx, %eax
	addq	$24, %rsp
	popq	%rbx
	popq	%rbp
	.cfi_def_cfa %rsp, 8
	retq
.LBB88_4:                               # %func_exit
	.cfi_def_cfa %rbp, 16
	callq	detect_breach
	jmp	.LBB88_3
.Lfunc_end88:
	.size	writeSyntaxElement_NumCoeffTrailingOnesChromaDC.61, .Lfunc_end88-writeSyntaxElement_NumCoeffTrailingOnesChromaDC.61
	.cfi_endproc
                                        # -- End function
	.globl	writeSyntaxElement_Level_VLC1.62 # -- Begin function writeSyntaxElement_Level_VLC1.62
	.p2align	4, 0x90
	.type	writeSyntaxElement_Level_VLC1.62,@function
writeSyntaxElement_Level_VLC1.62:       # @writeSyntaxElement_Level_VLC1.62
	.cfi_startproc
# %bb.0:                                # %entry
	pushq	%rbp
	.cfi_def_cfa_offset 16
	.cfi_offset %rbp, -16
	movq	%rsp, %rbp
	.cfi_def_cfa_register %rbp
	pushq	%rbx
	subq	$40, %rsp
	.cfi_offset %rbx, -24
	movl	$292601468, -36(%rbp)   # imm = 0x1170BE7C
	movq	%rdi, -24(%rbp)
	movq	%rsi, -48(%rbp)
	movq	-24(%rbp), %rax
	movl	4(%rax), %eax
	movl	%eax, -32(%rbp)
	movl	-32(%rbp), %edi
	callq	abs
	xorl	%ecx, %ecx
	movl	%eax, -12(%rbp)
	movl	-32(%rbp), %eax
	cmpl	$0, %eax
	movl	$1, %eax
	cmovll	%eax, %ecx
	movl	%ecx, -28(%rbp)
	cmpl	$8, -12(%rbp)
	jge	.LBB89_2
# %bb.1:                                # %if.then
	movl	-12(%rbp), %eax
	shll	$1, %eax
	addl	-28(%rbp), %eax
	subl	$1, %eax
	movq	-24(%rbp), %rcx
	movl	%eax, 12(%rcx)
	movq	-24(%rbp), %rax
	movl	$1, 16(%rax)
	jmp	.LBB89_6
.LBB89_2:                               # %if.else
	cmpl	$16, -12(%rbp)
	jge	.LBB89_4
# %bb.3:                                # %if.then3
	movq	-24(%rbp), %rax
	movl	$19, 12(%rax)
	movl	-12(%rbp), %eax
	subl	$8, %eax
	shll	$1, %eax
	orl	$16, %eax
	orl	-28(%rbp), %eax
	movq	-24(%rbp), %rcx
	movl	%eax, 16(%rcx)
	jmp	.LBB89_5
.LBB89_4:                               # %if.else8
	movq	-24(%rbp), %rax
	movl	$28, 12(%rax)
	movl	-12(%rbp), %eax
	subl	$16, %eax
	shll	$1, %eax
	orl	$4096, %eax             # imm = 0x1000
	orl	-28(%rbp), %eax
	movq	-24(%rbp), %rcx
	movl	%eax, 16(%rcx)
.LBB89_5:                               # %if.end
	jmp	.LBB89_6
.LBB89_6:                               # %if.end15
	movq	-24(%rbp), %rdi
	callq	symbol2vlc
	movq	-24(%rbp), %rdi
	movq	-48(%rbp), %rax
	movq	(%rax), %rsi
	callq	writeUVLC2buffer
	movq	-24(%rbp), %rax
	movl	12(%rax), %ebx
	cmpl	$292601468, -36(%rbp)   # imm = 0x1170BE7C
	jne	.LBB89_8
.LBB89_7:
	movl	%ebx, %eax
	addq	$40, %rsp
	popq	%rbx
	popq	%rbp
	.cfi_def_cfa %rsp, 8
	retq
.LBB89_8:                               # %func_exit
	.cfi_def_cfa %rbp, 16
	callq	detect_breach
	jmp	.LBB89_7
.Lfunc_end89:
	.size	writeSyntaxElement_Level_VLC1.62, .Lfunc_end89-writeSyntaxElement_Level_VLC1.62
	.cfi_endproc
                                        # -- End function
	.globl	writeSyntaxElement_Level_VLC1.63 # -- Begin function writeSyntaxElement_Level_VLC1.63
	.p2align	4, 0x90
	.type	writeSyntaxElement_Level_VLC1.63,@function
writeSyntaxElement_Level_VLC1.63:       # @writeSyntaxElement_Level_VLC1.63
	.cfi_startproc
# %bb.0:                                # %entry
	pushq	%rbp
	.cfi_def_cfa_offset 16
	.cfi_offset %rbp, -16
	movq	%rsp, %rbp
	.cfi_def_cfa_register %rbp
	pushq	%rbx
	subq	$40, %rsp
	.cfi_offset %rbx, -24
	movl	$1460565172, -36(%rbp)  # imm = 0x570E74B4
	movq	%rdi, -24(%rbp)
	movq	%rsi, -48(%rbp)
	movq	-24(%rbp), %rax
	movl	4(%rax), %eax
	movl	%eax, -32(%rbp)
	movl	-32(%rbp), %edi
	callq	abs
	xorl	%ecx, %ecx
	movl	%eax, -12(%rbp)
	movl	-32(%rbp), %eax
	cmpl	$0, %eax
	movl	$1, %eax
	cmovll	%eax, %ecx
	movl	%ecx, -28(%rbp)
	cmpl	$8, -12(%rbp)
	jge	.LBB90_2
# %bb.1:                                # %if.then
	movl	-12(%rbp), %eax
	shll	$1, %eax
	addl	-28(%rbp), %eax
	subl	$1, %eax
	movq	-24(%rbp), %rcx
	movl	%eax, 12(%rcx)
	movq	-24(%rbp), %rax
	movl	$1, 16(%rax)
	jmp	.LBB90_6
.LBB90_2:                               # %if.else
	cmpl	$16, -12(%rbp)
	jge	.LBB90_4
# %bb.3:                                # %if.then3
	movq	-24(%rbp), %rax
	movl	$19, 12(%rax)
	movl	-12(%rbp), %eax
	subl	$8, %eax
	shll	$1, %eax
	orl	$16, %eax
	orl	-28(%rbp), %eax
	movq	-24(%rbp), %rcx
	movl	%eax, 16(%rcx)
	jmp	.LBB90_5
.LBB90_4:                               # %if.else8
	movq	-24(%rbp), %rax
	movl	$28, 12(%rax)
	movl	-12(%rbp), %eax
	subl	$16, %eax
	shll	$1, %eax
	orl	$4096, %eax             # imm = 0x1000
	orl	-28(%rbp), %eax
	movq	-24(%rbp), %rcx
	movl	%eax, 16(%rcx)
.LBB90_5:                               # %if.end
	jmp	.LBB90_6
.LBB90_6:                               # %if.end15
	movq	-24(%rbp), %rdi
	callq	symbol2vlc
	movq	-24(%rbp), %rdi
	movq	-48(%rbp), %rax
	movq	(%rax), %rsi
	callq	writeUVLC2buffer
	movq	-24(%rbp), %rax
	movl	12(%rax), %ebx
	cmpl	$1460565172, -36(%rbp)  # imm = 0x570E74B4
	jne	.LBB90_8
.LBB90_7:
	movl	%ebx, %eax
	addq	$40, %rsp
	popq	%rbx
	popq	%rbp
	.cfi_def_cfa %rsp, 8
	retq
.LBB90_8:                               # %func_exit
	.cfi_def_cfa %rbp, 16
	callq	detect_breach
	jmp	.LBB90_7
.Lfunc_end90:
	.size	writeSyntaxElement_Level_VLC1.63, .Lfunc_end90-writeSyntaxElement_Level_VLC1.63
	.cfi_endproc
                                        # -- End function
	.globl	writeSyntaxElement_VLC.64 # -- Begin function writeSyntaxElement_VLC.64
	.p2align	4, 0x90
	.type	writeSyntaxElement_VLC.64,@function
writeSyntaxElement_VLC.64:              # @writeSyntaxElement_VLC.64
	.cfi_startproc
# %bb.0:                                # %entry
	pushq	%rbp
	.cfi_def_cfa_offset 16
	.cfi_offset %rbp, -16
	movq	%rsp, %rbp
	.cfi_def_cfa_register %rbp
	pushq	%rbx
	subq	$24, %rsp
	.cfi_offset %rbx, -24
	movl	$1149821479, -20(%rbp)  # imm = 0x4488E227
	movq	%rdi, -16(%rbp)
	movq	%rsi, -32(%rbp)
	movq	-16(%rbp), %rax
	movl	4(%rax), %eax
	movq	-16(%rbp), %rcx
	movl	%eax, 16(%rcx)
	movq	-16(%rbp), %rax
	movl	8(%rax), %eax
	movq	-16(%rbp), %rcx
	movl	%eax, 12(%rcx)
	movq	-16(%rbp), %rdi
	callq	symbol2vlc
	movq	-16(%rbp), %rdi
	movq	-32(%rbp), %rax
	movq	(%rax), %rsi
	callq	writeUVLC2buffer
	movq	-16(%rbp), %rax
	movl	12(%rax), %ebx
	cmpl	$1149821479, -20(%rbp)  # imm = 0x4488E227
	jne	.LBB91_2
.LBB91_1:
	movl	%ebx, %eax
	addq	$24, %rsp
	popq	%rbx
	popq	%rbp
	.cfi_def_cfa %rsp, 8
	retq
.LBB91_2:                               # %func_exit
	.cfi_def_cfa %rbp, 16
	callq	detect_breach
	jmp	.LBB91_1
.Lfunc_end91:
	.size	writeSyntaxElement_VLC.64, .Lfunc_end91-writeSyntaxElement_VLC.64
	.cfi_endproc
                                        # -- End function
	.globl	writeSyntaxElement_Level_VLCN.65 # -- Begin function writeSyntaxElement_Level_VLCN.65
	.p2align	4, 0x90
	.type	writeSyntaxElement_Level_VLCN.65,@function
writeSyntaxElement_Level_VLCN.65:       # @writeSyntaxElement_Level_VLCN.65
	.cfi_startproc
# %bb.0:                                # %entry
	pushq	%rbp
	.cfi_def_cfa_offset 16
	.cfi_offset %rbp, -16
	movq	%rsp, %rbp
	.cfi_def_cfa_register %rbp
	pushq	%rbx
	subq	$72, %rsp
	.cfi_offset %rbx, -24
	movl	$86252535, -60(%rbp)    # imm = 0x5241BF7
	movq	%rdi, -24(%rbp)
	movl	%esi, -48(%rbp)
	movq	%rdx, -72(%rbp)
	movq	-24(%rbp), %rax
	movl	4(%rax), %eax
	movl	%eax, -44(%rbp)
	movl	-44(%rbp), %edi
	callq	abs
	xorl	%ecx, %ecx
	movl	%eax, -16(%rbp)
	movl	-44(%rbp), %eax
	cmpl	$0, %eax
	movl	$1, %eax
	cmovll	%eax, %ecx
	movl	%ecx, -32(%rbp)
	movl	-48(%rbp), %eax
	subl	$1, %eax
	movl	%eax, -12(%rbp)
	movl	-12(%rbp), %ecx
                                        # kill: def $cl killed $ecx
	movl	$15, %eax
	shll	%cl, %eax
	addl	$1, %eax
	movl	%eax, -28(%rbp)
	movl	-16(%rbp), %eax
	subl	$1, %eax
	movl	-12(%rbp), %ecx
                                        # kill: def $cl killed $ecx
	sarl	%cl, %eax
	movl	%eax, -56(%rbp)
	movl	-12(%rbp), %ecx
                                        # kill: def $cl killed $ecx
	movl	$4294967295, %eax       # imm = 0xFFFFFFFF
	shll	%cl, %eax
	xorl	$-1, %eax
	movl	%eax, -64(%rbp)
	movl	-16(%rbp), %eax
	subl	$1, %eax
	andl	-64(%rbp), %eax
	movl	%eax, -52(%rbp)
	movl	-16(%rbp), %eax
	cmpl	-28(%rbp), %eax
	jge	.LBB92_2
# %bb.1:                                # %if.then
	movl	-56(%rbp), %eax
	addl	-48(%rbp), %eax
	addl	$1, %eax
	movl	%eax, -36(%rbp)
	movl	-12(%rbp), %ecx
	addl	$1, %ecx
                                        # kill: def $cl killed $ecx
	movl	$1, %eax
	shll	%cl, %eax
	movl	-52(%rbp), %ecx
	shll	$1, %ecx
	orl	%ecx, %eax
	orl	-32(%rbp), %eax
	movl	%eax, -40(%rbp)
	jmp	.LBB92_3
.LBB92_2:                               # %if.else
	movl	$28, -36(%rbp)
	movl	-16(%rbp), %eax
	subl	-28(%rbp), %eax
	shll	$1, %eax
	orl	$4096, %eax             # imm = 0x1000
	orl	-32(%rbp), %eax
	movl	%eax, -40(%rbp)
.LBB92_3:                               # %if.end
	movl	-36(%rbp), %eax
	movq	-24(%rbp), %rcx
	movl	%eax, 12(%rcx)
	movl	-40(%rbp), %eax
	movq	-24(%rbp), %rcx
	movl	%eax, 16(%rcx)
	movq	-24(%rbp), %rdi
	callq	symbol2vlc
	movq	-24(%rbp), %rdi
	movq	-72(%rbp), %rax
	movq	(%rax), %rsi
	callq	writeUVLC2buffer
	movq	-24(%rbp), %rax
	movl	12(%rax), %ebx
	cmpl	$86252535, -60(%rbp)    # imm = 0x5241BF7
	jne	.LBB92_5
.LBB92_4:
	movl	%ebx, %eax
	addq	$72, %rsp
	popq	%rbx
	popq	%rbp
	.cfi_def_cfa %rsp, 8
	retq
.LBB92_5:                               # %func_exit
	.cfi_def_cfa %rbp, 16
	callq	detect_breach
	jmp	.LBB92_4
.Lfunc_end92:
	.size	writeSyntaxElement_Level_VLCN.65, .Lfunc_end92-writeSyntaxElement_Level_VLCN.65
	.cfi_endproc
                                        # -- End function
	.section	.rodata.cst8,"aM",@progbits,8
	.p2align	3               # -- Begin function levrun_linfo_intra.66
.LCPI93_0:
	.quad	4611686018427387904     # double 2
	.text
	.globl	levrun_linfo_intra.66
	.p2align	4, 0x90
	.type	levrun_linfo_intra.66,@function
levrun_linfo_intra.66:                  # @levrun_linfo_intra.66
	.cfi_startproc
# %bb.0:                                # %entry
	pushq	%rbp
	.cfi_def_cfa_offset 16
	.cfi_offset %rbp, -16
	movq	%rsp, %rbp
	.cfi_def_cfa_register %rbp
	pushq	%rbx
	subq	$104, %rsp
	.cfi_offset %rbx, -24
	movl	$499239973, -40(%rbp)   # imm = 0x1DC1CC25
	movl	%edi, -24(%rbp)
	movl	%esi, -16(%rbp)
	movq	%rdx, -48(%rbp)
	movq	%rcx, -64(%rbp)
	movq	.L__const.levrun_linfo_intra.LEVRUN, %rax
	movq	%rax, -56(%rbp)
	leaq	-112(%rbp), %rdi
	movabsq	$.L__const.levrun_linfo_intra.NTAB, %rsi
	movl	$45, %edx
	callq	memcpy
	cmpl	$0, -24(%rbp)
	jne	.LBB93_2
# %bb.1:                                # %if.then
	movq	-48(%rbp), %rax
	movl	$1, (%rax)
	jmp	.LBB93_15
.LBB93_2:                               # %if.end
	cmpl	$0, -24(%rbp)
	jg	.LBB93_4
# %bb.3:                                # %if.then2
	movl	$1, -36(%rbp)
	jmp	.LBB93_5
.LBB93_4:                               # %if.else
	movl	$0, -36(%rbp)
.LBB93_5:                               # %if.end3
	movl	-24(%rbp), %edi
	callq	abs
	movl	%eax, -32(%rbp)
	movl	-32(%rbp), %eax
	movslq	-16(%rbp), %rcx
	movzbl	-56(%rbp,%rcx), %ecx
	cmpl	%ecx, %eax
	jg	.LBB93_7
# %bb.6:                                # %if.then6
	movl	-32(%rbp), %eax
	subl	$1, %eax
	cltq
	imulq	$5, %rax, %rax
	leaq	-112(%rbp), %rcx
	addq	%rax, %rcx
	movslq	-16(%rbp), %rax
	movzbl	(%rcx,%rax), %eax
	addl	$1, %eax
	movl	%eax, -28(%rbp)
	jmp	.LBB93_8
.LBB93_7:                               # %if.else12
	movl	-32(%rbp), %eax
	movslq	-16(%rbp), %rcx
	movzbl	-56(%rbp,%rcx), %ecx
	subl	%ecx, %eax
	shll	$4, %eax
	addl	$16, %eax
	movl	-16(%rbp), %ecx
	shll	$1, %ecx
	addl	%ecx, %eax
	movl	%eax, -28(%rbp)
.LBB93_8:                               # %if.end20
	movl	-28(%rbp), %eax
	cltd
	movl	$2, %ecx
	idivl	%ecx
	movl	%eax, -20(%rbp)
	movl	$0, -12(%rbp)
.LBB93_9:                               # %for.cond
                                        # =>This Inner Loop Header: Depth=1
	xorl	%eax, %eax
	cmpl	$16, -12(%rbp)
	jge	.LBB93_11
# %bb.10:                               # %land.rhs
                                        #   in Loop: Header=BB93_9 Depth=1
	cmpl	$0, -20(%rbp)
	setne	%al
.LBB93_11:                              # %land.end
                                        #   in Loop: Header=BB93_9 Depth=1
	testb	$1, %al
	jne	.LBB93_12
	jmp	.LBB93_14
.LBB93_12:                              # %for.body
                                        #   in Loop: Header=BB93_9 Depth=1
	movl	-20(%rbp), %eax
	cltd
	movl	$2, %ecx
	idivl	%ecx
	movl	%eax, -20(%rbp)
# %bb.13:                               # %for.inc
                                        #   in Loop: Header=BB93_9 Depth=1
	movl	-12(%rbp), %eax
	addl	$1, %eax
	movl	%eax, -12(%rbp)
	jmp	.LBB93_9
.LBB93_14:                              # %for.end
	vmovsd	.LCPI93_0(%rip), %xmm0  # xmm0 = mem[0],zero
	movl	-12(%rbp), %eax
	shll	$1, %eax
	addl	$1, %eax
	movq	-48(%rbp), %rcx
	movl	%eax, (%rcx)
	movl	-28(%rbp), %ebx
	vcvtsi2sdl	-12(%rbp), %xmm0, %xmm1
	callq	pow
	vcvttsd2si	%xmm0, %eax
	subl	%eax, %ebx
	addl	-36(%rbp), %ebx
	movq	-64(%rbp), %rax
	movl	%ebx, (%rax)
.LBB93_15:                              # %return
	cmpl	$499239973, -40(%rbp)   # imm = 0x1DC1CC25
	jne	.LBB93_17
.LBB93_16:
	addq	$104, %rsp
	popq	%rbx
	popq	%rbp
	.cfi_def_cfa %rsp, 8
	retq
.LBB93_17:                              # %func_exit
	.cfi_def_cfa %rbp, 16
	callq	detect_breach
	jmp	.LBB93_16
.Lfunc_end93:
	.size	levrun_linfo_intra.66, .Lfunc_end93-levrun_linfo_intra.66
	.cfi_endproc
                                        # -- End function
	.section	.rodata.cst8,"aM",@progbits,8
	.p2align	3               # -- Begin function levrun_linfo_inter.67
.LCPI94_0:
	.quad	4611686018427387904     # double 2
	.text
	.globl	levrun_linfo_inter.67
	.p2align	4, 0x90
	.type	levrun_linfo_inter.67,@function
levrun_linfo_inter.67:                  # @levrun_linfo_inter.67
	.cfi_startproc
# %bb.0:                                # %entry
	pushq	%rbp
	.cfi_def_cfa_offset 16
	.cfi_offset %rbp, -16
	movq	%rsp, %rbp
	.cfi_def_cfa_register %rbp
	pushq	%rbx
	subq	$104, %rsp
	.cfi_offset %rbx, -24
	movl	$1249128993, -40(%rbp)  # imm = 0x4A743221
	movl	%edi, -32(%rbp)
	movl	%esi, -16(%rbp)
	movq	%rdx, -48(%rbp)
	movq	%rcx, -72(%rbp)
	movq	.L__const.levrun_linfo_inter.LEVRUN, %rax
	movq	%rax, -64(%rbp)
	movq	.L__const.levrun_linfo_inter.LEVRUN+8, %rax
	movq	%rax, -56(%rbp)
	leaq	-112(%rbp), %rdi
	movabsq	$.L__const.levrun_linfo_inter.NTAB, %rsi
	movl	$40, %edx
	callq	memcpy
	cmpl	$0, -32(%rbp)
	jne	.LBB94_2
# %bb.1:                                # %if.then
	movq	-48(%rbp), %rax
	movl	$1, (%rax)
	jmp	.LBB94_15
.LBB94_2:                               # %if.end
	cmpl	$0, -32(%rbp)
	jg	.LBB94_4
# %bb.3:                                # %if.then2
	movl	$1, -36(%rbp)
	jmp	.LBB94_5
.LBB94_4:                               # %if.else
	movl	$0, -36(%rbp)
.LBB94_5:                               # %if.end3
	movl	-32(%rbp), %edi
	callq	abs
	movl	%eax, -20(%rbp)
	movl	-20(%rbp), %eax
	movslq	-16(%rbp), %rcx
	movzbl	-64(%rbp,%rcx), %ecx
	cmpl	%ecx, %eax
	jg	.LBB94_7
# %bb.6:                                # %if.then6
	movl	-20(%rbp), %eax
	subl	$1, %eax
	cltq
	imulq	$10, %rax, %rax
	leaq	-112(%rbp), %rcx
	addq	%rax, %rcx
	movslq	-16(%rbp), %rax
	movzbl	(%rcx,%rax), %eax
	addl	$1, %eax
	movl	%eax, -24(%rbp)
	jmp	.LBB94_8
.LBB94_7:                               # %if.else12
	movl	-20(%rbp), %eax
	movslq	-16(%rbp), %rcx
	movzbl	-64(%rbp,%rcx), %ecx
	subl	%ecx, %eax
	shll	$5, %eax
	movl	-16(%rbp), %ecx
	shll	$1, %ecx
	addl	%ecx, %eax
	movl	%eax, -24(%rbp)
.LBB94_8:                               # %if.end19
	movl	-24(%rbp), %eax
	cltd
	movl	$2, %ecx
	idivl	%ecx
	movl	%eax, -28(%rbp)
	movl	$0, -12(%rbp)
.LBB94_9:                               # %for.cond
                                        # =>This Inner Loop Header: Depth=1
	xorl	%eax, %eax
	cmpl	$16, -12(%rbp)
	jge	.LBB94_11
# %bb.10:                               # %land.rhs
                                        #   in Loop: Header=BB94_9 Depth=1
	cmpl	$0, -28(%rbp)
	setne	%al
.LBB94_11:                              # %land.end
                                        #   in Loop: Header=BB94_9 Depth=1
	testb	$1, %al
	jne	.LBB94_12
	jmp	.LBB94_14
.LBB94_12:                              # %for.body
                                        #   in Loop: Header=BB94_9 Depth=1
	movl	-28(%rbp), %eax
	cltd
	movl	$2, %ecx
	idivl	%ecx
	movl	%eax, -28(%rbp)
# %bb.13:                               # %for.inc
                                        #   in Loop: Header=BB94_9 Depth=1
	movl	-12(%rbp), %eax
	addl	$1, %eax
	movl	%eax, -12(%rbp)
	jmp	.LBB94_9
.LBB94_14:                              # %for.end
	vmovsd	.LCPI94_0(%rip), %xmm0  # xmm0 = mem[0],zero
	movl	-12(%rbp), %eax
	shll	$1, %eax
	addl	$1, %eax
	movq	-48(%rbp), %rcx
	movl	%eax, (%rcx)
	movl	-24(%rbp), %ebx
	vcvtsi2sdl	-12(%rbp), %xmm0, %xmm1
	callq	pow
	vcvttsd2si	%xmm0, %eax
	subl	%eax, %ebx
	addl	-36(%rbp), %ebx
	movq	-72(%rbp), %rax
	movl	%ebx, (%rax)
.LBB94_15:                              # %return
	cmpl	$1249128993, -40(%rbp)  # imm = 0x4A743221
	jne	.LBB94_17
.LBB94_16:
	addq	$104, %rsp
	popq	%rbx
	popq	%rbp
	.cfi_def_cfa %rsp, 8
	retq
.LBB94_17:                              # %func_exit
	.cfi_def_cfa %rbp, 16
	callq	detect_breach
	jmp	.LBB94_16
.Lfunc_end94:
	.size	levrun_linfo_inter.67, .Lfunc_end94-levrun_linfo_inter.67
	.cfi_endproc
                                        # -- End function
	.globl	writeSyntaxElement_Level_VLCN.68 # -- Begin function writeSyntaxElement_Level_VLCN.68
	.p2align	4, 0x90
	.type	writeSyntaxElement_Level_VLCN.68,@function
writeSyntaxElement_Level_VLCN.68:       # @writeSyntaxElement_Level_VLCN.68
	.cfi_startproc
# %bb.0:                                # %entry
	pushq	%rbp
	.cfi_def_cfa_offset 16
	.cfi_offset %rbp, -16
	movq	%rsp, %rbp
	.cfi_def_cfa_register %rbp
	pushq	%rbx
	subq	$72, %rsp
	.cfi_offset %rbx, -24
	movl	$902508530, -60(%rbp)   # imm = 0x35CB2FF2
	movq	%rdi, -24(%rbp)
	movl	%esi, -48(%rbp)
	movq	%rdx, -72(%rbp)
	movq	-24(%rbp), %rax
	movl	4(%rax), %eax
	movl	%eax, -28(%rbp)
	movl	-28(%rbp), %edi
	callq	abs
	xorl	%ecx, %ecx
	movl	%eax, -16(%rbp)
	movl	-28(%rbp), %eax
	cmpl	$0, %eax
	movl	$1, %eax
	cmovll	%eax, %ecx
	movl	%ecx, -44(%rbp)
	movl	-48(%rbp), %eax
	subl	$1, %eax
	movl	%eax, -12(%rbp)
	movl	-12(%rbp), %ecx
                                        # kill: def $cl killed $ecx
	movl	$15, %eax
	shll	%cl, %eax
	addl	$1, %eax
	movl	%eax, -36(%rbp)
	movl	-16(%rbp), %eax
	subl	$1, %eax
	movl	-12(%rbp), %ecx
                                        # kill: def $cl killed $ecx
	sarl	%cl, %eax
	movl	%eax, -64(%rbp)
	movl	-12(%rbp), %ecx
                                        # kill: def $cl killed $ecx
	movl	$4294967295, %eax       # imm = 0xFFFFFFFF
	shll	%cl, %eax
	xorl	$-1, %eax
	movl	%eax, -52(%rbp)
	movl	-16(%rbp), %eax
	subl	$1, %eax
	andl	-52(%rbp), %eax
	movl	%eax, -56(%rbp)
	movl	-16(%rbp), %eax
	cmpl	-36(%rbp), %eax
	jge	.LBB95_2
# %bb.1:                                # %if.then
	movl	-64(%rbp), %eax
	addl	-48(%rbp), %eax
	addl	$1, %eax
	movl	%eax, -40(%rbp)
	movl	-12(%rbp), %ecx
	addl	$1, %ecx
                                        # kill: def $cl killed $ecx
	movl	$1, %eax
	shll	%cl, %eax
	movl	-56(%rbp), %ecx
	shll	$1, %ecx
	orl	%ecx, %eax
	orl	-44(%rbp), %eax
	movl	%eax, -32(%rbp)
	jmp	.LBB95_3
.LBB95_2:                               # %if.else
	movl	$28, -40(%rbp)
	movl	-16(%rbp), %eax
	subl	-36(%rbp), %eax
	shll	$1, %eax
	orl	$4096, %eax             # imm = 0x1000
	orl	-44(%rbp), %eax
	movl	%eax, -32(%rbp)
.LBB95_3:                               # %if.end
	movl	-40(%rbp), %eax
	movq	-24(%rbp), %rcx
	movl	%eax, 12(%rcx)
	movl	-32(%rbp), %eax
	movq	-24(%rbp), %rcx
	movl	%eax, 16(%rcx)
	movq	-24(%rbp), %rdi
	callq	symbol2vlc
	movq	-24(%rbp), %rdi
	movq	-72(%rbp), %rax
	movq	(%rax), %rsi
	callq	writeUVLC2buffer
	movq	-24(%rbp), %rax
	movl	12(%rax), %ebx
	cmpl	$902508530, -60(%rbp)   # imm = 0x35CB2FF2
	jne	.LBB95_5
.LBB95_4:
	movl	%ebx, %eax
	addq	$72, %rsp
	popq	%rbx
	popq	%rbp
	.cfi_def_cfa %rsp, 8
	retq
.LBB95_5:                               # %func_exit
	.cfi_def_cfa %rbp, 16
	callq	detect_breach
	jmp	.LBB95_4
.Lfunc_end95:
	.size	writeSyntaxElement_Level_VLCN.68, .Lfunc_end95-writeSyntaxElement_Level_VLCN.68
	.cfi_endproc
                                        # -- End function
	.globl	writeSyntaxElement_Level_VLC1.69 # -- Begin function writeSyntaxElement_Level_VLC1.69
	.p2align	4, 0x90
	.type	writeSyntaxElement_Level_VLC1.69,@function
writeSyntaxElement_Level_VLC1.69:       # @writeSyntaxElement_Level_VLC1.69
	.cfi_startproc
# %bb.0:                                # %entry
	pushq	%rbp
	.cfi_def_cfa_offset 16
	.cfi_offset %rbp, -16
	movq	%rsp, %rbp
	.cfi_def_cfa_register %rbp
	pushq	%rbx
	subq	$40, %rsp
	.cfi_offset %rbx, -24
	movl	$173182547, -36(%rbp)   # imm = 0xA528E53
	movq	%rdi, -24(%rbp)
	movq	%rsi, -48(%rbp)
	movq	-24(%rbp), %rax
	movl	4(%rax), %eax
	movl	%eax, -32(%rbp)
	movl	-32(%rbp), %edi
	callq	abs
	xorl	%ecx, %ecx
	movl	%eax, -12(%rbp)
	movl	-32(%rbp), %eax
	cmpl	$0, %eax
	movl	$1, %eax
	cmovll	%eax, %ecx
	movl	%ecx, -28(%rbp)
	cmpl	$8, -12(%rbp)
	jge	.LBB96_2
# %bb.1:                                # %if.then
	movl	-12(%rbp), %eax
	shll	$1, %eax
	addl	-28(%rbp), %eax
	subl	$1, %eax
	movq	-24(%rbp), %rcx
	movl	%eax, 12(%rcx)
	movq	-24(%rbp), %rax
	movl	$1, 16(%rax)
	jmp	.LBB96_6
.LBB96_2:                               # %if.else
	cmpl	$16, -12(%rbp)
	jge	.LBB96_4
# %bb.3:                                # %if.then3
	movq	-24(%rbp), %rax
	movl	$19, 12(%rax)
	movl	-12(%rbp), %eax
	subl	$8, %eax
	shll	$1, %eax
	orl	$16, %eax
	orl	-28(%rbp), %eax
	movq	-24(%rbp), %rcx
	movl	%eax, 16(%rcx)
	jmp	.LBB96_5
.LBB96_4:                               # %if.else8
	movq	-24(%rbp), %rax
	movl	$28, 12(%rax)
	movl	-12(%rbp), %eax
	subl	$16, %eax
	shll	$1, %eax
	orl	$4096, %eax             # imm = 0x1000
	orl	-28(%rbp), %eax
	movq	-24(%rbp), %rcx
	movl	%eax, 16(%rcx)
.LBB96_5:                               # %if.end
	jmp	.LBB96_6
.LBB96_6:                               # %if.end15
	movq	-24(%rbp), %rdi
	callq	symbol2vlc
	movq	-24(%rbp), %rdi
	movq	-48(%rbp), %rax
	movq	(%rax), %rsi
	callq	writeUVLC2buffer
	movq	-24(%rbp), %rax
	movl	12(%rax), %ebx
	cmpl	$173182547, -36(%rbp)   # imm = 0xA528E53
	jne	.LBB96_8
.LBB96_7:
	movl	%ebx, %eax
	addq	$40, %rsp
	popq	%rbx
	popq	%rbp
	.cfi_def_cfa %rsp, 8
	retq
.LBB96_8:                               # %func_exit
	.cfi_def_cfa %rbp, 16
	callq	detect_breach
	jmp	.LBB96_7
.Lfunc_end96:
	.size	writeSyntaxElement_Level_VLC1.69, .Lfunc_end96-writeSyntaxElement_Level_VLC1.69
	.cfi_endproc
                                        # -- End function
	.globl	writeSyntaxElement_Level_VLCN.70 # -- Begin function writeSyntaxElement_Level_VLCN.70
	.p2align	4, 0x90
	.type	writeSyntaxElement_Level_VLCN.70,@function
writeSyntaxElement_Level_VLCN.70:       # @writeSyntaxElement_Level_VLCN.70
	.cfi_startproc
# %bb.0:                                # %entry
	pushq	%rbp
	.cfi_def_cfa_offset 16
	.cfi_offset %rbp, -16
	movq	%rsp, %rbp
	.cfi_def_cfa_register %rbp
	pushq	%rbx
	subq	$72, %rsp
	.cfi_offset %rbx, -24
	movl	$2132507705, -60(%rbp)  # imm = 0x7F1B7C39
	movq	%rdi, -24(%rbp)
	movl	%esi, -28(%rbp)
	movq	%rdx, -72(%rbp)
	movq	-24(%rbp), %rax
	movl	4(%rax), %eax
	movl	%eax, -40(%rbp)
	movl	-40(%rbp), %edi
	callq	abs
	xorl	%ecx, %ecx
	movl	%eax, -16(%rbp)
	movl	-40(%rbp), %eax
	cmpl	$0, %eax
	movl	$1, %eax
	cmovll	%eax, %ecx
	movl	%ecx, -48(%rbp)
	movl	-28(%rbp), %eax
	subl	$1, %eax
	movl	%eax, -12(%rbp)
	movl	-12(%rbp), %ecx
                                        # kill: def $cl killed $ecx
	movl	$15, %eax
	shll	%cl, %eax
	addl	$1, %eax
	movl	%eax, -32(%rbp)
	movl	-16(%rbp), %eax
	subl	$1, %eax
	movl	-12(%rbp), %ecx
                                        # kill: def $cl killed $ecx
	sarl	%cl, %eax
	movl	%eax, -64(%rbp)
	movl	-12(%rbp), %ecx
                                        # kill: def $cl killed $ecx
	movl	$4294967295, %eax       # imm = 0xFFFFFFFF
	shll	%cl, %eax
	xorl	$-1, %eax
	movl	%eax, -56(%rbp)
	movl	-16(%rbp), %eax
	subl	$1, %eax
	andl	-56(%rbp), %eax
	movl	%eax, -52(%rbp)
	movl	-16(%rbp), %eax
	cmpl	-32(%rbp), %eax
	jge	.LBB97_2
# %bb.1:                                # %if.then
	movl	-64(%rbp), %eax
	addl	-28(%rbp), %eax
	addl	$1, %eax
	movl	%eax, -44(%rbp)
	movl	-12(%rbp), %ecx
	addl	$1, %ecx
                                        # kill: def $cl killed $ecx
	movl	$1, %eax
	shll	%cl, %eax
	movl	-52(%rbp), %ecx
	shll	$1, %ecx
	orl	%ecx, %eax
	orl	-48(%rbp), %eax
	movl	%eax, -36(%rbp)
	jmp	.LBB97_3
.LBB97_2:                               # %if.else
	movl	$28, -44(%rbp)
	movl	-16(%rbp), %eax
	subl	-32(%rbp), %eax
	shll	$1, %eax
	orl	$4096, %eax             # imm = 0x1000
	orl	-48(%rbp), %eax
	movl	%eax, -36(%rbp)
.LBB97_3:                               # %if.end
	movl	-44(%rbp), %eax
	movq	-24(%rbp), %rcx
	movl	%eax, 12(%rcx)
	movl	-36(%rbp), %eax
	movq	-24(%rbp), %rcx
	movl	%eax, 16(%rcx)
	movq	-24(%rbp), %rdi
	callq	symbol2vlc
	movq	-24(%rbp), %rdi
	movq	-72(%rbp), %rax
	movq	(%rax), %rsi
	callq	writeUVLC2buffer
	movq	-24(%rbp), %rax
	movl	12(%rax), %ebx
	cmpl	$2132507705, -60(%rbp)  # imm = 0x7F1B7C39
	jne	.LBB97_5
.LBB97_4:
	movl	%ebx, %eax
	addq	$72, %rsp
	popq	%rbx
	popq	%rbp
	.cfi_def_cfa %rsp, 8
	retq
.LBB97_5:                               # %func_exit
	.cfi_def_cfa %rbp, 16
	callq	detect_breach
	jmp	.LBB97_4
.Lfunc_end97:
	.size	writeSyntaxElement_Level_VLCN.70, .Lfunc_end97-writeSyntaxElement_Level_VLCN.70
	.cfi_endproc
                                        # -- End function
	.section	.rodata.cst8,"aM",@progbits,8
	.p2align	3               # -- Begin function se_linfo.71
.LCPI98_0:
	.quad	4611686018427387904     # double 2
	.text
	.globl	se_linfo.71
	.p2align	4, 0x90
	.type	se_linfo.71,@function
se_linfo.71:                            # @se_linfo.71
	.cfi_startproc
# %bb.0:                                # %entry
	pushq	%rbp
	.cfi_def_cfa_offset 16
	.cfi_offset %rbp, -16
	movq	%rsp, %rbp
	.cfi_def_cfa_register %rbp
	pushq	%rbx
	subq	$56, %rsp
	.cfi_offset %rbx, -24
	movl	$579141777, -32(%rbp)   # imm = 0x22850091
	movl	%edi, -20(%rbp)
	movl	%esi, -52(%rbp)
	movq	%rdx, -48(%rbp)
	movq	%rcx, -40(%rbp)
	movl	$0, -24(%rbp)
	cmpl	$0, -20(%rbp)
	jg	.LBB98_2
# %bb.1:                                # %if.then
	movl	$1, -24(%rbp)
.LBB98_2:                               # %if.end
	movl	-20(%rbp), %edi
	callq	abs
	shll	$1, %eax
	movl	%eax, -28(%rbp)
	movl	-28(%rbp), %eax
	cltd
	movl	$2, %ecx
	idivl	%ecx
	movl	%eax, -16(%rbp)
	movl	$0, -12(%rbp)
.LBB98_3:                               # %for.cond
                                        # =>This Inner Loop Header: Depth=1
	xorl	%eax, %eax
	cmpl	$16, -12(%rbp)
	jge	.LBB98_5
# %bb.4:                                # %land.rhs
                                        #   in Loop: Header=BB98_3 Depth=1
	cmpl	$0, -16(%rbp)
	setne	%al
.LBB98_5:                               # %land.end
                                        #   in Loop: Header=BB98_3 Depth=1
	testb	$1, %al
	jne	.LBB98_6
	jmp	.LBB98_8
.LBB98_6:                               # %for.body
                                        #   in Loop: Header=BB98_3 Depth=1
	movl	-16(%rbp), %eax
	cltd
	movl	$2, %ecx
	idivl	%ecx
	movl	%eax, -16(%rbp)
# %bb.7:                                # %for.inc
                                        #   in Loop: Header=BB98_3 Depth=1
	movl	-12(%rbp), %eax
	addl	$1, %eax
	movl	%eax, -12(%rbp)
	jmp	.LBB98_3
.LBB98_8:                               # %for.end
	vmovsd	.LCPI98_0(%rip), %xmm0  # xmm0 = mem[0],zero
	movl	-12(%rbp), %eax
	shll	$1, %eax
	addl	$1, %eax
	movq	-48(%rbp), %rcx
	movl	%eax, (%rcx)
	movl	-28(%rbp), %ebx
	vcvtsi2sdl	-12(%rbp), %xmm0, %xmm1
	callq	pow
	vcvttsd2si	%xmm0, %eax
	subl	%eax, %ebx
	addl	-24(%rbp), %ebx
	movq	-40(%rbp), %rax
	movl	%ebx, (%rax)
	cmpl	$579141777, -32(%rbp)   # imm = 0x22850091
	jne	.LBB98_10
.LBB98_9:
	addq	$56, %rsp
	popq	%rbx
	popq	%rbp
	.cfi_def_cfa %rsp, 8
	retq
.LBB98_10:                              # %func_exit
	.cfi_def_cfa %rbp, 16
	callq	detect_breach
	jmp	.LBB98_9
.Lfunc_end98:
	.size	se_linfo.71, .Lfunc_end98-se_linfo.71
	.cfi_endproc
                                        # -- End function
	.globl	writeSyntaxElement_NumCoeffTrailingOnes.72 # -- Begin function writeSyntaxElement_NumCoeffTrailingOnes.72
	.p2align	4, 0x90
	.type	writeSyntaxElement_NumCoeffTrailingOnes.72,@function
writeSyntaxElement_NumCoeffTrailingOnes.72: # @writeSyntaxElement_NumCoeffTrailingOnes.72
	.cfi_startproc
# %bb.0:                                # %entry
	pushq	%rbp
	.cfi_def_cfa_offset 16
	.cfi_offset %rbp, -16
	movq	%rsp, %rbp
	.cfi_def_cfa_register %rbp
	pushq	%rbx
	subq	$24, %rsp
	.cfi_offset %rbx, -24
	movl	$1302137483, -24(%rbp)  # imm = 0x4D9D0A8B
	movq	%rdi, -16(%rbp)
	movq	%rsi, -32(%rbp)
	movq	-16(%rbp), %rax
	movl	12(%rax), %eax
	movl	%eax, -20(%rbp)
	cmpl	$3, -20(%rbp)
	jne	.LBB99_5
# %bb.1:                                # %if.then
	movq	-16(%rbp), %rax
	movl	$6, 12(%rax)
	movq	-16(%rbp), %rax
	cmpl	$0, 4(%rax)
	jle	.LBB99_3
# %bb.2:                                # %if.then3
	movq	-16(%rbp), %rax
	movl	4(%rax), %eax
	subl	$1, %eax
	shll	$2, %eax
	movq	-16(%rbp), %rcx
	orl	8(%rcx), %eax
	movq	-16(%rbp), %rcx
	movl	%eax, 16(%rcx)
	jmp	.LBB99_4
.LBB99_3:                               # %if.else
	movq	-16(%rbp), %rax
	movl	$3, 16(%rax)
.LBB99_4:                               # %if.end
	jmp	.LBB99_6
.LBB99_5:                               # %if.else6
	movslq	-20(%rbp), %rax
	imulq	$272, %rax, %rax        # imm = 0x110
	movabsq	$writeSyntaxElement_NumCoeffTrailingOnes.lentab, %rcx
	addq	%rax, %rcx
	movq	-16(%rbp), %rax
	movslq	8(%rax), %rax
	imulq	$68, %rax, %rax
	addq	%rax, %rcx
	movq	-16(%rbp), %rax
	movslq	4(%rax), %rax
	movl	(%rcx,%rax,4), %eax
	movq	-16(%rbp), %rcx
	movl	%eax, 12(%rcx)
	movslq	-20(%rbp), %rax
	imulq	$272, %rax, %rax        # imm = 0x110
	movabsq	$writeSyntaxElement_NumCoeffTrailingOnes.codtab, %rcx
	addq	%rax, %rcx
	movq	-16(%rbp), %rax
	movslq	8(%rax), %rax
	imulq	$68, %rax, %rax
	addq	%rax, %rcx
	movq	-16(%rbp), %rax
	movslq	4(%rax), %rax
	movl	(%rcx,%rax,4), %eax
	movq	-16(%rbp), %rcx
	movl	%eax, 16(%rcx)
.LBB99_6:                               # %if.end23
	movq	-16(%rbp), %rax
	cmpl	$0, 12(%rax)
	jne	.LBB99_8
# %bb.7:                                # %if.then26
	movl	-20(%rbp), %esi
	movq	-16(%rbp), %rax
	movl	4(%rax), %edx
	movq	-16(%rbp), %rax
	movl	8(%rax), %ecx
	movabsq	$.L.str, %rdi
	movb	$0, %al
	callq	printf
	movl	$4294967295, %edi       # imm = 0xFFFFFFFF
	callq	exit
.LBB99_8:                               # %if.end29
	movq	-16(%rbp), %rdi
	callq	symbol2vlc
	movq	-16(%rbp), %rdi
	movq	-32(%rbp), %rax
	movq	(%rax), %rsi
	callq	writeUVLC2buffer
	movq	-16(%rbp), %rax
	movl	12(%rax), %ebx
	cmpl	$1302137483, -24(%rbp)  # imm = 0x4D9D0A8B
	jne	.LBB99_10
.LBB99_9:
	movl	%ebx, %eax
	addq	$24, %rsp
	popq	%rbx
	popq	%rbp
	.cfi_def_cfa %rsp, 8
	retq
.LBB99_10:                              # %func_exit
	.cfi_def_cfa %rbp, 16
	callq	detect_breach
	jmp	.LBB99_9
.Lfunc_end99:
	.size	writeSyntaxElement_NumCoeffTrailingOnes.72, .Lfunc_end99-writeSyntaxElement_NumCoeffTrailingOnes.72
	.cfi_endproc
                                        # -- End function
	.section	.rodata.cst8,"aM",@progbits,8
	.p2align	3               # -- Begin function ue_linfo.73
.LCPI100_0:
	.quad	4611686018427387904     # double 2
	.text
	.globl	ue_linfo.73
	.p2align	4, 0x90
	.type	ue_linfo.73,@function
ue_linfo.73:                            # @ue_linfo.73
	.cfi_startproc
# %bb.0:                                # %entry
	pushq	%rbp
	.cfi_def_cfa_offset 16
	.cfi_offset %rbp, -16
	movq	%rsp, %rbp
	.cfi_def_cfa_register %rbp
	pushq	%rbx
	subq	$40, %rsp
	.cfi_offset %rbx, -24
	movl	$1080797404, -24(%rbp)  # imm = 0x406BA8DC
	movl	%edi, -20(%rbp)
	movl	%esi, -44(%rbp)
	movq	%rdx, -40(%rbp)
	movq	%rcx, -32(%rbp)
	movl	-20(%rbp), %eax
	addl	$1, %eax
	cltd
	movl	$2, %ecx
	idivl	%ecx
	movl	%eax, -16(%rbp)
	movl	$0, -12(%rbp)
.LBB100_1:                              # %for.cond
                                        # =>This Inner Loop Header: Depth=1
	xorl	%eax, %eax
	cmpl	$16, -12(%rbp)
	jge	.LBB100_3
# %bb.2:                                # %land.rhs
                                        #   in Loop: Header=BB100_1 Depth=1
	cmpl	$0, -16(%rbp)
	setne	%al
.LBB100_3:                              # %land.end
                                        #   in Loop: Header=BB100_1 Depth=1
	testb	$1, %al
	jne	.LBB100_4
	jmp	.LBB100_6
.LBB100_4:                              # %for.body
                                        #   in Loop: Header=BB100_1 Depth=1
	movl	-16(%rbp), %eax
	cltd
	movl	$2, %ecx
	idivl	%ecx
	movl	%eax, -16(%rbp)
# %bb.5:                                # %for.inc
                                        #   in Loop: Header=BB100_1 Depth=1
	movl	-12(%rbp), %eax
	addl	$1, %eax
	movl	%eax, -12(%rbp)
	jmp	.LBB100_1
.LBB100_6:                              # %for.end
	vmovsd	.LCPI100_0(%rip), %xmm0 # xmm0 = mem[0],zero
	movl	-12(%rbp), %eax
	shll	$1, %eax
	addl	$1, %eax
	movq	-40(%rbp), %rcx
	movl	%eax, (%rcx)
	movl	-20(%rbp), %ebx
	addl	$1, %ebx
	vcvtsi2sdl	-12(%rbp), %xmm0, %xmm1
	callq	pow
	vcvttsd2si	%xmm0, %eax
	subl	%eax, %ebx
	movq	-32(%rbp), %rax
	movl	%ebx, (%rax)
	cmpl	$1080797404, -24(%rbp)  # imm = 0x406BA8DC
	jne	.LBB100_8
.LBB100_7:
	addq	$40, %rsp
	popq	%rbx
	popq	%rbp
	.cfi_def_cfa %rsp, 8
	retq
.LBB100_8:                              # %func_exit
	.cfi_def_cfa %rbp, 16
	callq	detect_breach
	jmp	.LBB100_7
.Lfunc_end100:
	.size	ue_linfo.73, .Lfunc_end100-ue_linfo.73
	.cfi_endproc
                                        # -- End function
	.globl	writeSyntaxElement_NumCoeffTrailingOnes.74 # -- Begin function writeSyntaxElement_NumCoeffTrailingOnes.74
	.p2align	4, 0x90
	.type	writeSyntaxElement_NumCoeffTrailingOnes.74,@function
writeSyntaxElement_NumCoeffTrailingOnes.74: # @writeSyntaxElement_NumCoeffTrailingOnes.74
	.cfi_startproc
# %bb.0:                                # %entry
	pushq	%rbp
	.cfi_def_cfa_offset 16
	.cfi_offset %rbp, -16
	movq	%rsp, %rbp
	.cfi_def_cfa_register %rbp
	pushq	%rbx
	subq	$24, %rsp
	.cfi_offset %rbx, -24
	movl	$405736436, -24(%rbp)   # imm = 0x182F0BF4
	movq	%rdi, -16(%rbp)
	movq	%rsi, -32(%rbp)
	movq	-16(%rbp), %rax
	movl	12(%rax), %eax
	movl	%eax, -20(%rbp)
	cmpl	$3, -20(%rbp)
	jne	.LBB101_5
# %bb.1:                                # %if.then
	movq	-16(%rbp), %rax
	movl	$6, 12(%rax)
	movq	-16(%rbp), %rax
	cmpl	$0, 4(%rax)
	jle	.LBB101_3
# %bb.2:                                # %if.then3
	movq	-16(%rbp), %rax
	movl	4(%rax), %eax
	subl	$1, %eax
	shll	$2, %eax
	movq	-16(%rbp), %rcx
	orl	8(%rcx), %eax
	movq	-16(%rbp), %rcx
	movl	%eax, 16(%rcx)
	jmp	.LBB101_4
.LBB101_3:                              # %if.else
	movq	-16(%rbp), %rax
	movl	$3, 16(%rax)
.LBB101_4:                              # %if.end
	jmp	.LBB101_6
.LBB101_5:                              # %if.else6
	movslq	-20(%rbp), %rax
	imulq	$272, %rax, %rax        # imm = 0x110
	movabsq	$writeSyntaxElement_NumCoeffTrailingOnes.lentab, %rcx
	addq	%rax, %rcx
	movq	-16(%rbp), %rax
	movslq	8(%rax), %rax
	imulq	$68, %rax, %rax
	addq	%rax, %rcx
	movq	-16(%rbp), %rax
	movslq	4(%rax), %rax
	movl	(%rcx,%rax,4), %eax
	movq	-16(%rbp), %rcx
	movl	%eax, 12(%rcx)
	movslq	-20(%rbp), %rax
	imulq	$272, %rax, %rax        # imm = 0x110
	movabsq	$writeSyntaxElement_NumCoeffTrailingOnes.codtab, %rcx
	addq	%rax, %rcx
	movq	-16(%rbp), %rax
	movslq	8(%rax), %rax
	imulq	$68, %rax, %rax
	addq	%rax, %rcx
	movq	-16(%rbp), %rax
	movslq	4(%rax), %rax
	movl	(%rcx,%rax,4), %eax
	movq	-16(%rbp), %rcx
	movl	%eax, 16(%rcx)
.LBB101_6:                              # %if.end23
	movq	-16(%rbp), %rax
	cmpl	$0, 12(%rax)
	jne	.LBB101_8
# %bb.7:                                # %if.then26
	movl	-20(%rbp), %esi
	movq	-16(%rbp), %rax
	movl	4(%rax), %edx
	movq	-16(%rbp), %rax
	movl	8(%rax), %ecx
	movabsq	$.L.str, %rdi
	movb	$0, %al
	callq	printf
	movl	$4294967295, %edi       # imm = 0xFFFFFFFF
	callq	exit
.LBB101_8:                              # %if.end29
	movq	-16(%rbp), %rdi
	callq	symbol2vlc
	movq	-16(%rbp), %rdi
	movq	-32(%rbp), %rax
	movq	(%rax), %rsi
	callq	writeUVLC2buffer
	movq	-16(%rbp), %rax
	movl	12(%rax), %ebx
	cmpl	$405736436, -24(%rbp)   # imm = 0x182F0BF4
	jne	.LBB101_10
.LBB101_9:
	movl	%ebx, %eax
	addq	$24, %rsp
	popq	%rbx
	popq	%rbp
	.cfi_def_cfa %rsp, 8
	retq
.LBB101_10:                             # %func_exit
	.cfi_def_cfa %rbp, 16
	callq	detect_breach
	jmp	.LBB101_9
.Lfunc_end101:
	.size	writeSyntaxElement_NumCoeffTrailingOnes.74, .Lfunc_end101-writeSyntaxElement_NumCoeffTrailingOnes.74
	.cfi_endproc
                                        # -- End function
	.globl	writeSyntaxElement_Run.75 # -- Begin function writeSyntaxElement_Run.75
	.p2align	4, 0x90
	.type	writeSyntaxElement_Run.75,@function
writeSyntaxElement_Run.75:              # @writeSyntaxElement_Run.75
	.cfi_startproc
# %bb.0:                                # %entry
	pushq	%rbp
	.cfi_def_cfa_offset 16
	.cfi_offset %rbp, -16
	movq	%rsp, %rbp
	.cfi_def_cfa_register %rbp
	pushq	%rbx
	subq	$24, %rsp
	.cfi_offset %rbx, -24
	movabsq	$writeSyntaxElement_Run.codtab, %rax
	movabsq	$writeSyntaxElement_Run.lentab, %rcx
	movl	$167359613, -24(%rbp)   # imm = 0x9F9B47D
	movq	%rdi, -16(%rbp)
	movq	%rsi, -32(%rbp)
	movq	-16(%rbp), %rdx
	movl	12(%rdx), %edx
	movl	%edx, -20(%rbp)
	movslq	-20(%rbp), %rdx
	shlq	$6, %rdx
	addq	%rdx, %rcx
	movq	-16(%rbp), %rdx
	movslq	4(%rdx), %rdx
	movl	(%rcx,%rdx,4), %ecx
	movq	-16(%rbp), %rdx
	movl	%ecx, 12(%rdx)
	movslq	-20(%rbp), %rcx
	shlq	$6, %rcx
	addq	%rcx, %rax
	movq	-16(%rbp), %rcx
	movslq	4(%rcx), %rcx
	movl	(%rax,%rcx,4), %eax
	movq	-16(%rbp), %rcx
	movl	%eax, 16(%rcx)
	movq	-16(%rbp), %rax
	cmpl	$0, 12(%rax)
	jne	.LBB102_2
# %bb.1:                                # %if.then
	movq	-16(%rbp), %rax
	movl	4(%rax), %esi
	movabsq	$.L.str.3, %rdi
	movb	$0, %al
	callq	printf
	movl	$4294967295, %edi       # imm = 0xFFFFFFFF
	callq	exit
.LBB102_2:                              # %if.end
	movq	-16(%rbp), %rdi
	callq	symbol2vlc
	movq	-16(%rbp), %rdi
	movq	-32(%rbp), %rax
	movq	(%rax), %rsi
	callq	writeUVLC2buffer
	movq	-16(%rbp), %rax
	movl	12(%rax), %ebx
	cmpl	$167359613, -24(%rbp)   # imm = 0x9F9B47D
	jne	.LBB102_4
.LBB102_3:
	movl	%ebx, %eax
	addq	$24, %rsp
	popq	%rbx
	popq	%rbp
	.cfi_def_cfa %rsp, 8
	retq
.LBB102_4:                              # %func_exit
	.cfi_def_cfa %rbp, 16
	callq	detect_breach
	jmp	.LBB102_3
.Lfunc_end102:
	.size	writeSyntaxElement_Run.75, .Lfunc_end102-writeSyntaxElement_Run.75
	.cfi_endproc
                                        # -- End function
	.globl	u_v.76                  # -- Begin function u_v.76
	.p2align	4, 0x90
	.type	u_v.76,@function
u_v.76:                                 # @u_v.76
	.cfi_startproc
# %bb.0:                                # %entry
	pushq	%rbp
	.cfi_def_cfa_offset 16
	.cfi_offset %rbp, -16
	movq	%rsp, %rbp
	.cfi_def_cfa_register %rbp
	pushq	%rbx
	subq	$88, %rsp
	.cfi_offset %rbx, -24
	movl	$543824004, -24(%rbp)   # imm = 0x206A1884
	movl	%edi, -28(%rbp)
	movq	%rsi, -48(%rbp)
	movl	%edx, -20(%rbp)
	movq	%rcx, -40(%rbp)
	leaq	-96(%rbp), %rax
	movq	%rax, -16(%rbp)
	movl	-20(%rbp), %eax
	movq	-16(%rbp), %rcx
	movl	%eax, 20(%rcx)
	movl	-28(%rbp), %eax
	movq	-16(%rbp), %rcx
	movl	%eax, 12(%rcx)
	movq	-16(%rbp), %rax
	movl	$0, (%rax)
	movl	-20(%rbp), %eax
	movq	-16(%rbp), %rcx
	movl	%eax, 4(%rcx)
	movq	-16(%rbp), %rax
	movl	$0, 8(%rax)
	movq	-16(%rbp), %rdi
	movq	-40(%rbp), %rsi
	callq	writeSyntaxElement_fixed
	movl	%eax, %ebx
	cmpl	$543824004, -24(%rbp)   # imm = 0x206A1884
	jne	.LBB103_2
.LBB103_1:
	movl	%ebx, %eax
	addq	$88, %rsp
	popq	%rbx
	popq	%rbp
	.cfi_def_cfa %rsp, 8
	retq
.LBB103_2:                              # %func_exit
	.cfi_def_cfa %rbp, 16
	callq	detect_breach
	jmp	.LBB103_1
.Lfunc_end103:
	.size	u_v.76, .Lfunc_end103-u_v.76
	.cfi_endproc
                                        # -- End function
	.globl	u_v.77                  # -- Begin function u_v.77
	.p2align	4, 0x90
	.type	u_v.77,@function
u_v.77:                                 # @u_v.77
	.cfi_startproc
# %bb.0:                                # %entry
	pushq	%rbp
	.cfi_def_cfa_offset 16
	.cfi_offset %rbp, -16
	movq	%rsp, %rbp
	.cfi_def_cfa_register %rbp
	pushq	%rbx
	subq	$88, %rsp
	.cfi_offset %rbx, -24
	movl	$2106168667, -24(%rbp)  # imm = 0x7D89955B
	movl	%edi, -28(%rbp)
	movq	%rsi, -48(%rbp)
	movl	%edx, -20(%rbp)
	movq	%rcx, -40(%rbp)
	leaq	-96(%rbp), %rax
	movq	%rax, -16(%rbp)
	movl	-20(%rbp), %eax
	movq	-16(%rbp), %rcx
	movl	%eax, 20(%rcx)
	movl	-28(%rbp), %eax
	movq	-16(%rbp), %rcx
	movl	%eax, 12(%rcx)
	movq	-16(%rbp), %rax
	movl	$0, (%rax)
	movl	-20(%rbp), %eax
	movq	-16(%rbp), %rcx
	movl	%eax, 4(%rcx)
	movq	-16(%rbp), %rax
	movl	$0, 8(%rax)
	movq	-16(%rbp), %rdi
	movq	-40(%rbp), %rsi
	callq	writeSyntaxElement_fixed
	movl	%eax, %ebx
	cmpl	$2106168667, -24(%rbp)  # imm = 0x7D89955B
	jne	.LBB104_2
.LBB104_1:
	movl	%ebx, %eax
	addq	$88, %rsp
	popq	%rbx
	popq	%rbp
	.cfi_def_cfa %rsp, 8
	retq
.LBB104_2:                              # %func_exit
	.cfi_def_cfa %rbp, 16
	callq	detect_breach
	jmp	.LBB104_1
.Lfunc_end104:
	.size	u_v.77, .Lfunc_end104-u_v.77
	.cfi_endproc
                                        # -- End function
	.section	.rodata.cst8,"aM",@progbits,8
	.p2align	3               # -- Begin function ue_linfo.78
.LCPI105_0:
	.quad	4611686018427387904     # double 2
	.text
	.globl	ue_linfo.78
	.p2align	4, 0x90
	.type	ue_linfo.78,@function
ue_linfo.78:                            # @ue_linfo.78
	.cfi_startproc
# %bb.0:                                # %entry
	pushq	%rbp
	.cfi_def_cfa_offset 16
	.cfi_offset %rbp, -16
	movq	%rsp, %rbp
	.cfi_def_cfa_register %rbp
	pushq	%rbx
	subq	$40, %rsp
	.cfi_offset %rbx, -24
	movl	$1669758375, -24(%rbp)  # imm = 0x63867DA7
	movl	%edi, -20(%rbp)
	movl	%esi, -44(%rbp)
	movq	%rdx, -32(%rbp)
	movq	%rcx, -40(%rbp)
	movl	-20(%rbp), %eax
	addl	$1, %eax
	cltd
	movl	$2, %ecx
	idivl	%ecx
	movl	%eax, -16(%rbp)
	movl	$0, -12(%rbp)
.LBB105_1:                              # %for.cond
                                        # =>This Inner Loop Header: Depth=1
	xorl	%eax, %eax
	cmpl	$16, -12(%rbp)
	jge	.LBB105_3
# %bb.2:                                # %land.rhs
                                        #   in Loop: Header=BB105_1 Depth=1
	cmpl	$0, -16(%rbp)
	setne	%al
.LBB105_3:                              # %land.end
                                        #   in Loop: Header=BB105_1 Depth=1
	testb	$1, %al
	jne	.LBB105_4
	jmp	.LBB105_6
.LBB105_4:                              # %for.body
                                        #   in Loop: Header=BB105_1 Depth=1
	movl	-16(%rbp), %eax
	cltd
	movl	$2, %ecx
	idivl	%ecx
	movl	%eax, -16(%rbp)
# %bb.5:                                # %for.inc
                                        #   in Loop: Header=BB105_1 Depth=1
	movl	-12(%rbp), %eax
	addl	$1, %eax
	movl	%eax, -12(%rbp)
	jmp	.LBB105_1
.LBB105_6:                              # %for.end
	vmovsd	.LCPI105_0(%rip), %xmm0 # xmm0 = mem[0],zero
	movl	-12(%rbp), %eax
	shll	$1, %eax
	addl	$1, %eax
	movq	-32(%rbp), %rcx
	movl	%eax, (%rcx)
	movl	-20(%rbp), %ebx
	addl	$1, %ebx
	vcvtsi2sdl	-12(%rbp), %xmm0, %xmm1
	callq	pow
	vcvttsd2si	%xmm0, %eax
	subl	%eax, %ebx
	movq	-40(%rbp), %rax
	movl	%ebx, (%rax)
	cmpl	$1669758375, -24(%rbp)  # imm = 0x63867DA7
	jne	.LBB105_8
.LBB105_7:
	addq	$40, %rsp
	popq	%rbx
	popq	%rbp
	.cfi_def_cfa %rsp, 8
	retq
.LBB105_8:                              # %func_exit
	.cfi_def_cfa %rbp, 16
	callq	detect_breach
	jmp	.LBB105_7
.Lfunc_end105:
	.size	ue_linfo.78, .Lfunc_end105-ue_linfo.78
	.cfi_endproc
                                        # -- End function
	.globl	u_1.79                  # -- Begin function u_1.79
	.p2align	4, 0x90
	.type	u_1.79,@function
u_1.79:                                 # @u_1.79
	.cfi_startproc
# %bb.0:                                # %entry
	pushq	%rbp
	.cfi_def_cfa_offset 16
	.cfi_offset %rbp, -16
	movq	%rsp, %rbp
	.cfi_def_cfa_register %rbp
	pushq	%rbx
	subq	$88, %rsp
	.cfi_offset %rbx, -24
	movl	$1614074388, -24(%rbp)  # imm = 0x6034D214
	movq	%rdi, -40(%rbp)
	movl	%esi, -20(%rbp)
	movq	%rdx, -32(%rbp)
	leaq	-88(%rbp), %rax
	movq	%rax, -16(%rbp)
	movl	-20(%rbp), %eax
	movq	-16(%rbp), %rcx
	movl	%eax, 20(%rcx)
	movq	-16(%rbp), %rax
	movl	$1, 12(%rax)
	movq	-16(%rbp), %rax
	movl	$0, (%rax)
	movl	-20(%rbp), %eax
	movq	-16(%rbp), %rcx
	movl	%eax, 4(%rcx)
	movq	-16(%rbp), %rax
	movl	$0, 8(%rax)
	movq	-16(%rbp), %rdi
	movq	-32(%rbp), %rsi
	callq	writeSyntaxElement_fixed
	movl	%eax, %ebx
	cmpl	$1614074388, -24(%rbp)  # imm = 0x6034D214
	jne	.LBB106_2
.LBB106_1:
	movl	%ebx, %eax
	addq	$88, %rsp
	popq	%rbx
	popq	%rbp
	.cfi_def_cfa %rsp, 8
	retq
.LBB106_2:                              # %func_exit
	.cfi_def_cfa %rbp, 16
	callq	detect_breach
	jmp	.LBB106_1
.Lfunc_end106:
	.size	u_1.79, .Lfunc_end106-u_1.79
	.cfi_endproc
                                        # -- End function
	.globl	writeSyntaxElement_Run.80 # -- Begin function writeSyntaxElement_Run.80
	.p2align	4, 0x90
	.type	writeSyntaxElement_Run.80,@function
writeSyntaxElement_Run.80:              # @writeSyntaxElement_Run.80
	.cfi_startproc
# %bb.0:                                # %entry
	pushq	%rbp
	.cfi_def_cfa_offset 16
	.cfi_offset %rbp, -16
	movq	%rsp, %rbp
	.cfi_def_cfa_register %rbp
	pushq	%rbx
	subq	$24, %rsp
	.cfi_offset %rbx, -24
	movabsq	$writeSyntaxElement_Run.codtab, %rax
	movabsq	$writeSyntaxElement_Run.lentab, %rcx
	movl	$664077046, -24(%rbp)   # imm = 0x279502F6
	movq	%rdi, -16(%rbp)
	movq	%rsi, -32(%rbp)
	movq	-16(%rbp), %rdx
	movl	12(%rdx), %edx
	movl	%edx, -20(%rbp)
	movslq	-20(%rbp), %rdx
	shlq	$6, %rdx
	addq	%rdx, %rcx
	movq	-16(%rbp), %rdx
	movslq	4(%rdx), %rdx
	movl	(%rcx,%rdx,4), %ecx
	movq	-16(%rbp), %rdx
	movl	%ecx, 12(%rdx)
	movslq	-20(%rbp), %rcx
	shlq	$6, %rcx
	addq	%rcx, %rax
	movq	-16(%rbp), %rcx
	movslq	4(%rcx), %rcx
	movl	(%rax,%rcx,4), %eax
	movq	-16(%rbp), %rcx
	movl	%eax, 16(%rcx)
	movq	-16(%rbp), %rax
	cmpl	$0, 12(%rax)
	jne	.LBB107_2
# %bb.1:                                # %if.then
	movq	-16(%rbp), %rax
	movl	4(%rax), %esi
	movabsq	$.L.str.3, %rdi
	movb	$0, %al
	callq	printf
	movl	$4294967295, %edi       # imm = 0xFFFFFFFF
	callq	exit
.LBB107_2:                              # %if.end
	movq	-16(%rbp), %rdi
	callq	symbol2vlc
	movq	-16(%rbp), %rdi
	movq	-32(%rbp), %rax
	movq	(%rax), %rsi
	callq	writeUVLC2buffer
	movq	-16(%rbp), %rax
	movl	12(%rax), %ebx
	cmpl	$664077046, -24(%rbp)   # imm = 0x279502F6
	jne	.LBB107_4
.LBB107_3:
	movl	%ebx, %eax
	addq	$24, %rsp
	popq	%rbx
	popq	%rbp
	.cfi_def_cfa %rsp, 8
	retq
.LBB107_4:                              # %func_exit
	.cfi_def_cfa %rbp, 16
	callq	detect_breach
	jmp	.LBB107_3
.Lfunc_end107:
	.size	writeSyntaxElement_Run.80, .Lfunc_end107-writeSyntaxElement_Run.80
	.cfi_endproc
                                        # -- End function
	.section	.rodata.cst8,"aM",@progbits,8
	.p2align	3               # -- Begin function ue_linfo.81
.LCPI108_0:
	.quad	4611686018427387904     # double 2
	.text
	.globl	ue_linfo.81
	.p2align	4, 0x90
	.type	ue_linfo.81,@function
ue_linfo.81:                            # @ue_linfo.81
	.cfi_startproc
# %bb.0:                                # %entry
	pushq	%rbp
	.cfi_def_cfa_offset 16
	.cfi_offset %rbp, -16
	movq	%rsp, %rbp
	.cfi_def_cfa_register %rbp
	pushq	%rbx
	subq	$40, %rsp
	.cfi_offset %rbx, -24
	movl	$856581579, -24(%rbp)   # imm = 0x330E65CB
	movl	%edi, -20(%rbp)
	movl	%esi, -44(%rbp)
	movq	%rdx, -40(%rbp)
	movq	%rcx, -32(%rbp)
	movl	-20(%rbp), %eax
	addl	$1, %eax
	cltd
	movl	$2, %ecx
	idivl	%ecx
	movl	%eax, -16(%rbp)
	movl	$0, -12(%rbp)
.LBB108_1:                              # %for.cond
                                        # =>This Inner Loop Header: Depth=1
	xorl	%eax, %eax
	cmpl	$16, -12(%rbp)
	jge	.LBB108_3
# %bb.2:                                # %land.rhs
                                        #   in Loop: Header=BB108_1 Depth=1
	cmpl	$0, -16(%rbp)
	setne	%al
.LBB108_3:                              # %land.end
                                        #   in Loop: Header=BB108_1 Depth=1
	testb	$1, %al
	jne	.LBB108_4
	jmp	.LBB108_6
.LBB108_4:                              # %for.body
                                        #   in Loop: Header=BB108_1 Depth=1
	movl	-16(%rbp), %eax
	cltd
	movl	$2, %ecx
	idivl	%ecx
	movl	%eax, -16(%rbp)
# %bb.5:                                # %for.inc
                                        #   in Loop: Header=BB108_1 Depth=1
	movl	-12(%rbp), %eax
	addl	$1, %eax
	movl	%eax, -12(%rbp)
	jmp	.LBB108_1
.LBB108_6:                              # %for.end
	vmovsd	.LCPI108_0(%rip), %xmm0 # xmm0 = mem[0],zero
	movl	-12(%rbp), %eax
	shll	$1, %eax
	addl	$1, %eax
	movq	-40(%rbp), %rcx
	movl	%eax, (%rcx)
	movl	-20(%rbp), %ebx
	addl	$1, %ebx
	vcvtsi2sdl	-12(%rbp), %xmm0, %xmm1
	callq	pow
	vcvttsd2si	%xmm0, %eax
	subl	%eax, %ebx
	movq	-32(%rbp), %rax
	movl	%ebx, (%rax)
	cmpl	$856581579, -24(%rbp)   # imm = 0x330E65CB
	jne	.LBB108_8
.LBB108_7:
	addq	$40, %rsp
	popq	%rbx
	popq	%rbp
	.cfi_def_cfa %rsp, 8
	retq
.LBB108_8:                              # %func_exit
	.cfi_def_cfa %rbp, 16
	callq	detect_breach
	jmp	.LBB108_7
.Lfunc_end108:
	.size	ue_linfo.81, .Lfunc_end108-ue_linfo.81
	.cfi_endproc
                                        # -- End function
	.globl	cbp_linfo_intra.82      # -- Begin function cbp_linfo_intra.82
	.p2align	4, 0x90
	.type	cbp_linfo_intra.82,@function
cbp_linfo_intra.82:                     # @cbp_linfo_intra.82
	.cfi_startproc
# %bb.0:                                # %entry
	pushq	%rbp
	.cfi_def_cfa_offset 16
	.cfi_offset %rbp, -16
	movq	%rsp, %rbp
	.cfi_def_cfa_register %rbp
	subq	$32, %rsp
	xorl	%eax, %eax
	movl	$407422959, -8(%rbp)    # imm = 0x1848C7EF
	movl	%edi, -12(%rbp)
	movl	%esi, -4(%rbp)
	movq	%rdx, -32(%rbp)
	movq	%rcx, -24(%rbp)
	movq	img, %rcx
	movl	72700(%rcx), %ecx
	cmpl	$0, %ecx
	movl	$1, %ecx
	cmovnel	%ecx, %eax
	cltq
	imulq	$96, %rax, %rax
	movabsq	$NCBP, %rcx
	addq	%rax, %rcx
	movslq	-12(%rbp), %rax
	movzbl	(%rcx,%rax,2), %edi
	movl	-4(%rbp), %esi
	movq	-32(%rbp), %rdx
	movq	-24(%rbp), %rcx
	callq	ue_linfo
	cmpl	$407422959, -8(%rbp)    # imm = 0x1848C7EF
	jne	.LBB109_2
.LBB109_1:
	addq	$32, %rsp
	popq	%rbp
	.cfi_def_cfa %rsp, 8
	retq
.LBB109_2:                              # %func_exit
	.cfi_def_cfa %rbp, 16
	callq	detect_breach
	jmp	.LBB109_1
.Lfunc_end109:
	.size	cbp_linfo_intra.82, .Lfunc_end109-cbp_linfo_intra.82
	.cfi_endproc
                                        # -- End function
	.globl	ue_v.83                 # -- Begin function ue_v.83
	.p2align	4, 0x90
	.type	ue_v.83,@function
ue_v.83:                                # @ue_v.83
	.cfi_startproc
# %bb.0:                                # %entry
	pushq	%rbp
	.cfi_def_cfa_offset 16
	.cfi_offset %rbp, -16
	movq	%rsp, %rbp
	.cfi_def_cfa_register %rbp
	pushq	%rbx
	subq	$88, %rsp
	.cfi_offset %rbx, -24
	movl	$1553600241, -24(%rbp)  # imm = 0x5C9A0EF1
	movq	%rdi, -40(%rbp)
	movl	%esi, -20(%rbp)
	movq	%rdx, -32(%rbp)
	leaq	-88(%rbp), %rax
	movq	%rax, -16(%rbp)
	movq	-16(%rbp), %rax
	movl	$0, (%rax)
	movq	-16(%rbp), %rax
	movabsq	$ue_linfo, %rcx
	movq	%rcx, 32(%rax)
	movl	-20(%rbp), %eax
	movq	-16(%rbp), %rcx
	movl	%eax, 4(%rcx)
	movq	-16(%rbp), %rax
	movl	$0, 8(%rax)
	movq	-16(%rbp), %rdi
	movq	-32(%rbp), %rsi
	callq	writeSyntaxElement_UVLC
	movl	%eax, %ebx
	cmpl	$1553600241, -24(%rbp)  # imm = 0x5C9A0EF1
	jne	.LBB110_2
.LBB110_1:
	movl	%ebx, %eax
	addq	$88, %rsp
	popq	%rbx
	popq	%rbp
	.cfi_def_cfa %rsp, 8
	retq
.LBB110_2:                              # %func_exit
	.cfi_def_cfa %rbp, 16
	callq	detect_breach
	jmp	.LBB110_1
.Lfunc_end110:
	.size	ue_v.83, .Lfunc_end110-ue_v.83
	.cfi_endproc
                                        # -- End function
	.globl	ue_v.84                 # -- Begin function ue_v.84
	.p2align	4, 0x90
	.type	ue_v.84,@function
ue_v.84:                                # @ue_v.84
	.cfi_startproc
# %bb.0:                                # %entry
	pushq	%rbp
	.cfi_def_cfa_offset 16
	.cfi_offset %rbp, -16
	movq	%rsp, %rbp
	.cfi_def_cfa_register %rbp
	pushq	%rbx
	subq	$88, %rsp
	.cfi_offset %rbx, -24
	movl	$433065830, -24(%rbp)   # imm = 0x19D00F66
	movq	%rdi, -40(%rbp)
	movl	%esi, -20(%rbp)
	movq	%rdx, -32(%rbp)
	leaq	-88(%rbp), %rax
	movq	%rax, -16(%rbp)
	movq	-16(%rbp), %rax
	movl	$0, (%rax)
	movq	-16(%rbp), %rax
	movabsq	$ue_linfo, %rcx
	movq	%rcx, 32(%rax)
	movl	-20(%rbp), %eax
	movq	-16(%rbp), %rcx
	movl	%eax, 4(%rcx)
	movq	-16(%rbp), %rax
	movl	$0, 8(%rax)
	movq	-16(%rbp), %rdi
	movq	-32(%rbp), %rsi
	callq	writeSyntaxElement_UVLC
	movl	%eax, %ebx
	cmpl	$433065830, -24(%rbp)   # imm = 0x19D00F66
	jne	.LBB111_2
.LBB111_1:
	movl	%ebx, %eax
	addq	$88, %rsp
	popq	%rbx
	popq	%rbp
	.cfi_def_cfa %rsp, 8
	retq
.LBB111_2:                              # %func_exit
	.cfi_def_cfa %rbp, 16
	callq	detect_breach
	jmp	.LBB111_1
.Lfunc_end111:
	.size	ue_v.84, .Lfunc_end111-ue_v.84
	.cfi_endproc
                                        # -- End function
	.section	.rodata.cst8,"aM",@progbits,8
	.p2align	3               # -- Begin function levrun_linfo_inter.85
.LCPI112_0:
	.quad	4611686018427387904     # double 2
	.text
	.globl	levrun_linfo_inter.85
	.p2align	4, 0x90
	.type	levrun_linfo_inter.85,@function
levrun_linfo_inter.85:                  # @levrun_linfo_inter.85
	.cfi_startproc
# %bb.0:                                # %entry
	pushq	%rbp
	.cfi_def_cfa_offset 16
	.cfi_offset %rbp, -16
	movq	%rsp, %rbp
	.cfi_def_cfa_register %rbp
	pushq	%rbx
	subq	$104, %rsp
	.cfi_offset %rbx, -24
	movl	$862521451, -40(%rbp)   # imm = 0x3369086B
	movl	%edi, -28(%rbp)
	movl	%esi, -16(%rbp)
	movq	%rdx, -48(%rbp)
	movq	%rcx, -72(%rbp)
	movq	.L__const.levrun_linfo_inter.LEVRUN, %rax
	movq	%rax, -64(%rbp)
	movq	.L__const.levrun_linfo_inter.LEVRUN+8, %rax
	movq	%rax, -56(%rbp)
	leaq	-112(%rbp), %rdi
	movabsq	$.L__const.levrun_linfo_inter.NTAB, %rsi
	movl	$40, %edx
	callq	memcpy
	cmpl	$0, -28(%rbp)
	jne	.LBB112_2
# %bb.1:                                # %if.then
	movq	-48(%rbp), %rax
	movl	$1, (%rax)
	jmp	.LBB112_15
.LBB112_2:                              # %if.end
	cmpl	$0, -28(%rbp)
	jg	.LBB112_4
# %bb.3:                                # %if.then2
	movl	$1, -36(%rbp)
	jmp	.LBB112_5
.LBB112_4:                              # %if.else
	movl	$0, -36(%rbp)
.LBB112_5:                              # %if.end3
	movl	-28(%rbp), %edi
	callq	abs
	movl	%eax, -20(%rbp)
	movl	-20(%rbp), %eax
	movslq	-16(%rbp), %rcx
	movzbl	-64(%rbp,%rcx), %ecx
	cmpl	%ecx, %eax
	jg	.LBB112_7
# %bb.6:                                # %if.then6
	movl	-20(%rbp), %eax
	subl	$1, %eax
	cltq
	imulq	$10, %rax, %rax
	leaq	-112(%rbp), %rcx
	addq	%rax, %rcx
	movslq	-16(%rbp), %rax
	movzbl	(%rcx,%rax), %eax
	addl	$1, %eax
	movl	%eax, -32(%rbp)
	jmp	.LBB112_8
.LBB112_7:                              # %if.else12
	movl	-20(%rbp), %eax
	movslq	-16(%rbp), %rcx
	movzbl	-64(%rbp,%rcx), %ecx
	subl	%ecx, %eax
	shll	$5, %eax
	movl	-16(%rbp), %ecx
	shll	$1, %ecx
	addl	%ecx, %eax
	movl	%eax, -32(%rbp)
.LBB112_8:                              # %if.end19
	movl	-32(%rbp), %eax
	cltd
	movl	$2, %ecx
	idivl	%ecx
	movl	%eax, -24(%rbp)
	movl	$0, -12(%rbp)
.LBB112_9:                              # %for.cond
                                        # =>This Inner Loop Header: Depth=1
	xorl	%eax, %eax
	cmpl	$16, -12(%rbp)
	jge	.LBB112_11
# %bb.10:                               # %land.rhs
                                        #   in Loop: Header=BB112_9 Depth=1
	cmpl	$0, -24(%rbp)
	setne	%al
.LBB112_11:                             # %land.end
                                        #   in Loop: Header=BB112_9 Depth=1
	testb	$1, %al
	jne	.LBB112_12
	jmp	.LBB112_14
.LBB112_12:                             # %for.body
                                        #   in Loop: Header=BB112_9 Depth=1
	movl	-24(%rbp), %eax
	cltd
	movl	$2, %ecx
	idivl	%ecx
	movl	%eax, -24(%rbp)
# %bb.13:                               # %for.inc
                                        #   in Loop: Header=BB112_9 Depth=1
	movl	-12(%rbp), %eax
	addl	$1, %eax
	movl	%eax, -12(%rbp)
	jmp	.LBB112_9
.LBB112_14:                             # %for.end
	vmovsd	.LCPI112_0(%rip), %xmm0 # xmm0 = mem[0],zero
	movl	-12(%rbp), %eax
	shll	$1, %eax
	addl	$1, %eax
	movq	-48(%rbp), %rcx
	movl	%eax, (%rcx)
	movl	-32(%rbp), %ebx
	vcvtsi2sdl	-12(%rbp), %xmm0, %xmm1
	callq	pow
	vcvttsd2si	%xmm0, %eax
	subl	%eax, %ebx
	addl	-36(%rbp), %ebx
	movq	-72(%rbp), %rax
	movl	%ebx, (%rax)
.LBB112_15:                             # %return
	cmpl	$862521451, -40(%rbp)   # imm = 0x3369086B
	jne	.LBB112_17
.LBB112_16:
	addq	$104, %rsp
	popq	%rbx
	popq	%rbp
	.cfi_def_cfa %rsp, 8
	retq
.LBB112_17:                             # %func_exit
	.cfi_def_cfa %rbp, 16
	callq	detect_breach
	jmp	.LBB112_16
.Lfunc_end112:
	.size	levrun_linfo_inter.85, .Lfunc_end112-levrun_linfo_inter.85
	.cfi_endproc
                                        # -- End function
	.globl	cbp_linfo_inter.86      # -- Begin function cbp_linfo_inter.86
	.p2align	4, 0x90
	.type	cbp_linfo_inter.86,@function
cbp_linfo_inter.86:                     # @cbp_linfo_inter.86
	.cfi_startproc
# %bb.0:                                # %entry
	pushq	%rbp
	.cfi_def_cfa_offset 16
	.cfi_offset %rbp, -16
	movq	%rsp, %rbp
	.cfi_def_cfa_register %rbp
	subq	$32, %rsp
	xorl	%eax, %eax
	movl	$100418660, -12(%rbp)   # imm = 0x5FC4464
	movl	%edi, -4(%rbp)
	movl	%esi, -8(%rbp)
	movq	%rdx, -32(%rbp)
	movq	%rcx, -24(%rbp)
	movq	img, %rcx
	movl	72700(%rcx), %ecx
	cmpl	$0, %ecx
	movl	$1, %ecx
	cmovnel	%ecx, %eax
	cltq
	imulq	$96, %rax, %rax
	movabsq	$NCBP, %rcx
	addq	%rax, %rcx
	movslq	-4(%rbp), %rax
	movzbl	1(%rcx,%rax,2), %edi
	movl	-8(%rbp), %esi
	movq	-32(%rbp), %rdx
	movq	-24(%rbp), %rcx
	callq	ue_linfo
	cmpl	$100418660, -12(%rbp)   # imm = 0x5FC4464
	jne	.LBB113_2
.LBB113_1:
	addq	$32, %rsp
	popq	%rbp
	.cfi_def_cfa %rsp, 8
	retq
.LBB113_2:                              # %func_exit
	.cfi_def_cfa %rbp, 16
	callq	detect_breach
	jmp	.LBB113_1
.Lfunc_end113:
	.size	cbp_linfo_inter.86, .Lfunc_end113-cbp_linfo_inter.86
	.cfi_endproc
                                        # -- End function
	.globl	writeSyntaxElement_Run.87 # -- Begin function writeSyntaxElement_Run.87
	.p2align	4, 0x90
	.type	writeSyntaxElement_Run.87,@function
writeSyntaxElement_Run.87:              # @writeSyntaxElement_Run.87
	.cfi_startproc
# %bb.0:                                # %entry
	pushq	%rbp
	.cfi_def_cfa_offset 16
	.cfi_offset %rbp, -16
	movq	%rsp, %rbp
	.cfi_def_cfa_register %rbp
	pushq	%rbx
	subq	$24, %rsp
	.cfi_offset %rbx, -24
	movabsq	$writeSyntaxElement_Run.codtab, %rax
	movabsq	$writeSyntaxElement_Run.lentab, %rcx
	movl	$2126540456, -24(%rbp)  # imm = 0x7EC06EA8
	movq	%rdi, -16(%rbp)
	movq	%rsi, -32(%rbp)
	movq	-16(%rbp), %rdx
	movl	12(%rdx), %edx
	movl	%edx, -20(%rbp)
	movslq	-20(%rbp), %rdx
	shlq	$6, %rdx
	addq	%rdx, %rcx
	movq	-16(%rbp), %rdx
	movslq	4(%rdx), %rdx
	movl	(%rcx,%rdx,4), %ecx
	movq	-16(%rbp), %rdx
	movl	%ecx, 12(%rdx)
	movslq	-20(%rbp), %rcx
	shlq	$6, %rcx
	addq	%rcx, %rax
	movq	-16(%rbp), %rcx
	movslq	4(%rcx), %rcx
	movl	(%rax,%rcx,4), %eax
	movq	-16(%rbp), %rcx
	movl	%eax, 16(%rcx)
	movq	-16(%rbp), %rax
	cmpl	$0, 12(%rax)
	jne	.LBB114_2
# %bb.1:                                # %if.then
	movq	-16(%rbp), %rax
	movl	4(%rax), %esi
	movabsq	$.L.str.3, %rdi
	movb	$0, %al
	callq	printf
	movl	$4294967295, %edi       # imm = 0xFFFFFFFF
	callq	exit
.LBB114_2:                              # %if.end
	movq	-16(%rbp), %rdi
	callq	symbol2vlc
	movq	-16(%rbp), %rdi
	movq	-32(%rbp), %rax
	movq	(%rax), %rsi
	callq	writeUVLC2buffer
	movq	-16(%rbp), %rax
	movl	12(%rax), %ebx
	cmpl	$2126540456, -24(%rbp)  # imm = 0x7EC06EA8
	jne	.LBB114_4
.LBB114_3:
	movl	%ebx, %eax
	addq	$24, %rsp
	popq	%rbx
	popq	%rbp
	.cfi_def_cfa %rsp, 8
	retq
.LBB114_4:                              # %func_exit
	.cfi_def_cfa %rbp, 16
	callq	detect_breach
	jmp	.LBB114_3
.Lfunc_end114:
	.size	writeSyntaxElement_Run.87, .Lfunc_end114-writeSyntaxElement_Run.87
	.cfi_endproc
                                        # -- End function
	.globl	writeSyntaxElement_NumCoeffTrailingOnesChromaDC.88 # -- Begin function writeSyntaxElement_NumCoeffTrailingOnesChromaDC.88
	.p2align	4, 0x90
	.type	writeSyntaxElement_NumCoeffTrailingOnesChromaDC.88,@function
writeSyntaxElement_NumCoeffTrailingOnesChromaDC.88: # @writeSyntaxElement_NumCoeffTrailingOnesChromaDC.88
	.cfi_startproc
# %bb.0:                                # %entry
	pushq	%rbp
	.cfi_def_cfa_offset 16
	.cfi_offset %rbp, -16
	movq	%rsp, %rbp
	.cfi_def_cfa_register %rbp
	pushq	%rbx
	subq	$24, %rsp
	.cfi_offset %rbx, -24
	movabsq	$writeSyntaxElement_NumCoeffTrailingOnesChromaDC.codtab, %rax
	movabsq	$writeSyntaxElement_NumCoeffTrailingOnesChromaDC.lentab, %rcx
	movl	$846581468, -24(%rbp)   # imm = 0x3275CEDC
	movq	%rdi, -16(%rbp)
	movq	%rsi, -32(%rbp)
	movq	img, %rdx
	movl	72700(%rdx), %edx
	subl	$1, %edx
	movl	%edx, -20(%rbp)
	movslq	-20(%rbp), %rdx
	imulq	$272, %rdx, %rdx        # imm = 0x110
	addq	%rdx, %rcx
	movq	-16(%rbp), %rdx
	movslq	8(%rdx), %rdx
	imulq	$68, %rdx, %rdx
	addq	%rdx, %rcx
	movq	-16(%rbp), %rdx
	movslq	4(%rdx), %rdx
	movl	(%rcx,%rdx,4), %ecx
	movq	-16(%rbp), %rdx
	movl	%ecx, 12(%rdx)
	movslq	-20(%rbp), %rcx
	imulq	$272, %rcx, %rcx        # imm = 0x110
	addq	%rcx, %rax
	movq	-16(%rbp), %rcx
	movslq	8(%rcx), %rcx
	imulq	$68, %rcx, %rcx
	addq	%rcx, %rax
	movq	-16(%rbp), %rcx
	movslq	4(%rcx), %rcx
	movl	(%rax,%rcx,4), %eax
	movq	-16(%rbp), %rcx
	movl	%eax, 16(%rcx)
	movq	-16(%rbp), %rax
	cmpl	$0, 12(%rax)
	jne	.LBB115_2
# %bb.1:                                # %if.then
	movq	-16(%rbp), %rax
	movl	4(%rax), %esi
	movq	-16(%rbp), %rax
	movl	8(%rax), %edx
	movabsq	$.L.str.1, %rdi
	movb	$0, %al
	callq	printf
	movl	$4294967295, %edi       # imm = 0xFFFFFFFF
	callq	exit
.LBB115_2:                              # %if.end
	movq	-16(%rbp), %rdi
	callq	symbol2vlc
	movq	-16(%rbp), %rdi
	movq	-32(%rbp), %rax
	movq	(%rax), %rsi
	callq	writeUVLC2buffer
	movq	-16(%rbp), %rax
	movl	12(%rax), %ebx
	cmpl	$846581468, -24(%rbp)   # imm = 0x3275CEDC
	jne	.LBB115_4
.LBB115_3:
	movl	%ebx, %eax
	addq	$24, %rsp
	popq	%rbx
	popq	%rbp
	.cfi_def_cfa %rsp, 8
	retq
.LBB115_4:                              # %func_exit
	.cfi_def_cfa %rbp, 16
	callq	detect_breach
	jmp	.LBB115_3
.Lfunc_end115:
	.size	writeSyntaxElement_NumCoeffTrailingOnesChromaDC.88, .Lfunc_end115-writeSyntaxElement_NumCoeffTrailingOnesChromaDC.88
	.cfi_endproc
                                        # -- End function
	.globl	u_v.89                  # -- Begin function u_v.89
	.p2align	4, 0x90
	.type	u_v.89,@function
u_v.89:                                 # @u_v.89
	.cfi_startproc
# %bb.0:                                # %entry
	pushq	%rbp
	.cfi_def_cfa_offset 16
	.cfi_offset %rbp, -16
	movq	%rsp, %rbp
	.cfi_def_cfa_register %rbp
	pushq	%rbx
	subq	$88, %rsp
	.cfi_offset %rbx, -24
	movl	$1118031870, -28(%rbp)  # imm = 0x42A3CFFE
	movl	%edi, -24(%rbp)
	movq	%rsi, -48(%rbp)
	movl	%edx, -20(%rbp)
	movq	%rcx, -40(%rbp)
	leaq	-96(%rbp), %rax
	movq	%rax, -16(%rbp)
	movl	-20(%rbp), %eax
	movq	-16(%rbp), %rcx
	movl	%eax, 20(%rcx)
	movl	-24(%rbp), %eax
	movq	-16(%rbp), %rcx
	movl	%eax, 12(%rcx)
	movq	-16(%rbp), %rax
	movl	$0, (%rax)
	movl	-20(%rbp), %eax
	movq	-16(%rbp), %rcx
	movl	%eax, 4(%rcx)
	movq	-16(%rbp), %rax
	movl	$0, 8(%rax)
	movq	-16(%rbp), %rdi
	movq	-40(%rbp), %rsi
	callq	writeSyntaxElement_fixed
	movl	%eax, %ebx
	cmpl	$1118031870, -28(%rbp)  # imm = 0x42A3CFFE
	jne	.LBB116_2
.LBB116_1:
	movl	%ebx, %eax
	addq	$88, %rsp
	popq	%rbx
	popq	%rbp
	.cfi_def_cfa %rsp, 8
	retq
.LBB116_2:                              # %func_exit
	.cfi_def_cfa %rbp, 16
	callq	detect_breach
	jmp	.LBB116_1
.Lfunc_end116:
	.size	u_v.89, .Lfunc_end116-u_v.89
	.cfi_endproc
                                        # -- End function
	.globl	cbp_linfo_intra.90      # -- Begin function cbp_linfo_intra.90
	.p2align	4, 0x90
	.type	cbp_linfo_intra.90,@function
cbp_linfo_intra.90:                     # @cbp_linfo_intra.90
	.cfi_startproc
# %bb.0:                                # %entry
	pushq	%rbp
	.cfi_def_cfa_offset 16
	.cfi_offset %rbp, -16
	movq	%rsp, %rbp
	.cfi_def_cfa_register %rbp
	subq	$32, %rsp
	xorl	%eax, %eax
	movl	$53870362, -12(%rbp)    # imm = 0x335FF1A
	movl	%edi, -8(%rbp)
	movl	%esi, -4(%rbp)
	movq	%rdx, -24(%rbp)
	movq	%rcx, -32(%rbp)
	movq	img, %rcx
	movl	72700(%rcx), %ecx
	cmpl	$0, %ecx
	movl	$1, %ecx
	cmovnel	%ecx, %eax
	cltq
	imulq	$96, %rax, %rax
	movabsq	$NCBP, %rcx
	addq	%rax, %rcx
	movslq	-8(%rbp), %rax
	movzbl	(%rcx,%rax,2), %edi
	movl	-4(%rbp), %esi
	movq	-24(%rbp), %rdx
	movq	-32(%rbp), %rcx
	callq	ue_linfo
	cmpl	$53870362, -12(%rbp)    # imm = 0x335FF1A
	jne	.LBB117_2
.LBB117_1:
	addq	$32, %rsp
	popq	%rbp
	.cfi_def_cfa %rsp, 8
	retq
.LBB117_2:                              # %func_exit
	.cfi_def_cfa %rbp, 16
	callq	detect_breach
	jmp	.LBB117_1
.Lfunc_end117:
	.size	cbp_linfo_intra.90, .Lfunc_end117-cbp_linfo_intra.90
	.cfi_endproc
                                        # -- End function
	.globl	writeSyntaxElement_Intra4x4PredictionMode.91 # -- Begin function writeSyntaxElement_Intra4x4PredictionMode.91
	.p2align	4, 0x90
	.type	writeSyntaxElement_Intra4x4PredictionMode.91,@function
writeSyntaxElement_Intra4x4PredictionMode.91: # @writeSyntaxElement_Intra4x4PredictionMode.91
	.cfi_startproc
# %bb.0:                                # %entry
	pushq	%rbp
	.cfi_def_cfa_offset 16
	.cfi_offset %rbp, -16
	movq	%rsp, %rbp
	.cfi_def_cfa_register %rbp
	pushq	%rbx
	subq	$24, %rsp
	.cfi_offset %rbx, -24
	movl	$1346562087, -20(%rbp)  # imm = 0x5042E827
	movq	%rdi, -16(%rbp)
	movq	%rsi, -32(%rbp)
	movq	-16(%rbp), %rax
	cmpl	$-1, 4(%rax)
	jne	.LBB118_2
# %bb.1:                                # %if.then
	movq	-16(%rbp), %rax
	movl	$1, 12(%rax)
	movq	-16(%rbp), %rax
	movl	$1, 16(%rax)
	jmp	.LBB118_3
.LBB118_2:                              # %if.else
	movq	-16(%rbp), %rax
	movl	$4, 12(%rax)
	movq	-16(%rbp), %rax
	movl	4(%rax), %eax
	movq	-16(%rbp), %rcx
	movl	%eax, 16(%rcx)
.LBB118_3:                              # %if.end
	movq	-16(%rbp), %rax
	movl	16(%rax), %eax
	movq	-16(%rbp), %rcx
	movl	%eax, 20(%rcx)
	movq	-16(%rbp), %rdi
	movq	-32(%rbp), %rax
	movq	(%rax), %rsi
	callq	writeUVLC2buffer
	movq	-16(%rbp), %rax
	cmpl	$0, (%rax)
	je	.LBB118_5
# %bb.4:                                # %if.then6
	movq	-32(%rbp), %rax
	movq	(%rax), %rax
	movl	$1, 40(%rax)
.LBB118_5:                              # %if.end8
	movq	-16(%rbp), %rax
	movl	12(%rax), %ebx
	cmpl	$1346562087, -20(%rbp)  # imm = 0x5042E827
	jne	.LBB118_7
.LBB118_6:
	movl	%ebx, %eax
	addq	$24, %rsp
	popq	%rbx
	popq	%rbp
	.cfi_def_cfa %rsp, 8
	retq
.LBB118_7:                              # %func_exit
	.cfi_def_cfa %rbp, 16
	callq	detect_breach
	jmp	.LBB118_6
.Lfunc_end118:
	.size	writeSyntaxElement_Intra4x4PredictionMode.91, .Lfunc_end118-writeSyntaxElement_Intra4x4PredictionMode.91
	.cfi_endproc
                                        # -- End function
	.globl	writeSyntaxElement_NumCoeffTrailingOnesChromaDC.92 # -- Begin function writeSyntaxElement_NumCoeffTrailingOnesChromaDC.92
	.p2align	4, 0x90
	.type	writeSyntaxElement_NumCoeffTrailingOnesChromaDC.92,@function
writeSyntaxElement_NumCoeffTrailingOnesChromaDC.92: # @writeSyntaxElement_NumCoeffTrailingOnesChromaDC.92
	.cfi_startproc
# %bb.0:                                # %entry
	pushq	%rbp
	.cfi_def_cfa_offset 16
	.cfi_offset %rbp, -16
	movq	%rsp, %rbp
	.cfi_def_cfa_register %rbp
	pushq	%rbx
	subq	$24, %rsp
	.cfi_offset %rbx, -24
	movabsq	$writeSyntaxElement_NumCoeffTrailingOnesChromaDC.codtab, %rax
	movabsq	$writeSyntaxElement_NumCoeffTrailingOnesChromaDC.lentab, %rcx
	movl	$1018812418, -24(%rbp)  # imm = 0x3CB9D802
	movq	%rdi, -16(%rbp)
	movq	%rsi, -32(%rbp)
	movq	img, %rdx
	movl	72700(%rdx), %edx
	subl	$1, %edx
	movl	%edx, -20(%rbp)
	movslq	-20(%rbp), %rdx
	imulq	$272, %rdx, %rdx        # imm = 0x110
	addq	%rdx, %rcx
	movq	-16(%rbp), %rdx
	movslq	8(%rdx), %rdx
	imulq	$68, %rdx, %rdx
	addq	%rdx, %rcx
	movq	-16(%rbp), %rdx
	movslq	4(%rdx), %rdx
	movl	(%rcx,%rdx,4), %ecx
	movq	-16(%rbp), %rdx
	movl	%ecx, 12(%rdx)
	movslq	-20(%rbp), %rcx
	imulq	$272, %rcx, %rcx        # imm = 0x110
	addq	%rcx, %rax
	movq	-16(%rbp), %rcx
	movslq	8(%rcx), %rcx
	imulq	$68, %rcx, %rcx
	addq	%rcx, %rax
	movq	-16(%rbp), %rcx
	movslq	4(%rcx), %rcx
	movl	(%rax,%rcx,4), %eax
	movq	-16(%rbp), %rcx
	movl	%eax, 16(%rcx)
	movq	-16(%rbp), %rax
	cmpl	$0, 12(%rax)
	jne	.LBB119_2
# %bb.1:                                # %if.then
	movq	-16(%rbp), %rax
	movl	4(%rax), %esi
	movq	-16(%rbp), %rax
	movl	8(%rax), %edx
	movabsq	$.L.str.1, %rdi
	movb	$0, %al
	callq	printf
	movl	$4294967295, %edi       # imm = 0xFFFFFFFF
	callq	exit
.LBB119_2:                              # %if.end
	movq	-16(%rbp), %rdi
	callq	symbol2vlc
	movq	-16(%rbp), %rdi
	movq	-32(%rbp), %rax
	movq	(%rax), %rsi
	callq	writeUVLC2buffer
	movq	-16(%rbp), %rax
	movl	12(%rax), %ebx
	cmpl	$1018812418, -24(%rbp)  # imm = 0x3CB9D802
	jne	.LBB119_4
.LBB119_3:
	movl	%ebx, %eax
	addq	$24, %rsp
	popq	%rbx
	popq	%rbp
	.cfi_def_cfa %rsp, 8
	retq
.LBB119_4:                              # %func_exit
	.cfi_def_cfa %rbp, 16
	callq	detect_breach
	jmp	.LBB119_3
.Lfunc_end119:
	.size	writeSyntaxElement_NumCoeffTrailingOnesChromaDC.92, .Lfunc_end119-writeSyntaxElement_NumCoeffTrailingOnesChromaDC.92
	.cfi_endproc
                                        # -- End function
	.type	.L__const.levrun_linfo_c2x2.NTAB,@object # @__const.levrun_linfo_c2x2.NTAB
	.section	.rodata.cst16,"aM",@progbits,16
	.p2align	4
.L__const.levrun_linfo_c2x2.NTAB:
	.long	1                       # 0x1
	.long	5                       # 0x5
	.long	3                       # 0x3
	.long	0                       # 0x0
	.size	.L__const.levrun_linfo_c2x2.NTAB, 16

	.type	.L__const.levrun_linfo_c2x2.LEVRUN,@object # @__const.levrun_linfo_c2x2.LEVRUN
	.p2align	4
.L__const.levrun_linfo_c2x2.LEVRUN:
	.long	2                       # 0x2
	.long	1                       # 0x1
	.long	0                       # 0x0
	.long	0                       # 0x0
	.size	.L__const.levrun_linfo_c2x2.LEVRUN, 16

	.type	.L__const.levrun_linfo_inter.LEVRUN,@object # @__const.levrun_linfo_inter.LEVRUN
	.p2align	4
.L__const.levrun_linfo_inter.LEVRUN:
	.asciz	"\004\002\002\001\001\001\001\001\001\001\000\000\000\000\000"
	.size	.L__const.levrun_linfo_inter.LEVRUN, 16

	.type	.L__const.levrun_linfo_inter.NTAB,@object # @__const.levrun_linfo_inter.NTAB
	.section	.rodata,"a",@progbits
	.p2align	4
.L__const.levrun_linfo_inter.NTAB:
	.ascii	"\001\003\005\t\013\r\025\027\031\033"
	.asciz	"\007\021\023\000\000\000\000\000\000"
	.byte	15                      # 0xf
	.zero	9
	.byte	29                      # 0x1d
	.zero	9
	.size	.L__const.levrun_linfo_inter.NTAB, 40

	.type	.L__const.levrun_linfo_intra.LEVRUN,@object # @__const.levrun_linfo_intra.LEVRUN
	.section	.rodata.cst8,"aM",@progbits,8
.L__const.levrun_linfo_intra.LEVRUN:
	.asciz	"\t\003\001\001\001\000\000"
	.size	.L__const.levrun_linfo_intra.LEVRUN, 8

	.type	.L__const.levrun_linfo_intra.NTAB,@object # @__const.levrun_linfo_intra.NTAB
	.section	.rodata,"a",@progbits
	.p2align	4
.L__const.levrun_linfo_intra.NTAB:
	.ascii	"\001\003\007\017\021"
	.asciz	"\005\023\000\000"
	.asciz	"\t\025\000\000"
	.asciz	"\013\000\000\000"
	.asciz	"\r\000\000\000"
	.asciz	"\027\000\000\000"
	.asciz	"\031\000\000\000"
	.asciz	"\033\000\000\000"
	.asciz	"\035\000\000\000"
	.size	.L__const.levrun_linfo_intra.NTAB, 45

	.type	writeSyntaxElement_NumCoeffTrailingOnes.lentab,@object # @writeSyntaxElement_NumCoeffTrailingOnes.lentab
	.p2align	4
writeSyntaxElement_NumCoeffTrailingOnes.lentab:
	.long	1                       # 0x1
	.long	6                       # 0x6
	.long	8                       # 0x8
	.long	9                       # 0x9
	.long	10                      # 0xa
	.long	11                      # 0xb
	.long	13                      # 0xd
	.long	13                      # 0xd
	.long	13                      # 0xd
	.long	14                      # 0xe
	.long	14                      # 0xe
	.long	15                      # 0xf
	.long	15                      # 0xf
	.long	16                      # 0x10
	.long	16                      # 0x10
	.long	16                      # 0x10
	.long	16                      # 0x10
	.long	0                       # 0x0
	.long	2                       # 0x2
	.long	6                       # 0x6
	.long	8                       # 0x8
	.long	9                       # 0x9
	.long	10                      # 0xa
	.long	11                      # 0xb
	.long	13                      # 0xd
	.long	13                      # 0xd
	.long	14                      # 0xe
	.long	14                      # 0xe
	.long	15                      # 0xf
	.long	15                      # 0xf
	.long	15                      # 0xf
	.long	16                      # 0x10
	.long	16                      # 0x10
	.long	16                      # 0x10
	.long	0                       # 0x0
	.long	0                       # 0x0
	.long	3                       # 0x3
	.long	7                       # 0x7
	.long	8                       # 0x8
	.long	9                       # 0x9
	.long	10                      # 0xa
	.long	11                      # 0xb
	.long	13                      # 0xd
	.long	13                      # 0xd
	.long	14                      # 0xe
	.long	14                      # 0xe
	.long	15                      # 0xf
	.long	15                      # 0xf
	.long	16                      # 0x10
	.long	16                      # 0x10
	.long	16                      # 0x10
	.long	0                       # 0x0
	.long	0                       # 0x0
	.long	0                       # 0x0
	.long	5                       # 0x5
	.long	6                       # 0x6
	.long	7                       # 0x7
	.long	8                       # 0x8
	.long	9                       # 0x9
	.long	10                      # 0xa
	.long	11                      # 0xb
	.long	13                      # 0xd
	.long	14                      # 0xe
	.long	14                      # 0xe
	.long	15                      # 0xf
	.long	15                      # 0xf
	.long	16                      # 0x10
	.long	16                      # 0x10
	.long	2                       # 0x2
	.long	6                       # 0x6
	.long	6                       # 0x6
	.long	7                       # 0x7
	.long	8                       # 0x8
	.long	8                       # 0x8
	.long	9                       # 0x9
	.long	11                      # 0xb
	.long	11                      # 0xb
	.long	12                      # 0xc
	.long	12                      # 0xc
	.long	12                      # 0xc
	.long	13                      # 0xd
	.long	13                      # 0xd
	.long	13                      # 0xd
	.long	14                      # 0xe
	.long	14                      # 0xe
	.long	0                       # 0x0
	.long	2                       # 0x2
	.long	5                       # 0x5
	.long	6                       # 0x6
	.long	6                       # 0x6
	.long	7                       # 0x7
