	.text
	.file	"weighted_prediction.c"
	.globl	estimate_weighting_factor_P_slice # -- Begin function estimate_weighting_factor_P_slice
	.p2align	4, 0x90
	.type	estimate_weighting_factor_P_slice,@function
estimate_weighting_factor_P_slice:      # @estimate_weighting_factor_P_slice
	.cfi_startproc
# %bb.0:                                # %rand_bb
	pushq	%rbp
	.cfi_def_cfa_offset 16
	.cfi_offset %rbp, -16
	movq	%rsp, %rbp
	.cfi_def_cfa_register %rbp
	pushq	%rbx
	pushq	%rax
	.cfi_offset %rbx, -24
	movl	%edi, %ebx
	callq	get_urand
	cmpl	$0, %eax
	jne	.LBB0_17
# %bb.1:                                # %func_estimate_weighting_factor_P_slice.1
	movl	%ebx, %edi
	callq	estimate_weighting_factor_P_slice.1
	addq	$8, %rsp
	popq	%rbx
	popq	%rbp
	.cfi_def_cfa %rsp, 8
	retq
.LBB0_2:                                # %func_estimate_weighting_factor_P_slice.2
	.cfi_def_cfa %rbp, 16
	movl	%ebx, %edi
	callq	estimate_weighting_factor_P_slice.2
	addq	$8, %rsp
	popq	%rbx
	popq	%rbp
	.cfi_def_cfa %rsp, 8
	retq
.LBB0_3:                                # %func_estimate_weighting_factor_P_slice.10
	.cfi_def_cfa %rbp, 16
	movl	%ebx, %edi
	callq	estimate_weighting_factor_P_slice.10
	addq	$8, %rsp
	popq	%rbx
	popq	%rbp
	.cfi_def_cfa %rsp, 8
	retq
.LBB0_4:                                # %func_estimate_weighting_factor_P_slice.11
	.cfi_def_cfa %rbp, 16
	movl	%ebx, %edi
	callq	estimate_weighting_factor_P_slice.11
	addq	$8, %rsp
	popq	%rbx
	popq	%rbp
	.cfi_def_cfa %rsp, 8
	retq
.LBB0_5:                                # %func_estimate_weighting_factor_P_slice.17
	.cfi_def_cfa %rbp, 16
	movl	%ebx, %edi
	callq	estimate_weighting_factor_P_slice.17
	addq	$8, %rsp
	popq	%rbx
	popq	%rbp
	.cfi_def_cfa %rsp, 8
	retq
.LBB0_6:                                # %func_estimate_weighting_factor_P_slice.20
	.cfi_def_cfa %rbp, 16
	movl	%ebx, %edi
	callq	estimate_weighting_factor_P_slice.20
	addq	$8, %rsp
	popq	%rbx
	popq	%rbp
	.cfi_def_cfa %rsp, 8
	retq
.LBB0_7:                                # %func_estimate_weighting_factor_P_slice.22
	.cfi_def_cfa %rbp, 16
	movl	%ebx, %edi
	callq	estimate_weighting_factor_P_slice.22
	addq	$8, %rsp
	popq	%rbx
	popq	%rbp
	.cfi_def_cfa %rsp, 8
	retq
.LBB0_8:                                # %func_estimate_weighting_factor_P_slice.32
	.cfi_def_cfa %rbp, 16
	movl	%ebx, %edi
	callq	estimate_weighting_factor_P_slice.32
	addq	$8, %rsp
	popq	%rbx
	popq	%rbp
	.cfi_def_cfa %rsp, 8
	retq
.LBB0_9:                                # %func_estimate_weighting_factor_P_slice.37
	.cfi_def_cfa %rbp, 16
	movl	%ebx, %edi
	callq	estimate_weighting_factor_P_slice.37
	addq	$8, %rsp
	popq	%rbx
	popq	%rbp
	.cfi_def_cfa %rsp, 8
	retq
.LBB0_10:                               # %func_estimate_weighting_factor_P_slice.46
	.cfi_def_cfa %rbp, 16
	movl	%ebx, %edi
	callq	estimate_weighting_factor_P_slice.46
	addq	$8, %rsp
	popq	%rbx
	popq	%rbp
	.cfi_def_cfa %rsp, 8
	retq
.LBB0_11:                               # %func_estimate_weighting_factor_P_slice.52
	.cfi_def_cfa %rbp, 16
	movl	%ebx, %edi
	callq	estimate_weighting_factor_P_slice.52
	addq	$8, %rsp
	popq	%rbx
	popq	%rbp
	.cfi_def_cfa %rsp, 8
	retq
.LBB0_12:                               # %func_estimate_weighting_factor_P_slice.53
	.cfi_def_cfa %rbp, 16
	movl	%ebx, %edi
	callq	estimate_weighting_factor_P_slice.53
	addq	$8, %rsp
	popq	%rbx
	popq	%rbp
	.cfi_def_cfa %rsp, 8
	retq
.LBB0_13:                               # %func_estimate_weighting_factor_P_slice.60
	.cfi_def_cfa %rbp, 16
	movl	%ebx, %edi
	callq	estimate_weighting_factor_P_slice.60
	addq	$8, %rsp
	popq	%rbx
	popq	%rbp
	.cfi_def_cfa %rsp, 8
	retq
.LBB0_14:                               # %func_estimate_weighting_factor_P_slice.61
	.cfi_def_cfa %rbp, 16
	movl	%ebx, %edi
	callq	estimate_weighting_factor_P_slice.61
	addq	$8, %rsp
	popq	%rbx
	popq	%rbp
	.cfi_def_cfa %rsp, 8
	retq
.LBB0_15:                               # %func_estimate_weighting_factor_P_slice.62
	.cfi_def_cfa %rbp, 16
	movl	%ebx, %edi
	callq	estimate_weighting_factor_P_slice.62
	addq	$8, %rsp
	popq	%rbx
	popq	%rbp
	.cfi_def_cfa %rsp, 8
	retq
.LBB0_16:                               # %func_estimate_weighting_factor_P_slice.64
	.cfi_def_cfa %rbp, 16
	movl	%ebx, %edi
	callq	estimate_weighting_factor_P_slice.64
	addq	$8, %rsp
	popq	%rbx
	popq	%rbp
	.cfi_def_cfa %rsp, 8
	retq
.LBB0_17:                               # %ctrl0
	.cfi_def_cfa %rbp, 16
	cmpl	$1, %eax
	je	.LBB0_2
# %bb.18:                               # %ctrl1
	cmpl	$2, %eax
	je	.LBB0_3
# %bb.19:                               # %ctrl2
	cmpl	$3, %eax
	je	.LBB0_4
# %bb.20:                               # %ctrl3
	cmpl	$4, %eax
	je	.LBB0_5
# %bb.21:                               # %ctrl4
	cmpl	$5, %eax
	je	.LBB0_6
# %bb.22:                               # %ctrl5
	cmpl	$6, %eax
	je	.LBB0_7
# %bb.23:                               # %ctrl6
	cmpl	$7, %eax
	je	.LBB0_8
# %bb.24:                               # %ctrl7
	cmpl	$8, %eax
	je	.LBB0_9
# %bb.25:                               # %ctrl8
	cmpl	$9, %eax
	je	.LBB0_10
# %bb.26:                               # %ctrl9
	cmpl	$10, %eax
	je	.LBB0_11
# %bb.27:                               # %ctrl10
	cmpl	$11, %eax
	je	.LBB0_12
# %bb.28:                               # %ctrl11
	cmpl	$12, %eax
	je	.LBB0_13
# %bb.29:                               # %ctrl12
	cmpl	$13, %eax
	je	.LBB0_14
# %bb.30:                               # %ctrl13
	cmpl	$14, %eax
	je	.LBB0_15
	jmp	.LBB0_16
.Lfunc_end0:
	.size	estimate_weighting_factor_P_slice, .Lfunc_end0-estimate_weighting_factor_P_slice
	.cfi_endproc
                                        # -- End function
	.globl	estimate_weighting_factor_B_slice # -- Begin function estimate_weighting_factor_B_slice
	.p2align	4, 0x90
	.type	estimate_weighting_factor_B_slice,@function
estimate_weighting_factor_B_slice:      # @estimate_weighting_factor_B_slice
	.cfi_startproc
# %bb.0:                                # %rand_bb
	pushq	%rbp
	.cfi_def_cfa_offset 16
	.cfi_offset %rbp, -16
	movq	%rsp, %rbp
	.cfi_def_cfa_register %rbp
	callq	get_urand
	cmpl	$0, %eax
	jne	.LBB1_17
# %bb.1:                                # %func_estimate_weighting_factor_B_slice.9
	callq	estimate_weighting_factor_B_slice.9
	popq	%rbp
	.cfi_def_cfa %rsp, 8
	retq
.LBB1_2:                                # %func_estimate_weighting_factor_B_slice.12
	.cfi_def_cfa %rbp, 16
	callq	estimate_weighting_factor_B_slice.12
	popq	%rbp
	.cfi_def_cfa %rsp, 8
	retq
.LBB1_3:                                # %func_estimate_weighting_factor_B_slice.14
	.cfi_def_cfa %rbp, 16
	callq	estimate_weighting_factor_B_slice.14
	popq	%rbp
	.cfi_def_cfa %rsp, 8
	retq
.LBB1_4:                                # %func_estimate_weighting_factor_B_slice.16
	.cfi_def_cfa %rbp, 16
	callq	estimate_weighting_factor_B_slice.16
	popq	%rbp
	.cfi_def_cfa %rsp, 8
	retq
.LBB1_5:                                # %func_estimate_weighting_factor_B_slice.19
	.cfi_def_cfa %rbp, 16
	callq	estimate_weighting_factor_B_slice.19
	popq	%rbp
	.cfi_def_cfa %rsp, 8
	retq
.LBB1_6:                                # %func_estimate_weighting_factor_B_slice.23
	.cfi_def_cfa %rbp, 16
	callq	estimate_weighting_factor_B_slice.23
	popq	%rbp
	.cfi_def_cfa %rsp, 8
	retq
.LBB1_7:                                # %func_estimate_weighting_factor_B_slice.25
	.cfi_def_cfa %rbp, 16
	callq	estimate_weighting_factor_B_slice.25
	popq	%rbp
	.cfi_def_cfa %rsp, 8
	retq
.LBB1_8:                                # %func_estimate_weighting_factor_B_slice.26
	.cfi_def_cfa %rbp, 16
	callq	estimate_weighting_factor_B_slice.26
	popq	%rbp
	.cfi_def_cfa %rsp, 8
	retq
.LBB1_9:                                # %func_estimate_weighting_factor_B_slice.36
	.cfi_def_cfa %rbp, 16
	callq	estimate_weighting_factor_B_slice.36
	popq	%rbp
	.cfi_def_cfa %rsp, 8
	retq
.LBB1_10:                               # %func_estimate_weighting_factor_B_slice.39
	.cfi_def_cfa %rbp, 16
	callq	estimate_weighting_factor_B_slice.39
	popq	%rbp
	.cfi_def_cfa %rsp, 8
	retq
.LBB1_11:                               # %func_estimate_weighting_factor_B_slice.42
	.cfi_def_cfa %rbp, 16
	callq	estimate_weighting_factor_B_slice.42
	popq	%rbp
	.cfi_def_cfa %rsp, 8
	retq
.LBB1_12:                               # %func_estimate_weighting_factor_B_slice.44
	.cfi_def_cfa %rbp, 16
	callq	estimate_weighting_factor_B_slice.44
	popq	%rbp
	.cfi_def_cfa %rsp, 8
	retq
.LBB1_13:                               # %func_estimate_weighting_factor_B_slice.51
	.cfi_def_cfa %rbp, 16
	callq	estimate_weighting_factor_B_slice.51
	popq	%rbp
	.cfi_def_cfa %rsp, 8
	retq
.LBB1_14:                               # %func_estimate_weighting_factor_B_slice.57
	.cfi_def_cfa %rbp, 16
	callq	estimate_weighting_factor_B_slice.57
	popq	%rbp
	.cfi_def_cfa %rsp, 8
	retq
.LBB1_15:                               # %func_estimate_weighting_factor_B_slice.59
	.cfi_def_cfa %rbp, 16
	callq	estimate_weighting_factor_B_slice.59
	popq	%rbp
	.cfi_def_cfa %rsp, 8
	retq
.LBB1_16:                               # %func_estimate_weighting_factor_B_slice.63
	.cfi_def_cfa %rbp, 16
	callq	estimate_weighting_factor_B_slice.63
	popq	%rbp
	.cfi_def_cfa %rsp, 8
	retq
.LBB1_17:                               # %ctrl0
	.cfi_def_cfa %rbp, 16
	cmpl	$1, %eax
	je	.LBB1_2
# %bb.18:                               # %ctrl1
	cmpl	$2, %eax
	je	.LBB1_3
# %bb.19:                               # %ctrl2
	cmpl	$3, %eax
	je	.LBB1_4
# %bb.20:                               # %ctrl3
	cmpl	$4, %eax
	je	.LBB1_5
# %bb.21:                               # %ctrl4
	cmpl	$5, %eax
	je	.LBB1_6
# %bb.22:                               # %ctrl5
	cmpl	$6, %eax
	je	.LBB1_7
# %bb.23:                               # %ctrl6
	cmpl	$7, %eax
	je	.LBB1_8
# %bb.24:                               # %ctrl7
	cmpl	$8, %eax
	je	.LBB1_9
# %bb.25:                               # %ctrl8
	cmpl	$9, %eax
	je	.LBB1_10
# %bb.26:                               # %ctrl9
	cmpl	$10, %eax
	je	.LBB1_11
# %bb.27:                               # %ctrl10
	cmpl	$11, %eax
	je	.LBB1_12
# %bb.28:                               # %ctrl11
	cmpl	$12, %eax
	je	.LBB1_13
# %bb.29:                               # %ctrl12
	cmpl	$13, %eax
	je	.LBB1_14
# %bb.30:                               # %ctrl13
	cmpl	$14, %eax
	je	.LBB1_15
	jmp	.LBB1_16
.Lfunc_end1:
	.size	estimate_weighting_factor_B_slice, .Lfunc_end1-estimate_weighting_factor_B_slice
	.cfi_endproc
                                        # -- End function
	.globl	test_wp_P_slice         # -- Begin function test_wp_P_slice
	.p2align	4, 0x90
	.type	test_wp_P_slice,@function
test_wp_P_slice:                        # @test_wp_P_slice
	.cfi_startproc
# %bb.0:                                # %rand_bb
	pushq	%rbp
	.cfi_def_cfa_offset 16
	.cfi_offset %rbp, -16
	movq	%rsp, %rbp
	.cfi_def_cfa_register %rbp
	pushq	%rbx
	pushq	%rax
	.cfi_offset %rbx, -24
	movl	%edi, %ebx
	callq	get_urand
	cmpl	$0, %eax
	jne	.LBB2_17
# %bb.1:                                # %func_test_wp_P_slice.4
	movl	%ebx, %edi
	callq	test_wp_P_slice.4
	addq	$8, %rsp
	popq	%rbx
	popq	%rbp
	.cfi_def_cfa %rsp, 8
	retq
.LBB2_2:                                # %func_test_wp_P_slice.6
	.cfi_def_cfa %rbp, 16
	movl	%ebx, %edi
	callq	test_wp_P_slice.6
	addq	$8, %rsp
	popq	%rbx
	popq	%rbp
	.cfi_def_cfa %rsp, 8
	retq
.LBB2_3:                                # %func_test_wp_P_slice.15
	.cfi_def_cfa %rbp, 16
	movl	%ebx, %edi
	callq	test_wp_P_slice.15
	addq	$8, %rsp
	popq	%rbx
	popq	%rbp
	.cfi_def_cfa %rsp, 8
	retq
.LBB2_4:                                # %func_test_wp_P_slice.18
	.cfi_def_cfa %rbp, 16
	movl	%ebx, %edi
	callq	test_wp_P_slice.18
	addq	$8, %rsp
	popq	%rbx
	popq	%rbp
	.cfi_def_cfa %rsp, 8
	retq
.LBB2_5:                                # %func_test_wp_P_slice.24
	.cfi_def_cfa %rbp, 16
	movl	%ebx, %edi
	callq	test_wp_P_slice.24
	addq	$8, %rsp
	popq	%rbx
	popq	%rbp
	.cfi_def_cfa %rsp, 8
	retq
.LBB2_6:                                # %func_test_wp_P_slice.27
	.cfi_def_cfa %rbp, 16
	movl	%ebx, %edi
	callq	test_wp_P_slice.27
	addq	$8, %rsp
	popq	%rbx
	popq	%rbp
	.cfi_def_cfa %rsp, 8
	retq
.LBB2_7:                                # %func_test_wp_P_slice.28
	.cfi_def_cfa %rbp, 16
	movl	%ebx, %edi
	callq	test_wp_P_slice.28
	addq	$8, %rsp
	popq	%rbx
	popq	%rbp
	.cfi_def_cfa %rsp, 8
	retq
.LBB2_8:                                # %func_test_wp_P_slice.30
	.cfi_def_cfa %rbp, 16
	movl	%ebx, %edi
	callq	test_wp_P_slice.30
	addq	$8, %rsp
	popq	%rbx
	popq	%rbp
	.cfi_def_cfa %rsp, 8
	retq
.LBB2_9:                                # %func_test_wp_P_slice.31
	.cfi_def_cfa %rbp, 16
	movl	%ebx, %edi
	callq	test_wp_P_slice.31
	addq	$8, %rsp
	popq	%rbx
	popq	%rbp
	.cfi_def_cfa %rsp, 8
	retq
.LBB2_10:                               # %func_test_wp_P_slice.33
	.cfi_def_cfa %rbp, 16
	movl	%ebx, %edi
	callq	test_wp_P_slice.33
	addq	$8, %rsp
	popq	%rbx
	popq	%rbp
	.cfi_def_cfa %rsp, 8
	retq
.LBB2_11:                               # %func_test_wp_P_slice.34
	.cfi_def_cfa %rbp, 16
	movl	%ebx, %edi
	callq	test_wp_P_slice.34
	addq	$8, %rsp
	popq	%rbx
	popq	%rbp
	.cfi_def_cfa %rsp, 8
	retq
.LBB2_12:                               # %func_test_wp_P_slice.35
	.cfi_def_cfa %rbp, 16
	movl	%ebx, %edi
	callq	test_wp_P_slice.35
	addq	$8, %rsp
	popq	%rbx
	popq	%rbp
	.cfi_def_cfa %rsp, 8
	retq
.LBB2_13:                               # %func_test_wp_P_slice.38
	.cfi_def_cfa %rbp, 16
	movl	%ebx, %edi
	callq	test_wp_P_slice.38
	addq	$8, %rsp
	popq	%rbx
	popq	%rbp
	.cfi_def_cfa %rsp, 8
	retq
.LBB2_14:                               # %func_test_wp_P_slice.40
	.cfi_def_cfa %rbp, 16
	movl	%ebx, %edi
	callq	test_wp_P_slice.40
	addq	$8, %rsp
	popq	%rbx
	popq	%rbp
	.cfi_def_cfa %rsp, 8
	retq
.LBB2_15:                               # %func_test_wp_P_slice.41
	.cfi_def_cfa %rbp, 16
	movl	%ebx, %edi
	callq	test_wp_P_slice.41
	addq	$8, %rsp
	popq	%rbx
	popq	%rbp
	.cfi_def_cfa %rsp, 8
	retq
.LBB2_16:                               # %func_test_wp_P_slice.45
	.cfi_def_cfa %rbp, 16
	movl	%ebx, %edi
	callq	test_wp_P_slice.45
	addq	$8, %rsp
	popq	%rbx
	popq	%rbp
	.cfi_def_cfa %rsp, 8
	retq
.LBB2_17:                               # %ctrl0
	.cfi_def_cfa %rbp, 16
	cmpl	$1, %eax
	je	.LBB2_2
# %bb.18:                               # %ctrl1
	cmpl	$2, %eax
	je	.LBB2_3
# %bb.19:                               # %ctrl2
	cmpl	$3, %eax
	je	.LBB2_4
# %bb.20:                               # %ctrl3
	cmpl	$4, %eax
	je	.LBB2_5
# %bb.21:                               # %ctrl4
	cmpl	$5, %eax
	je	.LBB2_6
# %bb.22:                               # %ctrl5
	cmpl	$6, %eax
	je	.LBB2_7
# %bb.23:                               # %ctrl6
	cmpl	$7, %eax
	je	.LBB2_8
# %bb.24:                               # %ctrl7
	cmpl	$8, %eax
	je	.LBB2_9
# %bb.25:                               # %ctrl8
	cmpl	$9, %eax
	je	.LBB2_10
# %bb.26:                               # %ctrl9
	cmpl	$10, %eax
	je	.LBB2_11
# %bb.27:                               # %ctrl10
	cmpl	$11, %eax
	je	.LBB2_12
# %bb.28:                               # %ctrl11
	cmpl	$12, %eax
	je	.LBB2_13
# %bb.29:                               # %ctrl12
	cmpl	$13, %eax
	je	.LBB2_14
# %bb.30:                               # %ctrl13
	cmpl	$14, %eax
	je	.LBB2_15
	jmp	.LBB2_16
.Lfunc_end2:
	.size	test_wp_P_slice, .Lfunc_end2-test_wp_P_slice
	.cfi_endproc
                                        # -- End function
	.globl	test_wp_B_slice         # -- Begin function test_wp_B_slice
	.p2align	4, 0x90
	.type	test_wp_B_slice,@function
test_wp_B_slice:                        # @test_wp_B_slice
	.cfi_startproc
# %bb.0:                                # %rand_bb
	pushq	%rbp
	.cfi_def_cfa_offset 16
	.cfi_offset %rbp, -16
	movq	%rsp, %rbp
	.cfi_def_cfa_register %rbp
	pushq	%rbx
	pushq	%rax
	.cfi_offset %rbx, -24
	movl	%edi, %ebx
	callq	get_urand
	cmpl	$0, %eax
	jne	.LBB3_17
# %bb.1:                                # %func_test_wp_B_slice.3
	movl	%ebx, %edi
	callq	test_wp_B_slice.3
	addq	$8, %rsp
	popq	%rbx
	popq	%rbp
	.cfi_def_cfa %rsp, 8
	retq
.LBB3_2:                                # %func_test_wp_B_slice.5
	.cfi_def_cfa %rbp, 16
	movl	%ebx, %edi
	callq	test_wp_B_slice.5
	addq	$8, %rsp
	popq	%rbx
	popq	%rbp
	.cfi_def_cfa %rsp, 8
	retq
.LBB3_3:                                # %func_test_wp_B_slice.7
	.cfi_def_cfa %rbp, 16
	movl	%ebx, %edi
	callq	test_wp_B_slice.7
	addq	$8, %rsp
	popq	%rbx
	popq	%rbp
	.cfi_def_cfa %rsp, 8
	retq
.LBB3_4:                                # %func_test_wp_B_slice.8
	.cfi_def_cfa %rbp, 16
	movl	%ebx, %edi
	callq	test_wp_B_slice.8
	addq	$8, %rsp
	popq	%rbx
	popq	%rbp
	.cfi_def_cfa %rsp, 8
	retq
.LBB3_5:                                # %func_test_wp_B_slice.13
	.cfi_def_cfa %rbp, 16
	movl	%ebx, %edi
	callq	test_wp_B_slice.13
	addq	$8, %rsp
	popq	%rbx
	popq	%rbp
	.cfi_def_cfa %rsp, 8
	retq
.LBB3_6:                                # %func_test_wp_B_slice.21
	.cfi_def_cfa %rbp, 16
	movl	%ebx, %edi
	callq	test_wp_B_slice.21
	addq	$8, %rsp
	popq	%rbx
	popq	%rbp
	.cfi_def_cfa %rsp, 8
	retq
.LBB3_7:                                # %func_test_wp_B_slice.29
	.cfi_def_cfa %rbp, 16
	movl	%ebx, %edi
	callq	test_wp_B_slice.29
	addq	$8, %rsp
	popq	%rbx
	popq	%rbp
	.cfi_def_cfa %rsp, 8
	retq
.LBB3_8:                                # %func_test_wp_B_slice.43
	.cfi_def_cfa %rbp, 16
	movl	%ebx, %edi
	callq	test_wp_B_slice.43
	addq	$8, %rsp
	popq	%rbx
	popq	%rbp
	.cfi_def_cfa %rsp, 8
	retq
.LBB3_9:                                # %func_test_wp_B_slice.47
	.cfi_def_cfa %rbp, 16
	movl	%ebx, %edi
	callq	test_wp_B_slice.47
	addq	$8, %rsp
	popq	%rbx
	popq	%rbp
	.cfi_def_cfa %rsp, 8
	retq
.LBB3_10:                               # %func_test_wp_B_slice.48
	.cfi_def_cfa %rbp, 16
	movl	%ebx, %edi
	callq	test_wp_B_slice.48
	addq	$8, %rsp
	popq	%rbx
	popq	%rbp
	.cfi_def_cfa %rsp, 8
	retq
.LBB3_11:                               # %func_test_wp_B_slice.49
	.cfi_def_cfa %rbp, 16
	movl	%ebx, %edi
	callq	test_wp_B_slice.49
	addq	$8, %rsp
	popq	%rbx
	popq	%rbp
	.cfi_def_cfa %rsp, 8
	retq
.LBB3_12:                               # %func_test_wp_B_slice.50
	.cfi_def_cfa %rbp, 16
	movl	%ebx, %edi
	callq	test_wp_B_slice.50
	addq	$8, %rsp
	popq	%rbx
	popq	%rbp
	.cfi_def_cfa %rsp, 8
	retq
.LBB3_13:                               # %func_test_wp_B_slice.54
	.cfi_def_cfa %rbp, 16
	movl	%ebx, %edi
	callq	test_wp_B_slice.54
	addq	$8, %rsp
	popq	%rbx
	popq	%rbp
	.cfi_def_cfa %rsp, 8
	retq
.LBB3_14:                               # %func_test_wp_B_slice.55
	.cfi_def_cfa %rbp, 16
	movl	%ebx, %edi
	callq	test_wp_B_slice.55
	addq	$8, %rsp
	popq	%rbx
	popq	%rbp
	.cfi_def_cfa %rsp, 8
	retq
.LBB3_15:                               # %func_test_wp_B_slice.56
	.cfi_def_cfa %rbp, 16
	movl	%ebx, %edi
	callq	test_wp_B_slice.56
	addq	$8, %rsp
	popq	%rbx
	popq	%rbp
	.cfi_def_cfa %rsp, 8
	retq
.LBB3_16:                               # %func_test_wp_B_slice.58
	.cfi_def_cfa %rbp, 16
	movl	%ebx, %edi
	callq	test_wp_B_slice.58
	addq	$8, %rsp
	popq	%rbx
	popq	%rbp
	.cfi_def_cfa %rsp, 8
	retq
.LBB3_17:                               # %ctrl0
	.cfi_def_cfa %rbp, 16
	cmpl	$1, %eax
	je	.LBB3_2
# %bb.18:                               # %ctrl1
	cmpl	$2, %eax
	je	.LBB3_3
# %bb.19:                               # %ctrl2
	cmpl	$3, %eax
	je	.LBB3_4
# %bb.20:                               # %ctrl3
	cmpl	$4, %eax
	je	.LBB3_5
# %bb.21:                               # %ctrl4
	cmpl	$5, %eax
	je	.LBB3_6
# %bb.22:                               # %ctrl5
	cmpl	$6, %eax
	je	.LBB3_7
# %bb.23:                               # %ctrl6
	cmpl	$7, %eax
	je	.LBB3_8
# %bb.24:                               # %ctrl7
	cmpl	$8, %eax
	je	.LBB3_9
# %bb.25:                               # %ctrl8
	cmpl	$9, %eax
	je	.LBB3_10
# %bb.26:                               # %ctrl9
	cmpl	$10, %eax
	je	.LBB3_11
# %bb.27:                               # %ctrl10
	cmpl	$11, %eax
	je	.LBB3_12
# %bb.28:                               # %ctrl11
	cmpl	$12, %eax
	je	.LBB3_13
# %bb.29:                               # %ctrl12
	cmpl	$13, %eax
	je	.LBB3_14
# %bb.30:                               # %ctrl13
	cmpl	$14, %eax
	je	.LBB3_15
	jmp	.LBB3_16
.Lfunc_end3:
	.size	test_wp_B_slice, .Lfunc_end3-test_wp_B_slice
	.cfi_endproc
                                        # -- End function
	.section	.rodata.cst8,"aM",@progbits,8
	.p2align	3               # -- Begin function estimate_weighting_factor_P_slice.1
.LCPI4_0:
	.quad	4602678819172646912     # double 0.5
	.text
	.globl	estimate_weighting_factor_P_slice.1
	.p2align	4, 0x90
	.type	estimate_weighting_factor_P_slice.1,@function
estimate_weighting_factor_P_slice.1:    # @estimate_weighting_factor_P_slice.1
	.cfi_startproc
# %bb.0:                                # %entry
	pushq	%rbp
	.cfi_def_cfa_offset 16
	.cfi_offset %rbp, -16
	movq	%rsp, %rbp
	.cfi_def_cfa_register %rbp
	subq	$928, %rsp              # imm = 0x3A0
	movl	$918926072, -64(%rbp)   # imm = 0x36C5B2F8
	movl	%edi, -60(%rbp)
	vxorps	%xmm0, %xmm0, %xmm0
	vmovsd	%xmm0, -56(%rbp)
	movq	img, %rax
	cmpl	$0, 72400(%rax)
	je	.LBB4_3
# %bb.1:                                # %land.lhs.true
	movq	img, %rax
	movq	14168(%rax), %rax
	movq	img, %rcx
	movslq	12(%rcx), %rcx
	imulq	$632, %rcx, %rcx        # imm = 0x278
	addq	%rcx, %rax
	cmpl	$0, 532(%rax)
	je	.LBB4_3
# %bb.2:                                # %cond.true
	movq	img, %rax
	movl	12(%rax), %eax
	cltd
	movl	$2, %ecx
	idivl	%ecx
	cmpl	$0, %edx
	movl	$4, %eax
	cmovnel	%eax, %ecx
	jmp	.LBB4_4
.LBB4_3:                                # %cond.false
	xorl	%ecx, %ecx
	jmp	.LBB4_4
.LBB4_4:                                # %cond.end
	movl	%ecx, -28(%rbp)
	movl	$5, luma_log_weight_denom
	movl	$5, chroma_log_weight_denom
	movl	luma_log_weight_denom, %ecx
	subl	$1, %ecx
                                        # kill: def $cl killed $ecx
	movl	$1, %eax
	movl	$1, %edx
	shll	%cl, %edx
	movl	%edx, wp_luma_round
	movl	chroma_log_weight_denom, %ecx
	subl	$1, %ecx
                                        # kill: def $cl killed $ecx
	movl	$1, %edx
	shll	%cl, %edx
	movl	%edx, wp_chroma_round
	movl	luma_log_weight_denom, %ecx
                                        # kill: def $cl killed $ecx
	movl	$1, %edx
	shll	%cl, %edx
	movl	%edx, -40(%rbp)
	movl	chroma_log_weight_denom, %ecx
                                        # kill: def $cl killed $ecx
	shll	%cl, %eax
	movl	%eax, -32(%rbp)
	movl	%eax, -36(%rbp)
	movl	$0, -12(%rbp)
.LBB4_5:                                # %for.cond
                                        # =>This Loop Header: Depth=1
                                        #     Child Loop BB4_7 Depth 2
                                        #       Child Loop BB4_9 Depth 3
	movl	-12(%rbp), %eax
	movl	-28(%rbp), %ecx
	addl	$2, %ecx
	cmpl	%ecx, %eax
	jge	.LBB4_16
# %bb.6:                                # %for.body
                                        #   in Loop: Header=BB4_5 Depth=1
	movl	$0, -16(%rbp)
.LBB4_7:                                # %for.cond12
                                        #   Parent Loop BB4_5 Depth=1
                                        # =>  This Loop Header: Depth=2
                                        #       Child Loop BB4_9 Depth 3
	movl	-16(%rbp), %eax
	movslq	-12(%rbp), %rcx
	cmpl	listXsize(,%rcx,4), %eax
	jge	.LBB4_14
# %bb.8:                                # %for.body16
                                        #   in Loop: Header=BB4_7 Depth=2
	movl	$0, -4(%rbp)
.LBB4_9:                                # %for.cond17
                                        #   Parent Loop BB4_5 Depth=1
                                        #     Parent Loop BB4_7 Depth=2
                                        # =>    This Inner Loop Header: Depth=3
	cmpl	$3, -4(%rbp)
	jge	.LBB4_12
# %bb.10:                               # %for.body19
                                        #   in Loop: Header=BB4_9 Depth=3
	movslq	-4(%rbp), %rax
	movl	-40(%rbp,%rax,4), %eax
	movslq	-12(%rbp), %rcx
	imulq	$180, %rcx, %rcx
	leaq	-560(%rbp), %rdx
	addq	%rcx, %rdx
	movslq	-16(%rbp), %rcx
	imulq	$12, %rcx, %rcx
	addq	%rcx, %rdx
	movslq	-4(%rbp), %rcx
	movl	%eax, (%rdx,%rcx,4)
	movslq	-4(%rbp), %rax
	movl	-40(%rbp,%rax,4), %eax
	movq	wp_weight, %rcx
	movslq	-12(%rbp), %rdx
	movq	(%rcx,%rdx,8), %rcx
	movslq	-16(%rbp), %rdx
	movq	(%rcx,%rdx,8), %rcx
	movslq	-4(%rbp), %rdx
	movl	%eax, (%rcx,%rdx,4)
	movq	wp_offset, %rax
	movslq	-12(%rbp), %rcx
	movq	(%rax,%rcx,8), %rax
	movslq	-16(%rbp), %rcx
	movq	(%rax,%rcx,8), %rax
	movslq	-4(%rbp), %rcx
	movl	$0, (%rax,%rcx,4)
	movslq	-12(%rbp), %rax
	imulq	$180, %rax, %rax
	leaq	-928(%rbp), %rcx
	addq	%rax, %rcx
	movslq	-16(%rbp), %rax
	imulq	$12, %rax, %rax
	addq	%rax, %rcx
	movslq	-4(%rbp), %rax
	movl	$0, (%rcx,%rax,4)
# %bb.11:                               # %for.inc
                                        #   in Loop: Header=BB4_9 Depth=3
	movl	-4(%rbp), %eax
	addl	$1, %eax
	movl	%eax, -4(%rbp)
	jmp	.LBB4_9
.LBB4_12:                               # %for.end
                                        #   in Loop: Header=BB4_7 Depth=2
	jmp	.LBB4_13
.LBB4_13:                               # %for.inc48
                                        #   in Loop: Header=BB4_7 Depth=2
	movl	-16(%rbp), %eax
	addl	$1, %eax
	movl	%eax, -16(%rbp)
	jmp	.LBB4_7
.LBB4_14:                               # %for.end50
                                        #   in Loop: Header=BB4_5 Depth=1
	jmp	.LBB4_15
.LBB4_15:                               # %for.inc51
                                        #   in Loop: Header=BB4_5 Depth=1
	movl	-12(%rbp), %eax
	addl	$1, %eax
	movl	%eax, -12(%rbp)
	jmp	.LBB4_5
.LBB4_16:                               # %for.end53
	movl	$0, -12(%rbp)
.LBB4_17:                               # %for.cond54
                                        # =>This Loop Header: Depth=1
                                        #     Child Loop BB4_19 Depth 2
	movl	-12(%rbp), %eax
	movq	img, %rcx
	cmpl	60(%rcx), %eax
	jge	.LBB4_24
# %bb.18:                               # %for.body56
                                        #   in Loop: Header=BB4_17 Depth=1
	movl	$0, -16(%rbp)
.LBB4_19:                               # %for.cond57
                                        #   Parent Loop BB4_17 Depth=1
                                        # =>  This Inner Loop Header: Depth=2
	movl	-16(%rbp), %eax
	movq	img, %rcx
	cmpl	52(%rcx), %eax
	jge	.LBB4_22
# %bb.20:                               # %for.body59
                                        #   in Loop: Header=BB4_19 Depth=2
	movq	imgY_org(%rip), %rax
	movslq	-12(%rbp), %rcx
	movq	(%rax,%rcx,8), %rax
	movslq	-16(%rbp), %rcx
	movzwl	(%rax,%rcx,2), %eax
	vcvtsi2sd	%eax, %xmm0, %xmm0
	vaddsd	-56(%rbp), %xmm0, %xmm0
	vmovsd	%xmm0, -56(%rbp)
# %bb.21:                               # %for.inc65
                                        #   in Loop: Header=BB4_19 Depth=2
	movl	-16(%rbp), %eax
	addl	$1, %eax
	movl	%eax, -16(%rbp)
	jmp	.LBB4_19
.LBB4_22:                               # %for.end67
                                        #   in Loop: Header=BB4_17 Depth=1
	jmp	.LBB4_23
.LBB4_23:                               # %for.inc68
                                        #   in Loop: Header=BB4_17 Depth=1
	movl	-12(%rbp), %eax
	addl	$1, %eax
	movl	%eax, -12(%rbp)
	jmp	.LBB4_17
.LBB4_24:                               # %for.end70
	movl	$0, -8(%rbp)
.LBB4_25:                               # %for.cond71
                                        # =>This Loop Header: Depth=1
                                        #     Child Loop BB4_27 Depth 2
                                        #       Child Loop BB4_29 Depth 3
                                        #       Child Loop BB4_48 Depth 3
                                        #       Child Loop BB4_58 Depth 3
                                        #         Child Loop BB4_60 Depth 4
	movl	-8(%rbp), %eax
	movl	-28(%rbp), %ecx
	addl	$2, %ecx
	cmpl	%ecx, %eax
	jge	.LBB4_75
# %bb.26:                               # %for.body75
                                        #   in Loop: Header=BB4_25 Depth=1
	movl	$0, -4(%rbp)
.LBB4_27:                               # %for.cond76
                                        #   Parent Loop BB4_25 Depth=1
                                        # =>  This Loop Header: Depth=2
                                        #       Child Loop BB4_29 Depth 3
                                        #       Child Loop BB4_48 Depth 3
                                        #       Child Loop BB4_58 Depth 3
                                        #         Child Loop BB4_60 Depth 4
	movl	-4(%rbp), %eax
	movslq	-8(%rbp), %rcx
	cmpl	listXsize(,%rcx,4), %eax
	jge	.LBB4_73
# %bb.28:                               # %for.body81
                                        #   in Loop: Header=BB4_27 Depth=2
	movslq	-4(%rbp), %rax
	vxorps	%xmm0, %xmm0, %xmm0
	vmovsd	%xmm0, -192(%rbp,%rax,8)
	movslq	-8(%rbp), %rax
	movq	listX(,%rax,8), %rax
	movslq	-4(%rbp), %rcx
	movq	(%rax,%rcx,8), %rax
	movq	6432(%rax), %rax
	movq	%rax, -48(%rbp)
	movslq	-8(%rbp), %rax
	movq	listX(,%rax,8), %rax
	movslq	-4(%rbp), %rcx
	movq	(%rax,%rcx,8), %rax
	movq	6440(%rax), %rax
	movq	%rax, -72(%rbp)
	movl	$0, -12(%rbp)
.LBB4_29:                               # %for.cond92
                                        #   Parent Loop BB4_25 Depth=1
                                        #     Parent Loop BB4_27 Depth=2
                                        # =>    This Inner Loop Header: Depth=3
	movl	-12(%rbp), %eax
	movq	img, %rcx
	movl	60(%rcx), %ecx
	movq	img, %rdx
	imull	52(%rdx), %ecx
	cmpl	%ecx, %eax
	jge	.LBB4_32
# %bb.30:                               # %for.body97
                                        #   in Loop: Header=BB4_29 Depth=3
	movq	-48(%rbp), %rax
	movslq	-12(%rbp), %rcx
	movzwl	(%rax,%rcx,2), %eax
	vcvtsi2sd	%eax, %xmm0, %xmm0
	movslq	-4(%rbp), %rax
	vaddsd	-192(%rbp,%rax,8), %xmm0, %xmm0
	vmovsd	%xmm0, -192(%rbp,%rax,8)
# %bb.31:                               # %for.inc104
                                        #   in Loop: Header=BB4_29 Depth=3
	movl	-12(%rbp), %eax
	addl	$1, %eax
	movl	%eax, -12(%rbp)
	jmp	.LBB4_29
.LBB4_32:                               # %for.end106
                                        #   in Loop: Header=BB4_27 Depth=2
	vcvtsi2sdl	-60(%rbp), %xmm0, %xmm0
	vxorps	%xmm1, %xmm1, %xmm1
	vucomisd	%xmm1, %xmm0
	jne	.LBB4_40
	jp	.LBB4_40
# %bb.33:                               # %if.then
                                        #   in Loop: Header=BB4_27 Depth=2
	movslq	-4(%rbp), %rax
	vmovsd	-192(%rbp,%rax,8), %xmm0 # xmm0 = mem[0],zero
	vxorps	%xmm1, %xmm1, %xmm1
	vucomisd	%xmm1, %xmm0
	jne	.LBB4_34
	jp	.LBB4_34
	jmp	.LBB4_35
.LBB4_34:                               # %if.then114
                                        #   in Loop: Header=BB4_27 Depth=2
	vmovsd	.LCPI4_0(%rip), %xmm0   # xmm0 = mem[0],zero
	vcvtsi2sdl	-40(%rbp), %xmm0, %xmm1
	vmulsd	-56(%rbp), %xmm1, %xmm1
	movslq	-4(%rbp), %rax
	vdivsd	-192(%rbp,%rax,8), %xmm1, %xmm1
	vaddsd	%xmm0, %xmm1, %xmm0
	vcvttsd2si	%xmm0, %eax
	movslq	-8(%rbp), %rcx
	imulq	$180, %rcx, %rcx
	leaq	-560(%rbp), %rdx
	addq	%rcx, %rdx
	movslq	-4(%rbp), %rcx
	imulq	$12, %rcx, %rcx
	addq	%rcx, %rdx
	movl	%eax, (%rdx)
	jmp	.LBB4_36
.LBB4_35:                               # %if.else
                                        #   in Loop: Header=BB4_27 Depth=2
	movl	-40(%rbp), %eax
	movslq	-8(%rbp), %rcx
	imulq	$180, %rcx, %rcx
	leaq	-560(%rbp), %rdx
	addq	%rcx, %rdx
	movslq	-4(%rbp), %rcx
	imulq	$12, %rcx, %rcx
	addq	%rcx, %rdx
	movl	%eax, (%rdx)
.LBB4_36:                               # %if.end
                                        #   in Loop: Header=BB4_27 Depth=2
	movslq	-8(%rbp), %rax
	imulq	$180, %rax, %rax
	leaq	-560(%rbp), %rcx
	addq	%rax, %rcx
	movslq	-4(%rbp), %rax
	imulq	$12, %rax, %rax
	addq	%rax, %rcx
	cmpl	$-64, (%rcx)
	jl	.LBB4_38
# %bb.37:                               # %lor.lhs.false
                                        #   in Loop: Header=BB4_27 Depth=2
	movslq	-8(%rbp), %rax
	imulq	$180, %rax, %rax
	leaq	-560(%rbp), %rcx
	addq	%rax, %rcx
	movslq	-4(%rbp), %rax
	imulq	$12, %rax, %rax
	addq	%rax, %rcx
	cmpl	$127, (%rcx)
	jle	.LBB4_39
.LBB4_38:                               # %if.then147
                                        #   in Loop: Header=BB4_27 Depth=2
	movl	-40(%rbp), %eax
	movslq	-8(%rbp), %rcx
	imulq	$180, %rcx, %rcx
	leaq	-560(%rbp), %rdx
	addq	%rcx, %rdx
	movslq	-4(%rbp), %rcx
	imulq	$12, %rcx, %rcx
	addq	%rcx, %rdx
	movl	%eax, (%rdx)
.LBB4_39:                               # %if.end154
                                        #   in Loop: Header=BB4_27 Depth=2
	jmp	.LBB4_47
.LBB4_40:                               # %if.else155
                                        #   in Loop: Header=BB4_27 Depth=2
	vmovsd	.LCPI4_0(%rip), %xmm0   # xmm0 = mem[0],zero
	vmovsd	-56(%rbp), %xmm1        # xmm1 = mem[0],zero
	movslq	-4(%rbp), %rax
	vsubsd	-192(%rbp,%rax,8), %xmm1, %xmm1
	movq	img, %rax
	movl	60(%rax), %eax
	movq	img, %rcx
	imull	52(%rcx), %eax
	vcvtsi2sd	%eax, %xmm0, %xmm2
	vdivsd	%xmm2, %xmm1, %xmm1
	vaddsd	%xmm0, %xmm1, %xmm0
	vcvttsd2si	%xmm0, %eax
	movslq	-8(%rbp), %rcx
	imulq	$180, %rcx, %rcx
	leaq	-928(%rbp), %rdx
	movq	%rdx, %rsi
	addq	%rcx, %rsi
	movslq	-4(%rbp), %rcx
	imulq	$12, %rcx, %rcx
	addq	%rcx, %rsi
	movl	%eax, (%rsi)
	movslq	-8(%rbp), %rax
	imulq	$180, %rax, %rax
	addq	%rax, %rdx
	movslq	-4(%rbp), %rax
	imulq	$12, %rax, %rax
	addq	%rax, %rdx
	cmpl	$-128, (%rdx)
	jge	.LBB4_42
# %bb.41:                               # %cond.true178
                                        #   in Loop: Header=BB4_27 Depth=2
	movl	$4294967168, %eax       # imm = 0xFFFFFF80
	jmp	.LBB4_46
.LBB4_42:                               # %cond.false179
                                        #   in Loop: Header=BB4_27 Depth=2
	movslq	-8(%rbp), %rax
	imulq	$180, %rax, %rax
	leaq	-928(%rbp), %rcx
	addq	%rax, %rcx
	movslq	-4(%rbp), %rax
	imulq	$12, %rax, %rax
	addq	%rax, %rcx
	cmpl	$127, (%rcx)
	jle	.LBB4_44
# %bb.43:                               # %cond.true187
                                        #   in Loop: Header=BB4_27 Depth=2
	movl	$127, %eax
	jmp	.LBB4_45
.LBB4_44:                               # %cond.false188
                                        #   in Loop: Header=BB4_27 Depth=2
	movslq	-8(%rbp), %rax
	imulq	$180, %rax, %rax
	leaq	-928(%rbp), %rcx
	addq	%rax, %rcx
	movslq	-4(%rbp), %rax
	imulq	$12, %rax, %rax
	addq	%rax, %rcx
	movl	(%rcx), %eax
.LBB4_45:                               # %cond.end194
                                        #   in Loop: Header=BB4_27 Depth=2
.LBB4_46:                               # %cond.end196
                                        #   in Loop: Header=BB4_27 Depth=2
	movslq	-8(%rbp), %rcx
	imulq	$180, %rcx, %rcx
	leaq	-928(%rbp), %rdx
	addq	%rcx, %rdx
	movslq	-4(%rbp), %rcx
	imulq	$12, %rcx, %rcx
	addq	%rcx, %rdx
	movl	%eax, (%rdx)
	movl	-40(%rbp), %eax
	movslq	-8(%rbp), %rcx
	imulq	$180, %rcx, %rcx
	leaq	-560(%rbp), %rdx
	addq	%rcx, %rdx
	movslq	-4(%rbp), %rcx
	imulq	$12, %rcx, %rcx
	addq	%rcx, %rdx
	movl	%eax, (%rdx)
.LBB4_47:                               # %if.end209
                                        #   in Loop: Header=BB4_27 Depth=2
	movl	-36(%rbp), %eax
	movslq	-8(%rbp), %rcx
	imulq	$180, %rcx, %rcx
	leaq	-560(%rbp), %rdx
	movq	%rdx, %rsi
	addq	%rcx, %rsi
	movslq	-4(%rbp), %rcx
	imulq	$12, %rcx, %rcx
	addq	%rcx, %rsi
	movl	%eax, 4(%rsi)
	movl	-32(%rbp), %eax
	movslq	-8(%rbp), %rcx
	imulq	$180, %rcx, %rcx
	addq	%rcx, %rdx
	movslq	-4(%rbp), %rcx
	imulq	$12, %rcx, %rcx
	addq	%rcx, %rdx
	movl	%eax, 8(%rdx)
	movl	$0, -12(%rbp)
.LBB4_48:                               # %for.cond222
                                        #   Parent Loop BB4_25 Depth=1
                                        #     Parent Loop BB4_27 Depth=2
                                        # =>    This Inner Loop Header: Depth=3
	movl	-12(%rbp), %eax
	movq	img, %rcx
	movl	60(%rcx), %ecx
	movq	img, %rdx
	imull	52(%rdx), %ecx
	cmpl	%ecx, %eax
	jge	.LBB4_57
# %bb.49:                               # %for.body228
                                        #   in Loop: Header=BB4_48 Depth=3
	movq	-48(%rbp), %rax
	movslq	-12(%rbp), %rcx
	movzwl	(%rax,%rcx,2), %eax
	movslq	-8(%rbp), %rcx
	imulq	$180, %rcx, %rcx
	leaq	-560(%rbp), %rdx
	addq	%rcx, %rdx
	movslq	-4(%rbp), %rcx
	imulq	$12, %rcx, %rcx
	addq	%rcx, %rdx
	imull	(%rdx), %eax
	addl	wp_luma_round, %eax
	movl	luma_log_weight_denom, %ecx
                                        # kill: def $cl killed $ecx
	sarl	%cl, %eax
	movslq	-8(%rbp), %rcx
	imulq	$180, %rcx, %rcx
	leaq	-928(%rbp), %rdx
	addq	%rcx, %rdx
	movslq	-4(%rbp), %rcx
	imulq	$12, %rcx, %rcx
	addq	%rcx, %rdx
	addl	(%rdx), %eax
	cmpl	$0, %eax
	jge	.LBB4_51
# %bb.50:                               # %cond.true247
                                        #   in Loop: Header=BB4_48 Depth=3
	xorl	%eax, %eax
	jmp	.LBB4_55
.LBB4_51:                               # %cond.false248
                                        #   in Loop: Header=BB4_48 Depth=3
	movq	-48(%rbp), %rax
	movslq	-12(%rbp), %rcx
	movzwl	(%rax,%rcx,2), %eax
	movslq	-8(%rbp), %rcx
	imulq	$180, %rcx, %rcx
	leaq	-560(%rbp), %rdx
	addq	%rcx, %rdx
	movslq	-4(%rbp), %rcx
	imulq	$12, %rcx, %rcx
	addq	%rcx, %rdx
	imull	(%rdx), %eax
	addl	wp_luma_round, %eax
	movl	luma_log_weight_denom, %ecx
                                        # kill: def $cl killed $ecx
	sarl	%cl, %eax
	movslq	-8(%rbp), %rcx
	imulq	$180, %rcx, %rcx
	leaq	-928(%rbp), %rdx
	addq	%rcx, %rdx
	movslq	-4(%rbp), %rcx
	imulq	$12, %rcx, %rcx
	addq	%rcx, %rdx
	addl	(%rdx), %eax
	movq	img, %rcx
	cmpl	72684(%rcx), %eax
	jle	.LBB4_53
# %bb.52:                               # %cond.true268
                                        #   in Loop: Header=BB4_48 Depth=3
	movq	img, %rax
	movl	72684(%rax), %eax
	jmp	.LBB4_54
.LBB4_53:                               # %cond.false270
                                        #   in Loop: Header=BB4_48 Depth=3
	movq	-48(%rbp), %rax
	movslq	-12(%rbp), %rcx
	movzwl	(%rax,%rcx,2), %eax
	movslq	-8(%rbp), %rcx
	imulq	$180, %rcx, %rcx
	leaq	-560(%rbp), %rdx
	addq	%rcx, %rdx
	movslq	-4(%rbp), %rcx
	imulq	$12, %rcx, %rcx
	addq	%rcx, %rdx
	imull	(%rdx), %eax
	addl	wp_luma_round, %eax
	movl	luma_log_weight_denom, %ecx
                                        # kill: def $cl killed $ecx
	sarl	%cl, %eax
	movslq	-8(%rbp), %rcx
	imulq	$180, %rcx, %rcx
	leaq	-928(%rbp), %rdx
	addq	%rcx, %rdx
	movslq	-4(%rbp), %rcx
	imulq	$12, %rcx, %rcx
	addq	%rcx, %rdx
	addl	(%rdx), %eax
.LBB4_54:                               # %cond.end288
                                        #   in Loop: Header=BB4_48 Depth=3
.LBB4_55:                               # %cond.end290
                                        #   in Loop: Header=BB4_48 Depth=3
	movq	-72(%rbp), %rcx
	movslq	-12(%rbp), %rdx
	movw	%ax, (%rcx,%rdx,2)
# %bb.56:                               # %for.inc295
                                        #   in Loop: Header=BB4_48 Depth=3
	movl	-12(%rbp), %eax
	addl	$1, %eax
	movl	%eax, -12(%rbp)
	jmp	.LBB4_48
.LBB4_57:                               # %for.end297
                                        #   in Loop: Header=BB4_27 Depth=2
	movl	$0, -12(%rbp)
.LBB4_58:                               # %for.cond298
                                        #   Parent Loop BB4_25 Depth=1
                                        #     Parent Loop BB4_27 Depth=2
                                        # =>    This Loop Header: Depth=3
                                        #         Child Loop BB4_60 Depth 4
	movl	-12(%rbp), %eax
	movq	img, %rcx
	movl	60(%rcx), %ecx
	addl	$8, %ecx
	shll	$2, %ecx
	cmpl	%ecx, %eax
	jge	.LBB4_71
# %bb.59:                               # %for.body304
                                        #   in Loop: Header=BB4_58 Depth=3
	movl	$0, -16(%rbp)
.LBB4_60:                               # %for.cond305
                                        #   Parent Loop BB4_25 Depth=1
                                        #     Parent Loop BB4_27 Depth=2
                                        #       Parent Loop BB4_58 Depth=3
                                        # =>      This Inner Loop Header: Depth=4
	movl	-16(%rbp), %eax
	movq	img, %rcx
	movl	52(%rcx), %ecx
	addl	$8, %ecx
	shll	$2, %ecx
	cmpl	%ecx, %eax
	jge	.LBB4_69
# %bb.61:                               # %for.body311
                                        #   in Loop: Header=BB4_60 Depth=4
	movq	listX, %rax
	movslq	-4(%rbp), %rcx
	movq	(%rax,%rcx,8), %rax
	movq	6448(%rax), %rax
	movslq	-12(%rbp), %rcx
	movq	(%rax,%rcx,8), %rax
	movslq	-16(%rbp), %rcx
	movzwl	(%rax,%rcx,2), %eax
	movslq	-8(%rbp), %rcx
	imulq	$180, %rcx, %rcx
	leaq	-560(%rbp), %rdx
	addq	%rcx, %rdx
	movslq	-4(%rbp), %rcx
	imulq	$12, %rcx, %rcx
	addq	%rcx, %rdx
	imull	(%rdx), %eax
	addl	wp_luma_round, %eax
	movl	luma_log_weight_denom, %ecx
                                        # kill: def $cl killed $ecx
	sarl	%cl, %eax
	movslq	-8(%rbp), %rcx
	imulq	$180, %rcx, %rcx
	leaq	-928(%rbp), %rdx
	addq	%rcx, %rdx
	movslq	-4(%rbp), %rcx
	imulq	$12, %rcx, %rcx
	addq	%rcx, %rdx
	addl	(%rdx), %eax
	cmpl	$0, %eax
	jge	.LBB4_63
# %bb.62:                               # %cond.true335
                                        #   in Loop: Header=BB4_60 Depth=4
	xorl	%eax, %eax
	jmp	.LBB4_67
.LBB4_63:                               # %cond.false336
                                        #   in Loop: Header=BB4_60 Depth=4
	movq	listX, %rax
	movslq	-4(%rbp), %rcx
	movq	(%rax,%rcx,8), %rax
	movq	6448(%rax), %rax
	movslq	-12(%rbp), %rcx
	movq	(%rax,%rcx,8), %rax
	movslq	-16(%rbp), %rcx
	movzwl	(%rax,%rcx,2), %eax
	movslq	-8(%rbp), %rcx
	imulq	$180, %rcx, %rcx
	leaq	-560(%rbp), %rdx
	addq	%rcx, %rdx
	movslq	-4(%rbp), %rcx
	imulq	$12, %rcx, %rcx
	addq	%rcx, %rdx
	imull	(%rdx), %eax
	addl	wp_luma_round, %eax
	movl	luma_log_weight_denom, %ecx
                                        # kill: def $cl killed $ecx
	sarl	%cl, %eax
	movslq	-8(%rbp), %rcx
	imulq	$180, %rcx, %rcx
	leaq	-928(%rbp), %rdx
	addq	%rcx, %rdx
	movslq	-4(%rbp), %rcx
	imulq	$12, %rcx, %rcx
	addq	%rcx, %rdx
	addl	(%rdx), %eax
	movq	img, %rcx
	cmpl	72684(%rcx), %eax
	jle	.LBB4_65
# %bb.64:                               # %cond.true362
                                        #   in Loop: Header=BB4_60 Depth=4
	movq	img, %rax
	movl	72684(%rax), %eax
	jmp	.LBB4_66
.LBB4_65:                               # %cond.false364
                                        #   in Loop: Header=BB4_60 Depth=4
	movq	listX, %rax
	movslq	-4(%rbp), %rcx
	movq	(%rax,%rcx,8), %rax
	movq	6448(%rax), %rax
	movslq	-12(%rbp), %rcx
	movq	(%rax,%rcx,8), %rax
	movslq	-16(%rbp), %rcx
	movzwl	(%rax,%rcx,2), %eax
	movslq	-8(%rbp), %rcx
	imulq	$180, %rcx, %rcx
	leaq	-560(%rbp), %rdx
	addq	%rcx, %rdx
	movslq	-4(%rbp), %rcx
	imulq	$12, %rcx, %rcx
	addq	%rcx, %rdx
	imull	(%rdx), %eax
	addl	wp_luma_round, %eax
	movl	luma_log_weight_denom, %ecx
                                        # kill: def $cl killed $ecx
	sarl	%cl, %eax
	movslq	-8(%rbp), %rcx
	imulq	$180, %rcx, %rcx
	leaq	-928(%rbp), %rdx
	addq	%rcx, %rdx
	movslq	-4(%rbp), %rcx
	imulq	$12, %rcx, %rcx
	addq	%rcx, %rdx
	addl	(%rdx), %eax
.LBB4_66:                               # %cond.end387
                                        #   in Loop: Header=BB4_60 Depth=4
.LBB4_67:                               # %cond.end389
                                        #   in Loop: Header=BB4_60 Depth=4
	movq	listX, %rcx
	movslq	-4(%rbp), %rdx
	movq	(%rcx,%rdx,8), %rcx
	movq	6456(%rcx), %rcx
	movslq	-12(%rbp), %rdx
	movq	(%rcx,%rdx,8), %rcx
	movslq	-16(%rbp), %rdx
	movw	%ax, (%rcx,%rdx,2)
# %bb.68:                               # %for.inc398
                                        #   in Loop: Header=BB4_60 Depth=4
	movl	-16(%rbp), %eax
	addl	$1, %eax
	movl	%eax, -16(%rbp)
	jmp	.LBB4_60
.LBB4_69:                               # %for.end400
                                        #   in Loop: Header=BB4_58 Depth=3
	jmp	.LBB4_70
.LBB4_70:                               # %for.inc401
                                        #   in Loop: Header=BB4_58 Depth=3
	movl	-12(%rbp), %eax
	addl	$1, %eax
	movl	%eax, -12(%rbp)
	jmp	.LBB4_58
.LBB4_71:                               # %for.end403
                                        #   in Loop: Header=BB4_27 Depth=2
	jmp	.LBB4_72
.LBB4_72:                               # %for.inc404
                                        #   in Loop: Header=BB4_27 Depth=2
	movl	-4(%rbp), %eax
	addl	$1, %eax
	movl	%eax, -4(%rbp)
	jmp	.LBB4_27
.LBB4_73:                               # %for.end406
                                        #   in Loop: Header=BB4_25 Depth=1
	jmp	.LBB4_74
.LBB4_74:                               # %for.inc407
                                        #   in Loop: Header=BB4_25 Depth=1
	movl	-8(%rbp), %eax
	addl	$1, %eax
	movl	%eax, -8(%rbp)
	jmp	.LBB4_25
.LBB4_75:                               # %for.end409
	movl	$0, -8(%rbp)
.LBB4_76:                               # %for.cond410
                                        # =>This Loop Header: Depth=1
                                        #     Child Loop BB4_78 Depth 2
                                        #       Child Loop BB4_80 Depth 3
	movl	-8(%rbp), %eax
	movl	-28(%rbp), %ecx
	addl	$2, %ecx
	cmpl	%ecx, %eax
	jge	.LBB4_87
# %bb.77:                               # %for.body414
                                        #   in Loop: Header=BB4_76 Depth=1
	movl	$0, -20(%rbp)
.LBB4_78:                               # %for.cond415
                                        #   Parent Loop BB4_76 Depth=1
                                        # =>  This Loop Header: Depth=2
                                        #       Child Loop BB4_80 Depth 3
	movl	-20(%rbp), %eax
	movslq	-8(%rbp), %rcx
	cmpl	listXsize(,%rcx,4), %eax
	jge	.LBB4_85
# %bb.79:                               # %for.body420
                                        #   in Loop: Header=BB4_78 Depth=2
	movl	$0, -24(%rbp)
.LBB4_80:                               # %for.cond421
                                        #   Parent Loop BB4_76 Depth=1
                                        #     Parent Loop BB4_78 Depth=2
                                        # =>    This Inner Loop Header: Depth=3
	cmpl	$3, -24(%rbp)
	jge	.LBB4_83
# %bb.81:                               # %for.body424
                                        #   in Loop: Header=BB4_80 Depth=3
	movslq	-8(%rbp), %rax
	imulq	$180, %rax, %rax
	leaq	-560(%rbp), %rcx
	addq	%rax, %rcx
	movslq	-20(%rbp), %rax
	imulq	$12, %rax, %rax
	addq	%rax, %rcx
	movslq	-24(%rbp), %rax
	movl	(%rcx,%rax,4), %eax
	movq	wp_weight, %rcx
	movslq	-8(%rbp), %rdx
	movq	(%rcx,%rdx,8), %rcx
	movslq	-20(%rbp), %rdx
	movq	(%rcx,%rdx,8), %rcx
	movslq	-24(%rbp), %rdx
	movl	%eax, (%rcx,%rdx,4)
	movslq	-8(%rbp), %rax
	imulq	$180, %rax, %rax
	leaq	-928(%rbp), %rcx
	addq	%rax, %rcx
	movslq	-20(%rbp), %rax
	imulq	$12, %rax, %rax
	addq	%rax, %rcx
	movslq	-24(%rbp), %rax
	movl	(%rcx,%rax,4), %eax
	movq	wp_offset, %rcx
	movslq	-8(%rbp), %rdx
	movq	(%rcx,%rdx,8), %rcx
	movslq	-20(%rbp), %rdx
	movq	(%rcx,%rdx,8), %rcx
	movslq	-24(%rbp), %rdx
	movl	%eax, (%rcx,%rdx,4)
# %bb.82:                               # %for.inc449
                                        #   in Loop: Header=BB4_80 Depth=3
	movl	-24(%rbp), %eax
	addl	$1, %eax
	movl	%eax, -24(%rbp)
	jmp	.LBB4_80
.LBB4_83:                               # %for.end451
                                        #   in Loop: Header=BB4_78 Depth=2
	jmp	.LBB4_84
.LBB4_84:                               # %for.inc452
                                        #   in Loop: Header=BB4_78 Depth=2
	movl	-20(%rbp), %eax
	addl	$1, %eax
	movl	%eax, -20(%rbp)
	jmp	.LBB4_78
.LBB4_85:                               # %for.end454
                                        #   in Loop: Header=BB4_76 Depth=1
	jmp	.LBB4_86
.LBB4_86:                               # %for.inc455
                                        #   in Loop: Header=BB4_76 Depth=1
	movl	-8(%rbp), %eax
	addl	$1, %eax
	movl	%eax, -8(%rbp)
	jmp	.LBB4_76
.LBB4_87:                               # %for.end457
	cmpl	$918926072, -64(%rbp)   # imm = 0x36C5B2F8
	jne	.LBB4_89
.LBB4_88:
	addq	$928, %rsp              # imm = 0x3A0
	popq	%rbp
	.cfi_def_cfa %rsp, 8
	retq
.LBB4_89:                               # %func_exit
	.cfi_def_cfa %rbp, 16
	callq	detect_breach
	jmp	.LBB4_88
.Lfunc_end4:
	.size	estimate_weighting_factor_P_slice.1, .Lfunc_end4-estimate_weighting_factor_P_slice.1
	.cfi_endproc
                                        # -- End function
	.section	.rodata.cst8,"aM",@progbits,8
	.p2align	3               # -- Begin function estimate_weighting_factor_P_slice.2
.LCPI5_0:
	.quad	4602678819172646912     # double 0.5
	.text
	.globl	estimate_weighting_factor_P_slice.2
	.p2align	4, 0x90
	.type	estimate_weighting_factor_P_slice.2,@function
estimate_weighting_factor_P_slice.2:    # @estimate_weighting_factor_P_slice.2
	.cfi_startproc
# %bb.0:                                # %entry
	pushq	%rbp
	.cfi_def_cfa_offset 16
	.cfi_offset %rbp, -16
	movq	%rsp, %rbp
	.cfi_def_cfa_register %rbp
	subq	$928, %rsp              # imm = 0x3A0
	movl	$454397358, -64(%rbp)   # imm = 0x1B158DAE
	movl	%edi, -60(%rbp)
	vxorps	%xmm0, %xmm0, %xmm0
	vmovsd	%xmm0, -56(%rbp)
	movq	img, %rax
	cmpl	$0, 72400(%rax)
	je	.LBB5_3
# %bb.1:                                # %land.lhs.true
	movq	img, %rax
	movq	14168(%rax), %rax
	movq	img, %rcx
	movslq	12(%rcx), %rcx
	imulq	$632, %rcx, %rcx        # imm = 0x278
	addq	%rcx, %rax
	cmpl	$0, 532(%rax)
	je	.LBB5_3
# %bb.2:                                # %cond.true
	movq	img, %rax
	movl	12(%rax), %eax
	cltd
	movl	$2, %ecx
	idivl	%ecx
	cmpl	$0, %edx
	movl	$4, %eax
	cmovnel	%eax, %ecx
	jmp	.LBB5_4
.LBB5_3:                                # %cond.false
	xorl	%ecx, %ecx
	jmp	.LBB5_4
.LBB5_4:                                # %cond.end
	movl	%ecx, -28(%rbp)
	movl	$5, luma_log_weight_denom
	movl	$5, chroma_log_weight_denom
	movl	luma_log_weight_denom, %ecx
	subl	$1, %ecx
                                        # kill: def $cl killed $ecx
	movl	$1, %eax
	movl	$1, %edx
	shll	%cl, %edx
	movl	%edx, wp_luma_round
	movl	chroma_log_weight_denom, %ecx
	subl	$1, %ecx
                                        # kill: def $cl killed $ecx
	movl	$1, %edx
	shll	%cl, %edx
	movl	%edx, wp_chroma_round
	movl	luma_log_weight_denom, %ecx
                                        # kill: def $cl killed $ecx
	movl	$1, %edx
	shll	%cl, %edx
	movl	%edx, -40(%rbp)
	movl	chroma_log_weight_denom, %ecx
                                        # kill: def $cl killed $ecx
	shll	%cl, %eax
	movl	%eax, -32(%rbp)
	movl	%eax, -36(%rbp)
	movl	$0, -12(%rbp)
.LBB5_5:                                # %for.cond
                                        # =>This Loop Header: Depth=1
                                        #     Child Loop BB5_7 Depth 2
                                        #       Child Loop BB5_9 Depth 3
	movl	-12(%rbp), %eax
	movl	-28(%rbp), %ecx
	addl	$2, %ecx
	cmpl	%ecx, %eax
	jge	.LBB5_16
# %bb.6:                                # %for.body
                                        #   in Loop: Header=BB5_5 Depth=1
	movl	$0, -16(%rbp)
.LBB5_7:                                # %for.cond12
                                        #   Parent Loop BB5_5 Depth=1
                                        # =>  This Loop Header: Depth=2
                                        #       Child Loop BB5_9 Depth 3
	movl	-16(%rbp), %eax
	movslq	-12(%rbp), %rcx
	cmpl	listXsize(,%rcx,4), %eax
	jge	.LBB5_14
# %bb.8:                                # %for.body16
                                        #   in Loop: Header=BB5_7 Depth=2
	movl	$0, -4(%rbp)
.LBB5_9:                                # %for.cond17
                                        #   Parent Loop BB5_5 Depth=1
                                        #     Parent Loop BB5_7 Depth=2
                                        # =>    This Inner Loop Header: Depth=3
	cmpl	$3, -4(%rbp)
	jge	.LBB5_12
# %bb.10:                               # %for.body19
                                        #   in Loop: Header=BB5_9 Depth=3
	movslq	-4(%rbp), %rax
	movl	-40(%rbp,%rax,4), %eax
	movslq	-12(%rbp), %rcx
	imulq	$180, %rcx, %rcx
	leaq	-560(%rbp), %rdx
	addq	%rcx, %rdx
	movslq	-16(%rbp), %rcx
	imulq	$12, %rcx, %rcx
	addq	%rcx, %rdx
	movslq	-4(%rbp), %rcx
	movl	%eax, (%rdx,%rcx,4)
	movslq	-4(%rbp), %rax
	movl	-40(%rbp,%rax,4), %eax
	movq	wp_weight, %rcx
	movslq	-12(%rbp), %rdx
	movq	(%rcx,%rdx,8), %rcx
	movslq	-16(%rbp), %rdx
	movq	(%rcx,%rdx,8), %rcx
	movslq	-4(%rbp), %rdx
	movl	%eax, (%rcx,%rdx,4)
	movq	wp_offset, %rax
	movslq	-12(%rbp), %rcx
	movq	(%rax,%rcx,8), %rax
	movslq	-16(%rbp), %rcx
	movq	(%rax,%rcx,8), %rax
	movslq	-4(%rbp), %rcx
	movl	$0, (%rax,%rcx,4)
	movslq	-12(%rbp), %rax
	imulq	$180, %rax, %rax
	leaq	-928(%rbp), %rcx
	addq	%rax, %rcx
	movslq	-16(%rbp), %rax
	imulq	$12, %rax, %rax
	addq	%rax, %rcx
	movslq	-4(%rbp), %rax
	movl	$0, (%rcx,%rax,4)
# %bb.11:                               # %for.inc
                                        #   in Loop: Header=BB5_9 Depth=3
	movl	-4(%rbp), %eax
	addl	$1, %eax
	movl	%eax, -4(%rbp)
	jmp	.LBB5_9
.LBB5_12:                               # %for.end
                                        #   in Loop: Header=BB5_7 Depth=2
	jmp	.LBB5_13
.LBB5_13:                               # %for.inc48
                                        #   in Loop: Header=BB5_7 Depth=2
	movl	-16(%rbp), %eax
	addl	$1, %eax
	movl	%eax, -16(%rbp)
	jmp	.LBB5_7
.LBB5_14:                               # %for.end50
                                        #   in Loop: Header=BB5_5 Depth=1
	jmp	.LBB5_15
.LBB5_15:                               # %for.inc51
                                        #   in Loop: Header=BB5_5 Depth=1
	movl	-12(%rbp), %eax
	addl	$1, %eax
	movl	%eax, -12(%rbp)
	jmp	.LBB5_5
.LBB5_16:                               # %for.end53
	movl	$0, -12(%rbp)
.LBB5_17:                               # %for.cond54
                                        # =>This Loop Header: Depth=1
                                        #     Child Loop BB5_19 Depth 2
	movl	-12(%rbp), %eax
	movq	img, %rcx
	cmpl	60(%rcx), %eax
	jge	.LBB5_24
# %bb.18:                               # %for.body56
                                        #   in Loop: Header=BB5_17 Depth=1
	movl	$0, -16(%rbp)
.LBB5_19:                               # %for.cond57
                                        #   Parent Loop BB5_17 Depth=1
                                        # =>  This Inner Loop Header: Depth=2
	movl	-16(%rbp), %eax
	movq	img, %rcx
	cmpl	52(%rcx), %eax
	jge	.LBB5_22
# %bb.20:                               # %for.body59
                                        #   in Loop: Header=BB5_19 Depth=2
	movq	imgY_org(%rip), %rax
	movslq	-12(%rbp), %rcx
	movq	(%rax,%rcx,8), %rax
	movslq	-16(%rbp), %rcx
	movzwl	(%rax,%rcx,2), %eax
	vcvtsi2sd	%eax, %xmm0, %xmm0
	vaddsd	-56(%rbp), %xmm0, %xmm0
	vmovsd	%xmm0, -56(%rbp)
# %bb.21:                               # %for.inc65
                                        #   in Loop: Header=BB5_19 Depth=2
	movl	-16(%rbp), %eax
	addl	$1, %eax
	movl	%eax, -16(%rbp)
	jmp	.LBB5_19
.LBB5_22:                               # %for.end67
                                        #   in Loop: Header=BB5_17 Depth=1
	jmp	.LBB5_23
.LBB5_23:                               # %for.inc68
                                        #   in Loop: Header=BB5_17 Depth=1
	movl	-12(%rbp), %eax
	addl	$1, %eax
	movl	%eax, -12(%rbp)
	jmp	.LBB5_17
.LBB5_24:                               # %for.end70
	movl	$0, -8(%rbp)
.LBB5_25:                               # %for.cond71
                                        # =>This Loop Header: Depth=1
                                        #     Child Loop BB5_27 Depth 2
                                        #       Child Loop BB5_29 Depth 3
                                        #       Child Loop BB5_48 Depth 3
                                        #       Child Loop BB5_58 Depth 3
                                        #         Child Loop BB5_60 Depth 4
	movl	-8(%rbp), %eax
	movl	-28(%rbp), %ecx
	addl	$2, %ecx
	cmpl	%ecx, %eax
	jge	.LBB5_75
# %bb.26:                               # %for.body75
                                        #   in Loop: Header=BB5_25 Depth=1
	movl	$0, -4(%rbp)
.LBB5_27:                               # %for.cond76
                                        #   Parent Loop BB5_25 Depth=1
                                        # =>  This Loop Header: Depth=2
                                        #       Child Loop BB5_29 Depth 3
                                        #       Child Loop BB5_48 Depth 3
                                        #       Child Loop BB5_58 Depth 3
                                        #         Child Loop BB5_60 Depth 4
	movl	-4(%rbp), %eax
	movslq	-8(%rbp), %rcx
	cmpl	listXsize(,%rcx,4), %eax
	jge	.LBB5_73
# %bb.28:                               # %for.body81
                                        #   in Loop: Header=BB5_27 Depth=2
	movslq	-4(%rbp), %rax
	vxorps	%xmm0, %xmm0, %xmm0
	vmovsd	%xmm0, -192(%rbp,%rax,8)
	movslq	-8(%rbp), %rax
	movq	listX(,%rax,8), %rax
	movslq	-4(%rbp), %rcx
	movq	(%rax,%rcx,8), %rax
	movq	6432(%rax), %rax
	movq	%rax, -48(%rbp)
	movslq	-8(%rbp), %rax
	movq	listX(,%rax,8), %rax
	movslq	-4(%rbp), %rcx
	movq	(%rax,%rcx,8), %rax
	movq	6440(%rax), %rax
	movq	%rax, -72(%rbp)
	movl	$0, -12(%rbp)
.LBB5_29:                               # %for.cond92
                                        #   Parent Loop BB5_25 Depth=1
                                        #     Parent Loop BB5_27 Depth=2
                                        # =>    This Inner Loop Header: Depth=3
	movl	-12(%rbp), %eax
	movq	img, %rcx
	movl	60(%rcx), %ecx
	movq	img, %rdx
	imull	52(%rdx), %ecx
	cmpl	%ecx, %eax
	jge	.LBB5_32
# %bb.30:                               # %for.body97
                                        #   in Loop: Header=BB5_29 Depth=3
	movq	-48(%rbp), %rax
	movslq	-12(%rbp), %rcx
	movzwl	(%rax,%rcx,2), %eax
	vcvtsi2sd	%eax, %xmm0, %xmm0
	movslq	-4(%rbp), %rax
	vaddsd	-192(%rbp,%rax,8), %xmm0, %xmm0
	vmovsd	%xmm0, -192(%rbp,%rax,8)
# %bb.31:                               # %for.inc104
                                        #   in Loop: Header=BB5_29 Depth=3
	movl	-12(%rbp), %eax
	addl	$1, %eax
	movl	%eax, -12(%rbp)
	jmp	.LBB5_29
.LBB5_32:                               # %for.end106
                                        #   in Loop: Header=BB5_27 Depth=2
	vcvtsi2sdl	-60(%rbp), %xmm0, %xmm0
	vxorps	%xmm1, %xmm1, %xmm1
	vucomisd	%xmm1, %xmm0
	jne	.LBB5_40
	jp	.LBB5_40
# %bb.33:                               # %if.then
                                        #   in Loop: Header=BB5_27 Depth=2
	movslq	-4(%rbp), %rax
	vmovsd	-192(%rbp,%rax,8), %xmm0 # xmm0 = mem[0],zero
	vxorps	%xmm1, %xmm1, %xmm1
	vucomisd	%xmm1, %xmm0
	jne	.LBB5_34
	jp	.LBB5_34
	jmp	.LBB5_35
.LBB5_34:                               # %if.then114
                                        #   in Loop: Header=BB5_27 Depth=2
	vmovsd	.LCPI5_0(%rip), %xmm0   # xmm0 = mem[0],zero
	vcvtsi2sdl	-40(%rbp), %xmm0, %xmm1
	vmulsd	-56(%rbp), %xmm1, %xmm1
	movslq	-4(%rbp), %rax
	vdivsd	-192(%rbp,%rax,8), %xmm1, %xmm1
	vaddsd	%xmm0, %xmm1, %xmm0
	vcvttsd2si	%xmm0, %eax
	movslq	-8(%rbp), %rcx
	imulq	$180, %rcx, %rcx
	leaq	-560(%rbp), %rdx
	addq	%rcx, %rdx
	movslq	-4(%rbp), %rcx
	imulq	$12, %rcx, %rcx
	addq	%rcx, %rdx
	movl	%eax, (%rdx)
	jmp	.LBB5_36
.LBB5_35:                               # %if.else
                                        #   in Loop: Header=BB5_27 Depth=2
	movl	-40(%rbp), %eax
	movslq	-8(%rbp), %rcx
	imulq	$180, %rcx, %rcx
	leaq	-560(%rbp), %rdx
	addq	%rcx, %rdx
	movslq	-4(%rbp), %rcx
	imulq	$12, %rcx, %rcx
	addq	%rcx, %rdx
	movl	%eax, (%rdx)
.LBB5_36:                               # %if.end
                                        #   in Loop: Header=BB5_27 Depth=2
	movslq	-8(%rbp), %rax
	imulq	$180, %rax, %rax
	leaq	-560(%rbp), %rcx
	addq	%rax, %rcx
	movslq	-4(%rbp), %rax
	imulq	$12, %rax, %rax
	addq	%rax, %rcx
	cmpl	$-64, (%rcx)
	jl	.LBB5_38
# %bb.37:                               # %lor.lhs.false
                                        #   in Loop: Header=BB5_27 Depth=2
	movslq	-8(%rbp), %rax
	imulq	$180, %rax, %rax
	leaq	-560(%rbp), %rcx
	addq	%rax, %rcx
	movslq	-4(%rbp), %rax
	imulq	$12, %rax, %rax
	addq	%rax, %rcx
	cmpl	$127, (%rcx)
	jle	.LBB5_39
.LBB5_38:                               # %if.then147
                                        #   in Loop: Header=BB5_27 Depth=2
	movl	-40(%rbp), %eax
	movslq	-8(%rbp), %rcx
	imulq	$180, %rcx, %rcx
	leaq	-560(%rbp), %rdx
	addq	%rcx, %rdx
	movslq	-4(%rbp), %rcx
	imulq	$12, %rcx, %rcx
	addq	%rcx, %rdx
	movl	%eax, (%rdx)
.LBB5_39:                               # %if.end154
                                        #   in Loop: Header=BB5_27 Depth=2
	jmp	.LBB5_47
.LBB5_40:                               # %if.else155
                                        #   in Loop: Header=BB5_27 Depth=2
	vmovsd	.LCPI5_0(%rip), %xmm0   # xmm0 = mem[0],zero
	vmovsd	-56(%rbp), %xmm1        # xmm1 = mem[0],zero
	movslq	-4(%rbp), %rax
	vsubsd	-192(%rbp,%rax,8), %xmm1, %xmm1
	movq	img, %rax
	movl	60(%rax), %eax
	movq	img, %rcx
	imull	52(%rcx), %eax
	vcvtsi2sd	%eax, %xmm0, %xmm2
	vdivsd	%xmm2, %xmm1, %xmm1
	vaddsd	%xmm0, %xmm1, %xmm0
	vcvttsd2si	%xmm0, %eax
	movslq	-8(%rbp), %rcx
	imulq	$180, %rcx, %rcx
	leaq	-928(%rbp), %rdx
	movq	%rdx, %rsi
	addq	%rcx, %rsi
	movslq	-4(%rbp), %rcx
	imulq	$12, %rcx, %rcx
	addq	%rcx, %rsi
	movl	%eax, (%rsi)
	movslq	-8(%rbp), %rax
	imulq	$180, %rax, %rax
	addq	%rax, %rdx
	movslq	-4(%rbp), %rax
	imulq	$12, %rax, %rax
	addq	%rax, %rdx
	cmpl	$-128, (%rdx)
	jge	.LBB5_42
# %bb.41:                               # %cond.true178
                                        #   in Loop: Header=BB5_27 Depth=2
	movl	$4294967168, %eax       # imm = 0xFFFFFF80
	jmp	.LBB5_46
.LBB5_42:                               # %cond.false179
                                        #   in Loop: Header=BB5_27 Depth=2
	movslq	-8(%rbp), %rax
	imulq	$180, %rax, %rax
	leaq	-928(%rbp), %rcx
	addq	%rax, %rcx
	movslq	-4(%rbp), %rax
	imulq	$12, %rax, %rax
	addq	%rax, %rcx
	cmpl	$127, (%rcx)
	jle	.LBB5_44
# %bb.43:                               # %cond.true187
                                        #   in Loop: Header=BB5_27 Depth=2
	movl	$127, %eax
	jmp	.LBB5_45
.LBB5_44:                               # %cond.false188
                                        #   in Loop: Header=BB5_27 Depth=2
	movslq	-8(%rbp), %rax
	imulq	$180, %rax, %rax
	leaq	-928(%rbp), %rcx
	addq	%rax, %rcx
	movslq	-4(%rbp), %rax
	imulq	$12, %rax, %rax
	addq	%rax, %rcx
	movl	(%rcx), %eax
.LBB5_45:                               # %cond.end194
                                        #   in Loop: Header=BB5_27 Depth=2
.LBB5_46:                               # %cond.end196
                                        #   in Loop: Header=BB5_27 Depth=2
	movslq	-8(%rbp), %rcx
	imulq	$180, %rcx, %rcx
	leaq	-928(%rbp), %rdx
	addq	%rcx, %rdx
	movslq	-4(%rbp), %rcx
	imulq	$12, %rcx, %rcx
	addq	%rcx, %rdx
	movl	%eax, (%rdx)
	movl	-40(%rbp), %eax
	movslq	-8(%rbp), %rcx
	imulq	$180, %rcx, %rcx
	leaq	-560(%rbp), %rdx
	addq	%rcx, %rdx
	movslq	-4(%rbp), %rcx
	imulq	$12, %rcx, %rcx
	addq	%rcx, %rdx
	movl	%eax, (%rdx)
.LBB5_47:                               # %if.end209
                                        #   in Loop: Header=BB5_27 Depth=2
	movl	-36(%rbp), %eax
	movslq	-8(%rbp), %rcx
	imulq	$180, %rcx, %rcx
	leaq	-560(%rbp), %rdx
	movq	%rdx, %rsi
	addq	%rcx, %rsi
	movslq	-4(%rbp), %rcx
	imulq	$12, %rcx, %rcx
	addq	%rcx, %rsi
	movl	%eax, 4(%rsi)
	movl	-32(%rbp), %eax
	movslq	-8(%rbp), %rcx
	imulq	$180, %rcx, %rcx
	addq	%rcx, %rdx
	movslq	-4(%rbp), %rcx
	imulq	$12, %rcx, %rcx
	addq	%rcx, %rdx
	movl	%eax, 8(%rdx)
	movl	$0, -12(%rbp)
.LBB5_48:                               # %for.cond222
                                        #   Parent Loop BB5_25 Depth=1
                                        #     Parent Loop BB5_27 Depth=2
                                        # =>    This Inner Loop Header: Depth=3
	movl	-12(%rbp), %eax
	movq	img, %rcx
	movl	60(%rcx), %ecx
	movq	img, %rdx
	imull	52(%rdx), %ecx
	cmpl	%ecx, %eax
	jge	.LBB5_57
# %bb.49:                               # %for.body228
                                        #   in Loop: Header=BB5_48 Depth=3
	movq	-48(%rbp), %rax
	movslq	-12(%rbp), %rcx
	movzwl	(%rax,%rcx,2), %eax
	movslq	-8(%rbp), %rcx
	imulq	$180, %rcx, %rcx
	leaq	-560(%rbp), %rdx
	addq	%rcx, %rdx
	movslq	-4(%rbp), %rcx
	imulq	$12, %rcx, %rcx
	addq	%rcx, %rdx
	imull	(%rdx), %eax
	addl	wp_luma_round, %eax
	movl	luma_log_weight_denom, %ecx
                                        # kill: def $cl killed $ecx
	sarl	%cl, %eax
	movslq	-8(%rbp), %rcx
	imulq	$180, %rcx, %rcx
	leaq	-928(%rbp), %rdx
	addq	%rcx, %rdx
	movslq	-4(%rbp), %rcx
	imulq	$12, %rcx, %rcx
	addq	%rcx, %rdx
	addl	(%rdx), %eax
	cmpl	$0, %eax
	jge	.LBB5_51
# %bb.50:                               # %cond.true247
                                        #   in Loop: Header=BB5_48 Depth=3
	xorl	%eax, %eax
	jmp	.LBB5_55
.LBB5_51:                               # %cond.false248
                                        #   in Loop: Header=BB5_48 Depth=3
	movq	-48(%rbp), %rax
	movslq	-12(%rbp), %rcx
	movzwl	(%rax,%rcx,2), %eax
	movslq	-8(%rbp), %rcx
	imulq	$180, %rcx, %rcx
	leaq	-560(%rbp), %rdx
	addq	%rcx, %rdx
	movslq	-4(%rbp), %rcx
	imulq	$12, %rcx, %rcx
	addq	%rcx, %rdx
	imull	(%rdx), %eax
	addl	wp_luma_round, %eax
	movl	luma_log_weight_denom, %ecx
                                        # kill: def $cl killed $ecx
	sarl	%cl, %eax
	movslq	-8(%rbp), %rcx
	imulq	$180, %rcx, %rcx
	leaq	-928(%rbp), %rdx
	addq	%rcx, %rdx
	movslq	-4(%rbp), %rcx
	imulq	$12, %rcx, %rcx
	addq	%rcx, %rdx
	addl	(%rdx), %eax
	movq	img, %rcx
	cmpl	72684(%rcx), %eax
	jle	.LBB5_53
# %bb.52:                               # %cond.true268
                                        #   in Loop: Header=BB5_48 Depth=3
	movq	img, %rax
	movl	72684(%rax), %eax
	jmp	.LBB5_54
.LBB5_53:                               # %cond.false270
                                        #   in Loop: Header=BB5_48 Depth=3
	movq	-48(%rbp), %rax
	movslq	-12(%rbp), %rcx
	movzwl	(%rax,%rcx,2), %eax
	movslq	-8(%rbp), %rcx
	imulq	$180, %rcx, %rcx
	leaq	-560(%rbp), %rdx
	addq	%rcx, %rdx
	movslq	-4(%rbp), %rcx
	imulq	$12, %rcx, %rcx
	addq	%rcx, %rdx
	imull	(%rdx), %eax
	addl	wp_luma_round, %eax
	movl	luma_log_weight_denom, %ecx
                                        # kill: def $cl killed $ecx
	sarl	%cl, %eax
	movslq	-8(%rbp), %rcx
	imulq	$180, %rcx, %rcx
	leaq	-928(%rbp), %rdx
	addq	%rcx, %rdx
	movslq	-4(%rbp), %rcx
	imulq	$12, %rcx, %rcx
	addq	%rcx, %rdx
	addl	(%rdx), %eax
.LBB5_54:                               # %cond.end288
                                        #   in Loop: Header=BB5_48 Depth=3
.LBB5_55:                               # %cond.end290
                                        #   in Loop: Header=BB5_48 Depth=3
	movq	-72(%rbp), %rcx
	movslq	-12(%rbp), %rdx
	movw	%ax, (%rcx,%rdx,2)
# %bb.56:                               # %for.inc295
                                        #   in Loop: Header=BB5_48 Depth=3
	movl	-12(%rbp), %eax
	addl	$1, %eax
	movl	%eax, -12(%rbp)
	jmp	.LBB5_48
.LBB5_57:                               # %for.end297
                                        #   in Loop: Header=BB5_27 Depth=2
	movl	$0, -12(%rbp)
.LBB5_58:                               # %for.cond298
                                        #   Parent Loop BB5_25 Depth=1
                                        #     Parent Loop BB5_27 Depth=2
                                        # =>    This Loop Header: Depth=3
                                        #         Child Loop BB5_60 Depth 4
	movl	-12(%rbp), %eax
	movq	img, %rcx
	movl	60(%rcx), %ecx
	addl	$8, %ecx
	shll	$2, %ecx
	cmpl	%ecx, %eax
	jge	.LBB5_71
# %bb.59:                               # %for.body304
                                        #   in Loop: Header=BB5_58 Depth=3
	movl	$0, -16(%rbp)
.LBB5_60:                               # %for.cond305
                                        #   Parent Loop BB5_25 Depth=1
                                        #     Parent Loop BB5_27 Depth=2
                                        #       Parent Loop BB5_58 Depth=3
                                        # =>      This Inner Loop Header: Depth=4
	movl	-16(%rbp), %eax
	movq	img, %rcx
	movl	52(%rcx), %ecx
	addl	$8, %ecx
	shll	$2, %ecx
	cmpl	%ecx, %eax
	jge	.LBB5_69
# %bb.61:                               # %for.body311
                                        #   in Loop: Header=BB5_60 Depth=4
	movq	listX, %rax
	movslq	-4(%rbp), %rcx
	movq	(%rax,%rcx,8), %rax
	movq	6448(%rax), %rax
	movslq	-12(%rbp), %rcx
	movq	(%rax,%rcx,8), %rax
	movslq	-16(%rbp), %rcx
	movzwl	(%rax,%rcx,2), %eax
	movslq	-8(%rbp), %rcx
	imulq	$180, %rcx, %rcx
	leaq	-560(%rbp), %rdx
	addq	%rcx, %rdx
	movslq	-4(%rbp), %rcx
	imulq	$12, %rcx, %rcx
	addq	%rcx, %rdx
	imull	(%rdx), %eax
	addl	wp_luma_round, %eax
	movl	luma_log_weight_denom, %ecx
                                        # kill: def $cl killed $ecx
	sarl	%cl, %eax
	movslq	-8(%rbp), %rcx
	imulq	$180, %rcx, %rcx
	leaq	-928(%rbp), %rdx
	addq	%rcx, %rdx
	movslq	-4(%rbp), %rcx
	imulq	$12, %rcx, %rcx
	addq	%rcx, %rdx
	addl	(%rdx), %eax
	cmpl	$0, %eax
	jge	.LBB5_63
# %bb.62:                               # %cond.true335
                                        #   in Loop: Header=BB5_60 Depth=4
	xorl	%eax, %eax
	jmp	.LBB5_67
.LBB5_63:                               # %cond.false336
                                        #   in Loop: Header=BB5_60 Depth=4
	movq	listX, %rax
	movslq	-4(%rbp), %rcx
	movq	(%rax,%rcx,8), %rax
	movq	6448(%rax), %rax
	movslq	-12(%rbp), %rcx
	movq	(%rax,%rcx,8), %rax
	movslq	-16(%rbp), %rcx
	movzwl	(%rax,%rcx,2), %eax
	movslq	-8(%rbp), %rcx
	imulq	$180, %rcx, %rcx
	leaq	-560(%rbp), %rdx
	addq	%rcx, %rdx
	movslq	-4(%rbp), %rcx
	imulq	$12, %rcx, %rcx
	addq	%rcx, %rdx
	imull	(%rdx), %eax
	addl	wp_luma_round, %eax
	movl	luma_log_weight_denom, %ecx
                                        # kill: def $cl killed $ecx
	sarl	%cl, %eax
	movslq	-8(%rbp), %rcx
	imulq	$180, %rcx, %rcx
	leaq	-928(%rbp), %rdx
	addq	%rcx, %rdx
	movslq	-4(%rbp), %rcx
	imulq	$12, %rcx, %rcx
	addq	%rcx, %rdx
	addl	(%rdx), %eax
	movq	img, %rcx
	cmpl	72684(%rcx), %eax
	jle	.LBB5_65
# %bb.64:                               # %cond.true362
                                        #   in Loop: Header=BB5_60 Depth=4
	movq	img, %rax
	movl	72684(%rax), %eax
	jmp	.LBB5_66
.LBB5_65:                               # %cond.false364
                                        #   in Loop: Header=BB5_60 Depth=4
	movq	listX, %rax
	movslq	-4(%rbp), %rcx
	movq	(%rax,%rcx,8), %rax
	movq	6448(%rax), %rax
	movslq	-12(%rbp), %rcx
	movq	(%rax,%rcx,8), %rax
	movslq	-16(%rbp), %rcx
	movzwl	(%rax,%rcx,2), %eax
	movslq	-8(%rbp), %rcx
	imulq	$180, %rcx, %rcx
	leaq	-560(%rbp), %rdx
	addq	%rcx, %rdx
	movslq	-4(%rbp), %rcx
	imulq	$12, %rcx, %rcx
	addq	%rcx, %rdx
	imull	(%rdx), %eax
	addl	wp_luma_round, %eax
	movl	luma_log_weight_denom, %ecx
                                        # kill: def $cl killed $ecx
	sarl	%cl, %eax
	movslq	-8(%rbp), %rcx
	imulq	$180, %rcx, %rcx
	leaq	-928(%rbp), %rdx
	addq	%rcx, %rdx
	movslq	-4(%rbp), %rcx
	imulq	$12, %rcx, %rcx
	addq	%rcx, %rdx
	addl	(%rdx), %eax
.LBB5_66:                               # %cond.end387
                                        #   in Loop: Header=BB5_60 Depth=4
.LBB5_67:                               # %cond.end389
                                        #   in Loop: Header=BB5_60 Depth=4
	movq	listX, %rcx
	movslq	-4(%rbp), %rdx
	movq	(%rcx,%rdx,8), %rcx
	movq	6456(%rcx), %rcx
	movslq	-12(%rbp), %rdx
	movq	(%rcx,%rdx,8), %rcx
	movslq	-16(%rbp), %rdx
	movw	%ax, (%rcx,%rdx,2)
# %bb.68:                               # %for.inc398
                                        #   in Loop: Header=BB5_60 Depth=4
	movl	-16(%rbp), %eax
	addl	$1, %eax
	movl	%eax, -16(%rbp)
	jmp	.LBB5_60
.LBB5_69:                               # %for.end400
                                        #   in Loop: Header=BB5_58 Depth=3
	jmp	.LBB5_70
.LBB5_70:                               # %for.inc401
                                        #   in Loop: Header=BB5_58 Depth=3
	movl	-12(%rbp), %eax
	addl	$1, %eax
	movl	%eax, -12(%rbp)
	jmp	.LBB5_58
.LBB5_71:                               # %for.end403
                                        #   in Loop: Header=BB5_27 Depth=2
	jmp	.LBB5_72
.LBB5_72:                               # %for.inc404
                                        #   in Loop: Header=BB5_27 Depth=2
	movl	-4(%rbp), %eax
	addl	$1, %eax
	movl	%eax, -4(%rbp)
	jmp	.LBB5_27
.LBB5_73:                               # %for.end406
                                        #   in Loop: Header=BB5_25 Depth=1
	jmp	.LBB5_74
.LBB5_74:                               # %for.inc407
                                        #   in Loop: Header=BB5_25 Depth=1
	movl	-8(%rbp), %eax
	addl	$1, %eax
	movl	%eax, -8(%rbp)
	jmp	.LBB5_25
.LBB5_75:                               # %for.end409
	movl	$0, -8(%rbp)
.LBB5_76:                               # %for.cond410
                                        # =>This Loop Header: Depth=1
                                        #     Child Loop BB5_78 Depth 2
                                        #       Child Loop BB5_80 Depth 3
	movl	-8(%rbp), %eax
	movl	-28(%rbp), %ecx
	addl	$2, %ecx
	cmpl	%ecx, %eax
	jge	.LBB5_87
# %bb.77:                               # %for.body414
                                        #   in Loop: Header=BB5_76 Depth=1
	movl	$0, -24(%rbp)
.LBB5_78:                               # %for.cond415
                                        #   Parent Loop BB5_76 Depth=1
                                        # =>  This Loop Header: Depth=2
                                        #       Child Loop BB5_80 Depth 3
	movl	-24(%rbp), %eax
	movslq	-8(%rbp), %rcx
	cmpl	listXsize(,%rcx,4), %eax
	jge	.LBB5_85
# %bb.79:                               # %for.body420
                                        #   in Loop: Header=BB5_78 Depth=2
	movl	$0, -20(%rbp)
.LBB5_80:                               # %for.cond421
                                        #   Parent Loop BB5_76 Depth=1
                                        #     Parent Loop BB5_78 Depth=2
                                        # =>    This Inner Loop Header: Depth=3
	cmpl	$3, -20(%rbp)
	jge	.LBB5_83
# %bb.81:                               # %for.body424
                                        #   in Loop: Header=BB5_80 Depth=3
	movslq	-8(%rbp), %rax
	imulq	$180, %rax, %rax
	leaq	-560(%rbp), %rcx
	addq	%rax, %rcx
	movslq	-24(%rbp), %rax
	imulq	$12, %rax, %rax
	addq	%rax, %rcx
	movslq	-20(%rbp), %rax
	movl	(%rcx,%rax,4), %eax
	movq	wp_weight, %rcx
	movslq	-8(%rbp), %rdx
	movq	(%rcx,%rdx,8), %rcx
	movslq	-24(%rbp), %rdx
	movq	(%rcx,%rdx,8), %rcx
	movslq	-20(%rbp), %rdx
	movl	%eax, (%rcx,%rdx,4)
	movslq	-8(%rbp), %rax
	imulq	$180, %rax, %rax
	leaq	-928(%rbp), %rcx
	addq	%rax, %rcx
	movslq	-24(%rbp), %rax
	imulq	$12, %rax, %rax
	addq	%rax, %rcx
	movslq	-20(%rbp), %rax
	movl	(%rcx,%rax,4), %eax
	movq	wp_offset, %rcx
	movslq	-8(%rbp), %rdx
	movq	(%rcx,%rdx,8), %rcx
	movslq	-24(%rbp), %rdx
	movq	(%rcx,%rdx,8), %rcx
	movslq	-20(%rbp), %rdx
	movl	%eax, (%rcx,%rdx,4)
# %bb.82:                               # %for.inc449
                                        #   in Loop: Header=BB5_80 Depth=3
	movl	-20(%rbp), %eax
	addl	$1, %eax
	movl	%eax, -20(%rbp)
	jmp	.LBB5_80
.LBB5_83:                               # %for.end451
                                        #   in Loop: Header=BB5_78 Depth=2
	jmp	.LBB5_84
.LBB5_84:                               # %for.inc452
                                        #   in Loop: Header=BB5_78 Depth=2
	movl	-24(%rbp), %eax
	addl	$1, %eax
	movl	%eax, -24(%rbp)
	jmp	.LBB5_78
.LBB5_85:                               # %for.end454
                                        #   in Loop: Header=BB5_76 Depth=1
	jmp	.LBB5_86
.LBB5_86:                               # %for.inc455
                                        #   in Loop: Header=BB5_76 Depth=1
	movl	-8(%rbp), %eax
	addl	$1, %eax
	movl	%eax, -8(%rbp)
	jmp	.LBB5_76
.LBB5_87:                               # %for.end457
	cmpl	$454397358, -64(%rbp)   # imm = 0x1B158DAE
	jne	.LBB5_89
.LBB5_88:
	addq	$928, %rsp              # imm = 0x3A0
	popq	%rbp
	.cfi_def_cfa %rsp, 8
	retq
.LBB5_89:                               # %func_exit
	.cfi_def_cfa %rbp, 16
	callq	detect_breach
	jmp	.LBB5_88
.Lfunc_end5:
	.size	estimate_weighting_factor_P_slice.2, .Lfunc_end5-estimate_weighting_factor_P_slice.2
	.cfi_endproc
                                        # -- End function
	.section	.rodata.cst8,"aM",@progbits,8
	.p2align	3               # -- Begin function test_wp_B_slice.3
.LCPI6_0:
	.quad	4602678819172646912     # double 0.5
	.text
	.globl	test_wp_B_slice.3
	.p2align	4, 0x90
	.type	test_wp_B_slice.3,@function
test_wp_B_slice.3:                      # @test_wp_B_slice.3
	.cfi_startproc
# %bb.0:                                # %entry
	pushq	%rbp
	.cfi_def_cfa_offset 16
	.cfi_offset %rbp, -16
	movq	%rsp, %rbp
	.cfi_def_cfa_register %rbp
	pushq	%rbx
	subq	$35416, %rsp            # imm = 0x8A58
	.cfi_offset %rbx, -24
	movl	$745976625, -88(%rbp)   # imm = 0x2C76B331
	movl	%edi, -84(%rbp)
	vxorps	%xmm0, %xmm0, %xmm0
	vmovsd	%xmm0, -72(%rbp)
	movq	img, %rax
	cmpl	$0, 72400(%rax)
	je	.LBB6_3
# %bb.1:                                # %land.lhs.true
	movq	img, %rax
	movq	14168(%rax), %rax
	movq	img, %rcx
	movslq	12(%rcx), %rcx
	imulq	$632, %rcx, %rcx        # imm = 0x278
	addq	%rcx, %rax
	cmpl	$0, 532(%rax)
	je	.LBB6_3
# %bb.2:                                # %cond.true
	movq	img, %rax
	movl	12(%rax), %eax
	cltd
	movl	$2, %ecx
	idivl	%ecx
	cmpl	$0, %edx
	movl	$4, %eax
	cmovnel	%eax, %ecx
	jmp	.LBB6_4
.LBB6_3:                                # %cond.false
	xorl	%ecx, %ecx
	jmp	.LBB6_4
.LBB6_4:                                # %cond.end
	movl	%ecx, -36(%rbp)
	movl	$0, -48(%rbp)
	movl	$5, luma_log_weight_denom
	movl	$5, chroma_log_weight_denom
	movl	luma_log_weight_denom, %ecx
	subl	$1, %ecx
                                        # kill: def $cl killed $ecx
	movl	$1, %eax
	movl	$1, %edx
	shll	%cl, %edx
	movl	%edx, wp_luma_round
	movl	chroma_log_weight_denom, %ecx
	subl	$1, %ecx
                                        # kill: def $cl killed $ecx
	movl	$1, %edx
	shll	%cl, %edx
	movl	%edx, wp_chroma_round
	movl	luma_log_weight_denom, %ecx
                                        # kill: def $cl killed $ecx
	movl	$1, %edx
	shll	%cl, %edx
	movl	%edx, -40(%rbp)
	movl	chroma_log_weight_denom, %ecx
                                        # kill: def $cl killed $ecx
	shll	%cl, %eax
	movl	%eax, -64(%rbp)
	movl	$0, -12(%rbp)
.LBB6_5:                                # %for.cond
                                        # =>This Loop Header: Depth=1
                                        #     Child Loop BB6_7 Depth 2
                                        #       Child Loop BB6_9 Depth 3
	movl	-12(%rbp), %eax
	movl	-36(%rbp), %ecx
	addl	$2, %ecx
	cmpl	%ecx, %eax
	jge	.LBB6_16
# %bb.6:                                # %for.body
                                        #   in Loop: Header=BB6_5 Depth=1
	movl	$0, -24(%rbp)
.LBB6_7:                                # %for.cond9
                                        #   Parent Loop BB6_5 Depth=1
                                        # =>  This Loop Header: Depth=2
                                        #       Child Loop BB6_9 Depth 3
	movl	-24(%rbp), %eax
	movslq	-12(%rbp), %rcx
	cmpl	listXsize(,%rcx,4), %eax
	jge	.LBB6_14
# %bb.8:                                # %for.body13
                                        #   in Loop: Header=BB6_7 Depth=2
	movl	$0, -32(%rbp)
.LBB6_9:                                # %for.cond14
                                        #   Parent Loop BB6_5 Depth=1
                                        #     Parent Loop BB6_7 Depth=2
                                        # =>    This Inner Loop Header: Depth=3
	cmpl	$3, -32(%rbp)
	jge	.LBB6_12
# %bb.10:                               # %for.body16
                                        #   in Loop: Header=BB6_9 Depth=3
	movl	-40(%rbp), %eax
	movq	wp_weight, %rcx
	movslq	-12(%rbp), %rdx
	movq	(%rcx,%rdx,8), %rcx
	movslq	-24(%rbp), %rdx
	movq	(%rcx,%rdx,8), %rcx
	movslq	-32(%rbp), %rdx
	movl	%eax, (%rcx,%rdx,4)
	movq	wp_offset, %rax
	movslq	-12(%rbp), %rcx
	movq	(%rax,%rcx,8), %rax
	movslq	-24(%rbp), %rcx
	movq	(%rax,%rcx,8), %rax
	movslq	-32(%rbp), %rcx
	movl	$0, (%rax,%rcx,4)
	movslq	-12(%rbp), %rax
	imulq	$180, %rax, %rax
	leaq	-3008(%rbp), %rcx
	addq	%rax, %rcx
	movslq	-24(%rbp), %rax
	imulq	$12, %rax, %rax
	addq	%rax, %rcx
	movslq	-32(%rbp), %rax
	movl	$0, (%rcx,%rax,4)
	movl	-40(%rbp), %eax
	movslq	-12(%rbp), %rcx
	imulq	$180, %rcx, %rcx
	leaq	-1920(%rbp), %rdx
	addq	%rcx, %rdx
	movslq	-24(%rbp), %rcx
	imulq	$12, %rcx, %rcx
	addq	%rcx, %rdx
	movslq	-32(%rbp), %rcx
	movl	%eax, (%rdx,%rcx,4)
# %bb.11:                               # %for.inc
                                        #   in Loop: Header=BB6_9 Depth=3
	movl	-32(%rbp), %eax
	addl	$1, %eax
	movl	%eax, -32(%rbp)
	jmp	.LBB6_9
.LBB6_12:                               # %for.end
                                        #   in Loop: Header=BB6_7 Depth=2
	jmp	.LBB6_13
.LBB6_13:                               # %for.inc41
                                        #   in Loop: Header=BB6_7 Depth=2
	movl	-24(%rbp), %eax
	addl	$1, %eax
	movl	%eax, -24(%rbp)
	jmp	.LBB6_7
.LBB6_14:                               # %for.end43
                                        #   in Loop: Header=BB6_5 Depth=1
	jmp	.LBB6_15
.LBB6_15:                               # %for.inc44
                                        #   in Loop: Header=BB6_5 Depth=1
	movl	-12(%rbp), %eax
	addl	$1, %eax
	movl	%eax, -12(%rbp)
	jmp	.LBB6_5
.LBB6_16:                               # %for.end46
	movl	$0, -12(%rbp)
.LBB6_17:                               # %for.cond47
                                        # =>This Loop Header: Depth=1
                                        #     Child Loop BB6_19 Depth 2
                                        #       Child Loop BB6_33 Depth 3
	movl	-12(%rbp), %eax
	cmpl	listXsize, %eax
	jge	.LBB6_52
# %bb.18:                               # %for.body49
                                        #   in Loop: Header=BB6_17 Depth=1
	movl	$0, -24(%rbp)
.LBB6_19:                               # %for.cond50
                                        #   Parent Loop BB6_17 Depth=1
                                        # =>  This Loop Header: Depth=2
                                        #       Child Loop BB6_33 Depth 3
	movl	-24(%rbp), %eax
	cmpl	listXsize+4, %eax
	jge	.LBB6_50
# %bb.20:                               # %for.body52
                                        #   in Loop: Header=BB6_19 Depth=2
	movq	listX+8, %rax
	movslq	-24(%rbp), %rcx
	movq	(%rax,%rcx,8), %rax
	movl	4(%rax), %eax
	movq	listX, %rcx
	movslq	-12(%rbp), %rdx
	movq	(%rcx,%rdx,8), %rcx
	subl	4(%rcx), %eax
	cmpl	$-128, %eax
	jge	.LBB6_22
# %bb.21:                               # %cond.true60
                                        #   in Loop: Header=BB6_19 Depth=2
	movl	$4294967168, %eax       # imm = 0xFFFFFF80
	jmp	.LBB6_26
.LBB6_22:                               # %cond.false61
                                        #   in Loop: Header=BB6_19 Depth=2
	movq	listX+8, %rax
	movslq	-24(%rbp), %rcx
	movq	(%rax,%rcx,8), %rax
	movl	4(%rax), %eax
	movq	listX, %rcx
	movslq	-12(%rbp), %rdx
	movq	(%rcx,%rdx,8), %rcx
	subl	4(%rcx), %eax
	cmpl	$127, %eax
	jle	.LBB6_24
# %bb.23:                               # %cond.true70
                                        #   in Loop: Header=BB6_19 Depth=2
	movl	$127, %eax
	jmp	.LBB6_25
.LBB6_24:                               # %cond.false71
                                        #   in Loop: Header=BB6_19 Depth=2
	movq	listX+8, %rax
	movslq	-24(%rbp), %rcx
	movq	(%rax,%rcx,8), %rax
	movl	4(%rax), %eax
	movq	listX, %rcx
	movslq	-12(%rbp), %rdx
	movq	(%rcx,%rdx,8), %rcx
	subl	4(%rcx), %eax
.LBB6_25:                               # %cond.end79
                                        #   in Loop: Header=BB6_19 Depth=2
.LBB6_26:                               # %cond.end81
                                        #   in Loop: Header=BB6_19 Depth=2
	movl	%eax, -60(%rbp)
	movq	enc_picture, %rax
	movl	4(%rax), %eax
	movq	listX, %rcx
	movslq	-12(%rbp), %rdx
	movq	(%rcx,%rdx,8), %rcx
	subl	4(%rcx), %eax
	cmpl	$-128, %eax
	jge	.LBB6_28
# %bb.27:                               # %cond.true89
                                        #   in Loop: Header=BB6_19 Depth=2
	movl	$4294967168, %eax       # imm = 0xFFFFFF80
	jmp	.LBB6_32
.LBB6_28:                               # %cond.false90
                                        #   in Loop: Header=BB6_19 Depth=2
	movq	enc_picture, %rax
	movl	4(%rax), %eax
	movq	listX, %rcx
	movslq	-12(%rbp), %rdx
	movq	(%rcx,%rdx,8), %rcx
	subl	4(%rcx), %eax
	cmpl	$127, %eax
	jle	.LBB6_30
# %bb.29:                               # %cond.true97
                                        #   in Loop: Header=BB6_19 Depth=2
	movl	$127, %eax
	jmp	.LBB6_31
.LBB6_30:                               # %cond.false98
                                        #   in Loop: Header=BB6_19 Depth=2
	movq	enc_picture, %rax
	movl	4(%rax), %eax
	movq	listX, %rcx
	movslq	-12(%rbp), %rdx
	movq	(%rcx,%rdx,8), %rcx
	subl	4(%rcx), %eax
.LBB6_31:                               # %cond.end104
                                        #   in Loop: Header=BB6_19 Depth=2
.LBB6_32:                               # %cond.end106
                                        #   in Loop: Header=BB6_19 Depth=2
	movl	%eax, -56(%rbp)
	movl	$0, -20(%rbp)
.LBB6_33:                               # %for.cond108
                                        #   Parent Loop BB6_17 Depth=1
                                        #     Parent Loop BB6_19 Depth=2
                                        # =>    This Inner Loop Header: Depth=3
	cmpl	$3, -20(%rbp)
	jge	.LBB6_48
# %bb.34:                               # %for.body110
                                        #   in Loop: Header=BB6_33 Depth=3
	cmpl	$0, -60(%rbp)
	jne	.LBB6_36
# %bb.35:                               # %if.then
                                        #   in Loop: Header=BB6_33 Depth=3
	leaq	-35424(%rbp), %rax
	leaq	-19216(%rbp), %rcx
	movq	%rcx, %rdx
	addq	$2700, %rdx             # imm = 0xA8C
	movslq	-12(%rbp), %rsi
	imulq	$180, %rsi, %rsi
	addq	%rsi, %rdx
	movslq	-24(%rbp), %rsi
	imulq	$12, %rsi, %rsi
	addq	%rsi, %rdx
	movslq	-20(%rbp), %rsi
	movl	$32, (%rdx,%rsi,4)
	movslq	-12(%rbp), %rdx
	imulq	$180, %rdx, %rdx
	addq	%rdx, %rcx
	movslq	-24(%rbp), %rdx
	imulq	$12, %rdx, %rdx
	addq	%rdx, %rcx
	movslq	-20(%rbp), %rdx
	movl	$32, (%rcx,%rdx,4)
	movq	%rax, %rcx
	addq	$2700, %rcx             # imm = 0xA8C
	movslq	-12(%rbp), %rdx
	imulq	$180, %rdx, %rdx
	addq	%rdx, %rcx
	movslq	-24(%rbp), %rdx
	imulq	$12, %rdx, %rdx
	addq	%rdx, %rcx
	movslq	-20(%rbp), %rdx
	movl	$0, (%rcx,%rdx,4)
	movslq	-12(%rbp), %rcx
	imulq	$180, %rcx, %rcx
	addq	%rcx, %rax
	movslq	-24(%rbp), %rcx
	imulq	$12, %rcx, %rcx
	addq	%rcx, %rax
	movslq	-20(%rbp), %rcx
	movl	$0, (%rax,%rcx,4)
	jmp	.LBB6_46
.LBB6_36:                               # %if.else
                                        #   in Loop: Header=BB6_33 Depth=3
	movl	-60(%rbp), %eax
	cltd
	movl	$2, %ecx
	idivl	%ecx
	movl	%eax, %edi
	callq	abs
	addl	$16384, %eax            # imm = 0x4000
	cltd
	idivl	-60(%rbp)
	movl	%eax, -52(%rbp)
	movl	-52(%rbp), %eax
	imull	-56(%rbp), %eax
	addl	$32, %eax
	sarl	$6, %eax
	cmpl	$-1024, %eax            # imm = 0xFC00
	jge	.LBB6_38
# %bb.37:                               # %cond.true144
                                        #   in Loop: Header=BB6_33 Depth=3
	movl	$4294966272, %eax       # imm = 0xFFFFFC00
	jmp	.LBB6_42
.LBB6_38:                               # %cond.false145
                                        #   in Loop: Header=BB6_33 Depth=3
	movl	-52(%rbp), %eax
	imull	-56(%rbp), %eax
	addl	$32, %eax
	sarl	$6, %eax
	cmpl	$1023, %eax             # imm = 0x3FF
	jle	.LBB6_40
# %bb.39:                               # %cond.true150
                                        #   in Loop: Header=BB6_33 Depth=3
	movl	$1023, %eax             # imm = 0x3FF
	jmp	.LBB6_41
.LBB6_40:                               # %cond.false151
                                        #   in Loop: Header=BB6_33 Depth=3
	movl	-52(%rbp), %eax
	imull	-56(%rbp), %eax
	addl	$32, %eax
	sarl	$6, %eax
.LBB6_41:                               # %cond.end155
                                        #   in Loop: Header=BB6_33 Depth=3
.LBB6_42:                               # %cond.end157
                                        #   in Loop: Header=BB6_33 Depth=3
	movl	%eax, -76(%rbp)
	movl	-76(%rbp), %eax
	sarl	$2, %eax
	leaq	-19216(%rbp), %rcx
	movq	%rcx, %rdx
	addq	$2700, %rdx             # imm = 0xA8C
	movslq	-12(%rbp), %rsi
	imulq	$180, %rsi, %rsi
	addq	%rsi, %rdx
	movslq	-24(%rbp), %rsi
	imulq	$12, %rsi, %rsi
	addq	%rsi, %rdx
	movslq	-20(%rbp), %rsi
	movl	%eax, (%rdx,%rsi,4)
	addq	$2700, %rcx             # imm = 0xA8C
	movslq	-12(%rbp), %rax
	imulq	$180, %rax, %rax
	addq	%rax, %rcx
	movslq	-24(%rbp), %rax
	imulq	$12, %rax, %rax
	addq	%rax, %rcx
	movslq	-20(%rbp), %rax
	cmpl	$-64, (%rcx,%rax,4)
	jl	.LBB6_44
# %bb.43:                               # %lor.lhs.false
                                        #   in Loop: Header=BB6_33 Depth=3
	leaq	-19216(%rbp), %rax
	addq	$2700, %rax             # imm = 0xA8C
	movslq	-12(%rbp), %rcx
	imulq	$180, %rcx, %rcx
	addq	%rcx, %rax
	movslq	-24(%rbp), %rcx
	imulq	$12, %rcx, %rcx
	addq	%rcx, %rax
	movslq	-20(%rbp), %rcx
	cmpl	$128, (%rax,%rcx,4)
	jle	.LBB6_45
.LBB6_44:                               # %if.then183
                                        #   in Loop: Header=BB6_33 Depth=3
	leaq	-19216(%rbp), %rax
	addq	$2700, %rax             # imm = 0xA8C
	movslq	-12(%rbp), %rcx
	imulq	$180, %rcx, %rcx
	addq	%rcx, %rax
	movslq	-24(%rbp), %rcx
	imulq	$12, %rcx, %rcx
	addq	%rcx, %rax
	movslq	-20(%rbp), %rcx
	movl	$32, (%rax,%rcx,4)
.LBB6_45:                               # %if.end
                                        #   in Loop: Header=BB6_33 Depth=3
	leaq	-35424(%rbp), %rax
	leaq	-19216(%rbp), %rcx
	movq	%rcx, %rdx
	addq	$2700, %rdx             # imm = 0xA8C
	movslq	-12(%rbp), %rsi
	imulq	$180, %rsi, %rsi
	addq	%rsi, %rdx
	movslq	-24(%rbp), %rsi
	imulq	$12, %rsi, %rsi
	addq	%rsi, %rdx
	movslq	-20(%rbp), %rsi
	movl	$64, %edi
	subl	(%rdx,%rsi,4), %edi
	movslq	-12(%rbp), %rdx
	imulq	$180, %rdx, %rdx
	addq	%rdx, %rcx
	movslq	-24(%rbp), %rdx
	imulq	$12, %rdx, %rdx
	addq	%rdx, %rcx
	movslq	-20(%rbp), %rdx
	movl	%edi, (%rcx,%rdx,4)
	movq	%rax, %rcx
	addq	$2700, %rcx             # imm = 0xA8C
	movslq	-12(%rbp), %rdx
	imulq	$180, %rdx, %rdx
	addq	%rdx, %rcx
	movslq	-24(%rbp), %rdx
	imulq	$12, %rdx, %rdx
	addq	%rdx, %rcx
	movslq	-20(%rbp), %rdx
	movl	$0, (%rcx,%rdx,4)
	movslq	-12(%rbp), %rcx
	imulq	$180, %rcx, %rcx
	addq	%rcx, %rax
	movslq	-24(%rbp), %rcx
	imulq	$12, %rcx, %rcx
	addq	%rcx, %rax
	movslq	-20(%rbp), %rcx
	movl	$0, (%rax,%rcx,4)
.LBB6_46:                               # %if.end220
                                        #   in Loop: Header=BB6_33 Depth=3
	jmp	.LBB6_47
.LBB6_47:                               # %for.inc221
                                        #   in Loop: Header=BB6_33 Depth=3
	movl	-20(%rbp), %eax
	addl	$1, %eax
	movl	%eax, -20(%rbp)
	jmp	.LBB6_33
.LBB6_48:                               # %for.end223
                                        #   in Loop: Header=BB6_19 Depth=2
	jmp	.LBB6_49
.LBB6_49:                               # %for.inc224
                                        #   in Loop: Header=BB6_19 Depth=2
	movl	-24(%rbp), %eax
	addl	$1, %eax
	movl	%eax, -24(%rbp)
	jmp	.LBB6_19
.LBB6_50:                               # %for.end226
                                        #   in Loop: Header=BB6_17 Depth=1
	jmp	.LBB6_51
.LBB6_51:                               # %for.inc227
                                        #   in Loop: Header=BB6_17 Depth=1
	movl	-12(%rbp), %eax
	addl	$1, %eax
	movl	%eax, -12(%rbp)
	jmp	.LBB6_17
.LBB6_52:                               # %for.end229
	cmpl	$1, -84(%rbp)
	jne	.LBB6_77
# %bb.53:                               # %if.then231
	movl	$0, -12(%rbp)
.LBB6_54:                               # %for.cond232
                                        # =>This Loop Header: Depth=1
                                        #     Child Loop BB6_56 Depth 2
                                        #       Child Loop BB6_58 Depth 3
	movl	-12(%rbp), %eax
	cmpl	listXsize, %eax
	jge	.LBB6_68
# %bb.55:                               # %for.body234
                                        #   in Loop: Header=BB6_54 Depth=1
	movl	$0, -24(%rbp)
.LBB6_56:                               # %for.cond235
                                        #   Parent Loop BB6_54 Depth=1
                                        # =>  This Loop Header: Depth=2
                                        #       Child Loop BB6_58 Depth 3
	movl	-24(%rbp), %eax
	cmpl	listXsize+4, %eax
	jge	.LBB6_66
# %bb.57:                               # %for.body237
                                        #   in Loop: Header=BB6_56 Depth=2
	movl	$0, -20(%rbp)
.LBB6_58:                               # %for.cond238
                                        #   Parent Loop BB6_54 Depth=1
                                        #     Parent Loop BB6_56 Depth=2
                                        # =>    This Inner Loop Header: Depth=3
	cmpl	$3, -20(%rbp)
	jge	.LBB6_64
# %bb.59:                               # %for.body240
                                        #   in Loop: Header=BB6_58 Depth=3
	cmpl	$0, -20(%rbp)
	jne	.LBB6_61
# %bb.60:                               # %cond.true242
                                        #   in Loop: Header=BB6_58 Depth=3
	movl	luma_log_weight_denom, %eax
	jmp	.LBB6_62
.LBB6_61:                               # %cond.false243
                                        #   in Loop: Header=BB6_58 Depth=3
	movl	chroma_log_weight_denom, %eax
.LBB6_62:                               # %cond.end244
                                        #   in Loop: Header=BB6_58 Depth=3
	leaq	-19216(%rbp), %rcx
	movl	%eax, -80(%rbp)
	movq	%rcx, %rax
	addq	$2700, %rax             # imm = 0xA8C
	movslq	-12(%rbp), %rdx
	imulq	$180, %rdx, %rdx
	addq	%rdx, %rax
	movslq	-24(%rbp), %rdx
	imulq	$12, %rdx, %rdx
	addq	%rdx, %rax
	movslq	-20(%rbp), %rdx
	movl	(%rax,%rdx,4), %eax
	movq	wbp_weight, %rdx
	movq	8(%rdx), %rdx
	movslq	-12(%rbp), %rsi
	movq	(%rdx,%rsi,8), %rdx
	movslq	-24(%rbp), %rsi
	movq	(%rdx,%rsi,8), %rdx
	movslq	-20(%rbp), %rsi
	movl	%eax, (%rdx,%rsi,4)
	movslq	-12(%rbp), %rax
	imulq	$180, %rax, %rax
	addq	%rax, %rcx
	movslq	-24(%rbp), %rax
	imulq	$12, %rax, %rax
	addq	%rax, %rcx
	movslq	-20(%rbp), %rax
	movl	(%rcx,%rax,4), %eax
	movq	wbp_weight, %rcx
	movq	(%rcx), %rcx
	movslq	-12(%rbp), %rdx
	movq	(%rcx,%rdx,8), %rcx
	movslq	-24(%rbp), %rdx
	movq	(%rcx,%rdx,8), %rcx
	movslq	-20(%rbp), %rdx
	movl	%eax, (%rcx,%rdx,4)
# %bb.63:                               # %for.inc274
                                        #   in Loop: Header=BB6_58 Depth=3
	movl	-20(%rbp), %eax
	addl	$1, %eax
	movl	%eax, -20(%rbp)
	jmp	.LBB6_58
.LBB6_64:                               # %for.end276
                                        #   in Loop: Header=BB6_56 Depth=2
	jmp	.LBB6_65
.LBB6_65:                               # %for.inc277
                                        #   in Loop: Header=BB6_56 Depth=2
	movl	-24(%rbp), %eax
	addl	$1, %eax
	movl	%eax, -24(%rbp)
	jmp	.LBB6_56
.LBB6_66:                               # %for.end279
                                        #   in Loop: Header=BB6_54 Depth=1
	jmp	.LBB6_67
.LBB6_67:                               # %for.inc280
                                        #   in Loop: Header=BB6_54 Depth=1
	movl	-12(%rbp), %eax
	addl	$1, %eax
	movl	%eax, -12(%rbp)
	jmp	.LBB6_54
.LBB6_68:                               # %for.end282
	movl	$0, -16(%rbp)
.LBB6_69:                               # %for.cond283
                                        # =>This Loop Header: Depth=1
                                        #     Child Loop BB6_71 Depth 2
	movl	-16(%rbp), %eax
	movl	-36(%rbp), %ecx
	addl	$2, %ecx
	cmpl	%ecx, %eax
	jge	.LBB6_76
# %bb.70:                               # %for.body286
                                        #   in Loop: Header=BB6_69 Depth=1
	movl	$0, -28(%rbp)
.LBB6_71:                               # %for.cond287
                                        #   Parent Loop BB6_69 Depth=1
                                        # =>  This Inner Loop Header: Depth=2
	movl	-28(%rbp), %eax
	movslq	-16(%rbp), %rcx
	cmpl	listXsize(,%rcx,4), %eax
	jge	.LBB6_74
# %bb.72:                               # %for.body291
                                        #   in Loop: Header=BB6_71 Depth=2
	movl	luma_log_weight_denom, %ecx
                                        # kill: def $cl killed $ecx
	movl	$1, %eax
	movl	$1, %edx
	shll	%cl, %edx
	movq	wp_weight, %rcx
	movslq	-16(%rbp), %rsi
	movq	(%rcx,%rsi,8), %rcx
	movslq	-28(%rbp), %rsi
	movq	(%rcx,%rsi,8), %rcx
	movl	%edx, (%rcx)
	movl	chroma_log_weight_denom, %ecx
                                        # kill: def $cl killed $ecx
	movl	$1, %edx
	shll	%cl, %edx
	movq	wp_weight, %rcx
	movslq	-16(%rbp), %rsi
	movq	(%rcx,%rsi,8), %rcx
	movslq	-28(%rbp), %rsi
	movq	(%rcx,%rsi,8), %rcx
	movl	%edx, 4(%rcx)
	movl	chroma_log_weight_denom, %ecx
                                        # kill: def $cl killed $ecx
	shll	%cl, %eax
	movq	wp_weight, %rcx
	movslq	-16(%rbp), %rdx
	movq	(%rcx,%rdx,8), %rcx
	movslq	-28(%rbp), %rdx
	movq	(%rcx,%rdx,8), %rcx
	movl	%eax, 8(%rcx)
	movq	wp_offset, %rax
	movslq	-16(%rbp), %rcx
	movq	(%rax,%rcx,8), %rax
	movslq	-28(%rbp), %rcx
	movq	(%rax,%rcx,8), %rax
	movl	$0, (%rax)
	movq	wp_offset, %rax
	movslq	-16(%rbp), %rcx
	movq	(%rax,%rcx,8), %rax
	movslq	-28(%rbp), %rcx
	movq	(%rax,%rcx,8), %rax
	movl	$0, 4(%rax)
	movq	wp_offset, %rax
	movslq	-16(%rbp), %rcx
	movq	(%rax,%rcx,8), %rax
	movslq	-28(%rbp), %rcx
	movq	(%rax,%rcx,8), %rax
	movl	$0, 8(%rax)
# %bb.73:                               # %for.inc325
                                        #   in Loop: Header=BB6_71 Depth=2
	movl	-28(%rbp), %eax
	addl	$1, %eax
	movl	%eax, -28(%rbp)
	jmp	.LBB6_71
.LBB6_74:                               # %for.end327
                                        #   in Loop: Header=BB6_69 Depth=1
	jmp	.LBB6_75
.LBB6_75:                               # %for.inc328
                                        #   in Loop: Header=BB6_69 Depth=1
	movl	-16(%rbp), %eax
	addl	$1, %eax
	movl	%eax, -16(%rbp)
	jmp	.LBB6_69
.LBB6_76:                               # %for.end330
	jmp	.LBB6_142
.LBB6_77:                               # %if.else331
	movl	$0, -12(%rbp)
.LBB6_78:                               # %for.cond332
                                        # =>This Loop Header: Depth=1
                                        #     Child Loop BB6_80 Depth 2
	movl	-12(%rbp), %eax
	movq	img, %rcx
	cmpl	60(%rcx), %eax
	jge	.LBB6_85
# %bb.79:                               # %for.body334
                                        #   in Loop: Header=BB6_78 Depth=1
	movl	$0, -24(%rbp)
.LBB6_80:                               # %for.cond335
                                        #   Parent Loop BB6_78 Depth=1
                                        # =>  This Inner Loop Header: Depth=2
	movl	-24(%rbp), %eax
	movq	img, %rcx
	cmpl	52(%rcx), %eax
	jge	.LBB6_83
# %bb.81:                               # %for.body337
                                        #   in Loop: Header=BB6_80 Depth=2
	movq	imgY_org(%rip), %rax
	movslq	-12(%rbp), %rcx
	movq	(%rax,%rcx,8), %rax
	movslq	-24(%rbp), %rcx
	movzwl	(%rax,%rcx,2), %eax
	vcvtsi2sd	%eax, %xmm0, %xmm0
	vaddsd	-72(%rbp), %xmm0, %xmm0
	vmovsd	%xmm0, -72(%rbp)
# %bb.82:                               # %for.inc343
                                        #   in Loop: Header=BB6_80 Depth=2
	movl	-24(%rbp), %eax
	addl	$1, %eax
	movl	%eax, -24(%rbp)
	jmp	.LBB6_80
.LBB6_83:                               # %for.end345
                                        #   in Loop: Header=BB6_78 Depth=1
	jmp	.LBB6_84
.LBB6_84:                               # %for.inc346
                                        #   in Loop: Header=BB6_78 Depth=1
	movl	-12(%rbp), %eax
	addl	$1, %eax
	movl	%eax, -12(%rbp)
	jmp	.LBB6_78
.LBB6_85:                               # %for.end348
	movl	$0, -16(%rbp)
.LBB6_86:                               # %for.cond349
                                        # =>This Loop Header: Depth=1
                                        #     Child Loop BB6_88 Depth 2
                                        #       Child Loop BB6_90 Depth 3
	movl	-16(%rbp), %eax
	movl	-36(%rbp), %ecx
	addl	$2, %ecx
	cmpl	%ecx, %eax
	jge	.LBB6_103
# %bb.87:                               # %for.body353
                                        #   in Loop: Header=BB6_86 Depth=1
	movl	$0, -32(%rbp)
.LBB6_88:                               # %for.cond354
                                        #   Parent Loop BB6_86 Depth=1
                                        # =>  This Loop Header: Depth=2
                                        #       Child Loop BB6_90 Depth 3
	movl	-32(%rbp), %eax
	movslq	-16(%rbp), %rcx
	cmpl	listXsize(,%rcx,4), %eax
	jge	.LBB6_101
# %bb.89:                               # %for.body359
                                        #   in Loop: Header=BB6_88 Depth=2
	movslq	-16(%rbp), %rax
	imulq	$120, %rax, %rax
	leaq	-832(%rbp), %rcx
	addq	%rax, %rcx
	movslq	-32(%rbp), %rax
	vxorps	%xmm0, %xmm0, %xmm0
	vmovsd	%xmm0, (%rcx,%rax,8)
	movslq	-16(%rbp), %rax
	movq	listX(,%rax,8), %rax
	movslq	-32(%rbp), %rcx
	movq	(%rax,%rcx,8), %rax
	movq	6432(%rax), %rax
	movq	%rax, -96(%rbp)
	movslq	-16(%rbp), %rax
	movq	listX(,%rax,8), %rax
	movslq	-32(%rbp), %rcx
	movq	(%rax,%rcx,8), %rax
	movq	6440(%rax), %rax
	movq	%rax, -112(%rbp)
	movl	$0, -12(%rbp)
.LBB6_90:                               # %for.cond372
                                        #   Parent Loop BB6_86 Depth=1
                                        #     Parent Loop BB6_88 Depth=2
                                        # =>    This Inner Loop Header: Depth=3
	movl	-12(%rbp), %eax
	movq	img, %rcx
	movl	60(%rcx), %ecx
	movq	img, %rdx
	imull	52(%rdx), %ecx
	cmpl	%ecx, %eax
	jge	.LBB6_93
# %bb.91:                               # %for.body378
                                        #   in Loop: Header=BB6_90 Depth=3
	movq	-96(%rbp), %rax
	movslq	-12(%rbp), %rcx
	movzwl	(%rax,%rcx,2), %eax
	vcvtsi2sd	%eax, %xmm0, %xmm0
	movslq	-16(%rbp), %rax
	imulq	$120, %rax, %rax
	leaq	-832(%rbp), %rcx
	addq	%rax, %rcx
	movslq	-32(%rbp), %rax
	vaddsd	(%rcx,%rax,8), %xmm0, %xmm0
	vmovsd	%xmm0, (%rcx,%rax,8)
# %bb.92:                               # %for.inc387
                                        #   in Loop: Header=BB6_90 Depth=3
	movl	-12(%rbp), %eax
	addl	$1, %eax
	movl	%eax, -12(%rbp)
	jmp	.LBB6_90
.LBB6_93:                               # %for.end389
                                        #   in Loop: Header=BB6_88 Depth=2
	movslq	-16(%rbp), %rax
	imulq	$120, %rax, %rax
	leaq	-832(%rbp), %rcx
	addq	%rax, %rcx
	movslq	-32(%rbp), %rax
	vmovsd	(%rcx,%rax,8), %xmm0    # xmm0 = mem[0],zero
	vxorps	%xmm1, %xmm1, %xmm1
	vucomisd	%xmm1, %xmm0
	jne	.LBB6_94
	jp	.LBB6_94
	jmp	.LBB6_95
.LBB6_94:                               # %if.then396
                                        #   in Loop: Header=BB6_88 Depth=2
	vmovsd	.LCPI6_0(%rip), %xmm0   # xmm0 = mem[0],zero
	vcvtsi2sdl	-40(%rbp), %xmm0, %xmm1
	vmulsd	-72(%rbp), %xmm1, %xmm1
	movslq	-16(%rbp), %rax
	imulq	$120, %rax, %rax
	leaq	-832(%rbp), %rcx
	addq	%rax, %rcx
	movslq	-32(%rbp), %rax
	vdivsd	(%rcx,%rax,8), %xmm1, %xmm1
	vaddsd	%xmm0, %xmm1, %xmm0
	vcvttsd2si	%xmm0, %eax
	movl	%eax, -44(%rbp)
	jmp	.LBB6_96
.LBB6_95:                               # %if.else406
                                        #   in Loop: Header=BB6_88 Depth=2
	movl	-40(%rbp), %eax
	movl	%eax, -44(%rbp)
.LBB6_96:                               # %if.end407
                                        #   in Loop: Header=BB6_88 Depth=2
	cmpl	$-64, -44(%rbp)
	jl	.LBB6_98
# %bb.97:                               # %lor.lhs.false410
                                        #   in Loop: Header=BB6_88 Depth=2
	cmpl	$127, -44(%rbp)
	jle	.LBB6_99
.LBB6_98:                               # %if.then413
                                        #   in Loop: Header=BB6_88 Depth=2
	movl	-40(%rbp), %eax
	movl	%eax, -44(%rbp)
.LBB6_99:                               # %if.end414
                                        #   in Loop: Header=BB6_88 Depth=2
	movl	$0, -100(%rbp)
	movl	-44(%rbp), %eax
	movslq	-16(%rbp), %rcx
	imulq	$180, %rcx, %rcx
	leaq	-1920(%rbp), %rdx
	movq	%rdx, %rsi
	addq	%rcx, %rsi
	movslq	-32(%rbp), %rcx
	imulq	$12, %rcx, %rcx
	addq	%rcx, %rsi
	movl	%eax, (%rsi)
	movl	-64(%rbp), %eax
	movslq	-16(%rbp), %rcx
	imulq	$180, %rcx, %rcx
	movq	%rdx, %rsi
	addq	%rcx, %rsi
	movslq	-32(%rbp), %rcx
	imulq	$12, %rcx, %rcx
	addq	%rcx, %rsi
	movl	%eax, 4(%rsi)
	movl	-64(%rbp), %eax
	movslq	-16(%rbp), %rcx
	imulq	$180, %rcx, %rcx
	addq	%rcx, %rdx
	movslq	-32(%rbp), %rcx
	imulq	$12, %rcx, %rcx
	addq	%rcx, %rdx
	movl	%eax, 8(%rdx)
	movslq	-16(%rbp), %rax
	imulq	$180, %rax, %rax
	leaq	-3008(%rbp), %rcx
	movq	%rcx, %rdx
	addq	%rax, %rdx
	movslq	-32(%rbp), %rax
	imulq	$12, %rax, %rax
	addq	%rax, %rdx
	movl	$0, (%rdx)
	movslq	-16(%rbp), %rax
	imulq	$180, %rax, %rax
	movq	%rcx, %rdx
	addq	%rax, %rdx
	movslq	-32(%rbp), %rax
	imulq	$12, %rax, %rax
	addq	%rax, %rdx
	movl	$0, 4(%rdx)
	movslq	-16(%rbp), %rax
	imulq	$180, %rax, %rax
	addq	%rax, %rcx
	movslq	-32(%rbp), %rax
	imulq	$12, %rax, %rax
	addq	%rax, %rcx
	movl	$0, 8(%rcx)
# %bb.100:                              # %for.inc445
                                        #   in Loop: Header=BB6_88 Depth=2
	movl	-32(%rbp), %eax
	addl	$1, %eax
	movl	%eax, -32(%rbp)
	jmp	.LBB6_88
.LBB6_101:                              # %for.end447
                                        #   in Loop: Header=BB6_86 Depth=1
	jmp	.LBB6_102
.LBB6_102:                              # %for.inc448
                                        #   in Loop: Header=BB6_86 Depth=1
	movl	-16(%rbp), %eax
	addl	$1, %eax
	movl	%eax, -16(%rbp)
	jmp	.LBB6_86
.LBB6_103:                              # %for.end450
	movq	active_pps, %rax
	cmpl	$1, 196(%rax)
	jne	.LBB6_117
# %bb.104:                              # %if.then453
	movl	$0, -16(%rbp)
.LBB6_105:                              # %for.cond454
                                        # =>This Loop Header: Depth=1
                                        #     Child Loop BB6_107 Depth 2
                                        #       Child Loop BB6_109 Depth 3
	movl	-16(%rbp), %eax
	movl	-36(%rbp), %ecx
	addl	$2, %ecx
	cmpl	%ecx, %eax
	jge	.LBB6_116
# %bb.106:                              # %for.body458
                                        #   in Loop: Header=BB6_105 Depth=1
	movl	$0, -28(%rbp)
.LBB6_107:                              # %for.cond459
                                        #   Parent Loop BB6_105 Depth=1
                                        # =>  This Loop Header: Depth=2
                                        #       Child Loop BB6_109 Depth 3
	movl	-28(%rbp), %eax
	movslq	-16(%rbp), %rcx
	cmpl	listXsize(,%rcx,4), %eax
	jge	.LBB6_114
# %bb.108:                              # %for.body464
                                        #   in Loop: Header=BB6_107 Depth=2
	movl	$0, -20(%rbp)
.LBB6_109:                              # %for.cond465
                                        #   Parent Loop BB6_105 Depth=1
                                        #     Parent Loop BB6_107 Depth=2
                                        # =>    This Inner Loop Header: Depth=3
	cmpl	$3, -20(%rbp)
	jge	.LBB6_112
# %bb.110:                              # %for.body468
                                        #   in Loop: Header=BB6_109 Depth=3
	movslq	-16(%rbp), %rax
	imulq	$180, %rax, %rax
	leaq	-1920(%rbp), %rcx
	addq	%rax, %rcx
	movslq	-28(%rbp), %rax
	imulq	$12, %rax, %rax
	addq	%rax, %rcx
	movslq	-20(%rbp), %rax
	movl	(%rcx,%rax,4), %eax
	movq	wp_weight, %rcx
	movslq	-16(%rbp), %rdx
	movq	(%rcx,%rdx,8), %rcx
	movslq	-28(%rbp), %rdx
	movq	(%rcx,%rdx,8), %rcx
	movslq	-20(%rbp), %rdx
	movl	%eax, (%rcx,%rdx,4)
	movslq	-16(%rbp), %rax
	imulq	$180, %rax, %rax
	leaq	-3008(%rbp), %rcx
	addq	%rax, %rcx
	movslq	-28(%rbp), %rax
	imulq	$12, %rax, %rax
	addq	%rax, %rcx
	movslq	-20(%rbp), %rax
	movl	(%rcx,%rax,4), %eax
	movq	wp_offset, %rcx
	movslq	-16(%rbp), %rdx
	movq	(%rcx,%rdx,8), %rcx
	movslq	-28(%rbp), %rdx
	movq	(%rcx,%rdx,8), %rcx
	movslq	-20(%rbp), %rdx
	movl	%eax, (%rcx,%rdx,4)
# %bb.111:                              # %for.inc493
                                        #   in Loop: Header=BB6_109 Depth=3
	movl	-20(%rbp), %eax
	addl	$1, %eax
	movl	%eax, -20(%rbp)
	jmp	.LBB6_109
.LBB6_112:                              # %for.end495
                                        #   in Loop: Header=BB6_107 Depth=2
	jmp	.LBB6_113
.LBB6_113:                              # %for.inc496
                                        #   in Loop: Header=BB6_107 Depth=2
	movl	-28(%rbp), %eax
	addl	$1, %eax
	movl	%eax, -28(%rbp)
	jmp	.LBB6_107
.LBB6_114:                              # %for.end498
                                        #   in Loop: Header=BB6_105 Depth=1
	jmp	.LBB6_115
.LBB6_115:                              # %for.inc499
                                        #   in Loop: Header=BB6_105 Depth=1
	movl	-16(%rbp), %eax
	addl	$1, %eax
	movl	%eax, -16(%rbp)
	jmp	.LBB6_105
.LBB6_116:                              # %for.end501
	jmp	.LBB6_126
.LBB6_117:                              # %if.else502
	movl	$0, -16(%rbp)
.LBB6_118:                              # %for.cond503
                                        # =>This Loop Header: Depth=1
                                        #     Child Loop BB6_120 Depth 2
	movl	-16(%rbp), %eax
	movl	-36(%rbp), %ecx
	addl	$2, %ecx
	cmpl	%ecx, %eax
	jge	.LBB6_125
# %bb.119:                              # %for.body507
                                        #   in Loop: Header=BB6_118 Depth=1
	movl	$0, -28(%rbp)
.LBB6_120:                              # %for.cond508
                                        #   Parent Loop BB6_118 Depth=1
                                        # =>  This Inner Loop Header: Depth=2
	movl	-28(%rbp), %eax
	movslq	-16(%rbp), %rcx
	cmpl	listXsize(,%rcx,4), %eax
	jge	.LBB6_123
# %bb.121:                              # %for.body513
                                        #   in Loop: Header=BB6_120 Depth=2
	movl	luma_log_weight_denom, %ecx
                                        # kill: def $cl killed $ecx
	movl	$1, %eax
	movl	$1, %edx
	shll	%cl, %edx
	movq	wp_weight, %rcx
	movslq	-16(%rbp), %rsi
	movq	(%rcx,%rsi,8), %rcx
	movslq	-28(%rbp), %rsi
	movq	(%rcx,%rsi,8), %rcx
	movl	%edx, (%rcx)
	movl	chroma_log_weight_denom, %ecx
                                        # kill: def $cl killed $ecx
	movl	$1, %edx
	shll	%cl, %edx
	movq	wp_weight, %rcx
	movslq	-16(%rbp), %rsi
	movq	(%rcx,%rsi,8), %rcx
	movslq	-28(%rbp), %rsi
	movq	(%rcx,%rsi,8), %rcx
	movl	%edx, 4(%rcx)
	movl	chroma_log_weight_denom, %ecx
                                        # kill: def $cl killed $ecx
	shll	%cl, %eax
	movq	wp_weight, %rcx
	movslq	-16(%rbp), %rdx
	movq	(%rcx,%rdx,8), %rcx
	movslq	-28(%rbp), %rdx
	movq	(%rcx,%rdx,8), %rcx
	movl	%eax, 8(%rcx)
	movq	wp_offset, %rax
	movslq	-16(%rbp), %rcx
	movq	(%rax,%rcx,8), %rax
	movslq	-28(%rbp), %rcx
	movq	(%rax,%rcx,8), %rax
	movl	$0, (%rax)
	movq	wp_offset, %rax
	movslq	-16(%rbp), %rcx
	movq	(%rax,%rcx,8), %rax
	movslq	-28(%rbp), %rcx
	movq	(%rax,%rcx,8), %rax
	movl	$0, 4(%rax)
	movq	wp_offset, %rax
	movslq	-16(%rbp), %rcx
	movq	(%rax,%rcx,8), %rax
	movslq	-28(%rbp), %rcx
	movq	(%rax,%rcx,8), %rax
	movl	$0, 8(%rax)
# %bb.122:                              # %for.inc547
                                        #   in Loop: Header=BB6_120 Depth=2
	movl	-28(%rbp), %eax
	addl	$1, %eax
	movl	%eax, -28(%rbp)
	jmp	.LBB6_120
.LBB6_123:                              # %for.end549
                                        #   in Loop: Header=BB6_118 Depth=1
	jmp	.LBB6_124
.LBB6_124:                              # %for.inc550
                                        #   in Loop: Header=BB6_118 Depth=1
	movl	-16(%rbp), %eax
	addl	$1, %eax
	movl	%eax, -16(%rbp)
	jmp	.LBB6_118
.LBB6_125:                              # %for.end552
	jmp	.LBB6_126
.LBB6_126:                              # %if.end553
	movl	$0, -12(%rbp)
.LBB6_127:                              # %for.cond554
                                        # =>This Loop Header: Depth=1
                                        #     Child Loop BB6_129 Depth 2
                                        #       Child Loop BB6_131 Depth 3
	movl	-12(%rbp), %eax
	cmpl	listXsize, %eax
	jge	.LBB6_141
# %bb.128:                              # %for.body557
                                        #   in Loop: Header=BB6_127 Depth=1
	movl	$0, -24(%rbp)
.LBB6_129:                              # %for.cond558
                                        #   Parent Loop BB6_127 Depth=1
                                        # =>  This Loop Header: Depth=2
                                        #       Child Loop BB6_131 Depth 3
	movl	-24(%rbp), %eax
	cmpl	listXsize+4, %eax
	jge	.LBB6_139
# %bb.130:                              # %for.body561
                                        #   in Loop: Header=BB6_129 Depth=2
	movl	$0, -20(%rbp)
.LBB6_131:                              # %for.cond562
                                        #   Parent Loop BB6_127 Depth=1
                                        #     Parent Loop BB6_129 Depth=2
                                        # =>    This Inner Loop Header: Depth=3
	cmpl	$3, -20(%rbp)
	jge	.LBB6_137
# %bb.132:                              # %for.body565
                                        #   in Loop: Header=BB6_131 Depth=3
	cmpl	$0, -20(%rbp)
	jne	.LBB6_134
# %bb.133:                              # %cond.true568
                                        #   in Loop: Header=BB6_131 Depth=3
	movl	luma_log_weight_denom, %eax
	jmp	.LBB6_135
.LBB6_134:                              # %cond.false569
                                        #   in Loop: Header=BB6_131 Depth=3
	movl	chroma_log_weight_denom, %eax
.LBB6_135:                              # %cond.end570
                                        #   in Loop: Header=BB6_131 Depth=3
	movl	%eax, -80(%rbp)
	movq	wp_weight, %rax
	movq	(%rax), %rax
	movslq	-12(%rbp), %rcx
	movq	(%rax,%rcx,8), %rax
	movslq	-20(%rbp), %rcx
	movl	(%rax,%rcx,4), %eax
	movq	wbp_weight, %rcx
	movq	(%rcx), %rcx
	movslq	-12(%rbp), %rdx
	movq	(%rcx,%rdx,8), %rcx
	movslq	-24(%rbp), %rdx
	movq	(%rcx,%rdx,8), %rcx
	movslq	-20(%rbp), %rdx
	movl	%eax, (%rcx,%rdx,4)
	movq	wp_weight, %rax
	movq	8(%rax), %rax
	movslq	-24(%rbp), %rcx
	movq	(%rax,%rcx,8), %rax
	movslq	-20(%rbp), %rcx
	movl	(%rax,%rcx,4), %eax
	movq	wbp_weight, %rcx
	movq	8(%rcx), %rcx
	movslq	-12(%rbp), %rdx
	movq	(%rcx,%rdx,8), %rcx
	movslq	-24(%rbp), %rdx
	movq	(%rcx,%rdx,8), %rcx
	movslq	-20(%rbp), %rdx
	movl	%eax, (%rcx,%rdx,4)
# %bb.136:                              # %for.inc596
                                        #   in Loop: Header=BB6_131 Depth=3
	movl	-20(%rbp), %eax
	addl	$1, %eax
	movl	%eax, -20(%rbp)
	jmp	.LBB6_131
.LBB6_137:                              # %for.end598
                                        #   in Loop: Header=BB6_129 Depth=2
	jmp	.LBB6_138
.LBB6_138:                              # %for.inc599
                                        #   in Loop: Header=BB6_129 Depth=2
	movl	-24(%rbp), %eax
	addl	$1, %eax
	movl	%eax, -24(%rbp)
	jmp	.LBB6_129
.LBB6_139:                              # %for.end601
                                        #   in Loop: Header=BB6_127 Depth=1
	jmp	.LBB6_140
.LBB6_140:                              # %for.inc602
                                        #   in Loop: Header=BB6_127 Depth=1
	movl	-12(%rbp), %eax
	addl	$1, %eax
	movl	%eax, -12(%rbp)
	jmp	.LBB6_127
.LBB6_141:                              # %for.end604
	jmp	.LBB6_142
.LBB6_142:                              # %if.end605
	movl	$0, -16(%rbp)
.LBB6_143:                              # %for.cond606
                                        # =>This Loop Header: Depth=1
                                        #     Child Loop BB6_145 Depth 2
                                        #       Child Loop BB6_147 Depth 3
	movl	-16(%rbp), %eax
	movl	-36(%rbp), %ecx
	addl	$2, %ecx
	cmpl	%ecx, %eax
	jge	.LBB6_163
# %bb.144:                              # %for.body610
                                        #   in Loop: Header=BB6_143 Depth=1
	movl	$0, -28(%rbp)
.LBB6_145:                              # %for.cond611
                                        #   Parent Loop BB6_143 Depth=1
                                        # =>  This Loop Header: Depth=2
                                        #       Child Loop BB6_147 Depth 3
	movl	-28(%rbp), %eax
	movslq	-16(%rbp), %rcx
	cmpl	listXsize(,%rcx,4), %eax
	jge	.LBB6_158
# %bb.146:                              # %for.body616
                                        #   in Loop: Header=BB6_145 Depth=2
	movl	$0, -20(%rbp)
.LBB6_147:                              # %for.cond617
                                        #   Parent Loop BB6_143 Depth=1
                                        #     Parent Loop BB6_145 Depth=2
                                        # =>    This Inner Loop Header: Depth=3
	cmpl	$3, -20(%rbp)
	jge	.LBB6_153
# %bb.148:                              # %for.body620
                                        #   in Loop: Header=BB6_147 Depth=3
	movq	wp_weight, %rax
	movslq	-16(%rbp), %rcx
	movq	(%rax,%rcx,8), %rax
	movslq	-28(%rbp), %rcx
	movq	(%rax,%rcx,8), %rax
	movslq	-20(%rbp), %rcx
	movl	(%rax,%rcx,4), %eax
	cmpl	-40(%rbp), %eax
	jne	.LBB6_150
# %bb.149:                              # %lor.lhs.false629
                                        #   in Loop: Header=BB6_147 Depth=3
	movq	wp_offset, %rax
	movslq	-16(%rbp), %rcx
	movq	(%rax,%rcx,8), %rax
	movslq	-28(%rbp), %rcx
	movq	(%rax,%rcx,8), %rax
	movslq	-20(%rbp), %rcx
	cmpl	$0, (%rax,%rcx,4)
	je	.LBB6_151
.LBB6_150:                              # %if.then638
                                        #   in Loop: Header=BB6_145 Depth=2
	movl	$1, -48(%rbp)
	jmp	.LBB6_154
.LBB6_151:                              # %if.end639
                                        #   in Loop: Header=BB6_147 Depth=3
	jmp	.LBB6_152
.LBB6_152:                              # %for.inc640
                                        #   in Loop: Header=BB6_147 Depth=3
	movl	-20(%rbp), %eax
	addl	$1, %eax
	movl	%eax, -20(%rbp)
	jmp	.LBB6_147
.LBB6_153:                              # %for.end642.loopexit
                                        #   in Loop: Header=BB6_145 Depth=2
	jmp	.LBB6_154
.LBB6_154:                              # %for.end642
                                        #   in Loop: Header=BB6_145 Depth=2
	cmpl	$1, -48(%rbp)
	jne	.LBB6_156
# %bb.155:                              # %if.then645
                                        #   in Loop: Header=BB6_143 Depth=1
	jmp	.LBB6_159
.LBB6_156:                              # %if.end646
                                        #   in Loop: Header=BB6_145 Depth=2
	jmp	.LBB6_157
.LBB6_157:                              # %for.inc647
                                        #   in Loop: Header=BB6_145 Depth=2
	movl	-28(%rbp), %eax
	addl	$1, %eax
	movl	%eax, -28(%rbp)
	jmp	.LBB6_145
.LBB6_158:                              # %for.end649.loopexit
                                        #   in Loop: Header=BB6_143 Depth=1
	jmp	.LBB6_159
.LBB6_159:                              # %for.end649
                                        #   in Loop: Header=BB6_143 Depth=1
	cmpl	$1, -48(%rbp)
	jne	.LBB6_161
# %bb.160:                              # %if.then652
	jmp	.LBB6_164
.LBB6_161:                              # %if.end653
                                        #   in Loop: Header=BB6_143 Depth=1
	jmp	.LBB6_162
.LBB6_162:                              # %for.inc654
                                        #   in Loop: Header=BB6_143 Depth=1
	movl	-16(%rbp), %eax
	addl	$1, %eax
	movl	%eax, -16(%rbp)
	jmp	.LBB6_143
.LBB6_163:                              # %for.end656.loopexit
	jmp	.LBB6_164
.LBB6_164:                              # %for.end656
	movl	-48(%rbp), %ebx
	cmpl	$745976625, -88(%rbp)   # imm = 0x2C76B331
	jne	.LBB6_166
.LBB6_165:
	movl	%ebx, %eax
	addq	$35416, %rsp            # imm = 0x8A58
	popq	%rbx
	popq	%rbp
	.cfi_def_cfa %rsp, 8
	retq
.LBB6_166:                              # %func_exit
	.cfi_def_cfa %rbp, 16
	callq	detect_breach
	jmp	.LBB6_165
.Lfunc_end6:
	.size	test_wp_B_slice.3, .Lfunc_end6-test_wp_B_slice.3
	.cfi_endproc
                                        # -- End function
	.section	.rodata.cst8,"aM",@progbits,8
	.p2align	3               # -- Begin function test_wp_P_slice.4
.LCPI7_0:
	.quad	4602678819172646912     # double 0.5
	.text
	.globl	test_wp_P_slice.4
	.p2align	4, 0x90
	.type	test_wp_P_slice.4,@function
test_wp_P_slice.4:                      # @test_wp_P_slice.4
	.cfi_startproc
# %bb.0:                                # %entry
	pushq	%rbp
	.cfi_def_cfa_offset 16
	.cfi_offset %rbp, -16
	movq	%rsp, %rbp
	.cfi_def_cfa_register %rbp
	pushq	%rbx
	subq	$936, %rsp              # imm = 0x3A8
	.cfi_offset %rbx, -24
	movl	$477378556, -64(%rbp)   # imm = 0x1C7437FC
	movl	%edi, -60(%rbp)
	vxorps	%xmm0, %xmm0, %xmm0
	vmovsd	%xmm0, -56(%rbp)
	movq	img, %rax
	cmpl	$0, 72400(%rax)
	je	.LBB7_3
# %bb.1:                                # %land.lhs.true
	movq	img, %rax
	movq	14168(%rax), %rax
	movq	img, %rcx
	movslq	12(%rcx), %rcx
	imulq	$632, %rcx, %rcx        # imm = 0x278
	addq	%rcx, %rax
	cmpl	$0, 532(%rax)
	je	.LBB7_3
# %bb.2:                                # %cond.true
	movq	img, %rax
	movl	12(%rax), %eax
	cltd
	movl	$2, %ecx
	idivl	%ecx
	cmpl	$0, %edx
	movl	$4, %eax
	cmovnel	%eax, %ecx
	jmp	.LBB7_4
.LBB7_3:                                # %cond.false
	xorl	%ecx, %ecx
	jmp	.LBB7_4
.LBB7_4:                                # %cond.end
	movl	%ecx, -44(%rbp)
	movl	$0, -40(%rbp)
	movl	$5, luma_log_weight_denom
	movl	$5, chroma_log_weight_denom
	movl	luma_log_weight_denom, %ecx
	subl	$1, %ecx
                                        # kill: def $cl killed $ecx
	movl	$1, %eax
	movl	$1, %edx
	shll	%cl, %edx
	movl	%edx, wp_luma_round
	movl	chroma_log_weight_denom, %ecx
	subl	$1, %ecx
                                        # kill: def $cl killed $ecx
	movl	$1, %edx
	shll	%cl, %edx
	movl	%edx, wp_chroma_round
	movl	luma_log_weight_denom, %ecx
                                        # kill: def $cl killed $ecx
	movl	$1, %edx
	shll	%cl, %edx
	movl	%edx, -28(%rbp)
	movl	chroma_log_weight_denom, %ecx
                                        # kill: def $cl killed $ecx
	shll	%cl, %eax
	movl	%eax, -48(%rbp)
	movl	$0, -20(%rbp)
.LBB7_5:                                # %for.cond
                                        # =>This Loop Header: Depth=1
                                        #     Child Loop BB7_7 Depth 2
                                        #       Child Loop BB7_9 Depth 3
	movl	-20(%rbp), %eax
	movl	-44(%rbp), %ecx
	addl	$2, %ecx
	cmpl	%ecx, %eax
	jge	.LBB7_16
# %bb.6:                                # %for.body
                                        #   in Loop: Header=BB7_5 Depth=1
	movl	$0, -24(%rbp)
.LBB7_7:                                # %for.cond9
                                        #   Parent Loop BB7_5 Depth=1
                                        # =>  This Loop Header: Depth=2
                                        #       Child Loop BB7_9 Depth 3
	movl	-24(%rbp), %eax
	movslq	-20(%rbp), %rcx
	cmpl	listXsize(,%rcx,4), %eax
	jge	.LBB7_14
# %bb.8:                                # %for.body13
                                        #   in Loop: Header=BB7_7 Depth=2
	movl	$0, -12(%rbp)
.LBB7_9:                                # %for.cond14
                                        #   Parent Loop BB7_5 Depth=1
                                        #     Parent Loop BB7_7 Depth=2
                                        # =>    This Inner Loop Header: Depth=3
	cmpl	$3, -12(%rbp)
	jge	.LBB7_12
# %bb.10:                               # %for.body16
                                        #   in Loop: Header=BB7_9 Depth=3
	movl	-28(%rbp), %eax
	movslq	-20(%rbp), %rcx
	imulq	$180, %rcx, %rcx
	leaq	-576(%rbp), %rdx
	addq	%rcx, %rdx
	movslq	-24(%rbp), %rcx
	imulq	$12, %rcx, %rcx
	addq	%rcx, %rdx
	movslq	-12(%rbp), %rcx
	movl	%eax, (%rdx,%rcx,4)
	movl	-28(%rbp), %eax
	movq	wp_weight, %rcx
	movslq	-20(%rbp), %rdx
	movq	(%rcx,%rdx,8), %rcx
	movslq	-24(%rbp), %rdx
	movq	(%rcx,%rdx,8), %rcx
	movslq	-12(%rbp), %rdx
	movl	%eax, (%rcx,%rdx,4)
	movq	wp_offset, %rax
	movslq	-20(%rbp), %rcx
	movq	(%rax,%rcx,8), %rax
	movslq	-24(%rbp), %rcx
	movq	(%rax,%rcx,8), %rax
	movslq	-12(%rbp), %rcx
	movl	$0, (%rax,%rcx,4)
	movslq	-20(%rbp), %rax
	imulq	$180, %rax, %rax
	leaq	-944(%rbp), %rcx
	addq	%rax, %rcx
	movslq	-24(%rbp), %rax
	imulq	$12, %rax, %rax
	addq	%rax, %rcx
	movslq	-12(%rbp), %rax
	movl	$0, (%rcx,%rax,4)
# %bb.11:                               # %for.inc
                                        #   in Loop: Header=BB7_9 Depth=3
	movl	-12(%rbp), %eax
	addl	$1, %eax
	movl	%eax, -12(%rbp)
	jmp	.LBB7_9
.LBB7_12:                               # %for.end
                                        #   in Loop: Header=BB7_7 Depth=2
	jmp	.LBB7_13
.LBB7_13:                               # %for.inc41
                                        #   in Loop: Header=BB7_7 Depth=2
	movl	-24(%rbp), %eax
	addl	$1, %eax
	movl	%eax, -24(%rbp)
	jmp	.LBB7_7
.LBB7_14:                               # %for.end43
                                        #   in Loop: Header=BB7_5 Depth=1
	jmp	.LBB7_15
.LBB7_15:                               # %for.inc44
                                        #   in Loop: Header=BB7_5 Depth=1
	movl	-20(%rbp), %eax
	addl	$1, %eax
	movl	%eax, -20(%rbp)
	jmp	.LBB7_5
.LBB7_16:                               # %for.end46
	movl	$0, -20(%rbp)
.LBB7_17:                               # %for.cond47
                                        # =>This Loop Header: Depth=1
                                        #     Child Loop BB7_19 Depth 2
	movl	-20(%rbp), %eax
	movq	img, %rcx
	cmpl	60(%rcx), %eax
	jge	.LBB7_24
# %bb.18:                               # %for.body49
                                        #   in Loop: Header=BB7_17 Depth=1
	movl	$0, -24(%rbp)
.LBB7_19:                               # %for.cond50
                                        #   Parent Loop BB7_17 Depth=1
                                        # =>  This Inner Loop Header: Depth=2
	movl	-24(%rbp), %eax
	movq	img, %rcx
	cmpl	52(%rcx), %eax
	jge	.LBB7_22
# %bb.20:                               # %for.body52
                                        #   in Loop: Header=BB7_19 Depth=2
	movq	imgY_org(%rip), %rax
	movslq	-20(%rbp), %rcx
	movq	(%rax,%rcx,8), %rax
	movslq	-24(%rbp), %rcx
	movzwl	(%rax,%rcx,2), %eax
	vcvtsi2sd	%eax, %xmm0, %xmm0
	vaddsd	-56(%rbp), %xmm0, %xmm0
	vmovsd	%xmm0, -56(%rbp)
# %bb.21:                               # %for.inc58
                                        #   in Loop: Header=BB7_19 Depth=2
	movl	-24(%rbp), %eax
	addl	$1, %eax
	movl	%eax, -24(%rbp)
	jmp	.LBB7_19
.LBB7_22:                               # %for.end60
                                        #   in Loop: Header=BB7_17 Depth=1
	jmp	.LBB7_23
.LBB7_23:                               # %for.inc61
                                        #   in Loop: Header=BB7_17 Depth=1
	movl	-20(%rbp), %eax
	addl	$1, %eax
	movl	%eax, -20(%rbp)
	jmp	.LBB7_17
.LBB7_24:                               # %for.end63
	movl	$0, -16(%rbp)
.LBB7_25:                               # %for.cond64
                                        # =>This Loop Header: Depth=1
                                        #     Child Loop BB7_27 Depth 2
                                        #       Child Loop BB7_29 Depth 3
	movl	-16(%rbp), %eax
	movl	-44(%rbp), %ecx
	addl	$2, %ecx
	cmpl	%ecx, %eax
	jge	.LBB7_51
# %bb.26:                               # %for.body68
                                        #   in Loop: Header=BB7_25 Depth=1
	movl	$0, -12(%rbp)
.LBB7_27:                               # %for.cond69
                                        #   Parent Loop BB7_25 Depth=1
                                        # =>  This Loop Header: Depth=2
                                        #       Child Loop BB7_29 Depth 3
	movl	-12(%rbp), %eax
	movslq	-16(%rbp), %rcx
	cmpl	listXsize(,%rcx,4), %eax
	jge	.LBB7_49
# %bb.28:                               # %for.body74
                                        #   in Loop: Header=BB7_27 Depth=2
	movslq	-12(%rbp), %rax
	vxorps	%xmm0, %xmm0, %xmm0
	vmovsd	%xmm0, -208(%rbp,%rax,8)
	movslq	-16(%rbp), %rax
	movq	listX(,%rax,8), %rax
	movslq	-12(%rbp), %rcx
	movq	(%rax,%rcx,8), %rax
	movq	6432(%rax), %rax
	movq	%rax, -72(%rbp)
	movslq	-16(%rbp), %rax
	movq	listX(,%rax,8), %rax
	movslq	-12(%rbp), %rcx
	movq	(%rax,%rcx,8), %rax
	movq	6440(%rax), %rax
	movq	%rax, -80(%rbp)
	movl	$0, -20(%rbp)
.LBB7_29:                               # %for.cond85
                                        #   Parent Loop BB7_25 Depth=1
                                        #     Parent Loop BB7_27 Depth=2
                                        # =>    This Inner Loop Header: Depth=3
	movl	-20(%rbp), %eax
	movq	img, %rcx
	movl	60(%rcx), %ecx
	movq	img, %rdx
	imull	52(%rdx), %ecx
	cmpl	%ecx, %eax
	jge	.LBB7_32
# %bb.30:                               # %for.body90
                                        #   in Loop: Header=BB7_29 Depth=3
	movq	-72(%rbp), %rax
	movslq	-20(%rbp), %rcx
	movzwl	(%rax,%rcx,2), %eax
	vcvtsi2sd	%eax, %xmm0, %xmm0
	movslq	-12(%rbp), %rax
	vaddsd	-208(%rbp,%rax,8), %xmm0, %xmm0
	vmovsd	%xmm0, -208(%rbp,%rax,8)
# %bb.31:                               # %for.inc97
                                        #   in Loop: Header=BB7_29 Depth=3
	movl	-20(%rbp), %eax
	addl	$1, %eax
	movl	%eax, -20(%rbp)
	jmp	.LBB7_29
.LBB7_32:                               # %for.end99
                                        #   in Loop: Header=BB7_27 Depth=2
	cmpl	$0, -60(%rbp)
	jne	.LBB7_40
# %bb.33:                               # %if.then
                                        #   in Loop: Header=BB7_27 Depth=2
	movslq	-12(%rbp), %rax
	vmovsd	-208(%rbp,%rax,8), %xmm0 # xmm0 = mem[0],zero
	vxorps	%xmm1, %xmm1, %xmm1
	vucomisd	%xmm1, %xmm0
	jne	.LBB7_34
	jp	.LBB7_34
	jmp	.LBB7_35
.LBB7_34:                               # %if.then106
                                        #   in Loop: Header=BB7_27 Depth=2
	vmovsd	.LCPI7_0(%rip), %xmm0   # xmm0 = mem[0],zero
	vcvtsi2sdl	-28(%rbp), %xmm0, %xmm1
	vmulsd	-56(%rbp), %xmm1, %xmm1
	movslq	-12(%rbp), %rax
	vdivsd	-208(%rbp,%rax,8), %xmm1, %xmm1
	vaddsd	%xmm0, %xmm1, %xmm0
	vcvttsd2si	%xmm0, %eax
	movslq	-16(%rbp), %rcx
	imulq	$180, %rcx, %rcx
	leaq	-576(%rbp), %rdx
	addq	%rcx, %rdx
	movslq	-12(%rbp), %rcx
	imulq	$12, %rcx, %rcx
	addq	%rcx, %rdx
	movl	%eax, (%rdx)
	jmp	.LBB7_36
.LBB7_35:                               # %if.else
                                        #   in Loop: Header=BB7_27 Depth=2
	movl	-28(%rbp), %eax
	movslq	-16(%rbp), %rcx
	imulq	$180, %rcx, %rcx
	leaq	-576(%rbp), %rdx
	addq	%rcx, %rdx
	movslq	-12(%rbp), %rcx
	imulq	$12, %rcx, %rcx
	addq	%rcx, %rdx
	movl	%eax, (%rdx)
.LBB7_36:                               # %if.end
                                        #   in Loop: Header=BB7_27 Depth=2
	movslq	-16(%rbp), %rax
	imulq	$180, %rax, %rax
	leaq	-576(%rbp), %rcx
	addq	%rax, %rcx
	movslq	-12(%rbp), %rax
	imulq	$12, %rax, %rax
	addq	%rax, %rcx
	cmpl	$-64, (%rcx)
	jl	.LBB7_38
# %bb.37:                               # %lor.lhs.false
                                        #   in Loop: Header=BB7_27 Depth=2
	movslq	-16(%rbp), %rax
	imulq	$180, %rax, %rax
	leaq	-576(%rbp), %rcx
	addq	%rax, %rcx
	movslq	-12(%rbp), %rax
	imulq	$12, %rax, %rax
	addq	%rax, %rcx
	cmpl	$127, (%rcx)
	jle	.LBB7_39
.LBB7_38:                               # %if.then137
                                        #   in Loop: Header=BB7_27 Depth=2
	movslq	-16(%rbp), %rax
	imulq	$180, %rax, %rax
	leaq	-576(%rbp), %rcx
	addq	%rax, %rcx
	movslq	-12(%rbp), %rax
	imulq	$12, %rax, %rax
	addq	%rax, %rcx
	movl	$32, (%rcx)
.LBB7_39:                               # %if.end143
                                        #   in Loop: Header=BB7_27 Depth=2
	jmp	.LBB7_47
.LBB7_40:                               # %if.else144
                                        #   in Loop: Header=BB7_27 Depth=2
	vmovsd	.LCPI7_0(%rip), %xmm0   # xmm0 = mem[0],zero
	vmovsd	-56(%rbp), %xmm1        # xmm1 = mem[0],zero
	movslq	-12(%rbp), %rax
	vsubsd	-208(%rbp,%rax,8), %xmm1, %xmm1
	movq	img, %rax
	movl	60(%rax), %eax
	movq	img, %rcx
	imull	52(%rcx), %eax
	vcvtsi2sd	%eax, %xmm0, %xmm2
	vdivsd	%xmm2, %xmm1, %xmm1
	vaddsd	%xmm0, %xmm1, %xmm0
	vcvttsd2si	%xmm0, %eax
	movslq	-16(%rbp), %rcx
	imulq	$180, %rcx, %rcx
	leaq	-944(%rbp), %rdx
	movq	%rdx, %rsi
	addq	%rcx, %rsi
	movslq	-12(%rbp), %rcx
	imulq	$12, %rcx, %rcx
	addq	%rcx, %rsi
	movl	%eax, (%rsi)
	movslq	-16(%rbp), %rax
	imulq	$180, %rax, %rax
	addq	%rax, %rdx
	movslq	-12(%rbp), %rax
	imulq	$12, %rax, %rax
	addq	%rax, %rdx
	cmpl	$-128, (%rdx)
	jge	.LBB7_42
# %bb.41:                               # %cond.true167
                                        #   in Loop: Header=BB7_27 Depth=2
	movl	$4294967168, %eax       # imm = 0xFFFFFF80
	jmp	.LBB7_46
.LBB7_42:                               # %cond.false168
                                        #   in Loop: Header=BB7_27 Depth=2
	movslq	-16(%rbp), %rax
	imulq	$180, %rax, %rax
	leaq	-944(%rbp), %rcx
	addq	%rax, %rcx
	movslq	-12(%rbp), %rax
	imulq	$12, %rax, %rax
	addq	%rax, %rcx
	cmpl	$127, (%rcx)
	jle	.LBB7_44
# %bb.43:                               # %cond.true176
                                        #   in Loop: Header=BB7_27 Depth=2
	movl	$127, %eax
	jmp	.LBB7_45
.LBB7_44:                               # %cond.false177
                                        #   in Loop: Header=BB7_27 Depth=2
	movslq	-16(%rbp), %rax
	imulq	$180, %rax, %rax
	leaq	-944(%rbp), %rcx
	addq	%rax, %rcx
	movslq	-12(%rbp), %rax
	imulq	$12, %rax, %rax
	addq	%rax, %rcx
	movl	(%rcx), %eax
.LBB7_45:                               # %cond.end183
                                        #   in Loop: Header=BB7_27 Depth=2
.LBB7_46:                               # %cond.end185
                                        #   in Loop: Header=BB7_27 Depth=2
	movslq	-16(%rbp), %rcx
	imulq	$180, %rcx, %rcx
	leaq	-944(%rbp), %rdx
	addq	%rcx, %rdx
	movslq	-12(%rbp), %rcx
	imulq	$12, %rcx, %rcx
	addq	%rcx, %rdx
	movl	%eax, (%rdx)
	movl	-28(%rbp), %eax
	movslq	-16(%rbp), %rcx
	imulq	$180, %rcx, %rcx
	leaq	-576(%rbp), %rdx
	addq	%rcx, %rdx
	movslq	-12(%rbp), %rcx
	imulq	$12, %rcx, %rcx
	addq	%rcx, %rdx
	movl	%eax, (%rdx)
.LBB7_47:                               # %if.end197
                                        #   in Loop: Header=BB7_27 Depth=2
	movl	-48(%rbp), %eax
	movslq	-16(%rbp), %rcx
	imulq	$180, %rcx, %rcx
	leaq	-576(%rbp), %rdx
	movq	%rdx, %rsi
	addq	%rcx, %rsi
	movslq	-12(%rbp), %rcx
	imulq	$12, %rcx, %rcx
	addq	%rcx, %rsi
	movl	%eax, 4(%rsi)
	movl	-48(%rbp), %eax
	movslq	-16(%rbp), %rcx
	imulq	$180, %rcx, %rcx
	addq	%rcx, %rdx
	movslq	-12(%rbp), %rcx
	imulq	$12, %rcx, %rcx
	addq	%rcx, %rdx
	movl	%eax, 8(%rdx)
# %bb.48:                               # %for.inc208
                                        #   in Loop: Header=BB7_27 Depth=2
	movl	-12(%rbp), %eax
	addl	$1, %eax
	movl	%eax, -12(%rbp)
	jmp	.LBB7_27
.LBB7_49:                               # %for.end210
                                        #   in Loop: Header=BB7_25 Depth=1
	jmp	.LBB7_50
.LBB7_50:                               # %for.inc211
                                        #   in Loop: Header=BB7_25 Depth=1
	movl	-16(%rbp), %eax
	addl	$1, %eax
	movl	%eax, -16(%rbp)
	jmp	.LBB7_25
.LBB7_51:                               # %for.end213
	movl	$0, -16(%rbp)
.LBB7_52:                               # %for.cond214
                                        # =>This Loop Header: Depth=1
                                        #     Child Loop BB7_54 Depth 2
                                        #       Child Loop BB7_56 Depth 3
	movl	-16(%rbp), %eax
	movl	-44(%rbp), %ecx
	addl	$2, %ecx
	cmpl	%ecx, %eax
	jge	.LBB7_72
# %bb.53:                               # %for.body218
                                        #   in Loop: Header=BB7_52 Depth=1
	movl	$0, -32(%rbp)
.LBB7_54:                               # %for.cond219
                                        #   Parent Loop BB7_52 Depth=1
                                        # =>  This Loop Header: Depth=2
                                        #       Child Loop BB7_56 Depth 3
	movl	-32(%rbp), %eax
	movslq	-16(%rbp), %rcx
	cmpl	listXsize(,%rcx,4), %eax
	jge	.LBB7_67
# %bb.55:                               # %for.body224
                                        #   in Loop: Header=BB7_54 Depth=2
	movl	$0, -36(%rbp)
.LBB7_56:                               # %for.cond225
                                        #   Parent Loop BB7_52 Depth=1
                                        #     Parent Loop BB7_54 Depth=2
                                        # =>    This Inner Loop Header: Depth=3
	cmpl	$3, -36(%rbp)
	jge	.LBB7_62
# %bb.57:                               # %for.body228
                                        #   in Loop: Header=BB7_56 Depth=3
	movslq	-16(%rbp), %rax
	imulq	$180, %rax, %rax
	leaq	-576(%rbp), %rcx
	addq	%rax, %rcx
	movslq	-32(%rbp), %rax
	imulq	$12, %rax, %rax
	addq	%rax, %rcx
	movslq	-36(%rbp), %rax
	movl	(%rcx,%rax,4), %eax
	cmpl	-28(%rbp), %eax
	jne	.LBB7_59
# %bb.58:                               # %lor.lhs.false237
                                        #   in Loop: Header=BB7_56 Depth=3
	movslq	-16(%rbp), %rax
	imulq	$180, %rax, %rax
	leaq	-944(%rbp), %rcx
	addq	%rax, %rcx
	movslq	-32(%rbp), %rax
	imulq	$12, %rax, %rax
	addq	%rax, %rcx
	movslq	-36(%rbp), %rax
	cmpl	$0, (%rcx,%rax,4)
	je	.LBB7_60
.LBB7_59:                               # %if.then246
                                        #   in Loop: Header=BB7_54 Depth=2
	movl	$1, -40(%rbp)
	jmp	.LBB7_63
.LBB7_60:                               # %if.end247
                                        #   in Loop: Header=BB7_56 Depth=3
	jmp	.LBB7_61
.LBB7_61:                               # %for.inc248
                                        #   in Loop: Header=BB7_56 Depth=3
	movl	-36(%rbp), %eax
	addl	$1, %eax
	movl	%eax, -36(%rbp)
	jmp	.LBB7_56
.LBB7_62:                               # %for.end250.loopexit
                                        #   in Loop: Header=BB7_54 Depth=2
	jmp	.LBB7_63
.LBB7_63:                               # %for.end250
                                        #   in Loop: Header=BB7_54 Depth=2
	cmpl	$1, -40(%rbp)
	jne	.LBB7_65
# %bb.64:                               # %if.then253
                                        #   in Loop: Header=BB7_52 Depth=1
	jmp	.LBB7_68
.LBB7_65:                               # %if.end254
                                        #   in Loop: Header=BB7_54 Depth=2
	jmp	.LBB7_66
.LBB7_66:                               # %for.inc255
                                        #   in Loop: Header=BB7_54 Depth=2
	movl	-32(%rbp), %eax
	addl	$1, %eax
	movl	%eax, -32(%rbp)
	jmp	.LBB7_54
.LBB7_67:                               # %for.end257.loopexit
                                        #   in Loop: Header=BB7_52 Depth=1
	jmp	.LBB7_68
.LBB7_68:                               # %for.end257
                                        #   in Loop: Header=BB7_52 Depth=1
	cmpl	$1, -40(%rbp)
	jne	.LBB7_70
# %bb.69:                               # %if.then260
	jmp	.LBB7_73
.LBB7_70:                               # %if.end261
                                        #   in Loop: Header=BB7_52 Depth=1
	jmp	.LBB7_71
.LBB7_71:                               # %for.inc262
                                        #   in Loop: Header=BB7_52 Depth=1
	movl	-16(%rbp), %eax
	addl	$1, %eax
	movl	%eax, -16(%rbp)
	jmp	.LBB7_52
.LBB7_72:                               # %for.end264.loopexit
	jmp	.LBB7_73
.LBB7_73:                               # %for.end264
	movl	-40(%rbp), %ebx
	cmpl	$477378556, -64(%rbp)   # imm = 0x1C7437FC
	jne	.LBB7_75
.LBB7_74:
	movl	%ebx, %eax
	addq	$936, %rsp              # imm = 0x3A8
	popq	%rbx
	popq	%rbp
	.cfi_def_cfa %rsp, 8
	retq
.LBB7_75:                               # %func_exit
	.cfi_def_cfa %rbp, 16
	callq	detect_breach
	jmp	.LBB7_74
.Lfunc_end7:
	.size	test_wp_P_slice.4, .Lfunc_end7-test_wp_P_slice.4
	.cfi_endproc
                                        # -- End function
	.section	.rodata.cst8,"aM",@progbits,8
	.p2align	3               # -- Begin function test_wp_B_slice.5
.LCPI8_0:
	.quad	4602678819172646912     # double 0.5
	.text
	.globl	test_wp_B_slice.5
	.p2align	4, 0x90
	.type	test_wp_B_slice.5,@function
test_wp_B_slice.5:                      # @test_wp_B_slice.5
	.cfi_startproc
# %bb.0:                                # %entry
	pushq	%rbp
	.cfi_def_cfa_offset 16
	.cfi_offset %rbp, -16
	movq	%rsp, %rbp
	.cfi_def_cfa_register %rbp
	pushq	%rbx
	subq	$35416, %rsp            # imm = 0x8A58
	.cfi_offset %rbx, -24
	movl	$1560721006, -80(%rbp)  # imm = 0x5D06B66E
	movl	%edi, -76(%rbp)
	vxorps	%xmm0, %xmm0, %xmm0
	vmovsd	%xmm0, -72(%rbp)
	movq	img, %rax
	cmpl	$0, 72400(%rax)
	je	.LBB8_3
# %bb.1:                                # %land.lhs.true
	movq	img, %rax
	movq	14168(%rax), %rax
	movq	img, %rcx
	movslq	12(%rcx), %rcx
	imulq	$632, %rcx, %rcx        # imm = 0x278
	addq	%rcx, %rax
	cmpl	$0, 532(%rax)
	je	.LBB8_3
# %bb.2:                                # %cond.true
	movq	img, %rax
	movl	12(%rax), %eax
	cltd
	movl	$2, %ecx
	idivl	%ecx
	cmpl	$0, %edx
	movl	$4, %eax
	cmovnel	%eax, %ecx
	jmp	.LBB8_4
.LBB8_3:                                # %cond.false
	xorl	%ecx, %ecx
	jmp	.LBB8_4
.LBB8_4:                                # %cond.end
	movl	%ecx, -40(%rbp)
	movl	$0, -48(%rbp)
	movl	$5, luma_log_weight_denom
	movl	$5, chroma_log_weight_denom
	movl	luma_log_weight_denom, %ecx
	subl	$1, %ecx
                                        # kill: def $cl killed $ecx
	movl	$1, %eax
	movl	$1, %edx
	shll	%cl, %edx
	movl	%edx, wp_luma_round
	movl	chroma_log_weight_denom, %ecx
	subl	$1, %ecx
                                        # kill: def $cl killed $ecx
	movl	$1, %edx
	shll	%cl, %edx
	movl	%edx, wp_chroma_round
	movl	luma_log_weight_denom, %ecx
                                        # kill: def $cl killed $ecx
	movl	$1, %edx
	shll	%cl, %edx
	movl	%edx, -36(%rbp)
	movl	chroma_log_weight_denom, %ecx
                                        # kill: def $cl killed $ecx
	shll	%cl, %eax
	movl	%eax, -64(%rbp)
	movl	$0, -12(%rbp)
.LBB8_5:                                # %for.cond
                                        # =>This Loop Header: Depth=1
                                        #     Child Loop BB8_7 Depth 2
                                        #       Child Loop BB8_9 Depth 3
	movl	-12(%rbp), %eax
	movl	-40(%rbp), %ecx
	addl	$2, %ecx
	cmpl	%ecx, %eax
	jge	.LBB8_16
# %bb.6:                                # %for.body
                                        #   in Loop: Header=BB8_5 Depth=1
	movl	$0, -24(%rbp)
.LBB8_7:                                # %for.cond9
                                        #   Parent Loop BB8_5 Depth=1
                                        # =>  This Loop Header: Depth=2
                                        #       Child Loop BB8_9 Depth 3
	movl	-24(%rbp), %eax
	movslq	-12(%rbp), %rcx
	cmpl	listXsize(,%rcx,4), %eax
	jge	.LBB8_14
# %bb.8:                                # %for.body13
                                        #   in Loop: Header=BB8_7 Depth=2
	movl	$0, -32(%rbp)
.LBB8_9:                                # %for.cond14
                                        #   Parent Loop BB8_5 Depth=1
                                        #     Parent Loop BB8_7 Depth=2
                                        # =>    This Inner Loop Header: Depth=3
	cmpl	$3, -32(%rbp)
	jge	.LBB8_12
# %bb.10:                               # %for.body16
                                        #   in Loop: Header=BB8_9 Depth=3
	movl	-36(%rbp), %eax
	movq	wp_weight, %rcx
	movslq	-12(%rbp), %rdx
	movq	(%rcx,%rdx,8), %rcx
	movslq	-24(%rbp), %rdx
	movq	(%rcx,%rdx,8), %rcx
	movslq	-32(%rbp), %rdx
	movl	%eax, (%rcx,%rdx,4)
	movq	wp_offset, %rax
	movslq	-12(%rbp), %rcx
	movq	(%rax,%rcx,8), %rax
	movslq	-24(%rbp), %rcx
	movq	(%rax,%rcx,8), %rax
	movslq	-32(%rbp), %rcx
	movl	$0, (%rax,%rcx,4)
	movslq	-12(%rbp), %rax
	imulq	$180, %rax, %rax
	leaq	-1920(%rbp), %rcx
	addq	%rax, %rcx
	movslq	-24(%rbp), %rax
	imulq	$12, %rax, %rax
	addq	%rax, %rcx
	movslq	-32(%rbp), %rax
	movl	$0, (%rcx,%rax,4)
	movl	-36(%rbp), %eax
	movslq	-12(%rbp), %rcx
	imulq	$180, %rcx, %rcx
	leaq	-3008(%rbp), %rdx
	addq	%rcx, %rdx
	movslq	-24(%rbp), %rcx
	imulq	$12, %rcx, %rcx
	addq	%rcx, %rdx
	movslq	-32(%rbp), %rcx
	movl	%eax, (%rdx,%rcx,4)
# %bb.11:                               # %for.inc
                                        #   in Loop: Header=BB8_9 Depth=3
	movl	-32(%rbp), %eax
	addl	$1, %eax
	movl	%eax, -32(%rbp)
	jmp	.LBB8_9
.LBB8_12:                               # %for.end
                                        #   in Loop: Header=BB8_7 Depth=2
	jmp	.LBB8_13
.LBB8_13:                               # %for.inc41
                                        #   in Loop: Header=BB8_7 Depth=2
	movl	-24(%rbp), %eax
	addl	$1, %eax
	movl	%eax, -24(%rbp)
	jmp	.LBB8_7
.LBB8_14:                               # %for.end43
                                        #   in Loop: Header=BB8_5 Depth=1
	jmp	.LBB8_15
.LBB8_15:                               # %for.inc44
                                        #   in Loop: Header=BB8_5 Depth=1
	movl	-12(%rbp), %eax
	addl	$1, %eax
	movl	%eax, -12(%rbp)
	jmp	.LBB8_5
.LBB8_16:                               # %for.end46
	movl	$0, -12(%rbp)
.LBB8_17:                               # %for.cond47
                                        # =>This Loop Header: Depth=1
                                        #     Child Loop BB8_19 Depth 2
                                        #       Child Loop BB8_33 Depth 3
	movl	-12(%rbp), %eax
	cmpl	listXsize, %eax
	jge	.LBB8_52
# %bb.18:                               # %for.body49
                                        #   in Loop: Header=BB8_17 Depth=1
	movl	$0, -24(%rbp)
.LBB8_19:                               # %for.cond50
                                        #   Parent Loop BB8_17 Depth=1
                                        # =>  This Loop Header: Depth=2
                                        #       Child Loop BB8_33 Depth 3
	movl	-24(%rbp), %eax
	cmpl	listXsize+4, %eax
	jge	.LBB8_50
# %bb.20:                               # %for.body52
                                        #   in Loop: Header=BB8_19 Depth=2
	movq	listX+8, %rax
	movslq	-24(%rbp), %rcx
	movq	(%rax,%rcx,8), %rax
	movl	4(%rax), %eax
	movq	listX, %rcx
	movslq	-12(%rbp), %rdx
	movq	(%rcx,%rdx,8), %rcx
	subl	4(%rcx), %eax
	cmpl	$-128, %eax
	jge	.LBB8_22
# %bb.21:                               # %cond.true60
                                        #   in Loop: Header=BB8_19 Depth=2
	movl	$4294967168, %eax       # imm = 0xFFFFFF80
	jmp	.LBB8_26
.LBB8_22:                               # %cond.false61
                                        #   in Loop: Header=BB8_19 Depth=2
	movq	listX+8, %rax
	movslq	-24(%rbp), %rcx
	movq	(%rax,%rcx,8), %rax
	movl	4(%rax), %eax
	movq	listX, %rcx
	movslq	-12(%rbp), %rdx
	movq	(%rcx,%rdx,8), %rcx
	subl	4(%rcx), %eax
	cmpl	$127, %eax
	jle	.LBB8_24
# %bb.23:                               # %cond.true70
                                        #   in Loop: Header=BB8_19 Depth=2
	movl	$127, %eax
	jmp	.LBB8_25
.LBB8_24:                               # %cond.false71
                                        #   in Loop: Header=BB8_19 Depth=2
	movq	listX+8, %rax
	movslq	-24(%rbp), %rcx
	movq	(%rax,%rcx,8), %rax
	movl	4(%rax), %eax
	movq	listX, %rcx
	movslq	-12(%rbp), %rdx
	movq	(%rcx,%rdx,8), %rcx
	subl	4(%rcx), %eax
.LBB8_25:                               # %cond.end79
                                        #   in Loop: Header=BB8_19 Depth=2
.LBB8_26:                               # %cond.end81
                                        #   in Loop: Header=BB8_19 Depth=2
	movl	%eax, -60(%rbp)
	movq	enc_picture, %rax
	movl	4(%rax), %eax
	movq	listX, %rcx
	movslq	-12(%rbp), %rdx
	movq	(%rcx,%rdx,8), %rcx
	subl	4(%rcx), %eax
	cmpl	$-128, %eax
	jge	.LBB8_28
# %bb.27:                               # %cond.true89
                                        #   in Loop: Header=BB8_19 Depth=2
	movl	$4294967168, %eax       # imm = 0xFFFFFF80
	jmp	.LBB8_32
.LBB8_28:                               # %cond.false90
                                        #   in Loop: Header=BB8_19 Depth=2
	movq	enc_picture, %rax
	movl	4(%rax), %eax
	movq	listX, %rcx
	movslq	-12(%rbp), %rdx
	movq	(%rcx,%rdx,8), %rcx
	subl	4(%rcx), %eax
	cmpl	$127, %eax
	jle	.LBB8_30
# %bb.29:                               # %cond.true97
                                        #   in Loop: Header=BB8_19 Depth=2
	movl	$127, %eax
	jmp	.LBB8_31
.LBB8_30:                               # %cond.false98
                                        #   in Loop: Header=BB8_19 Depth=2
	movq	enc_picture, %rax
	movl	4(%rax), %eax
	movq	listX, %rcx
	movslq	-12(%rbp), %rdx
	movq	(%rcx,%rdx,8), %rcx
	subl	4(%rcx), %eax
.LBB8_31:                               # %cond.end104
                                        #   in Loop: Header=BB8_19 Depth=2
.LBB8_32:                               # %cond.end106
                                        #   in Loop: Header=BB8_19 Depth=2
	movl	%eax, -56(%rbp)
	movl	$0, -20(%rbp)
.LBB8_33:                               # %for.cond108
                                        #   Parent Loop BB8_17 Depth=1
                                        #     Parent Loop BB8_19 Depth=2
                                        # =>    This Inner Loop Header: Depth=3
	cmpl	$3, -20(%rbp)
	jge	.LBB8_48
# %bb.34:                               # %for.body110
                                        #   in Loop: Header=BB8_33 Depth=3
	cmpl	$0, -60(%rbp)
	jne	.LBB8_36
# %bb.35:                               # %if.then
                                        #   in Loop: Header=BB8_33 Depth=3
	leaq	-35424(%rbp), %rax
	leaq	-19216(%rbp), %rcx
	movq	%rcx, %rdx
	addq	$2700, %rdx             # imm = 0xA8C
	movslq	-12(%rbp), %rsi
	imulq	$180, %rsi, %rsi
	addq	%rsi, %rdx
	movslq	-24(%rbp), %rsi
	imulq	$12, %rsi, %rsi
	addq	%rsi, %rdx
	movslq	-20(%rbp), %rsi
	movl	$32, (%rdx,%rsi,4)
	movslq	-12(%rbp), %rdx
	imulq	$180, %rdx, %rdx
	addq	%rdx, %rcx
	movslq	-24(%rbp), %rdx
	imulq	$12, %rdx, %rdx
	addq	%rdx, %rcx
	movslq	-20(%rbp), %rdx
	movl	$32, (%rcx,%rdx,4)
	movq	%rax, %rcx
	addq	$2700, %rcx             # imm = 0xA8C
	movslq	-12(%rbp), %rdx
	imulq	$180, %rdx, %rdx
	addq	%rdx, %rcx
	movslq	-24(%rbp), %rdx
	imulq	$12, %rdx, %rdx
	addq	%rdx, %rcx
	movslq	-20(%rbp), %rdx
	movl	$0, (%rcx,%rdx,4)
	movslq	-12(%rbp), %rcx
	imulq	$180, %rcx, %rcx
	addq	%rcx, %rax
	movslq	-24(%rbp), %rcx
	imulq	$12, %rcx, %rcx
	addq	%rcx, %rax
	movslq	-20(%rbp), %rcx
	movl	$0, (%rax,%rcx,4)
	jmp	.LBB8_46
.LBB8_36:                               # %if.else
                                        #   in Loop: Header=BB8_33 Depth=3
	movl	-60(%rbp), %eax
	cltd
	movl	$2, %ecx
	idivl	%ecx
	movl	%eax, %edi
	callq	abs
	addl	$16384, %eax            # imm = 0x4000
	cltd
	idivl	-60(%rbp)
	movl	%eax, -52(%rbp)
	movl	-52(%rbp), %eax
	imull	-56(%rbp), %eax
	addl	$32, %eax
	sarl	$6, %eax
	cmpl	$-1024, %eax            # imm = 0xFC00
	jge	.LBB8_38
# %bb.37:                               # %cond.true144
                                        #   in Loop: Header=BB8_33 Depth=3
	movl	$4294966272, %eax       # imm = 0xFFFFFC00
	jmp	.LBB8_42
.LBB8_38:                               # %cond.false145
                                        #   in Loop: Header=BB8_33 Depth=3
	movl	-52(%rbp), %eax
	imull	-56(%rbp), %eax
	addl	$32, %eax
	sarl	$6, %eax
	cmpl	$1023, %eax             # imm = 0x3FF
	jle	.LBB8_40
# %bb.39:                               # %cond.true150
                                        #   in Loop: Header=BB8_33 Depth=3
	movl	$1023, %eax             # imm = 0x3FF
	jmp	.LBB8_41
.LBB8_40:                               # %cond.false151
                                        #   in Loop: Header=BB8_33 Depth=3
	movl	-52(%rbp), %eax
	imull	-56(%rbp), %eax
	addl	$32, %eax
	sarl	$6, %eax
.LBB8_41:                               # %cond.end155
                                        #   in Loop: Header=BB8_33 Depth=3
.LBB8_42:                               # %cond.end157
                                        #   in Loop: Header=BB8_33 Depth=3
	movl	%eax, -84(%rbp)
	movl	-84(%rbp), %eax
	sarl	$2, %eax
	leaq	-19216(%rbp), %rcx
	movq	%rcx, %rdx
	addq	$2700, %rdx             # imm = 0xA8C
	movslq	-12(%rbp), %rsi
	imulq	$180, %rsi, %rsi
	addq	%rsi, %rdx
	movslq	-24(%rbp), %rsi
	imulq	$12, %rsi, %rsi
	addq	%rsi, %rdx
	movslq	-20(%rbp), %rsi
	movl	%eax, (%rdx,%rsi,4)
	addq	$2700, %rcx             # imm = 0xA8C
	movslq	-12(%rbp), %rax
	imulq	$180, %rax, %rax
	addq	%rax, %rcx
	movslq	-24(%rbp), %rax
	imulq	$12, %rax, %rax
	addq	%rax, %rcx
	movslq	-20(%rbp), %rax
	cmpl	$-64, (%rcx,%rax,4)
	jl	.LBB8_44
# %bb.43:                               # %lor.lhs.false
                                        #   in Loop: Header=BB8_33 Depth=3
	leaq	-19216(%rbp), %rax
	addq	$2700, %rax             # imm = 0xA8C
	movslq	-12(%rbp), %rcx
	imulq	$180, %rcx, %rcx
	addq	%rcx, %rax
	movslq	-24(%rbp), %rcx
	imulq	$12, %rcx, %rcx
	addq	%rcx, %rax
	movslq	-20(%rbp), %rcx
	cmpl	$128, (%rax,%rcx,4)
	jle	.LBB8_45
.LBB8_44:                               # %if.then183
                                        #   in Loop: Header=BB8_33 Depth=3
	leaq	-19216(%rbp), %rax
	addq	$2700, %rax             # imm = 0xA8C
	movslq	-12(%rbp), %rcx
	imulq	$180, %rcx, %rcx
	addq	%rcx, %rax
	movslq	-24(%rbp), %rcx
	imulq	$12, %rcx, %rcx
	addq	%rcx, %rax
	movslq	-20(%rbp), %rcx
	movl	$32, (%rax,%rcx,4)
.LBB8_45:                               # %if.end
                                        #   in Loop: Header=BB8_33 Depth=3
	leaq	-35424(%rbp), %rax
	leaq	-19216(%rbp), %rcx
	movq	%rcx, %rdx
	addq	$2700, %rdx             # imm = 0xA8C
	movslq	-12(%rbp), %rsi
	imulq	$180, %rsi, %rsi
	addq	%rsi, %rdx
	movslq	-24(%rbp), %rsi
	imulq	$12, %rsi, %rsi
	addq	%rsi, %rdx
	movslq	-20(%rbp), %rsi
	movl	$64, %edi
	subl	(%rdx,%rsi,4), %edi
	movslq	-12(%rbp), %rdx
	imulq	$180, %rdx, %rdx
	addq	%rdx, %rcx
	movslq	-24(%rbp), %rdx
	imulq	$12, %rdx, %rdx
	addq	%rdx, %rcx
	movslq	-20(%rbp), %rdx
	movl	%edi, (%rcx,%rdx,4)
	movq	%rax, %rcx
	addq	$2700, %rcx             # imm = 0xA8C
	movslq	-12(%rbp), %rdx
	imulq	$180, %rdx, %rdx
	addq	%rdx, %rcx
	movslq	-24(%rbp), %rdx
	imulq	$12, %rdx, %rdx
	addq	%rdx, %rcx
	movslq	-20(%rbp), %rdx
	movl	$0, (%rcx,%rdx,4)
	movslq	-12(%rbp), %rcx
	imulq	$180, %rcx, %rcx
	addq	%rcx, %rax
	movslq	-24(%rbp), %rcx
	imulq	$12, %rcx, %rcx
	addq	%rcx, %rax
	movslq	-20(%rbp), %rcx
	movl	$0, (%rax,%rcx,4)
.LBB8_46:                               # %if.end220
                                        #   in Loop: Header=BB8_33 Depth=3
	jmp	.LBB8_47
.LBB8_47:                               # %for.inc221
                                        #   in Loop: Header=BB8_33 Depth=3
	movl	-20(%rbp), %eax
	addl	$1, %eax
	movl	%eax, -20(%rbp)
	jmp	.LBB8_33
.LBB8_48:                               # %for.end223
                                        #   in Loop: Header=BB8_19 Depth=2
	jmp	.LBB8_49
.LBB8_49:                               # %for.inc224
                                        #   in Loop: Header=BB8_19 Depth=2
	movl	-24(%rbp), %eax
	addl	$1, %eax
	movl	%eax, -24(%rbp)
	jmp	.LBB8_19
.LBB8_50:                               # %for.end226
                                        #   in Loop: Header=BB8_17 Depth=1
	jmp	.LBB8_51
.LBB8_51:                               # %for.inc227
                                        #   in Loop: Header=BB8_17 Depth=1
	movl	-12(%rbp), %eax
	addl	$1, %eax
	movl	%eax, -12(%rbp)
	jmp	.LBB8_17
.LBB8_52:                               # %for.end229
	cmpl	$1, -76(%rbp)
	jne	.LBB8_77
# %bb.53:                               # %if.then231
	movl	$0, -12(%rbp)
.LBB8_54:                               # %for.cond232
                                        # =>This Loop Header: Depth=1
                                        #     Child Loop BB8_56 Depth 2
                                        #       Child Loop BB8_58 Depth 3
	movl	-12(%rbp), %eax
	cmpl	listXsize, %eax
	jge	.LBB8_68
# %bb.55:                               # %for.body234
                                        #   in Loop: Header=BB8_54 Depth=1
	movl	$0, -24(%rbp)
.LBB8_56:                               # %for.cond235
                                        #   Parent Loop BB8_54 Depth=1
                                        # =>  This Loop Header: Depth=2
                                        #       Child Loop BB8_58 Depth 3
	movl	-24(%rbp), %eax
	cmpl	listXsize+4, %eax
	jge	.LBB8_66
# %bb.57:                               # %for.body237
                                        #   in Loop: Header=BB8_56 Depth=2
	movl	$0, -20(%rbp)
.LBB8_58:                               # %for.cond238
                                        #   Parent Loop BB8_54 Depth=1
                                        #     Parent Loop BB8_56 Depth=2
                                        # =>    This Inner Loop Header: Depth=3
	cmpl	$3, -20(%rbp)
	jge	.LBB8_64
# %bb.59:                               # %for.body240
                                        #   in Loop: Header=BB8_58 Depth=3
	cmpl	$0, -20(%rbp)
	jne	.LBB8_61
# %bb.60:                               # %cond.true242
                                        #   in Loop: Header=BB8_58 Depth=3
	movl	luma_log_weight_denom, %eax
	jmp	.LBB8_62
.LBB8_61:                               # %cond.false243
                                        #   in Loop: Header=BB8_58 Depth=3
	movl	chroma_log_weight_denom, %eax
.LBB8_62:                               # %cond.end244
                                        #   in Loop: Header=BB8_58 Depth=3
	leaq	-19216(%rbp), %rcx
	movl	%eax, -88(%rbp)
	movq	%rcx, %rax
	addq	$2700, %rax             # imm = 0xA8C
	movslq	-12(%rbp), %rdx
	imulq	$180, %rdx, %rdx
	addq	%rdx, %rax
	movslq	-24(%rbp), %rdx
	imulq	$12, %rdx, %rdx
	addq	%rdx, %rax
	movslq	-20(%rbp), %rdx
	movl	(%rax,%rdx,4), %eax
	movq	wbp_weight, %rdx
	movq	8(%rdx), %rdx
	movslq	-12(%rbp), %rsi
	movq	(%rdx,%rsi,8), %rdx
	movslq	-24(%rbp), %rsi
	movq	(%rdx,%rsi,8), %rdx
	movslq	-20(%rbp), %rsi
	movl	%eax, (%rdx,%rsi,4)
	movslq	-12(%rbp), %rax
	imulq	$180, %rax, %rax
	addq	%rax, %rcx
	movslq	-24(%rbp), %rax
	imulq	$12, %rax, %rax
	addq	%rax, %rcx
	movslq	-20(%rbp), %rax
	movl	(%rcx,%rax,4), %eax
	movq	wbp_weight, %rcx
	movq	(%rcx), %rcx
	movslq	-12(%rbp), %rdx
	movq	(%rcx,%rdx,8), %rcx
	movslq	-24(%rbp), %rdx
	movq	(%rcx,%rdx,8), %rcx
	movslq	-20(%rbp), %rdx
	movl	%eax, (%rcx,%rdx,4)
# %bb.63:                               # %for.inc274
                                        #   in Loop: Header=BB8_58 Depth=3
	movl	-20(%rbp), %eax
	addl	$1, %eax
	movl	%eax, -20(%rbp)
	jmp	.LBB8_58
.LBB8_64:                               # %for.end276
                                        #   in Loop: Header=BB8_56 Depth=2
	jmp	.LBB8_65
.LBB8_65:                               # %for.inc277
                                        #   in Loop: Header=BB8_56 Depth=2
	movl	-24(%rbp), %eax
	addl	$1, %eax
	movl	%eax, -24(%rbp)
	jmp	.LBB8_56
.LBB8_66:                               # %for.end279
                                        #   in Loop: Header=BB8_54 Depth=1
	jmp	.LBB8_67
.LBB8_67:                               # %for.inc280
                                        #   in Loop: Header=BB8_54 Depth=1
	movl	-12(%rbp), %eax
	addl	$1, %eax
	movl	%eax, -12(%rbp)
	jmp	.LBB8_54
.LBB8_68:                               # %for.end282
	movl	$0, -16(%rbp)
.LBB8_69:                               # %for.cond283
                                        # =>This Loop Header: Depth=1
                                        #     Child Loop BB8_71 Depth 2
	movl	-16(%rbp), %eax
	movl	-40(%rbp), %ecx
	addl	$2, %ecx
	cmpl	%ecx, %eax
	jge	.LBB8_76
# %bb.70:                               # %for.body286
                                        #   in Loop: Header=BB8_69 Depth=1
	movl	$0, -28(%rbp)
.LBB8_71:                               # %for.cond287
                                        #   Parent Loop BB8_69 Depth=1
                                        # =>  This Inner Loop Header: Depth=2
	movl	-28(%rbp), %eax
	movslq	-16(%rbp), %rcx
	cmpl	listXsize(,%rcx,4), %eax
	jge	.LBB8_74
# %bb.72:                               # %for.body291
                                        #   in Loop: Header=BB8_71 Depth=2
	movl	luma_log_weight_denom, %ecx
                                        # kill: def $cl killed $ecx
	movl	$1, %eax
	movl	$1, %edx
	shll	%cl, %edx
	movq	wp_weight, %rcx
	movslq	-16(%rbp), %rsi
	movq	(%rcx,%rsi,8), %rcx
	movslq	-28(%rbp), %rsi
	movq	(%rcx,%rsi,8), %rcx
	movl	%edx, (%rcx)
	movl	chroma_log_weight_denom, %ecx
                                        # kill: def $cl killed $ecx
	movl	$1, %edx
	shll	%cl, %edx
	movq	wp_weight, %rcx
	movslq	-16(%rbp), %rsi
	movq	(%rcx,%rsi,8), %rcx
	movslq	-28(%rbp), %rsi
	movq	(%rcx,%rsi,8), %rcx
	movl	%edx, 4(%rcx)
	movl	chroma_log_weight_denom, %ecx
                                        # kill: def $cl killed $ecx
	shll	%cl, %eax
	movq	wp_weight, %rcx
	movslq	-16(%rbp), %rdx
	movq	(%rcx,%rdx,8), %rcx
	movslq	-28(%rbp), %rdx
	movq	(%rcx,%rdx,8), %rcx
	movl	%eax, 8(%rcx)
	movq	wp_offset, %rax
	movslq	-16(%rbp), %rcx
	movq	(%rax,%rcx,8), %rax
	movslq	-28(%rbp), %rcx
	movq	(%rax,%rcx,8), %rax
	movl	$0, (%rax)
	movq	wp_offset, %rax
	movslq	-16(%rbp), %rcx
	movq	(%rax,%rcx,8), %rax
	movslq	-28(%rbp), %rcx
	movq	(%rax,%rcx,8), %rax
	movl	$0, 4(%rax)
	movq	wp_offset, %rax
	movslq	-16(%rbp), %rcx
	movq	(%rax,%rcx,8), %rax
	movslq	-28(%rbp), %rcx
	movq	(%rax,%rcx,8), %rax
	movl	$0, 8(%rax)
# %bb.73:                               # %for.inc325
                                        #   in Loop: Header=BB8_71 Depth=2
	movl	-28(%rbp), %eax
	addl	$1, %eax
	movl	%eax, -28(%rbp)
	jmp	.LBB8_71
.LBB8_74:                               # %for.end327
                                        #   in Loop: Header=BB8_69 Depth=1
	jmp	.LBB8_75
.LBB8_75:                               # %for.inc328
                                        #   in Loop: Header=BB8_69 Depth=1
	movl	-16(%rbp), %eax
	addl	$1, %eax
	movl	%eax, -16(%rbp)
	jmp	.LBB8_69
.LBB8_76:                               # %for.end330
	jmp	.LBB8_142
.LBB8_77:                               # %if.else331
	movl	$0, -12(%rbp)
.LBB8_78:                               # %for.cond332
                                        # =>This Loop Header: Depth=1
                                        #     Child Loop BB8_80 Depth 2
	movl	-12(%rbp), %eax
	movq	img, %rcx
	cmpl	60(%rcx), %eax
	jge	.LBB8_85
# %bb.79:                               # %for.body334
                                        #   in Loop: Header=BB8_78 Depth=1
	movl	$0, -24(%rbp)
.LBB8_80:                               # %for.cond335
                                        #   Parent Loop BB8_78 Depth=1
                                        # =>  This Inner Loop Header: Depth=2
	movl	-24(%rbp), %eax
	movq	img, %rcx
	cmpl	52(%rcx), %eax
	jge	.LBB8_83
# %bb.81:                               # %for.body337
                                        #   in Loop: Header=BB8_80 Depth=2
	movq	imgY_org(%rip), %rax
	movslq	-12(%rbp), %rcx
	movq	(%rax,%rcx,8), %rax
	movslq	-24(%rbp), %rcx
	movzwl	(%rax,%rcx,2), %eax
	vcvtsi2sd	%eax, %xmm0, %xmm0
	vaddsd	-72(%rbp), %xmm0, %xmm0
	vmovsd	%xmm0, -72(%rbp)
# %bb.82:                               # %for.inc343
                                        #   in Loop: Header=BB8_80 Depth=2
	movl	-24(%rbp), %eax
	addl	$1, %eax
	movl	%eax, -24(%rbp)
	jmp	.LBB8_80
.LBB8_83:                               # %for.end345
                                        #   in Loop: Header=BB8_78 Depth=1
	jmp	.LBB8_84
.LBB8_84:                               # %for.inc346
                                        #   in Loop: Header=BB8_78 Depth=1
	movl	-12(%rbp), %eax
	addl	$1, %eax
	movl	%eax, -12(%rbp)
	jmp	.LBB8_78
.LBB8_85:                               # %for.end348
	movl	$0, -16(%rbp)
.LBB8_86:                               # %for.cond349
                                        # =>This Loop Header: Depth=1
                                        #     Child Loop BB8_88 Depth 2
                                        #       Child Loop BB8_90 Depth 3
	movl	-16(%rbp), %eax
	movl	-40(%rbp), %ecx
	addl	$2, %ecx
	cmpl	%ecx, %eax
	jge	.LBB8_103
# %bb.87:                               # %for.body353
                                        #   in Loop: Header=BB8_86 Depth=1
	movl	$0, -32(%rbp)
.LBB8_88:                               # %for.cond354
                                        #   Parent Loop BB8_86 Depth=1
                                        # =>  This Loop Header: Depth=2
                                        #       Child Loop BB8_90 Depth 3
	movl	-32(%rbp), %eax
	movslq	-16(%rbp), %rcx
	cmpl	listXsize(,%rcx,4), %eax
	jge	.LBB8_101
# %bb.89:                               # %for.body359
                                        #   in Loop: Header=BB8_88 Depth=2
	movslq	-16(%rbp), %rax
	imulq	$120, %rax, %rax
	leaq	-832(%rbp), %rcx
	addq	%rax, %rcx
	movslq	-32(%rbp), %rax
	vxorps	%xmm0, %xmm0, %xmm0
	vmovsd	%xmm0, (%rcx,%rax,8)
	movslq	-16(%rbp), %rax
	movq	listX(,%rax,8), %rax
	movslq	-32(%rbp), %rcx
	movq	(%rax,%rcx,8), %rax
	movq	6432(%rax), %rax
	movq	%rax, -96(%rbp)
	movslq	-16(%rbp), %rax
	movq	listX(,%rax,8), %rax
	movslq	-32(%rbp), %rcx
	movq	(%rax,%rcx,8), %rax
	movq	6440(%rax), %rax
	movq	%rax, -112(%rbp)
	movl	$0, -12(%rbp)
.LBB8_90:                               # %for.cond372
                                        #   Parent Loop BB8_86 Depth=1
                                        #     Parent Loop BB8_88 Depth=2
                                        # =>    This Inner Loop Header: Depth=3
	movl	-12(%rbp), %eax
	movq	img, %rcx
	movl	60(%rcx), %ecx
	movq	img, %rdx
	imull	52(%rdx), %ecx
	cmpl	%ecx, %eax
	jge	.LBB8_93
# %bb.91:                               # %for.body378
                                        #   in Loop: Header=BB8_90 Depth=3
	movq	-96(%rbp), %rax
	movslq	-12(%rbp), %rcx
	movzwl	(%rax,%rcx,2), %eax
	vcvtsi2sd	%eax, %xmm0, %xmm0
	movslq	-16(%rbp), %rax
	imulq	$120, %rax, %rax
	leaq	-832(%rbp), %rcx
	addq	%rax, %rcx
	movslq	-32(%rbp), %rax
	vaddsd	(%rcx,%rax,8), %xmm0, %xmm0
	vmovsd	%xmm0, (%rcx,%rax,8)
# %bb.92:                               # %for.inc387
                                        #   in Loop: Header=BB8_90 Depth=3
	movl	-12(%rbp), %eax
	addl	$1, %eax
	movl	%eax, -12(%rbp)
	jmp	.LBB8_90
.LBB8_93:                               # %for.end389
                                        #   in Loop: Header=BB8_88 Depth=2
	movslq	-16(%rbp), %rax
	imulq	$120, %rax, %rax
	leaq	-832(%rbp), %rcx
	addq	%rax, %rcx
	movslq	-32(%rbp), %rax
	vmovsd	(%rcx,%rax,8), %xmm0    # xmm0 = mem[0],zero
	vxorps	%xmm1, %xmm1, %xmm1
	vucomisd	%xmm1, %xmm0
	jne	.LBB8_94
	jp	.LBB8_94
	jmp	.LBB8_95
.LBB8_94:                               # %if.then396
                                        #   in Loop: Header=BB8_88 Depth=2
	vmovsd	.LCPI8_0(%rip), %xmm0   # xmm0 = mem[0],zero
	vcvtsi2sdl	-36(%rbp), %xmm0, %xmm1
	vmulsd	-72(%rbp), %xmm1, %xmm1
	movslq	-16(%rbp), %rax
	imulq	$120, %rax, %rax
	leaq	-832(%rbp), %rcx
	addq	%rax, %rcx
	movslq	-32(%rbp), %rax
	vdivsd	(%rcx,%rax,8), %xmm1, %xmm1
	vaddsd	%xmm0, %xmm1, %xmm0
	vcvttsd2si	%xmm0, %eax
	movl	%eax, -44(%rbp)
	jmp	.LBB8_96
.LBB8_95:                               # %if.else406
                                        #   in Loop: Header=BB8_88 Depth=2
	movl	-36(%rbp), %eax
	movl	%eax, -44(%rbp)
.LBB8_96:                               # %if.end407
                                        #   in Loop: Header=BB8_88 Depth=2
	cmpl	$-64, -44(%rbp)
	jl	.LBB8_98
# %bb.97:                               # %lor.lhs.false410
                                        #   in Loop: Header=BB8_88 Depth=2
	cmpl	$127, -44(%rbp)
	jle	.LBB8_99
.LBB8_98:                               # %if.then413
                                        #   in Loop: Header=BB8_88 Depth=2
	movl	-36(%rbp), %eax
	movl	%eax, -44(%rbp)
.LBB8_99:                               # %if.end414
                                        #   in Loop: Header=BB8_88 Depth=2
	movl	$0, -100(%rbp)
	movl	-44(%rbp), %eax
	movslq	-16(%rbp), %rcx
	imulq	$180, %rcx, %rcx
	leaq	-3008(%rbp), %rdx
	movq	%rdx, %rsi
	addq	%rcx, %rsi
	movslq	-32(%rbp), %rcx
	imulq	$12, %rcx, %rcx
	addq	%rcx, %rsi
	movl	%eax, (%rsi)
	movl	-64(%rbp), %eax
	movslq	-16(%rbp), %rcx
	imulq	$180, %rcx, %rcx
	movq	%rdx, %rsi
	addq	%rcx, %rsi
	movslq	-32(%rbp), %rcx
	imulq	$12, %rcx, %rcx
	addq	%rcx, %rsi
	movl	%eax, 4(%rsi)
	movl	-64(%rbp), %eax
	movslq	-16(%rbp), %rcx
	imulq	$180, %rcx, %rcx
	addq	%rcx, %rdx
	movslq	-32(%rbp), %rcx
	imulq	$12, %rcx, %rcx
	addq	%rcx, %rdx
	movl	%eax, 8(%rdx)
	movslq	-16(%rbp), %rax
	imulq	$180, %rax, %rax
	leaq	-1920(%rbp), %rcx
	movq	%rcx, %rdx
	addq	%rax, %rdx
	movslq	-32(%rbp), %rax
	imulq	$12, %rax, %rax
	addq	%rax, %rdx
	movl	$0, (%rdx)
	movslq	-16(%rbp), %rax
	imulq	$180, %rax, %rax
	movq	%rcx, %rdx
	addq	%rax, %rdx
	movslq	-32(%rbp), %rax
	imulq	$12, %rax, %rax
	addq	%rax, %rdx
	movl	$0, 4(%rdx)
	movslq	-16(%rbp), %rax
	imulq	$180, %rax, %rax
	addq	%rax, %rcx
	movslq	-32(%rbp), %rax
	imulq	$12, %rax, %rax
	addq	%rax, %rcx
	movl	$0, 8(%rcx)
# %bb.100:                              # %for.inc445
                                        #   in Loop: Header=BB8_88 Depth=2
	movl	-32(%rbp), %eax
	addl	$1, %eax
	movl	%eax, -32(%rbp)
	jmp	.LBB8_88
.LBB8_101:                              # %for.end447
                                        #   in Loop: Header=BB8_86 Depth=1
	jmp	.LBB8_102
.LBB8_102:                              # %for.inc448
                                        #   in Loop: Header=BB8_86 Depth=1
	movl	-16(%rbp), %eax
	addl	$1, %eax
	movl	%eax, -16(%rbp)
	jmp	.LBB8_86
.LBB8_103:                              # %for.end450
	movq	active_pps, %rax
	cmpl	$1, 196(%rax)
	jne	.LBB8_117
# %bb.104:                              # %if.then453
	movl	$0, -16(%rbp)
.LBB8_105:                              # %for.cond454
                                        # =>This Loop Header: Depth=1
                                        #     Child Loop BB8_107 Depth 2
                                        #       Child Loop BB8_109 Depth 3
	movl	-16(%rbp), %eax
	movl	-40(%rbp), %ecx
	addl	$2, %ecx
	cmpl	%ecx, %eax
	jge	.LBB8_116
# %bb.106:                              # %for.body458
                                        #   in Loop: Header=BB8_105 Depth=1
	movl	$0, -28(%rbp)
.LBB8_107:                              # %for.cond459
                                        #   Parent Loop BB8_105 Depth=1
                                        # =>  This Loop Header: Depth=2
                                        #       Child Loop BB8_109 Depth 3
	movl	-28(%rbp), %eax
	movslq	-16(%rbp), %rcx
	cmpl	listXsize(,%rcx,4), %eax
	jge	.LBB8_114
# %bb.108:                              # %for.body464
                                        #   in Loop: Header=BB8_107 Depth=2
	movl	$0, -20(%rbp)
.LBB8_109:                              # %for.cond465
                                        #   Parent Loop BB8_105 Depth=1
                                        #     Parent Loop BB8_107 Depth=2
                                        # =>    This Inner Loop Header: Depth=3
	cmpl	$3, -20(%rbp)
	jge	.LBB8_112
# %bb.110:                              # %for.body468
                                        #   in Loop: Header=BB8_109 Depth=3
	movslq	-16(%rbp), %rax
	imulq	$180, %rax, %rax
	leaq	-3008(%rbp), %rcx
	addq	%rax, %rcx
	movslq	-28(%rbp), %rax
	imulq	$12, %rax, %rax
	addq	%rax, %rcx
	movslq	-20(%rbp), %rax
	movl	(%rcx,%rax,4), %eax
	movq	wp_weight, %rcx
	movslq	-16(%rbp), %rdx
	movq	(%rcx,%rdx,8), %rcx
	movslq	-28(%rbp), %rdx
	movq	(%rcx,%rdx,8), %rcx
	movslq	-20(%rbp), %rdx
	movl	%eax, (%rcx,%rdx,4)
	movslq	-16(%rbp), %rax
	imulq	$180, %rax, %rax
	leaq	-1920(%rbp), %rcx
	addq	%rax, %rcx
	movslq	-28(%rbp), %rax
	imulq	$12, %rax, %rax
	addq	%rax, %rcx
	movslq	-20(%rbp), %rax
	movl	(%rcx,%rax,4), %eax
	movq	wp_offset, %rcx
	movslq	-16(%rbp), %rdx
	movq	(%rcx,%rdx,8), %rcx
	movslq	-28(%rbp), %rdx
	movq	(%rcx,%rdx,8), %rcx
	movslq	-20(%rbp), %rdx
	movl	%eax, (%rcx,%rdx,4)
# %bb.111:                              # %for.inc493
                                        #   in Loop: Header=BB8_109 Depth=3
	movl	-20(%rbp), %eax
	addl	$1, %eax
	movl	%eax, -20(%rbp)
	jmp	.LBB8_109
.LBB8_112:                              # %for.end495
                                        #   in Loop: Header=BB8_107 Depth=2
	jmp	.LBB8_113
.LBB8_113:                              # %for.inc496
                                        #   in Loop: Header=BB8_107 Depth=2
	movl	-28(%rbp), %eax
	addl	$1, %eax
	movl	%eax, -28(%rbp)
	jmp	.LBB8_107
.LBB8_114:                              # %for.end498
                                        #   in Loop: Header=BB8_105 Depth=1
	jmp	.LBB8_115
.LBB8_115:                              # %for.inc499
                                        #   in Loop: Header=BB8_105 Depth=1
	movl	-16(%rbp), %eax
	addl	$1, %eax
	movl	%eax, -16(%rbp)
	jmp	.LBB8_105
.LBB8_116:                              # %for.end501
	jmp	.LBB8_126
.LBB8_117:                              # %if.else502
	movl	$0, -16(%rbp)
.LBB8_118:                              # %for.cond503
                                        # =>This Loop Header: Depth=1
                                        #     Child Loop BB8_120 Depth 2
	movl	-16(%rbp), %eax
	movl	-40(%rbp), %ecx
	addl	$2, %ecx
	cmpl	%ecx, %eax
	jge	.LBB8_125
# %bb.119:                              # %for.body507
                                        #   in Loop: Header=BB8_118 Depth=1
	movl	$0, -28(%rbp)
.LBB8_120:                              # %for.cond508
                                        #   Parent Loop BB8_118 Depth=1
                                        # =>  This Inner Loop Header: Depth=2
	movl	-28(%rbp), %eax
	movslq	-16(%rbp), %rcx
	cmpl	listXsize(,%rcx,4), %eax
	jge	.LBB8_123
# %bb.121:                              # %for.body513
                                        #   in Loop: Header=BB8_120 Depth=2
	movl	luma_log_weight_denom, %ecx
                                        # kill: def $cl killed $ecx
	movl	$1, %eax
	movl	$1, %edx
	shll	%cl, %edx
	movq	wp_weight, %rcx
	movslq	-16(%rbp), %rsi
	movq	(%rcx,%rsi,8), %rcx
	movslq	-28(%rbp), %rsi
	movq	(%rcx,%rsi,8), %rcx
	movl	%edx, (%rcx)
	movl	chroma_log_weight_denom, %ecx
                                        # kill: def $cl killed $ecx
	movl	$1, %edx
	shll	%cl, %edx
	movq	wp_weight, %rcx
	movslq	-16(%rbp), %rsi
	movq	(%rcx,%rsi,8), %rcx
	movslq	-28(%rbp), %rsi
	movq	(%rcx,%rsi,8), %rcx
	movl	%edx, 4(%rcx)
	movl	chroma_log_weight_denom, %ecx
                                        # kill: def $cl killed $ecx
	shll	%cl, %eax
	movq	wp_weight, %rcx
	movslq	-16(%rbp), %rdx
	movq	(%rcx,%rdx,8), %rcx
	movslq	-28(%rbp), %rdx
	movq	(%rcx,%rdx,8), %rcx
	movl	%eax, 8(%rcx)
	movq	wp_offset, %rax
	movslq	-16(%rbp), %rcx
	movq	(%rax,%rcx,8), %rax
	movslq	-28(%rbp), %rcx
	movq	(%rax,%rcx,8), %rax
	movl	$0, (%rax)
	movq	wp_offset, %rax
	movslq	-16(%rbp), %rcx
	movq	(%rax,%rcx,8), %rax
	movslq	-28(%rbp), %rcx
	movq	(%rax,%rcx,8), %rax
	movl	$0, 4(%rax)
	movq	wp_offset, %rax
	movslq	-16(%rbp), %rcx
	movq	(%rax,%rcx,8), %rax
	movslq	-28(%rbp), %rcx
	movq	(%rax,%rcx,8), %rax
	movl	$0, 8(%rax)
# %bb.122:                              # %for.inc547
                                        #   in Loop: Header=BB8_120 Depth=2
	movl	-28(%rbp), %eax
	addl	$1, %eax
	movl	%eax, -28(%rbp)
	jmp	.LBB8_120
.LBB8_123:                              # %for.end549
                                        #   in Loop: Header=BB8_118 Depth=1
	jmp	.LBB8_124
.LBB8_124:                              # %for.inc550
                                        #   in Loop: Header=BB8_118 Depth=1
	movl	-16(%rbp), %eax
	addl	$1, %eax
	movl	%eax, -16(%rbp)
	jmp	.LBB8_118
.LBB8_125:                              # %for.end552
	jmp	.LBB8_126
.LBB8_126:                              # %if.end553
	movl	$0, -12(%rbp)
.LBB8_127:                              # %for.cond554
                                        # =>This Loop Header: Depth=1
                                        #     Child Loop BB8_129 Depth 2
                                        #       Child Loop BB8_131 Depth 3
	movl	-12(%rbp), %eax
	cmpl	listXsize, %eax
	jge	.LBB8_141
# %bb.128:                              # %for.body557
                                        #   in Loop: Header=BB8_127 Depth=1
	movl	$0, -24(%rbp)
.LBB8_129:                              # %for.cond558
                                        #   Parent Loop BB8_127 Depth=1
                                        # =>  This Loop Header: Depth=2
                                        #       Child Loop BB8_131 Depth 3
	movl	-24(%rbp), %eax
	cmpl	listXsize+4, %eax
	jge	.LBB8_139
# %bb.130:                              # %for.body561
                                        #   in Loop: Header=BB8_129 Depth=2
	movl	$0, -20(%rbp)
.LBB8_131:                              # %for.cond562
                                        #   Parent Loop BB8_127 Depth=1
                                        #     Parent Loop BB8_129 Depth=2
                                        # =>    This Inner Loop Header: Depth=3
	cmpl	$3, -20(%rbp)
	jge	.LBB8_137
# %bb.132:                              # %for.body565
                                        #   in Loop: Header=BB8_131 Depth=3
	cmpl	$0, -20(%rbp)
	jne	.LBB8_134
# %bb.133:                              # %cond.true568
                                        #   in Loop: Header=BB8_131 Depth=3
	movl	luma_log_weight_denom, %eax
	jmp	.LBB8_135
.LBB8_134:                              # %cond.false569
                                        #   in Loop: Header=BB8_131 Depth=3
	movl	chroma_log_weight_denom, %eax
.LBB8_135:                              # %cond.end570
                                        #   in Loop: Header=BB8_131 Depth=3
	movl	%eax, -88(%rbp)
	movq	wp_weight, %rax
	movq	(%rax), %rax
	movslq	-12(%rbp), %rcx
	movq	(%rax,%rcx,8), %rax
	movslq	-20(%rbp), %rcx
	movl	(%rax,%rcx,4), %eax
	movq	wbp_weight, %rcx
	movq	(%rcx), %rcx
	movslq	-12(%rbp), %rdx
	movq	(%rcx,%rdx,8), %rcx
	movslq	-24(%rbp), %rdx
	movq	(%rcx,%rdx,8), %rcx
	movslq	-20(%rbp), %rdx
	movl	%eax, (%rcx,%rdx,4)
	movq	wp_weight, %rax
	movq	8(%rax), %rax
	movslq	-24(%rbp), %rcx
	movq	(%rax,%rcx,8), %rax
	movslq	-20(%rbp), %rcx
	movl	(%rax,%rcx,4), %eax
	movq	wbp_weight, %rcx
	movq	8(%rcx), %rcx
	movslq	-12(%rbp), %rdx
	movq	(%rcx,%rdx,8), %rcx
	movslq	-24(%rbp), %rdx
	movq	(%rcx,%rdx,8), %rcx
	movslq	-20(%rbp), %rdx
	movl	%eax, (%rcx,%rdx,4)
# %bb.136:                              # %for.inc596
                                        #   in Loop: Header=BB8_131 Depth=3
	movl	-20(%rbp), %eax
	addl	$1, %eax
	movl	%eax, -20(%rbp)
	jmp	.LBB8_131
.LBB8_137:                              # %for.end598
                                        #   in Loop: Header=BB8_129 Depth=2
	jmp	.LBB8_138
.LBB8_138:                              # %for.inc599
                                        #   in Loop: Header=BB8_129 Depth=2
	movl	-24(%rbp), %eax
	addl	$1, %eax
	movl	%eax, -24(%rbp)
	jmp	.LBB8_129
.LBB8_139:                              # %for.end601
                                        #   in Loop: Header=BB8_127 Depth=1
	jmp	.LBB8_140
.LBB8_140:                              # %for.inc602
                                        #   in Loop: Header=BB8_127 Depth=1
	movl	-12(%rbp), %eax
	addl	$1, %eax
	movl	%eax, -12(%rbp)
	jmp	.LBB8_127
.LBB8_141:                              # %for.end604
	jmp	.LBB8_142
.LBB8_142:                              # %if.end605
	movl	$0, -16(%rbp)
.LBB8_143:                              # %for.cond606
                                        # =>This Loop Header: Depth=1
                                        #     Child Loop BB8_145 Depth 2
                                        #       Child Loop BB8_147 Depth 3
	movl	-16(%rbp), %eax
	movl	-40(%rbp), %ecx
	addl	$2, %ecx
	cmpl	%ecx, %eax
	jge	.LBB8_163
# %bb.144:                              # %for.body610
                                        #   in Loop: Header=BB8_143 Depth=1
	movl	$0, -28(%rbp)
.LBB8_145:                              # %for.cond611
                                        #   Parent Loop BB8_143 Depth=1
                                        # =>  This Loop Header: Depth=2
                                        #       Child Loop BB8_147 Depth 3
	movl	-28(%rbp), %eax
	movslq	-16(%rbp), %rcx
	cmpl	listXsize(,%rcx,4), %eax
	jge	.LBB8_158
# %bb.146:                              # %for.body616
                                        #   in Loop: Header=BB8_145 Depth=2
	movl	$0, -20(%rbp)
.LBB8_147:                              # %for.cond617
                                        #   Parent Loop BB8_143 Depth=1
                                        #     Parent Loop BB8_145 Depth=2
                                        # =>    This Inner Loop Header: Depth=3
	cmpl	$3, -20(%rbp)
	jge	.LBB8_153
# %bb.148:                              # %for.body620
                                        #   in Loop: Header=BB8_147 Depth=3
	movq	wp_weight, %rax
	movslq	-16(%rbp), %rcx
	movq	(%rax,%rcx,8), %rax
	movslq	-28(%rbp), %rcx
	movq	(%rax,%rcx,8), %rax
	movslq	-20(%rbp), %rcx
	movl	(%rax,%rcx,4), %eax
	cmpl	-36(%rbp), %eax
	jne	.LBB8_150
# %bb.149:                              # %lor.lhs.false629
                                        #   in Loop: Header=BB8_147 Depth=3
	movq	wp_offset, %rax
	movslq	-16(%rbp), %rcx
	movq	(%rax,%rcx,8), %rax
	movslq	-28(%rbp), %rcx
	movq	(%rax,%rcx,8), %rax
	movslq	-20(%rbp), %rcx
	cmpl	$0, (%rax,%rcx,4)
	je	.LBB8_151
.LBB8_150:                              # %if.then638
                                        #   in Loop: Header=BB8_145 Depth=2
	movl	$1, -48(%rbp)
	jmp	.LBB8_154
.LBB8_151:                              # %if.end639
                                        #   in Loop: Header=BB8_147 Depth=3
	jmp	.LBB8_152
.LBB8_152:                              # %for.inc640
                                        #   in Loop: Header=BB8_147 Depth=3
	movl	-20(%rbp), %eax
	addl	$1, %eax
	movl	%eax, -20(%rbp)
	jmp	.LBB8_147
.LBB8_153:                              # %for.end642.loopexit
                                        #   in Loop: Header=BB8_145 Depth=2
	jmp	.LBB8_154
.LBB8_154:                              # %for.end642
                                        #   in Loop: Header=BB8_145 Depth=2
	cmpl	$1, -48(%rbp)
	jne	.LBB8_156
# %bb.155:                              # %if.then645
                                        #   in Loop: Header=BB8_143 Depth=1
	jmp	.LBB8_159
.LBB8_156:                              # %if.end646
                                        #   in Loop: Header=BB8_145 Depth=2
	jmp	.LBB8_157
.LBB8_157:                              # %for.inc647
                                        #   in Loop: Header=BB8_145 Depth=2
	movl	-28(%rbp), %eax
	addl	$1, %eax
	movl	%eax, -28(%rbp)
	jmp	.LBB8_145
.LBB8_158:                              # %for.end649.loopexit
                                        #   in Loop: Header=BB8_143 Depth=1
	jmp	.LBB8_159
.LBB8_159:                              # %for.end649
                                        #   in Loop: Header=BB8_143 Depth=1
	cmpl	$1, -48(%rbp)
	jne	.LBB8_161
# %bb.160:                              # %if.then652
	jmp	.LBB8_164
.LBB8_161:                              # %if.end653
                                        #   in Loop: Header=BB8_143 Depth=1
	jmp	.LBB8_162
.LBB8_162:                              # %for.inc654
                                        #   in Loop: Header=BB8_143 Depth=1
	movl	-16(%rbp), %eax
	addl	$1, %eax
	movl	%eax, -16(%rbp)
	jmp	.LBB8_143
.LBB8_163:                              # %for.end656.loopexit
	jmp	.LBB8_164
.LBB8_164:                              # %for.end656
	movl	-48(%rbp), %ebx
	cmpl	$1560721006, -80(%rbp)  # imm = 0x5D06B66E
	jne	.LBB8_166
.LBB8_165:
	movl	%ebx, %eax
	addq	$35416, %rsp            # imm = 0x8A58
	popq	%rbx
	popq	%rbp
	.cfi_def_cfa %rsp, 8
	retq
.LBB8_166:                              # %func_exit
	.cfi_def_cfa %rbp, 16
	callq	detect_breach
	jmp	.LBB8_165
.Lfunc_end8:
	.size	test_wp_B_slice.5, .Lfunc_end8-test_wp_B_slice.5
	.cfi_endproc
                                        # -- End function
	.section	.rodata.cst8,"aM",@progbits,8
	.p2align	3               # -- Begin function test_wp_P_slice.6
.LCPI9_0:
	.quad	4602678819172646912     # double 0.5
	.text
	.globl	test_wp_P_slice.6
	.p2align	4, 0x90
	.type	test_wp_P_slice.6,@function
test_wp_P_slice.6:                      # @test_wp_P_slice.6
	.cfi_startproc
# %bb.0:                                # %entry
	pushq	%rbp
	.cfi_def_cfa_offset 16
	.cfi_offset %rbp, -16
	movq	%rsp, %rbp
	.cfi_def_cfa_register %rbp
	pushq	%rbx
	subq	$936, %rsp              # imm = 0x3A8
	.cfi_offset %rbx, -24
	movl	$1666444132, -64(%rbp)  # imm = 0x6353EB64
	movl	%edi, -60(%rbp)
	vxorps	%xmm0, %xmm0, %xmm0
	vmovsd	%xmm0, -56(%rbp)
	movq	img, %rax
	cmpl	$0, 72400(%rax)
	je	.LBB9_3
# %bb.1:                                # %land.lhs.true
	movq	img, %rax
	movq	14168(%rax), %rax
	movq	img, %rcx
	movslq	12(%rcx), %rcx
	imulq	$632, %rcx, %rcx        # imm = 0x278
	addq	%rcx, %rax
	cmpl	$0, 532(%rax)
	je	.LBB9_3
# %bb.2:                                # %cond.true
	movq	img, %rax
	movl	12(%rax), %eax
	cltd
	movl	$2, %ecx
	idivl	%ecx
	cmpl	$0, %edx
	movl	$4, %eax
	cmovnel	%eax, %ecx
	jmp	.LBB9_4
.LBB9_3:                                # %cond.false
	xorl	%ecx, %ecx
	jmp	.LBB9_4
.LBB9_4:                                # %cond.end
	movl	%ecx, -44(%rbp)
	movl	$0, -40(%rbp)
	movl	$5, luma_log_weight_denom
	movl	$5, chroma_log_weight_denom
	movl	luma_log_weight_denom, %ecx
	subl	$1, %ecx
                                        # kill: def $cl killed $ecx
	movl	$1, %eax
	movl	$1, %edx
	shll	%cl, %edx
	movl	%edx, wp_luma_round
	movl	chroma_log_weight_denom, %ecx
	subl	$1, %ecx
                                        # kill: def $cl killed $ecx
	movl	$1, %edx
	shll	%cl, %edx
	movl	%edx, wp_chroma_round
	movl	luma_log_weight_denom, %ecx
                                        # kill: def $cl killed $ecx
	movl	$1, %edx
	shll	%cl, %edx
	movl	%edx, -28(%rbp)
	movl	chroma_log_weight_denom, %ecx
                                        # kill: def $cl killed $ecx
	shll	%cl, %eax
	movl	%eax, -48(%rbp)
	movl	$0, -20(%rbp)
.LBB9_5:                                # %for.cond
                                        # =>This Loop Header: Depth=1
                                        #     Child Loop BB9_7 Depth 2
                                        #       Child Loop BB9_9 Depth 3
	movl	-20(%rbp), %eax
	movl	-44(%rbp), %ecx
	addl	$2, %ecx
	cmpl	%ecx, %eax
	jge	.LBB9_16
# %bb.6:                                # %for.body
                                        #   in Loop: Header=BB9_5 Depth=1
	movl	$0, -24(%rbp)
.LBB9_7:                                # %for.cond9
                                        #   Parent Loop BB9_5 Depth=1
                                        # =>  This Loop Header: Depth=2
                                        #       Child Loop BB9_9 Depth 3
	movl	-24(%rbp), %eax
	movslq	-20(%rbp), %rcx
	cmpl	listXsize(,%rcx,4), %eax
	jge	.LBB9_14
# %bb.8:                                # %for.body13
                                        #   in Loop: Header=BB9_7 Depth=2
	movl	$0, -12(%rbp)
.LBB9_9:                                # %for.cond14
                                        #   Parent Loop BB9_5 Depth=1
                                        #     Parent Loop BB9_7 Depth=2
                                        # =>    This Inner Loop Header: Depth=3
	cmpl	$3, -12(%rbp)
	jge	.LBB9_12
# %bb.10:                               # %for.body16
                                        #   in Loop: Header=BB9_9 Depth=3
	movl	-28(%rbp), %eax
	movslq	-20(%rbp), %rcx
	imulq	$180, %rcx, %rcx
	leaq	-576(%rbp), %rdx
	addq	%rcx, %rdx
	movslq	-24(%rbp), %rcx
	imulq	$12, %rcx, %rcx
	addq	%rcx, %rdx
	movslq	-12(%rbp), %rcx
	movl	%eax, (%rdx,%rcx,4)
	movl	-28(%rbp), %eax
	movq	wp_weight, %rcx
	movslq	-20(%rbp), %rdx
	movq	(%rcx,%rdx,8), %rcx
	movslq	-24(%rbp), %rdx
	movq	(%rcx,%rdx,8), %rcx
	movslq	-12(%rbp), %rdx
	movl	%eax, (%rcx,%rdx,4)
	movq	wp_offset, %rax
	movslq	-20(%rbp), %rcx
	movq	(%rax,%rcx,8), %rax
	movslq	-24(%rbp), %rcx
	movq	(%rax,%rcx,8), %rax
	movslq	-12(%rbp), %rcx
	movl	$0, (%rax,%rcx,4)
	movslq	-20(%rbp), %rax
	imulq	$180, %rax, %rax
	leaq	-944(%rbp), %rcx
	addq	%rax, %rcx
	movslq	-24(%rbp), %rax
	imulq	$12, %rax, %rax
	addq	%rax, %rcx
	movslq	-12(%rbp), %rax
	movl	$0, (%rcx,%rax,4)
# %bb.11:                               # %for.inc
                                        #   in Loop: Header=BB9_9 Depth=3
	movl	-12(%rbp), %eax
	addl	$1, %eax
	movl	%eax, -12(%rbp)
	jmp	.LBB9_9
.LBB9_12:                               # %for.end
                                        #   in Loop: Header=BB9_7 Depth=2
	jmp	.LBB9_13
.LBB9_13:                               # %for.inc41
                                        #   in Loop: Header=BB9_7 Depth=2
	movl	-24(%rbp), %eax
	addl	$1, %eax
	movl	%eax, -24(%rbp)
	jmp	.LBB9_7
.LBB9_14:                               # %for.end43
                                        #   in Loop: Header=BB9_5 Depth=1
	jmp	.LBB9_15
.LBB9_15:                               # %for.inc44
                                        #   in Loop: Header=BB9_5 Depth=1
	movl	-20(%rbp), %eax
	addl	$1, %eax
	movl	%eax, -20(%rbp)
	jmp	.LBB9_5
.LBB9_16:                               # %for.end46
	movl	$0, -20(%rbp)
.LBB9_17:                               # %for.cond47
                                        # =>This Loop Header: Depth=1
                                        #     Child Loop BB9_19 Depth 2
	movl	-20(%rbp), %eax
	movq	img, %rcx
	cmpl	60(%rcx), %eax
	jge	.LBB9_24
# %bb.18:                               # %for.body49
                                        #   in Loop: Header=BB9_17 Depth=1
	movl	$0, -24(%rbp)
.LBB9_19:                               # %for.cond50
                                        #   Parent Loop BB9_17 Depth=1
                                        # =>  This Inner Loop Header: Depth=2
	movl	-24(%rbp), %eax
	movq	img, %rcx
	cmpl	52(%rcx), %eax
	jge	.LBB9_22
# %bb.20:                               # %for.body52
                                        #   in Loop: Header=BB9_19 Depth=2
	movq	imgY_org(%rip), %rax
	movslq	-20(%rbp), %rcx
	movq	(%rax,%rcx,8), %rax
	movslq	-24(%rbp), %rcx
	movzwl	(%rax,%rcx,2), %eax
	vcvtsi2sd	%eax, %xmm0, %xmm0
	vaddsd	-56(%rbp), %xmm0, %xmm0
	vmovsd	%xmm0, -56(%rbp)
# %bb.21:                               # %for.inc58
                                        #   in Loop: Header=BB9_19 Depth=2
	movl	-24(%rbp), %eax
	addl	$1, %eax
	movl	%eax, -24(%rbp)
	jmp	.LBB9_19
.LBB9_22:                               # %for.end60
                                        #   in Loop: Header=BB9_17 Depth=1
	jmp	.LBB9_23
.LBB9_23:                               # %for.inc61
                                        #   in Loop: Header=BB9_17 Depth=1
	movl	-20(%rbp), %eax
	addl	$1, %eax
	movl	%eax, -20(%rbp)
	jmp	.LBB9_17
.LBB9_24:                               # %for.end63
	movl	$0, -16(%rbp)
.LBB9_25:                               # %for.cond64
                                        # =>This Loop Header: Depth=1
                                        #     Child Loop BB9_27 Depth 2
                                        #       Child Loop BB9_29 Depth 3
	movl	-16(%rbp), %eax
	movl	-44(%rbp), %ecx
	addl	$2, %ecx
	cmpl	%ecx, %eax
	jge	.LBB9_51
# %bb.26:                               # %for.body68
                                        #   in Loop: Header=BB9_25 Depth=1
	movl	$0, -12(%rbp)
.LBB9_27:                               # %for.cond69
                                        #   Parent Loop BB9_25 Depth=1
                                        # =>  This Loop Header: Depth=2
                                        #       Child Loop BB9_29 Depth 3
	movl	-12(%rbp), %eax
	movslq	-16(%rbp), %rcx
	cmpl	listXsize(,%rcx,4), %eax
	jge	.LBB9_49
# %bb.28:                               # %for.body74
                                        #   in Loop: Header=BB9_27 Depth=2
	movslq	-12(%rbp), %rax
	vxorps	%xmm0, %xmm0, %xmm0
	vmovsd	%xmm0, -208(%rbp,%rax,8)
	movslq	-16(%rbp), %rax
	movq	listX(,%rax,8), %rax
	movslq	-12(%rbp), %rcx
	movq	(%rax,%rcx,8), %rax
	movq	6432(%rax), %rax
	movq	%rax, -72(%rbp)
	movslq	-16(%rbp), %rax
	movq	listX(,%rax,8), %rax
	movslq	-12(%rbp), %rcx
	movq	(%rax,%rcx,8), %rax
	movq	6440(%rax), %rax
	movq	%rax, -80(%rbp)
	movl	$0, -20(%rbp)
.LBB9_29:                               # %for.cond85
                                        #   Parent Loop BB9_25 Depth=1
                                        #     Parent Loop BB9_27 Depth=2
                                        # =>    This Inner Loop Header: Depth=3
	movl	-20(%rbp), %eax
	movq	img, %rcx
	movl	60(%rcx), %ecx
	movq	img, %rdx
	imull	52(%rdx), %ecx
	cmpl	%ecx, %eax
	jge	.LBB9_32
# %bb.30:                               # %for.body90
                                        #   in Loop: Header=BB9_29 Depth=3
	movq	-72(%rbp), %rax
	movslq	-20(%rbp), %rcx
	movzwl	(%rax,%rcx,2), %eax
	vcvtsi2sd	%eax, %xmm0, %xmm0
	movslq	-12(%rbp), %rax
	vaddsd	-208(%rbp,%rax,8), %xmm0, %xmm0
	vmovsd	%xmm0, -208(%rbp,%rax,8)
# %bb.31:                               # %for.inc97
                                        #   in Loop: Header=BB9_29 Depth=3
	movl	-20(%rbp), %eax
	addl	$1, %eax
	movl	%eax, -20(%rbp)
	jmp	.LBB9_29
.LBB9_32:                               # %for.end99
                                        #   in Loop: Header=BB9_27 Depth=2
	cmpl	$0, -60(%rbp)
	jne	.LBB9_40
# %bb.33:                               # %if.then
                                        #   in Loop: Header=BB9_27 Depth=2
	movslq	-12(%rbp), %rax
	vmovsd	-208(%rbp,%rax,8), %xmm0 # xmm0 = mem[0],zero
	vxorps	%xmm1, %xmm1, %xmm1
	vucomisd	%xmm1, %xmm0
	jne	.LBB9_34
	jp	.LBB9_34
	jmp	.LBB9_35
.LBB9_34:                               # %if.then106
                                        #   in Loop: Header=BB9_27 Depth=2
	vmovsd	.LCPI9_0(%rip), %xmm0   # xmm0 = mem[0],zero
	vcvtsi2sdl	-28(%rbp), %xmm0, %xmm1
	vmulsd	-56(%rbp), %xmm1, %xmm1
	movslq	-12(%rbp), %rax
	vdivsd	-208(%rbp,%rax,8), %xmm1, %xmm1
	vaddsd	%xmm0, %xmm1, %xmm0
	vcvttsd2si	%xmm0, %eax
	movslq	-16(%rbp), %rcx
	imulq	$180, %rcx, %rcx
	leaq	-576(%rbp), %rdx
	addq	%rcx, %rdx
	movslq	-12(%rbp), %rcx
	imulq	$12, %rcx, %rcx
	addq	%rcx, %rdx
	movl	%eax, (%rdx)
	jmp	.LBB9_36
.LBB9_35:                               # %if.else
                                        #   in Loop: Header=BB9_27 Depth=2
	movl	-28(%rbp), %eax
	movslq	-16(%rbp), %rcx
	imulq	$180, %rcx, %rcx
	leaq	-576(%rbp), %rdx
	addq	%rcx, %rdx
	movslq	-12(%rbp), %rcx
	imulq	$12, %rcx, %rcx
	addq	%rcx, %rdx
	movl	%eax, (%rdx)
.LBB9_36:                               # %if.end
                                        #   in Loop: Header=BB9_27 Depth=2
	movslq	-16(%rbp), %rax
	imulq	$180, %rax, %rax
	leaq	-576(%rbp), %rcx
	addq	%rax, %rcx
	movslq	-12(%rbp), %rax
	imulq	$12, %rax, %rax
	addq	%rax, %rcx
	cmpl	$-64, (%rcx)
	jl	.LBB9_38
# %bb.37:                               # %lor.lhs.false
                                        #   in Loop: Header=BB9_27 Depth=2
	movslq	-16(%rbp), %rax
	imulq	$180, %rax, %rax
	leaq	-576(%rbp), %rcx
	addq	%rax, %rcx
	movslq	-12(%rbp), %rax
	imulq	$12, %rax, %rax
	addq	%rax, %rcx
	cmpl	$127, (%rcx)
	jle	.LBB9_39
.LBB9_38:                               # %if.then137
                                        #   in Loop: Header=BB9_27 Depth=2
	movslq	-16(%rbp), %rax
	imulq	$180, %rax, %rax
	leaq	-576(%rbp), %rcx
	addq	%rax, %rcx
	movslq	-12(%rbp), %rax
	imulq	$12, %rax, %rax
	addq	%rax, %rcx
	movl	$32, (%rcx)
.LBB9_39:                               # %if.end143
                                        #   in Loop: Header=BB9_27 Depth=2
	jmp	.LBB9_47
.LBB9_40:                               # %if.else144
                                        #   in Loop: Header=BB9_27 Depth=2
	vmovsd	.LCPI9_0(%rip), %xmm0   # xmm0 = mem[0],zero
	vmovsd	-56(%rbp), %xmm1        # xmm1 = mem[0],zero
	movslq	-12(%rbp), %rax
	vsubsd	-208(%rbp,%rax,8), %xmm1, %xmm1
	movq	img, %rax
	movl	60(%rax), %eax
	movq	img, %rcx
	imull	52(%rcx), %eax
	vcvtsi2sd	%eax, %xmm0, %xmm2
	vdivsd	%xmm2, %xmm1, %xmm1
	vaddsd	%xmm0, %xmm1, %xmm0
	vcvttsd2si	%xmm0, %eax
	movslq	-16(%rbp), %rcx
	imulq	$180, %rcx, %rcx
	leaq	-944(%rbp), %rdx
	movq	%rdx, %rsi
	addq	%rcx, %rsi
	movslq	-12(%rbp), %rcx
	imulq	$12, %rcx, %rcx
	addq	%rcx, %rsi
	movl	%eax, (%rsi)
	movslq	-16(%rbp), %rax
	imulq	$180, %rax, %rax
	addq	%rax, %rdx
	movslq	-12(%rbp), %rax
	imulq	$12, %rax, %rax
	addq	%rax, %rdx
	cmpl	$-128, (%rdx)
	jge	.LBB9_42
# %bb.41:                               # %cond.true167
                                        #   in Loop: Header=BB9_27 Depth=2
	movl	$4294967168, %eax       # imm = 0xFFFFFF80
	jmp	.LBB9_46
.LBB9_42:                               # %cond.false168
                                        #   in Loop: Header=BB9_27 Depth=2
	movslq	-16(%rbp), %rax
	imulq	$180, %rax, %rax
	leaq	-944(%rbp), %rcx
	addq	%rax, %rcx
	movslq	-12(%rbp), %rax
	imulq	$12, %rax, %rax
	addq	%rax, %rcx
	cmpl	$127, (%rcx)
	jle	.LBB9_44
# %bb.43:                               # %cond.true176
                                        #   in Loop: Header=BB9_27 Depth=2
	movl	$127, %eax
	jmp	.LBB9_45
.LBB9_44:                               # %cond.false177
                                        #   in Loop: Header=BB9_27 Depth=2
	movslq	-16(%rbp), %rax
	imulq	$180, %rax, %rax
	leaq	-944(%rbp), %rcx
	addq	%rax, %rcx
	movslq	-12(%rbp), %rax
	imulq	$12, %rax, %rax
	addq	%rax, %rcx
	movl	(%rcx), %eax
.LBB9_45:                               # %cond.end183
                                        #   in Loop: Header=BB9_27 Depth=2
.LBB9_46:                               # %cond.end185
                                        #   in Loop: Header=BB9_27 Depth=2
	movslq	-16(%rbp), %rcx
	imulq	$180, %rcx, %rcx
	leaq	-944(%rbp), %rdx
	addq	%rcx, %rdx
	movslq	-12(%rbp), %rcx
	imulq	$12, %rcx, %rcx
	addq	%rcx, %rdx
	movl	%eax, (%rdx)
	movl	-28(%rbp), %eax
	movslq	-16(%rbp), %rcx
	imulq	$180, %rcx, %rcx
	leaq	-576(%rbp), %rdx
	addq	%rcx, %rdx
	movslq	-12(%rbp), %rcx
	imulq	$12, %rcx, %rcx
	addq	%rcx, %rdx
	movl	%eax, (%rdx)
.LBB9_47:                               # %if.end197
                                        #   in Loop: Header=BB9_27 Depth=2
	movl	-48(%rbp), %eax
	movslq	-16(%rbp), %rcx
	imulq	$180, %rcx, %rcx
	leaq	-576(%rbp), %rdx
	movq	%rdx, %rsi
	addq	%rcx, %rsi
	movslq	-12(%rbp), %rcx
	imulq	$12, %rcx, %rcx
	addq	%rcx, %rsi
	movl	%eax, 4(%rsi)
	movl	-48(%rbp), %eax
	movslq	-16(%rbp), %rcx
	imulq	$180, %rcx, %rcx
	addq	%rcx, %rdx
	movslq	-12(%rbp), %rcx
	imulq	$12, %rcx, %rcx
	addq	%rcx, %rdx
	movl	%eax, 8(%rdx)
# %bb.48:                               # %for.inc208
                                        #   in Loop: Header=BB9_27 Depth=2
	movl	-12(%rbp), %eax
	addl	$1, %eax
	movl	%eax, -12(%rbp)
	jmp	.LBB9_27
.LBB9_49:                               # %for.end210
                                        #   in Loop: Header=BB9_25 Depth=1
	jmp	.LBB9_50
.LBB9_50:                               # %for.inc211
                                        #   in Loop: Header=BB9_25 Depth=1
	movl	-16(%rbp), %eax
	addl	$1, %eax
	movl	%eax, -16(%rbp)
	jmp	.LBB9_25
.LBB9_51:                               # %for.end213
	movl	$0, -16(%rbp)
.LBB9_52:                               # %for.cond214
                                        # =>This Loop Header: Depth=1
                                        #     Child Loop BB9_54 Depth 2
                                        #       Child Loop BB9_56 Depth 3
	movl	-16(%rbp), %eax
	movl	-44(%rbp), %ecx
	addl	$2, %ecx
	cmpl	%ecx, %eax
	jge	.LBB9_72
# %bb.53:                               # %for.body218
                                        #   in Loop: Header=BB9_52 Depth=1
	movl	$0, -32(%rbp)
.LBB9_54:                               # %for.cond219
                                        #   Parent Loop BB9_52 Depth=1
                                        # =>  This Loop Header: Depth=2
                                        #       Child Loop BB9_56 Depth 3
	movl	-32(%rbp), %eax
	movslq	-16(%rbp), %rcx
	cmpl	listXsize(,%rcx,4), %eax
	jge	.LBB9_67
# %bb.55:                               # %for.body224
                                        #   in Loop: Header=BB9_54 Depth=2
	movl	$0, -36(%rbp)
.LBB9_56:                               # %for.cond225
                                        #   Parent Loop BB9_52 Depth=1
                                        #     Parent Loop BB9_54 Depth=2
                                        # =>    This Inner Loop Header: Depth=3
	cmpl	$3, -36(%rbp)
	jge	.LBB9_62
# %bb.57:                               # %for.body228
                                        #   in Loop: Header=BB9_56 Depth=3
	movslq	-16(%rbp), %rax
	imulq	$180, %rax, %rax
	leaq	-576(%rbp), %rcx
	addq	%rax, %rcx
	movslq	-32(%rbp), %rax
	imulq	$12, %rax, %rax
	addq	%rax, %rcx
	movslq	-36(%rbp), %rax
	movl	(%rcx,%rax,4), %eax
	cmpl	-28(%rbp), %eax
	jne	.LBB9_59
# %bb.58:                               # %lor.lhs.false237
                                        #   in Loop: Header=BB9_56 Depth=3
	movslq	-16(%rbp), %rax
	imulq	$180, %rax, %rax
	leaq	-944(%rbp), %rcx
	addq	%rax, %rcx
	movslq	-32(%rbp), %rax
	imulq	$12, %rax, %rax
	addq	%rax, %rcx
	movslq	-36(%rbp), %rax
	cmpl	$0, (%rcx,%rax,4)
	je	.LBB9_60
.LBB9_59:                               # %if.then246
                                        #   in Loop: Header=BB9_54 Depth=2
	movl	$1, -40(%rbp)
	jmp	.LBB9_63
.LBB9_60:                               # %if.end247
                                        #   in Loop: Header=BB9_56 Depth=3
	jmp	.LBB9_61
.LBB9_61:                               # %for.inc248
                                        #   in Loop: Header=BB9_56 Depth=3
	movl	-36(%rbp), %eax
	addl	$1, %eax
	movl	%eax, -36(%rbp)
	jmp	.LBB9_56
.LBB9_62:                               # %for.end250.loopexit
                                        #   in Loop: Header=BB9_54 Depth=2
	jmp	.LBB9_63
.LBB9_63:                               # %for.end250
                                        #   in Loop: Header=BB9_54 Depth=2
	cmpl	$1, -40(%rbp)
	jne	.LBB9_65
# %bb.64:                               # %if.then253
                                        #   in Loop: Header=BB9_52 Depth=1
	jmp	.LBB9_68
.LBB9_65:                               # %if.end254
                                        #   in Loop: Header=BB9_54 Depth=2
	jmp	.LBB9_66
.LBB9_66:                               # %for.inc255
                                        #   in Loop: Header=BB9_54 Depth=2
	movl	-32(%rbp), %eax
	addl	$1, %eax
	movl	%eax, -32(%rbp)
	jmp	.LBB9_54
.LBB9_67:                               # %for.end257.loopexit
                                        #   in Loop: Header=BB9_52 Depth=1
	jmp	.LBB9_68
.LBB9_68:                               # %for.end257
                                        #   in Loop: Header=BB9_52 Depth=1
	cmpl	$1, -40(%rbp)
	jne	.LBB9_70
# %bb.69:                               # %if.then260
	jmp	.LBB9_73
.LBB9_70:                               # %if.end261
                                        #   in Loop: Header=BB9_52 Depth=1
	jmp	.LBB9_71
.LBB9_71:                               # %for.inc262
                                        #   in Loop: Header=BB9_52 Depth=1
	movl	-16(%rbp), %eax
	addl	$1, %eax
	movl	%eax, -16(%rbp)
	jmp	.LBB9_52
.LBB9_72:                               # %for.end264.loopexit
	jmp	.LBB9_73
.LBB9_73:                               # %for.end264
	movl	-40(%rbp), %ebx
	cmpl	$1666444132, -64(%rbp)  # imm = 0x6353EB64
	jne	.LBB9_75
.LBB9_74:
	movl	%ebx, %eax
	addq	$936, %rsp              # imm = 0x3A8
	popq	%rbx
	popq	%rbp
	.cfi_def_cfa %rsp, 8
	retq
.LBB9_75:                               # %func_exit
	.cfi_def_cfa %rbp, 16
	callq	detect_breach
	jmp	.LBB9_74
.Lfunc_end9:
	.size	test_wp_P_slice.6, .Lfunc_end9-test_wp_P_slice.6
	.cfi_endproc
                                        # -- End function
	.section	.rodata.cst8,"aM",@progbits,8
	.p2align	3               # -- Begin function test_wp_B_slice.7
.LCPI10_0:
	.quad	4602678819172646912     # double 0.5
	.text
	.globl	test_wp_B_slice.7
	.p2align	4, 0x90
	.type	test_wp_B_slice.7,@function
test_wp_B_slice.7:                      # @test_wp_B_slice.7
	.cfi_startproc
# %bb.0:                                # %entry
	pushq	%rbp
	.cfi_def_cfa_offset 16
	.cfi_offset %rbp, -16
	movq	%rsp, %rbp
	.cfi_def_cfa_register %rbp
	pushq	%rbx
	subq	$35416, %rsp            # imm = 0x8A58
	.cfi_offset %rbx, -24
	movl	$303836628, -88(%rbp)   # imm = 0x121C2DD4
	movl	%edi, -80(%rbp)
	vxorps	%xmm0, %xmm0, %xmm0
	vmovsd	%xmm0, -72(%rbp)
	movq	img, %rax
	cmpl	$0, 72400(%rax)
	je	.LBB10_3
# %bb.1:                                # %land.lhs.true
	movq	img, %rax
	movq	14168(%rax), %rax
	movq	img, %rcx
	movslq	12(%rcx), %rcx
	imulq	$632, %rcx, %rcx        # imm = 0x278
	addq	%rcx, %rax
	cmpl	$0, 532(%rax)
	je	.LBB10_3
# %bb.2:                                # %cond.true
	movq	img, %rax
	movl	12(%rax), %eax
	cltd
	movl	$2, %ecx
	idivl	%ecx
	cmpl	$0, %edx
	movl	$4, %eax
	cmovnel	%eax, %ecx
	jmp	.LBB10_4
.LBB10_3:                               # %cond.false
	xorl	%ecx, %ecx
	jmp	.LBB10_4
.LBB10_4:                               # %cond.end
	movl	%ecx, -36(%rbp)
	movl	$0, -48(%rbp)
	movl	$5, luma_log_weight_denom
	movl	$5, chroma_log_weight_denom
	movl	luma_log_weight_denom, %ecx
	subl	$1, %ecx
                                        # kill: def $cl killed $ecx
	movl	$1, %eax
	movl	$1, %edx
	shll	%cl, %edx
	movl	%edx, wp_luma_round
	movl	chroma_log_weight_denom, %ecx
	subl	$1, %ecx
                                        # kill: def $cl killed $ecx
	movl	$1, %edx
	shll	%cl, %edx
	movl	%edx, wp_chroma_round
	movl	luma_log_weight_denom, %ecx
                                        # kill: def $cl killed $ecx
	movl	$1, %edx
	shll	%cl, %edx
	movl	%edx, -40(%rbp)
	movl	chroma_log_weight_denom, %ecx
                                        # kill: def $cl killed $ecx
	shll	%cl, %eax
	movl	%eax, -64(%rbp)
	movl	$0, -12(%rbp)
.LBB10_5:                               # %for.cond
                                        # =>This Loop Header: Depth=1
                                        #     Child Loop BB10_7 Depth 2
                                        #       Child Loop BB10_9 Depth 3
	movl	-12(%rbp), %eax
	movl	-36(%rbp), %ecx
	addl	$2, %ecx
	cmpl	%ecx, %eax
	jge	.LBB10_16
# %bb.6:                                # %for.body
                                        #   in Loop: Header=BB10_5 Depth=1
	movl	$0, -24(%rbp)
.LBB10_7:                               # %for.cond9
                                        #   Parent Loop BB10_5 Depth=1
                                        # =>  This Loop Header: Depth=2
                                        #       Child Loop BB10_9 Depth 3
	movl	-24(%rbp), %eax
	movslq	-12(%rbp), %rcx
	cmpl	listXsize(,%rcx,4), %eax
	jge	.LBB10_14
# %bb.8:                                # %for.body13
                                        #   in Loop: Header=BB10_7 Depth=2
	movl	$0, -32(%rbp)
.LBB10_9:                               # %for.cond14
                                        #   Parent Loop BB10_5 Depth=1
                                        #     Parent Loop BB10_7 Depth=2
                                        # =>    This Inner Loop Header: Depth=3
	cmpl	$3, -32(%rbp)
	jge	.LBB10_12
# %bb.10:                               # %for.body16
                                        #   in Loop: Header=BB10_9 Depth=3
	movl	-40(%rbp), %eax
	movq	wp_weight, %rcx
	movslq	-12(%rbp), %rdx
	movq	(%rcx,%rdx,8), %rcx
	movslq	-24(%rbp), %rdx
	movq	(%rcx,%rdx,8), %rcx
	movslq	-32(%rbp), %rdx
	movl	%eax, (%rcx,%rdx,4)
	movq	wp_offset, %rax
	movslq	-12(%rbp), %rcx
	movq	(%rax,%rcx,8), %rax
	movslq	-24(%rbp), %rcx
	movq	(%rax,%rcx,8), %rax
	movslq	-32(%rbp), %rcx
	movl	$0, (%rax,%rcx,4)
	movslq	-12(%rbp), %rax
	imulq	$180, %rax, %rax
	leaq	-1920(%rbp), %rcx
	addq	%rax, %rcx
	movslq	-24(%rbp), %rax
	imulq	$12, %rax, %rax
	addq	%rax, %rcx
	movslq	-32(%rbp), %rax
	movl	$0, (%rcx,%rax,4)
	movl	-40(%rbp), %eax
	movslq	-12(%rbp), %rcx
	imulq	$180, %rcx, %rcx
	leaq	-3008(%rbp), %rdx
	addq	%rcx, %rdx
	movslq	-24(%rbp), %rcx
	imulq	$12, %rcx, %rcx
	addq	%rcx, %rdx
	movslq	-32(%rbp), %rcx
	movl	%eax, (%rdx,%rcx,4)
# %bb.11:                               # %for.inc
                                        #   in Loop: Header=BB10_9 Depth=3
	movl	-32(%rbp), %eax
	addl	$1, %eax
	movl	%eax, -32(%rbp)
	jmp	.LBB10_9
.LBB10_12:                              # %for.end
                                        #   in Loop: Header=BB10_7 Depth=2
	jmp	.LBB10_13
.LBB10_13:                              # %for.inc41
                                        #   in Loop: Header=BB10_7 Depth=2
	movl	-24(%rbp), %eax
	addl	$1, %eax
	movl	%eax, -24(%rbp)
	jmp	.LBB10_7
.LBB10_14:                              # %for.end43
                                        #   in Loop: Header=BB10_5 Depth=1
	jmp	.LBB10_15
.LBB10_15:                              # %for.inc44
                                        #   in Loop: Header=BB10_5 Depth=1
	movl	-12(%rbp), %eax
	addl	$1, %eax
	movl	%eax, -12(%rbp)
	jmp	.LBB10_5
.LBB10_16:                              # %for.end46
	movl	$0, -12(%rbp)
.LBB10_17:                              # %for.cond47
                                        # =>This Loop Header: Depth=1
                                        #     Child Loop BB10_19 Depth 2
                                        #       Child Loop BB10_33 Depth 3
	movl	-12(%rbp), %eax
	cmpl	listXsize, %eax
	jge	.LBB10_52
# %bb.18:                               # %for.body49
                                        #   in Loop: Header=BB10_17 Depth=1
	movl	$0, -24(%rbp)
.LBB10_19:                              # %for.cond50
                                        #   Parent Loop BB10_17 Depth=1
                                        # =>  This Loop Header: Depth=2
                                        #       Child Loop BB10_33 Depth 3
	movl	-24(%rbp), %eax
	cmpl	listXsize+4, %eax
	jge	.LBB10_50
# %bb.20:                               # %for.body52
                                        #   in Loop: Header=BB10_19 Depth=2
	movq	listX+8, %rax
	movslq	-24(%rbp), %rcx
	movq	(%rax,%rcx,8), %rax
	movl	4(%rax), %eax
	movq	listX, %rcx
	movslq	-12(%rbp), %rdx
	movq	(%rcx,%rdx,8), %rcx
	subl	4(%rcx), %eax
	cmpl	$-128, %eax
	jge	.LBB10_22
# %bb.21:                               # %cond.true60
                                        #   in Loop: Header=BB10_19 Depth=2
	movl	$4294967168, %eax       # imm = 0xFFFFFF80
	jmp	.LBB10_26
.LBB10_22:                              # %cond.false61
                                        #   in Loop: Header=BB10_19 Depth=2
	movq	listX+8, %rax
	movslq	-24(%rbp), %rcx
	movq	(%rax,%rcx,8), %rax
	movl	4(%rax), %eax
	movq	listX, %rcx
	movslq	-12(%rbp), %rdx
	movq	(%rcx,%rdx,8), %rcx
	subl	4(%rcx), %eax
	cmpl	$127, %eax
	jle	.LBB10_24
# %bb.23:                               # %cond.true70
                                        #   in Loop: Header=BB10_19 Depth=2
	movl	$127, %eax
	jmp	.LBB10_25
.LBB10_24:                              # %cond.false71
                                        #   in Loop: Header=BB10_19 Depth=2
	movq	listX+8, %rax
	movslq	-24(%rbp), %rcx
	movq	(%rax,%rcx,8), %rax
	movl	4(%rax), %eax
	movq	listX, %rcx
	movslq	-12(%rbp), %rdx
	movq	(%rcx,%rdx,8), %rcx
	subl	4(%rcx), %eax
.LBB10_25:                              # %cond.end79
                                        #   in Loop: Header=BB10_19 Depth=2
.LBB10_26:                              # %cond.end81
                                        #   in Loop: Header=BB10_19 Depth=2
	movl	%eax, -60(%rbp)
	movq	enc_picture, %rax
	movl	4(%rax), %eax
	movq	listX, %rcx
	movslq	-12(%rbp), %rdx
	movq	(%rcx,%rdx,8), %rcx
	subl	4(%rcx), %eax
	cmpl	$-128, %eax
	jge	.LBB10_28
# %bb.27:                               # %cond.true89
                                        #   in Loop: Header=BB10_19 Depth=2
	movl	$4294967168, %eax       # imm = 0xFFFFFF80
	jmp	.LBB10_32
.LBB10_28:                              # %cond.false90
                                        #   in Loop: Header=BB10_19 Depth=2
	movq	enc_picture, %rax
	movl	4(%rax), %eax
	movq	listX, %rcx
	movslq	-12(%rbp), %rdx
	movq	(%rcx,%rdx,8), %rcx
	subl	4(%rcx), %eax
	cmpl	$127, %eax
	jle	.LBB10_30
# %bb.29:                               # %cond.true97
                                        #   in Loop: Header=BB10_19 Depth=2
	movl	$127, %eax
	jmp	.LBB10_31
.LBB10_30:                              # %cond.false98
                                        #   in Loop: Header=BB10_19 Depth=2
	movq	enc_picture, %rax
	movl	4(%rax), %eax
	movq	listX, %rcx
	movslq	-12(%rbp), %rdx
	movq	(%rcx,%rdx,8), %rcx
	subl	4(%rcx), %eax
.LBB10_31:                              # %cond.end104
                                        #   in Loop: Header=BB10_19 Depth=2
.LBB10_32:                              # %cond.end106
                                        #   in Loop: Header=BB10_19 Depth=2
	movl	%eax, -56(%rbp)
	movl	$0, -20(%rbp)
.LBB10_33:                              # %for.cond108
                                        #   Parent Loop BB10_17 Depth=1
                                        #     Parent Loop BB10_19 Depth=2
                                        # =>    This Inner Loop Header: Depth=3
	cmpl	$3, -20(%rbp)
	jge	.LBB10_48
# %bb.34:                               # %for.body110
                                        #   in Loop: Header=BB10_33 Depth=3
	cmpl	$0, -60(%rbp)
	jne	.LBB10_36
# %bb.35:                               # %if.then
                                        #   in Loop: Header=BB10_33 Depth=3
	leaq	-35424(%rbp), %rax
	leaq	-19216(%rbp), %rcx
	movq	%rcx, %rdx
	addq	$2700, %rdx             # imm = 0xA8C
	movslq	-12(%rbp), %rsi
	imulq	$180, %rsi, %rsi
	addq	%rsi, %rdx
	movslq	-24(%rbp), %rsi
	imulq	$12, %rsi, %rsi
	addq	%rsi, %rdx
	movslq	-20(%rbp), %rsi
	movl	$32, (%rdx,%rsi,4)
	movslq	-12(%rbp), %rdx
	imulq	$180, %rdx, %rdx
	addq	%rdx, %rcx
	movslq	-24(%rbp), %rdx
	imulq	$12, %rdx, %rdx
	addq	%rdx, %rcx
	movslq	-20(%rbp), %rdx
	movl	$32, (%rcx,%rdx,4)
	movq	%rax, %rcx
	addq	$2700, %rcx             # imm = 0xA8C
	movslq	-12(%rbp), %rdx
	imulq	$180, %rdx, %rdx
	addq	%rdx, %rcx
	movslq	-24(%rbp), %rdx
	imulq	$12, %rdx, %rdx
	addq	%rdx, %rcx
	movslq	-20(%rbp), %rdx
	movl	$0, (%rcx,%rdx,4)
	movslq	-12(%rbp), %rcx
	imulq	$180, %rcx, %rcx
	addq	%rcx, %rax
	movslq	-24(%rbp), %rcx
	imulq	$12, %rcx, %rcx
	addq	%rcx, %rax
	movslq	-20(%rbp), %rcx
	movl	$0, (%rax,%rcx,4)
	jmp	.LBB10_46
.LBB10_36:                              # %if.else
                                        #   in Loop: Header=BB10_33 Depth=3
	movl	-60(%rbp), %eax
	cltd
	movl	$2, %ecx
	idivl	%ecx
	movl	%eax, %edi
	callq	abs
	addl	$16384, %eax            # imm = 0x4000
	cltd
	idivl	-60(%rbp)
	movl	%eax, -52(%rbp)
	movl	-52(%rbp), %eax
	imull	-56(%rbp), %eax
	addl	$32, %eax
	sarl	$6, %eax
	cmpl	$-1024, %eax            # imm = 0xFC00
	jge	.LBB10_38
# %bb.37:                               # %cond.true144
                                        #   in Loop: Header=BB10_33 Depth=3
	movl	$4294966272, %eax       # imm = 0xFFFFFC00
	jmp	.LBB10_42
.LBB10_38:                              # %cond.false145
                                        #   in Loop: Header=BB10_33 Depth=3
	movl	-52(%rbp), %eax
	imull	-56(%rbp), %eax
	addl	$32, %eax
	sarl	$6, %eax
	cmpl	$1023, %eax             # imm = 0x3FF
	jle	.LBB10_40
# %bb.39:                               # %cond.true150
                                        #   in Loop: Header=BB10_33 Depth=3
	movl	$1023, %eax             # imm = 0x3FF
	jmp	.LBB10_41
.LBB10_40:                              # %cond.false151
                                        #   in Loop: Header=BB10_33 Depth=3
	movl	-52(%rbp), %eax
	imull	-56(%rbp), %eax
	addl	$32, %eax
	sarl	$6, %eax
.LBB10_41:                              # %cond.end155
                                        #   in Loop: Header=BB10_33 Depth=3
.LBB10_42:                              # %cond.end157
                                        #   in Loop: Header=BB10_33 Depth=3
	movl	%eax, -76(%rbp)
	movl	-76(%rbp), %eax
	sarl	$2, %eax
	leaq	-19216(%rbp), %rcx
	movq	%rcx, %rdx
	addq	$2700, %rdx             # imm = 0xA8C
	movslq	-12(%rbp), %rsi
	imulq	$180, %rsi, %rsi
	addq	%rsi, %rdx
	movslq	-24(%rbp), %rsi
	imulq	$12, %rsi, %rsi
	addq	%rsi, %rdx
	movslq	-20(%rbp), %rsi
	movl	%eax, (%rdx,%rsi,4)
	addq	$2700, %rcx             # imm = 0xA8C
	movslq	-12(%rbp), %rax
	imulq	$180, %rax, %rax
	addq	%rax, %rcx
	movslq	-24(%rbp), %rax
	imulq	$12, %rax, %rax
	addq	%rax, %rcx
	movslq	-20(%rbp), %rax
	cmpl	$-64, (%rcx,%rax,4)
	jl	.LBB10_44
# %bb.43:                               # %lor.lhs.false
                                        #   in Loop: Header=BB10_33 Depth=3
	leaq	-19216(%rbp), %rax
	addq	$2700, %rax             # imm = 0xA8C
	movslq	-12(%rbp), %rcx
	imulq	$180, %rcx, %rcx
	addq	%rcx, %rax
	movslq	-24(%rbp), %rcx
	imulq	$12, %rcx, %rcx
	addq	%rcx, %rax
	movslq	-20(%rbp), %rcx
	cmpl	$128, (%rax,%rcx,4)
	jle	.LBB10_45
.LBB10_44:                              # %if.then183
                                        #   in Loop: Header=BB10_33 Depth=3
	leaq	-19216(%rbp), %rax
	addq	$2700, %rax             # imm = 0xA8C
	movslq	-12(%rbp), %rcx
	imulq	$180, %rcx, %rcx
	addq	%rcx, %rax
	movslq	-24(%rbp), %rcx
	imulq	$12, %rcx, %rcx
	addq	%rcx, %rax
	movslq	-20(%rbp), %rcx
	movl	$32, (%rax,%rcx,4)
.LBB10_45:                              # %if.end
                                        #   in Loop: Header=BB10_33 Depth=3
	leaq	-35424(%rbp), %rax
	leaq	-19216(%rbp), %rcx
	movq	%rcx, %rdx
	addq	$2700, %rdx             # imm = 0xA8C
	movslq	-12(%rbp), %rsi
	imulq	$180, %rsi, %rsi
	addq	%rsi, %rdx
	movslq	-24(%rbp), %rsi
	imulq	$12, %rsi, %rsi
	addq	%rsi, %rdx
	movslq	-20(%rbp), %rsi
	movl	$64, %edi
	subl	(%rdx,%rsi,4), %edi
	movslq	-12(%rbp), %rdx
	imulq	$180, %rdx, %rdx
	addq	%rdx, %rcx
	movslq	-24(%rbp), %rdx
	imulq	$12, %rdx, %rdx
	addq	%rdx, %rcx
	movslq	-20(%rbp), %rdx
	movl	%edi, (%rcx,%rdx,4)
	movq	%rax, %rcx
	addq	$2700, %rcx             # imm = 0xA8C
	movslq	-12(%rbp), %rdx
	imulq	$180, %rdx, %rdx
	addq	%rdx, %rcx
	movslq	-24(%rbp), %rdx
	imulq	$12, %rdx, %rdx
	addq	%rdx, %rcx
	movslq	-20(%rbp), %rdx
	movl	$0, (%rcx,%rdx,4)
	movslq	-12(%rbp), %rcx
	imulq	$180, %rcx, %rcx
	addq	%rcx, %rax
	movslq	-24(%rbp), %rcx
	imulq	$12, %rcx, %rcx
	addq	%rcx, %rax
	movslq	-20(%rbp), %rcx
	movl	$0, (%rax,%rcx,4)
.LBB10_46:                              # %if.end220
                                        #   in Loop: Header=BB10_33 Depth=3
	jmp	.LBB10_47
.LBB10_47:                              # %for.inc221
                                        #   in Loop: Header=BB10_33 Depth=3
	movl	-20(%rbp), %eax
	addl	$1, %eax
	movl	%eax, -20(%rbp)
	jmp	.LBB10_33
.LBB10_48:                              # %for.end223
                                        #   in Loop: Header=BB10_19 Depth=2
	jmp	.LBB10_49
.LBB10_49:                              # %for.inc224
                                        #   in Loop: Header=BB10_19 Depth=2
	movl	-24(%rbp), %eax
	addl	$1, %eax
	movl	%eax, -24(%rbp)
	jmp	.LBB10_19
.LBB10_50:                              # %for.end226
                                        #   in Loop: Header=BB10_17 Depth=1
	jmp	.LBB10_51
.LBB10_51:                              # %for.inc227
                                        #   in Loop: Header=BB10_17 Depth=1
	movl	-12(%rbp), %eax
	addl	$1, %eax
	movl	%eax, -12(%rbp)
	jmp	.LBB10_17
.LBB10_52:                              # %for.end229
	cmpl	$1, -80(%rbp)
	jne	.LBB10_77
# %bb.53:                               # %if.then231
	movl	$0, -12(%rbp)
.LBB10_54:                              # %for.cond232
                                        # =>This Loop Header: Depth=1
                                        #     Child Loop BB10_56 Depth 2
                                        #       Child Loop BB10_58 Depth 3
	movl	-12(%rbp), %eax
	cmpl	listXsize, %eax
	jge	.LBB10_68
# %bb.55:                               # %for.body234
                                        #   in Loop: Header=BB10_54 Depth=1
	movl	$0, -24(%rbp)
.LBB10_56:                              # %for.cond235
                                        #   Parent Loop BB10_54 Depth=1
                                        # =>  This Loop Header: Depth=2
                                        #       Child Loop BB10_58 Depth 3
	movl	-24(%rbp), %eax
	cmpl	listXsize+4, %eax
	jge	.LBB10_66
# %bb.57:                               # %for.body237
                                        #   in Loop: Header=BB10_56 Depth=2
	movl	$0, -20(%rbp)
.LBB10_58:                              # %for.cond238
                                        #   Parent Loop BB10_54 Depth=1
                                        #     Parent Loop BB10_56 Depth=2
                                        # =>    This Inner Loop Header: Depth=3
	cmpl	$3, -20(%rbp)
	jge	.LBB10_64
# %bb.59:                               # %for.body240
                                        #   in Loop: Header=BB10_58 Depth=3
	cmpl	$0, -20(%rbp)
	jne	.LBB10_61
# %bb.60:                               # %cond.true242
                                        #   in Loop: Header=BB10_58 Depth=3
	movl	luma_log_weight_denom, %eax
	jmp	.LBB10_62
.LBB10_61:                              # %cond.false243
                                        #   in Loop: Header=BB10_58 Depth=3
	movl	chroma_log_weight_denom, %eax
.LBB10_62:                              # %cond.end244
                                        #   in Loop: Header=BB10_58 Depth=3
	leaq	-19216(%rbp), %rcx
	movl	%eax, -84(%rbp)
	movq	%rcx, %rax
	addq	$2700, %rax             # imm = 0xA8C
	movslq	-12(%rbp), %rdx
	imulq	$180, %rdx, %rdx
	addq	%rdx, %rax
	movslq	-24(%rbp), %rdx
	imulq	$12, %rdx, %rdx
	addq	%rdx, %rax
	movslq	-20(%rbp), %rdx
	movl	(%rax,%rdx,4), %eax
	movq	wbp_weight, %rdx
	movq	8(%rdx), %rdx
	movslq	-12(%rbp), %rsi
	movq	(%rdx,%rsi,8), %rdx
	movslq	-24(%rbp), %rsi
	movq	(%rdx,%rsi,8), %rdx
	movslq	-20(%rbp), %rsi
	movl	%eax, (%rdx,%rsi,4)
	movslq	-12(%rbp), %rax
	imulq	$180, %rax, %rax
	addq	%rax, %rcx
	movslq	-24(%rbp), %rax
	imulq	$12, %rax, %rax
	addq	%rax, %rcx
	movslq	-20(%rbp), %rax
	movl	(%rcx,%rax,4), %eax
	movq	wbp_weight, %rcx
	movq	(%rcx), %rcx
	movslq	-12(%rbp), %rdx
	movq	(%rcx,%rdx,8), %rcx
	movslq	-24(%rbp), %rdx
	movq	(%rcx,%rdx,8), %rcx
	movslq	-20(%rbp), %rdx
	movl	%eax, (%rcx,%rdx,4)
# %bb.63:                               # %for.inc274
                                        #   in Loop: Header=BB10_58 Depth=3
	movl	-20(%rbp), %eax
	addl	$1, %eax
	movl	%eax, -20(%rbp)
	jmp	.LBB10_58
.LBB10_64:                              # %for.end276
                                        #   in Loop: Header=BB10_56 Depth=2
	jmp	.LBB10_65
.LBB10_65:                              # %for.inc277
                                        #   in Loop: Header=BB10_56 Depth=2
	movl	-24(%rbp), %eax
	addl	$1, %eax
	movl	%eax, -24(%rbp)
	jmp	.LBB10_56
.LBB10_66:                              # %for.end279
                                        #   in Loop: Header=BB10_54 Depth=1
	jmp	.LBB10_67
.LBB10_67:                              # %for.inc280
                                        #   in Loop: Header=BB10_54 Depth=1
	movl	-12(%rbp), %eax
	addl	$1, %eax
	movl	%eax, -12(%rbp)
	jmp	.LBB10_54
.LBB10_68:                              # %for.end282
	movl	$0, -16(%rbp)
.LBB10_69:                              # %for.cond283
                                        # =>This Loop Header: Depth=1
                                        #     Child Loop BB10_71 Depth 2
	movl	-16(%rbp), %eax
	movl	-36(%rbp), %ecx
	addl	$2, %ecx
	cmpl	%ecx, %eax
	jge	.LBB10_76
# %bb.70:                               # %for.body286
                                        #   in Loop: Header=BB10_69 Depth=1
	movl	$0, -28(%rbp)
.LBB10_71:                              # %for.cond287
                                        #   Parent Loop BB10_69 Depth=1
                                        # =>  This Inner Loop Header: Depth=2
	movl	-28(%rbp), %eax
	movslq	-16(%rbp), %rcx
	cmpl	listXsize(,%rcx,4), %eax
	jge	.LBB10_74
# %bb.72:                               # %for.body291
                                        #   in Loop: Header=BB10_71 Depth=2
	movl	luma_log_weight_denom, %ecx
                                        # kill: def $cl killed $ecx
	movl	$1, %eax
	movl	$1, %edx
	shll	%cl, %edx
	movq	wp_weight, %rcx
	movslq	-16(%rbp), %rsi
	movq	(%rcx,%rsi,8), %rcx
	movslq	-28(%rbp), %rsi
	movq	(%rcx,%rsi,8), %rcx
	movl	%edx, (%rcx)
	movl	chroma_log_weight_denom, %ecx
                                        # kill: def $cl killed $ecx
	movl	$1, %edx
	shll	%cl, %edx
	movq	wp_weight, %rcx
	movslq	-16(%rbp), %rsi
	movq	(%rcx,%rsi,8), %rcx
	movslq	-28(%rbp), %rsi
	movq	(%rcx,%rsi,8), %rcx
	movl	%edx, 4(%rcx)
	movl	chroma_log_weight_denom, %ecx
                                        # kill: def $cl killed $ecx
	shll	%cl, %eax
	movq	wp_weight, %rcx
	movslq	-16(%rbp), %rdx
	movq	(%rcx,%rdx,8), %rcx
	movslq	-28(%rbp), %rdx
	movq	(%rcx,%rdx,8), %rcx
	movl	%eax, 8(%rcx)
	movq	wp_offset, %rax
	movslq	-16(%rbp), %rcx
	movq	(%rax,%rcx,8), %rax
	movslq	-28(%rbp), %rcx
	movq	(%rax,%rcx,8), %rax
	movl	$0, (%rax)
	movq	wp_offset, %rax
	movslq	-16(%rbp), %rcx
	movq	(%rax,%rcx,8), %rax
	movslq	-28(%rbp), %rcx
	movq	(%rax,%rcx,8), %rax
	movl	$0, 4(%rax)
	movq	wp_offset, %rax
	movslq	-16(%rbp), %rcx
	movq	(%rax,%rcx,8), %rax
	movslq	-28(%rbp), %rcx
	movq	(%rax,%rcx,8), %rax
	movl	$0, 8(%rax)
# %bb.73:                               # %for.inc325
                                        #   in Loop: Header=BB10_71 Depth=2
	movl	-28(%rbp), %eax
	addl	$1, %eax
	movl	%eax, -28(%rbp)
	jmp	.LBB10_71
.LBB10_74:                              # %for.end327
                                        #   in Loop: Header=BB10_69 Depth=1
	jmp	.LBB10_75
.LBB10_75:                              # %for.inc328
                                        #   in Loop: Header=BB10_69 Depth=1
	movl	-16(%rbp), %eax
	addl	$1, %eax
	movl	%eax, -16(%rbp)
	jmp	.LBB10_69
.LBB10_76:                              # %for.end330
	jmp	.LBB10_142
.LBB10_77:                              # %if.else331
	movl	$0, -12(%rbp)
.LBB10_78:                              # %for.cond332
                                        # =>This Loop Header: Depth=1
                                        #     Child Loop BB10_80 Depth 2
	movl	-12(%rbp), %eax
	movq	img, %rcx
	cmpl	60(%rcx), %eax
	jge	.LBB10_85
# %bb.79:                               # %for.body334
                                        #   in Loop: Header=BB10_78 Depth=1
	movl	$0, -24(%rbp)
.LBB10_80:                              # %for.cond335
                                        #   Parent Loop BB10_78 Depth=1
                                        # =>  This Inner Loop Header: Depth=2
	movl	-24(%rbp), %eax
	movq	img, %rcx
	cmpl	52(%rcx), %eax
	jge	.LBB10_83
# %bb.81:                               # %for.body337
                                        #   in Loop: Header=BB10_80 Depth=2
	movq	imgY_org(%rip), %rax
	movslq	-12(%rbp), %rcx
	movq	(%rax,%rcx,8), %rax
	movslq	-24(%rbp), %rcx
	movzwl	(%rax,%rcx,2), %eax
	vcvtsi2sd	%eax, %xmm0, %xmm0
	vaddsd	-72(%rbp), %xmm0, %xmm0
	vmovsd	%xmm0, -72(%rbp)
# %bb.82:                               # %for.inc343
                                        #   in Loop: Header=BB10_80 Depth=2
	movl	-24(%rbp), %eax
	addl	$1, %eax
	movl	%eax, -24(%rbp)
	jmp	.LBB10_80
.LBB10_83:                              # %for.end345
                                        #   in Loop: Header=BB10_78 Depth=1
	jmp	.LBB10_84
.LBB10_84:                              # %for.inc346
                                        #   in Loop: Header=BB10_78 Depth=1
	movl	-12(%rbp), %eax
	addl	$1, %eax
	movl	%eax, -12(%rbp)
	jmp	.LBB10_78
.LBB10_85:                              # %for.end348
	movl	$0, -16(%rbp)
.LBB10_86:                              # %for.cond349
                                        # =>This Loop Header: Depth=1
                                        #     Child Loop BB10_88 Depth 2
                                        #       Child Loop BB10_90 Depth 3
	movl	-16(%rbp), %eax
	movl	-36(%rbp), %ecx
	addl	$2, %ecx
	cmpl	%ecx, %eax
	jge	.LBB10_103
# %bb.87:                               # %for.body353
                                        #   in Loop: Header=BB10_86 Depth=1
	movl	$0, -32(%rbp)
.LBB10_88:                              # %for.cond354
                                        #   Parent Loop BB10_86 Depth=1
                                        # =>  This Loop Header: Depth=2
                                        #       Child Loop BB10_90 Depth 3
	movl	-32(%rbp), %eax
	movslq	-16(%rbp), %rcx
	cmpl	listXsize(,%rcx,4), %eax
	jge	.LBB10_101
# %bb.89:                               # %for.body359
                                        #   in Loop: Header=BB10_88 Depth=2
	movslq	-16(%rbp), %rax
	imulq	$120, %rax, %rax
	leaq	-832(%rbp), %rcx
	addq	%rax, %rcx
	movslq	-32(%rbp), %rax
	vxorps	%xmm0, %xmm0, %xmm0
	vmovsd	%xmm0, (%rcx,%rax,8)
	movslq	-16(%rbp), %rax
	movq	listX(,%rax,8), %rax
	movslq	-32(%rbp), %rcx
	movq	(%rax,%rcx,8), %rax
	movq	6432(%rax), %rax
	movq	%rax, -96(%rbp)
	movslq	-16(%rbp), %rax
	movq	listX(,%rax,8), %rax
	movslq	-32(%rbp), %rcx
	movq	(%rax,%rcx,8), %rax
	movq	6440(%rax), %rax
	movq	%rax, -112(%rbp)
	movl	$0, -12(%rbp)
.LBB10_90:                              # %for.cond372
                                        #   Parent Loop BB10_86 Depth=1
                                        #     Parent Loop BB10_88 Depth=2
                                        # =>    This Inner Loop Header: Depth=3
	movl	-12(%rbp), %eax
	movq	img, %rcx
	movl	60(%rcx), %ecx
	movq	img, %rdx
	imull	52(%rdx), %ecx
	cmpl	%ecx, %eax
	jge	.LBB10_93
# %bb.91:                               # %for.body378
                                        #   in Loop: Header=BB10_90 Depth=3
	movq	-96(%rbp), %rax
	movslq	-12(%rbp), %rcx
	movzwl	(%rax,%rcx,2), %eax
	vcvtsi2sd	%eax, %xmm0, %xmm0
	movslq	-16(%rbp), %rax
	imulq	$120, %rax, %rax
	leaq	-832(%rbp), %rcx
	addq	%rax, %rcx
	movslq	-32(%rbp), %rax
	vaddsd	(%rcx,%rax,8), %xmm0, %xmm0
	vmovsd	%xmm0, (%rcx,%rax,8)
# %bb.92:                               # %for.inc387
                                        #   in Loop: Header=BB10_90 Depth=3
	movl	-12(%rbp), %eax
	addl	$1, %eax
	movl	%eax, -12(%rbp)
	jmp	.LBB10_90
.LBB10_93:                              # %for.end389
                                        #   in Loop: Header=BB10_88 Depth=2
	movslq	-16(%rbp), %rax
	imulq	$120, %rax, %rax
	leaq	-832(%rbp), %rcx
	addq	%rax, %rcx
	movslq	-32(%rbp), %rax
	vmovsd	(%rcx,%rax,8), %xmm0    # xmm0 = mem[0],zero
	vxorps	%xmm1, %xmm1, %xmm1
	vucomisd	%xmm1, %xmm0
	jne	.LBB10_94
	jp	.LBB10_94
	jmp	.LBB10_95
.LBB10_94:                              # %if.then396
                                        #   in Loop: Header=BB10_88 Depth=2
	vmovsd	.LCPI10_0(%rip), %xmm0  # xmm0 = mem[0],zero
	vcvtsi2sdl	-40(%rbp), %xmm0, %xmm1
	vmulsd	-72(%rbp), %xmm1, %xmm1
	movslq	-16(%rbp), %rax
	imulq	$120, %rax, %rax
	leaq	-832(%rbp), %rcx
	addq	%rax, %rcx
	movslq	-32(%rbp), %rax
	vdivsd	(%rcx,%rax,8), %xmm1, %xmm1
	vaddsd	%xmm0, %xmm1, %xmm0
	vcvttsd2si	%xmm0, %eax
	movl	%eax, -44(%rbp)
	jmp	.LBB10_96
.LBB10_95:                              # %if.else406
                                        #   in Loop: Header=BB10_88 Depth=2
	movl	-40(%rbp), %eax
	movl	%eax, -44(%rbp)
.LBB10_96:                              # %if.end407
                                        #   in Loop: Header=BB10_88 Depth=2
	cmpl	$-64, -44(%rbp)
	jl	.LBB10_98
# %bb.97:                               # %lor.lhs.false410
                                        #   in Loop: Header=BB10_88 Depth=2
	cmpl	$127, -44(%rbp)
	jle	.LBB10_99
.LBB10_98:                              # %if.then413
                                        #   in Loop: Header=BB10_88 Depth=2
	movl	-40(%rbp), %eax
	movl	%eax, -44(%rbp)
.LBB10_99:                              # %if.end414
                                        #   in Loop: Header=BB10_88 Depth=2
	movl	$0, -100(%rbp)
	movl	-44(%rbp), %eax
	movslq	-16(%rbp), %rcx
	imulq	$180, %rcx, %rcx
	leaq	-3008(%rbp), %rdx
	movq	%rdx, %rsi
	addq	%rcx, %rsi
	movslq	-32(%rbp), %rcx
	imulq	$12, %rcx, %rcx
	addq	%rcx, %rsi
	movl	%eax, (%rsi)
	movl	-64(%rbp), %eax
	movslq	-16(%rbp), %rcx
	imulq	$180, %rcx, %rcx
	movq	%rdx, %rsi
	addq	%rcx, %rsi
	movslq	-32(%rbp), %rcx
	imulq	$12, %rcx, %rcx
	addq	%rcx, %rsi
	movl	%eax, 4(%rsi)
	movl	-64(%rbp), %eax
	movslq	-16(%rbp), %rcx
	imulq	$180, %rcx, %rcx
	addq	%rcx, %rdx
	movslq	-32(%rbp), %rcx
	imulq	$12, %rcx, %rcx
	addq	%rcx, %rdx
	movl	%eax, 8(%rdx)
	movslq	-16(%rbp), %rax
	imulq	$180, %rax, %rax
	leaq	-1920(%rbp), %rcx
	movq	%rcx, %rdx
	addq	%rax, %rdx
	movslq	-32(%rbp), %rax
	imulq	$12, %rax, %rax
	addq	%rax, %rdx
	movl	$0, (%rdx)
	movslq	-16(%rbp), %rax
	imulq	$180, %rax, %rax
	movq	%rcx, %rdx
	addq	%rax, %rdx
	movslq	-32(%rbp), %rax
	imulq	$12, %rax, %rax
	addq	%rax, %rdx
	movl	$0, 4(%rdx)
	movslq	-16(%rbp), %rax
	imulq	$180, %rax, %rax
	addq	%rax, %rcx
	movslq	-32(%rbp), %rax
	imulq	$12, %rax, %rax
	addq	%rax, %rcx
	movl	$0, 8(%rcx)
# %bb.100:                              # %for.inc445
                                        #   in Loop: Header=BB10_88 Depth=2
	movl	-32(%rbp), %eax
	addl	$1, %eax
	movl	%eax, -32(%rbp)
	jmp	.LBB10_88
.LBB10_101:                             # %for.end447
                                        #   in Loop: Header=BB10_86 Depth=1
	jmp	.LBB10_102
.LBB10_102:                             # %for.inc448
                                        #   in Loop: Header=BB10_86 Depth=1
	movl	-16(%rbp), %eax
	addl	$1, %eax
	movl	%eax, -16(%rbp)
	jmp	.LBB10_86
.LBB10_103:                             # %for.end450
	movq	active_pps, %rax
	cmpl	$1, 196(%rax)
	jne	.LBB10_117
# %bb.104:                              # %if.then453
	movl	$0, -16(%rbp)
.LBB10_105:                             # %for.cond454
                                        # =>This Loop Header: Depth=1
                                        #     Child Loop BB10_107 Depth 2
                                        #       Child Loop BB10_109 Depth 3
	movl	-16(%rbp), %eax
	movl	-36(%rbp), %ecx
	addl	$2, %ecx
	cmpl	%ecx, %eax
	jge	.LBB10_116
# %bb.106:                              # %for.body458
                                        #   in Loop: Header=BB10_105 Depth=1
	movl	$0, -28(%rbp)
.LBB10_107:                             # %for.cond459
                                        #   Parent Loop BB10_105 Depth=1
                                        # =>  This Loop Header: Depth=2
                                        #       Child Loop BB10_109 Depth 3
	movl	-28(%rbp), %eax
	movslq	-16(%rbp), %rcx
	cmpl	listXsize(,%rcx,4), %eax
	jge	.LBB10_114
# %bb.108:                              # %for.body464
                                        #   in Loop: Header=BB10_107 Depth=2
	movl	$0, -20(%rbp)
.LBB10_109:                             # %for.cond465
                                        #   Parent Loop BB10_105 Depth=1
                                        #     Parent Loop BB10_107 Depth=2
                                        # =>    This Inner Loop Header: Depth=3
	cmpl	$3, -20(%rbp)
	jge	.LBB10_112
# %bb.110:                              # %for.body468
                                        #   in Loop: Header=BB10_109 Depth=3
	movslq	-16(%rbp), %rax
	imulq	$180, %rax, %rax
	leaq	-3008(%rbp), %rcx
	addq	%rax, %rcx
	movslq	-28(%rbp), %rax
	imulq	$12, %rax, %rax
	addq	%rax, %rcx
	movslq	-20(%rbp), %rax
	movl	(%rcx,%rax,4), %eax
	movq	wp_weight, %rcx
	movslq	-16(%rbp), %rdx
	movq	(%rcx,%rdx,8), %rcx
	movslq	-28(%rbp), %rdx
	movq	(%rcx,%rdx,8), %rcx
	movslq	-20(%rbp), %rdx
	movl	%eax, (%rcx,%rdx,4)
	movslq	-16(%rbp), %rax
	imulq	$180, %rax, %rax
	leaq	-1920(%rbp), %rcx
	addq	%rax, %rcx
	movslq	-28(%rbp), %rax
	imulq	$12, %rax, %rax
	addq	%rax, %rcx
	movslq	-20(%rbp), %rax
	movl	(%rcx,%rax,4), %eax
	movq	wp_offset, %rcx
	movslq	-16(%rbp), %rdx
	movq	(%rcx,%rdx,8), %rcx
	movslq	-28(%rbp), %rdx
	movq	(%rcx,%rdx,8), %rcx
	movslq	-20(%rbp), %rdx
	movl	%eax, (%rcx,%rdx,4)
# %bb.111:                              # %for.inc493
                                        #   in Loop: Header=BB10_109 Depth=3
	movl	-20(%rbp), %eax
	addl	$1, %eax
	movl	%eax, -20(%rbp)
	jmp	.LBB10_109
.LBB10_112:                             # %for.end495
                                        #   in Loop: Header=BB10_107 Depth=2
	jmp	.LBB10_113
.LBB10_113:                             # %for.inc496
                                        #   in Loop: Header=BB10_107 Depth=2
	movl	-28(%rbp), %eax
	addl	$1, %eax
	movl	%eax, -28(%rbp)
	jmp	.LBB10_107
.LBB10_114:                             # %for.end498
                                        #   in Loop: Header=BB10_105 Depth=1
	jmp	.LBB10_115
.LBB10_115:                             # %for.inc499
                                        #   in Loop: Header=BB10_105 Depth=1
	movl	-16(%rbp), %eax
	addl	$1, %eax
	movl	%eax, -16(%rbp)
	jmp	.LBB10_105
.LBB10_116:                             # %for.end501
	jmp	.LBB10_126
.LBB10_117:                             # %if.else502
	movl	$0, -16(%rbp)
.LBB10_118:                             # %for.cond503
                                        # =>This Loop Header: Depth=1
                                        #     Child Loop BB10_120 Depth 2
	movl	-16(%rbp), %eax
	movl	-36(%rbp), %ecx
	addl	$2, %ecx
	cmpl	%ecx, %eax
	jge	.LBB10_125
# %bb.119:                              # %for.body507
                                        #   in Loop: Header=BB10_118 Depth=1
	movl	$0, -28(%rbp)
.LBB10_120:                             # %for.cond508
                                        #   Parent Loop BB10_118 Depth=1
                                        # =>  This Inner Loop Header: Depth=2
	movl	-28(%rbp), %eax
	movslq	-16(%rbp), %rcx
	cmpl	listXsize(,%rcx,4), %eax
	jge	.LBB10_123
# %bb.121:                              # %for.body513
                                        #   in Loop: Header=BB10_120 Depth=2
	movl	luma_log_weight_denom, %ecx
                                        # kill: def $cl killed $ecx
	movl	$1, %eax
	movl	$1, %edx
	shll	%cl, %edx
	movq	wp_weight, %rcx
	movslq	-16(%rbp), %rsi
	movq	(%rcx,%rsi,8), %rcx
	movslq	-28(%rbp), %rsi
	movq	(%rcx,%rsi,8), %rcx
	movl	%edx, (%rcx)
	movl	chroma_log_weight_denom, %ecx
                                        # kill: def $cl killed $ecx
	movl	$1, %edx
	shll	%cl, %edx
	movq	wp_weight, %rcx
	movslq	-16(%rbp), %rsi
	movq	(%rcx,%rsi,8), %rcx
	movslq	-28(%rbp), %rsi
	movq	(%rcx,%rsi,8), %rcx
	movl	%edx, 4(%rcx)
	movl	chroma_log_weight_denom, %ecx
                                        # kill: def $cl killed $ecx
	shll	%cl, %eax
	movq	wp_weight, %rcx
	movslq	-16(%rbp), %rdx
	movq	(%rcx,%rdx,8), %rcx
	movslq	-28(%rbp), %rdx
	movq	(%rcx,%rdx,8), %rcx
	movl	%eax, 8(%rcx)
	movq	wp_offset, %rax
	movslq	-16(%rbp), %rcx
	movq	(%rax,%rcx,8), %rax
	movslq	-28(%rbp), %rcx
	movq	(%rax,%rcx,8), %rax
	movl	$0, (%rax)
	movq	wp_offset, %rax
	movslq	-16(%rbp), %rcx
	movq	(%rax,%rcx,8), %rax
	movslq	-28(%rbp), %rcx
	movq	(%rax,%rcx,8), %rax
	movl	$0, 4(%rax)
	movq	wp_offset, %rax
	movslq	-16(%rbp), %rcx
	movq	(%rax,%rcx,8), %rax
	movslq	-28(%rbp), %rcx
	movq	(%rax,%rcx,8), %rax
	movl	$0, 8(%rax)
# %bb.122:                              # %for.inc547
                                        #   in Loop: Header=BB10_120 Depth=2
	movl	-28(%rbp), %eax
	addl	$1, %eax
	movl	%eax, -28(%rbp)
	jmp	.LBB10_120
.LBB10_123:                             # %for.end549
                                        #   in Loop: Header=BB10_118 Depth=1
	jmp	.LBB10_124
.LBB10_124:                             # %for.inc550
                                        #   in Loop: Header=BB10_118 Depth=1
	movl	-16(%rbp), %eax
	addl	$1, %eax
	movl	%eax, -16(%rbp)
	jmp	.LBB10_118
.LBB10_125:                             # %for.end552
	jmp	.LBB10_126
.LBB10_126:                             # %if.end553
	movl	$0, -12(%rbp)
.LBB10_127:                             # %for.cond554
                                        # =>This Loop Header: Depth=1
                                        #     Child Loop BB10_129 Depth 2
                                        #       Child Loop BB10_131 Depth 3
	movl	-12(%rbp), %eax
	cmpl	listXsize, %eax
	jge	.LBB10_141
# %bb.128:                              # %for.body557
                                        #   in Loop: Header=BB10_127 Depth=1
	movl	$0, -24(%rbp)
.LBB10_129:                             # %for.cond558
                                        #   Parent Loop BB10_127 Depth=1
                                        # =>  This Loop Header: Depth=2
                                        #       Child Loop BB10_131 Depth 3
	movl	-24(%rbp), %eax
	cmpl	listXsize+4, %eax
	jge	.LBB10_139
# %bb.130:                              # %for.body561
                                        #   in Loop: Header=BB10_129 Depth=2
	movl	$0, -20(%rbp)
.LBB10_131:                             # %for.cond562
                                        #   Parent Loop BB10_127 Depth=1
                                        #     Parent Loop BB10_129 Depth=2
                                        # =>    This Inner Loop Header: Depth=3
	cmpl	$3, -20(%rbp)
	jge	.LBB10_137
# %bb.132:                              # %for.body565
                                        #   in Loop: Header=BB10_131 Depth=3
	cmpl	$0, -20(%rbp)
	jne	.LBB10_134
# %bb.133:                              # %cond.true568
                                        #   in Loop: Header=BB10_131 Depth=3
	movl	luma_log_weight_denom, %eax
	jmp	.LBB10_135
.LBB10_134:                             # %cond.false569
                                        #   in Loop: Header=BB10_131 Depth=3
	movl	chroma_log_weight_denom, %eax
.LBB10_135:                             # %cond.end570
                                        #   in Loop: Header=BB10_131 Depth=3
	movl	%eax, -84(%rbp)
	movq	wp_weight, %rax
	movq	(%rax), %rax
	movslq	-12(%rbp), %rcx
	movq	(%rax,%rcx,8), %rax
	movslq	-20(%rbp), %rcx
	movl	(%rax,%rcx,4), %eax
	movq	wbp_weight, %rcx
	movq	(%rcx), %rcx
	movslq	-12(%rbp), %rdx
	movq	(%rcx,%rdx,8), %rcx
	movslq	-24(%rbp), %rdx
	movq	(%rcx,%rdx,8), %rcx
	movslq	-20(%rbp), %rdx
	movl	%eax, (%rcx,%rdx,4)
	movq	wp_weight, %rax
	movq	8(%rax), %rax
	movslq	-24(%rbp), %rcx
	movq	(%rax,%rcx,8), %rax
	movslq	-20(%rbp), %rcx
	movl	(%rax,%rcx,4), %eax
	movq	wbp_weight, %rcx
	movq	8(%rcx), %rcx
	movslq	-12(%rbp), %rdx
	movq	(%rcx,%rdx,8), %rcx
	movslq	-24(%rbp), %rdx
	movq	(%rcx,%rdx,8), %rcx
	movslq	-20(%rbp), %rdx
	movl	%eax, (%rcx,%rdx,4)
# %bb.136:                              # %for.inc596
                                        #   in Loop: Header=BB10_131 Depth=3
	movl	-20(%rbp), %eax
	addl	$1, %eax
	movl	%eax, -20(%rbp)
	jmp	.LBB10_131
.LBB10_137:                             # %for.end598
                                        #   in Loop: Header=BB10_129 Depth=2
	jmp	.LBB10_138
.LBB10_138:                             # %for.inc599
                                        #   in Loop: Header=BB10_129 Depth=2
	movl	-24(%rbp), %eax
	addl	$1, %eax
	movl	%eax, -24(%rbp)
	jmp	.LBB10_129
.LBB10_139:                             # %for.end601
                                        #   in Loop: Header=BB10_127 Depth=1
	jmp	.LBB10_140
.LBB10_140:                             # %for.inc602
                                        #   in Loop: Header=BB10_127 Depth=1
	movl	-12(%rbp), %eax
	addl	$1, %eax
	movl	%eax, -12(%rbp)
	jmp	.LBB10_127
.LBB10_141:                             # %for.end604
	jmp	.LBB10_142
.LBB10_142:                             # %if.end605
	movl	$0, -16(%rbp)
.LBB10_143:                             # %for.cond606
                                        # =>This Loop Header: Depth=1
                                        #     Child Loop BB10_145 Depth 2
                                        #       Child Loop BB10_147 Depth 3
	movl	-16(%rbp), %eax
	movl	-36(%rbp), %ecx
	addl	$2, %ecx
	cmpl	%ecx, %eax
	jge	.LBB10_163
# %bb.144:                              # %for.body610
                                        #   in Loop: Header=BB10_143 Depth=1
	movl	$0, -28(%rbp)
.LBB10_145:                             # %for.cond611
                                        #   Parent Loop BB10_143 Depth=1
                                        # =>  This Loop Header: Depth=2
                                        #       Child Loop BB10_147 Depth 3
	movl	-28(%rbp), %eax
	movslq	-16(%rbp), %rcx
	cmpl	listXsize(,%rcx,4), %eax
	jge	.LBB10_158
# %bb.146:                              # %for.body616
                                        #   in Loop: Header=BB10_145 Depth=2
	movl	$0, -20(%rbp)
.LBB10_147:                             # %for.cond617
                                        #   Parent Loop BB10_143 Depth=1
                                        #     Parent Loop BB10_145 Depth=2
                                        # =>    This Inner Loop Header: Depth=3
	cmpl	$3, -20(%rbp)
	jge	.LBB10_153
# %bb.148:                              # %for.body620
                                        #   in Loop: Header=BB10_147 Depth=3
	movq	wp_weight, %rax
	movslq	-16(%rbp), %rcx
	movq	(%rax,%rcx,8), %rax
	movslq	-28(%rbp), %rcx
	movq	(%rax,%rcx,8), %rax
	movslq	-20(%rbp), %rcx
	movl	(%rax,%rcx,4), %eax
	cmpl	-40(%rbp), %eax
	jne	.LBB10_150
# %bb.149:                              # %lor.lhs.false629
                                        #   in Loop: Header=BB10_147 Depth=3
	movq	wp_offset, %rax
	movslq	-16(%rbp), %rcx
	movq	(%rax,%rcx,8), %rax
	movslq	-28(%rbp), %rcx
	movq	(%rax,%rcx,8), %rax
	movslq	-20(%rbp), %rcx
	cmpl	$0, (%rax,%rcx,4)
	je	.LBB10_151
.LBB10_150:                             # %if.then638
                                        #   in Loop: Header=BB10_145 Depth=2
	movl	$1, -48(%rbp)
	jmp	.LBB10_154
.LBB10_151:                             # %if.end639
                                        #   in Loop: Header=BB10_147 Depth=3
	jmp	.LBB10_152
.LBB10_152:                             # %for.inc640
                                        #   in Loop: Header=BB10_147 Depth=3
	movl	-20(%rbp), %eax
	addl	$1, %eax
	movl	%eax, -20(%rbp)
	jmp	.LBB10_147
.LBB10_153:                             # %for.end642.loopexit
                                        #   in Loop: Header=BB10_145 Depth=2
	jmp	.LBB10_154
.LBB10_154:                             # %for.end642
                                        #   in Loop: Header=BB10_145 Depth=2
	cmpl	$1, -48(%rbp)
	jne	.LBB10_156
# %bb.155:                              # %if.then645
                                        #   in Loop: Header=BB10_143 Depth=1
	jmp	.LBB10_159
.LBB10_156:                             # %if.end646
                                        #   in Loop: Header=BB10_145 Depth=2
	jmp	.LBB10_157
.LBB10_157:                             # %for.inc647
                                        #   in Loop: Header=BB10_145 Depth=2
	movl	-28(%rbp), %eax
	addl	$1, %eax
	movl	%eax, -28(%rbp)
	jmp	.LBB10_145
.LBB10_158:                             # %for.end649.loopexit
                                        #   in Loop: Header=BB10_143 Depth=1
	jmp	.LBB10_159
.LBB10_159:                             # %for.end649
                                        #   in Loop: Header=BB10_143 Depth=1
	cmpl	$1, -48(%rbp)
	jne	.LBB10_161
# %bb.160:                              # %if.then652
	jmp	.LBB10_164
.LBB10_161:                             # %if.end653
                                        #   in Loop: Header=BB10_143 Depth=1
	jmp	.LBB10_162
.LBB10_162:                             # %for.inc654
                                        #   in Loop: Header=BB10_143 Depth=1
	movl	-16(%rbp), %eax
	addl	$1, %eax
	movl	%eax, -16(%rbp)
	jmp	.LBB10_143
.LBB10_163:                             # %for.end656.loopexit
	jmp	.LBB10_164
.LBB10_164:                             # %for.end656
	movl	-48(%rbp), %ebx
	cmpl	$303836628, -88(%rbp)   # imm = 0x121C2DD4
	jne	.LBB10_166
.LBB10_165:
	movl	%ebx, %eax
	addq	$35416, %rsp            # imm = 0x8A58
	popq	%rbx
	popq	%rbp
	.cfi_def_cfa %rsp, 8
	retq
.LBB10_166:                             # %func_exit
	.cfi_def_cfa %rbp, 16
	callq	detect_breach
	jmp	.LBB10_165
.Lfunc_end10:
	.size	test_wp_B_slice.7, .Lfunc_end10-test_wp_B_slice.7
	.cfi_endproc
                                        # -- End function
	.section	.rodata.cst8,"aM",@progbits,8
	.p2align	3               # -- Begin function test_wp_B_slice.8
.LCPI11_0:
	.quad	4602678819172646912     # double 0.5
	.text
	.globl	test_wp_B_slice.8
	.p2align	4, 0x90
	.type	test_wp_B_slice.8,@function
test_wp_B_slice.8:                      # @test_wp_B_slice.8
	.cfi_startproc
# %bb.0:                                # %entry
	pushq	%rbp
	.cfi_def_cfa_offset 16
	.cfi_offset %rbp, -16
	movq	%rsp, %rbp
	.cfi_def_cfa_register %rbp
	pushq	%rbx
	subq	$35416, %rsp            # imm = 0x8A58
	.cfi_offset %rbx, -24
	movl	$1248019945, -88(%rbp)  # imm = 0x4A6345E9
	movl	%edi, -84(%rbp)
	vxorps	%xmm0, %xmm0, %xmm0
	vmovsd	%xmm0, -72(%rbp)
	movq	img, %rax
	cmpl	$0, 72400(%rax)
	je	.LBB11_3
# %bb.1:                                # %land.lhs.true
	movq	img, %rax
	movq	14168(%rax), %rax
	movq	img, %rcx
	movslq	12(%rcx), %rcx
