	.text
	.file	"weighted_prediction.c"
	.globl	estimate_weighting_factor_P_slice # -- Begin function estimate_weighting_factor_P_slice
	.p2align	4, 0x90
	.type	estimate_weighting_factor_P_slice,@function
estimate_weighting_factor_P_slice:      # @estimate_weighting_factor_P_slice
	.cfi_startproc
# %bb.0:                                # %rand_bb
	pushq	%rbp
	.cfi_def_cfa_offset 16
	.cfi_offset %rbp, -16
	movq	%rsp, %rbp
	.cfi_def_cfa_register %rbp
	pushq	%rbx
	pushq	%rax
	.cfi_offset %rbx, -24
	movl	%edi, %ebx
	callq	get_rand
	cmpl	$0, %eax
	jne	.LBB0_17
# %bb.1:                                # %func_estimate_weighting_factor_P_slice.2
	movl	%ebx, %edi
	callq	estimate_weighting_factor_P_slice.2
	addq	$8, %rsp
	popq	%rbx
	popq	%rbp
	.cfi_def_cfa %rsp, 8
	retq
.LBB0_2:                                # %func_estimate_weighting_factor_P_slice.6
	.cfi_def_cfa %rbp, 16
	movl	%ebx, %edi
	callq	estimate_weighting_factor_P_slice.6
	addq	$8, %rsp
	popq	%rbx
	popq	%rbp
	.cfi_def_cfa %rsp, 8
	retq
.LBB0_3:                                # %func_estimate_weighting_factor_P_slice.7
	.cfi_def_cfa %rbp, 16
	movl	%ebx, %edi
	callq	estimate_weighting_factor_P_slice.7
	addq	$8, %rsp
	popq	%rbx
	popq	%rbp
	.cfi_def_cfa %rsp, 8
	retq
.LBB0_4:                                # %func_estimate_weighting_factor_P_slice.8
	.cfi_def_cfa %rbp, 16
	movl	%ebx, %edi
	callq	estimate_weighting_factor_P_slice.8
	addq	$8, %rsp
	popq	%rbx
	popq	%rbp
	.cfi_def_cfa %rsp, 8
	retq
.LBB0_5:                                # %func_estimate_weighting_factor_P_slice.12
	.cfi_def_cfa %rbp, 16
	movl	%ebx, %edi
	callq	estimate_weighting_factor_P_slice.12
	addq	$8, %rsp
	popq	%rbx
	popq	%rbp
	.cfi_def_cfa %rsp, 8
	retq
.LBB0_6:                                # %func_estimate_weighting_factor_P_slice.19
	.cfi_def_cfa %rbp, 16
	movl	%ebx, %edi
	callq	estimate_weighting_factor_P_slice.19
	addq	$8, %rsp
	popq	%rbx
	popq	%rbp
	.cfi_def_cfa %rsp, 8
	retq
.LBB0_7:                                # %func_estimate_weighting_factor_P_slice.20
	.cfi_def_cfa %rbp, 16
	movl	%ebx, %edi
	callq	estimate_weighting_factor_P_slice.20
	addq	$8, %rsp
	popq	%rbx
	popq	%rbp
	.cfi_def_cfa %rsp, 8
	retq
.LBB0_8:                                # %func_estimate_weighting_factor_P_slice.24
	.cfi_def_cfa %rbp, 16
	movl	%ebx, %edi
	callq	estimate_weighting_factor_P_slice.24
	addq	$8, %rsp
	popq	%rbx
	popq	%rbp
	.cfi_def_cfa %rsp, 8
	retq
.LBB0_9:                                # %func_estimate_weighting_factor_P_slice.25
	.cfi_def_cfa %rbp, 16
	movl	%ebx, %edi
	callq	estimate_weighting_factor_P_slice.25
	addq	$8, %rsp
	popq	%rbx
	popq	%rbp
	.cfi_def_cfa %rsp, 8
	retq
.LBB0_10:                               # %func_estimate_weighting_factor_P_slice.36
	.cfi_def_cfa %rbp, 16
	movl	%ebx, %edi
	callq	estimate_weighting_factor_P_slice.36
	addq	$8, %rsp
	popq	%rbx
	popq	%rbp
	.cfi_def_cfa %rsp, 8
	retq
.LBB0_11:                               # %func_estimate_weighting_factor_P_slice.39
	.cfi_def_cfa %rbp, 16
	movl	%ebx, %edi
	callq	estimate_weighting_factor_P_slice.39
	addq	$8, %rsp
	popq	%rbx
	popq	%rbp
	.cfi_def_cfa %rsp, 8
	retq
.LBB0_12:                               # %func_estimate_weighting_factor_P_slice.44
	.cfi_def_cfa %rbp, 16
	movl	%ebx, %edi
	callq	estimate_weighting_factor_P_slice.44
	addq	$8, %rsp
	popq	%rbx
	popq	%rbp
	.cfi_def_cfa %rsp, 8
	retq
.LBB0_13:                               # %func_estimate_weighting_factor_P_slice.46
	.cfi_def_cfa %rbp, 16
	movl	%ebx, %edi
	callq	estimate_weighting_factor_P_slice.46
	addq	$8, %rsp
	popq	%rbx
	popq	%rbp
	.cfi_def_cfa %rsp, 8
	retq
.LBB0_14:                               # %func_estimate_weighting_factor_P_slice.52
	.cfi_def_cfa %rbp, 16
	movl	%ebx, %edi
	callq	estimate_weighting_factor_P_slice.52
	addq	$8, %rsp
	popq	%rbx
	popq	%rbp
	.cfi_def_cfa %rsp, 8
	retq
.LBB0_15:                               # %func_estimate_weighting_factor_P_slice.55
	.cfi_def_cfa %rbp, 16
	movl	%ebx, %edi
	callq	estimate_weighting_factor_P_slice.55
	addq	$8, %rsp
	popq	%rbx
	popq	%rbp
	.cfi_def_cfa %rsp, 8
	retq
.LBB0_16:                               # %func_estimate_weighting_factor_P_slice.63
	.cfi_def_cfa %rbp, 16
	movl	%ebx, %edi
	callq	estimate_weighting_factor_P_slice.63
	addq	$8, %rsp
	popq	%rbx
	popq	%rbp
	.cfi_def_cfa %rsp, 8
	retq
.LBB0_17:                               # %ctrl0
	.cfi_def_cfa %rbp, 16
	cmpl	$1, %eax
	je	.LBB0_2
# %bb.18:                               # %ctrl1
	cmpl	$2, %eax
	je	.LBB0_3
# %bb.19:                               # %ctrl2
	cmpl	$3, %eax
	je	.LBB0_4
# %bb.20:                               # %ctrl3
	cmpl	$4, %eax
	je	.LBB0_5
# %bb.21:                               # %ctrl4
	cmpl	$5, %eax
	je	.LBB0_6
# %bb.22:                               # %ctrl5
	cmpl	$6, %eax
	je	.LBB0_7
# %bb.23:                               # %ctrl6
	cmpl	$7, %eax
	je	.LBB0_8
# %bb.24:                               # %ctrl7
	cmpl	$8, %eax
	je	.LBB0_9
# %bb.25:                               # %ctrl8
	cmpl	$9, %eax
	je	.LBB0_10
# %bb.26:                               # %ctrl9
	cmpl	$10, %eax
	je	.LBB0_11
# %bb.27:                               # %ctrl10
	cmpl	$11, %eax
	je	.LBB0_12
# %bb.28:                               # %ctrl11
	cmpl	$12, %eax
	je	.LBB0_13
# %bb.29:                               # %ctrl12
	cmpl	$13, %eax
	je	.LBB0_14
# %bb.30:                               # %ctrl13
	cmpl	$14, %eax
	je	.LBB0_15
	jmp	.LBB0_16
.Lfunc_end0:
	.size	estimate_weighting_factor_P_slice, .Lfunc_end0-estimate_weighting_factor_P_slice
	.cfi_endproc
                                        # -- End function
	.globl	estimate_weighting_factor_B_slice # -- Begin function estimate_weighting_factor_B_slice
	.p2align	4, 0x90
	.type	estimate_weighting_factor_B_slice,@function
estimate_weighting_factor_B_slice:      # @estimate_weighting_factor_B_slice
	.cfi_startproc
# %bb.0:                                # %rand_bb
	pushq	%rbp
	.cfi_def_cfa_offset 16
	.cfi_offset %rbp, -16
	movq	%rsp, %rbp
	.cfi_def_cfa_register %rbp
	callq	get_rand
	cmpl	$0, %eax
	jne	.LBB1_17
# %bb.1:                                # %func_estimate_weighting_factor_B_slice.1
	callq	estimate_weighting_factor_B_slice.1
	popq	%rbp
	.cfi_def_cfa %rsp, 8
	retq
.LBB1_2:                                # %func_estimate_weighting_factor_B_slice.10
	.cfi_def_cfa %rbp, 16
	callq	estimate_weighting_factor_B_slice.10
	popq	%rbp
	.cfi_def_cfa %rsp, 8
	retq
.LBB1_3:                                # %func_estimate_weighting_factor_B_slice.11
	.cfi_def_cfa %rbp, 16
	callq	estimate_weighting_factor_B_slice.11
	popq	%rbp
	.cfi_def_cfa %rsp, 8
	retq
.LBB1_4:                                # %func_estimate_weighting_factor_B_slice.13
	.cfi_def_cfa %rbp, 16
	callq	estimate_weighting_factor_B_slice.13
	popq	%rbp
	.cfi_def_cfa %rsp, 8
	retq
.LBB1_5:                                # %func_estimate_weighting_factor_B_slice.14
	.cfi_def_cfa %rbp, 16
	callq	estimate_weighting_factor_B_slice.14
	popq	%rbp
	.cfi_def_cfa %rsp, 8
	retq
.LBB1_6:                                # %func_estimate_weighting_factor_B_slice.21
	.cfi_def_cfa %rbp, 16
	callq	estimate_weighting_factor_B_slice.21
	popq	%rbp
	.cfi_def_cfa %rsp, 8
	retq
.LBB1_7:                                # %func_estimate_weighting_factor_B_slice.22
	.cfi_def_cfa %rbp, 16
	callq	estimate_weighting_factor_B_slice.22
	popq	%rbp
	.cfi_def_cfa %rsp, 8
	retq
.LBB1_8:                                # %func_estimate_weighting_factor_B_slice.23
	.cfi_def_cfa %rbp, 16
	callq	estimate_weighting_factor_B_slice.23
	popq	%rbp
	.cfi_def_cfa %rsp, 8
	retq
.LBB1_9:                                # %func_estimate_weighting_factor_B_slice.29
	.cfi_def_cfa %rbp, 16
	callq	estimate_weighting_factor_B_slice.29
	popq	%rbp
	.cfi_def_cfa %rsp, 8
	retq
.LBB1_10:                               # %func_estimate_weighting_factor_B_slice.35
	.cfi_def_cfa %rbp, 16
	callq	estimate_weighting_factor_B_slice.35
	popq	%rbp
	.cfi_def_cfa %rsp, 8
	retq
.LBB1_11:                               # %func_estimate_weighting_factor_B_slice.38
	.cfi_def_cfa %rbp, 16
	callq	estimate_weighting_factor_B_slice.38
	popq	%rbp
	.cfi_def_cfa %rsp, 8
	retq
.LBB1_12:                               # %func_estimate_weighting_factor_B_slice.40
	.cfi_def_cfa %rbp, 16
	callq	estimate_weighting_factor_B_slice.40
	popq	%rbp
	.cfi_def_cfa %rsp, 8
	retq
.LBB1_13:                               # %func_estimate_weighting_factor_B_slice.42
	.cfi_def_cfa %rbp, 16
	callq	estimate_weighting_factor_B_slice.42
	popq	%rbp
	.cfi_def_cfa %rsp, 8
	retq
.LBB1_14:                               # %func_estimate_weighting_factor_B_slice.43
	.cfi_def_cfa %rbp, 16
	callq	estimate_weighting_factor_B_slice.43
	popq	%rbp
	.cfi_def_cfa %rsp, 8
	retq
.LBB1_15:                               # %func_estimate_weighting_factor_B_slice.48
	.cfi_def_cfa %rbp, 16
	callq	estimate_weighting_factor_B_slice.48
	popq	%rbp
	.cfi_def_cfa %rsp, 8
	retq
.LBB1_16:                               # %func_estimate_weighting_factor_B_slice.61
	.cfi_def_cfa %rbp, 16
	callq	estimate_weighting_factor_B_slice.61
	popq	%rbp
	.cfi_def_cfa %rsp, 8
	retq
.LBB1_17:                               # %ctrl0
	.cfi_def_cfa %rbp, 16
	cmpl	$1, %eax
	je	.LBB1_2
# %bb.18:                               # %ctrl1
	cmpl	$2, %eax
	je	.LBB1_3
# %bb.19:                               # %ctrl2
	cmpl	$3, %eax
	je	.LBB1_4
# %bb.20:                               # %ctrl3
	cmpl	$4, %eax
	je	.LBB1_5
# %bb.21:                               # %ctrl4
	cmpl	$5, %eax
	je	.LBB1_6
# %bb.22:                               # %ctrl5
	cmpl	$6, %eax
	je	.LBB1_7
# %bb.23:                               # %ctrl6
	cmpl	$7, %eax
	je	.LBB1_8
# %bb.24:                               # %ctrl7
	cmpl	$8, %eax
	je	.LBB1_9
# %bb.25:                               # %ctrl8
	cmpl	$9, %eax
	je	.LBB1_10
# %bb.26:                               # %ctrl9
	cmpl	$10, %eax
	je	.LBB1_11
# %bb.27:                               # %ctrl10
	cmpl	$11, %eax
	je	.LBB1_12
# %bb.28:                               # %ctrl11
	cmpl	$12, %eax
	je	.LBB1_13
# %bb.29:                               # %ctrl12
	cmpl	$13, %eax
	je	.LBB1_14
# %bb.30:                               # %ctrl13
	cmpl	$14, %eax
	je	.LBB1_15
	jmp	.LBB1_16
.Lfunc_end1:
	.size	estimate_weighting_factor_B_slice, .Lfunc_end1-estimate_weighting_factor_B_slice
	.cfi_endproc
                                        # -- End function
	.globl	test_wp_P_slice         # -- Begin function test_wp_P_slice
	.p2align	4, 0x90
	.type	test_wp_P_slice,@function
test_wp_P_slice:                        # @test_wp_P_slice
	.cfi_startproc
# %bb.0:                                # %rand_bb
	pushq	%rbp
	.cfi_def_cfa_offset 16
	.cfi_offset %rbp, -16
	movq	%rsp, %rbp
	.cfi_def_cfa_register %rbp
	pushq	%rbx
	pushq	%rax
	.cfi_offset %rbx, -24
	movl	%edi, %ebx
	callq	get_rand
	cmpl	$0, %eax
	jne	.LBB2_17
# %bb.1:                                # %func_test_wp_P_slice.3
	movl	%ebx, %edi
	callq	test_wp_P_slice.3
	addq	$8, %rsp
	popq	%rbx
	popq	%rbp
	.cfi_def_cfa %rsp, 8
	retq
.LBB2_2:                                # %func_test_wp_P_slice.5
	.cfi_def_cfa %rbp, 16
	movl	%ebx, %edi
	callq	test_wp_P_slice.5
	addq	$8, %rsp
	popq	%rbx
	popq	%rbp
	.cfi_def_cfa %rsp, 8
	retq
.LBB2_3:                                # %func_test_wp_P_slice.9
	.cfi_def_cfa %rbp, 16
	movl	%ebx, %edi
	callq	test_wp_P_slice.9
	addq	$8, %rsp
	popq	%rbx
	popq	%rbp
	.cfi_def_cfa %rsp, 8
	retq
.LBB2_4:                                # %func_test_wp_P_slice.15
	.cfi_def_cfa %rbp, 16
	movl	%ebx, %edi
	callq	test_wp_P_slice.15
	addq	$8, %rsp
	popq	%rbx
	popq	%rbp
	.cfi_def_cfa %rsp, 8
	retq
.LBB2_5:                                # %func_test_wp_P_slice.16
	.cfi_def_cfa %rbp, 16
	movl	%ebx, %edi
	callq	test_wp_P_slice.16
	addq	$8, %rsp
	popq	%rbx
	popq	%rbp
	.cfi_def_cfa %rsp, 8
	retq
.LBB2_6:                                # %func_test_wp_P_slice.27
	.cfi_def_cfa %rbp, 16
	movl	%ebx, %edi
	callq	test_wp_P_slice.27
	addq	$8, %rsp
	popq	%rbx
	popq	%rbp
	.cfi_def_cfa %rsp, 8
	retq
.LBB2_7:                                # %func_test_wp_P_slice.30
	.cfi_def_cfa %rbp, 16
	movl	%ebx, %edi
	callq	test_wp_P_slice.30
	addq	$8, %rsp
	popq	%rbx
	popq	%rbp
	.cfi_def_cfa %rsp, 8
	retq
.LBB2_8:                                # %func_test_wp_P_slice.32
	.cfi_def_cfa %rbp, 16
	movl	%ebx, %edi
	callq	test_wp_P_slice.32
	addq	$8, %rsp
	popq	%rbx
	popq	%rbp
	.cfi_def_cfa %rsp, 8
	retq
.LBB2_9:                                # %func_test_wp_P_slice.33
	.cfi_def_cfa %rbp, 16
	movl	%ebx, %edi
	callq	test_wp_P_slice.33
	addq	$8, %rsp
	popq	%rbx
	popq	%rbp
	.cfi_def_cfa %rsp, 8
	retq
.LBB2_10:                               # %func_test_wp_P_slice.34
	.cfi_def_cfa %rbp, 16
	movl	%ebx, %edi
	callq	test_wp_P_slice.34
	addq	$8, %rsp
	popq	%rbx
	popq	%rbp
	.cfi_def_cfa %rsp, 8
	retq
.LBB2_11:                               # %func_test_wp_P_slice.37
	.cfi_def_cfa %rbp, 16
	movl	%ebx, %edi
	callq	test_wp_P_slice.37
	addq	$8, %rsp
	popq	%rbx
	popq	%rbp
	.cfi_def_cfa %rsp, 8
	retq
.LBB2_12:                               # %func_test_wp_P_slice.45
	.cfi_def_cfa %rbp, 16
	movl	%ebx, %edi
	callq	test_wp_P_slice.45
	addq	$8, %rsp
	popq	%rbx
	popq	%rbp
	.cfi_def_cfa %rsp, 8
	retq
.LBB2_13:                               # %func_test_wp_P_slice.47
	.cfi_def_cfa %rbp, 16
	movl	%ebx, %edi
	callq	test_wp_P_slice.47
	addq	$8, %rsp
	popq	%rbx
	popq	%rbp
	.cfi_def_cfa %rsp, 8
	retq
.LBB2_14:                               # %func_test_wp_P_slice.50
	.cfi_def_cfa %rbp, 16
	movl	%ebx, %edi
	callq	test_wp_P_slice.50
	addq	$8, %rsp
	popq	%rbx
	popq	%rbp
	.cfi_def_cfa %rsp, 8
	retq
.LBB2_15:                               # %func_test_wp_P_slice.51
	.cfi_def_cfa %rbp, 16
	movl	%ebx, %edi
	callq	test_wp_P_slice.51
	addq	$8, %rsp
	popq	%rbx
	popq	%rbp
	.cfi_def_cfa %rsp, 8
	retq
.LBB2_16:                               # %func_test_wp_P_slice.57
	.cfi_def_cfa %rbp, 16
	movl	%ebx, %edi
	callq	test_wp_P_slice.57
	addq	$8, %rsp
	popq	%rbx
	popq	%rbp
	.cfi_def_cfa %rsp, 8
	retq
.LBB2_17:                               # %ctrl0
	.cfi_def_cfa %rbp, 16
	cmpl	$1, %eax
	je	.LBB2_2
# %bb.18:                               # %ctrl1
	cmpl	$2, %eax
	je	.LBB2_3
# %bb.19:                               # %ctrl2
	cmpl	$3, %eax
	je	.LBB2_4
# %bb.20:                               # %ctrl3
	cmpl	$4, %eax
	je	.LBB2_5
# %bb.21:                               # %ctrl4
	cmpl	$5, %eax
	je	.LBB2_6
# %bb.22:                               # %ctrl5
	cmpl	$6, %eax
	je	.LBB2_7
# %bb.23:                               # %ctrl6
	cmpl	$7, %eax
	je	.LBB2_8
# %bb.24:                               # %ctrl7
	cmpl	$8, %eax
	je	.LBB2_9
# %bb.25:                               # %ctrl8
	cmpl	$9, %eax
	je	.LBB2_10
# %bb.26:                               # %ctrl9
	cmpl	$10, %eax
	je	.LBB2_11
# %bb.27:                               # %ctrl10
	cmpl	$11, %eax
	je	.LBB2_12
# %bb.28:                               # %ctrl11
	cmpl	$12, %eax
	je	.LBB2_13
# %bb.29:                               # %ctrl12
	cmpl	$13, %eax
	je	.LBB2_14
# %bb.30:                               # %ctrl13
	cmpl	$14, %eax
	je	.LBB2_15
	jmp	.LBB2_16
.Lfunc_end2:
	.size	test_wp_P_slice, .Lfunc_end2-test_wp_P_slice
	.cfi_endproc
                                        # -- End function
	.globl	test_wp_B_slice         # -- Begin function test_wp_B_slice
	.p2align	4, 0x90
	.type	test_wp_B_slice,@function
test_wp_B_slice:                        # @test_wp_B_slice
	.cfi_startproc
# %bb.0:                                # %rand_bb
	pushq	%rbp
	.cfi_def_cfa_offset 16
	.cfi_offset %rbp, -16
	movq	%rsp, %rbp
	.cfi_def_cfa_register %rbp
	pushq	%rbx
	pushq	%rax
	.cfi_offset %rbx, -24
	movl	%edi, %ebx
	callq	get_rand
	cmpl	$0, %eax
	jne	.LBB3_17
# %bb.1:                                # %func_test_wp_B_slice.4
	movl	%ebx, %edi
	callq	test_wp_B_slice.4
	addq	$8, %rsp
	popq	%rbx
	popq	%rbp
	.cfi_def_cfa %rsp, 8
	retq
.LBB3_2:                                # %func_test_wp_B_slice.17
	.cfi_def_cfa %rbp, 16
	movl	%ebx, %edi
	callq	test_wp_B_slice.17
	addq	$8, %rsp
	popq	%rbx
	popq	%rbp
	.cfi_def_cfa %rsp, 8
	retq
.LBB3_3:                                # %func_test_wp_B_slice.18
	.cfi_def_cfa %rbp, 16
	movl	%ebx, %edi
	callq	test_wp_B_slice.18
	addq	$8, %rsp
	popq	%rbx
	popq	%rbp
	.cfi_def_cfa %rsp, 8
	retq
.LBB3_4:                                # %func_test_wp_B_slice.26
	.cfi_def_cfa %rbp, 16
	movl	%ebx, %edi
	callq	test_wp_B_slice.26
	addq	$8, %rsp
	popq	%rbx
	popq	%rbp
	.cfi_def_cfa %rsp, 8
	retq
.LBB3_5:                                # %func_test_wp_B_slice.28
	.cfi_def_cfa %rbp, 16
	movl	%ebx, %edi
	callq	test_wp_B_slice.28
	addq	$8, %rsp
	popq	%rbx
	popq	%rbp
	.cfi_def_cfa %rsp, 8
	retq
.LBB3_6:                                # %func_test_wp_B_slice.31
	.cfi_def_cfa %rbp, 16
	movl	%ebx, %edi
	callq	test_wp_B_slice.31
	addq	$8, %rsp
	popq	%rbx
	popq	%rbp
	.cfi_def_cfa %rsp, 8
	retq
.LBB3_7:                                # %func_test_wp_B_slice.41
	.cfi_def_cfa %rbp, 16
	movl	%ebx, %edi
	callq	test_wp_B_slice.41
	addq	$8, %rsp
	popq	%rbx
	popq	%rbp
	.cfi_def_cfa %rsp, 8
	retq
.LBB3_8:                                # %func_test_wp_B_slice.49
	.cfi_def_cfa %rbp, 16
	movl	%ebx, %edi
	callq	test_wp_B_slice.49
	addq	$8, %rsp
	popq	%rbx
	popq	%rbp
	.cfi_def_cfa %rsp, 8
	retq
.LBB3_9:                                # %func_test_wp_B_slice.53
	.cfi_def_cfa %rbp, 16
	movl	%ebx, %edi
	callq	test_wp_B_slice.53
	addq	$8, %rsp
	popq	%rbx
	popq	%rbp
	.cfi_def_cfa %rsp, 8
	retq
.LBB3_10:                               # %func_test_wp_B_slice.54
	.cfi_def_cfa %rbp, 16
	movl	%ebx, %edi
	callq	test_wp_B_slice.54
	addq	$8, %rsp
	popq	%rbx
	popq	%rbp
	.cfi_def_cfa %rsp, 8
	retq
.LBB3_11:                               # %func_test_wp_B_slice.56
	.cfi_def_cfa %rbp, 16
	movl	%ebx, %edi
	callq	test_wp_B_slice.56
	addq	$8, %rsp
	popq	%rbx
	popq	%rbp
	.cfi_def_cfa %rsp, 8
	retq
.LBB3_12:                               # %func_test_wp_B_slice.58
	.cfi_def_cfa %rbp, 16
	movl	%ebx, %edi
	callq	test_wp_B_slice.58
	addq	$8, %rsp
	popq	%rbx
	popq	%rbp
	.cfi_def_cfa %rsp, 8
	retq
.LBB3_13:                               # %func_test_wp_B_slice.59
	.cfi_def_cfa %rbp, 16
	movl	%ebx, %edi
	callq	test_wp_B_slice.59
	addq	$8, %rsp
	popq	%rbx
	popq	%rbp
	.cfi_def_cfa %rsp, 8
	retq
.LBB3_14:                               # %func_test_wp_B_slice.60
	.cfi_def_cfa %rbp, 16
	movl	%ebx, %edi
	callq	test_wp_B_slice.60
	addq	$8, %rsp
	popq	%rbx
	popq	%rbp
	.cfi_def_cfa %rsp, 8
	retq
.LBB3_15:                               # %func_test_wp_B_slice.62
	.cfi_def_cfa %rbp, 16
	movl	%ebx, %edi
	callq	test_wp_B_slice.62
	addq	$8, %rsp
	popq	%rbx
	popq	%rbp
	.cfi_def_cfa %rsp, 8
	retq
.LBB3_16:                               # %func_test_wp_B_slice.64
	.cfi_def_cfa %rbp, 16
	movl	%ebx, %edi
	callq	test_wp_B_slice.64
	addq	$8, %rsp
	popq	%rbx
	popq	%rbp
	.cfi_def_cfa %rsp, 8
	retq
.LBB3_17:                               # %ctrl0
	.cfi_def_cfa %rbp, 16
	cmpl	$1, %eax
	je	.LBB3_2
# %bb.18:                               # %ctrl1
	cmpl	$2, %eax
	je	.LBB3_3
# %bb.19:                               # %ctrl2
	cmpl	$3, %eax
	je	.LBB3_4
# %bb.20:                               # %ctrl3
	cmpl	$4, %eax
	je	.LBB3_5
# %bb.21:                               # %ctrl4
	cmpl	$5, %eax
	je	.LBB3_6
# %bb.22:                               # %ctrl5
	cmpl	$6, %eax
	je	.LBB3_7
# %bb.23:                               # %ctrl6
	cmpl	$7, %eax
	je	.LBB3_8
# %bb.24:                               # %ctrl7
	cmpl	$8, %eax
	je	.LBB3_9
# %bb.25:                               # %ctrl8
	cmpl	$9, %eax
	je	.LBB3_10
# %bb.26:                               # %ctrl9
	cmpl	$10, %eax
	je	.LBB3_11
# %bb.27:                               # %ctrl10
	cmpl	$11, %eax
	je	.LBB3_12
# %bb.28:                               # %ctrl11
	cmpl	$12, %eax
	je	.LBB3_13
# %bb.29:                               # %ctrl12
	cmpl	$13, %eax
	je	.LBB3_14
# %bb.30:                               # %ctrl13
	cmpl	$14, %eax
	je	.LBB3_15
	jmp	.LBB3_16
.Lfunc_end3:
	.size	test_wp_B_slice, .Lfunc_end3-test_wp_B_slice
	.cfi_endproc
                                        # -- End function
	.section	.rodata.cst8,"aM",@progbits,8
	.p2align	3               # -- Begin function estimate_weighting_factor_B_slice.1
.LCPI4_0:
	.quad	4602678819172646912     # double 0.5
	.text
	.globl	estimate_weighting_factor_B_slice.1
	.p2align	4, 0x90
	.type	estimate_weighting_factor_B_slice.1,@function
estimate_weighting_factor_B_slice.1:    # @estimate_weighting_factor_B_slice.1
	.cfi_startproc
# %bb.0:                                # %entry
	pushq	%rbp
	.cfi_def_cfa_offset 16
	.cfi_offset %rbp, -16
	movq	%rsp, %rbp
	.cfi_def_cfa_register %rbp
	subq	$35424, %rsp            # imm = 0x8A60
	movl	$1635147423, -92(%rbp)  # imm = 0x61765E9F
	vxorps	%xmm0, %xmm0, %xmm0
	vmovsd	%xmm0, -80(%rbp)
	movq	img, %rax
	cmpl	$0, 72400(%rax)
	je	.LBB4_3
# %bb.1:                                # %land.lhs.true
	movq	img, %rax
	movq	14168(%rax), %rax
	movq	img, %rcx
	movslq	12(%rcx), %rcx
	imulq	$632, %rcx, %rcx        # imm = 0x278
	addq	%rcx, %rax
	cmpl	$0, 532(%rax)
	je	.LBB4_3
# %bb.2:                                # %cond.true
	movq	img, %rax
	movl	12(%rax), %eax
	cltd
	movl	$2, %ecx
	idivl	%ecx
	cmpl	$0, %edx
	movl	$4, %eax
	cmovnel	%eax, %ecx
	jmp	.LBB4_4
.LBB4_3:                                # %cond.false
	xorl	%ecx, %ecx
	jmp	.LBB4_4
.LBB4_4:                                # %cond.end
	movl	%ecx, -40(%rbp)
	movq	active_pps, %rax
	cmpl	$2, 196(%rax)
	jne	.LBB4_6
# %bb.5:                                # %if.then
	movl	$5, luma_log_weight_denom
	movl	$5, chroma_log_weight_denom
	jmp	.LBB4_7
.LBB4_6:                                # %if.else
	movl	$6, luma_log_weight_denom
	movl	$6, chroma_log_weight_denom
.LBB4_7:                                # %if.end
	movl	luma_log_weight_denom, %ecx
	subl	$1, %ecx
                                        # kill: def $cl killed $ecx
	movl	$1, %eax
	movl	$1, %edx
	shll	%cl, %edx
	movl	%edx, wp_luma_round
	movl	chroma_log_weight_denom, %ecx
	subl	$1, %ecx
                                        # kill: def $cl killed $ecx
	movl	$1, %edx
	shll	%cl, %edx
	movl	%edx, wp_chroma_round
	movl	luma_log_weight_denom, %ecx
                                        # kill: def $cl killed $ecx
	movl	$1, %edx
	shll	%cl, %edx
	movl	%edx, -52(%rbp)
	movl	chroma_log_weight_denom, %ecx
                                        # kill: def $cl killed $ecx
	movl	$1, %edx
	shll	%cl, %edx
	movl	%edx, -48(%rbp)
	movl	chroma_log_weight_denom, %ecx
                                        # kill: def $cl killed $ecx
	shll	%cl, %eax
	movl	%eax, -44(%rbp)
	movl	$0, -4(%rbp)
.LBB4_8:                                # %for.cond
                                        # =>This Loop Header: Depth=1
                                        #     Child Loop BB4_10 Depth 2
                                        #       Child Loop BB4_12 Depth 3
	movl	-4(%rbp), %eax
	movl	-40(%rbp), %ecx
	addl	$2, %ecx
	cmpl	%ecx, %eax
	jge	.LBB4_19
# %bb.9:                                # %for.body
                                        #   in Loop: Header=BB4_8 Depth=1
	movl	$0, -8(%rbp)
.LBB4_10:                               # %for.cond14
                                        #   Parent Loop BB4_8 Depth=1
                                        # =>  This Loop Header: Depth=2
                                        #       Child Loop BB4_12 Depth 3
	movl	-8(%rbp), %eax
	movslq	-4(%rbp), %rcx
	cmpl	listXsize(,%rcx,4), %eax
	jge	.LBB4_17
# %bb.11:                               # %for.body18
                                        #   in Loop: Header=BB4_10 Depth=2
	movl	$0, -16(%rbp)
.LBB4_12:                               # %for.cond19
                                        #   Parent Loop BB4_8 Depth=1
                                        #     Parent Loop BB4_10 Depth=2
                                        # =>    This Inner Loop Header: Depth=3
	cmpl	$3, -16(%rbp)
	jge	.LBB4_15
# %bb.13:                               # %for.body21
                                        #   in Loop: Header=BB4_12 Depth=3
	movslq	-16(%rbp), %rax
	movl	-52(%rbp,%rax,4), %eax
	movq	wp_weight, %rcx
	movslq	-4(%rbp), %rdx
	movq	(%rcx,%rdx,8), %rcx
	movslq	-8(%rbp), %rdx
	movq	(%rcx,%rdx,8), %rcx
	movslq	-16(%rbp), %rdx
	movl	%eax, (%rcx,%rdx,4)
	movq	wp_offset, %rax
	movslq	-4(%rbp), %rcx
	movq	(%rax,%rcx,8), %rax
	movslq	-8(%rbp), %rcx
	movq	(%rax,%rcx,8), %rax
	movslq	-16(%rbp), %rcx
	movl	$0, (%rax,%rcx,4)
	movslq	-4(%rbp), %rax
	imulq	$180, %rax, %rax
	leaq	-1920(%rbp), %rcx
	addq	%rax, %rcx
	movslq	-8(%rbp), %rax
	imulq	$12, %rax, %rax
	addq	%rax, %rcx
	movslq	-16(%rbp), %rax
	movl	$0, (%rcx,%rax,4)
	movslq	-16(%rbp), %rax
	movl	-52(%rbp,%rax,4), %eax
	movslq	-4(%rbp), %rcx
	imulq	$180, %rcx, %rcx
	leaq	-3008(%rbp), %rdx
	addq	%rcx, %rdx
	movslq	-8(%rbp), %rcx
	imulq	$12, %rcx, %rcx
	addq	%rcx, %rdx
	movslq	-16(%rbp), %rcx
	movl	%eax, (%rdx,%rcx,4)
# %bb.14:                               # %for.inc
                                        #   in Loop: Header=BB4_12 Depth=3
	movl	-16(%rbp), %eax
	addl	$1, %eax
	movl	%eax, -16(%rbp)
	jmp	.LBB4_12
.LBB4_15:                               # %for.end
                                        #   in Loop: Header=BB4_10 Depth=2
	jmp	.LBB4_16
.LBB4_16:                               # %for.inc50
                                        #   in Loop: Header=BB4_10 Depth=2
	movl	-8(%rbp), %eax
	addl	$1, %eax
	movl	%eax, -8(%rbp)
	jmp	.LBB4_10
.LBB4_17:                               # %for.end52
                                        #   in Loop: Header=BB4_8 Depth=1
	jmp	.LBB4_18
.LBB4_18:                               # %for.inc53
                                        #   in Loop: Header=BB4_8 Depth=1
	movl	-4(%rbp), %eax
	addl	$1, %eax
	movl	%eax, -4(%rbp)
	jmp	.LBB4_8
.LBB4_19:                               # %for.end55
	movl	$0, -4(%rbp)
.LBB4_20:                               # %for.cond56
                                        # =>This Loop Header: Depth=1
                                        #     Child Loop BB4_22 Depth 2
                                        #       Child Loop BB4_36 Depth 3
	movl	-4(%rbp), %eax
	cmpl	listXsize, %eax
	jge	.LBB4_55
# %bb.21:                               # %for.body58
                                        #   in Loop: Header=BB4_20 Depth=1
	movl	$0, -8(%rbp)
.LBB4_22:                               # %for.cond59
                                        #   Parent Loop BB4_20 Depth=1
                                        # =>  This Loop Header: Depth=2
                                        #       Child Loop BB4_36 Depth 3
	movl	-8(%rbp), %eax
	cmpl	listXsize+4, %eax
	jge	.LBB4_53
# %bb.23:                               # %for.body61
                                        #   in Loop: Header=BB4_22 Depth=2
	movq	listX+8, %rax
	movslq	-8(%rbp), %rcx
	movq	(%rax,%rcx,8), %rax
	movl	4(%rax), %eax
	movq	listX, %rcx
	movslq	-4(%rbp), %rdx
	movq	(%rcx,%rdx,8), %rcx
	subl	4(%rcx), %eax
	cmpl	$-128, %eax
	jge	.LBB4_25
# %bb.24:                               # %cond.true69
                                        #   in Loop: Header=BB4_22 Depth=2
	movl	$4294967168, %eax       # imm = 0xFFFFFF80
	jmp	.LBB4_29
.LBB4_25:                               # %cond.false70
                                        #   in Loop: Header=BB4_22 Depth=2
	movq	listX+8, %rax
	movslq	-8(%rbp), %rcx
	movq	(%rax,%rcx,8), %rax
	movl	4(%rax), %eax
	movq	listX, %rcx
	movslq	-4(%rbp), %rdx
	movq	(%rcx,%rdx,8), %rcx
	subl	4(%rcx), %eax
	cmpl	$127, %eax
	jle	.LBB4_27
# %bb.26:                               # %cond.true79
                                        #   in Loop: Header=BB4_22 Depth=2
	movl	$127, %eax
	jmp	.LBB4_28
.LBB4_27:                               # %cond.false80
                                        #   in Loop: Header=BB4_22 Depth=2
	movq	listX+8, %rax
	movslq	-8(%rbp), %rcx
	movq	(%rax,%rcx,8), %rax
	movl	4(%rax), %eax
	movq	listX, %rcx
	movslq	-4(%rbp), %rdx
	movq	(%rcx,%rdx,8), %rcx
	subl	4(%rcx), %eax
.LBB4_28:                               # %cond.end88
                                        #   in Loop: Header=BB4_22 Depth=2
.LBB4_29:                               # %cond.end90
                                        #   in Loop: Header=BB4_22 Depth=2
	movl	%eax, -56(%rbp)
	movq	enc_picture, %rax
	movl	4(%rax), %eax
	movq	listX, %rcx
	movslq	-4(%rbp), %rdx
	movq	(%rcx,%rdx,8), %rcx
	subl	4(%rcx), %eax
	cmpl	$-128, %eax
	jge	.LBB4_31
# %bb.30:                               # %cond.true98
                                        #   in Loop: Header=BB4_22 Depth=2
	movl	$4294967168, %eax       # imm = 0xFFFFFF80
	jmp	.LBB4_35
.LBB4_31:                               # %cond.false99
                                        #   in Loop: Header=BB4_22 Depth=2
	movq	enc_picture, %rax
	movl	4(%rax), %eax
	movq	listX, %rcx
	movslq	-4(%rbp), %rdx
	movq	(%rcx,%rdx,8), %rcx
	subl	4(%rcx), %eax
	cmpl	$127, %eax
	jle	.LBB4_33
# %bb.32:                               # %cond.true106
                                        #   in Loop: Header=BB4_22 Depth=2
	movl	$127, %eax
	jmp	.LBB4_34
.LBB4_33:                               # %cond.false107
                                        #   in Loop: Header=BB4_22 Depth=2
	movq	enc_picture, %rax
	movl	4(%rax), %eax
	movq	listX, %rcx
	movslq	-4(%rbp), %rdx
	movq	(%rcx,%rdx,8), %rcx
	subl	4(%rcx), %eax
.LBB4_34:                               # %cond.end113
                                        #   in Loop: Header=BB4_22 Depth=2
.LBB4_35:                               # %cond.end115
                                        #   in Loop: Header=BB4_22 Depth=2
	movl	%eax, -60(%rbp)
	movl	$0, -20(%rbp)
.LBB4_36:                               # %for.cond117
                                        #   Parent Loop BB4_20 Depth=1
                                        #     Parent Loop BB4_22 Depth=2
                                        # =>    This Inner Loop Header: Depth=3
	cmpl	$3, -20(%rbp)
	jge	.LBB4_51
# %bb.37:                               # %for.body119
                                        #   in Loop: Header=BB4_36 Depth=3
	cmpl	$0, -56(%rbp)
	jne	.LBB4_39
# %bb.38:                               # %if.then121
                                        #   in Loop: Header=BB4_36 Depth=3
	leaq	-35424(%rbp), %rax
	leaq	-19216(%rbp), %rcx
	movslq	-20(%rbp), %rdx
	movl	-52(%rbp,%rdx,4), %edx
	movq	%rcx, %rsi
	addq	$2700, %rsi             # imm = 0xA8C
	movslq	-4(%rbp), %rdi
	imulq	$180, %rdi, %rdi
	addq	%rdi, %rsi
	movslq	-8(%rbp), %rdi
	imulq	$12, %rdi, %rdi
	addq	%rdi, %rsi
	movslq	-20(%rbp), %rdi
	movl	%edx, (%rsi,%rdi,4)
	movslq	-20(%rbp), %rdx
	movl	-52(%rbp,%rdx,4), %edx
	movslq	-4(%rbp), %rsi
	imulq	$180, %rsi, %rsi
	addq	%rsi, %rcx
	movslq	-8(%rbp), %rsi
	imulq	$12, %rsi, %rsi
	addq	%rsi, %rcx
	movslq	-20(%rbp), %rsi
	movl	%edx, (%rcx,%rsi,4)
	movq	%rax, %rcx
	addq	$2700, %rcx             # imm = 0xA8C
	movslq	-4(%rbp), %rdx
	imulq	$180, %rdx, %rdx
	addq	%rdx, %rcx
	movslq	-8(%rbp), %rdx
	imulq	$12, %rdx, %rdx
	addq	%rdx, %rcx
	movslq	-20(%rbp), %rdx
	movl	$0, (%rcx,%rdx,4)
	movslq	-4(%rbp), %rcx
	imulq	$180, %rcx, %rcx
	addq	%rcx, %rax
	movslq	-8(%rbp), %rcx
	imulq	$12, %rcx, %rcx
	addq	%rcx, %rax
	movslq	-20(%rbp), %rcx
	movl	$0, (%rax,%rcx,4)
	jmp	.LBB4_49
.LBB4_39:                               # %if.else154
                                        #   in Loop: Header=BB4_36 Depth=3
	movl	-56(%rbp), %eax
	cltd
	movl	$2, %ecx
	idivl	%ecx
	movl	%eax, %edi
	callq	abs
	addl	$16384, %eax            # imm = 0x4000
	cltd
	idivl	-56(%rbp)
	movl	%eax, -64(%rbp)
	movl	-64(%rbp), %eax
	imull	-60(%rbp), %eax
	addl	$32, %eax
	sarl	$6, %eax
	cmpl	$-1024, %eax            # imm = 0xFC00
	jge	.LBB4_41
# %bb.40:                               # %cond.true159
                                        #   in Loop: Header=BB4_36 Depth=3
	movl	$4294966272, %eax       # imm = 0xFFFFFC00
	jmp	.LBB4_45
.LBB4_41:                               # %cond.false160
                                        #   in Loop: Header=BB4_36 Depth=3
	movl	-64(%rbp), %eax
	imull	-60(%rbp), %eax
	addl	$32, %eax
	sarl	$6, %eax
	cmpl	$1023, %eax             # imm = 0x3FF
	jle	.LBB4_43
# %bb.42:                               # %cond.true165
                                        #   in Loop: Header=BB4_36 Depth=3
	movl	$1023, %eax             # imm = 0x3FF
	jmp	.LBB4_44
.LBB4_43:                               # %cond.false166
                                        #   in Loop: Header=BB4_36 Depth=3
	movl	-64(%rbp), %eax
	imull	-60(%rbp), %eax
	addl	$32, %eax
	sarl	$6, %eax
.LBB4_44:                               # %cond.end170
                                        #   in Loop: Header=BB4_36 Depth=3
.LBB4_45:                               # %cond.end172
                                        #   in Loop: Header=BB4_36 Depth=3
	movl	%eax, -88(%rbp)
	movl	-88(%rbp), %eax
	sarl	$2, %eax
	leaq	-19216(%rbp), %rcx
	movq	%rcx, %rdx
	addq	$2700, %rdx             # imm = 0xA8C
	movslq	-4(%rbp), %rsi
	imulq	$180, %rsi, %rsi
	addq	%rsi, %rdx
	movslq	-8(%rbp), %rsi
	imulq	$12, %rsi, %rsi
	addq	%rsi, %rdx
	movslq	-20(%rbp), %rsi
	movl	%eax, (%rdx,%rsi,4)
	addq	$2700, %rcx             # imm = 0xA8C
	movslq	-4(%rbp), %rax
	imulq	$180, %rax, %rax
	addq	%rax, %rcx
	movslq	-8(%rbp), %rax
	imulq	$12, %rax, %rax
	addq	%rax, %rcx
	movslq	-20(%rbp), %rax
	cmpl	$-64, (%rcx,%rax,4)
	jl	.LBB4_47
# %bb.46:                               # %lor.lhs.false
                                        #   in Loop: Header=BB4_36 Depth=3
	leaq	-19216(%rbp), %rax
	addq	$2700, %rax             # imm = 0xA8C
	movslq	-4(%rbp), %rcx
	imulq	$180, %rcx, %rcx
	addq	%rcx, %rax
	movslq	-8(%rbp), %rcx
	imulq	$12, %rcx, %rcx
	addq	%rcx, %rax
	movslq	-20(%rbp), %rcx
	cmpl	$128, (%rax,%rcx,4)
	jle	.LBB4_48
.LBB4_47:                               # %if.then198
                                        #   in Loop: Header=BB4_36 Depth=3
	movslq	-20(%rbp), %rax
	movl	-52(%rbp,%rax,4), %eax
	leaq	-19216(%rbp), %rcx
	addq	$2700, %rcx             # imm = 0xA8C
	movslq	-4(%rbp), %rdx
	imulq	$180, %rdx, %rdx
	addq	%rdx, %rcx
	movslq	-8(%rbp), %rdx
	imulq	$12, %rdx, %rdx
	addq	%rdx, %rcx
	movslq	-20(%rbp), %rdx
	movl	%eax, (%rcx,%rdx,4)
.LBB4_48:                               # %if.end208
                                        #   in Loop: Header=BB4_36 Depth=3
	leaq	-35424(%rbp), %rax
	leaq	-19216(%rbp), %rcx
	movq	%rcx, %rdx
	addq	$2700, %rdx             # imm = 0xA8C
	movslq	-4(%rbp), %rsi
	imulq	$180, %rsi, %rsi
	addq	%rsi, %rdx
	movslq	-8(%rbp), %rsi
	imulq	$12, %rsi, %rsi
	addq	%rsi, %rdx
	movslq	-20(%rbp), %rsi
	movl	$64, %edi
	subl	(%rdx,%rsi,4), %edi
	movslq	-4(%rbp), %rdx
	imulq	$180, %rdx, %rdx
	addq	%rdx, %rcx
	movslq	-8(%rbp), %rdx
	imulq	$12, %rdx, %rdx
	addq	%rdx, %rcx
	movslq	-20(%rbp), %rdx
	movl	%edi, (%rcx,%rdx,4)
	movq	%rax, %rcx
	addq	$2700, %rcx             # imm = 0xA8C
	movslq	-4(%rbp), %rdx
	imulq	$180, %rdx, %rdx
	addq	%rdx, %rcx
	movslq	-8(%rbp), %rdx
	imulq	$12, %rdx, %rdx
	addq	%rdx, %rcx
	movslq	-20(%rbp), %rdx
	movl	$0, (%rcx,%rdx,4)
	movslq	-4(%rbp), %rcx
	imulq	$180, %rcx, %rcx
	addq	%rcx, %rax
	movslq	-8(%rbp), %rcx
	imulq	$12, %rcx, %rcx
	addq	%rcx, %rax
	movslq	-20(%rbp), %rcx
	movl	$0, (%rax,%rcx,4)
.LBB4_49:                               # %if.end238
                                        #   in Loop: Header=BB4_36 Depth=3
	jmp	.LBB4_50
.LBB4_50:                               # %for.inc239
                                        #   in Loop: Header=BB4_36 Depth=3
	movl	-20(%rbp), %eax
	addl	$1, %eax
	movl	%eax, -20(%rbp)
	jmp	.LBB4_36
.LBB4_51:                               # %for.end241
                                        #   in Loop: Header=BB4_22 Depth=2
	jmp	.LBB4_52
.LBB4_52:                               # %for.inc242
                                        #   in Loop: Header=BB4_22 Depth=2
	movl	-8(%rbp), %eax
	addl	$1, %eax
	movl	%eax, -8(%rbp)
	jmp	.LBB4_22
.LBB4_53:                               # %for.end244
                                        #   in Loop: Header=BB4_20 Depth=1
	jmp	.LBB4_54
.LBB4_54:                               # %for.inc245
                                        #   in Loop: Header=BB4_20 Depth=1
	movl	-4(%rbp), %eax
	addl	$1, %eax
	movl	%eax, -4(%rbp)
	jmp	.LBB4_20
.LBB4_55:                               # %for.end247
	movq	active_pps, %rax
	cmpl	$2, 196(%rax)
	jne	.LBB4_100
# %bb.56:                               # %if.then250
	movl	$0, -4(%rbp)
.LBB4_57:                               # %for.cond251
                                        # =>This Loop Header: Depth=1
                                        #     Child Loop BB4_59 Depth 2
                                        #       Child Loop BB4_61 Depth 3
	movl	-4(%rbp), %eax
	cmpl	listXsize, %eax
	jge	.LBB4_71
# %bb.58:                               # %for.body253
                                        #   in Loop: Header=BB4_57 Depth=1
	movl	$0, -8(%rbp)
.LBB4_59:                               # %for.cond254
                                        #   Parent Loop BB4_57 Depth=1
                                        # =>  This Loop Header: Depth=2
                                        #       Child Loop BB4_61 Depth 3
	movl	-8(%rbp), %eax
	cmpl	listXsize+4, %eax
	jge	.LBB4_69
# %bb.60:                               # %for.body256
                                        #   in Loop: Header=BB4_59 Depth=2
	movl	$0, -20(%rbp)
.LBB4_61:                               # %for.cond257
                                        #   Parent Loop BB4_57 Depth=1
                                        #     Parent Loop BB4_59 Depth=2
                                        # =>    This Inner Loop Header: Depth=3
	cmpl	$3, -20(%rbp)
	jge	.LBB4_67
# %bb.62:                               # %for.body259
                                        #   in Loop: Header=BB4_61 Depth=3
	cmpl	$0, -20(%rbp)
	jne	.LBB4_64
# %bb.63:                               # %cond.true261
                                        #   in Loop: Header=BB4_61 Depth=3
	movl	luma_log_weight_denom, %eax
	jmp	.LBB4_65
.LBB4_64:                               # %cond.false262
                                        #   in Loop: Header=BB4_61 Depth=3
	movl	chroma_log_weight_denom, %eax
.LBB4_65:                               # %cond.end263
                                        #   in Loop: Header=BB4_61 Depth=3
	leaq	-19216(%rbp), %rcx
	movl	%eax, -84(%rbp)
	movq	%rcx, %rax
	addq	$2700, %rax             # imm = 0xA8C
	movslq	-4(%rbp), %rdx
	imulq	$180, %rdx, %rdx
	addq	%rdx, %rax
	movslq	-8(%rbp), %rdx
	imulq	$12, %rdx, %rdx
	addq	%rdx, %rax
	movslq	-20(%rbp), %rdx
	movl	(%rax,%rdx,4), %eax
	movq	wbp_weight, %rdx
	movq	8(%rdx), %rdx
	movslq	-4(%rbp), %rsi
	movq	(%rdx,%rsi,8), %rdx
	movslq	-8(%rbp), %rsi
	movq	(%rdx,%rsi,8), %rdx
	movslq	-20(%rbp), %rsi
	movl	%eax, (%rdx,%rsi,4)
	movslq	-4(%rbp), %rax
	imulq	$180, %rax, %rax
	addq	%rax, %rcx
	movslq	-8(%rbp), %rax
	imulq	$12, %rax, %rax
	addq	%rax, %rcx
	movslq	-20(%rbp), %rax
	movl	(%rcx,%rax,4), %eax
	movq	wbp_weight, %rcx
	movq	(%rcx), %rcx
	movslq	-4(%rbp), %rdx
	movq	(%rcx,%rdx,8), %rcx
	movslq	-8(%rbp), %rdx
	movq	(%rcx,%rdx,8), %rcx
	movslq	-20(%rbp), %rdx
	movl	%eax, (%rcx,%rdx,4)
# %bb.66:                               # %for.inc293
                                        #   in Loop: Header=BB4_61 Depth=3
	movl	-20(%rbp), %eax
	addl	$1, %eax
	movl	%eax, -20(%rbp)
	jmp	.LBB4_61
.LBB4_67:                               # %for.end295
                                        #   in Loop: Header=BB4_59 Depth=2
	jmp	.LBB4_68
.LBB4_68:                               # %for.inc296
                                        #   in Loop: Header=BB4_59 Depth=2
	movl	-8(%rbp), %eax
	addl	$1, %eax
	movl	%eax, -8(%rbp)
	jmp	.LBB4_59
.LBB4_69:                               # %for.end298
                                        #   in Loop: Header=BB4_57 Depth=1
	jmp	.LBB4_70
.LBB4_70:                               # %for.inc299
                                        #   in Loop: Header=BB4_57 Depth=1
	movl	-4(%rbp), %eax
	addl	$1, %eax
	movl	%eax, -4(%rbp)
	jmp	.LBB4_57
.LBB4_71:                               # %for.end301
	movl	$0, -12(%rbp)
.LBB4_72:                               # %for.cond302
                                        # =>This Loop Header: Depth=1
                                        #     Child Loop BB4_74 Depth 2
	movl	-12(%rbp), %eax
	movl	-40(%rbp), %ecx
	addl	$2, %ecx
	cmpl	%ecx, %eax
	jge	.LBB4_79
# %bb.73:                               # %for.body305
                                        #   in Loop: Header=BB4_72 Depth=1
	movl	$0, -24(%rbp)
.LBB4_74:                               # %for.cond306
                                        #   Parent Loop BB4_72 Depth=1
                                        # =>  This Inner Loop Header: Depth=2
	movl	-24(%rbp), %eax
	movslq	-12(%rbp), %rcx
	cmpl	listXsize(,%rcx,4), %eax
	jge	.LBB4_77
# %bb.75:                               # %for.body310
                                        #   in Loop: Header=BB4_74 Depth=2
	movl	-52(%rbp), %eax
	movq	wp_weight, %rcx
	movslq	-12(%rbp), %rdx
	movq	(%rcx,%rdx,8), %rcx
	movslq	-24(%rbp), %rdx
	movq	(%rcx,%rdx,8), %rcx
	movl	%eax, (%rcx)
	movl	-48(%rbp), %eax
	movq	wp_weight, %rcx
	movslq	-12(%rbp), %rdx
	movq	(%rcx,%rdx,8), %rcx
	movslq	-24(%rbp), %rdx
	movq	(%rcx,%rdx,8), %rcx
	movl	%eax, 4(%rcx)
	movl	-44(%rbp), %eax
	movq	wp_weight, %rcx
	movslq	-12(%rbp), %rdx
	movq	(%rcx,%rdx,8), %rcx
	movslq	-24(%rbp), %rdx
	movq	(%rcx,%rdx,8), %rcx
	movl	%eax, 8(%rcx)
	movq	wp_offset, %rax
	movslq	-12(%rbp), %rcx
	movq	(%rax,%rcx,8), %rax
	movslq	-24(%rbp), %rcx
	movq	(%rax,%rcx,8), %rax
	movl	$0, (%rax)
	movq	wp_offset, %rax
	movslq	-12(%rbp), %rcx
	movq	(%rax,%rcx,8), %rax
	movslq	-24(%rbp), %rcx
	movq	(%rax,%rcx,8), %rax
	movl	$0, 4(%rax)
	movq	wp_offset, %rax
	movslq	-12(%rbp), %rcx
	movq	(%rax,%rcx,8), %rax
	movslq	-24(%rbp), %rcx
	movq	(%rax,%rcx,8), %rax
	movl	$0, 8(%rax)
# %bb.76:                               # %for.inc344
                                        #   in Loop: Header=BB4_74 Depth=2
	movl	-24(%rbp), %eax
	addl	$1, %eax
	movl	%eax, -24(%rbp)
	jmp	.LBB4_74
.LBB4_77:                               # %for.end346
                                        #   in Loop: Header=BB4_72 Depth=1
	jmp	.LBB4_78
.LBB4_78:                               # %for.inc347
                                        #   in Loop: Header=BB4_72 Depth=1
	movl	-12(%rbp), %eax
	addl	$1, %eax
	movl	%eax, -12(%rbp)
	jmp	.LBB4_72
.LBB4_79:                               # %for.end349
	movl	$0, -4(%rbp)
.LBB4_80:                               # %for.cond350
                                        # =>This Loop Header: Depth=1
                                        #     Child Loop BB4_82 Depth 2
                                        #       Child Loop BB4_84 Depth 3
                                        #       Child Loop BB4_88 Depth 3
                                        #         Child Loop BB4_90 Depth 4
	movl	-4(%rbp), %eax
	cmpl	listXsize, %eax
	jge	.LBB4_99
# %bb.81:                               # %for.body352
                                        #   in Loop: Header=BB4_80 Depth=1
	movl	$0, -8(%rbp)
.LBB4_82:                               # %for.cond353
                                        #   Parent Loop BB4_80 Depth=1
                                        # =>  This Loop Header: Depth=2
                                        #       Child Loop BB4_84 Depth 3
                                        #       Child Loop BB4_88 Depth 3
                                        #         Child Loop BB4_90 Depth 4
	movl	-8(%rbp), %eax
	cmpl	listXsize+4, %eax
	jge	.LBB4_97
# %bb.83:                               # %for.body355
                                        #   in Loop: Header=BB4_82 Depth=2
	movl	$0, -16(%rbp)
.LBB4_84:                               # %for.cond356
                                        #   Parent Loop BB4_80 Depth=1
                                        #     Parent Loop BB4_82 Depth=2
                                        # =>    This Inner Loop Header: Depth=3
	movl	-16(%rbp), %eax
	movq	img, %rcx
	movl	60(%rcx), %ecx
	movq	img, %rdx
	imull	52(%rdx), %ecx
	cmpl	%ecx, %eax
	jge	.LBB4_87
# %bb.85:                               # %for.body359
                                        #   in Loop: Header=BB4_84 Depth=3
	movq	listX, %rax
	movslq	-4(%rbp), %rcx
	movq	(%rax,%rcx,8), %rax
	movq	6432(%rax), %rax
	movslq	-16(%rbp), %rcx
	movw	(%rax,%rcx,2), %ax
	movq	listX, %rcx
	movslq	-4(%rbp), %rdx
	movq	(%rcx,%rdx,8), %rcx
	movq	6440(%rcx), %rcx
	movslq	-16(%rbp), %rdx
	movw	%ax, (%rcx,%rdx,2)
	movq	listX+8, %rax
	movslq	-8(%rbp), %rcx
	movq	(%rax,%rcx,8), %rax
	movq	6432(%rax), %rax
	movslq	-16(%rbp), %rcx
	movw	(%rax,%rcx,2), %ax
	movq	listX+8, %rcx
	movslq	-8(%rbp), %rdx
	movq	(%rcx,%rdx,8), %rcx
	movq	6440(%rcx), %rcx
	movslq	-16(%rbp), %rdx
	movw	%ax, (%rcx,%rdx,2)
# %bb.86:                               # %for.inc378
                                        #   in Loop: Header=BB4_84 Depth=3
	movl	-16(%rbp), %eax
	addl	$1, %eax
	movl	%eax, -16(%rbp)
	jmp	.LBB4_84
.LBB4_87:                               # %for.end380
                                        #   in Loop: Header=BB4_82 Depth=2
	movl	$0, -16(%rbp)
.LBB4_88:                               # %for.cond381
                                        #   Parent Loop BB4_80 Depth=1
                                        #     Parent Loop BB4_82 Depth=2
                                        # =>    This Loop Header: Depth=3
                                        #         Child Loop BB4_90 Depth 4
	movl	-16(%rbp), %eax
	movq	img, %rcx
	movl	60(%rcx), %ecx
	addl	$8, %ecx
	shll	$2, %ecx
	cmpl	%ecx, %eax
	jge	.LBB4_95
# %bb.89:                               # %for.body386
                                        #   in Loop: Header=BB4_88 Depth=3
	movl	$0, -32(%rbp)
.LBB4_90:                               # %for.cond387
                                        #   Parent Loop BB4_80 Depth=1
                                        #     Parent Loop BB4_82 Depth=2
                                        #       Parent Loop BB4_88 Depth=3
                                        # =>      This Inner Loop Header: Depth=4
	movl	-32(%rbp), %eax
	movq	img, %rcx
	movl	52(%rcx), %ecx
	addl	$8, %ecx
	shll	$2, %ecx
	cmpl	%ecx, %eax
	jge	.LBB4_93
# %bb.91:                               # %for.body392
                                        #   in Loop: Header=BB4_90 Depth=4
	movq	listX, %rax
	movslq	-4(%rbp), %rcx
	movq	(%rax,%rcx,8), %rax
	movq	6448(%rax), %rax
	movslq	-16(%rbp), %rcx
	movq	(%rax,%rcx,8), %rax
	movslq	-32(%rbp), %rcx
	movw	(%rax,%rcx,2), %ax
	movq	listX, %rcx
	movslq	-4(%rbp), %rdx
	movq	(%rcx,%rdx,8), %rcx
	movq	6456(%rcx), %rcx
	movslq	-16(%rbp), %rdx
	movq	(%rcx,%rdx,8), %rcx
	movslq	-32(%rbp), %rdx
	movw	%ax, (%rcx,%rdx,2)
	movq	listX+8, %rax
	movslq	-8(%rbp), %rcx
	movq	(%rax,%rcx,8), %rax
	movq	6448(%rax), %rax
	movslq	-16(%rbp), %rcx
	movq	(%rax,%rcx,8), %rax
	movslq	-32(%rbp), %rcx
	movw	(%rax,%rcx,2), %ax
	movq	listX+8, %rcx
	movslq	-8(%rbp), %rdx
	movq	(%rcx,%rdx,8), %rcx
	movq	6456(%rcx), %rcx
	movslq	-16(%rbp), %rdx
	movq	(%rcx,%rdx,8), %rcx
	movslq	-32(%rbp), %rdx
	movw	%ax, (%rcx,%rdx,2)
# %bb.92:                               # %for.inc419
                                        #   in Loop: Header=BB4_90 Depth=4
	movl	-32(%rbp), %eax
	addl	$1, %eax
	movl	%eax, -32(%rbp)
	jmp	.LBB4_90
.LBB4_93:                               # %for.end421
                                        #   in Loop: Header=BB4_88 Depth=3
	jmp	.LBB4_94
.LBB4_94:                               # %for.inc422
                                        #   in Loop: Header=BB4_88 Depth=3
	movl	-16(%rbp), %eax
	addl	$1, %eax
	movl	%eax, -16(%rbp)
	jmp	.LBB4_88
.LBB4_95:                               # %for.end424
                                        #   in Loop: Header=BB4_82 Depth=2
	jmp	.LBB4_96
.LBB4_96:                               # %for.inc425
                                        #   in Loop: Header=BB4_82 Depth=2
	movl	-8(%rbp), %eax
	addl	$1, %eax
	movl	%eax, -8(%rbp)
	jmp	.LBB4_82
.LBB4_97:                               # %for.end427
                                        #   in Loop: Header=BB4_80 Depth=1
	jmp	.LBB4_98
.LBB4_98:                               # %for.inc428
                                        #   in Loop: Header=BB4_80 Depth=1
	movl	-4(%rbp), %eax
	addl	$1, %eax
	movl	%eax, -4(%rbp)
	jmp	.LBB4_80
.LBB4_99:                               # %for.end430
	jmp	.LBB4_189
.LBB4_100:                              # %if.else431
	movl	$0, -4(%rbp)
.LBB4_101:                              # %for.cond432
                                        # =>This Loop Header: Depth=1
                                        #     Child Loop BB4_103 Depth 2
	movl	-4(%rbp), %eax
	movq	img, %rcx
	cmpl	60(%rcx), %eax
	jge	.LBB4_108
# %bb.102:                              # %for.body435
                                        #   in Loop: Header=BB4_101 Depth=1
	movl	$0, -8(%rbp)
.LBB4_103:                              # %for.cond436
                                        #   Parent Loop BB4_101 Depth=1
                                        # =>  This Inner Loop Header: Depth=2
	movl	-8(%rbp), %eax
	movq	img, %rcx
	cmpl	52(%rcx), %eax
	jge	.LBB4_106
# %bb.104:                              # %for.body439
                                        #   in Loop: Header=BB4_103 Depth=2
	movq	imgY_org(%rip), %rax
	movslq	-4(%rbp), %rcx
	movq	(%rax,%rcx,8), %rax
	movslq	-8(%rbp), %rcx
	movzwl	(%rax,%rcx,2), %eax
	vcvtsi2sd	%eax, %xmm0, %xmm0
	vaddsd	-80(%rbp), %xmm0, %xmm0
	vmovsd	%xmm0, -80(%rbp)
# %bb.105:                              # %for.inc445
                                        #   in Loop: Header=BB4_103 Depth=2
	movl	-8(%rbp), %eax
	addl	$1, %eax
	movl	%eax, -8(%rbp)
	jmp	.LBB4_103
.LBB4_106:                              # %for.end447
                                        #   in Loop: Header=BB4_101 Depth=1
	jmp	.LBB4_107
.LBB4_107:                              # %for.inc448
                                        #   in Loop: Header=BB4_101 Depth=1
	movl	-4(%rbp), %eax
	addl	$1, %eax
	movl	%eax, -4(%rbp)
	jmp	.LBB4_101
.LBB4_108:                              # %for.end450
	movl	$0, -12(%rbp)
.LBB4_109:                              # %for.cond451
                                        # =>This Loop Header: Depth=1
                                        #     Child Loop BB4_111 Depth 2
                                        #       Child Loop BB4_113 Depth 3
                                        #       Child Loop BB4_123 Depth 3
                                        #       Child Loop BB4_133 Depth 3
                                        #         Child Loop BB4_135 Depth 4
	movl	-12(%rbp), %eax
	movl	-40(%rbp), %ecx
	addl	$2, %ecx
	cmpl	%ecx, %eax
	jge	.LBB4_150
# %bb.110:                              # %for.body455
                                        #   in Loop: Header=BB4_109 Depth=1
	movl	$0, -16(%rbp)
.LBB4_111:                              # %for.cond456
                                        #   Parent Loop BB4_109 Depth=1
                                        # =>  This Loop Header: Depth=2
                                        #       Child Loop BB4_113 Depth 3
                                        #       Child Loop BB4_123 Depth 3
                                        #       Child Loop BB4_133 Depth 3
                                        #         Child Loop BB4_135 Depth 4
	movl	-16(%rbp), %eax
	movslq	-12(%rbp), %rcx
	cmpl	listXsize(,%rcx,4), %eax
	jge	.LBB4_148
# %bb.112:                              # %for.body461
                                        #   in Loop: Header=BB4_111 Depth=2
	movslq	-12(%rbp), %rax
	imulq	$120, %rax, %rax
	leaq	-832(%rbp), %rcx
	addq	%rax, %rcx
	movslq	-16(%rbp), %rax
	vxorps	%xmm0, %xmm0, %xmm0
	vmovsd	%xmm0, (%rcx,%rax,8)
	movslq	-12(%rbp), %rax
	movq	listX(,%rax,8), %rax
	movslq	-16(%rbp), %rcx
	movq	(%rax,%rcx,8), %rax
	movq	6432(%rax), %rax
	movq	%rax, -72(%rbp)
	movslq	-12(%rbp), %rax
	movq	listX(,%rax,8), %rax
	movslq	-16(%rbp), %rcx
	movq	(%rax,%rcx,8), %rax
	movq	6440(%rax), %rax
	movq	%rax, -104(%rbp)
	movl	$0, -4(%rbp)
.LBB4_113:                              # %for.cond476
                                        #   Parent Loop BB4_109 Depth=1
                                        #     Parent Loop BB4_111 Depth=2
                                        # =>    This Inner Loop Header: Depth=3
	movl	-4(%rbp), %eax
	movq	img, %rcx
	movl	60(%rcx), %ecx
	movq	img, %rdx
	imull	52(%rdx), %ecx
	cmpl	%ecx, %eax
	jge	.LBB4_116
# %bb.114:                              # %for.body482
                                        #   in Loop: Header=BB4_113 Depth=3
	movq	-72(%rbp), %rax
	movslq	-4(%rbp), %rcx
	movzwl	(%rax,%rcx,2), %eax
	vcvtsi2sd	%eax, %xmm0, %xmm0
	movslq	-12(%rbp), %rax
	imulq	$120, %rax, %rax
	leaq	-832(%rbp), %rcx
	addq	%rax, %rcx
	movslq	-16(%rbp), %rax
	vaddsd	(%rcx,%rax,8), %xmm0, %xmm0
	vmovsd	%xmm0, (%rcx,%rax,8)
# %bb.115:                              # %for.inc491
                                        #   in Loop: Header=BB4_113 Depth=3
	movl	-4(%rbp), %eax
	addl	$1, %eax
	movl	%eax, -4(%rbp)
	jmp	.LBB4_113
.LBB4_116:                              # %for.end493
                                        #   in Loop: Header=BB4_111 Depth=2
	movslq	-12(%rbp), %rax
	imulq	$120, %rax, %rax
	leaq	-832(%rbp), %rcx
	addq	%rax, %rcx
	movslq	-16(%rbp), %rax
	vmovsd	(%rcx,%rax,8), %xmm0    # xmm0 = mem[0],zero
	vxorps	%xmm1, %xmm1, %xmm1
	vucomisd	%xmm1, %xmm0
	jne	.LBB4_117
	jp	.LBB4_117
	jmp	.LBB4_118
.LBB4_117:                              # %if.then500
                                        #   in Loop: Header=BB4_111 Depth=2
	vmovsd	.LCPI4_0(%rip), %xmm0   # xmm0 = mem[0],zero
	vcvtsi2sdl	-52(%rbp), %xmm0, %xmm1
	vmulsd	-80(%rbp), %xmm1, %xmm1
	movslq	-12(%rbp), %rax
	imulq	$120, %rax, %rax
	leaq	-832(%rbp), %rcx
	addq	%rax, %rcx
	movslq	-16(%rbp), %rax
	vdivsd	(%rcx,%rax,8), %xmm1, %xmm1
	vaddsd	%xmm0, %xmm1, %xmm0
	vcvttsd2si	%xmm0, %eax
	movl	%eax, -28(%rbp)
	jmp	.LBB4_119
.LBB4_118:                              # %if.else511
                                        #   in Loop: Header=BB4_111 Depth=2
	movl	-52(%rbp), %eax
	movl	%eax, -28(%rbp)
.LBB4_119:                              # %if.end513
                                        #   in Loop: Header=BB4_111 Depth=2
	cmpl	$-64, -28(%rbp)
	jl	.LBB4_121
# %bb.120:                              # %lor.lhs.false516
                                        #   in Loop: Header=BB4_111 Depth=2
	cmpl	$127, -28(%rbp)
	jle	.LBB4_122
.LBB4_121:                              # %if.then519
                                        #   in Loop: Header=BB4_111 Depth=2
	movl	-52(%rbp), %eax
	movl	%eax, -28(%rbp)
.LBB4_122:                              # %if.end521
                                        #   in Loop: Header=BB4_111 Depth=2
	movl	$0, -36(%rbp)
	movl	-28(%rbp), %eax
	movslq	-12(%rbp), %rcx
	imulq	$180, %rcx, %rcx
	leaq	-3008(%rbp), %rdx
	movq	%rdx, %rsi
	addq	%rcx, %rsi
	movslq	-16(%rbp), %rcx
	imulq	$12, %rcx, %rcx
	addq	%rcx, %rsi
	movl	%eax, (%rsi)
	movl	-48(%rbp), %eax
	movslq	-12(%rbp), %rcx
	imulq	$180, %rcx, %rcx
	movq	%rdx, %rsi
	addq	%rcx, %rsi
	movslq	-16(%rbp), %rcx
	imulq	$12, %rcx, %rcx
	addq	%rcx, %rsi
	movl	%eax, 4(%rsi)
	movl	-44(%rbp), %eax
	movslq	-12(%rbp), %rcx
	imulq	$180, %rcx, %rcx
	addq	%rcx, %rdx
	movslq	-16(%rbp), %rcx
	imulq	$12, %rcx, %rcx
	addq	%rcx, %rdx
	movl	%eax, 8(%rdx)
	movslq	-12(%rbp), %rax
	imulq	$180, %rax, %rax
	leaq	-1920(%rbp), %rcx
	movq	%rcx, %rdx
	addq	%rax, %rdx
	movslq	-16(%rbp), %rax
	imulq	$12, %rax, %rax
	addq	%rax, %rdx
	movl	$0, (%rdx)
	movslq	-12(%rbp), %rax
	imulq	$180, %rax, %rax
	movq	%rcx, %rdx
	addq	%rax, %rdx
	movslq	-16(%rbp), %rax
	imulq	$12, %rax, %rax
	addq	%rax, %rdx
	movl	$0, 4(%rdx)
	movslq	-12(%rbp), %rax
	imulq	$180, %rax, %rax
	addq	%rax, %rcx
	movslq	-16(%rbp), %rax
	imulq	$12, %rax, %rax
	addq	%rax, %rcx
	movl	$0, 8(%rcx)
	movl	$0, -4(%rbp)
.LBB4_123:                              # %for.cond554
                                        #   Parent Loop BB4_109 Depth=1
                                        #     Parent Loop BB4_111 Depth=2
                                        # =>    This Inner Loop Header: Depth=3
	movl	-4(%rbp), %eax
	movq	img, %rcx
	movl	60(%rcx), %ecx
	movq	img, %rdx
	imull	52(%rdx), %ecx
	cmpl	%ecx, %eax
	jge	.LBB4_132
# %bb.124:                              # %for.body560
                                        #   in Loop: Header=BB4_123 Depth=3
	movq	-72(%rbp), %rax
	movslq	-4(%rbp), %rcx
	movzwl	(%rax,%rcx,2), %eax
	imull	-28(%rbp), %eax
	addl	wp_luma_round, %eax
	movl	luma_log_weight_denom, %ecx
                                        # kill: def $cl killed $ecx
	sarl	%cl, %eax
	addl	-36(%rbp), %eax
	cmpl	$0, %eax
	jge	.LBB4_126
# %bb.125:                              # %cond.true570
                                        #   in Loop: Header=BB4_123 Depth=3
	xorl	%eax, %eax
	jmp	.LBB4_130
.LBB4_126:                              # %cond.false571
                                        #   in Loop: Header=BB4_123 Depth=3
	movq	-72(%rbp), %rax
	movslq	-4(%rbp), %rcx
	movzwl	(%rax,%rcx,2), %eax
	imull	-28(%rbp), %eax
	addl	wp_luma_round, %eax
	movl	luma_log_weight_denom, %ecx
                                        # kill: def $cl killed $ecx
	sarl	%cl, %eax
	addl	-36(%rbp), %eax
	movq	img, %rcx
	cmpl	72684(%rcx), %eax
	jle	.LBB4_128
# %bb.127:                              # %cond.true581
                                        #   in Loop: Header=BB4_123 Depth=3
	movq	img, %rax
	movl	72684(%rax), %eax
	jmp	.LBB4_129
.LBB4_128:                              # %cond.false583
                                        #   in Loop: Header=BB4_123 Depth=3
	movq	-72(%rbp), %rax
	movslq	-4(%rbp), %rcx
	movzwl	(%rax,%rcx,2), %eax
	imull	-28(%rbp), %eax
	addl	wp_luma_round, %eax
	movl	luma_log_weight_denom, %ecx
                                        # kill: def $cl killed $ecx
	sarl	%cl, %eax
	addl	-36(%rbp), %eax
.LBB4_129:                              # %cond.end591
                                        #   in Loop: Header=BB4_123 Depth=3
.LBB4_130:                              # %cond.end593
                                        #   in Loop: Header=BB4_123 Depth=3
	movq	-104(%rbp), %rcx
	movslq	-4(%rbp), %rdx
	movw	%ax, (%rcx,%rdx,2)
# %bb.131:                              # %for.inc598
                                        #   in Loop: Header=BB4_123 Depth=3
	movl	-4(%rbp), %eax
	addl	$1, %eax
	movl	%eax, -4(%rbp)
	jmp	.LBB4_123
.LBB4_132:                              # %for.end600
                                        #   in Loop: Header=BB4_111 Depth=2
	movl	$0, -4(%rbp)
.LBB4_133:                              # %for.cond601
                                        #   Parent Loop BB4_109 Depth=1
                                        #     Parent Loop BB4_111 Depth=2
                                        # =>    This Loop Header: Depth=3
                                        #         Child Loop BB4_135 Depth 4
	movl	-4(%rbp), %eax
	movq	img, %rcx
	movl	60(%rcx), %ecx
	addl	$8, %ecx
	shll	$2, %ecx
	cmpl	%ecx, %eax
	jge	.LBB4_146
# %bb.134:                              # %for.body607
                                        #   in Loop: Header=BB4_133 Depth=3
	movl	$0, -8(%rbp)
.LBB4_135:                              # %for.cond608
                                        #   Parent Loop BB4_109 Depth=1
                                        #     Parent Loop BB4_111 Depth=2
                                        #       Parent Loop BB4_133 Depth=3
                                        # =>      This Inner Loop Header: Depth=4
	movl	-8(%rbp), %eax
	movq	img, %rcx
	movl	52(%rcx), %ecx
	addl	$8, %ecx
	shll	$2, %ecx
	cmpl	%ecx, %eax
	jge	.LBB4_144
# %bb.136:                              # %for.body614
                                        #   in Loop: Header=BB4_135 Depth=4
	movq	listX, %rax
	movslq	-16(%rbp), %rcx
	movq	(%rax,%rcx,8), %rax
	movq	6448(%rax), %rax
	movslq	-4(%rbp), %rcx
	movq	(%rax,%rcx,8), %rax
	movslq	-8(%rbp), %rcx
	movzwl	(%rax,%rcx,2), %eax
	imull	-28(%rbp), %eax
	addl	wp_luma_round, %eax
	movl	luma_log_weight_denom, %ecx
                                        # kill: def $cl killed $ecx
	sarl	%cl, %eax
	addl	-36(%rbp), %eax
	cmpl	$0, %eax
	jge	.LBB4_138
# %bb.137:                              # %cond.true629
                                        #   in Loop: Header=BB4_135 Depth=4
	xorl	%eax, %eax
	jmp	.LBB4_142
.LBB4_138:                              # %cond.false630
                                        #   in Loop: Header=BB4_135 Depth=4
	movq	listX, %rax
	movslq	-16(%rbp), %rcx
	movq	(%rax,%rcx,8), %rax
	movq	6448(%rax), %rax
	movslq	-4(%rbp), %rcx
	movq	(%rax,%rcx,8), %rax
	movslq	-8(%rbp), %rcx
	movzwl	(%rax,%rcx,2), %eax
	imull	-28(%rbp), %eax
	addl	wp_luma_round, %eax
	movl	luma_log_weight_denom, %ecx
                                        # kill: def $cl killed $ecx
	sarl	%cl, %eax
	addl	-36(%rbp), %eax
	movq	img, %rcx
	cmpl	72684(%rcx), %eax
	jle	.LBB4_140
# %bb.139:                              # %cond.true646
                                        #   in Loop: Header=BB4_135 Depth=4
	movq	img, %rax
	movl	72684(%rax), %eax
	jmp	.LBB4_141
.LBB4_140:                              # %cond.false648
                                        #   in Loop: Header=BB4_135 Depth=4
	movq	listX, %rax
	movslq	-16(%rbp), %rcx
	movq	(%rax,%rcx,8), %rax
	movq	6448(%rax), %rax
	movslq	-4(%rbp), %rcx
	movq	(%rax,%rcx,8), %rax
	movslq	-8(%rbp), %rcx
	movzwl	(%rax,%rcx,2), %eax
	imull	-28(%rbp), %eax
	addl	wp_luma_round, %eax
	movl	luma_log_weight_denom, %ecx
                                        # kill: def $cl killed $ecx
	sarl	%cl, %eax
	addl	-36(%rbp), %eax
.LBB4_141:                              # %cond.end661
                                        #   in Loop: Header=BB4_135 Depth=4
.LBB4_142:                              # %cond.end663
                                        #   in Loop: Header=BB4_135 Depth=4
	movq	listX, %rcx
	movslq	-16(%rbp), %rdx
	movq	(%rcx,%rdx,8), %rcx
	movq	6456(%rcx), %rcx
	movslq	-4(%rbp), %rdx
	movq	(%rcx,%rdx,8), %rcx
	movslq	-8(%rbp), %rdx
	movw	%ax, (%rcx,%rdx,2)
# %bb.143:                              # %for.inc673
                                        #   in Loop: Header=BB4_135 Depth=4
	movl	-8(%rbp), %eax
	addl	$1, %eax
	movl	%eax, -8(%rbp)
	jmp	.LBB4_135
.LBB4_144:                              # %for.end675
                                        #   in Loop: Header=BB4_133 Depth=3
	jmp	.LBB4_145
.LBB4_145:                              # %for.inc676
                                        #   in Loop: Header=BB4_133 Depth=3
	movl	-4(%rbp), %eax
	addl	$1, %eax
	movl	%eax, -4(%rbp)
	jmp	.LBB4_133
.LBB4_146:                              # %for.end678
                                        #   in Loop: Header=BB4_111 Depth=2
	jmp	.LBB4_147
.LBB4_147:                              # %for.inc679
                                        #   in Loop: Header=BB4_111 Depth=2
	movl	-16(%rbp), %eax
	addl	$1, %eax
	movl	%eax, -16(%rbp)
	jmp	.LBB4_111
.LBB4_148:                              # %for.end681
                                        #   in Loop: Header=BB4_109 Depth=1
	jmp	.LBB4_149
.LBB4_149:                              # %for.inc682
                                        #   in Loop: Header=BB4_109 Depth=1
	movl	-12(%rbp), %eax
	addl	$1, %eax
	movl	%eax, -12(%rbp)
	jmp	.LBB4_109
.LBB4_150:                              # %for.end684
	movq	active_pps, %rax
	cmpl	$1, 196(%rax)
	jne	.LBB4_164
# %bb.151:                              # %if.then688
	movl	$0, -12(%rbp)
.LBB4_152:                              # %for.cond689
                                        # =>This Loop Header: Depth=1
                                        #     Child Loop BB4_154 Depth 2
                                        #       Child Loop BB4_156 Depth 3
	movl	-12(%rbp), %eax
	movl	-40(%rbp), %ecx
	addl	$2, %ecx
	cmpl	%ecx, %eax
	jge	.LBB4_163
# %bb.153:                              # %for.body693
                                        #   in Loop: Header=BB4_152 Depth=1
	movl	$0, -24(%rbp)
.LBB4_154:                              # %for.cond694
                                        #   Parent Loop BB4_152 Depth=1
                                        # =>  This Loop Header: Depth=2
                                        #       Child Loop BB4_156 Depth 3
	movl	-24(%rbp), %eax
	movslq	-12(%rbp), %rcx
	cmpl	listXsize(,%rcx,4), %eax
	jge	.LBB4_161
# %bb.155:                              # %for.body699
                                        #   in Loop: Header=BB4_154 Depth=2
	movl	$0, -20(%rbp)
.LBB4_156:                              # %for.cond700
                                        #   Parent Loop BB4_152 Depth=1
                                        #     Parent Loop BB4_154 Depth=2
                                        # =>    This Inner Loop Header: Depth=3
	cmpl	$3, -20(%rbp)
	jge	.LBB4_159
# %bb.157:                              # %for.body703
                                        #   in Loop: Header=BB4_156 Depth=3
	movslq	-12(%rbp), %rax
	imulq	$180, %rax, %rax
	leaq	-3008(%rbp), %rcx
	addq	%rax, %rcx
	movslq	-24(%rbp), %rax
	imulq	$12, %rax, %rax
	addq	%rax, %rcx
	movslq	-20(%rbp), %rax
	movl	(%rcx,%rax,4), %eax
	movq	wp_weight, %rcx
	movslq	-12(%rbp), %rdx
	movq	(%rcx,%rdx,8), %rcx
	movslq	-24(%rbp), %rdx
	movq	(%rcx,%rdx,8), %rcx
	movslq	-20(%rbp), %rdx
	movl	%eax, (%rcx,%rdx,4)
	movslq	-12(%rbp), %rax
	imulq	$180, %rax, %rax
	leaq	-1920(%rbp), %rcx
	addq	%rax, %rcx
	movslq	-24(%rbp), %rax
	imulq	$12, %rax, %rax
	addq	%rax, %rcx
	movslq	-20(%rbp), %rax
	movl	(%rcx,%rax,4), %eax
	movq	wp_offset, %rcx
	movslq	-12(%rbp), %rdx
	movq	(%rcx,%rdx,8), %rcx
	movslq	-24(%rbp), %rdx
	movq	(%rcx,%rdx,8), %rcx
	movslq	-20(%rbp), %rdx
	movl	%eax, (%rcx,%rdx,4)
# %bb.158:                              # %for.inc728
                                        #   in Loop: Header=BB4_156 Depth=3
	movl	-20(%rbp), %eax
	addl	$1, %eax
	movl	%eax, -20(%rbp)
	jmp	.LBB4_156
.LBB4_159:                              # %for.end730
                                        #   in Loop: Header=BB4_154 Depth=2
	jmp	.LBB4_160
.LBB4_160:                              # %for.inc731
                                        #   in Loop: Header=BB4_154 Depth=2
	movl	-24(%rbp), %eax
	addl	$1, %eax
	movl	%eax, -24(%rbp)
	jmp	.LBB4_154
.LBB4_161:                              # %for.end733
                                        #   in Loop: Header=BB4_152 Depth=1
	jmp	.LBB4_162
.LBB4_162:                              # %for.inc734
                                        #   in Loop: Header=BB4_152 Depth=1
	movl	-12(%rbp), %eax
	addl	$1, %eax
	movl	%eax, -12(%rbp)
	jmp	.LBB4_152
.LBB4_163:                              # %for.end736
	jmp	.LBB4_173
.LBB4_164:                              # %if.else737
	movl	$0, -12(%rbp)
.LBB4_165:                              # %for.cond738
                                        # =>This Loop Header: Depth=1
                                        #     Child Loop BB4_167 Depth 2
	movl	-12(%rbp), %eax
	movl	-40(%rbp), %ecx
	addl	$2, %ecx
	cmpl	%ecx, %eax
	jge	.LBB4_172
# %bb.166:                              # %for.body742
                                        #   in Loop: Header=BB4_165 Depth=1
	movl	$0, -24(%rbp)
.LBB4_167:                              # %for.cond743
                                        #   Parent Loop BB4_165 Depth=1
                                        # =>  This Inner Loop Header: Depth=2
	movl	-24(%rbp), %eax
	movslq	-12(%rbp), %rcx
	cmpl	listXsize(,%rcx,4), %eax
	jge	.LBB4_170
# %bb.168:                              # %for.body748
                                        #   in Loop: Header=BB4_167 Depth=2
	movl	luma_log_weight_denom, %ecx
                                        # kill: def $cl killed $ecx
	movl	$1, %eax
	movl	$1, %edx
	shll	%cl, %edx
	movq	wp_weight, %rcx
	movslq	-12(%rbp), %rsi
	movq	(%rcx,%rsi,8), %rcx
	movslq	-24(%rbp), %rsi
	movq	(%rcx,%rsi,8), %rcx
	movl	%edx, (%rcx)
	movl	chroma_log_weight_denom, %ecx
                                        # kill: def $cl killed $ecx
	movl	$1, %edx
	shll	%cl, %edx
	movq	wp_weight, %rcx
	movslq	-12(%rbp), %rsi
	movq	(%rcx,%rsi,8), %rcx
	movslq	-24(%rbp), %rsi
	movq	(%rcx,%rsi,8), %rcx
	movl	%edx, 4(%rcx)
	movl	chroma_log_weight_denom, %ecx
                                        # kill: def $cl killed $ecx
	shll	%cl, %eax
	movq	wp_weight, %rcx
	movslq	-12(%rbp), %rdx
	movq	(%rcx,%rdx,8), %rcx
	movslq	-24(%rbp), %rdx
	movq	(%rcx,%rdx,8), %rcx
	movl	%eax, 8(%rcx)
	movq	wp_offset, %rax
	movslq	-12(%rbp), %rcx
	movq	(%rax,%rcx,8), %rax
	movslq	-24(%rbp), %rcx
	movq	(%rax,%rcx,8), %rax
	movl	$0, (%rax)
	movq	wp_offset, %rax
	movslq	-12(%rbp), %rcx
	movq	(%rax,%rcx,8), %rax
	movslq	-24(%rbp), %rcx
	movq	(%rax,%rcx,8), %rax
	movl	$0, 4(%rax)
	movq	wp_offset, %rax
	movslq	-12(%rbp), %rcx
	movq	(%rax,%rcx,8), %rax
	movslq	-24(%rbp), %rcx
	movq	(%rax,%rcx,8), %rax
	movl	$0, 8(%rax)
# %bb.169:                              # %for.inc782
                                        #   in Loop: Header=BB4_167 Depth=2
	movl	-24(%rbp), %eax
	addl	$1, %eax
	movl	%eax, -24(%rbp)
	jmp	.LBB4_167
.LBB4_170:                              # %for.end784
                                        #   in Loop: Header=BB4_165 Depth=1
	jmp	.LBB4_171
.LBB4_171:                              # %for.inc785
                                        #   in Loop: Header=BB4_165 Depth=1
	movl	-12(%rbp), %eax
	addl	$1, %eax
	movl	%eax, -12(%rbp)
	jmp	.LBB4_165
.LBB4_172:                              # %for.end787
	jmp	.LBB4_173
.LBB4_173:                              # %if.end788
	movl	$0, -4(%rbp)
.LBB4_174:                              # %for.cond789
                                        # =>This Loop Header: Depth=1
                                        #     Child Loop BB4_176 Depth 2
                                        #       Child Loop BB4_178 Depth 3
	movl	-4(%rbp), %eax
	cmpl	listXsize, %eax
	jge	.LBB4_188
# %bb.175:                              # %for.body792
                                        #   in Loop: Header=BB4_174 Depth=1
	movl	$0, -8(%rbp)
.LBB4_176:                              # %for.cond793
                                        #   Parent Loop BB4_174 Depth=1
                                        # =>  This Loop Header: Depth=2
                                        #       Child Loop BB4_178 Depth 3
	movl	-8(%rbp), %eax
	cmpl	listXsize+4, %eax
	jge	.LBB4_186
# %bb.177:                              # %for.body796
                                        #   in Loop: Header=BB4_176 Depth=2
	movl	$0, -20(%rbp)
.LBB4_178:                              # %for.cond797
                                        #   Parent Loop BB4_174 Depth=1
                                        #     Parent Loop BB4_176 Depth=2
                                        # =>    This Inner Loop Header: Depth=3
	cmpl	$3, -20(%rbp)
	jge	.LBB4_184
# %bb.179:                              # %for.body800
                                        #   in Loop: Header=BB4_178 Depth=3
	cmpl	$0, -20(%rbp)
	jne	.LBB4_181
# %bb.180:                              # %cond.true803
                                        #   in Loop: Header=BB4_178 Depth=3
	movl	luma_log_weight_denom, %eax
	jmp	.LBB4_182
.LBB4_181:                              # %cond.false804
                                        #   in Loop: Header=BB4_178 Depth=3
	movl	chroma_log_weight_denom, %eax
.LBB4_182:                              # %cond.end805
                                        #   in Loop: Header=BB4_178 Depth=3
	movl	%eax, -84(%rbp)
	movq	wp_weight, %rax
	movq	(%rax), %rax
	movslq	-4(%rbp), %rcx
	movq	(%rax,%rcx,8), %rax
	movslq	-20(%rbp), %rcx
	movl	(%rax,%rcx,4), %eax
	movq	wbp_weight, %rcx
	movq	(%rcx), %rcx
	movslq	-4(%rbp), %rdx
	movq	(%rcx,%rdx,8), %rcx
	movslq	-8(%rbp), %rdx
	movq	(%rcx,%rdx,8), %rcx
	movslq	-20(%rbp), %rdx
	movl	%eax, (%rcx,%rdx,4)
	movq	wp_weight, %rax
	movq	8(%rax), %rax
	movslq	-8(%rbp), %rcx
	movq	(%rax,%rcx,8), %rax
	movslq	-20(%rbp), %rcx
	movl	(%rax,%rcx,4), %eax
	movq	wbp_weight, %rcx
	movq	8(%rcx), %rcx
	movslq	-4(%rbp), %rdx
	movq	(%rcx,%rdx,8), %rcx
	movslq	-8(%rbp), %rdx
	movq	(%rcx,%rdx,8), %rcx
	movslq	-20(%rbp), %rdx
	movl	%eax, (%rcx,%rdx,4)
# %bb.183:                              # %for.inc831
                                        #   in Loop: Header=BB4_178 Depth=3
	movl	-20(%rbp), %eax
	addl	$1, %eax
	movl	%eax, -20(%rbp)
	jmp	.LBB4_178
.LBB4_184:                              # %for.end833
                                        #   in Loop: Header=BB4_176 Depth=2
	jmp	.LBB4_185
.LBB4_185:                              # %for.inc834
                                        #   in Loop: Header=BB4_176 Depth=2
	movl	-8(%rbp), %eax
	addl	$1, %eax
	movl	%eax, -8(%rbp)
	jmp	.LBB4_176
.LBB4_186:                              # %for.end836
                                        #   in Loop: Header=BB4_174 Depth=1
	jmp	.LBB4_187
.LBB4_187:                              # %for.inc837
                                        #   in Loop: Header=BB4_174 Depth=1
	movl	-4(%rbp), %eax
	addl	$1, %eax
	movl	%eax, -4(%rbp)
	jmp	.LBB4_174
.LBB4_188:                              # %for.end839
	jmp	.LBB4_189
.LBB4_189:                              # %if.end840
	cmpl	$1635147423, -92(%rbp)  # imm = 0x61765E9F
	jne	.LBB4_191
.LBB4_190:
	addq	$35424, %rsp            # imm = 0x8A60
	popq	%rbp
	.cfi_def_cfa %rsp, 8
	retq
.LBB4_191:                              # %func_exit
	.cfi_def_cfa %rbp, 16
	callq	detect_breach
	jmp	.LBB4_190
.Lfunc_end4:
	.size	estimate_weighting_factor_B_slice.1, .Lfunc_end4-estimate_weighting_factor_B_slice.1
	.cfi_endproc
                                        # -- End function
	.section	.rodata.cst8,"aM",@progbits,8
	.p2align	3               # -- Begin function estimate_weighting_factor_P_slice.2
.LCPI5_0:
	.quad	4602678819172646912     # double 0.5
	.text
	.globl	estimate_weighting_factor_P_slice.2
	.p2align	4, 0x90
	.type	estimate_weighting_factor_P_slice.2,@function
estimate_weighting_factor_P_slice.2:    # @estimate_weighting_factor_P_slice.2
	.cfi_startproc
# %bb.0:                                # %entry
	pushq	%rbp
	.cfi_def_cfa_offset 16
	.cfi_offset %rbp, -16
	movq	%rsp, %rbp
	.cfi_def_cfa_register %rbp
	subq	$928, %rsp              # imm = 0x3A0
	movl	$1496503710, -60(%rbp)  # imm = 0x5932D59E
	movl	%edi, -64(%rbp)
	vxorps	%xmm0, %xmm0, %xmm0
	vmovsd	%xmm0, -56(%rbp)
	movq	img, %rax
	cmpl	$0, 72400(%rax)
	je	.LBB5_3
# %bb.1:                                # %land.lhs.true
	movq	img, %rax
	movq	14168(%rax), %rax
	movq	img, %rcx
	movslq	12(%rcx), %rcx
	imulq	$632, %rcx, %rcx        # imm = 0x278
	addq	%rcx, %rax
	cmpl	$0, 532(%rax)
	je	.LBB5_3
# %bb.2:                                # %cond.true
	movq	img, %rax
	movl	12(%rax), %eax
	cltd
	movl	$2, %ecx
	idivl	%ecx
	cmpl	$0, %edx
	movl	$4, %eax
	cmovnel	%eax, %ecx
	jmp	.LBB5_4
.LBB5_3:                                # %cond.false
	xorl	%ecx, %ecx
	jmp	.LBB5_4
.LBB5_4:                                # %cond.end
	movl	%ecx, -28(%rbp)
	movl	$5, luma_log_weight_denom
	movl	$5, chroma_log_weight_denom
	movl	luma_log_weight_denom, %ecx
	subl	$1, %ecx
                                        # kill: def $cl killed $ecx
	movl	$1, %eax
	movl	$1, %edx
	shll	%cl, %edx
	movl	%edx, wp_luma_round
	movl	chroma_log_weight_denom, %ecx
	subl	$1, %ecx
                                        # kill: def $cl killed $ecx
	movl	$1, %edx
	shll	%cl, %edx
	movl	%edx, wp_chroma_round
	movl	luma_log_weight_denom, %ecx
                                        # kill: def $cl killed $ecx
	movl	$1, %edx
	shll	%cl, %edx
	movl	%edx, -40(%rbp)
	movl	chroma_log_weight_denom, %ecx
                                        # kill: def $cl killed $ecx
	shll	%cl, %eax
	movl	%eax, -32(%rbp)
	movl	%eax, -36(%rbp)
	movl	$0, -12(%rbp)
.LBB5_5:                                # %for.cond
                                        # =>This Loop Header: Depth=1
                                        #     Child Loop BB5_7 Depth 2
                                        #       Child Loop BB5_9 Depth 3
	movl	-12(%rbp), %eax
	movl	-28(%rbp), %ecx
	addl	$2, %ecx
	cmpl	%ecx, %eax
	jge	.LBB5_16
# %bb.6:                                # %for.body
                                        #   in Loop: Header=BB5_5 Depth=1
	movl	$0, -16(%rbp)
.LBB5_7:                                # %for.cond12
                                        #   Parent Loop BB5_5 Depth=1
                                        # =>  This Loop Header: Depth=2
                                        #       Child Loop BB5_9 Depth 3
	movl	-16(%rbp), %eax
	movslq	-12(%rbp), %rcx
	cmpl	listXsize(,%rcx,4), %eax
	jge	.LBB5_14
# %bb.8:                                # %for.body16
                                        #   in Loop: Header=BB5_7 Depth=2
	movl	$0, -4(%rbp)
.LBB5_9:                                # %for.cond17
                                        #   Parent Loop BB5_5 Depth=1
                                        #     Parent Loop BB5_7 Depth=2
                                        # =>    This Inner Loop Header: Depth=3
	cmpl	$3, -4(%rbp)
	jge	.LBB5_12
# %bb.10:                               # %for.body19
                                        #   in Loop: Header=BB5_9 Depth=3
	movslq	-4(%rbp), %rax
	movl	-40(%rbp,%rax,4), %eax
	movslq	-12(%rbp), %rcx
	imulq	$180, %rcx, %rcx
	leaq	-560(%rbp), %rdx
	addq	%rcx, %rdx
	movslq	-16(%rbp), %rcx
	imulq	$12, %rcx, %rcx
	addq	%rcx, %rdx
	movslq	-4(%rbp), %rcx
	movl	%eax, (%rdx,%rcx,4)
	movslq	-4(%rbp), %rax
	movl	-40(%rbp,%rax,4), %eax
	movq	wp_weight, %rcx
	movslq	-12(%rbp), %rdx
	movq	(%rcx,%rdx,8), %rcx
	movslq	-16(%rbp), %rdx
	movq	(%rcx,%rdx,8), %rcx
	movslq	-4(%rbp), %rdx
	movl	%eax, (%rcx,%rdx,4)
	movq	wp_offset, %rax
	movslq	-12(%rbp), %rcx
	movq	(%rax,%rcx,8), %rax
	movslq	-16(%rbp), %rcx
	movq	(%rax,%rcx,8), %rax
	movslq	-4(%rbp), %rcx
	movl	$0, (%rax,%rcx,4)
	movslq	-12(%rbp), %rax
	imulq	$180, %rax, %rax
	leaq	-928(%rbp), %rcx
	addq	%rax, %rcx
	movslq	-16(%rbp), %rax
	imulq	$12, %rax, %rax
	addq	%rax, %rcx
	movslq	-4(%rbp), %rax
	movl	$0, (%rcx,%rax,4)
# %bb.11:                               # %for.inc
                                        #   in Loop: Header=BB5_9 Depth=3
	movl	-4(%rbp), %eax
	addl	$1, %eax
	movl	%eax, -4(%rbp)
	jmp	.LBB5_9
.LBB5_12:                               # %for.end
                                        #   in Loop: Header=BB5_7 Depth=2
	jmp	.LBB5_13
.LBB5_13:                               # %for.inc48
                                        #   in Loop: Header=BB5_7 Depth=2
	movl	-16(%rbp), %eax
	addl	$1, %eax
	movl	%eax, -16(%rbp)
	jmp	.LBB5_7
.LBB5_14:                               # %for.end50
                                        #   in Loop: Header=BB5_5 Depth=1
	jmp	.LBB5_15
.LBB5_15:                               # %for.inc51
                                        #   in Loop: Header=BB5_5 Depth=1
	movl	-12(%rbp), %eax
	addl	$1, %eax
	movl	%eax, -12(%rbp)
	jmp	.LBB5_5
.LBB5_16:                               # %for.end53
	movl	$0, -12(%rbp)
.LBB5_17:                               # %for.cond54
                                        # =>This Loop Header: Depth=1
                                        #     Child Loop BB5_19 Depth 2
	movl	-12(%rbp), %eax
	movq	img, %rcx
	cmpl	60(%rcx), %eax
	jge	.LBB5_24
# %bb.18:                               # %for.body56
                                        #   in Loop: Header=BB5_17 Depth=1
	movl	$0, -16(%rbp)
.LBB5_19:                               # %for.cond57
                                        #   Parent Loop BB5_17 Depth=1
                                        # =>  This Inner Loop Header: Depth=2
	movl	-16(%rbp), %eax
	movq	img, %rcx
	cmpl	52(%rcx), %eax
	jge	.LBB5_22
# %bb.20:                               # %for.body59
                                        #   in Loop: Header=BB5_19 Depth=2
	movq	imgY_org(%rip), %rax
	movslq	-12(%rbp), %rcx
	movq	(%rax,%rcx,8), %rax
	movslq	-16(%rbp), %rcx
	movzwl	(%rax,%rcx,2), %eax
	vcvtsi2sd	%eax, %xmm0, %xmm0
	vaddsd	-56(%rbp), %xmm0, %xmm0
	vmovsd	%xmm0, -56(%rbp)
# %bb.21:                               # %for.inc65
                                        #   in Loop: Header=BB5_19 Depth=2
	movl	-16(%rbp), %eax
	addl	$1, %eax
	movl	%eax, -16(%rbp)
	jmp	.LBB5_19
.LBB5_22:                               # %for.end67
                                        #   in Loop: Header=BB5_17 Depth=1
	jmp	.LBB5_23
.LBB5_23:                               # %for.inc68
                                        #   in Loop: Header=BB5_17 Depth=1
	movl	-12(%rbp), %eax
	addl	$1, %eax
	movl	%eax, -12(%rbp)
	jmp	.LBB5_17
.LBB5_24:                               # %for.end70
	movl	$0, -8(%rbp)
.LBB5_25:                               # %for.cond71
                                        # =>This Loop Header: Depth=1
                                        #     Child Loop BB5_27 Depth 2
                                        #       Child Loop BB5_29 Depth 3
                                        #       Child Loop BB5_48 Depth 3
                                        #       Child Loop BB5_58 Depth 3
                                        #         Child Loop BB5_60 Depth 4
	movl	-8(%rbp), %eax
	movl	-28(%rbp), %ecx
	addl	$2, %ecx
	cmpl	%ecx, %eax
	jge	.LBB5_75
# %bb.26:                               # %for.body75
                                        #   in Loop: Header=BB5_25 Depth=1
	movl	$0, -4(%rbp)
.LBB5_27:                               # %for.cond76
                                        #   Parent Loop BB5_25 Depth=1
                                        # =>  This Loop Header: Depth=2
                                        #       Child Loop BB5_29 Depth 3
                                        #       Child Loop BB5_48 Depth 3
                                        #       Child Loop BB5_58 Depth 3
                                        #         Child Loop BB5_60 Depth 4
	movl	-4(%rbp), %eax
	movslq	-8(%rbp), %rcx
	cmpl	listXsize(,%rcx,4), %eax
	jge	.LBB5_73
# %bb.28:                               # %for.body81
                                        #   in Loop: Header=BB5_27 Depth=2
	movslq	-4(%rbp), %rax
	vxorps	%xmm0, %xmm0, %xmm0
	vmovsd	%xmm0, -192(%rbp,%rax,8)
	movslq	-8(%rbp), %rax
	movq	listX(,%rax,8), %rax
	movslq	-4(%rbp), %rcx
	movq	(%rax,%rcx,8), %rax
	movq	6432(%rax), %rax
	movq	%rax, -48(%rbp)
	movslq	-8(%rbp), %rax
	movq	listX(,%rax,8), %rax
	movslq	-4(%rbp), %rcx
	movq	(%rax,%rcx,8), %rax
	movq	6440(%rax), %rax
	movq	%rax, -72(%rbp)
	movl	$0, -12(%rbp)
.LBB5_29:                               # %for.cond92
                                        #   Parent Loop BB5_25 Depth=1
                                        #     Parent Loop BB5_27 Depth=2
                                        # =>    This Inner Loop Header: Depth=3
	movl	-12(%rbp), %eax
	movq	img, %rcx
	movl	60(%rcx), %ecx
	movq	img, %rdx
	imull	52(%rdx), %ecx
	cmpl	%ecx, %eax
	jge	.LBB5_32
# %bb.30:                               # %for.body97
                                        #   in Loop: Header=BB5_29 Depth=3
	movq	-48(%rbp), %rax
	movslq	-12(%rbp), %rcx
	movzwl	(%rax,%rcx,2), %eax
	vcvtsi2sd	%eax, %xmm0, %xmm0
	movslq	-4(%rbp), %rax
	vaddsd	-192(%rbp,%rax,8), %xmm0, %xmm0
	vmovsd	%xmm0, -192(%rbp,%rax,8)
# %bb.31:                               # %for.inc104
                                        #   in Loop: Header=BB5_29 Depth=3
	movl	-12(%rbp), %eax
	addl	$1, %eax
	movl	%eax, -12(%rbp)
	jmp	.LBB5_29
.LBB5_32:                               # %for.end106
                                        #   in Loop: Header=BB5_27 Depth=2
	vcvtsi2sdl	-64(%rbp), %xmm0, %xmm0
	vxorps	%xmm1, %xmm1, %xmm1
	vucomisd	%xmm1, %xmm0
	jne	.LBB5_40
	jp	.LBB5_40
# %bb.33:                               # %if.then
                                        #   in Loop: Header=BB5_27 Depth=2
	movslq	-4(%rbp), %rax
	vmovsd	-192(%rbp,%rax,8), %xmm0 # xmm0 = mem[0],zero
	vxorps	%xmm1, %xmm1, %xmm1
	vucomisd	%xmm1, %xmm0
	jne	.LBB5_34
	jp	.LBB5_34
	jmp	.LBB5_35
.LBB5_34:                               # %if.then114
                                        #   in Loop: Header=BB5_27 Depth=2
	vmovsd	.LCPI5_0(%rip), %xmm0   # xmm0 = mem[0],zero
	vcvtsi2sdl	-40(%rbp), %xmm0, %xmm1
	vmulsd	-56(%rbp), %xmm1, %xmm1
	movslq	-4(%rbp), %rax
	vdivsd	-192(%rbp,%rax,8), %xmm1, %xmm1
	vaddsd	%xmm0, %xmm1, %xmm0
	vcvttsd2si	%xmm0, %eax
	movslq	-8(%rbp), %rcx
	imulq	$180, %rcx, %rcx
	leaq	-560(%rbp), %rdx
	addq	%rcx, %rdx
	movslq	-4(%rbp), %rcx
	imulq	$12, %rcx, %rcx
	addq	%rcx, %rdx
	movl	%eax, (%rdx)
	jmp	.LBB5_36
.LBB5_35:                               # %if.else
                                        #   in Loop: Header=BB5_27 Depth=2
	movl	-40(%rbp), %eax
	movslq	-8(%rbp), %rcx
	imulq	$180, %rcx, %rcx
	leaq	-560(%rbp), %rdx
	addq	%rcx, %rdx
	movslq	-4(%rbp), %rcx
	imulq	$12, %rcx, %rcx
	addq	%rcx, %rdx
	movl	%eax, (%rdx)
.LBB5_36:                               # %if.end
                                        #   in Loop: Header=BB5_27 Depth=2
	movslq	-8(%rbp), %rax
	imulq	$180, %rax, %rax
	leaq	-560(%rbp), %rcx
	addq	%rax, %rcx
	movslq	-4(%rbp), %rax
	imulq	$12, %rax, %rax
	addq	%rax, %rcx
	cmpl	$-64, (%rcx)
	jl	.LBB5_38
# %bb.37:                               # %lor.lhs.false
                                        #   in Loop: Header=BB5_27 Depth=2
	movslq	-8(%rbp), %rax
	imulq	$180, %rax, %rax
	leaq	-560(%rbp), %rcx
	addq	%rax, %rcx
	movslq	-4(%rbp), %rax
	imulq	$12, %rax, %rax
	addq	%rax, %rcx
	cmpl	$127, (%rcx)
	jle	.LBB5_39
.LBB5_38:                               # %if.then147
                                        #   in Loop: Header=BB5_27 Depth=2
	movl	-40(%rbp), %eax
	movslq	-8(%rbp), %rcx
	imulq	$180, %rcx, %rcx
	leaq	-560(%rbp), %rdx
	addq	%rcx, %rdx
	movslq	-4(%rbp), %rcx
	imulq	$12, %rcx, %rcx
	addq	%rcx, %rdx
	movl	%eax, (%rdx)
.LBB5_39:                               # %if.end154
                                        #   in Loop: Header=BB5_27 Depth=2
	jmp	.LBB5_47
.LBB5_40:                               # %if.else155
                                        #   in Loop: Header=BB5_27 Depth=2
	vmovsd	.LCPI5_0(%rip), %xmm0   # xmm0 = mem[0],zero
	vmovsd	-56(%rbp), %xmm1        # xmm1 = mem[0],zero
	movslq	-4(%rbp), %rax
	vsubsd	-192(%rbp,%rax,8), %xmm1, %xmm1
	movq	img, %rax
	movl	60(%rax), %eax
	movq	img, %rcx
	imull	52(%rcx), %eax
	vcvtsi2sd	%eax, %xmm0, %xmm2
	vdivsd	%xmm2, %xmm1, %xmm1
	vaddsd	%xmm0, %xmm1, %xmm0
	vcvttsd2si	%xmm0, %eax
	movslq	-8(%rbp), %rcx
	imulq	$180, %rcx, %rcx
	leaq	-928(%rbp), %rdx
	movq	%rdx, %rsi
	addq	%rcx, %rsi
	movslq	-4(%rbp), %rcx
	imulq	$12, %rcx, %rcx
	addq	%rcx, %rsi
	movl	%eax, (%rsi)
	movslq	-8(%rbp), %rax
	imulq	$180, %rax, %rax
	addq	%rax, %rdx
	movslq	-4(%rbp), %rax
	imulq	$12, %rax, %rax
	addq	%rax, %rdx
	cmpl	$-128, (%rdx)
	jge	.LBB5_42
# %bb.41:                               # %cond.true178
                                        #   in Loop: Header=BB5_27 Depth=2
	movl	$4294967168, %eax       # imm = 0xFFFFFF80
	jmp	.LBB5_46
.LBB5_42:                               # %cond.false179
                                        #   in Loop: Header=BB5_27 Depth=2
	movslq	-8(%rbp), %rax
	imulq	$180, %rax, %rax
	leaq	-928(%rbp), %rcx
	addq	%rax, %rcx
	movslq	-4(%rbp), %rax
	imulq	$12, %rax, %rax
	addq	%rax, %rcx
	cmpl	$127, (%rcx)
	jle	.LBB5_44
# %bb.43:                               # %cond.true187
                                        #   in Loop: Header=BB5_27 Depth=2
	movl	$127, %eax
	jmp	.LBB5_45
.LBB5_44:                               # %cond.false188
                                        #   in Loop: Header=BB5_27 Depth=2
	movslq	-8(%rbp), %rax
	imulq	$180, %rax, %rax
	leaq	-928(%rbp), %rcx
	addq	%rax, %rcx
	movslq	-4(%rbp), %rax
	imulq	$12, %rax, %rax
	addq	%rax, %rcx
	movl	(%rcx), %eax
.LBB5_45:                               # %cond.end194
                                        #   in Loop: Header=BB5_27 Depth=2
.LBB5_46:                               # %cond.end196
                                        #   in Loop: Header=BB5_27 Depth=2
	movslq	-8(%rbp), %rcx
	imulq	$180, %rcx, %rcx
	leaq	-928(%rbp), %rdx
	addq	%rcx, %rdx
	movslq	-4(%rbp), %rcx
	imulq	$12, %rcx, %rcx
	addq	%rcx, %rdx
	movl	%eax, (%rdx)
	movl	-40(%rbp), %eax
	movslq	-8(%rbp), %rcx
	imulq	$180, %rcx, %rcx
	leaq	-560(%rbp), %rdx
	addq	%rcx, %rdx
	movslq	-4(%rbp), %rcx
	imulq	$12, %rcx, %rcx
	addq	%rcx, %rdx
	movl	%eax, (%rdx)
.LBB5_47:                               # %if.end209
                                        #   in Loop: Header=BB5_27 Depth=2
	movl	-36(%rbp), %eax
	movslq	-8(%rbp), %rcx
	imulq	$180, %rcx, %rcx
	leaq	-560(%rbp), %rdx
	movq	%rdx, %rsi
	addq	%rcx, %rsi
	movslq	-4(%rbp), %rcx
	imulq	$12, %rcx, %rcx
	addq	%rcx, %rsi
	movl	%eax, 4(%rsi)
	movl	-32(%rbp), %eax
	movslq	-8(%rbp), %rcx
	imulq	$180, %rcx, %rcx
	addq	%rcx, %rdx
	movslq	-4(%rbp), %rcx
	imulq	$12, %rcx, %rcx
	addq	%rcx, %rdx
	movl	%eax, 8(%rdx)
	movl	$0, -12(%rbp)
.LBB5_48:                               # %for.cond222
                                        #   Parent Loop BB5_25 Depth=1
                                        #     Parent Loop BB5_27 Depth=2
                                        # =>    This Inner Loop Header: Depth=3
	movl	-12(%rbp), %eax
	movq	img, %rcx
	movl	60(%rcx), %ecx
	movq	img, %rdx
	imull	52(%rdx), %ecx
	cmpl	%ecx, %eax
	jge	.LBB5_57
# %bb.49:                               # %for.body228
                                        #   in Loop: Header=BB5_48 Depth=3
	movq	-48(%rbp), %rax
	movslq	-12(%rbp), %rcx
	movzwl	(%rax,%rcx,2), %eax
	movslq	-8(%rbp), %rcx
	imulq	$180, %rcx, %rcx
	leaq	-560(%rbp), %rdx
	addq	%rcx, %rdx
	movslq	-4(%rbp), %rcx
	imulq	$12, %rcx, %rcx
	addq	%rcx, %rdx
	imull	(%rdx), %eax
	addl	wp_luma_round, %eax
	movl	luma_log_weight_denom, %ecx
                                        # kill: def $cl killed $ecx
	sarl	%cl, %eax
	movslq	-8(%rbp), %rcx
	imulq	$180, %rcx, %rcx
	leaq	-928(%rbp), %rdx
	addq	%rcx, %rdx
	movslq	-4(%rbp), %rcx
	imulq	$12, %rcx, %rcx
	addq	%rcx, %rdx
	addl	(%rdx), %eax
	cmpl	$0, %eax
	jge	.LBB5_51
# %bb.50:                               # %cond.true247
                                        #   in Loop: Header=BB5_48 Depth=3
	xorl	%eax, %eax
	jmp	.LBB5_55
.LBB5_51:                               # %cond.false248
                                        #   in Loop: Header=BB5_48 Depth=3
	movq	-48(%rbp), %rax
	movslq	-12(%rbp), %rcx
	movzwl	(%rax,%rcx,2), %eax
	movslq	-8(%rbp), %rcx
	imulq	$180, %rcx, %rcx
	leaq	-560(%rbp), %rdx
	addq	%rcx, %rdx
	movslq	-4(%rbp), %rcx
	imulq	$12, %rcx, %rcx
	addq	%rcx, %rdx
	imull	(%rdx), %eax
	addl	wp_luma_round, %eax
	movl	luma_log_weight_denom, %ecx
                                        # kill: def $cl killed $ecx
	sarl	%cl, %eax
	movslq	-8(%rbp), %rcx
	imulq	$180, %rcx, %rcx
	leaq	-928(%rbp), %rdx
	addq	%rcx, %rdx
	movslq	-4(%rbp), %rcx
	imulq	$12, %rcx, %rcx
	addq	%rcx, %rdx
	addl	(%rdx), %eax
	movq	img, %rcx
	cmpl	72684(%rcx), %eax
	jle	.LBB5_53
# %bb.52:                               # %cond.true268
                                        #   in Loop: Header=BB5_48 Depth=3
	movq	img, %rax
	movl	72684(%rax), %eax
	jmp	.LBB5_54
.LBB5_53:                               # %cond.false270
                                        #   in Loop: Header=BB5_48 Depth=3
	movq	-48(%rbp), %rax
	movslq	-12(%rbp), %rcx
	movzwl	(%rax,%rcx,2), %eax
	movslq	-8(%rbp), %rcx
	imulq	$180, %rcx, %rcx
	leaq	-560(%rbp), %rdx
	addq	%rcx, %rdx
	movslq	-4(%rbp), %rcx
	imulq	$12, %rcx, %rcx
	addq	%rcx, %rdx
	imull	(%rdx), %eax
	addl	wp_luma_round, %eax
	movl	luma_log_weight_denom, %ecx
                                        # kill: def $cl killed $ecx
	sarl	%cl, %eax
	movslq	-8(%rbp), %rcx
	imulq	$180, %rcx, %rcx
	leaq	-928(%rbp), %rdx
	addq	%rcx, %rdx
	movslq	-4(%rbp), %rcx
	imulq	$12, %rcx, %rcx
	addq	%rcx, %rdx
	addl	(%rdx), %eax
.LBB5_54:                               # %cond.end288
                                        #   in Loop: Header=BB5_48 Depth=3
.LBB5_55:                               # %cond.end290
                                        #   in Loop: Header=BB5_48 Depth=3
	movq	-72(%rbp), %rcx
	movslq	-12(%rbp), %rdx
	movw	%ax, (%rcx,%rdx,2)
# %bb.56:                               # %for.inc295
                                        #   in Loop: Header=BB5_48 Depth=3
	movl	-12(%rbp), %eax
	addl	$1, %eax
	movl	%eax, -12(%rbp)
	jmp	.LBB5_48
.LBB5_57:                               # %for.end297
                                        #   in Loop: Header=BB5_27 Depth=2
	movl	$0, -12(%rbp)
.LBB5_58:                               # %for.cond298
                                        #   Parent Loop BB5_25 Depth=1
                                        #     Parent Loop BB5_27 Depth=2
                                        # =>    This Loop Header: Depth=3
                                        #         Child Loop BB5_60 Depth 4
	movl	-12(%rbp), %eax
	movq	img, %rcx
	movl	60(%rcx), %ecx
	addl	$8, %ecx
	shll	$2, %ecx
	cmpl	%ecx, %eax
	jge	.LBB5_71
# %bb.59:                               # %for.body304
                                        #   in Loop: Header=BB5_58 Depth=3
	movl	$0, -16(%rbp)
.LBB5_60:                               # %for.cond305
                                        #   Parent Loop BB5_25 Depth=1
                                        #     Parent Loop BB5_27 Depth=2
                                        #       Parent Loop BB5_58 Depth=3
                                        # =>      This Inner Loop Header: Depth=4
	movl	-16(%rbp), %eax
	movq	img, %rcx
	movl	52(%rcx), %ecx
	addl	$8, %ecx
	shll	$2, %ecx
	cmpl	%ecx, %eax
	jge	.LBB5_69
# %bb.61:                               # %for.body311
                                        #   in Loop: Header=BB5_60 Depth=4
	movq	listX, %rax
	movslq	-4(%rbp), %rcx
	movq	(%rax,%rcx,8), %rax
	movq	6448(%rax), %rax
	movslq	-12(%rbp), %rcx
	movq	(%rax,%rcx,8), %rax
	movslq	-16(%rbp), %rcx
	movzwl	(%rax,%rcx,2), %eax
	movslq	-8(%rbp), %rcx
	imulq	$180, %rcx, %rcx
	leaq	-560(%rbp), %rdx
	addq	%rcx, %rdx
	movslq	-4(%rbp), %rcx
	imulq	$12, %rcx, %rcx
	addq	%rcx, %rdx
	imull	(%rdx), %eax
	addl	wp_luma_round, %eax
	movl	luma_log_weight_denom, %ecx
                                        # kill: def $cl killed $ecx
	sarl	%cl, %eax
	movslq	-8(%rbp), %rcx
	imulq	$180, %rcx, %rcx
	leaq	-928(%rbp), %rdx
	addq	%rcx, %rdx
	movslq	-4(%rbp), %rcx
	imulq	$12, %rcx, %rcx
	addq	%rcx, %rdx
	addl	(%rdx), %eax
	cmpl	$0, %eax
	jge	.LBB5_63
# %bb.62:                               # %cond.true335
                                        #   in Loop: Header=BB5_60 Depth=4
	xorl	%eax, %eax
	jmp	.LBB5_67
.LBB5_63:                               # %cond.false336
                                        #   in Loop: Header=BB5_60 Depth=4
	movq	listX, %rax
	movslq	-4(%rbp), %rcx
	movq	(%rax,%rcx,8), %rax
	movq	6448(%rax), %rax
	movslq	-12(%rbp), %rcx
	movq	(%rax,%rcx,8), %rax
	movslq	-16(%rbp), %rcx
	movzwl	(%rax,%rcx,2), %eax
	movslq	-8(%rbp), %rcx
	imulq	$180, %rcx, %rcx
	leaq	-560(%rbp), %rdx
	addq	%rcx, %rdx
	movslq	-4(%rbp), %rcx
	imulq	$12, %rcx, %rcx
	addq	%rcx, %rdx
	imull	(%rdx), %eax
	addl	wp_luma_round, %eax
	movl	luma_log_weight_denom, %ecx
                                        # kill: def $cl killed $ecx
	sarl	%cl, %eax
	movslq	-8(%rbp), %rcx
	imulq	$180, %rcx, %rcx
	leaq	-928(%rbp), %rdx
	addq	%rcx, %rdx
	movslq	-4(%rbp), %rcx
	imulq	$12, %rcx, %rcx
	addq	%rcx, %rdx
	addl	(%rdx), %eax
	movq	img, %rcx
	cmpl	72684(%rcx), %eax
	jle	.LBB5_65
# %bb.64:                               # %cond.true362
                                        #   in Loop: Header=BB5_60 Depth=4
	movq	img, %rax
	movl	72684(%rax), %eax
	jmp	.LBB5_66
.LBB5_65:                               # %cond.false364
                                        #   in Loop: Header=BB5_60 Depth=4
	movq	listX, %rax
	movslq	-4(%rbp), %rcx
	movq	(%rax,%rcx,8), %rax
	movq	6448(%rax), %rax
	movslq	-12(%rbp), %rcx
	movq	(%rax,%rcx,8), %rax
	movslq	-16(%rbp), %rcx
	movzwl	(%rax,%rcx,2), %eax
	movslq	-8(%rbp), %rcx
	imulq	$180, %rcx, %rcx
	leaq	-560(%rbp), %rdx
	addq	%rcx, %rdx
	movslq	-4(%rbp), %rcx
	imulq	$12, %rcx, %rcx
	addq	%rcx, %rdx
	imull	(%rdx), %eax
	addl	wp_luma_round, %eax
	movl	luma_log_weight_denom, %ecx
                                        # kill: def $cl killed $ecx
	sarl	%cl, %eax
	movslq	-8(%rbp), %rcx
	imulq	$180, %rcx, %rcx
	leaq	-928(%rbp), %rdx
	addq	%rcx, %rdx
	movslq	-4(%rbp), %rcx
	imulq	$12, %rcx, %rcx
	addq	%rcx, %rdx
	addl	(%rdx), %eax
.LBB5_66:                               # %cond.end387
                                        #   in Loop: Header=BB5_60 Depth=4
.LBB5_67:                               # %cond.end389
                                        #   in Loop: Header=BB5_60 Depth=4
	movq	listX, %rcx
	movslq	-4(%rbp), %rdx
	movq	(%rcx,%rdx,8), %rcx
	movq	6456(%rcx), %rcx
	movslq	-12(%rbp), %rdx
	movq	(%rcx,%rdx,8), %rcx
	movslq	-16(%rbp), %rdx
	movw	%ax, (%rcx,%rdx,2)
# %bb.68:                               # %for.inc398
                                        #   in Loop: Header=BB5_60 Depth=4
	movl	-16(%rbp), %eax
	addl	$1, %eax
	movl	%eax, -16(%rbp)
	jmp	.LBB5_60
.LBB5_69:                               # %for.end400
                                        #   in Loop: Header=BB5_58 Depth=3
	jmp	.LBB5_70
.LBB5_70:                               # %for.inc401
                                        #   in Loop: Header=BB5_58 Depth=3
	movl	-12(%rbp), %eax
	addl	$1, %eax
	movl	%eax, -12(%rbp)
	jmp	.LBB5_58
.LBB5_71:                               # %for.end403
                                        #   in Loop: Header=BB5_27 Depth=2
	jmp	.LBB5_72
.LBB5_72:                               # %for.inc404
                                        #   in Loop: Header=BB5_27 Depth=2
	movl	-4(%rbp), %eax
	addl	$1, %eax
	movl	%eax, -4(%rbp)
	jmp	.LBB5_27
.LBB5_73:                               # %for.end406
                                        #   in Loop: Header=BB5_25 Depth=1
	jmp	.LBB5_74
.LBB5_74:                               # %for.inc407
                                        #   in Loop: Header=BB5_25 Depth=1
	movl	-8(%rbp), %eax
	addl	$1, %eax
	movl	%eax, -8(%rbp)
	jmp	.LBB5_25
.LBB5_75:                               # %for.end409
	movl	$0, -8(%rbp)
.LBB5_76:                               # %for.cond410
                                        # =>This Loop Header: Depth=1
                                        #     Child Loop BB5_78 Depth 2
                                        #       Child Loop BB5_80 Depth 3
	movl	-8(%rbp), %eax
	movl	-28(%rbp), %ecx
	addl	$2, %ecx
	cmpl	%ecx, %eax
	jge	.LBB5_87
# %bb.77:                               # %for.body414
                                        #   in Loop: Header=BB5_76 Depth=1
	movl	$0, -20(%rbp)
.LBB5_78:                               # %for.cond415
                                        #   Parent Loop BB5_76 Depth=1
                                        # =>  This Loop Header: Depth=2
                                        #       Child Loop BB5_80 Depth 3
	movl	-20(%rbp), %eax
	movslq	-8(%rbp), %rcx
	cmpl	listXsize(,%rcx,4), %eax
	jge	.LBB5_85
# %bb.79:                               # %for.body420
                                        #   in Loop: Header=BB5_78 Depth=2
	movl	$0, -24(%rbp)
.LBB5_80:                               # %for.cond421
                                        #   Parent Loop BB5_76 Depth=1
                                        #     Parent Loop BB5_78 Depth=2
                                        # =>    This Inner Loop Header: Depth=3
	cmpl	$3, -24(%rbp)
	jge	.LBB5_83
# %bb.81:                               # %for.body424
                                        #   in Loop: Header=BB5_80 Depth=3
	movslq	-8(%rbp), %rax
	imulq	$180, %rax, %rax
	leaq	-560(%rbp), %rcx
	addq	%rax, %rcx
	movslq	-20(%rbp), %rax
	imulq	$12, %rax, %rax
	addq	%rax, %rcx
	movslq	-24(%rbp), %rax
	movl	(%rcx,%rax,4), %eax
	movq	wp_weight, %rcx
	movslq	-8(%rbp), %rdx
	movq	(%rcx,%rdx,8), %rcx
	movslq	-20(%rbp), %rdx
	movq	(%rcx,%rdx,8), %rcx
	movslq	-24(%rbp), %rdx
	movl	%eax, (%rcx,%rdx,4)
	movslq	-8(%rbp), %rax
	imulq	$180, %rax, %rax
	leaq	-928(%rbp), %rcx
	addq	%rax, %rcx
	movslq	-20(%rbp), %rax
	imulq	$12, %rax, %rax
	addq	%rax, %rcx
	movslq	-24(%rbp), %rax
	movl	(%rcx,%rax,4), %eax
	movq	wp_offset, %rcx
	movslq	-8(%rbp), %rdx
	movq	(%rcx,%rdx,8), %rcx
	movslq	-20(%rbp), %rdx
	movq	(%rcx,%rdx,8), %rcx
	movslq	-24(%rbp), %rdx
	movl	%eax, (%rcx,%rdx,4)
# %bb.82:                               # %for.inc449
                                        #   in Loop: Header=BB5_80 Depth=3
	movl	-24(%rbp), %eax
	addl	$1, %eax
	movl	%eax, -24(%rbp)
	jmp	.LBB5_80
.LBB5_83:                               # %for.end451
                                        #   in Loop: Header=BB5_78 Depth=2
	jmp	.LBB5_84
.LBB5_84:                               # %for.inc452
                                        #   in Loop: Header=BB5_78 Depth=2
	movl	-20(%rbp), %eax
	addl	$1, %eax
	movl	%eax, -20(%rbp)
	jmp	.LBB5_78
.LBB5_85:                               # %for.end454
                                        #   in Loop: Header=BB5_76 Depth=1
	jmp	.LBB5_86
.LBB5_86:                               # %for.inc455
                                        #   in Loop: Header=BB5_76 Depth=1
	movl	-8(%rbp), %eax
	addl	$1, %eax
	movl	%eax, -8(%rbp)
	jmp	.LBB5_76
.LBB5_87:                               # %for.end457
	cmpl	$1496503710, -60(%rbp)  # imm = 0x5932D59E
	jne	.LBB5_89
.LBB5_88:
	addq	$928, %rsp              # imm = 0x3A0
	popq	%rbp
	.cfi_def_cfa %rsp, 8
	retq
.LBB5_89:                               # %func_exit
	.cfi_def_cfa %rbp, 16
	callq	detect_breach
	jmp	.LBB5_88
.Lfunc_end5:
	.size	estimate_weighting_factor_P_slice.2, .Lfunc_end5-estimate_weighting_factor_P_slice.2
	.cfi_endproc
                                        # -- End function
	.section	.rodata.cst8,"aM",@progbits,8
	.p2align	3               # -- Begin function test_wp_P_slice.3
.LCPI6_0:
	.quad	4602678819172646912     # double 0.5
	.text
	.globl	test_wp_P_slice.3
	.p2align	4, 0x90
	.type	test_wp_P_slice.3,@function
test_wp_P_slice.3:                      # @test_wp_P_slice.3
	.cfi_startproc
# %bb.0:                                # %entry
	pushq	%rbp
	.cfi_def_cfa_offset 16
	.cfi_offset %rbp, -16
	movq	%rsp, %rbp
	.cfi_def_cfa_register %rbp
	pushq	%rbx
	subq	$936, %rsp              # imm = 0x3A8
	.cfi_offset %rbx, -24
	movl	$664241568, -64(%rbp)   # imm = 0x279785A0
	movl	%edi, -60(%rbp)
	vxorps	%xmm0, %xmm0, %xmm0
	vmovsd	%xmm0, -56(%rbp)
	movq	img, %rax
	cmpl	$0, 72400(%rax)
	je	.LBB6_3
# %bb.1:                                # %land.lhs.true
	movq	img, %rax
	movq	14168(%rax), %rax
	movq	img, %rcx
	movslq	12(%rcx), %rcx
	imulq	$632, %rcx, %rcx        # imm = 0x278
	addq	%rcx, %rax
	cmpl	$0, 532(%rax)
	je	.LBB6_3
# %bb.2:                                # %cond.true
	movq	img, %rax
	movl	12(%rax), %eax
	cltd
	movl	$2, %ecx
	idivl	%ecx
	cmpl	$0, %edx
	movl	$4, %eax
	cmovnel	%eax, %ecx
	jmp	.LBB6_4
.LBB6_3:                                # %cond.false
	xorl	%ecx, %ecx
	jmp	.LBB6_4
.LBB6_4:                                # %cond.end
	movl	%ecx, -44(%rbp)
	movl	$0, -40(%rbp)
	movl	$5, luma_log_weight_denom
	movl	$5, chroma_log_weight_denom
	movl	luma_log_weight_denom, %ecx
	subl	$1, %ecx
                                        # kill: def $cl killed $ecx
	movl	$1, %eax
	movl	$1, %edx
	shll	%cl, %edx
	movl	%edx, wp_luma_round
	movl	chroma_log_weight_denom, %ecx
	subl	$1, %ecx
                                        # kill: def $cl killed $ecx
	movl	$1, %edx
	shll	%cl, %edx
	movl	%edx, wp_chroma_round
	movl	luma_log_weight_denom, %ecx
                                        # kill: def $cl killed $ecx
	movl	$1, %edx
	shll	%cl, %edx
	movl	%edx, -28(%rbp)
	movl	chroma_log_weight_denom, %ecx
                                        # kill: def $cl killed $ecx
	shll	%cl, %eax
	movl	%eax, -48(%rbp)
	movl	$0, -20(%rbp)
.LBB6_5:                                # %for.cond
                                        # =>This Loop Header: Depth=1
                                        #     Child Loop BB6_7 Depth 2
                                        #       Child Loop BB6_9 Depth 3
	movl	-20(%rbp), %eax
	movl	-44(%rbp), %ecx
	addl	$2, %ecx
	cmpl	%ecx, %eax
	jge	.LBB6_16
# %bb.6:                                # %for.body
                                        #   in Loop: Header=BB6_5 Depth=1
	movl	$0, -24(%rbp)
.LBB6_7:                                # %for.cond9
                                        #   Parent Loop BB6_5 Depth=1
                                        # =>  This Loop Header: Depth=2
                                        #       Child Loop BB6_9 Depth 3
	movl	-24(%rbp), %eax
	movslq	-20(%rbp), %rcx
	cmpl	listXsize(,%rcx,4), %eax
	jge	.LBB6_14
# %bb.8:                                # %for.body13
                                        #   in Loop: Header=BB6_7 Depth=2
	movl	$0, -12(%rbp)
.LBB6_9:                                # %for.cond14
                                        #   Parent Loop BB6_5 Depth=1
                                        #     Parent Loop BB6_7 Depth=2
                                        # =>    This Inner Loop Header: Depth=3
	cmpl	$3, -12(%rbp)
	jge	.LBB6_12
# %bb.10:                               # %for.body16
                                        #   in Loop: Header=BB6_9 Depth=3
	movl	-28(%rbp), %eax
	movslq	-20(%rbp), %rcx
	imulq	$180, %rcx, %rcx
	leaq	-576(%rbp), %rdx
	addq	%rcx, %rdx
	movslq	-24(%rbp), %rcx
	imulq	$12, %rcx, %rcx
	addq	%rcx, %rdx
	movslq	-12(%rbp), %rcx
	movl	%eax, (%rdx,%rcx,4)
	movl	-28(%rbp), %eax
	movq	wp_weight, %rcx
	movslq	-20(%rbp), %rdx
	movq	(%rcx,%rdx,8), %rcx
	movslq	-24(%rbp), %rdx
	movq	(%rcx,%rdx,8), %rcx
	movslq	-12(%rbp), %rdx
	movl	%eax, (%rcx,%rdx,4)
	movq	wp_offset, %rax
	movslq	-20(%rbp), %rcx
	movq	(%rax,%rcx,8), %rax
	movslq	-24(%rbp), %rcx
	movq	(%rax,%rcx,8), %rax
	movslq	-12(%rbp), %rcx
	movl	$0, (%rax,%rcx,4)
	movslq	-20(%rbp), %rax
	imulq	$180, %rax, %rax
	leaq	-944(%rbp), %rcx
	addq	%rax, %rcx
	movslq	-24(%rbp), %rax
	imulq	$12, %rax, %rax
	addq	%rax, %rcx
	movslq	-12(%rbp), %rax
	movl	$0, (%rcx,%rax,4)
# %bb.11:                               # %for.inc
                                        #   in Loop: Header=BB6_9 Depth=3
	movl	-12(%rbp), %eax
	addl	$1, %eax
	movl	%eax, -12(%rbp)
	jmp	.LBB6_9
.LBB6_12:                               # %for.end
                                        #   in Loop: Header=BB6_7 Depth=2
	jmp	.LBB6_13
.LBB6_13:                               # %for.inc41
                                        #   in Loop: Header=BB6_7 Depth=2
	movl	-24(%rbp), %eax
	addl	$1, %eax
	movl	%eax, -24(%rbp)
	jmp	.LBB6_7
.LBB6_14:                               # %for.end43
                                        #   in Loop: Header=BB6_5 Depth=1
	jmp	.LBB6_15
.LBB6_15:                               # %for.inc44
                                        #   in Loop: Header=BB6_5 Depth=1
	movl	-20(%rbp), %eax
	addl	$1, %eax
	movl	%eax, -20(%rbp)
	jmp	.LBB6_5
.LBB6_16:                               # %for.end46
	movl	$0, -20(%rbp)
.LBB6_17:                               # %for.cond47
                                        # =>This Loop Header: Depth=1
                                        #     Child Loop BB6_19 Depth 2
	movl	-20(%rbp), %eax
	movq	img, %rcx
	cmpl	60(%rcx), %eax
	jge	.LBB6_24
# %bb.18:                               # %for.body49
                                        #   in Loop: Header=BB6_17 Depth=1
	movl	$0, -24(%rbp)
.LBB6_19:                               # %for.cond50
                                        #   Parent Loop BB6_17 Depth=1
                                        # =>  This Inner Loop Header: Depth=2
	movl	-24(%rbp), %eax
	movq	img, %rcx
	cmpl	52(%rcx), %eax
	jge	.LBB6_22
# %bb.20:                               # %for.body52
                                        #   in Loop: Header=BB6_19 Depth=2
	movq	imgY_org(%rip), %rax
	movslq	-20(%rbp), %rcx
	movq	(%rax,%rcx,8), %rax
	movslq	-24(%rbp), %rcx
	movzwl	(%rax,%rcx,2), %eax
	vcvtsi2sd	%eax, %xmm0, %xmm0
	vaddsd	-56(%rbp), %xmm0, %xmm0
	vmovsd	%xmm0, -56(%rbp)
# %bb.21:                               # %for.inc58
                                        #   in Loop: Header=BB6_19 Depth=2
	movl	-24(%rbp), %eax
	addl	$1, %eax
	movl	%eax, -24(%rbp)
	jmp	.LBB6_19
.LBB6_22:                               # %for.end60
                                        #   in Loop: Header=BB6_17 Depth=1
	jmp	.LBB6_23
.LBB6_23:                               # %for.inc61
                                        #   in Loop: Header=BB6_17 Depth=1
	movl	-20(%rbp), %eax
	addl	$1, %eax
	movl	%eax, -20(%rbp)
	jmp	.LBB6_17
.LBB6_24:                               # %for.end63
	movl	$0, -16(%rbp)
.LBB6_25:                               # %for.cond64
                                        # =>This Loop Header: Depth=1
                                        #     Child Loop BB6_27 Depth 2
                                        #       Child Loop BB6_29 Depth 3
	movl	-16(%rbp), %eax
	movl	-44(%rbp), %ecx
	addl	$2, %ecx
	cmpl	%ecx, %eax
	jge	.LBB6_51
# %bb.26:                               # %for.body68
                                        #   in Loop: Header=BB6_25 Depth=1
	movl	$0, -12(%rbp)
.LBB6_27:                               # %for.cond69
                                        #   Parent Loop BB6_25 Depth=1
                                        # =>  This Loop Header: Depth=2
                                        #       Child Loop BB6_29 Depth 3
	movl	-12(%rbp), %eax
	movslq	-16(%rbp), %rcx
	cmpl	listXsize(,%rcx,4), %eax
	jge	.LBB6_49
# %bb.28:                               # %for.body74
                                        #   in Loop: Header=BB6_27 Depth=2
	movslq	-12(%rbp), %rax
	vxorps	%xmm0, %xmm0, %xmm0
	vmovsd	%xmm0, -208(%rbp,%rax,8)
	movslq	-16(%rbp), %rax
	movq	listX(,%rax,8), %rax
	movslq	-12(%rbp), %rcx
	movq	(%rax,%rcx,8), %rax
	movq	6432(%rax), %rax
	movq	%rax, -72(%rbp)
	movslq	-16(%rbp), %rax
	movq	listX(,%rax,8), %rax
	movslq	-12(%rbp), %rcx
	movq	(%rax,%rcx,8), %rax
	movq	6440(%rax), %rax
	movq	%rax, -80(%rbp)
	movl	$0, -20(%rbp)
.LBB6_29:                               # %for.cond85
                                        #   Parent Loop BB6_25 Depth=1
                                        #     Parent Loop BB6_27 Depth=2
                                        # =>    This Inner Loop Header: Depth=3
	movl	-20(%rbp), %eax
	movq	img, %rcx
	movl	60(%rcx), %ecx
	movq	img, %rdx
	imull	52(%rdx), %ecx
	cmpl	%ecx, %eax
	jge	.LBB6_32
# %bb.30:                               # %for.body90
                                        #   in Loop: Header=BB6_29 Depth=3
	movq	-72(%rbp), %rax
	movslq	-20(%rbp), %rcx
	movzwl	(%rax,%rcx,2), %eax
	vcvtsi2sd	%eax, %xmm0, %xmm0
	movslq	-12(%rbp), %rax
	vaddsd	-208(%rbp,%rax,8), %xmm0, %xmm0
	vmovsd	%xmm0, -208(%rbp,%rax,8)
# %bb.31:                               # %for.inc97
                                        #   in Loop: Header=BB6_29 Depth=3
	movl	-20(%rbp), %eax
	addl	$1, %eax
	movl	%eax, -20(%rbp)
	jmp	.LBB6_29
.LBB6_32:                               # %for.end99
                                        #   in Loop: Header=BB6_27 Depth=2
	cmpl	$0, -60(%rbp)
	jne	.LBB6_40
# %bb.33:                               # %if.then
                                        #   in Loop: Header=BB6_27 Depth=2
	movslq	-12(%rbp), %rax
	vmovsd	-208(%rbp,%rax,8), %xmm0 # xmm0 = mem[0],zero
	vxorps	%xmm1, %xmm1, %xmm1
	vucomisd	%xmm1, %xmm0
	jne	.LBB6_34
	jp	.LBB6_34
	jmp	.LBB6_35
.LBB6_34:                               # %if.then106
                                        #   in Loop: Header=BB6_27 Depth=2
	vmovsd	.LCPI6_0(%rip), %xmm0   # xmm0 = mem[0],zero
	vcvtsi2sdl	-28(%rbp), %xmm0, %xmm1
	vmulsd	-56(%rbp), %xmm1, %xmm1
	movslq	-12(%rbp), %rax
	vdivsd	-208(%rbp,%rax,8), %xmm1, %xmm1
	vaddsd	%xmm0, %xmm1, %xmm0
	vcvttsd2si	%xmm0, %eax
	movslq	-16(%rbp), %rcx
	imulq	$180, %rcx, %rcx
	leaq	-576(%rbp), %rdx
	addq	%rcx, %rdx
	movslq	-12(%rbp), %rcx
	imulq	$12, %rcx, %rcx
	addq	%rcx, %rdx
	movl	%eax, (%rdx)
	jmp	.LBB6_36
.LBB6_35:                               # %if.else
                                        #   in Loop: Header=BB6_27 Depth=2
	movl	-28(%rbp), %eax
	movslq	-16(%rbp), %rcx
	imulq	$180, %rcx, %rcx
	leaq	-576(%rbp), %rdx
	addq	%rcx, %rdx
	movslq	-12(%rbp), %rcx
	imulq	$12, %rcx, %rcx
	addq	%rcx, %rdx
	movl	%eax, (%rdx)
.LBB6_36:                               # %if.end
                                        #   in Loop: Header=BB6_27 Depth=2
	movslq	-16(%rbp), %rax
	imulq	$180, %rax, %rax
	leaq	-576(%rbp), %rcx
	addq	%rax, %rcx
	movslq	-12(%rbp), %rax
	imulq	$12, %rax, %rax
	addq	%rax, %rcx
	cmpl	$-64, (%rcx)
	jl	.LBB6_38
# %bb.37:                               # %lor.lhs.false
                                        #   in Loop: Header=BB6_27 Depth=2
	movslq	-16(%rbp), %rax
	imulq	$180, %rax, %rax
	leaq	-576(%rbp), %rcx
	addq	%rax, %rcx
	movslq	-12(%rbp), %rax
	imulq	$12, %rax, %rax
	addq	%rax, %rcx
	cmpl	$127, (%rcx)
	jle	.LBB6_39
.LBB6_38:                               # %if.then137
                                        #   in Loop: Header=BB6_27 Depth=2
	movslq	-16(%rbp), %rax
	imulq	$180, %rax, %rax
	leaq	-576(%rbp), %rcx
	addq	%rax, %rcx
	movslq	-12(%rbp), %rax
	imulq	$12, %rax, %rax
	addq	%rax, %rcx
	movl	$32, (%rcx)
.LBB6_39:                               # %if.end143
                                        #   in Loop: Header=BB6_27 Depth=2
	jmp	.LBB6_47
.LBB6_40:                               # %if.else144
                                        #   in Loop: Header=BB6_27 Depth=2
	vmovsd	.LCPI6_0(%rip), %xmm0   # xmm0 = mem[0],zero
	vmovsd	-56(%rbp), %xmm1        # xmm1 = mem[0],zero
	movslq	-12(%rbp), %rax
	vsubsd	-208(%rbp,%rax,8), %xmm1, %xmm1
	movq	img, %rax
	movl	60(%rax), %eax
	movq	img, %rcx
	imull	52(%rcx), %eax
	vcvtsi2sd	%eax, %xmm0, %xmm2
	vdivsd	%xmm2, %xmm1, %xmm1
	vaddsd	%xmm0, %xmm1, %xmm0
	vcvttsd2si	%xmm0, %eax
	movslq	-16(%rbp), %rcx
	imulq	$180, %rcx, %rcx
	leaq	-944(%rbp), %rdx
	movq	%rdx, %rsi
	addq	%rcx, %rsi
	movslq	-12(%rbp), %rcx
	imulq	$12, %rcx, %rcx
	addq	%rcx, %rsi
	movl	%eax, (%rsi)
	movslq	-16(%rbp), %rax
	imulq	$180, %rax, %rax
	addq	%rax, %rdx
	movslq	-12(%rbp), %rax
	imulq	$12, %rax, %rax
	addq	%rax, %rdx
	cmpl	$-128, (%rdx)
	jge	.LBB6_42
# %bb.41:                               # %cond.true167
                                        #   in Loop: Header=BB6_27 Depth=2
	movl	$4294967168, %eax       # imm = 0xFFFFFF80
	jmp	.LBB6_46
.LBB6_42:                               # %cond.false168
                                        #   in Loop: Header=BB6_27 Depth=2
	movslq	-16(%rbp), %rax
	imulq	$180, %rax, %rax
	leaq	-944(%rbp), %rcx
	addq	%rax, %rcx
	movslq	-12(%rbp), %rax
	imulq	$12, %rax, %rax
	addq	%rax, %rcx
	cmpl	$127, (%rcx)
	jle	.LBB6_44
# %bb.43:                               # %cond.true176
                                        #   in Loop: Header=BB6_27 Depth=2
	movl	$127, %eax
	jmp	.LBB6_45
.LBB6_44:                               # %cond.false177
                                        #   in Loop: Header=BB6_27 Depth=2
	movslq	-16(%rbp), %rax
	imulq	$180, %rax, %rax
	leaq	-944(%rbp), %rcx
	addq	%rax, %rcx
	movslq	-12(%rbp), %rax
	imulq	$12, %rax, %rax
	addq	%rax, %rcx
	movl	(%rcx), %eax
.LBB6_45:                               # %cond.end183
                                        #   in Loop: Header=BB6_27 Depth=2
.LBB6_46:                               # %cond.end185
                                        #   in Loop: Header=BB6_27 Depth=2
	movslq	-16(%rbp), %rcx
	imulq	$180, %rcx, %rcx
	leaq	-944(%rbp), %rdx
	addq	%rcx, %rdx
	movslq	-12(%rbp), %rcx
	imulq	$12, %rcx, %rcx
	addq	%rcx, %rdx
	movl	%eax, (%rdx)
	movl	-28(%rbp), %eax
	movslq	-16(%rbp), %rcx
	imulq	$180, %rcx, %rcx
	leaq	-576(%rbp), %rdx
	addq	%rcx, %rdx
	movslq	-12(%rbp), %rcx
	imulq	$12, %rcx, %rcx
	addq	%rcx, %rdx
	movl	%eax, (%rdx)
.LBB6_47:                               # %if.end197
                                        #   in Loop: Header=BB6_27 Depth=2
	movl	-48(%rbp), %eax
	movslq	-16(%rbp), %rcx
	imulq	$180, %rcx, %rcx
	leaq	-576(%rbp), %rdx
	movq	%rdx, %rsi
	addq	%rcx, %rsi
	movslq	-12(%rbp), %rcx
	imulq	$12, %rcx, %rcx
	addq	%rcx, %rsi
	movl	%eax, 4(%rsi)
	movl	-48(%rbp), %eax
	movslq	-16(%rbp), %rcx
	imulq	$180, %rcx, %rcx
	addq	%rcx, %rdx
	movslq	-12(%rbp), %rcx
	imulq	$12, %rcx, %rcx
	addq	%rcx, %rdx
	movl	%eax, 8(%rdx)
# %bb.48:                               # %for.inc208
                                        #   in Loop: Header=BB6_27 Depth=2
	movl	-12(%rbp), %eax
	addl	$1, %eax
	movl	%eax, -12(%rbp)
	jmp	.LBB6_27
.LBB6_49:                               # %for.end210
                                        #   in Loop: Header=BB6_25 Depth=1
	jmp	.LBB6_50
.LBB6_50:                               # %for.inc211
                                        #   in Loop: Header=BB6_25 Depth=1
	movl	-16(%rbp), %eax
	addl	$1, %eax
	movl	%eax, -16(%rbp)
	jmp	.LBB6_25
.LBB6_51:                               # %for.end213
	movl	$0, -16(%rbp)
.LBB6_52:                               # %for.cond214
                                        # =>This Loop Header: Depth=1
                                        #     Child Loop BB6_54 Depth 2
                                        #       Child Loop BB6_56 Depth 3
	movl	-16(%rbp), %eax
	movl	-44(%rbp), %ecx
	addl	$2, %ecx
	cmpl	%ecx, %eax
	jge	.LBB6_72
# %bb.53:                               # %for.body218
                                        #   in Loop: Header=BB6_52 Depth=1
	movl	$0, -36(%rbp)
.LBB6_54:                               # %for.cond219
                                        #   Parent Loop BB6_52 Depth=1
                                        # =>  This Loop Header: Depth=2
                                        #       Child Loop BB6_56 Depth 3
	movl	-36(%rbp), %eax
	movslq	-16(%rbp), %rcx
	cmpl	listXsize(,%rcx,4), %eax
	jge	.LBB6_67
# %bb.55:                               # %for.body224
                                        #   in Loop: Header=BB6_54 Depth=2
	movl	$0, -32(%rbp)
.LBB6_56:                               # %for.cond225
                                        #   Parent Loop BB6_52 Depth=1
                                        #     Parent Loop BB6_54 Depth=2
                                        # =>    This Inner Loop Header: Depth=3
	cmpl	$3, -32(%rbp)
	jge	.LBB6_62
# %bb.57:                               # %for.body228
                                        #   in Loop: Header=BB6_56 Depth=3
	movslq	-16(%rbp), %rax
	imulq	$180, %rax, %rax
	leaq	-576(%rbp), %rcx
	addq	%rax, %rcx
	movslq	-36(%rbp), %rax
	imulq	$12, %rax, %rax
	addq	%rax, %rcx
	movslq	-32(%rbp), %rax
	movl	(%rcx,%rax,4), %eax
	cmpl	-28(%rbp), %eax
	jne	.LBB6_59
# %bb.58:                               # %lor.lhs.false237
                                        #   in Loop: Header=BB6_56 Depth=3
	movslq	-16(%rbp), %rax
	imulq	$180, %rax, %rax
	leaq	-944(%rbp), %rcx
	addq	%rax, %rcx
	movslq	-36(%rbp), %rax
	imulq	$12, %rax, %rax
	addq	%rax, %rcx
	movslq	-32(%rbp), %rax
	cmpl	$0, (%rcx,%rax,4)
	je	.LBB6_60
.LBB6_59:                               # %if.then246
                                        #   in Loop: Header=BB6_54 Depth=2
	movl	$1, -40(%rbp)
	jmp	.LBB6_63
.LBB6_60:                               # %if.end247
                                        #   in Loop: Header=BB6_56 Depth=3
	jmp	.LBB6_61
.LBB6_61:                               # %for.inc248
                                        #   in Loop: Header=BB6_56 Depth=3
	movl	-32(%rbp), %eax
	addl	$1, %eax
	movl	%eax, -32(%rbp)
	jmp	.LBB6_56
.LBB6_62:                               # %for.end250.loopexit
                                        #   in Loop: Header=BB6_54 Depth=2
	jmp	.LBB6_63
.LBB6_63:                               # %for.end250
                                        #   in Loop: Header=BB6_54 Depth=2
	cmpl	$1, -40(%rbp)
	jne	.LBB6_65
# %bb.64:                               # %if.then253
                                        #   in Loop: Header=BB6_52 Depth=1
	jmp	.LBB6_68
.LBB6_65:                               # %if.end254
                                        #   in Loop: Header=BB6_54 Depth=2
	jmp	.LBB6_66
.LBB6_66:                               # %for.inc255
                                        #   in Loop: Header=BB6_54 Depth=2
	movl	-36(%rbp), %eax
	addl	$1, %eax
	movl	%eax, -36(%rbp)
	jmp	.LBB6_54
.LBB6_67:                               # %for.end257.loopexit
                                        #   in Loop: Header=BB6_52 Depth=1
	jmp	.LBB6_68
.LBB6_68:                               # %for.end257
                                        #   in Loop: Header=BB6_52 Depth=1
	cmpl	$1, -40(%rbp)
	jne	.LBB6_70
# %bb.69:                               # %if.then260
	jmp	.LBB6_73
.LBB6_70:                               # %if.end261
                                        #   in Loop: Header=BB6_52 Depth=1
	jmp	.LBB6_71
.LBB6_71:                               # %for.inc262
                                        #   in Loop: Header=BB6_52 Depth=1
	movl	-16(%rbp), %eax
	addl	$1, %eax
	movl	%eax, -16(%rbp)
	jmp	.LBB6_52
.LBB6_72:                               # %for.end264.loopexit
	jmp	.LBB6_73
.LBB6_73:                               # %for.end264
	movl	-40(%rbp), %ebx
	cmpl	$664241568, -64(%rbp)   # imm = 0x279785A0
	jne	.LBB6_75
.LBB6_74:
	movl	%ebx, %eax
	addq	$936, %rsp              # imm = 0x3A8
	popq	%rbx
	popq	%rbp
	.cfi_def_cfa %rsp, 8
	retq
.LBB6_75:                               # %func_exit
	.cfi_def_cfa %rbp, 16
	callq	detect_breach
	jmp	.LBB6_74
.Lfunc_end6:
	.size	test_wp_P_slice.3, .Lfunc_end6-test_wp_P_slice.3
	.cfi_endproc
                                        # -- End function
	.section	.rodata.cst8,"aM",@progbits,8
	.p2align	3               # -- Begin function test_wp_B_slice.4
.LCPI7_0:
	.quad	4602678819172646912     # double 0.5
	.text
	.globl	test_wp_B_slice.4
	.p2align	4, 0x90
	.type	test_wp_B_slice.4,@function
test_wp_B_slice.4:                      # @test_wp_B_slice.4
	.cfi_startproc
# %bb.0:                                # %entry
	pushq	%rbp
	.cfi_def_cfa_offset 16
	.cfi_offset %rbp, -16
	movq	%rsp, %rbp
	.cfi_def_cfa_register %rbp
	pushq	%rbx
	subq	$35416, %rsp            # imm = 0x8A58
	.cfi_offset %rbx, -24
	movl	$94769887, -88(%rbp)    # imm = 0x5A612DF
	movl	%edi, -76(%rbp)
	vxorps	%xmm0, %xmm0, %xmm0
	vmovsd	%xmm0, -72(%rbp)
	movq	img, %rax
	cmpl	$0, 72400(%rax)
	je	.LBB7_3
# %bb.1:                                # %land.lhs.true
	movq	img, %rax
	movq	14168(%rax), %rax
	movq	img, %rcx
	movslq	12(%rcx), %rcx
	imulq	$632, %rcx, %rcx        # imm = 0x278
	addq	%rcx, %rax
	cmpl	$0, 532(%rax)
	je	.LBB7_3
# %bb.2:                                # %cond.true
	movq	img, %rax
	movl	12(%rax), %eax
	cltd
	movl	$2, %ecx
	idivl	%ecx
	cmpl	$0, %edx
	movl	$4, %eax
	cmovnel	%eax, %ecx
	jmp	.LBB7_4
.LBB7_3:                                # %cond.false
	xorl	%ecx, %ecx
	jmp	.LBB7_4
.LBB7_4:                                # %cond.end
	movl	%ecx, -36(%rbp)
	movl	$0, -48(%rbp)
	movl	$5, luma_log_weight_denom
	movl	$5, chroma_log_weight_denom
	movl	luma_log_weight_denom, %ecx
	subl	$1, %ecx
                                        # kill: def $cl killed $ecx
	movl	$1, %eax
	movl	$1, %edx
	shll	%cl, %edx
	movl	%edx, wp_luma_round
	movl	chroma_log_weight_denom, %ecx
	subl	$1, %ecx
                                        # kill: def $cl killed $ecx
	movl	$1, %edx
	shll	%cl, %edx
	movl	%edx, wp_chroma_round
	movl	luma_log_weight_denom, %ecx
                                        # kill: def $cl killed $ecx
	movl	$1, %edx
	shll	%cl, %edx
	movl	%edx, -40(%rbp)
	movl	chroma_log_weight_denom, %ecx
                                        # kill: def $cl killed $ecx
	shll	%cl, %eax
	movl	%eax, -64(%rbp)
	movl	$0, -12(%rbp)
.LBB7_5:                                # %for.cond
                                        # =>This Loop Header: Depth=1
                                        #     Child Loop BB7_7 Depth 2
                                        #       Child Loop BB7_9 Depth 3
	movl	-12(%rbp), %eax
	movl	-36(%rbp), %ecx
	addl	$2, %ecx
	cmpl	%ecx, %eax
	jge	.LBB7_16
# %bb.6:                                # %for.body
                                        #   in Loop: Header=BB7_5 Depth=1
	movl	$0, -24(%rbp)
.LBB7_7:                                # %for.cond9
                                        #   Parent Loop BB7_5 Depth=1
                                        # =>  This Loop Header: Depth=2
                                        #       Child Loop BB7_9 Depth 3
	movl	-24(%rbp), %eax
	movslq	-12(%rbp), %rcx
	cmpl	listXsize(,%rcx,4), %eax
	jge	.LBB7_14
# %bb.8:                                # %for.body13
                                        #   in Loop: Header=BB7_7 Depth=2
	movl	$0, -32(%rbp)
.LBB7_9:                                # %for.cond14
                                        #   Parent Loop BB7_5 Depth=1
                                        #     Parent Loop BB7_7 Depth=2
                                        # =>    This Inner Loop Header: Depth=3
	cmpl	$3, -32(%rbp)
	jge	.LBB7_12
# %bb.10:                               # %for.body16
                                        #   in Loop: Header=BB7_9 Depth=3
	movl	-40(%rbp), %eax
	movq	wp_weight, %rcx
	movslq	-12(%rbp), %rdx
	movq	(%rcx,%rdx,8), %rcx
	movslq	-24(%rbp), %rdx
	movq	(%rcx,%rdx,8), %rcx
	movslq	-32(%rbp), %rdx
	movl	%eax, (%rcx,%rdx,4)
	movq	wp_offset, %rax
	movslq	-12(%rbp), %rcx
	movq	(%rax,%rcx,8), %rax
	movslq	-24(%rbp), %rcx
	movq	(%rax,%rcx,8), %rax
	movslq	-32(%rbp), %rcx
	movl	$0, (%rax,%rcx,4)
	movslq	-12(%rbp), %rax
	imulq	$180, %rax, %rax
	leaq	-3008(%rbp), %rcx
	addq	%rax, %rcx
	movslq	-24(%rbp), %rax
	imulq	$12, %rax, %rax
	addq	%rax, %rcx
	movslq	-32(%rbp), %rax
	movl	$0, (%rcx,%rax,4)
	movl	-40(%rbp), %eax
	movslq	-12(%rbp), %rcx
	imulq	$180, %rcx, %rcx
	leaq	-1920(%rbp), %rdx
	addq	%rcx, %rdx
	movslq	-24(%rbp), %rcx
	imulq	$12, %rcx, %rcx
	addq	%rcx, %rdx
	movslq	-32(%rbp), %rcx
	movl	%eax, (%rdx,%rcx,4)
# %bb.11:                               # %for.inc
                                        #   in Loop: Header=BB7_9 Depth=3
	movl	-32(%rbp), %eax
	addl	$1, %eax
	movl	%eax, -32(%rbp)
	jmp	.LBB7_9
.LBB7_12:                               # %for.end
                                        #   in Loop: Header=BB7_7 Depth=2
	jmp	.LBB7_13
.LBB7_13:                               # %for.inc41
                                        #   in Loop: Header=BB7_7 Depth=2
	movl	-24(%rbp), %eax
	addl	$1, %eax
	movl	%eax, -24(%rbp)
	jmp	.LBB7_7
.LBB7_14:                               # %for.end43
                                        #   in Loop: Header=BB7_5 Depth=1
	jmp	.LBB7_15
.LBB7_15:                               # %for.inc44
                                        #   in Loop: Header=BB7_5 Depth=1
	movl	-12(%rbp), %eax
	addl	$1, %eax
	movl	%eax, -12(%rbp)
	jmp	.LBB7_5
.LBB7_16:                               # %for.end46
	movl	$0, -12(%rbp)
.LBB7_17:                               # %for.cond47
                                        # =>This Loop Header: Depth=1
                                        #     Child Loop BB7_19 Depth 2
                                        #       Child Loop BB7_33 Depth 3
	movl	-12(%rbp), %eax
	cmpl	listXsize, %eax
	jge	.LBB7_52
# %bb.18:                               # %for.body49
                                        #   in Loop: Header=BB7_17 Depth=1
	movl	$0, -24(%rbp)
.LBB7_19:                               # %for.cond50
                                        #   Parent Loop BB7_17 Depth=1
                                        # =>  This Loop Header: Depth=2
                                        #       Child Loop BB7_33 Depth 3
	movl	-24(%rbp), %eax
	cmpl	listXsize+4, %eax
	jge	.LBB7_50
# %bb.20:                               # %for.body52
                                        #   in Loop: Header=BB7_19 Depth=2
	movq	listX+8, %rax
	movslq	-24(%rbp), %rcx
	movq	(%rax,%rcx,8), %rax
	movl	4(%rax), %eax
	movq	listX, %rcx
	movslq	-12(%rbp), %rdx
	movq	(%rcx,%rdx,8), %rcx
	subl	4(%rcx), %eax
	cmpl	$-128, %eax
	jge	.LBB7_22
# %bb.21:                               # %cond.true60
                                        #   in Loop: Header=BB7_19 Depth=2
	movl	$4294967168, %eax       # imm = 0xFFFFFF80
	jmp	.LBB7_26
.LBB7_22:                               # %cond.false61
                                        #   in Loop: Header=BB7_19 Depth=2
	movq	listX+8, %rax
	movslq	-24(%rbp), %rcx
	movq	(%rax,%rcx,8), %rax
	movl	4(%rax), %eax
	movq	listX, %rcx
	movslq	-12(%rbp), %rdx
	movq	(%rcx,%rdx,8), %rcx
	subl	4(%rcx), %eax
	cmpl	$127, %eax
	jle	.LBB7_24
# %bb.23:                               # %cond.true70
                                        #   in Loop: Header=BB7_19 Depth=2
	movl	$127, %eax
	jmp	.LBB7_25
.LBB7_24:                               # %cond.false71
                                        #   in Loop: Header=BB7_19 Depth=2
	movq	listX+8, %rax
	movslq	-24(%rbp), %rcx
	movq	(%rax,%rcx,8), %rax
	movl	4(%rax), %eax
	movq	listX, %rcx
	movslq	-12(%rbp), %rdx
	movq	(%rcx,%rdx,8), %rcx
	subl	4(%rcx), %eax
.LBB7_25:                               # %cond.end79
                                        #   in Loop: Header=BB7_19 Depth=2
.LBB7_26:                               # %cond.end81
                                        #   in Loop: Header=BB7_19 Depth=2
	movl	%eax, -52(%rbp)
	movq	enc_picture, %rax
	movl	4(%rax), %eax
	movq	listX, %rcx
	movslq	-12(%rbp), %rdx
	movq	(%rcx,%rdx,8), %rcx
	subl	4(%rcx), %eax
	cmpl	$-128, %eax
	jge	.LBB7_28
# %bb.27:                               # %cond.true89
                                        #   in Loop: Header=BB7_19 Depth=2
	movl	$4294967168, %eax       # imm = 0xFFFFFF80
	jmp	.LBB7_32
.LBB7_28:                               # %cond.false90
                                        #   in Loop: Header=BB7_19 Depth=2
	movq	enc_picture, %rax
	movl	4(%rax), %eax
	movq	listX, %rcx
	movslq	-12(%rbp), %rdx
	movq	(%rcx,%rdx,8), %rcx
	subl	4(%rcx), %eax
	cmpl	$127, %eax
	jle	.LBB7_30
# %bb.29:                               # %cond.true97
                                        #   in Loop: Header=BB7_19 Depth=2
	movl	$127, %eax
	jmp	.LBB7_31
.LBB7_30:                               # %cond.false98
                                        #   in Loop: Header=BB7_19 Depth=2
	movq	enc_picture, %rax
	movl	4(%rax), %eax
	movq	listX, %rcx
	movslq	-12(%rbp), %rdx
	movq	(%rcx,%rdx,8), %rcx
	subl	4(%rcx), %eax
.LBB7_31:                               # %cond.end104
                                        #   in Loop: Header=BB7_19 Depth=2
.LBB7_32:                               # %cond.end106
                                        #   in Loop: Header=BB7_19 Depth=2
	movl	%eax, -56(%rbp)
	movl	$0, -20(%rbp)
.LBB7_33:                               # %for.cond108
                                        #   Parent Loop BB7_17 Depth=1
                                        #     Parent Loop BB7_19 Depth=2
                                        # =>    This Inner Loop Header: Depth=3
	cmpl	$3, -20(%rbp)
	jge	.LBB7_48
# %bb.34:                               # %for.body110
                                        #   in Loop: Header=BB7_33 Depth=3
	cmpl	$0, -52(%rbp)
	jne	.LBB7_36
# %bb.35:                               # %if.then
                                        #   in Loop: Header=BB7_33 Depth=3
	leaq	-35424(%rbp), %rax
	leaq	-19216(%rbp), %rcx
	movq	%rcx, %rdx
	addq	$2700, %rdx             # imm = 0xA8C
	movslq	-12(%rbp), %rsi
	imulq	$180, %rsi, %rsi
	addq	%rsi, %rdx
	movslq	-24(%rbp), %rsi
	imulq	$12, %rsi, %rsi
	addq	%rsi, %rdx
	movslq	-20(%rbp), %rsi
	movl	$32, (%rdx,%rsi,4)
	movslq	-12(%rbp), %rdx
	imulq	$180, %rdx, %rdx
	addq	%rdx, %rcx
	movslq	-24(%rbp), %rdx
	imulq	$12, %rdx, %rdx
	addq	%rdx, %rcx
	movslq	-20(%rbp), %rdx
	movl	$32, (%rcx,%rdx,4)
	movq	%rax, %rcx
	addq	$2700, %rcx             # imm = 0xA8C
	movslq	-12(%rbp), %rdx
	imulq	$180, %rdx, %rdx
	addq	%rdx, %rcx
	movslq	-24(%rbp), %rdx
	imulq	$12, %rdx, %rdx
	addq	%rdx, %rcx
	movslq	-20(%rbp), %rdx
	movl	$0, (%rcx,%rdx,4)
	movslq	-12(%rbp), %rcx
	imulq	$180, %rcx, %rcx
	addq	%rcx, %rax
	movslq	-24(%rbp), %rcx
	imulq	$12, %rcx, %rcx
	addq	%rcx, %rax
	movslq	-20(%rbp), %rcx
	movl	$0, (%rax,%rcx,4)
	jmp	.LBB7_46
.LBB7_36:                               # %if.else
                                        #   in Loop: Header=BB7_33 Depth=3
	movl	-52(%rbp), %eax
	cltd
	movl	$2, %ecx
	idivl	%ecx
	movl	%eax, %edi
	callq	abs
	addl	$16384, %eax            # imm = 0x4000
	cltd
	idivl	-52(%rbp)
	movl	%eax, -60(%rbp)
	movl	-60(%rbp), %eax
	imull	-56(%rbp), %eax
	addl	$32, %eax
	sarl	$6, %eax
	cmpl	$-1024, %eax            # imm = 0xFC00
	jge	.LBB7_38
# %bb.37:                               # %cond.true144
                                        #   in Loop: Header=BB7_33 Depth=3
	movl	$4294966272, %eax       # imm = 0xFFFFFC00
	jmp	.LBB7_42
.LBB7_38:                               # %cond.false145
                                        #   in Loop: Header=BB7_33 Depth=3
	movl	-60(%rbp), %eax
	imull	-56(%rbp), %eax
	addl	$32, %eax
	sarl	$6, %eax
	cmpl	$1023, %eax             # imm = 0x3FF
	jle	.LBB7_40
# %bb.39:                               # %cond.true150
                                        #   in Loop: Header=BB7_33 Depth=3
	movl	$1023, %eax             # imm = 0x3FF
	jmp	.LBB7_41
.LBB7_40:                               # %cond.false151
                                        #   in Loop: Header=BB7_33 Depth=3
	movl	-60(%rbp), %eax
	imull	-56(%rbp), %eax
	addl	$32, %eax
	sarl	$6, %eax
.LBB7_41:                               # %cond.end155
                                        #   in Loop: Header=BB7_33 Depth=3
.LBB7_42:                               # %cond.end157
                                        #   in Loop: Header=BB7_33 Depth=3
	movl	%eax, -84(%rbp)
	movl	-84(%rbp), %eax
	sarl	$2, %eax
	leaq	-19216(%rbp), %rcx
	movq	%rcx, %rdx
	addq	$2700, %rdx             # imm = 0xA8C
	movslq	-12(%rbp), %rsi
	imulq	$180, %rsi, %rsi
	addq	%rsi, %rdx
	movslq	-24(%rbp), %rsi
	imulq	$12, %rsi, %rsi
	addq	%rsi, %rdx
	movslq	-20(%rbp), %rsi
	movl	%eax, (%rdx,%rsi,4)
	addq	$2700, %rcx             # imm = 0xA8C
	movslq	-12(%rbp), %rax
	imulq	$180, %rax, %rax
	addq	%rax, %rcx
	movslq	-24(%rbp), %rax
	imulq	$12, %rax, %rax
	addq	%rax, %rcx
	movslq	-20(%rbp), %rax
	cmpl	$-64, (%rcx,%rax,4)
	jl	.LBB7_44
# %bb.43:                               # %lor.lhs.false
                                        #   in Loop: Header=BB7_33 Depth=3
	leaq	-19216(%rbp), %rax
	addq	$2700, %rax             # imm = 0xA8C
	movslq	-12(%rbp), %rcx
	imulq	$180, %rcx, %rcx
	addq	%rcx, %rax
	movslq	-24(%rbp), %rcx
	imulq	$12, %rcx, %rcx
	addq	%rcx, %rax
	movslq	-20(%rbp), %rcx
	cmpl	$128, (%rax,%rcx,4)
	jle	.LBB7_45
.LBB7_44:                               # %if.then183
                                        #   in Loop: Header=BB7_33 Depth=3
	leaq	-19216(%rbp), %rax
	addq	$2700, %rax             # imm = 0xA8C
	movslq	-12(%rbp), %rcx
	imulq	$180, %rcx, %rcx
	addq	%rcx, %rax
	movslq	-24(%rbp), %rcx
	imulq	$12, %rcx, %rcx
	addq	%rcx, %rax
	movslq	-20(%rbp), %rcx
	movl	$32, (%rax,%rcx,4)
.LBB7_45:                               # %if.end
                                        #   in Loop: Header=BB7_33 Depth=3
	leaq	-35424(%rbp), %rax
	leaq	-19216(%rbp), %rcx
	movq	%rcx, %rdx
	addq	$2700, %rdx             # imm = 0xA8C
	movslq	-12(%rbp), %rsi
	imulq	$180, %rsi, %rsi
	addq	%rsi, %rdx
	movslq	-24(%rbp), %rsi
	imulq	$12, %rsi, %rsi
	addq	%rsi, %rdx
	movslq	-20(%rbp), %rsi
	movl	$64, %edi
	subl	(%rdx,%rsi,4), %edi
	movslq	-12(%rbp), %rdx
	imulq	$180, %rdx, %rdx
	addq	%rdx, %rcx
	movslq	-24(%rbp), %rdx
	imulq	$12, %rdx, %rdx
	addq	%rdx, %rcx
	movslq	-20(%rbp), %rdx
	movl	%edi, (%rcx,%rdx,4)
	movq	%rax, %rcx
	addq	$2700, %rcx             # imm = 0xA8C
	movslq	-12(%rbp), %rdx
	imulq	$180, %rdx, %rdx
	addq	%rdx, %rcx
	movslq	-24(%rbp), %rdx
	imulq	$12, %rdx, %rdx
	addq	%rdx, %rcx
	movslq	-20(%rbp), %rdx
	movl	$0, (%rcx,%rdx,4)
	movslq	-12(%rbp), %rcx
	imulq	$180, %rcx, %rcx
	addq	%rcx, %rax
	movslq	-24(%rbp), %rcx
	imulq	$12, %rcx, %rcx
	addq	%rcx, %rax
	movslq	-20(%rbp), %rcx
	movl	$0, (%rax,%rcx,4)
.LBB7_46:                               # %if.end220
                                        #   in Loop: Header=BB7_33 Depth=3
	jmp	.LBB7_47
.LBB7_47:                               # %for.inc221
                                        #   in Loop: Header=BB7_33 Depth=3
	movl	-20(%rbp), %eax
	addl	$1, %eax
	movl	%eax, -20(%rbp)
	jmp	.LBB7_33
.LBB7_48:                               # %for.end223
                                        #   in Loop: Header=BB7_19 Depth=2
	jmp	.LBB7_49
.LBB7_49:                               # %for.inc224
                                        #   in Loop: Header=BB7_19 Depth=2
	movl	-24(%rbp), %eax
	addl	$1, %eax
	movl	%eax, -24(%rbp)
	jmp	.LBB7_19
.LBB7_50:                               # %for.end226
                                        #   in Loop: Header=BB7_17 Depth=1
	jmp	.LBB7_51
.LBB7_51:                               # %for.inc227
                                        #   in Loop: Header=BB7_17 Depth=1
	movl	-12(%rbp), %eax
	addl	$1, %eax
	movl	%eax, -12(%rbp)
	jmp	.LBB7_17
.LBB7_52:                               # %for.end229
	cmpl	$1, -76(%rbp)
	jne	.LBB7_77
# %bb.53:                               # %if.then231
	movl	$0, -12(%rbp)
.LBB7_54:                               # %for.cond232
                                        # =>This Loop Header: Depth=1
                                        #     Child Loop BB7_56 Depth 2
                                        #       Child Loop BB7_58 Depth 3
	movl	-12(%rbp), %eax
	cmpl	listXsize, %eax
	jge	.LBB7_68
# %bb.55:                               # %for.body234
                                        #   in Loop: Header=BB7_54 Depth=1
	movl	$0, -24(%rbp)
.LBB7_56:                               # %for.cond235
                                        #   Parent Loop BB7_54 Depth=1
                                        # =>  This Loop Header: Depth=2
                                        #       Child Loop BB7_58 Depth 3
	movl	-24(%rbp), %eax
	cmpl	listXsize+4, %eax
	jge	.LBB7_66
# %bb.57:                               # %for.body237
                                        #   in Loop: Header=BB7_56 Depth=2
	movl	$0, -20(%rbp)
.LBB7_58:                               # %for.cond238
                                        #   Parent Loop BB7_54 Depth=1
                                        #     Parent Loop BB7_56 Depth=2
                                        # =>    This Inner Loop Header: Depth=3
	cmpl	$3, -20(%rbp)
	jge	.LBB7_64
# %bb.59:                               # %for.body240
                                        #   in Loop: Header=BB7_58 Depth=3
	cmpl	$0, -20(%rbp)
	jne	.LBB7_61
# %bb.60:                               # %cond.true242
                                        #   in Loop: Header=BB7_58 Depth=3
	movl	luma_log_weight_denom, %eax
	jmp	.LBB7_62
.LBB7_61:                               # %cond.false243
                                        #   in Loop: Header=BB7_58 Depth=3
	movl	chroma_log_weight_denom, %eax
.LBB7_62:                               # %cond.end244
                                        #   in Loop: Header=BB7_58 Depth=3
	leaq	-19216(%rbp), %rcx
	movl	%eax, -80(%rbp)
	movq	%rcx, %rax
	addq	$2700, %rax             # imm = 0xA8C
	movslq	-12(%rbp), %rdx
	imulq	$180, %rdx, %rdx
	addq	%rdx, %rax
	movslq	-24(%rbp), %rdx
	imulq	$12, %rdx, %rdx
	addq	%rdx, %rax
	movslq	-20(%rbp), %rdx
	movl	(%rax,%rdx,4), %eax
	movq	wbp_weight, %rdx
	movq	8(%rdx), %rdx
	movslq	-12(%rbp), %rsi
	movq	(%rdx,%rsi,8), %rdx
	movslq	-24(%rbp), %rsi
	movq	(%rdx,%rsi,8), %rdx
	movslq	-20(%rbp), %rsi
	movl	%eax, (%rdx,%rsi,4)
	movslq	-12(%rbp), %rax
	imulq	$180, %rax, %rax
	addq	%rax, %rcx
	movslq	-24(%rbp), %rax
	imulq	$12, %rax, %rax
	addq	%rax, %rcx
	movslq	-20(%rbp), %rax
	movl	(%rcx,%rax,4), %eax
	movq	wbp_weight, %rcx
	movq	(%rcx), %rcx
	movslq	-12(%rbp), %rdx
	movq	(%rcx,%rdx,8), %rcx
	movslq	-24(%rbp), %rdx
	movq	(%rcx,%rdx,8), %rcx
	movslq	-20(%rbp), %rdx
	movl	%eax, (%rcx,%rdx,4)
# %bb.63:                               # %for.inc274
                                        #   in Loop: Header=BB7_58 Depth=3
	movl	-20(%rbp), %eax
	addl	$1, %eax
	movl	%eax, -20(%rbp)
	jmp	.LBB7_58
.LBB7_64:                               # %for.end276
                                        #   in Loop: Header=BB7_56 Depth=2
	jmp	.LBB7_65
.LBB7_65:                               # %for.inc277
                                        #   in Loop: Header=BB7_56 Depth=2
	movl	-24(%rbp), %eax
	addl	$1, %eax
	movl	%eax, -24(%rbp)
	jmp	.LBB7_56
.LBB7_66:                               # %for.end279
                                        #   in Loop: Header=BB7_54 Depth=1
	jmp	.LBB7_67
.LBB7_67:                               # %for.inc280
                                        #   in Loop: Header=BB7_54 Depth=1
	movl	-12(%rbp), %eax
	addl	$1, %eax
	movl	%eax, -12(%rbp)
	jmp	.LBB7_54
.LBB7_68:                               # %for.end282
	movl	$0, -16(%rbp)
.LBB7_69:                               # %for.cond283
                                        # =>This Loop Header: Depth=1
                                        #     Child Loop BB7_71 Depth 2
	movl	-16(%rbp), %eax
	movl	-36(%rbp), %ecx
	addl	$2, %ecx
	cmpl	%ecx, %eax
	jge	.LBB7_76
# %bb.70:                               # %for.body286
                                        #   in Loop: Header=BB7_69 Depth=1
	movl	$0, -28(%rbp)
.LBB7_71:                               # %for.cond287
                                        #   Parent Loop BB7_69 Depth=1
                                        # =>  This Inner Loop Header: Depth=2
	movl	-28(%rbp), %eax
	movslq	-16(%rbp), %rcx
	cmpl	listXsize(,%rcx,4), %eax
	jge	.LBB7_74
# %bb.72:                               # %for.body291
                                        #   in Loop: Header=BB7_71 Depth=2
	movl	luma_log_weight_denom, %ecx
                                        # kill: def $cl killed $ecx
	movl	$1, %eax
	movl	$1, %edx
	shll	%cl, %edx
	movq	wp_weight, %rcx
	movslq	-16(%rbp), %rsi
	movq	(%rcx,%rsi,8), %rcx
	movslq	-28(%rbp), %rsi
	movq	(%rcx,%rsi,8), %rcx
	movl	%edx, (%rcx)
	movl	chroma_log_weight_denom, %ecx
                                        # kill: def $cl killed $ecx
	movl	$1, %edx
	shll	%cl, %edx
	movq	wp_weight, %rcx
	movslq	-16(%rbp), %rsi
	movq	(%rcx,%rsi,8), %rcx
	movslq	-28(%rbp), %rsi
	movq	(%rcx,%rsi,8), %rcx
	movl	%edx, 4(%rcx)
	movl	chroma_log_weight_denom, %ecx
                                        # kill: def $cl killed $ecx
	shll	%cl, %eax
	movq	wp_weight, %rcx
	movslq	-16(%rbp), %rdx
	movq	(%rcx,%rdx,8), %rcx
	movslq	-28(%rbp), %rdx
	movq	(%rcx,%rdx,8), %rcx
	movl	%eax, 8(%rcx)
	movq	wp_offset, %rax
	movslq	-16(%rbp), %rcx
	movq	(%rax,%rcx,8), %rax
	movslq	-28(%rbp), %rcx
	movq	(%rax,%rcx,8), %rax
	movl	$0, (%rax)
	movq	wp_offset, %rax
	movslq	-16(%rbp), %rcx
	movq	(%rax,%rcx,8), %rax
	movslq	-28(%rbp), %rcx
	movq	(%rax,%rcx,8), %rax
	movl	$0, 4(%rax)
	movq	wp_offset, %rax
	movslq	-16(%rbp), %rcx
	movq	(%rax,%rcx,8), %rax
	movslq	-28(%rbp), %rcx
	movq	(%rax,%rcx,8), %rax
	movl	$0, 8(%rax)
# %bb.73:                               # %for.inc325
                                        #   in Loop: Header=BB7_71 Depth=2
	movl	-28(%rbp), %eax
	addl	$1, %eax
	movl	%eax, -28(%rbp)
	jmp	.LBB7_71
.LBB7_74:                               # %for.end327
                                        #   in Loop: Header=BB7_69 Depth=1
	jmp	.LBB7_75
.LBB7_75:                               # %for.inc328
                                        #   in Loop: Header=BB7_69 Depth=1
	movl	-16(%rbp), %eax
	addl	$1, %eax
	movl	%eax, -16(%rbp)
	jmp	.LBB7_69
.LBB7_76:                               # %for.end330
	jmp	.LBB7_142
.LBB7_77:                               # %if.else331
	movl	$0, -12(%rbp)
.LBB7_78:                               # %for.cond332
                                        # =>This Loop Header: Depth=1
                                        #     Child Loop BB7_80 Depth 2
	movl	-12(%rbp), %eax
	movq	img, %rcx
	cmpl	60(%rcx), %eax
	jge	.LBB7_85
# %bb.79:                               # %for.body334
                                        #   in Loop: Header=BB7_78 Depth=1
	movl	$0, -24(%rbp)
.LBB7_80:                               # %for.cond335
                                        #   Parent Loop BB7_78 Depth=1
                                        # =>  This Inner Loop Header: Depth=2
	movl	-24(%rbp), %eax
	movq	img, %rcx
	cmpl	52(%rcx), %eax
	jge	.LBB7_83
# %bb.81:                               # %for.body337
                                        #   in Loop: Header=BB7_80 Depth=2
	movq	imgY_org(%rip), %rax
	movslq	-12(%rbp), %rcx
	movq	(%rax,%rcx,8), %rax
	movslq	-24(%rbp), %rcx
	movzwl	(%rax,%rcx,2), %eax
	vcvtsi2sd	%eax, %xmm0, %xmm0
	vaddsd	-72(%rbp), %xmm0, %xmm0
	vmovsd	%xmm0, -72(%rbp)
# %bb.82:                               # %for.inc343
                                        #   in Loop: Header=BB7_80 Depth=2
	movl	-24(%rbp), %eax
	addl	$1, %eax
	movl	%eax, -24(%rbp)
	jmp	.LBB7_80
.LBB7_83:                               # %for.end345
                                        #   in Loop: Header=BB7_78 Depth=1
	jmp	.LBB7_84
.LBB7_84:                               # %for.inc346
                                        #   in Loop: Header=BB7_78 Depth=1
	movl	-12(%rbp), %eax
	addl	$1, %eax
	movl	%eax, -12(%rbp)
	jmp	.LBB7_78
.LBB7_85:                               # %for.end348
	movl	$0, -16(%rbp)
.LBB7_86:                               # %for.cond349
                                        # =>This Loop Header: Depth=1
                                        #     Child Loop BB7_88 Depth 2
                                        #       Child Loop BB7_90 Depth 3
	movl	-16(%rbp), %eax
	movl	-36(%rbp), %ecx
	addl	$2, %ecx
	cmpl	%ecx, %eax
	jge	.LBB7_103
# %bb.87:                               # %for.body353
                                        #   in Loop: Header=BB7_86 Depth=1
	movl	$0, -32(%rbp)
.LBB7_88:                               # %for.cond354
                                        #   Parent Loop BB7_86 Depth=1
                                        # =>  This Loop Header: Depth=2
                                        #       Child Loop BB7_90 Depth 3
	movl	-32(%rbp), %eax
	movslq	-16(%rbp), %rcx
	cmpl	listXsize(,%rcx,4), %eax
	jge	.LBB7_101
# %bb.89:                               # %for.body359
                                        #   in Loop: Header=BB7_88 Depth=2
	movslq	-16(%rbp), %rax
	imulq	$120, %rax, %rax
	leaq	-832(%rbp), %rcx
	addq	%rax, %rcx
	movslq	-32(%rbp), %rax
	vxorps	%xmm0, %xmm0, %xmm0
	vmovsd	%xmm0, (%rcx,%rax,8)
	movslq	-16(%rbp), %rax
	movq	listX(,%rax,8), %rax
	movslq	-32(%rbp), %rcx
	movq	(%rax,%rcx,8), %rax
	movq	6432(%rax), %rax
	movq	%rax, -96(%rbp)
	movslq	-16(%rbp), %rax
	movq	listX(,%rax,8), %rax
	movslq	-32(%rbp), %rcx
	movq	(%rax,%rcx,8), %rax
	movq	6440(%rax), %rax
	movq	%rax, -112(%rbp)
	movl	$0, -12(%rbp)
.LBB7_90:                               # %for.cond372
                                        #   Parent Loop BB7_86 Depth=1
                                        #     Parent Loop BB7_88 Depth=2
                                        # =>    This Inner Loop Header: Depth=3
	movl	-12(%rbp), %eax
	movq	img, %rcx
	movl	60(%rcx), %ecx
	movq	img, %rdx
	imull	52(%rdx), %ecx
	cmpl	%ecx, %eax
	jge	.LBB7_93
# %bb.91:                               # %for.body378
                                        #   in Loop: Header=BB7_90 Depth=3
	movq	-96(%rbp), %rax
	movslq	-12(%rbp), %rcx
	movzwl	(%rax,%rcx,2), %eax
	vcvtsi2sd	%eax, %xmm0, %xmm0
	movslq	-16(%rbp), %rax
	imulq	$120, %rax, %rax
	leaq	-832(%rbp), %rcx
	addq	%rax, %rcx
	movslq	-32(%rbp), %rax
	vaddsd	(%rcx,%rax,8), %xmm0, %xmm0
	vmovsd	%xmm0, (%rcx,%rax,8)
# %bb.92:                               # %for.inc387
                                        #   in Loop: Header=BB7_90 Depth=3
	movl	-12(%rbp), %eax
	addl	$1, %eax
	movl	%eax, -12(%rbp)
	jmp	.LBB7_90
.LBB7_93:                               # %for.end389
                                        #   in Loop: Header=BB7_88 Depth=2
	movslq	-16(%rbp), %rax
	imulq	$120, %rax, %rax
	leaq	-832(%rbp), %rcx
	addq	%rax, %rcx
	movslq	-32(%rbp), %rax
	vmovsd	(%rcx,%rax,8), %xmm0    # xmm0 = mem[0],zero
	vxorps	%xmm1, %xmm1, %xmm1
	vucomisd	%xmm1, %xmm0
	jne	.LBB7_94
	jp	.LBB7_94
	jmp	.LBB7_95
.LBB7_94:                               # %if.then396
                                        #   in Loop: Header=BB7_88 Depth=2
	vmovsd	.LCPI7_0(%rip), %xmm0   # xmm0 = mem[0],zero
	vcvtsi2sdl	-40(%rbp), %xmm0, %xmm1
	vmulsd	-72(%rbp), %xmm1, %xmm1
	movslq	-16(%rbp), %rax
	imulq	$120, %rax, %rax
	leaq	-832(%rbp), %rcx
	addq	%rax, %rcx
	movslq	-32(%rbp), %rax
	vdivsd	(%rcx,%rax,8), %xmm1, %xmm1
	vaddsd	%xmm0, %xmm1, %xmm0
	vcvttsd2si	%xmm0, %eax
	movl	%eax, -44(%rbp)
	jmp	.LBB7_96
.LBB7_95:                               # %if.else406
                                        #   in Loop: Header=BB7_88 Depth=2
	movl	-40(%rbp), %eax
	movl	%eax, -44(%rbp)
.LBB7_96:                               # %if.end407
                                        #   in Loop: Header=BB7_88 Depth=2
	cmpl	$-64, -44(%rbp)
	jl	.LBB7_98
# %bb.97:                               # %lor.lhs.false410
                                        #   in Loop: Header=BB7_88 Depth=2
	cmpl	$127, -44(%rbp)
	jle	.LBB7_99
.LBB7_98:                               # %if.then413
                                        #   in Loop: Header=BB7_88 Depth=2
	movl	-40(%rbp), %eax
	movl	%eax, -44(%rbp)
.LBB7_99:                               # %if.end414
                                        #   in Loop: Header=BB7_88 Depth=2
	movl	$0, -100(%rbp)
	movl	-44(%rbp), %eax
	movslq	-16(%rbp), %rcx
	imulq	$180, %rcx, %rcx
	leaq	-1920(%rbp), %rdx
	movq	%rdx, %rsi
	addq	%rcx, %rsi
	movslq	-32(%rbp), %rcx
	imulq	$12, %rcx, %rcx
	addq	%rcx, %rsi
	movl	%eax, (%rsi)
	movl	-64(%rbp), %eax
	movslq	-16(%rbp), %rcx
	imulq	$180, %rcx, %rcx
	movq	%rdx, %rsi
	addq	%rcx, %rsi
	movslq	-32(%rbp), %rcx
	imulq	$12, %rcx, %rcx
	addq	%rcx, %rsi
	movl	%eax, 4(%rsi)
	movl	-64(%rbp), %eax
	movslq	-16(%rbp), %rcx
	imulq	$180, %rcx, %rcx
	addq	%rcx, %rdx
	movslq	-32(%rbp), %rcx
	imulq	$12, %rcx, %rcx
	addq	%rcx, %rdx
	movl	%eax, 8(%rdx)
	movslq	-16(%rbp), %rax
	imulq	$180, %rax, %rax
	leaq	-3008(%rbp), %rcx
	movq	%rcx, %rdx
	addq	%rax, %rdx
	movslq	-32(%rbp), %rax
	imulq	$12, %rax, %rax
	addq	%rax, %rdx
	movl	$0, (%rdx)
	movslq	-16(%rbp), %rax
	imulq	$180, %rax, %rax
	movq	%rcx, %rdx
	addq	%rax, %rdx
	movslq	-32(%rbp), %rax
	imulq	$12, %rax, %rax
	addq	%rax, %rdx
	movl	$0, 4(%rdx)
	movslq	-16(%rbp), %rax
	imulq	$180, %rax, %rax
	addq	%rax, %rcx
	movslq	-32(%rbp), %rax
	imulq	$12, %rax, %rax
	addq	%rax, %rcx
	movl	$0, 8(%rcx)
# %bb.100:                              # %for.inc445
                                        #   in Loop: Header=BB7_88 Depth=2
	movl	-32(%rbp), %eax
	addl	$1, %eax
	movl	%eax, -32(%rbp)
	jmp	.LBB7_88
.LBB7_101:                              # %for.end447
                                        #   in Loop: Header=BB7_86 Depth=1
	jmp	.LBB7_102
.LBB7_102:                              # %for.inc448
                                        #   in Loop: Header=BB7_86 Depth=1
	movl	-16(%rbp), %eax
	addl	$1, %eax
	movl	%eax, -16(%rbp)
	jmp	.LBB7_86
.LBB7_103:                              # %for.end450
	movq	active_pps, %rax
	cmpl	$1, 196(%rax)
	jne	.LBB7_117
# %bb.104:                              # %if.then453
	movl	$0, -16(%rbp)
.LBB7_105:                              # %for.cond454
                                        # =>This Loop Header: Depth=1
                                        #     Child Loop BB7_107 Depth 2
                                        #       Child Loop BB7_109 Depth 3
	movl	-16(%rbp), %eax
	movl	-36(%rbp), %ecx
	addl	$2, %ecx
	cmpl	%ecx, %eax
	jge	.LBB7_116
# %bb.106:                              # %for.body458
                                        #   in Loop: Header=BB7_105 Depth=1
	movl	$0, -28(%rbp)
.LBB7_107:                              # %for.cond459
                                        #   Parent Loop BB7_105 Depth=1
                                        # =>  This Loop Header: Depth=2
                                        #       Child Loop BB7_109 Depth 3
	movl	-28(%rbp), %eax
	movslq	-16(%rbp), %rcx
	cmpl	listXsize(,%rcx,4), %eax
	jge	.LBB7_114
# %bb.108:                              # %for.body464
                                        #   in Loop: Header=BB7_107 Depth=2
	movl	$0, -20(%rbp)
.LBB7_109:                              # %for.cond465
                                        #   Parent Loop BB7_105 Depth=1
                                        #     Parent Loop BB7_107 Depth=2
                                        # =>    This Inner Loop Header: Depth=3
	cmpl	$3, -20(%rbp)
	jge	.LBB7_112
# %bb.110:                              # %for.body468
                                        #   in Loop: Header=BB7_109 Depth=3
	movslq	-16(%rbp), %rax
	imulq	$180, %rax, %rax
	leaq	-1920(%rbp), %rcx
	addq	%rax, %rcx
	movslq	-28(%rbp), %rax
	imulq	$12, %rax, %rax
	addq	%rax, %rcx
	movslq	-20(%rbp), %rax
	movl	(%rcx,%rax,4), %eax
	movq	wp_weight, %rcx
	movslq	-16(%rbp), %rdx
	movq	(%rcx,%rdx,8), %rcx
	movslq	-28(%rbp), %rdx
	movq	(%rcx,%rdx,8), %rcx
	movslq	-20(%rbp), %rdx
	movl	%eax, (%rcx,%rdx,4)
	movslq	-16(%rbp), %rax
	imulq	$180, %rax, %rax
	leaq	-3008(%rbp), %rcx
	addq	%rax, %rcx
	movslq	-28(%rbp), %rax
	imulq	$12, %rax, %rax
	addq	%rax, %rcx
	movslq	-20(%rbp), %rax
	movl	(%rcx,%rax,4), %eax
	movq	wp_offset, %rcx
	movslq	-16(%rbp), %rdx
	movq	(%rcx,%rdx,8), %rcx
	movslq	-28(%rbp), %rdx
	movq	(%rcx,%rdx,8), %rcx
	movslq	-20(%rbp), %rdx
	movl	%eax, (%rcx,%rdx,4)
# %bb.111:                              # %for.inc493
                                        #   in Loop: Header=BB7_109 Depth=3
	movl	-20(%rbp), %eax
	addl	$1, %eax
	movl	%eax, -20(%rbp)
	jmp	.LBB7_109
.LBB7_112:                              # %for.end495
                                        #   in Loop: Header=BB7_107 Depth=2
	jmp	.LBB7_113
.LBB7_113:                              # %for.inc496
                                        #   in Loop: Header=BB7_107 Depth=2
	movl	-28(%rbp), %eax
	addl	$1, %eax
	movl	%eax, -28(%rbp)
	jmp	.LBB7_107
.LBB7_114:                              # %for.end498
                                        #   in Loop: Header=BB7_105 Depth=1
	jmp	.LBB7_115
.LBB7_115:                              # %for.inc499
                                        #   in Loop: Header=BB7_105 Depth=1
	movl	-16(%rbp), %eax
	addl	$1, %eax
	movl	%eax, -16(%rbp)
	jmp	.LBB7_105
.LBB7_116:                              # %for.end501
	jmp	.LBB7_126
.LBB7_117:                              # %if.else502
	movl	$0, -16(%rbp)
.LBB7_118:                              # %for.cond503
                                        # =>This Loop Header: Depth=1
                                        #     Child Loop BB7_120 Depth 2
	movl	-16(%rbp), %eax
	movl	-36(%rbp), %ecx
	addl	$2, %ecx
	cmpl	%ecx, %eax
	jge	.LBB7_125
# %bb.119:                              # %for.body507
                                        #   in Loop: Header=BB7_118 Depth=1
	movl	$0, -28(%rbp)
.LBB7_120:                              # %for.cond508
                                        #   Parent Loop BB7_118 Depth=1
                                        # =>  This Inner Loop Header: Depth=2
	movl	-28(%rbp), %eax
	movslq	-16(%rbp), %rcx
	cmpl	listXsize(,%rcx,4), %eax
	jge	.LBB7_123
# %bb.121:                              # %for.body513
                                        #   in Loop: Header=BB7_120 Depth=2
	movl	luma_log_weight_denom, %ecx
                                        # kill: def $cl killed $ecx
	movl	$1, %eax
	movl	$1, %edx
	shll	%cl, %edx
	movq	wp_weight, %rcx
	movslq	-16(%rbp), %rsi
	movq	(%rcx,%rsi,8), %rcx
	movslq	-28(%rbp), %rsi
	movq	(%rcx,%rsi,8), %rcx
	movl	%edx, (%rcx)
	movl	chroma_log_weight_denom, %ecx
                                        # kill: def $cl killed $ecx
	movl	$1, %edx
	shll	%cl, %edx
	movq	wp_weight, %rcx
	movslq	-16(%rbp), %rsi
	movq	(%rcx,%rsi,8), %rcx
	movslq	-28(%rbp), %rsi
	movq	(%rcx,%rsi,8), %rcx
	movl	%edx, 4(%rcx)
	movl	chroma_log_weight_denom, %ecx
                                        # kill: def $cl killed $ecx
	shll	%cl, %eax
	movq	wp_weight, %rcx
	movslq	-16(%rbp), %rdx
	movq	(%rcx,%rdx,8), %rcx
	movslq	-28(%rbp), %rdx
	movq	(%rcx,%rdx,8), %rcx
	movl	%eax, 8(%rcx)
	movq	wp_offset, %rax
	movslq	-16(%rbp), %rcx
	movq	(%rax,%rcx,8), %rax
	movslq	-28(%rbp), %rcx
	movq	(%rax,%rcx,8), %rax
	movl	$0, (%rax)
	movq	wp_offset, %rax
	movslq	-16(%rbp), %rcx
	movq	(%rax,%rcx,8), %rax
	movslq	-28(%rbp), %rcx
	movq	(%rax,%rcx,8), %rax
	movl	$0, 4(%rax)
	movq	wp_offset, %rax
	movslq	-16(%rbp), %rcx
	movq	(%rax,%rcx,8), %rax
	movslq	-28(%rbp), %rcx
	movq	(%rax,%rcx,8), %rax
	movl	$0, 8(%rax)
# %bb.122:                              # %for.inc547
                                        #   in Loop: Header=BB7_120 Depth=2
	movl	-28(%rbp), %eax
	addl	$1, %eax
	movl	%eax, -28(%rbp)
	jmp	.LBB7_120
.LBB7_123:                              # %for.end549
                                        #   in Loop: Header=BB7_118 Depth=1
	jmp	.LBB7_124
.LBB7_124:                              # %for.inc550
                                        #   in Loop: Header=BB7_118 Depth=1
	movl	-16(%rbp), %eax
	addl	$1, %eax
	movl	%eax, -16(%rbp)
	jmp	.LBB7_118
.LBB7_125:                              # %for.end552
	jmp	.LBB7_126
.LBB7_126:                              # %if.end553
	movl	$0, -12(%rbp)
.LBB7_127:                              # %for.cond554
                                        # =>This Loop Header: Depth=1
                                        #     Child Loop BB7_129 Depth 2
                                        #       Child Loop BB7_131 Depth 3
	movl	-12(%rbp), %eax
	cmpl	listXsize, %eax
	jge	.LBB7_141
# %bb.128:                              # %for.body557
                                        #   in Loop: Header=BB7_127 Depth=1
	movl	$0, -24(%rbp)
.LBB7_129:                              # %for.cond558
                                        #   Parent Loop BB7_127 Depth=1
                                        # =>  This Loop Header: Depth=2
                                        #       Child Loop BB7_131 Depth 3
	movl	-24(%rbp), %eax
	cmpl	listXsize+4, %eax
	jge	.LBB7_139
# %bb.130:                              # %for.body561
                                        #   in Loop: Header=BB7_129 Depth=2
	movl	$0, -20(%rbp)
.LBB7_131:                              # %for.cond562
                                        #   Parent Loop BB7_127 Depth=1
                                        #     Parent Loop BB7_129 Depth=2
                                        # =>    This Inner Loop Header: Depth=3
	cmpl	$3, -20(%rbp)
	jge	.LBB7_137
# %bb.132:                              # %for.body565
                                        #   in Loop: Header=BB7_131 Depth=3
	cmpl	$0, -20(%rbp)
	jne	.LBB7_134
# %bb.133:                              # %cond.true568
                                        #   in Loop: Header=BB7_131 Depth=3
	movl	luma_log_weight_denom, %eax
	jmp	.LBB7_135
.LBB7_134:                              # %cond.false569
                                        #   in Loop: Header=BB7_131 Depth=3
	movl	chroma_log_weight_denom, %eax
.LBB7_135:                              # %cond.end570
                                        #   in Loop: Header=BB7_131 Depth=3
	movl	%eax, -80(%rbp)
	movq	wp_weight, %rax
	movq	(%rax), %rax
	movslq	-12(%rbp), %rcx
	movq	(%rax,%rcx,8), %rax
	movslq	-20(%rbp), %rcx
	movl	(%rax,%rcx,4), %eax
	movq	wbp_weight, %rcx
	movq	(%rcx), %rcx
	movslq	-12(%rbp), %rdx
	movq	(%rcx,%rdx,8), %rcx
	movslq	-24(%rbp), %rdx
	movq	(%rcx,%rdx,8), %rcx
	movslq	-20(%rbp), %rdx
	movl	%eax, (%rcx,%rdx,4)
	movq	wp_weight, %rax
	movq	8(%rax), %rax
	movslq	-24(%rbp), %rcx
	movq	(%rax,%rcx,8), %rax
	movslq	-20(%rbp), %rcx
	movl	(%rax,%rcx,4), %eax
	movq	wbp_weight, %rcx
	movq	8(%rcx), %rcx
	movslq	-12(%rbp), %rdx
	movq	(%rcx,%rdx,8), %rcx
	movslq	-24(%rbp), %rdx
	movq	(%rcx,%rdx,8), %rcx
	movslq	-20(%rbp), %rdx
	movl	%eax, (%rcx,%rdx,4)
# %bb.136:                              # %for.inc596
                                        #   in Loop: Header=BB7_131 Depth=3
	movl	-20(%rbp), %eax
	addl	$1, %eax
	movl	%eax, -20(%rbp)
	jmp	.LBB7_131
.LBB7_137:                              # %for.end598
                                        #   in Loop: Header=BB7_129 Depth=2
	jmp	.LBB7_138
.LBB7_138:                              # %for.inc599
                                        #   in Loop: Header=BB7_129 Depth=2
	movl	-24(%rbp), %eax
	addl	$1, %eax
	movl	%eax, -24(%rbp)
	jmp	.LBB7_129
.LBB7_139:                              # %for.end601
                                        #   in Loop: Header=BB7_127 Depth=1
	jmp	.LBB7_140
.LBB7_140:                              # %for.inc602
                                        #   in Loop: Header=BB7_127 Depth=1
	movl	-12(%rbp), %eax
	addl	$1, %eax
	movl	%eax, -12(%rbp)
	jmp	.LBB7_127
.LBB7_141:                              # %for.end604
	jmp	.LBB7_142
.LBB7_142:                              # %if.end605
	movl	$0, -16(%rbp)
.LBB7_143:                              # %for.cond606
                                        # =>This Loop Header: Depth=1
                                        #     Child Loop BB7_145 Depth 2
                                        #       Child Loop BB7_147 Depth 3
	movl	-16(%rbp), %eax
	movl	-36(%rbp), %ecx
	addl	$2, %ecx
	cmpl	%ecx, %eax
	jge	.LBB7_163
# %bb.144:                              # %for.body610
                                        #   in Loop: Header=BB7_143 Depth=1
	movl	$0, -28(%rbp)
.LBB7_145:                              # %for.cond611
                                        #   Parent Loop BB7_143 Depth=1
                                        # =>  This Loop Header: Depth=2
                                        #       Child Loop BB7_147 Depth 3
	movl	-28(%rbp), %eax
	movslq	-16(%rbp), %rcx
	cmpl	listXsize(,%rcx,4), %eax
	jge	.LBB7_158
# %bb.146:                              # %for.body616
                                        #   in Loop: Header=BB7_145 Depth=2
	movl	$0, -20(%rbp)
.LBB7_147:                              # %for.cond617
                                        #   Parent Loop BB7_143 Depth=1
                                        #     Parent Loop BB7_145 Depth=2
                                        # =>    This Inner Loop Header: Depth=3
	cmpl	$3, -20(%rbp)
	jge	.LBB7_153
# %bb.148:                              # %for.body620
                                        #   in Loop: Header=BB7_147 Depth=3
	movq	wp_weight, %rax
	movslq	-16(%rbp), %rcx
	movq	(%rax,%rcx,8), %rax
	movslq	-28(%rbp), %rcx
	movq	(%rax,%rcx,8), %rax
	movslq	-20(%rbp), %rcx
	movl	(%rax,%rcx,4), %eax
	cmpl	-40(%rbp), %eax
	jne	.LBB7_150
# %bb.149:                              # %lor.lhs.false629
                                        #   in Loop: Header=BB7_147 Depth=3
	movq	wp_offset, %rax
	movslq	-16(%rbp), %rcx
	movq	(%rax,%rcx,8), %rax
	movslq	-28(%rbp), %rcx
	movq	(%rax,%rcx,8), %rax
	movslq	-20(%rbp), %rcx
	cmpl	$0, (%rax,%rcx,4)
	je	.LBB7_151
.LBB7_150:                              # %if.then638
                                        #   in Loop: Header=BB7_145 Depth=2
	movl	$1, -48(%rbp)
	jmp	.LBB7_154
.LBB7_151:                              # %if.end639
                                        #   in Loop: Header=BB7_147 Depth=3
	jmp	.LBB7_152
.LBB7_152:                              # %for.inc640
                                        #   in Loop: Header=BB7_147 Depth=3
	movl	-20(%rbp), %eax
	addl	$1, %eax
	movl	%eax, -20(%rbp)
	jmp	.LBB7_147
.LBB7_153:                              # %for.end642.loopexit
                                        #   in Loop: Header=BB7_145 Depth=2
	jmp	.LBB7_154
.LBB7_154:                              # %for.end642
                                        #   in Loop: Header=BB7_145 Depth=2
	cmpl	$1, -48(%rbp)
	jne	.LBB7_156
# %bb.155:                              # %if.then645
                                        #   in Loop: Header=BB7_143 Depth=1
	jmp	.LBB7_159
.LBB7_156:                              # %if.end646
                                        #   in Loop: Header=BB7_145 Depth=2
	jmp	.LBB7_157
.LBB7_157:                              # %for.inc647
                                        #   in Loop: Header=BB7_145 Depth=2
	movl	-28(%rbp), %eax
	addl	$1, %eax
	movl	%eax, -28(%rbp)
	jmp	.LBB7_145
.LBB7_158:                              # %for.end649.loopexit
                                        #   in Loop: Header=BB7_143 Depth=1
	jmp	.LBB7_159
.LBB7_159:                              # %for.end649
                                        #   in Loop: Header=BB7_143 Depth=1
	cmpl	$1, -48(%rbp)
	jne	.LBB7_161
# %bb.160:                              # %if.then652
	jmp	.LBB7_164
.LBB7_161:                              # %if.end653
                                        #   in Loop: Header=BB7_143 Depth=1
	jmp	.LBB7_162
.LBB7_162:                              # %for.inc654
                                        #   in Loop: Header=BB7_143 Depth=1
	movl	-16(%rbp), %eax
	addl	$1, %eax
	movl	%eax, -16(%rbp)
	jmp	.LBB7_143
.LBB7_163:                              # %for.end656.loopexit
	jmp	.LBB7_164
.LBB7_164:                              # %for.end656
	movl	-48(%rbp), %ebx
	cmpl	$94769887, -88(%rbp)    # imm = 0x5A612DF
	jne	.LBB7_166
.LBB7_165:
	movl	%ebx, %eax
	addq	$35416, %rsp            # imm = 0x8A58
	popq	%rbx
	popq	%rbp
	.cfi_def_cfa %rsp, 8
	retq
.LBB7_166:                              # %func_exit
	.cfi_def_cfa %rbp, 16
	callq	detect_breach
	jmp	.LBB7_165
.Lfunc_end7:
	.size	test_wp_B_slice.4, .Lfunc_end7-test_wp_B_slice.4
	.cfi_endproc
                                        # -- End function
	.section	.rodata.cst8,"aM",@progbits,8
	.p2align	3               # -- Begin function test_wp_P_slice.5
.LCPI8_0:
	.quad	4602678819172646912     # double 0.5
	.text
	.globl	test_wp_P_slice.5
	.p2align	4, 0x90
	.type	test_wp_P_slice.5,@function
test_wp_P_slice.5:                      # @test_wp_P_slice.5
	.cfi_startproc
# %bb.0:                                # %entry
	pushq	%rbp
	.cfi_def_cfa_offset 16
	.cfi_offset %rbp, -16
	movq	%rsp, %rbp
	.cfi_def_cfa_register %rbp
	pushq	%rbx
	subq	$936, %rsp              # imm = 0x3A8
	.cfi_offset %rbx, -24
	movl	$1010155874, -60(%rbp)  # imm = 0x3C35C162
	movl	%edi, -64(%rbp)
	vxorps	%xmm0, %xmm0, %xmm0
	vmovsd	%xmm0, -56(%rbp)
	movq	img, %rax
	cmpl	$0, 72400(%rax)
	je	.LBB8_3
# %bb.1:                                # %land.lhs.true
	movq	img, %rax
	movq	14168(%rax), %rax
	movq	img, %rcx
	movslq	12(%rcx), %rcx
	imulq	$632, %rcx, %rcx        # imm = 0x278
	addq	%rcx, %rax
	cmpl	$0, 532(%rax)
	je	.LBB8_3
# %bb.2:                                # %cond.true
	movq	img, %rax
	movl	12(%rax), %eax
	cltd
	movl	$2, %ecx
	idivl	%ecx
	cmpl	$0, %edx
	movl	$4, %eax
	cmovnel	%eax, %ecx
	jmp	.LBB8_4
.LBB8_3:                                # %cond.false
	xorl	%ecx, %ecx
	jmp	.LBB8_4
.LBB8_4:                                # %cond.end
	movl	%ecx, -44(%rbp)
	movl	$0, -40(%rbp)
	movl	$5, luma_log_weight_denom
	movl	$5, chroma_log_weight_denom
	movl	luma_log_weight_denom, %ecx
	subl	$1, %ecx
                                        # kill: def $cl killed $ecx
	movl	$1, %eax
	movl	$1, %edx
	shll	%cl, %edx
	movl	%edx, wp_luma_round
	movl	chroma_log_weight_denom, %ecx
	subl	$1, %ecx
                                        # kill: def $cl killed $ecx
	movl	$1, %edx
	shll	%cl, %edx
	movl	%edx, wp_chroma_round
	movl	luma_log_weight_denom, %ecx
                                        # kill: def $cl killed $ecx
	movl	$1, %edx
	shll	%cl, %edx
	movl	%edx, -28(%rbp)
	movl	chroma_log_weight_denom, %ecx
                                        # kill: def $cl killed $ecx
	shll	%cl, %eax
	movl	%eax, -48(%rbp)
	movl	$0, -20(%rbp)
.LBB8_5:                                # %for.cond
                                        # =>This Loop Header: Depth=1
                                        #     Child Loop BB8_7 Depth 2
                                        #       Child Loop BB8_9 Depth 3
	movl	-20(%rbp), %eax
	movl	-44(%rbp), %ecx
	addl	$2, %ecx
	cmpl	%ecx, %eax
	jge	.LBB8_16
# %bb.6:                                # %for.body
                                        #   in Loop: Header=BB8_5 Depth=1
	movl	$0, -24(%rbp)
.LBB8_7:                                # %for.cond9
                                        #   Parent Loop BB8_5 Depth=1
                                        # =>  This Loop Header: Depth=2
                                        #       Child Loop BB8_9 Depth 3
	movl	-24(%rbp), %eax
	movslq	-20(%rbp), %rcx
	cmpl	listXsize(,%rcx,4), %eax
	jge	.LBB8_14
# %bb.8:                                # %for.body13
                                        #   in Loop: Header=BB8_7 Depth=2
	movl	$0, -12(%rbp)
.LBB8_9:                                # %for.cond14
                                        #   Parent Loop BB8_5 Depth=1
                                        #     Parent Loop BB8_7 Depth=2
                                        # =>    This Inner Loop Header: Depth=3
	cmpl	$3, -12(%rbp)
	jge	.LBB8_12
# %bb.10:                               # %for.body16
                                        #   in Loop: Header=BB8_9 Depth=3
	movl	-28(%rbp), %eax
	movslq	-20(%rbp), %rcx
	imulq	$180, %rcx, %rcx
	leaq	-576(%rbp), %rdx
	addq	%rcx, %rdx
	movslq	-24(%rbp), %rcx
	imulq	$12, %rcx, %rcx
	addq	%rcx, %rdx
	movslq	-12(%rbp), %rcx
	movl	%eax, (%rdx,%rcx,4)
	movl	-28(%rbp), %eax
	movq	wp_weight, %rcx
	movslq	-20(%rbp), %rdx
	movq	(%rcx,%rdx,8), %rcx
	movslq	-24(%rbp), %rdx
	movq	(%rcx,%rdx,8), %rcx
	movslq	-12(%rbp), %rdx
	movl	%eax, (%rcx,%rdx,4)
	movq	wp_offset, %rax
	movslq	-20(%rbp), %rcx
	movq	(%rax,%rcx,8), %rax
	movslq	-24(%rbp), %rcx
	movq	(%rax,%rcx,8), %rax
	movslq	-12(%rbp), %rcx
	movl	$0, (%rax,%rcx,4)
	movslq	-20(%rbp), %rax
	imulq	$180, %rax, %rax
	leaq	-944(%rbp), %rcx
	addq	%rax, %rcx
	movslq	-24(%rbp), %rax
	imulq	$12, %rax, %rax
	addq	%rax, %rcx
	movslq	-12(%rbp), %rax
	movl	$0, (%rcx,%rax,4)
# %bb.11:                               # %for.inc
                                        #   in Loop: Header=BB8_9 Depth=3
	movl	-12(%rbp), %eax
	addl	$1, %eax
	movl	%eax, -12(%rbp)
	jmp	.LBB8_9
.LBB8_12:                               # %for.end
                                        #   in Loop: Header=BB8_7 Depth=2
	jmp	.LBB8_13
.LBB8_13:                               # %for.inc41
                                        #   in Loop: Header=BB8_7 Depth=2
	movl	-24(%rbp), %eax
	addl	$1, %eax
	movl	%eax, -24(%rbp)
	jmp	.LBB8_7
.LBB8_14:                               # %for.end43
                                        #   in Loop: Header=BB8_5 Depth=1
	jmp	.LBB8_15
.LBB8_15:                               # %for.inc44
                                        #   in Loop: Header=BB8_5 Depth=1
	movl	-20(%rbp), %eax
	addl	$1, %eax
	movl	%eax, -20(%rbp)
	jmp	.LBB8_5
.LBB8_16:                               # %for.end46
	movl	$0, -20(%rbp)
.LBB8_17:                               # %for.cond47
                                        # =>This Loop Header: Depth=1
                                        #     Child Loop BB8_19 Depth 2
	movl	-20(%rbp), %eax
	movq	img, %rcx
	cmpl	60(%rcx), %eax
	jge	.LBB8_24
# %bb.18:                               # %for.body49
                                        #   in Loop: Header=BB8_17 Depth=1
	movl	$0, -24(%rbp)
.LBB8_19:                               # %for.cond50
                                        #   Parent Loop BB8_17 Depth=1
                                        # =>  This Inner Loop Header: Depth=2
	movl	-24(%rbp), %eax
	movq	img, %rcx
	cmpl	52(%rcx), %eax
	jge	.LBB8_22
# %bb.20:                               # %for.body52
                                        #   in Loop: Header=BB8_19 Depth=2
	movq	imgY_org(%rip), %rax
	movslq	-20(%rbp), %rcx
	movq	(%rax,%rcx,8), %rax
	movslq	-24(%rbp), %rcx
	movzwl	(%rax,%rcx,2), %eax
	vcvtsi2sd	%eax, %xmm0, %xmm0
	vaddsd	-56(%rbp), %xmm0, %xmm0
	vmovsd	%xmm0, -56(%rbp)
# %bb.21:                               # %for.inc58
                                        #   in Loop: Header=BB8_19 Depth=2
	movl	-24(%rbp), %eax
	addl	$1, %eax
	movl	%eax, -24(%rbp)
	jmp	.LBB8_19
.LBB8_22:                               # %for.end60
                                        #   in Loop: Header=BB8_17 Depth=1
	jmp	.LBB8_23
.LBB8_23:                               # %for.inc61
                                        #   in Loop: Header=BB8_17 Depth=1
	movl	-20(%rbp), %eax
	addl	$1, %eax
	movl	%eax, -20(%rbp)
	jmp	.LBB8_17
.LBB8_24:                               # %for.end63
	movl	$0, -16(%rbp)
.LBB8_25:                               # %for.cond64
                                        # =>This Loop Header: Depth=1
                                        #     Child Loop BB8_27 Depth 2
                                        #       Child Loop BB8_29 Depth 3
	movl	-16(%rbp), %eax
	movl	-44(%rbp), %ecx
	addl	$2, %ecx
	cmpl	%ecx, %eax
	jge	.LBB8_51
# %bb.26:                               # %for.body68
                                        #   in Loop: Header=BB8_25 Depth=1
	movl	$0, -12(%rbp)
.LBB8_27:                               # %for.cond69
                                        #   Parent Loop BB8_25 Depth=1
                                        # =>  This Loop Header: Depth=2
                                        #       Child Loop BB8_29 Depth 3
	movl	-12(%rbp), %eax
	movslq	-16(%rbp), %rcx
	cmpl	listXsize(,%rcx,4), %eax
	jge	.LBB8_49
# %bb.28:                               # %for.body74
                                        #   in Loop: Header=BB8_27 Depth=2
	movslq	-12(%rbp), %rax
	vxorps	%xmm0, %xmm0, %xmm0
	vmovsd	%xmm0, -208(%rbp,%rax,8)
	movslq	-16(%rbp), %rax
	movq	listX(,%rax,8), %rax
	movslq	-12(%rbp), %rcx
	movq	(%rax,%rcx,8), %rax
	movq	6432(%rax), %rax
	movq	%rax, -72(%rbp)
	movslq	-16(%rbp), %rax
	movq	listX(,%rax,8), %rax
	movslq	-12(%rbp), %rcx
	movq	(%rax,%rcx,8), %rax
	movq	6440(%rax), %rax
	movq	%rax, -80(%rbp)
	movl	$0, -20(%rbp)
.LBB8_29:                               # %for.cond85
                                        #   Parent Loop BB8_25 Depth=1
                                        #     Parent Loop BB8_27 Depth=2
                                        # =>    This Inner Loop Header: Depth=3
	movl	-20(%rbp), %eax
	movq	img, %rcx
	movl	60(%rcx), %ecx
	movq	img, %rdx
	imull	52(%rdx), %ecx
	cmpl	%ecx, %eax
	jge	.LBB8_32
# %bb.30:                               # %for.body90
                                        #   in Loop: Header=BB8_29 Depth=3
	movq	-72(%rbp), %rax
	movslq	-20(%rbp), %rcx
	movzwl	(%rax,%rcx,2), %eax
	vcvtsi2sd	%eax, %xmm0, %xmm0
	movslq	-12(%rbp), %rax
	vaddsd	-208(%rbp,%rax,8), %xmm0, %xmm0
	vmovsd	%xmm0, -208(%rbp,%rax,8)
# %bb.31:                               # %for.inc97
                                        #   in Loop: Header=BB8_29 Depth=3
	movl	-20(%rbp), %eax
	addl	$1, %eax
	movl	%eax, -20(%rbp)
	jmp	.LBB8_29
.LBB8_32:                               # %for.end99
                                        #   in Loop: Header=BB8_27 Depth=2
	cmpl	$0, -64(%rbp)
	jne	.LBB8_40
# %bb.33:                               # %if.then
                                        #   in Loop: Header=BB8_27 Depth=2
	movslq	-12(%rbp), %rax
	vmovsd	-208(%rbp,%rax,8), %xmm0 # xmm0 = mem[0],zero
	vxorps	%xmm1, %xmm1, %xmm1
	vucomisd	%xmm1, %xmm0
	jne	.LBB8_34
	jp	.LBB8_34
	jmp	.LBB8_35
.LBB8_34:                               # %if.then106
                                        #   in Loop: Header=BB8_27 Depth=2
	vmovsd	.LCPI8_0(%rip), %xmm0   # xmm0 = mem[0],zero
	vcvtsi2sdl	-28(%rbp), %xmm0, %xmm1
	vmulsd	-56(%rbp), %xmm1, %xmm1
	movslq	-12(%rbp), %rax
	vdivsd	-208(%rbp,%rax,8), %xmm1, %xmm1
	vaddsd	%xmm0, %xmm1, %xmm0
	vcvttsd2si	%xmm0, %eax
	movslq	-16(%rbp), %rcx
	imulq	$180, %rcx, %rcx
	leaq	-576(%rbp), %rdx
	addq	%rcx, %rdx
	movslq	-12(%rbp), %rcx
	imulq	$12, %rcx, %rcx
	addq	%rcx, %rdx
	movl	%eax, (%rdx)
	jmp	.LBB8_36
.LBB8_35:                               # %if.else
                                        #   in Loop: Header=BB8_27 Depth=2
	movl	-28(%rbp), %eax
	movslq	-16(%rbp), %rcx
	imulq	$180, %rcx, %rcx
	leaq	-576(%rbp), %rdx
	addq	%rcx, %rdx
	movslq	-12(%rbp), %rcx
	imulq	$12, %rcx, %rcx
	addq	%rcx, %rdx
	movl	%eax, (%rdx)
.LBB8_36:                               # %if.end
                                        #   in Loop: Header=BB8_27 Depth=2
	movslq	-16(%rbp), %rax
	imulq	$180, %rax, %rax
	leaq	-576(%rbp), %rcx
	addq	%rax, %rcx
	movslq	-12(%rbp), %rax
	imulq	$12, %rax, %rax
	addq	%rax, %rcx
	cmpl	$-64, (%rcx)
	jl	.LBB8_38
# %bb.37:                               # %lor.lhs.false
                                        #   in Loop: Header=BB8_27 Depth=2
	movslq	-16(%rbp), %rax
	imulq	$180, %rax, %rax
	leaq	-576(%rbp), %rcx
	addq	%rax, %rcx
	movslq	-12(%rbp), %rax
	imulq	$12, %rax, %rax
	addq	%rax, %rcx
	cmpl	$127, (%rcx)
	jle	.LBB8_39
.LBB8_38:                               # %if.then137
                                        #   in Loop: Header=BB8_27 Depth=2
	movslq	-16(%rbp), %rax
	imulq	$180, %rax, %rax
	leaq	-576(%rbp), %rcx
	addq	%rax, %rcx
	movslq	-12(%rbp), %rax
	imulq	$12, %rax, %rax
	addq	%rax, %rcx
	movl	$32, (%rcx)
.LBB8_39:                               # %if.end143
                                        #   in Loop: Header=BB8_27 Depth=2
	jmp	.LBB8_47
.LBB8_40:                               # %if.else144
                                        #   in Loop: Header=BB8_27 Depth=2
	vmovsd	.LCPI8_0(%rip), %xmm0   # xmm0 = mem[0],zero
	vmovsd	-56(%rbp), %xmm1        # xmm1 = mem[0],zero
	movslq	-12(%rbp), %rax
	vsubsd	-208(%rbp,%rax,8), %xmm1, %xmm1
	movq	img, %rax
	movl	60(%rax), %eax
	movq	img, %rcx
	imull	52(%rcx), %eax
	vcvtsi2sd	%eax, %xmm0, %xmm2
	vdivsd	%xmm2, %xmm1, %xmm1
	vaddsd	%xmm0, %xmm1, %xmm0
	vcvttsd2si	%xmm0, %eax
	movslq	-16(%rbp), %rcx
	imulq	$180, %rcx, %rcx
	leaq	-944(%rbp), %rdx
	movq	%rdx, %rsi
	addq	%rcx, %rsi
	movslq	-12(%rbp), %rcx
	imulq	$12, %rcx, %rcx
	addq	%rcx, %rsi
	movl	%eax, (%rsi)
	movslq	-16(%rbp), %rax
	imulq	$180, %rax, %rax
	addq	%rax, %rdx
	movslq	-12(%rbp), %rax
	imulq	$12, %rax, %rax
	addq	%rax, %rdx
	cmpl	$-128, (%rdx)
	jge	.LBB8_42
# %bb.41:                               # %cond.true167
                                        #   in Loop: Header=BB8_27 Depth=2
	movl	$4294967168, %eax       # imm = 0xFFFFFF80
	jmp	.LBB8_46
.LBB8_42:                               # %cond.false168
                                        #   in Loop: Header=BB8_27 Depth=2
	movslq	-16(%rbp), %rax
	imulq	$180, %rax, %rax
	leaq	-944(%rbp), %rcx
	addq	%rax, %rcx
	movslq	-12(%rbp), %rax
	imulq	$12, %rax, %rax
	addq	%rax, %rcx
	cmpl	$127, (%rcx)
	jle	.LBB8_44
# %bb.43:                               # %cond.true176
                                        #   in Loop: Header=BB8_27 Depth=2
	movl	$127, %eax
	jmp	.LBB8_45
.LBB8_44:                               # %cond.false177
                                        #   in Loop: Header=BB8_27 Depth=2
	movslq	-16(%rbp), %rax
	imulq	$180, %rax, %rax
	leaq	-944(%rbp), %rcx
	addq	%rax, %rcx
	movslq	-12(%rbp), %rax
	imulq	$12, %rax, %rax
	addq	%rax, %rcx
	movl	(%rcx), %eax
.LBB8_45:                               # %cond.end183
                                        #   in Loop: Header=BB8_27 Depth=2
.LBB8_46:                               # %cond.end185
                                        #   in Loop: Header=BB8_27 Depth=2
	movslq	-16(%rbp), %rcx
	imulq	$180, %rcx, %rcx
	leaq	-944(%rbp), %rdx
	addq	%rcx, %rdx
	movslq	-12(%rbp), %rcx
	imulq	$12, %rcx, %rcx
	addq	%rcx, %rdx
	movl	%eax, (%rdx)
	movl	-28(%rbp), %eax
	movslq	-16(%rbp), %rcx
	imulq	$180, %rcx, %rcx
	leaq	-576(%rbp), %rdx
	addq	%rcx, %rdx
	movslq	-12(%rbp), %rcx
	imulq	$12, %rcx, %rcx
	addq	%rcx, %rdx
	movl	%eax, (%rdx)
.LBB8_47:                               # %if.end197
                                        #   in Loop: Header=BB8_27 Depth=2
	movl	-48(%rbp), %eax
	movslq	-16(%rbp), %rcx
	imulq	$180, %rcx, %rcx
	leaq	-576(%rbp), %rdx
	movq	%rdx, %rsi
	addq	%rcx, %rsi
	movslq	-12(%rbp), %rcx
	imulq	$12, %rcx, %rcx
	addq	%rcx, %rsi
	movl	%eax, 4(%rsi)
	movl	-48(%rbp), %eax
	movslq	-16(%rbp), %rcx
	imulq	$180, %rcx, %rcx
	addq	%rcx, %rdx
	movslq	-12(%rbp), %rcx
	imulq	$12, %rcx, %rcx
	addq	%rcx, %rdx
	movl	%eax, 8(%rdx)
# %bb.48:                               # %for.inc208
                                        #   in Loop: Header=BB8_27 Depth=2
	movl	-12(%rbp), %eax
	addl	$1, %eax
	movl	%eax, -12(%rbp)
	jmp	.LBB8_27
.LBB8_49:                               # %for.end210
                                        #   in Loop: Header=BB8_25 Depth=1
	jmp	.LBB8_50
.LBB8_50:                               # %for.inc211
                                        #   in Loop: Header=BB8_25 Depth=1
	movl	-16(%rbp), %eax
	addl	$1, %eax
	movl	%eax, -16(%rbp)
	jmp	.LBB8_25
.LBB8_51:                               # %for.end213
	movl	$0, -16(%rbp)
.LBB8_52:                               # %for.cond214
                                        # =>This Loop Header: Depth=1
                                        #     Child Loop BB8_54 Depth 2
                                        #       Child Loop BB8_56 Depth 3
	movl	-16(%rbp), %eax
	movl	-44(%rbp), %ecx
	addl	$2, %ecx
	cmpl	%ecx, %eax
	jge	.LBB8_72
# %bb.53:                               # %for.body218
                                        #   in Loop: Header=BB8_52 Depth=1
	movl	$0, -32(%rbp)
.LBB8_54:                               # %for.cond219
                                        #   Parent Loop BB8_52 Depth=1
                                        # =>  This Loop Header: Depth=2
                                        #       Child Loop BB8_56 Depth 3
	movl	-32(%rbp), %eax
	movslq	-16(%rbp), %rcx
	cmpl	listXsize(,%rcx,4), %eax
	jge	.LBB8_67
# %bb.55:                               # %for.body224
                                        #   in Loop: Header=BB8_54 Depth=2
	movl	$0, -36(%rbp)
.LBB8_56:                               # %for.cond225
                                        #   Parent Loop BB8_52 Depth=1
                                        #     Parent Loop BB8_54 Depth=2
                                        # =>    This Inner Loop Header: Depth=3
	cmpl	$3, -36(%rbp)
	jge	.LBB8_62
# %bb.57:                               # %for.body228
                                        #   in Loop: Header=BB8_56 Depth=3
	movslq	-16(%rbp), %rax
	imulq	$180, %rax, %rax
	leaq	-576(%rbp), %rcx
	addq	%rax, %rcx
	movslq	-32(%rbp), %rax
	imulq	$12, %rax, %rax
	addq	%rax, %rcx
	movslq	-36(%rbp), %rax
	movl	(%rcx,%rax,4), %eax
	cmpl	-28(%rbp), %eax
	jne	.LBB8_59
# %bb.58:                               # %lor.lhs.false237
                                        #   in Loop: Header=BB8_56 Depth=3
	movslq	-16(%rbp), %rax
	imulq	$180, %rax, %rax
	leaq	-944(%rbp), %rcx
	addq	%rax, %rcx
	movslq	-32(%rbp), %rax
	imulq	$12, %rax, %rax
	addq	%rax, %rcx
	movslq	-36(%rbp), %rax
	cmpl	$0, (%rcx,%rax,4)
	je	.LBB8_60
.LBB8_59:                               # %if.then246
                                        #   in Loop: Header=BB8_54 Depth=2
	movl	$1, -40(%rbp)
	jmp	.LBB8_63
.LBB8_60:                               # %if.end247
                                        #   in Loop: Header=BB8_56 Depth=3
	jmp	.LBB8_61
.LBB8_61:                               # %for.inc248
                                        #   in Loop: Header=BB8_56 Depth=3
	movl	-36(%rbp), %eax
	addl	$1, %eax
	movl	%eax, -36(%rbp)
	jmp	.LBB8_56
.LBB8_62:                               # %for.end250.loopexit
                                        #   in Loop: Header=BB8_54 Depth=2
	jmp	.LBB8_63
.LBB8_63:                               # %for.end250
                                        #   in Loop: Header=BB8_54 Depth=2
	cmpl	$1, -40(%rbp)
	jne	.LBB8_65
# %bb.64:                               # %if.then253
                                        #   in Loop: Header=BB8_52 Depth=1
	jmp	.LBB8_68
.LBB8_65:                               # %if.end254
                                        #   in Loop: Header=BB8_54 Depth=2
	jmp	.LBB8_66
.LBB8_66:                               # %for.inc255
                                        #   in Loop: Header=BB8_54 Depth=2
	movl	-32(%rbp), %eax
	addl	$1, %eax
	movl	%eax, -32(%rbp)
	jmp	.LBB8_54
.LBB8_67:                               # %for.end257.loopexit
                                        #   in Loop: Header=BB8_52 Depth=1
	jmp	.LBB8_68
.LBB8_68:                               # %for.end257
                                        #   in Loop: Header=BB8_52 Depth=1
	cmpl	$1, -40(%rbp)
	jne	.LBB8_70
# %bb.69:                               # %if.then260
	jmp	.LBB8_73
.LBB8_70:                               # %if.end261
                                        #   in Loop: Header=BB8_52 Depth=1
	jmp	.LBB8_71
.LBB8_71:                               # %for.inc262
                                        #   in Loop: Header=BB8_52 Depth=1
	movl	-16(%rbp), %eax
	addl	$1, %eax
	movl	%eax, -16(%rbp)
	jmp	.LBB8_52
.LBB8_72:                               # %for.end264.loopexit
	jmp	.LBB8_73
.LBB8_73:                               # %for.end264
	movl	-40(%rbp), %ebx
	cmpl	$1010155874, -60(%rbp)  # imm = 0x3C35C162
	jne	.LBB8_75
.LBB8_74:
	movl	%ebx, %eax
	addq	$936, %rsp              # imm = 0x3A8
	popq	%rbx
	popq	%rbp
	.cfi_def_cfa %rsp, 8
	retq
.LBB8_75:                               # %func_exit
	.cfi_def_cfa %rbp, 16
	callq	detect_breach
	jmp	.LBB8_74
.Lfunc_end8:
	.size	test_wp_P_slice.5, .Lfunc_end8-test_wp_P_slice.5
	.cfi_endproc
                                        # -- End function
	.section	.rodata.cst8,"aM",@progbits,8
	.p2align	3               # -- Begin function estimate_weighting_factor_P_slice.6
.LCPI9_0:
	.quad	4602678819172646912     # double 0.5
	.text
	.globl	estimate_weighting_factor_P_slice.6
	.p2align	4, 0x90
	.type	estimate_weighting_factor_P_slice.6,@function
estimate_weighting_factor_P_slice.6:    # @estimate_weighting_factor_P_slice.6
	.cfi_startproc
# %bb.0:                                # %entry
	pushq	%rbp
	.cfi_def_cfa_offset 16
	.cfi_offset %rbp, -16
	movq	%rsp, %rbp
	.cfi_def_cfa_register %rbp
	subq	$928, %rsp              # imm = 0x3A0
	movl	$90265355, -64(%rbp)    # imm = 0x561570B
	movl	%edi, -60(%rbp)
	vxorps	%xmm0, %xmm0, %xmm0
	vmovsd	%xmm0, -56(%rbp)
	movq	img, %rax
	cmpl	$0, 72400(%rax)
	je	.LBB9_3
# %bb.1:                                # %land.lhs.true
	movq	img, %rax
	movq	14168(%rax), %rax
	movq	img, %rcx
	movslq	12(%rcx), %rcx
	imulq	$632, %rcx, %rcx        # imm = 0x278
	addq	%rcx, %rax
	cmpl	$0, 532(%rax)
	je	.LBB9_3
# %bb.2:                                # %cond.true
	movq	img, %rax
	movl	12(%rax), %eax
	cltd
	movl	$2, %ecx
	idivl	%ecx
	cmpl	$0, %edx
	movl	$4, %eax
	cmovnel	%eax, %ecx
	jmp	.LBB9_4
.LBB9_3:                                # %cond.false
	xorl	%ecx, %ecx
	jmp	.LBB9_4
.LBB9_4:                                # %cond.end
	movl	%ecx, -28(%rbp)
	movl	$5, luma_log_weight_denom
	movl	$5, chroma_log_weight_denom
	movl	luma_log_weight_denom, %ecx
	subl	$1, %ecx
                                        # kill: def $cl killed $ecx
	movl	$1, %eax
	movl	$1, %edx
	shll	%cl, %edx
	movl	%edx, wp_luma_round
	movl	chroma_log_weight_denom, %ecx
	subl	$1, %ecx
                                        # kill: def $cl killed $ecx
	movl	$1, %edx
	shll	%cl, %edx
	movl	%edx, wp_chroma_round
	movl	luma_log_weight_denom, %ecx
                                        # kill: def $cl killed $ecx
	movl	$1, %edx
	shll	%cl, %edx
	movl	%edx, -40(%rbp)
	movl	chroma_log_weight_denom, %ecx
                                        # kill: def $cl killed $ecx
	shll	%cl, %eax
	movl	%eax, -32(%rbp)
	movl	%eax, -36(%rbp)
	movl	$0, -12(%rbp)
.LBB9_5:                                # %for.cond
                                        # =>This Loop Header: Depth=1
                                        #     Child Loop BB9_7 Depth 2
                                        #       Child Loop BB9_9 Depth 3
	movl	-12(%rbp), %eax
	movl	-28(%rbp), %ecx
	addl	$2, %ecx
	cmpl	%ecx, %eax
	jge	.LBB9_16
# %bb.6:                                # %for.body
                                        #   in Loop: Header=BB9_5 Depth=1
	movl	$0, -16(%rbp)
.LBB9_7:                                # %for.cond12
                                        #   Parent Loop BB9_5 Depth=1
                                        # =>  This Loop Header: Depth=2
                                        #       Child Loop BB9_9 Depth 3
	movl	-16(%rbp), %eax
	movslq	-12(%rbp), %rcx
	cmpl	listXsize(,%rcx,4), %eax
	jge	.LBB9_14
# %bb.8:                                # %for.body16
                                        #   in Loop: Header=BB9_7 Depth=2
	movl	$0, -4(%rbp)
.LBB9_9:                                # %for.cond17
                                        #   Parent Loop BB9_5 Depth=1
                                        #     Parent Loop BB9_7 Depth=2
                                        # =>    This Inner Loop Header: Depth=3
	cmpl	$3, -4(%rbp)
	jge	.LBB9_12
# %bb.10:                               # %for.body19
                                        #   in Loop: Header=BB9_9 Depth=3
	movslq	-4(%rbp), %rax
	movl	-40(%rbp,%rax,4), %eax
	movslq	-12(%rbp), %rcx
	imulq	$180, %rcx, %rcx
	leaq	-560(%rbp), %rdx
	addq	%rcx, %rdx
	movslq	-16(%rbp), %rcx
	imulq	$12, %rcx, %rcx
	addq	%rcx, %rdx
	movslq	-4(%rbp), %rcx
	movl	%eax, (%rdx,%rcx,4)
	movslq	-4(%rbp), %rax
	movl	-40(%rbp,%rax,4), %eax
	movq	wp_weight, %rcx
	movslq	-12(%rbp), %rdx
	movq	(%rcx,%rdx,8), %rcx
	movslq	-16(%rbp), %rdx
	movq	(%rcx,%rdx,8), %rcx
	movslq	-4(%rbp), %rdx
	movl	%eax, (%rcx,%rdx,4)
	movq	wp_offset, %rax
	movslq	-12(%rbp), %rcx
	movq	(%rax,%rcx,8), %rax
	movslq	-16(%rbp), %rcx
	movq	(%rax,%rcx,8), %rax
	movslq	-4(%rbp), %rcx
	movl	$0, (%rax,%rcx,4)
	movslq	-12(%rbp), %rax
	imulq	$180, %rax, %rax
	leaq	-928(%rbp), %rcx
	addq	%rax, %rcx
	movslq	-16(%rbp), %rax
	imulq	$12, %rax, %rax
	addq	%rax, %rcx
	movslq	-4(%rbp), %rax
	movl	$0, (%rcx,%rax,4)
# %bb.11:                               # %for.inc
                                        #   in Loop: Header=BB9_9 Depth=3
	movl	-4(%rbp), %eax
	addl	$1, %eax
	movl	%eax, -4(%rbp)
	jmp	.LBB9_9
.LBB9_12:                               # %for.end
                                        #   in Loop: Header=BB9_7 Depth=2
	jmp	.LBB9_13
.LBB9_13:                               # %for.inc48
                                        #   in Loop: Header=BB9_7 Depth=2
	movl	-16(%rbp), %eax
	addl	$1, %eax
	movl	%eax, -16(%rbp)
	jmp	.LBB9_7
.LBB9_14:                               # %for.end50
                                        #   in Loop: Header=BB9_5 Depth=1
	jmp	.LBB9_15
.LBB9_15:                               # %for.inc51
                                        #   in Loop: Header=BB9_5 Depth=1
	movl	-12(%rbp), %eax
	addl	$1, %eax
	movl	%eax, -12(%rbp)
	jmp	.LBB9_5
.LBB9_16:                               # %for.end53
	movl	$0, -12(%rbp)
.LBB9_17:                               # %for.cond54
                                        # =>This Loop Header: Depth=1
                                        #     Child Loop BB9_19 Depth 2
	movl	-12(%rbp), %eax
	movq	img, %rcx
	cmpl	60(%rcx), %eax
	jge	.LBB9_24
# %bb.18:                               # %for.body56
                                        #   in Loop: Header=BB9_17 Depth=1
	movl	$0, -16(%rbp)
.LBB9_19:                               # %for.cond57
                                        #   Parent Loop BB9_17 Depth=1
                                        # =>  This Inner Loop Header: Depth=2
	movl	-16(%rbp), %eax
	movq	img, %rcx
	cmpl	52(%rcx), %eax
	jge	.LBB9_22
# %bb.20:                               # %for.body59
                                        #   in Loop: Header=BB9_19 Depth=2
	movq	imgY_org(%rip), %rax
	movslq	-12(%rbp), %rcx
	movq	(%rax,%rcx,8), %rax
	movslq	-16(%rbp), %rcx
	movzwl	(%rax,%rcx,2), %eax
	vcvtsi2sd	%eax, %xmm0, %xmm0
	vaddsd	-56(%rbp), %xmm0, %xmm0
	vmovsd	%xmm0, -56(%rbp)
# %bb.21:                               # %for.inc65
                                        #   in Loop: Header=BB9_19 Depth=2
	movl	-16(%rbp), %eax
	addl	$1, %eax
	movl	%eax, -16(%rbp)
	jmp	.LBB9_19
.LBB9_22:                               # %for.end67
                                        #   in Loop: Header=BB9_17 Depth=1
	jmp	.LBB9_23
.LBB9_23:                               # %for.inc68
                                        #   in Loop: Header=BB9_17 Depth=1
	movl	-12(%rbp), %eax
	addl	$1, %eax
	movl	%eax, -12(%rbp)
	jmp	.LBB9_17
.LBB9_24:                               # %for.end70
	movl	$0, -8(%rbp)
.LBB9_25:                               # %for.cond71
                                        # =>This Loop Header: Depth=1
                                        #     Child Loop BB9_27 Depth 2
                                        #       Child Loop BB9_29 Depth 3
                                        #       Child Loop BB9_48 Depth 3
                                        #       Child Loop BB9_58 Depth 3
                                        #         Child Loop BB9_60 Depth 4
	movl	-8(%rbp), %eax
	movl	-28(%rbp), %ecx
	addl	$2, %ecx
	cmpl	%ecx, %eax
	jge	.LBB9_75
# %bb.26:                               # %for.body75
                                        #   in Loop: Header=BB9_25 Depth=1
	movl	$0, -4(%rbp)
.LBB9_27:                               # %for.cond76
                                        #   Parent Loop BB9_25 Depth=1
                                        # =>  This Loop Header: Depth=2
                                        #       Child Loop BB9_29 Depth 3
                                        #       Child Loop BB9_48 Depth 3
                                        #       Child Loop BB9_58 Depth 3
                                        #         Child Loop BB9_60 Depth 4
	movl	-4(%rbp), %eax
	movslq	-8(%rbp), %rcx
	cmpl	listXsize(,%rcx,4), %eax
	jge	.LBB9_73
# %bb.28:                               # %for.body81
                                        #   in Loop: Header=BB9_27 Depth=2
	movslq	-4(%rbp), %rax
	vxorps	%xmm0, %xmm0, %xmm0
	vmovsd	%xmm0, -192(%rbp,%rax,8)
	movslq	-8(%rbp), %rax
	movq	listX(,%rax,8), %rax
	movslq	-4(%rbp), %rcx
	movq	(%rax,%rcx,8), %rax
	movq	6432(%rax), %rax
	movq	%rax, -48(%rbp)
	movslq	-8(%rbp), %rax
	movq	listX(,%rax,8), %rax
	movslq	-4(%rbp), %rcx
	movq	(%rax,%rcx,8), %rax
	movq	6440(%rax), %rax
	movq	%rax, -72(%rbp)
	movl	$0, -12(%rbp)
.LBB9_29:                               # %for.cond92
                                        #   Parent Loop BB9_25 Depth=1
                                        #     Parent Loop BB9_27 Depth=2
                                        # =>    This Inner Loop Header: Depth=3
	movl	-12(%rbp), %eax
	movq	img, %rcx
	movl	60(%rcx), %ecx
	movq	img, %rdx
	imull	52(%rdx), %ecx
	cmpl	%ecx, %eax
	jge	.LBB9_32
# %bb.30:                               # %for.body97
                                        #   in Loop: Header=BB9_29 Depth=3
	movq	-48(%rbp), %rax
	movslq	-12(%rbp), %rcx
	movzwl	(%rax,%rcx,2), %eax
	vcvtsi2sd	%eax, %xmm0, %xmm0
	movslq	-4(%rbp), %rax
	vaddsd	-192(%rbp,%rax,8), %xmm0, %xmm0
	vmovsd	%xmm0, -192(%rbp,%rax,8)
# %bb.31:                               # %for.inc104
                                        #   in Loop: Header=BB9_29 Depth=3
	movl	-12(%rbp), %eax
	addl	$1, %eax
	movl	%eax, -12(%rbp)
	jmp	.LBB9_29
.LBB9_32:                               # %for.end106
                                        #   in Loop: Header=BB9_27 Depth=2
	vcvtsi2sdl	-60(%rbp), %xmm0, %xmm0
	vxorps	%xmm1, %xmm1, %xmm1
	vucomisd	%xmm1, %xmm0
	jne	.LBB9_40
	jp	.LBB9_40
# %bb.33:                               # %if.then
                                        #   in Loop: Header=BB9_27 Depth=2
	movslq	-4(%rbp), %rax
	vmovsd	-192(%rbp,%rax,8), %xmm0 # xmm0 = mem[0],zero
	vxorps	%xmm1, %xmm1, %xmm1
	vucomisd	%xmm1, %xmm0
	jne	.LBB9_34
	jp	.LBB9_34
	jmp	.LBB9_35
.LBB9_34:                               # %if.then114
                                        #   in Loop: Header=BB9_27 Depth=2
	vmovsd	.LCPI9_0(%rip), %xmm0   # xmm0 = mem[0],zero
	vcvtsi2sdl	-40(%rbp), %xmm0, %xmm1
	vmulsd	-56(%rbp), %xmm1, %xmm1
	movslq	-4(%rbp), %rax
	vdivsd	-192(%rbp,%rax,8), %xmm1, %xmm1
	vaddsd	%xmm0, %xmm1, %xmm0
	vcvttsd2si	%xmm0, %eax
	movslq	-8(%rbp), %rcx
	imulq	$180, %rcx, %rcx
	leaq	-560(%rbp), %rdx
	addq	%rcx, %rdx
	movslq	-4(%rbp), %rcx
	imulq	$12, %rcx, %rcx
	addq	%rcx, %rdx
	movl	%eax, (%rdx)
	jmp	.LBB9_36
.LBB9_35:                               # %if.else
                                        #   in Loop: Header=BB9_27 Depth=2
	movl	-40(%rbp), %eax
	movslq	-8(%rbp), %rcx
	imulq	$180, %rcx, %rcx
	leaq	-560(%rbp), %rdx
	addq	%rcx, %rdx
	movslq	-4(%rbp), %rcx
	imulq	$12, %rcx, %rcx
	addq	%rcx, %rdx
	movl	%eax, (%rdx)
.LBB9_36:                               # %if.end
                                        #   in Loop: Header=BB9_27 Depth=2
	movslq	-8(%rbp), %rax
	imulq	$180, %rax, %rax
	leaq	-560(%rbp), %rcx
	addq	%rax, %rcx
	movslq	-4(%rbp), %rax
	imulq	$12, %rax, %rax
	addq	%rax, %rcx
	cmpl	$-64, (%rcx)
	jl	.LBB9_38
# %bb.37:                               # %lor.lhs.false
                                        #   in Loop: Header=BB9_27 Depth=2
	movslq	-8(%rbp), %rax
	imulq	$180, %rax, %rax
	leaq	-560(%rbp), %rcx
	addq	%rax, %rcx
	movslq	-4(%rbp), %rax
	imulq	$12, %rax, %rax
	addq	%rax, %rcx
	cmpl	$127, (%rcx)
	jle	.LBB9_39
.LBB9_38:                               # %if.then147
                                        #   in Loop: Header=BB9_27 Depth=2
	movl	-40(%rbp), %eax
	movslq	-8(%rbp), %rcx
	imulq	$180, %rcx, %rcx
	leaq	-560(%rbp), %rdx
	addq	%rcx, %rdx
	movslq	-4(%rbp), %rcx
	imulq	$12, %rcx, %rcx
	addq	%rcx, %rdx
	movl	%eax, (%rdx)
.LBB9_39:                               # %if.end154
                                        #   in Loop: Header=BB9_27 Depth=2
	jmp	.LBB9_47
.LBB9_40:                               # %if.else155
                                        #   in Loop: Header=BB9_27 Depth=2
	vmovsd	.LCPI9_0(%rip), %xmm0   # xmm0 = mem[0],zero
	vmovsd	-56(%rbp), %xmm1        # xmm1 = mem[0],zero
	movslq	-4(%rbp), %rax
	vsubsd	-192(%rbp,%rax,8), %xmm1, %xmm1
	movq	img, %rax
	movl	60(%rax), %eax
	movq	img, %rcx
	imull	52(%rcx), %eax
	vcvtsi2sd	%eax, %xmm0, %xmm2
	vdivsd	%xmm2, %xmm1, %xmm1
	vaddsd	%xmm0, %xmm1, %xmm0
	vcvttsd2si	%xmm0, %eax
	movslq	-8(%rbp), %rcx
	imulq	$180, %rcx, %rcx
	leaq	-928(%rbp), %rdx
	movq	%rdx, %rsi
	addq	%rcx, %rsi
	movslq	-4(%rbp), %rcx
	imulq	$12, %rcx, %rcx
	addq	%rcx, %rsi
	movl	%eax, (%rsi)
	movslq	-8(%rbp), %rax
	imulq	$180, %rax, %rax
	addq	%rax, %rdx
	movslq	-4(%rbp), %rax
	imulq	$12, %rax, %rax
	addq	%rax, %rdx
	cmpl	$-128, (%rdx)
	jge	.LBB9_42
# %bb.41:                               # %cond.true178
                                        #   in Loop: Header=BB9_27 Depth=2
	movl	$4294967168, %eax       # imm = 0xFFFFFF80
	jmp	.LBB9_46
.LBB9_42:                               # %cond.false179
                                        #   in Loop: Header=BB9_27 Depth=2
	movslq	-8(%rbp), %rax
	imulq	$180, %rax, %rax
	leaq	-928(%rbp), %rcx
	addq	%rax, %rcx
	movslq	-4(%rbp), %rax
	imulq	$12, %rax, %rax
	addq	%rax, %rcx
	cmpl	$127, (%rcx)
	jle	.LBB9_44
# %bb.43:                               # %cond.true187
                                        #   in Loop: Header=BB9_27 Depth=2
	movl	$127, %eax
	jmp	.LBB9_45
.LBB9_44:                               # %cond.false188
                                        #   in Loop: Header=BB9_27 Depth=2
	movslq	-8(%rbp), %rax
	imulq	$180, %rax, %rax
	leaq	-928(%rbp), %rcx
	addq	%rax, %rcx
	movslq	-4(%rbp), %rax
	imulq	$12, %rax, %rax
	addq	%rax, %rcx
	movl	(%rcx), %eax
.LBB9_45:                               # %cond.end194
                                        #   in Loop: Header=BB9_27 Depth=2
.LBB9_46:                               # %cond.end196
                                        #   in Loop: Header=BB9_27 Depth=2
	movslq	-8(%rbp), %rcx
	imulq	$180, %rcx, %rcx
	leaq	-928(%rbp), %rdx
	addq	%rcx, %rdx
	movslq	-4(%rbp), %rcx
	imulq	$12, %rcx, %rcx
	addq	%rcx, %rdx
	movl	%eax, (%rdx)
	movl	-40(%rbp), %eax
	movslq	-8(%rbp), %rcx
	imulq	$180, %rcx, %rcx
	leaq	-560(%rbp), %rdx
	addq	%rcx, %rdx
	movslq	-4(%rbp), %rcx
	imulq	$12, %rcx, %rcx
	addq	%rcx, %rdx
	movl	%eax, (%rdx)
.LBB9_47:                               # %if.end209
                                        #   in Loop: Header=BB9_27 Depth=2
	movl	-36(%rbp), %eax
	movslq	-8(%rbp), %rcx
	imulq	$180, %rcx, %rcx
	leaq	-560(%rbp), %rdx
	movq	%rdx, %rsi
	addq	%rcx, %rsi
	movslq	-4(%rbp), %rcx
	imulq	$12, %rcx, %rcx
	addq	%rcx, %rsi
	movl	%eax, 4(%rsi)
	movl	-32(%rbp), %eax
	movslq	-8(%rbp), %rcx
	imulq	$180, %rcx, %rcx
	addq	%rcx, %rdx
	movslq	-4(%rbp), %rcx
	imulq	$12, %rcx, %rcx
	addq	%rcx, %rdx
	movl	%eax, 8(%rdx)
	movl	$0, -12(%rbp)
.LBB9_48:                               # %for.cond222
                                        #   Parent Loop BB9_25 Depth=1
                                        #     Parent Loop BB9_27 Depth=2
                                        # =>    This Inner Loop Header: Depth=3
	movl	-12(%rbp), %eax
	movq	img, %rcx
	movl	60(%rcx), %ecx
	movq	img, %rdx
	imull	52(%rdx), %ecx
	cmpl	%ecx, %eax
	jge	.LBB9_57
# %bb.49:                               # %for.body228
                                        #   in Loop: Header=BB9_48 Depth=3
	movq	-48(%rbp), %rax
	movslq	-12(%rbp), %rcx
	movzwl	(%rax,%rcx,2), %eax
	movslq	-8(%rbp), %rcx
	imulq	$180, %rcx, %rcx
	leaq	-560(%rbp), %rdx
	addq	%rcx, %rdx
	movslq	-4(%rbp), %rcx
	imulq	$12, %rcx, %rcx
	addq	%rcx, %rdx
	imull	(%rdx), %eax
	addl	wp_luma_round, %eax
	movl	luma_log_weight_denom, %ecx
                                        # kill: def $cl killed $ecx
	sarl	%cl, %eax
	movslq	-8(%rbp), %rcx
	imulq	$180, %rcx, %rcx
	leaq	-928(%rbp), %rdx
	addq	%rcx, %rdx
	movslq	-4(%rbp), %rcx
	imulq	$12, %rcx, %rcx
	addq	%rcx, %rdx
	addl	(%rdx), %eax
	cmpl	$0, %eax
	jge	.LBB9_51
# %bb.50:                               # %cond.true247
                                        #   in Loop: Header=BB9_48 Depth=3
	xorl	%eax, %eax
	jmp	.LBB9_55
.LBB9_51:                               # %cond.false248
                                        #   in Loop: Header=BB9_48 Depth=3
	movq	-48(%rbp), %rax
	movslq	-12(%rbp), %rcx
	movzwl	(%rax,%rcx,2), %eax
	movslq	-8(%rbp), %rcx
	imulq	$180, %rcx, %rcx
	leaq	-560(%rbp), %rdx
	addq	%rcx, %rdx
	movslq	-4(%rbp), %rcx
	imulq	$12, %rcx, %rcx
	addq	%rcx, %rdx
	imull	(%rdx), %eax
	addl	wp_luma_round, %eax
	movl	luma_log_weight_denom, %ecx
                                        # kill: def $cl killed $ecx
	sarl	%cl, %eax
	movslq	-8(%rbp), %rcx
	imulq	$180, %rcx, %rcx
	leaq	-928(%rbp), %rdx
	addq	%rcx, %rdx
	movslq	-4(%rbp), %rcx
	imulq	$12, %rcx, %rcx
	addq	%rcx, %rdx
	addl	(%rdx), %eax
	movq	img, %rcx
	cmpl	72684(%rcx), %eax
	jle	.LBB9_53
# %bb.52:                               # %cond.true268
                                        #   in Loop: Header=BB9_48 Depth=3
	movq	img, %rax
	movl	72684(%rax), %eax
	jmp	.LBB9_54
.LBB9_53:                               # %cond.false270
                                        #   in Loop: Header=BB9_48 Depth=3
	movq	-48(%rbp), %rax
	movslq	-12(%rbp), %rcx
	movzwl	(%rax,%rcx,2), %eax
	movslq	-8(%rbp), %rcx
	imulq	$180, %rcx, %rcx
	leaq	-560(%rbp), %rdx
	addq	%rcx, %rdx
	movslq	-4(%rbp), %rcx
	imulq	$12, %rcx, %rcx
	addq	%rcx, %rdx
	imull	(%rdx), %eax
	addl	wp_luma_round, %eax
	movl	luma_log_weight_denom, %ecx
                                        # kill: def $cl killed $ecx
	sarl	%cl, %eax
	movslq	-8(%rbp), %rcx
	imulq	$180, %rcx, %rcx
	leaq	-928(%rbp), %rdx
	addq	%rcx, %rdx
	movslq	-4(%rbp), %rcx
	imulq	$12, %rcx, %rcx
	addq	%rcx, %rdx
	addl	(%rdx), %eax
.LBB9_54:                               # %cond.end288
                                        #   in Loop: Header=BB9_48 Depth=3
.LBB9_55:                               # %cond.end290
                                        #   in Loop: Header=BB9_48 Depth=3
	movq	-72(%rbp), %rcx
	movslq	-12(%rbp), %rdx
	movw	%ax, (%rcx,%rdx,2)
# %bb.56:                               # %for.inc295
                                        #   in Loop: Header=BB9_48 Depth=3
	movl	-12(%rbp), %eax
	addl	$1, %eax
	movl	%eax, -12(%rbp)
	jmp	.LBB9_48
.LBB9_57:                               # %for.end297
                                        #   in Loop: Header=BB9_27 Depth=2
	movl	$0, -12(%rbp)
.LBB9_58:                               # %for.cond298
                                        #   Parent Loop BB9_25 Depth=1
                                        #     Parent Loop BB9_27 Depth=2
                                        # =>    This Loop Header: Depth=3
                                        #         Child Loop BB9_60 Depth 4
	movl	-12(%rbp), %eax
	movq	img, %rcx
	movl	60(%rcx), %ecx
	addl	$8, %ecx
	shll	$2, %ecx
	cmpl	%ecx, %eax
	jge	.LBB9_71
# %bb.59:                               # %for.body304
                                        #   in Loop: Header=BB9_58 Depth=3
	movl	$0, -16(%rbp)
.LBB9_60:                               # %for.cond305
                                        #   Parent Loop BB9_25 Depth=1
                                        #     Parent Loop BB9_27 Depth=2
                                        #       Parent Loop BB9_58 Depth=3
                                        # =>      This Inner Loop Header: Depth=4
	movl	-16(%rbp), %eax
	movq	img, %rcx
	movl	52(%rcx), %ecx
	addl	$8, %ecx
	shll	$2, %ecx
	cmpl	%ecx, %eax
	jge	.LBB9_69
# %bb.61:                               # %for.body311
                                        #   in Loop: Header=BB9_60 Depth=4
	movq	listX, %rax
	movslq	-4(%rbp), %rcx
	movq	(%rax,%rcx,8), %rax
	movq	6448(%rax), %rax
	movslq	-12(%rbp), %rcx
	movq	(%rax,%rcx,8), %rax
	movslq	-16(%rbp), %rcx
	movzwl	(%rax,%rcx,2), %eax
	movslq	-8(%rbp), %rcx
	imulq	$180, %rcx, %rcx
	leaq	-560(%rbp), %rdx
	addq	%rcx, %rdx
	movslq	-4(%rbp), %rcx
	imulq	$12, %rcx, %rcx
	addq	%rcx, %rdx
	imull	(%rdx), %eax
	addl	wp_luma_round, %eax
	movl	luma_log_weight_denom, %ecx
                                        # kill: def $cl killed $ecx
	sarl	%cl, %eax
	movslq	-8(%rbp), %rcx
	imulq	$180, %rcx, %rcx
	leaq	-928(%rbp), %rdx
	addq	%rcx, %rdx
	movslq	-4(%rbp), %rcx
	imulq	$12, %rcx, %rcx
	addq	%rcx, %rdx
	addl	(%rdx), %eax
	cmpl	$0, %eax
	jge	.LBB9_63
# %bb.62:                               # %cond.true335
                                        #   in Loop: Header=BB9_60 Depth=4
	xorl	%eax, %eax
	jmp	.LBB9_67
.LBB9_63:                               # %cond.false336
                                        #   in Loop: Header=BB9_60 Depth=4
	movq	listX, %rax
	movslq	-4(%rbp), %rcx
	movq	(%rax,%rcx,8), %rax
	movq	6448(%rax), %rax
	movslq	-12(%rbp), %rcx
	movq	(%rax,%rcx,8), %rax
	movslq	-16(%rbp), %rcx
	movzwl	(%rax,%rcx,2), %eax
	movslq	-8(%rbp), %rcx
	imulq	$180, %rcx, %rcx
	leaq	-560(%rbp), %rdx
	addq	%rcx, %rdx
	movslq	-4(%rbp), %rcx
	imulq	$12, %rcx, %rcx
	addq	%rcx, %rdx
	imull	(%rdx), %eax
	addl	wp_luma_round, %eax
	movl	luma_log_weight_denom, %ecx
                                        # kill: def $cl killed $ecx
	sarl	%cl, %eax
	movslq	-8(%rbp), %rcx
	imulq	$180, %rcx, %rcx
	leaq	-928(%rbp), %rdx
	addq	%rcx, %rdx
	movslq	-4(%rbp), %rcx
	imulq	$12, %rcx, %rcx
	addq	%rcx, %rdx
	addl	(%rdx), %eax
	movq	img, %rcx
	cmpl	72684(%rcx), %eax
	jle	.LBB9_65
# %bb.64:                               # %cond.true362
                                        #   in Loop: Header=BB9_60 Depth=4
	movq	img, %rax
	movl	72684(%rax), %eax
	jmp	.LBB9_66
.LBB9_65:                               # %cond.false364
                                        #   in Loop: Header=BB9_60 Depth=4
	movq	listX, %rax
	movslq	-4(%rbp), %rcx
	movq	(%rax,%rcx,8), %rax
	movq	6448(%rax), %rax
	movslq	-12(%rbp), %rcx
	movq	(%rax,%rcx,8), %rax
	movslq	-16(%rbp), %rcx
	movzwl	(%rax,%rcx,2), %eax
	movslq	-8(%rbp), %rcx
	imulq	$180, %rcx, %rcx
	leaq	-560(%rbp), %rdx
	addq	%rcx, %rdx
	movslq	-4(%rbp), %rcx
	imulq	$12, %rcx, %rcx
	addq	%rcx, %rdx
	imull	(%rdx), %eax
	addl	wp_luma_round, %eax
	movl	luma_log_weight_denom, %ecx
                                        # kill: def $cl killed $ecx
	sarl	%cl, %eax
	movslq	-8(%rbp), %rcx
	imulq	$180, %rcx, %rcx
	leaq	-928(%rbp), %rdx
	addq	%rcx, %rdx
	movslq	-4(%rbp), %rcx
	imulq	$12, %rcx, %rcx
	addq	%rcx, %rdx
	addl	(%rdx), %eax
.LBB9_66:                               # %cond.end387
                                        #   in Loop: Header=BB9_60 Depth=4
.LBB9_67:                               # %cond.end389
                                        #   in Loop: Header=BB9_60 Depth=4
	movq	listX, %rcx
	movslq	-4(%rbp), %rdx
	movq	(%rcx,%rdx,8), %rcx
	movq	6456(%rcx), %rcx
	movslq	-12(%rbp), %rdx
	movq	(%rcx,%rdx,8), %rcx
	movslq	-16(%rbp), %rdx
	movw	%ax, (%rcx,%rdx,2)
# %bb.68:                               # %for.inc398
                                        #   in Loop: Header=BB9_60 Depth=4
	movl	-16(%rbp), %eax
	addl	$1, %eax
	movl	%eax, -16(%rbp)
	jmp	.LBB9_60
.LBB9_69:                               # %for.end400
                                        #   in Loop: Header=BB9_58 Depth=3
	jmp	.LBB9_70
.LBB9_70:                               # %for.inc401
                                        #   in Loop: Header=BB9_58 Depth=3
	movl	-12(%rbp), %eax
	addl	$1, %eax
	movl	%eax, -12(%rbp)
	jmp	.LBB9_58
.LBB9_71:                               # %for.end403
                                        #   in Loop: Header=BB9_27 Depth=2
	jmp	.LBB9_72
.LBB9_72:                               # %for.inc404
                                        #   in Loop: Header=BB9_27 Depth=2
	movl	-4(%rbp), %eax
	addl	$1, %eax
	movl	%eax, -4(%rbp)
	jmp	.LBB9_27
.LBB9_73:                               # %for.end406
                                        #   in Loop: Header=BB9_25 Depth=1
	jmp	.LBB9_74
.LBB9_74:                               # %for.inc407
                                        #   in Loop: Header=BB9_25 Depth=1
	movl	-8(%rbp), %eax
	addl	$1, %eax
	movl	%eax, -8(%rbp)
	jmp	.LBB9_25
.LBB9_75:                               # %for.end409
	movl	$0, -8(%rbp)
.LBB9_76:                               # %for.cond410
                                        # =>This Loop Header: Depth=1
                                        #     Child Loop BB9_78 Depth 2
                                        #       Child Loop BB9_80 Depth 3
	movl	-8(%rbp), %eax
	movl	-28(%rbp), %ecx
	addl	$2, %ecx
	cmpl	%ecx, %eax
	jge	.LBB9_87
# %bb.77:                               # %for.body414
                                        #   in Loop: Header=BB9_76 Depth=1
	movl	$0, -20(%rbp)
.LBB9_78:                               # %for.cond415
                                        #   Parent Loop BB9_76 Depth=1
                                        # =>  This Loop Header: Depth=2
                                        #       Child Loop BB9_80 Depth 3
	movl	-20(%rbp), %eax
	movslq	-8(%rbp), %rcx
	cmpl	listXsize(,%rcx,4), %eax
	jge	.LBB9_85
# %bb.79:                               # %for.body420
                                        #   in Loop: Header=BB9_78 Depth=2
	movl	$0, -24(%rbp)
.LBB9_80:                               # %for.cond421
                                        #   Parent Loop BB9_76 Depth=1
                                        #     Parent Loop BB9_78 Depth=2
                                        # =>    This Inner Loop Header: Depth=3
	cmpl	$3, -24(%rbp)
	jge	.LBB9_83
# %bb.81:                               # %for.body424
                                        #   in Loop: Header=BB9_80 Depth=3
	movslq	-8(%rbp), %rax
	imulq	$180, %rax, %rax
	leaq	-560(%rbp), %rcx
	addq	%rax, %rcx
	movslq	-20(%rbp), %rax
	imulq	$12, %rax, %rax
	addq	%rax, %rcx
	movslq	-24(%rbp), %rax
	movl	(%rcx,%rax,4), %eax
	movq	wp_weight, %rcx
	movslq	-8(%rbp), %rdx
	movq	(%rcx,%rdx,8), %rcx
	movslq	-20(%rbp), %rdx
	movq	(%rcx,%rdx,8), %rcx
	movslq	-24(%rbp), %rdx
	movl	%eax, (%rcx,%rdx,4)
	movslq	-8(%rbp), %rax
	imulq	$180, %rax, %rax
	leaq	-928(%rbp), %rcx
	addq	%rax, %rcx
	movslq	-20(%rbp), %rax
	imulq	$12, %rax, %rax
	addq	%rax, %rcx
	movslq	-24(%rbp), %rax
	movl	(%rcx,%rax,4), %eax
	movq	wp_offset, %rcx
	movslq	-8(%rbp), %rdx
	movq	(%rcx,%rdx,8), %rcx
	movslq	-20(%rbp), %rdx
	movq	(%rcx,%rdx,8), %rcx
	movslq	-24(%rbp), %rdx
	movl	%eax, (%rcx,%rdx,4)
# %bb.82:                               # %for.inc449
                                        #   in Loop: Header=BB9_80 Depth=3
	movl	-24(%rbp), %eax
	addl	$1, %eax
	movl	%eax, -24(%rbp)
	jmp	.LBB9_80
.LBB9_83:                               # %for.end451
                                        #   in Loop: Header=BB9_78 Depth=2
	jmp	.LBB9_84
.LBB9_84:                               # %for.inc452
                                        #   in Loop: Header=BB9_78 Depth=2
	movl	-20(%rbp), %eax
	addl	$1, %eax
	movl	%eax, -20(%rbp)
	jmp	.LBB9_78
.LBB9_85:                               # %for.end454
                                        #   in Loop: Header=BB9_76 Depth=1
	jmp	.LBB9_86
.LBB9_86:                               # %for.inc455
                                        #   in Loop: Header=BB9_76 Depth=1
	movl	-8(%rbp), %eax
	addl	$1, %eax
	movl	%eax, -8(%rbp)
	jmp	.LBB9_76
.LBB9_87:                               # %for.end457
	cmpl	$90265355, -64(%rbp)    # imm = 0x561570B
	jne	.LBB9_89
.LBB9_88:
	addq	$928, %rsp              # imm = 0x3A0
	popq	%rbp
	.cfi_def_cfa %rsp, 8
	retq
.LBB9_89:                               # %func_exit
	.cfi_def_cfa %rbp, 16
	callq	detect_breach
	jmp	.LBB9_88
.Lfunc_end9:
	.size	estimate_weighting_factor_P_slice.6, .Lfunc_end9-estimate_weighting_factor_P_slice.6
	.cfi_endproc
                                        # -- End function
	.section	.rodata.cst8,"aM",@progbits,8
	.p2align	3               # -- Begin function estimate_weighting_factor_P_slice.7
.LCPI10_0:
	.quad	4602678819172646912     # double 0.5
	.text
	.globl	estimate_weighting_factor_P_slice.7
	.p2align	4, 0x90
	.type	estimate_weighting_factor_P_slice.7,@function
estimate_weighting_factor_P_slice.7:    # @estimate_weighting_factor_P_slice.7
	.cfi_startproc
# %bb.0:                                # %entry
	pushq	%rbp
	.cfi_def_cfa_offset 16
	.cfi_offset %rbp, -16
	movq	%rsp, %rbp
	.cfi_def_cfa_register %rbp
	subq	$928, %rsp              # imm = 0x3A0
	movl	$288746313, -60(%rbp)   # imm = 0x1135EB49
	movl	%edi, -64(%rbp)
	vxorps	%xmm0, %xmm0, %xmm0
	vmovsd	%xmm0, -56(%rbp)
	movq	img, %rax
	cmpl	$0, 72400(%rax)
	je	.LBB10_3
# %bb.1:                                # %land.lhs.true
	movq	img, %rax
	movq	14168(%rax), %rax
	movq	img, %rcx
	movslq	12(%rcx), %rcx
	imulq	$632, %rcx, %rcx        # imm = 0x278
	addq	%rcx, %rax
	cmpl	$0, 532(%rax)
	je	.LBB10_3
# %bb.2:                                # %cond.true
	movq	img, %rax
	movl	12(%rax), %eax
	cltd
	movl	$2, %ecx
	idivl	%ecx
	cmpl	$0, %edx
	movl	$4, %eax
	cmovnel	%eax, %ecx
	jmp	.LBB10_4
.LBB10_3:                               # %cond.false
	xorl	%ecx, %ecx
	jmp	.LBB10_4
.LBB10_4:                               # %cond.end
	movl	%ecx, -28(%rbp)
	movl	$5, luma_log_weight_denom
	movl	$5, chroma_log_weight_denom
	movl	luma_log_weight_denom, %ecx
	subl	$1, %ecx
                                        # kill: def $cl killed $ecx
	movl	$1, %eax
	movl	$1, %edx
	shll	%cl, %edx
	movl	%edx, wp_luma_round
	movl	chroma_log_weight_denom, %ecx
	subl	$1, %ecx
                                        # kill: def $cl killed $ecx
	movl	$1, %edx
	shll	%cl, %edx
	movl	%edx, wp_chroma_round
	movl	luma_log_weight_denom, %ecx
                                        # kill: def $cl killed $ecx
	movl	$1, %edx
	shll	%cl, %edx
	movl	%edx, -40(%rbp)
	movl	chroma_log_weight_denom, %ecx
                                        # kill: def $cl killed $ecx
	shll	%cl, %eax
	movl	%eax, -32(%rbp)
	movl	%eax, -36(%rbp)
	movl	$0, -12(%rbp)
.LBB10_5:                               # %for.cond
                                        # =>This Loop Header: Depth=1
                                        #     Child Loop BB10_7 Depth 2
                                        #       Child Loop BB10_9 Depth 3
	movl	-12(%rbp), %eax
	movl	-28(%rbp), %ecx
	addl	$2, %ecx
	cmpl	%ecx, %eax
	jge	.LBB10_16
# %bb.6:                                # %for.body
                                        #   in Loop: Header=BB10_5 Depth=1
	movl	$0, -16(%rbp)
.LBB10_7:                               # %for.cond12
                                        #   Parent Loop BB10_5 Depth=1
                                        # =>  This Loop Header: Depth=2
                                        #       Child Loop BB10_9 Depth 3
	movl	-16(%rbp), %eax
	movslq	-12(%rbp), %rcx
	cmpl	listXsize(,%rcx,4), %eax
	jge	.LBB10_14
# %bb.8:                                # %for.body16
                                        #   in Loop: Header=BB10_7 Depth=2
	movl	$0, -4(%rbp)
.LBB10_9:                               # %for.cond17
                                        #   Parent Loop BB10_5 Depth=1
                                        #     Parent Loop BB10_7 Depth=2
                                        # =>    This Inner Loop Header: Depth=3
	cmpl	$3, -4(%rbp)
	jge	.LBB10_12
# %bb.10:                               # %for.body19
                                        #   in Loop: Header=BB10_9 Depth=3
	movslq	-4(%rbp), %rax
	movl	-40(%rbp,%rax,4), %eax
	movslq	-12(%rbp), %rcx
	imulq	$180, %rcx, %rcx
	leaq	-560(%rbp), %rdx
	addq	%rcx, %rdx
	movslq	-16(%rbp), %rcx
	imulq	$12, %rcx, %rcx
	addq	%rcx, %rdx
	movslq	-4(%rbp), %rcx
	movl	%eax, (%rdx,%rcx,4)
	movslq	-4(%rbp), %rax
	movl	-40(%rbp,%rax,4), %eax
	movq	wp_weight, %rcx
	movslq	-12(%rbp), %rdx
	movq	(%rcx,%rdx,8), %rcx
	movslq	-16(%rbp), %rdx
	movq	(%rcx,%rdx,8), %rcx
	movslq	-4(%rbp), %rdx
	movl	%eax, (%rcx,%rdx,4)
	movq	wp_offset, %rax
	movslq	-12(%rbp), %rcx
	movq	(%rax,%rcx,8), %rax
	movslq	-16(%rbp), %rcx
	movq	(%rax,%rcx,8), %rax
	movslq	-4(%rbp), %rcx
	movl	$0, (%rax,%rcx,4)
	movslq	-12(%rbp), %rax
	imulq	$180, %rax, %rax
	leaq	-928(%rbp), %rcx
	addq	%rax, %rcx
	movslq	-16(%rbp), %rax
	imulq	$12, %rax, %rax
	addq	%rax, %rcx
	movslq	-4(%rbp), %rax
	movl	$0, (%rcx,%rax,4)
# %bb.11:                               # %for.inc
                                        #   in Loop: Header=BB10_9 Depth=3
	movl	-4(%rbp), %eax
	addl	$1, %eax
	movl	%eax, -4(%rbp)
	jmp	.LBB10_9
.LBB10_12:                              # %for.end
                                        #   in Loop: Header=BB10_7 Depth=2
	jmp	.LBB10_13
.LBB10_13:                              # %for.inc48
                                        #   in Loop: Header=BB10_7 Depth=2
	movl	-16(%rbp), %eax
	addl	$1, %eax
	movl	%eax, -16(%rbp)
	jmp	.LBB10_7
.LBB10_14:                              # %for.end50
                                        #   in Loop: Header=BB10_5 Depth=1
	jmp	.LBB10_15
.LBB10_15:                              # %for.inc51
                                        #   in Loop: Header=BB10_5 Depth=1
	movl	-12(%rbp), %eax
	addl	$1, %eax
	movl	%eax, -12(%rbp)
	jmp	.LBB10_5
.LBB10_16:                              # %for.end53
	movl	$0, -12(%rbp)
.LBB10_17:                              # %for.cond54
                                        # =>This Loop Header: Depth=1
                                        #     Child Loop BB10_19 Depth 2
	movl	-12(%rbp), %eax
	movq	img, %rcx
	cmpl	60(%rcx), %eax
	jge	.LBB10_24
# %bb.18:                               # %for.body56
                                        #   in Loop: Header=BB10_17 Depth=1
	movl	$0, -16(%rbp)
.LBB10_19:                              # %for.cond57
                                        #   Parent Loop BB10_17 Depth=1
                                        # =>  This Inner Loop Header: Depth=2
	movl	-16(%rbp), %eax
	movq	img, %rcx
	cmpl	52(%rcx), %eax
	jge	.LBB10_22
# %bb.20:                               # %for.body59
                                        #   in Loop: Header=BB10_19 Depth=2
	movq	imgY_org(%rip), %rax
	movslq	-12(%rbp), %rcx
	movq	(%rax,%rcx,8), %rax
	movslq	-16(%rbp), %rcx
	movzwl	(%rax,%rcx,2), %eax
	vcvtsi2sd	%eax, %xmm0, %xmm0
	vaddsd	-56(%rbp), %xmm0, %xmm0
	vmovsd	%xmm0, -56(%rbp)
# %bb.21:                               # %for.inc65
                                        #   in Loop: Header=BB10_19 Depth=2
	movl	-16(%rbp), %eax
	addl	$1, %eax
	movl	%eax, -16(%rbp)
	jmp	.LBB10_19
.LBB10_22:                              # %for.end67
                                        #   in Loop: Header=BB10_17 Depth=1
	jmp	.LBB10_23
.LBB10_23:                              # %for.inc68
                                        #   in Loop: Header=BB10_17 Depth=1
	movl	-12(%rbp), %eax
	addl	$1, %eax
	movl	%eax, -12(%rbp)
	jmp	.LBB10_17
.LBB10_24:                              # %for.end70
	movl	$0, -8(%rbp)
.LBB10_25:                              # %for.cond71
                                        # =>This Loop Header: Depth=1
                                        #     Child Loop BB10_27 Depth 2
                                        #       Child Loop BB10_29 Depth 3
                                        #       Child Loop BB10_48 Depth 3
                                        #       Child Loop BB10_58 Depth 3
                                        #         Child Loop BB10_60 Depth 4
	movl	-8(%rbp), %eax
	movl	-28(%rbp), %ecx
	addl	$2, %ecx
	cmpl	%ecx, %eax
	jge	.LBB10_75
# %bb.26:                               # %for.body75
                                        #   in Loop: Header=BB10_25 Depth=1
	movl	$0, -4(%rbp)
.LBB10_27:                              # %for.cond76
                                        #   Parent Loop BB10_25 Depth=1
                                        # =>  This Loop Header: Depth=2
                                        #       Child Loop BB10_29 Depth 3
                                        #       Child Loop BB10_48 Depth 3
                                        #       Child Loop BB10_58 Depth 3
                                        #         Child Loop BB10_60 Depth 4
	movl	-4(%rbp), %eax
	movslq	-8(%rbp), %rcx
	cmpl	listXsize(,%rcx,4), %eax
	jge	.LBB10_73
# %bb.28:                               # %for.body81
                                        #   in Loop: Header=BB10_27 Depth=2
	movslq	-4(%rbp), %rax
	vxorps	%xmm0, %xmm0, %xmm0
	vmovsd	%xmm0, -192(%rbp,%rax,8)
	movslq	-8(%rbp), %rax
	movq	listX(,%rax,8), %rax
	movslq	-4(%rbp), %rcx
	movq	(%rax,%rcx,8), %rax
	movq	6432(%rax), %rax
	movq	%rax, -48(%rbp)
	movslq	-8(%rbp), %rax
	movq	listX(,%rax,8), %rax
	movslq	-4(%rbp), %rcx
	movq	(%rax,%rcx,8), %rax
	movq	6440(%rax), %rax
	movq	%rax, -72(%rbp)
	movl	$0, -12(%rbp)
.LBB10_29:                              # %for.cond92
                                        #   Parent Loop BB10_25 Depth=1
                                        #     Parent Loop BB10_27 Depth=2
                                        # =>    This Inner Loop Header: Depth=3
	movl	-12(%rbp), %eax
	movq	img, %rcx
	movl	60(%rcx), %ecx
	movq	img, %rdx
	imull	52(%rdx), %ecx
	cmpl	%ecx, %eax
	jge	.LBB10_32
# %bb.30:                               # %for.body97
                                        #   in Loop: Header=BB10_29 Depth=3
	movq	-48(%rbp), %rax
	movslq	-12(%rbp), %rcx
	movzwl	(%rax,%rcx,2), %eax
	vcvtsi2sd	%eax, %xmm0, %xmm0
	movslq	-4(%rbp), %rax
	vaddsd	-192(%rbp,%rax,8), %xmm0, %xmm0
	vmovsd	%xmm0, -192(%rbp,%rax,8)
# %bb.31:                               # %for.inc104
                                        #   in Loop: Header=BB10_29 Depth=3
	movl	-12(%rbp), %eax
	addl	$1, %eax
	movl	%eax, -12(%rbp)
	jmp	.LBB10_29
.LBB10_32:                              # %for.end106
                                        #   in Loop: Header=BB10_27 Depth=2
	vcvtsi2sdl	-64(%rbp), %xmm0, %xmm0
	vxorps	%xmm1, %xmm1, %xmm1
	vucomisd	%xmm1, %xmm0
	jne	.LBB10_40
	jp	.LBB10_40
# %bb.33:                               # %if.then
                                        #   in Loop: Header=BB10_27 Depth=2
	movslq	-4(%rbp), %rax
	vmovsd	-192(%rbp,%rax,8), %xmm0 # xmm0 = mem[0],zero
	vxorps	%xmm1, %xmm1, %xmm1
	vucomisd	%xmm1, %xmm0
	jne	.LBB10_34
	jp	.LBB10_34
	jmp	.LBB10_35
.LBB10_34:                              # %if.then114
                                        #   in Loop: Header=BB10_27 Depth=2
	vmovsd	.LCPI10_0(%rip), %xmm0  # xmm0 = mem[0],zero
	vcvtsi2sdl	-40(%rbp), %xmm0, %xmm1
	vmulsd	-56(%rbp), %xmm1, %xmm1
	movslq	-4(%rbp), %rax
	vdivsd	-192(%rbp,%rax,8), %xmm1, %xmm1
	vaddsd	%xmm0, %xmm1, %xmm0
	vcvttsd2si	%xmm0, %eax
	movslq	-8(%rbp), %rcx
	imulq	$180, %rcx, %rcx
	leaq	-560(%rbp), %rdx
	addq	%rcx, %rdx
	movslq	-4(%rbp), %rcx
	imulq	$12, %rcx, %rcx
	addq	%rcx, %rdx
	movl	%eax, (%rdx)
	jmp	.LBB10_36
.LBB10_35:                              # %if.else
                                        #   in Loop: Header=BB10_27 Depth=2
	movl	-40(%rbp), %eax
	movslq	-8(%rbp), %rcx
	imulq	$180, %rcx, %rcx
	leaq	-560(%rbp), %rdx
	addq	%rcx, %rdx
	movslq	-4(%rbp), %rcx
	imulq	$12, %rcx, %rcx
	addq	%rcx, %rdx
	movl	%eax, (%rdx)
.LBB10_36:                              # %if.end
                                        #   in Loop: Header=BB10_27 Depth=2
	movslq	-8(%rbp), %rax
	imulq	$180, %rax, %rax
	leaq	-560(%rbp), %rcx
	addq	%rax, %rcx
	movslq	-4(%rbp), %rax
	imulq	$12, %rax, %rax
	addq	%rax, %rcx
	cmpl	$-64, (%rcx)
	jl	.LBB10_38
# %bb.37:                               # %lor.lhs.false
                                        #   in Loop: Header=BB10_27 Depth=2
	movslq	-8(%rbp), %rax
	imulq	$180, %rax, %rax
	leaq	-560(%rbp), %rcx
	addq	%rax, %rcx
	movslq	-4(%rbp), %rax
	imulq	$12, %rax, %rax
	addq	%rax, %rcx
	cmpl	$127, (%rcx)
	jle	.LBB10_39
.LBB10_38:                              # %if.then147
                                        #   in Loop: Header=BB10_27 Depth=2
	movl	-40(%rbp), %eax
	movslq	-8(%rbp), %rcx
	imulq	$180, %rcx, %rcx
	leaq	-560(%rbp), %rdx
	addq	%rcx, %rdx
	movslq	-4(%rbp), %rcx
	imulq	$12, %rcx, %rcx
	addq	%rcx, %rdx
	movl	%eax, (%rdx)
.LBB10_39:                              # %if.end154
                                        #   in Loop: Header=BB10_27 Depth=2
	jmp	.LBB10_47
.LBB10_40:                              # %if.else155
                                        #   in Loop: Header=BB10_27 Depth=2
	vmovsd	.LCPI10_0(%rip), %xmm0  # xmm0 = mem[0],zero
	vmovsd	-56(%rbp), %xmm1        # xmm1 = mem[0],zero
	movslq	-4(%rbp), %rax
	vsubsd	-192(%rbp,%rax,8), %xmm1, %xmm1
	movq	img, %rax
	movl	60(%rax), %eax
	movq	img, %rcx
	imull	52(%rcx), %eax
	vcvtsi2sd	%eax, %xmm0, %xmm2
	vdivsd	%xmm2, %xmm1, %xmm1
	vaddsd	%xmm0, %xmm1, %xmm0
	vcvttsd2si	%xmm0, %eax
	movslq	-8(%rbp), %rcx
	imulq	$180, %rcx, %rcx
	leaq	-928(%rbp), %rdx
	movq	%rdx, %rsi
	addq	%rcx, %rsi
	movslq	-4(%rbp), %rcx
	imulq	$12, %rcx, %rcx
	addq	%rcx, %rsi
	movl	%eax, (%rsi)
	movslq	-8(%rbp), %rax
	imulq	$180, %rax, %rax
	addq	%rax, %rdx
	movslq	-4(%rbp), %rax
	imulq	$12, %rax, %rax
	addq	%rax, %rdx
	cmpl	$-128, (%rdx)
	jge	.LBB10_42
# %bb.41:                               # %cond.true178
                                        #   in Loop: Header=BB10_27 Depth=2
	movl	$4294967168, %eax       # imm = 0xFFFFFF80
	jmp	.LBB10_46
.LBB10_42:                              # %cond.false179
                                        #   in Loop: Header=BB10_27 Depth=2
	movslq	-8(%rbp), %rax
	imulq	$180, %rax, %rax
	leaq	-928(%rbp), %rcx
	addq	%rax, %rcx
	movslq	-4(%rbp), %rax
	imulq	$12, %rax, %rax
	addq	%rax, %rcx
	cmpl	$127, (%rcx)
	jle	.LBB10_44
# %bb.43:                               # %cond.true187
                                        #   in Loop: Header=BB10_27 Depth=2
	movl	$127, %eax
	jmp	.LBB10_45
.LBB10_44:                              # %cond.false188
                                        #   in Loop: Header=BB10_27 Depth=2
	movslq	-8(%rbp), %rax
	imulq	$180, %rax, %rax
	leaq	-928(%rbp), %rcx
	addq	%rax, %rcx
	movslq	-4(%rbp), %rax
	imulq	$12, %rax, %rax
	addq	%rax, %rcx
	movl	(%rcx), %eax
.LBB10_45:                              # %cond.end194
                                        #   in Loop: Header=BB10_27 Depth=2
.LBB10_46:                              # %cond.end196
                                        #   in Loop: Header=BB10_27 Depth=2
	movslq	-8(%rbp), %rcx
	imulq	$180, %rcx, %rcx
	leaq	-928(%rbp), %rdx
	addq	%rcx, %rdx
	movslq	-4(%rbp), %rcx
	imulq	$12, %rcx, %rcx
	addq	%rcx, %rdx
	movl	%eax, (%rdx)
	movl	-40(%rbp), %eax
	movslq	-8(%rbp), %rcx
	imulq	$180, %rcx, %rcx
	leaq	-560(%rbp), %rdx
	addq	%rcx, %rdx
	movslq	-4(%rbp), %rcx
	imulq	$12, %rcx, %rcx
	addq	%rcx, %rdx
	movl	%eax, (%rdx)
.LBB10_47:                              # %if.end209
                                        #   in Loop: Header=BB10_27 Depth=2
	movl	-36(%rbp), %eax
	movslq	-8(%rbp), %rcx
	imulq	$180, %rcx, %rcx
	leaq	-560(%rbp), %rdx
	movq	%rdx, %rsi
	addq	%rcx, %rsi
	movslq	-4(%rbp), %rcx
	imulq	$12, %rcx, %rcx
	addq	%rcx, %rsi
	movl	%eax, 4(%rsi)
	movl	-32(%rbp), %eax
	movslq	-8(%rbp), %rcx
	imulq	$180, %rcx, %rcx
	addq	%rcx, %rdx
	movslq	-4(%rbp), %rcx
	imulq	$12, %rcx, %rcx
	addq	%rcx, %rdx
	movl	%eax, 8(%rdx)
	movl	$0, -12(%rbp)
.LBB10_48:                              # %for.cond222
                                        #   Parent Loop BB10_25 Depth=1
                                        #     Parent Loop BB10_27 Depth=2
                                        # =>    This Inner Loop Header: Depth=3
	movl	-12(%rbp), %eax
	movq	img, %rcx
	movl	60(%rcx), %ecx
	movq	img, %rdx
	imull	52(%rdx), %ecx
	cmpl	%ecx, %eax
	jge	.LBB10_57
# %bb.49:                               # %for.body228
                                        #   in Loop: Header=BB10_48 Depth=3
	movq	-48(%rbp), %rax
	movslq	-12(%rbp), %rcx
	movzwl	(%rax,%rcx,2), %eax
	movslq	-8(%rbp), %rcx
	imulq	$180, %rcx, %rcx
	leaq	-560(%rbp), %rdx
	addq	%rcx, %rdx
	movslq	-4(%rbp), %rcx
	imulq	$12, %rcx, %rcx
	addq	%rcx, %rdx
	imull	(%rdx), %eax
	addl	wp_luma_round, %eax
	movl	luma_log_weight_denom, %ecx
                                        # kill: def $cl killed $ecx
	sarl	%cl, %eax
	movslq	-8(%rbp), %rcx
	imulq	$180, %rcx, %rcx
	leaq	-928(%rbp), %rdx
	addq	%rcx, %rdx
	movslq	-4(%rbp), %rcx
	imulq	$12, %rcx, %rcx
	addq	%rcx, %rdx
	addl	(%rdx), %eax
	cmpl	$0, %eax
	jge	.LBB10_51
# %bb.50:                               # %cond.true247
                                        #   in Loop: Header=BB10_48 Depth=3
	xorl	%eax, %eax
	jmp	.LBB10_55
.LBB10_51:                              # %cond.false248
                                        #   in Loop: Header=BB10_48 Depth=3
	movq	-48(%rbp), %rax
	movslq	-12(%rbp), %rcx
	movzwl	(%rax,%rcx,2), %eax
	movslq	-8(%rbp), %rcx
	imulq	$180, %rcx, %rcx
	leaq	-560(%rbp), %rdx
	addq	%rcx, %rdx
	movslq	-4(%rbp), %rcx
	imulq	$12, %rcx, %rcx
	addq	%rcx, %rdx
	imull	(%rdx), %eax
	addl	wp_luma_round, %eax
	movl	luma_log_weight_denom, %ecx
                                        # kill: def $cl killed $ecx
	sarl	%cl, %eax
	movslq	-8(%rbp), %rcx
	imulq	$180, %rcx, %rcx
	leaq	-928(%rbp), %rdx
	addq	%rcx, %rdx
	movslq	-4(%rbp), %rcx
	imulq	$12, %rcx, %rcx
	addq	%rcx, %rdx
	addl	(%rdx), %eax
	movq	img, %rcx
	cmpl	72684(%rcx), %eax
	jle	.LBB10_53
# %bb.52:                               # %cond.true268
                                        #   in Loop: Header=BB10_48 Depth=3
	movq	img, %rax
	movl	72684(%rax), %eax
	jmp	.LBB10_54
.LBB10_53:                              # %cond.false270
                                        #   in Loop: Header=BB10_48 Depth=3
	movq	-48(%rbp), %rax
	movslq	-12(%rbp), %rcx
	movzwl	(%rax,%rcx,2), %eax
	movslq	-8(%rbp), %rcx
	imulq	$180, %rcx, %rcx
	leaq	-560(%rbp), %rdx
	addq	%rcx, %rdx
	movslq	-4(%rbp), %rcx
	imulq	$12, %rcx, %rcx
	addq	%rcx, %rdx
	imull	(%rdx), %eax
	addl	wp_luma_round, %eax
	movl	luma_log_weight_denom, %ecx
                                        # kill: def $cl killed $ecx
	sarl	%cl, %eax
	movslq	-8(%rbp), %rcx
	imulq	$180, %rcx, %rcx
	leaq	-928(%rbp), %rdx
	addq	%rcx, %rdx
	movslq	-4(%rbp), %rcx
	imulq	$12, %rcx, %rcx
	addq	%rcx, %rdx
	addl	(%rdx), %eax
.LBB10_54:                              # %cond.end288
                                        #   in Loop: Header=BB10_48 Depth=3
.LBB10_55:                              # %cond.end290
                                        #   in Loop: Header=BB10_48 Depth=3
	movq	-72(%rbp), %rcx
	movslq	-12(%rbp), %rdx
	movw	%ax, (%rcx,%rdx,2)
# %bb.56:                               # %for.inc295
                                        #   in Loop: Header=BB10_48 Depth=3
	movl	-12(%rbp), %eax
	addl	$1, %eax
	movl	%eax, -12(%rbp)
	jmp	.LBB10_48
.LBB10_57:                              # %for.end297
                                        #   in Loop: Header=BB10_27 Depth=2
	movl	$0, -12(%rbp)
.LBB10_58:                              # %for.cond298
                                        #   Parent Loop BB10_25 Depth=1
                                        #     Parent Loop BB10_27 Depth=2
                                        # =>    This Loop Header: Depth=3
                                        #         Child Loop BB10_60 Depth 4
	movl	-12(%rbp), %eax
	movq	img, %rcx
	movl	60(%rcx), %ecx
	addl	$8, %ecx
	shll	$2, %ecx
	cmpl	%ecx, %eax
	jge	.LBB10_71
# %bb.59:                               # %for.body304
                                        #   in Loop: Header=BB10_58 Depth=3
	movl	$0, -16(%rbp)
.LBB10_60:                              # %for.cond305
                                        #   Parent Loop BB10_25 Depth=1
                                        #     Parent Loop BB10_27 Depth=2
                                        #       Parent Loop BB10_58 Depth=3
                                        # =>      This Inner Loop Header: Depth=4
	movl	-16(%rbp), %eax
	movq	img, %rcx
	movl	52(%rcx), %ecx
	addl	$8, %ecx
	shll	$2, %ecx
	cmpl	%ecx, %eax
	jge	.LBB10_69
# %bb.61:                               # %for.body311
                                        #   in Loop: Header=BB10_60 Depth=4
	movq	listX, %rax
	movslq	-4(%rbp), %rcx
	movq	(%rax,%rcx,8), %rax
	movq	6448(%rax), %rax
	movslq	-12(%rbp), %rcx
	movq	(%rax,%rcx,8), %rax
	movslq	-16(%rbp), %rcx
	movzwl	(%rax,%rcx,2), %eax
	movslq	-8(%rbp), %rcx
	imulq	$180, %rcx, %rcx
	leaq	-560(%rbp), %rdx
	addq	%rcx, %rdx
	movslq	-4(%rbp), %rcx
	imulq	$12, %rcx, %rcx
	addq	%rcx, %rdx
	imull	(%rdx), %eax
	addl	wp_luma_round, %eax
	movl	luma_log_weight_denom, %ecx
                                        # kill: def $cl killed $ecx
	sarl	%cl, %eax
	movslq	-8(%rbp), %rcx
	imulq	$180, %rcx, %rcx
	leaq	-928(%rbp), %rdx
	addq	%rcx, %rdx
	movslq	-4(%rbp), %rcx
	imulq	$12, %rcx, %rcx
	addq	%rcx, %rdx
	addl	(%rdx), %eax
	cmpl	$0, %eax
	jge	.LBB10_63
# %bb.62:                               # %cond.true335
                                        #   in Loop: Header=BB10_60 Depth=4
	xorl	%eax, %eax
	jmp	.LBB10_67
.LBB10_63:                              # %cond.false336
                                        #   in Loop: Header=BB10_60 Depth=4
	movq	listX, %rax
	movslq	-4(%rbp), %rcx
	movq	(%rax,%rcx,8), %rax
	movq	6448(%rax), %rax
	movslq	-12(%rbp), %rcx
	movq	(%rax,%rcx,8), %rax
	movslq	-16(%rbp), %rcx
	movzwl	(%rax,%rcx,2), %eax
	movslq	-8(%rbp), %rcx
	imulq	$180, %rcx, %rcx
	leaq	-560(%rbp), %rdx
	addq	%rcx, %rdx
	movslq	-4(%rbp), %rcx
	imulq	$12, %rcx, %rcx
	addq	%rcx, %rdx
	imull	(%rdx), %eax
	addl	wp_luma_round, %eax
	movl	luma_log_weight_denom, %ecx
                                        # kill: def $cl killed $ecx
	sarl	%cl, %eax
	movslq	-8(%rbp), %rcx
	imulq	$180, %rcx, %rcx
	leaq	-928(%rbp), %rdx
	addq	%rcx, %rdx
	movslq	-4(%rbp), %rcx
	imulq	$12, %rcx, %rcx
	addq	%rcx, %rdx
	addl	(%rdx), %eax
	movq	img, %rcx
	cmpl	72684(%rcx), %eax
	jle	.LBB10_65
# %bb.64:                               # %cond.true362
                                        #   in Loop: Header=BB10_60 Depth=4
	movq	img, %rax
	movl	72684(%rax), %eax
	jmp	.LBB10_66
.LBB10_65:                              # %cond.false364
                                        #   in Loop: Header=BB10_60 Depth=4
	movq	listX, %rax
	movslq	-4(%rbp), %rcx
	movq	(%rax,%rcx,8), %rax
	movq	6448(%rax), %rax
	movslq	-12(%rbp), %rcx
	movq	(%rax,%rcx,8), %rax
	movslq	-16(%rbp), %rcx
	movzwl	(%rax,%rcx,2), %eax
	movslq	-8(%rbp), %rcx
	imulq	$180, %rcx, %rcx
	leaq	-560(%rbp), %rdx
	addq	%rcx, %rdx
	movslq	-4(%rbp), %rcx
	imulq	$12, %rcx, %rcx
	addq	%rcx, %rdx
	imull	(%rdx), %eax
	addl	wp_luma_round, %eax
	movl	luma_log_weight_denom, %ecx
                                        # kill: def $cl killed $ecx
	sarl	%cl, %eax
	movslq	-8(%rbp), %rcx
	imulq	$180, %rcx, %rcx
	leaq	-928(%rbp), %rdx
	addq	%rcx, %rdx
	movslq	-4(%rbp), %rcx
	imulq	$12, %rcx, %rcx
	addq	%rcx, %rdx
	addl	(%rdx), %eax
.LBB10_66:                              # %cond.end387
                                        #   in Loop: Header=BB10_60 Depth=4
.LBB10_67:                              # %cond.end389
                                        #   in Loop: Header=BB10_60 Depth=4
	movq	listX, %rcx
	movslq	-4(%rbp), %rdx
	movq	(%rcx,%rdx,8), %rcx
	movq	6456(%rcx), %rcx
	movslq	-12(%rbp), %rdx
	movq	(%rcx,%rdx,8), %rcx
	movslq	-16(%rbp), %rdx
	movw	%ax, (%rcx,%rdx,2)
# %bb.68:                               # %for.inc398
                                        #   in Loop: Header=BB10_60 Depth=4
	movl	-16(%rbp), %eax
	addl	$1, %eax
	movl	%eax, -16(%rbp)
	jmp	.LBB10_60
.LBB10_69:                              # %for.end400
                                        #   in Loop: Header=BB10_58 Depth=3
	jmp	.LBB10_70
.LBB10_70:                              # %for.inc401
                                        #   in Loop: Header=BB10_58 Depth=3
	movl	-12(%rbp), %eax
	addl	$1, %eax
	movl	%eax, -12(%rbp)
	jmp	.LBB10_58
.LBB10_71:                              # %for.end403
                                        #   in Loop: Header=BB10_27 Depth=2
	jmp	.LBB10_72
.LBB10_72:                              # %for.inc404
                                        #   in Loop: Header=BB10_27 Depth=2
	movl	-4(%rbp), %eax
	addl	$1, %eax
	movl	%eax, -4(%rbp)
	jmp	.LBB10_27
.LBB10_73:                              # %for.end406
                                        #   in Loop: Header=BB10_25 Depth=1
	jmp	.LBB10_74
.LBB10_74:                              # %for.inc407
                                        #   in Loop: Header=BB10_25 Depth=1
	movl	-8(%rbp), %eax
	addl	$1, %eax
	movl	%eax, -8(%rbp)
	jmp	.LBB10_25
.LBB10_75:                              # %for.end409
	movl	$0, -8(%rbp)
.LBB10_76:                              # %for.cond410
                                        # =>This Loop Header: Depth=1
                                        #     Child Loop BB10_78 Depth 2
                                        #       Child Loop BB10_80 Depth 3
	movl	-8(%rbp), %eax
	movl	-28(%rbp), %ecx
	addl	$2, %ecx
	cmpl	%ecx, %eax
	jge	.LBB10_87
# %bb.77:                               # %for.body414
                                        #   in Loop: Header=BB10_76 Depth=1
	movl	$0, -20(%rbp)
.LBB10_78:                              # %for.cond415
                                        #   Parent Loop BB10_76 Depth=1
                                        # =>  This Loop Header: Depth=2
                                        #       Child Loop BB10_80 Depth 3
	movl	-20(%rbp), %eax
	movslq	-8(%rbp), %rcx
	cmpl	listXsize(,%rcx,4), %eax
	jge	.LBB10_85
# %bb.79:                               # %for.body420
                                        #   in Loop: Header=BB10_78 Depth=2
	movl	$0, -24(%rbp)
.LBB10_80:                              # %for.cond421
                                        #   Parent Loop BB10_76 Depth=1
                                        #     Parent Loop BB10_78 Depth=2
                                        # =>    This Inner Loop Header: Depth=3
	cmpl	$3, -24(%rbp)
	jge	.LBB10_83
# %bb.81:                               # %for.body424
                                        #   in Loop: Header=BB10_80 Depth=3
	movslq	-8(%rbp), %rax
	imulq	$180, %rax, %rax
	leaq	-560(%rbp), %rcx
	addq	%rax, %rcx
	movslq	-20(%rbp), %rax
	imulq	$12, %rax, %rax
	addq	%rax, %rcx
	movslq	-24(%rbp), %rax
	movl	(%rcx,%rax,4), %eax
	movq	wp_weight, %rcx
	movslq	-8(%rbp), %rdx
	movq	(%rcx,%rdx,8), %rcx
	movslq	-20(%rbp), %rdx
	movq	(%rcx,%rdx,8), %rcx
	movslq	-24(%rbp), %rdx
	movl	%eax, (%rcx,%rdx,4)
	movslq	-8(%rbp), %rax
	imulq	$180, %rax, %rax
	leaq	-928(%rbp), %rcx
	addq	%rax, %rcx
	movslq	-20(%rbp), %rax
	imulq	$12, %rax, %rax
	addq	%rax, %rcx
	movslq	-24(%rbp), %rax
	movl	(%rcx,%rax,4), %eax
	movq	wp_offset, %rcx
	movslq	-8(%rbp), %rdx
	movq	(%rcx,%rdx,8), %rcx
	movslq	-20(%rbp), %rdx
	movq	(%rcx,%rdx,8), %rcx
	movslq	-24(%rbp), %rdx
	movl	%eax, (%rcx,%rdx,4)
# %bb.82:                               # %for.inc449
                                        #   in Loop: Header=BB10_80 Depth=3
	movl	-24(%rbp), %eax
	addl	$1, %eax
	movl	%eax, -24(%rbp)
	jmp	.LBB10_80
.LBB10_83:                              # %for.end451
                                        #   in Loop: Header=BB10_78 Depth=2
	jmp	.LBB10_84
.LBB10_84:                              # %for.inc452
                                        #   in Loop: Header=BB10_78 Depth=2
	movl	-20(%rbp), %eax
	addl	$1, %eax
	movl	%eax, -20(%rbp)
	jmp	.LBB10_78
.LBB10_85:                              # %for.end454
                                        #   in Loop: Header=BB10_76 Depth=1
	jmp	.LBB10_86
.LBB10_86:                              # %for.inc455
                                        #   in Loop: Header=BB10_76 Depth=1
	movl	-8(%rbp), %eax
	addl	$1, %eax
	movl	%eax, -8(%rbp)
	jmp	.LBB10_76
.LBB10_87:                              # %for.end457
	cmpl	$288746313, -60(%rbp)   # imm = 0x1135EB49
	jne	.LBB10_89
.LBB10_88:
	addq	$928, %rsp              # imm = 0x3A0
	popq	%rbp
	.cfi_def_cfa %rsp, 8
	retq
.LBB10_89:                              # %func_exit
	.cfi_def_cfa %rbp, 16
	callq	detect_breach
	jmp	.LBB10_88
.Lfunc_end10:
	.size	estimate_weighting_factor_P_slice.7, .Lfunc_end10-estimate_weighting_factor_P_slice.7
	.cfi_endproc
                                        # -- End function
	.section	.rodata.cst8,"aM",@progbits,8
	.p2align	3               # -- Begin function estimate_weighting_factor_P_slice.8
.LCPI11_0:
	.quad	4602678819172646912     # double 0.5
	.text
	.globl	estimate_weighting_factor_P_slice.8
	.p2align	4, 0x90
	.type	estimate_weighting_factor_P_slice.8,@function
estimate_weighting_factor_P_slice.8:    # @estimate_weighting_factor_P_slice.8
	.cfi_startproc
# %bb.0:                                # %entry
	pushq	%rbp
	.cfi_def_cfa_offset 16
	.cfi_offset %rbp, -16
	movq	%rsp, %rbp
	.cfi_def_cfa_register %rbp
	subq	$928, %rsp              # imm = 0x3A0
	movl	$1708850096, -60(%rbp)  # imm = 0x65DAFBB0
	movl	%edi, -64(%rbp)
	vxorps	%xmm0, %xmm0, %xmm0
	vmovsd	%xmm0, -48(%rbp)
	movq	img, %rax
	cmpl	$0, 72400(%rax)
	je	.LBB11_3
# %bb.1:                                # %land.lhs.true
	movq	img, %rax
	movq	14168(%rax), %rax
	movq	img, %rcx
	movslq	12(%rcx), %rcx
	imulq	$632, %rcx, %rcx        # imm = 0x278
	addq	%rcx, %rax
	cmpl	$0, 532(%rax)
	je	.LBB11_3
# %bb.2:                                # %cond.true
	movq	img, %rax
	movl	12(%rax), %eax
	cltd
	movl	$2, %ecx
	idivl	%ecx
	cmpl	$0, %edx
	movl	$4, %eax
	cmovnel	%eax, %ecx
	jmp	.LBB11_4
.LBB11_3:                               # %cond.false
	xorl	%ecx, %ecx
	jmp	.LBB11_4
.LBB11_4:                               # %cond.end
	movl	%ecx, -28(%rbp)
	movl	$5, luma_log_weight_denom
	movl	$5, chroma_log_weight_denom
	movl	luma_log_weight_denom, %ecx
	subl	$1, %ecx
                                        # kill: def $cl killed $ecx
	movl	$1, %eax
	movl	$1, %edx
	shll	%cl, %edx
	movl	%edx, wp_luma_round
	movl	chroma_log_weight_denom, %ecx
	subl	$1, %ecx
                                        # kill: def $cl killed $ecx
	movl	$1, %edx
	shll	%cl, %edx
	movl	%edx, wp_chroma_round
	movl	luma_log_weight_denom, %ecx
                                        # kill: def $cl killed $ecx
	movl	$1, %edx
	shll	%cl, %edx
	movl	%edx, -40(%rbp)
	movl	chroma_log_weight_denom, %ecx
                                        # kill: def $cl killed $ecx
	shll	%cl, %eax
	movl	%eax, -32(%rbp)
	movl	%eax, -36(%rbp)
	movl	$0, -12(%rbp)
.LBB11_5:                               # %for.cond
                                        # =>This Loop Header: Depth=1
                                        #     Child Loop BB11_7 Depth 2
                                        #       Child Loop BB11_9 Depth 3
	movl	-12(%rbp), %eax
	movl	-28(%rbp), %ecx
	addl	$2, %ecx
	cmpl	%ecx, %eax
	jge	.LBB11_16
# %bb.6:                                # %for.body
                                        #   in Loop: Header=BB11_5 Depth=1
	movl	$0, -16(%rbp)
.LBB11_7:                               # %for.cond12
                                        #   Parent Loop BB11_5 Depth=1
                                        # =>  This Loop Header: Depth=2
                                        #       Child Loop BB11_9 Depth 3
	movl	-16(%rbp), %eax
	movslq	-12(%rbp), %rcx
	cmpl	listXsize(,%rcx,4), %eax
	jge	.LBB11_14
# %bb.8:                                # %for.body16
                                        #   in Loop: Header=BB11_7 Depth=2
	movl	$0, -4(%rbp)
.LBB11_9:                               # %for.cond17
                                        #   Parent Loop BB11_5 Depth=1
                                        #     Parent Loop BB11_7 Depth=2
                                        # =>    This Inner Loop Header: Depth=3
	cmpl	$3, -4(%rbp)
	jge	.LBB11_12
# %bb.10:                               # %for.body19
                                        #   in Loop: Header=BB11_9 Depth=3
	movslq	-4(%rbp), %rax
	movl	-40(%rbp,%rax,4), %eax
	movslq	-12(%rbp), %rcx
	imulq	$180, %rcx, %rcx
	leaq	-560(%rbp), %rdx
	addq	%rcx, %rdx
	movslq	-16(%rbp), %rcx
	imulq	$12, %rcx, %rcx
	addq	%rcx, %rdx
	movslq	-4(%rbp), %rcx
	movl	%eax, (%rdx,%rcx,4)
	movslq	-4(%rbp), %rax
	movl	-40(%rbp,%rax,4), %eax
	movq	wp_weight, %rcx
	movslq	-12(%rbp), %rdx
	movq	(%rcx,%rdx,8), %rcx
	movslq	-16(%rbp), %rdx
	movq	(%rcx,%rdx,8), %rcx
	movslq	-4(%rbp), %rdx
	movl	%eax, (%rcx,%rdx,4)
	movq	wp_offset, %rax
	movslq	-12(%rbp), %rcx
	movq	(%rax,%rcx,8), %rax
	movslq	-16(%rbp), %rcx
	movq	(%rax,%rcx,8), %rax
	movslq	-4(%rbp), %rcx
	movl	$0, (%rax,%rcx,4)
	movslq	-12(%rbp), %rax
	imulq	$180, %rax, %rax
	leaq	-928(%rbp), %rcx
	addq	%rax, %rcx
	movslq	-16(%rbp), %rax
	imulq	$12, %rax, %rax
	addq	%rax, %rcx
	movslq	-4(%rbp), %rax
	movl	$0, (%rcx,%rax,4)
# %bb.11:                               # %for.inc
                                        #   in Loop: Header=BB11_9 Depth=3
	movl	-4(%rbp), %eax
	addl	$1, %eax
	movl	%eax, -4(%rbp)
	jmp	.LBB11_9
.LBB11_12:                              # %for.end
                                        #   in Loop: Header=BB11_7 Depth=2
	jmp	.LBB11_13
.LBB11_13:                              # %for.inc48
                                        #   in Loop: Header=BB11_7 Depth=2
	movl	-16(%rbp), %eax
	addl	$1, %eax
	movl	%eax, -16(%rbp)
	jmp	.LBB11_7
.LBB11_14:                              # %for.end50
                                        #   in Loop: Header=BB11_5 Depth=1
	jmp	.LBB11_15
.LBB11_15:                              # %for.inc51
                                        #   in Loop: Header=BB11_5 Depth=1
	movl	-12(%rbp), %eax
	addl	$1, %eax
	movl	%eax, -12(%rbp)
	jmp	.LBB11_5
.LBB11_16:                              # %for.end53
	movl	$0, -12(%rbp)
.LBB11_17:                              # %for.cond54
                                        # =>This Loop Header: Depth=1
                                        #     Child Loop BB11_19 Depth 2
	movl	-12(%rbp), %eax
	movq	img, %rcx
	cmpl	60(%rcx), %eax
	jge	.LBB11_24
# %bb.18:                               # %for.body56
                                        #   in Loop: Header=BB11_17 Depth=1
	movl	$0, -16(%rbp)
.LBB11_19:                              # %for.cond57
                                        #   Parent Loop BB11_17 Depth=1
                                        # =>  This Inner Loop Header: Depth=2
	movl	-16(%rbp), %eax
	movq	img, %rcx
	cmpl	52(%rcx), %eax
	jge	.LBB11_22
# %bb.20:                               # %for.body59
                                        #   in Loop: Header=BB11_19 Depth=2
	movq	imgY_org(%rip), %rax
	movslq	-12(%rbp), %rcx
	movq	(%rax,%rcx,8), %rax
	movslq	-16(%rbp), %rcx
	movzwl	(%rax,%rcx,2), %eax
	vcvtsi2sd	%eax, %xmm0, %xmm0
	vaddsd	-48(%rbp), %xmm0, %xmm0
	vmovsd	%xmm0, -48(%rbp)
# %bb.21:                               # %for.inc65
                                        #   in Loop: Header=BB11_19 Depth=2
	movl	-16(%rbp), %eax
	addl	$1, %eax
	movl	%eax, -16(%rbp)
	jmp	.LBB11_19
.LBB11_22:                              # %for.end67
                                        #   in Loop: Header=BB11_17 Depth=1
	jmp	.LBB11_23
.LBB11_23:                              # %for.inc68
                                        #   in Loop: Header=BB11_17 Depth=1
	movl	-12(%rbp), %eax
	addl	$1, %eax
	movl	%eax, -12(%rbp)
	jmp	.LBB11_17
.LBB11_24:                              # %for.end70
	movl	$0, -8(%rbp)
.LBB11_25:                              # %for.cond71
                                        # =>This Loop Header: Depth=1
                                        #     Child Loop BB11_27 Depth 2
                                        #       Child Loop BB11_29 Depth 3
                                        #       Child Loop BB11_48 Depth 3
                                        #       Child Loop BB11_58 Depth 3
                                        #         Child Loop BB11_60 Depth 4
	movl	-8(%rbp), %eax
	movl	-28(%rbp), %ecx
	addl	$2, %ecx
	cmpl	%ecx, %eax
	jge	.LBB11_75
# %bb.26:                               # %for.body75
