	.text
	.file	"implicit.c"
	.globl	resize_prob             # -- Begin function resize_prob
	.p2align	4, 0x90
	.type	resize_prob,@function
resize_prob:                            # @resize_prob
	.cfi_startproc
# %bb.0:                                # %rand_bb
	pushq	%rbp
	.cfi_def_cfa_offset 16
	.cfi_offset %rbp, -16
	movq	%rsp, %rbp
	.cfi_def_cfa_register %rbp
	pushq	%rbx
	pushq	%rax
	.cfi_offset %rbx, -24
	movq	%rdi, %rbx
	callq	get_rand
	cmpl	$0, %eax
	jne	.LBB0_5
# %bb.1:                                # %func_resize_prob.1
	movq	%rbx, %rdi
	callq	resize_prob.1
	addq	$8, %rsp
	popq	%rbx
	popq	%rbp
	.cfi_def_cfa %rsp, 8
	retq
.LBB0_2:                                # %func_resize_prob.6
	.cfi_def_cfa %rbp, 16
	movq	%rbx, %rdi
	callq	resize_prob.6
	addq	$8, %rsp
	popq	%rbx
	popq	%rbp
	.cfi_def_cfa %rsp, 8
	retq
.LBB0_3:                                # %func_resize_prob.16
	.cfi_def_cfa %rbp, 16
	movq	%rbx, %rdi
	callq	resize_prob.16
	addq	$8, %rsp
	popq	%rbx
	popq	%rbp
	.cfi_def_cfa %rsp, 8
	retq
.LBB0_4:                                # %func_resize_prob.17
	.cfi_def_cfa %rbp, 16
	movq	%rbx, %rdi
	callq	resize_prob.17
	addq	$8, %rsp
	popq	%rbx
	popq	%rbp
	.cfi_def_cfa %rsp, 8
	retq
.LBB0_5:                                # %ctrl0
	.cfi_def_cfa %rbp, 16
	cmpl	$1, %eax
	je	.LBB0_2
# %bb.6:                                # %ctrl1
	cmpl	$2, %eax
	je	.LBB0_3
	jmp	.LBB0_4
.Lfunc_end0:
	.size	resize_prob, .Lfunc_end0-resize_prob
	.cfi_endproc
                                        # -- End function
	.globl	insert_new_arc          # -- Begin function insert_new_arc
	.p2align	4, 0x90
	.type	insert_new_arc,@function
insert_new_arc:                         # @insert_new_arc
	.cfi_startproc
# %bb.0:                                # %rand_bb
	pushq	%rbp
	.cfi_def_cfa_offset 16
	.cfi_offset %rbp, -16
	movq	%rsp, %rbp
	.cfi_def_cfa_register %rbp
	pushq	%r15
	pushq	%r14
	pushq	%r13
	pushq	%r12
	pushq	%rbx
	pushq	%rax
	.cfi_offset %rbx, -56
	.cfi_offset %r12, -48
	.cfi_offset %r13, -40
	.cfi_offset %r14, -32
	.cfi_offset %r15, -24
	movq	%r9, -48(%rbp)          # 8-byte Spill
	movq	%r8, %r12
	movq	%rcx, %r13
	movq	%rdx, %rbx
	movq	%rsi, %r14
	movq	%rdi, %r15
	callq	get_rand
	cmpl	$0, %eax
	jne	.LBB1_5
# %bb.1:                                # %func_insert_new_arc.2
	movq	%r15, %rdi
	movq	%r14, %rsi
	movq	%rbx, %rdx
	movq	%r13, %rcx
	movq	%r12, %r8
	movq	-48(%rbp), %r9          # 8-byte Reload
	callq	insert_new_arc.2
	addq	$8, %rsp
	popq	%rbx
	popq	%r12
	popq	%r13
	popq	%r14
	popq	%r15
	popq	%rbp
	.cfi_def_cfa %rsp, 8
	retq
.LBB1_2:                                # %func_insert_new_arc.5
	.cfi_def_cfa %rbp, 16
	movq	%r15, %rdi
	movq	%r14, %rsi
	movq	%rbx, %rdx
	movq	%r13, %rcx
	movq	%r12, %r8
	callq	insert_new_arc.5
	addq	$8, %rsp
	popq	%rbx
	popq	%r12
	popq	%r13
	popq	%r14
	popq	%r15
	popq	%rbp
	.cfi_def_cfa %rsp, 8
	retq
.LBB1_3:                                # %func_insert_new_arc.7
	.cfi_def_cfa %rbp, 16
	callq	insert_new_arc.7
	addq	$8, %rsp
	popq	%rbx
	popq	%r12
	popq	%r13
	popq	%r14
	popq	%r15
	popq	%rbp
	.cfi_def_cfa %rsp, 8
	retq
.LBB1_4:                                # %func_insert_new_arc.13
	.cfi_def_cfa %rbp, 16
	callq	insert_new_arc.13
	addq	$8, %rsp
	popq	%rbx
	popq	%r12
	popq	%r13
	popq	%r14
	popq	%r15
	popq	%rbp
	.cfi_def_cfa %rsp, 8
	retq
.LBB1_5:                                # %ctrl0
	.cfi_def_cfa %rbp, 16
	movq	-48(%rbp), %r9          # 8-byte Reload
	cmpl	$1, %eax
	je	.LBB1_2
# %bb.6:                                # %ctrl1
	cmpl	$2, %eax
	movq	%r12, %r8
	movq	%r13, %rcx
	movq	%rbx, %rdx
	movq	%r14, %rsi
	movq	%r15, %rdi
	je	.LBB1_3
	jmp	.LBB1_4
.Lfunc_end1:
	.size	insert_new_arc, .Lfunc_end1-insert_new_arc
	.cfi_endproc
                                        # -- End function
	.globl	replace_weaker_arc      # -- Begin function replace_weaker_arc
	.p2align	4, 0x90
	.type	replace_weaker_arc,@function
replace_weaker_arc:                     # @replace_weaker_arc
	.cfi_startproc
# %bb.0:                                # %rand_bb
	pushq	%rbp
	.cfi_def_cfa_offset 16
	.cfi_offset %rbp, -16
	movq	%rsp, %rbp
	.cfi_def_cfa_register %rbp
	pushq	%r15
	pushq	%r14
	pushq	%r13
	pushq	%r12
	pushq	%rbx
	pushq	%rax
	.cfi_offset %rbx, -56
	.cfi_offset %r12, -48
	.cfi_offset %r13, -40
	.cfi_offset %r14, -32
	.cfi_offset %r15, -24
	movq	%r9, -48(%rbp)          # 8-byte Spill
	movq	%r8, %r12
	movq	%rcx, %r13
	movq	%rdx, %rbx
	movq	%rsi, %r14
	movq	%rdi, %r15
	callq	get_rand
	cmpl	$0, %eax
	jne	.LBB2_5
# %bb.1:                                # %func_replace_weaker_arc.9
	movq	%r15, %rdi
	movq	%r14, %rsi
	movq	%rbx, %rdx
	movq	%r13, %rcx
	movq	%r12, %r8
	movq	-48(%rbp), %r9          # 8-byte Reload
	callq	replace_weaker_arc.9
	addq	$8, %rsp
	popq	%rbx
	popq	%r12
	popq	%r13
	popq	%r14
	popq	%r15
	popq	%rbp
	.cfi_def_cfa %rsp, 8
	retq
.LBB2_2:                                # %func_replace_weaker_arc.11
	.cfi_def_cfa %rbp, 16
	movq	%r15, %rdi
	movq	%r14, %rsi
	movq	%rbx, %rdx
	movq	%r13, %rcx
	movq	%r12, %r8
	callq	replace_weaker_arc.11
	addq	$8, %rsp
	popq	%rbx
	popq	%r12
	popq	%r13
	popq	%r14
	popq	%r15
	popq	%rbp
	.cfi_def_cfa %rsp, 8
	retq
.LBB2_3:                                # %func_replace_weaker_arc.12
	.cfi_def_cfa %rbp, 16
	callq	replace_weaker_arc.12
	addq	$8, %rsp
	popq	%rbx
	popq	%r12
	popq	%r13
	popq	%r14
	popq	%r15
	popq	%rbp
	.cfi_def_cfa %rsp, 8
	retq
.LBB2_4:                                # %func_replace_weaker_arc.14
	.cfi_def_cfa %rbp, 16
	callq	replace_weaker_arc.14
	addq	$8, %rsp
	popq	%rbx
	popq	%r12
	popq	%r13
	popq	%r14
	popq	%r15
	popq	%rbp
	.cfi_def_cfa %rsp, 8
	retq
.LBB2_5:                                # %ctrl0
	.cfi_def_cfa %rbp, 16
	movq	-48(%rbp), %r9          # 8-byte Reload
	cmpl	$1, %eax
	je	.LBB2_2
# %bb.6:                                # %ctrl1
	cmpl	$2, %eax
	movq	%r12, %r8
	movq	%r13, %rcx
	movq	%rbx, %rdx
	movq	%r14, %rsi
	movq	%r15, %rdi
	je	.LBB2_3
	jmp	.LBB2_4
.Lfunc_end2:
	.size	replace_weaker_arc, .Lfunc_end2-replace_weaker_arc
	.cfi_endproc
                                        # -- End function
	.globl	price_out_impl          # -- Begin function price_out_impl
	.p2align	4, 0x90
	.type	price_out_impl,@function
price_out_impl:                         # @price_out_impl
	.cfi_startproc
# %bb.0:                                # %rand_bb
	pushq	%rbp
	.cfi_def_cfa_offset 16
	.cfi_offset %rbp, -16
	movq	%rsp, %rbp
	.cfi_def_cfa_register %rbp
	pushq	%rbx
	pushq	%rax
	.cfi_offset %rbx, -24
	movq	%rdi, %rbx
	callq	get_rand
	cmpl	$0, %eax
	jne	.LBB3_5
# %bb.1:                                # %func_price_out_impl.3
	movq	%rbx, %rdi
	callq	price_out_impl.3
	addq	$8, %rsp
	popq	%rbx
	popq	%rbp
	.cfi_def_cfa %rsp, 8
	retq
.LBB3_2:                                # %func_price_out_impl.4
	.cfi_def_cfa %rbp, 16
	movq	%rbx, %rdi
	callq	price_out_impl.4
	addq	$8, %rsp
	popq	%rbx
	popq	%rbp
	.cfi_def_cfa %rsp, 8
	retq
.LBB3_3:                                # %func_price_out_impl.10
	.cfi_def_cfa %rbp, 16
	movq	%rbx, %rdi
	callq	price_out_impl.10
	addq	$8, %rsp
	popq	%rbx
	popq	%rbp
	.cfi_def_cfa %rsp, 8
	retq
.LBB3_4:                                # %func_price_out_impl.19
	.cfi_def_cfa %rbp, 16
	movq	%rbx, %rdi
	callq	price_out_impl.19
	addq	$8, %rsp
	popq	%rbx
	popq	%rbp
	.cfi_def_cfa %rsp, 8
	retq
.LBB3_5:                                # %ctrl0
	.cfi_def_cfa %rbp, 16
	cmpl	$1, %eax
	je	.LBB3_2
# %bb.6:                                # %ctrl1
	cmpl	$2, %eax
	je	.LBB3_3
	jmp	.LBB3_4
.Lfunc_end3:
	.size	price_out_impl, .Lfunc_end3-price_out_impl
	.cfi_endproc
                                        # -- End function
	.globl	suspend_impl            # -- Begin function suspend_impl
	.p2align	4, 0x90
	.type	suspend_impl,@function
suspend_impl:                           # @suspend_impl
	.cfi_startproc
# %bb.0:                                # %rand_bb
	pushq	%rbp
	.cfi_def_cfa_offset 16
	.cfi_offset %rbp, -16
	movq	%rsp, %rbp
	.cfi_def_cfa_register %rbp
	pushq	%r15
	pushq	%r14
	pushq	%rbx
	pushq	%rax
	.cfi_offset %rbx, -40
	.cfi_offset %r14, -32
	.cfi_offset %r15, -24
	movq	%rdx, %r14
	movq	%rsi, %r15
	movq	%rdi, %rbx
	callq	get_rand
	cmpl	$0, %eax
	jne	.LBB4_5
# %bb.1:                                # %func_suspend_impl.8
	movq	%rbx, %rdi
	movq	%r15, %rsi
	movq	%r14, %rdx
	callq	suspend_impl.8
	addq	$8, %rsp
	popq	%rbx
	popq	%r14
	popq	%r15
	popq	%rbp
	.cfi_def_cfa %rsp, 8
	retq
.LBB4_2:                                # %func_suspend_impl.15
	.cfi_def_cfa %rbp, 16
	movq	%rbx, %rdi
	movq	%r15, %rsi
	movq	%r14, %rdx
	callq	suspend_impl.15
	addq	$8, %rsp
	popq	%rbx
	popq	%r14
	popq	%r15
	popq	%rbp
	.cfi_def_cfa %rsp, 8
	retq
.LBB4_3:                                # %func_suspend_impl.18
	.cfi_def_cfa %rbp, 16
	movq	%rbx, %rdi
	movq	%r15, %rsi
	movq	%r14, %rdx
	callq	suspend_impl.18
	addq	$8, %rsp
	popq	%rbx
	popq	%r14
	popq	%r15
	popq	%rbp
	.cfi_def_cfa %rsp, 8
	retq
.LBB4_4:                                # %func_suspend_impl.20
	.cfi_def_cfa %rbp, 16
	movq	%rbx, %rdi
	movq	%r15, %rsi
	movq	%r14, %rdx
	callq	suspend_impl.20
	addq	$8, %rsp
	popq	%rbx
	popq	%r14
	popq	%r15
	popq	%rbp
	.cfi_def_cfa %rsp, 8
	retq
.LBB4_5:                                # %ctrl0
	.cfi_def_cfa %rbp, 16
	cmpl	$1, %eax
	je	.LBB4_2
# %bb.6:                                # %ctrl1
	cmpl	$2, %eax
	je	.LBB4_3
	jmp	.LBB4_4
.Lfunc_end4:
	.size	suspend_impl, .Lfunc_end4-suspend_impl
	.cfi_endproc
                                        # -- End function
	.globl	resize_prob.1           # -- Begin function resize_prob.1
	.p2align	4, 0x90
	.type	resize_prob.1,@function
resize_prob.1:                          # @resize_prob.1
	.cfi_startproc
# %bb.0:                                # %entry
	pushq	%rbp
	.cfi_def_cfa_offset 16
	.cfi_offset %rbp, -16
	movq	%rsp, %rbp
	.cfi_def_cfa_register %rbp
	pushq	%rbx
	subq	$72, %rsp
	.cfi_offset %rbx, -24
	movl	$1356957524, -36(%rbp)  # imm = 0x50E18754
	movq	%rdi, -16(%rbp)
	movq	-16(%rbp), %rax
	movq	456(%rax), %rax
	movq	-16(%rbp), %rcx
	addq	416(%rcx), %rax
	movq	%rax, 416(%rcx)
	movq	-16(%rbp), %rax
	movq	456(%rax), %rax
	movq	-16(%rbp), %rcx
	addq	448(%rcx), %rax
	movq	%rax, 448(%rcx)
	movq	-16(%rbp), %rax
	movq	568(%rax), %rdi
	movq	-16(%rbp), %rax
	movq	416(%rax), %rsi
	shlq	$6, %rsi
	callq	realloc
	movq	%rax, -32(%rbp)
	cmpq	$0, -32(%rbp)
	jne	.LBB5_2
# %bb.1:                                # %if.then
	movq	-16(%rbp), %rsi
	movabsq	$.L.str, %rdi
	movb	$0, %al
	callq	printf
	movq	stdout, %rdi
	callq	fflush
	movq	$-1, -48(%rbp)
	jmp	.LBB5_9
.LBB5_2:                                # %if.end
	movq	-32(%rbp), %rax
	movq	-16(%rbp), %rcx
	movq	568(%rcx), %rcx
	subq	%rcx, %rax
	movq	%rax, -72(%rbp)
	movq	-32(%rbp), %rax
	movq	-16(%rbp), %rcx
	movq	%rax, 568(%rcx)
	movq	-32(%rbp), %rax
	movq	-16(%rbp), %rcx
	movq	424(%rcx), %rcx
	shlq	$6, %rcx
	addq	%rcx, %rax
	movq	-16(%rbp), %rcx
	movq	%rax, 576(%rcx)
	movq	-16(%rbp), %rax
	movq	552(%rax), %rax
	movq	%rax, -24(%rbp)
	movq	%rax, -56(%rbp)
	movq	-24(%rbp), %rax
	addq	$104, %rax
	movq	%rax, -24(%rbp)
	movq	-16(%rbp), %rax
	movq	560(%rax), %rax
	movq	%rax, -64(%rbp)
.LBB5_3:                                # %for.cond
                                        # =>This Inner Loop Header: Depth=1
	movq	-24(%rbp), %rax
	cmpq	-64(%rbp), %rax
	jae	.LBB5_8
# %bb.4:                                # %for.body
                                        #   in Loop: Header=BB5_3 Depth=1
	movq	-24(%rbp), %rax
	movq	24(%rax), %rax
	cmpq	-56(%rbp), %rax
	je	.LBB5_6
# %bb.5:                                # %if.then9
                                        #   in Loop: Header=BB5_3 Depth=1
	movq	-24(%rbp), %rax
	movq	48(%rax), %rax
	addq	-72(%rbp), %rax
	movq	-24(%rbp), %rcx
	movq	%rax, 48(%rcx)
.LBB5_6:                                # %if.end12
                                        #   in Loop: Header=BB5_3 Depth=1
	jmp	.LBB5_7
.LBB5_7:                                # %for.inc
                                        #   in Loop: Header=BB5_3 Depth=1
	movq	-24(%rbp), %rax
	addq	$104, %rax
	movq	%rax, -24(%rbp)
	jmp	.LBB5_3
.LBB5_8:                                # %for.end
	movq	$0, -48(%rbp)
.LBB5_9:                                # %return
	movq	-48(%rbp), %rbx
	cmpl	$1356957524, -36(%rbp)  # imm = 0x50E18754
	jne	.LBB5_11
.LBB5_10:
	movq	%rbx, %rax
	addq	$72, %rsp
	popq	%rbx
	popq	%rbp
	.cfi_def_cfa %rsp, 8
	retq
.LBB5_11:                               # %func_exit
	.cfi_def_cfa %rbp, 16
	callq	detect_breach
	jmp	.LBB5_10
.Lfunc_end5:
	.size	resize_prob.1, .Lfunc_end5-resize_prob.1
	.cfi_endproc
                                        # -- End function
	.globl	insert_new_arc.2        # -- Begin function insert_new_arc.2
	.p2align	4, 0x90
	.type	insert_new_arc.2,@function
insert_new_arc.2:                       # @insert_new_arc.2
	.cfi_startproc
# %bb.0:                                # %entry
	pushq	%rbp
	.cfi_def_cfa_offset 16
	.cfi_offset %rbp, -16
	movq	%rsp, %rbp
	.cfi_def_cfa_register %rbp
	subq	$64, %rsp
	movl	$489984852, -44(%rbp)   # imm = 0x1D349354
	movq	%rdi, -8(%rbp)
	movq	%rsi, -24(%rbp)
	movq	%rdx, -64(%rbp)
	movq	%rcx, -56(%rbp)
	movq	%r8, -32(%rbp)
	movq	%r9, -40(%rbp)
	movq	-64(%rbp), %rax
	movq	-8(%rbp), %rcx
	movq	-24(%rbp), %rdx
	shlq	$6, %rdx
	addq	%rdx, %rcx
	movq	%rax, 8(%rcx)
	movq	-56(%rbp), %rax
	movq	-8(%rbp), %rcx
	movq	-24(%rbp), %rdx
	shlq	$6, %rdx
	addq	%rdx, %rcx
	movq	%rax, 16(%rcx)
	movq	-32(%rbp), %rax
	movq	-8(%rbp), %rcx
	movq	-24(%rbp), %rdx
	shlq	$6, %rdx
	addq	%rdx, %rcx
	movq	%rax, 56(%rcx)
	movq	-32(%rbp), %rax
	movq	-8(%rbp), %rcx
	movq	-24(%rbp), %rdx
	shlq	$6, %rdx
	addq	%rdx, %rcx
	movq	%rax, (%rcx)
	movq	-40(%rbp), %rax
	movq	-8(%rbp), %rcx
	movq	-24(%rbp), %rdx
	shlq	$6, %rdx
	addq	%rdx, %rcx
	movq	%rax, 48(%rcx)
	movq	-24(%rbp), %rax
	addq	$1, %rax
	movq	%rax, -16(%rbp)
.LBB6_1:                                # %while.cond
                                        # =>This Inner Loop Header: Depth=1
	xorl	%eax, %eax
	movq	-16(%rbp), %rcx
	subq	$1, %rcx
	cmpq	$0, %rcx
	je	.LBB6_3
# %bb.2:                                # %land.rhs
                                        #   in Loop: Header=BB6_1 Depth=1
	movq	-40(%rbp), %rcx
	movq	-8(%rbp), %rsi
	movq	-16(%rbp), %rax
	cqto
	movl	$2, %edi
	idivq	%rdi
	subq	$1, %rax
	shlq	$6, %rax
	addq	%rax, %rsi
	cmpq	48(%rsi), %rcx
	setg	%al
.LBB6_3:                                # %land.end
                                        #   in Loop: Header=BB6_1 Depth=1
	testb	$1, %al
	jne	.LBB6_4
	jmp	.LBB6_5
.LBB6_4:                                # %while.body
                                        #   in Loop: Header=BB6_1 Depth=1
	movq	-8(%rbp), %rsi
	movq	-16(%rbp), %rax
	cqto
	movl	$2, %ecx
	idivq	%rcx
	subq	$1, %rax
	shlq	$6, %rax
	addq	%rax, %rsi
	movq	8(%rsi), %rax
	movq	-8(%rbp), %rdx
	movq	-16(%rbp), %rsi
	subq	$1, %rsi
	shlq	$6, %rsi
	addq	%rsi, %rdx
	movq	%rax, 8(%rdx)
	movq	-8(%rbp), %rsi
	movq	-16(%rbp), %rax
	cqto
	idivq	%rcx
	subq	$1, %rax
	shlq	$6, %rax
	addq	%rax, %rsi
	movq	16(%rsi), %rax
	movq	-8(%rbp), %rdx
	movq	-16(%rbp), %rsi
	subq	$1, %rsi
	shlq	$6, %rsi
	addq	%rsi, %rdx
	movq	%rax, 16(%rdx)
	movq	-8(%rbp), %rsi
	movq	-16(%rbp), %rax
	cqto
	idivq	%rcx
	subq	$1, %rax
	shlq	$6, %rax
	addq	%rax, %rsi
	movq	(%rsi), %rax
	movq	-8(%rbp), %rdx
	movq	-16(%rbp), %rsi
	subq	$1, %rsi
	shlq	$6, %rsi
	addq	%rsi, %rdx
	movq	%rax, (%rdx)
	movq	-8(%rbp), %rsi
	movq	-16(%rbp), %rax
	cqto
	idivq	%rcx
	subq	$1, %rax
	shlq	$6, %rax
	addq	%rax, %rsi
	movq	(%rsi), %rax
	movq	-8(%rbp), %rdx
	movq	-16(%rbp), %rsi
	subq	$1, %rsi
	shlq	$6, %rsi
	addq	%rsi, %rdx
	movq	%rax, 56(%rdx)
	movq	-8(%rbp), %rsi
	movq	-16(%rbp), %rax
	cqto
	idivq	%rcx
	subq	$1, %rax
	shlq	$6, %rax
	addq	%rax, %rsi
	movq	48(%rsi), %rax
	movq	-8(%rbp), %rdx
	movq	-16(%rbp), %rsi
	subq	$1, %rsi
	shlq	$6, %rsi
	addq	%rsi, %rdx
	movq	%rax, 48(%rdx)
	movq	-16(%rbp), %rax
	cqto
	idivq	%rcx
	movq	%rax, -16(%rbp)
	movq	-64(%rbp), %rax
	movq	-8(%rbp), %rcx
	movq	-16(%rbp), %rdx
	subq	$1, %rdx
	shlq	$6, %rdx
	addq	%rdx, %rcx
	movq	%rax, 8(%rcx)
	movq	-56(%rbp), %rax
	movq	-8(%rbp), %rcx
	movq	-16(%rbp), %rdx
	subq	$1, %rdx
	shlq	$6, %rdx
	addq	%rdx, %rcx
	movq	%rax, 16(%rcx)
	movq	-32(%rbp), %rax
	movq	-8(%rbp), %rcx
	movq	-16(%rbp), %rdx
	subq	$1, %rdx
	shlq	$6, %rdx
	addq	%rdx, %rcx
	movq	%rax, (%rcx)
	movq	-32(%rbp), %rax
	movq	-8(%rbp), %rcx
	movq	-16(%rbp), %rdx
	subq	$1, %rdx
	shlq	$6, %rdx
	addq	%rdx, %rcx
	movq	%rax, 56(%rcx)
	movq	-40(%rbp), %rax
	movq	-8(%rbp), %rcx
	movq	-16(%rbp), %rdx
	subq	$1, %rdx
	shlq	$6, %rdx
	addq	%rdx, %rcx
	movq	%rax, 48(%rcx)
	jmp	.LBB6_1
.LBB6_5:                                # %while.end
	cmpl	$489984852, -44(%rbp)   # imm = 0x1D349354
	jne	.LBB6_7
.LBB6_6:
	addq	$64, %rsp
	popq	%rbp
	.cfi_def_cfa %rsp, 8
	retq
.LBB6_7:                                # %func_exit
	.cfi_def_cfa %rbp, 16
	callq	detect_breach
	jmp	.LBB6_6
.Lfunc_end6:
	.size	insert_new_arc.2, .Lfunc_end6-insert_new_arc.2
	.cfi_endproc
                                        # -- End function
	.globl	price_out_impl.3        # -- Begin function price_out_impl.3
	.p2align	4, 0x90
	.type	price_out_impl.3,@function
price_out_impl.3:                       # @price_out_impl.3
	.cfi_startproc
# %bb.0:                                # %entry
	pushq	%rbp
	.cfi_def_cfa_offset 16
	.cfi_offset %rbp, -16
	movq	%rsp, %rbp
	.cfi_def_cfa_register %rbp
	pushq	%rbx
	subq	$168, %rsp
	.cfi_offset %rbx, -24
	movl	$1862438186, -100(%rbp) # imm = 0x6F028D2A
	movq	%rdi, -24(%rbp)
	movq	$0, -40(%rbp)
	movq	$0, -136(%rbp)
	movq	$15, -168(%rbp)
	movq	-24(%rbp), %rax
	movq	528(%rax), %rax
	movq	%rax, -152(%rbp)
	movq	$30, -88(%rbp)
	movq	-152(%rbp), %rax
	subq	-168(%rbp), %rax
	movq	%rax, -160(%rbp)
	movq	-24(%rbp), %rax
	cmpq	$15000, 408(%rax)       # imm = 0x3A98
	jg	.LBB7_7
# %bb.1:                                # %if.then
	movq	-24(%rbp), %rax
	movq	424(%rax), %rax
	movq	-24(%rbp), %rcx
	addq	456(%rcx), %rax
	movq	-24(%rbp), %rcx
	cmpq	416(%rcx), %rax
	jle	.LBB7_6
# %bb.2:                                # %land.lhs.true
	movq	-24(%rbp), %rax
	movq	408(%rax), %rax
	movq	-24(%rbp), %rcx
	imulq	408(%rcx), %rax
	cqto
	movl	$2, %ecx
	idivq	%rcx
	movq	-24(%rbp), %rcx
	addq	424(%rcx), %rax
	movq	-24(%rbp), %rcx
	cmpq	416(%rcx), %rax
	jle	.LBB7_6
# %bb.3:                                # %if.then9
	movq	$1, -136(%rbp)
	movq	-24(%rbp), %rdi
	callq	resize_prob
	cmpq	$0, %rax
	je	.LBB7_5
# %bb.4:                                # %if.then10
	movq	$-1, -112(%rbp)
	jmp	.LBB7_48
.LBB7_5:                                # %if.end
	movq	-24(%rbp), %rdi
	callq	refresh_neighbour_lists
.LBB7_6:                                # %if.end11
	jmp	.LBB7_7
.LBB7_7:                                # %if.end12
	movq	-24(%rbp), %rax
	movq	576(%rax), %rax
	movq	%rax, -16(%rbp)
	movq	-24(%rbp), %rax
	movq	408(%rax), %rax
	movq	%rax, -128(%rbp)
	movq	-24(%rbp), %rax
	movq	568(%rax), %rax
	movq	%rax, -32(%rbp)
	movq	$0, -48(%rbp)
.LBB7_8:                                # %for.cond
                                        # =>This Inner Loop Header: Depth=1
	xorl	%eax, %eax
	movq	-48(%rbp), %rcx
	cmpq	-128(%rbp), %rcx
	jge	.LBB7_10
# %bb.9:                                # %land.rhs
                                        #   in Loop: Header=BB7_8 Depth=1
	movq	-32(%rbp), %rax
	cmpl	$-1, 88(%rax)
	sete	%al
.LBB7_10:                               # %land.end
                                        #   in Loop: Header=BB7_8 Depth=1
	testb	$1, %al
	jne	.LBB7_11
	jmp	.LBB7_13
.LBB7_11:                               # %for.body
                                        #   in Loop: Header=BB7_8 Depth=1
	jmp	.LBB7_12
.LBB7_12:                               # %for.inc
                                        #   in Loop: Header=BB7_8 Depth=1
	movq	-48(%rbp), %rax
	addq	$1, %rax
	movq	%rax, -48(%rbp)
	movq	-32(%rbp), %rax
	addq	$192, %rax
	movq	%rax, -32(%rbp)
	jmp	.LBB7_8
.LBB7_13:                               # %for.end
	movq	$0, -96(%rbp)
.LBB7_14:                               # %for.cond16
                                        # =>This Loop Header: Depth=1
                                        #     Child Loop BB7_20 Depth 2
	movq	-48(%rbp), %rax
	cmpq	-128(%rbp), %rax
	jge	.LBB7_34
# %bb.15:                               # %for.body18
                                        #   in Loop: Header=BB7_14 Depth=1
	movq	-32(%rbp), %rax
	cmpl	$-1, 88(%rax)
	je	.LBB7_17
# %bb.16:                               # %if.then22
                                        #   in Loop: Header=BB7_14 Depth=1
	movq	-96(%rbp), %rax
	movq	-32(%rbp), %rcx
	movq	16(%rcx), %rcx
	movq	56(%rcx), %rcx
	movq	16(%rcx), %rcx
	movq	%rax, 72(%rcx)
	movq	-32(%rbp), %rax
	addq	$64, %rax
	movq	%rax, -96(%rbp)
.LBB7_17:                               # %if.end26
                                        #   in Loop: Header=BB7_14 Depth=1
	movq	-32(%rbp), %rax
	cmpl	$-1, 24(%rax)
	jne	.LBB7_19
# %bb.18:                               # %if.then29
                                        #   in Loop: Header=BB7_14 Depth=1
	jmp	.LBB7_33
.LBB7_19:                               # %if.end30
                                        #   in Loop: Header=BB7_14 Depth=1
	movq	-32(%rbp), %rax
	movq	16(%rax), %rax
	movq	%rax, -72(%rbp)
	movq	-72(%rbp), %rax
	movslq	100(%rax), %rax
	movq	-32(%rbp), %rcx
	subq	56(%rcx), %rax
	addq	-160(%rbp), %rax
	movq	%rax, -144(%rbp)
	movq	-72(%rbp), %rax
	movq	(%rax), %rax
	movq	%rax, -176(%rbp)
	movq	-96(%rbp), %rax
	movq	8(%rax), %rax
	movq	72(%rax), %rax
	movq	%rax, -64(%rbp)
.LBB7_20:                               # %while.cond
                                        #   Parent Loop BB7_14 Depth=1
                                        # =>  This Inner Loop Header: Depth=2
	cmpq	$0, -64(%rbp)
	je	.LBB7_32
# %bb.21:                               # %while.body
                                        #   in Loop: Header=BB7_20 Depth=2
	movq	-64(%rbp), %rax
	movq	8(%rax), %rax
	movq	%rax, -56(%rbp)
	movq	-56(%rbp), %rax
	movslq	100(%rax), %rax
	movq	-64(%rbp), %rcx
	addq	56(%rcx), %rax
	cmpq	-144(%rbp), %rax
	jle	.LBB7_24
# %bb.22:                               # %if.then44
                                        #   in Loop: Header=BB7_20 Depth=2
	movq	-56(%rbp), %rax
	movq	72(%rax), %rax
	movq	%rax, -64(%rbp)
.LBB7_23:                               # %while.cond.backedge
                                        #   in Loop: Header=BB7_20 Depth=2
	jmp	.LBB7_20
.LBB7_24:                               # %if.end46
                                        #   in Loop: Header=BB7_20 Depth=2
	movq	-88(%rbp), %rax
	movq	-56(%rbp), %rcx
	subq	(%rcx), %rax
	movq	-72(%rbp), %rcx
	addq	(%rcx), %rax
	movq	%rax, -80(%rbp)
	cmpq	$0, -80(%rbp)
	jge	.LBB7_31
# %bb.25:                               # %if.then53
                                        #   in Loop: Header=BB7_20 Depth=2
	movq	-40(%rbp), %rax
	movq	-24(%rbp), %rcx
	cmpq	448(%rcx), %rax
	jge	.LBB7_27
# %bb.26:                               # %if.then56
                                        #   in Loop: Header=BB7_20 Depth=2
	movq	-16(%rbp), %rdi
	movq	-40(%rbp), %rsi
	movq	-56(%rbp), %rdx
	movq	-72(%rbp), %rcx
	movq	-88(%rbp), %r8
	movq	-80(%rbp), %r9
	callq	insert_new_arc
	movq	-40(%rbp), %rax
	addq	$1, %rax
	movq	%rax, -40(%rbp)
	jmp	.LBB7_30
.LBB7_27:                               # %if.else
                                        #   in Loop: Header=BB7_20 Depth=2
	movq	-16(%rbp), %rax
	movq	48(%rax), %rax
	cmpq	-80(%rbp), %rax
	jle	.LBB7_29
# %bb.28:                               # %if.then61
                                        #   in Loop: Header=BB7_20 Depth=2
	movq	-24(%rbp), %rdi
	movq	-16(%rbp), %rsi
	movq	-56(%rbp), %rdx
	movq	-72(%rbp), %rcx
	movq	-88(%rbp), %r8
	movq	-80(%rbp), %r9
	callq	replace_weaker_arc
.LBB7_29:                               # %if.end62
                                        #   in Loop: Header=BB7_20 Depth=2
	jmp	.LBB7_30
.LBB7_30:                               # %if.end63
                                        #   in Loop: Header=BB7_20 Depth=2
	jmp	.LBB7_31
.LBB7_31:                               # %if.end64
                                        #   in Loop: Header=BB7_20 Depth=2
	movq	-56(%rbp), %rax
	movq	72(%rax), %rax
	movq	%rax, -64(%rbp)
	jmp	.LBB7_23
.LBB7_32:                               # %while.end
                                        #   in Loop: Header=BB7_14 Depth=1
	jmp	.LBB7_33
.LBB7_33:                               # %for.inc66
                                        #   in Loop: Header=BB7_14 Depth=1
	movq	-48(%rbp), %rax
	addq	$1, %rax
	movq	%rax, -48(%rbp)
	movq	-32(%rbp), %rax
	addq	$192, %rax
	movq	%rax, -32(%rbp)
	jmp	.LBB7_14
.LBB7_34:                               # %for.end69
	cmpq	$0, -40(%rbp)
	je	.LBB7_47
# %bb.35:                               # %if.then71
	movq	-24(%rbp), %rax
	movq	576(%rax), %rax
	movq	%rax, -16(%rbp)
	movq	-40(%rbp), %rax
	movq	-24(%rbp), %rcx
	shlq	$6, %rax
	addq	576(%rcx), %rax
	movq	%rax, 576(%rcx)
	movq	-24(%rbp), %rax
	movq	576(%rax), %rax
	movq	%rax, -120(%rbp)
	cmpq	$0, -136(%rbp)
	je	.LBB7_41
# %bb.36:                               # %if.then77
	jmp	.LBB7_37
.LBB7_37:                               # %for.cond78
                                        # =>This Inner Loop Header: Depth=1
	movq	-16(%rbp), %rax
	cmpq	-120(%rbp), %rax
	je	.LBB7_40
# %bb.38:                               # %for.body81
                                        #   in Loop: Header=BB7_37 Depth=1
	movq	-16(%rbp), %rax
	movq	$0, 48(%rax)
	movq	-16(%rbp), %rax
	movl	$1, 24(%rax)
# %bb.39:                               # %for.inc84
                                        #   in Loop: Header=BB7_37 Depth=1
	movq	-16(%rbp), %rax
	addq	$64, %rax
	movq	%rax, -16(%rbp)
	jmp	.LBB7_37
.LBB7_40:                               # %for.end85
	jmp	.LBB7_46
.LBB7_41:                               # %if.else86
	jmp	.LBB7_42
.LBB7_42:                               # %for.cond87
                                        # =>This Inner Loop Header: Depth=1
	movq	-16(%rbp), %rax
	cmpq	-120(%rbp), %rax
	je	.LBB7_45
# %bb.43:                               # %for.body90
                                        #   in Loop: Header=BB7_42 Depth=1
	movq	-16(%rbp), %rax
	movq	$0, 48(%rax)
	movq	-16(%rbp), %rax
	movl	$1, 24(%rax)
	movq	-16(%rbp), %rax
	movq	8(%rax), %rax
	movq	56(%rax), %rax
	movq	-16(%rbp), %rcx
	movq	%rax, 32(%rcx)
	movq	-16(%rbp), %rax
	movq	-16(%rbp), %rcx
	movq	8(%rcx), %rcx
	movq	%rax, 56(%rcx)
	movq	-16(%rbp), %rax
	movq	16(%rax), %rax
	movq	64(%rax), %rax
	movq	-16(%rbp), %rcx
	movq	%rax, 40(%rcx)
	movq	-16(%rbp), %rax
	movq	-16(%rbp), %rcx
	movq	16(%rcx), %rcx
	movq	%rax, 64(%rcx)
# %bb.44:                               # %for.inc100
                                        #   in Loop: Header=BB7_42 Depth=1
	movq	-16(%rbp), %rax
	addq	$64, %rax
	movq	%rax, -16(%rbp)
	jmp	.LBB7_42
.LBB7_45:                               # %for.end102
	jmp	.LBB7_46
.LBB7_46:                               # %if.end103
	movq	-40(%rbp), %rax
	movq	-24(%rbp), %rcx
	addq	424(%rcx), %rax
	movq	%rax, 424(%rcx)
	movq	-40(%rbp), %rax
	movq	-24(%rbp), %rcx
	addq	440(%rcx), %rax
	movq	%rax, 440(%rcx)
	movq	-40(%rbp), %rax
	movq	-24(%rbp), %rcx
	movq	448(%rcx), %rdx
	subq	%rax, %rdx
	movq	%rdx, 448(%rcx)
.LBB7_47:                               # %if.end109
	movq	-40(%rbp), %rax
	movq	%rax, -112(%rbp)
.LBB7_48:                               # %return
	movq	-112(%rbp), %rbx
	cmpl	$1862438186, -100(%rbp) # imm = 0x6F028D2A
	jne	.LBB7_50
.LBB7_49:
	movq	%rbx, %rax
	addq	$168, %rsp
	popq	%rbx
	popq	%rbp
	.cfi_def_cfa %rsp, 8
	retq
.LBB7_50:                               # %func_exit
	.cfi_def_cfa %rbp, 16
	callq	detect_breach
	jmp	.LBB7_49
.Lfunc_end7:
	.size	price_out_impl.3, .Lfunc_end7-price_out_impl.3
	.cfi_endproc
                                        # -- End function
	.globl	price_out_impl.4        # -- Begin function price_out_impl.4
	.p2align	4, 0x90
	.type	price_out_impl.4,@function
price_out_impl.4:                       # @price_out_impl.4
	.cfi_startproc
# %bb.0:                                # %entry
	pushq	%rbp
	.cfi_def_cfa_offset 16
	.cfi_offset %rbp, -16
	movq	%rsp, %rbp
	.cfi_def_cfa_register %rbp
	pushq	%rbx
	subq	$168, %rsp
	.cfi_offset %rbx, -24
	movl	$341698196, -100(%rbp)  # imm = 0x145DE694
	movq	%rdi, -24(%rbp)
	movq	$0, -40(%rbp)
	movq	$0, -136(%rbp)
	movq	$15, -144(%rbp)
	movq	-24(%rbp), %rax
	movq	528(%rax), %rax
	movq	%rax, -168(%rbp)
	movq	$30, -96(%rbp)
	movq	-168(%rbp), %rax
	subq	-144(%rbp), %rax
	movq	%rax, -160(%rbp)
	movq	-24(%rbp), %rax
	cmpq	$15000, 408(%rax)       # imm = 0x3A98
	jg	.LBB8_7
# %bb.1:                                # %if.then
	movq	-24(%rbp), %rax
	movq	424(%rax), %rax
	movq	-24(%rbp), %rcx
	addq	456(%rcx), %rax
	movq	-24(%rbp), %rcx
	cmpq	416(%rcx), %rax
	jle	.LBB8_6
# %bb.2:                                # %land.lhs.true
	movq	-24(%rbp), %rax
	movq	408(%rax), %rax
	movq	-24(%rbp), %rcx
	imulq	408(%rcx), %rax
	cqto
	movl	$2, %ecx
	idivq	%rcx
	movq	-24(%rbp), %rcx
	addq	424(%rcx), %rax
	movq	-24(%rbp), %rcx
	cmpq	416(%rcx), %rax
	jle	.LBB8_6
# %bb.3:                                # %if.then9
	movq	$1, -136(%rbp)
	movq	-24(%rbp), %rdi
	callq	resize_prob
	cmpq	$0, %rax
	je	.LBB8_5
# %bb.4:                                # %if.then10
	movq	$-1, -112(%rbp)
	jmp	.LBB8_48
.LBB8_5:                                # %if.end
	movq	-24(%rbp), %rdi
	callq	refresh_neighbour_lists
.LBB8_6:                                # %if.end11
	jmp	.LBB8_7
.LBB8_7:                                # %if.end12
	movq	-24(%rbp), %rax
	movq	576(%rax), %rax
	movq	%rax, -16(%rbp)
	movq	-24(%rbp), %rax
	movq	408(%rax), %rax
	movq	%rax, -120(%rbp)
	movq	-24(%rbp), %rax
	movq	568(%rax), %rax
	movq	%rax, -32(%rbp)
	movq	$0, -56(%rbp)
.LBB8_8:                                # %for.cond
                                        # =>This Inner Loop Header: Depth=1
	xorl	%eax, %eax
	movq	-56(%rbp), %rcx
	cmpq	-120(%rbp), %rcx
	jge	.LBB8_10
# %bb.9:                                # %land.rhs
                                        #   in Loop: Header=BB8_8 Depth=1
	movq	-32(%rbp), %rax
	cmpl	$-1, 88(%rax)
	sete	%al
.LBB8_10:                               # %land.end
                                        #   in Loop: Header=BB8_8 Depth=1
	testb	$1, %al
	jne	.LBB8_11
	jmp	.LBB8_13
.LBB8_11:                               # %for.body
                                        #   in Loop: Header=BB8_8 Depth=1
	jmp	.LBB8_12
.LBB8_12:                               # %for.inc
                                        #   in Loop: Header=BB8_8 Depth=1
	movq	-56(%rbp), %rax
	addq	$1, %rax
	movq	%rax, -56(%rbp)
	movq	-32(%rbp), %rax
	addq	$192, %rax
	movq	%rax, -32(%rbp)
	jmp	.LBB8_8
.LBB8_13:                               # %for.end
	movq	$0, -88(%rbp)
.LBB8_14:                               # %for.cond16
                                        # =>This Loop Header: Depth=1
                                        #     Child Loop BB8_20 Depth 2
	movq	-56(%rbp), %rax
	cmpq	-120(%rbp), %rax
	jge	.LBB8_34
# %bb.15:                               # %for.body18
                                        #   in Loop: Header=BB8_14 Depth=1
	movq	-32(%rbp), %rax
	cmpl	$-1, 88(%rax)
	je	.LBB8_17
# %bb.16:                               # %if.then22
                                        #   in Loop: Header=BB8_14 Depth=1
	movq	-88(%rbp), %rax
	movq	-32(%rbp), %rcx
	movq	16(%rcx), %rcx
	movq	56(%rcx), %rcx
	movq	16(%rcx), %rcx
	movq	%rax, 72(%rcx)
	movq	-32(%rbp), %rax
	addq	$64, %rax
	movq	%rax, -88(%rbp)
.LBB8_17:                               # %if.end26
                                        #   in Loop: Header=BB8_14 Depth=1
	movq	-32(%rbp), %rax
	cmpl	$-1, 24(%rax)
	jne	.LBB8_19
# %bb.18:                               # %if.then29
                                        #   in Loop: Header=BB8_14 Depth=1
	jmp	.LBB8_33
.LBB8_19:                               # %if.end30
                                        #   in Loop: Header=BB8_14 Depth=1
	movq	-32(%rbp), %rax
	movq	16(%rax), %rax
	movq	%rax, -64(%rbp)
	movq	-64(%rbp), %rax
	movslq	100(%rax), %rax
	movq	-32(%rbp), %rcx
	subq	56(%rcx), %rax
	addq	-160(%rbp), %rax
	movq	%rax, -152(%rbp)
	movq	-64(%rbp), %rax
	movq	(%rax), %rax
	movq	%rax, -176(%rbp)
	movq	-88(%rbp), %rax
	movq	8(%rax), %rax
	movq	72(%rax), %rax
	movq	%rax, -72(%rbp)
.LBB8_20:                               # %while.cond
                                        #   Parent Loop BB8_14 Depth=1
                                        # =>  This Inner Loop Header: Depth=2
	cmpq	$0, -72(%rbp)
	je	.LBB8_32
# %bb.21:                               # %while.body
                                        #   in Loop: Header=BB8_20 Depth=2
	movq	-72(%rbp), %rax
	movq	8(%rax), %rax
	movq	%rax, -48(%rbp)
	movq	-48(%rbp), %rax
	movslq	100(%rax), %rax
	movq	-72(%rbp), %rcx
	addq	56(%rcx), %rax
	cmpq	-152(%rbp), %rax
	jle	.LBB8_24
# %bb.22:                               # %if.then44
                                        #   in Loop: Header=BB8_20 Depth=2
	movq	-48(%rbp), %rax
	movq	72(%rax), %rax
	movq	%rax, -72(%rbp)
.LBB8_23:                               # %while.cond.backedge
                                        #   in Loop: Header=BB8_20 Depth=2
	jmp	.LBB8_20
.LBB8_24:                               # %if.end46
                                        #   in Loop: Header=BB8_20 Depth=2
	movq	-96(%rbp), %rax
	movq	-48(%rbp), %rcx
	subq	(%rcx), %rax
	movq	-64(%rbp), %rcx
	addq	(%rcx), %rax
	movq	%rax, -80(%rbp)
	cmpq	$0, -80(%rbp)
	jge	.LBB8_31
# %bb.25:                               # %if.then53
                                        #   in Loop: Header=BB8_20 Depth=2
	movq	-40(%rbp), %rax
	movq	-24(%rbp), %rcx
	cmpq	448(%rcx), %rax
	jge	.LBB8_27
# %bb.26:                               # %if.then56
                                        #   in Loop: Header=BB8_20 Depth=2
	movq	-16(%rbp), %rdi
	movq	-40(%rbp), %rsi
	movq	-48(%rbp), %rdx
	movq	-64(%rbp), %rcx
	movq	-96(%rbp), %r8
	movq	-80(%rbp), %r9
	callq	insert_new_arc
	movq	-40(%rbp), %rax
	addq	$1, %rax
	movq	%rax, -40(%rbp)
	jmp	.LBB8_30
.LBB8_27:                               # %if.else
                                        #   in Loop: Header=BB8_20 Depth=2
	movq	-16(%rbp), %rax
	movq	48(%rax), %rax
	cmpq	-80(%rbp), %rax
	jle	.LBB8_29
# %bb.28:                               # %if.then61
                                        #   in Loop: Header=BB8_20 Depth=2
	movq	-24(%rbp), %rdi
	movq	-16(%rbp), %rsi
	movq	-48(%rbp), %rdx
	movq	-64(%rbp), %rcx
	movq	-96(%rbp), %r8
	movq	-80(%rbp), %r9
	callq	replace_weaker_arc
.LBB8_29:                               # %if.end62
                                        #   in Loop: Header=BB8_20 Depth=2
	jmp	.LBB8_30
.LBB8_30:                               # %if.end63
                                        #   in Loop: Header=BB8_20 Depth=2
	jmp	.LBB8_31
.LBB8_31:                               # %if.end64
                                        #   in Loop: Header=BB8_20 Depth=2
	movq	-48(%rbp), %rax
	movq	72(%rax), %rax
	movq	%rax, -72(%rbp)
	jmp	.LBB8_23
.LBB8_32:                               # %while.end
                                        #   in Loop: Header=BB8_14 Depth=1
	jmp	.LBB8_33
.LBB8_33:                               # %for.inc66
                                        #   in Loop: Header=BB8_14 Depth=1
	movq	-56(%rbp), %rax
	addq	$1, %rax
	movq	%rax, -56(%rbp)
	movq	-32(%rbp), %rax
	addq	$192, %rax
	movq	%rax, -32(%rbp)
	jmp	.LBB8_14
.LBB8_34:                               # %for.end69
	cmpq	$0, -40(%rbp)
	je	.LBB8_47
# %bb.35:                               # %if.then71
	movq	-24(%rbp), %rax
	movq	576(%rax), %rax
	movq	%rax, -16(%rbp)
	movq	-40(%rbp), %rax
	movq	-24(%rbp), %rcx
	shlq	$6, %rax
	addq	576(%rcx), %rax
	movq	%rax, 576(%rcx)
	movq	-24(%rbp), %rax
	movq	576(%rax), %rax
	movq	%rax, -128(%rbp)
	cmpq	$0, -136(%rbp)
	je	.LBB8_41
# %bb.36:                               # %if.then77
	jmp	.LBB8_37
.LBB8_37:                               # %for.cond78
                                        # =>This Inner Loop Header: Depth=1
	movq	-16(%rbp), %rax
	cmpq	-128(%rbp), %rax
	je	.LBB8_40
# %bb.38:                               # %for.body81
                                        #   in Loop: Header=BB8_37 Depth=1
	movq	-16(%rbp), %rax
	movq	$0, 48(%rax)
	movq	-16(%rbp), %rax
	movl	$1, 24(%rax)
# %bb.39:                               # %for.inc84
                                        #   in Loop: Header=BB8_37 Depth=1
	movq	-16(%rbp), %rax
	addq	$64, %rax
	movq	%rax, -16(%rbp)
	jmp	.LBB8_37
.LBB8_40:                               # %for.end85
	jmp	.LBB8_46
.LBB8_41:                               # %if.else86
	jmp	.LBB8_42
.LBB8_42:                               # %for.cond87
                                        # =>This Inner Loop Header: Depth=1
	movq	-16(%rbp), %rax
	cmpq	-128(%rbp), %rax
	je	.LBB8_45
# %bb.43:                               # %for.body90
                                        #   in Loop: Header=BB8_42 Depth=1
	movq	-16(%rbp), %rax
	movq	$0, 48(%rax)
	movq	-16(%rbp), %rax
	movl	$1, 24(%rax)
	movq	-16(%rbp), %rax
	movq	8(%rax), %rax
	movq	56(%rax), %rax
	movq	-16(%rbp), %rcx
	movq	%rax, 32(%rcx)
	movq	-16(%rbp), %rax
	movq	-16(%rbp), %rcx
	movq	8(%rcx), %rcx
	movq	%rax, 56(%rcx)
	movq	-16(%rbp), %rax
	movq	16(%rax), %rax
	movq	64(%rax), %rax
	movq	-16(%rbp), %rcx
	movq	%rax, 40(%rcx)
	movq	-16(%rbp), %rax
	movq	-16(%rbp), %rcx
	movq	16(%rcx), %rcx
	movq	%rax, 64(%rcx)
# %bb.44:                               # %for.inc100
                                        #   in Loop: Header=BB8_42 Depth=1
	movq	-16(%rbp), %rax
	addq	$64, %rax
	movq	%rax, -16(%rbp)
	jmp	.LBB8_42
.LBB8_45:                               # %for.end102
	jmp	.LBB8_46
.LBB8_46:                               # %if.end103
	movq	-40(%rbp), %rax
	movq	-24(%rbp), %rcx
	addq	424(%rcx), %rax
	movq	%rax, 424(%rcx)
	movq	-40(%rbp), %rax
	movq	-24(%rbp), %rcx
	addq	440(%rcx), %rax
	movq	%rax, 440(%rcx)
	movq	-40(%rbp), %rax
	movq	-24(%rbp), %rcx
	movq	448(%rcx), %rdx
	subq	%rax, %rdx
	movq	%rdx, 448(%rcx)
.LBB8_47:                               # %if.end109
	movq	-40(%rbp), %rax
	movq	%rax, -112(%rbp)
.LBB8_48:                               # %return
	movq	-112(%rbp), %rbx
	cmpl	$341698196, -100(%rbp)  # imm = 0x145DE694
	jne	.LBB8_50
.LBB8_49:
	movq	%rbx, %rax
	addq	$168, %rsp
	popq	%rbx
	popq	%rbp
	.cfi_def_cfa %rsp, 8
	retq
.LBB8_50:                               # %func_exit
	.cfi_def_cfa %rbp, 16
	callq	detect_breach
	jmp	.LBB8_49
.Lfunc_end8:
	.size	price_out_impl.4, .Lfunc_end8-price_out_impl.4
	.cfi_endproc
                                        # -- End function
	.globl	insert_new_arc.5        # -- Begin function insert_new_arc.5
	.p2align	4, 0x90
	.type	insert_new_arc.5,@function
insert_new_arc.5:                       # @insert_new_arc.5
	.cfi_startproc
# %bb.0:                                # %entry
	pushq	%rbp
	.cfi_def_cfa_offset 16
	.cfi_offset %rbp, -16
	movq	%rsp, %rbp
	.cfi_def_cfa_register %rbp
	subq	$64, %rsp
	movl	$1787864343, -44(%rbp)  # imm = 0x6A90A517
	movq	%rdi, -8(%rbp)
	movq	%rsi, -24(%rbp)
	movq	%rdx, -64(%rbp)
	movq	%rcx, -56(%rbp)
	movq	%r8, -32(%rbp)
	movq	%r9, -40(%rbp)
	movq	-64(%rbp), %rax
	movq	-8(%rbp), %rcx
	movq	-24(%rbp), %rdx
	shlq	$6, %rdx
	addq	%rdx, %rcx
	movq	%rax, 8(%rcx)
	movq	-56(%rbp), %rax
	movq	-8(%rbp), %rcx
	movq	-24(%rbp), %rdx
	shlq	$6, %rdx
	addq	%rdx, %rcx
	movq	%rax, 16(%rcx)
	movq	-32(%rbp), %rax
	movq	-8(%rbp), %rcx
	movq	-24(%rbp), %rdx
	shlq	$6, %rdx
	addq	%rdx, %rcx
	movq	%rax, 56(%rcx)
	movq	-32(%rbp), %rax
	movq	-8(%rbp), %rcx
	movq	-24(%rbp), %rdx
	shlq	$6, %rdx
	addq	%rdx, %rcx
	movq	%rax, (%rcx)
	movq	-40(%rbp), %rax
	movq	-8(%rbp), %rcx
	movq	-24(%rbp), %rdx
	shlq	$6, %rdx
	addq	%rdx, %rcx
	movq	%rax, 48(%rcx)
	movq	-24(%rbp), %rax
	addq	$1, %rax
	movq	%rax, -16(%rbp)
.LBB9_1:                                # %while.cond
                                        # =>This Inner Loop Header: Depth=1
	xorl	%eax, %eax
	movq	-16(%rbp), %rcx
	subq	$1, %rcx
	cmpq	$0, %rcx
	je	.LBB9_3
# %bb.2:                                # %land.rhs
                                        #   in Loop: Header=BB9_1 Depth=1
	movq	-40(%rbp), %rcx
	movq	-8(%rbp), %rsi
	movq	-16(%rbp), %rax
	cqto
	movl	$2, %edi
	idivq	%rdi
	subq	$1, %rax
	shlq	$6, %rax
	addq	%rax, %rsi
	cmpq	48(%rsi), %rcx
	setg	%al
.LBB9_3:                                # %land.end
                                        #   in Loop: Header=BB9_1 Depth=1
	testb	$1, %al
	jne	.LBB9_4
	jmp	.LBB9_5
.LBB9_4:                                # %while.body
                                        #   in Loop: Header=BB9_1 Depth=1
	movq	-8(%rbp), %rsi
	movq	-16(%rbp), %rax
	cqto
	movl	$2, %ecx
	idivq	%rcx
	subq	$1, %rax
	shlq	$6, %rax
	addq	%rax, %rsi
	movq	8(%rsi), %rax
	movq	-8(%rbp), %rdx
	movq	-16(%rbp), %rsi
	subq	$1, %rsi
	shlq	$6, %rsi
	addq	%rsi, %rdx
	movq	%rax, 8(%rdx)
	movq	-8(%rbp), %rsi
	movq	-16(%rbp), %rax
	cqto
	idivq	%rcx
	subq	$1, %rax
	shlq	$6, %rax
	addq	%rax, %rsi
	movq	16(%rsi), %rax
	movq	-8(%rbp), %rdx
	movq	-16(%rbp), %rsi
	subq	$1, %rsi
	shlq	$6, %rsi
	addq	%rsi, %rdx
	movq	%rax, 16(%rdx)
	movq	-8(%rbp), %rsi
	movq	-16(%rbp), %rax
	cqto
	idivq	%rcx
	subq	$1, %rax
	shlq	$6, %rax
	addq	%rax, %rsi
	movq	(%rsi), %rax
	movq	-8(%rbp), %rdx
	movq	-16(%rbp), %rsi
	subq	$1, %rsi
	shlq	$6, %rsi
	addq	%rsi, %rdx
	movq	%rax, (%rdx)
	movq	-8(%rbp), %rsi
	movq	-16(%rbp), %rax
	cqto
	idivq	%rcx
	subq	$1, %rax
	shlq	$6, %rax
	addq	%rax, %rsi
	movq	(%rsi), %rax
	movq	-8(%rbp), %rdx
	movq	-16(%rbp), %rsi
	subq	$1, %rsi
	shlq	$6, %rsi
	addq	%rsi, %rdx
	movq	%rax, 56(%rdx)
	movq	-8(%rbp), %rsi
	movq	-16(%rbp), %rax
	cqto
	idivq	%rcx
	subq	$1, %rax
	shlq	$6, %rax
	addq	%rax, %rsi
	movq	48(%rsi), %rax
	movq	-8(%rbp), %rdx
	movq	-16(%rbp), %rsi
	subq	$1, %rsi
	shlq	$6, %rsi
	addq	%rsi, %rdx
	movq	%rax, 48(%rdx)
	movq	-16(%rbp), %rax
	cqto
	idivq	%rcx
	movq	%rax, -16(%rbp)
	movq	-64(%rbp), %rax
	movq	-8(%rbp), %rcx
	movq	-16(%rbp), %rdx
	subq	$1, %rdx
	shlq	$6, %rdx
	addq	%rdx, %rcx
	movq	%rax, 8(%rcx)
	movq	-56(%rbp), %rax
	movq	-8(%rbp), %rcx
	movq	-16(%rbp), %rdx
	subq	$1, %rdx
	shlq	$6, %rdx
	addq	%rdx, %rcx
	movq	%rax, 16(%rcx)
	movq	-32(%rbp), %rax
	movq	-8(%rbp), %rcx
	movq	-16(%rbp), %rdx
	subq	$1, %rdx
	shlq	$6, %rdx
	addq	%rdx, %rcx
	movq	%rax, (%rcx)
	movq	-32(%rbp), %rax
	movq	-8(%rbp), %rcx
	movq	-16(%rbp), %rdx
	subq	$1, %rdx
	shlq	$6, %rdx
	addq	%rdx, %rcx
	movq	%rax, 56(%rcx)
	movq	-40(%rbp), %rax
	movq	-8(%rbp), %rcx
	movq	-16(%rbp), %rdx
	subq	$1, %rdx
	shlq	$6, %rdx
	addq	%rdx, %rcx
	movq	%rax, 48(%rcx)
	jmp	.LBB9_1
.LBB9_5:                                # %while.end
	cmpl	$1787864343, -44(%rbp)  # imm = 0x6A90A517
	jne	.LBB9_7
.LBB9_6:
	addq	$64, %rsp
	popq	%rbp
	.cfi_def_cfa %rsp, 8
	retq
.LBB9_7:                                # %func_exit
	.cfi_def_cfa %rbp, 16
	callq	detect_breach
	jmp	.LBB9_6
.Lfunc_end9:
	.size	insert_new_arc.5, .Lfunc_end9-insert_new_arc.5
	.cfi_endproc
                                        # -- End function
	.globl	resize_prob.6           # -- Begin function resize_prob.6
	.p2align	4, 0x90
	.type	resize_prob.6,@function
resize_prob.6:                          # @resize_prob.6
	.cfi_startproc
# %bb.0:                                # %entry
	pushq	%rbp
	.cfi_def_cfa_offset 16
	.cfi_offset %rbp, -16
	movq	%rsp, %rbp
	.cfi_def_cfa_register %rbp
	pushq	%rbx
	subq	$72, %rsp
	.cfi_offset %rbx, -24
	movl	$865774858, -36(%rbp)   # imm = 0x339AAD0A
	movq	%rdi, -16(%rbp)
	movq	-16(%rbp), %rax
	movq	456(%rax), %rax
	movq	-16(%rbp), %rcx
	addq	416(%rcx), %rax
	movq	%rax, 416(%rcx)
	movq	-16(%rbp), %rax
	movq	456(%rax), %rax
	movq	-16(%rbp), %rcx
	addq	448(%rcx), %rax
	movq	%rax, 448(%rcx)
	movq	-16(%rbp), %rax
	movq	568(%rax), %rdi
	movq	-16(%rbp), %rax
	movq	416(%rax), %rsi
	shlq	$6, %rsi
	callq	realloc
	movq	%rax, -32(%rbp)
	cmpq	$0, -32(%rbp)
	jne	.LBB10_2
# %bb.1:                                # %if.then
	movq	-16(%rbp), %rsi
	movabsq	$.L.str, %rdi
	movb	$0, %al
	callq	printf
	movq	stdout, %rdi
	callq	fflush
	movq	$-1, -48(%rbp)
	jmp	.LBB10_9
.LBB10_2:                               # %if.end
	movq	-32(%rbp), %rax
	movq	-16(%rbp), %rcx
	movq	568(%rcx), %rcx
	subq	%rcx, %rax
	movq	%rax, -56(%rbp)
	movq	-32(%rbp), %rax
	movq	-16(%rbp), %rcx
	movq	%rax, 568(%rcx)
	movq	-32(%rbp), %rax
	movq	-16(%rbp), %rcx
	movq	424(%rcx), %rcx
	shlq	$6, %rcx
	addq	%rcx, %rax
	movq	-16(%rbp), %rcx
	movq	%rax, 576(%rcx)
	movq	-16(%rbp), %rax
	movq	552(%rax), %rax
	movq	%rax, -24(%rbp)
	movq	%rax, -72(%rbp)
	movq	-24(%rbp), %rax
	addq	$104, %rax
	movq	%rax, -24(%rbp)
	movq	-16(%rbp), %rax
	movq	560(%rax), %rax
	movq	%rax, -64(%rbp)
.LBB10_3:                               # %for.cond
                                        # =>This Inner Loop Header: Depth=1
	movq	-24(%rbp), %rax
	cmpq	-64(%rbp), %rax
	jae	.LBB10_8
# %bb.4:                                # %for.body
                                        #   in Loop: Header=BB10_3 Depth=1
	movq	-24(%rbp), %rax
	movq	24(%rax), %rax
	cmpq	-72(%rbp), %rax
	je	.LBB10_6
# %bb.5:                                # %if.then9
                                        #   in Loop: Header=BB10_3 Depth=1
	movq	-24(%rbp), %rax
	movq	48(%rax), %rax
	addq	-56(%rbp), %rax
	movq	-24(%rbp), %rcx
	movq	%rax, 48(%rcx)
.LBB10_6:                               # %if.end12
                                        #   in Loop: Header=BB10_3 Depth=1
	jmp	.LBB10_7
.LBB10_7:                               # %for.inc
                                        #   in Loop: Header=BB10_3 Depth=1
	movq	-24(%rbp), %rax
	addq	$104, %rax
	movq	%rax, -24(%rbp)
	jmp	.LBB10_3
.LBB10_8:                               # %for.end
	movq	$0, -48(%rbp)
.LBB10_9:                               # %return
	movq	-48(%rbp), %rbx
	cmpl	$865774858, -36(%rbp)   # imm = 0x339AAD0A
	jne	.LBB10_11
.LBB10_10:
	movq	%rbx, %rax
	addq	$72, %rsp
	popq	%rbx
	popq	%rbp
	.cfi_def_cfa %rsp, 8
	retq
.LBB10_11:                              # %func_exit
	.cfi_def_cfa %rbp, 16
	callq	detect_breach
	jmp	.LBB10_10
.Lfunc_end10:
	.size	resize_prob.6, .Lfunc_end10-resize_prob.6
	.cfi_endproc
                                        # -- End function
	.globl	insert_new_arc.7        # -- Begin function insert_new_arc.7
	.p2align	4, 0x90
	.type	insert_new_arc.7,@function
insert_new_arc.7:                       # @insert_new_arc.7
	.cfi_startproc
# %bb.0:                                # %entry
	pushq	%rbp
	.cfi_def_cfa_offset 16
	.cfi_offset %rbp, -16
	movq	%rsp, %rbp
	.cfi_def_cfa_register %rbp
	subq	$64, %rsp
	movl	$298874619, -44(%rbp)   # imm = 0x11D076FB
	movq	%rdi, -8(%rbp)
	movq	%rsi, -24(%rbp)
	movq	%rdx, -56(%rbp)
	movq	%rcx, -64(%rbp)
	movq	%r8, -32(%rbp)
	movq	%r9, -40(%rbp)
	movq	-56(%rbp), %rax
	movq	-8(%rbp), %rcx
	movq	-24(%rbp), %rdx
	shlq	$6, %rdx
	addq	%rdx, %rcx
	movq	%rax, 8(%rcx)
	movq	-64(%rbp), %rax
	movq	-8(%rbp), %rcx
	movq	-24(%rbp), %rdx
	shlq	$6, %rdx
	addq	%rdx, %rcx
	movq	%rax, 16(%rcx)
	movq	-32(%rbp), %rax
	movq	-8(%rbp), %rcx
	movq	-24(%rbp), %rdx
	shlq	$6, %rdx
	addq	%rdx, %rcx
	movq	%rax, 56(%rcx)
	movq	-32(%rbp), %rax
	movq	-8(%rbp), %rcx
	movq	-24(%rbp), %rdx
	shlq	$6, %rdx
	addq	%rdx, %rcx
	movq	%rax, (%rcx)
	movq	-40(%rbp), %rax
	movq	-8(%rbp), %rcx
	movq	-24(%rbp), %rdx
	shlq	$6, %rdx
	addq	%rdx, %rcx
	movq	%rax, 48(%rcx)
	movq	-24(%rbp), %rax
	addq	$1, %rax
	movq	%rax, -16(%rbp)
.LBB11_1:                               # %while.cond
                                        # =>This Inner Loop Header: Depth=1
	xorl	%eax, %eax
	movq	-16(%rbp), %rcx
	subq	$1, %rcx
	cmpq	$0, %rcx
	je	.LBB11_3
# %bb.2:                                # %land.rhs
                                        #   in Loop: Header=BB11_1 Depth=1
	movq	-40(%rbp), %rcx
	movq	-8(%rbp), %rsi
	movq	-16(%rbp), %rax
	cqto
	movl	$2, %edi
	idivq	%rdi
	subq	$1, %rax
	shlq	$6, %rax
	addq	%rax, %rsi
	cmpq	48(%rsi), %rcx
	setg	%al
.LBB11_3:                               # %land.end
                                        #   in Loop: Header=BB11_1 Depth=1
	testb	$1, %al
	jne	.LBB11_4
	jmp	.LBB11_5
.LBB11_4:                               # %while.body
                                        #   in Loop: Header=BB11_1 Depth=1
	movq	-8(%rbp), %rsi
	movq	-16(%rbp), %rax
	cqto
	movl	$2, %ecx
	idivq	%rcx
	subq	$1, %rax
	shlq	$6, %rax
	addq	%rax, %rsi
	movq	8(%rsi), %rax
	movq	-8(%rbp), %rdx
	movq	-16(%rbp), %rsi
	subq	$1, %rsi
	shlq	$6, %rsi
	addq	%rsi, %rdx
	movq	%rax, 8(%rdx)
	movq	-8(%rbp), %rsi
	movq	-16(%rbp), %rax
	cqto
	idivq	%rcx
	subq	$1, %rax
	shlq	$6, %rax
	addq	%rax, %rsi
	movq	16(%rsi), %rax
	movq	-8(%rbp), %rdx
	movq	-16(%rbp), %rsi
	subq	$1, %rsi
	shlq	$6, %rsi
	addq	%rsi, %rdx
	movq	%rax, 16(%rdx)
	movq	-8(%rbp), %rsi
	movq	-16(%rbp), %rax
	cqto
	idivq	%rcx
	subq	$1, %rax
	shlq	$6, %rax
	addq	%rax, %rsi
	movq	(%rsi), %rax
	movq	-8(%rbp), %rdx
	movq	-16(%rbp), %rsi
	subq	$1, %rsi
	shlq	$6, %rsi
	addq	%rsi, %rdx
	movq	%rax, (%rdx)
	movq	-8(%rbp), %rsi
	movq	-16(%rbp), %rax
	cqto
	idivq	%rcx
	subq	$1, %rax
	shlq	$6, %rax
	addq	%rax, %rsi
	movq	(%rsi), %rax
	movq	-8(%rbp), %rdx
	movq	-16(%rbp), %rsi
	subq	$1, %rsi
	shlq	$6, %rsi
	addq	%rsi, %rdx
	movq	%rax, 56(%rdx)
	movq	-8(%rbp), %rsi
	movq	-16(%rbp), %rax
	cqto
	idivq	%rcx
	subq	$1, %rax
	shlq	$6, %rax
	addq	%rax, %rsi
	movq	48(%rsi), %rax
	movq	-8(%rbp), %rdx
	movq	-16(%rbp), %rsi
	subq	$1, %rsi
	shlq	$6, %rsi
	addq	%rsi, %rdx
	movq	%rax, 48(%rdx)
	movq	-16(%rbp), %rax
	cqto
	idivq	%rcx
	movq	%rax, -16(%rbp)
	movq	-56(%rbp), %rax
	movq	-8(%rbp), %rcx
	movq	-16(%rbp), %rdx
	subq	$1, %rdx
	shlq	$6, %rdx
	addq	%rdx, %rcx
	movq	%rax, 8(%rcx)
	movq	-64(%rbp), %rax
	movq	-8(%rbp), %rcx
	movq	-16(%rbp), %rdx
	subq	$1, %rdx
	shlq	$6, %rdx
	addq	%rdx, %rcx
	movq	%rax, 16(%rcx)
	movq	-32(%rbp), %rax
	movq	-8(%rbp), %rcx
	movq	-16(%rbp), %rdx
	subq	$1, %rdx
	shlq	$6, %rdx
	addq	%rdx, %rcx
	movq	%rax, (%rcx)
	movq	-32(%rbp), %rax
	movq	-8(%rbp), %rcx
	movq	-16(%rbp), %rdx
	subq	$1, %rdx
	shlq	$6, %rdx
	addq	%rdx, %rcx
	movq	%rax, 56(%rcx)
	movq	-40(%rbp), %rax
	movq	-8(%rbp), %rcx
	movq	-16(%rbp), %rdx
	subq	$1, %rdx
	shlq	$6, %rdx
	addq	%rdx, %rcx
	movq	%rax, 48(%rcx)
	jmp	.LBB11_1
.LBB11_5:                               # %while.end
	cmpl	$298874619, -44(%rbp)   # imm = 0x11D076FB
	jne	.LBB11_7
.LBB11_6:
	addq	$64, %rsp
	popq	%rbp
	.cfi_def_cfa %rsp, 8
	retq
.LBB11_7:                               # %func_exit
	.cfi_def_cfa %rbp, 16
	callq	detect_breach
	jmp	.LBB11_6
.Lfunc_end11:
	.size	insert_new_arc.7, .Lfunc_end11-insert_new_arc.7
	.cfi_endproc
                                        # -- End function
	.globl	suspend_impl.8          # -- Begin function suspend_impl.8
	.p2align	4, 0x90
	.type	suspend_impl.8,@function
suspend_impl.8:                         # @suspend_impl.8
	.cfi_startproc
# %bb.0:                                # %entry
	pushq	%rbp
	.cfi_def_cfa_offset 16
	.cfi_offset %rbp, -16
	movq	%rsp, %rbp
	.cfi_def_cfa_register %rbp
	pushq	%rbx
	subq	$72, %rsp
	.cfi_offset %rbx, -24
	movl	$1124878161, -44(%rbp)  # imm = 0x430C4751
	movq	%rdi, -24(%rbp)
	movq	%rsi, -64(%rbp)
	movq	%rdx, -72(%rbp)
	cmpq	$0, -72(%rbp)
	je	.LBB12_2
# %bb.1:                                # %if.then
	movq	-24(%rbp), %rax
	movq	440(%rax), %rax
	movq	%rax, -32(%rbp)
	jmp	.LBB12_18
.LBB12_2:                               # %if.else
	movq	-24(%rbp), %rax
	movq	576(%rax), %rax
	movq	%rax, -80(%rbp)
	movq	-24(%rbp), %rax
	movq	568(%rax), %rax
	movq	-24(%rbp), %rcx
	movq	424(%rcx), %rcx
	movq	-24(%rbp), %rdx
	subq	440(%rdx), %rcx
	shlq	$6, %rcx
	addq	%rcx, %rax
	movq	%rax, -40(%rbp)
	movq	$0, -32(%rbp)
	movq	-40(%rbp), %rax
	movq	%rax, -16(%rbp)
.LBB12_3:                               # %for.cond
                                        # =>This Inner Loop Header: Depth=1
	movq	-16(%rbp), %rax
	movq	-80(%rbp), %rcx
	cmpq	%rcx, %rax
	jae	.LBB12_17
# %bb.4:                                # %for.body
                                        #   in Loop: Header=BB12_3 Depth=1
	movq	-16(%rbp), %rax
	cmpl	$1, 24(%rax)
	jne	.LBB12_6
# %bb.5:                                # %if.then3
                                        #   in Loop: Header=BB12_3 Depth=1
	movq	-16(%rbp), %rax
	movq	(%rax), %rax
	movq	-16(%rbp), %rcx
	movq	8(%rcx), %rcx
	subq	(%rcx), %rax
	movq	-16(%rbp), %rcx
	movq	16(%rcx), %rcx
	addq	(%rcx), %rax
	movq	%rax, -56(%rbp)
	jmp	.LBB12_12
.LBB12_6:                               # %if.else6
                                        #   in Loop: Header=BB12_3 Depth=1
	movq	$-2, -56(%rbp)
	movq	-16(%rbp), %rax
	cmpl	$0, 24(%rax)
	jne	.LBB12_11
# %bb.7:                                # %if.then9
                                        #   in Loop: Header=BB12_3 Depth=1
	movq	-16(%rbp), %rax
	movq	8(%rax), %rax
	movq	48(%rax), %rax
	cmpq	-16(%rbp), %rax
	jne	.LBB12_9
# %bb.8:                                # %if.then12
                                        #   in Loop: Header=BB12_3 Depth=1
	movq	-40(%rbp), %rax
	movq	-16(%rbp), %rcx
	movq	8(%rcx), %rcx
	movq	%rax, 48(%rcx)
	jmp	.LBB12_10
.LBB12_9:                               # %if.else15
                                        #   in Loop: Header=BB12_3 Depth=1
	movq	-40(%rbp), %rax
	movq	-16(%rbp), %rcx
	movq	16(%rcx), %rcx
	movq	%rax, 48(%rcx)
.LBB12_10:                              # %if.end
                                        #   in Loop: Header=BB12_3 Depth=1
	jmp	.LBB12_11
.LBB12_11:                              # %if.end18
                                        #   in Loop: Header=BB12_3 Depth=1
	jmp	.LBB12_12
.LBB12_12:                              # %if.end19
                                        #   in Loop: Header=BB12_3 Depth=1
	movq	-56(%rbp), %rax
	cmpq	-64(%rbp), %rax
	jle	.LBB12_14
# %bb.13:                               # %if.then21
                                        #   in Loop: Header=BB12_3 Depth=1
	movq	-32(%rbp), %rax
	addq	$1, %rax
	movq	%rax, -32(%rbp)
	jmp	.LBB12_15
.LBB12_14:                              # %if.else22
                                        #   in Loop: Header=BB12_3 Depth=1
	movq	-40(%rbp), %rdi
	movq	-16(%rbp), %rsi
	movl	$64, %edx
	callq	memcpy
	movq	-40(%rbp), %rax
	addq	$64, %rax
	movq	%rax, -40(%rbp)
.LBB12_15:                              # %if.end23
                                        #   in Loop: Header=BB12_3 Depth=1
	jmp	.LBB12_16
.LBB12_16:                              # %for.inc
                                        #   in Loop: Header=BB12_3 Depth=1
	movq	-16(%rbp), %rax
	addq	$64, %rax
	movq	%rax, -16(%rbp)
	jmp	.LBB12_3
.LBB12_17:                              # %for.end
	jmp	.LBB12_18
.LBB12_18:                              # %if.end25
	cmpq	$0, -32(%rbp)
	je	.LBB12_20
# %bb.19:                               # %if.then27
	xorl	%eax, %eax
	movq	-32(%rbp), %rcx
	movq	-24(%rbp), %rdx
	movq	424(%rdx), %rsi
	subq	%rcx, %rsi
	movq	%rsi, 424(%rdx)
	movq	-32(%rbp), %rcx
	movq	-24(%rbp), %rdx
	movq	440(%rdx), %rsi
	subq	%rcx, %rsi
	movq	%rsi, 440(%rdx)
	movq	-32(%rbp), %rcx
	movq	-24(%rbp), %rdx
	movq	576(%rdx), %rsi
	subq	%rcx, %rax
	shlq	$6, %rax
	addq	%rax, %rsi
	movq	%rsi, 576(%rdx)
	movq	-32(%rbp), %rax
	movq	-24(%rbp), %rcx
	addq	448(%rcx), %rax
	movq	%rax, 448(%rcx)
	movq	-24(%rbp), %rdi
	callq	refresh_neighbour_lists
.LBB12_20:                              # %if.end34
	movq	-32(%rbp), %rbx
	cmpl	$1124878161, -44(%rbp)  # imm = 0x430C4751
	jne	.LBB12_22
.LBB12_21:
	movq	%rbx, %rax
	addq	$72, %rsp
	popq	%rbx
	popq	%rbp
	.cfi_def_cfa %rsp, 8
	retq
.LBB12_22:                              # %func_exit
	.cfi_def_cfa %rbp, 16
	callq	detect_breach
	jmp	.LBB12_21
.Lfunc_end12:
	.size	suspend_impl.8, .Lfunc_end12-suspend_impl.8
	.cfi_endproc
                                        # -- End function
	.globl	replace_weaker_arc.9    # -- Begin function replace_weaker_arc.9
	.p2align	4, 0x90
	.type	replace_weaker_arc.9,@function
replace_weaker_arc.9:                   # @replace_weaker_arc.9
	.cfi_startproc
# %bb.0:                                # %entry
	pushq	%rbp
	.cfi_def_cfa_offset 16
	.cfi_offset %rbp, -16
	movq	%rsp, %rbp
	.cfi_def_cfa_register %rbp
	subq	$80, %rsp
	movl	$667541484, -44(%rbp)   # imm = 0x27C9DFEC
	movq	%rdi, -72(%rbp)
	movq	%rsi, -8(%rbp)
	movq	%rdx, -64(%rbp)
	movq	%rcx, -56(%rbp)
	movq	%r8, -32(%rbp)
	movq	%r9, -40(%rbp)
	movq	-64(%rbp), %rax
	movq	-8(%rbp), %rcx
	movq	%rax, 8(%rcx)
	movq	-56(%rbp), %rax
	movq	-8(%rbp), %rcx
	movq	%rax, 16(%rcx)
	movq	-32(%rbp), %rax
	movq	-8(%rbp), %rcx
	movq	%rax, 56(%rcx)
	movq	-32(%rbp), %rax
	movq	-8(%rbp), %rcx
	movq	%rax, (%rcx)
	movq	-40(%rbp), %rax
	movq	-8(%rbp), %rcx
	movq	%rax, 48(%rcx)
	movq	$1, -24(%rbp)
	movq	-8(%rbp), %rax
	movq	112(%rax), %rax
	movq	-8(%rbp), %rcx
	movq	176(%rcx), %rcx
	cmpq	%rcx, %rax
	movl	$2, %eax
	movl	$3, %ecx
	cmovgl	%eax, %ecx
	movslq	%ecx, %rax
	movq	%rax, -16(%rbp)
.LBB13_1:                               # %while.cond
                                        # =>This Inner Loop Header: Depth=1
	xorl	%eax, %eax
	movq	-16(%rbp), %rcx
	movq	-72(%rbp), %rdx
	cmpq	448(%rdx), %rcx
	jg	.LBB13_3
# %bb.2:                                # %land.rhs
                                        #   in Loop: Header=BB13_1 Depth=1
	movq	-40(%rbp), %rax
	movq	-8(%rbp), %rcx
	movq	-16(%rbp), %rdx
	subq	$1, %rdx
	shlq	$6, %rdx
	addq	%rdx, %rcx
	cmpq	48(%rcx), %rax
	setl	%al
.LBB13_3:                               # %land.end
                                        #   in Loop: Header=BB13_1 Depth=1
	testb	$1, %al
	jne	.LBB13_4
	jmp	.LBB13_9
.LBB13_4:                               # %while.body
                                        #   in Loop: Header=BB13_1 Depth=1
	movq	-8(%rbp), %rax
	movq	-16(%rbp), %rcx
	subq	$1, %rcx
	shlq	$6, %rcx
	addq	%rcx, %rax
	movq	8(%rax), %rax
	movq	-8(%rbp), %rcx
	movq	-24(%rbp), %rdx
	subq	$1, %rdx
	shlq	$6, %rdx
	addq	%rdx, %rcx
	movq	%rax, 8(%rcx)
	movq	-8(%rbp), %rax
	movq	-16(%rbp), %rcx
	subq	$1, %rcx
	shlq	$6, %rcx
	addq	%rcx, %rax
	movq	16(%rax), %rax
	movq	-8(%rbp), %rcx
	movq	-24(%rbp), %rdx
	subq	$1, %rdx
	shlq	$6, %rdx
	addq	%rdx, %rcx
	movq	%rax, 16(%rcx)
	movq	-8(%rbp), %rax
	movq	-16(%rbp), %rcx
	subq	$1, %rcx
	shlq	$6, %rcx
	addq	%rcx, %rax
	movq	(%rax), %rax
	movq	-8(%rbp), %rcx
	movq	-24(%rbp), %rdx
	subq	$1, %rdx
	shlq	$6, %rdx
	addq	%rdx, %rcx
	movq	%rax, (%rcx)
	movq	-8(%rbp), %rax
	movq	-16(%rbp), %rcx
	subq	$1, %rcx
	shlq	$6, %rcx
	addq	%rcx, %rax
	movq	(%rax), %rax
	movq	-8(%rbp), %rcx
	movq	-24(%rbp), %rdx
	subq	$1, %rdx
	shlq	$6, %rdx
	addq	%rdx, %rcx
	movq	%rax, 56(%rcx)
	movq	-8(%rbp), %rax
	movq	-16(%rbp), %rcx
	subq	$1, %rcx
	shlq	$6, %rcx
	addq	%rcx, %rax
	movq	48(%rax), %rax
	movq	-8(%rbp), %rcx
	movq	-24(%rbp), %rdx
	subq	$1, %rdx
	shlq	$6, %rdx
	addq	%rdx, %rcx
	movq	%rax, 48(%rcx)
	movq	-64(%rbp), %rax
	movq	-8(%rbp), %rcx
	movq	-16(%rbp), %rdx
	subq	$1, %rdx
	shlq	$6, %rdx
	addq	%rdx, %rcx
	movq	%rax, 8(%rcx)
	movq	-56(%rbp), %rax
	movq	-8(%rbp), %rcx
	movq	-16(%rbp), %rdx
	subq	$1, %rdx
	shlq	$6, %rdx
	addq	%rdx, %rcx
	movq	%rax, 16(%rcx)
	movq	-32(%rbp), %rax
	movq	-8(%rbp), %rcx
	movq	-16(%rbp), %rdx
	subq	$1, %rdx
	shlq	$6, %rdx
	addq	%rdx, %rcx
	movq	%rax, (%rcx)
	movq	-32(%rbp), %rax
	movq	-8(%rbp), %rcx
	movq	-16(%rbp), %rdx
	subq	$1, %rdx
	shlq	$6, %rdx
	addq	%rdx, %rcx
	movq	%rax, 56(%rcx)
	movq	-40(%rbp), %rax
	movq	-8(%rbp), %rcx
	movq	-16(%rbp), %rdx
	subq	$1, %rdx
	shlq	$6, %rdx
	addq	%rdx, %rcx
	movq	%rax, 48(%rcx)
	movq	-16(%rbp), %rax
	movq	%rax, -24(%rbp)
	movq	-16(%rbp), %rax
	shlq	$1, %rax
	movq	%rax, -16(%rbp)
	movq	-16(%rbp), %rax
	addq	$1, %rax
	movq	-72(%rbp), %rcx
	cmpq	448(%rcx), %rax
	jg	.LBB13_8
# %bb.5:                                # %if.then
                                        #   in Loop: Header=BB13_1 Depth=1
	movq	-8(%rbp), %rax
	movq	-16(%rbp), %rcx
	subq	$1, %rcx
	shlq	$6, %rcx
	addq	%rcx, %rax
	movq	48(%rax), %rax
	movq	-8(%rbp), %rcx
	movq	-16(%rbp), %rdx
	shlq	$6, %rdx
	addq	%rdx, %rcx
	cmpq	48(%rcx), %rax
	jge	.LBB13_7
# %bb.6:                                # %if.then74
                                        #   in Loop: Header=BB13_1 Depth=1
	movq	-16(%rbp), %rax
	addq	$1, %rax
	movq	%rax, -16(%rbp)
.LBB13_7:                               # %if.end
                                        #   in Loop: Header=BB13_1 Depth=1
	jmp	.LBB13_8
.LBB13_8:                               # %if.end75
                                        #   in Loop: Header=BB13_1 Depth=1
	jmp	.LBB13_1
.LBB13_9:                               # %while.end
	cmpl	$667541484, -44(%rbp)   # imm = 0x27C9DFEC
	jne	.LBB13_11
.LBB13_10:
	addq	$80, %rsp
	popq	%rbp
	.cfi_def_cfa %rsp, 8
	retq
.LBB13_11:                              # %func_exit
	.cfi_def_cfa %rbp, 16
	callq	detect_breach
	jmp	.LBB13_10
.Lfunc_end13:
	.size	replace_weaker_arc.9, .Lfunc_end13-replace_weaker_arc.9
	.cfi_endproc
                                        # -- End function
	.globl	price_out_impl.10       # -- Begin function price_out_impl.10
	.p2align	4, 0x90
	.type	price_out_impl.10,@function
price_out_impl.10:                      # @price_out_impl.10
	.cfi_startproc
# %bb.0:                                # %entry
	pushq	%rbp
	.cfi_def_cfa_offset 16
	.cfi_offset %rbp, -16
	movq	%rsp, %rbp
	.cfi_def_cfa_register %rbp
	pushq	%rbx
	subq	$168, %rsp
	.cfi_offset %rbx, -24
	movl	$1270444694, -100(%rbp) # imm = 0x4BB97296
	movq	%rdi, -16(%rbp)
	movq	$0, -40(%rbp)
	movq	$0, -120(%rbp)
	movq	$15, -160(%rbp)
	movq	-16(%rbp), %rax
	movq	528(%rax), %rax
	movq	%rax, -168(%rbp)
	movq	$30, -96(%rbp)
	movq	-168(%rbp), %rax
	subq	-160(%rbp), %rax
	movq	%rax, -152(%rbp)
	movq	-16(%rbp), %rax
	cmpq	$15000, 408(%rax)       # imm = 0x3A98
	jg	.LBB14_7
# %bb.1:                                # %if.then
	movq	-16(%rbp), %rax
	movq	424(%rax), %rax
	movq	-16(%rbp), %rcx
	addq	456(%rcx), %rax
	movq	-16(%rbp), %rcx
	cmpq	416(%rcx), %rax
	jle	.LBB14_6
# %bb.2:                                # %land.lhs.true
	movq	-16(%rbp), %rax
	movq	408(%rax), %rax
	movq	-16(%rbp), %rcx
	imulq	408(%rcx), %rax
	cqto
	movl	$2, %ecx
	idivq	%rcx
	movq	-16(%rbp), %rcx
	addq	424(%rcx), %rax
	movq	-16(%rbp), %rcx
	cmpq	416(%rcx), %rax
	jle	.LBB14_6
# %bb.3:                                # %if.then9
	movq	$1, -120(%rbp)
	movq	-16(%rbp), %rdi
	callq	resize_prob
	cmpq	$0, %rax
	je	.LBB14_5
# %bb.4:                                # %if.then10
	movq	$-1, -112(%rbp)
	jmp	.LBB14_48
.LBB14_5:                               # %if.end
	movq	-16(%rbp), %rdi
	callq	refresh_neighbour_lists
.LBB14_6:                               # %if.end11
	jmp	.LBB14_7
.LBB14_7:                               # %if.end12
	movq	-16(%rbp), %rax
	movq	576(%rax), %rax
	movq	%rax, -24(%rbp)
	movq	-16(%rbp), %rax
	movq	408(%rax), %rax
	movq	%rax, -136(%rbp)
	movq	-16(%rbp), %rax
	movq	568(%rax), %rax
	movq	%rax, -32(%rbp)
	movq	$0, -48(%rbp)
.LBB14_8:                               # %for.cond
                                        # =>This Inner Loop Header: Depth=1
	xorl	%eax, %eax
	movq	-48(%rbp), %rcx
	cmpq	-136(%rbp), %rcx
	jge	.LBB14_10
# %bb.9:                                # %land.rhs
                                        #   in Loop: Header=BB14_8 Depth=1
	movq	-32(%rbp), %rax
	cmpl	$-1, 88(%rax)
	sete	%al
.LBB14_10:                              # %land.end
                                        #   in Loop: Header=BB14_8 Depth=1
	testb	$1, %al
	jne	.LBB14_11
	jmp	.LBB14_13
.LBB14_11:                              # %for.body
                                        #   in Loop: Header=BB14_8 Depth=1
	jmp	.LBB14_12
.LBB14_12:                              # %for.inc
                                        #   in Loop: Header=BB14_8 Depth=1
	movq	-48(%rbp), %rax
	addq	$1, %rax
	movq	%rax, -48(%rbp)
	movq	-32(%rbp), %rax
	addq	$192, %rax
	movq	%rax, -32(%rbp)
	jmp	.LBB14_8
.LBB14_13:                              # %for.end
	movq	$0, -88(%rbp)
.LBB14_14:                              # %for.cond16
                                        # =>This Loop Header: Depth=1
                                        #     Child Loop BB14_20 Depth 2
	movq	-48(%rbp), %rax
	cmpq	-136(%rbp), %rax
	jge	.LBB14_34
# %bb.15:                               # %for.body18
                                        #   in Loop: Header=BB14_14 Depth=1
	movq	-32(%rbp), %rax
	cmpl	$-1, 88(%rax)
	je	.LBB14_17
# %bb.16:                               # %if.then22
                                        #   in Loop: Header=BB14_14 Depth=1
	movq	-88(%rbp), %rax
	movq	-32(%rbp), %rcx
	movq	16(%rcx), %rcx
	movq	56(%rcx), %rcx
	movq	16(%rcx), %rcx
	movq	%rax, 72(%rcx)
	movq	-32(%rbp), %rax
	addq	$64, %rax
	movq	%rax, -88(%rbp)
.LBB14_17:                              # %if.end26
                                        #   in Loop: Header=BB14_14 Depth=1
	movq	-32(%rbp), %rax
	cmpl	$-1, 24(%rax)
	jne	.LBB14_19
# %bb.18:                               # %if.then29
                                        #   in Loop: Header=BB14_14 Depth=1
	jmp	.LBB14_33
.LBB14_19:                              # %if.end30
                                        #   in Loop: Header=BB14_14 Depth=1
	movq	-32(%rbp), %rax
	movq	16(%rax), %rax
	movq	%rax, -72(%rbp)
	movq	-72(%rbp), %rax
	movslq	100(%rax), %rax
	movq	-32(%rbp), %rcx
	subq	56(%rcx), %rax
	addq	-152(%rbp), %rax
	movq	%rax, -144(%rbp)
	movq	-72(%rbp), %rax
	movq	(%rax), %rax
	movq	%rax, -176(%rbp)
	movq	-88(%rbp), %rax
	movq	8(%rax), %rax
	movq	72(%rax), %rax
	movq	%rax, -64(%rbp)
.LBB14_20:                              # %while.cond
                                        #   Parent Loop BB14_14 Depth=1
                                        # =>  This Inner Loop Header: Depth=2
	cmpq	$0, -64(%rbp)
	je	.LBB14_32
# %bb.21:                               # %while.body
                                        #   in Loop: Header=BB14_20 Depth=2
	movq	-64(%rbp), %rax
	movq	8(%rax), %rax
	movq	%rax, -56(%rbp)
	movq	-56(%rbp), %rax
	movslq	100(%rax), %rax
	movq	-64(%rbp), %rcx
	addq	56(%rcx), %rax
	cmpq	-144(%rbp), %rax
	jle	.LBB14_24
# %bb.22:                               # %if.then44
                                        #   in Loop: Header=BB14_20 Depth=2
	movq	-56(%rbp), %rax
	movq	72(%rax), %rax
	movq	%rax, -64(%rbp)
.LBB14_23:                              # %while.cond.backedge
                                        #   in Loop: Header=BB14_20 Depth=2
	jmp	.LBB14_20
.LBB14_24:                              # %if.end46
                                        #   in Loop: Header=BB14_20 Depth=2
	movq	-96(%rbp), %rax
	movq	-56(%rbp), %rcx
	subq	(%rcx), %rax
	movq	-72(%rbp), %rcx
	addq	(%rcx), %rax
	movq	%rax, -80(%rbp)
	cmpq	$0, -80(%rbp)
	jge	.LBB14_31
# %bb.25:                               # %if.then53
                                        #   in Loop: Header=BB14_20 Depth=2
	movq	-40(%rbp), %rax
	movq	-16(%rbp), %rcx
	cmpq	448(%rcx), %rax
	jge	.LBB14_27
# %bb.26:                               # %if.then56
                                        #   in Loop: Header=BB14_20 Depth=2
	movq	-24(%rbp), %rdi
	movq	-40(%rbp), %rsi
	movq	-56(%rbp), %rdx
	movq	-72(%rbp), %rcx
	movq	-96(%rbp), %r8
	movq	-80(%rbp), %r9
	callq	insert_new_arc
	movq	-40(%rbp), %rax
	addq	$1, %rax
	movq	%rax, -40(%rbp)
	jmp	.LBB14_30
.LBB14_27:                              # %if.else
                                        #   in Loop: Header=BB14_20 Depth=2
	movq	-24(%rbp), %rax
	movq	48(%rax), %rax
	cmpq	-80(%rbp), %rax
	jle	.LBB14_29
# %bb.28:                               # %if.then61
                                        #   in Loop: Header=BB14_20 Depth=2
	movq	-16(%rbp), %rdi
	movq	-24(%rbp), %rsi
	movq	-56(%rbp), %rdx
	movq	-72(%rbp), %rcx
	movq	-96(%rbp), %r8
	movq	-80(%rbp), %r9
	callq	replace_weaker_arc
.LBB14_29:                              # %if.end62
                                        #   in Loop: Header=BB14_20 Depth=2
	jmp	.LBB14_30
.LBB14_30:                              # %if.end63
                                        #   in Loop: Header=BB14_20 Depth=2
	jmp	.LBB14_31
.LBB14_31:                              # %if.end64
                                        #   in Loop: Header=BB14_20 Depth=2
	movq	-56(%rbp), %rax
	movq	72(%rax), %rax
	movq	%rax, -64(%rbp)
	jmp	.LBB14_23
.LBB14_32:                              # %while.end
                                        #   in Loop: Header=BB14_14 Depth=1
	jmp	.LBB14_33
.LBB14_33:                              # %for.inc66
                                        #   in Loop: Header=BB14_14 Depth=1
	movq	-48(%rbp), %rax
	addq	$1, %rax
	movq	%rax, -48(%rbp)
	movq	-32(%rbp), %rax
	addq	$192, %rax
	movq	%rax, -32(%rbp)
	jmp	.LBB14_14
.LBB14_34:                              # %for.end69
	cmpq	$0, -40(%rbp)
	je	.LBB14_47
# %bb.35:                               # %if.then71
	movq	-16(%rbp), %rax
	movq	576(%rax), %rax
	movq	%rax, -24(%rbp)
	movq	-40(%rbp), %rax
	movq	-16(%rbp), %rcx
	shlq	$6, %rax
	addq	576(%rcx), %rax
	movq	%rax, 576(%rcx)
	movq	-16(%rbp), %rax
	movq	576(%rax), %rax
	movq	%rax, -128(%rbp)
	cmpq	$0, -120(%rbp)
	je	.LBB14_41
# %bb.36:                               # %if.then77
	jmp	.LBB14_37
.LBB14_37:                              # %for.cond78
                                        # =>This Inner Loop Header: Depth=1
	movq	-24(%rbp), %rax
	cmpq	-128(%rbp), %rax
	je	.LBB14_40
# %bb.38:                               # %for.body81
                                        #   in Loop: Header=BB14_37 Depth=1
	movq	-24(%rbp), %rax
	movq	$0, 48(%rax)
	movq	-24(%rbp), %rax
	movl	$1, 24(%rax)
# %bb.39:                               # %for.inc84
                                        #   in Loop: Header=BB14_37 Depth=1
	movq	-24(%rbp), %rax
	addq	$64, %rax
	movq	%rax, -24(%rbp)
	jmp	.LBB14_37
.LBB14_40:                              # %for.end85
	jmp	.LBB14_46
.LBB14_41:                              # %if.else86
	jmp	.LBB14_42
.LBB14_42:                              # %for.cond87
                                        # =>This Inner Loop Header: Depth=1
	movq	-24(%rbp), %rax
	cmpq	-128(%rbp), %rax
	je	.LBB14_45
# %bb.43:                               # %for.body90
                                        #   in Loop: Header=BB14_42 Depth=1
	movq	-24(%rbp), %rax
	movq	$0, 48(%rax)
	movq	-24(%rbp), %rax
	movl	$1, 24(%rax)
	movq	-24(%rbp), %rax
	movq	8(%rax), %rax
	movq	56(%rax), %rax
	movq	-24(%rbp), %rcx
	movq	%rax, 32(%rcx)
	movq	-24(%rbp), %rax
	movq	-24(%rbp), %rcx
	movq	8(%rcx), %rcx
	movq	%rax, 56(%rcx)
	movq	-24(%rbp), %rax
	movq	16(%rax), %rax
	movq	64(%rax), %rax
	movq	-24(%rbp), %rcx
	movq	%rax, 40(%rcx)
	movq	-24(%rbp), %rax
	movq	-24(%rbp), %rcx
	movq	16(%rcx), %rcx
	movq	%rax, 64(%rcx)
# %bb.44:                               # %for.inc100
                                        #   in Loop: Header=BB14_42 Depth=1
	movq	-24(%rbp), %rax
	addq	$64, %rax
	movq	%rax, -24(%rbp)
	jmp	.LBB14_42
.LBB14_45:                              # %for.end102
	jmp	.LBB14_46
.LBB14_46:                              # %if.end103
	movq	-40(%rbp), %rax
	movq	-16(%rbp), %rcx
	addq	424(%rcx), %rax
	movq	%rax, 424(%rcx)
	movq	-40(%rbp), %rax
	movq	-16(%rbp), %rcx
	addq	440(%rcx), %rax
	movq	%rax, 440(%rcx)
	movq	-40(%rbp), %rax
	movq	-16(%rbp), %rcx
	movq	448(%rcx), %rdx
	subq	%rax, %rdx
	movq	%rdx, 448(%rcx)
.LBB14_47:                              # %if.end109
	movq	-40(%rbp), %rax
	movq	%rax, -112(%rbp)
.LBB14_48:                              # %return
	movq	-112(%rbp), %rbx
	cmpl	$1270444694, -100(%rbp) # imm = 0x4BB97296
	jne	.LBB14_50
.LBB14_49:
	movq	%rbx, %rax
	addq	$168, %rsp
	popq	%rbx
	popq	%rbp
	.cfi_def_cfa %rsp, 8
	retq
.LBB14_50:                              # %func_exit
	.cfi_def_cfa %rbp, 16
	callq	detect_breach
	jmp	.LBB14_49
.Lfunc_end14:
	.size	price_out_impl.10, .Lfunc_end14-price_out_impl.10
	.cfi_endproc
                                        # -- End function
	.globl	replace_weaker_arc.11   # -- Begin function replace_weaker_arc.11
	.p2align	4, 0x90
	.type	replace_weaker_arc.11,@function
replace_weaker_arc.11:                  # @replace_weaker_arc.11
	.cfi_startproc
# %bb.0:                                # %entry
	pushq	%rbp
	.cfi_def_cfa_offset 16
	.cfi_offset %rbp, -16
	movq	%rsp, %rbp
	.cfi_def_cfa_register %rbp
	subq	$80, %rsp
	movl	$56172713, -44(%rbp)    # imm = 0x35920A9
	movq	%rdi, -56(%rbp)
	movq	%rsi, -8(%rbp)
	movq	%rdx, -64(%rbp)
	movq	%rcx, -72(%rbp)
	movq	%r8, -32(%rbp)
	movq	%r9, -40(%rbp)
	movq	-64(%rbp), %rax
	movq	-8(%rbp), %rcx
	movq	%rax, 8(%rcx)
	movq	-72(%rbp), %rax
	movq	-8(%rbp), %rcx
	movq	%rax, 16(%rcx)
	movq	-32(%rbp), %rax
	movq	-8(%rbp), %rcx
	movq	%rax, 56(%rcx)
	movq	-32(%rbp), %rax
	movq	-8(%rbp), %rcx
	movq	%rax, (%rcx)
	movq	-40(%rbp), %rax
	movq	-8(%rbp), %rcx
	movq	%rax, 48(%rcx)
	movq	$1, -24(%rbp)
	movq	-8(%rbp), %rax
	movq	112(%rax), %rax
	movq	-8(%rbp), %rcx
	movq	176(%rcx), %rcx
	cmpq	%rcx, %rax
	movl	$2, %eax
	movl	$3, %ecx
	cmovgl	%eax, %ecx
	movslq	%ecx, %rax
	movq	%rax, -16(%rbp)
.LBB15_1:                               # %while.cond
                                        # =>This Inner Loop Header: Depth=1
	xorl	%eax, %eax
	movq	-16(%rbp), %rcx
	movq	-56(%rbp), %rdx
	cmpq	448(%rdx), %rcx
	jg	.LBB15_3
# %bb.2:                                # %land.rhs
                                        #   in Loop: Header=BB15_1 Depth=1
	movq	-40(%rbp), %rax
	movq	-8(%rbp), %rcx
	movq	-16(%rbp), %rdx
	subq	$1, %rdx
	shlq	$6, %rdx
	addq	%rdx, %rcx
	cmpq	48(%rcx), %rax
	setl	%al
.LBB15_3:                               # %land.end
                                        #   in Loop: Header=BB15_1 Depth=1
	testb	$1, %al
	jne	.LBB15_4
	jmp	.LBB15_9
.LBB15_4:                               # %while.body
                                        #   in Loop: Header=BB15_1 Depth=1
	movq	-8(%rbp), %rax
	movq	-16(%rbp), %rcx
	subq	$1, %rcx
	shlq	$6, %rcx
	addq	%rcx, %rax
	movq	8(%rax), %rax
	movq	-8(%rbp), %rcx
	movq	-24(%rbp), %rdx
	subq	$1, %rdx
	shlq	$6, %rdx
	addq	%rdx, %rcx
	movq	%rax, 8(%rcx)
	movq	-8(%rbp), %rax
	movq	-16(%rbp), %rcx
	subq	$1, %rcx
	shlq	$6, %rcx
	addq	%rcx, %rax
	movq	16(%rax), %rax
	movq	-8(%rbp), %rcx
	movq	-24(%rbp), %rdx
	subq	$1, %rdx
	shlq	$6, %rdx
	addq	%rdx, %rcx
	movq	%rax, 16(%rcx)
	movq	-8(%rbp), %rax
	movq	-16(%rbp), %rcx
	subq	$1, %rcx
	shlq	$6, %rcx
	addq	%rcx, %rax
	movq	(%rax), %rax
	movq	-8(%rbp), %rcx
	movq	-24(%rbp), %rdx
	subq	$1, %rdx
	shlq	$6, %rdx
	addq	%rdx, %rcx
	movq	%rax, (%rcx)
	movq	-8(%rbp), %rax
	movq	-16(%rbp), %rcx
	subq	$1, %rcx
	shlq	$6, %rcx
	addq	%rcx, %rax
	movq	(%rax), %rax
	movq	-8(%rbp), %rcx
	movq	-24(%rbp), %rdx
	subq	$1, %rdx
	shlq	$6, %rdx
	addq	%rdx, %rcx
	movq	%rax, 56(%rcx)
	movq	-8(%rbp), %rax
	movq	-16(%rbp), %rcx
	subq	$1, %rcx
	shlq	$6, %rcx
	addq	%rcx, %rax
	movq	48(%rax), %rax
	movq	-8(%rbp), %rcx
	movq	-24(%rbp), %rdx
	subq	$1, %rdx
	shlq	$6, %rdx
	addq	%rdx, %rcx
	movq	%rax, 48(%rcx)
	movq	-64(%rbp), %rax
	movq	-8(%rbp), %rcx
	movq	-16(%rbp), %rdx
	subq	$1, %rdx
	shlq	$6, %rdx
	addq	%rdx, %rcx
	movq	%rax, 8(%rcx)
	movq	-72(%rbp), %rax
	movq	-8(%rbp), %rcx
	movq	-16(%rbp), %rdx
	subq	$1, %rdx
	shlq	$6, %rdx
	addq	%rdx, %rcx
	movq	%rax, 16(%rcx)
	movq	-32(%rbp), %rax
	movq	-8(%rbp), %rcx
	movq	-16(%rbp), %rdx
	subq	$1, %rdx
	shlq	$6, %rdx
	addq	%rdx, %rcx
	movq	%rax, (%rcx)
	movq	-32(%rbp), %rax
	movq	-8(%rbp), %rcx
	movq	-16(%rbp), %rdx
	subq	$1, %rdx
	shlq	$6, %rdx
	addq	%rdx, %rcx
	movq	%rax, 56(%rcx)
	movq	-40(%rbp), %rax
	movq	-8(%rbp), %rcx
	movq	-16(%rbp), %rdx
	subq	$1, %rdx
	shlq	$6, %rdx
	addq	%rdx, %rcx
	movq	%rax, 48(%rcx)
	movq	-16(%rbp), %rax
	movq	%rax, -24(%rbp)
	movq	-16(%rbp), %rax
	shlq	$1, %rax
	movq	%rax, -16(%rbp)
	movq	-16(%rbp), %rax
	addq	$1, %rax
	movq	-56(%rbp), %rcx
	cmpq	448(%rcx), %rax
	jg	.LBB15_8
# %bb.5:                                # %if.then
                                        #   in Loop: Header=BB15_1 Depth=1
	movq	-8(%rbp), %rax
	movq	-16(%rbp), %rcx
	subq	$1, %rcx
	shlq	$6, %rcx
	addq	%rcx, %rax
	movq	48(%rax), %rax
	movq	-8(%rbp), %rcx
	movq	-16(%rbp), %rdx
	shlq	$6, %rdx
	addq	%rdx, %rcx
	cmpq	48(%rcx), %rax
	jge	.LBB15_7
# %bb.6:                                # %if.then74
                                        #   in Loop: Header=BB15_1 Depth=1
	movq	-16(%rbp), %rax
	addq	$1, %rax
	movq	%rax, -16(%rbp)
.LBB15_7:                               # %if.end
                                        #   in Loop: Header=BB15_1 Depth=1
	jmp	.LBB15_8
.LBB15_8:                               # %if.end75
                                        #   in Loop: Header=BB15_1 Depth=1
	jmp	.LBB15_1
.LBB15_9:                               # %while.end
	cmpl	$56172713, -44(%rbp)    # imm = 0x35920A9
	jne	.LBB15_11
.LBB15_10:
	addq	$80, %rsp
	popq	%rbp
	.cfi_def_cfa %rsp, 8
	retq
.LBB15_11:                              # %func_exit
	.cfi_def_cfa %rbp, 16
	callq	detect_breach
	jmp	.LBB15_10
.Lfunc_end15:
	.size	replace_weaker_arc.11, .Lfunc_end15-replace_weaker_arc.11
	.cfi_endproc
                                        # -- End function
	.globl	replace_weaker_arc.12   # -- Begin function replace_weaker_arc.12
	.p2align	4, 0x90
	.type	replace_weaker_arc.12,@function
replace_weaker_arc.12:                  # @replace_weaker_arc.12
	.cfi_startproc
# %bb.0:                                # %entry
	pushq	%rbp
	.cfi_def_cfa_offset 16
	.cfi_offset %rbp, -16
	movq	%rsp, %rbp
	.cfi_def_cfa_register %rbp
	subq	$80, %rsp
	movl	$1998590363, -44(%rbp)  # imm = 0x7720119B
	movq	%rdi, -72(%rbp)
	movq	%rsi, -8(%rbp)
	movq	%rdx, -56(%rbp)
	movq	%rcx, -64(%rbp)
	movq	%r8, -32(%rbp)
	movq	%r9, -40(%rbp)
	movq	-56(%rbp), %rax
	movq	-8(%rbp), %rcx
	movq	%rax, 8(%rcx)
	movq	-64(%rbp), %rax
	movq	-8(%rbp), %rcx
	movq	%rax, 16(%rcx)
	movq	-32(%rbp), %rax
	movq	-8(%rbp), %rcx
	movq	%rax, 56(%rcx)
	movq	-32(%rbp), %rax
	movq	-8(%rbp), %rcx
	movq	%rax, (%rcx)
	movq	-40(%rbp), %rax
	movq	-8(%rbp), %rcx
	movq	%rax, 48(%rcx)
	movq	$1, -24(%rbp)
	movq	-8(%rbp), %rax
	movq	112(%rax), %rax
	movq	-8(%rbp), %rcx
	movq	176(%rcx), %rcx
	cmpq	%rcx, %rax
	movl	$2, %eax
	movl	$3, %ecx
	cmovgl	%eax, %ecx
	movslq	%ecx, %rax
	movq	%rax, -16(%rbp)
.LBB16_1:                               # %while.cond
                                        # =>This Inner Loop Header: Depth=1
	xorl	%eax, %eax
	movq	-16(%rbp), %rcx
	movq	-72(%rbp), %rdx
	cmpq	448(%rdx), %rcx
	jg	.LBB16_3
# %bb.2:                                # %land.rhs
                                        #   in Loop: Header=BB16_1 Depth=1
	movq	-40(%rbp), %rax
	movq	-8(%rbp), %rcx
	movq	-16(%rbp), %rdx
	subq	$1, %rdx
	shlq	$6, %rdx
	addq	%rdx, %rcx
	cmpq	48(%rcx), %rax
	setl	%al
.LBB16_3:                               # %land.end
                                        #   in Loop: Header=BB16_1 Depth=1
	testb	$1, %al
	jne	.LBB16_4
	jmp	.LBB16_9
.LBB16_4:                               # %while.body
                                        #   in Loop: Header=BB16_1 Depth=1
	movq	-8(%rbp), %rax
	movq	-16(%rbp), %rcx
	subq	$1, %rcx
	shlq	$6, %rcx
	addq	%rcx, %rax
	movq	8(%rax), %rax
	movq	-8(%rbp), %rcx
	movq	-24(%rbp), %rdx
	subq	$1, %rdx
	shlq	$6, %rdx
	addq	%rdx, %rcx
	movq	%rax, 8(%rcx)
	movq	-8(%rbp), %rax
	movq	-16(%rbp), %rcx
	subq	$1, %rcx
	shlq	$6, %rcx
	addq	%rcx, %rax
	movq	16(%rax), %rax
	movq	-8(%rbp), %rcx
	movq	-24(%rbp), %rdx
	subq	$1, %rdx
	shlq	$6, %rdx
	addq	%rdx, %rcx
	movq	%rax, 16(%rcx)
	movq	-8(%rbp), %rax
	movq	-16(%rbp), %rcx
	subq	$1, %rcx
	shlq	$6, %rcx
	addq	%rcx, %rax
	movq	(%rax), %rax
	movq	-8(%rbp), %rcx
	movq	-24(%rbp), %rdx
	subq	$1, %rdx
	shlq	$6, %rdx
	addq	%rdx, %rcx
	movq	%rax, (%rcx)
	movq	-8(%rbp), %rax
	movq	-16(%rbp), %rcx
	subq	$1, %rcx
	shlq	$6, %rcx
	addq	%rcx, %rax
	movq	(%rax), %rax
	movq	-8(%rbp), %rcx
	movq	-24(%rbp), %rdx
	subq	$1, %rdx
	shlq	$6, %rdx
	addq	%rdx, %rcx
	movq	%rax, 56(%rcx)
	movq	-8(%rbp), %rax
	movq	-16(%rbp), %rcx
	subq	$1, %rcx
	shlq	$6, %rcx
	addq	%rcx, %rax
	movq	48(%rax), %rax
	movq	-8(%rbp), %rcx
	movq	-24(%rbp), %rdx
	subq	$1, %rdx
	shlq	$6, %rdx
	addq	%rdx, %rcx
	movq	%rax, 48(%rcx)
	movq	-56(%rbp), %rax
	movq	-8(%rbp), %rcx
	movq	-16(%rbp), %rdx
	subq	$1, %rdx
	shlq	$6, %rdx
	addq	%rdx, %rcx
	movq	%rax, 8(%rcx)
	movq	-64(%rbp), %rax
	movq	-8(%rbp), %rcx
	movq	-16(%rbp), %rdx
	subq	$1, %rdx
	shlq	$6, %rdx
	addq	%rdx, %rcx
	movq	%rax, 16(%rcx)
	movq	-32(%rbp), %rax
	movq	-8(%rbp), %rcx
	movq	-16(%rbp), %rdx
	subq	$1, %rdx
	shlq	$6, %rdx
	addq	%rdx, %rcx
	movq	%rax, (%rcx)
	movq	-32(%rbp), %rax
	movq	-8(%rbp), %rcx
	movq	-16(%rbp), %rdx
	subq	$1, %rdx
	shlq	$6, %rdx
	addq	%rdx, %rcx
	movq	%rax, 56(%rcx)
	movq	-40(%rbp), %rax
	movq	-8(%rbp), %rcx
	movq	-16(%rbp), %rdx
	subq	$1, %rdx
	shlq	$6, %rdx
	addq	%rdx, %rcx
	movq	%rax, 48(%rcx)
	movq	-16(%rbp), %rax
	movq	%rax, -24(%rbp)
	movq	-16(%rbp), %rax
	shlq	$1, %rax
	movq	%rax, -16(%rbp)
	movq	-16(%rbp), %rax
	addq	$1, %rax
	movq	-72(%rbp), %rcx
	cmpq	448(%rcx), %rax
	jg	.LBB16_8
# %bb.5:                                # %if.then
                                        #   in Loop: Header=BB16_1 Depth=1
	movq	-8(%rbp), %rax
	movq	-16(%rbp), %rcx
	subq	$1, %rcx
	shlq	$6, %rcx
	addq	%rcx, %rax
	movq	48(%rax), %rax
	movq	-8(%rbp), %rcx
	movq	-16(%rbp), %rdx
	shlq	$6, %rdx
	addq	%rdx, %rcx
	cmpq	48(%rcx), %rax
	jge	.LBB16_7
# %bb.6:                                # %if.then74
                                        #   in Loop: Header=BB16_1 Depth=1
	movq	-16(%rbp), %rax
	addq	$1, %rax
	movq	%rax, -16(%rbp)
.LBB16_7:                               # %if.end
                                        #   in Loop: Header=BB16_1 Depth=1
	jmp	.LBB16_8
.LBB16_8:                               # %if.end75
                                        #   in Loop: Header=BB16_1 Depth=1
	jmp	.LBB16_1
.LBB16_9:                               # %while.end
	cmpl	$1998590363, -44(%rbp)  # imm = 0x7720119B
	jne	.LBB16_11
.LBB16_10:
	addq	$80, %rsp
	popq	%rbp
	.cfi_def_cfa %rsp, 8
	retq
.LBB16_11:                              # %func_exit
	.cfi_def_cfa %rbp, 16
	callq	detect_breach
	jmp	.LBB16_10
.Lfunc_end16:
	.size	replace_weaker_arc.12, .Lfunc_end16-replace_weaker_arc.12
	.cfi_endproc
                                        # -- End function
	.globl	insert_new_arc.13       # -- Begin function insert_new_arc.13
	.p2align	4, 0x90
	.type	insert_new_arc.13,@function
insert_new_arc.13:                      # @insert_new_arc.13
	.cfi_startproc
# %bb.0:                                # %entry
	pushq	%rbp
	.cfi_def_cfa_offset 16
	.cfi_offset %rbp, -16
	movq	%rsp, %rbp
	.cfi_def_cfa_register %rbp
	subq	$64, %rsp
	movl	$119414049, -44(%rbp)   # imm = 0x71E1D21
	movq	%rdi, -8(%rbp)
	movq	%rsi, -24(%rbp)
	movq	%rdx, -64(%rbp)
	movq	%rcx, -56(%rbp)
	movq	%r8, -32(%rbp)
	movq	%r9, -40(%rbp)
	movq	-64(%rbp), %rax
	movq	-8(%rbp), %rcx
	movq	-24(%rbp), %rdx
	shlq	$6, %rdx
	addq	%rdx, %rcx
	movq	%rax, 8(%rcx)
	movq	-56(%rbp), %rax
	movq	-8(%rbp), %rcx
	movq	-24(%rbp), %rdx
	shlq	$6, %rdx
	addq	%rdx, %rcx
	movq	%rax, 16(%rcx)
	movq	-32(%rbp), %rax
	movq	-8(%rbp), %rcx
	movq	-24(%rbp), %rdx
	shlq	$6, %rdx
	addq	%rdx, %rcx
	movq	%rax, 56(%rcx)
	movq	-32(%rbp), %rax
	movq	-8(%rbp), %rcx
	movq	-24(%rbp), %rdx
	shlq	$6, %rdx
	addq	%rdx, %rcx
	movq	%rax, (%rcx)
	movq	-40(%rbp), %rax
	movq	-8(%rbp), %rcx
	movq	-24(%rbp), %rdx
	shlq	$6, %rdx
	addq	%rdx, %rcx
	movq	%rax, 48(%rcx)
	movq	-24(%rbp), %rax
	addq	$1, %rax
	movq	%rax, -16(%rbp)
.LBB17_1:                               # %while.cond
                                        # =>This Inner Loop Header: Depth=1
	xorl	%eax, %eax
	movq	-16(%rbp), %rcx
	subq	$1, %rcx
	cmpq	$0, %rcx
	je	.LBB17_3
# %bb.2:                                # %land.rhs
                                        #   in Loop: Header=BB17_1 Depth=1
	movq	-40(%rbp), %rcx
	movq	-8(%rbp), %rsi
	movq	-16(%rbp), %rax
	cqto
	movl	$2, %edi
	idivq	%rdi
	subq	$1, %rax
	shlq	$6, %rax
	addq	%rax, %rsi
	cmpq	48(%rsi), %rcx
	setg	%al
.LBB17_3:                               # %land.end
                                        #   in Loop: Header=BB17_1 Depth=1
	testb	$1, %al
	jne	.LBB17_4
	jmp	.LBB17_5
.LBB17_4:                               # %while.body
                                        #   in Loop: Header=BB17_1 Depth=1
	movq	-8(%rbp), %rsi
	movq	-16(%rbp), %rax
	cqto
	movl	$2, %ecx
	idivq	%rcx
	subq	$1, %rax
	shlq	$6, %rax
	addq	%rax, %rsi
	movq	8(%rsi), %rax
	movq	-8(%rbp), %rdx
	movq	-16(%rbp), %rsi
	subq	$1, %rsi
	shlq	$6, %rsi
	addq	%rsi, %rdx
	movq	%rax, 8(%rdx)
	movq	-8(%rbp), %rsi
	movq	-16(%rbp), %rax
	cqto
	idivq	%rcx
	subq	$1, %rax
	shlq	$6, %rax
	addq	%rax, %rsi
	movq	16(%rsi), %rax
	movq	-8(%rbp), %rdx
	movq	-16(%rbp), %rsi
	subq	$1, %rsi
	shlq	$6, %rsi
	addq	%rsi, %rdx
	movq	%rax, 16(%rdx)
	movq	-8(%rbp), %rsi
	movq	-16(%rbp), %rax
	cqto
	idivq	%rcx
	subq	$1, %rax
	shlq	$6, %rax
	addq	%rax, %rsi
	movq	(%rsi), %rax
	movq	-8(%rbp), %rdx
	movq	-16(%rbp), %rsi
	subq	$1, %rsi
	shlq	$6, %rsi
	addq	%rsi, %rdx
	movq	%rax, (%rdx)
	movq	-8(%rbp), %rsi
	movq	-16(%rbp), %rax
	cqto
	idivq	%rcx
	subq	$1, %rax
	shlq	$6, %rax
	addq	%rax, %rsi
	movq	(%rsi), %rax
	movq	-8(%rbp), %rdx
	movq	-16(%rbp), %rsi
	subq	$1, %rsi
	shlq	$6, %rsi
	addq	%rsi, %rdx
	movq	%rax, 56(%rdx)
	movq	-8(%rbp), %rsi
	movq	-16(%rbp), %rax
	cqto
	idivq	%rcx
	subq	$1, %rax
	shlq	$6, %rax
	addq	%rax, %rsi
	movq	48(%rsi), %rax
	movq	-8(%rbp), %rdx
	movq	-16(%rbp), %rsi
	subq	$1, %rsi
	shlq	$6, %rsi
	addq	%rsi, %rdx
	movq	%rax, 48(%rdx)
	movq	-16(%rbp), %rax
	cqto
	idivq	%rcx
	movq	%rax, -16(%rbp)
	movq	-64(%rbp), %rax
	movq	-8(%rbp), %rcx
	movq	-16(%rbp), %rdx
	subq	$1, %rdx
	shlq	$6, %rdx
	addq	%rdx, %rcx
	movq	%rax, 8(%rcx)
	movq	-56(%rbp), %rax
	movq	-8(%rbp), %rcx
	movq	-16(%rbp), %rdx
	subq	$1, %rdx
	shlq	$6, %rdx
	addq	%rdx, %rcx
	movq	%rax, 16(%rcx)
	movq	-32(%rbp), %rax
	movq	-8(%rbp), %rcx
	movq	-16(%rbp), %rdx
	subq	$1, %rdx
	shlq	$6, %rdx
	addq	%rdx, %rcx
	movq	%rax, (%rcx)
	movq	-32(%rbp), %rax
	movq	-8(%rbp), %rcx
	movq	-16(%rbp), %rdx
	subq	$1, %rdx
	shlq	$6, %rdx
	addq	%rdx, %rcx
	movq	%rax, 56(%rcx)
	movq	-40(%rbp), %rax
	movq	-8(%rbp), %rcx
	movq	-16(%rbp), %rdx
	subq	$1, %rdx
	shlq	$6, %rdx
	addq	%rdx, %rcx
	movq	%rax, 48(%rcx)
	jmp	.LBB17_1
.LBB17_5:                               # %while.end
	cmpl	$119414049, -44(%rbp)   # imm = 0x71E1D21
	jne	.LBB17_7
.LBB17_6:
	addq	$64, %rsp
	popq	%rbp
	.cfi_def_cfa %rsp, 8
	retq
.LBB17_7:                               # %func_exit
	.cfi_def_cfa %rbp, 16
	callq	detect_breach
	jmp	.LBB17_6
.Lfunc_end17:
	.size	insert_new_arc.13, .Lfunc_end17-insert_new_arc.13
	.cfi_endproc
                                        # -- End function
	.globl	replace_weaker_arc.14   # -- Begin function replace_weaker_arc.14
	.p2align	4, 0x90
	.type	replace_weaker_arc.14,@function
replace_weaker_arc.14:                  # @replace_weaker_arc.14
	.cfi_startproc
# %bb.0:                                # %entry
	pushq	%rbp
	.cfi_def_cfa_offset 16
	.cfi_offset %rbp, -16
	movq	%rsp, %rbp
	.cfi_def_cfa_register %rbp
	subq	$80, %rsp
	movl	$411385598, -44(%rbp)   # imm = 0x18853EFE
	movq	%rdi, -64(%rbp)
	movq	%rsi, -8(%rbp)
	movq	%rdx, -72(%rbp)
	movq	%rcx, -56(%rbp)
	movq	%r8, -32(%rbp)
	movq	%r9, -40(%rbp)
	movq	-72(%rbp), %rax
	movq	-8(%rbp), %rcx
	movq	%rax, 8(%rcx)
	movq	-56(%rbp), %rax
	movq	-8(%rbp), %rcx
	movq	%rax, 16(%rcx)
	movq	-32(%rbp), %rax
	movq	-8(%rbp), %rcx
	movq	%rax, 56(%rcx)
	movq	-32(%rbp), %rax
	movq	-8(%rbp), %rcx
	movq	%rax, (%rcx)
	movq	-40(%rbp), %rax
	movq	-8(%rbp), %rcx
	movq	%rax, 48(%rcx)
	movq	$1, -24(%rbp)
	movq	-8(%rbp), %rax
	movq	112(%rax), %rax
	movq	-8(%rbp), %rcx
	movq	176(%rcx), %rcx
	cmpq	%rcx, %rax
	movl	$2, %eax
	movl	$3, %ecx
	cmovgl	%eax, %ecx
	movslq	%ecx, %rax
	movq	%rax, -16(%rbp)
.LBB18_1:                               # %while.cond
                                        # =>This Inner Loop Header: Depth=1
	xorl	%eax, %eax
	movq	-16(%rbp), %rcx
	movq	-64(%rbp), %rdx
	cmpq	448(%rdx), %rcx
	jg	.LBB18_3
# %bb.2:                                # %land.rhs
                                        #   in Loop: Header=BB18_1 Depth=1
	movq	-40(%rbp), %rax
	movq	-8(%rbp), %rcx
	movq	-16(%rbp), %rdx
	subq	$1, %rdx
	shlq	$6, %rdx
	addq	%rdx, %rcx
	cmpq	48(%rcx), %rax
	setl	%al
.LBB18_3:                               # %land.end
                                        #   in Loop: Header=BB18_1 Depth=1
	testb	$1, %al
	jne	.LBB18_4
	jmp	.LBB18_9
.LBB18_4:                               # %while.body
                                        #   in Loop: Header=BB18_1 Depth=1
	movq	-8(%rbp), %rax
	movq	-16(%rbp), %rcx
	subq	$1, %rcx
	shlq	$6, %rcx
	addq	%rcx, %rax
	movq	8(%rax), %rax
	movq	-8(%rbp), %rcx
	movq	-24(%rbp), %rdx
	subq	$1, %rdx
	shlq	$6, %rdx
	addq	%rdx, %rcx
	movq	%rax, 8(%rcx)
	movq	-8(%rbp), %rax
	movq	-16(%rbp), %rcx
	subq	$1, %rcx
	shlq	$6, %rcx
	addq	%rcx, %rax
	movq	16(%rax), %rax
	movq	-8(%rbp), %rcx
	movq	-24(%rbp), %rdx
	subq	$1, %rdx
	shlq	$6, %rdx
	addq	%rdx, %rcx
	movq	%rax, 16(%rcx)
	movq	-8(%rbp), %rax
	movq	-16(%rbp), %rcx
	subq	$1, %rcx
	shlq	$6, %rcx
	addq	%rcx, %rax
	movq	(%rax), %rax
	movq	-8(%rbp), %rcx
	movq	-24(%rbp), %rdx
	subq	$1, %rdx
	shlq	$6, %rdx
	addq	%rdx, %rcx
	movq	%rax, (%rcx)
	movq	-8(%rbp), %rax
	movq	-16(%rbp), %rcx
	subq	$1, %rcx
	shlq	$6, %rcx
	addq	%rcx, %rax
	movq	(%rax), %rax
	movq	-8(%rbp), %rcx
	movq	-24(%rbp), %rdx
	subq	$1, %rdx
	shlq	$6, %rdx
	addq	%rdx, %rcx
	movq	%rax, 56(%rcx)
	movq	-8(%rbp), %rax
	movq	-16(%rbp), %rcx
	subq	$1, %rcx
	shlq	$6, %rcx
	addq	%rcx, %rax
	movq	48(%rax), %rax
	movq	-8(%rbp), %rcx
	movq	-24(%rbp), %rdx
	subq	$1, %rdx
	shlq	$6, %rdx
	addq	%rdx, %rcx
	movq	%rax, 48(%rcx)
	movq	-72(%rbp), %rax
	movq	-8(%rbp), %rcx
	movq	-16(%rbp), %rdx
	subq	$1, %rdx
	shlq	$6, %rdx
	addq	%rdx, %rcx
	movq	%rax, 8(%rcx)
	movq	-56(%rbp), %rax
	movq	-8(%rbp), %rcx
	movq	-16(%rbp), %rdx
	subq	$1, %rdx
	shlq	$6, %rdx
	addq	%rdx, %rcx
	movq	%rax, 16(%rcx)
	movq	-32(%rbp), %rax
	movq	-8(%rbp), %rcx
	movq	-16(%rbp), %rdx
	subq	$1, %rdx
	shlq	$6, %rdx
	addq	%rdx, %rcx
	movq	%rax, (%rcx)
	movq	-32(%rbp), %rax
	movq	-8(%rbp), %rcx
	movq	-16(%rbp), %rdx
	subq	$1, %rdx
	shlq	$6, %rdx
	addq	%rdx, %rcx
	movq	%rax, 56(%rcx)
	movq	-40(%rbp), %rax
	movq	-8(%rbp), %rcx
	movq	-16(%rbp), %rdx
	subq	$1, %rdx
	shlq	$6, %rdx
	addq	%rdx, %rcx
	movq	%rax, 48(%rcx)
	movq	-16(%rbp), %rax
	movq	%rax, -24(%rbp)
	movq	-16(%rbp), %rax
	shlq	$1, %rax
	movq	%rax, -16(%rbp)
	movq	-16(%rbp), %rax
	addq	$1, %rax
	movq	-64(%rbp), %rcx
	cmpq	448(%rcx), %rax
	jg	.LBB18_8
# %bb.5:                                # %if.then
                                        #   in Loop: Header=BB18_1 Depth=1
	movq	-8(%rbp), %rax
	movq	-16(%rbp), %rcx
	subq	$1, %rcx
	shlq	$6, %rcx
	addq	%rcx, %rax
	movq	48(%rax), %rax
	movq	-8(%rbp), %rcx
	movq	-16(%rbp), %rdx
	shlq	$6, %rdx
	addq	%rdx, %rcx
	cmpq	48(%rcx), %rax
	jge	.LBB18_7
# %bb.6:                                # %if.then74
                                        #   in Loop: Header=BB18_1 Depth=1
	movq	-16(%rbp), %rax
	addq	$1, %rax
	movq	%rax, -16(%rbp)
.LBB18_7:                               # %if.end
                                        #   in Loop: Header=BB18_1 Depth=1
	jmp	.LBB18_8
.LBB18_8:                               # %if.end75
                                        #   in Loop: Header=BB18_1 Depth=1
	jmp	.LBB18_1
.LBB18_9:                               # %while.end
	cmpl	$411385598, -44(%rbp)   # imm = 0x18853EFE
	jne	.LBB18_11
.LBB18_10:
	addq	$80, %rsp
	popq	%rbp
	.cfi_def_cfa %rsp, 8
	retq
.LBB18_11:                              # %func_exit
	.cfi_def_cfa %rbp, 16
	callq	detect_breach
	jmp	.LBB18_10
.Lfunc_end18:
	.size	replace_weaker_arc.14, .Lfunc_end18-replace_weaker_arc.14
	.cfi_endproc
                                        # -- End function
	.globl	suspend_impl.15         # -- Begin function suspend_impl.15
	.p2align	4, 0x90
	.type	suspend_impl.15,@function
suspend_impl.15:                        # @suspend_impl.15
	.cfi_startproc
# %bb.0:                                # %entry
	pushq	%rbp
	.cfi_def_cfa_offset 16
	.cfi_offset %rbp, -16
	movq	%rsp, %rbp
	.cfi_def_cfa_register %rbp
	pushq	%rbx
	subq	$72, %rsp
	.cfi_offset %rbx, -24
	movl	$1737232334, -44(%rbp)  # imm = 0x678C0FCE
	movq	%rdi, -24(%rbp)
	movq	%rsi, -72(%rbp)
	movq	%rdx, -64(%rbp)
	cmpq	$0, -64(%rbp)
	je	.LBB19_2
# %bb.1:                                # %if.then
	movq	-24(%rbp), %rax
	movq	440(%rax), %rax
	movq	%rax, -32(%rbp)
	jmp	.LBB19_18
.LBB19_2:                               # %if.else
	movq	-24(%rbp), %rax
	movq	576(%rax), %rax
	movq	%rax, -80(%rbp)
	movq	-24(%rbp), %rax
	movq	568(%rax), %rax
	movq	-24(%rbp), %rcx
	movq	424(%rcx), %rcx
	movq	-24(%rbp), %rdx
	subq	440(%rdx), %rcx
	shlq	$6, %rcx
	addq	%rcx, %rax
	movq	%rax, -40(%rbp)
	movq	$0, -32(%rbp)
	movq	-40(%rbp), %rax
	movq	%rax, -16(%rbp)
.LBB19_3:                               # %for.cond
                                        # =>This Inner Loop Header: Depth=1
	movq	-16(%rbp), %rax
	movq	-80(%rbp), %rcx
	cmpq	%rcx, %rax
	jae	.LBB19_17
# %bb.4:                                # %for.body
                                        #   in Loop: Header=BB19_3 Depth=1
	movq	-16(%rbp), %rax
	cmpl	$1, 24(%rax)
	jne	.LBB19_6
# %bb.5:                                # %if.then3
                                        #   in Loop: Header=BB19_3 Depth=1
	movq	-16(%rbp), %rax
	movq	(%rax), %rax
	movq	-16(%rbp), %rcx
	movq	8(%rcx), %rcx
	subq	(%rcx), %rax
	movq	-16(%rbp), %rcx
	movq	16(%rcx), %rcx
	addq	(%rcx), %rax
	movq	%rax, -56(%rbp)
	jmp	.LBB19_12
.LBB19_6:                               # %if.else6
                                        #   in Loop: Header=BB19_3 Depth=1
	movq	$-2, -56(%rbp)
	movq	-16(%rbp), %rax
	cmpl	$0, 24(%rax)
	jne	.LBB19_11
# %bb.7:                                # %if.then9
                                        #   in Loop: Header=BB19_3 Depth=1
	movq	-16(%rbp), %rax
	movq	8(%rax), %rax
	movq	48(%rax), %rax
	cmpq	-16(%rbp), %rax
	jne	.LBB19_9
# %bb.8:                                # %if.then12
                                        #   in Loop: Header=BB19_3 Depth=1
	movq	-40(%rbp), %rax
	movq	-16(%rbp), %rcx
	movq	8(%rcx), %rcx
	movq	%rax, 48(%rcx)
	jmp	.LBB19_10
.LBB19_9:                               # %if.else15
                                        #   in Loop: Header=BB19_3 Depth=1
	movq	-40(%rbp), %rax
	movq	-16(%rbp), %rcx
	movq	16(%rcx), %rcx
	movq	%rax, 48(%rcx)
.LBB19_10:                              # %if.end
                                        #   in Loop: Header=BB19_3 Depth=1
	jmp	.LBB19_11
.LBB19_11:                              # %if.end18
                                        #   in Loop: Header=BB19_3 Depth=1
	jmp	.LBB19_12
.LBB19_12:                              # %if.end19
                                        #   in Loop: Header=BB19_3 Depth=1
	movq	-56(%rbp), %rax
	cmpq	-72(%rbp), %rax
	jle	.LBB19_14
# %bb.13:                               # %if.then21
                                        #   in Loop: Header=BB19_3 Depth=1
	movq	-32(%rbp), %rax
	addq	$1, %rax
	movq	%rax, -32(%rbp)
	jmp	.LBB19_15
.LBB19_14:                              # %if.else22
                                        #   in Loop: Header=BB19_3 Depth=1
	movq	-40(%rbp), %rdi
	movq	-16(%rbp), %rsi
	movl	$64, %edx
	callq	memcpy
	movq	-40(%rbp), %rax
	addq	$64, %rax
	movq	%rax, -40(%rbp)
.LBB19_15:                              # %if.end23
                                        #   in Loop: Header=BB19_3 Depth=1
	jmp	.LBB19_16
.LBB19_16:                              # %for.inc
                                        #   in Loop: Header=BB19_3 Depth=1
	movq	-16(%rbp), %rax
	addq	$64, %rax
	movq	%rax, -16(%rbp)
	jmp	.LBB19_3
.LBB19_17:                              # %for.end
	jmp	.LBB19_18
.LBB19_18:                              # %if.end25
	cmpq	$0, -32(%rbp)
	je	.LBB19_20
# %bb.19:                               # %if.then27
	xorl	%eax, %eax
	movq	-32(%rbp), %rcx
	movq	-24(%rbp), %rdx
	movq	424(%rdx), %rsi
	subq	%rcx, %rsi
	movq	%rsi, 424(%rdx)
	movq	-32(%rbp), %rcx
	movq	-24(%rbp), %rdx
	movq	440(%rdx), %rsi
	subq	%rcx, %rsi
	movq	%rsi, 440(%rdx)
	movq	-32(%rbp), %rcx
	movq	-24(%rbp), %rdx
	movq	576(%rdx), %rsi
	subq	%rcx, %rax
	shlq	$6, %rax
	addq	%rax, %rsi
	movq	%rsi, 576(%rdx)
	movq	-32(%rbp), %rax
	movq	-24(%rbp), %rcx
	addq	448(%rcx), %rax
	movq	%rax, 448(%rcx)
	movq	-24(%rbp), %rdi
	callq	refresh_neighbour_lists
.LBB19_20:                              # %if.end34
	movq	-32(%rbp), %rbx
	cmpl	$1737232334, -44(%rbp)  # imm = 0x678C0FCE
	jne	.LBB19_22
.LBB19_21:
	movq	%rbx, %rax
	addq	$72, %rsp
	popq	%rbx
	popq	%rbp
	.cfi_def_cfa %rsp, 8
	retq
.LBB19_22:                              # %func_exit
	.cfi_def_cfa %rbp, 16
	callq	detect_breach
	jmp	.LBB19_21
.Lfunc_end19:
	.size	suspend_impl.15, .Lfunc_end19-suspend_impl.15
	.cfi_endproc
                                        # -- End function
	.globl	resize_prob.16          # -- Begin function resize_prob.16
	.p2align	4, 0x90
	.type	resize_prob.16,@function
resize_prob.16:                         # @resize_prob.16
	.cfi_startproc
# %bb.0:                                # %entry
	pushq	%rbp
	.cfi_def_cfa_offset 16
	.cfi_offset %rbp, -16
	movq	%rsp, %rbp
	.cfi_def_cfa_register %rbp
	pushq	%rbx
	subq	$72, %rsp
	.cfi_offset %rbx, -24
	movl	$1315244329, -36(%rbp)  # imm = 0x4E650929
	movq	%rdi, -16(%rbp)
	movq	-16(%rbp), %rax
	movq	456(%rax), %rax
	movq	-16(%rbp), %rcx
	addq	416(%rcx), %rax
	movq	%rax, 416(%rcx)
	movq	-16(%rbp), %rax
	movq	456(%rax), %rax
	movq	-16(%rbp), %rcx
	addq	448(%rcx), %rax
	movq	%rax, 448(%rcx)
	movq	-16(%rbp), %rax
	movq	568(%rax), %rdi
	movq	-16(%rbp), %rax
	movq	416(%rax), %rsi
	shlq	$6, %rsi
	callq	realloc
	movq	%rax, -32(%rbp)
	cmpq	$0, -32(%rbp)
	jne	.LBB20_2
# %bb.1:                                # %if.then
	movq	-16(%rbp), %rsi
	movabsq	$.L.str, %rdi
	movb	$0, %al
	callq	printf
	movq	stdout, %rdi
	callq	fflush
	movq	$-1, -48(%rbp)
	jmp	.LBB20_9
.LBB20_2:                               # %if.end
	movq	-32(%rbp), %rax
	movq	-16(%rbp), %rcx
	movq	568(%rcx), %rcx
	subq	%rcx, %rax
	movq	%rax, -64(%rbp)
	movq	-32(%rbp), %rax
	movq	-16(%rbp), %rcx
	movq	%rax, 568(%rcx)
	movq	-32(%rbp), %rax
	movq	-16(%rbp), %rcx
	movq	424(%rcx), %rcx
	shlq	$6, %rcx
	addq	%rcx, %rax
	movq	-16(%rbp), %rcx
	movq	%rax, 576(%rcx)
	movq	-16(%rbp), %rax
	movq	552(%rax), %rax
	movq	%rax, -24(%rbp)
	movq	%rax, -56(%rbp)
	movq	-24(%rbp), %rax
	addq	$104, %rax
	movq	%rax, -24(%rbp)
	movq	-16(%rbp), %rax
	movq	560(%rax), %rax
	movq	%rax, -72(%rbp)
.LBB20_3:                               # %for.cond
                                        # =>This Inner Loop Header: Depth=1
	movq	-24(%rbp), %rax
	cmpq	-72(%rbp), %rax
	jae	.LBB20_8
# %bb.4:                                # %for.body
                                        #   in Loop: Header=BB20_3 Depth=1
	movq	-24(%rbp), %rax
	movq	24(%rax), %rax
	cmpq	-56(%rbp), %rax
	je	.LBB20_6
# %bb.5:                                # %if.then9
                                        #   in Loop: Header=BB20_3 Depth=1
	movq	-24(%rbp), %rax
	movq	48(%rax), %rax
	addq	-64(%rbp), %rax
	movq	-24(%rbp), %rcx
	movq	%rax, 48(%rcx)
.LBB20_6:                               # %if.end12
                                        #   in Loop: Header=BB20_3 Depth=1
	jmp	.LBB20_7
.LBB20_7:                               # %for.inc
                                        #   in Loop: Header=BB20_3 Depth=1
	movq	-24(%rbp), %rax
	addq	$104, %rax
	movq	%rax, -24(%rbp)
	jmp	.LBB20_3
.LBB20_8:                               # %for.end
	movq	$0, -48(%rbp)
.LBB20_9:                               # %return
	movq	-48(%rbp), %rbx
	cmpl	$1315244329, -36(%rbp)  # imm = 0x4E650929
	jne	.LBB20_11
.LBB20_10:
	movq	%rbx, %rax
	addq	$72, %rsp
	popq	%rbx
	popq	%rbp
	.cfi_def_cfa %rsp, 8
	retq
.LBB20_11:                              # %func_exit
	.cfi_def_cfa %rbp, 16
	callq	detect_breach
	jmp	.LBB20_10
.Lfunc_end20:
	.size	resize_prob.16, .Lfunc_end20-resize_prob.16
	.cfi_endproc
                                        # -- End function
	.globl	resize_prob.17          # -- Begin function resize_prob.17
	.p2align	4, 0x90
	.type	resize_prob.17,@function
resize_prob.17:                         # @resize_prob.17
	.cfi_startproc
# %bb.0:                                # %entry
	pushq	%rbp
	.cfi_def_cfa_offset 16
	.cfi_offset %rbp, -16
	movq	%rsp, %rbp
	.cfi_def_cfa_register %rbp
	pushq	%rbx
	subq	$72, %rsp
	.cfi_offset %rbx, -24
	movl	$1446825417, -36(%rbp)  # imm = 0x563CCDC9
	movq	%rdi, -16(%rbp)
	movq	-16(%rbp), %rax
	movq	456(%rax), %rax
	movq	-16(%rbp), %rcx
	addq	416(%rcx), %rax
	movq	%rax, 416(%rcx)
	movq	-16(%rbp), %rax
	movq	456(%rax), %rax
	movq	-16(%rbp), %rcx
	addq	448(%rcx), %rax
	movq	%rax, 448(%rcx)
	movq	-16(%rbp), %rax
	movq	568(%rax), %rdi
	movq	-16(%rbp), %rax
	movq	416(%rax), %rsi
	shlq	$6, %rsi
	callq	realloc
	movq	%rax, -32(%rbp)
	cmpq	$0, -32(%rbp)
	jne	.LBB21_2
# %bb.1:                                # %if.then
	movq	-16(%rbp), %rsi
	movabsq	$.L.str, %rdi
	movb	$0, %al
	callq	printf
	movq	stdout, %rdi
	callq	fflush
	movq	$-1, -48(%rbp)
	jmp	.LBB21_9
.LBB21_2:                               # %if.end
	movq	-32(%rbp), %rax
	movq	-16(%rbp), %rcx
	movq	568(%rcx), %rcx
	subq	%rcx, %rax
	movq	%rax, -56(%rbp)
	movq	-32(%rbp), %rax
	movq	-16(%rbp), %rcx
	movq	%rax, 568(%rcx)
	movq	-32(%rbp), %rax
	movq	-16(%rbp), %rcx
	movq	424(%rcx), %rcx
	shlq	$6, %rcx
	addq	%rcx, %rax
	movq	-16(%rbp), %rcx
	movq	%rax, 576(%rcx)
	movq	-16(%rbp), %rax
	movq	552(%rax), %rax
	movq	%rax, -24(%rbp)
	movq	%rax, -64(%rbp)
	movq	-24(%rbp), %rax
	addq	$104, %rax
	movq	%rax, -24(%rbp)
	movq	-16(%rbp), %rax
	movq	560(%rax), %rax
	movq	%rax, -72(%rbp)
.LBB21_3:                               # %for.cond
                                        # =>This Inner Loop Header: Depth=1
	movq	-24(%rbp), %rax
	cmpq	-72(%rbp), %rax
	jae	.LBB21_8
# %bb.4:                                # %for.body
                                        #   in Loop: Header=BB21_3 Depth=1
	movq	-24(%rbp), %rax
	movq	24(%rax), %rax
	cmpq	-64(%rbp), %rax
	je	.LBB21_6
# %bb.5:                                # %if.then9
                                        #   in Loop: Header=BB21_3 Depth=1
	movq	-24(%rbp), %rax
	movq	48(%rax), %rax
	addq	-56(%rbp), %rax
	movq	-24(%rbp), %rcx
	movq	%rax, 48(%rcx)
.LBB21_6:                               # %if.end12
                                        #   in Loop: Header=BB21_3 Depth=1
	jmp	.LBB21_7
.LBB21_7:                               # %for.inc
                                        #   in Loop: Header=BB21_3 Depth=1
	movq	-24(%rbp), %rax
	addq	$104, %rax
	movq	%rax, -24(%rbp)
	jmp	.LBB21_3
.LBB21_8:                               # %for.end
	movq	$0, -48(%rbp)
.LBB21_9:                               # %return
	movq	-48(%rbp), %rbx
	cmpl	$1446825417, -36(%rbp)  # imm = 0x563CCDC9
	jne	.LBB21_11
.LBB21_10:
	movq	%rbx, %rax
	addq	$72, %rsp
	popq	%rbx
	popq	%rbp
	.cfi_def_cfa %rsp, 8
	retq
.LBB21_11:                              # %func_exit
	.cfi_def_cfa %rbp, 16
	callq	detect_breach
	jmp	.LBB21_10
.Lfunc_end21:
	.size	resize_prob.17, .Lfunc_end21-resize_prob.17
	.cfi_endproc
                                        # -- End function
	.globl	suspend_impl.18         # -- Begin function suspend_impl.18
	.p2align	4, 0x90
	.type	suspend_impl.18,@function
suspend_impl.18:                        # @suspend_impl.18
	.cfi_startproc
# %bb.0:                                # %entry
	pushq	%rbp
	.cfi_def_cfa_offset 16
	.cfi_offset %rbp, -16
	movq	%rsp, %rbp
	.cfi_def_cfa_register %rbp
	pushq	%rbx
	subq	$72, %rsp
	.cfi_offset %rbx, -24
	movl	$67298133, -44(%rbp)    # imm = 0x402E355
	movq	%rdi, -24(%rbp)
	movq	%rsi, -72(%rbp)
	movq	%rdx, -80(%rbp)
	cmpq	$0, -80(%rbp)
	je	.LBB22_2
# %bb.1:                                # %if.then
	movq	-24(%rbp), %rax
	movq	440(%rax), %rax
	movq	%rax, -32(%rbp)
	jmp	.LBB22_18
.LBB22_2:                               # %if.else
	movq	-24(%rbp), %rax
	movq	576(%rax), %rax
	movq	%rax, -64(%rbp)
	movq	-24(%rbp), %rax
	movq	568(%rax), %rax
	movq	-24(%rbp), %rcx
	movq	424(%rcx), %rcx
	movq	-24(%rbp), %rdx
	subq	440(%rdx), %rcx
	shlq	$6, %rcx
	addq	%rcx, %rax
	movq	%rax, -40(%rbp)
	movq	$0, -32(%rbp)
	movq	-40(%rbp), %rax
	movq	%rax, -16(%rbp)
.LBB22_3:                               # %for.cond
                                        # =>This Inner Loop Header: Depth=1
	movq	-16(%rbp), %rax
	movq	-64(%rbp), %rcx
	cmpq	%rcx, %rax
	jae	.LBB22_17
# %bb.4:                                # %for.body
                                        #   in Loop: Header=BB22_3 Depth=1
	movq	-16(%rbp), %rax
	cmpl	$1, 24(%rax)
	jne	.LBB22_6
# %bb.5:                                # %if.then3
                                        #   in Loop: Header=BB22_3 Depth=1
	movq	-16(%rbp), %rax
	movq	(%rax), %rax
	movq	-16(%rbp), %rcx
	movq	8(%rcx), %rcx
	subq	(%rcx), %rax
	movq	-16(%rbp), %rcx
	movq	16(%rcx), %rcx
	addq	(%rcx), %rax
	movq	%rax, -56(%rbp)
	jmp	.LBB22_12
.LBB22_6:                               # %if.else6
                                        #   in Loop: Header=BB22_3 Depth=1
	movq	$-2, -56(%rbp)
	movq	-16(%rbp), %rax
	cmpl	$0, 24(%rax)
	jne	.LBB22_11
# %bb.7:                                # %if.then9
                                        #   in Loop: Header=BB22_3 Depth=1
	movq	-16(%rbp), %rax
	movq	8(%rax), %rax
	movq	48(%rax), %rax
	cmpq	-16(%rbp), %rax
	jne	.LBB22_9
# %bb.8:                                # %if.then12
                                        #   in Loop: Header=BB22_3 Depth=1
	movq	-40(%rbp), %rax
	movq	-16(%rbp), %rcx
	movq	8(%rcx), %rcx
	movq	%rax, 48(%rcx)
	jmp	.LBB22_10
.LBB22_9:                               # %if.else15
                                        #   in Loop: Header=BB22_3 Depth=1
	movq	-40(%rbp), %rax
	movq	-16(%rbp), %rcx
	movq	16(%rcx), %rcx
	movq	%rax, 48(%rcx)
.LBB22_10:                              # %if.end
                                        #   in Loop: Header=BB22_3 Depth=1
	jmp	.LBB22_11
.LBB22_11:                              # %if.end18
                                        #   in Loop: Header=BB22_3 Depth=1
	jmp	.LBB22_12
.LBB22_12:                              # %if.end19
                                        #   in Loop: Header=BB22_3 Depth=1
	movq	-56(%rbp), %rax
	cmpq	-72(%rbp), %rax
	jle	.LBB22_14
# %bb.13:                               # %if.then21
                                        #   in Loop: Header=BB22_3 Depth=1
	movq	-32(%rbp), %rax
	addq	$1, %rax
	movq	%rax, -32(%rbp)
	jmp	.LBB22_15
.LBB22_14:                              # %if.else22
                                        #   in Loop: Header=BB22_3 Depth=1
	movq	-40(%rbp), %rdi
	movq	-16(%rbp), %rsi
	movl	$64, %edx
	callq	memcpy
	movq	-40(%rbp), %rax
	addq	$64, %rax
	movq	%rax, -40(%rbp)
.LBB22_15:                              # %if.end23
                                        #   in Loop: Header=BB22_3 Depth=1
	jmp	.LBB22_16
.LBB22_16:                              # %for.inc
                                        #   in Loop: Header=BB22_3 Depth=1
	movq	-16(%rbp), %rax
	addq	$64, %rax
	movq	%rax, -16(%rbp)
	jmp	.LBB22_3
.LBB22_17:                              # %for.end
	jmp	.LBB22_18
.LBB22_18:                              # %if.end25
	cmpq	$0, -32(%rbp)
	je	.LBB22_20
# %bb.19:                               # %if.then27
	xorl	%eax, %eax
	movq	-32(%rbp), %rcx
	movq	-24(%rbp), %rdx
	movq	424(%rdx), %rsi
	subq	%rcx, %rsi
	movq	%rsi, 424(%rdx)
	movq	-32(%rbp), %rcx
	movq	-24(%rbp), %rdx
	movq	440(%rdx), %rsi
	subq	%rcx, %rsi
	movq	%rsi, 440(%rdx)
	movq	-32(%rbp), %rcx
	movq	-24(%rbp), %rdx
	movq	576(%rdx), %rsi
	subq	%rcx, %rax
	shlq	$6, %rax
	addq	%rax, %rsi
	movq	%rsi, 576(%rdx)
	movq	-32(%rbp), %rax
	movq	-24(%rbp), %rcx
	addq	448(%rcx), %rax
	movq	%rax, 448(%rcx)
	movq	-24(%rbp), %rdi
	callq	refresh_neighbour_lists
.LBB22_20:                              # %if.end34
	movq	-32(%rbp), %rbx
	cmpl	$67298133, -44(%rbp)    # imm = 0x402E355
	jne	.LBB22_22
.LBB22_21:
	movq	%rbx, %rax
	addq	$72, %rsp
	popq	%rbx
	popq	%rbp
	.cfi_def_cfa %rsp, 8
	retq
.LBB22_22:                              # %func_exit
	.cfi_def_cfa %rbp, 16
	callq	detect_breach
	jmp	.LBB22_21
.Lfunc_end22:
	.size	suspend_impl.18, .Lfunc_end22-suspend_impl.18
	.cfi_endproc
                                        # -- End function
	.globl	price_out_impl.19       # -- Begin function price_out_impl.19
	.p2align	4, 0x90
	.type	price_out_impl.19,@function
price_out_impl.19:                      # @price_out_impl.19
	.cfi_startproc
# %bb.0:                                # %entry
	pushq	%rbp
	.cfi_def_cfa_offset 16
	.cfi_offset %rbp, -16
	movq	%rsp, %rbp
	.cfi_def_cfa_register %rbp
	pushq	%rbx
	subq	$168, %rsp
	.cfi_offset %rbx, -24
	movl	$791626668, -100(%rbp)  # imm = 0x2F2F43AC
	movq	%rdi, -16(%rbp)
	movq	$0, -40(%rbp)
	movq	$0, -136(%rbp)
	movq	$15, -168(%rbp)
	movq	-16(%rbp), %rax
	movq	528(%rax), %rax
	movq	%rax, -144(%rbp)
	movq	$30, -96(%rbp)
	movq	-144(%rbp), %rax
	subq	-168(%rbp), %rax
	movq	%rax, -152(%rbp)
	movq	-16(%rbp), %rax
	cmpq	$15000, 408(%rax)       # imm = 0x3A98
	jg	.LBB23_7
# %bb.1:                                # %if.then
	movq	-16(%rbp), %rax
	movq	424(%rax), %rax
	movq	-16(%rbp), %rcx
	addq	456(%rcx), %rax
	movq	-16(%rbp), %rcx
	cmpq	416(%rcx), %rax
	jle	.LBB23_6
# %bb.2:                                # %land.lhs.true
	movq	-16(%rbp), %rax
	movq	408(%rax), %rax
	movq	-16(%rbp), %rcx
	imulq	408(%rcx), %rax
	cqto
	movl	$2, %ecx
	idivq	%rcx
	movq	-16(%rbp), %rcx
	addq	424(%rcx), %rax
	movq	-16(%rbp), %rcx
	cmpq	416(%rcx), %rax
	jle	.LBB23_6
# %bb.3:                                # %if.then9
	movq	$1, -136(%rbp)
	movq	-16(%rbp), %rdi
	callq	resize_prob
	cmpq	$0, %rax
	je	.LBB23_5
# %bb.4:                                # %if.then10
	movq	$-1, -120(%rbp)
	jmp	.LBB23_48
.LBB23_5:                               # %if.end
	movq	-16(%rbp), %rdi
	callq	refresh_neighbour_lists
.LBB23_6:                               # %if.end11
	jmp	.LBB23_7
.LBB23_7:                               # %if.end12
	movq	-16(%rbp), %rax
	movq	576(%rax), %rax
	movq	%rax, -24(%rbp)
	movq	-16(%rbp), %rax
	movq	408(%rax), %rax
	movq	%rax, -128(%rbp)
	movq	-16(%rbp), %rax
	movq	568(%rax), %rax
	movq	%rax, -32(%rbp)
	movq	$0, -56(%rbp)
.LBB23_8:                               # %for.cond
                                        # =>This Inner Loop Header: Depth=1
	xorl	%eax, %eax
	movq	-56(%rbp), %rcx
	cmpq	-128(%rbp), %rcx
	jge	.LBB23_10
# %bb.9:                                # %land.rhs
                                        #   in Loop: Header=BB23_8 Depth=1
	movq	-32(%rbp), %rax
	cmpl	$-1, 88(%rax)
	sete	%al
.LBB23_10:                              # %land.end
                                        #   in Loop: Header=BB23_8 Depth=1
	testb	$1, %al
	jne	.LBB23_11
	jmp	.LBB23_13
.LBB23_11:                              # %for.body
                                        #   in Loop: Header=BB23_8 Depth=1
	jmp	.LBB23_12
.LBB23_12:                              # %for.inc
                                        #   in Loop: Header=BB23_8 Depth=1
	movq	-56(%rbp), %rax
	addq	$1, %rax
	movq	%rax, -56(%rbp)
	movq	-32(%rbp), %rax
	addq	$192, %rax
	movq	%rax, -32(%rbp)
	jmp	.LBB23_8
.LBB23_13:                              # %for.end
	movq	$0, -88(%rbp)
.LBB23_14:                              # %for.cond16
                                        # =>This Loop Header: Depth=1
                                        #     Child Loop BB23_20 Depth 2
	movq	-56(%rbp), %rax
	cmpq	-128(%rbp), %rax
	jge	.LBB23_34
# %bb.15:                               # %for.body18
                                        #   in Loop: Header=BB23_14 Depth=1
	movq	-32(%rbp), %rax
	cmpl	$-1, 88(%rax)
	je	.LBB23_17
# %bb.16:                               # %if.then22
                                        #   in Loop: Header=BB23_14 Depth=1
	movq	-88(%rbp), %rax
	movq	-32(%rbp), %rcx
	movq	16(%rcx), %rcx
	movq	56(%rcx), %rcx
	movq	16(%rcx), %rcx
	movq	%rax, 72(%rcx)
	movq	-32(%rbp), %rax
	addq	$64, %rax
	movq	%rax, -88(%rbp)
.LBB23_17:                              # %if.end26
                                        #   in Loop: Header=BB23_14 Depth=1
	movq	-32(%rbp), %rax
	cmpl	$-1, 24(%rax)
	jne	.LBB23_19
# %bb.18:                               # %if.then29
                                        #   in Loop: Header=BB23_14 Depth=1
	jmp	.LBB23_33
.LBB23_19:                              # %if.end30
                                        #   in Loop: Header=BB23_14 Depth=1
	movq	-32(%rbp), %rax
	movq	16(%rax), %rax
	movq	%rax, -64(%rbp)
	movq	-64(%rbp), %rax
	movslq	100(%rax), %rax
	movq	-32(%rbp), %rcx
	subq	56(%rcx), %rax
	addq	-152(%rbp), %rax
	movq	%rax, -160(%rbp)
	movq	-64(%rbp), %rax
	movq	(%rax), %rax
	movq	%rax, -176(%rbp)
	movq	-88(%rbp), %rax
	movq	8(%rax), %rax
	movq	72(%rax), %rax
	movq	%rax, -72(%rbp)
.LBB23_20:                              # %while.cond
                                        #   Parent Loop BB23_14 Depth=1
                                        # =>  This Inner Loop Header: Depth=2
	cmpq	$0, -72(%rbp)
	je	.LBB23_32
# %bb.21:                               # %while.body
                                        #   in Loop: Header=BB23_20 Depth=2
	movq	-72(%rbp), %rax
	movq	8(%rax), %rax
	movq	%rax, -48(%rbp)
	movq	-48(%rbp), %rax
	movslq	100(%rax), %rax
	movq	-72(%rbp), %rcx
	addq	56(%rcx), %rax
	cmpq	-160(%rbp), %rax
	jle	.LBB23_24
# %bb.22:                               # %if.then44
                                        #   in Loop: Header=BB23_20 Depth=2
	movq	-48(%rbp), %rax
	movq	72(%rax), %rax
	movq	%rax, -72(%rbp)
.LBB23_23:                              # %while.cond.backedge
                                        #   in Loop: Header=BB23_20 Depth=2
	jmp	.LBB23_20
.LBB23_24:                              # %if.end46
                                        #   in Loop: Header=BB23_20 Depth=2
	movq	-96(%rbp), %rax
	movq	-48(%rbp), %rcx
	subq	(%rcx), %rax
	movq	-64(%rbp), %rcx
	addq	(%rcx), %rax
	movq	%rax, -80(%rbp)
	cmpq	$0, -80(%rbp)
	jge	.LBB23_31
# %bb.25:                               # %if.then53
                                        #   in Loop: Header=BB23_20 Depth=2
	movq	-40(%rbp), %rax
	movq	-16(%rbp), %rcx
	cmpq	448(%rcx), %rax
	jge	.LBB23_27
# %bb.26:                               # %if.then56
                                        #   in Loop: Header=BB23_20 Depth=2
	movq	-24(%rbp), %rdi
	movq	-40(%rbp), %rsi
	movq	-48(%rbp), %rdx
	movq	-64(%rbp), %rcx
	movq	-96(%rbp), %r8
	movq	-80(%rbp), %r9
	callq	insert_new_arc
	movq	-40(%rbp), %rax
	addq	$1, %rax
	movq	%rax, -40(%rbp)
	jmp	.LBB23_30
.LBB23_27:                              # %if.else
                                        #   in Loop: Header=BB23_20 Depth=2
	movq	-24(%rbp), %rax
	movq	48(%rax), %rax
	cmpq	-80(%rbp), %rax
	jle	.LBB23_29
# %bb.28:                               # %if.then61
                                        #   in Loop: Header=BB23_20 Depth=2
	movq	-16(%rbp), %rdi
	movq	-24(%rbp), %rsi
	movq	-48(%rbp), %rdx
	movq	-64(%rbp), %rcx
	movq	-96(%rbp), %r8
	movq	-80(%rbp), %r9
	callq	replace_weaker_arc
.LBB23_29:                              # %if.end62
                                        #   in Loop: Header=BB23_20 Depth=2
	jmp	.LBB23_30
.LBB23_30:                              # %if.end63
                                        #   in Loop: Header=BB23_20 Depth=2
	jmp	.LBB23_31
.LBB23_31:                              # %if.end64
                                        #   in Loop: Header=BB23_20 Depth=2
	movq	-48(%rbp), %rax
	movq	72(%rax), %rax
	movq	%rax, -72(%rbp)
	jmp	.LBB23_23
.LBB23_32:                              # %while.end
                                        #   in Loop: Header=BB23_14 Depth=1
	jmp	.LBB23_33
.LBB23_33:                              # %for.inc66
                                        #   in Loop: Header=BB23_14 Depth=1
	movq	-56(%rbp), %rax
	addq	$1, %rax
	movq	%rax, -56(%rbp)
	movq	-32(%rbp), %rax
	addq	$192, %rax
	movq	%rax, -32(%rbp)
	jmp	.LBB23_14
.LBB23_34:                              # %for.end69
	cmpq	$0, -40(%rbp)
	je	.LBB23_47
# %bb.35:                               # %if.then71
	movq	-16(%rbp), %rax
	movq	576(%rax), %rax
	movq	%rax, -24(%rbp)
	movq	-40(%rbp), %rax
	movq	-16(%rbp), %rcx
	shlq	$6, %rax
	addq	576(%rcx), %rax
	movq	%rax, 576(%rcx)
	movq	-16(%rbp), %rax
	movq	576(%rax), %rax
	movq	%rax, -112(%rbp)
	cmpq	$0, -136(%rbp)
	je	.LBB23_41
# %bb.36:                               # %if.then77
	jmp	.LBB23_37
.LBB23_37:                              # %for.cond78
                                        # =>This Inner Loop Header: Depth=1
	movq	-24(%rbp), %rax
	cmpq	-112(%rbp), %rax
	je	.LBB23_40
# %bb.38:                               # %for.body81
                                        #   in Loop: Header=BB23_37 Depth=1
	movq	-24(%rbp), %rax
	movq	$0, 48(%rax)
	movq	-24(%rbp), %rax
	movl	$1, 24(%rax)
# %bb.39:                               # %for.inc84
                                        #   in Loop: Header=BB23_37 Depth=1
	movq	-24(%rbp), %rax
	addq	$64, %rax
	movq	%rax, -24(%rbp)
	jmp	.LBB23_37
.LBB23_40:                              # %for.end85
	jmp	.LBB23_46
.LBB23_41:                              # %if.else86
	jmp	.LBB23_42
.LBB23_42:                              # %for.cond87
                                        # =>This Inner Loop Header: Depth=1
	movq	-24(%rbp), %rax
	cmpq	-112(%rbp), %rax
	je	.LBB23_45
# %bb.43:                               # %for.body90
                                        #   in Loop: Header=BB23_42 Depth=1
	movq	-24(%rbp), %rax
	movq	$0, 48(%rax)
	movq	-24(%rbp), %rax
	movl	$1, 24(%rax)
	movq	-24(%rbp), %rax
	movq	8(%rax), %rax
	movq	56(%rax), %rax
	movq	-24(%rbp), %rcx
	movq	%rax, 32(%rcx)
	movq	-24(%rbp), %rax
	movq	-24(%rbp), %rcx
	movq	8(%rcx), %rcx
	movq	%rax, 56(%rcx)
	movq	-24(%rbp), %rax
	movq	16(%rax), %rax
	movq	64(%rax), %rax
	movq	-24(%rbp), %rcx
	movq	%rax, 40(%rcx)
	movq	-24(%rbp), %rax
	movq	-24(%rbp), %rcx
	movq	16(%rcx), %rcx
	movq	%rax, 64(%rcx)
# %bb.44:                               # %for.inc100
                                        #   in Loop: Header=BB23_42 Depth=1
	movq	-24(%rbp), %rax
	addq	$64, %rax
	movq	%rax, -24(%rbp)
	jmp	.LBB23_42
.LBB23_45:                              # %for.end102
	jmp	.LBB23_46
.LBB23_46:                              # %if.end103
	movq	-40(%rbp), %rax
	movq	-16(%rbp), %rcx
	addq	424(%rcx), %rax
	movq	%rax, 424(%rcx)
	movq	-40(%rbp), %rax
	movq	-16(%rbp), %rcx
	addq	440(%rcx), %rax
	movq	%rax, 440(%rcx)
	movq	-40(%rbp), %rax
	movq	-16(%rbp), %rcx
	movq	448(%rcx), %rdx
	subq	%rax, %rdx
	movq	%rdx, 448(%rcx)
.LBB23_47:                              # %if.end109
	movq	-40(%rbp), %rax
	movq	%rax, -120(%rbp)
.LBB23_48:                              # %return
	movq	-120(%rbp), %rbx
	cmpl	$791626668, -100(%rbp)  # imm = 0x2F2F43AC
	jne	.LBB23_50
.LBB23_49:
	movq	%rbx, %rax
	addq	$168, %rsp
	popq	%rbx
	popq	%rbp
	.cfi_def_cfa %rsp, 8
	retq
.LBB23_50:                              # %func_exit
	.cfi_def_cfa %rbp, 16
	callq	detect_breach
	jmp	.LBB23_49
.Lfunc_end23:
	.size	price_out_impl.19, .Lfunc_end23-price_out_impl.19
	.cfi_endproc
                                        # -- End function
	.globl	suspend_impl.20         # -- Begin function suspend_impl.20
	.p2align	4, 0x90
	.type	suspend_impl.20,@function
suspend_impl.20:                        # @suspend_impl.20
	.cfi_startproc
# %bb.0:                                # %entry
	pushq	%rbp
	.cfi_def_cfa_offset 16
	.cfi_offset %rbp, -16
	movq	%rsp, %rbp
	.cfi_def_cfa_register %rbp
	pushq	%rbx
	subq	$72, %rsp
	.cfi_offset %rbx, -24
	movl	$1227838039, -44(%rbp)  # imm = 0x492F5257
	movq	%rdi, -24(%rbp)
	movq	%rsi, -64(%rbp)
	movq	%rdx, -80(%rbp)
	cmpq	$0, -80(%rbp)
	je	.LBB24_2
# %bb.1:                                # %if.then
	movq	-24(%rbp), %rax
	movq	440(%rax), %rax
	movq	%rax, -32(%rbp)
	jmp	.LBB24_18
.LBB24_2:                               # %if.else
	movq	-24(%rbp), %rax
	movq	576(%rax), %rax
	movq	%rax, -72(%rbp)
	movq	-24(%rbp), %rax
	movq	568(%rax), %rax
	movq	-24(%rbp), %rcx
	movq	424(%rcx), %rcx
	movq	-24(%rbp), %rdx
	subq	440(%rdx), %rcx
	shlq	$6, %rcx
	addq	%rcx, %rax
	movq	%rax, -40(%rbp)
	movq	$0, -32(%rbp)
	movq	-40(%rbp), %rax
	movq	%rax, -16(%rbp)
.LBB24_3:                               # %for.cond
                                        # =>This Inner Loop Header: Depth=1
	movq	-16(%rbp), %rax
	movq	-72(%rbp), %rcx
	cmpq	%rcx, %rax
	jae	.LBB24_17
# %bb.4:                                # %for.body
                                        #   in Loop: Header=BB24_3 Depth=1
	movq	-16(%rbp), %rax
	cmpl	$1, 24(%rax)
	jne	.LBB24_6
# %bb.5:                                # %if.then3
                                        #   in Loop: Header=BB24_3 Depth=1
	movq	-16(%rbp), %rax
	movq	(%rax), %rax
	movq	-16(%rbp), %rcx
	movq	8(%rcx), %rcx
	subq	(%rcx), %rax
	movq	-16(%rbp), %rcx
	movq	16(%rcx), %rcx
	addq	(%rcx), %rax
	movq	%rax, -56(%rbp)
	jmp	.LBB24_12
.LBB24_6:                               # %if.else6
                                        #   in Loop: Header=BB24_3 Depth=1
	movq	$-2, -56(%rbp)
	movq	-16(%rbp), %rax
	cmpl	$0, 24(%rax)
	jne	.LBB24_11
# %bb.7:                                # %if.then9
                                        #   in Loop: Header=BB24_3 Depth=1
	movq	-16(%rbp), %rax
	movq	8(%rax), %rax
	movq	48(%rax), %rax
	cmpq	-16(%rbp), %rax
	jne	.LBB24_9
# %bb.8:                                # %if.then12
                                        #   in Loop: Header=BB24_3 Depth=1
	movq	-40(%rbp), %rax
	movq	-16(%rbp), %rcx
	movq	8(%rcx), %rcx
	movq	%rax, 48(%rcx)
	jmp	.LBB24_10
.LBB24_9:                               # %if.else15
                                        #   in Loop: Header=BB24_3 Depth=1
	movq	-40(%rbp), %rax
	movq	-16(%rbp), %rcx
	movq	16(%rcx), %rcx
	movq	%rax, 48(%rcx)
.LBB24_10:                              # %if.end
                                        #   in Loop: Header=BB24_3 Depth=1
	jmp	.LBB24_11
.LBB24_11:                              # %if.end18
                                        #   in Loop: Header=BB24_3 Depth=1
	jmp	.LBB24_12
.LBB24_12:                              # %if.end19
                                        #   in Loop: Header=BB24_3 Depth=1
	movq	-56(%rbp), %rax
	cmpq	-64(%rbp), %rax
	jle	.LBB24_14
# %bb.13:                               # %if.then21
                                        #   in Loop: Header=BB24_3 Depth=1
	movq	-32(%rbp), %rax
	addq	$1, %rax
	movq	%rax, -32(%rbp)
	jmp	.LBB24_15
.LBB24_14:                              # %if.else22
                                        #   in Loop: Header=BB24_3 Depth=1
	movq	-40(%rbp), %rdi
	movq	-16(%rbp), %rsi
	movl	$64, %edx
	callq	memcpy
	movq	-40(%rbp), %rax
	addq	$64, %rax
	movq	%rax, -40(%rbp)
.LBB24_15:                              # %if.end23
                                        #   in Loop: Header=BB24_3 Depth=1
	jmp	.LBB24_16
.LBB24_16:                              # %for.inc
                                        #   in Loop: Header=BB24_3 Depth=1
	movq	-16(%rbp), %rax
	addq	$64, %rax
	movq	%rax, -16(%rbp)
	jmp	.LBB24_3
.LBB24_17:                              # %for.end
	jmp	.LBB24_18
.LBB24_18:                              # %if.end25
	cmpq	$0, -32(%rbp)
	je	.LBB24_20
# %bb.19:                               # %if.then27
	xorl	%eax, %eax
	movq	-32(%rbp), %rcx
	movq	-24(%rbp), %rdx
	movq	424(%rdx), %rsi
	subq	%rcx, %rsi
	movq	%rsi, 424(%rdx)
	movq	-32(%rbp), %rcx
	movq	-24(%rbp), %rdx
	movq	440(%rdx), %rsi
	subq	%rcx, %rsi
	movq	%rsi, 440(%rdx)
	movq	-32(%rbp), %rcx
	movq	-24(%rbp), %rdx
	movq	576(%rdx), %rsi
	subq	%rcx, %rax
	shlq	$6, %rax
	addq	%rax, %rsi
	movq	%rsi, 576(%rdx)
	movq	-32(%rbp), %rax
	movq	-24(%rbp), %rcx
	addq	448(%rcx), %rax
	movq	%rax, 448(%rcx)
	movq	-24(%rbp), %rdi
	callq	refresh_neighbour_lists
.LBB24_20:                              # %if.end34
	movq	-32(%rbp), %rbx
	cmpl	$1227838039, -44(%rbp)  # imm = 0x492F5257
	jne	.LBB24_22
.LBB24_21:
	movq	%rbx, %rax
	addq	$72, %rsp
	popq	%rbx
	popq	%rbp
	.cfi_def_cfa %rsp, 8
	retq
.LBB24_22:                              # %func_exit
	.cfi_def_cfa %rbp, 16
	callq	detect_breach
	jmp	.LBB24_21
.Lfunc_end24:
	.size	suspend_impl.20, .Lfunc_end24-suspend_impl.20
	.cfi_endproc
                                        # -- End function
	.type	.L.str,@object          # @.str
	.section	.rodata.str1.1,"aMS",@progbits,1
.L.str:
	.asciz	"network %s: not enough memory\n"
	.size	.L.str, 31


	.ident	"clang version 9.0.1 (git@github.com:llvm/llvm-project.git 9b2d207cf4b43cfc1a2b6940b3c06e50a1bd127f)"
	.section	".note.GNU-stack","",@progbits
