	.text
	.file	"implicit.c"
	.globl	resize_prob             # -- Begin function resize_prob
	.p2align	4, 0x90
	.type	resize_prob,@function
resize_prob:                            # @resize_prob
	.cfi_startproc
# %bb.0:                                # %rand_bb
	pushq	%rbp
	.cfi_def_cfa_offset 16
	.cfi_offset %rbp, -16
	movq	%rsp, %rbp
	.cfi_def_cfa_register %rbp
	pushq	%rbx
	pushq	%rax
	.cfi_offset %rbx, -24
	movq	%rdi, %rbx
	callq	get_rand
	cmpl	$0, %eax
	jne	.LBB0_9
# %bb.1:                                # %func_resize_prob.4
	movq	%rbx, %rdi
	callq	resize_prob.4
	addq	$8, %rsp
	popq	%rbx
	popq	%rbp
	.cfi_def_cfa %rsp, 8
	retq
.LBB0_2:                                # %func_resize_prob.6
	.cfi_def_cfa %rbp, 16
	movq	%rbx, %rdi
	callq	resize_prob.6
	addq	$8, %rsp
	popq	%rbx
	popq	%rbp
	.cfi_def_cfa %rsp, 8
	retq
.LBB0_3:                                # %func_resize_prob.21
	.cfi_def_cfa %rbp, 16
	movq	%rbx, %rdi
	callq	resize_prob.21
	addq	$8, %rsp
	popq	%rbx
	popq	%rbp
	.cfi_def_cfa %rsp, 8
	retq
.LBB0_4:                                # %func_resize_prob.22
	.cfi_def_cfa %rbp, 16
	movq	%rbx, %rdi
	callq	resize_prob.22
	addq	$8, %rsp
	popq	%rbx
	popq	%rbp
	.cfi_def_cfa %rsp, 8
	retq
.LBB0_5:                                # %func_resize_prob.27
	.cfi_def_cfa %rbp, 16
	movq	%rbx, %rdi
	callq	resize_prob.27
	addq	$8, %rsp
	popq	%rbx
	popq	%rbp
	.cfi_def_cfa %rsp, 8
	retq
.LBB0_6:                                # %func_resize_prob.35
	.cfi_def_cfa %rbp, 16
	movq	%rbx, %rdi
	callq	resize_prob.35
	addq	$8, %rsp
	popq	%rbx
	popq	%rbp
	.cfi_def_cfa %rsp, 8
	retq
.LBB0_7:                                # %func_resize_prob.36
	.cfi_def_cfa %rbp, 16
	movq	%rbx, %rdi
	callq	resize_prob.36
	addq	$8, %rsp
	popq	%rbx
	popq	%rbp
	.cfi_def_cfa %rsp, 8
	retq
.LBB0_8:                                # %func_resize_prob.39
	.cfi_def_cfa %rbp, 16
	movq	%rbx, %rdi
	callq	resize_prob.39
	addq	$8, %rsp
	popq	%rbx
	popq	%rbp
	.cfi_def_cfa %rsp, 8
	retq
.LBB0_9:                                # %ctrl0
	.cfi_def_cfa %rbp, 16
	cmpl	$1, %eax
	je	.LBB0_2
# %bb.10:                               # %ctrl1
	cmpl	$2, %eax
	je	.LBB0_3
# %bb.11:                               # %ctrl2
	cmpl	$3, %eax
	je	.LBB0_4
# %bb.12:                               # %ctrl3
	cmpl	$4, %eax
	je	.LBB0_5
# %bb.13:                               # %ctrl4
	cmpl	$5, %eax
	je	.LBB0_6
# %bb.14:                               # %ctrl5
	cmpl	$6, %eax
	je	.LBB0_7
	jmp	.LBB0_8
.Lfunc_end0:
	.size	resize_prob, .Lfunc_end0-resize_prob
	.cfi_endproc
                                        # -- End function
	.globl	insert_new_arc          # -- Begin function insert_new_arc
	.p2align	4, 0x90
	.type	insert_new_arc,@function
insert_new_arc:                         # @insert_new_arc
	.cfi_startproc
# %bb.0:                                # %rand_bb
	pushq	%rbp
	.cfi_def_cfa_offset 16
	.cfi_offset %rbp, -16
	movq	%rsp, %rbp
	.cfi_def_cfa_register %rbp
	pushq	%r15
	pushq	%r14
	pushq	%r13
	pushq	%r12
	pushq	%rbx
	pushq	%rax
	.cfi_offset %rbx, -56
	.cfi_offset %r12, -48
	.cfi_offset %r13, -40
	.cfi_offset %r14, -32
	.cfi_offset %r15, -24
	movq	%r9, -48(%rbp)          # 8-byte Spill
	movq	%r8, %r12
	movq	%rcx, %r13
	movq	%rdx, %rbx
	movq	%rsi, %r14
	movq	%rdi, %r15
	callq	get_rand
	cmpl	$0, %eax
	jne	.LBB1_9
# %bb.1:                                # %func_insert_new_arc.7
	movq	%r15, %rdi
	movq	%r14, %rsi
	movq	%rbx, %rdx
	movq	%r13, %rcx
	movq	%r12, %r8
	movq	-48(%rbp), %r9          # 8-byte Reload
	callq	insert_new_arc.7
	addq	$8, %rsp
	popq	%rbx
	popq	%r12
	popq	%r13
	popq	%r14
	popq	%r15
	popq	%rbp
	.cfi_def_cfa %rsp, 8
	retq
.LBB1_2:                                # %func_insert_new_arc.24
	.cfi_def_cfa %rbp, 16
	movq	%r15, %rdi
	movq	%r14, %rsi
	movq	%rbx, %rdx
	movq	%r13, %rcx
	movq	%r12, %r8
	callq	insert_new_arc.24
	addq	$8, %rsp
	popq	%rbx
	popq	%r12
	popq	%r13
	popq	%r14
	popq	%r15
	popq	%rbp
	.cfi_def_cfa %rsp, 8
	retq
.LBB1_3:                                # %func_insert_new_arc.28
	.cfi_def_cfa %rbp, 16
	movq	%r15, %rdi
	movq	%r14, %rsi
	movq	%rbx, %rdx
	movq	%r13, %rcx
	movq	%r12, %r8
	callq	insert_new_arc.28
	addq	$8, %rsp
	popq	%rbx
	popq	%r12
	popq	%r13
	popq	%r14
	popq	%r15
	popq	%rbp
	.cfi_def_cfa %rsp, 8
	retq
.LBB1_4:                                # %func_insert_new_arc.29
	.cfi_def_cfa %rbp, 16
	movq	%r15, %rdi
	movq	%r14, %rsi
	movq	%rbx, %rdx
	movq	%r13, %rcx
	movq	%r12, %r8
	callq	insert_new_arc.29
	addq	$8, %rsp
	popq	%rbx
	popq	%r12
	popq	%r13
	popq	%r14
	popq	%r15
	popq	%rbp
	.cfi_def_cfa %rsp, 8
	retq
.LBB1_5:                                # %func_insert_new_arc.30
	.cfi_def_cfa %rbp, 16
	movq	%r15, %rdi
	movq	%r14, %rsi
	movq	%rbx, %rdx
	movq	%r13, %rcx
	movq	%r12, %r8
	callq	insert_new_arc.30
	addq	$8, %rsp
	popq	%rbx
	popq	%r12
	popq	%r13
	popq	%r14
	popq	%r15
	popq	%rbp
	.cfi_def_cfa %rsp, 8
	retq
.LBB1_6:                                # %func_insert_new_arc.33
	.cfi_def_cfa %rbp, 16
	movq	%r15, %rdi
	movq	%r14, %rsi
	movq	%rbx, %rdx
	movq	%r13, %rcx
	movq	%r12, %r8
	callq	insert_new_arc.33
	addq	$8, %rsp
	popq	%rbx
	popq	%r12
	popq	%r13
	popq	%r14
	popq	%r15
	popq	%rbp
	.cfi_def_cfa %rsp, 8
	retq
.LBB1_7:                                # %func_insert_new_arc.38
	.cfi_def_cfa %rbp, 16
	callq	insert_new_arc.38
	addq	$8, %rsp
	popq	%rbx
	popq	%r12
	popq	%r13
	popq	%r14
	popq	%r15
	popq	%rbp
	.cfi_def_cfa %rsp, 8
	retq
.LBB1_8:                                # %func_insert_new_arc.40
	.cfi_def_cfa %rbp, 16
	callq	insert_new_arc.40
	addq	$8, %rsp
	popq	%rbx
	popq	%r12
	popq	%r13
	popq	%r14
	popq	%r15
	popq	%rbp
	.cfi_def_cfa %rsp, 8
	retq
.LBB1_9:                                # %ctrl0
	.cfi_def_cfa %rbp, 16
	movq	-48(%rbp), %r9          # 8-byte Reload
	cmpl	$1, %eax
	je	.LBB1_2
# %bb.10:                               # %ctrl1
	cmpl	$2, %eax
	je	.LBB1_3
# %bb.11:                               # %ctrl2
	cmpl	$3, %eax
	je	.LBB1_4
# %bb.12:                               # %ctrl3
	cmpl	$4, %eax
	je	.LBB1_5
# %bb.13:                               # %ctrl4
	cmpl	$5, %eax
	je	.LBB1_6
# %bb.14:                               # %ctrl5
	cmpl	$6, %eax
	movq	%r12, %r8
	movq	%r13, %rcx
	movq	%rbx, %rdx
	movq	%r14, %rsi
	movq	%r15, %rdi
	je	.LBB1_7
	jmp	.LBB1_8
.Lfunc_end1:
	.size	insert_new_arc, .Lfunc_end1-insert_new_arc
	.cfi_endproc
                                        # -- End function
	.globl	replace_weaker_arc      # -- Begin function replace_weaker_arc
	.p2align	4, 0x90
	.type	replace_weaker_arc,@function
replace_weaker_arc:                     # @replace_weaker_arc
	.cfi_startproc
# %bb.0:                                # %rand_bb
	pushq	%rbp
	.cfi_def_cfa_offset 16
	.cfi_offset %rbp, -16
	movq	%rsp, %rbp
	.cfi_def_cfa_register %rbp
	pushq	%r15
	pushq	%r14
	pushq	%r13
	pushq	%r12
	pushq	%rbx
	pushq	%rax
	.cfi_offset %rbx, -56
	.cfi_offset %r12, -48
	.cfi_offset %r13, -40
	.cfi_offset %r14, -32
	.cfi_offset %r15, -24
	movq	%r9, -48(%rbp)          # 8-byte Spill
	movq	%r8, %r12
	movq	%rcx, %r13
	movq	%rdx, %rbx
	movq	%rsi, %r14
	movq	%rdi, %r15
	callq	get_rand
	cmpl	$0, %eax
	jne	.LBB2_9
# %bb.1:                                # %func_replace_weaker_arc.1
	movq	%r15, %rdi
	movq	%r14, %rsi
	movq	%rbx, %rdx
	movq	%r13, %rcx
	movq	%r12, %r8
	movq	-48(%rbp), %r9          # 8-byte Reload
	callq	replace_weaker_arc.1
	addq	$8, %rsp
	popq	%rbx
	popq	%r12
	popq	%r13
	popq	%r14
	popq	%r15
	popq	%rbp
	.cfi_def_cfa %rsp, 8
	retq
.LBB2_2:                                # %func_replace_weaker_arc.8
	.cfi_def_cfa %rbp, 16
	movq	%r15, %rdi
	movq	%r14, %rsi
	movq	%rbx, %rdx
	movq	%r13, %rcx
	movq	%r12, %r8
	callq	replace_weaker_arc.8
	addq	$8, %rsp
	popq	%rbx
	popq	%r12
	popq	%r13
	popq	%r14
	popq	%r15
	popq	%rbp
	.cfi_def_cfa %rsp, 8
	retq
.LBB2_3:                                # %func_replace_weaker_arc.13
	.cfi_def_cfa %rbp, 16
	movq	%r15, %rdi
	movq	%r14, %rsi
	movq	%rbx, %rdx
	movq	%r13, %rcx
	movq	%r12, %r8
	callq	replace_weaker_arc.13
	addq	$8, %rsp
	popq	%rbx
	popq	%r12
	popq	%r13
	popq	%r14
	popq	%r15
	popq	%rbp
	.cfi_def_cfa %rsp, 8
	retq
.LBB2_4:                                # %func_replace_weaker_arc.16
	.cfi_def_cfa %rbp, 16
	movq	%r15, %rdi
	movq	%r14, %rsi
	movq	%rbx, %rdx
	movq	%r13, %rcx
	movq	%r12, %r8
	callq	replace_weaker_arc.16
	addq	$8, %rsp
	popq	%rbx
	popq	%r12
	popq	%r13
	popq	%r14
	popq	%r15
	popq	%rbp
	.cfi_def_cfa %rsp, 8
	retq
.LBB2_5:                                # %func_replace_weaker_arc.18
	.cfi_def_cfa %rbp, 16
	movq	%r15, %rdi
	movq	%r14, %rsi
	movq	%rbx, %rdx
	movq	%r13, %rcx
	movq	%r12, %r8
	callq	replace_weaker_arc.18
	addq	$8, %rsp
	popq	%rbx
	popq	%r12
	popq	%r13
	popq	%r14
	popq	%r15
	popq	%rbp
	.cfi_def_cfa %rsp, 8
	retq
.LBB2_6:                                # %func_replace_weaker_arc.19
	.cfi_def_cfa %rbp, 16
	movq	%r15, %rdi
	movq	%r14, %rsi
	movq	%rbx, %rdx
	movq	%r13, %rcx
	movq	%r12, %r8
	callq	replace_weaker_arc.19
	addq	$8, %rsp
	popq	%rbx
	popq	%r12
	popq	%r13
	popq	%r14
	popq	%r15
	popq	%rbp
	.cfi_def_cfa %rsp, 8
	retq
.LBB2_7:                                # %func_replace_weaker_arc.25
	.cfi_def_cfa %rbp, 16
	callq	replace_weaker_arc.25
	addq	$8, %rsp
	popq	%rbx
	popq	%r12
	popq	%r13
	popq	%r14
	popq	%r15
	popq	%rbp
	.cfi_def_cfa %rsp, 8
	retq
.LBB2_8:                                # %func_replace_weaker_arc.37
	.cfi_def_cfa %rbp, 16
	callq	replace_weaker_arc.37
	addq	$8, %rsp
	popq	%rbx
	popq	%r12
	popq	%r13
	popq	%r14
	popq	%r15
	popq	%rbp
	.cfi_def_cfa %rsp, 8
	retq
.LBB2_9:                                # %ctrl0
	.cfi_def_cfa %rbp, 16
	movq	-48(%rbp), %r9          # 8-byte Reload
	cmpl	$1, %eax
	je	.LBB2_2
# %bb.10:                               # %ctrl1
	cmpl	$2, %eax
	je	.LBB2_3
# %bb.11:                               # %ctrl2
	cmpl	$3, %eax
	je	.LBB2_4
# %bb.12:                               # %ctrl3
	cmpl	$4, %eax
	je	.LBB2_5
# %bb.13:                               # %ctrl4
	cmpl	$5, %eax
	je	.LBB2_6
# %bb.14:                               # %ctrl5
	cmpl	$6, %eax
	movq	%r12, %r8
	movq	%r13, %rcx
	movq	%rbx, %rdx
	movq	%r14, %rsi
	movq	%r15, %rdi
	je	.LBB2_7
	jmp	.LBB2_8
.Lfunc_end2:
	.size	replace_weaker_arc, .Lfunc_end2-replace_weaker_arc
	.cfi_endproc
                                        # -- End function
	.globl	price_out_impl          # -- Begin function price_out_impl
	.p2align	4, 0x90
	.type	price_out_impl,@function
price_out_impl:                         # @price_out_impl
	.cfi_startproc
# %bb.0:                                # %rand_bb
	pushq	%rbp
	.cfi_def_cfa_offset 16
	.cfi_offset %rbp, -16
	movq	%rsp, %rbp
	.cfi_def_cfa_register %rbp
	pushq	%rbx
	pushq	%rax
	.cfi_offset %rbx, -24
	movq	%rdi, %rbx
	callq	get_rand
	cmpl	$0, %eax
	jne	.LBB3_9
# %bb.1:                                # %func_price_out_impl.2
	movq	%rbx, %rdi
	callq	price_out_impl.2
	addq	$8, %rsp
	popq	%rbx
	popq	%rbp
	.cfi_def_cfa %rsp, 8
	retq
.LBB3_2:                                # %func_price_out_impl.10
	.cfi_def_cfa %rbp, 16
	movq	%rbx, %rdi
	callq	price_out_impl.10
	addq	$8, %rsp
	popq	%rbx
	popq	%rbp
	.cfi_def_cfa %rsp, 8
	retq
.LBB3_3:                                # %func_price_out_impl.12
	.cfi_def_cfa %rbp, 16
	movq	%rbx, %rdi
	callq	price_out_impl.12
	addq	$8, %rsp
	popq	%rbx
	popq	%rbp
	.cfi_def_cfa %rsp, 8
	retq
.LBB3_4:                                # %func_price_out_impl.14
	.cfi_def_cfa %rbp, 16
	movq	%rbx, %rdi
	callq	price_out_impl.14
	addq	$8, %rsp
	popq	%rbx
	popq	%rbp
	.cfi_def_cfa %rsp, 8
	retq
.LBB3_5:                                # %func_price_out_impl.20
	.cfi_def_cfa %rbp, 16
	movq	%rbx, %rdi
	callq	price_out_impl.20
	addq	$8, %rsp
	popq	%rbx
	popq	%rbp
	.cfi_def_cfa %rsp, 8
	retq
.LBB3_6:                                # %func_price_out_impl.23
	.cfi_def_cfa %rbp, 16
	movq	%rbx, %rdi
	callq	price_out_impl.23
	addq	$8, %rsp
	popq	%rbx
	popq	%rbp
	.cfi_def_cfa %rsp, 8
	retq
.LBB3_7:                                # %func_price_out_impl.31
	.cfi_def_cfa %rbp, 16
	movq	%rbx, %rdi
	callq	price_out_impl.31
	addq	$8, %rsp
	popq	%rbx
	popq	%rbp
	.cfi_def_cfa %rsp, 8
	retq
.LBB3_8:                                # %func_price_out_impl.32
	.cfi_def_cfa %rbp, 16
	movq	%rbx, %rdi
	callq	price_out_impl.32
	addq	$8, %rsp
	popq	%rbx
	popq	%rbp
	.cfi_def_cfa %rsp, 8
	retq
.LBB3_9:                                # %ctrl0
	.cfi_def_cfa %rbp, 16
	cmpl	$1, %eax
	je	.LBB3_2
# %bb.10:                               # %ctrl1
	cmpl	$2, %eax
	je	.LBB3_3
# %bb.11:                               # %ctrl2
	cmpl	$3, %eax
	je	.LBB3_4
# %bb.12:                               # %ctrl3
	cmpl	$4, %eax
	je	.LBB3_5
# %bb.13:                               # %ctrl4
	cmpl	$5, %eax
	je	.LBB3_6
# %bb.14:                               # %ctrl5
	cmpl	$6, %eax
	je	.LBB3_7
	jmp	.LBB3_8
.Lfunc_end3:
	.size	price_out_impl, .Lfunc_end3-price_out_impl
	.cfi_endproc
                                        # -- End function
	.globl	suspend_impl            # -- Begin function suspend_impl
	.p2align	4, 0x90
	.type	suspend_impl,@function
suspend_impl:                           # @suspend_impl
	.cfi_startproc
# %bb.0:                                # %rand_bb
	pushq	%rbp
	.cfi_def_cfa_offset 16
	.cfi_offset %rbp, -16
	movq	%rsp, %rbp
	.cfi_def_cfa_register %rbp
	pushq	%r15
	pushq	%r14
	pushq	%rbx
	pushq	%rax
	.cfi_offset %rbx, -40
	.cfi_offset %r14, -32
	.cfi_offset %r15, -24
	movq	%rdx, %r14
	movq	%rsi, %r15
	movq	%rdi, %rbx
	callq	get_rand
	cmpl	$0, %eax
	jne	.LBB4_9
# %bb.1:                                # %func_suspend_impl.3
	movq	%rbx, %rdi
	movq	%r15, %rsi
	movq	%r14, %rdx
	callq	suspend_impl.3
	addq	$8, %rsp
	popq	%rbx
	popq	%r14
	popq	%r15
	popq	%rbp
	.cfi_def_cfa %rsp, 8
	retq
.LBB4_2:                                # %func_suspend_impl.5
	.cfi_def_cfa %rbp, 16
	movq	%rbx, %rdi
	movq	%r15, %rsi
	movq	%r14, %rdx
	callq	suspend_impl.5
	addq	$8, %rsp
	popq	%rbx
	popq	%r14
	popq	%r15
	popq	%rbp
	.cfi_def_cfa %rsp, 8
	retq
.LBB4_3:                                # %func_suspend_impl.9
	.cfi_def_cfa %rbp, 16
	movq	%rbx, %rdi
	movq	%r15, %rsi
	movq	%r14, %rdx
	callq	suspend_impl.9
	addq	$8, %rsp
	popq	%rbx
	popq	%r14
	popq	%r15
	popq	%rbp
	.cfi_def_cfa %rsp, 8
	retq
.LBB4_4:                                # %func_suspend_impl.11
	.cfi_def_cfa %rbp, 16
	movq	%rbx, %rdi
	movq	%r15, %rsi
	movq	%r14, %rdx
	callq	suspend_impl.11
	addq	$8, %rsp
	popq	%rbx
	popq	%r14
	popq	%r15
	popq	%rbp
	.cfi_def_cfa %rsp, 8
	retq
.LBB4_5:                                # %func_suspend_impl.15
	.cfi_def_cfa %rbp, 16
	movq	%rbx, %rdi
	movq	%r15, %rsi
	movq	%r14, %rdx
	callq	suspend_impl.15
	addq	$8, %rsp
	popq	%rbx
	popq	%r14
	popq	%r15
	popq	%rbp
	.cfi_def_cfa %rsp, 8
	retq
.LBB4_6:                                # %func_suspend_impl.17
	.cfi_def_cfa %rbp, 16
	movq	%rbx, %rdi
	movq	%r15, %rsi
	movq	%r14, %rdx
	callq	suspend_impl.17
	addq	$8, %rsp
	popq	%rbx
	popq	%r14
	popq	%r15
	popq	%rbp
	.cfi_def_cfa %rsp, 8
	retq
.LBB4_7:                                # %func_suspend_impl.26
	.cfi_def_cfa %rbp, 16
	movq	%rbx, %rdi
	movq	%r15, %rsi
	movq	%r14, %rdx
	callq	suspend_impl.26
	addq	$8, %rsp
	popq	%rbx
	popq	%r14
	popq	%r15
	popq	%rbp
	.cfi_def_cfa %rsp, 8
	retq
.LBB4_8:                                # %func_suspend_impl.34
	.cfi_def_cfa %rbp, 16
	movq	%rbx, %rdi
	movq	%r15, %rsi
	movq	%r14, %rdx
	callq	suspend_impl.34
	addq	$8, %rsp
	popq	%rbx
	popq	%r14
	popq	%r15
	popq	%rbp
	.cfi_def_cfa %rsp, 8
	retq
.LBB4_9:                                # %ctrl0
	.cfi_def_cfa %rbp, 16
	cmpl	$1, %eax
	je	.LBB4_2
# %bb.10:                               # %ctrl1
	cmpl	$2, %eax
	je	.LBB4_3
# %bb.11:                               # %ctrl2
	cmpl	$3, %eax
	je	.LBB4_4
# %bb.12:                               # %ctrl3
	cmpl	$4, %eax
	je	.LBB4_5
# %bb.13:                               # %ctrl4
	cmpl	$5, %eax
	je	.LBB4_6
# %bb.14:                               # %ctrl5
	cmpl	$6, %eax
	je	.LBB4_7
	jmp	.LBB4_8
.Lfunc_end4:
	.size	suspend_impl, .Lfunc_end4-suspend_impl
	.cfi_endproc
                                        # -- End function
	.globl	replace_weaker_arc.1    # -- Begin function replace_weaker_arc.1
	.p2align	4, 0x90
	.type	replace_weaker_arc.1,@function
replace_weaker_arc.1:                   # @replace_weaker_arc.1
	.cfi_startproc
# %bb.0:                                # %entry
	pushq	%rbp
	.cfi_def_cfa_offset 16
	.cfi_offset %rbp, -16
	movq	%rsp, %rbp
	.cfi_def_cfa_register %rbp
	subq	$80, %rsp
	movl	$165984770, -44(%rbp)   # imm = 0x9E4BA02
	movq	%rdi, -64(%rbp)
	movq	%rsi, -8(%rbp)
	movq	%rdx, -72(%rbp)
	movq	%rcx, -56(%rbp)
	movq	%r8, -32(%rbp)
	movq	%r9, -40(%rbp)
	movq	-72(%rbp), %rax
	movq	-8(%rbp), %rcx
	movq	%rax, 8(%rcx)
	movq	-56(%rbp), %rax
	movq	-8(%rbp), %rcx
	movq	%rax, 16(%rcx)
	movq	-32(%rbp), %rax
	movq	-8(%rbp), %rcx
	movq	%rax, 56(%rcx)
	movq	-32(%rbp), %rax
	movq	-8(%rbp), %rcx
	movq	%rax, (%rcx)
	movq	-40(%rbp), %rax
	movq	-8(%rbp), %rcx
	movq	%rax, 48(%rcx)
	movq	$1, -24(%rbp)
	movq	-8(%rbp), %rax
	movq	112(%rax), %rax
	movq	-8(%rbp), %rcx
	movq	176(%rcx), %rcx
	cmpq	%rcx, %rax
	movl	$2, %eax
	movl	$3, %ecx
	cmovgl	%eax, %ecx
	movslq	%ecx, %rax
	movq	%rax, -16(%rbp)
.LBB5_1:                                # %while.cond
                                        # =>This Inner Loop Header: Depth=1
	xorl	%eax, %eax
	movq	-16(%rbp), %rcx
	movq	-64(%rbp), %rdx
	cmpq	448(%rdx), %rcx
	jg	.LBB5_3
# %bb.2:                                # %land.rhs
                                        #   in Loop: Header=BB5_1 Depth=1
	movq	-40(%rbp), %rax
	movq	-8(%rbp), %rcx
	movq	-16(%rbp), %rdx
	subq	$1, %rdx
	shlq	$6, %rdx
	addq	%rdx, %rcx
	cmpq	48(%rcx), %rax
	setl	%al
.LBB5_3:                                # %land.end
                                        #   in Loop: Header=BB5_1 Depth=1
	testb	$1, %al
	jne	.LBB5_4
	jmp	.LBB5_9
.LBB5_4:                                # %while.body
                                        #   in Loop: Header=BB5_1 Depth=1
	movq	-8(%rbp), %rax
	movq	-16(%rbp), %rcx
	subq	$1, %rcx
	shlq	$6, %rcx
	addq	%rcx, %rax
	movq	8(%rax), %rax
	movq	-8(%rbp), %rcx
	movq	-24(%rbp), %rdx
	subq	$1, %rdx
	shlq	$6, %rdx
	addq	%rdx, %rcx
	movq	%rax, 8(%rcx)
	movq	-8(%rbp), %rax
	movq	-16(%rbp), %rcx
	subq	$1, %rcx
	shlq	$6, %rcx
	addq	%rcx, %rax
	movq	16(%rax), %rax
	movq	-8(%rbp), %rcx
	movq	-24(%rbp), %rdx
	subq	$1, %rdx
	shlq	$6, %rdx
	addq	%rdx, %rcx
	movq	%rax, 16(%rcx)
	movq	-8(%rbp), %rax
	movq	-16(%rbp), %rcx
	subq	$1, %rcx
	shlq	$6, %rcx
	addq	%rcx, %rax
	movq	(%rax), %rax
	movq	-8(%rbp), %rcx
	movq	-24(%rbp), %rdx
	subq	$1, %rdx
	shlq	$6, %rdx
	addq	%rdx, %rcx
	movq	%rax, (%rcx)
	movq	-8(%rbp), %rax
	movq	-16(%rbp), %rcx
	subq	$1, %rcx
	shlq	$6, %rcx
	addq	%rcx, %rax
	movq	(%rax), %rax
	movq	-8(%rbp), %rcx
	movq	-24(%rbp), %rdx
	subq	$1, %rdx
	shlq	$6, %rdx
	addq	%rdx, %rcx
	movq	%rax, 56(%rcx)
	movq	-8(%rbp), %rax
	movq	-16(%rbp), %rcx
	subq	$1, %rcx
	shlq	$6, %rcx
	addq	%rcx, %rax
	movq	48(%rax), %rax
	movq	-8(%rbp), %rcx
	movq	-24(%rbp), %rdx
	subq	$1, %rdx
	shlq	$6, %rdx
	addq	%rdx, %rcx
	movq	%rax, 48(%rcx)
	movq	-72(%rbp), %rax
	movq	-8(%rbp), %rcx
	movq	-16(%rbp), %rdx
	subq	$1, %rdx
	shlq	$6, %rdx
	addq	%rdx, %rcx
	movq	%rax, 8(%rcx)
	movq	-56(%rbp), %rax
	movq	-8(%rbp), %rcx
	movq	-16(%rbp), %rdx
	subq	$1, %rdx
	shlq	$6, %rdx
	addq	%rdx, %rcx
	movq	%rax, 16(%rcx)
	movq	-32(%rbp), %rax
	movq	-8(%rbp), %rcx
	movq	-16(%rbp), %rdx
	subq	$1, %rdx
	shlq	$6, %rdx
	addq	%rdx, %rcx
	movq	%rax, (%rcx)
	movq	-32(%rbp), %rax
	movq	-8(%rbp), %rcx
	movq	-16(%rbp), %rdx
	subq	$1, %rdx
	shlq	$6, %rdx
	addq	%rdx, %rcx
	movq	%rax, 56(%rcx)
	movq	-40(%rbp), %rax
	movq	-8(%rbp), %rcx
	movq	-16(%rbp), %rdx
	subq	$1, %rdx
	shlq	$6, %rdx
	addq	%rdx, %rcx
	movq	%rax, 48(%rcx)
	movq	-16(%rbp), %rax
	movq	%rax, -24(%rbp)
	movq	-16(%rbp), %rax
	shlq	$1, %rax
	movq	%rax, -16(%rbp)
	movq	-16(%rbp), %rax
	addq	$1, %rax
	movq	-64(%rbp), %rcx
	cmpq	448(%rcx), %rax
	jg	.LBB5_8
# %bb.5:                                # %if.then
                                        #   in Loop: Header=BB5_1 Depth=1
	movq	-8(%rbp), %rax
	movq	-16(%rbp), %rcx
	subq	$1, %rcx
	shlq	$6, %rcx
	addq	%rcx, %rax
	movq	48(%rax), %rax
	movq	-8(%rbp), %rcx
	movq	-16(%rbp), %rdx
	shlq	$6, %rdx
	addq	%rdx, %rcx
	cmpq	48(%rcx), %rax
	jge	.LBB5_7
# %bb.6:                                # %if.then74
                                        #   in Loop: Header=BB5_1 Depth=1
	movq	-16(%rbp), %rax
	addq	$1, %rax
	movq	%rax, -16(%rbp)
.LBB5_7:                                # %if.end
                                        #   in Loop: Header=BB5_1 Depth=1
	jmp	.LBB5_8
.LBB5_8:                                # %if.end75
                                        #   in Loop: Header=BB5_1 Depth=1
	jmp	.LBB5_1
.LBB5_9:                                # %while.end
	cmpl	$165984770, -44(%rbp)   # imm = 0x9E4BA02
	jne	.LBB5_11
.LBB5_10:
	addq	$80, %rsp
	popq	%rbp
	.cfi_def_cfa %rsp, 8
	retq
.LBB5_11:                               # %func_exit
	.cfi_def_cfa %rbp, 16
	callq	detect_breach
	jmp	.LBB5_10
.Lfunc_end5:
	.size	replace_weaker_arc.1, .Lfunc_end5-replace_weaker_arc.1
	.cfi_endproc
                                        # -- End function
	.globl	price_out_impl.2        # -- Begin function price_out_impl.2
	.p2align	4, 0x90
	.type	price_out_impl.2,@function
price_out_impl.2:                       # @price_out_impl.2
	.cfi_startproc
# %bb.0:                                # %entry
	pushq	%rbp
	.cfi_def_cfa_offset 16
	.cfi_offset %rbp, -16
	movq	%rsp, %rbp
	.cfi_def_cfa_register %rbp
	pushq	%rbx
	subq	$168, %rsp
	.cfi_offset %rbx, -24
	movl	$353714930, -100(%rbp)  # imm = 0x151542F2
	movq	%rdi, -24(%rbp)
	movq	$0, -40(%rbp)
	movq	$0, -112(%rbp)
	movq	$15, -168(%rbp)
	movq	-24(%rbp), %rax
	movq	528(%rax), %rax
	movq	%rax, -152(%rbp)
	movq	$30, -88(%rbp)
	movq	-152(%rbp), %rax
	subq	-168(%rbp), %rax
	movq	%rax, -160(%rbp)
	movq	-24(%rbp), %rax
	cmpq	$15000, 408(%rax)       # imm = 0x3A98
	jg	.LBB6_7
# %bb.1:                                # %if.then
	movq	-24(%rbp), %rax
	movq	424(%rax), %rax
	movq	-24(%rbp), %rcx
	addq	456(%rcx), %rax
	movq	-24(%rbp), %rcx
	cmpq	416(%rcx), %rax
	jle	.LBB6_6
# %bb.2:                                # %land.lhs.true
	movq	-24(%rbp), %rax
	movq	408(%rax), %rax
	movq	-24(%rbp), %rcx
	imulq	408(%rcx), %rax
	cqto
	movl	$2, %ecx
	idivq	%rcx
	movq	-24(%rbp), %rcx
	addq	424(%rcx), %rax
	movq	-24(%rbp), %rcx
	cmpq	416(%rcx), %rax
	jle	.LBB6_6
# %bb.3:                                # %if.then9
	movq	$1, -112(%rbp)
	movq	-24(%rbp), %rdi
	callq	resize_prob
	cmpq	$0, %rax
	je	.LBB6_5
# %bb.4:                                # %if.then10
	movq	$-1, -128(%rbp)
	jmp	.LBB6_48
.LBB6_5:                                # %if.end
	movq	-24(%rbp), %rdi
	callq	refresh_neighbour_lists
.LBB6_6:                                # %if.end11
	jmp	.LBB6_7
.LBB6_7:                                # %if.end12
	movq	-24(%rbp), %rax
	movq	576(%rax), %rax
	movq	%rax, -16(%rbp)
	movq	-24(%rbp), %rax
	movq	408(%rax), %rax
	movq	%rax, -120(%rbp)
	movq	-24(%rbp), %rax
	movq	568(%rax), %rax
	movq	%rax, -32(%rbp)
	movq	$0, -48(%rbp)
.LBB6_8:                                # %for.cond
                                        # =>This Inner Loop Header: Depth=1
	xorl	%eax, %eax
	movq	-48(%rbp), %rcx
	cmpq	-120(%rbp), %rcx
	jge	.LBB6_10
# %bb.9:                                # %land.rhs
                                        #   in Loop: Header=BB6_8 Depth=1
	movq	-32(%rbp), %rax
	cmpl	$-1, 88(%rax)
	sete	%al
.LBB6_10:                               # %land.end
                                        #   in Loop: Header=BB6_8 Depth=1
	testb	$1, %al
	jne	.LBB6_11
	jmp	.LBB6_13
.LBB6_11:                               # %for.body
                                        #   in Loop: Header=BB6_8 Depth=1
	jmp	.LBB6_12
.LBB6_12:                               # %for.inc
                                        #   in Loop: Header=BB6_8 Depth=1
	movq	-48(%rbp), %rax
	addq	$1, %rax
	movq	%rax, -48(%rbp)
	movq	-32(%rbp), %rax
	addq	$192, %rax
	movq	%rax, -32(%rbp)
	jmp	.LBB6_8
.LBB6_13:                               # %for.end
	movq	$0, -96(%rbp)
.LBB6_14:                               # %for.cond16
                                        # =>This Loop Header: Depth=1
                                        #     Child Loop BB6_20 Depth 2
	movq	-48(%rbp), %rax
	cmpq	-120(%rbp), %rax
	jge	.LBB6_34
# %bb.15:                               # %for.body18
                                        #   in Loop: Header=BB6_14 Depth=1
	movq	-32(%rbp), %rax
	cmpl	$-1, 88(%rax)
	je	.LBB6_17
# %bb.16:                               # %if.then22
                                        #   in Loop: Header=BB6_14 Depth=1
	movq	-96(%rbp), %rax
	movq	-32(%rbp), %rcx
	movq	16(%rcx), %rcx
	movq	56(%rcx), %rcx
	movq	16(%rcx), %rcx
	movq	%rax, 72(%rcx)
	movq	-32(%rbp), %rax
	addq	$64, %rax
	movq	%rax, -96(%rbp)
.LBB6_17:                               # %if.end26
                                        #   in Loop: Header=BB6_14 Depth=1
	movq	-32(%rbp), %rax
	cmpl	$-1, 24(%rax)
	jne	.LBB6_19
# %bb.18:                               # %if.then29
                                        #   in Loop: Header=BB6_14 Depth=1
	jmp	.LBB6_33
.LBB6_19:                               # %if.end30
                                        #   in Loop: Header=BB6_14 Depth=1
	movq	-32(%rbp), %rax
	movq	16(%rax), %rax
	movq	%rax, -72(%rbp)
	movq	-72(%rbp), %rax
	movslq	100(%rax), %rax
	movq	-32(%rbp), %rcx
	subq	56(%rcx), %rax
	addq	-160(%rbp), %rax
	movq	%rax, -144(%rbp)
	movq	-72(%rbp), %rax
	movq	(%rax), %rax
	movq	%rax, -176(%rbp)
	movq	-96(%rbp), %rax
	movq	8(%rax), %rax
	movq	72(%rax), %rax
	movq	%rax, -64(%rbp)
.LBB6_20:                               # %while.cond
                                        #   Parent Loop BB6_14 Depth=1
                                        # =>  This Inner Loop Header: Depth=2
	cmpq	$0, -64(%rbp)
	je	.LBB6_32
# %bb.21:                               # %while.body
                                        #   in Loop: Header=BB6_20 Depth=2
	movq	-64(%rbp), %rax
	movq	8(%rax), %rax
	movq	%rax, -56(%rbp)
	movq	-56(%rbp), %rax
	movslq	100(%rax), %rax
	movq	-64(%rbp), %rcx
	addq	56(%rcx), %rax
	cmpq	-144(%rbp), %rax
	jle	.LBB6_24
# %bb.22:                               # %if.then44
                                        #   in Loop: Header=BB6_20 Depth=2
	movq	-56(%rbp), %rax
	movq	72(%rax), %rax
	movq	%rax, -64(%rbp)
.LBB6_23:                               # %while.cond.backedge
                                        #   in Loop: Header=BB6_20 Depth=2
	jmp	.LBB6_20
.LBB6_24:                               # %if.end46
                                        #   in Loop: Header=BB6_20 Depth=2
	movq	-88(%rbp), %rax
	movq	-56(%rbp), %rcx
	subq	(%rcx), %rax
	movq	-72(%rbp), %rcx
	addq	(%rcx), %rax
	movq	%rax, -80(%rbp)
	cmpq	$0, -80(%rbp)
	jge	.LBB6_31
# %bb.25:                               # %if.then53
                                        #   in Loop: Header=BB6_20 Depth=2
	movq	-40(%rbp), %rax
	movq	-24(%rbp), %rcx
	cmpq	448(%rcx), %rax
	jge	.LBB6_27
# %bb.26:                               # %if.then56
                                        #   in Loop: Header=BB6_20 Depth=2
	movq	-16(%rbp), %rdi
	movq	-40(%rbp), %rsi
	movq	-56(%rbp), %rdx
	movq	-72(%rbp), %rcx
	movq	-88(%rbp), %r8
	movq	-80(%rbp), %r9
	callq	insert_new_arc
	movq	-40(%rbp), %rax
	addq	$1, %rax
	movq	%rax, -40(%rbp)
	jmp	.LBB6_30
.LBB6_27:                               # %if.else
                                        #   in Loop: Header=BB6_20 Depth=2
	movq	-16(%rbp), %rax
	movq	48(%rax), %rax
	cmpq	-80(%rbp), %rax
	jle	.LBB6_29
# %bb.28:                               # %if.then61
                                        #   in Loop: Header=BB6_20 Depth=2
	movq	-24(%rbp), %rdi
	movq	-16(%rbp), %rsi
	movq	-56(%rbp), %rdx
	movq	-72(%rbp), %rcx
	movq	-88(%rbp), %r8
	movq	-80(%rbp), %r9
	callq	replace_weaker_arc
.LBB6_29:                               # %if.end62
                                        #   in Loop: Header=BB6_20 Depth=2
	jmp	.LBB6_30
.LBB6_30:                               # %if.end63
                                        #   in Loop: Header=BB6_20 Depth=2
	jmp	.LBB6_31
.LBB6_31:                               # %if.end64
                                        #   in Loop: Header=BB6_20 Depth=2
	movq	-56(%rbp), %rax
	movq	72(%rax), %rax
	movq	%rax, -64(%rbp)
	jmp	.LBB6_23
.LBB6_32:                               # %while.end
                                        #   in Loop: Header=BB6_14 Depth=1
	jmp	.LBB6_33
.LBB6_33:                               # %for.inc66
                                        #   in Loop: Header=BB6_14 Depth=1
	movq	-48(%rbp), %rax
	addq	$1, %rax
	movq	%rax, -48(%rbp)
	movq	-32(%rbp), %rax
	addq	$192, %rax
	movq	%rax, -32(%rbp)
	jmp	.LBB6_14
.LBB6_34:                               # %for.end69
	cmpq	$0, -40(%rbp)
	je	.LBB6_47
# %bb.35:                               # %if.then71
	movq	-24(%rbp), %rax
	movq	576(%rax), %rax
	movq	%rax, -16(%rbp)
	movq	-40(%rbp), %rax
	movq	-24(%rbp), %rcx
	shlq	$6, %rax
	addq	576(%rcx), %rax
	movq	%rax, 576(%rcx)
	movq	-24(%rbp), %rax
	movq	576(%rax), %rax
	movq	%rax, -136(%rbp)
	cmpq	$0, -112(%rbp)
	je	.LBB6_41
# %bb.36:                               # %if.then77
	jmp	.LBB6_37
.LBB6_37:                               # %for.cond78
                                        # =>This Inner Loop Header: Depth=1
	movq	-16(%rbp), %rax
	cmpq	-136(%rbp), %rax
	je	.LBB6_40
# %bb.38:                               # %for.body81
                                        #   in Loop: Header=BB6_37 Depth=1
	movq	-16(%rbp), %rax
	movq	$0, 48(%rax)
	movq	-16(%rbp), %rax
	movl	$1, 24(%rax)
# %bb.39:                               # %for.inc84
                                        #   in Loop: Header=BB6_37 Depth=1
	movq	-16(%rbp), %rax
	addq	$64, %rax
	movq	%rax, -16(%rbp)
	jmp	.LBB6_37
.LBB6_40:                               # %for.end85
	jmp	.LBB6_46
.LBB6_41:                               # %if.else86
	jmp	.LBB6_42
.LBB6_42:                               # %for.cond87
                                        # =>This Inner Loop Header: Depth=1
	movq	-16(%rbp), %rax
	cmpq	-136(%rbp), %rax
	je	.LBB6_45
# %bb.43:                               # %for.body90
                                        #   in Loop: Header=BB6_42 Depth=1
	movq	-16(%rbp), %rax
	movq	$0, 48(%rax)
	movq	-16(%rbp), %rax
	movl	$1, 24(%rax)
	movq	-16(%rbp), %rax
	movq	8(%rax), %rax
	movq	56(%rax), %rax
	movq	-16(%rbp), %rcx
	movq	%rax, 32(%rcx)
	movq	-16(%rbp), %rax
	movq	-16(%rbp), %rcx
	movq	8(%rcx), %rcx
	movq	%rax, 56(%rcx)
	movq	-16(%rbp), %rax
	movq	16(%rax), %rax
	movq	64(%rax), %rax
	movq	-16(%rbp), %rcx
	movq	%rax, 40(%rcx)
	movq	-16(%rbp), %rax
	movq	-16(%rbp), %rcx
	movq	16(%rcx), %rcx
	movq	%rax, 64(%rcx)
# %bb.44:                               # %for.inc100
                                        #   in Loop: Header=BB6_42 Depth=1
	movq	-16(%rbp), %rax
	addq	$64, %rax
	movq	%rax, -16(%rbp)
	jmp	.LBB6_42
.LBB6_45:                               # %for.end102
	jmp	.LBB6_46
.LBB6_46:                               # %if.end103
	movq	-40(%rbp), %rax
	movq	-24(%rbp), %rcx
	addq	424(%rcx), %rax
	movq	%rax, 424(%rcx)
	movq	-40(%rbp), %rax
	movq	-24(%rbp), %rcx
	addq	440(%rcx), %rax
	movq	%rax, 440(%rcx)
	movq	-40(%rbp), %rax
	movq	-24(%rbp), %rcx
	movq	448(%rcx), %rdx
	subq	%rax, %rdx
	movq	%rdx, 448(%rcx)
.LBB6_47:                               # %if.end109
	movq	-40(%rbp), %rax
	movq	%rax, -128(%rbp)
.LBB6_48:                               # %return
	movq	-128(%rbp), %rbx
	cmpl	$353714930, -100(%rbp)  # imm = 0x151542F2
	jne	.LBB6_50
.LBB6_49:
	movq	%rbx, %rax
	addq	$168, %rsp
	popq	%rbx
	popq	%rbp
	.cfi_def_cfa %rsp, 8
	retq
.LBB6_50:                               # %func_exit
	.cfi_def_cfa %rbp, 16
	callq	detect_breach
	jmp	.LBB6_49
.Lfunc_end6:
	.size	price_out_impl.2, .Lfunc_end6-price_out_impl.2
	.cfi_endproc
                                        # -- End function
	.globl	suspend_impl.3          # -- Begin function suspend_impl.3
	.p2align	4, 0x90
	.type	suspend_impl.3,@function
suspend_impl.3:                         # @suspend_impl.3
	.cfi_startproc
# %bb.0:                                # %entry
	pushq	%rbp
	.cfi_def_cfa_offset 16
	.cfi_offset %rbp, -16
	movq	%rsp, %rbp
	.cfi_def_cfa_register %rbp
	pushq	%rbx
	subq	$72, %rsp
	.cfi_offset %rbx, -24
	movl	$980447261, -44(%rbp)   # imm = 0x3A70701D
	movq	%rdi, -24(%rbp)
	movq	%rsi, -80(%rbp)
	movq	%rdx, -64(%rbp)
	cmpq	$0, -64(%rbp)
	je	.LBB7_2
# %bb.1:                                # %if.then
	movq	-24(%rbp), %rax
	movq	440(%rax), %rax
	movq	%rax, -32(%rbp)
	jmp	.LBB7_18
.LBB7_2:                                # %if.else
	movq	-24(%rbp), %rax
	movq	576(%rax), %rax
	movq	%rax, -72(%rbp)
	movq	-24(%rbp), %rax
	movq	568(%rax), %rax
	movq	-24(%rbp), %rcx
	movq	424(%rcx), %rcx
	movq	-24(%rbp), %rdx
	subq	440(%rdx), %rcx
	shlq	$6, %rcx
	addq	%rcx, %rax
	movq	%rax, -40(%rbp)
	movq	$0, -32(%rbp)
	movq	-40(%rbp), %rax
	movq	%rax, -16(%rbp)
.LBB7_3:                                # %for.cond
                                        # =>This Inner Loop Header: Depth=1
	movq	-16(%rbp), %rax
	movq	-72(%rbp), %rcx
	cmpq	%rcx, %rax
	jae	.LBB7_17
# %bb.4:                                # %for.body
                                        #   in Loop: Header=BB7_3 Depth=1
	movq	-16(%rbp), %rax
	cmpl	$1, 24(%rax)
	jne	.LBB7_6
# %bb.5:                                # %if.then3
                                        #   in Loop: Header=BB7_3 Depth=1
	movq	-16(%rbp), %rax
	movq	(%rax), %rax
	movq	-16(%rbp), %rcx
	movq	8(%rcx), %rcx
	subq	(%rcx), %rax
	movq	-16(%rbp), %rcx
	movq	16(%rcx), %rcx
	addq	(%rcx), %rax
	movq	%rax, -56(%rbp)
	jmp	.LBB7_12
.LBB7_6:                                # %if.else6
                                        #   in Loop: Header=BB7_3 Depth=1
	movq	$-2, -56(%rbp)
	movq	-16(%rbp), %rax
	cmpl	$0, 24(%rax)
	jne	.LBB7_11
# %bb.7:                                # %if.then9
                                        #   in Loop: Header=BB7_3 Depth=1
	movq	-16(%rbp), %rax
	movq	8(%rax), %rax
	movq	48(%rax), %rax
	cmpq	-16(%rbp), %rax
	jne	.LBB7_9
# %bb.8:                                # %if.then12
                                        #   in Loop: Header=BB7_3 Depth=1
	movq	-40(%rbp), %rax
	movq	-16(%rbp), %rcx
	movq	8(%rcx), %rcx
	movq	%rax, 48(%rcx)
	jmp	.LBB7_10
.LBB7_9:                                # %if.else15
                                        #   in Loop: Header=BB7_3 Depth=1
	movq	-40(%rbp), %rax
	movq	-16(%rbp), %rcx
	movq	16(%rcx), %rcx
	movq	%rax, 48(%rcx)
.LBB7_10:                               # %if.end
                                        #   in Loop: Header=BB7_3 Depth=1
	jmp	.LBB7_11
.LBB7_11:                               # %if.end18
                                        #   in Loop: Header=BB7_3 Depth=1
	jmp	.LBB7_12
.LBB7_12:                               # %if.end19
                                        #   in Loop: Header=BB7_3 Depth=1
	movq	-56(%rbp), %rax
	cmpq	-80(%rbp), %rax
	jle	.LBB7_14
# %bb.13:                               # %if.then21
                                        #   in Loop: Header=BB7_3 Depth=1
	movq	-32(%rbp), %rax
	addq	$1, %rax
	movq	%rax, -32(%rbp)
	jmp	.LBB7_15
.LBB7_14:                               # %if.else22
                                        #   in Loop: Header=BB7_3 Depth=1
	movq	-40(%rbp), %rdi
	movq	-16(%rbp), %rsi
	movl	$64, %edx
	callq	memcpy
	movq	-40(%rbp), %rax
	addq	$64, %rax
	movq	%rax, -40(%rbp)
.LBB7_15:                               # %if.end23
                                        #   in Loop: Header=BB7_3 Depth=1
	jmp	.LBB7_16
.LBB7_16:                               # %for.inc
                                        #   in Loop: Header=BB7_3 Depth=1
	movq	-16(%rbp), %rax
	addq	$64, %rax
	movq	%rax, -16(%rbp)
	jmp	.LBB7_3
.LBB7_17:                               # %for.end
	jmp	.LBB7_18
.LBB7_18:                               # %if.end25
	cmpq	$0, -32(%rbp)
	je	.LBB7_20
# %bb.19:                               # %if.then27
	xorl	%eax, %eax
	movq	-32(%rbp), %rcx
	movq	-24(%rbp), %rdx
	movq	424(%rdx), %rsi
	subq	%rcx, %rsi
	movq	%rsi, 424(%rdx)
	movq	-32(%rbp), %rcx
	movq	-24(%rbp), %rdx
	movq	440(%rdx), %rsi
	subq	%rcx, %rsi
	movq	%rsi, 440(%rdx)
	movq	-32(%rbp), %rcx
	movq	-24(%rbp), %rdx
	movq	576(%rdx), %rsi
	subq	%rcx, %rax
	shlq	$6, %rax
	addq	%rax, %rsi
	movq	%rsi, 576(%rdx)
	movq	-32(%rbp), %rax
	movq	-24(%rbp), %rcx
	addq	448(%rcx), %rax
	movq	%rax, 448(%rcx)
	movq	-24(%rbp), %rdi
	callq	refresh_neighbour_lists
.LBB7_20:                               # %if.end34
	movq	-32(%rbp), %rbx
	cmpl	$980447261, -44(%rbp)   # imm = 0x3A70701D
	jne	.LBB7_22
.LBB7_21:
	movq	%rbx, %rax
	addq	$72, %rsp
	popq	%rbx
	popq	%rbp
	.cfi_def_cfa %rsp, 8
	retq
.LBB7_22:                               # %func_exit
	.cfi_def_cfa %rbp, 16
	callq	detect_breach
	jmp	.LBB7_21
.Lfunc_end7:
	.size	suspend_impl.3, .Lfunc_end7-suspend_impl.3
	.cfi_endproc
                                        # -- End function
	.globl	resize_prob.4           # -- Begin function resize_prob.4
	.p2align	4, 0x90
	.type	resize_prob.4,@function
resize_prob.4:                          # @resize_prob.4
	.cfi_startproc
# %bb.0:                                # %entry
	pushq	%rbp
	.cfi_def_cfa_offset 16
	.cfi_offset %rbp, -16
	movq	%rsp, %rbp
	.cfi_def_cfa_register %rbp
	pushq	%rbx
	subq	$72, %rsp
	.cfi_offset %rbx, -24
	movl	$1005531532, -36(%rbp)  # imm = 0x3BEF318C
	movq	%rdi, -16(%rbp)
	movq	-16(%rbp), %rax
	movq	456(%rax), %rax
	movq	-16(%rbp), %rcx
	addq	416(%rcx), %rax
	movq	%rax, 416(%rcx)
	movq	-16(%rbp), %rax
	movq	456(%rax), %rax
	movq	-16(%rbp), %rcx
	addq	448(%rcx), %rax
	movq	%rax, 448(%rcx)
	movq	-16(%rbp), %rax
	movq	568(%rax), %rdi
	movq	-16(%rbp), %rax
	movq	416(%rax), %rsi
	shlq	$6, %rsi
	callq	realloc
	movq	%rax, -32(%rbp)
	cmpq	$0, -32(%rbp)
	jne	.LBB8_2
# %bb.1:                                # %if.then
	movq	-16(%rbp), %rsi
	movabsq	$.L.str, %rdi
	movb	$0, %al
	callq	printf
	movq	stdout, %rdi
	callq	fflush
	movq	$-1, -48(%rbp)
	jmp	.LBB8_9
.LBB8_2:                                # %if.end
	movq	-32(%rbp), %rax
	movq	-16(%rbp), %rcx
	movq	568(%rcx), %rcx
	subq	%rcx, %rax
	movq	%rax, -64(%rbp)
	movq	-32(%rbp), %rax
	movq	-16(%rbp), %rcx
	movq	%rax, 568(%rcx)
	movq	-32(%rbp), %rax
	movq	-16(%rbp), %rcx
	movq	424(%rcx), %rcx
	shlq	$6, %rcx
	addq	%rcx, %rax
	movq	-16(%rbp), %rcx
	movq	%rax, 576(%rcx)
	movq	-16(%rbp), %rax
	movq	552(%rax), %rax
	movq	%rax, -24(%rbp)
	movq	%rax, -56(%rbp)
	movq	-24(%rbp), %rax
	addq	$104, %rax
	movq	%rax, -24(%rbp)
	movq	-16(%rbp), %rax
	movq	560(%rax), %rax
	movq	%rax, -72(%rbp)
.LBB8_3:                                # %for.cond
                                        # =>This Inner Loop Header: Depth=1
	movq	-24(%rbp), %rax
	cmpq	-72(%rbp), %rax
	jae	.LBB8_8
# %bb.4:                                # %for.body
                                        #   in Loop: Header=BB8_3 Depth=1
	movq	-24(%rbp), %rax
	movq	24(%rax), %rax
	cmpq	-56(%rbp), %rax
	je	.LBB8_6
# %bb.5:                                # %if.then9
                                        #   in Loop: Header=BB8_3 Depth=1
	movq	-24(%rbp), %rax
	movq	48(%rax), %rax
	addq	-64(%rbp), %rax
	movq	-24(%rbp), %rcx
	movq	%rax, 48(%rcx)
.LBB8_6:                                # %if.end12
                                        #   in Loop: Header=BB8_3 Depth=1
	jmp	.LBB8_7
.LBB8_7:                                # %for.inc
                                        #   in Loop: Header=BB8_3 Depth=1
	movq	-24(%rbp), %rax
	addq	$104, %rax
	movq	%rax, -24(%rbp)
	jmp	.LBB8_3
.LBB8_8:                                # %for.end
	movq	$0, -48(%rbp)
.LBB8_9:                                # %return
	movq	-48(%rbp), %rbx
	cmpl	$1005531532, -36(%rbp)  # imm = 0x3BEF318C
	jne	.LBB8_11
.LBB8_10:
	movq	%rbx, %rax
	addq	$72, %rsp
	popq	%rbx
	popq	%rbp
	.cfi_def_cfa %rsp, 8
	retq
.LBB8_11:                               # %func_exit
	.cfi_def_cfa %rbp, 16
	callq	detect_breach
	jmp	.LBB8_10
.Lfunc_end8:
	.size	resize_prob.4, .Lfunc_end8-resize_prob.4
	.cfi_endproc
                                        # -- End function
	.globl	suspend_impl.5          # -- Begin function suspend_impl.5
	.p2align	4, 0x90
	.type	suspend_impl.5,@function
suspend_impl.5:                         # @suspend_impl.5
	.cfi_startproc
# %bb.0:                                # %entry
	pushq	%rbp
	.cfi_def_cfa_offset 16
	.cfi_offset %rbp, -16
	movq	%rsp, %rbp
	.cfi_def_cfa_register %rbp
	pushq	%rbx
	subq	$72, %rsp
	.cfi_offset %rbx, -24
	movl	$1657688289, -44(%rbp)  # imm = 0x62CE50E1
	movq	%rdi, -24(%rbp)
	movq	%rsi, -72(%rbp)
	movq	%rdx, -64(%rbp)
	cmpq	$0, -64(%rbp)
	je	.LBB9_2
# %bb.1:                                # %if.then
	movq	-24(%rbp), %rax
	movq	440(%rax), %rax
	movq	%rax, -32(%rbp)
	jmp	.LBB9_18
.LBB9_2:                                # %if.else
	movq	-24(%rbp), %rax
	movq	576(%rax), %rax
	movq	%rax, -80(%rbp)
	movq	-24(%rbp), %rax
	movq	568(%rax), %rax
	movq	-24(%rbp), %rcx
	movq	424(%rcx), %rcx
	movq	-24(%rbp), %rdx
	subq	440(%rdx), %rcx
	shlq	$6, %rcx
	addq	%rcx, %rax
	movq	%rax, -40(%rbp)
	movq	$0, -32(%rbp)
	movq	-40(%rbp), %rax
	movq	%rax, -16(%rbp)
.LBB9_3:                                # %for.cond
                                        # =>This Inner Loop Header: Depth=1
	movq	-16(%rbp), %rax
	movq	-80(%rbp), %rcx
	cmpq	%rcx, %rax
	jae	.LBB9_17
# %bb.4:                                # %for.body
                                        #   in Loop: Header=BB9_3 Depth=1
	movq	-16(%rbp), %rax
	cmpl	$1, 24(%rax)
	jne	.LBB9_6
# %bb.5:                                # %if.then3
                                        #   in Loop: Header=BB9_3 Depth=1
	movq	-16(%rbp), %rax
	movq	(%rax), %rax
	movq	-16(%rbp), %rcx
	movq	8(%rcx), %rcx
	subq	(%rcx), %rax
	movq	-16(%rbp), %rcx
	movq	16(%rcx), %rcx
	addq	(%rcx), %rax
	movq	%rax, -56(%rbp)
	jmp	.LBB9_12
.LBB9_6:                                # %if.else6
                                        #   in Loop: Header=BB9_3 Depth=1
	movq	$-2, -56(%rbp)
	movq	-16(%rbp), %rax
	cmpl	$0, 24(%rax)
	jne	.LBB9_11
# %bb.7:                                # %if.then9
                                        #   in Loop: Header=BB9_3 Depth=1
	movq	-16(%rbp), %rax
	movq	8(%rax), %rax
	movq	48(%rax), %rax
	cmpq	-16(%rbp), %rax
	jne	.LBB9_9
# %bb.8:                                # %if.then12
                                        #   in Loop: Header=BB9_3 Depth=1
	movq	-40(%rbp), %rax
	movq	-16(%rbp), %rcx
	movq	8(%rcx), %rcx
	movq	%rax, 48(%rcx)
	jmp	.LBB9_10
.LBB9_9:                                # %if.else15
                                        #   in Loop: Header=BB9_3 Depth=1
	movq	-40(%rbp), %rax
	movq	-16(%rbp), %rcx
	movq	16(%rcx), %rcx
	movq	%rax, 48(%rcx)
.LBB9_10:                               # %if.end
                                        #   in Loop: Header=BB9_3 Depth=1
	jmp	.LBB9_11
.LBB9_11:                               # %if.end18
                                        #   in Loop: Header=BB9_3 Depth=1
	jmp	.LBB9_12
.LBB9_12:                               # %if.end19
                                        #   in Loop: Header=BB9_3 Depth=1
	movq	-56(%rbp), %rax
	cmpq	-72(%rbp), %rax
	jle	.LBB9_14
# %bb.13:                               # %if.then21
                                        #   in Loop: Header=BB9_3 Depth=1
	movq	-32(%rbp), %rax
	addq	$1, %rax
	movq	%rax, -32(%rbp)
	jmp	.LBB9_15
.LBB9_14:                               # %if.else22
                                        #   in Loop: Header=BB9_3 Depth=1
	movq	-40(%rbp), %rdi
	movq	-16(%rbp), %rsi
	movl	$64, %edx
	callq	memcpy
	movq	-40(%rbp), %rax
	addq	$64, %rax
	movq	%rax, -40(%rbp)
.LBB9_15:                               # %if.end23
                                        #   in Loop: Header=BB9_3 Depth=1
	jmp	.LBB9_16
.LBB9_16:                               # %for.inc
                                        #   in Loop: Header=BB9_3 Depth=1
	movq	-16(%rbp), %rax
	addq	$64, %rax
	movq	%rax, -16(%rbp)
	jmp	.LBB9_3
.LBB9_17:                               # %for.end
	jmp	.LBB9_18
.LBB9_18:                               # %if.end25
	cmpq	$0, -32(%rbp)
	je	.LBB9_20
# %bb.19:                               # %if.then27
	xorl	%eax, %eax
	movq	-32(%rbp), %rcx
	movq	-24(%rbp), %rdx
	movq	424(%rdx), %rsi
	subq	%rcx, %rsi
	movq	%rsi, 424(%rdx)
	movq	-32(%rbp), %rcx
	movq	-24(%rbp), %rdx
	movq	440(%rdx), %rsi
	subq	%rcx, %rsi
	movq	%rsi, 440(%rdx)
	movq	-32(%rbp), %rcx
	movq	-24(%rbp), %rdx
	movq	576(%rdx), %rsi
	subq	%rcx, %rax
	shlq	$6, %rax
	addq	%rax, %rsi
	movq	%rsi, 576(%rdx)
	movq	-32(%rbp), %rax
	movq	-24(%rbp), %rcx
	addq	448(%rcx), %rax
	movq	%rax, 448(%rcx)
	movq	-24(%rbp), %rdi
	callq	refresh_neighbour_lists
.LBB9_20:                               # %if.end34
	movq	-32(%rbp), %rbx
	cmpl	$1657688289, -44(%rbp)  # imm = 0x62CE50E1
	jne	.LBB9_22
.LBB9_21:
	movq	%rbx, %rax
	addq	$72, %rsp
	popq	%rbx
	popq	%rbp
	.cfi_def_cfa %rsp, 8
	retq
.LBB9_22:                               # %func_exit
	.cfi_def_cfa %rbp, 16
	callq	detect_breach
	jmp	.LBB9_21
.Lfunc_end9:
	.size	suspend_impl.5, .Lfunc_end9-suspend_impl.5
	.cfi_endproc
                                        # -- End function
	.globl	resize_prob.6           # -- Begin function resize_prob.6
	.p2align	4, 0x90
	.type	resize_prob.6,@function
resize_prob.6:                          # @resize_prob.6
	.cfi_startproc
# %bb.0:                                # %entry
	pushq	%rbp
	.cfi_def_cfa_offset 16
	.cfi_offset %rbp, -16
	movq	%rsp, %rbp
	.cfi_def_cfa_register %rbp
	pushq	%rbx
	subq	$72, %rsp
	.cfi_offset %rbx, -24
	movl	$1478569404, -36(%rbp)  # imm = 0x58212DBC
	movq	%rdi, -16(%rbp)
	movq	-16(%rbp), %rax
	movq	456(%rax), %rax
	movq	-16(%rbp), %rcx
	addq	416(%rcx), %rax
	movq	%rax, 416(%rcx)
	movq	-16(%rbp), %rax
	movq	456(%rax), %rax
	movq	-16(%rbp), %rcx
	addq	448(%rcx), %rax
	movq	%rax, 448(%rcx)
	movq	-16(%rbp), %rax
	movq	568(%rax), %rdi
	movq	-16(%rbp), %rax
	movq	416(%rax), %rsi
	shlq	$6, %rsi
	callq	realloc
	movq	%rax, -32(%rbp)
	cmpq	$0, -32(%rbp)
	jne	.LBB10_2
# %bb.1:                                # %if.then
	movq	-16(%rbp), %rsi
	movabsq	$.L.str, %rdi
	movb	$0, %al
	callq	printf
	movq	stdout, %rdi
	callq	fflush
	movq	$-1, -48(%rbp)
	jmp	.LBB10_9
.LBB10_2:                               # %if.end
	movq	-32(%rbp), %rax
	movq	-16(%rbp), %rcx
	movq	568(%rcx), %rcx
	subq	%rcx, %rax
	movq	%rax, -56(%rbp)
	movq	-32(%rbp), %rax
	movq	-16(%rbp), %rcx
	movq	%rax, 568(%rcx)
	movq	-32(%rbp), %rax
	movq	-16(%rbp), %rcx
	movq	424(%rcx), %rcx
	shlq	$6, %rcx
	addq	%rcx, %rax
	movq	-16(%rbp), %rcx
	movq	%rax, 576(%rcx)
	movq	-16(%rbp), %rax
	movq	552(%rax), %rax
	movq	%rax, -24(%rbp)
	movq	%rax, -64(%rbp)
	movq	-24(%rbp), %rax
	addq	$104, %rax
	movq	%rax, -24(%rbp)
	movq	-16(%rbp), %rax
	movq	560(%rax), %rax
	movq	%rax, -72(%rbp)
.LBB10_3:                               # %for.cond
                                        # =>This Inner Loop Header: Depth=1
	movq	-24(%rbp), %rax
	cmpq	-72(%rbp), %rax
	jae	.LBB10_8
# %bb.4:                                # %for.body
                                        #   in Loop: Header=BB10_3 Depth=1
	movq	-24(%rbp), %rax
	movq	24(%rax), %rax
	cmpq	-64(%rbp), %rax
	je	.LBB10_6
# %bb.5:                                # %if.then9
                                        #   in Loop: Header=BB10_3 Depth=1
	movq	-24(%rbp), %rax
	movq	48(%rax), %rax
	addq	-56(%rbp), %rax
	movq	-24(%rbp), %rcx
	movq	%rax, 48(%rcx)
.LBB10_6:                               # %if.end12
                                        #   in Loop: Header=BB10_3 Depth=1
	jmp	.LBB10_7
.LBB10_7:                               # %for.inc
                                        #   in Loop: Header=BB10_3 Depth=1
	movq	-24(%rbp), %rax
	addq	$104, %rax
	movq	%rax, -24(%rbp)
	jmp	.LBB10_3
.LBB10_8:                               # %for.end
	movq	$0, -48(%rbp)
.LBB10_9:                               # %return
	movq	-48(%rbp), %rbx
	cmpl	$1478569404, -36(%rbp)  # imm = 0x58212DBC
	jne	.LBB10_11
.LBB10_10:
	movq	%rbx, %rax
	addq	$72, %rsp
	popq	%rbx
	popq	%rbp
	.cfi_def_cfa %rsp, 8
	retq
.LBB10_11:                              # %func_exit
	.cfi_def_cfa %rbp, 16
	callq	detect_breach
	jmp	.LBB10_10
.Lfunc_end10:
	.size	resize_prob.6, .Lfunc_end10-resize_prob.6
	.cfi_endproc
                                        # -- End function
	.globl	insert_new_arc.7        # -- Begin function insert_new_arc.7
	.p2align	4, 0x90
	.type	insert_new_arc.7,@function
insert_new_arc.7:                       # @insert_new_arc.7
	.cfi_startproc
# %bb.0:                                # %entry
	pushq	%rbp
	.cfi_def_cfa_offset 16
	.cfi_offset %rbp, -16
	movq	%rsp, %rbp
	.cfi_def_cfa_register %rbp
	subq	$64, %rsp
	movl	$805364255, -44(%rbp)   # imm = 0x3000E21F
	movq	%rdi, -8(%rbp)
	movq	%rsi, -24(%rbp)
	movq	%rdx, -64(%rbp)
	movq	%rcx, -56(%rbp)
	movq	%r8, -32(%rbp)
	movq	%r9, -40(%rbp)
	movq	-64(%rbp), %rax
	movq	-8(%rbp), %rcx
	movq	-24(%rbp), %rdx
	shlq	$6, %rdx
	addq	%rdx, %rcx
	movq	%rax, 8(%rcx)
	movq	-56(%rbp), %rax
	movq	-8(%rbp), %rcx
	movq	-24(%rbp), %rdx
	shlq	$6, %rdx
	addq	%rdx, %rcx
	movq	%rax, 16(%rcx)
	movq	-32(%rbp), %rax
	movq	-8(%rbp), %rcx
	movq	-24(%rbp), %rdx
	shlq	$6, %rdx
	addq	%rdx, %rcx
	movq	%rax, 56(%rcx)
	movq	-32(%rbp), %rax
	movq	-8(%rbp), %rcx
	movq	-24(%rbp), %rdx
	shlq	$6, %rdx
	addq	%rdx, %rcx
	movq	%rax, (%rcx)
	movq	-40(%rbp), %rax
	movq	-8(%rbp), %rcx
	movq	-24(%rbp), %rdx
	shlq	$6, %rdx
	addq	%rdx, %rcx
	movq	%rax, 48(%rcx)
	movq	-24(%rbp), %rax
	addq	$1, %rax
	movq	%rax, -16(%rbp)
.LBB11_1:                               # %while.cond
                                        # =>This Inner Loop Header: Depth=1
	xorl	%eax, %eax
	movq	-16(%rbp), %rcx
	subq	$1, %rcx
	cmpq	$0, %rcx
	je	.LBB11_3
# %bb.2:                                # %land.rhs
                                        #   in Loop: Header=BB11_1 Depth=1
	movq	-40(%rbp), %rcx
	movq	-8(%rbp), %rsi
	movq	-16(%rbp), %rax
	cqto
	movl	$2, %edi
	idivq	%rdi
	subq	$1, %rax
	shlq	$6, %rax
	addq	%rax, %rsi
	cmpq	48(%rsi), %rcx
	setg	%al
.LBB11_3:                               # %land.end
                                        #   in Loop: Header=BB11_1 Depth=1
	testb	$1, %al
	jne	.LBB11_4
	jmp	.LBB11_5
.LBB11_4:                               # %while.body
                                        #   in Loop: Header=BB11_1 Depth=1
	movq	-8(%rbp), %rsi
	movq	-16(%rbp), %rax
	cqto
	movl	$2, %ecx
	idivq	%rcx
	subq	$1, %rax
	shlq	$6, %rax
	addq	%rax, %rsi
	movq	8(%rsi), %rax
	movq	-8(%rbp), %rdx
	movq	-16(%rbp), %rsi
	subq	$1, %rsi
	shlq	$6, %rsi
	addq	%rsi, %rdx
	movq	%rax, 8(%rdx)
	movq	-8(%rbp), %rsi
	movq	-16(%rbp), %rax
	cqto
	idivq	%rcx
	subq	$1, %rax
	shlq	$6, %rax
	addq	%rax, %rsi
	movq	16(%rsi), %rax
	movq	-8(%rbp), %rdx
	movq	-16(%rbp), %rsi
	subq	$1, %rsi
	shlq	$6, %rsi
	addq	%rsi, %rdx
	movq	%rax, 16(%rdx)
	movq	-8(%rbp), %rsi
	movq	-16(%rbp), %rax
	cqto
	idivq	%rcx
	subq	$1, %rax
	shlq	$6, %rax
	addq	%rax, %rsi
	movq	(%rsi), %rax
	movq	-8(%rbp), %rdx
	movq	-16(%rbp), %rsi
	subq	$1, %rsi
	shlq	$6, %rsi
	addq	%rsi, %rdx
	movq	%rax, (%rdx)
	movq	-8(%rbp), %rsi
	movq	-16(%rbp), %rax
	cqto
	idivq	%rcx
	subq	$1, %rax
	shlq	$6, %rax
	addq	%rax, %rsi
	movq	(%rsi), %rax
	movq	-8(%rbp), %rdx
	movq	-16(%rbp), %rsi
	subq	$1, %rsi
	shlq	$6, %rsi
	addq	%rsi, %rdx
	movq	%rax, 56(%rdx)
	movq	-8(%rbp), %rsi
	movq	-16(%rbp), %rax
	cqto
	idivq	%rcx
	subq	$1, %rax
	shlq	$6, %rax
	addq	%rax, %rsi
	movq	48(%rsi), %rax
	movq	-8(%rbp), %rdx
	movq	-16(%rbp), %rsi
	subq	$1, %rsi
	shlq	$6, %rsi
	addq	%rsi, %rdx
	movq	%rax, 48(%rdx)
	movq	-16(%rbp), %rax
	cqto
	idivq	%rcx
	movq	%rax, -16(%rbp)
	movq	-64(%rbp), %rax
	movq	-8(%rbp), %rcx
	movq	-16(%rbp), %rdx
	subq	$1, %rdx
	shlq	$6, %rdx
	addq	%rdx, %rcx
	movq	%rax, 8(%rcx)
	movq	-56(%rbp), %rax
	movq	-8(%rbp), %rcx
	movq	-16(%rbp), %rdx
	subq	$1, %rdx
	shlq	$6, %rdx
	addq	%rdx, %rcx
	movq	%rax, 16(%rcx)
	movq	-32(%rbp), %rax
	movq	-8(%rbp), %rcx
	movq	-16(%rbp), %rdx
	subq	$1, %rdx
	shlq	$6, %rdx
	addq	%rdx, %rcx
	movq	%rax, (%rcx)
	movq	-32(%rbp), %rax
	movq	-8(%rbp), %rcx
	movq	-16(%rbp), %rdx
	subq	$1, %rdx
	shlq	$6, %rdx
	addq	%rdx, %rcx
	movq	%rax, 56(%rcx)
	movq	-40(%rbp), %rax
	movq	-8(%rbp), %rcx
	movq	-16(%rbp), %rdx
	subq	$1, %rdx
	shlq	$6, %rdx
	addq	%rdx, %rcx
	movq	%rax, 48(%rcx)
	jmp	.LBB11_1
.LBB11_5:                               # %while.end
	cmpl	$805364255, -44(%rbp)   # imm = 0x3000E21F
	jne	.LBB11_7
.LBB11_6:
	addq	$64, %rsp
	popq	%rbp
	.cfi_def_cfa %rsp, 8
	retq
.LBB11_7:                               # %func_exit
	.cfi_def_cfa %rbp, 16
	callq	detect_breach
	jmp	.LBB11_6
.Lfunc_end11:
	.size	insert_new_arc.7, .Lfunc_end11-insert_new_arc.7
	.cfi_endproc
                                        # -- End function
	.globl	replace_weaker_arc.8    # -- Begin function replace_weaker_arc.8
	.p2align	4, 0x90
	.type	replace_weaker_arc.8,@function
replace_weaker_arc.8:                   # @replace_weaker_arc.8
	.cfi_startproc
# %bb.0:                                # %entry
	pushq	%rbp
	.cfi_def_cfa_offset 16
	.cfi_offset %rbp, -16
	movq	%rsp, %rbp
	.cfi_def_cfa_register %rbp
	subq	$80, %rsp
	movl	$25013888, -44(%rbp)    # imm = 0x17DAE80
	movq	%rdi, -64(%rbp)
	movq	%rsi, -8(%rbp)
	movq	%rdx, -56(%rbp)
	movq	%rcx, -72(%rbp)
	movq	%r8, -32(%rbp)
	movq	%r9, -40(%rbp)
	movq	-56(%rbp), %rax
	movq	-8(%rbp), %rcx
	movq	%rax, 8(%rcx)
	movq	-72(%rbp), %rax
	movq	-8(%rbp), %rcx
	movq	%rax, 16(%rcx)
	movq	-32(%rbp), %rax
	movq	-8(%rbp), %rcx
	movq	%rax, 56(%rcx)
	movq	-32(%rbp), %rax
	movq	-8(%rbp), %rcx
	movq	%rax, (%rcx)
	movq	-40(%rbp), %rax
	movq	-8(%rbp), %rcx
	movq	%rax, 48(%rcx)
	movq	$1, -24(%rbp)
	movq	-8(%rbp), %rax
	movq	112(%rax), %rax
	movq	-8(%rbp), %rcx
	movq	176(%rcx), %rcx
	cmpq	%rcx, %rax
	movl	$2, %eax
	movl	$3, %ecx
	cmovgl	%eax, %ecx
	movslq	%ecx, %rax
	movq	%rax, -16(%rbp)
.LBB12_1:                               # %while.cond
                                        # =>This Inner Loop Header: Depth=1
	xorl	%eax, %eax
	movq	-16(%rbp), %rcx
	movq	-64(%rbp), %rdx
	cmpq	448(%rdx), %rcx
	jg	.LBB12_3
# %bb.2:                                # %land.rhs
                                        #   in Loop: Header=BB12_1 Depth=1
	movq	-40(%rbp), %rax
	movq	-8(%rbp), %rcx
	movq	-16(%rbp), %rdx
	subq	$1, %rdx
	shlq	$6, %rdx
	addq	%rdx, %rcx
	cmpq	48(%rcx), %rax
	setl	%al
.LBB12_3:                               # %land.end
                                        #   in Loop: Header=BB12_1 Depth=1
	testb	$1, %al
	jne	.LBB12_4
	jmp	.LBB12_9
.LBB12_4:                               # %while.body
                                        #   in Loop: Header=BB12_1 Depth=1
	movq	-8(%rbp), %rax
	movq	-16(%rbp), %rcx
	subq	$1, %rcx
	shlq	$6, %rcx
	addq	%rcx, %rax
	movq	8(%rax), %rax
	movq	-8(%rbp), %rcx
	movq	-24(%rbp), %rdx
	subq	$1, %rdx
	shlq	$6, %rdx
	addq	%rdx, %rcx
	movq	%rax, 8(%rcx)
	movq	-8(%rbp), %rax
	movq	-16(%rbp), %rcx
	subq	$1, %rcx
	shlq	$6, %rcx
	addq	%rcx, %rax
	movq	16(%rax), %rax
	movq	-8(%rbp), %rcx
	movq	-24(%rbp), %rdx
	subq	$1, %rdx
	shlq	$6, %rdx
	addq	%rdx, %rcx
	movq	%rax, 16(%rcx)
	movq	-8(%rbp), %rax
	movq	-16(%rbp), %rcx
	subq	$1, %rcx
	shlq	$6, %rcx
	addq	%rcx, %rax
	movq	(%rax), %rax
	movq	-8(%rbp), %rcx
	movq	-24(%rbp), %rdx
	subq	$1, %rdx
	shlq	$6, %rdx
	addq	%rdx, %rcx
	movq	%rax, (%rcx)
	movq	-8(%rbp), %rax
	movq	-16(%rbp), %rcx
	subq	$1, %rcx
	shlq	$6, %rcx
	addq	%rcx, %rax
	movq	(%rax), %rax
	movq	-8(%rbp), %rcx
	movq	-24(%rbp), %rdx
	subq	$1, %rdx
	shlq	$6, %rdx
	addq	%rdx, %rcx
	movq	%rax, 56(%rcx)
	movq	-8(%rbp), %rax
	movq	-16(%rbp), %rcx
	subq	$1, %rcx
	shlq	$6, %rcx
	addq	%rcx, %rax
	movq	48(%rax), %rax
	movq	-8(%rbp), %rcx
	movq	-24(%rbp), %rdx
	subq	$1, %rdx
	shlq	$6, %rdx
	addq	%rdx, %rcx
	movq	%rax, 48(%rcx)
	movq	-56(%rbp), %rax
	movq	-8(%rbp), %rcx
	movq	-16(%rbp), %rdx
	subq	$1, %rdx
	shlq	$6, %rdx
	addq	%rdx, %rcx
	movq	%rax, 8(%rcx)
	movq	-72(%rbp), %rax
	movq	-8(%rbp), %rcx
	movq	-16(%rbp), %rdx
	subq	$1, %rdx
	shlq	$6, %rdx
	addq	%rdx, %rcx
	movq	%rax, 16(%rcx)
	movq	-32(%rbp), %rax
	movq	-8(%rbp), %rcx
	movq	-16(%rbp), %rdx
	subq	$1, %rdx
	shlq	$6, %rdx
	addq	%rdx, %rcx
	movq	%rax, (%rcx)
	movq	-32(%rbp), %rax
	movq	-8(%rbp), %rcx
	movq	-16(%rbp), %rdx
	subq	$1, %rdx
	shlq	$6, %rdx
	addq	%rdx, %rcx
	movq	%rax, 56(%rcx)
	movq	-40(%rbp), %rax
	movq	-8(%rbp), %rcx
	movq	-16(%rbp), %rdx
	subq	$1, %rdx
	shlq	$6, %rdx
	addq	%rdx, %rcx
	movq	%rax, 48(%rcx)
	movq	-16(%rbp), %rax
	movq	%rax, -24(%rbp)
	movq	-16(%rbp), %rax
	shlq	$1, %rax
	movq	%rax, -16(%rbp)
	movq	-16(%rbp), %rax
	addq	$1, %rax
	movq	-64(%rbp), %rcx
	cmpq	448(%rcx), %rax
	jg	.LBB12_8
# %bb.5:                                # %if.then
                                        #   in Loop: Header=BB12_1 Depth=1
	movq	-8(%rbp), %rax
	movq	-16(%rbp), %rcx
	subq	$1, %rcx
	shlq	$6, %rcx
	addq	%rcx, %rax
	movq	48(%rax), %rax
	movq	-8(%rbp), %rcx
	movq	-16(%rbp), %rdx
	shlq	$6, %rdx
	addq	%rdx, %rcx
	cmpq	48(%rcx), %rax
	jge	.LBB12_7
# %bb.6:                                # %if.then74
                                        #   in Loop: Header=BB12_1 Depth=1
	movq	-16(%rbp), %rax
	addq	$1, %rax
	movq	%rax, -16(%rbp)
.LBB12_7:                               # %if.end
                                        #   in Loop: Header=BB12_1 Depth=1
	jmp	.LBB12_8
.LBB12_8:                               # %if.end75
                                        #   in Loop: Header=BB12_1 Depth=1
	jmp	.LBB12_1
.LBB12_9:                               # %while.end
	cmpl	$25013888, -44(%rbp)    # imm = 0x17DAE80
	jne	.LBB12_11
.LBB12_10:
	addq	$80, %rsp
	popq	%rbp
	.cfi_def_cfa %rsp, 8
	retq
.LBB12_11:                              # %func_exit
	.cfi_def_cfa %rbp, 16
	callq	detect_breach
	jmp	.LBB12_10
.Lfunc_end12:
	.size	replace_weaker_arc.8, .Lfunc_end12-replace_weaker_arc.8
	.cfi_endproc
                                        # -- End function
	.globl	suspend_impl.9          # -- Begin function suspend_impl.9
	.p2align	4, 0x90
	.type	suspend_impl.9,@function
suspend_impl.9:                         # @suspend_impl.9
	.cfi_startproc
# %bb.0:                                # %entry
	pushq	%rbp
	.cfi_def_cfa_offset 16
	.cfi_offset %rbp, -16
	movq	%rsp, %rbp
	.cfi_def_cfa_register %rbp
	pushq	%rbx
	subq	$72, %rsp
	.cfi_offset %rbx, -24
	movl	$1092048193, -44(%rbp)  # imm = 0x41175541
	movq	%rdi, -24(%rbp)
	movq	%rsi, -80(%rbp)
	movq	%rdx, -72(%rbp)
	cmpq	$0, -72(%rbp)
	je	.LBB13_2
# %bb.1:                                # %if.then
	movq	-24(%rbp), %rax
	movq	440(%rax), %rax
	movq	%rax, -32(%rbp)
	jmp	.LBB13_18
.LBB13_2:                               # %if.else
	movq	-24(%rbp), %rax
	movq	576(%rax), %rax
	movq	%rax, -64(%rbp)
	movq	-24(%rbp), %rax
	movq	568(%rax), %rax
	movq	-24(%rbp), %rcx
	movq	424(%rcx), %rcx
	movq	-24(%rbp), %rdx
	subq	440(%rdx), %rcx
	shlq	$6, %rcx
	addq	%rcx, %rax
	movq	%rax, -40(%rbp)
	movq	$0, -32(%rbp)
	movq	-40(%rbp), %rax
	movq	%rax, -16(%rbp)
.LBB13_3:                               # %for.cond
                                        # =>This Inner Loop Header: Depth=1
	movq	-16(%rbp), %rax
	movq	-64(%rbp), %rcx
	cmpq	%rcx, %rax
	jae	.LBB13_17
# %bb.4:                                # %for.body
                                        #   in Loop: Header=BB13_3 Depth=1
	movq	-16(%rbp), %rax
	cmpl	$1, 24(%rax)
	jne	.LBB13_6
# %bb.5:                                # %if.then3
                                        #   in Loop: Header=BB13_3 Depth=1
	movq	-16(%rbp), %rax
	movq	(%rax), %rax
	movq	-16(%rbp), %rcx
	movq	8(%rcx), %rcx
	subq	(%rcx), %rax
	movq	-16(%rbp), %rcx
	movq	16(%rcx), %rcx
	addq	(%rcx), %rax
	movq	%rax, -56(%rbp)
	jmp	.LBB13_12
.LBB13_6:                               # %if.else6
                                        #   in Loop: Header=BB13_3 Depth=1
	movq	$-2, -56(%rbp)
	movq	-16(%rbp), %rax
	cmpl	$0, 24(%rax)
	jne	.LBB13_11
# %bb.7:                                # %if.then9
                                        #   in Loop: Header=BB13_3 Depth=1
	movq	-16(%rbp), %rax
	movq	8(%rax), %rax
	movq	48(%rax), %rax
	cmpq	-16(%rbp), %rax
	jne	.LBB13_9
# %bb.8:                                # %if.then12
                                        #   in Loop: Header=BB13_3 Depth=1
	movq	-40(%rbp), %rax
	movq	-16(%rbp), %rcx
	movq	8(%rcx), %rcx
	movq	%rax, 48(%rcx)
	jmp	.LBB13_10
.LBB13_9:                               # %if.else15
                                        #   in Loop: Header=BB13_3 Depth=1
	movq	-40(%rbp), %rax
	movq	-16(%rbp), %rcx
	movq	16(%rcx), %rcx
	movq	%rax, 48(%rcx)
.LBB13_10:                              # %if.end
                                        #   in Loop: Header=BB13_3 Depth=1
	jmp	.LBB13_11
.LBB13_11:                              # %if.end18
                                        #   in Loop: Header=BB13_3 Depth=1
	jmp	.LBB13_12
.LBB13_12:                              # %if.end19
                                        #   in Loop: Header=BB13_3 Depth=1
	movq	-56(%rbp), %rax
	cmpq	-80(%rbp), %rax
	jle	.LBB13_14
# %bb.13:                               # %if.then21
                                        #   in Loop: Header=BB13_3 Depth=1
	movq	-32(%rbp), %rax
	addq	$1, %rax
	movq	%rax, -32(%rbp)
	jmp	.LBB13_15
.LBB13_14:                              # %if.else22
                                        #   in Loop: Header=BB13_3 Depth=1
	movq	-40(%rbp), %rdi
	movq	-16(%rbp), %rsi
	movl	$64, %edx
	callq	memcpy
	movq	-40(%rbp), %rax
	addq	$64, %rax
	movq	%rax, -40(%rbp)
.LBB13_15:                              # %if.end23
                                        #   in Loop: Header=BB13_3 Depth=1
	jmp	.LBB13_16
.LBB13_16:                              # %for.inc
                                        #   in Loop: Header=BB13_3 Depth=1
	movq	-16(%rbp), %rax
	addq	$64, %rax
	movq	%rax, -16(%rbp)
	jmp	.LBB13_3
.LBB13_17:                              # %for.end
	jmp	.LBB13_18
.LBB13_18:                              # %if.end25
	cmpq	$0, -32(%rbp)
	je	.LBB13_20
# %bb.19:                               # %if.then27
	xorl	%eax, %eax
	movq	-32(%rbp), %rcx
	movq	-24(%rbp), %rdx
	movq	424(%rdx), %rsi
	subq	%rcx, %rsi
	movq	%rsi, 424(%rdx)
	movq	-32(%rbp), %rcx
	movq	-24(%rbp), %rdx
	movq	440(%rdx), %rsi
	subq	%rcx, %rsi
	movq	%rsi, 440(%rdx)
	movq	-32(%rbp), %rcx
	movq	-24(%rbp), %rdx
	movq	576(%rdx), %rsi
	subq	%rcx, %rax
	shlq	$6, %rax
	addq	%rax, %rsi
	movq	%rsi, 576(%rdx)
	movq	-32(%rbp), %rax
	movq	-24(%rbp), %rcx
	addq	448(%rcx), %rax
	movq	%rax, 448(%rcx)
	movq	-24(%rbp), %rdi
	callq	refresh_neighbour_lists
.LBB13_20:                              # %if.end34
	movq	-32(%rbp), %rbx
	cmpl	$1092048193, -44(%rbp)  # imm = 0x41175541
	jne	.LBB13_22
.LBB13_21:
	movq	%rbx, %rax
	addq	$72, %rsp
	popq	%rbx
	popq	%rbp
	.cfi_def_cfa %rsp, 8
	retq
.LBB13_22:                              # %func_exit
	.cfi_def_cfa %rbp, 16
	callq	detect_breach
	jmp	.LBB13_21
.Lfunc_end13:
	.size	suspend_impl.9, .Lfunc_end13-suspend_impl.9
	.cfi_endproc
                                        # -- End function
	.globl	price_out_impl.10       # -- Begin function price_out_impl.10
	.p2align	4, 0x90
	.type	price_out_impl.10,@function
price_out_impl.10:                      # @price_out_impl.10
	.cfi_startproc
# %bb.0:                                # %entry
	pushq	%rbp
	.cfi_def_cfa_offset 16
	.cfi_offset %rbp, -16
	movq	%rsp, %rbp
	.cfi_def_cfa_register %rbp
	pushq	%rbx
	subq	$168, %rsp
	.cfi_offset %rbx, -24
	movl	$496229599, -100(%rbp)  # imm = 0x1D93DCDF
	movq	%rdi, -24(%rbp)
	movq	$0, -40(%rbp)
	movq	$0, -128(%rbp)
	movq	$15, -160(%rbp)
	movq	-24(%rbp), %rax
	movq	528(%rax), %rax
	movq	%rax, -144(%rbp)
	movq	$30, -88(%rbp)
	movq	-144(%rbp), %rax
	subq	-160(%rbp), %rax
	movq	%rax, -168(%rbp)
	movq	-24(%rbp), %rax
	cmpq	$15000, 408(%rax)       # imm = 0x3A98
	jg	.LBB14_7
# %bb.1:                                # %if.then
	movq	-24(%rbp), %rax
	movq	424(%rax), %rax
	movq	-24(%rbp), %rcx
	addq	456(%rcx), %rax
	movq	-24(%rbp), %rcx
	cmpq	416(%rcx), %rax
	jle	.LBB14_6
# %bb.2:                                # %land.lhs.true
	movq	-24(%rbp), %rax
	movq	408(%rax), %rax
	movq	-24(%rbp), %rcx
	imulq	408(%rcx), %rax
	cqto
	movl	$2, %ecx
	idivq	%rcx
	movq	-24(%rbp), %rcx
	addq	424(%rcx), %rax
	movq	-24(%rbp), %rcx
	cmpq	416(%rcx), %rax
	jle	.LBB14_6
# %bb.3:                                # %if.then9
	movq	$1, -128(%rbp)
	movq	-24(%rbp), %rdi
	callq	resize_prob
	cmpq	$0, %rax
	je	.LBB14_5
# %bb.4:                                # %if.then10
	movq	$-1, -112(%rbp)
	jmp	.LBB14_48
.LBB14_5:                               # %if.end
	movq	-24(%rbp), %rdi
	callq	refresh_neighbour_lists
.LBB14_6:                               # %if.end11
	jmp	.LBB14_7
.LBB14_7:                               # %if.end12
	movq	-24(%rbp), %rax
	movq	576(%rax), %rax
	movq	%rax, -16(%rbp)
	movq	-24(%rbp), %rax
	movq	408(%rax), %rax
	movq	%rax, -136(%rbp)
	movq	-24(%rbp), %rax
	movq	568(%rax), %rax
	movq	%rax, -32(%rbp)
	movq	$0, -48(%rbp)
.LBB14_8:                               # %for.cond
                                        # =>This Inner Loop Header: Depth=1
	xorl	%eax, %eax
	movq	-48(%rbp), %rcx
	cmpq	-136(%rbp), %rcx
	jge	.LBB14_10
# %bb.9:                                # %land.rhs
                                        #   in Loop: Header=BB14_8 Depth=1
	movq	-32(%rbp), %rax
	cmpl	$-1, 88(%rax)
	sete	%al
.LBB14_10:                              # %land.end
                                        #   in Loop: Header=BB14_8 Depth=1
	testb	$1, %al
	jne	.LBB14_11
	jmp	.LBB14_13
.LBB14_11:                              # %for.body
                                        #   in Loop: Header=BB14_8 Depth=1
	jmp	.LBB14_12
.LBB14_12:                              # %for.inc
                                        #   in Loop: Header=BB14_8 Depth=1
	movq	-48(%rbp), %rax
	addq	$1, %rax
	movq	%rax, -48(%rbp)
	movq	-32(%rbp), %rax
	addq	$192, %rax
	movq	%rax, -32(%rbp)
	jmp	.LBB14_8
.LBB14_13:                              # %for.end
	movq	$0, -96(%rbp)
.LBB14_14:                              # %for.cond16
                                        # =>This Loop Header: Depth=1
                                        #     Child Loop BB14_20 Depth 2
	movq	-48(%rbp), %rax
	cmpq	-136(%rbp), %rax
	jge	.LBB14_34
# %bb.15:                               # %for.body18
                                        #   in Loop: Header=BB14_14 Depth=1
	movq	-32(%rbp), %rax
	cmpl	$-1, 88(%rax)
	je	.LBB14_17
# %bb.16:                               # %if.then22
                                        #   in Loop: Header=BB14_14 Depth=1
	movq	-96(%rbp), %rax
	movq	-32(%rbp), %rcx
	movq	16(%rcx), %rcx
	movq	56(%rcx), %rcx
	movq	16(%rcx), %rcx
	movq	%rax, 72(%rcx)
	movq	-32(%rbp), %rax
	addq	$64, %rax
	movq	%rax, -96(%rbp)
.LBB14_17:                              # %if.end26
                                        #   in Loop: Header=BB14_14 Depth=1
	movq	-32(%rbp), %rax
	cmpl	$-1, 24(%rax)
	jne	.LBB14_19
# %bb.18:                               # %if.then29
                                        #   in Loop: Header=BB14_14 Depth=1
	jmp	.LBB14_33
.LBB14_19:                              # %if.end30
                                        #   in Loop: Header=BB14_14 Depth=1
	movq	-32(%rbp), %rax
	movq	16(%rax), %rax
	movq	%rax, -72(%rbp)
	movq	-72(%rbp), %rax
	movslq	100(%rax), %rax
	movq	-32(%rbp), %rcx
	subq	56(%rcx), %rax
	addq	-168(%rbp), %rax
	movq	%rax, -152(%rbp)
	movq	-72(%rbp), %rax
	movq	(%rax), %rax
	movq	%rax, -176(%rbp)
	movq	-96(%rbp), %rax
	movq	8(%rax), %rax
	movq	72(%rax), %rax
	movq	%rax, -64(%rbp)
.LBB14_20:                              # %while.cond
                                        #   Parent Loop BB14_14 Depth=1
                                        # =>  This Inner Loop Header: Depth=2
	cmpq	$0, -64(%rbp)
	je	.LBB14_32
# %bb.21:                               # %while.body
                                        #   in Loop: Header=BB14_20 Depth=2
	movq	-64(%rbp), %rax
	movq	8(%rax), %rax
	movq	%rax, -56(%rbp)
	movq	-56(%rbp), %rax
	movslq	100(%rax), %rax
	movq	-64(%rbp), %rcx
	addq	56(%rcx), %rax
	cmpq	-152(%rbp), %rax
	jle	.LBB14_24
# %bb.22:                               # %if.then44
                                        #   in Loop: Header=BB14_20 Depth=2
	movq	-56(%rbp), %rax
	movq	72(%rax), %rax
	movq	%rax, -64(%rbp)
.LBB14_23:                              # %while.cond.backedge
                                        #   in Loop: Header=BB14_20 Depth=2
	jmp	.LBB14_20
.LBB14_24:                              # %if.end46
                                        #   in Loop: Header=BB14_20 Depth=2
	movq	-88(%rbp), %rax
	movq	-56(%rbp), %rcx
	subq	(%rcx), %rax
	movq	-72(%rbp), %rcx
	addq	(%rcx), %rax
	movq	%rax, -80(%rbp)
	cmpq	$0, -80(%rbp)
	jge	.LBB14_31
# %bb.25:                               # %if.then53
                                        #   in Loop: Header=BB14_20 Depth=2
	movq	-40(%rbp), %rax
	movq	-24(%rbp), %rcx
	cmpq	448(%rcx), %rax
	jge	.LBB14_27
# %bb.26:                               # %if.then56
                                        #   in Loop: Header=BB14_20 Depth=2
	movq	-16(%rbp), %rdi
	movq	-40(%rbp), %rsi
	movq	-56(%rbp), %rdx
	movq	-72(%rbp), %rcx
	movq	-88(%rbp), %r8
	movq	-80(%rbp), %r9
	callq	insert_new_arc
	movq	-40(%rbp), %rax
	addq	$1, %rax
	movq	%rax, -40(%rbp)
	jmp	.LBB14_30
.LBB14_27:                              # %if.else
                                        #   in Loop: Header=BB14_20 Depth=2
	movq	-16(%rbp), %rax
	movq	48(%rax), %rax
	cmpq	-80(%rbp), %rax
	jle	.LBB14_29
# %bb.28:                               # %if.then61
                                        #   in Loop: Header=BB14_20 Depth=2
	movq	-24(%rbp), %rdi
	movq	-16(%rbp), %rsi
	movq	-56(%rbp), %rdx
	movq	-72(%rbp), %rcx
	movq	-88(%rbp), %r8
	movq	-80(%rbp), %r9
	callq	replace_weaker_arc
.LBB14_29:                              # %if.end62
                                        #   in Loop: Header=BB14_20 Depth=2
	jmp	.LBB14_30
.LBB14_30:                              # %if.end63
                                        #   in Loop: Header=BB14_20 Depth=2
	jmp	.LBB14_31
.LBB14_31:                              # %if.end64
                                        #   in Loop: Header=BB14_20 Depth=2
	movq	-56(%rbp), %rax
	movq	72(%rax), %rax
	movq	%rax, -64(%rbp)
	jmp	.LBB14_23
.LBB14_32:                              # %while.end
                                        #   in Loop: Header=BB14_14 Depth=1
	jmp	.LBB14_33
.LBB14_33:                              # %for.inc66
                                        #   in Loop: Header=BB14_14 Depth=1
	movq	-48(%rbp), %rax
	addq	$1, %rax
	movq	%rax, -48(%rbp)
	movq	-32(%rbp), %rax
	addq	$192, %rax
	movq	%rax, -32(%rbp)
	jmp	.LBB14_14
.LBB14_34:                              # %for.end69
	cmpq	$0, -40(%rbp)
	je	.LBB14_47
# %bb.35:                               # %if.then71
	movq	-24(%rbp), %rax
	movq	576(%rax), %rax
	movq	%rax, -16(%rbp)
	movq	-40(%rbp), %rax
	movq	-24(%rbp), %rcx
	shlq	$6, %rax
	addq	576(%rcx), %rax
	movq	%rax, 576(%rcx)
	movq	-24(%rbp), %rax
	movq	576(%rax), %rax
	movq	%rax, -120(%rbp)
	cmpq	$0, -128(%rbp)
	je	.LBB14_41
# %bb.36:                               # %if.then77
	jmp	.LBB14_37
.LBB14_37:                              # %for.cond78
                                        # =>This Inner Loop Header: Depth=1
	movq	-16(%rbp), %rax
	cmpq	-120(%rbp), %rax
	je	.LBB14_40
# %bb.38:                               # %for.body81
                                        #   in Loop: Header=BB14_37 Depth=1
	movq	-16(%rbp), %rax
	movq	$0, 48(%rax)
	movq	-16(%rbp), %rax
	movl	$1, 24(%rax)
# %bb.39:                               # %for.inc84
                                        #   in Loop: Header=BB14_37 Depth=1
	movq	-16(%rbp), %rax
	addq	$64, %rax
	movq	%rax, -16(%rbp)
	jmp	.LBB14_37
.LBB14_40:                              # %for.end85
	jmp	.LBB14_46
.LBB14_41:                              # %if.else86
	jmp	.LBB14_42
.LBB14_42:                              # %for.cond87
                                        # =>This Inner Loop Header: Depth=1
	movq	-16(%rbp), %rax
	cmpq	-120(%rbp), %rax
	je	.LBB14_45
# %bb.43:                               # %for.body90
                                        #   in Loop: Header=BB14_42 Depth=1
	movq	-16(%rbp), %rax
	movq	$0, 48(%rax)
	movq	-16(%rbp), %rax
	movl	$1, 24(%rax)
	movq	-16(%rbp), %rax
	movq	8(%rax), %rax
	movq	56(%rax), %rax
	movq	-16(%rbp), %rcx
	movq	%rax, 32(%rcx)
	movq	-16(%rbp), %rax
	movq	-16(%rbp), %rcx
	movq	8(%rcx), %rcx
	movq	%rax, 56(%rcx)
	movq	-16(%rbp), %rax
	movq	16(%rax), %rax
	movq	64(%rax), %rax
	movq	-16(%rbp), %rcx
	movq	%rax, 40(%rcx)
	movq	-16(%rbp), %rax
	movq	-16(%rbp), %rcx
	movq	16(%rcx), %rcx
	movq	%rax, 64(%rcx)
# %bb.44:                               # %for.inc100
                                        #   in Loop: Header=BB14_42 Depth=1
	movq	-16(%rbp), %rax
	addq	$64, %rax
	movq	%rax, -16(%rbp)
	jmp	.LBB14_42
.LBB14_45:                              # %for.end102
	jmp	.LBB14_46
.LBB14_46:                              # %if.end103
	movq	-40(%rbp), %rax
	movq	-24(%rbp), %rcx
	addq	424(%rcx), %rax
	movq	%rax, 424(%rcx)
	movq	-40(%rbp), %rax
	movq	-24(%rbp), %rcx
	addq	440(%rcx), %rax
	movq	%rax, 440(%rcx)
	movq	-40(%rbp), %rax
	movq	-24(%rbp), %rcx
	movq	448(%rcx), %rdx
	subq	%rax, %rdx
	movq	%rdx, 448(%rcx)
.LBB14_47:                              # %if.end109
	movq	-40(%rbp), %rax
	movq	%rax, -112(%rbp)
.LBB14_48:                              # %return
	movq	-112(%rbp), %rbx
	cmpl	$496229599, -100(%rbp)  # imm = 0x1D93DCDF
	jne	.LBB14_50
.LBB14_49:
	movq	%rbx, %rax
	addq	$168, %rsp
	popq	%rbx
	popq	%rbp
	.cfi_def_cfa %rsp, 8
	retq
.LBB14_50:                              # %func_exit
	.cfi_def_cfa %rbp, 16
	callq	detect_breach
	jmp	.LBB14_49
.Lfunc_end14:
	.size	price_out_impl.10, .Lfunc_end14-price_out_impl.10
	.cfi_endproc
                                        # -- End function
	.globl	suspend_impl.11         # -- Begin function suspend_impl.11
	.p2align	4, 0x90
	.type	suspend_impl.11,@function
suspend_impl.11:                        # @suspend_impl.11
	.cfi_startproc
# %bb.0:                                # %entry
	pushq	%rbp
	.cfi_def_cfa_offset 16
	.cfi_offset %rbp, -16
	movq	%rsp, %rbp
	.cfi_def_cfa_register %rbp
	pushq	%rbx
	subq	$72, %rsp
	.cfi_offset %rbx, -24
	movl	$808796942, -44(%rbp)   # imm = 0x3035430E
	movq	%rdi, -24(%rbp)
	movq	%rsi, -64(%rbp)
	movq	%rdx, -72(%rbp)
	cmpq	$0, -72(%rbp)
	je	.LBB15_2
# %bb.1:                                # %if.then
	movq	-24(%rbp), %rax
	movq	440(%rax), %rax
	movq	%rax, -32(%rbp)
	jmp	.LBB15_18
.LBB15_2:                               # %if.else
	movq	-24(%rbp), %rax
	movq	576(%rax), %rax
	movq	%rax, -80(%rbp)
	movq	-24(%rbp), %rax
	movq	568(%rax), %rax
	movq	-24(%rbp), %rcx
	movq	424(%rcx), %rcx
	movq	-24(%rbp), %rdx
	subq	440(%rdx), %rcx
	shlq	$6, %rcx
	addq	%rcx, %rax
	movq	%rax, -40(%rbp)
	movq	$0, -32(%rbp)
	movq	-40(%rbp), %rax
	movq	%rax, -16(%rbp)
.LBB15_3:                               # %for.cond
                                        # =>This Inner Loop Header: Depth=1
	movq	-16(%rbp), %rax
	movq	-80(%rbp), %rcx
	cmpq	%rcx, %rax
	jae	.LBB15_17
# %bb.4:                                # %for.body
                                        #   in Loop: Header=BB15_3 Depth=1
	movq	-16(%rbp), %rax
	cmpl	$1, 24(%rax)
	jne	.LBB15_6
# %bb.5:                                # %if.then3
                                        #   in Loop: Header=BB15_3 Depth=1
	movq	-16(%rbp), %rax
	movq	(%rax), %rax
	movq	-16(%rbp), %rcx
	movq	8(%rcx), %rcx
	subq	(%rcx), %rax
	movq	-16(%rbp), %rcx
	movq	16(%rcx), %rcx
	addq	(%rcx), %rax
	movq	%rax, -56(%rbp)
	jmp	.LBB15_12
.LBB15_6:                               # %if.else6
                                        #   in Loop: Header=BB15_3 Depth=1
	movq	$-2, -56(%rbp)
	movq	-16(%rbp), %rax
	cmpl	$0, 24(%rax)
	jne	.LBB15_11
# %bb.7:                                # %if.then9
                                        #   in Loop: Header=BB15_3 Depth=1
	movq	-16(%rbp), %rax
	movq	8(%rax), %rax
	movq	48(%rax), %rax
	cmpq	-16(%rbp), %rax
	jne	.LBB15_9
# %bb.8:                                # %if.then12
                                        #   in Loop: Header=BB15_3 Depth=1
	movq	-40(%rbp), %rax
	movq	-16(%rbp), %rcx
	movq	8(%rcx), %rcx
	movq	%rax, 48(%rcx)
	jmp	.LBB15_10
.LBB15_9:                               # %if.else15
                                        #   in Loop: Header=BB15_3 Depth=1
	movq	-40(%rbp), %rax
	movq	-16(%rbp), %rcx
	movq	16(%rcx), %rcx
	movq	%rax, 48(%rcx)
.LBB15_10:                              # %if.end
                                        #   in Loop: Header=BB15_3 Depth=1
	jmp	.LBB15_11
.LBB15_11:                              # %if.end18
                                        #   in Loop: Header=BB15_3 Depth=1
	jmp	.LBB15_12
.LBB15_12:                              # %if.end19
                                        #   in Loop: Header=BB15_3 Depth=1
	movq	-56(%rbp), %rax
	cmpq	-64(%rbp), %rax
	jle	.LBB15_14
# %bb.13:                               # %if.then21
                                        #   in Loop: Header=BB15_3 Depth=1
	movq	-32(%rbp), %rax
	addq	$1, %rax
	movq	%rax, -32(%rbp)
	jmp	.LBB15_15
.LBB15_14:                              # %if.else22
                                        #   in Loop: Header=BB15_3 Depth=1
	movq	-40(%rbp), %rdi
	movq	-16(%rbp), %rsi
	movl	$64, %edx
	callq	memcpy
	movq	-40(%rbp), %rax
	addq	$64, %rax
	movq	%rax, -40(%rbp)
.LBB15_15:                              # %if.end23
                                        #   in Loop: Header=BB15_3 Depth=1
	jmp	.LBB15_16
.LBB15_16:                              # %for.inc
                                        #   in Loop: Header=BB15_3 Depth=1
	movq	-16(%rbp), %rax
	addq	$64, %rax
	movq	%rax, -16(%rbp)
	jmp	.LBB15_3
.LBB15_17:                              # %for.end
	jmp	.LBB15_18
.LBB15_18:                              # %if.end25
	cmpq	$0, -32(%rbp)
	je	.LBB15_20
# %bb.19:                               # %if.then27
	xorl	%eax, %eax
	movq	-32(%rbp), %rcx
	movq	-24(%rbp), %rdx
	movq	424(%rdx), %rsi
	subq	%rcx, %rsi
	movq	%rsi, 424(%rdx)
	movq	-32(%rbp), %rcx
	movq	-24(%rbp), %rdx
	movq	440(%rdx), %rsi
	subq	%rcx, %rsi
	movq	%rsi, 440(%rdx)
	movq	-32(%rbp), %rcx
	movq	-24(%rbp), %rdx
	movq	576(%rdx), %rsi
	subq	%rcx, %rax
	shlq	$6, %rax
	addq	%rax, %rsi
	movq	%rsi, 576(%rdx)
	movq	-32(%rbp), %rax
	movq	-24(%rbp), %rcx
	addq	448(%rcx), %rax
	movq	%rax, 448(%rcx)
	movq	-24(%rbp), %rdi
	callq	refresh_neighbour_lists
.LBB15_20:                              # %if.end34
	movq	-32(%rbp), %rbx
	cmpl	$808796942, -44(%rbp)   # imm = 0x3035430E
	jne	.LBB15_22
.LBB15_21:
	movq	%rbx, %rax
	addq	$72, %rsp
	popq	%rbx
	popq	%rbp
	.cfi_def_cfa %rsp, 8
	retq
.LBB15_22:                              # %func_exit
	.cfi_def_cfa %rbp, 16
	callq	detect_breach
	jmp	.LBB15_21
.Lfunc_end15:
	.size	suspend_impl.11, .Lfunc_end15-suspend_impl.11
	.cfi_endproc
                                        # -- End function
	.globl	price_out_impl.12       # -- Begin function price_out_impl.12
	.p2align	4, 0x90
	.type	price_out_impl.12,@function
price_out_impl.12:                      # @price_out_impl.12
	.cfi_startproc
# %bb.0:                                # %entry
	pushq	%rbp
	.cfi_def_cfa_offset 16
	.cfi_offset %rbp, -16
	movq	%rsp, %rbp
	.cfi_def_cfa_register %rbp
	pushq	%rbx
	subq	$168, %rsp
	.cfi_offset %rbx, -24
	movl	$1490863992, -100(%rbp) # imm = 0x58DCC778
	movq	%rdi, -16(%rbp)
	movq	$0, -40(%rbp)
	movq	$0, -112(%rbp)
	movq	$15, -144(%rbp)
	movq	-16(%rbp), %rax
	movq	528(%rax), %rax
	movq	%rax, -160(%rbp)
	movq	$30, -88(%rbp)
	movq	-160(%rbp), %rax
	subq	-144(%rbp), %rax
	movq	%rax, -168(%rbp)
	movq	-16(%rbp), %rax
	cmpq	$15000, 408(%rax)       # imm = 0x3A98
	jg	.LBB16_7
# %bb.1:                                # %if.then
	movq	-16(%rbp), %rax
	movq	424(%rax), %rax
	movq	-16(%rbp), %rcx
	addq	456(%rcx), %rax
	movq	-16(%rbp), %rcx
	cmpq	416(%rcx), %rax
	jle	.LBB16_6
# %bb.2:                                # %land.lhs.true
	movq	-16(%rbp), %rax
	movq	408(%rax), %rax
	movq	-16(%rbp), %rcx
	imulq	408(%rcx), %rax
	cqto
	movl	$2, %ecx
	idivq	%rcx
	movq	-16(%rbp), %rcx
	addq	424(%rcx), %rax
	movq	-16(%rbp), %rcx
	cmpq	416(%rcx), %rax
	jle	.LBB16_6
# %bb.3:                                # %if.then9
	movq	$1, -112(%rbp)
	movq	-16(%rbp), %rdi
	callq	resize_prob
	cmpq	$0, %rax
	je	.LBB16_5
# %bb.4:                                # %if.then10
	movq	$-1, -128(%rbp)
	jmp	.LBB16_48
.LBB16_5:                               # %if.end
	movq	-16(%rbp), %rdi
	callq	refresh_neighbour_lists
.LBB16_6:                               # %if.end11
	jmp	.LBB16_7
.LBB16_7:                               # %if.end12
	movq	-16(%rbp), %rax
	movq	576(%rax), %rax
	movq	%rax, -24(%rbp)
	movq	-16(%rbp), %rax
	movq	408(%rax), %rax
	movq	%rax, -136(%rbp)
	movq	-16(%rbp), %rax
	movq	568(%rax), %rax
	movq	%rax, -32(%rbp)
	movq	$0, -48(%rbp)
.LBB16_8:                               # %for.cond
                                        # =>This Inner Loop Header: Depth=1
	xorl	%eax, %eax
	movq	-48(%rbp), %rcx
	cmpq	-136(%rbp), %rcx
	jge	.LBB16_10
# %bb.9:                                # %land.rhs
                                        #   in Loop: Header=BB16_8 Depth=1
	movq	-32(%rbp), %rax
	cmpl	$-1, 88(%rax)
	sete	%al
.LBB16_10:                              # %land.end
                                        #   in Loop: Header=BB16_8 Depth=1
	testb	$1, %al
	jne	.LBB16_11
	jmp	.LBB16_13
.LBB16_11:                              # %for.body
                                        #   in Loop: Header=BB16_8 Depth=1
	jmp	.LBB16_12
.LBB16_12:                              # %for.inc
                                        #   in Loop: Header=BB16_8 Depth=1
	movq	-48(%rbp), %rax
	addq	$1, %rax
	movq	%rax, -48(%rbp)
	movq	-32(%rbp), %rax
	addq	$192, %rax
	movq	%rax, -32(%rbp)
	jmp	.LBB16_8
.LBB16_13:                              # %for.end
	movq	$0, -96(%rbp)
.LBB16_14:                              # %for.cond16
                                        # =>This Loop Header: Depth=1
                                        #     Child Loop BB16_20 Depth 2
	movq	-48(%rbp), %rax
	cmpq	-136(%rbp), %rax
	jge	.LBB16_34
# %bb.15:                               # %for.body18
                                        #   in Loop: Header=BB16_14 Depth=1
	movq	-32(%rbp), %rax
	cmpl	$-1, 88(%rax)
	je	.LBB16_17
# %bb.16:                               # %if.then22
                                        #   in Loop: Header=BB16_14 Depth=1
	movq	-96(%rbp), %rax
	movq	-32(%rbp), %rcx
	movq	16(%rcx), %rcx
	movq	56(%rcx), %rcx
	movq	16(%rcx), %rcx
	movq	%rax, 72(%rcx)
	movq	-32(%rbp), %rax
	addq	$64, %rax
	movq	%rax, -96(%rbp)
.LBB16_17:                              # %if.end26
                                        #   in Loop: Header=BB16_14 Depth=1
	movq	-32(%rbp), %rax
	cmpl	$-1, 24(%rax)
	jne	.LBB16_19
# %bb.18:                               # %if.then29
                                        #   in Loop: Header=BB16_14 Depth=1
	jmp	.LBB16_33
.LBB16_19:                              # %if.end30
                                        #   in Loop: Header=BB16_14 Depth=1
	movq	-32(%rbp), %rax
	movq	16(%rax), %rax
	movq	%rax, -64(%rbp)
	movq	-64(%rbp), %rax
	movslq	100(%rax), %rax
	movq	-32(%rbp), %rcx
	subq	56(%rcx), %rax
	addq	-168(%rbp), %rax
	movq	%rax, -152(%rbp)
	movq	-64(%rbp), %rax
	movq	(%rax), %rax
	movq	%rax, -176(%rbp)
	movq	-96(%rbp), %rax
	movq	8(%rax), %rax
	movq	72(%rax), %rax
	movq	%rax, -72(%rbp)
.LBB16_20:                              # %while.cond
                                        #   Parent Loop BB16_14 Depth=1
                                        # =>  This Inner Loop Header: Depth=2
	cmpq	$0, -72(%rbp)
	je	.LBB16_32
# %bb.21:                               # %while.body
                                        #   in Loop: Header=BB16_20 Depth=2
	movq	-72(%rbp), %rax
	movq	8(%rax), %rax
	movq	%rax, -56(%rbp)
	movq	-56(%rbp), %rax
	movslq	100(%rax), %rax
	movq	-72(%rbp), %rcx
	addq	56(%rcx), %rax
	cmpq	-152(%rbp), %rax
	jle	.LBB16_24
# %bb.22:                               # %if.then44
                                        #   in Loop: Header=BB16_20 Depth=2
	movq	-56(%rbp), %rax
	movq	72(%rax), %rax
	movq	%rax, -72(%rbp)
.LBB16_23:                              # %while.cond.backedge
                                        #   in Loop: Header=BB16_20 Depth=2
	jmp	.LBB16_20
.LBB16_24:                              # %if.end46
                                        #   in Loop: Header=BB16_20 Depth=2
	movq	-88(%rbp), %rax
	movq	-56(%rbp), %rcx
	subq	(%rcx), %rax
	movq	-64(%rbp), %rcx
	addq	(%rcx), %rax
	movq	%rax, -80(%rbp)
	cmpq	$0, -80(%rbp)
	jge	.LBB16_31
# %bb.25:                               # %if.then53
                                        #   in Loop: Header=BB16_20 Depth=2
	movq	-40(%rbp), %rax
	movq	-16(%rbp), %rcx
	cmpq	448(%rcx), %rax
	jge	.LBB16_27
# %bb.26:                               # %if.then56
                                        #   in Loop: Header=BB16_20 Depth=2
	movq	-24(%rbp), %rdi
	movq	-40(%rbp), %rsi
	movq	-56(%rbp), %rdx
	movq	-64(%rbp), %rcx
	movq	-88(%rbp), %r8
	movq	-80(%rbp), %r9
	callq	insert_new_arc
	movq	-40(%rbp), %rax
	addq	$1, %rax
	movq	%rax, -40(%rbp)
	jmp	.LBB16_30
.LBB16_27:                              # %if.else
                                        #   in Loop: Header=BB16_20 Depth=2
	movq	-24(%rbp), %rax
	movq	48(%rax), %rax
	cmpq	-80(%rbp), %rax
	jle	.LBB16_29
# %bb.28:                               # %if.then61
                                        #   in Loop: Header=BB16_20 Depth=2
	movq	-16(%rbp), %rdi
	movq	-24(%rbp), %rsi
	movq	-56(%rbp), %rdx
	movq	-64(%rbp), %rcx
	movq	-88(%rbp), %r8
	movq	-80(%rbp), %r9
	callq	replace_weaker_arc
.LBB16_29:                              # %if.end62
                                        #   in Loop: Header=BB16_20 Depth=2
	jmp	.LBB16_30
.LBB16_30:                              # %if.end63
                                        #   in Loop: Header=BB16_20 Depth=2
	jmp	.LBB16_31
.LBB16_31:                              # %if.end64
                                        #   in Loop: Header=BB16_20 Depth=2
	movq	-56(%rbp), %rax
	movq	72(%rax), %rax
	movq	%rax, -72(%rbp)
	jmp	.LBB16_23
.LBB16_32:                              # %while.end
                                        #   in Loop: Header=BB16_14 Depth=1
	jmp	.LBB16_33
.LBB16_33:                              # %for.inc66
                                        #   in Loop: Header=BB16_14 Depth=1
	movq	-48(%rbp), %rax
	addq	$1, %rax
	movq	%rax, -48(%rbp)
	movq	-32(%rbp), %rax
	addq	$192, %rax
	movq	%rax, -32(%rbp)
	jmp	.LBB16_14
.LBB16_34:                              # %for.end69
	cmpq	$0, -40(%rbp)
	je	.LBB16_47
# %bb.35:                               # %if.then71
	movq	-16(%rbp), %rax
	movq	576(%rax), %rax
	movq	%rax, -24(%rbp)
	movq	-40(%rbp), %rax
	movq	-16(%rbp), %rcx
	shlq	$6, %rax
	addq	576(%rcx), %rax
	movq	%rax, 576(%rcx)
	movq	-16(%rbp), %rax
	movq	576(%rax), %rax
	movq	%rax, -120(%rbp)
	cmpq	$0, -112(%rbp)
	je	.LBB16_41
# %bb.36:                               # %if.then77
	jmp	.LBB16_37
.LBB16_37:                              # %for.cond78
                                        # =>This Inner Loop Header: Depth=1
	movq	-24(%rbp), %rax
	cmpq	-120(%rbp), %rax
	je	.LBB16_40
# %bb.38:                               # %for.body81
                                        #   in Loop: Header=BB16_37 Depth=1
	movq	-24(%rbp), %rax
	movq	$0, 48(%rax)
	movq	-24(%rbp), %rax
	movl	$1, 24(%rax)
# %bb.39:                               # %for.inc84
                                        #   in Loop: Header=BB16_37 Depth=1
	movq	-24(%rbp), %rax
	addq	$64, %rax
	movq	%rax, -24(%rbp)
	jmp	.LBB16_37
.LBB16_40:                              # %for.end85
	jmp	.LBB16_46
.LBB16_41:                              # %if.else86
	jmp	.LBB16_42
.LBB16_42:                              # %for.cond87
                                        # =>This Inner Loop Header: Depth=1
	movq	-24(%rbp), %rax
	cmpq	-120(%rbp), %rax
	je	.LBB16_45
# %bb.43:                               # %for.body90
                                        #   in Loop: Header=BB16_42 Depth=1
	movq	-24(%rbp), %rax
	movq	$0, 48(%rax)
	movq	-24(%rbp), %rax
	movl	$1, 24(%rax)
	movq	-24(%rbp), %rax
	movq	8(%rax), %rax
	movq	56(%rax), %rax
	movq	-24(%rbp), %rcx
	movq	%rax, 32(%rcx)
	movq	-24(%rbp), %rax
	movq	-24(%rbp), %rcx
	movq	8(%rcx), %rcx
	movq	%rax, 56(%rcx)
	movq	-24(%rbp), %rax
	movq	16(%rax), %rax
	movq	64(%rax), %rax
	movq	-24(%rbp), %rcx
	movq	%rax, 40(%rcx)
	movq	-24(%rbp), %rax
	movq	-24(%rbp), %rcx
	movq	16(%rcx), %rcx
	movq	%rax, 64(%rcx)
# %bb.44:                               # %for.inc100
                                        #   in Loop: Header=BB16_42 Depth=1
	movq	-24(%rbp), %rax
	addq	$64, %rax
	movq	%rax, -24(%rbp)
	jmp	.LBB16_42
.LBB16_45:                              # %for.end102
	jmp	.LBB16_46
.LBB16_46:                              # %if.end103
	movq	-40(%rbp), %rax
	movq	-16(%rbp), %rcx
	addq	424(%rcx), %rax
	movq	%rax, 424(%rcx)
	movq	-40(%rbp), %rax
	movq	-16(%rbp), %rcx
	addq	440(%rcx), %rax
	movq	%rax, 440(%rcx)
	movq	-40(%rbp), %rax
	movq	-16(%rbp), %rcx
	movq	448(%rcx), %rdx
	subq	%rax, %rdx
	movq	%rdx, 448(%rcx)
.LBB16_47:                              # %if.end109
	movq	-40(%rbp), %rax
	movq	%rax, -128(%rbp)
.LBB16_48:                              # %return
	movq	-128(%rbp), %rbx
	cmpl	$1490863992, -100(%rbp) # imm = 0x58DCC778
	jne	.LBB16_50
.LBB16_49:
	movq	%rbx, %rax
	addq	$168, %rsp
	popq	%rbx
	popq	%rbp
	.cfi_def_cfa %rsp, 8
	retq
.LBB16_50:                              # %func_exit
	.cfi_def_cfa %rbp, 16
	callq	detect_breach
	jmp	.LBB16_49
.Lfunc_end16:
	.size	price_out_impl.12, .Lfunc_end16-price_out_impl.12
	.cfi_endproc
                                        # -- End function
	.globl	replace_weaker_arc.13   # -- Begin function replace_weaker_arc.13
	.p2align	4, 0x90
	.type	replace_weaker_arc.13,@function
replace_weaker_arc.13:                  # @replace_weaker_arc.13
	.cfi_startproc
# %bb.0:                                # %entry
	pushq	%rbp
	.cfi_def_cfa_offset 16
	.cfi_offset %rbp, -16
	movq	%rsp, %rbp
	.cfi_def_cfa_register %rbp
	subq	$80, %rsp
	movl	$1605886306, -44(%rbp)  # imm = 0x5FB7E162
	movq	%rdi, -64(%rbp)
	movq	%rsi, -8(%rbp)
	movq	%rdx, -56(%rbp)
	movq	%rcx, -72(%rbp)
	movq	%r8, -32(%rbp)
	movq	%r9, -40(%rbp)
	movq	-56(%rbp), %rax
	movq	-8(%rbp), %rcx
	movq	%rax, 8(%rcx)
	movq	-72(%rbp), %rax
	movq	-8(%rbp), %rcx
	movq	%rax, 16(%rcx)
	movq	-32(%rbp), %rax
	movq	-8(%rbp), %rcx
	movq	%rax, 56(%rcx)
	movq	-32(%rbp), %rax
	movq	-8(%rbp), %rcx
	movq	%rax, (%rcx)
	movq	-40(%rbp), %rax
	movq	-8(%rbp), %rcx
	movq	%rax, 48(%rcx)
	movq	$1, -24(%rbp)
	movq	-8(%rbp), %rax
	movq	112(%rax), %rax
	movq	-8(%rbp), %rcx
	movq	176(%rcx), %rcx
	cmpq	%rcx, %rax
	movl	$2, %eax
	movl	$3, %ecx
	cmovgl	%eax, %ecx
	movslq	%ecx, %rax
	movq	%rax, -16(%rbp)
.LBB17_1:                               # %while.cond
                                        # =>This Inner Loop Header: Depth=1
	xorl	%eax, %eax
	movq	-16(%rbp), %rcx
	movq	-64(%rbp), %rdx
	cmpq	448(%rdx), %rcx
	jg	.LBB17_3
# %bb.2:                                # %land.rhs
                                        #   in Loop: Header=BB17_1 Depth=1
	movq	-40(%rbp), %rax
	movq	-8(%rbp), %rcx
	movq	-16(%rbp), %rdx
	subq	$1, %rdx
	shlq	$6, %rdx
	addq	%rdx, %rcx
	cmpq	48(%rcx), %rax
	setl	%al
.LBB17_3:                               # %land.end
                                        #   in Loop: Header=BB17_1 Depth=1
	testb	$1, %al
	jne	.LBB17_4
	jmp	.LBB17_9
.LBB17_4:                               # %while.body
                                        #   in Loop: Header=BB17_1 Depth=1
	movq	-8(%rbp), %rax
	movq	-16(%rbp), %rcx
	subq	$1, %rcx
	shlq	$6, %rcx
	addq	%rcx, %rax
	movq	8(%rax), %rax
	movq	-8(%rbp), %rcx
	movq	-24(%rbp), %rdx
	subq	$1, %rdx
	shlq	$6, %rdx
	addq	%rdx, %rcx
	movq	%rax, 8(%rcx)
	movq	-8(%rbp), %rax
	movq	-16(%rbp), %rcx
	subq	$1, %rcx
	shlq	$6, %rcx
	addq	%rcx, %rax
	movq	16(%rax), %rax
	movq	-8(%rbp), %rcx
	movq	-24(%rbp), %rdx
	subq	$1, %rdx
	shlq	$6, %rdx
	addq	%rdx, %rcx
	movq	%rax, 16(%rcx)
	movq	-8(%rbp), %rax
	movq	-16(%rbp), %rcx
	subq	$1, %rcx
	shlq	$6, %rcx
	addq	%rcx, %rax
	movq	(%rax), %rax
	movq	-8(%rbp), %rcx
	movq	-24(%rbp), %rdx
	subq	$1, %rdx
	shlq	$6, %rdx
	addq	%rdx, %rcx
	movq	%rax, (%rcx)
	movq	-8(%rbp), %rax
	movq	-16(%rbp), %rcx
	subq	$1, %rcx
	shlq	$6, %rcx
	addq	%rcx, %rax
	movq	(%rax), %rax
	movq	-8(%rbp), %rcx
	movq	-24(%rbp), %rdx
	subq	$1, %rdx
	shlq	$6, %rdx
	addq	%rdx, %rcx
	movq	%rax, 56(%rcx)
	movq	-8(%rbp), %rax
	movq	-16(%rbp), %rcx
	subq	$1, %rcx
	shlq	$6, %rcx
	addq	%rcx, %rax
	movq	48(%rax), %rax
	movq	-8(%rbp), %rcx
	movq	-24(%rbp), %rdx
	subq	$1, %rdx
	shlq	$6, %rdx
	addq	%rdx, %rcx
	movq	%rax, 48(%rcx)
	movq	-56(%rbp), %rax
	movq	-8(%rbp), %rcx
	movq	-16(%rbp), %rdx
	subq	$1, %rdx
	shlq	$6, %rdx
	addq	%rdx, %rcx
	movq	%rax, 8(%rcx)
	movq	-72(%rbp), %rax
	movq	-8(%rbp), %rcx
	movq	-16(%rbp), %rdx
	subq	$1, %rdx
	shlq	$6, %rdx
	addq	%rdx, %rcx
	movq	%rax, 16(%rcx)
	movq	-32(%rbp), %rax
	movq	-8(%rbp), %rcx
	movq	-16(%rbp), %rdx
	subq	$1, %rdx
	shlq	$6, %rdx
	addq	%rdx, %rcx
	movq	%rax, (%rcx)
	movq	-32(%rbp), %rax
	movq	-8(%rbp), %rcx
	movq	-16(%rbp), %rdx
	subq	$1, %rdx
	shlq	$6, %rdx
	addq	%rdx, %rcx
	movq	%rax, 56(%rcx)
	movq	-40(%rbp), %rax
	movq	-8(%rbp), %rcx
	movq	-16(%rbp), %rdx
	subq	$1, %rdx
	shlq	$6, %rdx
	addq	%rdx, %rcx
	movq	%rax, 48(%rcx)
	movq	-16(%rbp), %rax
	movq	%rax, -24(%rbp)
	movq	-16(%rbp), %rax
	shlq	$1, %rax
	movq	%rax, -16(%rbp)
	movq	-16(%rbp), %rax
	addq	$1, %rax
	movq	-64(%rbp), %rcx
	cmpq	448(%rcx), %rax
	jg	.LBB17_8
# %bb.5:                                # %if.then
                                        #   in Loop: Header=BB17_1 Depth=1
	movq	-8(%rbp), %rax
	movq	-16(%rbp), %rcx
	subq	$1, %rcx
	shlq	$6, %rcx
	addq	%rcx, %rax
	movq	48(%rax), %rax
	movq	-8(%rbp), %rcx
	movq	-16(%rbp), %rdx
	shlq	$6, %rdx
	addq	%rdx, %rcx
	cmpq	48(%rcx), %rax
	jge	.LBB17_7
# %bb.6:                                # %if.then74
                                        #   in Loop: Header=BB17_1 Depth=1
	movq	-16(%rbp), %rax
	addq	$1, %rax
	movq	%rax, -16(%rbp)
.LBB17_7:                               # %if.end
                                        #   in Loop: Header=BB17_1 Depth=1
	jmp	.LBB17_8
.LBB17_8:                               # %if.end75
                                        #   in Loop: Header=BB17_1 Depth=1
	jmp	.LBB17_1
.LBB17_9:                               # %while.end
	cmpl	$1605886306, -44(%rbp)  # imm = 0x5FB7E162
	jne	.LBB17_11
.LBB17_10:
	addq	$80, %rsp
	popq	%rbp
	.cfi_def_cfa %rsp, 8
	retq
.LBB17_11:                              # %func_exit
	.cfi_def_cfa %rbp, 16
	callq	detect_breach
	jmp	.LBB17_10
.Lfunc_end17:
	.size	replace_weaker_arc.13, .Lfunc_end17-replace_weaker_arc.13
	.cfi_endproc
                                        # -- End function
	.globl	price_out_impl.14       # -- Begin function price_out_impl.14
	.p2align	4, 0x90
	.type	price_out_impl.14,@function
price_out_impl.14:                      # @price_out_impl.14
	.cfi_startproc
# %bb.0:                                # %entry
	pushq	%rbp
	.cfi_def_cfa_offset 16
	.cfi_offset %rbp, -16
	movq	%rsp, %rbp
	.cfi_def_cfa_register %rbp
	pushq	%rbx
	subq	$168, %rsp
	.cfi_offset %rbx, -24
	movl	$1865840458, -100(%rbp) # imm = 0x6F36774A
	movq	%rdi, -24(%rbp)
	movq	$0, -40(%rbp)
	movq	$0, -128(%rbp)
	movq	$15, -160(%rbp)
	movq	-24(%rbp), %rax
	movq	528(%rax), %rax
	movq	%rax, -168(%rbp)
	movq	$30, -88(%rbp)
	movq	-168(%rbp), %rax
	subq	-160(%rbp), %rax
	movq	%rax, -144(%rbp)
	movq	-24(%rbp), %rax
	cmpq	$15000, 408(%rax)       # imm = 0x3A98
	jg	.LBB18_7
# %bb.1:                                # %if.then
	movq	-24(%rbp), %rax
	movq	424(%rax), %rax
	movq	-24(%rbp), %rcx
	addq	456(%rcx), %rax
	movq	-24(%rbp), %rcx
	cmpq	416(%rcx), %rax
	jle	.LBB18_6
# %bb.2:                                # %land.lhs.true
	movq	-24(%rbp), %rax
	movq	408(%rax), %rax
	movq	-24(%rbp), %rcx
	imulq	408(%rcx), %rax
	cqto
	movl	$2, %ecx
	idivq	%rcx
	movq	-24(%rbp), %rcx
	addq	424(%rcx), %rax
	movq	-24(%rbp), %rcx
	cmpq	416(%rcx), %rax
	jle	.LBB18_6
# %bb.3:                                # %if.then9
	movq	$1, -128(%rbp)
	movq	-24(%rbp), %rdi
	callq	resize_prob
	cmpq	$0, %rax
	je	.LBB18_5
# %bb.4:                                # %if.then10
	movq	$-1, -120(%rbp)
	jmp	.LBB18_48
.LBB18_5:                               # %if.end
	movq	-24(%rbp), %rdi
	callq	refresh_neighbour_lists
.LBB18_6:                               # %if.end11
	jmp	.LBB18_7
.LBB18_7:                               # %if.end12
	movq	-24(%rbp), %rax
	movq	576(%rax), %rax
	movq	%rax, -16(%rbp)
	movq	-24(%rbp), %rax
	movq	408(%rax), %rax
	movq	%rax, -112(%rbp)
	movq	-24(%rbp), %rax
	movq	568(%rax), %rax
	movq	%rax, -32(%rbp)
	movq	$0, -56(%rbp)
.LBB18_8:                               # %for.cond
                                        # =>This Inner Loop Header: Depth=1
	xorl	%eax, %eax
	movq	-56(%rbp), %rcx
	cmpq	-112(%rbp), %rcx
	jge	.LBB18_10
# %bb.9:                                # %land.rhs
                                        #   in Loop: Header=BB18_8 Depth=1
	movq	-32(%rbp), %rax
	cmpl	$-1, 88(%rax)
	sete	%al
.LBB18_10:                              # %land.end
                                        #   in Loop: Header=BB18_8 Depth=1
	testb	$1, %al
	jne	.LBB18_11
	jmp	.LBB18_13
.LBB18_11:                              # %for.body
                                        #   in Loop: Header=BB18_8 Depth=1
	jmp	.LBB18_12
.LBB18_12:                              # %for.inc
                                        #   in Loop: Header=BB18_8 Depth=1
	movq	-56(%rbp), %rax
	addq	$1, %rax
	movq	%rax, -56(%rbp)
	movq	-32(%rbp), %rax
	addq	$192, %rax
	movq	%rax, -32(%rbp)
	jmp	.LBB18_8
.LBB18_13:                              # %for.end
	movq	$0, -96(%rbp)
.LBB18_14:                              # %for.cond16
                                        # =>This Loop Header: Depth=1
                                        #     Child Loop BB18_20 Depth 2
	movq	-56(%rbp), %rax
	cmpq	-112(%rbp), %rax
	jge	.LBB18_34
# %bb.15:                               # %for.body18
                                        #   in Loop: Header=BB18_14 Depth=1
	movq	-32(%rbp), %rax
	cmpl	$-1, 88(%rax)
	je	.LBB18_17
# %bb.16:                               # %if.then22
                                        #   in Loop: Header=BB18_14 Depth=1
	movq	-96(%rbp), %rax
	movq	-32(%rbp), %rcx
	movq	16(%rcx), %rcx
	movq	56(%rcx), %rcx
	movq	16(%rcx), %rcx
	movq	%rax, 72(%rcx)
	movq	-32(%rbp), %rax
	addq	$64, %rax
	movq	%rax, -96(%rbp)
.LBB18_17:                              # %if.end26
                                        #   in Loop: Header=BB18_14 Depth=1
	movq	-32(%rbp), %rax
	cmpl	$-1, 24(%rax)
	jne	.LBB18_19
# %bb.18:                               # %if.then29
                                        #   in Loop: Header=BB18_14 Depth=1
	jmp	.LBB18_33
.LBB18_19:                              # %if.end30
                                        #   in Loop: Header=BB18_14 Depth=1
	movq	-32(%rbp), %rax
	movq	16(%rax), %rax
	movq	%rax, -72(%rbp)
	movq	-72(%rbp), %rax
	movslq	100(%rax), %rax
	movq	-32(%rbp), %rcx
	subq	56(%rcx), %rax
	addq	-144(%rbp), %rax
	movq	%rax, -152(%rbp)
	movq	-72(%rbp), %rax
	movq	(%rax), %rax
	movq	%rax, -176(%rbp)
	movq	-96(%rbp), %rax
	movq	8(%rax), %rax
	movq	72(%rax), %rax
	movq	%rax, -64(%rbp)
.LBB18_20:                              # %while.cond
                                        #   Parent Loop BB18_14 Depth=1
                                        # =>  This Inner Loop Header: Depth=2
	cmpq	$0, -64(%rbp)
	je	.LBB18_32
# %bb.21:                               # %while.body
                                        #   in Loop: Header=BB18_20 Depth=2
	movq	-64(%rbp), %rax
	movq	8(%rax), %rax
	movq	%rax, -48(%rbp)
	movq	-48(%rbp), %rax
	movslq	100(%rax), %rax
	movq	-64(%rbp), %rcx
	addq	56(%rcx), %rax
	cmpq	-152(%rbp), %rax
	jle	.LBB18_24
# %bb.22:                               # %if.then44
                                        #   in Loop: Header=BB18_20 Depth=2
	movq	-48(%rbp), %rax
	movq	72(%rax), %rax
	movq	%rax, -64(%rbp)
.LBB18_23:                              # %while.cond.backedge
                                        #   in Loop: Header=BB18_20 Depth=2
	jmp	.LBB18_20
.LBB18_24:                              # %if.end46
                                        #   in Loop: Header=BB18_20 Depth=2
	movq	-88(%rbp), %rax
	movq	-48(%rbp), %rcx
	subq	(%rcx), %rax
	movq	-72(%rbp), %rcx
	addq	(%rcx), %rax
	movq	%rax, -80(%rbp)
	cmpq	$0, -80(%rbp)
	jge	.LBB18_31
# %bb.25:                               # %if.then53
                                        #   in Loop: Header=BB18_20 Depth=2
	movq	-40(%rbp), %rax
	movq	-24(%rbp), %rcx
	cmpq	448(%rcx), %rax
	jge	.LBB18_27
# %bb.26:                               # %if.then56
                                        #   in Loop: Header=BB18_20 Depth=2
	movq	-16(%rbp), %rdi
	movq	-40(%rbp), %rsi
	movq	-48(%rbp), %rdx
	movq	-72(%rbp), %rcx
	movq	-88(%rbp), %r8
	movq	-80(%rbp), %r9
	callq	insert_new_arc
	movq	-40(%rbp), %rax
	addq	$1, %rax
	movq	%rax, -40(%rbp)
	jmp	.LBB18_30
.LBB18_27:                              # %if.else
                                        #   in Loop: Header=BB18_20 Depth=2
	movq	-16(%rbp), %rax
	movq	48(%rax), %rax
	cmpq	-80(%rbp), %rax
	jle	.LBB18_29
# %bb.28:                               # %if.then61
                                        #   in Loop: Header=BB18_20 Depth=2
	movq	-24(%rbp), %rdi
	movq	-16(%rbp), %rsi
	movq	-48(%rbp), %rdx
	movq	-72(%rbp), %rcx
	movq	-88(%rbp), %r8
	movq	-80(%rbp), %r9
	callq	replace_weaker_arc
.LBB18_29:                              # %if.end62
                                        #   in Loop: Header=BB18_20 Depth=2
	jmp	.LBB18_30
.LBB18_30:                              # %if.end63
                                        #   in Loop: Header=BB18_20 Depth=2
	jmp	.LBB18_31
.LBB18_31:                              # %if.end64
                                        #   in Loop: Header=BB18_20 Depth=2
	movq	-48(%rbp), %rax
	movq	72(%rax), %rax
	movq	%rax, -64(%rbp)
	jmp	.LBB18_23
.LBB18_32:                              # %while.end
                                        #   in Loop: Header=BB18_14 Depth=1
	jmp	.LBB18_33
.LBB18_33:                              # %for.inc66
                                        #   in Loop: Header=BB18_14 Depth=1
	movq	-56(%rbp), %rax
	addq	$1, %rax
	movq	%rax, -56(%rbp)
	movq	-32(%rbp), %rax
	addq	$192, %rax
	movq	%rax, -32(%rbp)
	jmp	.LBB18_14
.LBB18_34:                              # %for.end69
	cmpq	$0, -40(%rbp)
	je	.LBB18_47
# %bb.35:                               # %if.then71
	movq	-24(%rbp), %rax
	movq	576(%rax), %rax
	movq	%rax, -16(%rbp)
	movq	-40(%rbp), %rax
	movq	-24(%rbp), %rcx
	shlq	$6, %rax
	addq	576(%rcx), %rax
	movq	%rax, 576(%rcx)
	movq	-24(%rbp), %rax
	movq	576(%rax), %rax
	movq	%rax, -136(%rbp)
	cmpq	$0, -128(%rbp)
	je	.LBB18_41
# %bb.36:                               # %if.then77
	jmp	.LBB18_37
.LBB18_37:                              # %for.cond78
                                        # =>This Inner Loop Header: Depth=1
	movq	-16(%rbp), %rax
	cmpq	-136(%rbp), %rax
	je	.LBB18_40
# %bb.38:                               # %for.body81
                                        #   in Loop: Header=BB18_37 Depth=1
	movq	-16(%rbp), %rax
	movq	$0, 48(%rax)
	movq	-16(%rbp), %rax
	movl	$1, 24(%rax)
# %bb.39:                               # %for.inc84
                                        #   in Loop: Header=BB18_37 Depth=1
	movq	-16(%rbp), %rax
	addq	$64, %rax
	movq	%rax, -16(%rbp)
	jmp	.LBB18_37
.LBB18_40:                              # %for.end85
	jmp	.LBB18_46
.LBB18_41:                              # %if.else86
	jmp	.LBB18_42
.LBB18_42:                              # %for.cond87
                                        # =>This Inner Loop Header: Depth=1
	movq	-16(%rbp), %rax
	cmpq	-136(%rbp), %rax
	je	.LBB18_45
# %bb.43:                               # %for.body90
                                        #   in Loop: Header=BB18_42 Depth=1
	movq	-16(%rbp), %rax
	movq	$0, 48(%rax)
	movq	-16(%rbp), %rax
	movl	$1, 24(%rax)
	movq	-16(%rbp), %rax
	movq	8(%rax), %rax
	movq	56(%rax), %rax
	movq	-16(%rbp), %rcx
	movq	%rax, 32(%rcx)
	movq	-16(%rbp), %rax
	movq	-16(%rbp), %rcx
	movq	8(%rcx), %rcx
	movq	%rax, 56(%rcx)
	movq	-16(%rbp), %rax
	movq	16(%rax), %rax
	movq	64(%rax), %rax
	movq	-16(%rbp), %rcx
	movq	%rax, 40(%rcx)
	movq	-16(%rbp), %rax
	movq	-16(%rbp), %rcx
	movq	16(%rcx), %rcx
	movq	%rax, 64(%rcx)
# %bb.44:                               # %for.inc100
                                        #   in Loop: Header=BB18_42 Depth=1
	movq	-16(%rbp), %rax
	addq	$64, %rax
	movq	%rax, -16(%rbp)
	jmp	.LBB18_42
.LBB18_45:                              # %for.end102
	jmp	.LBB18_46
.LBB18_46:                              # %if.end103
	movq	-40(%rbp), %rax
	movq	-24(%rbp), %rcx
	addq	424(%rcx), %rax
	movq	%rax, 424(%rcx)
	movq	-40(%rbp), %rax
	movq	-24(%rbp), %rcx
	addq	440(%rcx), %rax
	movq	%rax, 440(%rcx)
	movq	-40(%rbp), %rax
	movq	-24(%rbp), %rcx
	movq	448(%rcx), %rdx
	subq	%rax, %rdx
	movq	%rdx, 448(%rcx)
.LBB18_47:                              # %if.end109
	movq	-40(%rbp), %rax
	movq	%rax, -120(%rbp)
.LBB18_48:                              # %return
	movq	-120(%rbp), %rbx
	cmpl	$1865840458, -100(%rbp) # imm = 0x6F36774A
	jne	.LBB18_50
.LBB18_49:
	movq	%rbx, %rax
	addq	$168, %rsp
	popq	%rbx
	popq	%rbp
	.cfi_def_cfa %rsp, 8
	retq
.LBB18_50:                              # %func_exit
	.cfi_def_cfa %rbp, 16
	callq	detect_breach
	jmp	.LBB18_49
.Lfunc_end18:
	.size	price_out_impl.14, .Lfunc_end18-price_out_impl.14
	.cfi_endproc
                                        # -- End function
	.globl	suspend_impl.15         # -- Begin function suspend_impl.15
	.p2align	4, 0x90
	.type	suspend_impl.15,@function
suspend_impl.15:                        # @suspend_impl.15
	.cfi_startproc
# %bb.0:                                # %entry
	pushq	%rbp
	.cfi_def_cfa_offset 16
	.cfi_offset %rbp, -16
	movq	%rsp, %rbp
	.cfi_def_cfa_register %rbp
	pushq	%rbx
	subq	$72, %rsp
	.cfi_offset %rbx, -24
	movl	$2047605355, -44(%rbp)  # imm = 0x7A0BFA6B
	movq	%rdi, -24(%rbp)
	movq	%rsi, -72(%rbp)
	movq	%rdx, -64(%rbp)
	cmpq	$0, -64(%rbp)
	je	.LBB19_2
# %bb.1:                                # %if.then
	movq	-24(%rbp), %rax
	movq	440(%rax), %rax
	movq	%rax, -32(%rbp)
	jmp	.LBB19_18
.LBB19_2:                               # %if.else
	movq	-24(%rbp), %rax
	movq	576(%rax), %rax
	movq	%rax, -80(%rbp)
	movq	-24(%rbp), %rax
	movq	568(%rax), %rax
	movq	-24(%rbp), %rcx
	movq	424(%rcx), %rcx
	movq	-24(%rbp), %rdx
	subq	440(%rdx), %rcx
	shlq	$6, %rcx
	addq	%rcx, %rax
	movq	%rax, -40(%rbp)
	movq	$0, -32(%rbp)
	movq	-40(%rbp), %rax
	movq	%rax, -16(%rbp)
.LBB19_3:                               # %for.cond
                                        # =>This Inner Loop Header: Depth=1
	movq	-16(%rbp), %rax
	movq	-80(%rbp), %rcx
	cmpq	%rcx, %rax
	jae	.LBB19_17
# %bb.4:                                # %for.body
                                        #   in Loop: Header=BB19_3 Depth=1
	movq	-16(%rbp), %rax
	cmpl	$1, 24(%rax)
	jne	.LBB19_6
# %bb.5:                                # %if.then3
                                        #   in Loop: Header=BB19_3 Depth=1
	movq	-16(%rbp), %rax
	movq	(%rax), %rax
	movq	-16(%rbp), %rcx
	movq	8(%rcx), %rcx
	subq	(%rcx), %rax
	movq	-16(%rbp), %rcx
	movq	16(%rcx), %rcx
	addq	(%rcx), %rax
	movq	%rax, -56(%rbp)
	jmp	.LBB19_12
.LBB19_6:                               # %if.else6
                                        #   in Loop: Header=BB19_3 Depth=1
	movq	$-2, -56(%rbp)
	movq	-16(%rbp), %rax
	cmpl	$0, 24(%rax)
	jne	.LBB19_11
# %bb.7:                                # %if.then9
                                        #   in Loop: Header=BB19_3 Depth=1
	movq	-16(%rbp), %rax
	movq	8(%rax), %rax
	movq	48(%rax), %rax
	cmpq	-16(%rbp), %rax
	jne	.LBB19_9
# %bb.8:                                # %if.then12
                                        #   in Loop: Header=BB19_3 Depth=1
	movq	-40(%rbp), %rax
	movq	-16(%rbp), %rcx
	movq	8(%rcx), %rcx
	movq	%rax, 48(%rcx)
	jmp	.LBB19_10
.LBB19_9:                               # %if.else15
                                        #   in Loop: Header=BB19_3 Depth=1
	movq	-40(%rbp), %rax
	movq	-16(%rbp), %rcx
	movq	16(%rcx), %rcx
	movq	%rax, 48(%rcx)
.LBB19_10:                              # %if.end
                                        #   in Loop: Header=BB19_3 Depth=1
	jmp	.LBB19_11
.LBB19_11:                              # %if.end18
                                        #   in Loop: Header=BB19_3 Depth=1
	jmp	.LBB19_12
.LBB19_12:                              # %if.end19
                                        #   in Loop: Header=BB19_3 Depth=1
	movq	-56(%rbp), %rax
	cmpq	-72(%rbp), %rax
	jle	.LBB19_14
# %bb.13:                               # %if.then21
                                        #   in Loop: Header=BB19_3 Depth=1
	movq	-32(%rbp), %rax
	addq	$1, %rax
	movq	%rax, -32(%rbp)
	jmp	.LBB19_15
.LBB19_14:                              # %if.else22
                                        #   in Loop: Header=BB19_3 Depth=1
	movq	-40(%rbp), %rdi
	movq	-16(%rbp), %rsi
	movl	$64, %edx
	callq	memcpy
	movq	-40(%rbp), %rax
	addq	$64, %rax
	movq	%rax, -40(%rbp)
.LBB19_15:                              # %if.end23
                                        #   in Loop: Header=BB19_3 Depth=1
	jmp	.LBB19_16
.LBB19_16:                              # %for.inc
                                        #   in Loop: Header=BB19_3 Depth=1
	movq	-16(%rbp), %rax
	addq	$64, %rax
	movq	%rax, -16(%rbp)
	jmp	.LBB19_3
.LBB19_17:                              # %for.end
	jmp	.LBB19_18
.LBB19_18:                              # %if.end25
	cmpq	$0, -32(%rbp)
	je	.LBB19_20
# %bb.19:                               # %if.then27
	xorl	%eax, %eax
	movq	-32(%rbp), %rcx
	movq	-24(%rbp), %rdx
	movq	424(%rdx), %rsi
	subq	%rcx, %rsi
	movq	%rsi, 424(%rdx)
	movq	-32(%rbp), %rcx
	movq	-24(%rbp), %rdx
	movq	440(%rdx), %rsi
	subq	%rcx, %rsi
	movq	%rsi, 440(%rdx)
	movq	-32(%rbp), %rcx
	movq	-24(%rbp), %rdx
	movq	576(%rdx), %rsi
	subq	%rcx, %rax
	shlq	$6, %rax
	addq	%rax, %rsi
	movq	%rsi, 576(%rdx)
	movq	-32(%rbp), %rax
	movq	-24(%rbp), %rcx
	addq	448(%rcx), %rax
	movq	%rax, 448(%rcx)
	movq	-24(%rbp), %rdi
	callq	refresh_neighbour_lists
.LBB19_20:                              # %if.end34
	movq	-32(%rbp), %rbx
	cmpl	$2047605355, -44(%rbp)  # imm = 0x7A0BFA6B
	jne	.LBB19_22
.LBB19_21:
	movq	%rbx, %rax
	addq	$72, %rsp
	popq	%rbx
	popq	%rbp
	.cfi_def_cfa %rsp, 8
	retq
.LBB19_22:                              # %func_exit
	.cfi_def_cfa %rbp, 16
	callq	detect_breach
	jmp	.LBB19_21
.Lfunc_end19:
	.size	suspend_impl.15, .Lfunc_end19-suspend_impl.15
	.cfi_endproc
                                        # -- End function
	.globl	replace_weaker_arc.16   # -- Begin function replace_weaker_arc.16
	.p2align	4, 0x90
	.type	replace_weaker_arc.16,@function
replace_weaker_arc.16:                  # @replace_weaker_arc.16
	.cfi_startproc
# %bb.0:                                # %entry
	pushq	%rbp
	.cfi_def_cfa_offset 16
	.cfi_offset %rbp, -16
	movq	%rsp, %rbp
	.cfi_def_cfa_register %rbp
	subq	$80, %rsp
	movl	$1887087871, -44(%rbp)  # imm = 0x707AACFF
	movq	%rdi, -56(%rbp)
	movq	%rsi, -8(%rbp)
	movq	%rdx, -72(%rbp)
	movq	%rcx, -64(%rbp)
	movq	%r8, -32(%rbp)
	movq	%r9, -40(%rbp)
	movq	-72(%rbp), %rax
	movq	-8(%rbp), %rcx
	movq	%rax, 8(%rcx)
	movq	-64(%rbp), %rax
	movq	-8(%rbp), %rcx
	movq	%rax, 16(%rcx)
	movq	-32(%rbp), %rax
	movq	-8(%rbp), %rcx
	movq	%rax, 56(%rcx)
	movq	-32(%rbp), %rax
	movq	-8(%rbp), %rcx
	movq	%rax, (%rcx)
	movq	-40(%rbp), %rax
	movq	-8(%rbp), %rcx
	movq	%rax, 48(%rcx)
	movq	$1, -24(%rbp)
	movq	-8(%rbp), %rax
	movq	112(%rax), %rax
	movq	-8(%rbp), %rcx
	movq	176(%rcx), %rcx
	cmpq	%rcx, %rax
	movl	$2, %eax
	movl	$3, %ecx
	cmovgl	%eax, %ecx
	movslq	%ecx, %rax
	movq	%rax, -16(%rbp)
.LBB20_1:                               # %while.cond
                                        # =>This Inner Loop Header: Depth=1
	xorl	%eax, %eax
	movq	-16(%rbp), %rcx
	movq	-56(%rbp), %rdx
	cmpq	448(%rdx), %rcx
	jg	.LBB20_3
# %bb.2:                                # %land.rhs
                                        #   in Loop: Header=BB20_1 Depth=1
	movq	-40(%rbp), %rax
	movq	-8(%rbp), %rcx
	movq	-16(%rbp), %rdx
	subq	$1, %rdx
	shlq	$6, %rdx
	addq	%rdx, %rcx
	cmpq	48(%rcx), %rax
	setl	%al
.LBB20_3:                               # %land.end
                                        #   in Loop: Header=BB20_1 Depth=1
	testb	$1, %al
	jne	.LBB20_4
	jmp	.LBB20_9
.LBB20_4:                               # %while.body
                                        #   in Loop: Header=BB20_1 Depth=1
	movq	-8(%rbp), %rax
	movq	-16(%rbp), %rcx
	subq	$1, %rcx
	shlq	$6, %rcx
	addq	%rcx, %rax
	movq	8(%rax), %rax
	movq	-8(%rbp), %rcx
	movq	-24(%rbp), %rdx
	subq	$1, %rdx
	shlq	$6, %rdx
	addq	%rdx, %rcx
	movq	%rax, 8(%rcx)
	movq	-8(%rbp), %rax
	movq	-16(%rbp), %rcx
	subq	$1, %rcx
	shlq	$6, %rcx
	addq	%rcx, %rax
	movq	16(%rax), %rax
	movq	-8(%rbp), %rcx
	movq	-24(%rbp), %rdx
	subq	$1, %rdx
	shlq	$6, %rdx
	addq	%rdx, %rcx
	movq	%rax, 16(%rcx)
	movq	-8(%rbp), %rax
	movq	-16(%rbp), %rcx
	subq	$1, %rcx
	shlq	$6, %rcx
	addq	%rcx, %rax
	movq	(%rax), %rax
	movq	-8(%rbp), %rcx
	movq	-24(%rbp), %rdx
	subq	$1, %rdx
	shlq	$6, %rdx
	addq	%rdx, %rcx
	movq	%rax, (%rcx)
	movq	-8(%rbp), %rax
	movq	-16(%rbp), %rcx
	subq	$1, %rcx
	shlq	$6, %rcx
	addq	%rcx, %rax
	movq	(%rax), %rax
	movq	-8(%rbp), %rcx
	movq	-24(%rbp), %rdx
	subq	$1, %rdx
	shlq	$6, %rdx
	addq	%rdx, %rcx
	movq	%rax, 56(%rcx)
	movq	-8(%rbp), %rax
	movq	-16(%rbp), %rcx
	subq	$1, %rcx
	shlq	$6, %rcx
	addq	%rcx, %rax
	movq	48(%rax), %rax
	movq	-8(%rbp), %rcx
	movq	-24(%rbp), %rdx
	subq	$1, %rdx
	shlq	$6, %rdx
	addq	%rdx, %rcx
	movq	%rax, 48(%rcx)
	movq	-72(%rbp), %rax
	movq	-8(%rbp), %rcx
	movq	-16(%rbp), %rdx
	subq	$1, %rdx
	shlq	$6, %rdx
	addq	%rdx, %rcx
	movq	%rax, 8(%rcx)
	movq	-64(%rbp), %rax
	movq	-8(%rbp), %rcx
	movq	-16(%rbp), %rdx
	subq	$1, %rdx
	shlq	$6, %rdx
	addq	%rdx, %rcx
	movq	%rax, 16(%rcx)
	movq	-32(%rbp), %rax
	movq	-8(%rbp), %rcx
	movq	-16(%rbp), %rdx
	subq	$1, %rdx
	shlq	$6, %rdx
	addq	%rdx, %rcx
	movq	%rax, (%rcx)
	movq	-32(%rbp), %rax
	movq	-8(%rbp), %rcx
	movq	-16(%rbp), %rdx
	subq	$1, %rdx
	shlq	$6, %rdx
	addq	%rdx, %rcx
	movq	%rax, 56(%rcx)
	movq	-40(%rbp), %rax
	movq	-8(%rbp), %rcx
	movq	-16(%rbp), %rdx
	subq	$1, %rdx
	shlq	$6, %rdx
	addq	%rdx, %rcx
	movq	%rax, 48(%rcx)
	movq	-16(%rbp), %rax
	movq	%rax, -24(%rbp)
	movq	-16(%rbp), %rax
	shlq	$1, %rax
	movq	%rax, -16(%rbp)
	movq	-16(%rbp), %rax
	addq	$1, %rax
	movq	-56(%rbp), %rcx
	cmpq	448(%rcx), %rax
	jg	.LBB20_8
# %bb.5:                                # %if.then
                                        #   in Loop: Header=BB20_1 Depth=1
	movq	-8(%rbp), %rax
	movq	-16(%rbp), %rcx
	subq	$1, %rcx
	shlq	$6, %rcx
	addq	%rcx, %rax
	movq	48(%rax), %rax
	movq	-8(%rbp), %rcx
	movq	-16(%rbp), %rdx
	shlq	$6, %rdx
	addq	%rdx, %rcx
	cmpq	48(%rcx), %rax
	jge	.LBB20_7
# %bb.6:                                # %if.then74
                                        #   in Loop: Header=BB20_1 Depth=1
	movq	-16(%rbp), %rax
	addq	$1, %rax
	movq	%rax, -16(%rbp)
.LBB20_7:                               # %if.end
                                        #   in Loop: Header=BB20_1 Depth=1
	jmp	.LBB20_8
.LBB20_8:                               # %if.end75
                                        #   in Loop: Header=BB20_1 Depth=1
	jmp	.LBB20_1
.LBB20_9:                               # %while.end
	cmpl	$1887087871, -44(%rbp)  # imm = 0x707AACFF
	jne	.LBB20_11
.LBB20_10:
	addq	$80, %rsp
	popq	%rbp
	.cfi_def_cfa %rsp, 8
	retq
.LBB20_11:                              # %func_exit
	.cfi_def_cfa %rbp, 16
	callq	detect_breach
	jmp	.LBB20_10
.Lfunc_end20:
	.size	replace_weaker_arc.16, .Lfunc_end20-replace_weaker_arc.16
	.cfi_endproc
                                        # -- End function
	.globl	suspend_impl.17         # -- Begin function suspend_impl.17
	.p2align	4, 0x90
	.type	suspend_impl.17,@function
suspend_impl.17:                        # @suspend_impl.17
	.cfi_startproc
# %bb.0:                                # %entry
	pushq	%rbp
	.cfi_def_cfa_offset 16
	.cfi_offset %rbp, -16
	movq	%rsp, %rbp
	.cfi_def_cfa_register %rbp
	pushq	%rbx
	subq	$72, %rsp
	.cfi_offset %rbx, -24
	movl	$901529035, -44(%rbp)   # imm = 0x35BC3DCB
	movq	%rdi, -24(%rbp)
	movq	%rsi, -80(%rbp)
	movq	%rdx, -64(%rbp)
	cmpq	$0, -64(%rbp)
	je	.LBB21_2
# %bb.1:                                # %if.then
	movq	-24(%rbp), %rax
	movq	440(%rax), %rax
	movq	%rax, -32(%rbp)
	jmp	.LBB21_18
.LBB21_2:                               # %if.else
	movq	-24(%rbp), %rax
	movq	576(%rax), %rax
	movq	%rax, -72(%rbp)
	movq	-24(%rbp), %rax
	movq	568(%rax), %rax
	movq	-24(%rbp), %rcx
	movq	424(%rcx), %rcx
	movq	-24(%rbp), %rdx
	subq	440(%rdx), %rcx
	shlq	$6, %rcx
	addq	%rcx, %rax
	movq	%rax, -40(%rbp)
	movq	$0, -32(%rbp)
	movq	-40(%rbp), %rax
	movq	%rax, -16(%rbp)
.LBB21_3:                               # %for.cond
                                        # =>This Inner Loop Header: Depth=1
	movq	-16(%rbp), %rax
	movq	-72(%rbp), %rcx
	cmpq	%rcx, %rax
	jae	.LBB21_17
# %bb.4:                                # %for.body
                                        #   in Loop: Header=BB21_3 Depth=1
	movq	-16(%rbp), %rax
	cmpl	$1, 24(%rax)
	jne	.LBB21_6
# %bb.5:                                # %if.then3
                                        #   in Loop: Header=BB21_3 Depth=1
	movq	-16(%rbp), %rax
	movq	(%rax), %rax
	movq	-16(%rbp), %rcx
	movq	8(%rcx), %rcx
	subq	(%rcx), %rax
	movq	-16(%rbp), %rcx
	movq	16(%rcx), %rcx
	addq	(%rcx), %rax
	movq	%rax, -56(%rbp)
	jmp	.LBB21_12
.LBB21_6:                               # %if.else6
                                        #   in Loop: Header=BB21_3 Depth=1
	movq	$-2, -56(%rbp)
	movq	-16(%rbp), %rax
	cmpl	$0, 24(%rax)
	jne	.LBB21_11
# %bb.7:                                # %if.then9
                                        #   in Loop: Header=BB21_3 Depth=1
	movq	-16(%rbp), %rax
	movq	8(%rax), %rax
	movq	48(%rax), %rax
	cmpq	-16(%rbp), %rax
	jne	.LBB21_9
# %bb.8:                                # %if.then12
                                        #   in Loop: Header=BB21_3 Depth=1
	movq	-40(%rbp), %rax
	movq	-16(%rbp), %rcx
	movq	8(%rcx), %rcx
	movq	%rax, 48(%rcx)
	jmp	.LBB21_10
.LBB21_9:                               # %if.else15
                                        #   in Loop: Header=BB21_3 Depth=1
	movq	-40(%rbp), %rax
	movq	-16(%rbp), %rcx
	movq	16(%rcx), %rcx
	movq	%rax, 48(%rcx)
.LBB21_10:                              # %if.end
                                        #   in Loop: Header=BB21_3 Depth=1
	jmp	.LBB21_11
.LBB21_11:                              # %if.end18
                                        #   in Loop: Header=BB21_3 Depth=1
	jmp	.LBB21_12
.LBB21_12:                              # %if.end19
                                        #   in Loop: Header=BB21_3 Depth=1
	movq	-56(%rbp), %rax
	cmpq	-80(%rbp), %rax
	jle	.LBB21_14
# %bb.13:                               # %if.then21
                                        #   in Loop: Header=BB21_3 Depth=1
	movq	-32(%rbp), %rax
	addq	$1, %rax
	movq	%rax, -32(%rbp)
	jmp	.LBB21_15
.LBB21_14:                              # %if.else22
                                        #   in Loop: Header=BB21_3 Depth=1
	movq	-40(%rbp), %rdi
	movq	-16(%rbp), %rsi
	movl	$64, %edx
	callq	memcpy
	movq	-40(%rbp), %rax
	addq	$64, %rax
	movq	%rax, -40(%rbp)
.LBB21_15:                              # %if.end23
                                        #   in Loop: Header=BB21_3 Depth=1
	jmp	.LBB21_16
.LBB21_16:                              # %for.inc
                                        #   in Loop: Header=BB21_3 Depth=1
	movq	-16(%rbp), %rax
	addq	$64, %rax
	movq	%rax, -16(%rbp)
	jmp	.LBB21_3
.LBB21_17:                              # %for.end
	jmp	.LBB21_18
.LBB21_18:                              # %if.end25
	cmpq	$0, -32(%rbp)
	je	.LBB21_20
# %bb.19:                               # %if.then27
	xorl	%eax, %eax
	movq	-32(%rbp), %rcx
	movq	-24(%rbp), %rdx
	movq	424(%rdx), %rsi
	subq	%rcx, %rsi
	movq	%rsi, 424(%rdx)
	movq	-32(%rbp), %rcx
	movq	-24(%rbp), %rdx
	movq	440(%rdx), %rsi
	subq	%rcx, %rsi
	movq	%rsi, 440(%rdx)
	movq	-32(%rbp), %rcx
	movq	-24(%rbp), %rdx
	movq	576(%rdx), %rsi
	subq	%rcx, %rax
	shlq	$6, %rax
	addq	%rax, %rsi
	movq	%rsi, 576(%rdx)
	movq	-32(%rbp), %rax
	movq	-24(%rbp), %rcx
	addq	448(%rcx), %rax
	movq	%rax, 448(%rcx)
	movq	-24(%rbp), %rdi
	callq	refresh_neighbour_lists
.LBB21_20:                              # %if.end34
	movq	-32(%rbp), %rbx
	cmpl	$901529035, -44(%rbp)   # imm = 0x35BC3DCB
	jne	.LBB21_22
.LBB21_21:
	movq	%rbx, %rax
	addq	$72, %rsp
	popq	%rbx
	popq	%rbp
	.cfi_def_cfa %rsp, 8
	retq
.LBB21_22:                              # %func_exit
	.cfi_def_cfa %rbp, 16
	callq	detect_breach
	jmp	.LBB21_21
.Lfunc_end21:
	.size	suspend_impl.17, .Lfunc_end21-suspend_impl.17
	.cfi_endproc
                                        # -- End function
	.globl	replace_weaker_arc.18   # -- Begin function replace_weaker_arc.18
	.p2align	4, 0x90
	.type	replace_weaker_arc.18,@function
replace_weaker_arc.18:                  # @replace_weaker_arc.18
	.cfi_startproc
# %bb.0:                                # %entry
	pushq	%rbp
	.cfi_def_cfa_offset 16
	.cfi_offset %rbp, -16
	movq	%rsp, %rbp
	.cfi_def_cfa_register %rbp
	subq	$80, %rsp
	movl	$986651064, -44(%rbp)   # imm = 0x3ACF19B8
	movq	%rdi, -72(%rbp)
	movq	%rsi, -8(%rbp)
	movq	%rdx, -64(%rbp)
	movq	%rcx, -56(%rbp)
	movq	%r8, -32(%rbp)
	movq	%r9, -40(%rbp)
	movq	-64(%rbp), %rax
	movq	-8(%rbp), %rcx
	movq	%rax, 8(%rcx)
	movq	-56(%rbp), %rax
	movq	-8(%rbp), %rcx
	movq	%rax, 16(%rcx)
	movq	-32(%rbp), %rax
	movq	-8(%rbp), %rcx
	movq	%rax, 56(%rcx)
	movq	-32(%rbp), %rax
	movq	-8(%rbp), %rcx
	movq	%rax, (%rcx)
	movq	-40(%rbp), %rax
	movq	-8(%rbp), %rcx
	movq	%rax, 48(%rcx)
	movq	$1, -24(%rbp)
	movq	-8(%rbp), %rax
	movq	112(%rax), %rax
	movq	-8(%rbp), %rcx
	movq	176(%rcx), %rcx
	cmpq	%rcx, %rax
	movl	$2, %eax
	movl	$3, %ecx
	cmovgl	%eax, %ecx
	movslq	%ecx, %rax
	movq	%rax, -16(%rbp)
.LBB22_1:                               # %while.cond
                                        # =>This Inner Loop Header: Depth=1
	xorl	%eax, %eax
	movq	-16(%rbp), %rcx
	movq	-72(%rbp), %rdx
	cmpq	448(%rdx), %rcx
	jg	.LBB22_3
# %bb.2:                                # %land.rhs
                                        #   in Loop: Header=BB22_1 Depth=1
	movq	-40(%rbp), %rax
	movq	-8(%rbp), %rcx
	movq	-16(%rbp), %rdx
	subq	$1, %rdx
	shlq	$6, %rdx
	addq	%rdx, %rcx
	cmpq	48(%rcx), %rax
	setl	%al
.LBB22_3:                               # %land.end
                                        #   in Loop: Header=BB22_1 Depth=1
	testb	$1, %al
	jne	.LBB22_4
	jmp	.LBB22_9
.LBB22_4:                               # %while.body
                                        #   in Loop: Header=BB22_1 Depth=1
	movq	-8(%rbp), %rax
	movq	-16(%rbp), %rcx
	subq	$1, %rcx
	shlq	$6, %rcx
	addq	%rcx, %rax
	movq	8(%rax), %rax
	movq	-8(%rbp), %rcx
	movq	-24(%rbp), %rdx
	subq	$1, %rdx
	shlq	$6, %rdx
	addq	%rdx, %rcx
	movq	%rax, 8(%rcx)
	movq	-8(%rbp), %rax
	movq	-16(%rbp), %rcx
	subq	$1, %rcx
	shlq	$6, %rcx
	addq	%rcx, %rax
	movq	16(%rax), %rax
	movq	-8(%rbp), %rcx
	movq	-24(%rbp), %rdx
	subq	$1, %rdx
	shlq	$6, %rdx
	addq	%rdx, %rcx
	movq	%rax, 16(%rcx)
	movq	-8(%rbp), %rax
	movq	-16(%rbp), %rcx
	subq	$1, %rcx
	shlq	$6, %rcx
	addq	%rcx, %rax
	movq	(%rax), %rax
	movq	-8(%rbp), %rcx
	movq	-24(%rbp), %rdx
	subq	$1, %rdx
	shlq	$6, %rdx
	addq	%rdx, %rcx
	movq	%rax, (%rcx)
	movq	-8(%rbp), %rax
	movq	-16(%rbp), %rcx
	subq	$1, %rcx
	shlq	$6, %rcx
	addq	%rcx, %rax
	movq	(%rax), %rax
	movq	-8(%rbp), %rcx
	movq	-24(%rbp), %rdx
	subq	$1, %rdx
	shlq	$6, %rdx
	addq	%rdx, %rcx
	movq	%rax, 56(%rcx)
	movq	-8(%rbp), %rax
	movq	-16(%rbp), %rcx
	subq	$1, %rcx
	shlq	$6, %rcx
	addq	%rcx, %rax
	movq	48(%rax), %rax
	movq	-8(%rbp), %rcx
	movq	-24(%rbp), %rdx
	subq	$1, %rdx
	shlq	$6, %rdx
	addq	%rdx, %rcx
	movq	%rax, 48(%rcx)
	movq	-64(%rbp), %rax
	movq	-8(%rbp), %rcx
	movq	-16(%rbp), %rdx
	subq	$1, %rdx
	shlq	$6, %rdx
	addq	%rdx, %rcx
	movq	%rax, 8(%rcx)
	movq	-56(%rbp), %rax
	movq	-8(%rbp), %rcx
	movq	-16(%rbp), %rdx
	subq	$1, %rdx
	shlq	$6, %rdx
	addq	%rdx, %rcx
	movq	%rax, 16(%rcx)
	movq	-32(%rbp), %rax
	movq	-8(%rbp), %rcx
	movq	-16(%rbp), %rdx
	subq	$1, %rdx
	shlq	$6, %rdx
	addq	%rdx, %rcx
	movq	%rax, (%rcx)
	movq	-32(%rbp), %rax
	movq	-8(%rbp), %rcx
	movq	-16(%rbp), %rdx
	subq	$1, %rdx
	shlq	$6, %rdx
	addq	%rdx, %rcx
	movq	%rax, 56(%rcx)
	movq	-40(%rbp), %rax
	movq	-8(%rbp), %rcx
	movq	-16(%rbp), %rdx
	subq	$1, %rdx
	shlq	$6, %rdx
	addq	%rdx, %rcx
	movq	%rax, 48(%rcx)
	movq	-16(%rbp), %rax
	movq	%rax, -24(%rbp)
	movq	-16(%rbp), %rax
	shlq	$1, %rax
	movq	%rax, -16(%rbp)
	movq	-16(%rbp), %rax
	addq	$1, %rax
	movq	-72(%rbp), %rcx
	cmpq	448(%rcx), %rax
	jg	.LBB22_8
# %bb.5:                                # %if.then
                                        #   in Loop: Header=BB22_1 Depth=1
	movq	-8(%rbp), %rax
	movq	-16(%rbp), %rcx
	subq	$1, %rcx
	shlq	$6, %rcx
	addq	%rcx, %rax
	movq	48(%rax), %rax
	movq	-8(%rbp), %rcx
	movq	-16(%rbp), %rdx
	shlq	$6, %rdx
	addq	%rdx, %rcx
	cmpq	48(%rcx), %rax
	jge	.LBB22_7
# %bb.6:                                # %if.then74
                                        #   in Loop: Header=BB22_1 Depth=1
	movq	-16(%rbp), %rax
	addq	$1, %rax
	movq	%rax, -16(%rbp)
.LBB22_7:                               # %if.end
                                        #   in Loop: Header=BB22_1 Depth=1
	jmp	.LBB22_8
.LBB22_8:                               # %if.end75
                                        #   in Loop: Header=BB22_1 Depth=1
	jmp	.LBB22_1
.LBB22_9:                               # %while.end
	cmpl	$986651064, -44(%rbp)   # imm = 0x3ACF19B8
	jne	.LBB22_11
.LBB22_10:
	addq	$80, %rsp
	popq	%rbp
	.cfi_def_cfa %rsp, 8
	retq
.LBB22_11:                              # %func_exit
	.cfi_def_cfa %rbp, 16
	callq	detect_breach
	jmp	.LBB22_10
.Lfunc_end22:
	.size	replace_weaker_arc.18, .Lfunc_end22-replace_weaker_arc.18
	.cfi_endproc
                                        # -- End function
	.globl	replace_weaker_arc.19   # -- Begin function replace_weaker_arc.19
	.p2align	4, 0x90
	.type	replace_weaker_arc.19,@function
replace_weaker_arc.19:                  # @replace_weaker_arc.19
	.cfi_startproc
# %bb.0:                                # %entry
	pushq	%rbp
	.cfi_def_cfa_offset 16
	.cfi_offset %rbp, -16
	movq	%rsp, %rbp
	.cfi_def_cfa_register %rbp
	subq	$80, %rsp
	movl	$2035111388, -44(%rbp)  # imm = 0x794D55DC
	movq	%rdi, -56(%rbp)
	movq	%rsi, -8(%rbp)
	movq	%rdx, -72(%rbp)
	movq	%rcx, -64(%rbp)
	movq	%r8, -32(%rbp)
	movq	%r9, -40(%rbp)
	movq	-72(%rbp), %rax
	movq	-8(%rbp), %rcx
	movq	%rax, 8(%rcx)
	movq	-64(%rbp), %rax
	movq	-8(%rbp), %rcx
	movq	%rax, 16(%rcx)
	movq	-32(%rbp), %rax
	movq	-8(%rbp), %rcx
	movq	%rax, 56(%rcx)
	movq	-32(%rbp), %rax
	movq	-8(%rbp), %rcx
	movq	%rax, (%rcx)
	movq	-40(%rbp), %rax
	movq	-8(%rbp), %rcx
	movq	%rax, 48(%rcx)
	movq	$1, -24(%rbp)
	movq	-8(%rbp), %rax
	movq	112(%rax), %rax
	movq	-8(%rbp), %rcx
	movq	176(%rcx), %rcx
	cmpq	%rcx, %rax
	movl	$2, %eax
	movl	$3, %ecx
	cmovgl	%eax, %ecx
	movslq	%ecx, %rax
	movq	%rax, -16(%rbp)
.LBB23_1:                               # %while.cond
                                        # =>This Inner Loop Header: Depth=1
	xorl	%eax, %eax
	movq	-16(%rbp), %rcx
	movq	-56(%rbp), %rdx
	cmpq	448(%rdx), %rcx
	jg	.LBB23_3
# %bb.2:                                # %land.rhs
                                        #   in Loop: Header=BB23_1 Depth=1
	movq	-40(%rbp), %rax
	movq	-8(%rbp), %rcx
	movq	-16(%rbp), %rdx
	subq	$1, %rdx
	shlq	$6, %rdx
	addq	%rdx, %rcx
	cmpq	48(%rcx), %rax
	setl	%al
.LBB23_3:                               # %land.end
                                        #   in Loop: Header=BB23_1 Depth=1
	testb	$1, %al
	jne	.LBB23_4
	jmp	.LBB23_9
.LBB23_4:                               # %while.body
                                        #   in Loop: Header=BB23_1 Depth=1
	movq	-8(%rbp), %rax
	movq	-16(%rbp), %rcx
	subq	$1, %rcx
	shlq	$6, %rcx
	addq	%rcx, %rax
	movq	8(%rax), %rax
	movq	-8(%rbp), %rcx
	movq	-24(%rbp), %rdx
	subq	$1, %rdx
	shlq	$6, %rdx
	addq	%rdx, %rcx
	movq	%rax, 8(%rcx)
	movq	-8(%rbp), %rax
	movq	-16(%rbp), %rcx
	subq	$1, %rcx
	shlq	$6, %rcx
	addq	%rcx, %rax
	movq	16(%rax), %rax
	movq	-8(%rbp), %rcx
	movq	-24(%rbp), %rdx
	subq	$1, %rdx
	shlq	$6, %rdx
	addq	%rdx, %rcx
	movq	%rax, 16(%rcx)
	movq	-8(%rbp), %rax
	movq	-16(%rbp), %rcx
	subq	$1, %rcx
	shlq	$6, %rcx
	addq	%rcx, %rax
	movq	(%rax), %rax
	movq	-8(%rbp), %rcx
	movq	-24(%rbp), %rdx
	subq	$1, %rdx
	shlq	$6, %rdx
	addq	%rdx, %rcx
	movq	%rax, (%rcx)
	movq	-8(%rbp), %rax
	movq	-16(%rbp), %rcx
	subq	$1, %rcx
	shlq	$6, %rcx
	addq	%rcx, %rax
	movq	(%rax), %rax
	movq	-8(%rbp), %rcx
	movq	-24(%rbp), %rdx
	subq	$1, %rdx
	shlq	$6, %rdx
	addq	%rdx, %rcx
	movq	%rax, 56(%rcx)
	movq	-8(%rbp), %rax
	movq	-16(%rbp), %rcx
	subq	$1, %rcx
	shlq	$6, %rcx
	addq	%rcx, %rax
	movq	48(%rax), %rax
	movq	-8(%rbp), %rcx
	movq	-24(%rbp), %rdx
	subq	$1, %rdx
	shlq	$6, %rdx
	addq	%rdx, %rcx
	movq	%rax, 48(%rcx)
	movq	-72(%rbp), %rax
	movq	-8(%rbp), %rcx
	movq	-16(%rbp), %rdx
	subq	$1, %rdx
	shlq	$6, %rdx
	addq	%rdx, %rcx
	movq	%rax, 8(%rcx)
	movq	-64(%rbp), %rax
	movq	-8(%rbp), %rcx
	movq	-16(%rbp), %rdx
	subq	$1, %rdx
	shlq	$6, %rdx
	addq	%rdx, %rcx
	movq	%rax, 16(%rcx)
	movq	-32(%rbp), %rax
	movq	-8(%rbp), %rcx
	movq	-16(%rbp), %rdx
	subq	$1, %rdx
	shlq	$6, %rdx
	addq	%rdx, %rcx
	movq	%rax, (%rcx)
	movq	-32(%rbp), %rax
	movq	-8(%rbp), %rcx
	movq	-16(%rbp), %rdx
	subq	$1, %rdx
	shlq	$6, %rdx
	addq	%rdx, %rcx
	movq	%rax, 56(%rcx)
	movq	-40(%rbp), %rax
	movq	-8(%rbp), %rcx
	movq	-16(%rbp), %rdx
	subq	$1, %rdx
	shlq	$6, %rdx
	addq	%rdx, %rcx
	movq	%rax, 48(%rcx)
	movq	-16(%rbp), %rax
	movq	%rax, -24(%rbp)
	movq	-16(%rbp), %rax
	shlq	$1, %rax
	movq	%rax, -16(%rbp)
	movq	-16(%rbp), %rax
	addq	$1, %rax
	movq	-56(%rbp), %rcx
	cmpq	448(%rcx), %rax
	jg	.LBB23_8
# %bb.5:                                # %if.then
                                        #   in Loop: Header=BB23_1 Depth=1
	movq	-8(%rbp), %rax
	movq	-16(%rbp), %rcx
	subq	$1, %rcx
	shlq	$6, %rcx
	addq	%rcx, %rax
	movq	48(%rax), %rax
	movq	-8(%rbp), %rcx
	movq	-16(%rbp), %rdx
	shlq	$6, %rdx
	addq	%rdx, %rcx
	cmpq	48(%rcx), %rax
	jge	.LBB23_7
# %bb.6:                                # %if.then74
                                        #   in Loop: Header=BB23_1 Depth=1
	movq	-16(%rbp), %rax
	addq	$1, %rax
	movq	%rax, -16(%rbp)
.LBB23_7:                               # %if.end
                                        #   in Loop: Header=BB23_1 Depth=1
	jmp	.LBB23_8
.LBB23_8:                               # %if.end75
                                        #   in Loop: Header=BB23_1 Depth=1
	jmp	.LBB23_1
.LBB23_9:                               # %while.end
	cmpl	$2035111388, -44(%rbp)  # imm = 0x794D55DC
	jne	.LBB23_11
.LBB23_10:
	addq	$80, %rsp
	popq	%rbp
	.cfi_def_cfa %rsp, 8
	retq
.LBB23_11:                              # %func_exit
	.cfi_def_cfa %rbp, 16
	callq	detect_breach
	jmp	.LBB23_10
.Lfunc_end23:
	.size	replace_weaker_arc.19, .Lfunc_end23-replace_weaker_arc.19
	.cfi_endproc
                                        # -- End function
	.globl	price_out_impl.20       # -- Begin function price_out_impl.20
	.p2align	4, 0x90
	.type	price_out_impl.20,@function
price_out_impl.20:                      # @price_out_impl.20
	.cfi_startproc
# %bb.0:                                # %entry
	pushq	%rbp
	.cfi_def_cfa_offset 16
	.cfi_offset %rbp, -16
	movq	%rsp, %rbp
	.cfi_def_cfa_register %rbp
	pushq	%rbx
	subq	$168, %rsp
	.cfi_offset %rbx, -24
	movl	$529757955, -100(%rbp)  # imm = 0x1F937703
	movq	%rdi, -24(%rbp)
	movq	$0, -40(%rbp)
	movq	$0, -112(%rbp)
	movq	$15, -152(%rbp)
	movq	-24(%rbp), %rax
	movq	528(%rax), %rax
	movq	%rax, -168(%rbp)
	movq	$30, -88(%rbp)
	movq	-168(%rbp), %rax
	subq	-152(%rbp), %rax
	movq	%rax, -160(%rbp)
	movq	-24(%rbp), %rax
	cmpq	$15000, 408(%rax)       # imm = 0x3A98
	jg	.LBB24_7
# %bb.1:                                # %if.then
	movq	-24(%rbp), %rax
	movq	424(%rax), %rax
	movq	-24(%rbp), %rcx
	addq	456(%rcx), %rax
	movq	-24(%rbp), %rcx
	cmpq	416(%rcx), %rax
	jle	.LBB24_6
# %bb.2:                                # %land.lhs.true
	movq	-24(%rbp), %rax
	movq	408(%rax), %rax
	movq	-24(%rbp), %rcx
	imulq	408(%rcx), %rax
	cqto
	movl	$2, %ecx
	idivq	%rcx
	movq	-24(%rbp), %rcx
	addq	424(%rcx), %rax
	movq	-24(%rbp), %rcx
	cmpq	416(%rcx), %rax
	jle	.LBB24_6
# %bb.3:                                # %if.then9
	movq	$1, -112(%rbp)
	movq	-24(%rbp), %rdi
	callq	resize_prob
	cmpq	$0, %rax
	je	.LBB24_5
# %bb.4:                                # %if.then10
	movq	$-1, -128(%rbp)
	jmp	.LBB24_48
.LBB24_5:                               # %if.end
	movq	-24(%rbp), %rdi
	callq	refresh_neighbour_lists
.LBB24_6:                               # %if.end11
	jmp	.LBB24_7
.LBB24_7:                               # %if.end12
	movq	-24(%rbp), %rax
	movq	576(%rax), %rax
	movq	%rax, -16(%rbp)
	movq	-24(%rbp), %rax
	movq	408(%rax), %rax
	movq	%rax, -136(%rbp)
	movq	-24(%rbp), %rax
	movq	568(%rax), %rax
	movq	%rax, -32(%rbp)
	movq	$0, -56(%rbp)
.LBB24_8:                               # %for.cond
                                        # =>This Inner Loop Header: Depth=1
	xorl	%eax, %eax
	movq	-56(%rbp), %rcx
	cmpq	-136(%rbp), %rcx
	jge	.LBB24_10
# %bb.9:                                # %land.rhs
                                        #   in Loop: Header=BB24_8 Depth=1
	movq	-32(%rbp), %rax
	cmpl	$-1, 88(%rax)
	sete	%al
.LBB24_10:                              # %land.end
                                        #   in Loop: Header=BB24_8 Depth=1
	testb	$1, %al
	jne	.LBB24_11
	jmp	.LBB24_13
.LBB24_11:                              # %for.body
                                        #   in Loop: Header=BB24_8 Depth=1
	jmp	.LBB24_12
.LBB24_12:                              # %for.inc
                                        #   in Loop: Header=BB24_8 Depth=1
	movq	-56(%rbp), %rax
	addq	$1, %rax
	movq	%rax, -56(%rbp)
	movq	-32(%rbp), %rax
	addq	$192, %rax
	movq	%rax, -32(%rbp)
	jmp	.LBB24_8
.LBB24_13:                              # %for.end
	movq	$0, -96(%rbp)
.LBB24_14:                              # %for.cond16
                                        # =>This Loop Header: Depth=1
                                        #     Child Loop BB24_20 Depth 2
	movq	-56(%rbp), %rax
	cmpq	-136(%rbp), %rax
	jge	.LBB24_34
# %bb.15:                               # %for.body18
                                        #   in Loop: Header=BB24_14 Depth=1
	movq	-32(%rbp), %rax
	cmpl	$-1, 88(%rax)
	je	.LBB24_17
# %bb.16:                               # %if.then22
                                        #   in Loop: Header=BB24_14 Depth=1
	movq	-96(%rbp), %rax
	movq	-32(%rbp), %rcx
	movq	16(%rcx), %rcx
	movq	56(%rcx), %rcx
	movq	16(%rcx), %rcx
	movq	%rax, 72(%rcx)
	movq	-32(%rbp), %rax
	addq	$64, %rax
	movq	%rax, -96(%rbp)
.LBB24_17:                              # %if.end26
                                        #   in Loop: Header=BB24_14 Depth=1
	movq	-32(%rbp), %rax
	cmpl	$-1, 24(%rax)
	jne	.LBB24_19
# %bb.18:                               # %if.then29
                                        #   in Loop: Header=BB24_14 Depth=1
	jmp	.LBB24_33
.LBB24_19:                              # %if.end30
                                        #   in Loop: Header=BB24_14 Depth=1
	movq	-32(%rbp), %rax
	movq	16(%rax), %rax
	movq	%rax, -72(%rbp)
	movq	-72(%rbp), %rax
	movslq	100(%rax), %rax
	movq	-32(%rbp), %rcx
	subq	56(%rcx), %rax
	addq	-160(%rbp), %rax
	movq	%rax, -144(%rbp)
	movq	-72(%rbp), %rax
	movq	(%rax), %rax
	movq	%rax, -176(%rbp)
	movq	-96(%rbp), %rax
	movq	8(%rax), %rax
	movq	72(%rax), %rax
	movq	%rax, -64(%rbp)
.LBB24_20:                              # %while.cond
                                        #   Parent Loop BB24_14 Depth=1
                                        # =>  This Inner Loop Header: Depth=2
	cmpq	$0, -64(%rbp)
	je	.LBB24_32
# %bb.21:                               # %while.body
                                        #   in Loop: Header=BB24_20 Depth=2
	movq	-64(%rbp), %rax
	movq	8(%rax), %rax
	movq	%rax, -48(%rbp)
	movq	-48(%rbp), %rax
	movslq	100(%rax), %rax
	movq	-64(%rbp), %rcx
	addq	56(%rcx), %rax
	cmpq	-144(%rbp), %rax
	jle	.LBB24_24
# %bb.22:                               # %if.then44
                                        #   in Loop: Header=BB24_20 Depth=2
	movq	-48(%rbp), %rax
	movq	72(%rax), %rax
	movq	%rax, -64(%rbp)
.LBB24_23:                              # %while.cond.backedge
                                        #   in Loop: Header=BB24_20 Depth=2
	jmp	.LBB24_20
.LBB24_24:                              # %if.end46
                                        #   in Loop: Header=BB24_20 Depth=2
	movq	-88(%rbp), %rax
	movq	-48(%rbp), %rcx
	subq	(%rcx), %rax
	movq	-72(%rbp), %rcx
	addq	(%rcx), %rax
	movq	%rax, -80(%rbp)
	cmpq	$0, -80(%rbp)
	jge	.LBB24_31
# %bb.25:                               # %if.then53
                                        #   in Loop: Header=BB24_20 Depth=2
	movq	-40(%rbp), %rax
	movq	-24(%rbp), %rcx
	cmpq	448(%rcx), %rax
	jge	.LBB24_27
# %bb.26:                               # %if.then56
                                        #   in Loop: Header=BB24_20 Depth=2
	movq	-16(%rbp), %rdi
	movq	-40(%rbp), %rsi
	movq	-48(%rbp), %rdx
	movq	-72(%rbp), %rcx
	movq	-88(%rbp), %r8
	movq	-80(%rbp), %r9
	callq	insert_new_arc
	movq	-40(%rbp), %rax
	addq	$1, %rax
	movq	%rax, -40(%rbp)
	jmp	.LBB24_30
.LBB24_27:                              # %if.else
                                        #   in Loop: Header=BB24_20 Depth=2
	movq	-16(%rbp), %rax
	movq	48(%rax), %rax
	cmpq	-80(%rbp), %rax
	jle	.LBB24_29
# %bb.28:                               # %if.then61
                                        #   in Loop: Header=BB24_20 Depth=2
	movq	-24(%rbp), %rdi
	movq	-16(%rbp), %rsi
	movq	-48(%rbp), %rdx
	movq	-72(%rbp), %rcx
	movq	-88(%rbp), %r8
	movq	-80(%rbp), %r9
	callq	replace_weaker_arc
.LBB24_29:                              # %if.end62
                                        #   in Loop: Header=BB24_20 Depth=2
	jmp	.LBB24_30
.LBB24_30:                              # %if.end63
                                        #   in Loop: Header=BB24_20 Depth=2
	jmp	.LBB24_31
.LBB24_31:                              # %if.end64
                                        #   in Loop: Header=BB24_20 Depth=2
	movq	-48(%rbp), %rax
	movq	72(%rax), %rax
	movq	%rax, -64(%rbp)
	jmp	.LBB24_23
.LBB24_32:                              # %while.end
                                        #   in Loop: Header=BB24_14 Depth=1
	jmp	.LBB24_33
.LBB24_33:                              # %for.inc66
                                        #   in Loop: Header=BB24_14 Depth=1
	movq	-56(%rbp), %rax
	addq	$1, %rax
	movq	%rax, -56(%rbp)
	movq	-32(%rbp), %rax
	addq	$192, %rax
	movq	%rax, -32(%rbp)
	jmp	.LBB24_14
.LBB24_34:                              # %for.end69
	cmpq	$0, -40(%rbp)
	je	.LBB24_47
# %bb.35:                               # %if.then71
	movq	-24(%rbp), %rax
	movq	576(%rax), %rax
	movq	%rax, -16(%rbp)
	movq	-40(%rbp), %rax
	movq	-24(%rbp), %rcx
	shlq	$6, %rax
	addq	576(%rcx), %rax
	movq	%rax, 576(%rcx)
	movq	-24(%rbp), %rax
	movq	576(%rax), %rax
	movq	%rax, -120(%rbp)
	cmpq	$0, -112(%rbp)
	je	.LBB24_41
# %bb.36:                               # %if.then77
	jmp	.LBB24_37
.LBB24_37:                              # %for.cond78
                                        # =>This Inner Loop Header: Depth=1
	movq	-16(%rbp), %rax
	cmpq	-120(%rbp), %rax
	je	.LBB24_40
# %bb.38:                               # %for.body81
                                        #   in Loop: Header=BB24_37 Depth=1
	movq	-16(%rbp), %rax
	movq	$0, 48(%rax)
	movq	-16(%rbp), %rax
	movl	$1, 24(%rax)
# %bb.39:                               # %for.inc84
                                        #   in Loop: Header=BB24_37 Depth=1
	movq	-16(%rbp), %rax
	addq	$64, %rax
	movq	%rax, -16(%rbp)
	jmp	.LBB24_37
.LBB24_40:                              # %for.end85
	jmp	.LBB24_46
.LBB24_41:                              # %if.else86
	jmp	.LBB24_42
.LBB24_42:                              # %for.cond87
                                        # =>This Inner Loop Header: Depth=1
	movq	-16(%rbp), %rax
	cmpq	-120(%rbp), %rax
	je	.LBB24_45
# %bb.43:                               # %for.body90
                                        #   in Loop: Header=BB24_42 Depth=1
	movq	-16(%rbp), %rax
	movq	$0, 48(%rax)
	movq	-16(%rbp), %rax
	movl	$1, 24(%rax)
	movq	-16(%rbp), %rax
	movq	8(%rax), %rax
	movq	56(%rax), %rax
	movq	-16(%rbp), %rcx
	movq	%rax, 32(%rcx)
	movq	-16(%rbp), %rax
	movq	-16(%rbp), %rcx
	movq	8(%rcx), %rcx
	movq	%rax, 56(%rcx)
	movq	-16(%rbp), %rax
	movq	16(%rax), %rax
	movq	64(%rax), %rax
	movq	-16(%rbp), %rcx
	movq	%rax, 40(%rcx)
	movq	-16(%rbp), %rax
	movq	-16(%rbp), %rcx
	movq	16(%rcx), %rcx
	movq	%rax, 64(%rcx)
# %bb.44:                               # %for.inc100
                                        #   in Loop: Header=BB24_42 Depth=1
	movq	-16(%rbp), %rax
	addq	$64, %rax
	movq	%rax, -16(%rbp)
	jmp	.LBB24_42
.LBB24_45:                              # %for.end102
	jmp	.LBB24_46
.LBB24_46:                              # %if.end103
	movq	-40(%rbp), %rax
	movq	-24(%rbp), %rcx
	addq	424(%rcx), %rax
	movq	%rax, 424(%rcx)
	movq	-40(%rbp), %rax
	movq	-24(%rbp), %rcx
	addq	440(%rcx), %rax
	movq	%rax, 440(%rcx)
	movq	-40(%rbp), %rax
	movq	-24(%rbp), %rcx
	movq	448(%rcx), %rdx
	subq	%rax, %rdx
	movq	%rdx, 448(%rcx)
.LBB24_47:                              # %if.end109
	movq	-40(%rbp), %rax
	movq	%rax, -128(%rbp)
.LBB24_48:                              # %return
	movq	-128(%rbp), %rbx
	cmpl	$529757955, -100(%rbp)  # imm = 0x1F937703
	jne	.LBB24_50
.LBB24_49:
	movq	%rbx, %rax
	addq	$168, %rsp
	popq	%rbx
	popq	%rbp
	.cfi_def_cfa %rsp, 8
	retq
.LBB24_50:                              # %func_exit
	.cfi_def_cfa %rbp, 16
	callq	detect_breach
	jmp	.LBB24_49
.Lfunc_end24:
	.size	price_out_impl.20, .Lfunc_end24-price_out_impl.20
	.cfi_endproc
                                        # -- End function
	.globl	resize_prob.21          # -- Begin function resize_prob.21
	.p2align	4, 0x90
	.type	resize_prob.21,@function
resize_prob.21:                         # @resize_prob.21
	.cfi_startproc
# %bb.0:                                # %entry
	pushq	%rbp
	.cfi_def_cfa_offset 16
	.cfi_offset %rbp, -16
	movq	%rsp, %rbp
	.cfi_def_cfa_register %rbp
	pushq	%rbx
	subq	$72, %rsp
	.cfi_offset %rbx, -24
	movl	$1697767565, -36(%rbp)  # imm = 0x6531E08D
	movq	%rdi, -16(%rbp)
	movq	-16(%rbp), %rax
	movq	456(%rax), %rax
	movq	-16(%rbp), %rcx
	addq	416(%rcx), %rax
	movq	%rax, 416(%rcx)
	movq	-16(%rbp), %rax
	movq	456(%rax), %rax
	movq	-16(%rbp), %rcx
	addq	448(%rcx), %rax
	movq	%rax, 448(%rcx)
	movq	-16(%rbp), %rax
	movq	568(%rax), %rdi
	movq	-16(%rbp), %rax
	movq	416(%rax), %rsi
	shlq	$6, %rsi
	callq	realloc
	movq	%rax, -32(%rbp)
	cmpq	$0, -32(%rbp)
	jne	.LBB25_2
# %bb.1:                                # %if.then
	movq	-16(%rbp), %rsi
	movabsq	$.L.str, %rdi
	movb	$0, %al
	callq	printf
	movq	stdout, %rdi
	callq	fflush
	movq	$-1, -48(%rbp)
	jmp	.LBB25_9
.LBB25_2:                               # %if.end
	movq	-32(%rbp), %rax
	movq	-16(%rbp), %rcx
	movq	568(%rcx), %rcx
	subq	%rcx, %rax
	movq	%rax, -64(%rbp)
	movq	-32(%rbp), %rax
	movq	-16(%rbp), %rcx
	movq	%rax, 568(%rcx)
	movq	-32(%rbp), %rax
	movq	-16(%rbp), %rcx
	movq	424(%rcx), %rcx
	shlq	$6, %rcx
	addq	%rcx, %rax
	movq	-16(%rbp), %rcx
	movq	%rax, 576(%rcx)
	movq	-16(%rbp), %rax
	movq	552(%rax), %rax
	movq	%rax, -24(%rbp)
	movq	%rax, -56(%rbp)
	movq	-24(%rbp), %rax
	addq	$104, %rax
	movq	%rax, -24(%rbp)
	movq	-16(%rbp), %rax
	movq	560(%rax), %rax
	movq	%rax, -72(%rbp)
.LBB25_3:                               # %for.cond
                                        # =>This Inner Loop Header: Depth=1
	movq	-24(%rbp), %rax
	cmpq	-72(%rbp), %rax
	jae	.LBB25_8
# %bb.4:                                # %for.body
                                        #   in Loop: Header=BB25_3 Depth=1
	movq	-24(%rbp), %rax
	movq	24(%rax), %rax
	cmpq	-56(%rbp), %rax
	je	.LBB25_6
# %bb.5:                                # %if.then9
                                        #   in Loop: Header=BB25_3 Depth=1
	movq	-24(%rbp), %rax
	movq	48(%rax), %rax
	addq	-64(%rbp), %rax
	movq	-24(%rbp), %rcx
	movq	%rax, 48(%rcx)
.LBB25_6:                               # %if.end12
                                        #   in Loop: Header=BB25_3 Depth=1
	jmp	.LBB25_7
.LBB25_7:                               # %for.inc
                                        #   in Loop: Header=BB25_3 Depth=1
	movq	-24(%rbp), %rax
	addq	$104, %rax
	movq	%rax, -24(%rbp)
	jmp	.LBB25_3
.LBB25_8:                               # %for.end
	movq	$0, -48(%rbp)
.LBB25_9:                               # %return
	movq	-48(%rbp), %rbx
	cmpl	$1697767565, -36(%rbp)  # imm = 0x6531E08D
	jne	.LBB25_11
.LBB25_10:
	movq	%rbx, %rax
	addq	$72, %rsp
	popq	%rbx
	popq	%rbp
	.cfi_def_cfa %rsp, 8
	retq
.LBB25_11:                              # %func_exit
	.cfi_def_cfa %rbp, 16
	callq	detect_breach
	jmp	.LBB25_10
.Lfunc_end25:
	.size	resize_prob.21, .Lfunc_end25-resize_prob.21
	.cfi_endproc
                                        # -- End function
	.globl	resize_prob.22          # -- Begin function resize_prob.22
	.p2align	4, 0x90
	.type	resize_prob.22,@function
resize_prob.22:                         # @resize_prob.22
	.cfi_startproc
# %bb.0:                                # %entry
	pushq	%rbp
	.cfi_def_cfa_offset 16
	.cfi_offset %rbp, -16
	movq	%rsp, %rbp
	.cfi_def_cfa_register %rbp
	pushq	%rbx
	subq	$72, %rsp
	.cfi_offset %rbx, -24
	movl	$1447146392, -36(%rbp)  # imm = 0x5641B398
	movq	%rdi, -16(%rbp)
	movq	-16(%rbp), %rax
	movq	456(%rax), %rax
	movq	-16(%rbp), %rcx
	addq	416(%rcx), %rax
	movq	%rax, 416(%rcx)
	movq	-16(%rbp), %rax
	movq	456(%rax), %rax
	movq	-16(%rbp), %rcx
	addq	448(%rcx), %rax
	movq	%rax, 448(%rcx)
	movq	-16(%rbp), %rax
	movq	568(%rax), %rdi
	movq	-16(%rbp), %rax
	movq	416(%rax), %rsi
	shlq	$6, %rsi
	callq	realloc
	movq	%rax, -32(%rbp)
	cmpq	$0, -32(%rbp)
	jne	.LBB26_2
# %bb.1:                                # %if.then
	movq	-16(%rbp), %rsi
	movabsq	$.L.str, %rdi
	movb	$0, %al
	callq	printf
	movq	stdout, %rdi
	callq	fflush
	movq	$-1, -48(%rbp)
	jmp	.LBB26_9
.LBB26_2:                               # %if.end
	movq	-32(%rbp), %rax
	movq	-16(%rbp), %rcx
	movq	568(%rcx), %rcx
	subq	%rcx, %rax
	movq	%rax, -64(%rbp)
	movq	-32(%rbp), %rax
	movq	-16(%rbp), %rcx
	movq	%rax, 568(%rcx)
	movq	-32(%rbp), %rax
	movq	-16(%rbp), %rcx
	movq	424(%rcx), %rcx
	shlq	$6, %rcx
	addq	%rcx, %rax
	movq	-16(%rbp), %rcx
	movq	%rax, 576(%rcx)
	movq	-16(%rbp), %rax
	movq	552(%rax), %rax
	movq	%rax, -24(%rbp)
	movq	%rax, -72(%rbp)
	movq	-24(%rbp), %rax
	addq	$104, %rax
	movq	%rax, -24(%rbp)
	movq	-16(%rbp), %rax
	movq	560(%rax), %rax
	movq	%rax, -56(%rbp)
.LBB26_3:                               # %for.cond
                                        # =>This Inner Loop Header: Depth=1
	movq	-24(%rbp), %rax
	cmpq	-56(%rbp), %rax
	jae	.LBB26_8
# %bb.4:                                # %for.body
                                        #   in Loop: Header=BB26_3 Depth=1
	movq	-24(%rbp), %rax
	movq	24(%rax), %rax
	cmpq	-72(%rbp), %rax
	je	.LBB26_6
# %bb.5:                                # %if.then9
                                        #   in Loop: Header=BB26_3 Depth=1
	movq	-24(%rbp), %rax
	movq	48(%rax), %rax
	addq	-64(%rbp), %rax
	movq	-24(%rbp), %rcx
	movq	%rax, 48(%rcx)
.LBB26_6:                               # %if.end12
                                        #   in Loop: Header=BB26_3 Depth=1
	jmp	.LBB26_7
.LBB26_7:                               # %for.inc
                                        #   in Loop: Header=BB26_3 Depth=1
	movq	-24(%rbp), %rax
	addq	$104, %rax
	movq	%rax, -24(%rbp)
	jmp	.LBB26_3
.LBB26_8:                               # %for.end
	movq	$0, -48(%rbp)
.LBB26_9:                               # %return
	movq	-48(%rbp), %rbx
	cmpl	$1447146392, -36(%rbp)  # imm = 0x5641B398
	jne	.LBB26_11
.LBB26_10:
	movq	%rbx, %rax
	addq	$72, %rsp
	popq	%rbx
	popq	%rbp
	.cfi_def_cfa %rsp, 8
	retq
.LBB26_11:                              # %func_exit
	.cfi_def_cfa %rbp, 16
	callq	detect_breach
	jmp	.LBB26_10
.Lfunc_end26:
	.size	resize_prob.22, .Lfunc_end26-resize_prob.22
	.cfi_endproc
                                        # -- End function
	.globl	price_out_impl.23       # -- Begin function price_out_impl.23
	.p2align	4, 0x90
	.type	price_out_impl.23,@function
price_out_impl.23:                      # @price_out_impl.23
	.cfi_startproc
# %bb.0:                                # %entry
	pushq	%rbp
	.cfi_def_cfa_offset 16
	.cfi_offset %rbp, -16
	movq	%rsp, %rbp
	.cfi_def_cfa_register %rbp
	pushq	%rbx
	subq	$168, %rsp
	.cfi_offset %rbx, -24
	movl	$1495401278, -100(%rbp) # imm = 0x5922033E
	movq	%rdi, -16(%rbp)
	movq	$0, -40(%rbp)
	movq	$0, -136(%rbp)
	movq	$15, -144(%rbp)
	movq	-16(%rbp), %rax
	movq	528(%rax), %rax
	movq	%rax, -168(%rbp)
	movq	$30, -96(%rbp)
	movq	-168(%rbp), %rax
	subq	-144(%rbp), %rax
	movq	%rax, -160(%rbp)
	movq	-16(%rbp), %rax
	cmpq	$15000, 408(%rax)       # imm = 0x3A98
	jg	.LBB27_7
# %bb.1:                                # %if.then
	movq	-16(%rbp), %rax
	movq	424(%rax), %rax
	movq	-16(%rbp), %rcx
	addq	456(%rcx), %rax
	movq	-16(%rbp), %rcx
	cmpq	416(%rcx), %rax
	jle	.LBB27_6
# %bb.2:                                # %land.lhs.true
	movq	-16(%rbp), %rax
	movq	408(%rax), %rax
	movq	-16(%rbp), %rcx
	imulq	408(%rcx), %rax
	cqto
	movl	$2, %ecx
	idivq	%rcx
	movq	-16(%rbp), %rcx
	addq	424(%rcx), %rax
	movq	-16(%rbp), %rcx
	cmpq	416(%rcx), %rax
	jle	.LBB27_6
# %bb.3:                                # %if.then9
	movq	$1, -136(%rbp)
	movq	-16(%rbp), %rdi
	callq	resize_prob
	cmpq	$0, %rax
	je	.LBB27_5
# %bb.4:                                # %if.then10
	movq	$-1, -112(%rbp)
	jmp	.LBB27_48
.LBB27_5:                               # %if.end
	movq	-16(%rbp), %rdi
	callq	refresh_neighbour_lists
.LBB27_6:                               # %if.end11
	jmp	.LBB27_7
.LBB27_7:                               # %if.end12
	movq	-16(%rbp), %rax
	movq	576(%rax), %rax
	movq	%rax, -24(%rbp)
	movq	-16(%rbp), %rax
	movq	408(%rax), %rax
	movq	%rax, -120(%rbp)
	movq	-16(%rbp), %rax
	movq	568(%rax), %rax
	movq	%rax, -32(%rbp)
	movq	$0, -48(%rbp)
.LBB27_8:                               # %for.cond
                                        # =>This Inner Loop Header: Depth=1
	xorl	%eax, %eax
	movq	-48(%rbp), %rcx
	cmpq	-120(%rbp), %rcx
	jge	.LBB27_10
# %bb.9:                                # %land.rhs
                                        #   in Loop: Header=BB27_8 Depth=1
	movq	-32(%rbp), %rax
	cmpl	$-1, 88(%rax)
	sete	%al
.LBB27_10:                              # %land.end
                                        #   in Loop: Header=BB27_8 Depth=1
	testb	$1, %al
	jne	.LBB27_11
	jmp	.LBB27_13
.LBB27_11:                              # %for.body
                                        #   in Loop: Header=BB27_8 Depth=1
	jmp	.LBB27_12
.LBB27_12:                              # %for.inc
                                        #   in Loop: Header=BB27_8 Depth=1
	movq	-48(%rbp), %rax
	addq	$1, %rax
	movq	%rax, -48(%rbp)
	movq	-32(%rbp), %rax
	addq	$192, %rax
	movq	%rax, -32(%rbp)
	jmp	.LBB27_8
.LBB27_13:                              # %for.end
	movq	$0, -88(%rbp)
.LBB27_14:                              # %for.cond16
                                        # =>This Loop Header: Depth=1
                                        #     Child Loop BB27_20 Depth 2
	movq	-48(%rbp), %rax
	cmpq	-120(%rbp), %rax
	jge	.LBB27_34
# %bb.15:                               # %for.body18
                                        #   in Loop: Header=BB27_14 Depth=1
	movq	-32(%rbp), %rax
	cmpl	$-1, 88(%rax)
	je	.LBB27_17
# %bb.16:                               # %if.then22
                                        #   in Loop: Header=BB27_14 Depth=1
	movq	-88(%rbp), %rax
	movq	-32(%rbp), %rcx
	movq	16(%rcx), %rcx
	movq	56(%rcx), %rcx
	movq	16(%rcx), %rcx
	movq	%rax, 72(%rcx)
	movq	-32(%rbp), %rax
	addq	$64, %rax
	movq	%rax, -88(%rbp)
.LBB27_17:                              # %if.end26
                                        #   in Loop: Header=BB27_14 Depth=1
	movq	-32(%rbp), %rax
	cmpl	$-1, 24(%rax)
	jne	.LBB27_19
# %bb.18:                               # %if.then29
                                        #   in Loop: Header=BB27_14 Depth=1
	jmp	.LBB27_33
.LBB27_19:                              # %if.end30
                                        #   in Loop: Header=BB27_14 Depth=1
	movq	-32(%rbp), %rax
	movq	16(%rax), %rax
	movq	%rax, -72(%rbp)
	movq	-72(%rbp), %rax
	movslq	100(%rax), %rax
	movq	-32(%rbp), %rcx
	subq	56(%rcx), %rax
	addq	-160(%rbp), %rax
	movq	%rax, -152(%rbp)
	movq	-72(%rbp), %rax
	movq	(%rax), %rax
	movq	%rax, -176(%rbp)
	movq	-88(%rbp), %rax
	movq	8(%rax), %rax
	movq	72(%rax), %rax
	movq	%rax, -64(%rbp)
.LBB27_20:                              # %while.cond
                                        #   Parent Loop BB27_14 Depth=1
                                        # =>  This Inner Loop Header: Depth=2
	cmpq	$0, -64(%rbp)
	je	.LBB27_32
# %bb.21:                               # %while.body
                                        #   in Loop: Header=BB27_20 Depth=2
	movq	-64(%rbp), %rax
	movq	8(%rax), %rax
	movq	%rax, -56(%rbp)
	movq	-56(%rbp), %rax
	movslq	100(%rax), %rax
	movq	-64(%rbp), %rcx
	addq	56(%rcx), %rax
	cmpq	-152(%rbp), %rax
	jle	.LBB27_24
# %bb.22:                               # %if.then44
                                        #   in Loop: Header=BB27_20 Depth=2
	movq	-56(%rbp), %rax
	movq	72(%rax), %rax
	movq	%rax, -64(%rbp)
.LBB27_23:                              # %while.cond.backedge
                                        #   in Loop: Header=BB27_20 Depth=2
	jmp	.LBB27_20
.LBB27_24:                              # %if.end46
                                        #   in Loop: Header=BB27_20 Depth=2
	movq	-96(%rbp), %rax
	movq	-56(%rbp), %rcx
	subq	(%rcx), %rax
	movq	-72(%rbp), %rcx
	addq	(%rcx), %rax
	movq	%rax, -80(%rbp)
	cmpq	$0, -80(%rbp)
	jge	.LBB27_31
# %bb.25:                               # %if.then53
                                        #   in Loop: Header=BB27_20 Depth=2
	movq	-40(%rbp), %rax
	movq	-16(%rbp), %rcx
	cmpq	448(%rcx), %rax
	jge	.LBB27_27
# %bb.26:                               # %if.then56
                                        #   in Loop: Header=BB27_20 Depth=2
	movq	-24(%rbp), %rdi
	movq	-40(%rbp), %rsi
	movq	-56(%rbp), %rdx
	movq	-72(%rbp), %rcx
	movq	-96(%rbp), %r8
	movq	-80(%rbp), %r9
	callq	insert_new_arc
	movq	-40(%rbp), %rax
	addq	$1, %rax
	movq	%rax, -40(%rbp)
	jmp	.LBB27_30
.LBB27_27:                              # %if.else
                                        #   in Loop: Header=BB27_20 Depth=2
	movq	-24(%rbp), %rax
	movq	48(%rax), %rax
	cmpq	-80(%rbp), %rax
	jle	.LBB27_29
# %bb.28:                               # %if.then61
                                        #   in Loop: Header=BB27_20 Depth=2
	movq	-16(%rbp), %rdi
	movq	-24(%rbp), %rsi
	movq	-56(%rbp), %rdx
	movq	-72(%rbp), %rcx
	movq	-96(%rbp), %r8
	movq	-80(%rbp), %r9
	callq	replace_weaker_arc
.LBB27_29:                              # %if.end62
                                        #   in Loop: Header=BB27_20 Depth=2
	jmp	.LBB27_30
.LBB27_30:                              # %if.end63
                                        #   in Loop: Header=BB27_20 Depth=2
	jmp	.LBB27_31
.LBB27_31:                              # %if.end64
                                        #   in Loop: Header=BB27_20 Depth=2
	movq	-56(%rbp), %rax
	movq	72(%rax), %rax
	movq	%rax, -64(%rbp)
	jmp	.LBB27_23
.LBB27_32:                              # %while.end
                                        #   in Loop: Header=BB27_14 Depth=1
	jmp	.LBB27_33
.LBB27_33:                              # %for.inc66
                                        #   in Loop: Header=BB27_14 Depth=1
	movq	-48(%rbp), %rax
	addq	$1, %rax
	movq	%rax, -48(%rbp)
	movq	-32(%rbp), %rax
	addq	$192, %rax
	movq	%rax, -32(%rbp)
	jmp	.LBB27_14
.LBB27_34:                              # %for.end69
	cmpq	$0, -40(%rbp)
	je	.LBB27_47
# %bb.35:                               # %if.then71
	movq	-16(%rbp), %rax
	movq	576(%rax), %rax
	movq	%rax, -24(%rbp)
	movq	-40(%rbp), %rax
	movq	-16(%rbp), %rcx
	shlq	$6, %rax
	addq	576(%rcx), %rax
	movq	%rax, 576(%rcx)
	movq	-16(%rbp), %rax
	movq	576(%rax), %rax
	movq	%rax, -128(%rbp)
	cmpq	$0, -136(%rbp)
	je	.LBB27_41
# %bb.36:                               # %if.then77
	jmp	.LBB27_37
.LBB27_37:                              # %for.cond78
                                        # =>This Inner Loop Header: Depth=1
	movq	-24(%rbp), %rax
	cmpq	-128(%rbp), %rax
	je	.LBB27_40
# %bb.38:                               # %for.body81
                                        #   in Loop: Header=BB27_37 Depth=1
	movq	-24(%rbp), %rax
	movq	$0, 48(%rax)
	movq	-24(%rbp), %rax
	movl	$1, 24(%rax)
# %bb.39:                               # %for.inc84
                                        #   in Loop: Header=BB27_37 Depth=1
	movq	-24(%rbp), %rax
	addq	$64, %rax
	movq	%rax, -24(%rbp)
	jmp	.LBB27_37
.LBB27_40:                              # %for.end85
	jmp	.LBB27_46
.LBB27_41:                              # %if.else86
	jmp	.LBB27_42
.LBB27_42:                              # %for.cond87
                                        # =>This Inner Loop Header: Depth=1
	movq	-24(%rbp), %rax
	cmpq	-128(%rbp), %rax
	je	.LBB27_45
# %bb.43:                               # %for.body90
                                        #   in Loop: Header=BB27_42 Depth=1
	movq	-24(%rbp), %rax
	movq	$0, 48(%rax)
	movq	-24(%rbp), %rax
	movl	$1, 24(%rax)
	movq	-24(%rbp), %rax
	movq	8(%rax), %rax
	movq	56(%rax), %rax
	movq	-24(%rbp), %rcx
	movq	%rax, 32(%rcx)
	movq	-24(%rbp), %rax
	movq	-24(%rbp), %rcx
	movq	8(%rcx), %rcx
	movq	%rax, 56(%rcx)
	movq	-24(%rbp), %rax
	movq	16(%rax), %rax
	movq	64(%rax), %rax
	movq	-24(%rbp), %rcx
	movq	%rax, 40(%rcx)
	movq	-24(%rbp), %rax
	movq	-24(%rbp), %rcx
	movq	16(%rcx), %rcx
	movq	%rax, 64(%rcx)
# %bb.44:                               # %for.inc100
                                        #   in Loop: Header=BB27_42 Depth=1
	movq	-24(%rbp), %rax
	addq	$64, %rax
	movq	%rax, -24(%rbp)
	jmp	.LBB27_42
.LBB27_45:                              # %for.end102
	jmp	.LBB27_46
.LBB27_46:                              # %if.end103
	movq	-40(%rbp), %rax
	movq	-16(%rbp), %rcx
	addq	424(%rcx), %rax
	movq	%rax, 424(%rcx)
	movq	-40(%rbp), %rax
	movq	-16(%rbp), %rcx
	addq	440(%rcx), %rax
	movq	%rax, 440(%rcx)
	movq	-40(%rbp), %rax
	movq	-16(%rbp), %rcx
	movq	448(%rcx), %rdx
	subq	%rax, %rdx
	movq	%rdx, 448(%rcx)
.LBB27_47:                              # %if.end109
	movq	-40(%rbp), %rax
	movq	%rax, -112(%rbp)
.LBB27_48:                              # %return
	movq	-112(%rbp), %rbx
	cmpl	$1495401278, -100(%rbp) # imm = 0x5922033E
	jne	.LBB27_50
.LBB27_49:
	movq	%rbx, %rax
	addq	$168, %rsp
	popq	%rbx
	popq	%rbp
	.cfi_def_cfa %rsp, 8
	retq
.LBB27_50:                              # %func_exit
	.cfi_def_cfa %rbp, 16
	callq	detect_breach
	jmp	.LBB27_49
.Lfunc_end27:
	.size	price_out_impl.23, .Lfunc_end27-price_out_impl.23
	.cfi_endproc
                                        # -- End function
	.globl	insert_new_arc.24       # -- Begin function insert_new_arc.24
	.p2align	4, 0x90
	.type	insert_new_arc.24,@function
insert_new_arc.24:                      # @insert_new_arc.24
	.cfi_startproc
# %bb.0:                                # %entry
	pushq	%rbp
	.cfi_def_cfa_offset 16
	.cfi_offset %rbp, -16
	movq	%rsp, %rbp
	.cfi_def_cfa_register %rbp
	subq	$64, %rsp
	movl	$1966600762, -44(%rbp)  # imm = 0x7537F23A
	movq	%rdi, -8(%rbp)
	movq	%rsi, -24(%rbp)
	movq	%rdx, -64(%rbp)
	movq	%rcx, -56(%rbp)
	movq	%r8, -32(%rbp)
	movq	%r9, -40(%rbp)
	movq	-64(%rbp), %rax
	movq	-8(%rbp), %rcx
	movq	-24(%rbp), %rdx
	shlq	$6, %rdx
	addq	%rdx, %rcx
	movq	%rax, 8(%rcx)
	movq	-56(%rbp), %rax
	movq	-8(%rbp), %rcx
	movq	-24(%rbp), %rdx
	shlq	$6, %rdx
	addq	%rdx, %rcx
	movq	%rax, 16(%rcx)
	movq	-32(%rbp), %rax
	movq	-8(%rbp), %rcx
	movq	-24(%rbp), %rdx
	shlq	$6, %rdx
	addq	%rdx, %rcx
	movq	%rax, 56(%rcx)
	movq	-32(%rbp), %rax
	movq	-8(%rbp), %rcx
	movq	-24(%rbp), %rdx
	shlq	$6, %rdx
	addq	%rdx, %rcx
	movq	%rax, (%rcx)
	movq	-40(%rbp), %rax
	movq	-8(%rbp), %rcx
	movq	-24(%rbp), %rdx
	shlq	$6, %rdx
	addq	%rdx, %rcx
	movq	%rax, 48(%rcx)
	movq	-24(%rbp), %rax
	addq	$1, %rax
	movq	%rax, -16(%rbp)
.LBB28_1:                               # %while.cond
                                        # =>This Inner Loop Header: Depth=1
	xorl	%eax, %eax
	movq	-16(%rbp), %rcx
	subq	$1, %rcx
	cmpq	$0, %rcx
	je	.LBB28_3
# %bb.2:                                # %land.rhs
                                        #   in Loop: Header=BB28_1 Depth=1
	movq	-40(%rbp), %rcx
	movq	-8(%rbp), %rsi
	movq	-16(%rbp), %rax
	cqto
	movl	$2, %edi
	idivq	%rdi
	subq	$1, %rax
	shlq	$6, %rax
	addq	%rax, %rsi
	cmpq	48(%rsi), %rcx
	setg	%al
.LBB28_3:                               # %land.end
                                        #   in Loop: Header=BB28_1 Depth=1
	testb	$1, %al
	jne	.LBB28_4
	jmp	.LBB28_5
.LBB28_4:                               # %while.body
                                        #   in Loop: Header=BB28_1 Depth=1
	movq	-8(%rbp), %rsi
	movq	-16(%rbp), %rax
	cqto
	movl	$2, %ecx
	idivq	%rcx
	subq	$1, %rax
	shlq	$6, %rax
	addq	%rax, %rsi
	movq	8(%rsi), %rax
	movq	-8(%rbp), %rdx
	movq	-16(%rbp), %rsi
	subq	$1, %rsi
	shlq	$6, %rsi
	addq	%rsi, %rdx
	movq	%rax, 8(%rdx)
	movq	-8(%rbp), %rsi
	movq	-16(%rbp), %rax
	cqto
	idivq	%rcx
	subq	$1, %rax
	shlq	$6, %rax
	addq	%rax, %rsi
	movq	16(%rsi), %rax
	movq	-8(%rbp), %rdx
	movq	-16(%rbp), %rsi
	subq	$1, %rsi
	shlq	$6, %rsi
	addq	%rsi, %rdx
	movq	%rax, 16(%rdx)
	movq	-8(%rbp), %rsi
	movq	-16(%rbp), %rax
	cqto
	idivq	%rcx
	subq	$1, %rax
	shlq	$6, %rax
	addq	%rax, %rsi
	movq	(%rsi), %rax
	movq	-8(%rbp), %rdx
	movq	-16(%rbp), %rsi
	subq	$1, %rsi
	shlq	$6, %rsi
	addq	%rsi, %rdx
	movq	%rax, (%rdx)
	movq	-8(%rbp), %rsi
	movq	-16(%rbp), %rax
	cqto
	idivq	%rcx
	subq	$1, %rax
	shlq	$6, %rax
	addq	%rax, %rsi
	movq	(%rsi), %rax
	movq	-8(%rbp), %rdx
	movq	-16(%rbp), %rsi
	subq	$1, %rsi
	shlq	$6, %rsi
	addq	%rsi, %rdx
	movq	%rax, 56(%rdx)
	movq	-8(%rbp), %rsi
	movq	-16(%rbp), %rax
	cqto
	idivq	%rcx
	subq	$1, %rax
	shlq	$6, %rax
	addq	%rax, %rsi
	movq	48(%rsi), %rax
	movq	-8(%rbp), %rdx
	movq	-16(%rbp), %rsi
	subq	$1, %rsi
	shlq	$6, %rsi
	addq	%rsi, %rdx
	movq	%rax, 48(%rdx)
	movq	-16(%rbp), %rax
	cqto
	idivq	%rcx
	movq	%rax, -16(%rbp)
	movq	-64(%rbp), %rax
	movq	-8(%rbp), %rcx
	movq	-16(%rbp), %rdx
	subq	$1, %rdx
	shlq	$6, %rdx
	addq	%rdx, %rcx
	movq	%rax, 8(%rcx)
	movq	-56(%rbp), %rax
	movq	-8(%rbp), %rcx
	movq	-16(%rbp), %rdx
	subq	$1, %rdx
	shlq	$6, %rdx
	addq	%rdx, %rcx
	movq	%rax, 16(%rcx)
	movq	-32(%rbp), %rax
	movq	-8(%rbp), %rcx
	movq	-16(%rbp), %rdx
	subq	$1, %rdx
	shlq	$6, %rdx
	addq	%rdx, %rcx
	movq	%rax, (%rcx)
	movq	-32(%rbp), %rax
	movq	-8(%rbp), %rcx
	movq	-16(%rbp), %rdx
	subq	$1, %rdx
	shlq	$6, %rdx
	addq	%rdx, %rcx
	movq	%rax, 56(%rcx)
	movq	-40(%rbp), %rax
	movq	-8(%rbp), %rcx
	movq	-16(%rbp), %rdx
	subq	$1, %rdx
	shlq	$6, %rdx
	addq	%rdx, %rcx
	movq	%rax, 48(%rcx)
	jmp	.LBB28_1
.LBB28_5:                               # %while.end
	cmpl	$1966600762, -44(%rbp)  # imm = 0x7537F23A
	jne	.LBB28_7
.LBB28_6:
	addq	$64, %rsp
	popq	%rbp
	.cfi_def_cfa %rsp, 8
	retq
.LBB28_7:                               # %func_exit
	.cfi_def_cfa %rbp, 16
	callq	detect_breach
	jmp	.LBB28_6
.Lfunc_end28:
	.size	insert_new_arc.24, .Lfunc_end28-insert_new_arc.24
	.cfi_endproc
                                        # -- End function
	.globl	replace_weaker_arc.25   # -- Begin function replace_weaker_arc.25
	.p2align	4, 0x90
	.type	replace_weaker_arc.25,@function
replace_weaker_arc.25:                  # @replace_weaker_arc.25
	.cfi_startproc
# %bb.0:                                # %entry
	pushq	%rbp
	.cfi_def_cfa_offset 16
	.cfi_offset %rbp, -16
	movq	%rsp, %rbp
	.cfi_def_cfa_register %rbp
	subq	$80, %rsp
	movl	$1858317342, -44(%rbp)  # imm = 0x6EC3AC1E
	movq	%rdi, -56(%rbp)
	movq	%rsi, -8(%rbp)
	movq	%rdx, -64(%rbp)
	movq	%rcx, -72(%rbp)
	movq	%r8, -32(%rbp)
	movq	%r9, -40(%rbp)
	movq	-64(%rbp), %rax
	movq	-8(%rbp), %rcx
	movq	%rax, 8(%rcx)
	movq	-72(%rbp), %rax
	movq	-8(%rbp), %rcx
	movq	%rax, 16(%rcx)
	movq	-32(%rbp), %rax
	movq	-8(%rbp), %rcx
	movq	%rax, 56(%rcx)
	movq	-32(%rbp), %rax
	movq	-8(%rbp), %rcx
	movq	%rax, (%rcx)
	movq	-40(%rbp), %rax
	movq	-8(%rbp), %rcx
	movq	%rax, 48(%rcx)
	movq	$1, -24(%rbp)
	movq	-8(%rbp), %rax
	movq	112(%rax), %rax
	movq	-8(%rbp), %rcx
	movq	176(%rcx), %rcx
	cmpq	%rcx, %rax
	movl	$2, %eax
	movl	$3, %ecx
	cmovgl	%eax, %ecx
	movslq	%ecx, %rax
	movq	%rax, -16(%rbp)
.LBB29_1:                               # %while.cond
                                        # =>This Inner Loop Header: Depth=1
	xorl	%eax, %eax
	movq	-16(%rbp), %rcx
	movq	-56(%rbp), %rdx
	cmpq	448(%rdx), %rcx
	jg	.LBB29_3
# %bb.2:                                # %land.rhs
                                        #   in Loop: Header=BB29_1 Depth=1
	movq	-40(%rbp), %rax
	movq	-8(%rbp), %rcx
	movq	-16(%rbp), %rdx
	subq	$1, %rdx
	shlq	$6, %rdx
	addq	%rdx, %rcx
	cmpq	48(%rcx), %rax
	setl	%al
.LBB29_3:                               # %land.end
                                        #   in Loop: Header=BB29_1 Depth=1
	testb	$1, %al
	jne	.LBB29_4
	jmp	.LBB29_9
.LBB29_4:                               # %while.body
                                        #   in Loop: Header=BB29_1 Depth=1
	movq	-8(%rbp), %rax
	movq	-16(%rbp), %rcx
	subq	$1, %rcx
	shlq	$6, %rcx
	addq	%rcx, %rax
	movq	8(%rax), %rax
	movq	-8(%rbp), %rcx
	movq	-24(%rbp), %rdx
	subq	$1, %rdx
	shlq	$6, %rdx
	addq	%rdx, %rcx
	movq	%rax, 8(%rcx)
	movq	-8(%rbp), %rax
	movq	-16(%rbp), %rcx
	subq	$1, %rcx
	shlq	$6, %rcx
	addq	%rcx, %rax
	movq	16(%rax), %rax
	movq	-8(%rbp), %rcx
	movq	-24(%rbp), %rdx
	subq	$1, %rdx
	shlq	$6, %rdx
	addq	%rdx, %rcx
	movq	%rax, 16(%rcx)
	movq	-8(%rbp), %rax
	movq	-16(%rbp), %rcx
	subq	$1, %rcx
	shlq	$6, %rcx
	addq	%rcx, %rax
	movq	(%rax), %rax
	movq	-8(%rbp), %rcx
	movq	-24(%rbp), %rdx
	subq	$1, %rdx
	shlq	$6, %rdx
	addq	%rdx, %rcx
	movq	%rax, (%rcx)
	movq	-8(%rbp), %rax
	movq	-16(%rbp), %rcx
	subq	$1, %rcx
	shlq	$6, %rcx
	addq	%rcx, %rax
	movq	(%rax), %rax
	movq	-8(%rbp), %rcx
	movq	-24(%rbp), %rdx
	subq	$1, %rdx
	shlq	$6, %rdx
	addq	%rdx, %rcx
	movq	%rax, 56(%rcx)
	movq	-8(%rbp), %rax
	movq	-16(%rbp), %rcx
	subq	$1, %rcx
	shlq	$6, %rcx
	addq	%rcx, %rax
	movq	48(%rax), %rax
	movq	-8(%rbp), %rcx
	movq	-24(%rbp), %rdx
	subq	$1, %rdx
	shlq	$6, %rdx
	addq	%rdx, %rcx
	movq	%rax, 48(%rcx)
	movq	-64(%rbp), %rax
	movq	-8(%rbp), %rcx
	movq	-16(%rbp), %rdx
	subq	$1, %rdx
	shlq	$6, %rdx
	addq	%rdx, %rcx
	movq	%rax, 8(%rcx)
	movq	-72(%rbp), %rax
	movq	-8(%rbp), %rcx
	movq	-16(%rbp), %rdx
	subq	$1, %rdx
	shlq	$6, %rdx
	addq	%rdx, %rcx
	movq	%rax, 16(%rcx)
	movq	-32(%rbp), %rax
	movq	-8(%rbp), %rcx
	movq	-16(%rbp), %rdx
	subq	$1, %rdx
	shlq	$6, %rdx
	addq	%rdx, %rcx
	movq	%rax, (%rcx)
	movq	-32(%rbp), %rax
	movq	-8(%rbp), %rcx
	movq	-16(%rbp), %rdx
	subq	$1, %rdx
	shlq	$6, %rdx
	addq	%rdx, %rcx
	movq	%rax, 56(%rcx)
	movq	-40(%rbp), %rax
	movq	-8(%rbp), %rcx
	movq	-16(%rbp), %rdx
	subq	$1, %rdx
	shlq	$6, %rdx
	addq	%rdx, %rcx
	movq	%rax, 48(%rcx)
	movq	-16(%rbp), %rax
	movq	%rax, -24(%rbp)
	movq	-16(%rbp), %rax
	shlq	$1, %rax
	movq	%rax, -16(%rbp)
	movq	-16(%rbp), %rax
	addq	$1, %rax
	movq	-56(%rbp), %rcx
	cmpq	448(%rcx), %rax
	jg	.LBB29_8
# %bb.5:                                # %if.then
                                        #   in Loop: Header=BB29_1 Depth=1
	movq	-8(%rbp), %rax
	movq	-16(%rbp), %rcx
	subq	$1, %rcx
	shlq	$6, %rcx
	addq	%rcx, %rax
	movq	48(%rax), %rax
	movq	-8(%rbp), %rcx
	movq	-16(%rbp), %rdx
	shlq	$6, %rdx
	addq	%rdx, %rcx
	cmpq	48(%rcx), %rax
	jge	.LBB29_7
# %bb.6:                                # %if.then74
                                        #   in Loop: Header=BB29_1 Depth=1
	movq	-16(%rbp), %rax
	addq	$1, %rax
	movq	%rax, -16(%rbp)
.LBB29_7:                               # %if.end
                                        #   in Loop: Header=BB29_1 Depth=1
	jmp	.LBB29_8
.LBB29_8:                               # %if.end75
                                        #   in Loop: Header=BB29_1 Depth=1
	jmp	.LBB29_1
.LBB29_9:                               # %while.end
	cmpl	$1858317342, -44(%rbp)  # imm = 0x6EC3AC1E
	jne	.LBB29_11
.LBB29_10:
	addq	$80, %rsp
	popq	%rbp
	.cfi_def_cfa %rsp, 8
	retq
.LBB29_11:                              # %func_exit
	.cfi_def_cfa %rbp, 16
	callq	detect_breach
	jmp	.LBB29_10
.Lfunc_end29:
	.size	replace_weaker_arc.25, .Lfunc_end29-replace_weaker_arc.25
	.cfi_endproc
                                        # -- End function
	.globl	suspend_impl.26         # -- Begin function suspend_impl.26
	.p2align	4, 0x90
	.type	suspend_impl.26,@function
suspend_impl.26:                        # @suspend_impl.26
	.cfi_startproc
# %bb.0:                                # %entry
	pushq	%rbp
	.cfi_def_cfa_offset 16
	.cfi_offset %rbp, -16
	movq	%rsp, %rbp
	.cfi_def_cfa_register %rbp
	pushq	%rbx
	subq	$72, %rsp
	.cfi_offset %rbx, -24
	movl	$2060243729, -44(%rbp)  # imm = 0x7ACCD311
	movq	%rdi, -24(%rbp)
	movq	%rsi, -80(%rbp)
	movq	%rdx, -64(%rbp)
	cmpq	$0, -64(%rbp)
	je	.LBB30_2
# %bb.1:                                # %if.then
	movq	-24(%rbp), %rax
	movq	440(%rax), %rax
	movq	%rax, -32(%rbp)
	jmp	.LBB30_18
.LBB30_2:                               # %if.else
	movq	-24(%rbp), %rax
	movq	576(%rax), %rax
	movq	%rax, -72(%rbp)
	movq	-24(%rbp), %rax
	movq	568(%rax), %rax
	movq	-24(%rbp), %rcx
	movq	424(%rcx), %rcx
	movq	-24(%rbp), %rdx
	subq	440(%rdx), %rcx
	shlq	$6, %rcx
	addq	%rcx, %rax
	movq	%rax, -40(%rbp)
	movq	$0, -32(%rbp)
	movq	-40(%rbp), %rax
	movq	%rax, -16(%rbp)
.LBB30_3:                               # %for.cond
                                        # =>This Inner Loop Header: Depth=1
	movq	-16(%rbp), %rax
	movq	-72(%rbp), %rcx
	cmpq	%rcx, %rax
	jae	.LBB30_17
# %bb.4:                                # %for.body
                                        #   in Loop: Header=BB30_3 Depth=1
	movq	-16(%rbp), %rax
	cmpl	$1, 24(%rax)
	jne	.LBB30_6
# %bb.5:                                # %if.then3
                                        #   in Loop: Header=BB30_3 Depth=1
	movq	-16(%rbp), %rax
	movq	(%rax), %rax
	movq	-16(%rbp), %rcx
	movq	8(%rcx), %rcx
	subq	(%rcx), %rax
	movq	-16(%rbp), %rcx
	movq	16(%rcx), %rcx
	addq	(%rcx), %rax
	movq	%rax, -56(%rbp)
	jmp	.LBB30_12
.LBB30_6:                               # %if.else6
                                        #   in Loop: Header=BB30_3 Depth=1
	movq	$-2, -56(%rbp)
	movq	-16(%rbp), %rax
	cmpl	$0, 24(%rax)
	jne	.LBB30_11
# %bb.7:                                # %if.then9
                                        #   in Loop: Header=BB30_3 Depth=1
	movq	-16(%rbp), %rax
	movq	8(%rax), %rax
	movq	48(%rax), %rax
	cmpq	-16(%rbp), %rax
	jne	.LBB30_9
# %bb.8:                                # %if.then12
                                        #   in Loop: Header=BB30_3 Depth=1
	movq	-40(%rbp), %rax
	movq	-16(%rbp), %rcx
	movq	8(%rcx), %rcx
	movq	%rax, 48(%rcx)
	jmp	.LBB30_10
.LBB30_9:                               # %if.else15
                                        #   in Loop: Header=BB30_3 Depth=1
	movq	-40(%rbp), %rax
	movq	-16(%rbp), %rcx
	movq	16(%rcx), %rcx
	movq	%rax, 48(%rcx)
.LBB30_10:                              # %if.end
                                        #   in Loop: Header=BB30_3 Depth=1
	jmp	.LBB30_11
.LBB30_11:                              # %if.end18
                                        #   in Loop: Header=BB30_3 Depth=1
	jmp	.LBB30_12
.LBB30_12:                              # %if.end19
                                        #   in Loop: Header=BB30_3 Depth=1
	movq	-56(%rbp), %rax
	cmpq	-80(%rbp), %rax
	jle	.LBB30_14
# %bb.13:                               # %if.then21
                                        #   in Loop: Header=BB30_3 Depth=1
	movq	-32(%rbp), %rax
	addq	$1, %rax
	movq	%rax, -32(%rbp)
	jmp	.LBB30_15
.LBB30_14:                              # %if.else22
                                        #   in Loop: Header=BB30_3 Depth=1
	movq	-40(%rbp), %rdi
	movq	-16(%rbp), %rsi
	movl	$64, %edx
	callq	memcpy
	movq	-40(%rbp), %rax
	addq	$64, %rax
	movq	%rax, -40(%rbp)
.LBB30_15:                              # %if.end23
                                        #   in Loop: Header=BB30_3 Depth=1
	jmp	.LBB30_16
.LBB30_16:                              # %for.inc
                                        #   in Loop: Header=BB30_3 Depth=1
	movq	-16(%rbp), %rax
	addq	$64, %rax
	movq	%rax, -16(%rbp)
	jmp	.LBB30_3
.LBB30_17:                              # %for.end
	jmp	.LBB30_18
.LBB30_18:                              # %if.end25
	cmpq	$0, -32(%rbp)
	je	.LBB30_20
# %bb.19:                               # %if.then27
	xorl	%eax, %eax
	movq	-32(%rbp), %rcx
	movq	-24(%rbp), %rdx
	movq	424(%rdx), %rsi
	subq	%rcx, %rsi
	movq	%rsi, 424(%rdx)
	movq	-32(%rbp), %rcx
	movq	-24(%rbp), %rdx
	movq	440(%rdx), %rsi
	subq	%rcx, %rsi
	movq	%rsi, 440(%rdx)
	movq	-32(%rbp), %rcx
	movq	-24(%rbp), %rdx
	movq	576(%rdx), %rsi
	subq	%rcx, %rax
	shlq	$6, %rax
	addq	%rax, %rsi
	movq	%rsi, 576(%rdx)
	movq	-32(%rbp), %rax
	movq	-24(%rbp), %rcx
	addq	448(%rcx), %rax
	movq	%rax, 448(%rcx)
	movq	-24(%rbp), %rdi
	callq	refresh_neighbour_lists
.LBB30_20:                              # %if.end34
	movq	-32(%rbp), %rbx
	cmpl	$2060243729, -44(%rbp)  # imm = 0x7ACCD311
	jne	.LBB30_22
.LBB30_21:
	movq	%rbx, %rax
	addq	$72, %rsp
	popq	%rbx
	popq	%rbp
	.cfi_def_cfa %rsp, 8
	retq
.LBB30_22:                              # %func_exit
	.cfi_def_cfa %rbp, 16
	callq	detect_breach
	jmp	.LBB30_21
.Lfunc_end30:
	.size	suspend_impl.26, .Lfunc_end30-suspend_impl.26
	.cfi_endproc
                                        # -- End function
	.globl	resize_prob.27          # -- Begin function resize_prob.27
	.p2align	4, 0x90
	.type	resize_prob.27,@function
resize_prob.27:                         # @resize_prob.27
	.cfi_startproc
# %bb.0:                                # %entry
	pushq	%rbp
	.cfi_def_cfa_offset 16
	.cfi_offset %rbp, -16
	movq	%rsp, %rbp
	.cfi_def_cfa_register %rbp
	pushq	%rbx
	subq	$72, %rsp
	.cfi_offset %rbx, -24
	movl	$1988019243, -36(%rbp)  # imm = 0x767EC42B
	movq	%rdi, -16(%rbp)
	movq	-16(%rbp), %rax
	movq	456(%rax), %rax
	movq	-16(%rbp), %rcx
	addq	416(%rcx), %rax
	movq	%rax, 416(%rcx)
	movq	-16(%rbp), %rax
	movq	456(%rax), %rax
	movq	-16(%rbp), %rcx
	addq	448(%rcx), %rax
	movq	%rax, 448(%rcx)
	movq	-16(%rbp), %rax
	movq	568(%rax), %rdi
	movq	-16(%rbp), %rax
	movq	416(%rax), %rsi
	shlq	$6, %rsi
	callq	realloc
	movq	%rax, -32(%rbp)
	cmpq	$0, -32(%rbp)
	jne	.LBB31_2
# %bb.1:                                # %if.then
	movq	-16(%rbp), %rsi
	movabsq	$.L.str, %rdi
	movb	$0, %al
	callq	printf
	movq	stdout, %rdi
	callq	fflush
	movq	$-1, -48(%rbp)
	jmp	.LBB31_9
.LBB31_2:                               # %if.end
	movq	-32(%rbp), %rax
	movq	-16(%rbp), %rcx
	movq	568(%rcx), %rcx
	subq	%rcx, %rax
	movq	%rax, -56(%rbp)
	movq	-32(%rbp), %rax
	movq	-16(%rbp), %rcx
	movq	%rax, 568(%rcx)
	movq	-32(%rbp), %rax
	movq	-16(%rbp), %rcx
	movq	424(%rcx), %rcx
	shlq	$6, %rcx
	addq	%rcx, %rax
	movq	-16(%rbp), %rcx
	movq	%rax, 576(%rcx)
	movq	-16(%rbp), %rax
	movq	552(%rax), %rax
	movq	%rax, -24(%rbp)
	movq	%rax, -72(%rbp)
	movq	-24(%rbp), %rax
	addq	$104, %rax
	movq	%rax, -24(%rbp)
	movq	-16(%rbp), %rax
	movq	560(%rax), %rax
	movq	%rax, -64(%rbp)
.LBB31_3:                               # %for.cond
                                        # =>This Inner Loop Header: Depth=1
	movq	-24(%rbp), %rax
	cmpq	-64(%rbp), %rax
	jae	.LBB31_8
# %bb.4:                                # %for.body
                                        #   in Loop: Header=BB31_3 Depth=1
	movq	-24(%rbp), %rax
	movq	24(%rax), %rax
	cmpq	-72(%rbp), %rax
	je	.LBB31_6
# %bb.5:                                # %if.then9
                                        #   in Loop: Header=BB31_3 Depth=1
	movq	-24(%rbp), %rax
	movq	48(%rax), %rax
	addq	-56(%rbp), %rax
	movq	-24(%rbp), %rcx
	movq	%rax, 48(%rcx)
.LBB31_6:                               # %if.end12
                                        #   in Loop: Header=BB31_3 Depth=1
	jmp	.LBB31_7
.LBB31_7:                               # %for.inc
                                        #   in Loop: Header=BB31_3 Depth=1
	movq	-24(%rbp), %rax
	addq	$104, %rax
	movq	%rax, -24(%rbp)
	jmp	.LBB31_3
.LBB31_8:                               # %for.end
	movq	$0, -48(%rbp)
.LBB31_9:                               # %return
	movq	-48(%rbp), %rbx
	cmpl	$1988019243, -36(%rbp)  # imm = 0x767EC42B
	jne	.LBB31_11
.LBB31_10:
	movq	%rbx, %rax
	addq	$72, %rsp
	popq	%rbx
	popq	%rbp
	.cfi_def_cfa %rsp, 8
	retq
.LBB31_11:                              # %func_exit
	.cfi_def_cfa %rbp, 16
	callq	detect_breach
	jmp	.LBB31_10
.Lfunc_end31:
	.size	resize_prob.27, .Lfunc_end31-resize_prob.27
	.cfi_endproc
                                        # -- End function
	.globl	insert_new_arc.28       # -- Begin function insert_new_arc.28
	.p2align	4, 0x90
	.type	insert_new_arc.28,@function
insert_new_arc.28:                      # @insert_new_arc.28
	.cfi_startproc
# %bb.0:                                # %entry
	pushq	%rbp
	.cfi_def_cfa_offset 16
	.cfi_offset %rbp, -16
	movq	%rsp, %rbp
	.cfi_def_cfa_register %rbp
	subq	$64, %rsp
	movl	$1012247323, -44(%rbp)  # imm = 0x3C55AB1B
	movq	%rdi, -8(%rbp)
	movq	%rsi, -24(%rbp)
	movq	%rdx, -56(%rbp)
	movq	%rcx, -64(%rbp)
	movq	%r8, -32(%rbp)
	movq	%r9, -40(%rbp)
	movq	-56(%rbp), %rax
	movq	-8(%rbp), %rcx
	movq	-24(%rbp), %rdx
	shlq	$6, %rdx
	addq	%rdx, %rcx
	movq	%rax, 8(%rcx)
	movq	-64(%rbp), %rax
	movq	-8(%rbp), %rcx
	movq	-24(%rbp), %rdx
	shlq	$6, %rdx
	addq	%rdx, %rcx
	movq	%rax, 16(%rcx)
	movq	-32(%rbp), %rax
	movq	-8(%rbp), %rcx
	movq	-24(%rbp), %rdx
	shlq	$6, %rdx
	addq	%rdx, %rcx
	movq	%rax, 56(%rcx)
	movq	-32(%rbp), %rax
	movq	-8(%rbp), %rcx
	movq	-24(%rbp), %rdx
	shlq	$6, %rdx
	addq	%rdx, %rcx
	movq	%rax, (%rcx)
	movq	-40(%rbp), %rax
	movq	-8(%rbp), %rcx
	movq	-24(%rbp), %rdx
	shlq	$6, %rdx
	addq	%rdx, %rcx
	movq	%rax, 48(%rcx)
	movq	-24(%rbp), %rax
	addq	$1, %rax
	movq	%rax, -16(%rbp)
.LBB32_1:                               # %while.cond
                                        # =>This Inner Loop Header: Depth=1
	xorl	%eax, %eax
	movq	-16(%rbp), %rcx
	subq	$1, %rcx
	cmpq	$0, %rcx
	je	.LBB32_3
# %bb.2:                                # %land.rhs
                                        #   in Loop: Header=BB32_1 Depth=1
	movq	-40(%rbp), %rcx
	movq	-8(%rbp), %rsi
	movq	-16(%rbp), %rax
	cqto
	movl	$2, %edi
	idivq	%rdi
	subq	$1, %rax
	shlq	$6, %rax
	addq	%rax, %rsi
	cmpq	48(%rsi), %rcx
	setg	%al
.LBB32_3:                               # %land.end
                                        #   in Loop: Header=BB32_1 Depth=1
	testb	$1, %al
	jne	.LBB32_4
	jmp	.LBB32_5
.LBB32_4:                               # %while.body
                                        #   in Loop: Header=BB32_1 Depth=1
	movq	-8(%rbp), %rsi
	movq	-16(%rbp), %rax
	cqto
	movl	$2, %ecx
	idivq	%rcx
	subq	$1, %rax
	shlq	$6, %rax
	addq	%rax, %rsi
	movq	8(%rsi), %rax
	movq	-8(%rbp), %rdx
	movq	-16(%rbp), %rsi
	subq	$1, %rsi
	shlq	$6, %rsi
	addq	%rsi, %rdx
	movq	%rax, 8(%rdx)
	movq	-8(%rbp), %rsi
	movq	-16(%rbp), %rax
	cqto
	idivq	%rcx
	subq	$1, %rax
	shlq	$6, %rax
	addq	%rax, %rsi
	movq	16(%rsi), %rax
	movq	-8(%rbp), %rdx
	movq	-16(%rbp), %rsi
	subq	$1, %rsi
	shlq	$6, %rsi
	addq	%rsi, %rdx
	movq	%rax, 16(%rdx)
	movq	-8(%rbp), %rsi
	movq	-16(%rbp), %rax
	cqto
	idivq	%rcx
	subq	$1, %rax
	shlq	$6, %rax
	addq	%rax, %rsi
	movq	(%rsi), %rax
	movq	-8(%rbp), %rdx
	movq	-16(%rbp), %rsi
	subq	$1, %rsi
	shlq	$6, %rsi
	addq	%rsi, %rdx
	movq	%rax, (%rdx)
	movq	-8(%rbp), %rsi
	movq	-16(%rbp), %rax
	cqto
	idivq	%rcx
	subq	$1, %rax
	shlq	$6, %rax
	addq	%rax, %rsi
	movq	(%rsi), %rax
	movq	-8(%rbp), %rdx
	movq	-16(%rbp), %rsi
	subq	$1, %rsi
	shlq	$6, %rsi
	addq	%rsi, %rdx
	movq	%rax, 56(%rdx)
	movq	-8(%rbp), %rsi
	movq	-16(%rbp), %rax
	cqto
	idivq	%rcx
	subq	$1, %rax
	shlq	$6, %rax
	addq	%rax, %rsi
	movq	48(%rsi), %rax
	movq	-8(%rbp), %rdx
	movq	-16(%rbp), %rsi
	subq	$1, %rsi
	shlq	$6, %rsi
	addq	%rsi, %rdx
	movq	%rax, 48(%rdx)
	movq	-16(%rbp), %rax
	cqto
	idivq	%rcx
	movq	%rax, -16(%rbp)
	movq	-56(%rbp), %rax
	movq	-8(%rbp), %rcx
	movq	-16(%rbp), %rdx
	subq	$1, %rdx
	shlq	$6, %rdx
	addq	%rdx, %rcx
	movq	%rax, 8(%rcx)
	movq	-64(%rbp), %rax
	movq	-8(%rbp), %rcx
	movq	-16(%rbp), %rdx
	subq	$1, %rdx
	shlq	$6, %rdx
	addq	%rdx, %rcx
	movq	%rax, 16(%rcx)
	movq	-32(%rbp), %rax
	movq	-8(%rbp), %rcx
	movq	-16(%rbp), %rdx
	subq	$1, %rdx
	shlq	$6, %rdx
	addq	%rdx, %rcx
	movq	%rax, (%rcx)
	movq	-32(%rbp), %rax
	movq	-8(%rbp), %rcx
	movq	-16(%rbp), %rdx
	subq	$1, %rdx
	shlq	$6, %rdx
	addq	%rdx, %rcx
	movq	%rax, 56(%rcx)
	movq	-40(%rbp), %rax
	movq	-8(%rbp), %rcx
	movq	-16(%rbp), %rdx
	subq	$1, %rdx
	shlq	$6, %rdx
	addq	%rdx, %rcx
	movq	%rax, 48(%rcx)
	jmp	.LBB32_1
.LBB32_5:                               # %while.end
	cmpl	$1012247323, -44(%rbp)  # imm = 0x3C55AB1B
	jne	.LBB32_7
.LBB32_6:
	addq	$64, %rsp
	popq	%rbp
	.cfi_def_cfa %rsp, 8
	retq
.LBB32_7:                               # %func_exit
	.cfi_def_cfa %rbp, 16
	callq	detect_breach
	jmp	.LBB32_6
.Lfunc_end32:
	.size	insert_new_arc.28, .Lfunc_end32-insert_new_arc.28
	.cfi_endproc
                                        # -- End function
	.globl	insert_new_arc.29       # -- Begin function insert_new_arc.29
	.p2align	4, 0x90
	.type	insert_new_arc.29,@function
insert_new_arc.29:                      # @insert_new_arc.29
	.cfi_startproc
# %bb.0:                                # %entry
	pushq	%rbp
	.cfi_def_cfa_offset 16
	.cfi_offset %rbp, -16
	movq	%rsp, %rbp
	.cfi_def_cfa_register %rbp
	subq	$64, %rsp
	movl	$1827126693, -44(%rbp)  # imm = 0x6CE7BDA5
	movq	%rdi, -8(%rbp)
	movq	%rsi, -24(%rbp)
	movq	%rdx, -56(%rbp)
	movq	%rcx, -64(%rbp)
	movq	%r8, -32(%rbp)
	movq	%r9, -40(%rbp)
	movq	-56(%rbp), %rax
	movq	-8(%rbp), %rcx
	movq	-24(%rbp), %rdx
	shlq	$6, %rdx
	addq	%rdx, %rcx
	movq	%rax, 8(%rcx)
	movq	-64(%rbp), %rax
	movq	-8(%rbp), %rcx
	movq	-24(%rbp), %rdx
	shlq	$6, %rdx
	addq	%rdx, %rcx
	movq	%rax, 16(%rcx)
	movq	-32(%rbp), %rax
	movq	-8(%rbp), %rcx
	movq	-24(%rbp), %rdx
	shlq	$6, %rdx
	addq	%rdx, %rcx
	movq	%rax, 56(%rcx)
	movq	-32(%rbp), %rax
	movq	-8(%rbp), %rcx
	movq	-24(%rbp), %rdx
	shlq	$6, %rdx
	addq	%rdx, %rcx
	movq	%rax, (%rcx)
	movq	-40(%rbp), %rax
	movq	-8(%rbp), %rcx
	movq	-24(%rbp), %rdx
	shlq	$6, %rdx
	addq	%rdx, %rcx
	movq	%rax, 48(%rcx)
	movq	-24(%rbp), %rax
	addq	$1, %rax
	movq	%rax, -16(%rbp)
.LBB33_1:                               # %while.cond
                                        # =>This Inner Loop Header: Depth=1
	xorl	%eax, %eax
	movq	-16(%rbp), %rcx
	subq	$1, %rcx
	cmpq	$0, %rcx
	je	.LBB33_3
# %bb.2:                                # %land.rhs
                                        #   in Loop: Header=BB33_1 Depth=1
	movq	-40(%rbp), %rcx
	movq	-8(%rbp), %rsi
	movq	-16(%rbp), %rax
	cqto
	movl	$2, %edi
	idivq	%rdi
	subq	$1, %rax
	shlq	$6, %rax
	addq	%rax, %rsi
	cmpq	48(%rsi), %rcx
	setg	%al
.LBB33_3:                               # %land.end
                                        #   in Loop: Header=BB33_1 Depth=1
	testb	$1, %al
	jne	.LBB33_4
	jmp	.LBB33_5
.LBB33_4:                               # %while.body
                                        #   in Loop: Header=BB33_1 Depth=1
	movq	-8(%rbp), %rsi
	movq	-16(%rbp), %rax
	cqto
	movl	$2, %ecx
	idivq	%rcx
	subq	$1, %rax
	shlq	$6, %rax
	addq	%rax, %rsi
	movq	8(%rsi), %rax
	movq	-8(%rbp), %rdx
	movq	-16(%rbp), %rsi
	subq	$1, %rsi
	shlq	$6, %rsi
	addq	%rsi, %rdx
	movq	%rax, 8(%rdx)
	movq	-8(%rbp), %rsi
	movq	-16(%rbp), %rax
	cqto
	idivq	%rcx
	subq	$1, %rax
	shlq	$6, %rax
	addq	%rax, %rsi
	movq	16(%rsi), %rax
	movq	-8(%rbp), %rdx
	movq	-16(%rbp), %rsi
	subq	$1, %rsi
	shlq	$6, %rsi
	addq	%rsi, %rdx
	movq	%rax, 16(%rdx)
	movq	-8(%rbp), %rsi
	movq	-16(%rbp), %rax
	cqto
	idivq	%rcx
	subq	$1, %rax
	shlq	$6, %rax
	addq	%rax, %rsi
	movq	(%rsi), %rax
	movq	-8(%rbp), %rdx
	movq	-16(%rbp), %rsi
	subq	$1, %rsi
	shlq	$6, %rsi
	addq	%rsi, %rdx
	movq	%rax, (%rdx)
	movq	-8(%rbp), %rsi
	movq	-16(%rbp), %rax
	cqto
	idivq	%rcx
	subq	$1, %rax
	shlq	$6, %rax
	addq	%rax, %rsi
	movq	(%rsi), %rax
	movq	-8(%rbp), %rdx
	movq	-16(%rbp), %rsi
	subq	$1, %rsi
	shlq	$6, %rsi
	addq	%rsi, %rdx
	movq	%rax, 56(%rdx)
	movq	-8(%rbp), %rsi
	movq	-16(%rbp), %rax
	cqto
	idivq	%rcx
	subq	$1, %rax
	shlq	$6, %rax
	addq	%rax, %rsi
	movq	48(%rsi), %rax
	movq	-8(%rbp), %rdx
	movq	-16(%rbp), %rsi
	subq	$1, %rsi
	shlq	$6, %rsi
	addq	%rsi, %rdx
	movq	%rax, 48(%rdx)
	movq	-16(%rbp), %rax
	cqto
	idivq	%rcx
	movq	%rax, -16(%rbp)
	movq	-56(%rbp), %rax
	movq	-8(%rbp), %rcx
	movq	-16(%rbp), %rdx
	subq	$1, %rdx
	shlq	$6, %rdx
	addq	%rdx, %rcx
	movq	%rax, 8(%rcx)
	movq	-64(%rbp), %rax
	movq	-8(%rbp), %rcx
	movq	-16(%rbp), %rdx
	subq	$1, %rdx
	shlq	$6, %rdx
	addq	%rdx, %rcx
	movq	%rax, 16(%rcx)
	movq	-32(%rbp), %rax
	movq	-8(%rbp), %rcx
	movq	-16(%rbp), %rdx
	subq	$1, %rdx
	shlq	$6, %rdx
	addq	%rdx, %rcx
	movq	%rax, (%rcx)
	movq	-32(%rbp), %rax
	movq	-8(%rbp), %rcx
	movq	-16(%rbp), %rdx
	subq	$1, %rdx
	shlq	$6, %rdx
	addq	%rdx, %rcx
	movq	%rax, 56(%rcx)
	movq	-40(%rbp), %rax
	movq	-8(%rbp), %rcx
	movq	-16(%rbp), %rdx
	subq	$1, %rdx
	shlq	$6, %rdx
	addq	%rdx, %rcx
	movq	%rax, 48(%rcx)
	jmp	.LBB33_1
.LBB33_5:                               # %while.end
	cmpl	$1827126693, -44(%rbp)  # imm = 0x6CE7BDA5
	jne	.LBB33_7
.LBB33_6:
	addq	$64, %rsp
	popq	%rbp
	.cfi_def_cfa %rsp, 8
	retq
.LBB33_7:                               # %func_exit
	.cfi_def_cfa %rbp, 16
	callq	detect_breach
	jmp	.LBB33_6
.Lfunc_end33:
	.size	insert_new_arc.29, .Lfunc_end33-insert_new_arc.29
	.cfi_endproc
                                        # -- End function
	.globl	insert_new_arc.30       # -- Begin function insert_new_arc.30
	.p2align	4, 0x90
	.type	insert_new_arc.30,@function
insert_new_arc.30:                      # @insert_new_arc.30
	.cfi_startproc
# %bb.0:                                # %entry
	pushq	%rbp
	.cfi_def_cfa_offset 16
	.cfi_offset %rbp, -16
	movq	%rsp, %rbp
	.cfi_def_cfa_register %rbp
	subq	$64, %rsp
	movl	$547739701, -44(%rbp)   # imm = 0x20A5D835
	movq	%rdi, -8(%rbp)
	movq	%rsi, -24(%rbp)
	movq	%rdx, -56(%rbp)
	movq	%rcx, -64(%rbp)
	movq	%r8, -32(%rbp)
	movq	%r9, -40(%rbp)
	movq	-56(%rbp), %rax
	movq	-8(%rbp), %rcx
	movq	-24(%rbp), %rdx
	shlq	$6, %rdx
	addq	%rdx, %rcx
	movq	%rax, 8(%rcx)
	movq	-64(%rbp), %rax
	movq	-8(%rbp), %rcx
	movq	-24(%rbp), %rdx
	shlq	$6, %rdx
	addq	%rdx, %rcx
	movq	%rax, 16(%rcx)
	movq	-32(%rbp), %rax
	movq	-8(%rbp), %rcx
	movq	-24(%rbp), %rdx
	shlq	$6, %rdx
	addq	%rdx, %rcx
	movq	%rax, 56(%rcx)
	movq	-32(%rbp), %rax
	movq	-8(%rbp), %rcx
	movq	-24(%rbp), %rdx
	shlq	$6, %rdx
	addq	%rdx, %rcx
	movq	%rax, (%rcx)
	movq	-40(%rbp), %rax
	movq	-8(%rbp), %rcx
	movq	-24(%rbp), %rdx
	shlq	$6, %rdx
	addq	%rdx, %rcx
	movq	%rax, 48(%rcx)
	movq	-24(%rbp), %rax
	addq	$1, %rax
	movq	%rax, -16(%rbp)
.LBB34_1:                               # %while.cond
                                        # =>This Inner Loop Header: Depth=1
	xorl	%eax, %eax
	movq	-16(%rbp), %rcx
	subq	$1, %rcx
	cmpq	$0, %rcx
	je	.LBB34_3
# %bb.2:                                # %land.rhs
                                        #   in Loop: Header=BB34_1 Depth=1
	movq	-40(%rbp), %rcx
	movq	-8(%rbp), %rsi
	movq	-16(%rbp), %rax
	cqto
	movl	$2, %edi
	idivq	%rdi
	subq	$1, %rax
	shlq	$6, %rax
	addq	%rax, %rsi
	cmpq	48(%rsi), %rcx
	setg	%al
.LBB34_3:                               # %land.end
                                        #   in Loop: Header=BB34_1 Depth=1
	testb	$1, %al
	jne	.LBB34_4
	jmp	.LBB34_5
.LBB34_4:                               # %while.body
                                        #   in Loop: Header=BB34_1 Depth=1
	movq	-8(%rbp), %rsi
	movq	-16(%rbp), %rax
	cqto
	movl	$2, %ecx
	idivq	%rcx
	subq	$1, %rax
	shlq	$6, %rax
	addq	%rax, %rsi
	movq	8(%rsi), %rax
	movq	-8(%rbp), %rdx
	movq	-16(%rbp), %rsi
	subq	$1, %rsi
	shlq	$6, %rsi
	addq	%rsi, %rdx
	movq	%rax, 8(%rdx)
	movq	-8(%rbp), %rsi
	movq	-16(%rbp), %rax
	cqto
	idivq	%rcx
	subq	$1, %rax
	shlq	$6, %rax
	addq	%rax, %rsi
	movq	16(%rsi), %rax
	movq	-8(%rbp), %rdx
	movq	-16(%rbp), %rsi
	subq	$1, %rsi
	shlq	$6, %rsi
	addq	%rsi, %rdx
	movq	%rax, 16(%rdx)
	movq	-8(%rbp), %rsi
	movq	-16(%rbp), %rax
	cqto
	idivq	%rcx
	subq	$1, %rax
	shlq	$6, %rax
	addq	%rax, %rsi
	movq	(%rsi), %rax
	movq	-8(%rbp), %rdx
	movq	-16(%rbp), %rsi
	subq	$1, %rsi
	shlq	$6, %rsi
	addq	%rsi, %rdx
	movq	%rax, (%rdx)
	movq	-8(%rbp), %rsi
	movq	-16(%rbp), %rax
	cqto
	idivq	%rcx
	subq	$1, %rax
	shlq	$6, %rax
	addq	%rax, %rsi
	movq	(%rsi), %rax
	movq	-8(%rbp), %rdx
	movq	-16(%rbp), %rsi
	subq	$1, %rsi
	shlq	$6, %rsi
	addq	%rsi, %rdx
	movq	%rax, 56(%rdx)
	movq	-8(%rbp), %rsi
	movq	-16(%rbp), %rax
	cqto
	idivq	%rcx
	subq	$1, %rax
	shlq	$6, %rax
	addq	%rax, %rsi
	movq	48(%rsi), %rax
	movq	-8(%rbp), %rdx
	movq	-16(%rbp), %rsi
	subq	$1, %rsi
	shlq	$6, %rsi
	addq	%rsi, %rdx
	movq	%rax, 48(%rdx)
	movq	-16(%rbp), %rax
	cqto
	idivq	%rcx
	movq	%rax, -16(%rbp)
	movq	-56(%rbp), %rax
	movq	-8(%rbp), %rcx
	movq	-16(%rbp), %rdx
	subq	$1, %rdx
	shlq	$6, %rdx
	addq	%rdx, %rcx
	movq	%rax, 8(%rcx)
	movq	-64(%rbp), %rax
	movq	-8(%rbp), %rcx
	movq	-16(%rbp), %rdx
	subq	$1, %rdx
	shlq	$6, %rdx
	addq	%rdx, %rcx
	movq	%rax, 16(%rcx)
	movq	-32(%rbp), %rax
	movq	-8(%rbp), %rcx
	movq	-16(%rbp), %rdx
	subq	$1, %rdx
	shlq	$6, %rdx
	addq	%rdx, %rcx
	movq	%rax, (%rcx)
	movq	-32(%rbp), %rax
	movq	-8(%rbp), %rcx
	movq	-16(%rbp), %rdx
	subq	$1, %rdx
	shlq	$6, %rdx
	addq	%rdx, %rcx
	movq	%rax, 56(%rcx)
	movq	-40(%rbp), %rax
	movq	-8(%rbp), %rcx
	movq	-16(%rbp), %rdx
	subq	$1, %rdx
	shlq	$6, %rdx
	addq	%rdx, %rcx
	movq	%rax, 48(%rcx)
	jmp	.LBB34_1
.LBB34_5:                               # %while.end
	cmpl	$547739701, -44(%rbp)   # imm = 0x20A5D835
	jne	.LBB34_7
.LBB34_6:
	addq	$64, %rsp
	popq	%rbp
	.cfi_def_cfa %rsp, 8
	retq
.LBB34_7:                               # %func_exit
	.cfi_def_cfa %rbp, 16
	callq	detect_breach
	jmp	.LBB34_6
.Lfunc_end34:
	.size	insert_new_arc.30, .Lfunc_end34-insert_new_arc.30
	.cfi_endproc
                                        # -- End function
	.globl	price_out_impl.31       # -- Begin function price_out_impl.31
	.p2align	4, 0x90
	.type	price_out_impl.31,@function
price_out_impl.31:                      # @price_out_impl.31
	.cfi_startproc
# %bb.0:                                # %entry
	pushq	%rbp
	.cfi_def_cfa_offset 16
	.cfi_offset %rbp, -16
	movq	%rsp, %rbp
	.cfi_def_cfa_register %rbp
	pushq	%rbx
	subq	$168, %rsp
	.cfi_offset %rbx, -24
	movl	$689906105, -100(%rbp)  # imm = 0x291F21B9
	movq	%rdi, -16(%rbp)
	movq	$0, -40(%rbp)
	movq	$0, -112(%rbp)
	movq	$15, -152(%rbp)
	movq	-16(%rbp), %rax
	movq	528(%rax), %rax
	movq	%rax, -160(%rbp)
	movq	$30, -88(%rbp)
	movq	-160(%rbp), %rax
	subq	-152(%rbp), %rax
	movq	%rax, -168(%rbp)
	movq	-16(%rbp), %rax
	cmpq	$15000, 408(%rax)       # imm = 0x3A98
	jg	.LBB35_7
# %bb.1:                                # %if.then
	movq	-16(%rbp), %rax
	movq	424(%rax), %rax
	movq	-16(%rbp), %rcx
	addq	456(%rcx), %rax
	movq	-16(%rbp), %rcx
	cmpq	416(%rcx), %rax
	jle	.LBB35_6
# %bb.2:                                # %land.lhs.true
	movq	-16(%rbp), %rax
	movq	408(%rax), %rax
	movq	-16(%rbp), %rcx
	imulq	408(%rcx), %rax
	cqto
	movl	$2, %ecx
	idivq	%rcx
	movq	-16(%rbp), %rcx
	addq	424(%rcx), %rax
	movq	-16(%rbp), %rcx
	cmpq	416(%rcx), %rax
	jle	.LBB35_6
# %bb.3:                                # %if.then9
	movq	$1, -112(%rbp)
	movq	-16(%rbp), %rdi
	callq	resize_prob
	cmpq	$0, %rax
	je	.LBB35_5
# %bb.4:                                # %if.then10
	movq	$-1, -128(%rbp)
	jmp	.LBB35_48
.LBB35_5:                               # %if.end
	movq	-16(%rbp), %rdi
	callq	refresh_neighbour_lists
.LBB35_6:                               # %if.end11
	jmp	.LBB35_7
.LBB35_7:                               # %if.end12
	movq	-16(%rbp), %rax
	movq	576(%rax), %rax
	movq	%rax, -24(%rbp)
	movq	-16(%rbp), %rax
	movq	408(%rax), %rax
	movq	%rax, -120(%rbp)
	movq	-16(%rbp), %rax
	movq	568(%rax), %rax
	movq	%rax, -32(%rbp)
	movq	$0, -56(%rbp)
.LBB35_8:                               # %for.cond
                                        # =>This Inner Loop Header: Depth=1
	xorl	%eax, %eax
	movq	-56(%rbp), %rcx
	cmpq	-120(%rbp), %rcx
	jge	.LBB35_10
# %bb.9:                                # %land.rhs
                                        #   in Loop: Header=BB35_8 Depth=1
	movq	-32(%rbp), %rax
	cmpl	$-1, 88(%rax)
	sete	%al
.LBB35_10:                              # %land.end
                                        #   in Loop: Header=BB35_8 Depth=1
	testb	$1, %al
	jne	.LBB35_11
	jmp	.LBB35_13
.LBB35_11:                              # %for.body
                                        #   in Loop: Header=BB35_8 Depth=1
	jmp	.LBB35_12
.LBB35_12:                              # %for.inc
                                        #   in Loop: Header=BB35_8 Depth=1
	movq	-56(%rbp), %rax
	addq	$1, %rax
	movq	%rax, -56(%rbp)
	movq	-32(%rbp), %rax
	addq	$192, %rax
	movq	%rax, -32(%rbp)
	jmp	.LBB35_8
.LBB35_13:                              # %for.end
	movq	$0, -96(%rbp)
.LBB35_14:                              # %for.cond16
                                        # =>This Loop Header: Depth=1
                                        #     Child Loop BB35_20 Depth 2
	movq	-56(%rbp), %rax
	cmpq	-120(%rbp), %rax
	jge	.LBB35_34
# %bb.15:                               # %for.body18
                                        #   in Loop: Header=BB35_14 Depth=1
	movq	-32(%rbp), %rax
	cmpl	$-1, 88(%rax)
	je	.LBB35_17
# %bb.16:                               # %if.then22
                                        #   in Loop: Header=BB35_14 Depth=1
	movq	-96(%rbp), %rax
	movq	-32(%rbp), %rcx
	movq	16(%rcx), %rcx
	movq	56(%rcx), %rcx
	movq	16(%rcx), %rcx
	movq	%rax, 72(%rcx)
	movq	-32(%rbp), %rax
	addq	$64, %rax
	movq	%rax, -96(%rbp)
.LBB35_17:                              # %if.end26
                                        #   in Loop: Header=BB35_14 Depth=1
	movq	-32(%rbp), %rax
	cmpl	$-1, 24(%rax)
	jne	.LBB35_19
# %bb.18:                               # %if.then29
                                        #   in Loop: Header=BB35_14 Depth=1
	jmp	.LBB35_33
.LBB35_19:                              # %if.end30
                                        #   in Loop: Header=BB35_14 Depth=1
	movq	-32(%rbp), %rax
	movq	16(%rax), %rax
	movq	%rax, -72(%rbp)
	movq	-72(%rbp), %rax
	movslq	100(%rax), %rax
	movq	-32(%rbp), %rcx
	subq	56(%rcx), %rax
	addq	-168(%rbp), %rax
	movq	%rax, -144(%rbp)
	movq	-72(%rbp), %rax
	movq	(%rax), %rax
	movq	%rax, -176(%rbp)
	movq	-96(%rbp), %rax
	movq	8(%rax), %rax
	movq	72(%rax), %rax
	movq	%rax, -64(%rbp)
.LBB35_20:                              # %while.cond
                                        #   Parent Loop BB35_14 Depth=1
                                        # =>  This Inner Loop Header: Depth=2
	cmpq	$0, -64(%rbp)
	je	.LBB35_32
# %bb.21:                               # %while.body
                                        #   in Loop: Header=BB35_20 Depth=2
	movq	-64(%rbp), %rax
	movq	8(%rax), %rax
	movq	%rax, -48(%rbp)
	movq	-48(%rbp), %rax
	movslq	100(%rax), %rax
	movq	-64(%rbp), %rcx
	addq	56(%rcx), %rax
	cmpq	-144(%rbp), %rax
	jle	.LBB35_24
# %bb.22:                               # %if.then44
                                        #   in Loop: Header=BB35_20 Depth=2
	movq	-48(%rbp), %rax
	movq	72(%rax), %rax
	movq	%rax, -64(%rbp)
.LBB35_23:                              # %while.cond.backedge
                                        #   in Loop: Header=BB35_20 Depth=2
	jmp	.LBB35_20
.LBB35_24:                              # %if.end46
                                        #   in Loop: Header=BB35_20 Depth=2
	movq	-88(%rbp), %rax
	movq	-48(%rbp), %rcx
	subq	(%rcx), %rax
	movq	-72(%rbp), %rcx
	addq	(%rcx), %rax
	movq	%rax, -80(%rbp)
	cmpq	$0, -80(%rbp)
	jge	.LBB35_31
# %bb.25:                               # %if.then53
                                        #   in Loop: Header=BB35_20 Depth=2
	movq	-40(%rbp), %rax
	movq	-16(%rbp), %rcx
	cmpq	448(%rcx), %rax
	jge	.LBB35_27
# %bb.26:                               # %if.then56
                                        #   in Loop: Header=BB35_20 Depth=2
	movq	-24(%rbp), %rdi
	movq	-40(%rbp), %rsi
	movq	-48(%rbp), %rdx
	movq	-72(%rbp), %rcx
	movq	-88(%rbp), %r8
	movq	-80(%rbp), %r9
	callq	insert_new_arc
	movq	-40(%rbp), %rax
	addq	$1, %rax
	movq	%rax, -40(%rbp)
	jmp	.LBB35_30
.LBB35_27:                              # %if.else
                                        #   in Loop: Header=BB35_20 Depth=2
	movq	-24(%rbp), %rax
	movq	48(%rax), %rax
	cmpq	-80(%rbp), %rax
	jle	.LBB35_29
# %bb.28:                               # %if.then61
                                        #   in Loop: Header=BB35_20 Depth=2
	movq	-16(%rbp), %rdi
	movq	-24(%rbp), %rsi
	movq	-48(%rbp), %rdx
	movq	-72(%rbp), %rcx
	movq	-88(%rbp), %r8
	movq	-80(%rbp), %r9
	callq	replace_weaker_arc
.LBB35_29:                              # %if.end62
                                        #   in Loop: Header=BB35_20 Depth=2
	jmp	.LBB35_30
.LBB35_30:                              # %if.end63
                                        #   in Loop: Header=BB35_20 Depth=2
	jmp	.LBB35_31
.LBB35_31:                              # %if.end64
                                        #   in Loop: Header=BB35_20 Depth=2
	movq	-48(%rbp), %rax
	movq	72(%rax), %rax
	movq	%rax, -64(%rbp)
	jmp	.LBB35_23
.LBB35_32:                              # %while.end
                                        #   in Loop: Header=BB35_14 Depth=1
	jmp	.LBB35_33
.LBB35_33:                              # %for.inc66
                                        #   in Loop: Header=BB35_14 Depth=1
	movq	-56(%rbp), %rax
	addq	$1, %rax
	movq	%rax, -56(%rbp)
	movq	-32(%rbp), %rax
	addq	$192, %rax
	movq	%rax, -32(%rbp)
	jmp	.LBB35_14
.LBB35_34:                              # %for.end69
	cmpq	$0, -40(%rbp)
	je	.LBB35_47
# %bb.35:                               # %if.then71
	movq	-16(%rbp), %rax
	movq	576(%rax), %rax
	movq	%rax, -24(%rbp)
	movq	-40(%rbp), %rax
	movq	-16(%rbp), %rcx
	shlq	$6, %rax
	addq	576(%rcx), %rax
	movq	%rax, 576(%rcx)
	movq	-16(%rbp), %rax
	movq	576(%rax), %rax
	movq	%rax, -136(%rbp)
	cmpq	$0, -112(%rbp)
	je	.LBB35_41
# %bb.36:                               # %if.then77
	jmp	.LBB35_37
.LBB35_37:                              # %for.cond78
                                        # =>This Inner Loop Header: Depth=1
	movq	-24(%rbp), %rax
	cmpq	-136(%rbp), %rax
	je	.LBB35_40
# %bb.38:                               # %for.body81
                                        #   in Loop: Header=BB35_37 Depth=1
	movq	-24(%rbp), %rax
	movq	$0, 48(%rax)
	movq	-24(%rbp), %rax
	movl	$1, 24(%rax)
# %bb.39:                               # %for.inc84
                                        #   in Loop: Header=BB35_37 Depth=1
	movq	-24(%rbp), %rax
	addq	$64, %rax
	movq	%rax, -24(%rbp)
	jmp	.LBB35_37
.LBB35_40:                              # %for.end85
	jmp	.LBB35_46
.LBB35_41:                              # %if.else86
	jmp	.LBB35_42
.LBB35_42:                              # %for.cond87
                                        # =>This Inner Loop Header: Depth=1
	movq	-24(%rbp), %rax
	cmpq	-136(%rbp), %rax
	je	.LBB35_45
# %bb.43:                               # %for.body90
                                        #   in Loop: Header=BB35_42 Depth=1
	movq	-24(%rbp), %rax
	movq	$0, 48(%rax)
	movq	-24(%rbp), %rax
	movl	$1, 24(%rax)
	movq	-24(%rbp), %rax
	movq	8(%rax), %rax
	movq	56(%rax), %rax
	movq	-24(%rbp), %rcx
	movq	%rax, 32(%rcx)
	movq	-24(%rbp), %rax
	movq	-24(%rbp), %rcx
	movq	8(%rcx), %rcx
	movq	%rax, 56(%rcx)
	movq	-24(%rbp), %rax
	movq	16(%rax), %rax
	movq	64(%rax), %rax
	movq	-24(%rbp), %rcx
	movq	%rax, 40(%rcx)
	movq	-24(%rbp), %rax
	movq	-24(%rbp), %rcx
	movq	16(%rcx), %rcx
	movq	%rax, 64(%rcx)
# %bb.44:                               # %for.inc100
                                        #   in Loop: Header=BB35_42 Depth=1
	movq	-24(%rbp), %rax
	addq	$64, %rax
	movq	%rax, -24(%rbp)
	jmp	.LBB35_42
.LBB35_45:                              # %for.end102
	jmp	.LBB35_46
.LBB35_46:                              # %if.end103
	movq	-40(%rbp), %rax
	movq	-16(%rbp), %rcx
	addq	424(%rcx), %rax
	movq	%rax, 424(%rcx)
	movq	-40(%rbp), %rax
	movq	-16(%rbp), %rcx
	addq	440(%rcx), %rax
	movq	%rax, 440(%rcx)
	movq	-40(%rbp), %rax
	movq	-16(%rbp), %rcx
	movq	448(%rcx), %rdx
	subq	%rax, %rdx
	movq	%rdx, 448(%rcx)
.LBB35_47:                              # %if.end109
	movq	-40(%rbp), %rax
	movq	%rax, -128(%rbp)
.LBB35_48:                              # %return
	movq	-128(%rbp), %rbx
	cmpl	$689906105, -100(%rbp)  # imm = 0x291F21B9
	jne	.LBB35_50
.LBB35_49:
	movq	%rbx, %rax
	addq	$168, %rsp
	popq	%rbx
	popq	%rbp
	.cfi_def_cfa %rsp, 8
	retq
.LBB35_50:                              # %func_exit
	.cfi_def_cfa %rbp, 16
	callq	detect_breach
	jmp	.LBB35_49
.Lfunc_end35:
	.size	price_out_impl.31, .Lfunc_end35-price_out_impl.31
	.cfi_endproc
                                        # -- End function
	.globl	price_out_impl.32       # -- Begin function price_out_impl.32
	.p2align	4, 0x90
	.type	price_out_impl.32,@function
price_out_impl.32:                      # @price_out_impl.32
	.cfi_startproc
# %bb.0:                                # %entry
	pushq	%rbp
	.cfi_def_cfa_offset 16
	.cfi_offset %rbp, -16
	movq	%rsp, %rbp
	.cfi_def_cfa_register %rbp
	pushq	%rbx
	subq	$168, %rsp
	.cfi_offset %rbx, -24
	movl	$1588475144, -100(%rbp) # imm = 0x5EAE3508
	movq	%rdi, -24(%rbp)
	movq	$0, -40(%rbp)
	movq	$0, -136(%rbp)
	movq	$15, -168(%rbp)
	movq	-24(%rbp), %rax
	movq	528(%rax), %rax
	movq	%rax, -144(%rbp)
	movq	$30, -88(%rbp)
	movq	-144(%rbp), %rax
	subq	-168(%rbp), %rax
	movq	%rax, -160(%rbp)
	movq	-24(%rbp), %rax
	cmpq	$15000, 408(%rax)       # imm = 0x3A98
	jg	.LBB36_7
# %bb.1:                                # %if.then
	movq	-24(%rbp), %rax
	movq	424(%rax), %rax
	movq	-24(%rbp), %rcx
	addq	456(%rcx), %rax
	movq	-24(%rbp), %rcx
	cmpq	416(%rcx), %rax
	jle	.LBB36_6
# %bb.2:                                # %land.lhs.true
	movq	-24(%rbp), %rax
	movq	408(%rax), %rax
	movq	-24(%rbp), %rcx
	imulq	408(%rcx), %rax
	cqto
	movl	$2, %ecx
	idivq	%rcx
	movq	-24(%rbp), %rcx
	addq	424(%rcx), %rax
	movq	-24(%rbp), %rcx
	cmpq	416(%rcx), %rax
	jle	.LBB36_6
# %bb.3:                                # %if.then9
	movq	$1, -136(%rbp)
	movq	-24(%rbp), %rdi
	callq	resize_prob
	cmpq	$0, %rax
	je	.LBB36_5
# %bb.4:                                # %if.then10
	movq	$-1, -128(%rbp)
	jmp	.LBB36_48
.LBB36_5:                               # %if.end
	movq	-24(%rbp), %rdi
	callq	refresh_neighbour_lists
.LBB36_6:                               # %if.end11
	jmp	.LBB36_7
.LBB36_7:                               # %if.end12
	movq	-24(%rbp), %rax
	movq	576(%rax), %rax
	movq	%rax, -16(%rbp)
	movq	-24(%rbp), %rax
	movq	408(%rax), %rax
	movq	%rax, -112(%rbp)
	movq	-24(%rbp), %rax
	movq	568(%rax), %rax
	movq	%rax, -32(%rbp)
	movq	$0, -56(%rbp)
.LBB36_8:                               # %for.cond
                                        # =>This Inner Loop Header: Depth=1
	xorl	%eax, %eax
	movq	-56(%rbp), %rcx
	cmpq	-112(%rbp), %rcx
	jge	.LBB36_10
# %bb.9:                                # %land.rhs
                                        #   in Loop: Header=BB36_8 Depth=1
	movq	-32(%rbp), %rax
	cmpl	$-1, 88(%rax)
	sete	%al
.LBB36_10:                              # %land.end
                                        #   in Loop: Header=BB36_8 Depth=1
	testb	$1, %al
	jne	.LBB36_11
	jmp	.LBB36_13
.LBB36_11:                              # %for.body
                                        #   in Loop: Header=BB36_8 Depth=1
	jmp	.LBB36_12
.LBB36_12:                              # %for.inc
                                        #   in Loop: Header=BB36_8 Depth=1
	movq	-56(%rbp), %rax
	addq	$1, %rax
	movq	%rax, -56(%rbp)
	movq	-32(%rbp), %rax
	addq	$192, %rax
	movq	%rax, -32(%rbp)
	jmp	.LBB36_8
.LBB36_13:                              # %for.end
	movq	$0, -96(%rbp)
.LBB36_14:                              # %for.cond16
                                        # =>This Loop Header: Depth=1
                                        #     Child Loop BB36_20 Depth 2
	movq	-56(%rbp), %rax
	cmpq	-112(%rbp), %rax
	jge	.LBB36_34
# %bb.15:                               # %for.body18
                                        #   in Loop: Header=BB36_14 Depth=1
	movq	-32(%rbp), %rax
	cmpl	$-1, 88(%rax)
	je	.LBB36_17
# %bb.16:                               # %if.then22
                                        #   in Loop: Header=BB36_14 Depth=1
	movq	-96(%rbp), %rax
	movq	-32(%rbp), %rcx
	movq	16(%rcx), %rcx
	movq	56(%rcx), %rcx
	movq	16(%rcx), %rcx
	movq	%rax, 72(%rcx)
	movq	-32(%rbp), %rax
	addq	$64, %rax
	movq	%rax, -96(%rbp)
.LBB36_17:                              # %if.end26
                                        #   in Loop: Header=BB36_14 Depth=1
	movq	-32(%rbp), %rax
	cmpl	$-1, 24(%rax)
	jne	.LBB36_19
# %bb.18:                               # %if.then29
                                        #   in Loop: Header=BB36_14 Depth=1
	jmp	.LBB36_33
.LBB36_19:                              # %if.end30
                                        #   in Loop: Header=BB36_14 Depth=1
	movq	-32(%rbp), %rax
	movq	16(%rax), %rax
	movq	%rax, -72(%rbp)
	movq	-72(%rbp), %rax
	movslq	100(%rax), %rax
	movq	-32(%rbp), %rcx
	subq	56(%rcx), %rax
	addq	-160(%rbp), %rax
	movq	%rax, -152(%rbp)
	movq	-72(%rbp), %rax
	movq	(%rax), %rax
	movq	%rax, -176(%rbp)
	movq	-96(%rbp), %rax
	movq	8(%rax), %rax
	movq	72(%rax), %rax
	movq	%rax, -64(%rbp)
.LBB36_20:                              # %while.cond
                                        #   Parent Loop BB36_14 Depth=1
                                        # =>  This Inner Loop Header: Depth=2
	cmpq	$0, -64(%rbp)
	je	.LBB36_32
# %bb.21:                               # %while.body
                                        #   in Loop: Header=BB36_20 Depth=2
	movq	-64(%rbp), %rax
	movq	8(%rax), %rax
	movq	%rax, -48(%rbp)
	movq	-48(%rbp), %rax
	movslq	100(%rax), %rax
	movq	-64(%rbp), %rcx
	addq	56(%rcx), %rax
	cmpq	-152(%rbp), %rax
	jle	.LBB36_24
# %bb.22:                               # %if.then44
                                        #   in Loop: Header=BB36_20 Depth=2
	movq	-48(%rbp), %rax
	movq	72(%rax), %rax
	movq	%rax, -64(%rbp)
.LBB36_23:                              # %while.cond.backedge
                                        #   in Loop: Header=BB36_20 Depth=2
	jmp	.LBB36_20
.LBB36_24:                              # %if.end46
                                        #   in Loop: Header=BB36_20 Depth=2
	movq	-88(%rbp), %rax
	movq	-48(%rbp), %rcx
	subq	(%rcx), %rax
	movq	-72(%rbp), %rcx
	addq	(%rcx), %rax
	movq	%rax, -80(%rbp)
	cmpq	$0, -80(%rbp)
	jge	.LBB36_31
# %bb.25:                               # %if.then53
                                        #   in Loop: Header=BB36_20 Depth=2
	movq	-40(%rbp), %rax
	movq	-24(%rbp), %rcx
	cmpq	448(%rcx), %rax
	jge	.LBB36_27
# %bb.26:                               # %if.then56
                                        #   in Loop: Header=BB36_20 Depth=2
	movq	-16(%rbp), %rdi
	movq	-40(%rbp), %rsi
	movq	-48(%rbp), %rdx
	movq	-72(%rbp), %rcx
	movq	-88(%rbp), %r8
	movq	-80(%rbp), %r9
	callq	insert_new_arc
	movq	-40(%rbp), %rax
	addq	$1, %rax
	movq	%rax, -40(%rbp)
	jmp	.LBB36_30
.LBB36_27:                              # %if.else
                                        #   in Loop: Header=BB36_20 Depth=2
	movq	-16(%rbp), %rax
	movq	48(%rax), %rax
	cmpq	-80(%rbp), %rax
	jle	.LBB36_29
# %bb.28:                               # %if.then61
                                        #   in Loop: Header=BB36_20 Depth=2
	movq	-24(%rbp), %rdi
	movq	-16(%rbp), %rsi
	movq	-48(%rbp), %rdx
	movq	-72(%rbp), %rcx
	movq	-88(%rbp), %r8
	movq	-80(%rbp), %r9
	callq	replace_weaker_arc
.LBB36_29:                              # %if.end62
                                        #   in Loop: Header=BB36_20 Depth=2
	jmp	.LBB36_30
.LBB36_30:                              # %if.end63
                                        #   in Loop: Header=BB36_20 Depth=2
	jmp	.LBB36_31
.LBB36_31:                              # %if.end64
                                        #   in Loop: Header=BB36_20 Depth=2
	movq	-48(%rbp), %rax
	movq	72(%rax), %rax
	movq	%rax, -64(%rbp)
	jmp	.LBB36_23
.LBB36_32:                              # %while.end
                                        #   in Loop: Header=BB36_14 Depth=1
	jmp	.LBB36_33
.LBB36_33:                              # %for.inc66
                                        #   in Loop: Header=BB36_14 Depth=1
	movq	-56(%rbp), %rax
	addq	$1, %rax
	movq	%rax, -56(%rbp)
	movq	-32(%rbp), %rax
	addq	$192, %rax
	movq	%rax, -32(%rbp)
	jmp	.LBB36_14
.LBB36_34:                              # %for.end69
	cmpq	$0, -40(%rbp)
	je	.LBB36_47
# %bb.35:                               # %if.then71
	movq	-24(%rbp), %rax
	movq	576(%rax), %rax
	movq	%rax, -16(%rbp)
	movq	-40(%rbp), %rax
	movq	-24(%rbp), %rcx
	shlq	$6, %rax
	addq	576(%rcx), %rax
	movq	%rax, 576(%rcx)
	movq	-24(%rbp), %rax
	movq	576(%rax), %rax
	movq	%rax, -120(%rbp)
	cmpq	$0, -136(%rbp)
	je	.LBB36_41
# %bb.36:                               # %if.then77
	jmp	.LBB36_37
.LBB36_37:                              # %for.cond78
                                        # =>This Inner Loop Header: Depth=1
	movq	-16(%rbp), %rax
	cmpq	-120(%rbp), %rax
	je	.LBB36_40
# %bb.38:                               # %for.body81
                                        #   in Loop: Header=BB36_37 Depth=1
	movq	-16(%rbp), %rax
	movq	$0, 48(%rax)
	movq	-16(%rbp), %rax
	movl	$1, 24(%rax)
# %bb.39:                               # %for.inc84
                                        #   in Loop: Header=BB36_37 Depth=1
	movq	-16(%rbp), %rax
	addq	$64, %rax
	movq	%rax, -16(%rbp)
	jmp	.LBB36_37
.LBB36_40:                              # %for.end85
	jmp	.LBB36_46
.LBB36_41:                              # %if.else86
	jmp	.LBB36_42
.LBB36_42:                              # %for.cond87
                                        # =>This Inner Loop Header: Depth=1
	movq	-16(%rbp), %rax
	cmpq	-120(%rbp), %rax
	je	.LBB36_45
# %bb.43:                               # %for.body90
                                        #   in Loop: Header=BB36_42 Depth=1
	movq	-16(%rbp), %rax
	movq	$0, 48(%rax)
	movq	-16(%rbp), %rax
	movl	$1, 24(%rax)
	movq	-16(%rbp), %rax
	movq	8(%rax), %rax
	movq	56(%rax), %rax
	movq	-16(%rbp), %rcx
	movq	%rax, 32(%rcx)
	movq	-16(%rbp), %rax
	movq	-16(%rbp), %rcx
	movq	8(%rcx), %rcx
	movq	%rax, 56(%rcx)
	movq	-16(%rbp), %rax
	movq	16(%rax), %rax
	movq	64(%rax), %rax
	movq	-16(%rbp), %rcx
	movq	%rax, 40(%rcx)
	movq	-16(%rbp), %rax
	movq	-16(%rbp), %rcx
	movq	16(%rcx), %rcx
	movq	%rax, 64(%rcx)
# %bb.44:                               # %for.inc100
                                        #   in Loop: Header=BB36_42 Depth=1
	movq	-16(%rbp), %rax
	addq	$64, %rax
	movq	%rax, -16(%rbp)
	jmp	.LBB36_42
.LBB36_45:                              # %for.end102
	jmp	.LBB36_46
.LBB36_46:                              # %if.end103
	movq	-40(%rbp), %rax
	movq	-24(%rbp), %rcx
	addq	424(%rcx), %rax
	movq	%rax, 424(%rcx)
	movq	-40(%rbp), %rax
	movq	-24(%rbp), %rcx
	addq	440(%rcx), %rax
	movq	%rax, 440(%rcx)
	movq	-40(%rbp), %rax
	movq	-24(%rbp), %rcx
	movq	448(%rcx), %rdx
	subq	%rax, %rdx
	movq	%rdx, 448(%rcx)
.LBB36_47:                              # %if.end109
	movq	-40(%rbp), %rax
	movq	%rax, -128(%rbp)
.LBB36_48:                              # %return
	movq	-128(%rbp), %rbx
	cmpl	$1588475144, -100(%rbp) # imm = 0x5EAE3508
	jne	.LBB36_50
.LBB36_49:
	movq	%rbx, %rax
	addq	$168, %rsp
	popq	%rbx
	popq	%rbp
	.cfi_def_cfa %rsp, 8
	retq
.LBB36_50:                              # %func_exit
	.cfi_def_cfa %rbp, 16
	callq	detect_breach
	jmp	.LBB36_49
.Lfunc_end36:
	.size	price_out_impl.32, .Lfunc_end36-price_out_impl.32
	.cfi_endproc
                                        # -- End function
	.globl	insert_new_arc.33       # -- Begin function insert_new_arc.33
	.p2align	4, 0x90
	.type	insert_new_arc.33,@function
insert_new_arc.33:                      # @insert_new_arc.33
	.cfi_startproc
# %bb.0:                                # %entry
	pushq	%rbp
	.cfi_def_cfa_offset 16
	.cfi_offset %rbp, -16
	movq	%rsp, %rbp
	.cfi_def_cfa_register %rbp
	subq	$64, %rsp
	movl	$1230859011, -44(%rbp)  # imm = 0x495D6B03
	movq	%rdi, -8(%rbp)
	movq	%rsi, -24(%rbp)
	movq	%rdx, -64(%rbp)
	movq	%rcx, -56(%rbp)
	movq	%r8, -32(%rbp)
	movq	%r9, -40(%rbp)
	movq	-64(%rbp), %rax
	movq	-8(%rbp), %rcx
	movq	-24(%rbp), %rdx
	shlq	$6, %rdx
	addq	%rdx, %rcx
	movq	%rax, 8(%rcx)
	movq	-56(%rbp), %rax
	movq	-8(%rbp), %rcx
	movq	-24(%rbp), %rdx
	shlq	$6, %rdx
	addq	%rdx, %rcx
	movq	%rax, 16(%rcx)
	movq	-32(%rbp), %rax
	movq	-8(%rbp), %rcx
	movq	-24(%rbp), %rdx
	shlq	$6, %rdx
	addq	%rdx, %rcx
	movq	%rax, 56(%rcx)
	movq	-32(%rbp), %rax
	movq	-8(%rbp), %rcx
	movq	-24(%rbp), %rdx
	shlq	$6, %rdx
	addq	%rdx, %rcx
	movq	%rax, (%rcx)
	movq	-40(%rbp), %rax
	movq	-8(%rbp), %rcx
	movq	-24(%rbp), %rdx
	shlq	$6, %rdx
	addq	%rdx, %rcx
	movq	%rax, 48(%rcx)
	movq	-24(%rbp), %rax
	addq	$1, %rax
	movq	%rax, -16(%rbp)
.LBB37_1:                               # %while.cond
                                        # =>This Inner Loop Header: Depth=1
	xorl	%eax, %eax
	movq	-16(%rbp), %rcx
	subq	$1, %rcx
	cmpq	$0, %rcx
	je	.LBB37_3
# %bb.2:                                # %land.rhs
                                        #   in Loop: Header=BB37_1 Depth=1
	movq	-40(%rbp), %rcx
	movq	-8(%rbp), %rsi
	movq	-16(%rbp), %rax
	cqto
	movl	$2, %edi
	idivq	%rdi
	subq	$1, %rax
	shlq	$6, %rax
	addq	%rax, %rsi
	cmpq	48(%rsi), %rcx
	setg	%al
.LBB37_3:                               # %land.end
                                        #   in Loop: Header=BB37_1 Depth=1
	testb	$1, %al
	jne	.LBB37_4
	jmp	.LBB37_5
.LBB37_4:                               # %while.body
                                        #   in Loop: Header=BB37_1 Depth=1
	movq	-8(%rbp), %rsi
	movq	-16(%rbp), %rax
	cqto
	movl	$2, %ecx
	idivq	%rcx
	subq	$1, %rax
	shlq	$6, %rax
	addq	%rax, %rsi
	movq	8(%rsi), %rax
	movq	-8(%rbp), %rdx
	movq	-16(%rbp), %rsi
	subq	$1, %rsi
	shlq	$6, %rsi
	addq	%rsi, %rdx
	movq	%rax, 8(%rdx)
	movq	-8(%rbp), %rsi
	movq	-16(%rbp), %rax
	cqto
	idivq	%rcx
	subq	$1, %rax
	shlq	$6, %rax
	addq	%rax, %rsi
	movq	16(%rsi), %rax
	movq	-8(%rbp), %rdx
	movq	-16(%rbp), %rsi
	subq	$1, %rsi
	shlq	$6, %rsi
	addq	%rsi, %rdx
	movq	%rax, 16(%rdx)
	movq	-8(%rbp), %rsi
	movq	-16(%rbp), %rax
	cqto
	idivq	%rcx
	subq	$1, %rax
	shlq	$6, %rax
	addq	%rax, %rsi
	movq	(%rsi), %rax
	movq	-8(%rbp), %rdx
	movq	-16(%rbp), %rsi
	subq	$1, %rsi
	shlq	$6, %rsi
	addq	%rsi, %rdx
	movq	%rax, (%rdx)
	movq	-8(%rbp), %rsi
	movq	-16(%rbp), %rax
	cqto
	idivq	%rcx
	subq	$1, %rax
	shlq	$6, %rax
	addq	%rax, %rsi
	movq	(%rsi), %rax
	movq	-8(%rbp), %rdx
	movq	-16(%rbp), %rsi
	subq	$1, %rsi
	shlq	$6, %rsi
	addq	%rsi, %rdx
	movq	%rax, 56(%rdx)
	movq	-8(%rbp), %rsi
	movq	-16(%rbp), %rax
	cqto
	idivq	%rcx
	subq	$1, %rax
	shlq	$6, %rax
	addq	%rax, %rsi
	movq	48(%rsi), %rax
	movq	-8(%rbp), %rdx
	movq	-16(%rbp), %rsi
	subq	$1, %rsi
	shlq	$6, %rsi
	addq	%rsi, %rdx
	movq	%rax, 48(%rdx)
	movq	-16(%rbp), %rax
	cqto
	idivq	%rcx
	movq	%rax, -16(%rbp)
	movq	-64(%rbp), %rax
	movq	-8(%rbp), %rcx
	movq	-16(%rbp), %rdx
	subq	$1, %rdx
	shlq	$6, %rdx
	addq	%rdx, %rcx
	movq	%rax, 8(%rcx)
	movq	-56(%rbp), %rax
	movq	-8(%rbp), %rcx
	movq	-16(%rbp), %rdx
	subq	$1, %rdx
	shlq	$6, %rdx
	addq	%rdx, %rcx
	movq	%rax, 16(%rcx)
	movq	-32(%rbp), %rax
	movq	-8(%rbp), %rcx
	movq	-16(%rbp), %rdx
	subq	$1, %rdx
	shlq	$6, %rdx
	addq	%rdx, %rcx
	movq	%rax, (%rcx)
	movq	-32(%rbp), %rax
	movq	-8(%rbp), %rcx
	movq	-16(%rbp), %rdx
	subq	$1, %rdx
	shlq	$6, %rdx
	addq	%rdx, %rcx
	movq	%rax, 56(%rcx)
	movq	-40(%rbp), %rax
	movq	-8(%rbp), %rcx
	movq	-16(%rbp), %rdx
	subq	$1, %rdx
	shlq	$6, %rdx
	addq	%rdx, %rcx
	movq	%rax, 48(%rcx)
	jmp	.LBB37_1
.LBB37_5:                               # %while.end
	cmpl	$1230859011, -44(%rbp)  # imm = 0x495D6B03
	jne	.LBB37_7
.LBB37_6:
	addq	$64, %rsp
	popq	%rbp
	.cfi_def_cfa %rsp, 8
	retq
.LBB37_7:                               # %func_exit
	.cfi_def_cfa %rbp, 16
	callq	detect_breach
	jmp	.LBB37_6
.Lfunc_end37:
	.size	insert_new_arc.33, .Lfunc_end37-insert_new_arc.33
	.cfi_endproc
                                        # -- End function
	.globl	suspend_impl.34         # -- Begin function suspend_impl.34
	.p2align	4, 0x90
	.type	suspend_impl.34,@function
suspend_impl.34:                        # @suspend_impl.34
	.cfi_startproc
# %bb.0:                                # %entry
	pushq	%rbp
	.cfi_def_cfa_offset 16
	.cfi_offset %rbp, -16
	movq	%rsp, %rbp
	.cfi_def_cfa_register %rbp
	pushq	%rbx
	subq	$72, %rsp
	.cfi_offset %rbx, -24
	movl	$1938400868, -44(%rbp)  # imm = 0x7389A664
	movq	%rdi, -24(%rbp)
	movq	%rsi, -64(%rbp)
	movq	%rdx, -80(%rbp)
	cmpq	$0, -80(%rbp)
	je	.LBB38_2
# %bb.1:                                # %if.then
	movq	-24(%rbp), %rax
	movq	440(%rax), %rax
	movq	%rax, -32(%rbp)
	jmp	.LBB38_18
.LBB38_2:                               # %if.else
	movq	-24(%rbp), %rax
	movq	576(%rax), %rax
	movq	%rax, -72(%rbp)
	movq	-24(%rbp), %rax
	movq	568(%rax), %rax
	movq	-24(%rbp), %rcx
	movq	424(%rcx), %rcx
	movq	-24(%rbp), %rdx
	subq	440(%rdx), %rcx
	shlq	$6, %rcx
	addq	%rcx, %rax
	movq	%rax, -40(%rbp)
	movq	$0, -32(%rbp)
	movq	-40(%rbp), %rax
	movq	%rax, -16(%rbp)
.LBB38_3:                               # %for.cond
                                        # =>This Inner Loop Header: Depth=1
	movq	-16(%rbp), %rax
	movq	-72(%rbp), %rcx
	cmpq	%rcx, %rax
	jae	.LBB38_17
# %bb.4:                                # %for.body
                                        #   in Loop: Header=BB38_3 Depth=1
	movq	-16(%rbp), %rax
	cmpl	$1, 24(%rax)
	jne	.LBB38_6
# %bb.5:                                # %if.then3
                                        #   in Loop: Header=BB38_3 Depth=1
	movq	-16(%rbp), %rax
	movq	(%rax), %rax
	movq	-16(%rbp), %rcx
	movq	8(%rcx), %rcx
	subq	(%rcx), %rax
	movq	-16(%rbp), %rcx
	movq	16(%rcx), %rcx
	addq	(%rcx), %rax
	movq	%rax, -56(%rbp)
	jmp	.LBB38_12
.LBB38_6:                               # %if.else6
                                        #   in Loop: Header=BB38_3 Depth=1
	movq	$-2, -56(%rbp)
	movq	-16(%rbp), %rax
	cmpl	$0, 24(%rax)
	jne	.LBB38_11
# %bb.7:                                # %if.then9
                                        #   in Loop: Header=BB38_3 Depth=1
	movq	-16(%rbp), %rax
	movq	8(%rax), %rax
	movq	48(%rax), %rax
	cmpq	-16(%rbp), %rax
	jne	.LBB38_9
# %bb.8:                                # %if.then12
                                        #   in Loop: Header=BB38_3 Depth=1
	movq	-40(%rbp), %rax
	movq	-16(%rbp), %rcx
	movq	8(%rcx), %rcx
	movq	%rax, 48(%rcx)
	jmp	.LBB38_10
.LBB38_9:                               # %if.else15
                                        #   in Loop: Header=BB38_3 Depth=1
	movq	-40(%rbp), %rax
	movq	-16(%rbp), %rcx
	movq	16(%rcx), %rcx
	movq	%rax, 48(%rcx)
.LBB38_10:                              # %if.end
                                        #   in Loop: Header=BB38_3 Depth=1
	jmp	.LBB38_11
.LBB38_11:                              # %if.end18
                                        #   in Loop: Header=BB38_3 Depth=1
	jmp	.LBB38_12
.LBB38_12:                              # %if.end19
                                        #   in Loop: Header=BB38_3 Depth=1
	movq	-56(%rbp), %rax
	cmpq	-64(%rbp), %rax
	jle	.LBB38_14
# %bb.13:                               # %if.then21
                                        #   in Loop: Header=BB38_3 Depth=1
	movq	-32(%rbp), %rax
	addq	$1, %rax
	movq	%rax, -32(%rbp)
	jmp	.LBB38_15
.LBB38_14:                              # %if.else22
                                        #   in Loop: Header=BB38_3 Depth=1
	movq	-40(%rbp), %rdi
	movq	-16(%rbp), %rsi
	movl	$64, %edx
	callq	memcpy
	movq	-40(%rbp), %rax
	addq	$64, %rax
	movq	%rax, -40(%rbp)
.LBB38_15:                              # %if.end23
                                        #   in Loop: Header=BB38_3 Depth=1
	jmp	.LBB38_16
.LBB38_16:                              # %for.inc
                                        #   in Loop: Header=BB38_3 Depth=1
	movq	-16(%rbp), %rax
	addq	$64, %rax
	movq	%rax, -16(%rbp)
	jmp	.LBB38_3
.LBB38_17:                              # %for.end
	jmp	.LBB38_18
.LBB38_18:                              # %if.end25
	cmpq	$0, -32(%rbp)
	je	.LBB38_20
# %bb.19:                               # %if.then27
	xorl	%eax, %eax
	movq	-32(%rbp), %rcx
	movq	-24(%rbp), %rdx
	movq	424(%rdx), %rsi
	subq	%rcx, %rsi
	movq	%rsi, 424(%rdx)
	movq	-32(%rbp), %rcx
	movq	-24(%rbp), %rdx
	movq	440(%rdx), %rsi
	subq	%rcx, %rsi
	movq	%rsi, 440(%rdx)
	movq	-32(%rbp), %rcx
	movq	-24(%rbp), %rdx
	movq	576(%rdx), %rsi
	subq	%rcx, %rax
	shlq	$6, %rax
	addq	%rax, %rsi
	movq	%rsi, 576(%rdx)
	movq	-32(%rbp), %rax
	movq	-24(%rbp), %rcx
	addq	448(%rcx), %rax
	movq	%rax, 448(%rcx)
	movq	-24(%rbp), %rdi
	callq	refresh_neighbour_lists
.LBB38_20:                              # %if.end34
	movq	-32(%rbp), %rbx
	cmpl	$1938400868, -44(%rbp)  # imm = 0x7389A664
	jne	.LBB38_22
.LBB38_21:
	movq	%rbx, %rax
	addq	$72, %rsp
	popq	%rbx
	popq	%rbp
	.cfi_def_cfa %rsp, 8
	retq
.LBB38_22:                              # %func_exit
	.cfi_def_cfa %rbp, 16
	callq	detect_breach
	jmp	.LBB38_21
.Lfunc_end38:
	.size	suspend_impl.34, .Lfunc_end38-suspend_impl.34
	.cfi_endproc
                                        # -- End function
	.globl	resize_prob.35          # -- Begin function resize_prob.35
	.p2align	4, 0x90
	.type	resize_prob.35,@function
resize_prob.35:                         # @resize_prob.35
	.cfi_startproc
# %bb.0:                                # %entry
	pushq	%rbp
	.cfi_def_cfa_offset 16
	.cfi_offset %rbp, -16
	movq	%rsp, %rbp
	.cfi_def_cfa_register %rbp
	pushq	%rbx
	subq	$72, %rsp
	.cfi_offset %rbx, -24
	movl	$387315149, -36(%rbp)   # imm = 0x1715F5CD
	movq	%rdi, -16(%rbp)
	movq	-16(%rbp), %rax
	movq	456(%rax), %rax
	movq	-16(%rbp), %rcx
	addq	416(%rcx), %rax
	movq	%rax, 416(%rcx)
	movq	-16(%rbp), %rax
	movq	456(%rax), %rax
	movq	-16(%rbp), %rcx
	addq	448(%rcx), %rax
	movq	%rax, 448(%rcx)
	movq	-16(%rbp), %rax
	movq	568(%rax), %rdi
	movq	-16(%rbp), %rax
	movq	416(%rax), %rsi
	shlq	$6, %rsi
	callq	realloc
	movq	%rax, -32(%rbp)
	cmpq	$0, -32(%rbp)
	jne	.LBB39_2
# %bb.1:                                # %if.then
	movq	-16(%rbp), %rsi
	movabsq	$.L.str, %rdi
	movb	$0, %al
	callq	printf
	movq	stdout, %rdi
	callq	fflush
	movq	$-1, -48(%rbp)
	jmp	.LBB39_9
.LBB39_2:                               # %if.end
	movq	-32(%rbp), %rax
	movq	-16(%rbp), %rcx
	movq	568(%rcx), %rcx
	subq	%rcx, %rax
	movq	%rax, -64(%rbp)
	movq	-32(%rbp), %rax
	movq	-16(%rbp), %rcx
	movq	%rax, 568(%rcx)
	movq	-32(%rbp), %rax
	movq	-16(%rbp), %rcx
	movq	424(%rcx), %rcx
	shlq	$6, %rcx
	addq	%rcx, %rax
	movq	-16(%rbp), %rcx
	movq	%rax, 576(%rcx)
	movq	-16(%rbp), %rax
	movq	552(%rax), %rax
	movq	%rax, -24(%rbp)
	movq	%rax, -56(%rbp)
	movq	-24(%rbp), %rax
	addq	$104, %rax
	movq	%rax, -24(%rbp)
	movq	-16(%rbp), %rax
	movq	560(%rax), %rax
	movq	%rax, -72(%rbp)
.LBB39_3:                               # %for.cond
                                        # =>This Inner Loop Header: Depth=1
	movq	-24(%rbp), %rax
	cmpq	-72(%rbp), %rax
	jae	.LBB39_8
# %bb.4:                                # %for.body
                                        #   in Loop: Header=BB39_3 Depth=1
	movq	-24(%rbp), %rax
	movq	24(%rax), %rax
	cmpq	-56(%rbp), %rax
	je	.LBB39_6
# %bb.5:                                # %if.then9
                                        #   in Loop: Header=BB39_3 Depth=1
	movq	-24(%rbp), %rax
	movq	48(%rax), %rax
	addq	-64(%rbp), %rax
	movq	-24(%rbp), %rcx
	movq	%rax, 48(%rcx)
.LBB39_6:                               # %if.end12
                                        #   in Loop: Header=BB39_3 Depth=1
	jmp	.LBB39_7
.LBB39_7:                               # %for.inc
                                        #   in Loop: Header=BB39_3 Depth=1
	movq	-24(%rbp), %rax
	addq	$104, %rax
	movq	%rax, -24(%rbp)
	jmp	.LBB39_3
.LBB39_8:                               # %for.end
	movq	$0, -48(%rbp)
.LBB39_9:                               # %return
	movq	-48(%rbp), %rbx
	cmpl	$387315149, -36(%rbp)   # imm = 0x1715F5CD
	jne	.LBB39_11
.LBB39_10:
	movq	%rbx, %rax
	addq	$72, %rsp
	popq	%rbx
	popq	%rbp
	.cfi_def_cfa %rsp, 8
	retq
.LBB39_11:                              # %func_exit
	.cfi_def_cfa %rbp, 16
	callq	detect_breach
	jmp	.LBB39_10
.Lfunc_end39:
	.size	resize_prob.35, .Lfunc_end39-resize_prob.35
	.cfi_endproc
                                        # -- End function
	.globl	resize_prob.36          # -- Begin function resize_prob.36
	.p2align	4, 0x90
	.type	resize_prob.36,@function
resize_prob.36:                         # @resize_prob.36
	.cfi_startproc
# %bb.0:                                # %entry
	pushq	%rbp
	.cfi_def_cfa_offset 16
	.cfi_offset %rbp, -16
	movq	%rsp, %rbp
	.cfi_def_cfa_register %rbp
	pushq	%rbx
	subq	$72, %rsp
	.cfi_offset %rbx, -24
	movl	$500586037, -36(%rbp)   # imm = 0x1DD65635
	movq	%rdi, -16(%rbp)
	movq	-16(%rbp), %rax
	movq	456(%rax), %rax
	movq	-16(%rbp), %rcx
	addq	416(%rcx), %rax
	movq	%rax, 416(%rcx)
	movq	-16(%rbp), %rax
	movq	456(%rax), %rax
	movq	-16(%rbp), %rcx
	addq	448(%rcx), %rax
	movq	%rax, 448(%rcx)
	movq	-16(%rbp), %rax
	movq	568(%rax), %rdi
	movq	-16(%rbp), %rax
	movq	416(%rax), %rsi
	shlq	$6, %rsi
	callq	realloc
	movq	%rax, -32(%rbp)
	cmpq	$0, -32(%rbp)
	jne	.LBB40_2
# %bb.1:                                # %if.then
	movq	-16(%rbp), %rsi
	movabsq	$.L.str, %rdi
	movb	$0, %al
	callq	printf
	movq	stdout, %rdi
	callq	fflush
	movq	$-1, -48(%rbp)
	jmp	.LBB40_9
.LBB40_2:                               # %if.end
	movq	-32(%rbp), %rax
	movq	-16(%rbp), %rcx
	movq	568(%rcx), %rcx
	subq	%rcx, %rax
	movq	%rax, -64(%rbp)
	movq	-32(%rbp), %rax
	movq	-16(%rbp), %rcx
	movq	%rax, 568(%rcx)
	movq	-32(%rbp), %rax
	movq	-16(%rbp), %rcx
	movq	424(%rcx), %rcx
	shlq	$6, %rcx
	addq	%rcx, %rax
	movq	-16(%rbp), %rcx
	movq	%rax, 576(%rcx)
	movq	-16(%rbp), %rax
	movq	552(%rax), %rax
	movq	%rax, -24(%rbp)
	movq	%rax, -72(%rbp)
	movq	-24(%rbp), %rax
	addq	$104, %rax
	movq	%rax, -24(%rbp)
	movq	-16(%rbp), %rax
	movq	560(%rax), %rax
	movq	%rax, -56(%rbp)
.LBB40_3:                               # %for.cond
                                        # =>This Inner Loop Header: Depth=1
	movq	-24(%rbp), %rax
	cmpq	-56(%rbp), %rax
	jae	.LBB40_8
# %bb.4:                                # %for.body
                                        #   in Loop: Header=BB40_3 Depth=1
	movq	-24(%rbp), %rax
	movq	24(%rax), %rax
	cmpq	-72(%rbp), %rax
	je	.LBB40_6
# %bb.5:                                # %if.then9
                                        #   in Loop: Header=BB40_3 Depth=1
	movq	-24(%rbp), %rax
	movq	48(%rax), %rax
	addq	-64(%rbp), %rax
	movq	-24(%rbp), %rcx
	movq	%rax, 48(%rcx)
.LBB40_6:                               # %if.end12
                                        #   in Loop: Header=BB40_3 Depth=1
	jmp	.LBB40_7
.LBB40_7:                               # %for.inc
                                        #   in Loop: Header=BB40_3 Depth=1
	movq	-24(%rbp), %rax
	addq	$104, %rax
	movq	%rax, -24(%rbp)
	jmp	.LBB40_3
.LBB40_8:                               # %for.end
	movq	$0, -48(%rbp)
.LBB40_9:                               # %return
	movq	-48(%rbp), %rbx
	cmpl	$500586037, -36(%rbp)   # imm = 0x1DD65635
	jne	.LBB40_11
.LBB40_10:
	movq	%rbx, %rax
	addq	$72, %rsp
	popq	%rbx
	popq	%rbp
	.cfi_def_cfa %rsp, 8
	retq
.LBB40_11:                              # %func_exit
	.cfi_def_cfa %rbp, 16
	callq	detect_breach
	jmp	.LBB40_10
.Lfunc_end40:
	.size	resize_prob.36, .Lfunc_end40-resize_prob.36
	.cfi_endproc
                                        # -- End function
	.globl	replace_weaker_arc.37   # -- Begin function replace_weaker_arc.37
	.p2align	4, 0x90
	.type	replace_weaker_arc.37,@function
replace_weaker_arc.37:                  # @replace_weaker_arc.37
	.cfi_startproc
# %bb.0:                                # %entry
	pushq	%rbp
	.cfi_def_cfa_offset 16
	.cfi_offset %rbp, -16
	movq	%rsp, %rbp
	.cfi_def_cfa_register %rbp
	subq	$80, %rsp
	movl	$575186499, -44(%rbp)   # imm = 0x2248A643
	movq	%rdi, -72(%rbp)
	movq	%rsi, -8(%rbp)
	movq	%rdx, -64(%rbp)
	movq	%rcx, -56(%rbp)
	movq	%r8, -32(%rbp)
	movq	%r9, -40(%rbp)
	movq	-64(%rbp), %rax
	movq	-8(%rbp), %rcx
	movq	%rax, 8(%rcx)
	movq	-56(%rbp), %rax
	movq	-8(%rbp), %rcx
	movq	%rax, 16(%rcx)
	movq	-32(%rbp), %rax
	movq	-8(%rbp), %rcx
	movq	%rax, 56(%rcx)
	movq	-32(%rbp), %rax
	movq	-8(%rbp), %rcx
	movq	%rax, (%rcx)
	movq	-40(%rbp), %rax
	movq	-8(%rbp), %rcx
	movq	%rax, 48(%rcx)
	movq	$1, -24(%rbp)
	movq	-8(%rbp), %rax
	movq	112(%rax), %rax
	movq	-8(%rbp), %rcx
	movq	176(%rcx), %rcx
	cmpq	%rcx, %rax
	movl	$2, %eax
	movl	$3, %ecx
	cmovgl	%eax, %ecx
	movslq	%ecx, %rax
	movq	%rax, -16(%rbp)
.LBB41_1:                               # %while.cond
                                        # =>This Inner Loop Header: Depth=1
	xorl	%eax, %eax
	movq	-16(%rbp), %rcx
	movq	-72(%rbp), %rdx
	cmpq	448(%rdx), %rcx
	jg	.LBB41_3
# %bb.2:                                # %land.rhs
                                        #   in Loop: Header=BB41_1 Depth=1
	movq	-40(%rbp), %rax
	movq	-8(%rbp), %rcx
	movq	-16(%rbp), %rdx
	subq	$1, %rdx
	shlq	$6, %rdx
	addq	%rdx, %rcx
	cmpq	48(%rcx), %rax
	setl	%al
.LBB41_3:                               # %land.end
                                        #   in Loop: Header=BB41_1 Depth=1
	testb	$1, %al
	jne	.LBB41_4
	jmp	.LBB41_9
.LBB41_4:                               # %while.body
                                        #   in Loop: Header=BB41_1 Depth=1
	movq	-8(%rbp), %rax
	movq	-16(%rbp), %rcx
	subq	$1, %rcx
	shlq	$6, %rcx
	addq	%rcx, %rax
	movq	8(%rax), %rax
	movq	-8(%rbp), %rcx
	movq	-24(%rbp), %rdx
	subq	$1, %rdx
	shlq	$6, %rdx
	addq	%rdx, %rcx
	movq	%rax, 8(%rcx)
	movq	-8(%rbp), %rax
	movq	-16(%rbp), %rcx
	subq	$1, %rcx
	shlq	$6, %rcx
	addq	%rcx, %rax
	movq	16(%rax), %rax
	movq	-8(%rbp), %rcx
	movq	-24(%rbp), %rdx
	subq	$1, %rdx
	shlq	$6, %rdx
	addq	%rdx, %rcx
	movq	%rax, 16(%rcx)
	movq	-8(%rbp), %rax
	movq	-16(%rbp), %rcx
	subq	$1, %rcx
	shlq	$6, %rcx
	addq	%rcx, %rax
	movq	(%rax), %rax
	movq	-8(%rbp), %rcx
	movq	-24(%rbp), %rdx
	subq	$1, %rdx
	shlq	$6, %rdx
	addq	%rdx, %rcx
	movq	%rax, (%rcx)
	movq	-8(%rbp), %rax
	movq	-16(%rbp), %rcx
	subq	$1, %rcx
	shlq	$6, %rcx
	addq	%rcx, %rax
	movq	(%rax), %rax
	movq	-8(%rbp), %rcx
	movq	-24(%rbp), %rdx
	subq	$1, %rdx
	shlq	$6, %rdx
	addq	%rdx, %rcx
	movq	%rax, 56(%rcx)
	movq	-8(%rbp), %rax
	movq	-16(%rbp), %rcx
	subq	$1, %rcx
	shlq	$6, %rcx
	addq	%rcx, %rax
	movq	48(%rax), %rax
	movq	-8(%rbp), %rcx
	movq	-24(%rbp), %rdx
	subq	$1, %rdx
	shlq	$6, %rdx
	addq	%rdx, %rcx
	movq	%rax, 48(%rcx)
	movq	-64(%rbp), %rax
	movq	-8(%rbp), %rcx
	movq	-16(%rbp), %rdx
	subq	$1, %rdx
	shlq	$6, %rdx
	addq	%rdx, %rcx
	movq	%rax, 8(%rcx)
	movq	-56(%rbp), %rax
	movq	-8(%rbp), %rcx
	movq	-16(%rbp), %rdx
	subq	$1, %rdx
	shlq	$6, %rdx
	addq	%rdx, %rcx
	movq	%rax, 16(%rcx)
	movq	-32(%rbp), %rax
	movq	-8(%rbp), %rcx
	movq	-16(%rbp), %rdx
	subq	$1, %rdx
	shlq	$6, %rdx
	addq	%rdx, %rcx
	movq	%rax, (%rcx)
	movq	-32(%rbp), %rax
	movq	-8(%rbp), %rcx
	movq	-16(%rbp), %rdx
	subq	$1, %rdx
	shlq	$6, %rdx
	addq	%rdx, %rcx
	movq	%rax, 56(%rcx)
	movq	-40(%rbp), %rax
	movq	-8(%rbp), %rcx
	movq	-16(%rbp), %rdx
	subq	$1, %rdx
	shlq	$6, %rdx
	addq	%rdx, %rcx
	movq	%rax, 48(%rcx)
	movq	-16(%rbp), %rax
	movq	%rax, -24(%rbp)
	movq	-16(%rbp), %rax
	shlq	$1, %rax
	movq	%rax, -16(%rbp)
	movq	-16(%rbp), %rax
	addq	$1, %rax
	movq	-72(%rbp), %rcx
	cmpq	448(%rcx), %rax
	jg	.LBB41_8
# %bb.5:                                # %if.then
                                        #   in Loop: Header=BB41_1 Depth=1
	movq	-8(%rbp), %rax
	movq	-16(%rbp), %rcx
	subq	$1, %rcx
	shlq	$6, %rcx
	addq	%rcx, %rax
	movq	48(%rax), %rax
	movq	-8(%rbp), %rcx
	movq	-16(%rbp), %rdx
	shlq	$6, %rdx
	addq	%rdx, %rcx
	cmpq	48(%rcx), %rax
	jge	.LBB41_7
# %bb.6:                                # %if.then74
                                        #   in Loop: Header=BB41_1 Depth=1
	movq	-16(%rbp), %rax
	addq	$1, %rax
	movq	%rax, -16(%rbp)
.LBB41_7:                               # %if.end
                                        #   in Loop: Header=BB41_1 Depth=1
	jmp	.LBB41_8
.LBB41_8:                               # %if.end75
                                        #   in Loop: Header=BB41_1 Depth=1
	jmp	.LBB41_1
.LBB41_9:                               # %while.end
	cmpl	$575186499, -44(%rbp)   # imm = 0x2248A643
	jne	.LBB41_11
.LBB41_10:
	addq	$80, %rsp
	popq	%rbp
	.cfi_def_cfa %rsp, 8
	retq
.LBB41_11:                              # %func_exit
	.cfi_def_cfa %rbp, 16
	callq	detect_breach
	jmp	.LBB41_10
.Lfunc_end41:
	.size	replace_weaker_arc.37, .Lfunc_end41-replace_weaker_arc.37
	.cfi_endproc
                                        # -- End function
	.globl	insert_new_arc.38       # -- Begin function insert_new_arc.38
	.p2align	4, 0x90
	.type	insert_new_arc.38,@function
insert_new_arc.38:                      # @insert_new_arc.38
	.cfi_startproc
# %bb.0:                                # %entry
	pushq	%rbp
	.cfi_def_cfa_offset 16
	.cfi_offset %rbp, -16
	movq	%rsp, %rbp
	.cfi_def_cfa_register %rbp
	subq	$64, %rsp
	movl	$364697004, -44(%rbp)   # imm = 0x15BCD5AC
	movq	%rdi, -8(%rbp)
	movq	%rsi, -24(%rbp)
	movq	%rdx, -56(%rbp)
	movq	%rcx, -64(%rbp)
	movq	%r8, -32(%rbp)
	movq	%r9, -40(%rbp)
	movq	-56(%rbp), %rax
	movq	-8(%rbp), %rcx
	movq	-24(%rbp), %rdx
	shlq	$6, %rdx
	addq	%rdx, %rcx
	movq	%rax, 8(%rcx)
	movq	-64(%rbp), %rax
	movq	-8(%rbp), %rcx
	movq	-24(%rbp), %rdx
	shlq	$6, %rdx
	addq	%rdx, %rcx
	movq	%rax, 16(%rcx)
	movq	-32(%rbp), %rax
	movq	-8(%rbp), %rcx
	movq	-24(%rbp), %rdx
	shlq	$6, %rdx
	addq	%rdx, %rcx
	movq	%rax, 56(%rcx)
	movq	-32(%rbp), %rax
	movq	-8(%rbp), %rcx
	movq	-24(%rbp), %rdx
	shlq	$6, %rdx
	addq	%rdx, %rcx
	movq	%rax, (%rcx)
	movq	-40(%rbp), %rax
	movq	-8(%rbp), %rcx
	movq	-24(%rbp), %rdx
	shlq	$6, %rdx
	addq	%rdx, %rcx
	movq	%rax, 48(%rcx)
	movq	-24(%rbp), %rax
	addq	$1, %rax
	movq	%rax, -16(%rbp)
.LBB42_1:                               # %while.cond
                                        # =>This Inner Loop Header: Depth=1
	xorl	%eax, %eax
	movq	-16(%rbp), %rcx
	subq	$1, %rcx
	cmpq	$0, %rcx
	je	.LBB42_3
# %bb.2:                                # %land.rhs
                                        #   in Loop: Header=BB42_1 Depth=1
	movq	-40(%rbp), %rcx
	movq	-8(%rbp), %rsi
	movq	-16(%rbp), %rax
	cqto
	movl	$2, %edi
	idivq	%rdi
	subq	$1, %rax
	shlq	$6, %rax
	addq	%rax, %rsi
	cmpq	48(%rsi), %rcx
	setg	%al
.LBB42_3:                               # %land.end
                                        #   in Loop: Header=BB42_1 Depth=1
	testb	$1, %al
	jne	.LBB42_4
	jmp	.LBB42_5
.LBB42_4:                               # %while.body
                                        #   in Loop: Header=BB42_1 Depth=1
	movq	-8(%rbp), %rsi
	movq	-16(%rbp), %rax
	cqto
	movl	$2, %ecx
	idivq	%rcx
	subq	$1, %rax
	shlq	$6, %rax
	addq	%rax, %rsi
	movq	8(%rsi), %rax
	movq	-8(%rbp), %rdx
	movq	-16(%rbp), %rsi
	subq	$1, %rsi
	shlq	$6, %rsi
	addq	%rsi, %rdx
	movq	%rax, 8(%rdx)
	movq	-8(%rbp), %rsi
	movq	-16(%rbp), %rax
	cqto
	idivq	%rcx
	subq	$1, %rax
	shlq	$6, %rax
	addq	%rax, %rsi
	movq	16(%rsi), %rax
	movq	-8(%rbp), %rdx
	movq	-16(%rbp), %rsi
	subq	$1, %rsi
	shlq	$6, %rsi
	addq	%rsi, %rdx
	movq	%rax, 16(%rdx)
	movq	-8(%rbp), %rsi
	movq	-16(%rbp), %rax
	cqto
	idivq	%rcx
	subq	$1, %rax
	shlq	$6, %rax
	addq	%rax, %rsi
	movq	(%rsi), %rax
	movq	-8(%rbp), %rdx
	movq	-16(%rbp), %rsi
	subq	$1, %rsi
	shlq	$6, %rsi
	addq	%rsi, %rdx
	movq	%rax, (%rdx)
	movq	-8(%rbp), %rsi
	movq	-16(%rbp), %rax
	cqto
	idivq	%rcx
	subq	$1, %rax
	shlq	$6, %rax
	addq	%rax, %rsi
	movq	(%rsi), %rax
	movq	-8(%rbp), %rdx
	movq	-16(%rbp), %rsi
	subq	$1, %rsi
	shlq	$6, %rsi
	addq	%rsi, %rdx
	movq	%rax, 56(%rdx)
	movq	-8(%rbp), %rsi
	movq	-16(%rbp), %rax
	cqto
	idivq	%rcx
	subq	$1, %rax
	shlq	$6, %rax
	addq	%rax, %rsi
	movq	48(%rsi), %rax
	movq	-8(%rbp), %rdx
	movq	-16(%rbp), %rsi
	subq	$1, %rsi
	shlq	$6, %rsi
	addq	%rsi, %rdx
	movq	%rax, 48(%rdx)
	movq	-16(%rbp), %rax
	cqto
	idivq	%rcx
	movq	%rax, -16(%rbp)
	movq	-56(%rbp), %rax
	movq	-8(%rbp), %rcx
	movq	-16(%rbp), %rdx
	subq	$1, %rdx
	shlq	$6, %rdx
	addq	%rdx, %rcx
	movq	%rax, 8(%rcx)
	movq	-64(%rbp), %rax
	movq	-8(%rbp), %rcx
	movq	-16(%rbp), %rdx
	subq	$1, %rdx
	shlq	$6, %rdx
	addq	%rdx, %rcx
	movq	%rax, 16(%rcx)
	movq	-32(%rbp), %rax
	movq	-8(%rbp), %rcx
	movq	-16(%rbp), %rdx
	subq	$1, %rdx
	shlq	$6, %rdx
	addq	%rdx, %rcx
	movq	%rax, (%rcx)
	movq	-32(%rbp), %rax
	movq	-8(%rbp), %rcx
	movq	-16(%rbp), %rdx
	subq	$1, %rdx
	shlq	$6, %rdx
	addq	%rdx, %rcx
	movq	%rax, 56(%rcx)
	movq	-40(%rbp), %rax
	movq	-8(%rbp), %rcx
	movq	-16(%rbp), %rdx
	subq	$1, %rdx
	shlq	$6, %rdx
	addq	%rdx, %rcx
	movq	%rax, 48(%rcx)
	jmp	.LBB42_1
.LBB42_5:                               # %while.end
	cmpl	$364697004, -44(%rbp)   # imm = 0x15BCD5AC
	jne	.LBB42_7
.LBB42_6:
	addq	$64, %rsp
	popq	%rbp
	.cfi_def_cfa %rsp, 8
	retq
.LBB42_7:                               # %func_exit
	.cfi_def_cfa %rbp, 16
	callq	detect_breach
	jmp	.LBB42_6
.Lfunc_end42:
	.size	insert_new_arc.38, .Lfunc_end42-insert_new_arc.38
	.cfi_endproc
                                        # -- End function
	.globl	resize_prob.39          # -- Begin function resize_prob.39
	.p2align	4, 0x90
	.type	resize_prob.39,@function
resize_prob.39:                         # @resize_prob.39
	.cfi_startproc
# %bb.0:                                # %entry
	pushq	%rbp
	.cfi_def_cfa_offset 16
	.cfi_offset %rbp, -16
	movq	%rsp, %rbp
	.cfi_def_cfa_register %rbp
	pushq	%rbx
	subq	$72, %rsp
	.cfi_offset %rbx, -24
	movl	$1536034865, -36(%rbp)  # imm = 0x5B8E0831
	movq	%rdi, -16(%rbp)
	movq	-16(%rbp), %rax
	movq	456(%rax), %rax
	movq	-16(%rbp), %rcx
	addq	416(%rcx), %rax
	movq	%rax, 416(%rcx)
	movq	-16(%rbp), %rax
	movq	456(%rax), %rax
	movq	-16(%rbp), %rcx
	addq	448(%rcx), %rax
	movq	%rax, 448(%rcx)
	movq	-16(%rbp), %rax
	movq	568(%rax), %rdi
	movq	-16(%rbp), %rax
	movq	416(%rax), %rsi
	shlq	$6, %rsi
	callq	realloc
	movq	%rax, -32(%rbp)
	cmpq	$0, -32(%rbp)
	jne	.LBB43_2
# %bb.1:                                # %if.then
	movq	-16(%rbp), %rsi
	movabsq	$.L.str, %rdi
	movb	$0, %al
	callq	printf
	movq	stdout, %rdi
	callq	fflush
	movq	$-1, -48(%rbp)
	jmp	.LBB43_9
.LBB43_2:                               # %if.end
	movq	-32(%rbp), %rax
	movq	-16(%rbp), %rcx
	movq	568(%rcx), %rcx
	subq	%rcx, %rax
	movq	%rax, -64(%rbp)
	movq	-32(%rbp), %rax
	movq	-16(%rbp), %rcx
	movq	%rax, 568(%rcx)
	movq	-32(%rbp), %rax
	movq	-16(%rbp), %rcx
	movq	424(%rcx), %rcx
	shlq	$6, %rcx
	addq	%rcx, %rax
	movq	-16(%rbp), %rcx
	movq	%rax, 576(%rcx)
	movq	-16(%rbp), %rax
	movq	552(%rax), %rax
	movq	%rax, -24(%rbp)
	movq	%rax, -56(%rbp)
	movq	-24(%rbp), %rax
	addq	$104, %rax
	movq	%rax, -24(%rbp)
	movq	-16(%rbp), %rax
	movq	560(%rax), %rax
	movq	%rax, -72(%rbp)
.LBB43_3:                               # %for.cond
                                        # =>This Inner Loop Header: Depth=1
	movq	-24(%rbp), %rax
	cmpq	-72(%rbp), %rax
	jae	.LBB43_8
# %bb.4:                                # %for.body
                                        #   in Loop: Header=BB43_3 Depth=1
	movq	-24(%rbp), %rax
	movq	24(%rax), %rax
	cmpq	-56(%rbp), %rax
	je	.LBB43_6
# %bb.5:                                # %if.then9
                                        #   in Loop: Header=BB43_3 Depth=1
	movq	-24(%rbp), %rax
	movq	48(%rax), %rax
	addq	-64(%rbp), %rax
	movq	-24(%rbp), %rcx
	movq	%rax, 48(%rcx)
.LBB43_6:                               # %if.end12
                                        #   in Loop: Header=BB43_3 Depth=1
	jmp	.LBB43_7
.LBB43_7:                               # %for.inc
                                        #   in Loop: Header=BB43_3 Depth=1
	movq	-24(%rbp), %rax
	addq	$104, %rax
	movq	%rax, -24(%rbp)
	jmp	.LBB43_3
.LBB43_8:                               # %for.end
	movq	$0, -48(%rbp)
.LBB43_9:                               # %return
	movq	-48(%rbp), %rbx
	cmpl	$1536034865, -36(%rbp)  # imm = 0x5B8E0831
	jne	.LBB43_11
.LBB43_10:
	movq	%rbx, %rax
	addq	$72, %rsp
	popq	%rbx
	popq	%rbp
	.cfi_def_cfa %rsp, 8
	retq
.LBB43_11:                              # %func_exit
	.cfi_def_cfa %rbp, 16
	callq	detect_breach
	jmp	.LBB43_10
.Lfunc_end43:
	.size	resize_prob.39, .Lfunc_end43-resize_prob.39
	.cfi_endproc
                                        # -- End function
	.globl	insert_new_arc.40       # -- Begin function insert_new_arc.40
	.p2align	4, 0x90
	.type	insert_new_arc.40,@function
insert_new_arc.40:                      # @insert_new_arc.40
	.cfi_startproc
# %bb.0:                                # %entry
	pushq	%rbp
	.cfi_def_cfa_offset 16
	.cfi_offset %rbp, -16
	movq	%rsp, %rbp
	.cfi_def_cfa_register %rbp
	subq	$64, %rsp
	movl	$1046867677, -44(%rbp)  # imm = 0x3E65EEDD
	movq	%rdi, -8(%rbp)
	movq	%rsi, -24(%rbp)
	movq	%rdx, -64(%rbp)
	movq	%rcx, -56(%rbp)
	movq	%r8, -32(%rbp)
	movq	%r9, -40(%rbp)
	movq	-64(%rbp), %rax
	movq	-8(%rbp), %rcx
	movq	-24(%rbp), %rdx
	shlq	$6, %rdx
	addq	%rdx, %rcx
	movq	%rax, 8(%rcx)
	movq	-56(%rbp), %rax
	movq	-8(%rbp), %rcx
	movq	-24(%rbp), %rdx
	shlq	$6, %rdx
	addq	%rdx, %rcx
	movq	%rax, 16(%rcx)
	movq	-32(%rbp), %rax
	movq	-8(%rbp), %rcx
	movq	-24(%rbp), %rdx
	shlq	$6, %rdx
	addq	%rdx, %rcx
	movq	%rax, 56(%rcx)
	movq	-32(%rbp), %rax
	movq	-8(%rbp), %rcx
	movq	-24(%rbp), %rdx
	shlq	$6, %rdx
	addq	%rdx, %rcx
	movq	%rax, (%rcx)
	movq	-40(%rbp), %rax
	movq	-8(%rbp), %rcx
	movq	-24(%rbp), %rdx
	shlq	$6, %rdx
	addq	%rdx, %rcx
	movq	%rax, 48(%rcx)
	movq	-24(%rbp), %rax
	addq	$1, %rax
	movq	%rax, -16(%rbp)
.LBB44_1:                               # %while.cond
                                        # =>This Inner Loop Header: Depth=1
	xorl	%eax, %eax
	movq	-16(%rbp), %rcx
	subq	$1, %rcx
	cmpq	$0, %rcx
	je	.LBB44_3
# %bb.2:                                # %land.rhs
                                        #   in Loop: Header=BB44_1 Depth=1
	movq	-40(%rbp), %rcx
	movq	-8(%rbp), %rsi
	movq	-16(%rbp), %rax
	cqto
	movl	$2, %edi
	idivq	%rdi
	subq	$1, %rax
	shlq	$6, %rax
	addq	%rax, %rsi
	cmpq	48(%rsi), %rcx
	setg	%al
.LBB44_3:                               # %land.end
                                        #   in Loop: Header=BB44_1 Depth=1
	testb	$1, %al
	jne	.LBB44_4
	jmp	.LBB44_5
.LBB44_4:                               # %while.body
                                        #   in Loop: Header=BB44_1 Depth=1
	movq	-8(%rbp), %rsi
	movq	-16(%rbp), %rax
	cqto
	movl	$2, %ecx
	idivq	%rcx
	subq	$1, %rax
	shlq	$6, %rax
	addq	%rax, %rsi
	movq	8(%rsi), %rax
	movq	-8(%rbp), %rdx
	movq	-16(%rbp), %rsi
	subq	$1, %rsi
	shlq	$6, %rsi
	addq	%rsi, %rdx
	movq	%rax, 8(%rdx)
	movq	-8(%rbp), %rsi
	movq	-16(%rbp), %rax
	cqto
	idivq	%rcx
	subq	$1, %rax
	shlq	$6, %rax
	addq	%rax, %rsi
	movq	16(%rsi), %rax
	movq	-8(%rbp), %rdx
	movq	-16(%rbp), %rsi
	subq	$1, %rsi
	shlq	$6, %rsi
	addq	%rsi, %rdx
	movq	%rax, 16(%rdx)
	movq	-8(%rbp), %rsi
	movq	-16(%rbp), %rax
	cqto
	idivq	%rcx
	subq	$1, %rax
	shlq	$6, %rax
	addq	%rax, %rsi
	movq	(%rsi), %rax
	movq	-8(%rbp), %rdx
	movq	-16(%rbp), %rsi
	subq	$1, %rsi
	shlq	$6, %rsi
	addq	%rsi, %rdx
	movq	%rax, (%rdx)
	movq	-8(%rbp), %rsi
	movq	-16(%rbp), %rax
	cqto
	idivq	%rcx
	subq	$1, %rax
	shlq	$6, %rax
	addq	%rax, %rsi
	movq	(%rsi), %rax
	movq	-8(%rbp), %rdx
	movq	-16(%rbp), %rsi
	subq	$1, %rsi
	shlq	$6, %rsi
	addq	%rsi, %rdx
	movq	%rax, 56(%rdx)
	movq	-8(%rbp), %rsi
	movq	-16(%rbp), %rax
	cqto
	idivq	%rcx
	subq	$1, %rax
	shlq	$6, %rax
	addq	%rax, %rsi
	movq	48(%rsi), %rax
	movq	-8(%rbp), %rdx
	movq	-16(%rbp), %rsi
	subq	$1, %rsi
	shlq	$6, %rsi
	addq	%rsi, %rdx
	movq	%rax, 48(%rdx)
	movq	-16(%rbp), %rax
	cqto
	idivq	%rcx
	movq	%rax, -16(%rbp)
	movq	-64(%rbp), %rax
	movq	-8(%rbp), %rcx
	movq	-16(%rbp), %rdx
	subq	$1, %rdx
	shlq	$6, %rdx
	addq	%rdx, %rcx
	movq	%rax, 8(%rcx)
	movq	-56(%rbp), %rax
	movq	-8(%rbp), %rcx
	movq	-16(%rbp), %rdx
	subq	$1, %rdx
	shlq	$6, %rdx
	addq	%rdx, %rcx
	movq	%rax, 16(%rcx)
	movq	-32(%rbp), %rax
	movq	-8(%rbp), %rcx
	movq	-16(%rbp), %rdx
	subq	$1, %rdx
	shlq	$6, %rdx
	addq	%rdx, %rcx
	movq	%rax, (%rcx)
	movq	-32(%rbp), %rax
	movq	-8(%rbp), %rcx
	movq	-16(%rbp), %rdx
	subq	$1, %rdx
	shlq	$6, %rdx
	addq	%rdx, %rcx
	movq	%rax, 56(%rcx)
	movq	-40(%rbp), %rax
	movq	-8(%rbp), %rcx
	movq	-16(%rbp), %rdx
	subq	$1, %rdx
	shlq	$6, %rdx
	addq	%rdx, %rcx
	movq	%rax, 48(%rcx)
	jmp	.LBB44_1
.LBB44_5:                               # %while.end
	cmpl	$1046867677, -44(%rbp)  # imm = 0x3E65EEDD
	jne	.LBB44_7
.LBB44_6:
	addq	$64, %rsp
	popq	%rbp
	.cfi_def_cfa %rsp, 8
	retq
.LBB44_7:                               # %func_exit
	.cfi_def_cfa %rbp, 16
	callq	detect_breach
	jmp	.LBB44_6
.Lfunc_end44:
	.size	insert_new_arc.40, .Lfunc_end44-insert_new_arc.40
	.cfi_endproc
                                        # -- End function
	.type	.L.str,@object          # @.str
	.section	.rodata.str1.1,"aMS",@progbits,1
.L.str:
	.asciz	"network %s: not enough memory\n"
	.size	.L.str, 31


	.ident	"clang version 9.0.1 (git@github.com:llvm/llvm-project.git 9b2d207cf4b43cfc1a2b6940b3c06e50a1bd127f)"
	.section	".note.GNU-stack","",@progbits
