	.text
	.file	"implicit.c"
	.globl	resize_prob             # -- Begin function resize_prob
	.p2align	4, 0x90
	.type	resize_prob,@function
resize_prob:                            # @resize_prob
	.cfi_startproc
# %bb.0:                                # %rand_bb
	pushq	%rbp
	.cfi_def_cfa_offset 16
	.cfi_offset %rbp, -16
	movq	%rsp, %rbp
	.cfi_def_cfa_register %rbp
	pushq	%rbx
	pushq	%rax
	.cfi_offset %rbx, -24
	movq	%rdi, %rbx
	callq	get_rand
	cmpl	$0, %eax
	jne	.LBB0_17
# %bb.1:                                # %func_resize_prob.3
	movq	%rbx, %rdi
	callq	resize_prob.3
	addq	$8, %rsp
	popq	%rbx
	popq	%rbp
	.cfi_def_cfa %rsp, 8
	retq
.LBB0_2:                                # %func_resize_prob.10
	.cfi_def_cfa %rbp, 16
	movq	%rbx, %rdi
	callq	resize_prob.10
	addq	$8, %rsp
	popq	%rbx
	popq	%rbp
	.cfi_def_cfa %rsp, 8
	retq
.LBB0_3:                                # %func_resize_prob.12
	.cfi_def_cfa %rbp, 16
	movq	%rbx, %rdi
	callq	resize_prob.12
	addq	$8, %rsp
	popq	%rbx
	popq	%rbp
	.cfi_def_cfa %rsp, 8
	retq
.LBB0_4:                                # %func_resize_prob.24
	.cfi_def_cfa %rbp, 16
	movq	%rbx, %rdi
	callq	resize_prob.24
	addq	$8, %rsp
	popq	%rbx
	popq	%rbp
	.cfi_def_cfa %rsp, 8
	retq
.LBB0_5:                                # %func_resize_prob.26
	.cfi_def_cfa %rbp, 16
	movq	%rbx, %rdi
	callq	resize_prob.26
	addq	$8, %rsp
	popq	%rbx
	popq	%rbp
	.cfi_def_cfa %rsp, 8
	retq
.LBB0_6:                                # %func_resize_prob.34
	.cfi_def_cfa %rbp, 16
	movq	%rbx, %rdi
	callq	resize_prob.34
	addq	$8, %rsp
	popq	%rbx
	popq	%rbp
	.cfi_def_cfa %rsp, 8
	retq
.LBB0_7:                                # %func_resize_prob.40
	.cfi_def_cfa %rbp, 16
	movq	%rbx, %rdi
	callq	resize_prob.40
	addq	$8, %rsp
	popq	%rbx
	popq	%rbp
	.cfi_def_cfa %rsp, 8
	retq
.LBB0_8:                                # %func_resize_prob.43
	.cfi_def_cfa %rbp, 16
	movq	%rbx, %rdi
	callq	resize_prob.43
	addq	$8, %rsp
	popq	%rbx
	popq	%rbp
	.cfi_def_cfa %rsp, 8
	retq
.LBB0_9:                                # %func_resize_prob.44
	.cfi_def_cfa %rbp, 16
	movq	%rbx, %rdi
	callq	resize_prob.44
	addq	$8, %rsp
	popq	%rbx
	popq	%rbp
	.cfi_def_cfa %rsp, 8
	retq
.LBB0_10:                               # %func_resize_prob.53
	.cfi_def_cfa %rbp, 16
	movq	%rbx, %rdi
	callq	resize_prob.53
	addq	$8, %rsp
	popq	%rbx
	popq	%rbp
	.cfi_def_cfa %rsp, 8
	retq
.LBB0_11:                               # %func_resize_prob.58
	.cfi_def_cfa %rbp, 16
	movq	%rbx, %rdi
	callq	resize_prob.58
	addq	$8, %rsp
	popq	%rbx
	popq	%rbp
	.cfi_def_cfa %rsp, 8
	retq
.LBB0_12:                               # %func_resize_prob.64
	.cfi_def_cfa %rbp, 16
	movq	%rbx, %rdi
	callq	resize_prob.64
	addq	$8, %rsp
	popq	%rbx
	popq	%rbp
	.cfi_def_cfa %rsp, 8
	retq
.LBB0_13:                               # %func_resize_prob.72
	.cfi_def_cfa %rbp, 16
	movq	%rbx, %rdi
	callq	resize_prob.72
	addq	$8, %rsp
	popq	%rbx
	popq	%rbp
	.cfi_def_cfa %rsp, 8
	retq
.LBB0_14:                               # %func_resize_prob.73
	.cfi_def_cfa %rbp, 16
	movq	%rbx, %rdi
	callq	resize_prob.73
	addq	$8, %rsp
	popq	%rbx
	popq	%rbp
	.cfi_def_cfa %rsp, 8
	retq
.LBB0_15:                               # %func_resize_prob.78
	.cfi_def_cfa %rbp, 16
	movq	%rbx, %rdi
	callq	resize_prob.78
	addq	$8, %rsp
	popq	%rbx
	popq	%rbp
	.cfi_def_cfa %rsp, 8
	retq
.LBB0_16:                               # %func_resize_prob.80
	.cfi_def_cfa %rbp, 16
	movq	%rbx, %rdi
	callq	resize_prob.80
	addq	$8, %rsp
	popq	%rbx
	popq	%rbp
	.cfi_def_cfa %rsp, 8
	retq
.LBB0_17:                               # %ctrl0
	.cfi_def_cfa %rbp, 16
	cmpl	$1, %eax
	je	.LBB0_2
# %bb.18:                               # %ctrl1
	cmpl	$2, %eax
	je	.LBB0_3
# %bb.19:                               # %ctrl2
	cmpl	$3, %eax
	je	.LBB0_4
# %bb.20:                               # %ctrl3
	cmpl	$4, %eax
	je	.LBB0_5
# %bb.21:                               # %ctrl4
	cmpl	$5, %eax
	je	.LBB0_6
# %bb.22:                               # %ctrl5
	cmpl	$6, %eax
	je	.LBB0_7
# %bb.23:                               # %ctrl6
	cmpl	$7, %eax
	je	.LBB0_8
# %bb.24:                               # %ctrl7
	cmpl	$8, %eax
	je	.LBB0_9
# %bb.25:                               # %ctrl8
	cmpl	$9, %eax
	je	.LBB0_10
# %bb.26:                               # %ctrl9
	cmpl	$10, %eax
	je	.LBB0_11
# %bb.27:                               # %ctrl10
	cmpl	$11, %eax
	je	.LBB0_12
# %bb.28:                               # %ctrl11
	cmpl	$12, %eax
	je	.LBB0_13
# %bb.29:                               # %ctrl12
	cmpl	$13, %eax
	je	.LBB0_14
# %bb.30:                               # %ctrl13
	cmpl	$14, %eax
	je	.LBB0_15
	jmp	.LBB0_16
.Lfunc_end0:
	.size	resize_prob, .Lfunc_end0-resize_prob
	.cfi_endproc
                                        # -- End function
	.globl	insert_new_arc          # -- Begin function insert_new_arc
	.p2align	4, 0x90
	.type	insert_new_arc,@function
insert_new_arc:                         # @insert_new_arc
	.cfi_startproc
# %bb.0:                                # %rand_bb
	pushq	%rbp
	.cfi_def_cfa_offset 16
	.cfi_offset %rbp, -16
	movq	%rsp, %rbp
	.cfi_def_cfa_register %rbp
	pushq	%r15
	pushq	%r14
	pushq	%r13
	pushq	%r12
	pushq	%rbx
	pushq	%rax
	.cfi_offset %rbx, -56
	.cfi_offset %r12, -48
	.cfi_offset %r13, -40
	.cfi_offset %r14, -32
	.cfi_offset %r15, -24
	movq	%r9, -48(%rbp)          # 8-byte Spill
	movq	%r8, %r12
	movq	%rcx, %r13
	movq	%rdx, %rbx
	movq	%rsi, %r14
	movq	%rdi, %r15
	callq	get_rand
	cmpl	$0, %eax
	jne	.LBB1_17
# %bb.1:                                # %func_insert_new_arc.1
	movq	%r15, %rdi
	movq	%r14, %rsi
	movq	%rbx, %rdx
	movq	%r13, %rcx
	movq	%r12, %r8
	movq	-48(%rbp), %r9          # 8-byte Reload
	callq	insert_new_arc.1
	addq	$8, %rsp
	popq	%rbx
	popq	%r12
	popq	%r13
	popq	%r14
	popq	%r15
	popq	%rbp
	.cfi_def_cfa %rsp, 8
	retq
.LBB1_2:                                # %func_insert_new_arc.8
	.cfi_def_cfa %rbp, 16
	movq	%r13, %rcx
	movq	%r11, %r8
	movq	%r10, %r9
	callq	insert_new_arc.8
	addq	$8, %rsp
	popq	%rbx
	popq	%r12
	popq	%r13
	popq	%r14
	popq	%r15
	popq	%rbp
	.cfi_def_cfa %rsp, 8
	retq
.LBB1_3:                                # %func_insert_new_arc.9
	.cfi_def_cfa %rbp, 16
	movq	%rbx, %rdi
	movq	%r14, %rsi
	movq	%r12, %rdx
	movq	%r15, %rcx
	callq	insert_new_arc.9
	addq	$8, %rsp
	popq	%rbx
	popq	%r12
	popq	%r13
	popq	%r14
	popq	%r15
	popq	%rbp
	.cfi_def_cfa %rsp, 8
	retq
.LBB1_4:                                # %func_insert_new_arc.14
	.cfi_def_cfa %rbp, 16
	movq	%rbx, %rdi
	movq	%r14, %rsi
	movq	%r12, %rdx
	movq	%r15, %rcx
	callq	insert_new_arc.14
	addq	$8, %rsp
	popq	%rbx
	popq	%r12
	popq	%r13
	popq	%r14
	popq	%r15
	popq	%rbp
	.cfi_def_cfa %rsp, 8
	retq
.LBB1_5:                                # %func_insert_new_arc.15
	.cfi_def_cfa %rbp, 16
	movq	%rbx, %rdi
	movq	%r14, %rsi
	movq	%r12, %rdx
	movq	%r15, %rcx
	callq	insert_new_arc.15
	addq	$8, %rsp
	popq	%rbx
	popq	%r12
	popq	%r13
	popq	%r14
	popq	%r15
	popq	%rbp
	.cfi_def_cfa %rsp, 8
	retq
.LBB1_6:                                # %func_insert_new_arc.17
	.cfi_def_cfa %rbp, 16
	movq	%rbx, %rdi
	movq	%r14, %rsi
	movq	%r12, %rdx
	movq	%r15, %rcx
	callq	insert_new_arc.17
	addq	$8, %rsp
	popq	%rbx
	popq	%r12
	popq	%r13
	popq	%r14
	popq	%r15
	popq	%rbp
	.cfi_def_cfa %rsp, 8
	retq
.LBB1_7:                                # %func_insert_new_arc.18
	.cfi_def_cfa %rbp, 16
	movq	%rbx, %rdi
	movq	%r14, %rsi
	movq	%r12, %rdx
	movq	%r15, %rcx
	callq	insert_new_arc.18
	addq	$8, %rsp
	popq	%rbx
	popq	%r12
	popq	%r13
	popq	%r14
	popq	%r15
	popq	%rbp
	.cfi_def_cfa %rsp, 8
	retq
.LBB1_8:                                # %func_insert_new_arc.22
	.cfi_def_cfa %rbp, 16
	movq	%rbx, %rdi
	movq	%r14, %rsi
	movq	%r12, %rdx
	movq	%r15, %rcx
	callq	insert_new_arc.22
	addq	$8, %rsp
	popq	%rbx
	popq	%r12
	popq	%r13
	popq	%r14
	popq	%r15
	popq	%rbp
	.cfi_def_cfa %rsp, 8
	retq
.LBB1_9:                                # %func_insert_new_arc.27
	.cfi_def_cfa %rbp, 16
	movq	%rbx, %rdi
	movq	%r14, %rsi
	movq	%r12, %rdx
	movq	%r15, %rcx
	callq	insert_new_arc.27
	addq	$8, %rsp
	popq	%rbx
	popq	%r12
	popq	%r13
	popq	%r14
	popq	%r15
	popq	%rbp
	.cfi_def_cfa %rsp, 8
	retq
.LBB1_10:                               # %func_insert_new_arc.29
	.cfi_def_cfa %rbp, 16
	movq	%rbx, %rdi
	movq	%r14, %rsi
	movq	%r12, %rdx
	movq	%r15, %rcx
	callq	insert_new_arc.29
	addq	$8, %rsp
	popq	%rbx
	popq	%r12
	popq	%r13
	popq	%r14
	popq	%r15
	popq	%rbp
	.cfi_def_cfa %rsp, 8
	retq
.LBB1_11:                               # %func_insert_new_arc.37
	.cfi_def_cfa %rbp, 16
	movq	%rbx, %rdi
	movq	%r14, %rsi
	movq	%r12, %rdx
	movq	%r15, %rcx
	callq	insert_new_arc.37
	addq	$8, %rsp
	popq	%rbx
	popq	%r12
	popq	%r13
	popq	%r14
	popq	%r15
	popq	%rbp
	.cfi_def_cfa %rsp, 8
	retq
.LBB1_12:                               # %func_insert_new_arc.47
	.cfi_def_cfa %rbp, 16
	movq	%rbx, %rdi
	movq	%r14, %rsi
	movq	%r12, %rdx
	movq	%r15, %rcx
	callq	insert_new_arc.47
	addq	$8, %rsp
	popq	%rbx
	popq	%r12
	popq	%r13
	popq	%r14
	popq	%r15
	popq	%rbp
	.cfi_def_cfa %rsp, 8
	retq
.LBB1_13:                               # %func_insert_new_arc.59
	.cfi_def_cfa %rbp, 16
	movq	%rbx, %rdi
	movq	%r14, %rsi
	movq	%r12, %rdx
	movq	%r15, %rcx
	callq	insert_new_arc.59
	addq	$8, %rsp
	popq	%rbx
	popq	%r12
	popq	%r13
	popq	%r14
	popq	%r15
	popq	%rbp
	.cfi_def_cfa %rsp, 8
	retq
.LBB1_14:                               # %func_insert_new_arc.62
	.cfi_def_cfa %rbp, 16
	movq	%rbx, %rdi
	movq	%r14, %rsi
	movq	%r12, %rdx
	movq	%r15, %rcx
	callq	insert_new_arc.62
	addq	$8, %rsp
	popq	%rbx
	popq	%r12
	popq	%r13
	popq	%r14
	popq	%r15
	popq	%rbp
	.cfi_def_cfa %rsp, 8
	retq
.LBB1_15:                               # %func_insert_new_arc.71
	.cfi_def_cfa %rbp, 16
	movq	%r13, %rcx
	movq	%r11, %r8
	movq	%r10, %r9
	callq	insert_new_arc.71
	addq	$8, %rsp
	popq	%rbx
	popq	%r12
	popq	%r13
	popq	%r14
	popq	%r15
	popq	%rbp
	.cfi_def_cfa %rsp, 8
	retq
.LBB1_16:                               # %func_insert_new_arc.74
	.cfi_def_cfa %rbp, 16
	movq	%r13, %rcx
	movq	%r11, %r8
	movq	%r10, %r9
	callq	insert_new_arc.74
	addq	$8, %rsp
	popq	%rbx
	popq	%r12
	popq	%r13
	popq	%r14
	popq	%r15
	popq	%rbp
	.cfi_def_cfa %rsp, 8
	retq
.LBB1_17:                               # %ctrl0
	.cfi_def_cfa %rbp, 16
	movq	%r15, %rdi
	movq	%r14, %rsi
	movq	%rbx, %rdx
	movq	%r12, %r11
	movq	-48(%rbp), %r10         # 8-byte Reload
	cmpl	$1, %eax
	je	.LBB1_2
# %bb.18:                               # %ctrl1
	cmpl	$2, %eax
	movq	%r10, %r9
	movq	%r11, %r8
	movq	%r13, %r15
	movq	%rdx, %r12
	movq	%rsi, %r14
	movq	%rdi, %rbx
	je	.LBB1_3
# %bb.19:                               # %ctrl2
	cmpl	$3, %eax
	je	.LBB1_4
# %bb.20:                               # %ctrl3
	cmpl	$4, %eax
	je	.LBB1_5
# %bb.21:                               # %ctrl4
	cmpl	$5, %eax
	je	.LBB1_6
# %bb.22:                               # %ctrl5
	cmpl	$6, %eax
	je	.LBB1_7
# %bb.23:                               # %ctrl6
	cmpl	$7, %eax
	je	.LBB1_8
# %bb.24:                               # %ctrl7
	cmpl	$8, %eax
	je	.LBB1_9
# %bb.25:                               # %ctrl8
	cmpl	$9, %eax
	je	.LBB1_10
# %bb.26:                               # %ctrl9
	cmpl	$10, %eax
	je	.LBB1_11
# %bb.27:                               # %ctrl10
	cmpl	$11, %eax
	je	.LBB1_12
# %bb.28:                               # %ctrl11
	cmpl	$12, %eax
	je	.LBB1_13
# %bb.29:                               # %ctrl12
	cmpl	$13, %eax
	je	.LBB1_14
# %bb.30:                               # %ctrl13
	cmpl	$14, %eax
	je	.LBB1_15
	jmp	.LBB1_16
.Lfunc_end1:
	.size	insert_new_arc, .Lfunc_end1-insert_new_arc
	.cfi_endproc
                                        # -- End function
	.globl	replace_weaker_arc      # -- Begin function replace_weaker_arc
	.p2align	4, 0x90
	.type	replace_weaker_arc,@function
replace_weaker_arc:                     # @replace_weaker_arc
	.cfi_startproc
# %bb.0:                                # %rand_bb
	pushq	%rbp
	.cfi_def_cfa_offset 16
	.cfi_offset %rbp, -16
	movq	%rsp, %rbp
	.cfi_def_cfa_register %rbp
	pushq	%r15
	pushq	%r14
	pushq	%r13
	pushq	%r12
	pushq	%rbx
	pushq	%rax
	.cfi_offset %rbx, -56
	.cfi_offset %r12, -48
	.cfi_offset %r13, -40
	.cfi_offset %r14, -32
	.cfi_offset %r15, -24
	movq	%r9, -48(%rbp)          # 8-byte Spill
	movq	%r8, %r12
	movq	%rcx, %r13
	movq	%rdx, %rbx
	movq	%rsi, %r14
	movq	%rdi, %r15
	callq	get_rand
	cmpl	$0, %eax
	jne	.LBB2_17
# %bb.1:                                # %func_replace_weaker_arc.19
	movq	%r15, %rdi
	movq	%r14, %rsi
	movq	%rbx, %rdx
	movq	%r13, %rcx
	movq	%r12, %r8
	movq	-48(%rbp), %r9          # 8-byte Reload
	callq	replace_weaker_arc.19
	addq	$8, %rsp
	popq	%rbx
	popq	%r12
	popq	%r13
	popq	%r14
	popq	%r15
	popq	%rbp
	.cfi_def_cfa %rsp, 8
	retq
.LBB2_2:                                # %func_replace_weaker_arc.20
	.cfi_def_cfa %rbp, 16
	movq	%r13, %rcx
	movq	%r11, %r8
	movq	%r10, %r9
	callq	replace_weaker_arc.20
	addq	$8, %rsp
	popq	%rbx
	popq	%r12
	popq	%r13
	popq	%r14
	popq	%r15
	popq	%rbp
	.cfi_def_cfa %rsp, 8
	retq
.LBB2_3:                                # %func_replace_weaker_arc.21
	.cfi_def_cfa %rbp, 16
	movq	%rbx, %rdi
	movq	%r14, %rsi
	movq	%r12, %rdx
	movq	%r15, %rcx
	callq	replace_weaker_arc.21
	addq	$8, %rsp
	popq	%rbx
	popq	%r12
	popq	%r13
	popq	%r14
	popq	%r15
	popq	%rbp
	.cfi_def_cfa %rsp, 8
	retq
.LBB2_4:                                # %func_replace_weaker_arc.25
	.cfi_def_cfa %rbp, 16
	movq	%rbx, %rdi
	movq	%r14, %rsi
	movq	%r12, %rdx
	movq	%r15, %rcx
	callq	replace_weaker_arc.25
	addq	$8, %rsp
	popq	%rbx
	popq	%r12
	popq	%r13
	popq	%r14
	popq	%r15
	popq	%rbp
	.cfi_def_cfa %rsp, 8
	retq
.LBB2_5:                                # %func_replace_weaker_arc.28
	.cfi_def_cfa %rbp, 16
	movq	%rbx, %rdi
	movq	%r14, %rsi
	movq	%r12, %rdx
	movq	%r15, %rcx
	callq	replace_weaker_arc.28
	addq	$8, %rsp
	popq	%rbx
	popq	%r12
	popq	%r13
	popq	%r14
	popq	%r15
	popq	%rbp
	.cfi_def_cfa %rsp, 8
	retq
.LBB2_6:                                # %func_replace_weaker_arc.32
	.cfi_def_cfa %rbp, 16
	movq	%rbx, %rdi
	movq	%r14, %rsi
	movq	%r12, %rdx
	movq	%r15, %rcx
	callq	replace_weaker_arc.32
	addq	$8, %rsp
	popq	%rbx
	popq	%r12
	popq	%r13
	popq	%r14
	popq	%r15
	popq	%rbp
	.cfi_def_cfa %rsp, 8
	retq
.LBB2_7:                                # %func_replace_weaker_arc.36
	.cfi_def_cfa %rbp, 16
	movq	%rbx, %rdi
	movq	%r14, %rsi
	movq	%r12, %rdx
	movq	%r15, %rcx
	callq	replace_weaker_arc.36
	addq	$8, %rsp
	popq	%rbx
	popq	%r12
	popq	%r13
	popq	%r14
	popq	%r15
	popq	%rbp
	.cfi_def_cfa %rsp, 8
	retq
.LBB2_8:                                # %func_replace_weaker_arc.45
	.cfi_def_cfa %rbp, 16
	movq	%rbx, %rdi
	movq	%r14, %rsi
	movq	%r12, %rdx
	movq	%r15, %rcx
	callq	replace_weaker_arc.45
	addq	$8, %rsp
	popq	%rbx
	popq	%r12
	popq	%r13
	popq	%r14
	popq	%r15
	popq	%rbp
	.cfi_def_cfa %rsp, 8
	retq
.LBB2_9:                                # %func_replace_weaker_arc.49
	.cfi_def_cfa %rbp, 16
	movq	%rbx, %rdi
	movq	%r14, %rsi
	movq	%r12, %rdx
	movq	%r15, %rcx
	callq	replace_weaker_arc.49
	addq	$8, %rsp
	popq	%rbx
	popq	%r12
	popq	%r13
	popq	%r14
	popq	%r15
	popq	%rbp
	.cfi_def_cfa %rsp, 8
	retq
.LBB2_10:                               # %func_replace_weaker_arc.55
	.cfi_def_cfa %rbp, 16
	movq	%rbx, %rdi
	movq	%r14, %rsi
	movq	%r12, %rdx
	movq	%r15, %rcx
	callq	replace_weaker_arc.55
	addq	$8, %rsp
	popq	%rbx
	popq	%r12
	popq	%r13
	popq	%r14
	popq	%r15
	popq	%rbp
	.cfi_def_cfa %rsp, 8
	retq
.LBB2_11:                               # %func_replace_weaker_arc.68
	.cfi_def_cfa %rbp, 16
	movq	%rbx, %rdi
	movq	%r14, %rsi
	movq	%r12, %rdx
	movq	%r15, %rcx
	callq	replace_weaker_arc.68
	addq	$8, %rsp
	popq	%rbx
	popq	%r12
	popq	%r13
	popq	%r14
	popq	%r15
	popq	%rbp
	.cfi_def_cfa %rsp, 8
	retq
.LBB2_12:                               # %func_replace_weaker_arc.69
	.cfi_def_cfa %rbp, 16
	movq	%rbx, %rdi
	movq	%r14, %rsi
	movq	%r12, %rdx
	movq	%r15, %rcx
	callq	replace_weaker_arc.69
	addq	$8, %rsp
	popq	%rbx
	popq	%r12
	popq	%r13
	popq	%r14
	popq	%r15
	popq	%rbp
	.cfi_def_cfa %rsp, 8
	retq
.LBB2_13:                               # %func_replace_weaker_arc.70
	.cfi_def_cfa %rbp, 16
	movq	%rbx, %rdi
	movq	%r14, %rsi
	movq	%r12, %rdx
	movq	%r15, %rcx
	callq	replace_weaker_arc.70
	addq	$8, %rsp
	popq	%rbx
	popq	%r12
	popq	%r13
	popq	%r14
	popq	%r15
	popq	%rbp
	.cfi_def_cfa %rsp, 8
	retq
.LBB2_14:                               # %func_replace_weaker_arc.76
	.cfi_def_cfa %rbp, 16
	movq	%rbx, %rdi
	movq	%r14, %rsi
	movq	%r12, %rdx
	movq	%r15, %rcx
	callq	replace_weaker_arc.76
	addq	$8, %rsp
	popq	%rbx
	popq	%r12
	popq	%r13
	popq	%r14
	popq	%r15
	popq	%rbp
	.cfi_def_cfa %rsp, 8
	retq
.LBB2_15:                               # %func_replace_weaker_arc.77
	.cfi_def_cfa %rbp, 16
	movq	%r13, %rcx
	movq	%r11, %r8
	movq	%r10, %r9
	callq	replace_weaker_arc.77
	addq	$8, %rsp
	popq	%rbx
	popq	%r12
	popq	%r13
	popq	%r14
	popq	%r15
	popq	%rbp
	.cfi_def_cfa %rsp, 8
	retq
.LBB2_16:                               # %func_replace_weaker_arc.79
	.cfi_def_cfa %rbp, 16
	movq	%r13, %rcx
	movq	%r11, %r8
	movq	%r10, %r9
	callq	replace_weaker_arc.79
	addq	$8, %rsp
	popq	%rbx
	popq	%r12
	popq	%r13
	popq	%r14
	popq	%r15
	popq	%rbp
	.cfi_def_cfa %rsp, 8
	retq
.LBB2_17:                               # %ctrl0
	.cfi_def_cfa %rbp, 16
	movq	%r15, %rdi
	movq	%r14, %rsi
	movq	%rbx, %rdx
	movq	%r12, %r11
	movq	-48(%rbp), %r10         # 8-byte Reload
	cmpl	$1, %eax
	je	.LBB2_2
# %bb.18:                               # %ctrl1
	cmpl	$2, %eax
	movq	%r10, %r9
	movq	%r11, %r8
	movq	%r13, %r15
	movq	%rdx, %r12
	movq	%rsi, %r14
	movq	%rdi, %rbx
	je	.LBB2_3
# %bb.19:                               # %ctrl2
	cmpl	$3, %eax
	je	.LBB2_4
# %bb.20:                               # %ctrl3
	cmpl	$4, %eax
	je	.LBB2_5
# %bb.21:                               # %ctrl4
	cmpl	$5, %eax
	je	.LBB2_6
# %bb.22:                               # %ctrl5
	cmpl	$6, %eax
	je	.LBB2_7
# %bb.23:                               # %ctrl6
	cmpl	$7, %eax
	je	.LBB2_8
# %bb.24:                               # %ctrl7
	cmpl	$8, %eax
	je	.LBB2_9
# %bb.25:                               # %ctrl8
	cmpl	$9, %eax
	je	.LBB2_10
# %bb.26:                               # %ctrl9
	cmpl	$10, %eax
	je	.LBB2_11
# %bb.27:                               # %ctrl10
	cmpl	$11, %eax
	je	.LBB2_12
# %bb.28:                               # %ctrl11
	cmpl	$12, %eax
	je	.LBB2_13
# %bb.29:                               # %ctrl12
	cmpl	$13, %eax
	je	.LBB2_14
# %bb.30:                               # %ctrl13
	cmpl	$14, %eax
	je	.LBB2_15
	jmp	.LBB2_16
.Lfunc_end2:
	.size	replace_weaker_arc, .Lfunc_end2-replace_weaker_arc
	.cfi_endproc
                                        # -- End function
	.globl	price_out_impl          # -- Begin function price_out_impl
	.p2align	4, 0x90
	.type	price_out_impl,@function
price_out_impl:                         # @price_out_impl
	.cfi_startproc
# %bb.0:                                # %rand_bb
	pushq	%rbp
	.cfi_def_cfa_offset 16
	.cfi_offset %rbp, -16
	movq	%rsp, %rbp
	.cfi_def_cfa_register %rbp
	pushq	%rbx
	pushq	%rax
	.cfi_offset %rbx, -24
	movq	%rdi, %rbx
	callq	get_rand
	cmpl	$0, %eax
	jne	.LBB3_17
# %bb.1:                                # %func_price_out_impl.4
	movq	%rbx, %rdi
	callq	price_out_impl.4
	addq	$8, %rsp
	popq	%rbx
	popq	%rbp
	.cfi_def_cfa %rsp, 8
	retq
.LBB3_2:                                # %func_price_out_impl.5
	.cfi_def_cfa %rbp, 16
	movq	%rbx, %rdi
	callq	price_out_impl.5
	addq	$8, %rsp
	popq	%rbx
	popq	%rbp
	.cfi_def_cfa %rsp, 8
	retq
.LBB3_3:                                # %func_price_out_impl.7
	.cfi_def_cfa %rbp, 16
	movq	%rbx, %rdi
	callq	price_out_impl.7
	addq	$8, %rsp
	popq	%rbx
	popq	%rbp
	.cfi_def_cfa %rsp, 8
	retq
.LBB3_4:                                # %func_price_out_impl.23
	.cfi_def_cfa %rbp, 16
	movq	%rbx, %rdi
	callq	price_out_impl.23
	addq	$8, %rsp
	popq	%rbx
	popq	%rbp
	.cfi_def_cfa %rsp, 8
	retq
.LBB3_5:                                # %func_price_out_impl.31
	.cfi_def_cfa %rbp, 16
	movq	%rbx, %rdi
	callq	price_out_impl.31
	addq	$8, %rsp
	popq	%rbx
	popq	%rbp
	.cfi_def_cfa %rsp, 8
	retq
.LBB3_6:                                # %func_price_out_impl.33
	.cfi_def_cfa %rbp, 16
	movq	%rbx, %rdi
	callq	price_out_impl.33
	addq	$8, %rsp
	popq	%rbx
	popq	%rbp
	.cfi_def_cfa %rsp, 8
	retq
.LBB3_7:                                # %func_price_out_impl.35
	.cfi_def_cfa %rbp, 16
	movq	%rbx, %rdi
	callq	price_out_impl.35
	addq	$8, %rsp
	popq	%rbx
	popq	%rbp
	.cfi_def_cfa %rsp, 8
	retq
.LBB3_8:                                # %func_price_out_impl.38
	.cfi_def_cfa %rbp, 16
	movq	%rbx, %rdi
	callq	price_out_impl.38
	addq	$8, %rsp
	popq	%rbx
	popq	%rbp
	.cfi_def_cfa %rsp, 8
	retq
.LBB3_9:                                # %func_price_out_impl.39
	.cfi_def_cfa %rbp, 16
	movq	%rbx, %rdi
	callq	price_out_impl.39
	addq	$8, %rsp
	popq	%rbx
	popq	%rbp
	.cfi_def_cfa %rsp, 8
	retq
.LBB3_10:                               # %func_price_out_impl.41
	.cfi_def_cfa %rbp, 16
	movq	%rbx, %rdi
	callq	price_out_impl.41
	addq	$8, %rsp
	popq	%rbx
	popq	%rbp
	.cfi_def_cfa %rsp, 8
	retq
.LBB3_11:                               # %func_price_out_impl.48
	.cfi_def_cfa %rbp, 16
	movq	%rbx, %rdi
	callq	price_out_impl.48
	addq	$8, %rsp
	popq	%rbx
	popq	%rbp
	.cfi_def_cfa %rsp, 8
	retq
.LBB3_12:                               # %func_price_out_impl.50
	.cfi_def_cfa %rbp, 16
	movq	%rbx, %rdi
	callq	price_out_impl.50
	addq	$8, %rsp
	popq	%rbx
	popq	%rbp
	.cfi_def_cfa %rsp, 8
	retq
.LBB3_13:                               # %func_price_out_impl.51
	.cfi_def_cfa %rbp, 16
	movq	%rbx, %rdi
	callq	price_out_impl.51
	addq	$8, %rsp
	popq	%rbx
	popq	%rbp
	.cfi_def_cfa %rsp, 8
	retq
.LBB3_14:                               # %func_price_out_impl.54
	.cfi_def_cfa %rbp, 16
	movq	%rbx, %rdi
	callq	price_out_impl.54
	addq	$8, %rsp
	popq	%rbx
	popq	%rbp
	.cfi_def_cfa %rsp, 8
	retq
.LBB3_15:                               # %func_price_out_impl.57
	.cfi_def_cfa %rbp, 16
	movq	%rbx, %rdi
	callq	price_out_impl.57
	addq	$8, %rsp
	popq	%rbx
	popq	%rbp
	.cfi_def_cfa %rsp, 8
	retq
.LBB3_16:                               # %func_price_out_impl.75
	.cfi_def_cfa %rbp, 16
	movq	%rbx, %rdi
	callq	price_out_impl.75
	addq	$8, %rsp
	popq	%rbx
	popq	%rbp
	.cfi_def_cfa %rsp, 8
	retq
.LBB3_17:                               # %ctrl0
	.cfi_def_cfa %rbp, 16
	cmpl	$1, %eax
	je	.LBB3_2
# %bb.18:                               # %ctrl1
	cmpl	$2, %eax
	je	.LBB3_3
# %bb.19:                               # %ctrl2
	cmpl	$3, %eax
	je	.LBB3_4
# %bb.20:                               # %ctrl3
	cmpl	$4, %eax
	je	.LBB3_5
# %bb.21:                               # %ctrl4
	cmpl	$5, %eax
	je	.LBB3_6
# %bb.22:                               # %ctrl5
	cmpl	$6, %eax
	je	.LBB3_7
# %bb.23:                               # %ctrl6
	cmpl	$7, %eax
	je	.LBB3_8
# %bb.24:                               # %ctrl7
	cmpl	$8, %eax
	je	.LBB3_9
# %bb.25:                               # %ctrl8
	cmpl	$9, %eax
	je	.LBB3_10
# %bb.26:                               # %ctrl9
	cmpl	$10, %eax
	je	.LBB3_11
# %bb.27:                               # %ctrl10
	cmpl	$11, %eax
	je	.LBB3_12
# %bb.28:                               # %ctrl11
	cmpl	$12, %eax
	je	.LBB3_13
# %bb.29:                               # %ctrl12
	cmpl	$13, %eax
	je	.LBB3_14
# %bb.30:                               # %ctrl13
	cmpl	$14, %eax
	je	.LBB3_15
	jmp	.LBB3_16
.Lfunc_end3:
	.size	price_out_impl, .Lfunc_end3-price_out_impl
	.cfi_endproc
                                        # -- End function
	.globl	suspend_impl            # -- Begin function suspend_impl
	.p2align	4, 0x90
	.type	suspend_impl,@function
suspend_impl:                           # @suspend_impl
	.cfi_startproc
# %bb.0:                                # %rand_bb
	pushq	%rbp
	.cfi_def_cfa_offset 16
	.cfi_offset %rbp, -16
	movq	%rsp, %rbp
	.cfi_def_cfa_register %rbp
	pushq	%r15
	pushq	%r14
	pushq	%rbx
	pushq	%rax
	.cfi_offset %rbx, -40
	.cfi_offset %r14, -32
	.cfi_offset %r15, -24
	movq	%rdx, %r14
	movq	%rsi, %r15
	movq	%rdi, %rbx
	callq	get_rand
	cmpl	$0, %eax
	jne	.LBB4_17
# %bb.1:                                # %func_suspend_impl.2
	movq	%rbx, %rdi
	movq	%r15, %rsi
	movq	%r14, %rdx
	callq	suspend_impl.2
	addq	$8, %rsp
	popq	%rbx
	popq	%r14
	popq	%r15
	popq	%rbp
	.cfi_def_cfa %rsp, 8
	retq
.LBB4_2:                                # %func_suspend_impl.6
	.cfi_def_cfa %rbp, 16
	movq	%rbx, %rdi
	movq	%r15, %rsi
	movq	%r14, %rdx
	callq	suspend_impl.6
	addq	$8, %rsp
	popq	%rbx
	popq	%r14
	popq	%r15
	popq	%rbp
	.cfi_def_cfa %rsp, 8
	retq
.LBB4_3:                                # %func_suspend_impl.11
	.cfi_def_cfa %rbp, 16
	movq	%rbx, %rdi
	movq	%r15, %rsi
	movq	%r14, %rdx
	callq	suspend_impl.11
	addq	$8, %rsp
	popq	%rbx
	popq	%r14
	popq	%r15
	popq	%rbp
	.cfi_def_cfa %rsp, 8
	retq
.LBB4_4:                                # %func_suspend_impl.13
	.cfi_def_cfa %rbp, 16
	movq	%rbx, %rdi
	movq	%r15, %rsi
	movq	%r14, %rdx
	callq	suspend_impl.13
	addq	$8, %rsp
	popq	%rbx
	popq	%r14
	popq	%r15
	popq	%rbp
	.cfi_def_cfa %rsp, 8
	retq
.LBB4_5:                                # %func_suspend_impl.16
	.cfi_def_cfa %rbp, 16
	movq	%rbx, %rdi
	movq	%r15, %rsi
	movq	%r14, %rdx
	callq	suspend_impl.16
	addq	$8, %rsp
	popq	%rbx
	popq	%r14
	popq	%r15
	popq	%rbp
	.cfi_def_cfa %rsp, 8
	retq
.LBB4_6:                                # %func_suspend_impl.30
	.cfi_def_cfa %rbp, 16
	movq	%rbx, %rdi
	movq	%r15, %rsi
	movq	%r14, %rdx
	callq	suspend_impl.30
	addq	$8, %rsp
	popq	%rbx
	popq	%r14
	popq	%r15
	popq	%rbp
	.cfi_def_cfa %rsp, 8
	retq
.LBB4_7:                                # %func_suspend_impl.42
	.cfi_def_cfa %rbp, 16
	movq	%rbx, %rdi
	movq	%r15, %rsi
	movq	%r14, %rdx
	callq	suspend_impl.42
	addq	$8, %rsp
	popq	%rbx
	popq	%r14
	popq	%r15
	popq	%rbp
	.cfi_def_cfa %rsp, 8
	retq
.LBB4_8:                                # %func_suspend_impl.46
	.cfi_def_cfa %rbp, 16
	movq	%rbx, %rdi
	movq	%r15, %rsi
	movq	%r14, %rdx
	callq	suspend_impl.46
	addq	$8, %rsp
	popq	%rbx
	popq	%r14
	popq	%r15
	popq	%rbp
	.cfi_def_cfa %rsp, 8
	retq
.LBB4_9:                                # %func_suspend_impl.52
	.cfi_def_cfa %rbp, 16
	movq	%rbx, %rdi
	movq	%r15, %rsi
	movq	%r14, %rdx
	callq	suspend_impl.52
	addq	$8, %rsp
	popq	%rbx
	popq	%r14
	popq	%r15
	popq	%rbp
	.cfi_def_cfa %rsp, 8
	retq
.LBB4_10:                               # %func_suspend_impl.56
	.cfi_def_cfa %rbp, 16
	movq	%rbx, %rdi
	movq	%r15, %rsi
	movq	%r14, %rdx
	callq	suspend_impl.56
	addq	$8, %rsp
	popq	%rbx
	popq	%r14
	popq	%r15
	popq	%rbp
	.cfi_def_cfa %rsp, 8
	retq
.LBB4_11:                               # %func_suspend_impl.60
	.cfi_def_cfa %rbp, 16
	movq	%rbx, %rdi
	movq	%r15, %rsi
	movq	%r14, %rdx
	callq	suspend_impl.60
	addq	$8, %rsp
	popq	%rbx
	popq	%r14
	popq	%r15
	popq	%rbp
	.cfi_def_cfa %rsp, 8
	retq
.LBB4_12:                               # %func_suspend_impl.61
	.cfi_def_cfa %rbp, 16
	movq	%rbx, %rdi
	movq	%r15, %rsi
	movq	%r14, %rdx
	callq	suspend_impl.61
	addq	$8, %rsp
	popq	%rbx
	popq	%r14
	popq	%r15
	popq	%rbp
	.cfi_def_cfa %rsp, 8
	retq
.LBB4_13:                               # %func_suspend_impl.63
	.cfi_def_cfa %rbp, 16
	movq	%rbx, %rdi
	movq	%r15, %rsi
	movq	%r14, %rdx
	callq	suspend_impl.63
	addq	$8, %rsp
	popq	%rbx
	popq	%r14
	popq	%r15
	popq	%rbp
	.cfi_def_cfa %rsp, 8
	retq
.LBB4_14:                               # %func_suspend_impl.65
	.cfi_def_cfa %rbp, 16
	movq	%rbx, %rdi
	movq	%r15, %rsi
	movq	%r14, %rdx
	callq	suspend_impl.65
	addq	$8, %rsp
	popq	%rbx
	popq	%r14
	popq	%r15
	popq	%rbp
	.cfi_def_cfa %rsp, 8
	retq
.LBB4_15:                               # %func_suspend_impl.66
	.cfi_def_cfa %rbp, 16
	movq	%rbx, %rdi
	movq	%r15, %rsi
	movq	%r14, %rdx
	callq	suspend_impl.66
	addq	$8, %rsp
	popq	%rbx
	popq	%r14
	popq	%r15
	popq	%rbp
	.cfi_def_cfa %rsp, 8
	retq
.LBB4_16:                               # %func_suspend_impl.67
	.cfi_def_cfa %rbp, 16
	movq	%rbx, %rdi
	movq	%r15, %rsi
	movq	%r14, %rdx
	callq	suspend_impl.67
	addq	$8, %rsp
	popq	%rbx
	popq	%r14
	popq	%r15
	popq	%rbp
	.cfi_def_cfa %rsp, 8
	retq
.LBB4_17:                               # %ctrl0
	.cfi_def_cfa %rbp, 16
	cmpl	$1, %eax
	je	.LBB4_2
# %bb.18:                               # %ctrl1
	cmpl	$2, %eax
	je	.LBB4_3
# %bb.19:                               # %ctrl2
	cmpl	$3, %eax
	je	.LBB4_4
# %bb.20:                               # %ctrl3
	cmpl	$4, %eax
	je	.LBB4_5
# %bb.21:                               # %ctrl4
	cmpl	$5, %eax
	je	.LBB4_6
# %bb.22:                               # %ctrl5
	cmpl	$6, %eax
	je	.LBB4_7
# %bb.23:                               # %ctrl6
	cmpl	$7, %eax
	je	.LBB4_8
# %bb.24:                               # %ctrl7
	cmpl	$8, %eax
	je	.LBB4_9
# %bb.25:                               # %ctrl8
	cmpl	$9, %eax
	je	.LBB4_10
# %bb.26:                               # %ctrl9
	cmpl	$10, %eax
	je	.LBB4_11
# %bb.27:                               # %ctrl10
	cmpl	$11, %eax
	je	.LBB4_12
# %bb.28:                               # %ctrl11
	cmpl	$12, %eax
	je	.LBB4_13
# %bb.29:                               # %ctrl12
	cmpl	$13, %eax
	je	.LBB4_14
# %bb.30:                               # %ctrl13
	cmpl	$14, %eax
	je	.LBB4_15
	jmp	.LBB4_16
.Lfunc_end4:
	.size	suspend_impl, .Lfunc_end4-suspend_impl
	.cfi_endproc
                                        # -- End function
	.globl	insert_new_arc.1        # -- Begin function insert_new_arc.1
	.p2align	4, 0x90
	.type	insert_new_arc.1,@function
insert_new_arc.1:                       # @insert_new_arc.1
	.cfi_startproc
# %bb.0:                                # %entry
	pushq	%rbp
	.cfi_def_cfa_offset 16
	.cfi_offset %rbp, -16
	movq	%rsp, %rbp
	.cfi_def_cfa_register %rbp
	subq	$64, %rsp
	movl	$2120503339, -44(%rbp)  # imm = 0x7E64502B
	movq	%rdi, -8(%rbp)
	movq	%rsi, -24(%rbp)
	movq	%rdx, -64(%rbp)
	movq	%rcx, -56(%rbp)
	movq	%r8, -32(%rbp)
	movq	%r9, -40(%rbp)
	movq	-64(%rbp), %rax
	movq	-8(%rbp), %rcx
	movq	-24(%rbp), %rdx
	shlq	$6, %rdx
	addq	%rdx, %rcx
	movq	%rax, 8(%rcx)
	movq	-56(%rbp), %rax
	movq	-8(%rbp), %rcx
	movq	-24(%rbp), %rdx
	shlq	$6, %rdx
	addq	%rdx, %rcx
	movq	%rax, 16(%rcx)
	movq	-32(%rbp), %rax
	movq	-8(%rbp), %rcx
	movq	-24(%rbp), %rdx
	shlq	$6, %rdx
	addq	%rdx, %rcx
	movq	%rax, 56(%rcx)
	movq	-32(%rbp), %rax
	movq	-8(%rbp), %rcx
	movq	-24(%rbp), %rdx
	shlq	$6, %rdx
	addq	%rdx, %rcx
	movq	%rax, (%rcx)
	movq	-40(%rbp), %rax
	movq	-8(%rbp), %rcx
	movq	-24(%rbp), %rdx
	shlq	$6, %rdx
	addq	%rdx, %rcx
	movq	%rax, 48(%rcx)
	movq	-24(%rbp), %rax
	addq	$1, %rax
	movq	%rax, -16(%rbp)
.LBB5_1:                                # %while.cond
                                        # =>This Inner Loop Header: Depth=1
	xorl	%eax, %eax
	movq	-16(%rbp), %rcx
	subq	$1, %rcx
	cmpq	$0, %rcx
	je	.LBB5_3
# %bb.2:                                # %land.rhs
                                        #   in Loop: Header=BB5_1 Depth=1
	movq	-40(%rbp), %rcx
	movq	-8(%rbp), %rsi
	movq	-16(%rbp), %rax
	cqto
	movl	$2, %edi
	idivq	%rdi
	subq	$1, %rax
	shlq	$6, %rax
	addq	%rax, %rsi
	cmpq	48(%rsi), %rcx
	setg	%al
.LBB5_3:                                # %land.end
                                        #   in Loop: Header=BB5_1 Depth=1
	testb	$1, %al
	jne	.LBB5_4
	jmp	.LBB5_5
.LBB5_4:                                # %while.body
                                        #   in Loop: Header=BB5_1 Depth=1
	movq	-8(%rbp), %rsi
	movq	-16(%rbp), %rax
	cqto
	movl	$2, %ecx
	idivq	%rcx
	subq	$1, %rax
	shlq	$6, %rax
	addq	%rax, %rsi
	movq	8(%rsi), %rax
	movq	-8(%rbp), %rdx
	movq	-16(%rbp), %rsi
	subq	$1, %rsi
	shlq	$6, %rsi
	addq	%rsi, %rdx
	movq	%rax, 8(%rdx)
	movq	-8(%rbp), %rsi
	movq	-16(%rbp), %rax
	cqto
	idivq	%rcx
	subq	$1, %rax
	shlq	$6, %rax
	addq	%rax, %rsi
	movq	16(%rsi), %rax
	movq	-8(%rbp), %rdx
	movq	-16(%rbp), %rsi
	subq	$1, %rsi
	shlq	$6, %rsi
	addq	%rsi, %rdx
	movq	%rax, 16(%rdx)
	movq	-8(%rbp), %rsi
	movq	-16(%rbp), %rax
	cqto
	idivq	%rcx
	subq	$1, %rax
	shlq	$6, %rax
	addq	%rax, %rsi
	movq	(%rsi), %rax
	movq	-8(%rbp), %rdx
	movq	-16(%rbp), %rsi
	subq	$1, %rsi
	shlq	$6, %rsi
	addq	%rsi, %rdx
	movq	%rax, (%rdx)
	movq	-8(%rbp), %rsi
	movq	-16(%rbp), %rax
	cqto
	idivq	%rcx
	subq	$1, %rax
	shlq	$6, %rax
	addq	%rax, %rsi
	movq	(%rsi), %rax
	movq	-8(%rbp), %rdx
	movq	-16(%rbp), %rsi
	subq	$1, %rsi
	shlq	$6, %rsi
	addq	%rsi, %rdx
	movq	%rax, 56(%rdx)
	movq	-8(%rbp), %rsi
	movq	-16(%rbp), %rax
	cqto
	idivq	%rcx
	subq	$1, %rax
	shlq	$6, %rax
	addq	%rax, %rsi
	movq	48(%rsi), %rax
	movq	-8(%rbp), %rdx
	movq	-16(%rbp), %rsi
	subq	$1, %rsi
	shlq	$6, %rsi
	addq	%rsi, %rdx
	movq	%rax, 48(%rdx)
	movq	-16(%rbp), %rax
	cqto
	idivq	%rcx
	movq	%rax, -16(%rbp)
	movq	-64(%rbp), %rax
	movq	-8(%rbp), %rcx
	movq	-16(%rbp), %rdx
	subq	$1, %rdx
	shlq	$6, %rdx
	addq	%rdx, %rcx
	movq	%rax, 8(%rcx)
	movq	-56(%rbp), %rax
	movq	-8(%rbp), %rcx
	movq	-16(%rbp), %rdx
	subq	$1, %rdx
	shlq	$6, %rdx
	addq	%rdx, %rcx
	movq	%rax, 16(%rcx)
	movq	-32(%rbp), %rax
	movq	-8(%rbp), %rcx
	movq	-16(%rbp), %rdx
	subq	$1, %rdx
	shlq	$6, %rdx
	addq	%rdx, %rcx
	movq	%rax, (%rcx)
	movq	-32(%rbp), %rax
	movq	-8(%rbp), %rcx
	movq	-16(%rbp), %rdx
	subq	$1, %rdx
	shlq	$6, %rdx
	addq	%rdx, %rcx
	movq	%rax, 56(%rcx)
	movq	-40(%rbp), %rax
	movq	-8(%rbp), %rcx
	movq	-16(%rbp), %rdx
	subq	$1, %rdx
	shlq	$6, %rdx
	addq	%rdx, %rcx
	movq	%rax, 48(%rcx)
	jmp	.LBB5_1
.LBB5_5:                                # %while.end
	cmpl	$2120503339, -44(%rbp)  # imm = 0x7E64502B
	jne	.LBB5_7
.LBB5_6:
	addq	$64, %rsp
	popq	%rbp
	.cfi_def_cfa %rsp, 8
	retq
.LBB5_7:                                # %func_exit
	.cfi_def_cfa %rbp, 16
	callq	detect_breach
	jmp	.LBB5_6
.Lfunc_end5:
	.size	insert_new_arc.1, .Lfunc_end5-insert_new_arc.1
	.cfi_endproc
                                        # -- End function
	.globl	suspend_impl.2          # -- Begin function suspend_impl.2
	.p2align	4, 0x90
	.type	suspend_impl.2,@function
suspend_impl.2:                         # @suspend_impl.2
	.cfi_startproc
# %bb.0:                                # %entry
	pushq	%rbp
	.cfi_def_cfa_offset 16
	.cfi_offset %rbp, -16
	movq	%rsp, %rbp
	.cfi_def_cfa_register %rbp
	pushq	%rbx
	subq	$72, %rsp
	.cfi_offset %rbx, -24
	movl	$710634719, -44(%rbp)   # imm = 0x2A5B6CDF
	movq	%rdi, -24(%rbp)
	movq	%rsi, -64(%rbp)
	movq	%rdx, -72(%rbp)
	cmpq	$0, -72(%rbp)
	je	.LBB6_2
# %bb.1:                                # %if.then
	movq	-24(%rbp), %rax
	movq	440(%rax), %rax
	movq	%rax, -32(%rbp)
	jmp	.LBB6_18
.LBB6_2:                                # %if.else
	movq	-24(%rbp), %rax
	movq	576(%rax), %rax
	movq	%rax, -80(%rbp)
	movq	-24(%rbp), %rax
	movq	568(%rax), %rax
	movq	-24(%rbp), %rcx
	movq	424(%rcx), %rcx
	movq	-24(%rbp), %rdx
	subq	440(%rdx), %rcx
	shlq	$6, %rcx
	addq	%rcx, %rax
	movq	%rax, -40(%rbp)
	movq	$0, -32(%rbp)
	movq	-40(%rbp), %rax
	movq	%rax, -16(%rbp)
.LBB6_3:                                # %for.cond
                                        # =>This Inner Loop Header: Depth=1
	movq	-16(%rbp), %rax
	movq	-80(%rbp), %rcx
	cmpq	%rcx, %rax
	jae	.LBB6_17
# %bb.4:                                # %for.body
                                        #   in Loop: Header=BB6_3 Depth=1
	movq	-16(%rbp), %rax
	cmpl	$1, 24(%rax)
	jne	.LBB6_6
# %bb.5:                                # %if.then3
                                        #   in Loop: Header=BB6_3 Depth=1
	movq	-16(%rbp), %rax
	movq	(%rax), %rax
	movq	-16(%rbp), %rcx
	movq	8(%rcx), %rcx
	subq	(%rcx), %rax
	movq	-16(%rbp), %rcx
	movq	16(%rcx), %rcx
	addq	(%rcx), %rax
	movq	%rax, -56(%rbp)
	jmp	.LBB6_12
.LBB6_6:                                # %if.else6
                                        #   in Loop: Header=BB6_3 Depth=1
	movq	$-2, -56(%rbp)
	movq	-16(%rbp), %rax
	cmpl	$0, 24(%rax)
	jne	.LBB6_11
# %bb.7:                                # %if.then9
                                        #   in Loop: Header=BB6_3 Depth=1
	movq	-16(%rbp), %rax
	movq	8(%rax), %rax
	movq	48(%rax), %rax
	cmpq	-16(%rbp), %rax
	jne	.LBB6_9
# %bb.8:                                # %if.then12
                                        #   in Loop: Header=BB6_3 Depth=1
	movq	-40(%rbp), %rax
	movq	-16(%rbp), %rcx
	movq	8(%rcx), %rcx
	movq	%rax, 48(%rcx)
	jmp	.LBB6_10
.LBB6_9:                                # %if.else15
                                        #   in Loop: Header=BB6_3 Depth=1
	movq	-40(%rbp), %rax
	movq	-16(%rbp), %rcx
	movq	16(%rcx), %rcx
	movq	%rax, 48(%rcx)
.LBB6_10:                               # %if.end
                                        #   in Loop: Header=BB6_3 Depth=1
	jmp	.LBB6_11
.LBB6_11:                               # %if.end18
                                        #   in Loop: Header=BB6_3 Depth=1
	jmp	.LBB6_12
.LBB6_12:                               # %if.end19
                                        #   in Loop: Header=BB6_3 Depth=1
	movq	-56(%rbp), %rax
	cmpq	-64(%rbp), %rax
	jle	.LBB6_14
# %bb.13:                               # %if.then21
                                        #   in Loop: Header=BB6_3 Depth=1
	movq	-32(%rbp), %rax
	addq	$1, %rax
	movq	%rax, -32(%rbp)
	jmp	.LBB6_15
.LBB6_14:                               # %if.else22
                                        #   in Loop: Header=BB6_3 Depth=1
	movq	-40(%rbp), %rdi
	movq	-16(%rbp), %rsi
	movl	$64, %edx
	callq	memcpy
	movq	-40(%rbp), %rax
	addq	$64, %rax
	movq	%rax, -40(%rbp)
.LBB6_15:                               # %if.end23
                                        #   in Loop: Header=BB6_3 Depth=1
	jmp	.LBB6_16
.LBB6_16:                               # %for.inc
                                        #   in Loop: Header=BB6_3 Depth=1
	movq	-16(%rbp), %rax
	addq	$64, %rax
	movq	%rax, -16(%rbp)
	jmp	.LBB6_3
.LBB6_17:                               # %for.end
	jmp	.LBB6_18
.LBB6_18:                               # %if.end25
	cmpq	$0, -32(%rbp)
	je	.LBB6_20
# %bb.19:                               # %if.then27
	xorl	%eax, %eax
	movq	-32(%rbp), %rcx
	movq	-24(%rbp), %rdx
	movq	424(%rdx), %rsi
	subq	%rcx, %rsi
	movq	%rsi, 424(%rdx)
	movq	-32(%rbp), %rcx
	movq	-24(%rbp), %rdx
	movq	440(%rdx), %rsi
	subq	%rcx, %rsi
	movq	%rsi, 440(%rdx)
	movq	-32(%rbp), %rcx
	movq	-24(%rbp), %rdx
	movq	576(%rdx), %rsi
	subq	%rcx, %rax
	shlq	$6, %rax
	addq	%rax, %rsi
	movq	%rsi, 576(%rdx)
	movq	-32(%rbp), %rax
	movq	-24(%rbp), %rcx
	addq	448(%rcx), %rax
	movq	%rax, 448(%rcx)
	movq	-24(%rbp), %rdi
	callq	refresh_neighbour_lists
.LBB6_20:                               # %if.end34
	movq	-32(%rbp), %rbx
	cmpl	$710634719, -44(%rbp)   # imm = 0x2A5B6CDF
	jne	.LBB6_22
.LBB6_21:
	movq	%rbx, %rax
	addq	$72, %rsp
	popq	%rbx
	popq	%rbp
	.cfi_def_cfa %rsp, 8
	retq
.LBB6_22:                               # %func_exit
	.cfi_def_cfa %rbp, 16
	callq	detect_breach
	jmp	.LBB6_21
.Lfunc_end6:
	.size	suspend_impl.2, .Lfunc_end6-suspend_impl.2
	.cfi_endproc
                                        # -- End function
	.globl	resize_prob.3           # -- Begin function resize_prob.3
	.p2align	4, 0x90
	.type	resize_prob.3,@function
resize_prob.3:                          # @resize_prob.3
	.cfi_startproc
# %bb.0:                                # %entry
	pushq	%rbp
	.cfi_def_cfa_offset 16
	.cfi_offset %rbp, -16
	movq	%rsp, %rbp
	.cfi_def_cfa_register %rbp
	pushq	%rbx
	subq	$72, %rsp
	.cfi_offset %rbx, -24
	movl	$609302727, -36(%rbp)   # imm = 0x245138C7
	movq	%rdi, -16(%rbp)
	movq	-16(%rbp), %rax
	movq	456(%rax), %rax
	movq	-16(%rbp), %rcx
	addq	416(%rcx), %rax
	movq	%rax, 416(%rcx)
	movq	-16(%rbp), %rax
	movq	456(%rax), %rax
	movq	-16(%rbp), %rcx
	addq	448(%rcx), %rax
	movq	%rax, 448(%rcx)
	movq	-16(%rbp), %rax
	movq	568(%rax), %rdi
	movq	-16(%rbp), %rax
	movq	416(%rax), %rsi
	shlq	$6, %rsi
	callq	realloc
	movq	%rax, -32(%rbp)
	cmpq	$0, -32(%rbp)
	jne	.LBB7_2
# %bb.1:                                # %if.then
	movq	-16(%rbp), %rsi
	movabsq	$.L.str, %rdi
	movb	$0, %al
	callq	printf
	movq	stdout, %rdi
	callq	fflush
	movq	$-1, -48(%rbp)
	jmp	.LBB7_9
.LBB7_2:                                # %if.end
	movq	-32(%rbp), %rax
	movq	-16(%rbp), %rcx
	movq	568(%rcx), %rcx
	subq	%rcx, %rax
	movq	%rax, -64(%rbp)
	movq	-32(%rbp), %rax
	movq	-16(%rbp), %rcx
	movq	%rax, 568(%rcx)
	movq	-32(%rbp), %rax
	movq	-16(%rbp), %rcx
	movq	424(%rcx), %rcx
	shlq	$6, %rcx
	addq	%rcx, %rax
	movq	-16(%rbp), %rcx
	movq	%rax, 576(%rcx)
	movq	-16(%rbp), %rax
	movq	552(%rax), %rax
	movq	%rax, -24(%rbp)
	movq	%rax, -72(%rbp)
	movq	-24(%rbp), %rax
	addq	$104, %rax
	movq	%rax, -24(%rbp)
	movq	-16(%rbp), %rax
	movq	560(%rax), %rax
	movq	%rax, -56(%rbp)
.LBB7_3:                                # %for.cond
                                        # =>This Inner Loop Header: Depth=1
	movq	-24(%rbp), %rax
	cmpq	-56(%rbp), %rax
	jae	.LBB7_8
# %bb.4:                                # %for.body
                                        #   in Loop: Header=BB7_3 Depth=1
	movq	-24(%rbp), %rax
	movq	24(%rax), %rax
	cmpq	-72(%rbp), %rax
	je	.LBB7_6
# %bb.5:                                # %if.then9
                                        #   in Loop: Header=BB7_3 Depth=1
	movq	-24(%rbp), %rax
	movq	48(%rax), %rax
	addq	-64(%rbp), %rax
	movq	-24(%rbp), %rcx
	movq	%rax, 48(%rcx)
.LBB7_6:                                # %if.end12
                                        #   in Loop: Header=BB7_3 Depth=1
	jmp	.LBB7_7
.LBB7_7:                                # %for.inc
                                        #   in Loop: Header=BB7_3 Depth=1
	movq	-24(%rbp), %rax
	addq	$104, %rax
	movq	%rax, -24(%rbp)
	jmp	.LBB7_3
.LBB7_8:                                # %for.end
	movq	$0, -48(%rbp)
.LBB7_9:                                # %return
	movq	-48(%rbp), %rbx
	cmpl	$609302727, -36(%rbp)   # imm = 0x245138C7
	jne	.LBB7_11
.LBB7_10:
	movq	%rbx, %rax
	addq	$72, %rsp
	popq	%rbx
	popq	%rbp
	.cfi_def_cfa %rsp, 8
	retq
.LBB7_11:                               # %func_exit
	.cfi_def_cfa %rbp, 16
	callq	detect_breach
	jmp	.LBB7_10
.Lfunc_end7:
	.size	resize_prob.3, .Lfunc_end7-resize_prob.3
	.cfi_endproc
                                        # -- End function
	.globl	price_out_impl.4        # -- Begin function price_out_impl.4
	.p2align	4, 0x90
	.type	price_out_impl.4,@function
price_out_impl.4:                       # @price_out_impl.4
	.cfi_startproc
# %bb.0:                                # %entry
	pushq	%rbp
	.cfi_def_cfa_offset 16
	.cfi_offset %rbp, -16
	movq	%rsp, %rbp
	.cfi_def_cfa_register %rbp
	pushq	%rbx
	subq	$168, %rsp
	.cfi_offset %rbx, -24
	movl	$1860680779, -100(%rbp) # imm = 0x6EE7BC4B
	movq	%rdi, -16(%rbp)
	movq	$0, -40(%rbp)
	movq	$0, -128(%rbp)
	movq	$15, -144(%rbp)
	movq	-16(%rbp), %rax
	movq	528(%rax), %rax
	movq	%rax, -168(%rbp)
	movq	$30, -88(%rbp)
	movq	-168(%rbp), %rax
	subq	-144(%rbp), %rax
	movq	%rax, -160(%rbp)
	movq	-16(%rbp), %rax
	cmpq	$15000, 408(%rax)       # imm = 0x3A98
	jg	.LBB8_7
# %bb.1:                                # %if.then
	movq	-16(%rbp), %rax
	movq	424(%rax), %rax
	movq	-16(%rbp), %rcx
	addq	456(%rcx), %rax
	movq	-16(%rbp), %rcx
	cmpq	416(%rcx), %rax
	jle	.LBB8_6
# %bb.2:                                # %land.lhs.true
	movq	-16(%rbp), %rax
	movq	408(%rax), %rax
	movq	-16(%rbp), %rcx
	imulq	408(%rcx), %rax
	cqto
	movl	$2, %ecx
	idivq	%rcx
	movq	-16(%rbp), %rcx
	addq	424(%rcx), %rax
	movq	-16(%rbp), %rcx
	cmpq	416(%rcx), %rax
	jle	.LBB8_6
# %bb.3:                                # %if.then9
	movq	$1, -128(%rbp)
	movq	-16(%rbp), %rdi
	callq	resize_prob
	cmpq	$0, %rax
	je	.LBB8_5
# %bb.4:                                # %if.then10
	movq	$-1, -112(%rbp)
	jmp	.LBB8_48
.LBB8_5:                                # %if.end
	movq	-16(%rbp), %rdi
	callq	refresh_neighbour_lists
.LBB8_6:                                # %if.end11
	jmp	.LBB8_7
.LBB8_7:                                # %if.end12
	movq	-16(%rbp), %rax
	movq	576(%rax), %rax
	movq	%rax, -24(%rbp)
	movq	-16(%rbp), %rax
	movq	408(%rax), %rax
	movq	%rax, -120(%rbp)
	movq	-16(%rbp), %rax
	movq	568(%rax), %rax
	movq	%rax, -32(%rbp)
	movq	$0, -48(%rbp)
.LBB8_8:                                # %for.cond
                                        # =>This Inner Loop Header: Depth=1
	xorl	%eax, %eax
	movq	-48(%rbp), %rcx
	cmpq	-120(%rbp), %rcx
	jge	.LBB8_10
# %bb.9:                                # %land.rhs
                                        #   in Loop: Header=BB8_8 Depth=1
	movq	-32(%rbp), %rax
	cmpl	$-1, 88(%rax)
	sete	%al
.LBB8_10:                               # %land.end
                                        #   in Loop: Header=BB8_8 Depth=1
	testb	$1, %al
	jne	.LBB8_11
	jmp	.LBB8_13
.LBB8_11:                               # %for.body
                                        #   in Loop: Header=BB8_8 Depth=1
	jmp	.LBB8_12
.LBB8_12:                               # %for.inc
                                        #   in Loop: Header=BB8_8 Depth=1
	movq	-48(%rbp), %rax
	addq	$1, %rax
	movq	%rax, -48(%rbp)
	movq	-32(%rbp), %rax
	addq	$192, %rax
	movq	%rax, -32(%rbp)
	jmp	.LBB8_8
.LBB8_13:                               # %for.end
	movq	$0, -96(%rbp)
.LBB8_14:                               # %for.cond16
                                        # =>This Loop Header: Depth=1
                                        #     Child Loop BB8_20 Depth 2
	movq	-48(%rbp), %rax
	cmpq	-120(%rbp), %rax
	jge	.LBB8_34
# %bb.15:                               # %for.body18
                                        #   in Loop: Header=BB8_14 Depth=1
	movq	-32(%rbp), %rax
	cmpl	$-1, 88(%rax)
	je	.LBB8_17
# %bb.16:                               # %if.then22
                                        #   in Loop: Header=BB8_14 Depth=1
	movq	-96(%rbp), %rax
	movq	-32(%rbp), %rcx
	movq	16(%rcx), %rcx
	movq	56(%rcx), %rcx
	movq	16(%rcx), %rcx
	movq	%rax, 72(%rcx)
	movq	-32(%rbp), %rax
	addq	$64, %rax
	movq	%rax, -96(%rbp)
.LBB8_17:                               # %if.end26
                                        #   in Loop: Header=BB8_14 Depth=1
	movq	-32(%rbp), %rax
	cmpl	$-1, 24(%rax)
	jne	.LBB8_19
# %bb.18:                               # %if.then29
                                        #   in Loop: Header=BB8_14 Depth=1
	jmp	.LBB8_33
.LBB8_19:                               # %if.end30
                                        #   in Loop: Header=BB8_14 Depth=1
	movq	-32(%rbp), %rax
	movq	16(%rax), %rax
	movq	%rax, -64(%rbp)
	movq	-64(%rbp), %rax
	movslq	100(%rax), %rax
	movq	-32(%rbp), %rcx
	subq	56(%rcx), %rax
	addq	-160(%rbp), %rax
	movq	%rax, -152(%rbp)
	movq	-64(%rbp), %rax
	movq	(%rax), %rax
	movq	%rax, -176(%rbp)
	movq	-96(%rbp), %rax
	movq	8(%rax), %rax
	movq	72(%rax), %rax
	movq	%rax, -72(%rbp)
.LBB8_20:                               # %while.cond
                                        #   Parent Loop BB8_14 Depth=1
                                        # =>  This Inner Loop Header: Depth=2
	cmpq	$0, -72(%rbp)
	je	.LBB8_32
# %bb.21:                               # %while.body
                                        #   in Loop: Header=BB8_20 Depth=2
	movq	-72(%rbp), %rax
	movq	8(%rax), %rax
	movq	%rax, -56(%rbp)
	movq	-56(%rbp), %rax
	movslq	100(%rax), %rax
	movq	-72(%rbp), %rcx
	addq	56(%rcx), %rax
	cmpq	-152(%rbp), %rax
	jle	.LBB8_24
# %bb.22:                               # %if.then44
                                        #   in Loop: Header=BB8_20 Depth=2
	movq	-56(%rbp), %rax
	movq	72(%rax), %rax
	movq	%rax, -72(%rbp)
.LBB8_23:                               # %while.cond.backedge
                                        #   in Loop: Header=BB8_20 Depth=2
	jmp	.LBB8_20
.LBB8_24:                               # %if.end46
                                        #   in Loop: Header=BB8_20 Depth=2
	movq	-88(%rbp), %rax
	movq	-56(%rbp), %rcx
	subq	(%rcx), %rax
	movq	-64(%rbp), %rcx
	addq	(%rcx), %rax
	movq	%rax, -80(%rbp)
	cmpq	$0, -80(%rbp)
	jge	.LBB8_31
# %bb.25:                               # %if.then53
                                        #   in Loop: Header=BB8_20 Depth=2
	movq	-40(%rbp), %rax
	movq	-16(%rbp), %rcx
	cmpq	448(%rcx), %rax
	jge	.LBB8_27
# %bb.26:                               # %if.then56
                                        #   in Loop: Header=BB8_20 Depth=2
	movq	-24(%rbp), %rdi
	movq	-40(%rbp), %rsi
	movq	-56(%rbp), %rdx
	movq	-64(%rbp), %rcx
	movq	-88(%rbp), %r8
	movq	-80(%rbp), %r9
	callq	insert_new_arc
	movq	-40(%rbp), %rax
	addq	$1, %rax
	movq	%rax, -40(%rbp)
	jmp	.LBB8_30
.LBB8_27:                               # %if.else
                                        #   in Loop: Header=BB8_20 Depth=2
	movq	-24(%rbp), %rax
	movq	48(%rax), %rax
	cmpq	-80(%rbp), %rax
	jle	.LBB8_29
# %bb.28:                               # %if.then61
                                        #   in Loop: Header=BB8_20 Depth=2
	movq	-16(%rbp), %rdi
	movq	-24(%rbp), %rsi
	movq	-56(%rbp), %rdx
	movq	-64(%rbp), %rcx
	movq	-88(%rbp), %r8
	movq	-80(%rbp), %r9
	callq	replace_weaker_arc
.LBB8_29:                               # %if.end62
                                        #   in Loop: Header=BB8_20 Depth=2
	jmp	.LBB8_30
.LBB8_30:                               # %if.end63
                                        #   in Loop: Header=BB8_20 Depth=2
	jmp	.LBB8_31
.LBB8_31:                               # %if.end64
                                        #   in Loop: Header=BB8_20 Depth=2
	movq	-56(%rbp), %rax
	movq	72(%rax), %rax
	movq	%rax, -72(%rbp)
	jmp	.LBB8_23
.LBB8_32:                               # %while.end
                                        #   in Loop: Header=BB8_14 Depth=1
	jmp	.LBB8_33
.LBB8_33:                               # %for.inc66
                                        #   in Loop: Header=BB8_14 Depth=1
	movq	-48(%rbp), %rax
	addq	$1, %rax
	movq	%rax, -48(%rbp)
	movq	-32(%rbp), %rax
	addq	$192, %rax
	movq	%rax, -32(%rbp)
	jmp	.LBB8_14
.LBB8_34:                               # %for.end69
	cmpq	$0, -40(%rbp)
	je	.LBB8_47
# %bb.35:                               # %if.then71
	movq	-16(%rbp), %rax
	movq	576(%rax), %rax
	movq	%rax, -24(%rbp)
	movq	-40(%rbp), %rax
	movq	-16(%rbp), %rcx
	shlq	$6, %rax
	addq	576(%rcx), %rax
	movq	%rax, 576(%rcx)
	movq	-16(%rbp), %rax
	movq	576(%rax), %rax
	movq	%rax, -136(%rbp)
	cmpq	$0, -128(%rbp)
	je	.LBB8_41
# %bb.36:                               # %if.then77
	jmp	.LBB8_37
.LBB8_37:                               # %for.cond78
                                        # =>This Inner Loop Header: Depth=1
	movq	-24(%rbp), %rax
	cmpq	-136(%rbp), %rax
	je	.LBB8_40
# %bb.38:                               # %for.body81
                                        #   in Loop: Header=BB8_37 Depth=1
	movq	-24(%rbp), %rax
	movq	$0, 48(%rax)
	movq	-24(%rbp), %rax
	movl	$1, 24(%rax)
# %bb.39:                               # %for.inc84
                                        #   in Loop: Header=BB8_37 Depth=1
	movq	-24(%rbp), %rax
	addq	$64, %rax
	movq	%rax, -24(%rbp)
	jmp	.LBB8_37
.LBB8_40:                               # %for.end85
	jmp	.LBB8_46
.LBB8_41:                               # %if.else86
	jmp	.LBB8_42
.LBB8_42:                               # %for.cond87
                                        # =>This Inner Loop Header: Depth=1
	movq	-24(%rbp), %rax
	cmpq	-136(%rbp), %rax
	je	.LBB8_45
# %bb.43:                               # %for.body90
                                        #   in Loop: Header=BB8_42 Depth=1
	movq	-24(%rbp), %rax
	movq	$0, 48(%rax)
	movq	-24(%rbp), %rax
	movl	$1, 24(%rax)
	movq	-24(%rbp), %rax
	movq	8(%rax), %rax
	movq	56(%rax), %rax
	movq	-24(%rbp), %rcx
	movq	%rax, 32(%rcx)
	movq	-24(%rbp), %rax
	movq	-24(%rbp), %rcx
	movq	8(%rcx), %rcx
	movq	%rax, 56(%rcx)
	movq	-24(%rbp), %rax
	movq	16(%rax), %rax
	movq	64(%rax), %rax
	movq	-24(%rbp), %rcx
	movq	%rax, 40(%rcx)
	movq	-24(%rbp), %rax
	movq	-24(%rbp), %rcx
	movq	16(%rcx), %rcx
	movq	%rax, 64(%rcx)
# %bb.44:                               # %for.inc100
                                        #   in Loop: Header=BB8_42 Depth=1
	movq	-24(%rbp), %rax
	addq	$64, %rax
	movq	%rax, -24(%rbp)
	jmp	.LBB8_42
.LBB8_45:                               # %for.end102
	jmp	.LBB8_46
.LBB8_46:                               # %if.end103
	movq	-40(%rbp), %rax
	movq	-16(%rbp), %rcx
	addq	424(%rcx), %rax
	movq	%rax, 424(%rcx)
	movq	-40(%rbp), %rax
	movq	-16(%rbp), %rcx
	addq	440(%rcx), %rax
	movq	%rax, 440(%rcx)
	movq	-40(%rbp), %rax
	movq	-16(%rbp), %rcx
	movq	448(%rcx), %rdx
	subq	%rax, %rdx
	movq	%rdx, 448(%rcx)
.LBB8_47:                               # %if.end109
	movq	-40(%rbp), %rax
	movq	%rax, -112(%rbp)
.LBB8_48:                               # %return
	movq	-112(%rbp), %rbx
	cmpl	$1860680779, -100(%rbp) # imm = 0x6EE7BC4B
	jne	.LBB8_50
.LBB8_49:
	movq	%rbx, %rax
	addq	$168, %rsp
	popq	%rbx
	popq	%rbp
	.cfi_def_cfa %rsp, 8
	retq
.LBB8_50:                               # %func_exit
	.cfi_def_cfa %rbp, 16
	callq	detect_breach
	jmp	.LBB8_49
.Lfunc_end8:
	.size	price_out_impl.4, .Lfunc_end8-price_out_impl.4
	.cfi_endproc
                                        # -- End function
	.globl	price_out_impl.5        # -- Begin function price_out_impl.5
	.p2align	4, 0x90
	.type	price_out_impl.5,@function
price_out_impl.5:                       # @price_out_impl.5
	.cfi_startproc
# %bb.0:                                # %entry
	pushq	%rbp
	.cfi_def_cfa_offset 16
	.cfi_offset %rbp, -16
	movq	%rsp, %rbp
	.cfi_def_cfa_register %rbp
	pushq	%rbx
	subq	$168, %rsp
	.cfi_offset %rbx, -24
	movl	$174278721, -100(%rbp)  # imm = 0xA634841
	movq	%rdi, -16(%rbp)
	movq	$0, -40(%rbp)
	movq	$0, -128(%rbp)
	movq	$15, -144(%rbp)
	movq	-16(%rbp), %rax
	movq	528(%rax), %rax
	movq	%rax, -160(%rbp)
	movq	$30, -88(%rbp)
	movq	-160(%rbp), %rax
	subq	-144(%rbp), %rax
	movq	%rax, -152(%rbp)
	movq	-16(%rbp), %rax
	cmpq	$15000, 408(%rax)       # imm = 0x3A98
	jg	.LBB9_7
# %bb.1:                                # %if.then
	movq	-16(%rbp), %rax
	movq	424(%rax), %rax
	movq	-16(%rbp), %rcx
	addq	456(%rcx), %rax
	movq	-16(%rbp), %rcx
	cmpq	416(%rcx), %rax
	jle	.LBB9_6
# %bb.2:                                # %land.lhs.true
	movq	-16(%rbp), %rax
	movq	408(%rax), %rax
	movq	-16(%rbp), %rcx
	imulq	408(%rcx), %rax
	cqto
	movl	$2, %ecx
	idivq	%rcx
	movq	-16(%rbp), %rcx
	addq	424(%rcx), %rax
	movq	-16(%rbp), %rcx
	cmpq	416(%rcx), %rax
	jle	.LBB9_6
# %bb.3:                                # %if.then9
	movq	$1, -128(%rbp)
	movq	-16(%rbp), %rdi
	callq	resize_prob
	cmpq	$0, %rax
	je	.LBB9_5
# %bb.4:                                # %if.then10
	movq	$-1, -136(%rbp)
	jmp	.LBB9_48
.LBB9_5:                                # %if.end
	movq	-16(%rbp), %rdi
	callq	refresh_neighbour_lists
.LBB9_6:                                # %if.end11
	jmp	.LBB9_7
.LBB9_7:                                # %if.end12
	movq	-16(%rbp), %rax
	movq	576(%rax), %rax
	movq	%rax, -24(%rbp)
	movq	-16(%rbp), %rax
	movq	408(%rax), %rax
	movq	%rax, -112(%rbp)
	movq	-16(%rbp), %rax
	movq	568(%rax), %rax
	movq	%rax, -32(%rbp)
	movq	$0, -56(%rbp)
.LBB9_8:                                # %for.cond
                                        # =>This Inner Loop Header: Depth=1
	xorl	%eax, %eax
	movq	-56(%rbp), %rcx
	cmpq	-112(%rbp), %rcx
	jge	.LBB9_10
# %bb.9:                                # %land.rhs
                                        #   in Loop: Header=BB9_8 Depth=1
	movq	-32(%rbp), %rax
	cmpl	$-1, 88(%rax)
	sete	%al
.LBB9_10:                               # %land.end
                                        #   in Loop: Header=BB9_8 Depth=1
	testb	$1, %al
	jne	.LBB9_11
	jmp	.LBB9_13
.LBB9_11:                               # %for.body
                                        #   in Loop: Header=BB9_8 Depth=1
	jmp	.LBB9_12
.LBB9_12:                               # %for.inc
                                        #   in Loop: Header=BB9_8 Depth=1
	movq	-56(%rbp), %rax
	addq	$1, %rax
	movq	%rax, -56(%rbp)
	movq	-32(%rbp), %rax
	addq	$192, %rax
	movq	%rax, -32(%rbp)
	jmp	.LBB9_8
.LBB9_13:                               # %for.end
	movq	$0, -96(%rbp)
.LBB9_14:                               # %for.cond16
                                        # =>This Loop Header: Depth=1
                                        #     Child Loop BB9_20 Depth 2
	movq	-56(%rbp), %rax
	cmpq	-112(%rbp), %rax
	jge	.LBB9_34
# %bb.15:                               # %for.body18
                                        #   in Loop: Header=BB9_14 Depth=1
	movq	-32(%rbp), %rax
	cmpl	$-1, 88(%rax)
	je	.LBB9_17
# %bb.16:                               # %if.then22
                                        #   in Loop: Header=BB9_14 Depth=1
	movq	-96(%rbp), %rax
	movq	-32(%rbp), %rcx
	movq	16(%rcx), %rcx
	movq	56(%rcx), %rcx
	movq	16(%rcx), %rcx
	movq	%rax, 72(%rcx)
	movq	-32(%rbp), %rax
	addq	$64, %rax
	movq	%rax, -96(%rbp)
.LBB9_17:                               # %if.end26
                                        #   in Loop: Header=BB9_14 Depth=1
	movq	-32(%rbp), %rax
	cmpl	$-1, 24(%rax)
	jne	.LBB9_19
# %bb.18:                               # %if.then29
                                        #   in Loop: Header=BB9_14 Depth=1
	jmp	.LBB9_33
.LBB9_19:                               # %if.end30
                                        #   in Loop: Header=BB9_14 Depth=1
	movq	-32(%rbp), %rax
	movq	16(%rax), %rax
	movq	%rax, -64(%rbp)
	movq	-64(%rbp), %rax
	movslq	100(%rax), %rax
	movq	-32(%rbp), %rcx
	subq	56(%rcx), %rax
	addq	-152(%rbp), %rax
	movq	%rax, -168(%rbp)
	movq	-64(%rbp), %rax
	movq	(%rax), %rax
	movq	%rax, -176(%rbp)
	movq	-96(%rbp), %rax
	movq	8(%rax), %rax
	movq	72(%rax), %rax
	movq	%rax, -72(%rbp)
.LBB9_20:                               # %while.cond
                                        #   Parent Loop BB9_14 Depth=1
                                        # =>  This Inner Loop Header: Depth=2
	cmpq	$0, -72(%rbp)
	je	.LBB9_32
# %bb.21:                               # %while.body
                                        #   in Loop: Header=BB9_20 Depth=2
	movq	-72(%rbp), %rax
	movq	8(%rax), %rax
	movq	%rax, -48(%rbp)
	movq	-48(%rbp), %rax
	movslq	100(%rax), %rax
	movq	-72(%rbp), %rcx
	addq	56(%rcx), %rax
	cmpq	-168(%rbp), %rax
	jle	.LBB9_24
# %bb.22:                               # %if.then44
                                        #   in Loop: Header=BB9_20 Depth=2
	movq	-48(%rbp), %rax
	movq	72(%rax), %rax
	movq	%rax, -72(%rbp)
.LBB9_23:                               # %while.cond.backedge
                                        #   in Loop: Header=BB9_20 Depth=2
	jmp	.LBB9_20
.LBB9_24:                               # %if.end46
                                        #   in Loop: Header=BB9_20 Depth=2
	movq	-88(%rbp), %rax
	movq	-48(%rbp), %rcx
	subq	(%rcx), %rax
	movq	-64(%rbp), %rcx
	addq	(%rcx), %rax
	movq	%rax, -80(%rbp)
	cmpq	$0, -80(%rbp)
	jge	.LBB9_31
# %bb.25:                               # %if.then53
                                        #   in Loop: Header=BB9_20 Depth=2
	movq	-40(%rbp), %rax
	movq	-16(%rbp), %rcx
	cmpq	448(%rcx), %rax
	jge	.LBB9_27
# %bb.26:                               # %if.then56
                                        #   in Loop: Header=BB9_20 Depth=2
	movq	-24(%rbp), %rdi
	movq	-40(%rbp), %rsi
	movq	-48(%rbp), %rdx
	movq	-64(%rbp), %rcx
	movq	-88(%rbp), %r8
	movq	-80(%rbp), %r9
	callq	insert_new_arc
	movq	-40(%rbp), %rax
	addq	$1, %rax
	movq	%rax, -40(%rbp)
	jmp	.LBB9_30
.LBB9_27:                               # %if.else
                                        #   in Loop: Header=BB9_20 Depth=2
	movq	-24(%rbp), %rax
	movq	48(%rax), %rax
	cmpq	-80(%rbp), %rax
	jle	.LBB9_29
# %bb.28:                               # %if.then61
                                        #   in Loop: Header=BB9_20 Depth=2
	movq	-16(%rbp), %rdi
	movq	-24(%rbp), %rsi
	movq	-48(%rbp), %rdx
	movq	-64(%rbp), %rcx
	movq	-88(%rbp), %r8
	movq	-80(%rbp), %r9
	callq	replace_weaker_arc
.LBB9_29:                               # %if.end62
                                        #   in Loop: Header=BB9_20 Depth=2
	jmp	.LBB9_30
.LBB9_30:                               # %if.end63
                                        #   in Loop: Header=BB9_20 Depth=2
	jmp	.LBB9_31
.LBB9_31:                               # %if.end64
                                        #   in Loop: Header=BB9_20 Depth=2
	movq	-48(%rbp), %rax
	movq	72(%rax), %rax
	movq	%rax, -72(%rbp)
	jmp	.LBB9_23
.LBB9_32:                               # %while.end
                                        #   in Loop: Header=BB9_14 Depth=1
	jmp	.LBB9_33
.LBB9_33:                               # %for.inc66
                                        #   in Loop: Header=BB9_14 Depth=1
	movq	-56(%rbp), %rax
	addq	$1, %rax
	movq	%rax, -56(%rbp)
	movq	-32(%rbp), %rax
	addq	$192, %rax
	movq	%rax, -32(%rbp)
	jmp	.LBB9_14
.LBB9_34:                               # %for.end69
	cmpq	$0, -40(%rbp)
	je	.LBB9_47
# %bb.35:                               # %if.then71
	movq	-16(%rbp), %rax
	movq	576(%rax), %rax
	movq	%rax, -24(%rbp)
	movq	-40(%rbp), %rax
	movq	-16(%rbp), %rcx
	shlq	$6, %rax
	addq	576(%rcx), %rax
	movq	%rax, 576(%rcx)
	movq	-16(%rbp), %rax
	movq	576(%rax), %rax
	movq	%rax, -120(%rbp)
	cmpq	$0, -128(%rbp)
	je	.LBB9_41
# %bb.36:                               # %if.then77
	jmp	.LBB9_37
.LBB9_37:                               # %for.cond78
                                        # =>This Inner Loop Header: Depth=1
	movq	-24(%rbp), %rax
	cmpq	-120(%rbp), %rax
	je	.LBB9_40
# %bb.38:                               # %for.body81
                                        #   in Loop: Header=BB9_37 Depth=1
	movq	-24(%rbp), %rax
	movq	$0, 48(%rax)
	movq	-24(%rbp), %rax
	movl	$1, 24(%rax)
# %bb.39:                               # %for.inc84
                                        #   in Loop: Header=BB9_37 Depth=1
	movq	-24(%rbp), %rax
	addq	$64, %rax
	movq	%rax, -24(%rbp)
	jmp	.LBB9_37
.LBB9_40:                               # %for.end85
	jmp	.LBB9_46
.LBB9_41:                               # %if.else86
	jmp	.LBB9_42
.LBB9_42:                               # %for.cond87
                                        # =>This Inner Loop Header: Depth=1
	movq	-24(%rbp), %rax
	cmpq	-120(%rbp), %rax
	je	.LBB9_45
# %bb.43:                               # %for.body90
                                        #   in Loop: Header=BB9_42 Depth=1
	movq	-24(%rbp), %rax
	movq	$0, 48(%rax)
	movq	-24(%rbp), %rax
	movl	$1, 24(%rax)
	movq	-24(%rbp), %rax
	movq	8(%rax), %rax
	movq	56(%rax), %rax
	movq	-24(%rbp), %rcx
	movq	%rax, 32(%rcx)
	movq	-24(%rbp), %rax
	movq	-24(%rbp), %rcx
	movq	8(%rcx), %rcx
	movq	%rax, 56(%rcx)
	movq	-24(%rbp), %rax
	movq	16(%rax), %rax
	movq	64(%rax), %rax
	movq	-24(%rbp), %rcx
	movq	%rax, 40(%rcx)
	movq	-24(%rbp), %rax
	movq	-24(%rbp), %rcx
	movq	16(%rcx), %rcx
	movq	%rax, 64(%rcx)
# %bb.44:                               # %for.inc100
                                        #   in Loop: Header=BB9_42 Depth=1
	movq	-24(%rbp), %rax
	addq	$64, %rax
	movq	%rax, -24(%rbp)
	jmp	.LBB9_42
.LBB9_45:                               # %for.end102
	jmp	.LBB9_46
.LBB9_46:                               # %if.end103
	movq	-40(%rbp), %rax
	movq	-16(%rbp), %rcx
	addq	424(%rcx), %rax
	movq	%rax, 424(%rcx)
	movq	-40(%rbp), %rax
	movq	-16(%rbp), %rcx
	addq	440(%rcx), %rax
	movq	%rax, 440(%rcx)
	movq	-40(%rbp), %rax
	movq	-16(%rbp), %rcx
	movq	448(%rcx), %rdx
	subq	%rax, %rdx
	movq	%rdx, 448(%rcx)
.LBB9_47:                               # %if.end109
	movq	-40(%rbp), %rax
	movq	%rax, -136(%rbp)
.LBB9_48:                               # %return
	movq	-136(%rbp), %rbx
	cmpl	$174278721, -100(%rbp)  # imm = 0xA634841
	jne	.LBB9_50
.LBB9_49:
	movq	%rbx, %rax
	addq	$168, %rsp
	popq	%rbx
	popq	%rbp
	.cfi_def_cfa %rsp, 8
	retq
.LBB9_50:                               # %func_exit
	.cfi_def_cfa %rbp, 16
	callq	detect_breach
	jmp	.LBB9_49
.Lfunc_end9:
	.size	price_out_impl.5, .Lfunc_end9-price_out_impl.5
	.cfi_endproc
                                        # -- End function
	.globl	suspend_impl.6          # -- Begin function suspend_impl.6
	.p2align	4, 0x90
	.type	suspend_impl.6,@function
suspend_impl.6:                         # @suspend_impl.6
	.cfi_startproc
# %bb.0:                                # %entry
	pushq	%rbp
	.cfi_def_cfa_offset 16
	.cfi_offset %rbp, -16
	movq	%rsp, %rbp
	.cfi_def_cfa_register %rbp
	pushq	%rbx
	subq	$72, %rsp
	.cfi_offset %rbx, -24
	movl	$1088652390, -44(%rbp)  # imm = 0x40E38466
	movq	%rdi, -24(%rbp)
	movq	%rsi, -72(%rbp)
	movq	%rdx, -80(%rbp)
	cmpq	$0, -80(%rbp)
	je	.LBB10_2
# %bb.1:                                # %if.then
	movq	-24(%rbp), %rax
	movq	440(%rax), %rax
	movq	%rax, -32(%rbp)
	jmp	.LBB10_18
.LBB10_2:                               # %if.else
	movq	-24(%rbp), %rax
	movq	576(%rax), %rax
	movq	%rax, -64(%rbp)
	movq	-24(%rbp), %rax
	movq	568(%rax), %rax
	movq	-24(%rbp), %rcx
	movq	424(%rcx), %rcx
	movq	-24(%rbp), %rdx
	subq	440(%rdx), %rcx
	shlq	$6, %rcx
	addq	%rcx, %rax
	movq	%rax, -40(%rbp)
	movq	$0, -32(%rbp)
	movq	-40(%rbp), %rax
	movq	%rax, -16(%rbp)
.LBB10_3:                               # %for.cond
                                        # =>This Inner Loop Header: Depth=1
	movq	-16(%rbp), %rax
	movq	-64(%rbp), %rcx
	cmpq	%rcx, %rax
	jae	.LBB10_17
# %bb.4:                                # %for.body
                                        #   in Loop: Header=BB10_3 Depth=1
	movq	-16(%rbp), %rax
	cmpl	$1, 24(%rax)
	jne	.LBB10_6
# %bb.5:                                # %if.then3
                                        #   in Loop: Header=BB10_3 Depth=1
	movq	-16(%rbp), %rax
	movq	(%rax), %rax
	movq	-16(%rbp), %rcx
	movq	8(%rcx), %rcx
	subq	(%rcx), %rax
	movq	-16(%rbp), %rcx
	movq	16(%rcx), %rcx
	addq	(%rcx), %rax
	movq	%rax, -56(%rbp)
	jmp	.LBB10_12
.LBB10_6:                               # %if.else6
                                        #   in Loop: Header=BB10_3 Depth=1
	movq	$-2, -56(%rbp)
	movq	-16(%rbp), %rax
	cmpl	$0, 24(%rax)
	jne	.LBB10_11
# %bb.7:                                # %if.then9
                                        #   in Loop: Header=BB10_3 Depth=1
	movq	-16(%rbp), %rax
	movq	8(%rax), %rax
	movq	48(%rax), %rax
	cmpq	-16(%rbp), %rax
	jne	.LBB10_9
# %bb.8:                                # %if.then12
                                        #   in Loop: Header=BB10_3 Depth=1
	movq	-40(%rbp), %rax
	movq	-16(%rbp), %rcx
	movq	8(%rcx), %rcx
	movq	%rax, 48(%rcx)
	jmp	.LBB10_10
.LBB10_9:                               # %if.else15
                                        #   in Loop: Header=BB10_3 Depth=1
	movq	-40(%rbp), %rax
	movq	-16(%rbp), %rcx
	movq	16(%rcx), %rcx
	movq	%rax, 48(%rcx)
.LBB10_10:                              # %if.end
                                        #   in Loop: Header=BB10_3 Depth=1
	jmp	.LBB10_11
.LBB10_11:                              # %if.end18
                                        #   in Loop: Header=BB10_3 Depth=1
	jmp	.LBB10_12
.LBB10_12:                              # %if.end19
                                        #   in Loop: Header=BB10_3 Depth=1
	movq	-56(%rbp), %rax
	cmpq	-72(%rbp), %rax
	jle	.LBB10_14
# %bb.13:                               # %if.then21
                                        #   in Loop: Header=BB10_3 Depth=1
	movq	-32(%rbp), %rax
	addq	$1, %rax
	movq	%rax, -32(%rbp)
	jmp	.LBB10_15
.LBB10_14:                              # %if.else22
                                        #   in Loop: Header=BB10_3 Depth=1
	movq	-40(%rbp), %rdi
	movq	-16(%rbp), %rsi
	movl	$64, %edx
	callq	memcpy
	movq	-40(%rbp), %rax
	addq	$64, %rax
	movq	%rax, -40(%rbp)
.LBB10_15:                              # %if.end23
                                        #   in Loop: Header=BB10_3 Depth=1
	jmp	.LBB10_16
.LBB10_16:                              # %for.inc
                                        #   in Loop: Header=BB10_3 Depth=1
	movq	-16(%rbp), %rax
	addq	$64, %rax
	movq	%rax, -16(%rbp)
	jmp	.LBB10_3
.LBB10_17:                              # %for.end
	jmp	.LBB10_18
.LBB10_18:                              # %if.end25
	cmpq	$0, -32(%rbp)
	je	.LBB10_20
# %bb.19:                               # %if.then27
	xorl	%eax, %eax
	movq	-32(%rbp), %rcx
	movq	-24(%rbp), %rdx
	movq	424(%rdx), %rsi
	subq	%rcx, %rsi
	movq	%rsi, 424(%rdx)
	movq	-32(%rbp), %rcx
	movq	-24(%rbp), %rdx
	movq	440(%rdx), %rsi
	subq	%rcx, %rsi
	movq	%rsi, 440(%rdx)
	movq	-32(%rbp), %rcx
	movq	-24(%rbp), %rdx
	movq	576(%rdx), %rsi
	subq	%rcx, %rax
	shlq	$6, %rax
	addq	%rax, %rsi
	movq	%rsi, 576(%rdx)
	movq	-32(%rbp), %rax
	movq	-24(%rbp), %rcx
	addq	448(%rcx), %rax
	movq	%rax, 448(%rcx)
	movq	-24(%rbp), %rdi
	callq	refresh_neighbour_lists
.LBB10_20:                              # %if.end34
	movq	-32(%rbp), %rbx
	cmpl	$1088652390, -44(%rbp)  # imm = 0x40E38466
	jne	.LBB10_22
.LBB10_21:
	movq	%rbx, %rax
	addq	$72, %rsp
	popq	%rbx
	popq	%rbp
	.cfi_def_cfa %rsp, 8
	retq
.LBB10_22:                              # %func_exit
	.cfi_def_cfa %rbp, 16
	callq	detect_breach
	jmp	.LBB10_21
.Lfunc_end10:
	.size	suspend_impl.6, .Lfunc_end10-suspend_impl.6
	.cfi_endproc
                                        # -- End function
	.globl	price_out_impl.7        # -- Begin function price_out_impl.7
	.p2align	4, 0x90
	.type	price_out_impl.7,@function
price_out_impl.7:                       # @price_out_impl.7
	.cfi_startproc
# %bb.0:                                # %entry
	pushq	%rbp
	.cfi_def_cfa_offset 16
	.cfi_offset %rbp, -16
	movq	%rsp, %rbp
	.cfi_def_cfa_register %rbp
	pushq	%rbx
	subq	$168, %rsp
	.cfi_offset %rbx, -24
	movl	$114585643, -100(%rbp)  # imm = 0x6D4702B
	movq	%rdi, -16(%rbp)
	movq	$0, -40(%rbp)
	movq	$0, -112(%rbp)
	movq	$15, -144(%rbp)
	movq	-16(%rbp), %rax
	movq	528(%rax), %rax
	movq	%rax, -160(%rbp)
	movq	$30, -96(%rbp)
	movq	-160(%rbp), %rax
	subq	-144(%rbp), %rax
	movq	%rax, -168(%rbp)
	movq	-16(%rbp), %rax
	cmpq	$15000, 408(%rax)       # imm = 0x3A98
	jg	.LBB11_7
# %bb.1:                                # %if.then
	movq	-16(%rbp), %rax
	movq	424(%rax), %rax
	movq	-16(%rbp), %rcx
	addq	456(%rcx), %rax
	movq	-16(%rbp), %rcx
	cmpq	416(%rcx), %rax
	jle	.LBB11_6
# %bb.2:                                # %land.lhs.true
	movq	-16(%rbp), %rax
	movq	408(%rax), %rax
	movq	-16(%rbp), %rcx
	imulq	408(%rcx), %rax
	cqto
	movl	$2, %ecx
	idivq	%rcx
	movq	-16(%rbp), %rcx
	addq	424(%rcx), %rax
	movq	-16(%rbp), %rcx
	cmpq	416(%rcx), %rax
	jle	.LBB11_6
# %bb.3:                                # %if.then9
	movq	$1, -112(%rbp)
	movq	-16(%rbp), %rdi
	callq	resize_prob
	cmpq	$0, %rax
	je	.LBB11_5
# %bb.4:                                # %if.then10
	movq	$-1, -128(%rbp)
	jmp	.LBB11_48
.LBB11_5:                               # %if.end
	movq	-16(%rbp), %rdi
	callq	refresh_neighbour_lists
.LBB11_6:                               # %if.end11
	jmp	.LBB11_7
.LBB11_7:                               # %if.end12
	movq	-16(%rbp), %rax
	movq	576(%rax), %rax
	movq	%rax, -24(%rbp)
	movq	-16(%rbp), %rax
	movq	408(%rax), %rax
	movq	%rax, -136(%rbp)
	movq	-16(%rbp), %rax
	movq	568(%rax), %rax
	movq	%rax, -32(%rbp)
	movq	$0, -48(%rbp)
.LBB11_8:                               # %for.cond
                                        # =>This Inner Loop Header: Depth=1
	xorl	%eax, %eax
	movq	-48(%rbp), %rcx
	cmpq	-136(%rbp), %rcx
	jge	.LBB11_10
# %bb.9:                                # %land.rhs
                                        #   in Loop: Header=BB11_8 Depth=1
	movq	-32(%rbp), %rax
	cmpl	$-1, 88(%rax)
	sete	%al
.LBB11_10:                              # %land.end
                                        #   in Loop: Header=BB11_8 Depth=1
	testb	$1, %al
	jne	.LBB11_11
	jmp	.LBB11_13
.LBB11_11:                              # %for.body
                                        #   in Loop: Header=BB11_8 Depth=1
	jmp	.LBB11_12
.LBB11_12:                              # %for.inc
                                        #   in Loop: Header=BB11_8 Depth=1
	movq	-48(%rbp), %rax
	addq	$1, %rax
	movq	%rax, -48(%rbp)
	movq	-32(%rbp), %rax
	addq	$192, %rax
	movq	%rax, -32(%rbp)
	jmp	.LBB11_8
.LBB11_13:                              # %for.end
	movq	$0, -88(%rbp)
.LBB11_14:                              # %for.cond16
                                        # =>This Loop Header: Depth=1
                                        #     Child Loop BB11_20 Depth 2
	movq	-48(%rbp), %rax
	cmpq	-136(%rbp), %rax
	jge	.LBB11_34
# %bb.15:                               # %for.body18
                                        #   in Loop: Header=BB11_14 Depth=1
	movq	-32(%rbp), %rax
	cmpl	$-1, 88(%rax)
	je	.LBB11_17
# %bb.16:                               # %if.then22
                                        #   in Loop: Header=BB11_14 Depth=1
	movq	-88(%rbp), %rax
	movq	-32(%rbp), %rcx
	movq	16(%rcx), %rcx
	movq	56(%rcx), %rcx
	movq	16(%rcx), %rcx
	movq	%rax, 72(%rcx)
	movq	-32(%rbp), %rax
	addq	$64, %rax
	movq	%rax, -88(%rbp)
.LBB11_17:                              # %if.end26
                                        #   in Loop: Header=BB11_14 Depth=1
	movq	-32(%rbp), %rax
	cmpl	$-1, 24(%rax)
	jne	.LBB11_19
# %bb.18:                               # %if.then29
                                        #   in Loop: Header=BB11_14 Depth=1
	jmp	.LBB11_33
.LBB11_19:                              # %if.end30
                                        #   in Loop: Header=BB11_14 Depth=1
	movq	-32(%rbp), %rax
	movq	16(%rax), %rax
	movq	%rax, -72(%rbp)
	movq	-72(%rbp), %rax
	movslq	100(%rax), %rax
	movq	-32(%rbp), %rcx
	subq	56(%rcx), %rax
	addq	-168(%rbp), %rax
	movq	%rax, -152(%rbp)
	movq	-72(%rbp), %rax
	movq	(%rax), %rax
	movq	%rax, -176(%rbp)
	movq	-88(%rbp), %rax
	movq	8(%rax), %rax
	movq	72(%rax), %rax
	movq	%rax, -64(%rbp)
.LBB11_20:                              # %while.cond
                                        #   Parent Loop BB11_14 Depth=1
                                        # =>  This Inner Loop Header: Depth=2
	cmpq	$0, -64(%rbp)
	je	.LBB11_32
# %bb.21:                               # %while.body
                                        #   in Loop: Header=BB11_20 Depth=2
	movq	-64(%rbp), %rax
	movq	8(%rax), %rax
	movq	%rax, -56(%rbp)
	movq	-56(%rbp), %rax
	movslq	100(%rax), %rax
	movq	-64(%rbp), %rcx
	addq	56(%rcx), %rax
	cmpq	-152(%rbp), %rax
	jle	.LBB11_24
# %bb.22:                               # %if.then44
                                        #   in Loop: Header=BB11_20 Depth=2
	movq	-56(%rbp), %rax
	movq	72(%rax), %rax
	movq	%rax, -64(%rbp)
.LBB11_23:                              # %while.cond.backedge
                                        #   in Loop: Header=BB11_20 Depth=2
	jmp	.LBB11_20
.LBB11_24:                              # %if.end46
                                        #   in Loop: Header=BB11_20 Depth=2
	movq	-96(%rbp), %rax
	movq	-56(%rbp), %rcx
	subq	(%rcx), %rax
	movq	-72(%rbp), %rcx
	addq	(%rcx), %rax
	movq	%rax, -80(%rbp)
	cmpq	$0, -80(%rbp)
	jge	.LBB11_31
# %bb.25:                               # %if.then53
                                        #   in Loop: Header=BB11_20 Depth=2
	movq	-40(%rbp), %rax
	movq	-16(%rbp), %rcx
	cmpq	448(%rcx), %rax
	jge	.LBB11_27
# %bb.26:                               # %if.then56
                                        #   in Loop: Header=BB11_20 Depth=2
	movq	-24(%rbp), %rdi
	movq	-40(%rbp), %rsi
	movq	-56(%rbp), %rdx
	movq	-72(%rbp), %rcx
	movq	-96(%rbp), %r8
	movq	-80(%rbp), %r9
	callq	insert_new_arc
	movq	-40(%rbp), %rax
	addq	$1, %rax
	movq	%rax, -40(%rbp)
	jmp	.LBB11_30
.LBB11_27:                              # %if.else
                                        #   in Loop: Header=BB11_20 Depth=2
	movq	-24(%rbp), %rax
	movq	48(%rax), %rax
	cmpq	-80(%rbp), %rax
	jle	.LBB11_29
# %bb.28:                               # %if.then61
                                        #   in Loop: Header=BB11_20 Depth=2
	movq	-16(%rbp), %rdi
	movq	-24(%rbp), %rsi
	movq	-56(%rbp), %rdx
	movq	-72(%rbp), %rcx
	movq	-96(%rbp), %r8
	movq	-80(%rbp), %r9
	callq	replace_weaker_arc
.LBB11_29:                              # %if.end62
                                        #   in Loop: Header=BB11_20 Depth=2
	jmp	.LBB11_30
.LBB11_30:                              # %if.end63
                                        #   in Loop: Header=BB11_20 Depth=2
	jmp	.LBB11_31
.LBB11_31:                              # %if.end64
                                        #   in Loop: Header=BB11_20 Depth=2
	movq	-56(%rbp), %rax
	movq	72(%rax), %rax
	movq	%rax, -64(%rbp)
	jmp	.LBB11_23
.LBB11_32:                              # %while.end
                                        #   in Loop: Header=BB11_14 Depth=1
	jmp	.LBB11_33
.LBB11_33:                              # %for.inc66
                                        #   in Loop: Header=BB11_14 Depth=1
	movq	-48(%rbp), %rax
	addq	$1, %rax
	movq	%rax, -48(%rbp)
	movq	-32(%rbp), %rax
	addq	$192, %rax
	movq	%rax, -32(%rbp)
	jmp	.LBB11_14
.LBB11_34:                              # %for.end69
	cmpq	$0, -40(%rbp)
	je	.LBB11_47
# %bb.35:                               # %if.then71
	movq	-16(%rbp), %rax
	movq	576(%rax), %rax
	movq	%rax, -24(%rbp)
	movq	-40(%rbp), %rax
	movq	-16(%rbp), %rcx
	shlq	$6, %rax
	addq	576(%rcx), %rax
	movq	%rax, 576(%rcx)
	movq	-16(%rbp), %rax
	movq	576(%rax), %rax
	movq	%rax, -120(%rbp)
	cmpq	$0, -112(%rbp)
	je	.LBB11_41
# %bb.36:                               # %if.then77
	jmp	.LBB11_37
.LBB11_37:                              # %for.cond78
                                        # =>This Inner Loop Header: Depth=1
	movq	-24(%rbp), %rax
	cmpq	-120(%rbp), %rax
	je	.LBB11_40
# %bb.38:                               # %for.body81
                                        #   in Loop: Header=BB11_37 Depth=1
	movq	-24(%rbp), %rax
	movq	$0, 48(%rax)
	movq	-24(%rbp), %rax
	movl	$1, 24(%rax)
# %bb.39:                               # %for.inc84
                                        #   in Loop: Header=BB11_37 Depth=1
	movq	-24(%rbp), %rax
	addq	$64, %rax
	movq	%rax, -24(%rbp)
	jmp	.LBB11_37
.LBB11_40:                              # %for.end85
	jmp	.LBB11_46
.LBB11_41:                              # %if.else86
	jmp	.LBB11_42
.LBB11_42:                              # %for.cond87
                                        # =>This Inner Loop Header: Depth=1
	movq	-24(%rbp), %rax
	cmpq	-120(%rbp), %rax
	je	.LBB11_45
# %bb.43:                               # %for.body90
                                        #   in Loop: Header=BB11_42 Depth=1
	movq	-24(%rbp), %rax
	movq	$0, 48(%rax)
	movq	-24(%rbp), %rax
	movl	$1, 24(%rax)
	movq	-24(%rbp), %rax
	movq	8(%rax), %rax
	movq	56(%rax), %rax
	movq	-24(%rbp), %rcx
	movq	%rax, 32(%rcx)
	movq	-24(%rbp), %rax
	movq	-24(%rbp), %rcx
	movq	8(%rcx), %rcx
	movq	%rax, 56(%rcx)
	movq	-24(%rbp), %rax
	movq	16(%rax), %rax
	movq	64(%rax), %rax
	movq	-24(%rbp), %rcx
	movq	%rax, 40(%rcx)
	movq	-24(%rbp), %rax
	movq	-24(%rbp), %rcx
	movq	16(%rcx), %rcx
	movq	%rax, 64(%rcx)
# %bb.44:                               # %for.inc100
                                        #   in Loop: Header=BB11_42 Depth=1
	movq	-24(%rbp), %rax
	addq	$64, %rax
	movq	%rax, -24(%rbp)
	jmp	.LBB11_42
.LBB11_45:                              # %for.end102
	jmp	.LBB11_46
.LBB11_46:                              # %if.end103
	movq	-40(%rbp), %rax
	movq	-16(%rbp), %rcx
	addq	424(%rcx), %rax
	movq	%rax, 424(%rcx)
	movq	-40(%rbp), %rax
	movq	-16(%rbp), %rcx
	addq	440(%rcx), %rax
	movq	%rax, 440(%rcx)
	movq	-40(%rbp), %rax
	movq	-16(%rbp), %rcx
	movq	448(%rcx), %rdx
	subq	%rax, %rdx
	movq	%rdx, 448(%rcx)
.LBB11_47:                              # %if.end109
	movq	-40(%rbp), %rax
	movq	%rax, -128(%rbp)
.LBB11_48:                              # %return
	movq	-128(%rbp), %rbx
	cmpl	$114585643, -100(%rbp)  # imm = 0x6D4702B
	jne	.LBB11_50
.LBB11_49:
	movq	%rbx, %rax
	addq	$168, %rsp
	popq	%rbx
	popq	%rbp
	.cfi_def_cfa %rsp, 8
	retq
.LBB11_50:                              # %func_exit
	.cfi_def_cfa %rbp, 16
	callq	detect_breach
	jmp	.LBB11_49
.Lfunc_end11:
	.size	price_out_impl.7, .Lfunc_end11-price_out_impl.7
	.cfi_endproc
                                        # -- End function
	.globl	insert_new_arc.8        # -- Begin function insert_new_arc.8
	.p2align	4, 0x90
	.type	insert_new_arc.8,@function
insert_new_arc.8:                       # @insert_new_arc.8
	.cfi_startproc
# %bb.0:                                # %entry
	pushq	%rbp
	.cfi_def_cfa_offset 16
	.cfi_offset %rbp, -16
	movq	%rsp, %rbp
	.cfi_def_cfa_register %rbp
	subq	$64, %rsp
	movl	$2124488860, -44(%rbp)  # imm = 0x7EA1209C
	movq	%rdi, -8(%rbp)
	movq	%rsi, -24(%rbp)
	movq	%rdx, -56(%rbp)
	movq	%rcx, -64(%rbp)
	movq	%r8, -32(%rbp)
	movq	%r9, -40(%rbp)
	movq	-56(%rbp), %rax
	movq	-8(%rbp), %rcx
	movq	-24(%rbp), %rdx
	shlq	$6, %rdx
	addq	%rdx, %rcx
	movq	%rax, 8(%rcx)
	movq	-64(%rbp), %rax
	movq	-8(%rbp), %rcx
	movq	-24(%rbp), %rdx
	shlq	$6, %rdx
	addq	%rdx, %rcx
	movq	%rax, 16(%rcx)
	movq	-32(%rbp), %rax
	movq	-8(%rbp), %rcx
	movq	-24(%rbp), %rdx
	shlq	$6, %rdx
	addq	%rdx, %rcx
	movq	%rax, 56(%rcx)
	movq	-32(%rbp), %rax
	movq	-8(%rbp), %rcx
	movq	-24(%rbp), %rdx
	shlq	$6, %rdx
	addq	%rdx, %rcx
	movq	%rax, (%rcx)
	movq	-40(%rbp), %rax
	movq	-8(%rbp), %rcx
	movq	-24(%rbp), %rdx
	shlq	$6, %rdx
	addq	%rdx, %rcx
	movq	%rax, 48(%rcx)
	movq	-24(%rbp), %rax
	addq	$1, %rax
	movq	%rax, -16(%rbp)
.LBB12_1:                               # %while.cond
                                        # =>This Inner Loop Header: Depth=1
	xorl	%eax, %eax
	movq	-16(%rbp), %rcx
	subq	$1, %rcx
	cmpq	$0, %rcx
	je	.LBB12_3
# %bb.2:                                # %land.rhs
                                        #   in Loop: Header=BB12_1 Depth=1
	movq	-40(%rbp), %rcx
	movq	-8(%rbp), %rsi
	movq	-16(%rbp), %rax
	cqto
	movl	$2, %edi
	idivq	%rdi
	subq	$1, %rax
	shlq	$6, %rax
	addq	%rax, %rsi
	cmpq	48(%rsi), %rcx
	setg	%al
.LBB12_3:                               # %land.end
                                        #   in Loop: Header=BB12_1 Depth=1
	testb	$1, %al
	jne	.LBB12_4
	jmp	.LBB12_5
.LBB12_4:                               # %while.body
                                        #   in Loop: Header=BB12_1 Depth=1
	movq	-8(%rbp), %rsi
	movq	-16(%rbp), %rax
	cqto
	movl	$2, %ecx
	idivq	%rcx
	subq	$1, %rax
	shlq	$6, %rax
	addq	%rax, %rsi
	movq	8(%rsi), %rax
	movq	-8(%rbp), %rdx
	movq	-16(%rbp), %rsi
	subq	$1, %rsi
	shlq	$6, %rsi
	addq	%rsi, %rdx
	movq	%rax, 8(%rdx)
	movq	-8(%rbp), %rsi
	movq	-16(%rbp), %rax
	cqto
	idivq	%rcx
	subq	$1, %rax
	shlq	$6, %rax
	addq	%rax, %rsi
	movq	16(%rsi), %rax
	movq	-8(%rbp), %rdx
	movq	-16(%rbp), %rsi
	subq	$1, %rsi
	shlq	$6, %rsi
	addq	%rsi, %rdx
	movq	%rax, 16(%rdx)
	movq	-8(%rbp), %rsi
	movq	-16(%rbp), %rax
	cqto
	idivq	%rcx
	subq	$1, %rax
	shlq	$6, %rax
	addq	%rax, %rsi
	movq	(%rsi), %rax
	movq	-8(%rbp), %rdx
	movq	-16(%rbp), %rsi
	subq	$1, %rsi
	shlq	$6, %rsi
	addq	%rsi, %rdx
	movq	%rax, (%rdx)
	movq	-8(%rbp), %rsi
	movq	-16(%rbp), %rax
	cqto
	idivq	%rcx
	subq	$1, %rax
	shlq	$6, %rax
	addq	%rax, %rsi
	movq	(%rsi), %rax
	movq	-8(%rbp), %rdx
	movq	-16(%rbp), %rsi
	subq	$1, %rsi
	shlq	$6, %rsi
	addq	%rsi, %rdx
	movq	%rax, 56(%rdx)
	movq	-8(%rbp), %rsi
	movq	-16(%rbp), %rax
	cqto
	idivq	%rcx
	subq	$1, %rax
	shlq	$6, %rax
	addq	%rax, %rsi
	movq	48(%rsi), %rax
	movq	-8(%rbp), %rdx
	movq	-16(%rbp), %rsi
	subq	$1, %rsi
	shlq	$6, %rsi
	addq	%rsi, %rdx
	movq	%rax, 48(%rdx)
	movq	-16(%rbp), %rax
	cqto
	idivq	%rcx
	movq	%rax, -16(%rbp)
	movq	-56(%rbp), %rax
	movq	-8(%rbp), %rcx
	movq	-16(%rbp), %rdx
	subq	$1, %rdx
	shlq	$6, %rdx
	addq	%rdx, %rcx
	movq	%rax, 8(%rcx)
	movq	-64(%rbp), %rax
	movq	-8(%rbp), %rcx
	movq	-16(%rbp), %rdx
	subq	$1, %rdx
	shlq	$6, %rdx
	addq	%rdx, %rcx
	movq	%rax, 16(%rcx)
	movq	-32(%rbp), %rax
	movq	-8(%rbp), %rcx
	movq	-16(%rbp), %rdx
	subq	$1, %rdx
	shlq	$6, %rdx
	addq	%rdx, %rcx
	movq	%rax, (%rcx)
	movq	-32(%rbp), %rax
	movq	-8(%rbp), %rcx
	movq	-16(%rbp), %rdx
	subq	$1, %rdx
	shlq	$6, %rdx
	addq	%rdx, %rcx
	movq	%rax, 56(%rcx)
	movq	-40(%rbp), %rax
	movq	-8(%rbp), %rcx
	movq	-16(%rbp), %rdx
	subq	$1, %rdx
	shlq	$6, %rdx
	addq	%rdx, %rcx
	movq	%rax, 48(%rcx)
	jmp	.LBB12_1
.LBB12_5:                               # %while.end
	cmpl	$2124488860, -44(%rbp)  # imm = 0x7EA1209C
	jne	.LBB12_7
.LBB12_6:
	addq	$64, %rsp
	popq	%rbp
	.cfi_def_cfa %rsp, 8
	retq
.LBB12_7:                               # %func_exit
	.cfi_def_cfa %rbp, 16
	callq	detect_breach
	jmp	.LBB12_6
.Lfunc_end12:
	.size	insert_new_arc.8, .Lfunc_end12-insert_new_arc.8
	.cfi_endproc
                                        # -- End function
	.globl	insert_new_arc.9        # -- Begin function insert_new_arc.9
	.p2align	4, 0x90
	.type	insert_new_arc.9,@function
insert_new_arc.9:                       # @insert_new_arc.9
	.cfi_startproc
# %bb.0:                                # %entry
	pushq	%rbp
	.cfi_def_cfa_offset 16
	.cfi_offset %rbp, -16
	movq	%rsp, %rbp
	.cfi_def_cfa_register %rbp
	subq	$64, %rsp
	movl	$311036122, -44(%rbp)   # imm = 0x128A08DA
	movq	%rdi, -8(%rbp)
	movq	%rsi, -24(%rbp)
	movq	%rdx, -56(%rbp)
	movq	%rcx, -64(%rbp)
	movq	%r8, -32(%rbp)
	movq	%r9, -40(%rbp)
	movq	-56(%rbp), %rax
	movq	-8(%rbp), %rcx
	movq	-24(%rbp), %rdx
	shlq	$6, %rdx
	addq	%rdx, %rcx
	movq	%rax, 8(%rcx)
	movq	-64(%rbp), %rax
	movq	-8(%rbp), %rcx
	movq	-24(%rbp), %rdx
	shlq	$6, %rdx
	addq	%rdx, %rcx
	movq	%rax, 16(%rcx)
	movq	-32(%rbp), %rax
	movq	-8(%rbp), %rcx
	movq	-24(%rbp), %rdx
	shlq	$6, %rdx
	addq	%rdx, %rcx
	movq	%rax, 56(%rcx)
	movq	-32(%rbp), %rax
	movq	-8(%rbp), %rcx
	movq	-24(%rbp), %rdx
	shlq	$6, %rdx
	addq	%rdx, %rcx
	movq	%rax, (%rcx)
	movq	-40(%rbp), %rax
	movq	-8(%rbp), %rcx
	movq	-24(%rbp), %rdx
	shlq	$6, %rdx
	addq	%rdx, %rcx
	movq	%rax, 48(%rcx)
	movq	-24(%rbp), %rax
	addq	$1, %rax
	movq	%rax, -16(%rbp)
.LBB13_1:                               # %while.cond
                                        # =>This Inner Loop Header: Depth=1
	xorl	%eax, %eax
	movq	-16(%rbp), %rcx
	subq	$1, %rcx
	cmpq	$0, %rcx
	je	.LBB13_3
# %bb.2:                                # %land.rhs
                                        #   in Loop: Header=BB13_1 Depth=1
	movq	-40(%rbp), %rcx
	movq	-8(%rbp), %rsi
	movq	-16(%rbp), %rax
	cqto
	movl	$2, %edi
	idivq	%rdi
	subq	$1, %rax
	shlq	$6, %rax
	addq	%rax, %rsi
	cmpq	48(%rsi), %rcx
	setg	%al
.LBB13_3:                               # %land.end
                                        #   in Loop: Header=BB13_1 Depth=1
	testb	$1, %al
	jne	.LBB13_4
	jmp	.LBB13_5
.LBB13_4:                               # %while.body
                                        #   in Loop: Header=BB13_1 Depth=1
	movq	-8(%rbp), %rsi
	movq	-16(%rbp), %rax
	cqto
	movl	$2, %ecx
	idivq	%rcx
	subq	$1, %rax
	shlq	$6, %rax
	addq	%rax, %rsi
	movq	8(%rsi), %rax
	movq	-8(%rbp), %rdx
	movq	-16(%rbp), %rsi
	subq	$1, %rsi
	shlq	$6, %rsi
	addq	%rsi, %rdx
	movq	%rax, 8(%rdx)
	movq	-8(%rbp), %rsi
	movq	-16(%rbp), %rax
	cqto
	idivq	%rcx
	subq	$1, %rax
	shlq	$6, %rax
	addq	%rax, %rsi
	movq	16(%rsi), %rax
	movq	-8(%rbp), %rdx
	movq	-16(%rbp), %rsi
	subq	$1, %rsi
	shlq	$6, %rsi
	addq	%rsi, %rdx
	movq	%rax, 16(%rdx)
	movq	-8(%rbp), %rsi
	movq	-16(%rbp), %rax
	cqto
	idivq	%rcx
	subq	$1, %rax
	shlq	$6, %rax
	addq	%rax, %rsi
	movq	(%rsi), %rax
	movq	-8(%rbp), %rdx
	movq	-16(%rbp), %rsi
	subq	$1, %rsi
	shlq	$6, %rsi
	addq	%rsi, %rdx
	movq	%rax, (%rdx)
	movq	-8(%rbp), %rsi
	movq	-16(%rbp), %rax
	cqto
	idivq	%rcx
	subq	$1, %rax
	shlq	$6, %rax
	addq	%rax, %rsi
	movq	(%rsi), %rax
	movq	-8(%rbp), %rdx
	movq	-16(%rbp), %rsi
	subq	$1, %rsi
	shlq	$6, %rsi
	addq	%rsi, %rdx
	movq	%rax, 56(%rdx)
	movq	-8(%rbp), %rsi
	movq	-16(%rbp), %rax
	cqto
	idivq	%rcx
	subq	$1, %rax
	shlq	$6, %rax
	addq	%rax, %rsi
	movq	48(%rsi), %rax
	movq	-8(%rbp), %rdx
	movq	-16(%rbp), %rsi
	subq	$1, %rsi
	shlq	$6, %rsi
	addq	%rsi, %rdx
	movq	%rax, 48(%rdx)
	movq	-16(%rbp), %rax
	cqto
	idivq	%rcx
	movq	%rax, -16(%rbp)
	movq	-56(%rbp), %rax
	movq	-8(%rbp), %rcx
	movq	-16(%rbp), %rdx
	subq	$1, %rdx
	shlq	$6, %rdx
	addq	%rdx, %rcx
	movq	%rax, 8(%rcx)
	movq	-64(%rbp), %rax
	movq	-8(%rbp), %rcx
	movq	-16(%rbp), %rdx
	subq	$1, %rdx
	shlq	$6, %rdx
	addq	%rdx, %rcx
	movq	%rax, 16(%rcx)
	movq	-32(%rbp), %rax
	movq	-8(%rbp), %rcx
	movq	-16(%rbp), %rdx
	subq	$1, %rdx
	shlq	$6, %rdx
	addq	%rdx, %rcx
	movq	%rax, (%rcx)
	movq	-32(%rbp), %rax
	movq	-8(%rbp), %rcx
	movq	-16(%rbp), %rdx
	subq	$1, %rdx
	shlq	$6, %rdx
	addq	%rdx, %rcx
	movq	%rax, 56(%rcx)
	movq	-40(%rbp), %rax
	movq	-8(%rbp), %rcx
	movq	-16(%rbp), %rdx
	subq	$1, %rdx
	shlq	$6, %rdx
	addq	%rdx, %rcx
	movq	%rax, 48(%rcx)
	jmp	.LBB13_1
.LBB13_5:                               # %while.end
	cmpl	$311036122, -44(%rbp)   # imm = 0x128A08DA
	jne	.LBB13_7
.LBB13_6:
	addq	$64, %rsp
	popq	%rbp
	.cfi_def_cfa %rsp, 8
	retq
.LBB13_7:                               # %func_exit
	.cfi_def_cfa %rbp, 16
	callq	detect_breach
	jmp	.LBB13_6
.Lfunc_end13:
	.size	insert_new_arc.9, .Lfunc_end13-insert_new_arc.9
	.cfi_endproc
                                        # -- End function
	.globl	resize_prob.10          # -- Begin function resize_prob.10
	.p2align	4, 0x90
	.type	resize_prob.10,@function
resize_prob.10:                         # @resize_prob.10
	.cfi_startproc
# %bb.0:                                # %entry
	pushq	%rbp
	.cfi_def_cfa_offset 16
	.cfi_offset %rbp, -16
	movq	%rsp, %rbp
	.cfi_def_cfa_register %rbp
	pushq	%rbx
	subq	$72, %rsp
	.cfi_offset %rbx, -24
	movl	$1561248689, -36(%rbp)  # imm = 0x5D0EC3B1
	movq	%rdi, -16(%rbp)
	movq	-16(%rbp), %rax
	movq	456(%rax), %rax
	movq	-16(%rbp), %rcx
	addq	416(%rcx), %rax
	movq	%rax, 416(%rcx)
	movq	-16(%rbp), %rax
	movq	456(%rax), %rax
	movq	-16(%rbp), %rcx
	addq	448(%rcx), %rax
	movq	%rax, 448(%rcx)
	movq	-16(%rbp), %rax
	movq	568(%rax), %rdi
	movq	-16(%rbp), %rax
	movq	416(%rax), %rsi
	shlq	$6, %rsi
	callq	realloc
	movq	%rax, -32(%rbp)
	cmpq	$0, -32(%rbp)
	jne	.LBB14_2
# %bb.1:                                # %if.then
	movq	-16(%rbp), %rsi
	movabsq	$.L.str, %rdi
	movb	$0, %al
	callq	printf
	movq	stdout, %rdi
	callq	fflush
	movq	$-1, -48(%rbp)
	jmp	.LBB14_9
.LBB14_2:                               # %if.end
	movq	-32(%rbp), %rax
	movq	-16(%rbp), %rcx
	movq	568(%rcx), %rcx
	subq	%rcx, %rax
	movq	%rax, -56(%rbp)
	movq	-32(%rbp), %rax
	movq	-16(%rbp), %rcx
	movq	%rax, 568(%rcx)
	movq	-32(%rbp), %rax
	movq	-16(%rbp), %rcx
	movq	424(%rcx), %rcx
	shlq	$6, %rcx
	addq	%rcx, %rax
	movq	-16(%rbp), %rcx
	movq	%rax, 576(%rcx)
	movq	-16(%rbp), %rax
	movq	552(%rax), %rax
	movq	%rax, -24(%rbp)
	movq	%rax, -72(%rbp)
	movq	-24(%rbp), %rax
	addq	$104, %rax
	movq	%rax, -24(%rbp)
	movq	-16(%rbp), %rax
	movq	560(%rax), %rax
	movq	%rax, -64(%rbp)
.LBB14_3:                               # %for.cond
                                        # =>This Inner Loop Header: Depth=1
	movq	-24(%rbp), %rax
	cmpq	-64(%rbp), %rax
	jae	.LBB14_8
# %bb.4:                                # %for.body
                                        #   in Loop: Header=BB14_3 Depth=1
	movq	-24(%rbp), %rax
	movq	24(%rax), %rax
	cmpq	-72(%rbp), %rax
	je	.LBB14_6
# %bb.5:                                # %if.then9
                                        #   in Loop: Header=BB14_3 Depth=1
	movq	-24(%rbp), %rax
	movq	48(%rax), %rax
	addq	-56(%rbp), %rax
	movq	-24(%rbp), %rcx
	movq	%rax, 48(%rcx)
.LBB14_6:                               # %if.end12
                                        #   in Loop: Header=BB14_3 Depth=1
	jmp	.LBB14_7
.LBB14_7:                               # %for.inc
                                        #   in Loop: Header=BB14_3 Depth=1
	movq	-24(%rbp), %rax
	addq	$104, %rax
	movq	%rax, -24(%rbp)
	jmp	.LBB14_3
.LBB14_8:                               # %for.end
	movq	$0, -48(%rbp)
.LBB14_9:                               # %return
	movq	-48(%rbp), %rbx
	cmpl	$1561248689, -36(%rbp)  # imm = 0x5D0EC3B1
	jne	.LBB14_11
.LBB14_10:
	movq	%rbx, %rax
	addq	$72, %rsp
	popq	%rbx
	popq	%rbp
	.cfi_def_cfa %rsp, 8
	retq
.LBB14_11:                              # %func_exit
	.cfi_def_cfa %rbp, 16
	callq	detect_breach
	jmp	.LBB14_10
.Lfunc_end14:
	.size	resize_prob.10, .Lfunc_end14-resize_prob.10
	.cfi_endproc
                                        # -- End function
	.globl	suspend_impl.11         # -- Begin function suspend_impl.11
	.p2align	4, 0x90
	.type	suspend_impl.11,@function
suspend_impl.11:                        # @suspend_impl.11
	.cfi_startproc
# %bb.0:                                # %entry
	pushq	%rbp
	.cfi_def_cfa_offset 16
	.cfi_offset %rbp, -16
	movq	%rsp, %rbp
	.cfi_def_cfa_register %rbp
	pushq	%rbx
	subq	$72, %rsp
	.cfi_offset %rbx, -24
	movl	$878655570, -44(%rbp)   # imm = 0x345F3852
	movq	%rdi, -24(%rbp)
	movq	%rsi, -72(%rbp)
	movq	%rdx, -64(%rbp)
	cmpq	$0, -64(%rbp)
	je	.LBB15_2
# %bb.1:                                # %if.then
	movq	-24(%rbp), %rax
	movq	440(%rax), %rax
	movq	%rax, -32(%rbp)
	jmp	.LBB15_18
.LBB15_2:                               # %if.else
	movq	-24(%rbp), %rax
	movq	576(%rax), %rax
	movq	%rax, -80(%rbp)
	movq	-24(%rbp), %rax
	movq	568(%rax), %rax
	movq	-24(%rbp), %rcx
	movq	424(%rcx), %rcx
	movq	-24(%rbp), %rdx
	subq	440(%rdx), %rcx
	shlq	$6, %rcx
	addq	%rcx, %rax
	movq	%rax, -40(%rbp)
	movq	$0, -32(%rbp)
	movq	-40(%rbp), %rax
	movq	%rax, -16(%rbp)
.LBB15_3:                               # %for.cond
                                        # =>This Inner Loop Header: Depth=1
	movq	-16(%rbp), %rax
	movq	-80(%rbp), %rcx
	cmpq	%rcx, %rax
	jae	.LBB15_17
# %bb.4:                                # %for.body
                                        #   in Loop: Header=BB15_3 Depth=1
	movq	-16(%rbp), %rax
	cmpl	$1, 24(%rax)
	jne	.LBB15_6
# %bb.5:                                # %if.then3
                                        #   in Loop: Header=BB15_3 Depth=1
	movq	-16(%rbp), %rax
	movq	(%rax), %rax
	movq	-16(%rbp), %rcx
	movq	8(%rcx), %rcx
	subq	(%rcx), %rax
	movq	-16(%rbp), %rcx
	movq	16(%rcx), %rcx
	addq	(%rcx), %rax
	movq	%rax, -56(%rbp)
	jmp	.LBB15_12
.LBB15_6:                               # %if.else6
                                        #   in Loop: Header=BB15_3 Depth=1
	movq	$-2, -56(%rbp)
	movq	-16(%rbp), %rax
	cmpl	$0, 24(%rax)
	jne	.LBB15_11
# %bb.7:                                # %if.then9
                                        #   in Loop: Header=BB15_3 Depth=1
	movq	-16(%rbp), %rax
	movq	8(%rax), %rax
	movq	48(%rax), %rax
	cmpq	-16(%rbp), %rax
	jne	.LBB15_9
# %bb.8:                                # %if.then12
                                        #   in Loop: Header=BB15_3 Depth=1
	movq	-40(%rbp), %rax
	movq	-16(%rbp), %rcx
	movq	8(%rcx), %rcx
	movq	%rax, 48(%rcx)
	jmp	.LBB15_10
.LBB15_9:                               # %if.else15
                                        #   in Loop: Header=BB15_3 Depth=1
	movq	-40(%rbp), %rax
	movq	-16(%rbp), %rcx
	movq	16(%rcx), %rcx
	movq	%rax, 48(%rcx)
.LBB15_10:                              # %if.end
                                        #   in Loop: Header=BB15_3 Depth=1
	jmp	.LBB15_11
.LBB15_11:                              # %if.end18
                                        #   in Loop: Header=BB15_3 Depth=1
	jmp	.LBB15_12
.LBB15_12:                              # %if.end19
                                        #   in Loop: Header=BB15_3 Depth=1
	movq	-56(%rbp), %rax
	cmpq	-72(%rbp), %rax
	jle	.LBB15_14
# %bb.13:                               # %if.then21
                                        #   in Loop: Header=BB15_3 Depth=1
	movq	-32(%rbp), %rax
	addq	$1, %rax
	movq	%rax, -32(%rbp)
	jmp	.LBB15_15
.LBB15_14:                              # %if.else22
                                        #   in Loop: Header=BB15_3 Depth=1
	movq	-40(%rbp), %rdi
	movq	-16(%rbp), %rsi
	movl	$64, %edx
	callq	memcpy
	movq	-40(%rbp), %rax
	addq	$64, %rax
	movq	%rax, -40(%rbp)
.LBB15_15:                              # %if.end23
                                        #   in Loop: Header=BB15_3 Depth=1
	jmp	.LBB15_16
.LBB15_16:                              # %for.inc
                                        #   in Loop: Header=BB15_3 Depth=1
	movq	-16(%rbp), %rax
	addq	$64, %rax
	movq	%rax, -16(%rbp)
	jmp	.LBB15_3
.LBB15_17:                              # %for.end
	jmp	.LBB15_18
.LBB15_18:                              # %if.end25
	cmpq	$0, -32(%rbp)
	je	.LBB15_20
# %bb.19:                               # %if.then27
	xorl	%eax, %eax
	movq	-32(%rbp), %rcx
	movq	-24(%rbp), %rdx
	movq	424(%rdx), %rsi
	subq	%rcx, %rsi
	movq	%rsi, 424(%rdx)
	movq	-32(%rbp), %rcx
	movq	-24(%rbp), %rdx
	movq	440(%rdx), %rsi
	subq	%rcx, %rsi
	movq	%rsi, 440(%rdx)
	movq	-32(%rbp), %rcx
	movq	-24(%rbp), %rdx
	movq	576(%rdx), %rsi
	subq	%rcx, %rax
	shlq	$6, %rax
	addq	%rax, %rsi
	movq	%rsi, 576(%rdx)
	movq	-32(%rbp), %rax
	movq	-24(%rbp), %rcx
	addq	448(%rcx), %rax
	movq	%rax, 448(%rcx)
	movq	-24(%rbp), %rdi
	callq	refresh_neighbour_lists
.LBB15_20:                              # %if.end34
	movq	-32(%rbp), %rbx
	cmpl	$878655570, -44(%rbp)   # imm = 0x345F3852
	jne	.LBB15_22
.LBB15_21:
	movq	%rbx, %rax
	addq	$72, %rsp
	popq	%rbx
	popq	%rbp
	.cfi_def_cfa %rsp, 8
	retq
.LBB15_22:                              # %func_exit
	.cfi_def_cfa %rbp, 16
	callq	detect_breach
	jmp	.LBB15_21
.Lfunc_end15:
	.size	suspend_impl.11, .Lfunc_end15-suspend_impl.11
	.cfi_endproc
                                        # -- End function
	.globl	resize_prob.12          # -- Begin function resize_prob.12
	.p2align	4, 0x90
	.type	resize_prob.12,@function
resize_prob.12:                         # @resize_prob.12
	.cfi_startproc
# %bb.0:                                # %entry
	pushq	%rbp
	.cfi_def_cfa_offset 16
	.cfi_offset %rbp, -16
	movq	%rsp, %rbp
	.cfi_def_cfa_register %rbp
	pushq	%rbx
	subq	$72, %rsp
	.cfi_offset %rbx, -24
	movl	$786051906, -36(%rbp)   # imm = 0x2EDA3342
	movq	%rdi, -16(%rbp)
	movq	-16(%rbp), %rax
	movq	456(%rax), %rax
	movq	-16(%rbp), %rcx
	addq	416(%rcx), %rax
	movq	%rax, 416(%rcx)
	movq	-16(%rbp), %rax
	movq	456(%rax), %rax
	movq	-16(%rbp), %rcx
	addq	448(%rcx), %rax
	movq	%rax, 448(%rcx)
	movq	-16(%rbp), %rax
	movq	568(%rax), %rdi
	movq	-16(%rbp), %rax
	movq	416(%rax), %rsi
	shlq	$6, %rsi
	callq	realloc
	movq	%rax, -32(%rbp)
	cmpq	$0, -32(%rbp)
	jne	.LBB16_2
# %bb.1:                                # %if.then
	movq	-16(%rbp), %rsi
	movabsq	$.L.str, %rdi
	movb	$0, %al
	callq	printf
	movq	stdout, %rdi
	callq	fflush
	movq	$-1, -48(%rbp)
	jmp	.LBB16_9
.LBB16_2:                               # %if.end
	movq	-32(%rbp), %rax
	movq	-16(%rbp), %rcx
	movq	568(%rcx), %rcx
	subq	%rcx, %rax
	movq	%rax, -64(%rbp)
	movq	-32(%rbp), %rax
	movq	-16(%rbp), %rcx
	movq	%rax, 568(%rcx)
	movq	-32(%rbp), %rax
	movq	-16(%rbp), %rcx
	movq	424(%rcx), %rcx
	shlq	$6, %rcx
	addq	%rcx, %rax
	movq	-16(%rbp), %rcx
	movq	%rax, 576(%rcx)
	movq	-16(%rbp), %rax
	movq	552(%rax), %rax
	movq	%rax, -24(%rbp)
	movq	%rax, -56(%rbp)
	movq	-24(%rbp), %rax
	addq	$104, %rax
	movq	%rax, -24(%rbp)
	movq	-16(%rbp), %rax
	movq	560(%rax), %rax
	movq	%rax, -72(%rbp)
.LBB16_3:                               # %for.cond
                                        # =>This Inner Loop Header: Depth=1
	movq	-24(%rbp), %rax
	cmpq	-72(%rbp), %rax
	jae	.LBB16_8
# %bb.4:                                # %for.body
                                        #   in Loop: Header=BB16_3 Depth=1
	movq	-24(%rbp), %rax
	movq	24(%rax), %rax
	cmpq	-56(%rbp), %rax
	je	.LBB16_6
# %bb.5:                                # %if.then9
                                        #   in Loop: Header=BB16_3 Depth=1
	movq	-24(%rbp), %rax
	movq	48(%rax), %rax
	addq	-64(%rbp), %rax
	movq	-24(%rbp), %rcx
	movq	%rax, 48(%rcx)
.LBB16_6:                               # %if.end12
                                        #   in Loop: Header=BB16_3 Depth=1
	jmp	.LBB16_7
.LBB16_7:                               # %for.inc
                                        #   in Loop: Header=BB16_3 Depth=1
	movq	-24(%rbp), %rax
	addq	$104, %rax
	movq	%rax, -24(%rbp)
	jmp	.LBB16_3
.LBB16_8:                               # %for.end
	movq	$0, -48(%rbp)
.LBB16_9:                               # %return
	movq	-48(%rbp), %rbx
	cmpl	$786051906, -36(%rbp)   # imm = 0x2EDA3342
	jne	.LBB16_11
.LBB16_10:
	movq	%rbx, %rax
	addq	$72, %rsp
	popq	%rbx
	popq	%rbp
	.cfi_def_cfa %rsp, 8
	retq
.LBB16_11:                              # %func_exit
	.cfi_def_cfa %rbp, 16
	callq	detect_breach
	jmp	.LBB16_10
.Lfunc_end16:
	.size	resize_prob.12, .Lfunc_end16-resize_prob.12
	.cfi_endproc
                                        # -- End function
	.globl	suspend_impl.13         # -- Begin function suspend_impl.13
	.p2align	4, 0x90
	.type	suspend_impl.13,@function
suspend_impl.13:                        # @suspend_impl.13
	.cfi_startproc
# %bb.0:                                # %entry
	pushq	%rbp
	.cfi_def_cfa_offset 16
	.cfi_offset %rbp, -16
	movq	%rsp, %rbp
	.cfi_def_cfa_register %rbp
	pushq	%rbx
	subq	$72, %rsp
	.cfi_offset %rbx, -24
	movl	$1420791322, -44(%rbp)  # imm = 0x54AF8E1A
	movq	%rdi, -24(%rbp)
	movq	%rsi, -72(%rbp)
	movq	%rdx, -80(%rbp)
	cmpq	$0, -80(%rbp)
	je	.LBB17_2
# %bb.1:                                # %if.then
	movq	-24(%rbp), %rax
	movq	440(%rax), %rax
	movq	%rax, -32(%rbp)
	jmp	.LBB17_18
.LBB17_2:                               # %if.else
	movq	-24(%rbp), %rax
	movq	576(%rax), %rax
	movq	%rax, -64(%rbp)
	movq	-24(%rbp), %rax
	movq	568(%rax), %rax
	movq	-24(%rbp), %rcx
	movq	424(%rcx), %rcx
	movq	-24(%rbp), %rdx
	subq	440(%rdx), %rcx
	shlq	$6, %rcx
	addq	%rcx, %rax
	movq	%rax, -40(%rbp)
	movq	$0, -32(%rbp)
	movq	-40(%rbp), %rax
	movq	%rax, -16(%rbp)
.LBB17_3:                               # %for.cond
                                        # =>This Inner Loop Header: Depth=1
	movq	-16(%rbp), %rax
	movq	-64(%rbp), %rcx
	cmpq	%rcx, %rax
	jae	.LBB17_17
# %bb.4:                                # %for.body
                                        #   in Loop: Header=BB17_3 Depth=1
	movq	-16(%rbp), %rax
	cmpl	$1, 24(%rax)
	jne	.LBB17_6
# %bb.5:                                # %if.then3
                                        #   in Loop: Header=BB17_3 Depth=1
	movq	-16(%rbp), %rax
	movq	(%rax), %rax
	movq	-16(%rbp), %rcx
	movq	8(%rcx), %rcx
	subq	(%rcx), %rax
	movq	-16(%rbp), %rcx
	movq	16(%rcx), %rcx
	addq	(%rcx), %rax
	movq	%rax, -56(%rbp)
	jmp	.LBB17_12
.LBB17_6:                               # %if.else6
                                        #   in Loop: Header=BB17_3 Depth=1
	movq	$-2, -56(%rbp)
	movq	-16(%rbp), %rax
	cmpl	$0, 24(%rax)
	jne	.LBB17_11
# %bb.7:                                # %if.then9
                                        #   in Loop: Header=BB17_3 Depth=1
	movq	-16(%rbp), %rax
	movq	8(%rax), %rax
	movq	48(%rax), %rax
	cmpq	-16(%rbp), %rax
	jne	.LBB17_9
# %bb.8:                                # %if.then12
                                        #   in Loop: Header=BB17_3 Depth=1
	movq	-40(%rbp), %rax
	movq	-16(%rbp), %rcx
	movq	8(%rcx), %rcx
	movq	%rax, 48(%rcx)
	jmp	.LBB17_10
.LBB17_9:                               # %if.else15
                                        #   in Loop: Header=BB17_3 Depth=1
	movq	-40(%rbp), %rax
	movq	-16(%rbp), %rcx
	movq	16(%rcx), %rcx
	movq	%rax, 48(%rcx)
.LBB17_10:                              # %if.end
                                        #   in Loop: Header=BB17_3 Depth=1
	jmp	.LBB17_11
.LBB17_11:                              # %if.end18
                                        #   in Loop: Header=BB17_3 Depth=1
	jmp	.LBB17_12
.LBB17_12:                              # %if.end19
                                        #   in Loop: Header=BB17_3 Depth=1
	movq	-56(%rbp), %rax
	cmpq	-72(%rbp), %rax
	jle	.LBB17_14
# %bb.13:                               # %if.then21
                                        #   in Loop: Header=BB17_3 Depth=1
	movq	-32(%rbp), %rax
	addq	$1, %rax
	movq	%rax, -32(%rbp)
	jmp	.LBB17_15
.LBB17_14:                              # %if.else22
                                        #   in Loop: Header=BB17_3 Depth=1
	movq	-40(%rbp), %rdi
	movq	-16(%rbp), %rsi
	movl	$64, %edx
	callq	memcpy
	movq	-40(%rbp), %rax
	addq	$64, %rax
	movq	%rax, -40(%rbp)
.LBB17_15:                              # %if.end23
                                        #   in Loop: Header=BB17_3 Depth=1
	jmp	.LBB17_16
.LBB17_16:                              # %for.inc
                                        #   in Loop: Header=BB17_3 Depth=1
	movq	-16(%rbp), %rax
	addq	$64, %rax
	movq	%rax, -16(%rbp)
	jmp	.LBB17_3
.LBB17_17:                              # %for.end
	jmp	.LBB17_18
.LBB17_18:                              # %if.end25
	cmpq	$0, -32(%rbp)
	je	.LBB17_20
# %bb.19:                               # %if.then27
	xorl	%eax, %eax
	movq	-32(%rbp), %rcx
	movq	-24(%rbp), %rdx
	movq	424(%rdx), %rsi
	subq	%rcx, %rsi
	movq	%rsi, 424(%rdx)
	movq	-32(%rbp), %rcx
	movq	-24(%rbp), %rdx
	movq	440(%rdx), %rsi
	subq	%rcx, %rsi
	movq	%rsi, 440(%rdx)
	movq	-32(%rbp), %rcx
	movq	-24(%rbp), %rdx
	movq	576(%rdx), %rsi
	subq	%rcx, %rax
	shlq	$6, %rax
	addq	%rax, %rsi
	movq	%rsi, 576(%rdx)
	movq	-32(%rbp), %rax
	movq	-24(%rbp), %rcx
	addq	448(%rcx), %rax
	movq	%rax, 448(%rcx)
	movq	-24(%rbp), %rdi
	callq	refresh_neighbour_lists
.LBB17_20:                              # %if.end34
	movq	-32(%rbp), %rbx
	cmpl	$1420791322, -44(%rbp)  # imm = 0x54AF8E1A
	jne	.LBB17_22
.LBB17_21:
	movq	%rbx, %rax
	addq	$72, %rsp
	popq	%rbx
	popq	%rbp
	.cfi_def_cfa %rsp, 8
	retq
.LBB17_22:                              # %func_exit
	.cfi_def_cfa %rbp, 16
	callq	detect_breach
	jmp	.LBB17_21
.Lfunc_end17:
	.size	suspend_impl.13, .Lfunc_end17-suspend_impl.13
	.cfi_endproc
                                        # -- End function
	.globl	insert_new_arc.14       # -- Begin function insert_new_arc.14
	.p2align	4, 0x90
	.type	insert_new_arc.14,@function
insert_new_arc.14:                      # @insert_new_arc.14
	.cfi_startproc
# %bb.0:                                # %entry
	pushq	%rbp
	.cfi_def_cfa_offset 16
	.cfi_offset %rbp, -16
	movq	%rsp, %rbp
	.cfi_def_cfa_register %rbp
	subq	$64, %rsp
	movl	$437158, -44(%rbp)      # imm = 0x6ABA6
	movq	%rdi, -8(%rbp)
	movq	%rsi, -24(%rbp)
	movq	%rdx, -64(%rbp)
	movq	%rcx, -56(%rbp)
	movq	%r8, -32(%rbp)
	movq	%r9, -40(%rbp)
	movq	-64(%rbp), %rax
	movq	-8(%rbp), %rcx
	movq	-24(%rbp), %rdx
	shlq	$6, %rdx
	addq	%rdx, %rcx
	movq	%rax, 8(%rcx)
	movq	-56(%rbp), %rax
	movq	-8(%rbp), %rcx
	movq	-24(%rbp), %rdx
	shlq	$6, %rdx
	addq	%rdx, %rcx
	movq	%rax, 16(%rcx)
	movq	-32(%rbp), %rax
	movq	-8(%rbp), %rcx
	movq	-24(%rbp), %rdx
	shlq	$6, %rdx
	addq	%rdx, %rcx
	movq	%rax, 56(%rcx)
	movq	-32(%rbp), %rax
	movq	-8(%rbp), %rcx
	movq	-24(%rbp), %rdx
	shlq	$6, %rdx
	addq	%rdx, %rcx
	movq	%rax, (%rcx)
	movq	-40(%rbp), %rax
	movq	-8(%rbp), %rcx
	movq	-24(%rbp), %rdx
	shlq	$6, %rdx
	addq	%rdx, %rcx
	movq	%rax, 48(%rcx)
	movq	-24(%rbp), %rax
	addq	$1, %rax
	movq	%rax, -16(%rbp)
.LBB18_1:                               # %while.cond
                                        # =>This Inner Loop Header: Depth=1
	xorl	%eax, %eax
	movq	-16(%rbp), %rcx
	subq	$1, %rcx
	cmpq	$0, %rcx
	je	.LBB18_3
# %bb.2:                                # %land.rhs
                                        #   in Loop: Header=BB18_1 Depth=1
	movq	-40(%rbp), %rcx
	movq	-8(%rbp), %rsi
	movq	-16(%rbp), %rax
	cqto
	movl	$2, %edi
	idivq	%rdi
	subq	$1, %rax
	shlq	$6, %rax
	addq	%rax, %rsi
	cmpq	48(%rsi), %rcx
	setg	%al
.LBB18_3:                               # %land.end
                                        #   in Loop: Header=BB18_1 Depth=1
	testb	$1, %al
	jne	.LBB18_4
	jmp	.LBB18_5
.LBB18_4:                               # %while.body
                                        #   in Loop: Header=BB18_1 Depth=1
	movq	-8(%rbp), %rsi
	movq	-16(%rbp), %rax
	cqto
	movl	$2, %ecx
	idivq	%rcx
	subq	$1, %rax
	shlq	$6, %rax
	addq	%rax, %rsi
	movq	8(%rsi), %rax
	movq	-8(%rbp), %rdx
	movq	-16(%rbp), %rsi
	subq	$1, %rsi
	shlq	$6, %rsi
	addq	%rsi, %rdx
	movq	%rax, 8(%rdx)
	movq	-8(%rbp), %rsi
	movq	-16(%rbp), %rax
	cqto
	idivq	%rcx
	subq	$1, %rax
	shlq	$6, %rax
	addq	%rax, %rsi
	movq	16(%rsi), %rax
	movq	-8(%rbp), %rdx
	movq	-16(%rbp), %rsi
	subq	$1, %rsi
	shlq	$6, %rsi
	addq	%rsi, %rdx
	movq	%rax, 16(%rdx)
	movq	-8(%rbp), %rsi
	movq	-16(%rbp), %rax
	cqto
	idivq	%rcx
	subq	$1, %rax
	shlq	$6, %rax
	addq	%rax, %rsi
	movq	(%rsi), %rax
	movq	-8(%rbp), %rdx
	movq	-16(%rbp), %rsi
	subq	$1, %rsi
	shlq	$6, %rsi
	addq	%rsi, %rdx
	movq	%rax, (%rdx)
	movq	-8(%rbp), %rsi
	movq	-16(%rbp), %rax
	cqto
	idivq	%rcx
	subq	$1, %rax
	shlq	$6, %rax
	addq	%rax, %rsi
	movq	(%rsi), %rax
	movq	-8(%rbp), %rdx
	movq	-16(%rbp), %rsi
	subq	$1, %rsi
	shlq	$6, %rsi
	addq	%rsi, %rdx
	movq	%rax, 56(%rdx)
	movq	-8(%rbp), %rsi
	movq	-16(%rbp), %rax
	cqto
	idivq	%rcx
	subq	$1, %rax
	shlq	$6, %rax
	addq	%rax, %rsi
	movq	48(%rsi), %rax
	movq	-8(%rbp), %rdx
	movq	-16(%rbp), %rsi
	subq	$1, %rsi
	shlq	$6, %rsi
	addq	%rsi, %rdx
	movq	%rax, 48(%rdx)
	movq	-16(%rbp), %rax
	cqto
	idivq	%rcx
	movq	%rax, -16(%rbp)
	movq	-64(%rbp), %rax
	movq	-8(%rbp), %rcx
	movq	-16(%rbp), %rdx
	subq	$1, %rdx
	shlq	$6, %rdx
	addq	%rdx, %rcx
	movq	%rax, 8(%rcx)
	movq	-56(%rbp), %rax
	movq	-8(%rbp), %rcx
	movq	-16(%rbp), %rdx
	subq	$1, %rdx
	shlq	$6, %rdx
	addq	%rdx, %rcx
	movq	%rax, 16(%rcx)
	movq	-32(%rbp), %rax
	movq	-8(%rbp), %rcx
	movq	-16(%rbp), %rdx
	subq	$1, %rdx
	shlq	$6, %rdx
	addq	%rdx, %rcx
	movq	%rax, (%rcx)
	movq	-32(%rbp), %rax
	movq	-8(%rbp), %rcx
	movq	-16(%rbp), %rdx
	subq	$1, %rdx
	shlq	$6, %rdx
	addq	%rdx, %rcx
	movq	%rax, 56(%rcx)
	movq	-40(%rbp), %rax
	movq	-8(%rbp), %rcx
	movq	-16(%rbp), %rdx
	subq	$1, %rdx
	shlq	$6, %rdx
	addq	%rdx, %rcx
	movq	%rax, 48(%rcx)
	jmp	.LBB18_1
.LBB18_5:                               # %while.end
	cmpl	$437158, -44(%rbp)      # imm = 0x6ABA6
	jne	.LBB18_7
.LBB18_6:
	addq	$64, %rsp
	popq	%rbp
	.cfi_def_cfa %rsp, 8
	retq
.LBB18_7:                               # %func_exit
	.cfi_def_cfa %rbp, 16
	callq	detect_breach
	jmp	.LBB18_6
.Lfunc_end18:
	.size	insert_new_arc.14, .Lfunc_end18-insert_new_arc.14
	.cfi_endproc
                                        # -- End function
	.globl	insert_new_arc.15       # -- Begin function insert_new_arc.15
	.p2align	4, 0x90
	.type	insert_new_arc.15,@function
insert_new_arc.15:                      # @insert_new_arc.15
	.cfi_startproc
# %bb.0:                                # %entry
	pushq	%rbp
	.cfi_def_cfa_offset 16
	.cfi_offset %rbp, -16
	movq	%rsp, %rbp
	.cfi_def_cfa_register %rbp
	subq	$64, %rsp
	movl	$202754072, -44(%rbp)   # imm = 0xC15C818
	movq	%rdi, -8(%rbp)
	movq	%rsi, -24(%rbp)
	movq	%rdx, -56(%rbp)
	movq	%rcx, -64(%rbp)
	movq	%r8, -32(%rbp)
	movq	%r9, -40(%rbp)
	movq	-56(%rbp), %rax
	movq	-8(%rbp), %rcx
	movq	-24(%rbp), %rdx
	shlq	$6, %rdx
	addq	%rdx, %rcx
	movq	%rax, 8(%rcx)
	movq	-64(%rbp), %rax
	movq	-8(%rbp), %rcx
	movq	-24(%rbp), %rdx
	shlq	$6, %rdx
	addq	%rdx, %rcx
	movq	%rax, 16(%rcx)
	movq	-32(%rbp), %rax
	movq	-8(%rbp), %rcx
	movq	-24(%rbp), %rdx
	shlq	$6, %rdx
	addq	%rdx, %rcx
	movq	%rax, 56(%rcx)
	movq	-32(%rbp), %rax
	movq	-8(%rbp), %rcx
	movq	-24(%rbp), %rdx
	shlq	$6, %rdx
	addq	%rdx, %rcx
	movq	%rax, (%rcx)
	movq	-40(%rbp), %rax
	movq	-8(%rbp), %rcx
	movq	-24(%rbp), %rdx
	shlq	$6, %rdx
	addq	%rdx, %rcx
	movq	%rax, 48(%rcx)
	movq	-24(%rbp), %rax
	addq	$1, %rax
	movq	%rax, -16(%rbp)
.LBB19_1:                               # %while.cond
                                        # =>This Inner Loop Header: Depth=1
	xorl	%eax, %eax
	movq	-16(%rbp), %rcx
	subq	$1, %rcx
	cmpq	$0, %rcx
	je	.LBB19_3
# %bb.2:                                # %land.rhs
                                        #   in Loop: Header=BB19_1 Depth=1
	movq	-40(%rbp), %rcx
	movq	-8(%rbp), %rsi
	movq	-16(%rbp), %rax
	cqto
	movl	$2, %edi
	idivq	%rdi
	subq	$1, %rax
	shlq	$6, %rax
	addq	%rax, %rsi
	cmpq	48(%rsi), %rcx
	setg	%al
.LBB19_3:                               # %land.end
                                        #   in Loop: Header=BB19_1 Depth=1
	testb	$1, %al
	jne	.LBB19_4
	jmp	.LBB19_5
.LBB19_4:                               # %while.body
                                        #   in Loop: Header=BB19_1 Depth=1
	movq	-8(%rbp), %rsi
	movq	-16(%rbp), %rax
	cqto
	movl	$2, %ecx
	idivq	%rcx
	subq	$1, %rax
	shlq	$6, %rax
	addq	%rax, %rsi
	movq	8(%rsi), %rax
	movq	-8(%rbp), %rdx
	movq	-16(%rbp), %rsi
	subq	$1, %rsi
	shlq	$6, %rsi
	addq	%rsi, %rdx
	movq	%rax, 8(%rdx)
	movq	-8(%rbp), %rsi
	movq	-16(%rbp), %rax
	cqto
	idivq	%rcx
	subq	$1, %rax
	shlq	$6, %rax
	addq	%rax, %rsi
	movq	16(%rsi), %rax
	movq	-8(%rbp), %rdx
	movq	-16(%rbp), %rsi
	subq	$1, %rsi
	shlq	$6, %rsi
	addq	%rsi, %rdx
	movq	%rax, 16(%rdx)
	movq	-8(%rbp), %rsi
	movq	-16(%rbp), %rax
	cqto
	idivq	%rcx
	subq	$1, %rax
	shlq	$6, %rax
	addq	%rax, %rsi
	movq	(%rsi), %rax
	movq	-8(%rbp), %rdx
	movq	-16(%rbp), %rsi
	subq	$1, %rsi
	shlq	$6, %rsi
	addq	%rsi, %rdx
	movq	%rax, (%rdx)
	movq	-8(%rbp), %rsi
	movq	-16(%rbp), %rax
	cqto
	idivq	%rcx
	subq	$1, %rax
	shlq	$6, %rax
	addq	%rax, %rsi
	movq	(%rsi), %rax
	movq	-8(%rbp), %rdx
	movq	-16(%rbp), %rsi
	subq	$1, %rsi
	shlq	$6, %rsi
	addq	%rsi, %rdx
	movq	%rax, 56(%rdx)
	movq	-8(%rbp), %rsi
	movq	-16(%rbp), %rax
	cqto
	idivq	%rcx
	subq	$1, %rax
	shlq	$6, %rax
	addq	%rax, %rsi
	movq	48(%rsi), %rax
	movq	-8(%rbp), %rdx
	movq	-16(%rbp), %rsi
	subq	$1, %rsi
	shlq	$6, %rsi
	addq	%rsi, %rdx
	movq	%rax, 48(%rdx)
	movq	-16(%rbp), %rax
	cqto
	idivq	%rcx
	movq	%rax, -16(%rbp)
	movq	-56(%rbp), %rax
	movq	-8(%rbp), %rcx
	movq	-16(%rbp), %rdx
	subq	$1, %rdx
	shlq	$6, %rdx
	addq	%rdx, %rcx
	movq	%rax, 8(%rcx)
	movq	-64(%rbp), %rax
	movq	-8(%rbp), %rcx
	movq	-16(%rbp), %rdx
	subq	$1, %rdx
	shlq	$6, %rdx
	addq	%rdx, %rcx
	movq	%rax, 16(%rcx)
	movq	-32(%rbp), %rax
	movq	-8(%rbp), %rcx
	movq	-16(%rbp), %rdx
	subq	$1, %rdx
	shlq	$6, %rdx
	addq	%rdx, %rcx
	movq	%rax, (%rcx)
	movq	-32(%rbp), %rax
	movq	-8(%rbp), %rcx
	movq	-16(%rbp), %rdx
	subq	$1, %rdx
	shlq	$6, %rdx
	addq	%rdx, %rcx
	movq	%rax, 56(%rcx)
	movq	-40(%rbp), %rax
	movq	-8(%rbp), %rcx
	movq	-16(%rbp), %rdx
	subq	$1, %rdx
	shlq	$6, %rdx
	addq	%rdx, %rcx
	movq	%rax, 48(%rcx)
	jmp	.LBB19_1
.LBB19_5:                               # %while.end
	cmpl	$202754072, -44(%rbp)   # imm = 0xC15C818
	jne	.LBB19_7
.LBB19_6:
	addq	$64, %rsp
	popq	%rbp
	.cfi_def_cfa %rsp, 8
	retq
.LBB19_7:                               # %func_exit
	.cfi_def_cfa %rbp, 16
	callq	detect_breach
	jmp	.LBB19_6
.Lfunc_end19:
	.size	insert_new_arc.15, .Lfunc_end19-insert_new_arc.15
	.cfi_endproc
                                        # -- End function
	.globl	suspend_impl.16         # -- Begin function suspend_impl.16
	.p2align	4, 0x90
	.type	suspend_impl.16,@function
suspend_impl.16:                        # @suspend_impl.16
	.cfi_startproc
# %bb.0:                                # %entry
	pushq	%rbp
	.cfi_def_cfa_offset 16
	.cfi_offset %rbp, -16
	movq	%rsp, %rbp
	.cfi_def_cfa_register %rbp
	pushq	%rbx
	subq	$72, %rsp
	.cfi_offset %rbx, -24
	movl	$272342798, -44(%rbp)   # imm = 0x103B9F0E
	movq	%rdi, -24(%rbp)
	movq	%rsi, -80(%rbp)
	movq	%rdx, -72(%rbp)
	cmpq	$0, -72(%rbp)
	je	.LBB20_2
# %bb.1:                                # %if.then
	movq	-24(%rbp), %rax
	movq	440(%rax), %rax
	movq	%rax, -32(%rbp)
	jmp	.LBB20_18
.LBB20_2:                               # %if.else
	movq	-24(%rbp), %rax
	movq	576(%rax), %rax
	movq	%rax, -64(%rbp)
	movq	-24(%rbp), %rax
	movq	568(%rax), %rax
	movq	-24(%rbp), %rcx
	movq	424(%rcx), %rcx
	movq	-24(%rbp), %rdx
	subq	440(%rdx), %rcx
	shlq	$6, %rcx
	addq	%rcx, %rax
	movq	%rax, -40(%rbp)
	movq	$0, -32(%rbp)
	movq	-40(%rbp), %rax
	movq	%rax, -16(%rbp)
.LBB20_3:                               # %for.cond
                                        # =>This Inner Loop Header: Depth=1
	movq	-16(%rbp), %rax
	movq	-64(%rbp), %rcx
	cmpq	%rcx, %rax
	jae	.LBB20_17
# %bb.4:                                # %for.body
                                        #   in Loop: Header=BB20_3 Depth=1
	movq	-16(%rbp), %rax
	cmpl	$1, 24(%rax)
	jne	.LBB20_6
# %bb.5:                                # %if.then3
                                        #   in Loop: Header=BB20_3 Depth=1
	movq	-16(%rbp), %rax
	movq	(%rax), %rax
	movq	-16(%rbp), %rcx
	movq	8(%rcx), %rcx
	subq	(%rcx), %rax
	movq	-16(%rbp), %rcx
	movq	16(%rcx), %rcx
	addq	(%rcx), %rax
	movq	%rax, -56(%rbp)
	jmp	.LBB20_12
.LBB20_6:                               # %if.else6
                                        #   in Loop: Header=BB20_3 Depth=1
	movq	$-2, -56(%rbp)
	movq	-16(%rbp), %rax
	cmpl	$0, 24(%rax)
	jne	.LBB20_11
# %bb.7:                                # %if.then9
                                        #   in Loop: Header=BB20_3 Depth=1
	movq	-16(%rbp), %rax
	movq	8(%rax), %rax
	movq	48(%rax), %rax
	cmpq	-16(%rbp), %rax
	jne	.LBB20_9
# %bb.8:                                # %if.then12
                                        #   in Loop: Header=BB20_3 Depth=1
	movq	-40(%rbp), %rax
	movq	-16(%rbp), %rcx
	movq	8(%rcx), %rcx
	movq	%rax, 48(%rcx)
	jmp	.LBB20_10
.LBB20_9:                               # %if.else15
                                        #   in Loop: Header=BB20_3 Depth=1
	movq	-40(%rbp), %rax
	movq	-16(%rbp), %rcx
	movq	16(%rcx), %rcx
	movq	%rax, 48(%rcx)
.LBB20_10:                              # %if.end
                                        #   in Loop: Header=BB20_3 Depth=1
	jmp	.LBB20_11
.LBB20_11:                              # %if.end18
                                        #   in Loop: Header=BB20_3 Depth=1
	jmp	.LBB20_12
.LBB20_12:                              # %if.end19
                                        #   in Loop: Header=BB20_3 Depth=1
	movq	-56(%rbp), %rax
	cmpq	-80(%rbp), %rax
	jle	.LBB20_14
# %bb.13:                               # %if.then21
                                        #   in Loop: Header=BB20_3 Depth=1
	movq	-32(%rbp), %rax
	addq	$1, %rax
	movq	%rax, -32(%rbp)
	jmp	.LBB20_15
.LBB20_14:                              # %if.else22
                                        #   in Loop: Header=BB20_3 Depth=1
	movq	-40(%rbp), %rdi
	movq	-16(%rbp), %rsi
	movl	$64, %edx
	callq	memcpy
	movq	-40(%rbp), %rax
	addq	$64, %rax
	movq	%rax, -40(%rbp)
.LBB20_15:                              # %if.end23
                                        #   in Loop: Header=BB20_3 Depth=1
	jmp	.LBB20_16
.LBB20_16:                              # %for.inc
                                        #   in Loop: Header=BB20_3 Depth=1
	movq	-16(%rbp), %rax
	addq	$64, %rax
	movq	%rax, -16(%rbp)
	jmp	.LBB20_3
.LBB20_17:                              # %for.end
	jmp	.LBB20_18
.LBB20_18:                              # %if.end25
	cmpq	$0, -32(%rbp)
	je	.LBB20_20
# %bb.19:                               # %if.then27
	xorl	%eax, %eax
	movq	-32(%rbp), %rcx
	movq	-24(%rbp), %rdx
	movq	424(%rdx), %rsi
	subq	%rcx, %rsi
	movq	%rsi, 424(%rdx)
	movq	-32(%rbp), %rcx
	movq	-24(%rbp), %rdx
	movq	440(%rdx), %rsi
	subq	%rcx, %rsi
	movq	%rsi, 440(%rdx)
	movq	-32(%rbp), %rcx
	movq	-24(%rbp), %rdx
	movq	576(%rdx), %rsi
	subq	%rcx, %rax
	shlq	$6, %rax
	addq	%rax, %rsi
	movq	%rsi, 576(%rdx)
	movq	-32(%rbp), %rax
	movq	-24(%rbp), %rcx
	addq	448(%rcx), %rax
	movq	%rax, 448(%rcx)
	movq	-24(%rbp), %rdi
	callq	refresh_neighbour_lists
.LBB20_20:                              # %if.end34
	movq	-32(%rbp), %rbx
	cmpl	$272342798, -44(%rbp)   # imm = 0x103B9F0E
	jne	.LBB20_22
.LBB20_21:
	movq	%rbx, %rax
	addq	$72, %rsp
	popq	%rbx
	popq	%rbp
	.cfi_def_cfa %rsp, 8
	retq
.LBB20_22:                              # %func_exit
	.cfi_def_cfa %rbp, 16
	callq	detect_breach
	jmp	.LBB20_21
.Lfunc_end20:
	.size	suspend_impl.16, .Lfunc_end20-suspend_impl.16
	.cfi_endproc
                                        # -- End function
	.globl	insert_new_arc.17       # -- Begin function insert_new_arc.17
	.p2align	4, 0x90
	.type	insert_new_arc.17,@function
insert_new_arc.17:                      # @insert_new_arc.17
	.cfi_startproc
# %bb.0:                                # %entry
	pushq	%rbp
	.cfi_def_cfa_offset 16
	.cfi_offset %rbp, -16
	movq	%rsp, %rbp
	.cfi_def_cfa_register %rbp
	subq	$64, %rsp
	movl	$1807993295, -44(%rbp)  # imm = 0x6BC3C9CF
	movq	%rdi, -8(%rbp)
	movq	%rsi, -24(%rbp)
	movq	%rdx, -64(%rbp)
	movq	%rcx, -56(%rbp)
	movq	%r8, -32(%rbp)
	movq	%r9, -40(%rbp)
	movq	-64(%rbp), %rax
	movq	-8(%rbp), %rcx
	movq	-24(%rbp), %rdx
	shlq	$6, %rdx
	addq	%rdx, %rcx
	movq	%rax, 8(%rcx)
	movq	-56(%rbp), %rax
	movq	-8(%rbp), %rcx
	movq	-24(%rbp), %rdx
	shlq	$6, %rdx
	addq	%rdx, %rcx
	movq	%rax, 16(%rcx)
	movq	-32(%rbp), %rax
	movq	-8(%rbp), %rcx
	movq	-24(%rbp), %rdx
	shlq	$6, %rdx
	addq	%rdx, %rcx
	movq	%rax, 56(%rcx)
	movq	-32(%rbp), %rax
	movq	-8(%rbp), %rcx
	movq	-24(%rbp), %rdx
	shlq	$6, %rdx
	addq	%rdx, %rcx
	movq	%rax, (%rcx)
	movq	-40(%rbp), %rax
	movq	-8(%rbp), %rcx
	movq	-24(%rbp), %rdx
	shlq	$6, %rdx
	addq	%rdx, %rcx
	movq	%rax, 48(%rcx)
	movq	-24(%rbp), %rax
	addq	$1, %rax
	movq	%rax, -16(%rbp)
.LBB21_1:                               # %while.cond
                                        # =>This Inner Loop Header: Depth=1
	xorl	%eax, %eax
	movq	-16(%rbp), %rcx
	subq	$1, %rcx
	cmpq	$0, %rcx
	je	.LBB21_3
# %bb.2:                                # %land.rhs
                                        #   in Loop: Header=BB21_1 Depth=1
	movq	-40(%rbp), %rcx
	movq	-8(%rbp), %rsi
	movq	-16(%rbp), %rax
	cqto
	movl	$2, %edi
	idivq	%rdi
	subq	$1, %rax
	shlq	$6, %rax
	addq	%rax, %rsi
	cmpq	48(%rsi), %rcx
	setg	%al
.LBB21_3:                               # %land.end
                                        #   in Loop: Header=BB21_1 Depth=1
	testb	$1, %al
	jne	.LBB21_4
	jmp	.LBB21_5
.LBB21_4:                               # %while.body
                                        #   in Loop: Header=BB21_1 Depth=1
	movq	-8(%rbp), %rsi
	movq	-16(%rbp), %rax
	cqto
	movl	$2, %ecx
	idivq	%rcx
	subq	$1, %rax
	shlq	$6, %rax
	addq	%rax, %rsi
	movq	8(%rsi), %rax
	movq	-8(%rbp), %rdx
	movq	-16(%rbp), %rsi
	subq	$1, %rsi
	shlq	$6, %rsi
	addq	%rsi, %rdx
	movq	%rax, 8(%rdx)
	movq	-8(%rbp), %rsi
	movq	-16(%rbp), %rax
	cqto
	idivq	%rcx
	subq	$1, %rax
	shlq	$6, %rax
	addq	%rax, %rsi
	movq	16(%rsi), %rax
	movq	-8(%rbp), %rdx
	movq	-16(%rbp), %rsi
	subq	$1, %rsi
	shlq	$6, %rsi
	addq	%rsi, %rdx
	movq	%rax, 16(%rdx)
	movq	-8(%rbp), %rsi
	movq	-16(%rbp), %rax
	cqto
	idivq	%rcx
	subq	$1, %rax
	shlq	$6, %rax
	addq	%rax, %rsi
	movq	(%rsi), %rax
	movq	-8(%rbp), %rdx
	movq	-16(%rbp), %rsi
	subq	$1, %rsi
	shlq	$6, %rsi
	addq	%rsi, %rdx
	movq	%rax, (%rdx)
	movq	-8(%rbp), %rsi
	movq	-16(%rbp), %rax
	cqto
	idivq	%rcx
	subq	$1, %rax
	shlq	$6, %rax
	addq	%rax, %rsi
	movq	(%rsi), %rax
	movq	-8(%rbp), %rdx
	movq	-16(%rbp), %rsi
	subq	$1, %rsi
	shlq	$6, %rsi
	addq	%rsi, %rdx
	movq	%rax, 56(%rdx)
	movq	-8(%rbp), %rsi
	movq	-16(%rbp), %rax
	cqto
	idivq	%rcx
	subq	$1, %rax
	shlq	$6, %rax
	addq	%rax, %rsi
	movq	48(%rsi), %rax
	movq	-8(%rbp), %rdx
	movq	-16(%rbp), %rsi
	subq	$1, %rsi
	shlq	$6, %rsi
	addq	%rsi, %rdx
	movq	%rax, 48(%rdx)
	movq	-16(%rbp), %rax
	cqto
	idivq	%rcx
	movq	%rax, -16(%rbp)
	movq	-64(%rbp), %rax
	movq	-8(%rbp), %rcx
	movq	-16(%rbp), %rdx
	subq	$1, %rdx
	shlq	$6, %rdx
	addq	%rdx, %rcx
	movq	%rax, 8(%rcx)
	movq	-56(%rbp), %rax
	movq	-8(%rbp), %rcx
	movq	-16(%rbp), %rdx
	subq	$1, %rdx
	shlq	$6, %rdx
	addq	%rdx, %rcx
	movq	%rax, 16(%rcx)
	movq	-32(%rbp), %rax
	movq	-8(%rbp), %rcx
	movq	-16(%rbp), %rdx
	subq	$1, %rdx
	shlq	$6, %rdx
	addq	%rdx, %rcx
	movq	%rax, (%rcx)
	movq	-32(%rbp), %rax
	movq	-8(%rbp), %rcx
	movq	-16(%rbp), %rdx
	subq	$1, %rdx
	shlq	$6, %rdx
	addq	%rdx, %rcx
	movq	%rax, 56(%rcx)
	movq	-40(%rbp), %rax
	movq	-8(%rbp), %rcx
	movq	-16(%rbp), %rdx
	subq	$1, %rdx
	shlq	$6, %rdx
	addq	%rdx, %rcx
	movq	%rax, 48(%rcx)
	jmp	.LBB21_1
.LBB21_5:                               # %while.end
	cmpl	$1807993295, -44(%rbp)  # imm = 0x6BC3C9CF
	jne	.LBB21_7
.LBB21_6:
	addq	$64, %rsp
	popq	%rbp
	.cfi_def_cfa %rsp, 8
	retq
.LBB21_7:                               # %func_exit
	.cfi_def_cfa %rbp, 16
	callq	detect_breach
	jmp	.LBB21_6
.Lfunc_end21:
	.size	insert_new_arc.17, .Lfunc_end21-insert_new_arc.17
	.cfi_endproc
                                        # -- End function
	.globl	insert_new_arc.18       # -- Begin function insert_new_arc.18
	.p2align	4, 0x90
	.type	insert_new_arc.18,@function
insert_new_arc.18:                      # @insert_new_arc.18
	.cfi_startproc
# %bb.0:                                # %entry
	pushq	%rbp
	.cfi_def_cfa_offset 16
	.cfi_offset %rbp, -16
	movq	%rsp, %rbp
	.cfi_def_cfa_register %rbp
	subq	$64, %rsp
	movl	$896671818, -44(%rbp)   # imm = 0x3572204A
	movq	%rdi, -8(%rbp)
	movq	%rsi, -24(%rbp)
	movq	%rdx, -64(%rbp)
	movq	%rcx, -56(%rbp)
	movq	%r8, -32(%rbp)
	movq	%r9, -40(%rbp)
	movq	-64(%rbp), %rax
	movq	-8(%rbp), %rcx
	movq	-24(%rbp), %rdx
	shlq	$6, %rdx
	addq	%rdx, %rcx
	movq	%rax, 8(%rcx)
	movq	-56(%rbp), %rax
	movq	-8(%rbp), %rcx
	movq	-24(%rbp), %rdx
	shlq	$6, %rdx
	addq	%rdx, %rcx
	movq	%rax, 16(%rcx)
	movq	-32(%rbp), %rax
	movq	-8(%rbp), %rcx
	movq	-24(%rbp), %rdx
	shlq	$6, %rdx
	addq	%rdx, %rcx
	movq	%rax, 56(%rcx)
	movq	-32(%rbp), %rax
	movq	-8(%rbp), %rcx
	movq	-24(%rbp), %rdx
	shlq	$6, %rdx
	addq	%rdx, %rcx
	movq	%rax, (%rcx)
	movq	-40(%rbp), %rax
	movq	-8(%rbp), %rcx
	movq	-24(%rbp), %rdx
	shlq	$6, %rdx
	addq	%rdx, %rcx
	movq	%rax, 48(%rcx)
	movq	-24(%rbp), %rax
	addq	$1, %rax
	movq	%rax, -16(%rbp)
.LBB22_1:                               # %while.cond
                                        # =>This Inner Loop Header: Depth=1
	xorl	%eax, %eax
	movq	-16(%rbp), %rcx
	subq	$1, %rcx
	cmpq	$0, %rcx
	je	.LBB22_3
# %bb.2:                                # %land.rhs
                                        #   in Loop: Header=BB22_1 Depth=1
	movq	-40(%rbp), %rcx
	movq	-8(%rbp), %rsi
	movq	-16(%rbp), %rax
	cqto
	movl	$2, %edi
	idivq	%rdi
	subq	$1, %rax
	shlq	$6, %rax
	addq	%rax, %rsi
	cmpq	48(%rsi), %rcx
	setg	%al
.LBB22_3:                               # %land.end
                                        #   in Loop: Header=BB22_1 Depth=1
	testb	$1, %al
	jne	.LBB22_4
	jmp	.LBB22_5
.LBB22_4:                               # %while.body
                                        #   in Loop: Header=BB22_1 Depth=1
	movq	-8(%rbp), %rsi
	movq	-16(%rbp), %rax
	cqto
	movl	$2, %ecx
	idivq	%rcx
	subq	$1, %rax
	shlq	$6, %rax
	addq	%rax, %rsi
	movq	8(%rsi), %rax
	movq	-8(%rbp), %rdx
	movq	-16(%rbp), %rsi
	subq	$1, %rsi
	shlq	$6, %rsi
	addq	%rsi, %rdx
	movq	%rax, 8(%rdx)
	movq	-8(%rbp), %rsi
	movq	-16(%rbp), %rax
	cqto
	idivq	%rcx
	subq	$1, %rax
	shlq	$6, %rax
	addq	%rax, %rsi
	movq	16(%rsi), %rax
	movq	-8(%rbp), %rdx
	movq	-16(%rbp), %rsi
	subq	$1, %rsi
	shlq	$6, %rsi
	addq	%rsi, %rdx
	movq	%rax, 16(%rdx)
	movq	-8(%rbp), %rsi
	movq	-16(%rbp), %rax
	cqto
	idivq	%rcx
	subq	$1, %rax
	shlq	$6, %rax
	addq	%rax, %rsi
	movq	(%rsi), %rax
	movq	-8(%rbp), %rdx
	movq	-16(%rbp), %rsi
	subq	$1, %rsi
	shlq	$6, %rsi
	addq	%rsi, %rdx
	movq	%rax, (%rdx)
	movq	-8(%rbp), %rsi
	movq	-16(%rbp), %rax
	cqto
	idivq	%rcx
	subq	$1, %rax
	shlq	$6, %rax
	addq	%rax, %rsi
	movq	(%rsi), %rax
	movq	-8(%rbp), %rdx
	movq	-16(%rbp), %rsi
	subq	$1, %rsi
	shlq	$6, %rsi
	addq	%rsi, %rdx
	movq	%rax, 56(%rdx)
	movq	-8(%rbp), %rsi
	movq	-16(%rbp), %rax
	cqto
	idivq	%rcx
	subq	$1, %rax
	shlq	$6, %rax
	addq	%rax, %rsi
	movq	48(%rsi), %rax
	movq	-8(%rbp), %rdx
	movq	-16(%rbp), %rsi
	subq	$1, %rsi
	shlq	$6, %rsi
	addq	%rsi, %rdx
	movq	%rax, 48(%rdx)
	movq	-16(%rbp), %rax
	cqto
	idivq	%rcx
	movq	%rax, -16(%rbp)
	movq	-64(%rbp), %rax
	movq	-8(%rbp), %rcx
	movq	-16(%rbp), %rdx
	subq	$1, %rdx
	shlq	$6, %rdx
	addq	%rdx, %rcx
	movq	%rax, 8(%rcx)
	movq	-56(%rbp), %rax
	movq	-8(%rbp), %rcx
	movq	-16(%rbp), %rdx
	subq	$1, %rdx
	shlq	$6, %rdx
	addq	%rdx, %rcx
	movq	%rax, 16(%rcx)
	movq	-32(%rbp), %rax
	movq	-8(%rbp), %rcx
	movq	-16(%rbp), %rdx
	subq	$1, %rdx
	shlq	$6, %rdx
	addq	%rdx, %rcx
	movq	%rax, (%rcx)
	movq	-32(%rbp), %rax
	movq	-8(%rbp), %rcx
	movq	-16(%rbp), %rdx
	subq	$1, %rdx
	shlq	$6, %rdx
	addq	%rdx, %rcx
	movq	%rax, 56(%rcx)
	movq	-40(%rbp), %rax
	movq	-8(%rbp), %rcx
	movq	-16(%rbp), %rdx
	subq	$1, %rdx
	shlq	$6, %rdx
	addq	%rdx, %rcx
	movq	%rax, 48(%rcx)
	jmp	.LBB22_1
.LBB22_5:                               # %while.end
	cmpl	$896671818, -44(%rbp)   # imm = 0x3572204A
	jne	.LBB22_7
.LBB22_6:
	addq	$64, %rsp
	popq	%rbp
	.cfi_def_cfa %rsp, 8
	retq
.LBB22_7:                               # %func_exit
	.cfi_def_cfa %rbp, 16
	callq	detect_breach
	jmp	.LBB22_6
.Lfunc_end22:
	.size	insert_new_arc.18, .Lfunc_end22-insert_new_arc.18
	.cfi_endproc
                                        # -- End function
	.globl	replace_weaker_arc.19   # -- Begin function replace_weaker_arc.19
	.p2align	4, 0x90
	.type	replace_weaker_arc.19,@function
replace_weaker_arc.19:                  # @replace_weaker_arc.19
	.cfi_startproc
# %bb.0:                                # %entry
	pushq	%rbp
	.cfi_def_cfa_offset 16
	.cfi_offset %rbp, -16
	movq	%rsp, %rbp
	.cfi_def_cfa_register %rbp
	subq	$80, %rsp
	movl	$2068414789, -44(%rbp)  # imm = 0x7B498145
	movq	%rdi, -56(%rbp)
	movq	%rsi, -8(%rbp)
	movq	%rdx, -72(%rbp)
	movq	%rcx, -64(%rbp)
	movq	%r8, -32(%rbp)
	movq	%r9, -40(%rbp)
	movq	-72(%rbp), %rax
	movq	-8(%rbp), %rcx
	movq	%rax, 8(%rcx)
	movq	-64(%rbp), %rax
	movq	-8(%rbp), %rcx
	movq	%rax, 16(%rcx)
	movq	-32(%rbp), %rax
	movq	-8(%rbp), %rcx
	movq	%rax, 56(%rcx)
	movq	-32(%rbp), %rax
	movq	-8(%rbp), %rcx
	movq	%rax, (%rcx)
	movq	-40(%rbp), %rax
	movq	-8(%rbp), %rcx
	movq	%rax, 48(%rcx)
	movq	$1, -24(%rbp)
	movq	-8(%rbp), %rax
	movq	112(%rax), %rax
	movq	-8(%rbp), %rcx
	movq	176(%rcx), %rcx
	cmpq	%rcx, %rax
	movl	$2, %eax
	movl	$3, %ecx
	cmovgl	%eax, %ecx
	movslq	%ecx, %rax
	movq	%rax, -16(%rbp)
.LBB23_1:                               # %while.cond
                                        # =>This Inner Loop Header: Depth=1
	xorl	%eax, %eax
	movq	-16(%rbp), %rcx
	movq	-56(%rbp), %rdx
	cmpq	448(%rdx), %rcx
	jg	.LBB23_3
# %bb.2:                                # %land.rhs
                                        #   in Loop: Header=BB23_1 Depth=1
	movq	-40(%rbp), %rax
	movq	-8(%rbp), %rcx
	movq	-16(%rbp), %rdx
	subq	$1, %rdx
	shlq	$6, %rdx
	addq	%rdx, %rcx
	cmpq	48(%rcx), %rax
	setl	%al
.LBB23_3:                               # %land.end
                                        #   in Loop: Header=BB23_1 Depth=1
	testb	$1, %al
	jne	.LBB23_4
	jmp	.LBB23_9
.LBB23_4:                               # %while.body
                                        #   in Loop: Header=BB23_1 Depth=1
	movq	-8(%rbp), %rax
	movq	-16(%rbp), %rcx
	subq	$1, %rcx
	shlq	$6, %rcx
	addq	%rcx, %rax
	movq	8(%rax), %rax
	movq	-8(%rbp), %rcx
	movq	-24(%rbp), %rdx
	subq	$1, %rdx
	shlq	$6, %rdx
	addq	%rdx, %rcx
	movq	%rax, 8(%rcx)
	movq	-8(%rbp), %rax
	movq	-16(%rbp), %rcx
	subq	$1, %rcx
	shlq	$6, %rcx
	addq	%rcx, %rax
	movq	16(%rax), %rax
	movq	-8(%rbp), %rcx
	movq	-24(%rbp), %rdx
	subq	$1, %rdx
	shlq	$6, %rdx
	addq	%rdx, %rcx
	movq	%rax, 16(%rcx)
	movq	-8(%rbp), %rax
	movq	-16(%rbp), %rcx
	subq	$1, %rcx
	shlq	$6, %rcx
	addq	%rcx, %rax
	movq	(%rax), %rax
	movq	-8(%rbp), %rcx
	movq	-24(%rbp), %rdx
	subq	$1, %rdx
	shlq	$6, %rdx
	addq	%rdx, %rcx
	movq	%rax, (%rcx)
	movq	-8(%rbp), %rax
	movq	-16(%rbp), %rcx
	subq	$1, %rcx
	shlq	$6, %rcx
	addq	%rcx, %rax
	movq	(%rax), %rax
	movq	-8(%rbp), %rcx
	movq	-24(%rbp), %rdx
	subq	$1, %rdx
	shlq	$6, %rdx
	addq	%rdx, %rcx
	movq	%rax, 56(%rcx)
	movq	-8(%rbp), %rax
	movq	-16(%rbp), %rcx
	subq	$1, %rcx
	shlq	$6, %rcx
	addq	%rcx, %rax
	movq	48(%rax), %rax
	movq	-8(%rbp), %rcx
	movq	-24(%rbp), %rdx
	subq	$1, %rdx
	shlq	$6, %rdx
	addq	%rdx, %rcx
	movq	%rax, 48(%rcx)
	movq	-72(%rbp), %rax
	movq	-8(%rbp), %rcx
	movq	-16(%rbp), %rdx
	subq	$1, %rdx
	shlq	$6, %rdx
	addq	%rdx, %rcx
	movq	%rax, 8(%rcx)
	movq	-64(%rbp), %rax
	movq	-8(%rbp), %rcx
	movq	-16(%rbp), %rdx
	subq	$1, %rdx
	shlq	$6, %rdx
	addq	%rdx, %rcx
	movq	%rax, 16(%rcx)
	movq	-32(%rbp), %rax
	movq	-8(%rbp), %rcx
	movq	-16(%rbp), %rdx
	subq	$1, %rdx
	shlq	$6, %rdx
	addq	%rdx, %rcx
	movq	%rax, (%rcx)
	movq	-32(%rbp), %rax
	movq	-8(%rbp), %rcx
	movq	-16(%rbp), %rdx
	subq	$1, %rdx
	shlq	$6, %rdx
	addq	%rdx, %rcx
	movq	%rax, 56(%rcx)
	movq	-40(%rbp), %rax
	movq	-8(%rbp), %rcx
	movq	-16(%rbp), %rdx
	subq	$1, %rdx
	shlq	$6, %rdx
	addq	%rdx, %rcx
	movq	%rax, 48(%rcx)
	movq	-16(%rbp), %rax
	movq	%rax, -24(%rbp)
	movq	-16(%rbp), %rax
	shlq	$1, %rax
	movq	%rax, -16(%rbp)
	movq	-16(%rbp), %rax
	addq	$1, %rax
	movq	-56(%rbp), %rcx
	cmpq	448(%rcx), %rax
	jg	.LBB23_8
# %bb.5:                                # %if.then
                                        #   in Loop: Header=BB23_1 Depth=1
	movq	-8(%rbp), %rax
	movq	-16(%rbp), %rcx
	subq	$1, %rcx
	shlq	$6, %rcx
	addq	%rcx, %rax
	movq	48(%rax), %rax
	movq	-8(%rbp), %rcx
	movq	-16(%rbp), %rdx
	shlq	$6, %rdx
	addq	%rdx, %rcx
	cmpq	48(%rcx), %rax
	jge	.LBB23_7
# %bb.6:                                # %if.then74
                                        #   in Loop: Header=BB23_1 Depth=1
	movq	-16(%rbp), %rax
	addq	$1, %rax
	movq	%rax, -16(%rbp)
.LBB23_7:                               # %if.end
                                        #   in Loop: Header=BB23_1 Depth=1
	jmp	.LBB23_8
.LBB23_8:                               # %if.end75
                                        #   in Loop: Header=BB23_1 Depth=1
	jmp	.LBB23_1
.LBB23_9:                               # %while.end
	cmpl	$2068414789, -44(%rbp)  # imm = 0x7B498145
	jne	.LBB23_11
.LBB23_10:
	addq	$80, %rsp
	popq	%rbp
	.cfi_def_cfa %rsp, 8
	retq
.LBB23_11:                              # %func_exit
	.cfi_def_cfa %rbp, 16
	callq	detect_breach
	jmp	.LBB23_10
.Lfunc_end23:
	.size	replace_weaker_arc.19, .Lfunc_end23-replace_weaker_arc.19
	.cfi_endproc
                                        # -- End function
	.globl	replace_weaker_arc.20   # -- Begin function replace_weaker_arc.20
	.p2align	4, 0x90
	.type	replace_weaker_arc.20,@function
replace_weaker_arc.20:                  # @replace_weaker_arc.20
	.cfi_startproc
# %bb.0:                                # %entry
	pushq	%rbp
	.cfi_def_cfa_offset 16
	.cfi_offset %rbp, -16
	movq	%rsp, %rbp
	.cfi_def_cfa_register %rbp
	subq	$80, %rsp
	movl	$552030804, -44(%rbp)   # imm = 0x20E75254
	movq	%rdi, -72(%rbp)
	movq	%rsi, -8(%rbp)
	movq	%rdx, -64(%rbp)
	movq	%rcx, -56(%rbp)
	movq	%r8, -32(%rbp)
	movq	%r9, -40(%rbp)
	movq	-64(%rbp), %rax
	movq	-8(%rbp), %rcx
	movq	%rax, 8(%rcx)
	movq	-56(%rbp), %rax
	movq	-8(%rbp), %rcx
	movq	%rax, 16(%rcx)
	movq	-32(%rbp), %rax
	movq	-8(%rbp), %rcx
	movq	%rax, 56(%rcx)
	movq	-32(%rbp), %rax
	movq	-8(%rbp), %rcx
	movq	%rax, (%rcx)
	movq	-40(%rbp), %rax
	movq	-8(%rbp), %rcx
	movq	%rax, 48(%rcx)
	movq	$1, -24(%rbp)
	movq	-8(%rbp), %rax
	movq	112(%rax), %rax
	movq	-8(%rbp), %rcx
	movq	176(%rcx), %rcx
	cmpq	%rcx, %rax
	movl	$2, %eax
	movl	$3, %ecx
	cmovgl	%eax, %ecx
	movslq	%ecx, %rax
	movq	%rax, -16(%rbp)
.LBB24_1:                               # %while.cond
                                        # =>This Inner Loop Header: Depth=1
	xorl	%eax, %eax
	movq	-16(%rbp), %rcx
	movq	-72(%rbp), %rdx
	cmpq	448(%rdx), %rcx
	jg	.LBB24_3
# %bb.2:                                # %land.rhs
                                        #   in Loop: Header=BB24_1 Depth=1
	movq	-40(%rbp), %rax
	movq	-8(%rbp), %rcx
	movq	-16(%rbp), %rdx
	subq	$1, %rdx
	shlq	$6, %rdx
	addq	%rdx, %rcx
	cmpq	48(%rcx), %rax
	setl	%al
.LBB24_3:                               # %land.end
                                        #   in Loop: Header=BB24_1 Depth=1
	testb	$1, %al
	jne	.LBB24_4
	jmp	.LBB24_9
.LBB24_4:                               # %while.body
                                        #   in Loop: Header=BB24_1 Depth=1
	movq	-8(%rbp), %rax
	movq	-16(%rbp), %rcx
	subq	$1, %rcx
	shlq	$6, %rcx
	addq	%rcx, %rax
	movq	8(%rax), %rax
	movq	-8(%rbp), %rcx
	movq	-24(%rbp), %rdx
	subq	$1, %rdx
	shlq	$6, %rdx
	addq	%rdx, %rcx
	movq	%rax, 8(%rcx)
	movq	-8(%rbp), %rax
	movq	-16(%rbp), %rcx
	subq	$1, %rcx
	shlq	$6, %rcx
	addq	%rcx, %rax
	movq	16(%rax), %rax
	movq	-8(%rbp), %rcx
	movq	-24(%rbp), %rdx
	subq	$1, %rdx
	shlq	$6, %rdx
	addq	%rdx, %rcx
	movq	%rax, 16(%rcx)
	movq	-8(%rbp), %rax
	movq	-16(%rbp), %rcx
	subq	$1, %rcx
	shlq	$6, %rcx
	addq	%rcx, %rax
	movq	(%rax), %rax
	movq	-8(%rbp), %rcx
	movq	-24(%rbp), %rdx
	subq	$1, %rdx
	shlq	$6, %rdx
	addq	%rdx, %rcx
	movq	%rax, (%rcx)
	movq	-8(%rbp), %rax
	movq	-16(%rbp), %rcx
	subq	$1, %rcx
	shlq	$6, %rcx
	addq	%rcx, %rax
	movq	(%rax), %rax
	movq	-8(%rbp), %rcx
	movq	-24(%rbp), %rdx
	subq	$1, %rdx
	shlq	$6, %rdx
	addq	%rdx, %rcx
	movq	%rax, 56(%rcx)
	movq	-8(%rbp), %rax
	movq	-16(%rbp), %rcx
	subq	$1, %rcx
	shlq	$6, %rcx
	addq	%rcx, %rax
	movq	48(%rax), %rax
	movq	-8(%rbp), %rcx
	movq	-24(%rbp), %rdx
	subq	$1, %rdx
	shlq	$6, %rdx
	addq	%rdx, %rcx
	movq	%rax, 48(%rcx)
	movq	-64(%rbp), %rax
	movq	-8(%rbp), %rcx
	movq	-16(%rbp), %rdx
	subq	$1, %rdx
	shlq	$6, %rdx
	addq	%rdx, %rcx
	movq	%rax, 8(%rcx)
	movq	-56(%rbp), %rax
	movq	-8(%rbp), %rcx
	movq	-16(%rbp), %rdx
	subq	$1, %rdx
	shlq	$6, %rdx
	addq	%rdx, %rcx
	movq	%rax, 16(%rcx)
	movq	-32(%rbp), %rax
	movq	-8(%rbp), %rcx
	movq	-16(%rbp), %rdx
	subq	$1, %rdx
	shlq	$6, %rdx
	addq	%rdx, %rcx
	movq	%rax, (%rcx)
	movq	-32(%rbp), %rax
	movq	-8(%rbp), %rcx
	movq	-16(%rbp), %rdx
	subq	$1, %rdx
	shlq	$6, %rdx
	addq	%rdx, %rcx
	movq	%rax, 56(%rcx)
	movq	-40(%rbp), %rax
	movq	-8(%rbp), %rcx
	movq	-16(%rbp), %rdx
	subq	$1, %rdx
	shlq	$6, %rdx
	addq	%rdx, %rcx
	movq	%rax, 48(%rcx)
	movq	-16(%rbp), %rax
	movq	%rax, -24(%rbp)
	movq	-16(%rbp), %rax
	shlq	$1, %rax
	movq	%rax, -16(%rbp)
	movq	-16(%rbp), %rax
	addq	$1, %rax
	movq	-72(%rbp), %rcx
	cmpq	448(%rcx), %rax
	jg	.LBB24_8
# %bb.5:                                # %if.then
                                        #   in Loop: Header=BB24_1 Depth=1
	movq	-8(%rbp), %rax
	movq	-16(%rbp), %rcx
	subq	$1, %rcx
	shlq	$6, %rcx
	addq	%rcx, %rax
	movq	48(%rax), %rax
	movq	-8(%rbp), %rcx
	movq	-16(%rbp), %rdx
	shlq	$6, %rdx
	addq	%rdx, %rcx
	cmpq	48(%rcx), %rax
	jge	.LBB24_7
# %bb.6:                                # %if.then74
                                        #   in Loop: Header=BB24_1 Depth=1
	movq	-16(%rbp), %rax
	addq	$1, %rax
	movq	%rax, -16(%rbp)
.LBB24_7:                               # %if.end
                                        #   in Loop: Header=BB24_1 Depth=1
	jmp	.LBB24_8
.LBB24_8:                               # %if.end75
                                        #   in Loop: Header=BB24_1 Depth=1
	jmp	.LBB24_1
.LBB24_9:                               # %while.end
	cmpl	$552030804, -44(%rbp)   # imm = 0x20E75254
	jne	.LBB24_11
.LBB24_10:
	addq	$80, %rsp
	popq	%rbp
	.cfi_def_cfa %rsp, 8
	retq
.LBB24_11:                              # %func_exit
	.cfi_def_cfa %rbp, 16
	callq	detect_breach
	jmp	.LBB24_10
.Lfunc_end24:
	.size	replace_weaker_arc.20, .Lfunc_end24-replace_weaker_arc.20
	.cfi_endproc
                                        # -- End function
	.globl	replace_weaker_arc.21   # -- Begin function replace_weaker_arc.21
	.p2align	4, 0x90
	.type	replace_weaker_arc.21,@function
replace_weaker_arc.21:                  # @replace_weaker_arc.21
	.cfi_startproc
# %bb.0:                                # %entry
	pushq	%rbp
	.cfi_def_cfa_offset 16
	.cfi_offset %rbp, -16
	movq	%rsp, %rbp
	.cfi_def_cfa_register %rbp
	subq	$80, %rsp
	movl	$1442851330, -44(%rbp)  # imm = 0x56002A02
	movq	%rdi, -72(%rbp)
	movq	%rsi, -8(%rbp)
	movq	%rdx, -56(%rbp)
	movq	%rcx, -64(%rbp)
	movq	%r8, -32(%rbp)
	movq	%r9, -40(%rbp)
	movq	-56(%rbp), %rax
	movq	-8(%rbp), %rcx
	movq	%rax, 8(%rcx)
	movq	-64(%rbp), %rax
	movq	-8(%rbp), %rcx
	movq	%rax, 16(%rcx)
	movq	-32(%rbp), %rax
	movq	-8(%rbp), %rcx
	movq	%rax, 56(%rcx)
	movq	-32(%rbp), %rax
	movq	-8(%rbp), %rcx
	movq	%rax, (%rcx)
	movq	-40(%rbp), %rax
	movq	-8(%rbp), %rcx
	movq	%rax, 48(%rcx)
	movq	$1, -24(%rbp)
	movq	-8(%rbp), %rax
	movq	112(%rax), %rax
	movq	-8(%rbp), %rcx
	movq	176(%rcx), %rcx
	cmpq	%rcx, %rax
	movl	$2, %eax
	movl	$3, %ecx
	cmovgl	%eax, %ecx
	movslq	%ecx, %rax
	movq	%rax, -16(%rbp)
.LBB25_1:                               # %while.cond
                                        # =>This Inner Loop Header: Depth=1
	xorl	%eax, %eax
	movq	-16(%rbp), %rcx
	movq	-72(%rbp), %rdx
	cmpq	448(%rdx), %rcx
	jg	.LBB25_3
# %bb.2:                                # %land.rhs
                                        #   in Loop: Header=BB25_1 Depth=1
	movq	-40(%rbp), %rax
	movq	-8(%rbp), %rcx
	movq	-16(%rbp), %rdx
	subq	$1, %rdx
	shlq	$6, %rdx
	addq	%rdx, %rcx
	cmpq	48(%rcx), %rax
	setl	%al
.LBB25_3:                               # %land.end
                                        #   in Loop: Header=BB25_1 Depth=1
	testb	$1, %al
	jne	.LBB25_4
	jmp	.LBB25_9
.LBB25_4:                               # %while.body
                                        #   in Loop: Header=BB25_1 Depth=1
	movq	-8(%rbp), %rax
	movq	-16(%rbp), %rcx
	subq	$1, %rcx
	shlq	$6, %rcx
	addq	%rcx, %rax
	movq	8(%rax), %rax
	movq	-8(%rbp), %rcx
	movq	-24(%rbp), %rdx
	subq	$1, %rdx
	shlq	$6, %rdx
	addq	%rdx, %rcx
	movq	%rax, 8(%rcx)
	movq	-8(%rbp), %rax
	movq	-16(%rbp), %rcx
	subq	$1, %rcx
	shlq	$6, %rcx
	addq	%rcx, %rax
	movq	16(%rax), %rax
	movq	-8(%rbp), %rcx
	movq	-24(%rbp), %rdx
	subq	$1, %rdx
	shlq	$6, %rdx
	addq	%rdx, %rcx
	movq	%rax, 16(%rcx)
	movq	-8(%rbp), %rax
	movq	-16(%rbp), %rcx
	subq	$1, %rcx
	shlq	$6, %rcx
	addq	%rcx, %rax
	movq	(%rax), %rax
	movq	-8(%rbp), %rcx
	movq	-24(%rbp), %rdx
	subq	$1, %rdx
	shlq	$6, %rdx
	addq	%rdx, %rcx
	movq	%rax, (%rcx)
	movq	-8(%rbp), %rax
	movq	-16(%rbp), %rcx
	subq	$1, %rcx
	shlq	$6, %rcx
	addq	%rcx, %rax
	movq	(%rax), %rax
	movq	-8(%rbp), %rcx
	movq	-24(%rbp), %rdx
	subq	$1, %rdx
	shlq	$6, %rdx
	addq	%rdx, %rcx
	movq	%rax, 56(%rcx)
	movq	-8(%rbp), %rax
	movq	-16(%rbp), %rcx
	subq	$1, %rcx
	shlq	$6, %rcx
	addq	%rcx, %rax
	movq	48(%rax), %rax
	movq	-8(%rbp), %rcx
	movq	-24(%rbp), %rdx
	subq	$1, %rdx
	shlq	$6, %rdx
	addq	%rdx, %rcx
	movq	%rax, 48(%rcx)
	movq	-56(%rbp), %rax
	movq	-8(%rbp), %rcx
	movq	-16(%rbp), %rdx
	subq	$1, %rdx
	shlq	$6, %rdx
	addq	%rdx, %rcx
	movq	%rax, 8(%rcx)
	movq	-64(%rbp), %rax
	movq	-8(%rbp), %rcx
	movq	-16(%rbp), %rdx
	subq	$1, %rdx
	shlq	$6, %rdx
	addq	%rdx, %rcx
	movq	%rax, 16(%rcx)
	movq	-32(%rbp), %rax
	movq	-8(%rbp), %rcx
	movq	-16(%rbp), %rdx
	subq	$1, %rdx
	shlq	$6, %rdx
	addq	%rdx, %rcx
	movq	%rax, (%rcx)
	movq	-32(%rbp), %rax
	movq	-8(%rbp), %rcx
	movq	-16(%rbp), %rdx
	subq	$1, %rdx
	shlq	$6, %rdx
	addq	%rdx, %rcx
	movq	%rax, 56(%rcx)
	movq	-40(%rbp), %rax
	movq	-8(%rbp), %rcx
	movq	-16(%rbp), %rdx
	subq	$1, %rdx
	shlq	$6, %rdx
	addq	%rdx, %rcx
	movq	%rax, 48(%rcx)
	movq	-16(%rbp), %rax
	movq	%rax, -24(%rbp)
	movq	-16(%rbp), %rax
	shlq	$1, %rax
	movq	%rax, -16(%rbp)
	movq	-16(%rbp), %rax
	addq	$1, %rax
	movq	-72(%rbp), %rcx
	cmpq	448(%rcx), %rax
	jg	.LBB25_8
# %bb.5:                                # %if.then
                                        #   in Loop: Header=BB25_1 Depth=1
	movq	-8(%rbp), %rax
	movq	-16(%rbp), %rcx
	subq	$1, %rcx
	shlq	$6, %rcx
	addq	%rcx, %rax
	movq	48(%rax), %rax
	movq	-8(%rbp), %rcx
	movq	-16(%rbp), %rdx
	shlq	$6, %rdx
	addq	%rdx, %rcx
	cmpq	48(%rcx), %rax
	jge	.LBB25_7
# %bb.6:                                # %if.then74
                                        #   in Loop: Header=BB25_1 Depth=1
	movq	-16(%rbp), %rax
	addq	$1, %rax
	movq	%rax, -16(%rbp)
.LBB25_7:                               # %if.end
                                        #   in Loop: Header=BB25_1 Depth=1
	jmp	.LBB25_8
.LBB25_8:                               # %if.end75
                                        #   in Loop: Header=BB25_1 Depth=1
	jmp	.LBB25_1
.LBB25_9:                               # %while.end
	cmpl	$1442851330, -44(%rbp)  # imm = 0x56002A02
	jne	.LBB25_11
.LBB25_10:
	addq	$80, %rsp
	popq	%rbp
	.cfi_def_cfa %rsp, 8
	retq
.LBB25_11:                              # %func_exit
	.cfi_def_cfa %rbp, 16
	callq	detect_breach
	jmp	.LBB25_10
.Lfunc_end25:
	.size	replace_weaker_arc.21, .Lfunc_end25-replace_weaker_arc.21
	.cfi_endproc
                                        # -- End function
	.globl	insert_new_arc.22       # -- Begin function insert_new_arc.22
	.p2align	4, 0x90
	.type	insert_new_arc.22,@function
insert_new_arc.22:                      # @insert_new_arc.22
	.cfi_startproc
# %bb.0:                                # %entry
	pushq	%rbp
	.cfi_def_cfa_offset 16
	.cfi_offset %rbp, -16
	movq	%rsp, %rbp
	.cfi_def_cfa_register %rbp
	subq	$64, %rsp
	movl	$1202348757, -44(%rbp)  # imm = 0x47AA62D5
	movq	%rdi, -8(%rbp)
	movq	%rsi, -24(%rbp)
	movq	%rdx, -56(%rbp)
	movq	%rcx, -64(%rbp)
	movq	%r8, -32(%rbp)
	movq	%r9, -40(%rbp)
	movq	-56(%rbp), %rax
	movq	-8(%rbp), %rcx
	movq	-24(%rbp), %rdx
	shlq	$6, %rdx
	addq	%rdx, %rcx
	movq	%rax, 8(%rcx)
	movq	-64(%rbp), %rax
	movq	-8(%rbp), %rcx
	movq	-24(%rbp), %rdx
	shlq	$6, %rdx
	addq	%rdx, %rcx
	movq	%rax, 16(%rcx)
	movq	-32(%rbp), %rax
	movq	-8(%rbp), %rcx
	movq	-24(%rbp), %rdx
	shlq	$6, %rdx
	addq	%rdx, %rcx
	movq	%rax, 56(%rcx)
	movq	-32(%rbp), %rax
	movq	-8(%rbp), %rcx
	movq	-24(%rbp), %rdx
	shlq	$6, %rdx
	addq	%rdx, %rcx
	movq	%rax, (%rcx)
	movq	-40(%rbp), %rax
	movq	-8(%rbp), %rcx
	movq	-24(%rbp), %rdx
	shlq	$6, %rdx
	addq	%rdx, %rcx
	movq	%rax, 48(%rcx)
	movq	-24(%rbp), %rax
	addq	$1, %rax
	movq	%rax, -16(%rbp)
.LBB26_1:                               # %while.cond
                                        # =>This Inner Loop Header: Depth=1
	xorl	%eax, %eax
	movq	-16(%rbp), %rcx
	subq	$1, %rcx
	cmpq	$0, %rcx
	je	.LBB26_3
# %bb.2:                                # %land.rhs
                                        #   in Loop: Header=BB26_1 Depth=1
	movq	-40(%rbp), %rcx
	movq	-8(%rbp), %rsi
	movq	-16(%rbp), %rax
	cqto
	movl	$2, %edi
	idivq	%rdi
	subq	$1, %rax
	shlq	$6, %rax
	addq	%rax, %rsi
	cmpq	48(%rsi), %rcx
	setg	%al
.LBB26_3:                               # %land.end
                                        #   in Loop: Header=BB26_1 Depth=1
	testb	$1, %al
	jne	.LBB26_4
	jmp	.LBB26_5
.LBB26_4:                               # %while.body
                                        #   in Loop: Header=BB26_1 Depth=1
	movq	-8(%rbp), %rsi
	movq	-16(%rbp), %rax
	cqto
	movl	$2, %ecx
	idivq	%rcx
	subq	$1, %rax
	shlq	$6, %rax
	addq	%rax, %rsi
	movq	8(%rsi), %rax
	movq	-8(%rbp), %rdx
	movq	-16(%rbp), %rsi
	subq	$1, %rsi
	shlq	$6, %rsi
	addq	%rsi, %rdx
	movq	%rax, 8(%rdx)
	movq	-8(%rbp), %rsi
	movq	-16(%rbp), %rax
	cqto
	idivq	%rcx
	subq	$1, %rax
	shlq	$6, %rax
	addq	%rax, %rsi
	movq	16(%rsi), %rax
	movq	-8(%rbp), %rdx
	movq	-16(%rbp), %rsi
	subq	$1, %rsi
	shlq	$6, %rsi
	addq	%rsi, %rdx
	movq	%rax, 16(%rdx)
	movq	-8(%rbp), %rsi
	movq	-16(%rbp), %rax
	cqto
	idivq	%rcx
	subq	$1, %rax
	shlq	$6, %rax
	addq	%rax, %rsi
	movq	(%rsi), %rax
	movq	-8(%rbp), %rdx
	movq	-16(%rbp), %rsi
	subq	$1, %rsi
	shlq	$6, %rsi
	addq	%rsi, %rdx
	movq	%rax, (%rdx)
	movq	-8(%rbp), %rsi
	movq	-16(%rbp), %rax
	cqto
	idivq	%rcx
	subq	$1, %rax
	shlq	$6, %rax
	addq	%rax, %rsi
	movq	(%rsi), %rax
	movq	-8(%rbp), %rdx
	movq	-16(%rbp), %rsi
	subq	$1, %rsi
	shlq	$6, %rsi
	addq	%rsi, %rdx
	movq	%rax, 56(%rdx)
	movq	-8(%rbp), %rsi
	movq	-16(%rbp), %rax
	cqto
	idivq	%rcx
	subq	$1, %rax
	shlq	$6, %rax
	addq	%rax, %rsi
	movq	48(%rsi), %rax
	movq	-8(%rbp), %rdx
	movq	-16(%rbp), %rsi
	subq	$1, %rsi
	shlq	$6, %rsi
	addq	%rsi, %rdx
	movq	%rax, 48(%rdx)
	movq	-16(%rbp), %rax
	cqto
	idivq	%rcx
	movq	%rax, -16(%rbp)
	movq	-56(%rbp), %rax
	movq	-8(%rbp), %rcx
	movq	-16(%rbp), %rdx
	subq	$1, %rdx
	shlq	$6, %rdx
	addq	%rdx, %rcx
	movq	%rax, 8(%rcx)
	movq	-64(%rbp), %rax
	movq	-8(%rbp), %rcx
	movq	-16(%rbp), %rdx
	subq	$1, %rdx
	shlq	$6, %rdx
	addq	%rdx, %rcx
	movq	%rax, 16(%rcx)
	movq	-32(%rbp), %rax
	movq	-8(%rbp), %rcx
	movq	-16(%rbp), %rdx
	subq	$1, %rdx
	shlq	$6, %rdx
	addq	%rdx, %rcx
	movq	%rax, (%rcx)
	movq	-32(%rbp), %rax
	movq	-8(%rbp), %rcx
	movq	-16(%rbp), %rdx
	subq	$1, %rdx
	shlq	$6, %rdx
	addq	%rdx, %rcx
	movq	%rax, 56(%rcx)
	movq	-40(%rbp), %rax
	movq	-8(%rbp), %rcx
	movq	-16(%rbp), %rdx
	subq	$1, %rdx
	shlq	$6, %rdx
	addq	%rdx, %rcx
	movq	%rax, 48(%rcx)
	jmp	.LBB26_1
.LBB26_5:                               # %while.end
	cmpl	$1202348757, -44(%rbp)  # imm = 0x47AA62D5
	jne	.LBB26_7
.LBB26_6:
	addq	$64, %rsp
	popq	%rbp
	.cfi_def_cfa %rsp, 8
	retq
.LBB26_7:                               # %func_exit
	.cfi_def_cfa %rbp, 16
	callq	detect_breach
	jmp	.LBB26_6
.Lfunc_end26:
	.size	insert_new_arc.22, .Lfunc_end26-insert_new_arc.22
	.cfi_endproc
                                        # -- End function
	.globl	price_out_impl.23       # -- Begin function price_out_impl.23
	.p2align	4, 0x90
	.type	price_out_impl.23,@function
price_out_impl.23:                      # @price_out_impl.23
	.cfi_startproc
# %bb.0:                                # %entry
	pushq	%rbp
	.cfi_def_cfa_offset 16
	.cfi_offset %rbp, -16
	movq	%rsp, %rbp
	.cfi_def_cfa_register %rbp
	pushq	%rbx
	subq	$168, %rsp
	.cfi_offset %rbx, -24
	movl	$971886415, -100(%rbp)  # imm = 0x39EDCF4F
	movq	%rdi, -16(%rbp)
	movq	$0, -40(%rbp)
	movq	$0, -120(%rbp)
	movq	$15, -168(%rbp)
	movq	-16(%rbp), %rax
	movq	528(%rax), %rax
	movq	%rax, -160(%rbp)
	movq	$30, -88(%rbp)
	movq	-160(%rbp), %rax
	subq	-168(%rbp), %rax
	movq	%rax, -152(%rbp)
	movq	-16(%rbp), %rax
	cmpq	$15000, 408(%rax)       # imm = 0x3A98
	jg	.LBB27_7
# %bb.1:                                # %if.then
	movq	-16(%rbp), %rax
	movq	424(%rax), %rax
	movq	-16(%rbp), %rcx
	addq	456(%rcx), %rax
	movq	-16(%rbp), %rcx
	cmpq	416(%rcx), %rax
	jle	.LBB27_6
# %bb.2:                                # %land.lhs.true
	movq	-16(%rbp), %rax
	movq	408(%rax), %rax
	movq	-16(%rbp), %rcx
	imulq	408(%rcx), %rax
	cqto
	movl	$2, %ecx
	idivq	%rcx
	movq	-16(%rbp), %rcx
	addq	424(%rcx), %rax
	movq	-16(%rbp), %rcx
	cmpq	416(%rcx), %rax
	jle	.LBB27_6
# %bb.3:                                # %if.then9
	movq	$1, -120(%rbp)
	movq	-16(%rbp), %rdi
	callq	resize_prob
	cmpq	$0, %rax
	je	.LBB27_5
# %bb.4:                                # %if.then10
	movq	$-1, -128(%rbp)
	jmp	.LBB27_48
.LBB27_5:                               # %if.end
	movq	-16(%rbp), %rdi
	callq	refresh_neighbour_lists
.LBB27_6:                               # %if.end11
	jmp	.LBB27_7
.LBB27_7:                               # %if.end12
	movq	-16(%rbp), %rax
	movq	576(%rax), %rax
	movq	%rax, -24(%rbp)
	movq	-16(%rbp), %rax
	movq	408(%rax), %rax
	movq	%rax, -136(%rbp)
	movq	-16(%rbp), %rax
	movq	568(%rax), %rax
	movq	%rax, -32(%rbp)
	movq	$0, -56(%rbp)
.LBB27_8:                               # %for.cond
                                        # =>This Inner Loop Header: Depth=1
	xorl	%eax, %eax
	movq	-56(%rbp), %rcx
	cmpq	-136(%rbp), %rcx
	jge	.LBB27_10
# %bb.9:                                # %land.rhs
                                        #   in Loop: Header=BB27_8 Depth=1
	movq	-32(%rbp), %rax
	cmpl	$-1, 88(%rax)
	sete	%al
.LBB27_10:                              # %land.end
                                        #   in Loop: Header=BB27_8 Depth=1
	testb	$1, %al
	jne	.LBB27_11
	jmp	.LBB27_13
.LBB27_11:                              # %for.body
                                        #   in Loop: Header=BB27_8 Depth=1
	jmp	.LBB27_12
.LBB27_12:                              # %for.inc
                                        #   in Loop: Header=BB27_8 Depth=1
	movq	-56(%rbp), %rax
	addq	$1, %rax
	movq	%rax, -56(%rbp)
	movq	-32(%rbp), %rax
	addq	$192, %rax
	movq	%rax, -32(%rbp)
	jmp	.LBB27_8
.LBB27_13:                              # %for.end
	movq	$0, -96(%rbp)
.LBB27_14:                              # %for.cond16
                                        # =>This Loop Header: Depth=1
                                        #     Child Loop BB27_20 Depth 2
	movq	-56(%rbp), %rax
	cmpq	-136(%rbp), %rax
	jge	.LBB27_34
# %bb.15:                               # %for.body18
                                        #   in Loop: Header=BB27_14 Depth=1
	movq	-32(%rbp), %rax
	cmpl	$-1, 88(%rax)
	je	.LBB27_17
# %bb.16:                               # %if.then22
                                        #   in Loop: Header=BB27_14 Depth=1
	movq	-96(%rbp), %rax
	movq	-32(%rbp), %rcx
	movq	16(%rcx), %rcx
	movq	56(%rcx), %rcx
	movq	16(%rcx), %rcx
	movq	%rax, 72(%rcx)
	movq	-32(%rbp), %rax
	addq	$64, %rax
	movq	%rax, -96(%rbp)
.LBB27_17:                              # %if.end26
                                        #   in Loop: Header=BB27_14 Depth=1
	movq	-32(%rbp), %rax
	cmpl	$-1, 24(%rax)
	jne	.LBB27_19
# %bb.18:                               # %if.then29
                                        #   in Loop: Header=BB27_14 Depth=1
	jmp	.LBB27_33
.LBB27_19:                              # %if.end30
                                        #   in Loop: Header=BB27_14 Depth=1
	movq	-32(%rbp), %rax
	movq	16(%rax), %rax
	movq	%rax, -72(%rbp)
	movq	-72(%rbp), %rax
	movslq	100(%rax), %rax
	movq	-32(%rbp), %rcx
	subq	56(%rcx), %rax
	addq	-152(%rbp), %rax
	movq	%rax, -144(%rbp)
	movq	-72(%rbp), %rax
	movq	(%rax), %rax
	movq	%rax, -176(%rbp)
	movq	-96(%rbp), %rax
	movq	8(%rax), %rax
	movq	72(%rax), %rax
	movq	%rax, -64(%rbp)
.LBB27_20:                              # %while.cond
                                        #   Parent Loop BB27_14 Depth=1
                                        # =>  This Inner Loop Header: Depth=2
	cmpq	$0, -64(%rbp)
	je	.LBB27_32
# %bb.21:                               # %while.body
                                        #   in Loop: Header=BB27_20 Depth=2
	movq	-64(%rbp), %rax
	movq	8(%rax), %rax
	movq	%rax, -48(%rbp)
	movq	-48(%rbp), %rax
	movslq	100(%rax), %rax
	movq	-64(%rbp), %rcx
	addq	56(%rcx), %rax
	cmpq	-144(%rbp), %rax
	jle	.LBB27_24
# %bb.22:                               # %if.then44
                                        #   in Loop: Header=BB27_20 Depth=2
	movq	-48(%rbp), %rax
	movq	72(%rax), %rax
	movq	%rax, -64(%rbp)
.LBB27_23:                              # %while.cond.backedge
                                        #   in Loop: Header=BB27_20 Depth=2
	jmp	.LBB27_20
.LBB27_24:                              # %if.end46
                                        #   in Loop: Header=BB27_20 Depth=2
	movq	-88(%rbp), %rax
	movq	-48(%rbp), %rcx
	subq	(%rcx), %rax
	movq	-72(%rbp), %rcx
	addq	(%rcx), %rax
	movq	%rax, -80(%rbp)
	cmpq	$0, -80(%rbp)
	jge	.LBB27_31
# %bb.25:                               # %if.then53
                                        #   in Loop: Header=BB27_20 Depth=2
	movq	-40(%rbp), %rax
	movq	-16(%rbp), %rcx
	cmpq	448(%rcx), %rax
	jge	.LBB27_27
# %bb.26:                               # %if.then56
                                        #   in Loop: Header=BB27_20 Depth=2
	movq	-24(%rbp), %rdi
	movq	-40(%rbp), %rsi
	movq	-48(%rbp), %rdx
	movq	-72(%rbp), %rcx
	movq	-88(%rbp), %r8
	movq	-80(%rbp), %r9
	callq	insert_new_arc
	movq	-40(%rbp), %rax
	addq	$1, %rax
	movq	%rax, -40(%rbp)
	jmp	.LBB27_30
.LBB27_27:                              # %if.else
                                        #   in Loop: Header=BB27_20 Depth=2
	movq	-24(%rbp), %rax
	movq	48(%rax), %rax
	cmpq	-80(%rbp), %rax
	jle	.LBB27_29
# %bb.28:                               # %if.then61
                                        #   in Loop: Header=BB27_20 Depth=2
	movq	-16(%rbp), %rdi
	movq	-24(%rbp), %rsi
	movq	-48(%rbp), %rdx
	movq	-72(%rbp), %rcx
	movq	-88(%rbp), %r8
	movq	-80(%rbp), %r9
	callq	replace_weaker_arc
.LBB27_29:                              # %if.end62
                                        #   in Loop: Header=BB27_20 Depth=2
	jmp	.LBB27_30
.LBB27_30:                              # %if.end63
                                        #   in Loop: Header=BB27_20 Depth=2
	jmp	.LBB27_31
.LBB27_31:                              # %if.end64
                                        #   in Loop: Header=BB27_20 Depth=2
	movq	-48(%rbp), %rax
	movq	72(%rax), %rax
	movq	%rax, -64(%rbp)
	jmp	.LBB27_23
.LBB27_32:                              # %while.end
                                        #   in Loop: Header=BB27_14 Depth=1
	jmp	.LBB27_33
.LBB27_33:                              # %for.inc66
                                        #   in Loop: Header=BB27_14 Depth=1
	movq	-56(%rbp), %rax
	addq	$1, %rax
	movq	%rax, -56(%rbp)
	movq	-32(%rbp), %rax
	addq	$192, %rax
	movq	%rax, -32(%rbp)
	jmp	.LBB27_14
.LBB27_34:                              # %for.end69
	cmpq	$0, -40(%rbp)
	je	.LBB27_47
# %bb.35:                               # %if.then71
	movq	-16(%rbp), %rax
	movq	576(%rax), %rax
	movq	%rax, -24(%rbp)
	movq	-40(%rbp), %rax
	movq	-16(%rbp), %rcx
	shlq	$6, %rax
	addq	576(%rcx), %rax
	movq	%rax, 576(%rcx)
	movq	-16(%rbp), %rax
	movq	576(%rax), %rax
	movq	%rax, -112(%rbp)
	cmpq	$0, -120(%rbp)
	je	.LBB27_41
# %bb.36:                               # %if.then77
	jmp	.LBB27_37
.LBB27_37:                              # %for.cond78
                                        # =>This Inner Loop Header: Depth=1
	movq	-24(%rbp), %rax
	cmpq	-112(%rbp), %rax
	je	.LBB27_40
# %bb.38:                               # %for.body81
                                        #   in Loop: Header=BB27_37 Depth=1
	movq	-24(%rbp), %rax
	movq	$0, 48(%rax)
	movq	-24(%rbp), %rax
	movl	$1, 24(%rax)
# %bb.39:                               # %for.inc84
                                        #   in Loop: Header=BB27_37 Depth=1
	movq	-24(%rbp), %rax
	addq	$64, %rax
	movq	%rax, -24(%rbp)
	jmp	.LBB27_37
.LBB27_40:                              # %for.end85
	jmp	.LBB27_46
.LBB27_41:                              # %if.else86
	jmp	.LBB27_42
.LBB27_42:                              # %for.cond87
                                        # =>This Inner Loop Header: Depth=1
	movq	-24(%rbp), %rax
	cmpq	-112(%rbp), %rax
	je	.LBB27_45
# %bb.43:                               # %for.body90
                                        #   in Loop: Header=BB27_42 Depth=1
	movq	-24(%rbp), %rax
	movq	$0, 48(%rax)
	movq	-24(%rbp), %rax
	movl	$1, 24(%rax)
	movq	-24(%rbp), %rax
	movq	8(%rax), %rax
	movq	56(%rax), %rax
	movq	-24(%rbp), %rcx
	movq	%rax, 32(%rcx)
	movq	-24(%rbp), %rax
	movq	-24(%rbp), %rcx
	movq	8(%rcx), %rcx
	movq	%rax, 56(%rcx)
	movq	-24(%rbp), %rax
	movq	16(%rax), %rax
	movq	64(%rax), %rax
	movq	-24(%rbp), %rcx
	movq	%rax, 40(%rcx)
	movq	-24(%rbp), %rax
	movq	-24(%rbp), %rcx
	movq	16(%rcx), %rcx
	movq	%rax, 64(%rcx)
# %bb.44:                               # %for.inc100
                                        #   in Loop: Header=BB27_42 Depth=1
	movq	-24(%rbp), %rax
	addq	$64, %rax
	movq	%rax, -24(%rbp)
	jmp	.LBB27_42
.LBB27_45:                              # %for.end102
	jmp	.LBB27_46
.LBB27_46:                              # %if.end103
	movq	-40(%rbp), %rax
	movq	-16(%rbp), %rcx
	addq	424(%rcx), %rax
	movq	%rax, 424(%rcx)
	movq	-40(%rbp), %rax
	movq	-16(%rbp), %rcx
	addq	440(%rcx), %rax
	movq	%rax, 440(%rcx)
	movq	-40(%rbp), %rax
	movq	-16(%rbp), %rcx
	movq	448(%rcx), %rdx
	subq	%rax, %rdx
	movq	%rdx, 448(%rcx)
.LBB27_47:                              # %if.end109
	movq	-40(%rbp), %rax
	movq	%rax, -128(%rbp)
.LBB27_48:                              # %return
	movq	-128(%rbp), %rbx
	cmpl	$971886415, -100(%rbp)  # imm = 0x39EDCF4F
	jne	.LBB27_50
.LBB27_49:
	movq	%rbx, %rax
	addq	$168, %rsp
	popq	%rbx
	popq	%rbp
	.cfi_def_cfa %rsp, 8
	retq
.LBB27_50:                              # %func_exit
	.cfi_def_cfa %rbp, 16
	callq	detect_breach
	jmp	.LBB27_49
.Lfunc_end27:
	.size	price_out_impl.23, .Lfunc_end27-price_out_impl.23
	.cfi_endproc
                                        # -- End function
	.globl	resize_prob.24          # -- Begin function resize_prob.24
	.p2align	4, 0x90
	.type	resize_prob.24,@function
resize_prob.24:                         # @resize_prob.24
	.cfi_startproc
# %bb.0:                                # %entry
	pushq	%rbp
	.cfi_def_cfa_offset 16
	.cfi_offset %rbp, -16
	movq	%rsp, %rbp
	.cfi_def_cfa_register %rbp
	pushq	%rbx
	subq	$72, %rsp
	.cfi_offset %rbx, -24
	movl	$1710236158, -36(%rbp)  # imm = 0x65F021FE
	movq	%rdi, -16(%rbp)
	movq	-16(%rbp), %rax
	movq	456(%rax), %rax
	movq	-16(%rbp), %rcx
	addq	416(%rcx), %rax
	movq	%rax, 416(%rcx)
	movq	-16(%rbp), %rax
	movq	456(%rax), %rax
	movq	-16(%rbp), %rcx
	addq	448(%rcx), %rax
	movq	%rax, 448(%rcx)
	movq	-16(%rbp), %rax
	movq	568(%rax), %rdi
	movq	-16(%rbp), %rax
	movq	416(%rax), %rsi
	shlq	$6, %rsi
	callq	realloc
	movq	%rax, -32(%rbp)
	cmpq	$0, -32(%rbp)
	jne	.LBB28_2
# %bb.1:                                # %if.then
	movq	-16(%rbp), %rsi
	movabsq	$.L.str, %rdi
	movb	$0, %al
	callq	printf
	movq	stdout, %rdi
	callq	fflush
	movq	$-1, -48(%rbp)
	jmp	.LBB28_9
.LBB28_2:                               # %if.end
	movq	-32(%rbp), %rax
	movq	-16(%rbp), %rcx
	movq	568(%rcx), %rcx
	subq	%rcx, %rax
	movq	%rax, -72(%rbp)
	movq	-32(%rbp), %rax
	movq	-16(%rbp), %rcx
	movq	%rax, 568(%rcx)
	movq	-32(%rbp), %rax
	movq	-16(%rbp), %rcx
	movq	424(%rcx), %rcx
	shlq	$6, %rcx
	addq	%rcx, %rax
	movq	-16(%rbp), %rcx
	movq	%rax, 576(%rcx)
	movq	-16(%rbp), %rax
	movq	552(%rax), %rax
	movq	%rax, -24(%rbp)
	movq	%rax, -56(%rbp)
	movq	-24(%rbp), %rax
	addq	$104, %rax
	movq	%rax, -24(%rbp)
	movq	-16(%rbp), %rax
	movq	560(%rax), %rax
	movq	%rax, -64(%rbp)
.LBB28_3:                               # %for.cond
                                        # =>This Inner Loop Header: Depth=1
	movq	-24(%rbp), %rax
	cmpq	-64(%rbp), %rax
	jae	.LBB28_8
# %bb.4:                                # %for.body
                                        #   in Loop: Header=BB28_3 Depth=1
	movq	-24(%rbp), %rax
	movq	24(%rax), %rax
	cmpq	-56(%rbp), %rax
	je	.LBB28_6
# %bb.5:                                # %if.then9
                                        #   in Loop: Header=BB28_3 Depth=1
	movq	-24(%rbp), %rax
	movq	48(%rax), %rax
	addq	-72(%rbp), %rax
	movq	-24(%rbp), %rcx
	movq	%rax, 48(%rcx)
.LBB28_6:                               # %if.end12
                                        #   in Loop: Header=BB28_3 Depth=1
	jmp	.LBB28_7
.LBB28_7:                               # %for.inc
                                        #   in Loop: Header=BB28_3 Depth=1
	movq	-24(%rbp), %rax
	addq	$104, %rax
	movq	%rax, -24(%rbp)
	jmp	.LBB28_3
.LBB28_8:                               # %for.end
	movq	$0, -48(%rbp)
.LBB28_9:                               # %return
	movq	-48(%rbp), %rbx
	cmpl	$1710236158, -36(%rbp)  # imm = 0x65F021FE
	jne	.LBB28_11
.LBB28_10:
	movq	%rbx, %rax
	addq	$72, %rsp
	popq	%rbx
	popq	%rbp
	.cfi_def_cfa %rsp, 8
	retq
.LBB28_11:                              # %func_exit
	.cfi_def_cfa %rbp, 16
	callq	detect_breach
	jmp	.LBB28_10
.Lfunc_end28:
	.size	resize_prob.24, .Lfunc_end28-resize_prob.24
	.cfi_endproc
                                        # -- End function
	.globl	replace_weaker_arc.25   # -- Begin function replace_weaker_arc.25
	.p2align	4, 0x90
	.type	replace_weaker_arc.25,@function
replace_weaker_arc.25:                  # @replace_weaker_arc.25
	.cfi_startproc
# %bb.0:                                # %entry
	pushq	%rbp
	.cfi_def_cfa_offset 16
	.cfi_offset %rbp, -16
	movq	%rsp, %rbp
	.cfi_def_cfa_register %rbp
	subq	$80, %rsp
	movl	$1298377589, -44(%rbp)  # imm = 0x4D63AB75
	movq	%rdi, -64(%rbp)
	movq	%rsi, -8(%rbp)
	movq	%rdx, -56(%rbp)
	movq	%rcx, -72(%rbp)
	movq	%r8, -32(%rbp)
	movq	%r9, -40(%rbp)
	movq	-56(%rbp), %rax
	movq	-8(%rbp), %rcx
	movq	%rax, 8(%rcx)
	movq	-72(%rbp), %rax
	movq	-8(%rbp), %rcx
	movq	%rax, 16(%rcx)
	movq	-32(%rbp), %rax
	movq	-8(%rbp), %rcx
	movq	%rax, 56(%rcx)
	movq	-32(%rbp), %rax
	movq	-8(%rbp), %rcx
	movq	%rax, (%rcx)
	movq	-40(%rbp), %rax
	movq	-8(%rbp), %rcx
	movq	%rax, 48(%rcx)
	movq	$1, -24(%rbp)
	movq	-8(%rbp), %rax
	movq	112(%rax), %rax
	movq	-8(%rbp), %rcx
	movq	176(%rcx), %rcx
	cmpq	%rcx, %rax
	movl	$2, %eax
	movl	$3, %ecx
	cmovgl	%eax, %ecx
	movslq	%ecx, %rax
	movq	%rax, -16(%rbp)
.LBB29_1:                               # %while.cond
                                        # =>This Inner Loop Header: Depth=1
	xorl	%eax, %eax
	movq	-16(%rbp), %rcx
	movq	-64(%rbp), %rdx
	cmpq	448(%rdx), %rcx
	jg	.LBB29_3
# %bb.2:                                # %land.rhs
                                        #   in Loop: Header=BB29_1 Depth=1
	movq	-40(%rbp), %rax
	movq	-8(%rbp), %rcx
	movq	-16(%rbp), %rdx
	subq	$1, %rdx
	shlq	$6, %rdx
	addq	%rdx, %rcx
	cmpq	48(%rcx), %rax
	setl	%al
.LBB29_3:                               # %land.end
                                        #   in Loop: Header=BB29_1 Depth=1
	testb	$1, %al
	jne	.LBB29_4
	jmp	.LBB29_9
.LBB29_4:                               # %while.body
                                        #   in Loop: Header=BB29_1 Depth=1
	movq	-8(%rbp), %rax
	movq	-16(%rbp), %rcx
	subq	$1, %rcx
	shlq	$6, %rcx
	addq	%rcx, %rax
	movq	8(%rax), %rax
	movq	-8(%rbp), %rcx
	movq	-24(%rbp), %rdx
	subq	$1, %rdx
	shlq	$6, %rdx
	addq	%rdx, %rcx
	movq	%rax, 8(%rcx)
	movq	-8(%rbp), %rax
	movq	-16(%rbp), %rcx
	subq	$1, %rcx
	shlq	$6, %rcx
	addq	%rcx, %rax
	movq	16(%rax), %rax
	movq	-8(%rbp), %rcx
	movq	-24(%rbp), %rdx
	subq	$1, %rdx
	shlq	$6, %rdx
	addq	%rdx, %rcx
	movq	%rax, 16(%rcx)
	movq	-8(%rbp), %rax
	movq	-16(%rbp), %rcx
	subq	$1, %rcx
	shlq	$6, %rcx
	addq	%rcx, %rax
	movq	(%rax), %rax
	movq	-8(%rbp), %rcx
	movq	-24(%rbp), %rdx
	subq	$1, %rdx
	shlq	$6, %rdx
	addq	%rdx, %rcx
	movq	%rax, (%rcx)
	movq	-8(%rbp), %rax
	movq	-16(%rbp), %rcx
	subq	$1, %rcx
	shlq	$6, %rcx
	addq	%rcx, %rax
	movq	(%rax), %rax
	movq	-8(%rbp), %rcx
	movq	-24(%rbp), %rdx
	subq	$1, %rdx
	shlq	$6, %rdx
	addq	%rdx, %rcx
	movq	%rax, 56(%rcx)
	movq	-8(%rbp), %rax
	movq	-16(%rbp), %rcx
	subq	$1, %rcx
	shlq	$6, %rcx
	addq	%rcx, %rax
	movq	48(%rax), %rax
	movq	-8(%rbp), %rcx
	movq	-24(%rbp), %rdx
	subq	$1, %rdx
	shlq	$6, %rdx
	addq	%rdx, %rcx
	movq	%rax, 48(%rcx)
	movq	-56(%rbp), %rax
	movq	-8(%rbp), %rcx
	movq	-16(%rbp), %rdx
	subq	$1, %rdx
	shlq	$6, %rdx
	addq	%rdx, %rcx
	movq	%rax, 8(%rcx)
	movq	-72(%rbp), %rax
	movq	-8(%rbp), %rcx
	movq	-16(%rbp), %rdx
	subq	$1, %rdx
	shlq	$6, %rdx
	addq	%rdx, %rcx
	movq	%rax, 16(%rcx)
	movq	-32(%rbp), %rax
	movq	-8(%rbp), %rcx
	movq	-16(%rbp), %rdx
	subq	$1, %rdx
	shlq	$6, %rdx
	addq	%rdx, %rcx
	movq	%rax, (%rcx)
	movq	-32(%rbp), %rax
	movq	-8(%rbp), %rcx
	movq	-16(%rbp), %rdx
	subq	$1, %rdx
	shlq	$6, %rdx
	addq	%rdx, %rcx
	movq	%rax, 56(%rcx)
	movq	-40(%rbp), %rax
	movq	-8(%rbp), %rcx
	movq	-16(%rbp), %rdx
	subq	$1, %rdx
	shlq	$6, %rdx
	addq	%rdx, %rcx
	movq	%rax, 48(%rcx)
	movq	-16(%rbp), %rax
	movq	%rax, -24(%rbp)
	movq	-16(%rbp), %rax
	shlq	$1, %rax
	movq	%rax, -16(%rbp)
	movq	-16(%rbp), %rax
	addq	$1, %rax
	movq	-64(%rbp), %rcx
	cmpq	448(%rcx), %rax
	jg	.LBB29_8
# %bb.5:                                # %if.then
                                        #   in Loop: Header=BB29_1 Depth=1
	movq	-8(%rbp), %rax
	movq	-16(%rbp), %rcx
	subq	$1, %rcx
	shlq	$6, %rcx
	addq	%rcx, %rax
	movq	48(%rax), %rax
	movq	-8(%rbp), %rcx
	movq	-16(%rbp), %rdx
	shlq	$6, %rdx
	addq	%rdx, %rcx
	cmpq	48(%rcx), %rax
	jge	.LBB29_7
# %bb.6:                                # %if.then74
                                        #   in Loop: Header=BB29_1 Depth=1
	movq	-16(%rbp), %rax
	addq	$1, %rax
	movq	%rax, -16(%rbp)
.LBB29_7:                               # %if.end
                                        #   in Loop: Header=BB29_1 Depth=1
	jmp	.LBB29_8
.LBB29_8:                               # %if.end75
                                        #   in Loop: Header=BB29_1 Depth=1
	jmp	.LBB29_1
.LBB29_9:                               # %while.end
	cmpl	$1298377589, -44(%rbp)  # imm = 0x4D63AB75
	jne	.LBB29_11
.LBB29_10:
	addq	$80, %rsp
	popq	%rbp
	.cfi_def_cfa %rsp, 8
	retq
.LBB29_11:                              # %func_exit
	.cfi_def_cfa %rbp, 16
	callq	detect_breach
	jmp	.LBB29_10
.Lfunc_end29:
	.size	replace_weaker_arc.25, .Lfunc_end29-replace_weaker_arc.25
	.cfi_endproc
                                        # -- End function
	.globl	resize_prob.26          # -- Begin function resize_prob.26
	.p2align	4, 0x90
	.type	resize_prob.26,@function
resize_prob.26:                         # @resize_prob.26
	.cfi_startproc
# %bb.0:                                # %entry
	pushq	%rbp
	.cfi_def_cfa_offset 16
	.cfi_offset %rbp, -16
	movq	%rsp, %rbp
	.cfi_def_cfa_register %rbp
	pushq	%rbx
	subq	$72, %rsp
	.cfi_offset %rbx, -24
	movl	$550633559, -36(%rbp)   # imm = 0x20D20057
	movq	%rdi, -16(%rbp)
	movq	-16(%rbp), %rax
	movq	456(%rax), %rax
	movq	-16(%rbp), %rcx
	addq	416(%rcx), %rax
	movq	%rax, 416(%rcx)
	movq	-16(%rbp), %rax
	movq	456(%rax), %rax
	movq	-16(%rbp), %rcx
	addq	448(%rcx), %rax
	movq	%rax, 448(%rcx)
	movq	-16(%rbp), %rax
	movq	568(%rax), %rdi
	movq	-16(%rbp), %rax
	movq	416(%rax), %rsi
	shlq	$6, %rsi
	callq	realloc
	movq	%rax, -32(%rbp)
	cmpq	$0, -32(%rbp)
	jne	.LBB30_2
# %bb.1:                                # %if.then
	movq	-16(%rbp), %rsi
	movabsq	$.L.str, %rdi
	movb	$0, %al
	callq	printf
	movq	stdout, %rdi
	callq	fflush
	movq	$-1, -48(%rbp)
	jmp	.LBB30_9
.LBB30_2:                               # %if.end
	movq	-32(%rbp), %rax
	movq	-16(%rbp), %rcx
	movq	568(%rcx), %rcx
	subq	%rcx, %rax
	movq	%rax, -64(%rbp)
	movq	-32(%rbp), %rax
	movq	-16(%rbp), %rcx
	movq	%rax, 568(%rcx)
	movq	-32(%rbp), %rax
	movq	-16(%rbp), %rcx
	movq	424(%rcx), %rcx
	shlq	$6, %rcx
	addq	%rcx, %rax
	movq	-16(%rbp), %rcx
	movq	%rax, 576(%rcx)
	movq	-16(%rbp), %rax
	movq	552(%rax), %rax
	movq	%rax, -24(%rbp)
	movq	%rax, -56(%rbp)
	movq	-24(%rbp), %rax
	addq	$104, %rax
	movq	%rax, -24(%rbp)
	movq	-16(%rbp), %rax
	movq	560(%rax), %rax
	movq	%rax, -72(%rbp)
.LBB30_3:                               # %for.cond
                                        # =>This Inner Loop Header: Depth=1
	movq	-24(%rbp), %rax
	cmpq	-72(%rbp), %rax
	jae	.LBB30_8
# %bb.4:                                # %for.body
                                        #   in Loop: Header=BB30_3 Depth=1
	movq	-24(%rbp), %rax
	movq	24(%rax), %rax
	cmpq	-56(%rbp), %rax
	je	.LBB30_6
# %bb.5:                                # %if.then9
                                        #   in Loop: Header=BB30_3 Depth=1
	movq	-24(%rbp), %rax
	movq	48(%rax), %rax
	addq	-64(%rbp), %rax
	movq	-24(%rbp), %rcx
	movq	%rax, 48(%rcx)
.LBB30_6:                               # %if.end12
                                        #   in Loop: Header=BB30_3 Depth=1
	jmp	.LBB30_7
.LBB30_7:                               # %for.inc
                                        #   in Loop: Header=BB30_3 Depth=1
	movq	-24(%rbp), %rax
	addq	$104, %rax
	movq	%rax, -24(%rbp)
	jmp	.LBB30_3
.LBB30_8:                               # %for.end
	movq	$0, -48(%rbp)
.LBB30_9:                               # %return
	movq	-48(%rbp), %rbx
	cmpl	$550633559, -36(%rbp)   # imm = 0x20D20057
	jne	.LBB30_11
.LBB30_10:
	movq	%rbx, %rax
	addq	$72, %rsp
	popq	%rbx
	popq	%rbp
	.cfi_def_cfa %rsp, 8
	retq
.LBB30_11:                              # %func_exit
	.cfi_def_cfa %rbp, 16
	callq	detect_breach
	jmp	.LBB30_10
.Lfunc_end30:
	.size	resize_prob.26, .Lfunc_end30-resize_prob.26
	.cfi_endproc
                                        # -- End function
	.globl	insert_new_arc.27       # -- Begin function insert_new_arc.27
	.p2align	4, 0x90
	.type	insert_new_arc.27,@function
insert_new_arc.27:                      # @insert_new_arc.27
	.cfi_startproc
# %bb.0:                                # %entry
	pushq	%rbp
	.cfi_def_cfa_offset 16
	.cfi_offset %rbp, -16
	movq	%rsp, %rbp
	.cfi_def_cfa_register %rbp
	subq	$64, %rsp
	movl	$1958081597, -44(%rbp)  # imm = 0x74B5F43D
	movq	%rdi, -8(%rbp)
	movq	%rsi, -24(%rbp)
	movq	%rdx, -64(%rbp)
	movq	%rcx, -56(%rbp)
	movq	%r8, -32(%rbp)
	movq	%r9, -40(%rbp)
	movq	-64(%rbp), %rax
	movq	-8(%rbp), %rcx
	movq	-24(%rbp), %rdx
	shlq	$6, %rdx
	addq	%rdx, %rcx
	movq	%rax, 8(%rcx)
	movq	-56(%rbp), %rax
	movq	-8(%rbp), %rcx
	movq	-24(%rbp), %rdx
	shlq	$6, %rdx
	addq	%rdx, %rcx
	movq	%rax, 16(%rcx)
	movq	-32(%rbp), %rax
	movq	-8(%rbp), %rcx
	movq	-24(%rbp), %rdx
	shlq	$6, %rdx
	addq	%rdx, %rcx
	movq	%rax, 56(%rcx)
	movq	-32(%rbp), %rax
	movq	-8(%rbp), %rcx
	movq	-24(%rbp), %rdx
	shlq	$6, %rdx
	addq	%rdx, %rcx
	movq	%rax, (%rcx)
	movq	-40(%rbp), %rax
	movq	-8(%rbp), %rcx
	movq	-24(%rbp), %rdx
	shlq	$6, %rdx
	addq	%rdx, %rcx
	movq	%rax, 48(%rcx)
	movq	-24(%rbp), %rax
	addq	$1, %rax
	movq	%rax, -16(%rbp)
.LBB31_1:                               # %while.cond
                                        # =>This Inner Loop Header: Depth=1
	xorl	%eax, %eax
	movq	-16(%rbp), %rcx
	subq	$1, %rcx
	cmpq	$0, %rcx
	je	.LBB31_3
# %bb.2:                                # %land.rhs
                                        #   in Loop: Header=BB31_1 Depth=1
	movq	-40(%rbp), %rcx
	movq	-8(%rbp), %rsi
	movq	-16(%rbp), %rax
	cqto
	movl	$2, %edi
	idivq	%rdi
	subq	$1, %rax
	shlq	$6, %rax
	addq	%rax, %rsi
	cmpq	48(%rsi), %rcx
	setg	%al
.LBB31_3:                               # %land.end
                                        #   in Loop: Header=BB31_1 Depth=1
	testb	$1, %al
	jne	.LBB31_4
	jmp	.LBB31_5
.LBB31_4:                               # %while.body
                                        #   in Loop: Header=BB31_1 Depth=1
	movq	-8(%rbp), %rsi
	movq	-16(%rbp), %rax
	cqto
	movl	$2, %ecx
	idivq	%rcx
	subq	$1, %rax
	shlq	$6, %rax
	addq	%rax, %rsi
	movq	8(%rsi), %rax
	movq	-8(%rbp), %rdx
	movq	-16(%rbp), %rsi
	subq	$1, %rsi
	shlq	$6, %rsi
	addq	%rsi, %rdx
	movq	%rax, 8(%rdx)
	movq	-8(%rbp), %rsi
	movq	-16(%rbp), %rax
	cqto
	idivq	%rcx
	subq	$1, %rax
	shlq	$6, %rax
	addq	%rax, %rsi
	movq	16(%rsi), %rax
	movq	-8(%rbp), %rdx
	movq	-16(%rbp), %rsi
	subq	$1, %rsi
	shlq	$6, %rsi
	addq	%rsi, %rdx
	movq	%rax, 16(%rdx)
	movq	-8(%rbp), %rsi
	movq	-16(%rbp), %rax
	cqto
	idivq	%rcx
	subq	$1, %rax
	shlq	$6, %rax
	addq	%rax, %rsi
	movq	(%rsi), %rax
	movq	-8(%rbp), %rdx
	movq	-16(%rbp), %rsi
	subq	$1, %rsi
	shlq	$6, %rsi
	addq	%rsi, %rdx
	movq	%rax, (%rdx)
	movq	-8(%rbp), %rsi
	movq	-16(%rbp), %rax
	cqto
	idivq	%rcx
	subq	$1, %rax
	shlq	$6, %rax
	addq	%rax, %rsi
	movq	(%rsi), %rax
	movq	-8(%rbp), %rdx
	movq	-16(%rbp), %rsi
	subq	$1, %rsi
	shlq	$6, %rsi
	addq	%rsi, %rdx
	movq	%rax, 56(%rdx)
	movq	-8(%rbp), %rsi
	movq	-16(%rbp), %rax
	cqto
	idivq	%rcx
	subq	$1, %rax
	shlq	$6, %rax
	addq	%rax, %rsi
	movq	48(%rsi), %rax
	movq	-8(%rbp), %rdx
	movq	-16(%rbp), %rsi
	subq	$1, %rsi
	shlq	$6, %rsi
	addq	%rsi, %rdx
	movq	%rax, 48(%rdx)
	movq	-16(%rbp), %rax
	cqto
	idivq	%rcx
	movq	%rax, -16(%rbp)
	movq	-64(%rbp), %rax
	movq	-8(%rbp), %rcx
	movq	-16(%rbp), %rdx
	subq	$1, %rdx
	shlq	$6, %rdx
	addq	%rdx, %rcx
	movq	%rax, 8(%rcx)
	movq	-56(%rbp), %rax
	movq	-8(%rbp), %rcx
	movq	-16(%rbp), %rdx
	subq	$1, %rdx
	shlq	$6, %rdx
	addq	%rdx, %rcx
	movq	%rax, 16(%rcx)
	movq	-32(%rbp), %rax
	movq	-8(%rbp), %rcx
	movq	-16(%rbp), %rdx
	subq	$1, %rdx
	shlq	$6, %rdx
	addq	%rdx, %rcx
	movq	%rax, (%rcx)
	movq	-32(%rbp), %rax
	movq	-8(%rbp), %rcx
	movq	-16(%rbp), %rdx
	subq	$1, %rdx
	shlq	$6, %rdx
	addq	%rdx, %rcx
	movq	%rax, 56(%rcx)
	movq	-40(%rbp), %rax
	movq	-8(%rbp), %rcx
	movq	-16(%rbp), %rdx
	subq	$1, %rdx
	shlq	$6, %rdx
	addq	%rdx, %rcx
	movq	%rax, 48(%rcx)
	jmp	.LBB31_1
.LBB31_5:                               # %while.end
	cmpl	$1958081597, -44(%rbp)  # imm = 0x74B5F43D
	jne	.LBB31_7
.LBB31_6:
	addq	$64, %rsp
	popq	%rbp
	.cfi_def_cfa %rsp, 8
	retq
.LBB31_7:                               # %func_exit
	.cfi_def_cfa %rbp, 16
	callq	detect_breach
	jmp	.LBB31_6
.Lfunc_end31:
	.size	insert_new_arc.27, .Lfunc_end31-insert_new_arc.27
	.cfi_endproc
                                        # -- End function
	.globl	replace_weaker_arc.28   # -- Begin function replace_weaker_arc.28
	.p2align	4, 0x90
	.type	replace_weaker_arc.28,@function
replace_weaker_arc.28:                  # @replace_weaker_arc.28
	.cfi_startproc
# %bb.0:                                # %entry
	pushq	%rbp
	.cfi_def_cfa_offset 16
	.cfi_offset %rbp, -16
	movq	%rsp, %rbp
	.cfi_def_cfa_register %rbp
	subq	$80, %rsp
	movl	$1282410745, -44(%rbp)  # imm = 0x4C7008F9
	movq	%rdi, -64(%rbp)
	movq	%rsi, -8(%rbp)
	movq	%rdx, -56(%rbp)
	movq	%rcx, -72(%rbp)
	movq	%r8, -32(%rbp)
	movq	%r9, -40(%rbp)
	movq	-56(%rbp), %rax
	movq	-8(%rbp), %rcx
	movq	%rax, 8(%rcx)
	movq	-72(%rbp), %rax
	movq	-8(%rbp), %rcx
	movq	%rax, 16(%rcx)
	movq	-32(%rbp), %rax
	movq	-8(%rbp), %rcx
	movq	%rax, 56(%rcx)
	movq	-32(%rbp), %rax
	movq	-8(%rbp), %rcx
	movq	%rax, (%rcx)
	movq	-40(%rbp), %rax
	movq	-8(%rbp), %rcx
	movq	%rax, 48(%rcx)
	movq	$1, -24(%rbp)
	movq	-8(%rbp), %rax
	movq	112(%rax), %rax
	movq	-8(%rbp), %rcx
	movq	176(%rcx), %rcx
	cmpq	%rcx, %rax
	movl	$2, %eax
	movl	$3, %ecx
	cmovgl	%eax, %ecx
	movslq	%ecx, %rax
	movq	%rax, -16(%rbp)
.LBB32_1:                               # %while.cond
                                        # =>This Inner Loop Header: Depth=1
	xorl	%eax, %eax
	movq	-16(%rbp), %rcx
	movq	-64(%rbp), %rdx
	cmpq	448(%rdx), %rcx
	jg	.LBB32_3
# %bb.2:                                # %land.rhs
                                        #   in Loop: Header=BB32_1 Depth=1
	movq	-40(%rbp), %rax
	movq	-8(%rbp), %rcx
	movq	-16(%rbp), %rdx
	subq	$1, %rdx
	shlq	$6, %rdx
	addq	%rdx, %rcx
	cmpq	48(%rcx), %rax
	setl	%al
.LBB32_3:                               # %land.end
                                        #   in Loop: Header=BB32_1 Depth=1
	testb	$1, %al
	jne	.LBB32_4
	jmp	.LBB32_9
.LBB32_4:                               # %while.body
                                        #   in Loop: Header=BB32_1 Depth=1
	movq	-8(%rbp), %rax
	movq	-16(%rbp), %rcx
	subq	$1, %rcx
	shlq	$6, %rcx
	addq	%rcx, %rax
	movq	8(%rax), %rax
	movq	-8(%rbp), %rcx
	movq	-24(%rbp), %rdx
	subq	$1, %rdx
	shlq	$6, %rdx
	addq	%rdx, %rcx
	movq	%rax, 8(%rcx)
	movq	-8(%rbp), %rax
	movq	-16(%rbp), %rcx
	subq	$1, %rcx
	shlq	$6, %rcx
	addq	%rcx, %rax
	movq	16(%rax), %rax
	movq	-8(%rbp), %rcx
	movq	-24(%rbp), %rdx
	subq	$1, %rdx
	shlq	$6, %rdx
	addq	%rdx, %rcx
	movq	%rax, 16(%rcx)
	movq	-8(%rbp), %rax
	movq	-16(%rbp), %rcx
	subq	$1, %rcx
	shlq	$6, %rcx
	addq	%rcx, %rax
	movq	(%rax), %rax
	movq	-8(%rbp), %rcx
	movq	-24(%rbp), %rdx
	subq	$1, %rdx
	shlq	$6, %rdx
	addq	%rdx, %rcx
	movq	%rax, (%rcx)
	movq	-8(%rbp), %rax
	movq	-16(%rbp), %rcx
	subq	$1, %rcx
	shlq	$6, %rcx
	addq	%rcx, %rax
	movq	(%rax), %rax
	movq	-8(%rbp), %rcx
	movq	-24(%rbp), %rdx
	subq	$1, %rdx
	shlq	$6, %rdx
	addq	%rdx, %rcx
	movq	%rax, 56(%rcx)
	movq	-8(%rbp), %rax
	movq	-16(%rbp), %rcx
	subq	$1, %rcx
	shlq	$6, %rcx
	addq	%rcx, %rax
	movq	48(%rax), %rax
	movq	-8(%rbp), %rcx
	movq	-24(%rbp), %rdx
	subq	$1, %rdx
	shlq	$6, %rdx
	addq	%rdx, %rcx
	movq	%rax, 48(%rcx)
	movq	-56(%rbp), %rax
	movq	-8(%rbp), %rcx
	movq	-16(%rbp), %rdx
	subq	$1, %rdx
	shlq	$6, %rdx
	addq	%rdx, %rcx
	movq	%rax, 8(%rcx)
	movq	-72(%rbp), %rax
	movq	-8(%rbp), %rcx
	movq	-16(%rbp), %rdx
	subq	$1, %rdx
	shlq	$6, %rdx
	addq	%rdx, %rcx
	movq	%rax, 16(%rcx)
	movq	-32(%rbp), %rax
	movq	-8(%rbp), %rcx
	movq	-16(%rbp), %rdx
	subq	$1, %rdx
	shlq	$6, %rdx
	addq	%rdx, %rcx
	movq	%rax, (%rcx)
	movq	-32(%rbp), %rax
	movq	-8(%rbp), %rcx
	movq	-16(%rbp), %rdx
	subq	$1, %rdx
	shlq	$6, %rdx
	addq	%rdx, %rcx
	movq	%rax, 56(%rcx)
	movq	-40(%rbp), %rax
	movq	-8(%rbp), %rcx
	movq	-16(%rbp), %rdx
	subq	$1, %rdx
	shlq	$6, %rdx
	addq	%rdx, %rcx
	movq	%rax, 48(%rcx)
	movq	-16(%rbp), %rax
	movq	%rax, -24(%rbp)
	movq	-16(%rbp), %rax
	shlq	$1, %rax
	movq	%rax, -16(%rbp)
	movq	-16(%rbp), %rax
	addq	$1, %rax
	movq	-64(%rbp), %rcx
	cmpq	448(%rcx), %rax
	jg	.LBB32_8
# %bb.5:                                # %if.then
                                        #   in Loop: Header=BB32_1 Depth=1
	movq	-8(%rbp), %rax
	movq	-16(%rbp), %rcx
	subq	$1, %rcx
	shlq	$6, %rcx
	addq	%rcx, %rax
	movq	48(%rax), %rax
	movq	-8(%rbp), %rcx
	movq	-16(%rbp), %rdx
	shlq	$6, %rdx
	addq	%rdx, %rcx
	cmpq	48(%rcx), %rax
	jge	.LBB32_7
# %bb.6:                                # %if.then74
                                        #   in Loop: Header=BB32_1 Depth=1
	movq	-16(%rbp), %rax
	addq	$1, %rax
	movq	%rax, -16(%rbp)
.LBB32_7:                               # %if.end
                                        #   in Loop: Header=BB32_1 Depth=1
	jmp	.LBB32_8
.LBB32_8:                               # %if.end75
                                        #   in Loop: Header=BB32_1 Depth=1
	jmp	.LBB32_1
.LBB32_9:                               # %while.end
	cmpl	$1282410745, -44(%rbp)  # imm = 0x4C7008F9
	jne	.LBB32_11
.LBB32_10:
	addq	$80, %rsp
	popq	%rbp
	.cfi_def_cfa %rsp, 8
	retq
.LBB32_11:                              # %func_exit
	.cfi_def_cfa %rbp, 16
	callq	detect_breach
	jmp	.LBB32_10
.Lfunc_end32:
	.size	replace_weaker_arc.28, .Lfunc_end32-replace_weaker_arc.28
	.cfi_endproc
                                        # -- End function
	.globl	insert_new_arc.29       # -- Begin function insert_new_arc.29
	.p2align	4, 0x90
	.type	insert_new_arc.29,@function
insert_new_arc.29:                      # @insert_new_arc.29
	.cfi_startproc
# %bb.0:                                # %entry
	pushq	%rbp
	.cfi_def_cfa_offset 16
	.cfi_offset %rbp, -16
	movq	%rsp, %rbp
	.cfi_def_cfa_register %rbp
	subq	$64, %rsp
	movl	$1859597902, -44(%rbp)  # imm = 0x6ED7364E
	movq	%rdi, -8(%rbp)
	movq	%rsi, -24(%rbp)
	movq	%rdx, -64(%rbp)
	movq	%rcx, -56(%rbp)
	movq	%r8, -32(%rbp)
	movq	%r9, -40(%rbp)
	movq	-64(%rbp), %rax
	movq	-8(%rbp), %rcx
	movq	-24(%rbp), %rdx
	shlq	$6, %rdx
	addq	%rdx, %rcx
	movq	%rax, 8(%rcx)
	movq	-56(%rbp), %rax
	movq	-8(%rbp), %rcx
	movq	-24(%rbp), %rdx
	shlq	$6, %rdx
	addq	%rdx, %rcx
	movq	%rax, 16(%rcx)
	movq	-32(%rbp), %rax
	movq	-8(%rbp), %rcx
	movq	-24(%rbp), %rdx
	shlq	$6, %rdx
	addq	%rdx, %rcx
	movq	%rax, 56(%rcx)
	movq	-32(%rbp), %rax
	movq	-8(%rbp), %rcx
	movq	-24(%rbp), %rdx
	shlq	$6, %rdx
	addq	%rdx, %rcx
	movq	%rax, (%rcx)
	movq	-40(%rbp), %rax
	movq	-8(%rbp), %rcx
	movq	-24(%rbp), %rdx
	shlq	$6, %rdx
	addq	%rdx, %rcx
	movq	%rax, 48(%rcx)
	movq	-24(%rbp), %rax
	addq	$1, %rax
	movq	%rax, -16(%rbp)
.LBB33_1:                               # %while.cond
                                        # =>This Inner Loop Header: Depth=1
	xorl	%eax, %eax
	movq	-16(%rbp), %rcx
	subq	$1, %rcx
	cmpq	$0, %rcx
	je	.LBB33_3
# %bb.2:                                # %land.rhs
                                        #   in Loop: Header=BB33_1 Depth=1
	movq	-40(%rbp), %rcx
	movq	-8(%rbp), %rsi
	movq	-16(%rbp), %rax
	cqto
	movl	$2, %edi
	idivq	%rdi
	subq	$1, %rax
	shlq	$6, %rax
	addq	%rax, %rsi
	cmpq	48(%rsi), %rcx
	setg	%al
.LBB33_3:                               # %land.end
                                        #   in Loop: Header=BB33_1 Depth=1
	testb	$1, %al
	jne	.LBB33_4
	jmp	.LBB33_5
.LBB33_4:                               # %while.body
                                        #   in Loop: Header=BB33_1 Depth=1
	movq	-8(%rbp), %rsi
	movq	-16(%rbp), %rax
	cqto
	movl	$2, %ecx
	idivq	%rcx
	subq	$1, %rax
	shlq	$6, %rax
	addq	%rax, %rsi
	movq	8(%rsi), %rax
	movq	-8(%rbp), %rdx
	movq	-16(%rbp), %rsi
	subq	$1, %rsi
	shlq	$6, %rsi
	addq	%rsi, %rdx
	movq	%rax, 8(%rdx)
	movq	-8(%rbp), %rsi
	movq	-16(%rbp), %rax
	cqto
	idivq	%rcx
	subq	$1, %rax
	shlq	$6, %rax
	addq	%rax, %rsi
	movq	16(%rsi), %rax
	movq	-8(%rbp), %rdx
	movq	-16(%rbp), %rsi
	subq	$1, %rsi
	shlq	$6, %rsi
	addq	%rsi, %rdx
	movq	%rax, 16(%rdx)
	movq	-8(%rbp), %rsi
	movq	-16(%rbp), %rax
	cqto
	idivq	%rcx
	subq	$1, %rax
	shlq	$6, %rax
	addq	%rax, %rsi
	movq	(%rsi), %rax
	movq	-8(%rbp), %rdx
	movq	-16(%rbp), %rsi
	subq	$1, %rsi
	shlq	$6, %rsi
	addq	%rsi, %rdx
	movq	%rax, (%rdx)
	movq	-8(%rbp), %rsi
	movq	-16(%rbp), %rax
	cqto
	idivq	%rcx
	subq	$1, %rax
	shlq	$6, %rax
	addq	%rax, %rsi
	movq	(%rsi), %rax
	movq	-8(%rbp), %rdx
	movq	-16(%rbp), %rsi
	subq	$1, %rsi
	shlq	$6, %rsi
	addq	%rsi, %rdx
	movq	%rax, 56(%rdx)
	movq	-8(%rbp), %rsi
	movq	-16(%rbp), %rax
	cqto
	idivq	%rcx
	subq	$1, %rax
	shlq	$6, %rax
	addq	%rax, %rsi
	movq	48(%rsi), %rax
	movq	-8(%rbp), %rdx
	movq	-16(%rbp), %rsi
	subq	$1, %rsi
	shlq	$6, %rsi
	addq	%rsi, %rdx
	movq	%rax, 48(%rdx)
	movq	-16(%rbp), %rax
	cqto
	idivq	%rcx
	movq	%rax, -16(%rbp)
	movq	-64(%rbp), %rax
	movq	-8(%rbp), %rcx
	movq	-16(%rbp), %rdx
	subq	$1, %rdx
	shlq	$6, %rdx
	addq	%rdx, %rcx
	movq	%rax, 8(%rcx)
	movq	-56(%rbp), %rax
	movq	-8(%rbp), %rcx
	movq	-16(%rbp), %rdx
	subq	$1, %rdx
	shlq	$6, %rdx
	addq	%rdx, %rcx
	movq	%rax, 16(%rcx)
	movq	-32(%rbp), %rax
	movq	-8(%rbp), %rcx
	movq	-16(%rbp), %rdx
	subq	$1, %rdx
	shlq	$6, %rdx
	addq	%rdx, %rcx
	movq	%rax, (%rcx)
	movq	-32(%rbp), %rax
	movq	-8(%rbp), %rcx
	movq	-16(%rbp), %rdx
	subq	$1, %rdx
	shlq	$6, %rdx
	addq	%rdx, %rcx
	movq	%rax, 56(%rcx)
	movq	-40(%rbp), %rax
	movq	-8(%rbp), %rcx
	movq	-16(%rbp), %rdx
	subq	$1, %rdx
	shlq	$6, %rdx
	addq	%rdx, %rcx
	movq	%rax, 48(%rcx)
	jmp	.LBB33_1
.LBB33_5:                               # %while.end
	cmpl	$1859597902, -44(%rbp)  # imm = 0x6ED7364E
	jne	.LBB33_7
.LBB33_6:
	addq	$64, %rsp
	popq	%rbp
	.cfi_def_cfa %rsp, 8
	retq
.LBB33_7:                               # %func_exit
	.cfi_def_cfa %rbp, 16
	callq	detect_breach
	jmp	.LBB33_6
.Lfunc_end33:
	.size	insert_new_arc.29, .Lfunc_end33-insert_new_arc.29
	.cfi_endproc
                                        # -- End function
	.globl	suspend_impl.30         # -- Begin function suspend_impl.30
	.p2align	4, 0x90
	.type	suspend_impl.30,@function
suspend_impl.30:                        # @suspend_impl.30
	.cfi_startproc
# %bb.0:                                # %entry
	pushq	%rbp
	.cfi_def_cfa_offset 16
	.cfi_offset %rbp, -16
	movq	%rsp, %rbp
	.cfi_def_cfa_register %rbp
	pushq	%rbx
	subq	$72, %rsp
	.cfi_offset %rbx, -24
	movl	$1520462901, -44(%rbp)  # imm = 0x5AA06C35
	movq	%rdi, -24(%rbp)
	movq	%rsi, -80(%rbp)
	movq	%rdx, -64(%rbp)
	cmpq	$0, -64(%rbp)
	je	.LBB34_2
# %bb.1:                                # %if.then
	movq	-24(%rbp), %rax
	movq	440(%rax), %rax
	movq	%rax, -32(%rbp)
	jmp	.LBB34_18
.LBB34_2:                               # %if.else
	movq	-24(%rbp), %rax
	movq	576(%rax), %rax
	movq	%rax, -72(%rbp)
	movq	-24(%rbp), %rax
	movq	568(%rax), %rax
	movq	-24(%rbp), %rcx
	movq	424(%rcx), %rcx
	movq	-24(%rbp), %rdx
	subq	440(%rdx), %rcx
	shlq	$6, %rcx
	addq	%rcx, %rax
	movq	%rax, -40(%rbp)
	movq	$0, -32(%rbp)
	movq	-40(%rbp), %rax
	movq	%rax, -16(%rbp)
.LBB34_3:                               # %for.cond
                                        # =>This Inner Loop Header: Depth=1
	movq	-16(%rbp), %rax
	movq	-72(%rbp), %rcx
	cmpq	%rcx, %rax
	jae	.LBB34_17
# %bb.4:                                # %for.body
                                        #   in Loop: Header=BB34_3 Depth=1
	movq	-16(%rbp), %rax
	cmpl	$1, 24(%rax)
	jne	.LBB34_6
# %bb.5:                                # %if.then3
                                        #   in Loop: Header=BB34_3 Depth=1
	movq	-16(%rbp), %rax
	movq	(%rax), %rax
	movq	-16(%rbp), %rcx
	movq	8(%rcx), %rcx
	subq	(%rcx), %rax
	movq	-16(%rbp), %rcx
	movq	16(%rcx), %rcx
	addq	(%rcx), %rax
	movq	%rax, -56(%rbp)
	jmp	.LBB34_12
.LBB34_6:                               # %if.else6
                                        #   in Loop: Header=BB34_3 Depth=1
	movq	$-2, -56(%rbp)
	movq	-16(%rbp), %rax
	cmpl	$0, 24(%rax)
	jne	.LBB34_11
# %bb.7:                                # %if.then9
                                        #   in Loop: Header=BB34_3 Depth=1
	movq	-16(%rbp), %rax
	movq	8(%rax), %rax
	movq	48(%rax), %rax
	cmpq	-16(%rbp), %rax
	jne	.LBB34_9
# %bb.8:                                # %if.then12
                                        #   in Loop: Header=BB34_3 Depth=1
	movq	-40(%rbp), %rax
	movq	-16(%rbp), %rcx
	movq	8(%rcx), %rcx
	movq	%rax, 48(%rcx)
	jmp	.LBB34_10
.LBB34_9:                               # %if.else15
                                        #   in Loop: Header=BB34_3 Depth=1
	movq	-40(%rbp), %rax
	movq	-16(%rbp), %rcx
	movq	16(%rcx), %rcx
	movq	%rax, 48(%rcx)
.LBB34_10:                              # %if.end
                                        #   in Loop: Header=BB34_3 Depth=1
	jmp	.LBB34_11
.LBB34_11:                              # %if.end18
                                        #   in Loop: Header=BB34_3 Depth=1
	jmp	.LBB34_12
.LBB34_12:                              # %if.end19
                                        #   in Loop: Header=BB34_3 Depth=1
	movq	-56(%rbp), %rax
	cmpq	-80(%rbp), %rax
	jle	.LBB34_14
# %bb.13:                               # %if.then21
                                        #   in Loop: Header=BB34_3 Depth=1
	movq	-32(%rbp), %rax
	addq	$1, %rax
	movq	%rax, -32(%rbp)
	jmp	.LBB34_15
.LBB34_14:                              # %if.else22
                                        #   in Loop: Header=BB34_3 Depth=1
	movq	-40(%rbp), %rdi
	movq	-16(%rbp), %rsi
	movl	$64, %edx
	callq	memcpy
	movq	-40(%rbp), %rax
	addq	$64, %rax
	movq	%rax, -40(%rbp)
.LBB34_15:                              # %if.end23
                                        #   in Loop: Header=BB34_3 Depth=1
	jmp	.LBB34_16
.LBB34_16:                              # %for.inc
                                        #   in Loop: Header=BB34_3 Depth=1
	movq	-16(%rbp), %rax
	addq	$64, %rax
	movq	%rax, -16(%rbp)
	jmp	.LBB34_3
.LBB34_17:                              # %for.end
	jmp	.LBB34_18
.LBB34_18:                              # %if.end25
	cmpq	$0, -32(%rbp)
	je	.LBB34_20
# %bb.19:                               # %if.then27
	xorl	%eax, %eax
	movq	-32(%rbp), %rcx
	movq	-24(%rbp), %rdx
	movq	424(%rdx), %rsi
	subq	%rcx, %rsi
	movq	%rsi, 424(%rdx)
	movq	-32(%rbp), %rcx
	movq	-24(%rbp), %rdx
	movq	440(%rdx), %rsi
	subq	%rcx, %rsi
	movq	%rsi, 440(%rdx)
	movq	-32(%rbp), %rcx
	movq	-24(%rbp), %rdx
	movq	576(%rdx), %rsi
	subq	%rcx, %rax
	shlq	$6, %rax
	addq	%rax, %rsi
	movq	%rsi, 576(%rdx)
	movq	-32(%rbp), %rax
	movq	-24(%rbp), %rcx
	addq	448(%rcx), %rax
	movq	%rax, 448(%rcx)
	movq	-24(%rbp), %rdi
	callq	refresh_neighbour_lists
.LBB34_20:                              # %if.end34
	movq	-32(%rbp), %rbx
	cmpl	$1520462901, -44(%rbp)  # imm = 0x5AA06C35
	jne	.LBB34_22
.LBB34_21:
	movq	%rbx, %rax
	addq	$72, %rsp
	popq	%rbx
	popq	%rbp
	.cfi_def_cfa %rsp, 8
	retq
.LBB34_22:                              # %func_exit
	.cfi_def_cfa %rbp, 16
	callq	detect_breach
	jmp	.LBB34_21
.Lfunc_end34:
	.size	suspend_impl.30, .Lfunc_end34-suspend_impl.30
	.cfi_endproc
                                        # -- End function
	.globl	price_out_impl.31       # -- Begin function price_out_impl.31
	.p2align	4, 0x90
	.type	price_out_impl.31,@function
price_out_impl.31:                      # @price_out_impl.31
	.cfi_startproc
# %bb.0:                                # %entry
	pushq	%rbp
	.cfi_def_cfa_offset 16
	.cfi_offset %rbp, -16
	movq	%rsp, %rbp
	.cfi_def_cfa_register %rbp
	pushq	%rbx
	subq	$168, %rsp
	.cfi_offset %rbx, -24
	movl	$2137726757, -100(%rbp) # imm = 0x7F6B1F25
	movq	%rdi, -16(%rbp)
	movq	$0, -40(%rbp)
	movq	$0, -112(%rbp)
	movq	$15, -152(%rbp)
	movq	-16(%rbp), %rax
	movq	528(%rax), %rax
	movq	%rax, -168(%rbp)
	movq	$30, -96(%rbp)
	movq	-168(%rbp), %rax
	subq	-152(%rbp), %rax
	movq	%rax, -160(%rbp)
	movq	-16(%rbp), %rax
	cmpq	$15000, 408(%rax)       # imm = 0x3A98
	jg	.LBB35_7
# %bb.1:                                # %if.then
	movq	-16(%rbp), %rax
	movq	424(%rax), %rax
	movq	-16(%rbp), %rcx
	addq	456(%rcx), %rax
	movq	-16(%rbp), %rcx
	cmpq	416(%rcx), %rax
	jle	.LBB35_6
# %bb.2:                                # %land.lhs.true
	movq	-16(%rbp), %rax
	movq	408(%rax), %rax
	movq	-16(%rbp), %rcx
	imulq	408(%rcx), %rax
	cqto
	movl	$2, %ecx
	idivq	%rcx
	movq	-16(%rbp), %rcx
	addq	424(%rcx), %rax
	movq	-16(%rbp), %rcx
	cmpq	416(%rcx), %rax
	jle	.LBB35_6
# %bb.3:                                # %if.then9
	movq	$1, -112(%rbp)
	movq	-16(%rbp), %rdi
	callq	resize_prob
	cmpq	$0, %rax
	je	.LBB35_5
# %bb.4:                                # %if.then10
	movq	$-1, -128(%rbp)
	jmp	.LBB35_48
.LBB35_5:                               # %if.end
	movq	-16(%rbp), %rdi
	callq	refresh_neighbour_lists
.LBB35_6:                               # %if.end11
	jmp	.LBB35_7
.LBB35_7:                               # %if.end12
	movq	-16(%rbp), %rax
	movq	576(%rax), %rax
	movq	%rax, -24(%rbp)
	movq	-16(%rbp), %rax
	movq	408(%rax), %rax
	movq	%rax, -136(%rbp)
	movq	-16(%rbp), %rax
	movq	568(%rax), %rax
	movq	%rax, -32(%rbp)
	movq	$0, -48(%rbp)
.LBB35_8:                               # %for.cond
                                        # =>This Inner Loop Header: Depth=1
	xorl	%eax, %eax
	movq	-48(%rbp), %rcx
	cmpq	-136(%rbp), %rcx
	jge	.LBB35_10
# %bb.9:                                # %land.rhs
                                        #   in Loop: Header=BB35_8 Depth=1
	movq	-32(%rbp), %rax
	cmpl	$-1, 88(%rax)
	sete	%al
.LBB35_10:                              # %land.end
                                        #   in Loop: Header=BB35_8 Depth=1
	testb	$1, %al
	jne	.LBB35_11
	jmp	.LBB35_13
.LBB35_11:                              # %for.body
                                        #   in Loop: Header=BB35_8 Depth=1
	jmp	.LBB35_12
.LBB35_12:                              # %for.inc
                                        #   in Loop: Header=BB35_8 Depth=1
	movq	-48(%rbp), %rax
	addq	$1, %rax
	movq	%rax, -48(%rbp)
	movq	-32(%rbp), %rax
	addq	$192, %rax
	movq	%rax, -32(%rbp)
	jmp	.LBB35_8
.LBB35_13:                              # %for.end
	movq	$0, -88(%rbp)
.LBB35_14:                              # %for.cond16
                                        # =>This Loop Header: Depth=1
                                        #     Child Loop BB35_20 Depth 2
	movq	-48(%rbp), %rax
	cmpq	-136(%rbp), %rax
	jge	.LBB35_34
# %bb.15:                               # %for.body18
                                        #   in Loop: Header=BB35_14 Depth=1
	movq	-32(%rbp), %rax
	cmpl	$-1, 88(%rax)
	je	.LBB35_17
# %bb.16:                               # %if.then22
                                        #   in Loop: Header=BB35_14 Depth=1
	movq	-88(%rbp), %rax
	movq	-32(%rbp), %rcx
	movq	16(%rcx), %rcx
	movq	56(%rcx), %rcx
	movq	16(%rcx), %rcx
	movq	%rax, 72(%rcx)
	movq	-32(%rbp), %rax
	addq	$64, %rax
	movq	%rax, -88(%rbp)
.LBB35_17:                              # %if.end26
                                        #   in Loop: Header=BB35_14 Depth=1
	movq	-32(%rbp), %rax
	cmpl	$-1, 24(%rax)
	jne	.LBB35_19
# %bb.18:                               # %if.then29
                                        #   in Loop: Header=BB35_14 Depth=1
	jmp	.LBB35_33
.LBB35_19:                              # %if.end30
                                        #   in Loop: Header=BB35_14 Depth=1
	movq	-32(%rbp), %rax
	movq	16(%rax), %rax
	movq	%rax, -72(%rbp)
	movq	-72(%rbp), %rax
	movslq	100(%rax), %rax
	movq	-32(%rbp), %rcx
	subq	56(%rcx), %rax
	addq	-160(%rbp), %rax
	movq	%rax, -144(%rbp)
	movq	-72(%rbp), %rax
	movq	(%rax), %rax
	movq	%rax, -176(%rbp)
	movq	-88(%rbp), %rax
	movq	8(%rax), %rax
	movq	72(%rax), %rax
	movq	%rax, -64(%rbp)
.LBB35_20:                              # %while.cond
                                        #   Parent Loop BB35_14 Depth=1
                                        # =>  This Inner Loop Header: Depth=2
	cmpq	$0, -64(%rbp)
	je	.LBB35_32
# %bb.21:                               # %while.body
                                        #   in Loop: Header=BB35_20 Depth=2
	movq	-64(%rbp), %rax
	movq	8(%rax), %rax
	movq	%rax, -56(%rbp)
	movq	-56(%rbp), %rax
	movslq	100(%rax), %rax
	movq	-64(%rbp), %rcx
	addq	56(%rcx), %rax
	cmpq	-144(%rbp), %rax
	jle	.LBB35_24
# %bb.22:                               # %if.then44
                                        #   in Loop: Header=BB35_20 Depth=2
	movq	-56(%rbp), %rax
	movq	72(%rax), %rax
	movq	%rax, -64(%rbp)
.LBB35_23:                              # %while.cond.backedge
                                        #   in Loop: Header=BB35_20 Depth=2
	jmp	.LBB35_20
.LBB35_24:                              # %if.end46
                                        #   in Loop: Header=BB35_20 Depth=2
	movq	-96(%rbp), %rax
	movq	-56(%rbp), %rcx
	subq	(%rcx), %rax
	movq	-72(%rbp), %rcx
	addq	(%rcx), %rax
	movq	%rax, -80(%rbp)
	cmpq	$0, -80(%rbp)
	jge	.LBB35_31
# %bb.25:                               # %if.then53
                                        #   in Loop: Header=BB35_20 Depth=2
	movq	-40(%rbp), %rax
	movq	-16(%rbp), %rcx
	cmpq	448(%rcx), %rax
	jge	.LBB35_27
# %bb.26:                               # %if.then56
                                        #   in Loop: Header=BB35_20 Depth=2
	movq	-24(%rbp), %rdi
	movq	-40(%rbp), %rsi
	movq	-56(%rbp), %rdx
	movq	-72(%rbp), %rcx
	movq	-96(%rbp), %r8
	movq	-80(%rbp), %r9
	callq	insert_new_arc
	movq	-40(%rbp), %rax
	addq	$1, %rax
	movq	%rax, -40(%rbp)
	jmp	.LBB35_30
.LBB35_27:                              # %if.else
                                        #   in Loop: Header=BB35_20 Depth=2
	movq	-24(%rbp), %rax
	movq	48(%rax), %rax
	cmpq	-80(%rbp), %rax
	jle	.LBB35_29
# %bb.28:                               # %if.then61
                                        #   in Loop: Header=BB35_20 Depth=2
	movq	-16(%rbp), %rdi
	movq	-24(%rbp), %rsi
	movq	-56(%rbp), %rdx
	movq	-72(%rbp), %rcx
	movq	-96(%rbp), %r8
	movq	-80(%rbp), %r9
	callq	replace_weaker_arc
.LBB35_29:                              # %if.end62
                                        #   in Loop: Header=BB35_20 Depth=2
	jmp	.LBB35_30
.LBB35_30:                              # %if.end63
                                        #   in Loop: Header=BB35_20 Depth=2
	jmp	.LBB35_31
.LBB35_31:                              # %if.end64
                                        #   in Loop: Header=BB35_20 Depth=2
	movq	-56(%rbp), %rax
	movq	72(%rax), %rax
	movq	%rax, -64(%rbp)
	jmp	.LBB35_23
.LBB35_32:                              # %while.end
                                        #   in Loop: Header=BB35_14 Depth=1
	jmp	.LBB35_33
.LBB35_33:                              # %for.inc66
                                        #   in Loop: Header=BB35_14 Depth=1
	movq	-48(%rbp), %rax
	addq	$1, %rax
	movq	%rax, -48(%rbp)
	movq	-32(%rbp), %rax
	addq	$192, %rax
	movq	%rax, -32(%rbp)
	jmp	.LBB35_14
.LBB35_34:                              # %for.end69
	cmpq	$0, -40(%rbp)
	je	.LBB35_47
# %bb.35:                               # %if.then71
	movq	-16(%rbp), %rax
	movq	576(%rax), %rax
	movq	%rax, -24(%rbp)
	movq	-40(%rbp), %rax
	movq	-16(%rbp), %rcx
	shlq	$6, %rax
	addq	576(%rcx), %rax
	movq	%rax, 576(%rcx)
	movq	-16(%rbp), %rax
	movq	576(%rax), %rax
	movq	%rax, -120(%rbp)
	cmpq	$0, -112(%rbp)
	je	.LBB35_41
# %bb.36:                               # %if.then77
	jmp	.LBB35_37
.LBB35_37:                              # %for.cond78
                                        # =>This Inner Loop Header: Depth=1
	movq	-24(%rbp), %rax
	cmpq	-120(%rbp), %rax
	je	.LBB35_40
# %bb.38:                               # %for.body81
                                        #   in Loop: Header=BB35_37 Depth=1
	movq	-24(%rbp), %rax
	movq	$0, 48(%rax)
	movq	-24(%rbp), %rax
	movl	$1, 24(%rax)
# %bb.39:                               # %for.inc84
                                        #   in Loop: Header=BB35_37 Depth=1
	movq	-24(%rbp), %rax
	addq	$64, %rax
	movq	%rax, -24(%rbp)
	jmp	.LBB35_37
.LBB35_40:                              # %for.end85
	jmp	.LBB35_46
.LBB35_41:                              # %if.else86
	jmp	.LBB35_42
.LBB35_42:                              # %for.cond87
                                        # =>This Inner Loop Header: Depth=1
	movq	-24(%rbp), %rax
	cmpq	-120(%rbp), %rax
	je	.LBB35_45
# %bb.43:                               # %for.body90
                                        #   in Loop: Header=BB35_42 Depth=1
	movq	-24(%rbp), %rax
	movq	$0, 48(%rax)
	movq	-24(%rbp), %rax
	movl	$1, 24(%rax)
	movq	-24(%rbp), %rax
	movq	8(%rax), %rax
	movq	56(%rax), %rax
	movq	-24(%rbp), %rcx
	movq	%rax, 32(%rcx)
	movq	-24(%rbp), %rax
	movq	-24(%rbp), %rcx
	movq	8(%rcx), %rcx
	movq	%rax, 56(%rcx)
	movq	-24(%rbp), %rax
	movq	16(%rax), %rax
	movq	64(%rax), %rax
	movq	-24(%rbp), %rcx
	movq	%rax, 40(%rcx)
	movq	-24(%rbp), %rax
	movq	-24(%rbp), %rcx
	movq	16(%rcx), %rcx
	movq	%rax, 64(%rcx)
# %bb.44:                               # %for.inc100
                                        #   in Loop: Header=BB35_42 Depth=1
	movq	-24(%rbp), %rax
	addq	$64, %rax
	movq	%rax, -24(%rbp)
	jmp	.LBB35_42
.LBB35_45:                              # %for.end102
	jmp	.LBB35_46
.LBB35_46:                              # %if.end103
	movq	-40(%rbp), %rax
	movq	-16(%rbp), %rcx
	addq	424(%rcx), %rax
	movq	%rax, 424(%rcx)
	movq	-40(%rbp), %rax
	movq	-16(%rbp), %rcx
	addq	440(%rcx), %rax
	movq	%rax, 440(%rcx)
	movq	-40(%rbp), %rax
	movq	-16(%rbp), %rcx
	movq	448(%rcx), %rdx
	subq	%rax, %rdx
	movq	%rdx, 448(%rcx)
.LBB35_47:                              # %if.end109
	movq	-40(%rbp), %rax
	movq	%rax, -128(%rbp)
.LBB35_48:                              # %return
	movq	-128(%rbp), %rbx
	cmpl	$2137726757, -100(%rbp) # imm = 0x7F6B1F25
	jne	.LBB35_50
.LBB35_49:
	movq	%rbx, %rax
	addq	$168, %rsp
	popq	%rbx
	popq	%rbp
	.cfi_def_cfa %rsp, 8
	retq
.LBB35_50:                              # %func_exit
	.cfi_def_cfa %rbp, 16
	callq	detect_breach
	jmp	.LBB35_49
.Lfunc_end35:
	.size	price_out_impl.31, .Lfunc_end35-price_out_impl.31
	.cfi_endproc
                                        # -- End function
	.globl	replace_weaker_arc.32   # -- Begin function replace_weaker_arc.32
	.p2align	4, 0x90
	.type	replace_weaker_arc.32,@function
replace_weaker_arc.32:                  # @replace_weaker_arc.32
	.cfi_startproc
# %bb.0:                                # %entry
	pushq	%rbp
	.cfi_def_cfa_offset 16
	.cfi_offset %rbp, -16
	movq	%rsp, %rbp
	.cfi_def_cfa_register %rbp
	subq	$80, %rsp
	movl	$1556230271, -44(%rbp)  # imm = 0x5CC2307F
	movq	%rdi, -72(%rbp)
	movq	%rsi, -8(%rbp)
	movq	%rdx, -64(%rbp)
	movq	%rcx, -56(%rbp)
	movq	%r8, -32(%rbp)
	movq	%r9, -40(%rbp)
	movq	-64(%rbp), %rax
	movq	-8(%rbp), %rcx
	movq	%rax, 8(%rcx)
	movq	-56(%rbp), %rax
	movq	-8(%rbp), %rcx
	movq	%rax, 16(%rcx)
	movq	-32(%rbp), %rax
	movq	-8(%rbp), %rcx
	movq	%rax, 56(%rcx)
	movq	-32(%rbp), %rax
	movq	-8(%rbp), %rcx
	movq	%rax, (%rcx)
	movq	-40(%rbp), %rax
	movq	-8(%rbp), %rcx
	movq	%rax, 48(%rcx)
	movq	$1, -24(%rbp)
	movq	-8(%rbp), %rax
	movq	112(%rax), %rax
	movq	-8(%rbp), %rcx
	movq	176(%rcx), %rcx
	cmpq	%rcx, %rax
	movl	$2, %eax
	movl	$3, %ecx
	cmovgl	%eax, %ecx
	movslq	%ecx, %rax
	movq	%rax, -16(%rbp)
.LBB36_1:                               # %while.cond
                                        # =>This Inner Loop Header: Depth=1
	xorl	%eax, %eax
	movq	-16(%rbp), %rcx
	movq	-72(%rbp), %rdx
	cmpq	448(%rdx), %rcx
	jg	.LBB36_3
# %bb.2:                                # %land.rhs
                                        #   in Loop: Header=BB36_1 Depth=1
	movq	-40(%rbp), %rax
	movq	-8(%rbp), %rcx
	movq	-16(%rbp), %rdx
	subq	$1, %rdx
	shlq	$6, %rdx
	addq	%rdx, %rcx
	cmpq	48(%rcx), %rax
	setl	%al
.LBB36_3:                               # %land.end
                                        #   in Loop: Header=BB36_1 Depth=1
	testb	$1, %al
	jne	.LBB36_4
	jmp	.LBB36_9
.LBB36_4:                               # %while.body
                                        #   in Loop: Header=BB36_1 Depth=1
	movq	-8(%rbp), %rax
	movq	-16(%rbp), %rcx
	subq	$1, %rcx
	shlq	$6, %rcx
	addq	%rcx, %rax
	movq	8(%rax), %rax
	movq	-8(%rbp), %rcx
	movq	-24(%rbp), %rdx
	subq	$1, %rdx
	shlq	$6, %rdx
	addq	%rdx, %rcx
	movq	%rax, 8(%rcx)
	movq	-8(%rbp), %rax
	movq	-16(%rbp), %rcx
	subq	$1, %rcx
	shlq	$6, %rcx
	addq	%rcx, %rax
	movq	16(%rax), %rax
	movq	-8(%rbp), %rcx
	movq	-24(%rbp), %rdx
	subq	$1, %rdx
	shlq	$6, %rdx
	addq	%rdx, %rcx
	movq	%rax, 16(%rcx)
	movq	-8(%rbp), %rax
	movq	-16(%rbp), %rcx
	subq	$1, %rcx
	shlq	$6, %rcx
	addq	%rcx, %rax
	movq	(%rax), %rax
	movq	-8(%rbp), %rcx
	movq	-24(%rbp), %rdx
	subq	$1, %rdx
	shlq	$6, %rdx
	addq	%rdx, %rcx
	movq	%rax, (%rcx)
	movq	-8(%rbp), %rax
	movq	-16(%rbp), %rcx
	subq	$1, %rcx
	shlq	$6, %rcx
	addq	%rcx, %rax
	movq	(%rax), %rax
	movq	-8(%rbp), %rcx
	movq	-24(%rbp), %rdx
	subq	$1, %rdx
	shlq	$6, %rdx
	addq	%rdx, %rcx
	movq	%rax, 56(%rcx)
	movq	-8(%rbp), %rax
	movq	-16(%rbp), %rcx
	subq	$1, %rcx
	shlq	$6, %rcx
	addq	%rcx, %rax
	movq	48(%rax), %rax
	movq	-8(%rbp), %rcx
	movq	-24(%rbp), %rdx
	subq	$1, %rdx
	shlq	$6, %rdx
	addq	%rdx, %rcx
	movq	%rax, 48(%rcx)
	movq	-64(%rbp), %rax
	movq	-8(%rbp), %rcx
	movq	-16(%rbp), %rdx
	subq	$1, %rdx
	shlq	$6, %rdx
	addq	%rdx, %rcx
	movq	%rax, 8(%rcx)
	movq	-56(%rbp), %rax
	movq	-8(%rbp), %rcx
	movq	-16(%rbp), %rdx
	subq	$1, %rdx
	shlq	$6, %rdx
	addq	%rdx, %rcx
	movq	%rax, 16(%rcx)
	movq	-32(%rbp), %rax
	movq	-8(%rbp), %rcx
	movq	-16(%rbp), %rdx
	subq	$1, %rdx
	shlq	$6, %rdx
	addq	%rdx, %rcx
	movq	%rax, (%rcx)
	movq	-32(%rbp), %rax
	movq	-8(%rbp), %rcx
	movq	-16(%rbp), %rdx
	subq	$1, %rdx
	shlq	$6, %rdx
	addq	%rdx, %rcx
	movq	%rax, 56(%rcx)
	movq	-40(%rbp), %rax
	movq	-8(%rbp), %rcx
	movq	-16(%rbp), %rdx
	subq	$1, %rdx
	shlq	$6, %rdx
	addq	%rdx, %rcx
	movq	%rax, 48(%rcx)
	movq	-16(%rbp), %rax
	movq	%rax, -24(%rbp)
	movq	-16(%rbp), %rax
	shlq	$1, %rax
	movq	%rax, -16(%rbp)
	movq	-16(%rbp), %rax
	addq	$1, %rax
	movq	-72(%rbp), %rcx
	cmpq	448(%rcx), %rax
	jg	.LBB36_8
# %bb.5:                                # %if.then
                                        #   in Loop: Header=BB36_1 Depth=1
	movq	-8(%rbp), %rax
	movq	-16(%rbp), %rcx
	subq	$1, %rcx
	shlq	$6, %rcx
	addq	%rcx, %rax
	movq	48(%rax), %rax
	movq	-8(%rbp), %rcx
	movq	-16(%rbp), %rdx
	shlq	$6, %rdx
	addq	%rdx, %rcx
	cmpq	48(%rcx), %rax
	jge	.LBB36_7
# %bb.6:                                # %if.then74
                                        #   in Loop: Header=BB36_1 Depth=1
	movq	-16(%rbp), %rax
	addq	$1, %rax
	movq	%rax, -16(%rbp)
.LBB36_7:                               # %if.end
                                        #   in Loop: Header=BB36_1 Depth=1
	jmp	.LBB36_8
.LBB36_8:                               # %if.end75
                                        #   in Loop: Header=BB36_1 Depth=1
	jmp	.LBB36_1
.LBB36_9:                               # %while.end
	cmpl	$1556230271, -44(%rbp)  # imm = 0x5CC2307F
	jne	.LBB36_11
.LBB36_10:
	addq	$80, %rsp
	popq	%rbp
	.cfi_def_cfa %rsp, 8
	retq
.LBB36_11:                              # %func_exit
	.cfi_def_cfa %rbp, 16
	callq	detect_breach
	jmp	.LBB36_10
.Lfunc_end36:
	.size	replace_weaker_arc.32, .Lfunc_end36-replace_weaker_arc.32
	.cfi_endproc
                                        # -- End function
	.globl	price_out_impl.33       # -- Begin function price_out_impl.33
	.p2align	4, 0x90
	.type	price_out_impl.33,@function
price_out_impl.33:                      # @price_out_impl.33
	.cfi_startproc
# %bb.0:                                # %entry
	pushq	%rbp
	.cfi_def_cfa_offset 16
	.cfi_offset %rbp, -16
	movq	%rsp, %rbp
	.cfi_def_cfa_register %rbp
	pushq	%rbx
	subq	$168, %rsp
	.cfi_offset %rbx, -24
	movl	$630844236, -100(%rbp)  # imm = 0x2599EB4C
	movq	%rdi, -16(%rbp)
	movq	$0, -40(%rbp)
	movq	$0, -120(%rbp)
	movq	$15, -144(%rbp)
	movq	-16(%rbp), %rax
	movq	528(%rax), %rax
	movq	%rax, -168(%rbp)
	movq	$30, -88(%rbp)
	movq	-168(%rbp), %rax
	subq	-144(%rbp), %rax
	movq	%rax, -152(%rbp)
	movq	-16(%rbp), %rax
	cmpq	$15000, 408(%rax)       # imm = 0x3A98
	jg	.LBB37_7
# %bb.1:                                # %if.then
	movq	-16(%rbp), %rax
	movq	424(%rax), %rax
	movq	-16(%rbp), %rcx
	addq	456(%rcx), %rax
	movq	-16(%rbp), %rcx
	cmpq	416(%rcx), %rax
	jle	.LBB37_6
# %bb.2:                                # %land.lhs.true
	movq	-16(%rbp), %rax
	movq	408(%rax), %rax
	movq	-16(%rbp), %rcx
	imulq	408(%rcx), %rax
	cqto
	movl	$2, %ecx
	idivq	%rcx
	movq	-16(%rbp), %rcx
	addq	424(%rcx), %rax
	movq	-16(%rbp), %rcx
	cmpq	416(%rcx), %rax
	jle	.LBB37_6
# %bb.3:                                # %if.then9
	movq	$1, -120(%rbp)
	movq	-16(%rbp), %rdi
	callq	resize_prob
	cmpq	$0, %rax
	je	.LBB37_5
# %bb.4:                                # %if.then10
	movq	$-1, -136(%rbp)
	jmp	.LBB37_48
.LBB37_5:                               # %if.end
	movq	-16(%rbp), %rdi
	callq	refresh_neighbour_lists
.LBB37_6:                               # %if.end11
	jmp	.LBB37_7
.LBB37_7:                               # %if.end12
	movq	-16(%rbp), %rax
	movq	576(%rax), %rax
	movq	%rax, -24(%rbp)
	movq	-16(%rbp), %rax
	movq	408(%rax), %rax
	movq	%rax, -112(%rbp)
	movq	-16(%rbp), %rax
	movq	568(%rax), %rax
	movq	%rax, -32(%rbp)
	movq	$0, -56(%rbp)
.LBB37_8:                               # %for.cond
                                        # =>This Inner Loop Header: Depth=1
	xorl	%eax, %eax
	movq	-56(%rbp), %rcx
	cmpq	-112(%rbp), %rcx
	jge	.LBB37_10
# %bb.9:                                # %land.rhs
                                        #   in Loop: Header=BB37_8 Depth=1
	movq	-32(%rbp), %rax
	cmpl	$-1, 88(%rax)
	sete	%al
.LBB37_10:                              # %land.end
                                        #   in Loop: Header=BB37_8 Depth=1
	testb	$1, %al
	jne	.LBB37_11
	jmp	.LBB37_13
.LBB37_11:                              # %for.body
                                        #   in Loop: Header=BB37_8 Depth=1
	jmp	.LBB37_12
.LBB37_12:                              # %for.inc
                                        #   in Loop: Header=BB37_8 Depth=1
	movq	-56(%rbp), %rax
	addq	$1, %rax
	movq	%rax, -56(%rbp)
	movq	-32(%rbp), %rax
	addq	$192, %rax
	movq	%rax, -32(%rbp)
	jmp	.LBB37_8
.LBB37_13:                              # %for.end
	movq	$0, -96(%rbp)
.LBB37_14:                              # %for.cond16
                                        # =>This Loop Header: Depth=1
                                        #     Child Loop BB37_20 Depth 2
	movq	-56(%rbp), %rax
	cmpq	-112(%rbp), %rax
	jge	.LBB37_34
# %bb.15:                               # %for.body18
                                        #   in Loop: Header=BB37_14 Depth=1
	movq	-32(%rbp), %rax
	cmpl	$-1, 88(%rax)
	je	.LBB37_17
# %bb.16:                               # %if.then22
                                        #   in Loop: Header=BB37_14 Depth=1
	movq	-96(%rbp), %rax
	movq	-32(%rbp), %rcx
	movq	16(%rcx), %rcx
	movq	56(%rcx), %rcx
	movq	16(%rcx), %rcx
	movq	%rax, 72(%rcx)
	movq	-32(%rbp), %rax
	addq	$64, %rax
	movq	%rax, -96(%rbp)
.LBB37_17:                              # %if.end26
                                        #   in Loop: Header=BB37_14 Depth=1
	movq	-32(%rbp), %rax
	cmpl	$-1, 24(%rax)
	jne	.LBB37_19
# %bb.18:                               # %if.then29
                                        #   in Loop: Header=BB37_14 Depth=1
	jmp	.LBB37_33
.LBB37_19:                              # %if.end30
                                        #   in Loop: Header=BB37_14 Depth=1
	movq	-32(%rbp), %rax
	movq	16(%rax), %rax
	movq	%rax, -64(%rbp)
	movq	-64(%rbp), %rax
	movslq	100(%rax), %rax
	movq	-32(%rbp), %rcx
	subq	56(%rcx), %rax
	addq	-152(%rbp), %rax
	movq	%rax, -160(%rbp)
	movq	-64(%rbp), %rax
	movq	(%rax), %rax
	movq	%rax, -176(%rbp)
	movq	-96(%rbp), %rax
	movq	8(%rax), %rax
	movq	72(%rax), %rax
	movq	%rax, -72(%rbp)
.LBB37_20:                              # %while.cond
                                        #   Parent Loop BB37_14 Depth=1
                                        # =>  This Inner Loop Header: Depth=2
	cmpq	$0, -72(%rbp)
	je	.LBB37_32
# %bb.21:                               # %while.body
                                        #   in Loop: Header=BB37_20 Depth=2
	movq	-72(%rbp), %rax
	movq	8(%rax), %rax
	movq	%rax, -48(%rbp)
	movq	-48(%rbp), %rax
	movslq	100(%rax), %rax
	movq	-72(%rbp), %rcx
	addq	56(%rcx), %rax
	cmpq	-160(%rbp), %rax
	jle	.LBB37_24
# %bb.22:                               # %if.then44
                                        #   in Loop: Header=BB37_20 Depth=2
	movq	-48(%rbp), %rax
	movq	72(%rax), %rax
	movq	%rax, -72(%rbp)
.LBB37_23:                              # %while.cond.backedge
                                        #   in Loop: Header=BB37_20 Depth=2
	jmp	.LBB37_20
.LBB37_24:                              # %if.end46
                                        #   in Loop: Header=BB37_20 Depth=2
	movq	-88(%rbp), %rax
	movq	-48(%rbp), %rcx
	subq	(%rcx), %rax
	movq	-64(%rbp), %rcx
	addq	(%rcx), %rax
	movq	%rax, -80(%rbp)
	cmpq	$0, -80(%rbp)
	jge	.LBB37_31
# %bb.25:                               # %if.then53
                                        #   in Loop: Header=BB37_20 Depth=2
	movq	-40(%rbp), %rax
	movq	-16(%rbp), %rcx
	cmpq	448(%rcx), %rax
	jge	.LBB37_27
# %bb.26:                               # %if.then56
                                        #   in Loop: Header=BB37_20 Depth=2
	movq	-24(%rbp), %rdi
	movq	-40(%rbp), %rsi
	movq	-48(%rbp), %rdx
	movq	-64(%rbp), %rcx
	movq	-88(%rbp), %r8
	movq	-80(%rbp), %r9
	callq	insert_new_arc
	movq	-40(%rbp), %rax
	addq	$1, %rax
	movq	%rax, -40(%rbp)
	jmp	.LBB37_30
.LBB37_27:                              # %if.else
                                        #   in Loop: Header=BB37_20 Depth=2
	movq	-24(%rbp), %rax
	movq	48(%rax), %rax
	cmpq	-80(%rbp), %rax
	jle	.LBB37_29
# %bb.28:                               # %if.then61
                                        #   in Loop: Header=BB37_20 Depth=2
	movq	-16(%rbp), %rdi
	movq	-24(%rbp), %rsi
	movq	-48(%rbp), %rdx
	movq	-64(%rbp), %rcx
	movq	-88(%rbp), %r8
	movq	-80(%rbp), %r9
	callq	replace_weaker_arc
.LBB37_29:                              # %if.end62
                                        #   in Loop: Header=BB37_20 Depth=2
	jmp	.LBB37_30
.LBB37_30:                              # %if.end63
                                        #   in Loop: Header=BB37_20 Depth=2
	jmp	.LBB37_31
.LBB37_31:                              # %if.end64
                                        #   in Loop: Header=BB37_20 Depth=2
	movq	-48(%rbp), %rax
	movq	72(%rax), %rax
	movq	%rax, -72(%rbp)
	jmp	.LBB37_23
.LBB37_32:                              # %while.end
                                        #   in Loop: Header=BB37_14 Depth=1
	jmp	.LBB37_33
.LBB37_33:                              # %for.inc66
                                        #   in Loop: Header=BB37_14 Depth=1
	movq	-56(%rbp), %rax
	addq	$1, %rax
	movq	%rax, -56(%rbp)
	movq	-32(%rbp), %rax
	addq	$192, %rax
	movq	%rax, -32(%rbp)
	jmp	.LBB37_14
.LBB37_34:                              # %for.end69
	cmpq	$0, -40(%rbp)
	je	.LBB37_47
# %bb.35:                               # %if.then71
	movq	-16(%rbp), %rax
	movq	576(%rax), %rax
	movq	%rax, -24(%rbp)
	movq	-40(%rbp), %rax
	movq	-16(%rbp), %rcx
	shlq	$6, %rax
	addq	576(%rcx), %rax
	movq	%rax, 576(%rcx)
	movq	-16(%rbp), %rax
	movq	576(%rax), %rax
	movq	%rax, -128(%rbp)
	cmpq	$0, -120(%rbp)
	je	.LBB37_41
# %bb.36:                               # %if.then77
	jmp	.LBB37_37
.LBB37_37:                              # %for.cond78
                                        # =>This Inner Loop Header: Depth=1
	movq	-24(%rbp), %rax
	cmpq	-128(%rbp), %rax
	je	.LBB37_40
# %bb.38:                               # %for.body81
                                        #   in Loop: Header=BB37_37 Depth=1
	movq	-24(%rbp), %rax
	movq	$0, 48(%rax)
	movq	-24(%rbp), %rax
	movl	$1, 24(%rax)
# %bb.39:                               # %for.inc84
                                        #   in Loop: Header=BB37_37 Depth=1
	movq	-24(%rbp), %rax
	addq	$64, %rax
	movq	%rax, -24(%rbp)
	jmp	.LBB37_37
.LBB37_40:                              # %for.end85
	jmp	.LBB37_46
.LBB37_41:                              # %if.else86
	jmp	.LBB37_42
.LBB37_42:                              # %for.cond87
                                        # =>This Inner Loop Header: Depth=1
	movq	-24(%rbp), %rax
	cmpq	-128(%rbp), %rax
	je	.LBB37_45
# %bb.43:                               # %for.body90
                                        #   in Loop: Header=BB37_42 Depth=1
	movq	-24(%rbp), %rax
	movq	$0, 48(%rax)
	movq	-24(%rbp), %rax
	movl	$1, 24(%rax)
	movq	-24(%rbp), %rax
	movq	8(%rax), %rax
	movq	56(%rax), %rax
	movq	-24(%rbp), %rcx
	movq	%rax, 32(%rcx)
	movq	-24(%rbp), %rax
	movq	-24(%rbp), %rcx
	movq	8(%rcx), %rcx
	movq	%rax, 56(%rcx)
	movq	-24(%rbp), %rax
	movq	16(%rax), %rax
	movq	64(%rax), %rax
	movq	-24(%rbp), %rcx
	movq	%rax, 40(%rcx)
	movq	-24(%rbp), %rax
	movq	-24(%rbp), %rcx
	movq	16(%rcx), %rcx
	movq	%rax, 64(%rcx)
# %bb.44:                               # %for.inc100
                                        #   in Loop: Header=BB37_42 Depth=1
	movq	-24(%rbp), %rax
	addq	$64, %rax
	movq	%rax, -24(%rbp)
	jmp	.LBB37_42
.LBB37_45:                              # %for.end102
	jmp	.LBB37_46
.LBB37_46:                              # %if.end103
	movq	-40(%rbp), %rax
	movq	-16(%rbp), %rcx
	addq	424(%rcx), %rax
	movq	%rax, 424(%rcx)
	movq	-40(%rbp), %rax
	movq	-16(%rbp), %rcx
	addq	440(%rcx), %rax
	movq	%rax, 440(%rcx)
	movq	-40(%rbp), %rax
	movq	-16(%rbp), %rcx
	movq	448(%rcx), %rdx
	subq	%rax, %rdx
	movq	%rdx, 448(%rcx)
.LBB37_47:                              # %if.end109
	movq	-40(%rbp), %rax
	movq	%rax, -136(%rbp)
.LBB37_48:                              # %return
	movq	-136(%rbp), %rbx
	cmpl	$630844236, -100(%rbp)  # imm = 0x2599EB4C
	jne	.LBB37_50
.LBB37_49:
	movq	%rbx, %rax
	addq	$168, %rsp
	popq	%rbx
	popq	%rbp
	.cfi_def_cfa %rsp, 8
	retq
.LBB37_50:                              # %func_exit
	.cfi_def_cfa %rbp, 16
	callq	detect_breach
	jmp	.LBB37_49
.Lfunc_end37:
	.size	price_out_impl.33, .Lfunc_end37-price_out_impl.33
	.cfi_endproc
                                        # -- End function
	.globl	resize_prob.34          # -- Begin function resize_prob.34
	.p2align	4, 0x90
	.type	resize_prob.34,@function
resize_prob.34:                         # @resize_prob.34
	.cfi_startproc
# %bb.0:                                # %entry
	pushq	%rbp
	.cfi_def_cfa_offset 16
	.cfi_offset %rbp, -16
	movq	%rsp, %rbp
	.cfi_def_cfa_register %rbp
	pushq	%rbx
	subq	$72, %rsp
	.cfi_offset %rbx, -24
	movl	$1766860401, -36(%rbp)  # imm = 0x69502671
	movq	%rdi, -16(%rbp)
	movq	-16(%rbp), %rax
	movq	456(%rax), %rax
	movq	-16(%rbp), %rcx
	addq	416(%rcx), %rax
	movq	%rax, 416(%rcx)
	movq	-16(%rbp), %rax
	movq	456(%rax), %rax
	movq	-16(%rbp), %rcx
	addq	448(%rcx), %rax
	movq	%rax, 448(%rcx)
	movq	-16(%rbp), %rax
	movq	568(%rax), %rdi
	movq	-16(%rbp), %rax
	movq	416(%rax), %rsi
	shlq	$6, %rsi
	callq	realloc
	movq	%rax, -32(%rbp)
	cmpq	$0, -32(%rbp)
	jne	.LBB38_2
# %bb.1:                                # %if.then
	movq	-16(%rbp), %rsi
	movabsq	$.L.str, %rdi
	movb	$0, %al
	callq	printf
	movq	stdout, %rdi
	callq	fflush
	movq	$-1, -48(%rbp)
	jmp	.LBB38_9
.LBB38_2:                               # %if.end
	movq	-32(%rbp), %rax
	movq	-16(%rbp), %rcx
	movq	568(%rcx), %rcx
	subq	%rcx, %rax
	movq	%rax, -56(%rbp)
	movq	-32(%rbp), %rax
	movq	-16(%rbp), %rcx
	movq	%rax, 568(%rcx)
	movq	-32(%rbp), %rax
	movq	-16(%rbp), %rcx
	movq	424(%rcx), %rcx
	shlq	$6, %rcx
	addq	%rcx, %rax
	movq	-16(%rbp), %rcx
	movq	%rax, 576(%rcx)
	movq	-16(%rbp), %rax
	movq	552(%rax), %rax
	movq	%rax, -24(%rbp)
	movq	%rax, -72(%rbp)
	movq	-24(%rbp), %rax
	addq	$104, %rax
	movq	%rax, -24(%rbp)
	movq	-16(%rbp), %rax
	movq	560(%rax), %rax
	movq	%rax, -64(%rbp)
.LBB38_3:                               # %for.cond
                                        # =>This Inner Loop Header: Depth=1
	movq	-24(%rbp), %rax
	cmpq	-64(%rbp), %rax
	jae	.LBB38_8
# %bb.4:                                # %for.body
                                        #   in Loop: Header=BB38_3 Depth=1
	movq	-24(%rbp), %rax
	movq	24(%rax), %rax
	cmpq	-72(%rbp), %rax
	je	.LBB38_6
# %bb.5:                                # %if.then9
                                        #   in Loop: Header=BB38_3 Depth=1
	movq	-24(%rbp), %rax
	movq	48(%rax), %rax
	addq	-56(%rbp), %rax
	movq	-24(%rbp), %rcx
	movq	%rax, 48(%rcx)
.LBB38_6:                               # %if.end12
                                        #   in Loop: Header=BB38_3 Depth=1
	jmp	.LBB38_7
.LBB38_7:                               # %for.inc
                                        #   in Loop: Header=BB38_3 Depth=1
	movq	-24(%rbp), %rax
	addq	$104, %rax
	movq	%rax, -24(%rbp)
	jmp	.LBB38_3
.LBB38_8:                               # %for.end
	movq	$0, -48(%rbp)
.LBB38_9:                               # %return
	movq	-48(%rbp), %rbx
	cmpl	$1766860401, -36(%rbp)  # imm = 0x69502671
	jne	.LBB38_11
.LBB38_10:
	movq	%rbx, %rax
	addq	$72, %rsp
	popq	%rbx
	popq	%rbp
	.cfi_def_cfa %rsp, 8
	retq
.LBB38_11:                              # %func_exit
	.cfi_def_cfa %rbp, 16
	callq	detect_breach
	jmp	.LBB38_10
.Lfunc_end38:
	.size	resize_prob.34, .Lfunc_end38-resize_prob.34
	.cfi_endproc
                                        # -- End function
	.globl	price_out_impl.35       # -- Begin function price_out_impl.35
	.p2align	4, 0x90
	.type	price_out_impl.35,@function
price_out_impl.35:                      # @price_out_impl.35
	.cfi_startproc
# %bb.0:                                # %entry
	pushq	%rbp
	.cfi_def_cfa_offset 16
	.cfi_offset %rbp, -16
	movq	%rsp, %rbp
	.cfi_def_cfa_register %rbp
	pushq	%rbx
	subq	$168, %rsp
	.cfi_offset %rbx, -24
	movl	$383548132, -100(%rbp)  # imm = 0x16DC7AE4
	movq	%rdi, -24(%rbp)
	movq	$0, -40(%rbp)
	movq	$0, -112(%rbp)
	movq	$15, -152(%rbp)
	movq	-24(%rbp), %rax
	movq	528(%rax), %rax
	movq	%rax, -160(%rbp)
	movq	$30, -96(%rbp)
	movq	-160(%rbp), %rax
	subq	-152(%rbp), %rax
	movq	%rax, -144(%rbp)
	movq	-24(%rbp), %rax
	cmpq	$15000, 408(%rax)       # imm = 0x3A98
	jg	.LBB39_7
# %bb.1:                                # %if.then
	movq	-24(%rbp), %rax
	movq	424(%rax), %rax
	movq	-24(%rbp), %rcx
	addq	456(%rcx), %rax
	movq	-24(%rbp), %rcx
	cmpq	416(%rcx), %rax
	jle	.LBB39_6
# %bb.2:                                # %land.lhs.true
	movq	-24(%rbp), %rax
	movq	408(%rax), %rax
	movq	-24(%rbp), %rcx
	imulq	408(%rcx), %rax
	cqto
	movl	$2, %ecx
	idivq	%rcx
	movq	-24(%rbp), %rcx
	addq	424(%rcx), %rax
	movq	-24(%rbp), %rcx
	cmpq	416(%rcx), %rax
	jle	.LBB39_6
# %bb.3:                                # %if.then9
	movq	$1, -112(%rbp)
	movq	-24(%rbp), %rdi
	callq	resize_prob
	cmpq	$0, %rax
	je	.LBB39_5
# %bb.4:                                # %if.then10
	movq	$-1, -128(%rbp)
	jmp	.LBB39_48
.LBB39_5:                               # %if.end
	movq	-24(%rbp), %rdi
	callq	refresh_neighbour_lists
.LBB39_6:                               # %if.end11
	jmp	.LBB39_7
.LBB39_7:                               # %if.end12
	movq	-24(%rbp), %rax
	movq	576(%rax), %rax
	movq	%rax, -16(%rbp)
	movq	-24(%rbp), %rax
	movq	408(%rax), %rax
	movq	%rax, -120(%rbp)
	movq	-24(%rbp), %rax
	movq	568(%rax), %rax
	movq	%rax, -32(%rbp)
	movq	$0, -56(%rbp)
.LBB39_8:                               # %for.cond
                                        # =>This Inner Loop Header: Depth=1
	xorl	%eax, %eax
	movq	-56(%rbp), %rcx
	cmpq	-120(%rbp), %rcx
	jge	.LBB39_10
# %bb.9:                                # %land.rhs
                                        #   in Loop: Header=BB39_8 Depth=1
	movq	-32(%rbp), %rax
	cmpl	$-1, 88(%rax)
	sete	%al
.LBB39_10:                              # %land.end
                                        #   in Loop: Header=BB39_8 Depth=1
	testb	$1, %al
	jne	.LBB39_11
	jmp	.LBB39_13
.LBB39_11:                              # %for.body
                                        #   in Loop: Header=BB39_8 Depth=1
	jmp	.LBB39_12
.LBB39_12:                              # %for.inc
                                        #   in Loop: Header=BB39_8 Depth=1
	movq	-56(%rbp), %rax
	addq	$1, %rax
	movq	%rax, -56(%rbp)
	movq	-32(%rbp), %rax
	addq	$192, %rax
	movq	%rax, -32(%rbp)
	jmp	.LBB39_8
.LBB39_13:                              # %for.end
	movq	$0, -88(%rbp)
.LBB39_14:                              # %for.cond16
                                        # =>This Loop Header: Depth=1
                                        #     Child Loop BB39_20 Depth 2
	movq	-56(%rbp), %rax
	cmpq	-120(%rbp), %rax
	jge	.LBB39_34
# %bb.15:                               # %for.body18
                                        #   in Loop: Header=BB39_14 Depth=1
	movq	-32(%rbp), %rax
	cmpl	$-1, 88(%rax)
	je	.LBB39_17
# %bb.16:                               # %if.then22
                                        #   in Loop: Header=BB39_14 Depth=1
	movq	-88(%rbp), %rax
	movq	-32(%rbp), %rcx
	movq	16(%rcx), %rcx
	movq	56(%rcx), %rcx
	movq	16(%rcx), %rcx
	movq	%rax, 72(%rcx)
	movq	-32(%rbp), %rax
	addq	$64, %rax
	movq	%rax, -88(%rbp)
.LBB39_17:                              # %if.end26
                                        #   in Loop: Header=BB39_14 Depth=1
	movq	-32(%rbp), %rax
	cmpl	$-1, 24(%rax)
	jne	.LBB39_19
# %bb.18:                               # %if.then29
                                        #   in Loop: Header=BB39_14 Depth=1
	jmp	.LBB39_33
.LBB39_19:                              # %if.end30
                                        #   in Loop: Header=BB39_14 Depth=1
	movq	-32(%rbp), %rax
	movq	16(%rax), %rax
	movq	%rax, -64(%rbp)
	movq	-64(%rbp), %rax
	movslq	100(%rax), %rax
	movq	-32(%rbp), %rcx
	subq	56(%rcx), %rax
	addq	-144(%rbp), %rax
	movq	%rax, -168(%rbp)
	movq	-64(%rbp), %rax
	movq	(%rax), %rax
	movq	%rax, -176(%rbp)
	movq	-88(%rbp), %rax
	movq	8(%rax), %rax
	movq	72(%rax), %rax
	movq	%rax, -72(%rbp)
.LBB39_20:                              # %while.cond
                                        #   Parent Loop BB39_14 Depth=1
                                        # =>  This Inner Loop Header: Depth=2
	cmpq	$0, -72(%rbp)
	je	.LBB39_32
# %bb.21:                               # %while.body
                                        #   in Loop: Header=BB39_20 Depth=2
	movq	-72(%rbp), %rax
	movq	8(%rax), %rax
	movq	%rax, -48(%rbp)
	movq	-48(%rbp), %rax
	movslq	100(%rax), %rax
	movq	-72(%rbp), %rcx
	addq	56(%rcx), %rax
	cmpq	-168(%rbp), %rax
	jle	.LBB39_24
# %bb.22:                               # %if.then44
                                        #   in Loop: Header=BB39_20 Depth=2
	movq	-48(%rbp), %rax
	movq	72(%rax), %rax
	movq	%rax, -72(%rbp)
.LBB39_23:                              # %while.cond.backedge
                                        #   in Loop: Header=BB39_20 Depth=2
	jmp	.LBB39_20
.LBB39_24:                              # %if.end46
                                        #   in Loop: Header=BB39_20 Depth=2
	movq	-96(%rbp), %rax
	movq	-48(%rbp), %rcx
	subq	(%rcx), %rax
	movq	-64(%rbp), %rcx
	addq	(%rcx), %rax
	movq	%rax, -80(%rbp)
	cmpq	$0, -80(%rbp)
	jge	.LBB39_31
# %bb.25:                               # %if.then53
                                        #   in Loop: Header=BB39_20 Depth=2
	movq	-40(%rbp), %rax
	movq	-24(%rbp), %rcx
	cmpq	448(%rcx), %rax
	jge	.LBB39_27
# %bb.26:                               # %if.then56
                                        #   in Loop: Header=BB39_20 Depth=2
	movq	-16(%rbp), %rdi
	movq	-40(%rbp), %rsi
	movq	-48(%rbp), %rdx
	movq	-64(%rbp), %rcx
	movq	-96(%rbp), %r8
	movq	-80(%rbp), %r9
	callq	insert_new_arc
	movq	-40(%rbp), %rax
	addq	$1, %rax
	movq	%rax, -40(%rbp)
	jmp	.LBB39_30
.LBB39_27:                              # %if.else
                                        #   in Loop: Header=BB39_20 Depth=2
	movq	-16(%rbp), %rax
	movq	48(%rax), %rax
	cmpq	-80(%rbp), %rax
	jle	.LBB39_29
# %bb.28:                               # %if.then61
                                        #   in Loop: Header=BB39_20 Depth=2
	movq	-24(%rbp), %rdi
	movq	-16(%rbp), %rsi
	movq	-48(%rbp), %rdx
	movq	-64(%rbp), %rcx
	movq	-96(%rbp), %r8
	movq	-80(%rbp), %r9
	callq	replace_weaker_arc
.LBB39_29:                              # %if.end62
                                        #   in Loop: Header=BB39_20 Depth=2
	jmp	.LBB39_30
.LBB39_30:                              # %if.end63
                                        #   in Loop: Header=BB39_20 Depth=2
	jmp	.LBB39_31
.LBB39_31:                              # %if.end64
                                        #   in Loop: Header=BB39_20 Depth=2
	movq	-48(%rbp), %rax
	movq	72(%rax), %rax
	movq	%rax, -72(%rbp)
	jmp	.LBB39_23
.LBB39_32:                              # %while.end
                                        #   in Loop: Header=BB39_14 Depth=1
	jmp	.LBB39_33
.LBB39_33:                              # %for.inc66
                                        #   in Loop: Header=BB39_14 Depth=1
	movq	-56(%rbp), %rax
	addq	$1, %rax
	movq	%rax, -56(%rbp)
	movq	-32(%rbp), %rax
	addq	$192, %rax
	movq	%rax, -32(%rbp)
	jmp	.LBB39_14
.LBB39_34:                              # %for.end69
	cmpq	$0, -40(%rbp)
	je	.LBB39_47
# %bb.35:                               # %if.then71
	movq	-24(%rbp), %rax
	movq	576(%rax), %rax
	movq	%rax, -16(%rbp)
	movq	-40(%rbp), %rax
	movq	-24(%rbp), %rcx
	shlq	$6, %rax
	addq	576(%rcx), %rax
	movq	%rax, 576(%rcx)
	movq	-24(%rbp), %rax
	movq	576(%rax), %rax
	movq	%rax, -136(%rbp)
	cmpq	$0, -112(%rbp)
	je	.LBB39_41
# %bb.36:                               # %if.then77
	jmp	.LBB39_37
.LBB39_37:                              # %for.cond78
                                        # =>This Inner Loop Header: Depth=1
	movq	-16(%rbp), %rax
	cmpq	-136(%rbp), %rax
	je	.LBB39_40
# %bb.38:                               # %for.body81
                                        #   in Loop: Header=BB39_37 Depth=1
	movq	-16(%rbp), %rax
	movq	$0, 48(%rax)
	movq	-16(%rbp), %rax
	movl	$1, 24(%rax)
# %bb.39:                               # %for.inc84
                                        #   in Loop: Header=BB39_37 Depth=1
	movq	-16(%rbp), %rax
	addq	$64, %rax
	movq	%rax, -16(%rbp)
	jmp	.LBB39_37
.LBB39_40:                              # %for.end85
	jmp	.LBB39_46
.LBB39_41:                              # %if.else86
	jmp	.LBB39_42
.LBB39_42:                              # %for.cond87
                                        # =>This Inner Loop Header: Depth=1
	movq	-16(%rbp), %rax
	cmpq	-136(%rbp), %rax
	je	.LBB39_45
# %bb.43:                               # %for.body90
                                        #   in Loop: Header=BB39_42 Depth=1
	movq	-16(%rbp), %rax
	movq	$0, 48(%rax)
	movq	-16(%rbp), %rax
	movl	$1, 24(%rax)
	movq	-16(%rbp), %rax
	movq	8(%rax), %rax
	movq	56(%rax), %rax
	movq	-16(%rbp), %rcx
	movq	%rax, 32(%rcx)
	movq	-16(%rbp), %rax
	movq	-16(%rbp), %rcx
	movq	8(%rcx), %rcx
	movq	%rax, 56(%rcx)
	movq	-16(%rbp), %rax
	movq	16(%rax), %rax
	movq	64(%rax), %rax
	movq	-16(%rbp), %rcx
	movq	%rax, 40(%rcx)
	movq	-16(%rbp), %rax
	movq	-16(%rbp), %rcx
	movq	16(%rcx), %rcx
	movq	%rax, 64(%rcx)
# %bb.44:                               # %for.inc100
                                        #   in Loop: Header=BB39_42 Depth=1
	movq	-16(%rbp), %rax
	addq	$64, %rax
	movq	%rax, -16(%rbp)
	jmp	.LBB39_42
.LBB39_45:                              # %for.end102
	jmp	.LBB39_46
.LBB39_46:                              # %if.end103
	movq	-40(%rbp), %rax
	movq	-24(%rbp), %rcx
	addq	424(%rcx), %rax
	movq	%rax, 424(%rcx)
	movq	-40(%rbp), %rax
	movq	-24(%rbp), %rcx
	addq	440(%rcx), %rax
	movq	%rax, 440(%rcx)
	movq	-40(%rbp), %rax
	movq	-24(%rbp), %rcx
	movq	448(%rcx), %rdx
	subq	%rax, %rdx
	movq	%rdx, 448(%rcx)
.LBB39_47:                              # %if.end109
	movq	-40(%rbp), %rax
	movq	%rax, -128(%rbp)
.LBB39_48:                              # %return
	movq	-128(%rbp), %rbx
	cmpl	$383548132, -100(%rbp)  # imm = 0x16DC7AE4
	jne	.LBB39_50
.LBB39_49:
	movq	%rbx, %rax
	addq	$168, %rsp
	popq	%rbx
	popq	%rbp
	.cfi_def_cfa %rsp, 8
	retq
.LBB39_50:                              # %func_exit
	.cfi_def_cfa %rbp, 16
	callq	detect_breach
	jmp	.LBB39_49
.Lfunc_end39:
	.size	price_out_impl.35, .Lfunc_end39-price_out_impl.35
	.cfi_endproc
                                        # -- End function
	.globl	replace_weaker_arc.36   # -- Begin function replace_weaker_arc.36
	.p2align	4, 0x90
	.type	replace_weaker_arc.36,@function
replace_weaker_arc.36:                  # @replace_weaker_arc.36
	.cfi_startproc
# %bb.0:                                # %entry
	pushq	%rbp
	.cfi_def_cfa_offset 16
	.cfi_offset %rbp, -16
	movq	%rsp, %rbp
	.cfi_def_cfa_register %rbp
	subq	$80, %rsp
	movl	$235980671, -44(%rbp)   # imm = 0xE10C77F
	movq	%rdi, -64(%rbp)
	movq	%rsi, -8(%rbp)
	movq	%rdx, -56(%rbp)
	movq	%rcx, -72(%rbp)
	movq	%r8, -32(%rbp)
	movq	%r9, -40(%rbp)
	movq	-56(%rbp), %rax
	movq	-8(%rbp), %rcx
	movq	%rax, 8(%rcx)
	movq	-72(%rbp), %rax
	movq	-8(%rbp), %rcx
	movq	%rax, 16(%rcx)
	movq	-32(%rbp), %rax
	movq	-8(%rbp), %rcx
	movq	%rax, 56(%rcx)
	movq	-32(%rbp), %rax
	movq	-8(%rbp), %rcx
	movq	%rax, (%rcx)
	movq	-40(%rbp), %rax
	movq	-8(%rbp), %rcx
	movq	%rax, 48(%rcx)
	movq	$1, -24(%rbp)
	movq	-8(%rbp), %rax
	movq	112(%rax), %rax
	movq	-8(%rbp), %rcx
	movq	176(%rcx), %rcx
	cmpq	%rcx, %rax
	movl	$2, %eax
	movl	$3, %ecx
	cmovgl	%eax, %ecx
	movslq	%ecx, %rax
	movq	%rax, -16(%rbp)
.LBB40_1:                               # %while.cond
                                        # =>This Inner Loop Header: Depth=1
	xorl	%eax, %eax
	movq	-16(%rbp), %rcx
	movq	-64(%rbp), %rdx
	cmpq	448(%rdx), %rcx
	jg	.LBB40_3
# %bb.2:                                # %land.rhs
                                        #   in Loop: Header=BB40_1 Depth=1
	movq	-40(%rbp), %rax
	movq	-8(%rbp), %rcx
	movq	-16(%rbp), %rdx
	subq	$1, %rdx
	shlq	$6, %rdx
	addq	%rdx, %rcx
	cmpq	48(%rcx), %rax
	setl	%al
.LBB40_3:                               # %land.end
                                        #   in Loop: Header=BB40_1 Depth=1
	testb	$1, %al
	jne	.LBB40_4
	jmp	.LBB40_9
.LBB40_4:                               # %while.body
                                        #   in Loop: Header=BB40_1 Depth=1
	movq	-8(%rbp), %rax
	movq	-16(%rbp), %rcx
	subq	$1, %rcx
	shlq	$6, %rcx
	addq	%rcx, %rax
	movq	8(%rax), %rax
	movq	-8(%rbp), %rcx
	movq	-24(%rbp), %rdx
	subq	$1, %rdx
	shlq	$6, %rdx
	addq	%rdx, %rcx
	movq	%rax, 8(%rcx)
	movq	-8(%rbp), %rax
	movq	-16(%rbp), %rcx
	subq	$1, %rcx
	shlq	$6, %rcx
	addq	%rcx, %rax
	movq	16(%rax), %rax
	movq	-8(%rbp), %rcx
	movq	-24(%rbp), %rdx
	subq	$1, %rdx
	shlq	$6, %rdx
	addq	%rdx, %rcx
	movq	%rax, 16(%rcx)
	movq	-8(%rbp), %rax
	movq	-16(%rbp), %rcx
	subq	$1, %rcx
	shlq	$6, %rcx
	addq	%rcx, %rax
	movq	(%rax), %rax
	movq	-8(%rbp), %rcx
	movq	-24(%rbp), %rdx
	subq	$1, %rdx
	shlq	$6, %rdx
	addq	%rdx, %rcx
	movq	%rax, (%rcx)
	movq	-8(%rbp), %rax
	movq	-16(%rbp), %rcx
	subq	$1, %rcx
	shlq	$6, %rcx
	addq	%rcx, %rax
	movq	(%rax), %rax
	movq	-8(%rbp), %rcx
	movq	-24(%rbp), %rdx
	subq	$1, %rdx
	shlq	$6, %rdx
	addq	%rdx, %rcx
	movq	%rax, 56(%rcx)
	movq	-8(%rbp), %rax
	movq	-16(%rbp), %rcx
	subq	$1, %rcx
	shlq	$6, %rcx
	addq	%rcx, %rax
	movq	48(%rax), %rax
	movq	-8(%rbp), %rcx
	movq	-24(%rbp), %rdx
	subq	$1, %rdx
	shlq	$6, %rdx
	addq	%rdx, %rcx
	movq	%rax, 48(%rcx)
	movq	-56(%rbp), %rax
	movq	-8(%rbp), %rcx
	movq	-16(%rbp), %rdx
	subq	$1, %rdx
	shlq	$6, %rdx
	addq	%rdx, %rcx
	movq	%rax, 8(%rcx)
	movq	-72(%rbp), %rax
	movq	-8(%rbp), %rcx
	movq	-16(%rbp), %rdx
	subq	$1, %rdx
	shlq	$6, %rdx
	addq	%rdx, %rcx
	movq	%rax, 16(%rcx)
	movq	-32(%rbp), %rax
	movq	-8(%rbp), %rcx
	movq	-16(%rbp), %rdx
	subq	$1, %rdx
	shlq	$6, %rdx
	addq	%rdx, %rcx
	movq	%rax, (%rcx)
	movq	-32(%rbp), %rax
	movq	-8(%rbp), %rcx
	movq	-16(%rbp), %rdx
	subq	$1, %rdx
	shlq	$6, %rdx
	addq	%rdx, %rcx
	movq	%rax, 56(%rcx)
	movq	-40(%rbp), %rax
	movq	-8(%rbp), %rcx
	movq	-16(%rbp), %rdx
	subq	$1, %rdx
	shlq	$6, %rdx
	addq	%rdx, %rcx
	movq	%rax, 48(%rcx)
	movq	-16(%rbp), %rax
	movq	%rax, -24(%rbp)
	movq	-16(%rbp), %rax
	shlq	$1, %rax
	movq	%rax, -16(%rbp)
	movq	-16(%rbp), %rax
	addq	$1, %rax
	movq	-64(%rbp), %rcx
	cmpq	448(%rcx), %rax
	jg	.LBB40_8
# %bb.5:                                # %if.then
                                        #   in Loop: Header=BB40_1 Depth=1
	movq	-8(%rbp), %rax
	movq	-16(%rbp), %rcx
	subq	$1, %rcx
	shlq	$6, %rcx
	addq	%rcx, %rax
	movq	48(%rax), %rax
	movq	-8(%rbp), %rcx
	movq	-16(%rbp), %rdx
	shlq	$6, %rdx
	addq	%rdx, %rcx
	cmpq	48(%rcx), %rax
	jge	.LBB40_7
# %bb.6:                                # %if.then74
                                        #   in Loop: Header=BB40_1 Depth=1
	movq	-16(%rbp), %rax
	addq	$1, %rax
	movq	%rax, -16(%rbp)
.LBB40_7:                               # %if.end
                                        #   in Loop: Header=BB40_1 Depth=1
	jmp	.LBB40_8
.LBB40_8:                               # %if.end75
                                        #   in Loop: Header=BB40_1 Depth=1
	jmp	.LBB40_1
.LBB40_9:                               # %while.end
	cmpl	$235980671, -44(%rbp)   # imm = 0xE10C77F
	jne	.LBB40_11
.LBB40_10:
	addq	$80, %rsp
	popq	%rbp
	.cfi_def_cfa %rsp, 8
	retq
.LBB40_11:                              # %func_exit
	.cfi_def_cfa %rbp, 16
	callq	detect_breach
	jmp	.LBB40_10
.Lfunc_end40:
	.size	replace_weaker_arc.36, .Lfunc_end40-replace_weaker_arc.36
	.cfi_endproc
                                        # -- End function
	.globl	insert_new_arc.37       # -- Begin function insert_new_arc.37
	.p2align	4, 0x90
	.type	insert_new_arc.37,@function
insert_new_arc.37:                      # @insert_new_arc.37
	.cfi_startproc
# %bb.0:                                # %entry
	pushq	%rbp
	.cfi_def_cfa_offset 16
	.cfi_offset %rbp, -16
	movq	%rsp, %rbp
	.cfi_def_cfa_register %rbp
	subq	$64, %rsp
	movl	$742116659, -44(%rbp)   # imm = 0x2C3BCD33
	movq	%rdi, -8(%rbp)
	movq	%rsi, -24(%rbp)
	movq	%rdx, -64(%rbp)
	movq	%rcx, -56(%rbp)
	movq	%r8, -32(%rbp)
	movq	%r9, -40(%rbp)
	movq	-64(%rbp), %rax
	movq	-8(%rbp), %rcx
	movq	-24(%rbp), %rdx
	shlq	$6, %rdx
	addq	%rdx, %rcx
	movq	%rax, 8(%rcx)
	movq	-56(%rbp), %rax
	movq	-8(%rbp), %rcx
	movq	-24(%rbp), %rdx
	shlq	$6, %rdx
	addq	%rdx, %rcx
	movq	%rax, 16(%rcx)
	movq	-32(%rbp), %rax
	movq	-8(%rbp), %rcx
	movq	-24(%rbp), %rdx
	shlq	$6, %rdx
	addq	%rdx, %rcx
	movq	%rax, 56(%rcx)
	movq	-32(%rbp), %rax
	movq	-8(%rbp), %rcx
	movq	-24(%rbp), %rdx
	shlq	$6, %rdx
	addq	%rdx, %rcx
	movq	%rax, (%rcx)
	movq	-40(%rbp), %rax
	movq	-8(%rbp), %rcx
	movq	-24(%rbp), %rdx
	shlq	$6, %rdx
	addq	%rdx, %rcx
	movq	%rax, 48(%rcx)
	movq	-24(%rbp), %rax
	addq	$1, %rax
	movq	%rax, -16(%rbp)
.LBB41_1:                               # %while.cond
                                        # =>This Inner Loop Header: Depth=1
	xorl	%eax, %eax
	movq	-16(%rbp), %rcx
	subq	$1, %rcx
	cmpq	$0, %rcx
	je	.LBB41_3
# %bb.2:                                # %land.rhs
                                        #   in Loop: Header=BB41_1 Depth=1
	movq	-40(%rbp), %rcx
	movq	-8(%rbp), %rsi
	movq	-16(%rbp), %rax
	cqto
	movl	$2, %edi
	idivq	%rdi
	subq	$1, %rax
	shlq	$6, %rax
	addq	%rax, %rsi
	cmpq	48(%rsi), %rcx
	setg	%al
.LBB41_3:                               # %land.end
                                        #   in Loop: Header=BB41_1 Depth=1
	testb	$1, %al
	jne	.LBB41_4
	jmp	.LBB41_5
.LBB41_4:                               # %while.body
                                        #   in Loop: Header=BB41_1 Depth=1
	movq	-8(%rbp), %rsi
	movq	-16(%rbp), %rax
	cqto
	movl	$2, %ecx
	idivq	%rcx
	subq	$1, %rax
	shlq	$6, %rax
	addq	%rax, %rsi
	movq	8(%rsi), %rax
	movq	-8(%rbp), %rdx
	movq	-16(%rbp), %rsi
	subq	$1, %rsi
	shlq	$6, %rsi
	addq	%rsi, %rdx
	movq	%rax, 8(%rdx)
	movq	-8(%rbp), %rsi
	movq	-16(%rbp), %rax
	cqto
	idivq	%rcx
	subq	$1, %rax
	shlq	$6, %rax
	addq	%rax, %rsi
	movq	16(%rsi), %rax
	movq	-8(%rbp), %rdx
	movq	-16(%rbp), %rsi
	subq	$1, %rsi
	shlq	$6, %rsi
	addq	%rsi, %rdx
	movq	%rax, 16(%rdx)
	movq	-8(%rbp), %rsi
	movq	-16(%rbp), %rax
	cqto
	idivq	%rcx
	subq	$1, %rax
	shlq	$6, %rax
	addq	%rax, %rsi
	movq	(%rsi), %rax
	movq	-8(%rbp), %rdx
	movq	-16(%rbp), %rsi
	subq	$1, %rsi
	shlq	$6, %rsi
	addq	%rsi, %rdx
	movq	%rax, (%rdx)
	movq	-8(%rbp), %rsi
	movq	-16(%rbp), %rax
	cqto
	idivq	%rcx
	subq	$1, %rax
	shlq	$6, %rax
	addq	%rax, %rsi
	movq	(%rsi), %rax
	movq	-8(%rbp), %rdx
	movq	-16(%rbp), %rsi
	subq	$1, %rsi
	shlq	$6, %rsi
	addq	%rsi, %rdx
	movq	%rax, 56(%rdx)
	movq	-8(%rbp), %rsi
	movq	-16(%rbp), %rax
	cqto
	idivq	%rcx
	subq	$1, %rax
	shlq	$6, %rax
	addq	%rax, %rsi
	movq	48(%rsi), %rax
	movq	-8(%rbp), %rdx
	movq	-16(%rbp), %rsi
	subq	$1, %rsi
	shlq	$6, %rsi
	addq	%rsi, %rdx
	movq	%rax, 48(%rdx)
	movq	-16(%rbp), %rax
	cqto
	idivq	%rcx
	movq	%rax, -16(%rbp)
	movq	-64(%rbp), %rax
	movq	-8(%rbp), %rcx
	movq	-16(%rbp), %rdx
	subq	$1, %rdx
	shlq	$6, %rdx
	addq	%rdx, %rcx
	movq	%rax, 8(%rcx)
	movq	-56(%rbp), %rax
	movq	-8(%rbp), %rcx
	movq	-16(%rbp), %rdx
	subq	$1, %rdx
	shlq	$6, %rdx
	addq	%rdx, %rcx
	movq	%rax, 16(%rcx)
	movq	-32(%rbp), %rax
	movq	-8(%rbp), %rcx
	movq	-16(%rbp), %rdx
	subq	$1, %rdx
	shlq	$6, %rdx
	addq	%rdx, %rcx
	movq	%rax, (%rcx)
	movq	-32(%rbp), %rax
	movq	-8(%rbp), %rcx
	movq	-16(%rbp), %rdx
	subq	$1, %rdx
	shlq	$6, %rdx
	addq	%rdx, %rcx
	movq	%rax, 56(%rcx)
	movq	-40(%rbp), %rax
	movq	-8(%rbp), %rcx
	movq	-16(%rbp), %rdx
	subq	$1, %rdx
	shlq	$6, %rdx
	addq	%rdx, %rcx
	movq	%rax, 48(%rcx)
	jmp	.LBB41_1
.LBB41_5:                               # %while.end
	cmpl	$742116659, -44(%rbp)   # imm = 0x2C3BCD33
	jne	.LBB41_7
.LBB41_6:
	addq	$64, %rsp
	popq	%rbp
	.cfi_def_cfa %rsp, 8
	retq
.LBB41_7:                               # %func_exit
	.cfi_def_cfa %rbp, 16
	callq	detect_breach
	jmp	.LBB41_6
.Lfunc_end41:
	.size	insert_new_arc.37, .Lfunc_end41-insert_new_arc.37
	.cfi_endproc
                                        # -- End function
	.globl	price_out_impl.38       # -- Begin function price_out_impl.38
	.p2align	4, 0x90
	.type	price_out_impl.38,@function
price_out_impl.38:                      # @price_out_impl.38
	.cfi_startproc
# %bb.0:                                # %entry
	pushq	%rbp
	.cfi_def_cfa_offset 16
	.cfi_offset %rbp, -16
	movq	%rsp, %rbp
	.cfi_def_cfa_register %rbp
	pushq	%rbx
	subq	$168, %rsp
	.cfi_offset %rbx, -24
	movl	$1910749828, -100(%rbp) # imm = 0x71E3BA84
	movq	%rdi, -16(%rbp)
	movq	$0, -40(%rbp)
	movq	$0, -120(%rbp)
	movq	$15, -160(%rbp)
	movq	-16(%rbp), %rax
	movq	528(%rax), %rax
	movq	%rax, -152(%rbp)
	movq	$30, -96(%rbp)
	movq	-152(%rbp), %rax
	subq	-160(%rbp), %rax
	movq	%rax, -144(%rbp)
	movq	-16(%rbp), %rax
	cmpq	$15000, 408(%rax)       # imm = 0x3A98
	jg	.LBB42_7
# %bb.1:                                # %if.then
	movq	-16(%rbp), %rax
	movq	424(%rax), %rax
	movq	-16(%rbp), %rcx
	addq	456(%rcx), %rax
	movq	-16(%rbp), %rcx
	cmpq	416(%rcx), %rax
	jle	.LBB42_6
# %bb.2:                                # %land.lhs.true
	movq	-16(%rbp), %rax
	movq	408(%rax), %rax
	movq	-16(%rbp), %rcx
	imulq	408(%rcx), %rax
	cqto
	movl	$2, %ecx
	idivq	%rcx
	movq	-16(%rbp), %rcx
	addq	424(%rcx), %rax
	movq	-16(%rbp), %rcx
	cmpq	416(%rcx), %rax
	jle	.LBB42_6
# %bb.3:                                # %if.then9
	movq	$1, -120(%rbp)
	movq	-16(%rbp), %rdi
	callq	resize_prob
	cmpq	$0, %rax
	je	.LBB42_5
# %bb.4:                                # %if.then10
	movq	$-1, -112(%rbp)
	jmp	.LBB42_48
.LBB42_5:                               # %if.end
	movq	-16(%rbp), %rdi
	callq	refresh_neighbour_lists
.LBB42_6:                               # %if.end11
	jmp	.LBB42_7
.LBB42_7:                               # %if.end12
	movq	-16(%rbp), %rax
	movq	576(%rax), %rax
	movq	%rax, -24(%rbp)
	movq	-16(%rbp), %rax
	movq	408(%rax), %rax
	movq	%rax, -136(%rbp)
	movq	-16(%rbp), %rax
	movq	568(%rax), %rax
	movq	%rax, -32(%rbp)
	movq	$0, -56(%rbp)
.LBB42_8:                               # %for.cond
                                        # =>This Inner Loop Header: Depth=1
	xorl	%eax, %eax
	movq	-56(%rbp), %rcx
	cmpq	-136(%rbp), %rcx
	jge	.LBB42_10
# %bb.9:                                # %land.rhs
                                        #   in Loop: Header=BB42_8 Depth=1
	movq	-32(%rbp), %rax
	cmpl	$-1, 88(%rax)
	sete	%al
.LBB42_10:                              # %land.end
                                        #   in Loop: Header=BB42_8 Depth=1
	testb	$1, %al
	jne	.LBB42_11
	jmp	.LBB42_13
.LBB42_11:                              # %for.body
                                        #   in Loop: Header=BB42_8 Depth=1
	jmp	.LBB42_12
.LBB42_12:                              # %for.inc
                                        #   in Loop: Header=BB42_8 Depth=1
	movq	-56(%rbp), %rax
	addq	$1, %rax
	movq	%rax, -56(%rbp)
	movq	-32(%rbp), %rax
	addq	$192, %rax
	movq	%rax, -32(%rbp)
	jmp	.LBB42_8
.LBB42_13:                              # %for.end
	movq	$0, -88(%rbp)
.LBB42_14:                              # %for.cond16
                                        # =>This Loop Header: Depth=1
                                        #     Child Loop BB42_20 Depth 2
	movq	-56(%rbp), %rax
	cmpq	-136(%rbp), %rax
	jge	.LBB42_34
# %bb.15:                               # %for.body18
                                        #   in Loop: Header=BB42_14 Depth=1
	movq	-32(%rbp), %rax
	cmpl	$-1, 88(%rax)
	je	.LBB42_17
# %bb.16:                               # %if.then22
                                        #   in Loop: Header=BB42_14 Depth=1
	movq	-88(%rbp), %rax
	movq	-32(%rbp), %rcx
	movq	16(%rcx), %rcx
	movq	56(%rcx), %rcx
	movq	16(%rcx), %rcx
	movq	%rax, 72(%rcx)
	movq	-32(%rbp), %rax
	addq	$64, %rax
	movq	%rax, -88(%rbp)
.LBB42_17:                              # %if.end26
                                        #   in Loop: Header=BB42_14 Depth=1
	movq	-32(%rbp), %rax
	cmpl	$-1, 24(%rax)
	jne	.LBB42_19
# %bb.18:                               # %if.then29
                                        #   in Loop: Header=BB42_14 Depth=1
	jmp	.LBB42_33
.LBB42_19:                              # %if.end30
                                        #   in Loop: Header=BB42_14 Depth=1
	movq	-32(%rbp), %rax
	movq	16(%rax), %rax
	movq	%rax, -72(%rbp)
	movq	-72(%rbp), %rax
	movslq	100(%rax), %rax
	movq	-32(%rbp), %rcx
	subq	56(%rcx), %rax
	addq	-144(%rbp), %rax
	movq	%rax, -168(%rbp)
	movq	-72(%rbp), %rax
	movq	(%rax), %rax
	movq	%rax, -176(%rbp)
	movq	-88(%rbp), %rax
	movq	8(%rax), %rax
	movq	72(%rax), %rax
	movq	%rax, -64(%rbp)
.LBB42_20:                              # %while.cond
                                        #   Parent Loop BB42_14 Depth=1
                                        # =>  This Inner Loop Header: Depth=2
	cmpq	$0, -64(%rbp)
	je	.LBB42_32
# %bb.21:                               # %while.body
                                        #   in Loop: Header=BB42_20 Depth=2
	movq	-64(%rbp), %rax
	movq	8(%rax), %rax
	movq	%rax, -48(%rbp)
	movq	-48(%rbp), %rax
	movslq	100(%rax), %rax
	movq	-64(%rbp), %rcx
	addq	56(%rcx), %rax
	cmpq	-168(%rbp), %rax
	jle	.LBB42_24
# %bb.22:                               # %if.then44
                                        #   in Loop: Header=BB42_20 Depth=2
	movq	-48(%rbp), %rax
	movq	72(%rax), %rax
	movq	%rax, -64(%rbp)
.LBB42_23:                              # %while.cond.backedge
                                        #   in Loop: Header=BB42_20 Depth=2
	jmp	.LBB42_20
.LBB42_24:                              # %if.end46
                                        #   in Loop: Header=BB42_20 Depth=2
	movq	-96(%rbp), %rax
	movq	-48(%rbp), %rcx
	subq	(%rcx), %rax
	movq	-72(%rbp), %rcx
	addq	(%rcx), %rax
	movq	%rax, -80(%rbp)
	cmpq	$0, -80(%rbp)
	jge	.LBB42_31
# %bb.25:                               # %if.then53
                                        #   in Loop: Header=BB42_20 Depth=2
	movq	-40(%rbp), %rax
	movq	-16(%rbp), %rcx
	cmpq	448(%rcx), %rax
	jge	.LBB42_27
# %bb.26:                               # %if.then56
                                        #   in Loop: Header=BB42_20 Depth=2
	movq	-24(%rbp), %rdi
	movq	-40(%rbp), %rsi
	movq	-48(%rbp), %rdx
	movq	-72(%rbp), %rcx
	movq	-96(%rbp), %r8
	movq	-80(%rbp), %r9
	callq	insert_new_arc
	movq	-40(%rbp), %rax
	addq	$1, %rax
	movq	%rax, -40(%rbp)
	jmp	.LBB42_30
.LBB42_27:                              # %if.else
                                        #   in Loop: Header=BB42_20 Depth=2
	movq	-24(%rbp), %rax
	movq	48(%rax), %rax
	cmpq	-80(%rbp), %rax
	jle	.LBB42_29
# %bb.28:                               # %if.then61
                                        #   in Loop: Header=BB42_20 Depth=2
	movq	-16(%rbp), %rdi
	movq	-24(%rbp), %rsi
	movq	-48(%rbp), %rdx
	movq	-72(%rbp), %rcx
	movq	-96(%rbp), %r8
	movq	-80(%rbp), %r9
	callq	replace_weaker_arc
.LBB42_29:                              # %if.end62
                                        #   in Loop: Header=BB42_20 Depth=2
	jmp	.LBB42_30
.LBB42_30:                              # %if.end63
                                        #   in Loop: Header=BB42_20 Depth=2
	jmp	.LBB42_31
.LBB42_31:                              # %if.end64
                                        #   in Loop: Header=BB42_20 Depth=2
	movq	-48(%rbp), %rax
	movq	72(%rax), %rax
	movq	%rax, -64(%rbp)
	jmp	.LBB42_23
.LBB42_32:                              # %while.end
                                        #   in Loop: Header=BB42_14 Depth=1
	jmp	.LBB42_33
.LBB42_33:                              # %for.inc66
                                        #   in Loop: Header=BB42_14 Depth=1
	movq	-56(%rbp), %rax
	addq	$1, %rax
	movq	%rax, -56(%rbp)
	movq	-32(%rbp), %rax
	addq	$192, %rax
	movq	%rax, -32(%rbp)
	jmp	.LBB42_14
.LBB42_34:                              # %for.end69
	cmpq	$0, -40(%rbp)
	je	.LBB42_47
# %bb.35:                               # %if.then71
	movq	-16(%rbp), %rax
	movq	576(%rax), %rax
	movq	%rax, -24(%rbp)
	movq	-40(%rbp), %rax
	movq	-16(%rbp), %rcx
	shlq	$6, %rax
	addq	576(%rcx), %rax
	movq	%rax, 576(%rcx)
	movq	-16(%rbp), %rax
	movq	576(%rax), %rax
	movq	%rax, -128(%rbp)
	cmpq	$0, -120(%rbp)
	je	.LBB42_41
# %bb.36:                               # %if.then77
	jmp	.LBB42_37
.LBB42_37:                              # %for.cond78
                                        # =>This Inner Loop Header: Depth=1
	movq	-24(%rbp), %rax
	cmpq	-128(%rbp), %rax
	je	.LBB42_40
# %bb.38:                               # %for.body81
                                        #   in Loop: Header=BB42_37 Depth=1
	movq	-24(%rbp), %rax
	movq	$0, 48(%rax)
	movq	-24(%rbp), %rax
	movl	$1, 24(%rax)
# %bb.39:                               # %for.inc84
                                        #   in Loop: Header=BB42_37 Depth=1
	movq	-24(%rbp), %rax
	addq	$64, %rax
	movq	%rax, -24(%rbp)
	jmp	.LBB42_37
.LBB42_40:                              # %for.end85
	jmp	.LBB42_46
.LBB42_41:                              # %if.else86
	jmp	.LBB42_42
.LBB42_42:                              # %for.cond87
                                        # =>This Inner Loop Header: Depth=1
	movq	-24(%rbp), %rax
	cmpq	-128(%rbp), %rax
	je	.LBB42_45
# %bb.43:                               # %for.body90
                                        #   in Loop: Header=BB42_42 Depth=1
	movq	-24(%rbp), %rax
	movq	$0, 48(%rax)
	movq	-24(%rbp), %rax
	movl	$1, 24(%rax)
	movq	-24(%rbp), %rax
	movq	8(%rax), %rax
	movq	56(%rax), %rax
	movq	-24(%rbp), %rcx
	movq	%rax, 32(%rcx)
	movq	-24(%rbp), %rax
	movq	-24(%rbp), %rcx
	movq	8(%rcx), %rcx
	movq	%rax, 56(%rcx)
	movq	-24(%rbp), %rax
	movq	16(%rax), %rax
	movq	64(%rax), %rax
	movq	-24(%rbp), %rcx
	movq	%rax, 40(%rcx)
	movq	-24(%rbp), %rax
	movq	-24(%rbp), %rcx
	movq	16(%rcx), %rcx
	movq	%rax, 64(%rcx)
# %bb.44:                               # %for.inc100
                                        #   in Loop: Header=BB42_42 Depth=1
	movq	-24(%rbp), %rax
	addq	$64, %rax
	movq	%rax, -24(%rbp)
	jmp	.LBB42_42
.LBB42_45:                              # %for.end102
	jmp	.LBB42_46
.LBB42_46:                              # %if.end103
	movq	-40(%rbp), %rax
	movq	-16(%rbp), %rcx
	addq	424(%rcx), %rax
	movq	%rax, 424(%rcx)
	movq	-40(%rbp), %rax
	movq	-16(%rbp), %rcx
	addq	440(%rcx), %rax
	movq	%rax, 440(%rcx)
	movq	-40(%rbp), %rax
	movq	-16(%rbp), %rcx
	movq	448(%rcx), %rdx
	subq	%rax, %rdx
	movq	%rdx, 448(%rcx)
.LBB42_47:                              # %if.end109
	movq	-40(%rbp), %rax
	movq	%rax, -112(%rbp)
.LBB42_48:                              # %return
	movq	-112(%rbp), %rbx
	cmpl	$1910749828, -100(%rbp) # imm = 0x71E3BA84
	jne	.LBB42_50
.LBB42_49:
	movq	%rbx, %rax
	addq	$168, %rsp
	popq	%rbx
	popq	%rbp
	.cfi_def_cfa %rsp, 8
	retq
.LBB42_50:                              # %func_exit
	.cfi_def_cfa %rbp, 16
	callq	detect_breach
	jmp	.LBB42_49
.Lfunc_end42:
	.size	price_out_impl.38, .Lfunc_end42-price_out_impl.38
	.cfi_endproc
                                        # -- End function
	.globl	price_out_impl.39       # -- Begin function price_out_impl.39
	.p2align	4, 0x90
	.type	price_out_impl.39,@function
price_out_impl.39:                      # @price_out_impl.39
	.cfi_startproc
# %bb.0:                                # %entry
	pushq	%rbp
	.cfi_def_cfa_offset 16
	.cfi_offset %rbp, -16
	movq	%rsp, %rbp
	.cfi_def_cfa_register %rbp
	pushq	%rbx
	subq	$168, %rsp
	.cfi_offset %rbx, -24
	movl	$32370933, -100(%rbp)   # imm = 0x1EDF0F5
	movq	%rdi, -16(%rbp)
	movq	$0, -40(%rbp)
	movq	$0, -128(%rbp)
	movq	$15, -160(%rbp)
	movq	-16(%rbp), %rax
	movq	528(%rax), %rax
	movq	%rax, -152(%rbp)
	movq	$30, -88(%rbp)
	movq	-152(%rbp), %rax
	subq	-160(%rbp), %rax
	movq	%rax, -144(%rbp)
	movq	-16(%rbp), %rax
