	.text
	.file	"mcfutil.c"
	.globl	refresh_neighbour_lists # -- Begin function refresh_neighbour_lists
	.p2align	4, 0x90
	.type	refresh_neighbour_lists,@function
refresh_neighbour_lists:                # @refresh_neighbour_lists
	.cfi_startproc
# %bb.0:                                # %rand_bb
	pushq	%rbp
	.cfi_def_cfa_offset 16
	.cfi_offset %rbp, -16
	movq	%rsp, %rbp
	.cfi_def_cfa_register %rbp
	pushq	%rbx
	pushq	%rax
	.cfi_offset %rbx, -24
	movq	%rdi, %rbx
	callq	get_rand
	cmpl	$0, %eax
	jne	.LBB0_17
# %bb.1:                                # %func_refresh_neighbour_lists.1
	movq	%rbx, %rdi
	callq	refresh_neighbour_lists.1
	addq	$8, %rsp
	popq	%rbx
	popq	%rbp
	.cfi_def_cfa %rsp, 8
	retq
.LBB0_2:                                # %func_refresh_neighbour_lists.6
	.cfi_def_cfa %rbp, 16
	movq	%rbx, %rdi
	callq	refresh_neighbour_lists.6
	addq	$8, %rsp
	popq	%rbx
	popq	%rbp
	.cfi_def_cfa %rsp, 8
	retq
.LBB0_3:                                # %func_refresh_neighbour_lists.13
	.cfi_def_cfa %rbp, 16
	movq	%rbx, %rdi
	callq	refresh_neighbour_lists.13
	addq	$8, %rsp
	popq	%rbx
	popq	%rbp
	.cfi_def_cfa %rsp, 8
	retq
.LBB0_4:                                # %func_refresh_neighbour_lists.18
	.cfi_def_cfa %rbp, 16
	movq	%rbx, %rdi
	callq	refresh_neighbour_lists.18
	addq	$8, %rsp
	popq	%rbx
	popq	%rbp
	.cfi_def_cfa %rsp, 8
	retq
.LBB0_5:                                # %func_refresh_neighbour_lists.19
	.cfi_def_cfa %rbp, 16
	movq	%rbx, %rdi
	callq	refresh_neighbour_lists.19
	addq	$8, %rsp
	popq	%rbx
	popq	%rbp
	.cfi_def_cfa %rsp, 8
	retq
.LBB0_6:                                # %func_refresh_neighbour_lists.29
	.cfi_def_cfa %rbp, 16
	movq	%rbx, %rdi
	callq	refresh_neighbour_lists.29
	addq	$8, %rsp
	popq	%rbx
	popq	%rbp
	.cfi_def_cfa %rsp, 8
	retq
.LBB0_7:                                # %func_refresh_neighbour_lists.32
	.cfi_def_cfa %rbp, 16
	movq	%rbx, %rdi
	callq	refresh_neighbour_lists.32
	addq	$8, %rsp
	popq	%rbx
	popq	%rbp
	.cfi_def_cfa %rsp, 8
	retq
.LBB0_8:                                # %func_refresh_neighbour_lists.33
	.cfi_def_cfa %rbp, 16
	movq	%rbx, %rdi
	callq	refresh_neighbour_lists.33
	addq	$8, %rsp
	popq	%rbx
	popq	%rbp
	.cfi_def_cfa %rsp, 8
	retq
.LBB0_9:                                # %func_refresh_neighbour_lists.36
	.cfi_def_cfa %rbp, 16
	movq	%rbx, %rdi
	callq	refresh_neighbour_lists.36
	addq	$8, %rsp
	popq	%rbx
	popq	%rbp
	.cfi_def_cfa %rsp, 8
	retq
.LBB0_10:                               # %func_refresh_neighbour_lists.37
	.cfi_def_cfa %rbp, 16
	movq	%rbx, %rdi
	callq	refresh_neighbour_lists.37
	addq	$8, %rsp
	popq	%rbx
	popq	%rbp
	.cfi_def_cfa %rsp, 8
	retq
.LBB0_11:                               # %func_refresh_neighbour_lists.42
	.cfi_def_cfa %rbp, 16
	movq	%rbx, %rdi
	callq	refresh_neighbour_lists.42
	addq	$8, %rsp
	popq	%rbx
	popq	%rbp
	.cfi_def_cfa %rsp, 8
	retq
.LBB0_12:                               # %func_refresh_neighbour_lists.44
	.cfi_def_cfa %rbp, 16
	movq	%rbx, %rdi
	callq	refresh_neighbour_lists.44
	addq	$8, %rsp
	popq	%rbx
	popq	%rbp
	.cfi_def_cfa %rsp, 8
	retq
.LBB0_13:                               # %func_refresh_neighbour_lists.52
	.cfi_def_cfa %rbp, 16
	movq	%rbx, %rdi
	callq	refresh_neighbour_lists.52
	addq	$8, %rsp
	popq	%rbx
	popq	%rbp
	.cfi_def_cfa %rsp, 8
	retq
.LBB0_14:                               # %func_refresh_neighbour_lists.53
	.cfi_def_cfa %rbp, 16
	movq	%rbx, %rdi
	callq	refresh_neighbour_lists.53
	addq	$8, %rsp
	popq	%rbx
	popq	%rbp
	.cfi_def_cfa %rsp, 8
	retq
.LBB0_15:                               # %func_refresh_neighbour_lists.54
	.cfi_def_cfa %rbp, 16
	movq	%rbx, %rdi
	callq	refresh_neighbour_lists.54
	addq	$8, %rsp
	popq	%rbx
	popq	%rbp
	.cfi_def_cfa %rsp, 8
	retq
.LBB0_16:                               # %func_refresh_neighbour_lists.72
	.cfi_def_cfa %rbp, 16
	movq	%rbx, %rdi
	callq	refresh_neighbour_lists.72
	addq	$8, %rsp
	popq	%rbx
	popq	%rbp
	.cfi_def_cfa %rsp, 8
	retq
.LBB0_17:                               # %ctrl0
	.cfi_def_cfa %rbp, 16
	cmpl	$1, %eax
	je	.LBB0_2
# %bb.18:                               # %ctrl1
	cmpl	$2, %eax
	je	.LBB0_3
# %bb.19:                               # %ctrl2
	cmpl	$3, %eax
	je	.LBB0_4
# %bb.20:                               # %ctrl3
	cmpl	$4, %eax
	je	.LBB0_5
# %bb.21:                               # %ctrl4
	cmpl	$5, %eax
	je	.LBB0_6
# %bb.22:                               # %ctrl5
	cmpl	$6, %eax
	je	.LBB0_7
# %bb.23:                               # %ctrl6
	cmpl	$7, %eax
	je	.LBB0_8
# %bb.24:                               # %ctrl7
	cmpl	$8, %eax
	je	.LBB0_9
# %bb.25:                               # %ctrl8
	cmpl	$9, %eax
	je	.LBB0_10
# %bb.26:                               # %ctrl9
	cmpl	$10, %eax
	je	.LBB0_11
# %bb.27:                               # %ctrl10
	cmpl	$11, %eax
	je	.LBB0_12
# %bb.28:                               # %ctrl11
	cmpl	$12, %eax
	je	.LBB0_13
# %bb.29:                               # %ctrl12
	cmpl	$13, %eax
	je	.LBB0_14
# %bb.30:                               # %ctrl13
	cmpl	$14, %eax
	je	.LBB0_15
	jmp	.LBB0_16
.Lfunc_end0:
	.size	refresh_neighbour_lists, .Lfunc_end0-refresh_neighbour_lists
	.cfi_endproc
                                        # -- End function
	.globl	refresh_potential       # -- Begin function refresh_potential
	.p2align	4, 0x90
	.type	refresh_potential,@function
refresh_potential:                      # @refresh_potential
	.cfi_startproc
# %bb.0:                                # %rand_bb
	pushq	%rbp
	.cfi_def_cfa_offset 16
	.cfi_offset %rbp, -16
	movq	%rsp, %rbp
	.cfi_def_cfa_register %rbp
	pushq	%rbx
	pushq	%rax
	.cfi_offset %rbx, -24
	movq	%rdi, %rbx
	callq	get_rand
	cmpl	$0, %eax
	jne	.LBB1_17
# %bb.1:                                # %func_refresh_potential.2
	movq	%rbx, %rdi
	callq	refresh_potential.2
	addq	$8, %rsp
	popq	%rbx
	popq	%rbp
	.cfi_def_cfa %rsp, 8
	retq
.LBB1_2:                                # %func_refresh_potential.17
	.cfi_def_cfa %rbp, 16
	movq	%rbx, %rdi
	callq	refresh_potential.17
	addq	$8, %rsp
	popq	%rbx
	popq	%rbp
	.cfi_def_cfa %rsp, 8
	retq
.LBB1_3:                                # %func_refresh_potential.28
	.cfi_def_cfa %rbp, 16
	movq	%rbx, %rdi
	callq	refresh_potential.28
	addq	$8, %rsp
	popq	%rbx
	popq	%rbp
	.cfi_def_cfa %rsp, 8
	retq
.LBB1_4:                                # %func_refresh_potential.30
	.cfi_def_cfa %rbp, 16
	movq	%rbx, %rdi
	callq	refresh_potential.30
	addq	$8, %rsp
	popq	%rbx
	popq	%rbp
	.cfi_def_cfa %rsp, 8
	retq
.LBB1_5:                                # %func_refresh_potential.34
	.cfi_def_cfa %rbp, 16
	movq	%rbx, %rdi
	callq	refresh_potential.34
	addq	$8, %rsp
	popq	%rbx
	popq	%rbp
	.cfi_def_cfa %rsp, 8
	retq
.LBB1_6:                                # %func_refresh_potential.35
	.cfi_def_cfa %rbp, 16
	movq	%rbx, %rdi
	callq	refresh_potential.35
	addq	$8, %rsp
	popq	%rbx
	popq	%rbp
	.cfi_def_cfa %rsp, 8
	retq
.LBB1_7:                                # %func_refresh_potential.50
	.cfi_def_cfa %rbp, 16
	movq	%rbx, %rdi
	callq	refresh_potential.50
	addq	$8, %rsp
	popq	%rbx
	popq	%rbp
	.cfi_def_cfa %rsp, 8
	retq
.LBB1_8:                                # %func_refresh_potential.56
	.cfi_def_cfa %rbp, 16
	movq	%rbx, %rdi
	callq	refresh_potential.56
	addq	$8, %rsp
	popq	%rbx
	popq	%rbp
	.cfi_def_cfa %rsp, 8
	retq
.LBB1_9:                                # %func_refresh_potential.65
	.cfi_def_cfa %rbp, 16
	movq	%rbx, %rdi
	callq	refresh_potential.65
	addq	$8, %rsp
	popq	%rbx
	popq	%rbp
	.cfi_def_cfa %rsp, 8
	retq
.LBB1_10:                               # %func_refresh_potential.70
	.cfi_def_cfa %rbp, 16
	movq	%rbx, %rdi
	callq	refresh_potential.70
	addq	$8, %rsp
	popq	%rbx
	popq	%rbp
	.cfi_def_cfa %rsp, 8
	retq
.LBB1_11:                               # %func_refresh_potential.82
	.cfi_def_cfa %rbp, 16
	movq	%rbx, %rdi
	callq	refresh_potential.82
	addq	$8, %rsp
	popq	%rbx
	popq	%rbp
	.cfi_def_cfa %rsp, 8
	retq
.LBB1_12:                               # %func_refresh_potential.88
	.cfi_def_cfa %rbp, 16
	movq	%rbx, %rdi
	callq	refresh_potential.88
	addq	$8, %rsp
	popq	%rbx
	popq	%rbp
	.cfi_def_cfa %rsp, 8
	retq
.LBB1_13:                               # %func_refresh_potential.93
	.cfi_def_cfa %rbp, 16
	movq	%rbx, %rdi
	callq	refresh_potential.93
	addq	$8, %rsp
	popq	%rbx
	popq	%rbp
	.cfi_def_cfa %rsp, 8
	retq
.LBB1_14:                               # %func_refresh_potential.94
	.cfi_def_cfa %rbp, 16
	movq	%rbx, %rdi
	callq	refresh_potential.94
	addq	$8, %rsp
	popq	%rbx
	popq	%rbp
	.cfi_def_cfa %rsp, 8
	retq
.LBB1_15:                               # %func_refresh_potential.95
	.cfi_def_cfa %rbp, 16
	movq	%rbx, %rdi
	callq	refresh_potential.95
	addq	$8, %rsp
	popq	%rbx
	popq	%rbp
	.cfi_def_cfa %rsp, 8
	retq
.LBB1_16:                               # %func_refresh_potential.96
	.cfi_def_cfa %rbp, 16
	movq	%rbx, %rdi
	callq	refresh_potential.96
	addq	$8, %rsp
	popq	%rbx
	popq	%rbp
	.cfi_def_cfa %rsp, 8
	retq
.LBB1_17:                               # %ctrl0
	.cfi_def_cfa %rbp, 16
	cmpl	$1, %eax
	je	.LBB1_2
# %bb.18:                               # %ctrl1
	cmpl	$2, %eax
	je	.LBB1_3
# %bb.19:                               # %ctrl2
	cmpl	$3, %eax
	je	.LBB1_4
# %bb.20:                               # %ctrl3
	cmpl	$4, %eax
	je	.LBB1_5
# %bb.21:                               # %ctrl4
	cmpl	$5, %eax
	je	.LBB1_6
# %bb.22:                               # %ctrl5
	cmpl	$6, %eax
	je	.LBB1_7
# %bb.23:                               # %ctrl6
	cmpl	$7, %eax
	je	.LBB1_8
# %bb.24:                               # %ctrl7
	cmpl	$8, %eax
	je	.LBB1_9
# %bb.25:                               # %ctrl8
	cmpl	$9, %eax
	je	.LBB1_10
# %bb.26:                               # %ctrl9
	cmpl	$10, %eax
	je	.LBB1_11
# %bb.27:                               # %ctrl10
	cmpl	$11, %eax
	je	.LBB1_12
# %bb.28:                               # %ctrl11
	cmpl	$12, %eax
	je	.LBB1_13
# %bb.29:                               # %ctrl12
	cmpl	$13, %eax
	je	.LBB1_14
# %bb.30:                               # %ctrl13
	cmpl	$14, %eax
	je	.LBB1_15
	jmp	.LBB1_16
.Lfunc_end1:
	.size	refresh_potential, .Lfunc_end1-refresh_potential
	.cfi_endproc
                                        # -- End function
	.globl	flow_cost               # -- Begin function flow_cost
	.p2align	4, 0x90
	.type	flow_cost,@function
flow_cost:                              # @flow_cost
	.cfi_startproc
# %bb.0:                                # %rand_bb
	pushq	%rbp
	.cfi_def_cfa_offset 16
	.cfi_offset %rbp, -16
	movq	%rsp, %rbp
	.cfi_def_cfa_register %rbp
	pushq	%rbx
	pushq	%rax
	.cfi_offset %rbx, -24
	movq	%rdi, %rbx
	callq	get_rand
	cmpl	$0, %eax
	jne	.LBB2_17
# %bb.1:                                # %func_flow_cost.9
	movq	%rbx, %rdi
	callq	flow_cost.9
	addq	$8, %rsp
	popq	%rbx
	popq	%rbp
	.cfi_def_cfa %rsp, 8
	retq
.LBB2_2:                                # %func_flow_cost.12
	.cfi_def_cfa %rbp, 16
	movq	%rbx, %rdi
	callq	flow_cost.12
	addq	$8, %rsp
	popq	%rbx
	popq	%rbp
	.cfi_def_cfa %rsp, 8
	retq
.LBB2_3:                                # %func_flow_cost.25
	.cfi_def_cfa %rbp, 16
	movq	%rbx, %rdi
	callq	flow_cost.25
	addq	$8, %rsp
	popq	%rbx
	popq	%rbp
	.cfi_def_cfa %rsp, 8
	retq
.LBB2_4:                                # %func_flow_cost.26
	.cfi_def_cfa %rbp, 16
	movq	%rbx, %rdi
	callq	flow_cost.26
	addq	$8, %rsp
	popq	%rbx
	popq	%rbp
	.cfi_def_cfa %rsp, 8
	retq
.LBB2_5:                                # %func_flow_cost.40
	.cfi_def_cfa %rbp, 16
	movq	%rbx, %rdi
	callq	flow_cost.40
	addq	$8, %rsp
	popq	%rbx
	popq	%rbp
	.cfi_def_cfa %rsp, 8
	retq
.LBB2_6:                                # %func_flow_cost.41
	.cfi_def_cfa %rbp, 16
	movq	%rbx, %rdi
	callq	flow_cost.41
	addq	$8, %rsp
	popq	%rbx
	popq	%rbp
	.cfi_def_cfa %rsp, 8
	retq
.LBB2_7:                                # %func_flow_cost.51
	.cfi_def_cfa %rbp, 16
	movq	%rbx, %rdi
	callq	flow_cost.51
	addq	$8, %rsp
	popq	%rbx
	popq	%rbp
	.cfi_def_cfa %rsp, 8
	retq
.LBB2_8:                                # %func_flow_cost.57
	.cfi_def_cfa %rbp, 16
	movq	%rbx, %rdi
	callq	flow_cost.57
	addq	$8, %rsp
	popq	%rbx
	popq	%rbp
	.cfi_def_cfa %rsp, 8
	retq
.LBB2_9:                                # %func_flow_cost.59
	.cfi_def_cfa %rbp, 16
	movq	%rbx, %rdi
	callq	flow_cost.59
	addq	$8, %rsp
	popq	%rbx
	popq	%rbp
	.cfi_def_cfa %rsp, 8
	retq
.LBB2_10:                               # %func_flow_cost.61
	.cfi_def_cfa %rbp, 16
	movq	%rbx, %rdi
	callq	flow_cost.61
	addq	$8, %rsp
	popq	%rbx
	popq	%rbp
	.cfi_def_cfa %rsp, 8
	retq
.LBB2_11:                               # %func_flow_cost.66
	.cfi_def_cfa %rbp, 16
	movq	%rbx, %rdi
	callq	flow_cost.66
	addq	$8, %rsp
	popq	%rbx
	popq	%rbp
	.cfi_def_cfa %rsp, 8
	retq
.LBB2_12:                               # %func_flow_cost.68
	.cfi_def_cfa %rbp, 16
	movq	%rbx, %rdi
	callq	flow_cost.68
	addq	$8, %rsp
	popq	%rbx
	popq	%rbp
	.cfi_def_cfa %rsp, 8
	retq
.LBB2_13:                               # %func_flow_cost.71
	.cfi_def_cfa %rbp, 16
	movq	%rbx, %rdi
	callq	flow_cost.71
	addq	$8, %rsp
	popq	%rbx
	popq	%rbp
	.cfi_def_cfa %rsp, 8
	retq
.LBB2_14:                               # %func_flow_cost.73
	.cfi_def_cfa %rbp, 16
	movq	%rbx, %rdi
	callq	flow_cost.73
	addq	$8, %rsp
	popq	%rbx
	popq	%rbp
	.cfi_def_cfa %rsp, 8
	retq
.LBB2_15:                               # %func_flow_cost.78
	.cfi_def_cfa %rbp, 16
	movq	%rbx, %rdi
	callq	flow_cost.78
	addq	$8, %rsp
	popq	%rbx
	popq	%rbp
	.cfi_def_cfa %rsp, 8
	retq
.LBB2_16:                               # %func_flow_cost.83
	.cfi_def_cfa %rbp, 16
	movq	%rbx, %rdi
	callq	flow_cost.83
	addq	$8, %rsp
	popq	%rbx
	popq	%rbp
	.cfi_def_cfa %rsp, 8
	retq
.LBB2_17:                               # %ctrl0
	.cfi_def_cfa %rbp, 16
	cmpl	$1, %eax
	je	.LBB2_2
# %bb.18:                               # %ctrl1
	cmpl	$2, %eax
	je	.LBB2_3
# %bb.19:                               # %ctrl2
	cmpl	$3, %eax
	je	.LBB2_4
# %bb.20:                               # %ctrl3
	cmpl	$4, %eax
	je	.LBB2_5
# %bb.21:                               # %ctrl4
	cmpl	$5, %eax
	je	.LBB2_6
# %bb.22:                               # %ctrl5
	cmpl	$6, %eax
	je	.LBB2_7
# %bb.23:                               # %ctrl6
	cmpl	$7, %eax
	je	.LBB2_8
# %bb.24:                               # %ctrl7
	cmpl	$8, %eax
	je	.LBB2_9
# %bb.25:                               # %ctrl8
	cmpl	$9, %eax
	je	.LBB2_10
# %bb.26:                               # %ctrl9
	cmpl	$10, %eax
	je	.LBB2_11
# %bb.27:                               # %ctrl10
	cmpl	$11, %eax
	je	.LBB2_12
# %bb.28:                               # %ctrl11
	cmpl	$12, %eax
	je	.LBB2_13
# %bb.29:                               # %ctrl12
	cmpl	$13, %eax
	je	.LBB2_14
# %bb.30:                               # %ctrl13
	cmpl	$14, %eax
	je	.LBB2_15
	jmp	.LBB2_16
.Lfunc_end2:
	.size	flow_cost, .Lfunc_end2-flow_cost
	.cfi_endproc
                                        # -- End function
	.globl	flow_org_cost           # -- Begin function flow_org_cost
	.p2align	4, 0x90
	.type	flow_org_cost,@function
flow_org_cost:                          # @flow_org_cost
	.cfi_startproc
# %bb.0:                                # %rand_bb
	pushq	%rbp
	.cfi_def_cfa_offset 16
	.cfi_offset %rbp, -16
	movq	%rsp, %rbp
	.cfi_def_cfa_register %rbp
	pushq	%rbx
	pushq	%rax
	.cfi_offset %rbx, -24
	movq	%rdi, %rbx
	callq	get_rand
	cmpl	$0, %eax
	jne	.LBB3_17
# %bb.1:                                # %func_flow_org_cost.3
	movq	%rbx, %rdi
	callq	flow_org_cost.3
	addq	$8, %rsp
	popq	%rbx
	popq	%rbp
	.cfi_def_cfa %rsp, 8
	retq
.LBB3_2:                                # %func_flow_org_cost.4
	.cfi_def_cfa %rbp, 16
	movq	%rbx, %rdi
	callq	flow_org_cost.4
	addq	$8, %rsp
	popq	%rbx
	popq	%rbp
	.cfi_def_cfa %rsp, 8
	retq
.LBB3_3:                                # %func_flow_org_cost.7
	.cfi_def_cfa %rbp, 16
	movq	%rbx, %rdi
	callq	flow_org_cost.7
	addq	$8, %rsp
	popq	%rbx
	popq	%rbp
	.cfi_def_cfa %rsp, 8
	retq
.LBB3_4:                                # %func_flow_org_cost.11
	.cfi_def_cfa %rbp, 16
	movq	%rbx, %rdi
	callq	flow_org_cost.11
	addq	$8, %rsp
	popq	%rbx
	popq	%rbp
	.cfi_def_cfa %rsp, 8
	retq
.LBB3_5:                                # %func_flow_org_cost.14
	.cfi_def_cfa %rbp, 16
	movq	%rbx, %rdi
	callq	flow_org_cost.14
	addq	$8, %rsp
	popq	%rbx
	popq	%rbp
	.cfi_def_cfa %rsp, 8
	retq
.LBB3_6:                                # %func_flow_org_cost.16
	.cfi_def_cfa %rbp, 16
	movq	%rbx, %rdi
	callq	flow_org_cost.16
	addq	$8, %rsp
	popq	%rbx
	popq	%rbp
	.cfi_def_cfa %rsp, 8
	retq
.LBB3_7:                                # %func_flow_org_cost.20
	.cfi_def_cfa %rbp, 16
	movq	%rbx, %rdi
	callq	flow_org_cost.20
	addq	$8, %rsp
	popq	%rbx
	popq	%rbp
	.cfi_def_cfa %rsp, 8
	retq
.LBB3_8:                                # %func_flow_org_cost.38
	.cfi_def_cfa %rbp, 16
	movq	%rbx, %rdi
	callq	flow_org_cost.38
	addq	$8, %rsp
	popq	%rbx
	popq	%rbp
	.cfi_def_cfa %rsp, 8
	retq
.LBB3_9:                                # %func_flow_org_cost.39
	.cfi_def_cfa %rbp, 16
	movq	%rbx, %rdi
	callq	flow_org_cost.39
	addq	$8, %rsp
	popq	%rbx
	popq	%rbp
	.cfi_def_cfa %rsp, 8
	retq
.LBB3_10:                               # %func_flow_org_cost.46
	.cfi_def_cfa %rbp, 16
	movq	%rbx, %rdi
	callq	flow_org_cost.46
	addq	$8, %rsp
	popq	%rbx
	popq	%rbp
	.cfi_def_cfa %rsp, 8
	retq
.LBB3_11:                               # %func_flow_org_cost.47
	.cfi_def_cfa %rbp, 16
	movq	%rbx, %rdi
	callq	flow_org_cost.47
	addq	$8, %rsp
	popq	%rbx
	popq	%rbp
	.cfi_def_cfa %rsp, 8
	retq
.LBB3_12:                               # %func_flow_org_cost.49
	.cfi_def_cfa %rbp, 16
	movq	%rbx, %rdi
	callq	flow_org_cost.49
	addq	$8, %rsp
	popq	%rbx
	popq	%rbp
	.cfi_def_cfa %rsp, 8
	retq
.LBB3_13:                               # %func_flow_org_cost.55
	.cfi_def_cfa %rbp, 16
	movq	%rbx, %rdi
	callq	flow_org_cost.55
	addq	$8, %rsp
	popq	%rbx
	popq	%rbp
	.cfi_def_cfa %rsp, 8
	retq
.LBB3_14:                               # %func_flow_org_cost.58
	.cfi_def_cfa %rbp, 16
	movq	%rbx, %rdi
	callq	flow_org_cost.58
	addq	$8, %rsp
	popq	%rbx
	popq	%rbp
	.cfi_def_cfa %rsp, 8
	retq
.LBB3_15:                               # %func_flow_org_cost.60
	.cfi_def_cfa %rbp, 16
	movq	%rbx, %rdi
	callq	flow_org_cost.60
	addq	$8, %rsp
	popq	%rbx
	popq	%rbp
	.cfi_def_cfa %rsp, 8
	retq
.LBB3_16:                               # %func_flow_org_cost.63
	.cfi_def_cfa %rbp, 16
	movq	%rbx, %rdi
	callq	flow_org_cost.63
	addq	$8, %rsp
	popq	%rbx
	popq	%rbp
	.cfi_def_cfa %rsp, 8
	retq
.LBB3_17:                               # %ctrl0
	.cfi_def_cfa %rbp, 16
	cmpl	$1, %eax
	je	.LBB3_2
# %bb.18:                               # %ctrl1
	cmpl	$2, %eax
	je	.LBB3_3
# %bb.19:                               # %ctrl2
	cmpl	$3, %eax
	je	.LBB3_4
# %bb.20:                               # %ctrl3
	cmpl	$4, %eax
	je	.LBB3_5
# %bb.21:                               # %ctrl4
	cmpl	$5, %eax
	je	.LBB3_6
# %bb.22:                               # %ctrl5
	cmpl	$6, %eax
	je	.LBB3_7
# %bb.23:                               # %ctrl6
	cmpl	$7, %eax
	je	.LBB3_8
# %bb.24:                               # %ctrl7
	cmpl	$8, %eax
	je	.LBB3_9
# %bb.25:                               # %ctrl8
	cmpl	$9, %eax
	je	.LBB3_10
# %bb.26:                               # %ctrl9
	cmpl	$10, %eax
	je	.LBB3_11
# %bb.27:                               # %ctrl10
	cmpl	$11, %eax
	je	.LBB3_12
# %bb.28:                               # %ctrl11
	cmpl	$12, %eax
	je	.LBB3_13
# %bb.29:                               # %ctrl12
	cmpl	$13, %eax
	je	.LBB3_14
# %bb.30:                               # %ctrl13
	cmpl	$14, %eax
	je	.LBB3_15
	jmp	.LBB3_16
.Lfunc_end3:
	.size	flow_org_cost, .Lfunc_end3-flow_org_cost
	.cfi_endproc
                                        # -- End function
	.globl	primal_feasible         # -- Begin function primal_feasible
	.p2align	4, 0x90
	.type	primal_feasible,@function
primal_feasible:                        # @primal_feasible
	.cfi_startproc
# %bb.0:                                # %rand_bb
	pushq	%rbp
	.cfi_def_cfa_offset 16
	.cfi_offset %rbp, -16
	movq	%rsp, %rbp
	.cfi_def_cfa_register %rbp
	pushq	%rbx
	pushq	%rax
	.cfi_offset %rbx, -24
	movq	%rdi, %rbx
	callq	get_rand
	cmpl	$0, %eax
	jne	.LBB4_17
# %bb.1:                                # %func_primal_feasible.31
	movq	%rbx, %rdi
	callq	primal_feasible.31
	addq	$8, %rsp
	popq	%rbx
	popq	%rbp
	.cfi_def_cfa %rsp, 8
	retq
.LBB4_2:                                # %func_primal_feasible.43
	.cfi_def_cfa %rbp, 16
	movq	%rbx, %rdi
	callq	primal_feasible.43
	addq	$8, %rsp
	popq	%rbx
	popq	%rbp
	.cfi_def_cfa %rsp, 8
	retq
.LBB4_3:                                # %func_primal_feasible.45
	.cfi_def_cfa %rbp, 16
	movq	%rbx, %rdi
	callq	primal_feasible.45
	addq	$8, %rsp
	popq	%rbx
	popq	%rbp
	.cfi_def_cfa %rsp, 8
	retq
.LBB4_4:                                # %func_primal_feasible.62
	.cfi_def_cfa %rbp, 16
	movq	%rbx, %rdi
	callq	primal_feasible.62
	addq	$8, %rsp
	popq	%rbx
	popq	%rbp
	.cfi_def_cfa %rsp, 8
	retq
.LBB4_5:                                # %func_primal_feasible.67
	.cfi_def_cfa %rbp, 16
	movq	%rbx, %rdi
	callq	primal_feasible.67
	addq	$8, %rsp
	popq	%rbx
	popq	%rbp
	.cfi_def_cfa %rsp, 8
	retq
.LBB4_6:                                # %func_primal_feasible.69
	.cfi_def_cfa %rbp, 16
	movq	%rbx, %rdi
	callq	primal_feasible.69
	addq	$8, %rsp
	popq	%rbx
	popq	%rbp
	.cfi_def_cfa %rsp, 8
	retq
.LBB4_7:                                # %func_primal_feasible.75
	.cfi_def_cfa %rbp, 16
	movq	%rbx, %rdi
	callq	primal_feasible.75
	addq	$8, %rsp
	popq	%rbx
	popq	%rbp
	.cfi_def_cfa %rsp, 8
	retq
.LBB4_8:                                # %func_primal_feasible.76
	.cfi_def_cfa %rbp, 16
	movq	%rbx, %rdi
	callq	primal_feasible.76
	addq	$8, %rsp
	popq	%rbx
	popq	%rbp
	.cfi_def_cfa %rsp, 8
	retq
.LBB4_9:                                # %func_primal_feasible.77
	.cfi_def_cfa %rbp, 16
	movq	%rbx, %rdi
	callq	primal_feasible.77
	addq	$8, %rsp
	popq	%rbx
	popq	%rbp
	.cfi_def_cfa %rsp, 8
	retq
.LBB4_10:                               # %func_primal_feasible.79
	.cfi_def_cfa %rbp, 16
	movq	%rbx, %rdi
	callq	primal_feasible.79
	addq	$8, %rsp
	popq	%rbx
	popq	%rbp
	.cfi_def_cfa %rsp, 8
	retq
.LBB4_11:                               # %func_primal_feasible.81
	.cfi_def_cfa %rbp, 16
	movq	%rbx, %rdi
	callq	primal_feasible.81
	addq	$8, %rsp
	popq	%rbx
	popq	%rbp
	.cfi_def_cfa %rsp, 8
	retq
.LBB4_12:                               # %func_primal_feasible.84
	.cfi_def_cfa %rbp, 16
	movq	%rbx, %rdi
	callq	primal_feasible.84
	addq	$8, %rsp
	popq	%rbx
	popq	%rbp
	.cfi_def_cfa %rsp, 8
	retq
.LBB4_13:                               # %func_primal_feasible.89
	.cfi_def_cfa %rbp, 16
	movq	%rbx, %rdi
	callq	primal_feasible.89
	addq	$8, %rsp
	popq	%rbx
	popq	%rbp
	.cfi_def_cfa %rsp, 8
	retq
.LBB4_14:                               # %func_primal_feasible.90
	.cfi_def_cfa %rbp, 16
	movq	%rbx, %rdi
	callq	primal_feasible.90
	addq	$8, %rsp
	popq	%rbx
	popq	%rbp
	.cfi_def_cfa %rsp, 8
	retq
.LBB4_15:                               # %func_primal_feasible.91
	.cfi_def_cfa %rbp, 16
	movq	%rbx, %rdi
	callq	primal_feasible.91
	addq	$8, %rsp
	popq	%rbx
	popq	%rbp
	.cfi_def_cfa %rsp, 8
	retq
.LBB4_16:                               # %func_primal_feasible.92
	.cfi_def_cfa %rbp, 16
	movq	%rbx, %rdi
	callq	primal_feasible.92
	addq	$8, %rsp
	popq	%rbx
	popq	%rbp
	.cfi_def_cfa %rsp, 8
	retq
.LBB4_17:                               # %ctrl0
	.cfi_def_cfa %rbp, 16
	cmpl	$1, %eax
	je	.LBB4_2
# %bb.18:                               # %ctrl1
	cmpl	$2, %eax
	je	.LBB4_3
# %bb.19:                               # %ctrl2
	cmpl	$3, %eax
	je	.LBB4_4
# %bb.20:                               # %ctrl3
	cmpl	$4, %eax
	je	.LBB4_5
# %bb.21:                               # %ctrl4
	cmpl	$5, %eax
	je	.LBB4_6
# %bb.22:                               # %ctrl5
	cmpl	$6, %eax
	je	.LBB4_7
# %bb.23:                               # %ctrl6
	cmpl	$7, %eax
	je	.LBB4_8
# %bb.24:                               # %ctrl7
	cmpl	$8, %eax
	je	.LBB4_9
# %bb.25:                               # %ctrl8
	cmpl	$9, %eax
	je	.LBB4_10
# %bb.26:                               # %ctrl9
	cmpl	$10, %eax
	je	.LBB4_11
# %bb.27:                               # %ctrl10
	cmpl	$11, %eax
	je	.LBB4_12
# %bb.28:                               # %ctrl11
	cmpl	$12, %eax
	je	.LBB4_13
# %bb.29:                               # %ctrl12
	cmpl	$13, %eax
	je	.LBB4_14
# %bb.30:                               # %ctrl13
	cmpl	$14, %eax
	je	.LBB4_15
	jmp	.LBB4_16
.Lfunc_end4:
	.size	primal_feasible, .Lfunc_end4-primal_feasible
	.cfi_endproc
                                        # -- End function
	.globl	dual_feasible           # -- Begin function dual_feasible
	.p2align	4, 0x90
	.type	dual_feasible,@function
dual_feasible:                          # @dual_feasible
	.cfi_startproc
# %bb.0:                                # %rand_bb
	pushq	%rbp
	.cfi_def_cfa_offset 16
	.cfi_offset %rbp, -16
	movq	%rsp, %rbp
	.cfi_def_cfa_register %rbp
	pushq	%rbx
	pushq	%rax
	.cfi_offset %rbx, -24
	movq	%rdi, %rbx
	callq	get_rand
	cmpl	$0, %eax
	jne	.LBB5_17
# %bb.1:                                # %func_dual_feasible.5
	movq	%rbx, %rdi
	callq	dual_feasible.5
	addq	$8, %rsp
	popq	%rbx
	popq	%rbp
	.cfi_def_cfa %rsp, 8
	retq
.LBB5_2:                                # %func_dual_feasible.8
	.cfi_def_cfa %rbp, 16
	movq	%rbx, %rdi
	callq	dual_feasible.8
	addq	$8, %rsp
	popq	%rbx
	popq	%rbp
	.cfi_def_cfa %rsp, 8
	retq
.LBB5_3:                                # %func_dual_feasible.10
	.cfi_def_cfa %rbp, 16
	movq	%rbx, %rdi
	callq	dual_feasible.10
	addq	$8, %rsp
	popq	%rbx
	popq	%rbp
	.cfi_def_cfa %rsp, 8
	retq
.LBB5_4:                                # %func_dual_feasible.15
	.cfi_def_cfa %rbp, 16
	movq	%rbx, %rdi
	callq	dual_feasible.15
	addq	$8, %rsp
	popq	%rbx
	popq	%rbp
	.cfi_def_cfa %rsp, 8
	retq
.LBB5_5:                                # %func_dual_feasible.21
	.cfi_def_cfa %rbp, 16
	movq	%rbx, %rdi
	callq	dual_feasible.21
	addq	$8, %rsp
	popq	%rbx
	popq	%rbp
	.cfi_def_cfa %rsp, 8
	retq
.LBB5_6:                                # %func_dual_feasible.22
	.cfi_def_cfa %rbp, 16
	movq	%rbx, %rdi
	callq	dual_feasible.22
	addq	$8, %rsp
	popq	%rbx
	popq	%rbp
	.cfi_def_cfa %rsp, 8
	retq
.LBB5_7:                                # %func_dual_feasible.23
	.cfi_def_cfa %rbp, 16
	movq	%rbx, %rdi
	callq	dual_feasible.23
	addq	$8, %rsp
	popq	%rbx
	popq	%rbp
	.cfi_def_cfa %rsp, 8
	retq
.LBB5_8:                                # %func_dual_feasible.24
	.cfi_def_cfa %rbp, 16
	movq	%rbx, %rdi
	callq	dual_feasible.24
	addq	$8, %rsp
	popq	%rbx
	popq	%rbp
	.cfi_def_cfa %rsp, 8
	retq
.LBB5_9:                                # %func_dual_feasible.27
	.cfi_def_cfa %rbp, 16
	movq	%rbx, %rdi
	callq	dual_feasible.27
	addq	$8, %rsp
	popq	%rbx
	popq	%rbp
	.cfi_def_cfa %rsp, 8
	retq
.LBB5_10:                               # %func_dual_feasible.48
	.cfi_def_cfa %rbp, 16
	movq	%rbx, %rdi
	callq	dual_feasible.48
	addq	$8, %rsp
	popq	%rbx
	popq	%rbp
	.cfi_def_cfa %rsp, 8
	retq
.LBB5_11:                               # %func_dual_feasible.64
	.cfi_def_cfa %rbp, 16
	movq	%rbx, %rdi
	callq	dual_feasible.64
	addq	$8, %rsp
	popq	%rbx
	popq	%rbp
	.cfi_def_cfa %rsp, 8
	retq
.LBB5_12:                               # %func_dual_feasible.74
	.cfi_def_cfa %rbp, 16
	movq	%rbx, %rdi
	callq	dual_feasible.74
	addq	$8, %rsp
	popq	%rbx
	popq	%rbp
	.cfi_def_cfa %rsp, 8
	retq
.LBB5_13:                               # %func_dual_feasible.80
	.cfi_def_cfa %rbp, 16
	movq	%rbx, %rdi
	callq	dual_feasible.80
	addq	$8, %rsp
	popq	%rbx
	popq	%rbp
	.cfi_def_cfa %rsp, 8
	retq
.LBB5_14:                               # %func_dual_feasible.85
	.cfi_def_cfa %rbp, 16
	movq	%rbx, %rdi
	callq	dual_feasible.85
	addq	$8, %rsp
	popq	%rbx
	popq	%rbp
	.cfi_def_cfa %rsp, 8
	retq
.LBB5_15:                               # %func_dual_feasible.86
	.cfi_def_cfa %rbp, 16
	movq	%rbx, %rdi
	callq	dual_feasible.86
	addq	$8, %rsp
	popq	%rbx
	popq	%rbp
	.cfi_def_cfa %rsp, 8
	retq
.LBB5_16:                               # %func_dual_feasible.87
	.cfi_def_cfa %rbp, 16
	movq	%rbx, %rdi
	callq	dual_feasible.87
	addq	$8, %rsp
	popq	%rbx
	popq	%rbp
	.cfi_def_cfa %rsp, 8
	retq
.LBB5_17:                               # %ctrl0
	.cfi_def_cfa %rbp, 16
	cmpl	$1, %eax
	je	.LBB5_2
# %bb.18:                               # %ctrl1
	cmpl	$2, %eax
	je	.LBB5_3
# %bb.19:                               # %ctrl2
	cmpl	$3, %eax
	je	.LBB5_4
# %bb.20:                               # %ctrl3
	cmpl	$4, %eax
	je	.LBB5_5
# %bb.21:                               # %ctrl4
	cmpl	$5, %eax
	je	.LBB5_6
# %bb.22:                               # %ctrl5
	cmpl	$6, %eax
	je	.LBB5_7
# %bb.23:                               # %ctrl6
	cmpl	$7, %eax
	je	.LBB5_8
# %bb.24:                               # %ctrl7
	cmpl	$8, %eax
	je	.LBB5_9
# %bb.25:                               # %ctrl8
	cmpl	$9, %eax
	je	.LBB5_10
# %bb.26:                               # %ctrl9
	cmpl	$10, %eax
	je	.LBB5_11
# %bb.27:                               # %ctrl10
	cmpl	$11, %eax
	je	.LBB5_12
# %bb.28:                               # %ctrl11
	cmpl	$12, %eax
	je	.LBB5_13
# %bb.29:                               # %ctrl12
	cmpl	$13, %eax
	je	.LBB5_14
# %bb.30:                               # %ctrl13
	cmpl	$14, %eax
	je	.LBB5_15
	jmp	.LBB5_16
.Lfunc_end5:
	.size	dual_feasible, .Lfunc_end5-dual_feasible
	.cfi_endproc
                                        # -- End function
	.globl	getfree                 # -- Begin function getfree
	.p2align	4, 0x90
	.type	getfree,@function
getfree:                                # @getfree
	.cfi_startproc
# %bb.0:                                # %entry
	pushq	%rbp
	.cfi_def_cfa_offset 16
	.cfi_offset %rbp, -16
	movq	%rsp, %rbp
	.cfi_def_cfa_register %rbp
	subq	$16, %rsp
	movq	%rdi, -8(%rbp)
	movq	-8(%rbp), %rax
	cmpq	$0, 552(%rax)
	je	.LBB6_2
# %bb.1:                                # %if.then
	movq	-8(%rbp), %rax
	movq	552(%rax), %rdi
	callq	free
.LBB6_2:                                # %if.end
	movq	-8(%rbp), %rax
	cmpq	$0, 568(%rax)
	je	.LBB6_4
# %bb.3:                                # %if.then3
	movq	-8(%rbp), %rax
	movq	568(%rax), %rdi
	callq	free
.LBB6_4:                                # %if.end5
	movq	-8(%rbp), %rax
	cmpq	$0, 584(%rax)
	je	.LBB6_6
# %bb.5:                                # %if.then7
	movq	-8(%rbp), %rax
	movq	584(%rax), %rdi
	callq	free
.LBB6_6:                                # %if.end9
	movq	-8(%rbp), %rax
	movq	$0, 560(%rax)
	movq	-8(%rbp), %rax
	movq	$0, 552(%rax)
	movq	-8(%rbp), %rax
	movq	$0, 576(%rax)
	movq	-8(%rbp), %rax
	movq	$0, 568(%rax)
	movq	-8(%rbp), %rax
	movq	$0, 592(%rax)
	movq	-8(%rbp), %rax
	movq	$0, 584(%rax)
	xorl	%eax, %eax
	addq	$16, %rsp
	popq	%rbp
	.cfi_def_cfa %rsp, 8
	retq
.Lfunc_end6:
	.size	getfree, .Lfunc_end6-getfree
	.cfi_endproc
                                        # -- End function
	.globl	refresh_neighbour_lists.1 # -- Begin function refresh_neighbour_lists.1
	.p2align	4, 0x90
	.type	refresh_neighbour_lists.1,@function
refresh_neighbour_lists.1:              # @refresh_neighbour_lists.1
	.cfi_startproc
# %bb.0:                                # %entry
	pushq	%rbp
	.cfi_def_cfa_offset 16
	.cfi_offset %rbp, -16
	movq	%rsp, %rbp
	.cfi_def_cfa_register %rbp
	subq	$48, %rsp
	movl	$1762218922, -36(%rbp)  # imm = 0x690953AA
	movq	%rdi, -24(%rbp)
	movq	-24(%rbp), %rax
	movq	552(%rax), %rax
	movq	%rax, -16(%rbp)
	movq	-24(%rbp), %rax
	movq	560(%rax), %rax
	movq	%rax, -32(%rbp)
.LBB7_1:                                # %for.cond
                                        # =>This Inner Loop Header: Depth=1
	movq	-16(%rbp), %rax
	movq	-32(%rbp), %rcx
	cmpq	%rcx, %rax
	jae	.LBB7_4
# %bb.2:                                # %for.body
                                        #   in Loop: Header=BB7_1 Depth=1
	movq	-16(%rbp), %rax
	movq	$0, 64(%rax)
	movq	-16(%rbp), %rax
	movq	$0, 56(%rax)
# %bb.3:                                # %for.inc
                                        #   in Loop: Header=BB7_1 Depth=1
	movq	-16(%rbp), %rax
	addq	$104, %rax
	movq	%rax, -16(%rbp)
	jmp	.LBB7_1
.LBB7_4:                                # %for.end
	movq	-24(%rbp), %rax
	movq	568(%rax), %rax
	movq	%rax, -8(%rbp)
	movq	-24(%rbp), %rax
	movq	576(%rax), %rax
	movq	%rax, -32(%rbp)
.LBB7_5:                                # %for.cond1
                                        # =>This Inner Loop Header: Depth=1
	movq	-8(%rbp), %rax
	movq	-32(%rbp), %rcx
	cmpq	%rcx, %rax
	jae	.LBB7_8
# %bb.6:                                # %for.body3
                                        #   in Loop: Header=BB7_5 Depth=1
	movq	-8(%rbp), %rax
	movq	8(%rax), %rax
	movq	56(%rax), %rax
	movq	-8(%rbp), %rcx
	movq	%rax, 32(%rcx)
	movq	-8(%rbp), %rax
	movq	-8(%rbp), %rcx
	movq	8(%rcx), %rcx
	movq	%rax, 56(%rcx)
	movq	-8(%rbp), %rax
	movq	16(%rax), %rax
	movq	64(%rax), %rax
	movq	-8(%rbp), %rcx
	movq	%rax, 40(%rcx)
	movq	-8(%rbp), %rax
	movq	-8(%rbp), %rcx
	movq	16(%rcx), %rcx
	movq	%rax, 64(%rcx)
# %bb.7:                                # %for.inc10
                                        #   in Loop: Header=BB7_5 Depth=1
	movq	-8(%rbp), %rax
	addq	$64, %rax
	movq	%rax, -8(%rbp)
	jmp	.LBB7_5
.LBB7_8:                                # %for.end12
	cmpl	$1762218922, -36(%rbp)  # imm = 0x690953AA
	jne	.LBB7_10
.LBB7_9:
	addq	$48, %rsp
	popq	%rbp
	.cfi_def_cfa %rsp, 8
	retq
.LBB7_10:                               # %func_exit
	.cfi_def_cfa %rbp, 16
	callq	detect_breach
	jmp	.LBB7_9
.Lfunc_end7:
	.size	refresh_neighbour_lists.1, .Lfunc_end7-refresh_neighbour_lists.1
	.cfi_endproc
                                        # -- End function
	.globl	refresh_potential.2     # -- Begin function refresh_potential.2
	.p2align	4, 0x90
	.type	refresh_potential.2,@function
refresh_potential.2:                    # @refresh_potential.2
	.cfi_startproc
# %bb.0:                                # %entry
	pushq	%rbp
	.cfi_def_cfa_offset 16
	.cfi_offset %rbp, -16
	movq	%rsp, %rbp
	.cfi_def_cfa_register %rbp
	pushq	%rbx
	subq	$56, %rsp
	.cfi_offset %rbx, -24
	movl	$446253048, -44(%rbp)   # imm = 0x1A9947F8
	movq	%rdi, -56(%rbp)
	movq	-56(%rbp), %rax
	movq	552(%rax), %rax
	movq	%rax, -40(%rbp)
	movq	$0, -32(%rbp)
	movq	-40(%rbp), %rax
	movq	$-100000000, (%rax)     # imm = 0xFA0A1F00
	movq	-40(%rbp), %rax
	movq	16(%rax), %rax
	movq	%rax, -16(%rbp)
	movq	%rax, -24(%rbp)
.LBB8_1:                                # %while.cond
                                        # =>This Loop Header: Depth=1
                                        #     Child Loop BB8_3 Depth 2
                                        #     Child Loop BB8_9 Depth 2
	movq	-16(%rbp), %rax
	cmpq	-40(%rbp), %rax
	je	.LBB8_16
# %bb.2:                                # %while.body
                                        #   in Loop: Header=BB8_1 Depth=1
	jmp	.LBB8_3
.LBB8_3:                                # %while.cond1
                                        #   Parent Loop BB8_1 Depth=1
                                        # =>  This Inner Loop Header: Depth=2
	cmpq	$0, -16(%rbp)
	je	.LBB8_8
# %bb.4:                                # %while.body2
                                        #   in Loop: Header=BB8_3 Depth=2
	movq	-16(%rbp), %rax
	cmpl	$1, 8(%rax)
	jne	.LBB8_6
# %bb.5:                                # %if.then
                                        #   in Loop: Header=BB8_3 Depth=2
	movq	-16(%rbp), %rax
	movq	48(%rax), %rax
	movq	(%rax), %rax
	movq	-16(%rbp), %rcx
	movq	24(%rcx), %rcx
	addq	(%rcx), %rax
	movq	-16(%rbp), %rcx
	movq	%rax, (%rcx)
	jmp	.LBB8_7
.LBB8_6:                                # %if.else
                                        #   in Loop: Header=BB8_3 Depth=2
	movq	-16(%rbp), %rax
	movq	24(%rax), %rax
	movq	(%rax), %rax
	movq	-16(%rbp), %rcx
	movq	48(%rcx), %rcx
	subq	(%rcx), %rax
	movq	-16(%rbp), %rcx
	movq	%rax, (%rcx)
	movq	-32(%rbp), %rax
	addq	$1, %rax
	movq	%rax, -32(%rbp)
.LBB8_7:                                # %if.end
                                        #   in Loop: Header=BB8_3 Depth=2
	movq	-16(%rbp), %rax
	movq	%rax, -24(%rbp)
	movq	-16(%rbp), %rax
	movq	16(%rax), %rax
	movq	%rax, -16(%rbp)
	jmp	.LBB8_3
.LBB8_8:                                # %while.end
                                        #   in Loop: Header=BB8_1 Depth=1
	movq	-24(%rbp), %rax
	movq	%rax, -16(%rbp)
.LBB8_9:                                # %while.cond12
                                        #   Parent Loop BB8_1 Depth=1
                                        # =>  This Inner Loop Header: Depth=2
	movq	-16(%rbp), %rax
	cmpq	$0, 24(%rax)
	je	.LBB8_14
# %bb.10:                               # %while.body15
                                        #   in Loop: Header=BB8_9 Depth=2
	movq	-16(%rbp), %rax
	movq	32(%rax), %rax
	movq	%rax, -24(%rbp)
	cmpq	$0, -24(%rbp)
	je	.LBB8_12
# %bb.11:                               # %if.then17
                                        #   in Loop: Header=BB8_1 Depth=1
	movq	-24(%rbp), %rax
	movq	%rax, -16(%rbp)
	jmp	.LBB8_15
.LBB8_12:                               # %if.else18
                                        #   in Loop: Header=BB8_9 Depth=2
	movq	-16(%rbp), %rax
	movq	24(%rax), %rax
	movq	%rax, -16(%rbp)
# %bb.13:                               # %if.end20
                                        #   in Loop: Header=BB8_9 Depth=2
	jmp	.LBB8_9
.LBB8_14:                               # %while.end21.loopexit
                                        #   in Loop: Header=BB8_1 Depth=1
	jmp	.LBB8_15
.LBB8_15:                               # %while.end21
                                        #   in Loop: Header=BB8_1 Depth=1
	jmp	.LBB8_1
.LBB8_16:                               # %while.end22
	movq	-32(%rbp), %rbx
	cmpl	$446253048, -44(%rbp)   # imm = 0x1A9947F8
	jne	.LBB8_18
.LBB8_17:
	movq	%rbx, %rax
	addq	$56, %rsp
	popq	%rbx
	popq	%rbp
	.cfi_def_cfa %rsp, 8
	retq
.LBB8_18:                               # %func_exit
	.cfi_def_cfa %rbp, 16
	callq	detect_breach
	jmp	.LBB8_17
.Lfunc_end8:
	.size	refresh_potential.2, .Lfunc_end8-refresh_potential.2
	.cfi_endproc
                                        # -- End function
	.globl	flow_org_cost.3         # -- Begin function flow_org_cost.3
	.p2align	4, 0x90
	.type	flow_org_cost.3,@function
flow_org_cost.3:                        # @flow_org_cost.3
	.cfi_startproc
# %bb.0:                                # %entry
	pushq	%rbp
	.cfi_def_cfa_offset 16
	.cfi_offset %rbp, -16
	movq	%rsp, %rbp
	.cfi_def_cfa_register %rbp
	subq	$64, %rsp
	movl	$187122077, -52(%rbp)   # imm = 0xB27419D
	movq	%rdi, -16(%rbp)
	movq	$0, -48(%rbp)
	movq	$0, -32(%rbp)
	movq	-16(%rbp), %rax
	movq	576(%rax), %rax
	movq	%rax, -40(%rbp)
	movq	-16(%rbp), %rax
	movq	568(%rax), %rax
	movq	%rax, -8(%rbp)
.LBB9_1:                                # %for.cond
                                        # =>This Inner Loop Header: Depth=1
	movq	-8(%rbp), %rax
	movq	-40(%rbp), %rcx
	cmpq	%rcx, %rax
	je	.LBB9_7
# %bb.2:                                # %for.body
                                        #   in Loop: Header=BB9_1 Depth=1
	movq	-8(%rbp), %rax
	cmpl	$2, 24(%rax)
	jne	.LBB9_4
# %bb.3:                                # %if.then
                                        #   in Loop: Header=BB9_1 Depth=1
	movq	-8(%rbp), %rax
	movq	$1, 48(%rax)
	jmp	.LBB9_5
.LBB9_4:                                # %if.else
                                        #   in Loop: Header=BB9_1 Depth=1
	movq	-8(%rbp), %rax
	movq	$0, 48(%rax)
.LBB9_5:                                # %if.end
                                        #   in Loop: Header=BB9_1 Depth=1
	jmp	.LBB9_6
.LBB9_6:                                # %for.inc
                                        #   in Loop: Header=BB9_1 Depth=1
	movq	-8(%rbp), %rax
	addq	$64, %rax
	movq	%rax, -8(%rbp)
	jmp	.LBB9_1
.LBB9_7:                                # %for.end
	movq	-16(%rbp), %rax
	movq	560(%rax), %rax
	movq	%rax, -40(%rbp)
	movq	-16(%rbp), %rax
	movq	552(%rax), %rax
	movq	%rax, -24(%rbp)
	movq	-24(%rbp), %rax
	addq	$104, %rax
	movq	%rax, -24(%rbp)
.LBB9_8:                                # %for.cond4
                                        # =>This Inner Loop Header: Depth=1
	movq	-24(%rbp), %rax
	movq	-40(%rbp), %rcx
	cmpq	%rcx, %rax
	je	.LBB9_11
# %bb.9:                                # %for.body6
                                        #   in Loop: Header=BB9_8 Depth=1
	movq	-24(%rbp), %rax
	movq	80(%rax), %rax
	movq	-24(%rbp), %rcx
	movq	48(%rcx), %rcx
	movq	%rax, 48(%rcx)
# %bb.10:                               # %for.inc9
                                        #   in Loop: Header=BB9_8 Depth=1
	movq	-24(%rbp), %rax
	addq	$104, %rax
	movq	%rax, -24(%rbp)
	jmp	.LBB9_8
.LBB9_11:                               # %for.end11
	movq	-16(%rbp), %rax
	movq	576(%rax), %rax
	movq	%rax, -40(%rbp)
	movq	-16(%rbp), %rax
	movq	568(%rax), %rax
	movq	%rax, -8(%rbp)
.LBB9_12:                               # %for.cond14
                                        # =>This Inner Loop Header: Depth=1
	movq	-8(%rbp), %rax
	movq	-40(%rbp), %rcx
	cmpq	%rcx, %rax
	je	.LBB9_23
# %bb.13:                               # %for.body16
                                        #   in Loop: Header=BB9_12 Depth=1
	movq	-8(%rbp), %rax
	cmpq	$0, 48(%rax)
	je	.LBB9_21
# %bb.14:                               # %if.then18
                                        #   in Loop: Header=BB9_12 Depth=1
	movq	-8(%rbp), %rax
	movq	8(%rax), %rax
	cmpl	$0, 96(%rax)
	jge	.LBB9_16
# %bb.15:                               # %land.lhs.true
                                        #   in Loop: Header=BB9_12 Depth=1
	movq	-8(%rbp), %rax
	movq	16(%rax), %rax
	cmpl	$0, 96(%rax)
	jg	.LBB9_20
.LBB9_16:                               # %if.then22
                                        #   in Loop: Header=BB9_12 Depth=1
	movq	-8(%rbp), %rax
	movq	8(%rax), %rax
	cmpl	$0, 96(%rax)
	jne	.LBB9_18
# %bb.17:                               # %if.then26
                                        #   in Loop: Header=BB9_12 Depth=1
	movq	-8(%rbp), %rax
	movq	56(%rax), %rax
	movq	-16(%rbp), %rcx
	subq	528(%rcx), %rax
	addq	-32(%rbp), %rax
	movq	%rax, -32(%rbp)
	movq	-48(%rbp), %rax
	addq	$1, %rax
	movq	%rax, -48(%rbp)
	jmp	.LBB9_19
.LBB9_18:                               # %if.else27
                                        #   in Loop: Header=BB9_12 Depth=1
	movq	-8(%rbp), %rax
	movq	56(%rax), %rax
	addq	-32(%rbp), %rax
	movq	%rax, -32(%rbp)
.LBB9_19:                               # %if.end30
                                        #   in Loop: Header=BB9_12 Depth=1
	jmp	.LBB9_20
.LBB9_20:                               # %if.end31
                                        #   in Loop: Header=BB9_12 Depth=1
	jmp	.LBB9_21
.LBB9_21:                               # %if.end32
                                        #   in Loop: Header=BB9_12 Depth=1
	jmp	.LBB9_22
.LBB9_22:                               # %for.inc33
                                        #   in Loop: Header=BB9_12 Depth=1
	movq	-8(%rbp), %rax
	addq	$64, %rax
	movq	%rax, -8(%rbp)
	jmp	.LBB9_12
.LBB9_23:                               # %for.end35
	vcvtsi2sdq	-48(%rbp), %xmm0, %xmm0
	movq	-16(%rbp), %rax
	vcvtsi2sdq	528(%rax), %xmm0, %xmm1
	vmulsd	%xmm1, %xmm0, %xmm0
	vcvtsi2sdq	-32(%rbp), %xmm0, %xmm1
	vaddsd	%xmm1, %xmm0, %xmm0
	cmpl	$187122077, -52(%rbp)   # imm = 0xB27419D
	jne	.LBB9_25
.LBB9_24:
	addq	$64, %rsp
	popq	%rbp
	.cfi_def_cfa %rsp, 8
	retq
.LBB9_25:                               # %func_exit
	.cfi_def_cfa %rbp, 16
	vmovsd	%xmm0, -64(%rbp)        # 8-byte Spill
	callq	detect_breach
	vmovsd	-64(%rbp), %xmm0        # 8-byte Reload
                                        # xmm0 = mem[0],zero
	jmp	.LBB9_24
.Lfunc_end9:
	.size	flow_org_cost.3, .Lfunc_end9-flow_org_cost.3
	.cfi_endproc
                                        # -- End function
	.globl	flow_org_cost.4         # -- Begin function flow_org_cost.4
	.p2align	4, 0x90
	.type	flow_org_cost.4,@function
flow_org_cost.4:                        # @flow_org_cost.4
	.cfi_startproc
# %bb.0:                                # %entry
	pushq	%rbp
	.cfi_def_cfa_offset 16
	.cfi_offset %rbp, -16
	movq	%rsp, %rbp
	.cfi_def_cfa_register %rbp
	subq	$64, %rsp
	movl	$21273716, -52(%rbp)    # imm = 0x1449C74
	movq	%rdi, -16(%rbp)
	movq	$0, -48(%rbp)
	movq	$0, -32(%rbp)
	movq	-16(%rbp), %rax
	movq	576(%rax), %rax
	movq	%rax, -40(%rbp)
	movq	-16(%rbp), %rax
	movq	568(%rax), %rax
	movq	%rax, -8(%rbp)
.LBB10_1:                               # %for.cond
                                        # =>This Inner Loop Header: Depth=1
	movq	-8(%rbp), %rax
	movq	-40(%rbp), %rcx
	cmpq	%rcx, %rax
	je	.LBB10_7
# %bb.2:                                # %for.body
                                        #   in Loop: Header=BB10_1 Depth=1
	movq	-8(%rbp), %rax
	cmpl	$2, 24(%rax)
	jne	.LBB10_4
# %bb.3:                                # %if.then
                                        #   in Loop: Header=BB10_1 Depth=1
	movq	-8(%rbp), %rax
	movq	$1, 48(%rax)
	jmp	.LBB10_5
.LBB10_4:                               # %if.else
                                        #   in Loop: Header=BB10_1 Depth=1
	movq	-8(%rbp), %rax
	movq	$0, 48(%rax)
.LBB10_5:                               # %if.end
                                        #   in Loop: Header=BB10_1 Depth=1
	jmp	.LBB10_6
.LBB10_6:                               # %for.inc
                                        #   in Loop: Header=BB10_1 Depth=1
	movq	-8(%rbp), %rax
	addq	$64, %rax
	movq	%rax, -8(%rbp)
	jmp	.LBB10_1
.LBB10_7:                               # %for.end
	movq	-16(%rbp), %rax
	movq	560(%rax), %rax
	movq	%rax, -40(%rbp)
	movq	-16(%rbp), %rax
	movq	552(%rax), %rax
	movq	%rax, -24(%rbp)
	movq	-24(%rbp), %rax
	addq	$104, %rax
	movq	%rax, -24(%rbp)
.LBB10_8:                               # %for.cond4
                                        # =>This Inner Loop Header: Depth=1
	movq	-24(%rbp), %rax
	movq	-40(%rbp), %rcx
	cmpq	%rcx, %rax
	je	.LBB10_11
# %bb.9:                                # %for.body6
                                        #   in Loop: Header=BB10_8 Depth=1
	movq	-24(%rbp), %rax
	movq	80(%rax), %rax
	movq	-24(%rbp), %rcx
	movq	48(%rcx), %rcx
	movq	%rax, 48(%rcx)
# %bb.10:                               # %for.inc9
                                        #   in Loop: Header=BB10_8 Depth=1
	movq	-24(%rbp), %rax
	addq	$104, %rax
	movq	%rax, -24(%rbp)
	jmp	.LBB10_8
.LBB10_11:                              # %for.end11
	movq	-16(%rbp), %rax
	movq	576(%rax), %rax
	movq	%rax, -40(%rbp)
	movq	-16(%rbp), %rax
	movq	568(%rax), %rax
	movq	%rax, -8(%rbp)
.LBB10_12:                              # %for.cond14
                                        # =>This Inner Loop Header: Depth=1
	movq	-8(%rbp), %rax
	movq	-40(%rbp), %rcx
	cmpq	%rcx, %rax
	je	.LBB10_23
# %bb.13:                               # %for.body16
                                        #   in Loop: Header=BB10_12 Depth=1
	movq	-8(%rbp), %rax
	cmpq	$0, 48(%rax)
	je	.LBB10_21
# %bb.14:                               # %if.then18
                                        #   in Loop: Header=BB10_12 Depth=1
	movq	-8(%rbp), %rax
	movq	8(%rax), %rax
	cmpl	$0, 96(%rax)
	jge	.LBB10_16
# %bb.15:                               # %land.lhs.true
                                        #   in Loop: Header=BB10_12 Depth=1
	movq	-8(%rbp), %rax
	movq	16(%rax), %rax
	cmpl	$0, 96(%rax)
	jg	.LBB10_20
.LBB10_16:                              # %if.then22
                                        #   in Loop: Header=BB10_12 Depth=1
	movq	-8(%rbp), %rax
	movq	8(%rax), %rax
	cmpl	$0, 96(%rax)
	jne	.LBB10_18
# %bb.17:                               # %if.then26
                                        #   in Loop: Header=BB10_12 Depth=1
	movq	-8(%rbp), %rax
	movq	56(%rax), %rax
	movq	-16(%rbp), %rcx
	subq	528(%rcx), %rax
	addq	-32(%rbp), %rax
	movq	%rax, -32(%rbp)
	movq	-48(%rbp), %rax
	addq	$1, %rax
	movq	%rax, -48(%rbp)
	jmp	.LBB10_19
.LBB10_18:                              # %if.else27
                                        #   in Loop: Header=BB10_12 Depth=1
	movq	-8(%rbp), %rax
	movq	56(%rax), %rax
	addq	-32(%rbp), %rax
	movq	%rax, -32(%rbp)
.LBB10_19:                              # %if.end30
                                        #   in Loop: Header=BB10_12 Depth=1
	jmp	.LBB10_20
.LBB10_20:                              # %if.end31
                                        #   in Loop: Header=BB10_12 Depth=1
	jmp	.LBB10_21
.LBB10_21:                              # %if.end32
                                        #   in Loop: Header=BB10_12 Depth=1
	jmp	.LBB10_22
.LBB10_22:                              # %for.inc33
                                        #   in Loop: Header=BB10_12 Depth=1
	movq	-8(%rbp), %rax
	addq	$64, %rax
	movq	%rax, -8(%rbp)
	jmp	.LBB10_12
.LBB10_23:                              # %for.end35
	vcvtsi2sdq	-48(%rbp), %xmm0, %xmm0
	movq	-16(%rbp), %rax
	vcvtsi2sdq	528(%rax), %xmm0, %xmm1
	vmulsd	%xmm1, %xmm0, %xmm0
	vcvtsi2sdq	-32(%rbp), %xmm0, %xmm1
	vaddsd	%xmm1, %xmm0, %xmm0
	cmpl	$21273716, -52(%rbp)    # imm = 0x1449C74
	jne	.LBB10_25
.LBB10_24:
	addq	$64, %rsp
	popq	%rbp
	.cfi_def_cfa %rsp, 8
	retq
.LBB10_25:                              # %func_exit
	.cfi_def_cfa %rbp, 16
	vmovsd	%xmm0, -64(%rbp)        # 8-byte Spill
	callq	detect_breach
	vmovsd	-64(%rbp), %xmm0        # 8-byte Reload
                                        # xmm0 = mem[0],zero
	jmp	.LBB10_24
.Lfunc_end10:
	.size	flow_org_cost.4, .Lfunc_end10-flow_org_cost.4
	.cfi_endproc
                                        # -- End function
	.globl	dual_feasible.5         # -- Begin function dual_feasible.5
	.p2align	4, 0x90
	.type	dual_feasible.5,@function
dual_feasible.5:                        # @dual_feasible.5
	.cfi_startproc
# %bb.0:                                # %entry
	pushq	%rbp
	.cfi_def_cfa_offset 16
	.cfi_offset %rbp, -16
	movq	%rsp, %rbp
	.cfi_def_cfa_register %rbp
	pushq	%rbx
	subq	$56, %rsp
	.cfi_offset %rbx, -24
	movl	$2001634435, -28(%rbp)  # imm = 0x774E8483
	movq	%rdi, -24(%rbp)
	movq	-24(%rbp), %rax
	movq	576(%rax), %rax
	movq	%rax, -56(%rbp)
	movq	-24(%rbp), %rax
	movq	568(%rax), %rax
	movq	%rax, -16(%rbp)
.LBB11_1:                               # %for.cond
                                        # =>This Inner Loop Header: Depth=1
	movq	-16(%rbp), %rax
	cmpq	-56(%rbp), %rax
	jae	.LBB11_15
# %bb.2:                                # %for.body
                                        #   in Loop: Header=BB11_1 Depth=1
	movq	-16(%rbp), %rax
	movq	(%rax), %rcx
	movq	8(%rax), %rdx
	movq	(%rdx), %rdx
	subq	%rdx, %rcx
	movq	16(%rax), %rax
	movq	(%rax), %rax
	addq	%rax, %rcx
	movq	%rcx, -40(%rbp)
	movq	-16(%rbp), %rax
	movl	24(%rax), %eax
	movl	%eax, %ecx
	subl	$-1, %ecx
	je	.LBB11_11
	jmp	.LBB11_3
.LBB11_3:                               # %for.body
                                        #   in Loop: Header=BB11_1 Depth=1
	movl	%eax, %ecx
	subl	$2, %ecx
	jb	.LBB11_5
	jmp	.LBB11_4
.LBB11_4:                               # %for.body
                                        #   in Loop: Header=BB11_1 Depth=1
	subl	$2, %eax
	je	.LBB11_8
	jmp	.LBB11_12
.LBB11_5:                               # %sw.bb
                                        #   in Loop: Header=BB11_1 Depth=1
	xorl	%eax, %eax
	movq	-40(%rbp), %rcx
	movq	-24(%rbp), %rdx
	subq	512(%rdx), %rax
	cmpq	%rax, %rcx
	jge	.LBB11_7
# %bb.6:                                # %if.then
	jmp	.LBB11_16
.LBB11_7:                               # %if.end
                                        #   in Loop: Header=BB11_1 Depth=1
	jmp	.LBB11_13
.LBB11_8:                               # %sw.bb4
                                        #   in Loop: Header=BB11_1 Depth=1
	movq	-40(%rbp), %rax
	movq	-24(%rbp), %rcx
	cmpq	512(%rcx), %rax
	jle	.LBB11_10
# %bb.9:                                # %if.then7
	jmp	.LBB11_16
.LBB11_10:                              # %if.end8
                                        #   in Loop: Header=BB11_1 Depth=1
	jmp	.LBB11_13
.LBB11_11:                              # %sw.bb9
                                        #   in Loop: Header=BB11_1 Depth=1
	jmp	.LBB11_12
.LBB11_12:                              # %sw.default
                                        #   in Loop: Header=BB11_1 Depth=1
	jmp	.LBB11_13
.LBB11_13:                              # %sw.epilog
                                        #   in Loop: Header=BB11_1 Depth=1
	jmp	.LBB11_14
.LBB11_14:                              # %for.inc
                                        #   in Loop: Header=BB11_1 Depth=1
	movq	-16(%rbp), %rax
	addq	$64, %rax
	movq	%rax, -16(%rbp)
	jmp	.LBB11_1
.LBB11_15:                              # %for.end
	movq	$0, -48(%rbp)
	jmp	.LBB11_17
.LBB11_16:                              # %DUAL_INFEAS
	movq	stderr, %rdi
	movabsq	$.L.str.3, %rsi
	movb	$0, %al
	callq	fprintf
	movq	stderr, %rdi
	movabsq	$.L.str.4, %rsi
	movb	$0, %al
	callq	fprintf
	movq	$1, -48(%rbp)
.LBB11_17:                              # %return
	movq	-48(%rbp), %rbx
	cmpl	$2001634435, -28(%rbp)  # imm = 0x774E8483
	jne	.LBB11_19
.LBB11_18:
	movq	%rbx, %rax
	addq	$56, %rsp
	popq	%rbx
	popq	%rbp
	.cfi_def_cfa %rsp, 8
	retq
.LBB11_19:                              # %func_exit
	.cfi_def_cfa %rbp, 16
	callq	detect_breach
	jmp	.LBB11_18
.Lfunc_end11:
	.size	dual_feasible.5, .Lfunc_end11-dual_feasible.5
	.cfi_endproc
                                        # -- End function
	.globl	refresh_neighbour_lists.6 # -- Begin function refresh_neighbour_lists.6
	.p2align	4, 0x90
	.type	refresh_neighbour_lists.6,@function
refresh_neighbour_lists.6:              # @refresh_neighbour_lists.6
	.cfi_startproc
# %bb.0:                                # %entry
	pushq	%rbp
	.cfi_def_cfa_offset 16
	.cfi_offset %rbp, -16
	movq	%rsp, %rbp
	.cfi_def_cfa_register %rbp
	subq	$48, %rsp
	movl	$13255497, -36(%rbp)    # imm = 0xCA4349
	movq	%rdi, -24(%rbp)
	movq	-24(%rbp), %rax
	movq	552(%rax), %rax
	movq	%rax, -16(%rbp)
	movq	-24(%rbp), %rax
	movq	560(%rax), %rax
	movq	%rax, -32(%rbp)
.LBB12_1:                               # %for.cond
                                        # =>This Inner Loop Header: Depth=1
	movq	-16(%rbp), %rax
	movq	-32(%rbp), %rcx
	cmpq	%rcx, %rax
	jae	.LBB12_4
# %bb.2:                                # %for.body
                                        #   in Loop: Header=BB12_1 Depth=1
	movq	-16(%rbp), %rax
	movq	$0, 64(%rax)
	movq	-16(%rbp), %rax
	movq	$0, 56(%rax)
# %bb.3:                                # %for.inc
                                        #   in Loop: Header=BB12_1 Depth=1
	movq	-16(%rbp), %rax
	addq	$104, %rax
	movq	%rax, -16(%rbp)
	jmp	.LBB12_1
.LBB12_4:                               # %for.end
	movq	-24(%rbp), %rax
	movq	568(%rax), %rax
	movq	%rax, -8(%rbp)
	movq	-24(%rbp), %rax
	movq	576(%rax), %rax
	movq	%rax, -32(%rbp)
.LBB12_5:                               # %for.cond1
                                        # =>This Inner Loop Header: Depth=1
	movq	-8(%rbp), %rax
	movq	-32(%rbp), %rcx
	cmpq	%rcx, %rax
	jae	.LBB12_8
# %bb.6:                                # %for.body3
                                        #   in Loop: Header=BB12_5 Depth=1
	movq	-8(%rbp), %rax
	movq	8(%rax), %rax
	movq	56(%rax), %rax
	movq	-8(%rbp), %rcx
	movq	%rax, 32(%rcx)
	movq	-8(%rbp), %rax
	movq	-8(%rbp), %rcx
	movq	8(%rcx), %rcx
	movq	%rax, 56(%rcx)
	movq	-8(%rbp), %rax
	movq	16(%rax), %rax
	movq	64(%rax), %rax
	movq	-8(%rbp), %rcx
	movq	%rax, 40(%rcx)
	movq	-8(%rbp), %rax
	movq	-8(%rbp), %rcx
	movq	16(%rcx), %rcx
	movq	%rax, 64(%rcx)
# %bb.7:                                # %for.inc10
                                        #   in Loop: Header=BB12_5 Depth=1
	movq	-8(%rbp), %rax
	addq	$64, %rax
	movq	%rax, -8(%rbp)
	jmp	.LBB12_5
.LBB12_8:                               # %for.end12
	cmpl	$13255497, -36(%rbp)    # imm = 0xCA4349
	jne	.LBB12_10
.LBB12_9:
	addq	$48, %rsp
	popq	%rbp
	.cfi_def_cfa %rsp, 8
	retq
.LBB12_10:                              # %func_exit
	.cfi_def_cfa %rbp, 16
	callq	detect_breach
	jmp	.LBB12_9
.Lfunc_end12:
	.size	refresh_neighbour_lists.6, .Lfunc_end12-refresh_neighbour_lists.6
	.cfi_endproc
                                        # -- End function
	.globl	flow_org_cost.7         # -- Begin function flow_org_cost.7
	.p2align	4, 0x90
	.type	flow_org_cost.7,@function
flow_org_cost.7:                        # @flow_org_cost.7
	.cfi_startproc
# %bb.0:                                # %entry
	pushq	%rbp
	.cfi_def_cfa_offset 16
	.cfi_offset %rbp, -16
	movq	%rsp, %rbp
	.cfi_def_cfa_register %rbp
	subq	$64, %rsp
	movl	$1683025717, -52(%rbp)  # imm = 0x6450EF35
	movq	%rdi, -16(%rbp)
	movq	$0, -48(%rbp)
	movq	$0, -32(%rbp)
	movq	-16(%rbp), %rax
	movq	576(%rax), %rax
	movq	%rax, -40(%rbp)
	movq	-16(%rbp), %rax
	movq	568(%rax), %rax
	movq	%rax, -8(%rbp)
.LBB13_1:                               # %for.cond
                                        # =>This Inner Loop Header: Depth=1
	movq	-8(%rbp), %rax
	movq	-40(%rbp), %rcx
	cmpq	%rcx, %rax
	je	.LBB13_7
# %bb.2:                                # %for.body
                                        #   in Loop: Header=BB13_1 Depth=1
	movq	-8(%rbp), %rax
	cmpl	$2, 24(%rax)
	jne	.LBB13_4
# %bb.3:                                # %if.then
                                        #   in Loop: Header=BB13_1 Depth=1
	movq	-8(%rbp), %rax
	movq	$1, 48(%rax)
	jmp	.LBB13_5
.LBB13_4:                               # %if.else
                                        #   in Loop: Header=BB13_1 Depth=1
	movq	-8(%rbp), %rax
	movq	$0, 48(%rax)
.LBB13_5:                               # %if.end
                                        #   in Loop: Header=BB13_1 Depth=1
	jmp	.LBB13_6
.LBB13_6:                               # %for.inc
                                        #   in Loop: Header=BB13_1 Depth=1
	movq	-8(%rbp), %rax
	addq	$64, %rax
	movq	%rax, -8(%rbp)
	jmp	.LBB13_1
.LBB13_7:                               # %for.end
	movq	-16(%rbp), %rax
	movq	560(%rax), %rax
	movq	%rax, -40(%rbp)
	movq	-16(%rbp), %rax
	movq	552(%rax), %rax
	movq	%rax, -24(%rbp)
	movq	-24(%rbp), %rax
	addq	$104, %rax
	movq	%rax, -24(%rbp)
.LBB13_8:                               # %for.cond4
                                        # =>This Inner Loop Header: Depth=1
	movq	-24(%rbp), %rax
	movq	-40(%rbp), %rcx
	cmpq	%rcx, %rax
	je	.LBB13_11
# %bb.9:                                # %for.body6
                                        #   in Loop: Header=BB13_8 Depth=1
	movq	-24(%rbp), %rax
	movq	80(%rax), %rax
	movq	-24(%rbp), %rcx
	movq	48(%rcx), %rcx
	movq	%rax, 48(%rcx)
# %bb.10:                               # %for.inc9
                                        #   in Loop: Header=BB13_8 Depth=1
	movq	-24(%rbp), %rax
	addq	$104, %rax
	movq	%rax, -24(%rbp)
	jmp	.LBB13_8
.LBB13_11:                              # %for.end11
	movq	-16(%rbp), %rax
	movq	576(%rax), %rax
	movq	%rax, -40(%rbp)
	movq	-16(%rbp), %rax
	movq	568(%rax), %rax
	movq	%rax, -8(%rbp)
.LBB13_12:                              # %for.cond14
                                        # =>This Inner Loop Header: Depth=1
	movq	-8(%rbp), %rax
	movq	-40(%rbp), %rcx
	cmpq	%rcx, %rax
	je	.LBB13_23
# %bb.13:                               # %for.body16
                                        #   in Loop: Header=BB13_12 Depth=1
	movq	-8(%rbp), %rax
	cmpq	$0, 48(%rax)
	je	.LBB13_21
# %bb.14:                               # %if.then18
                                        #   in Loop: Header=BB13_12 Depth=1
	movq	-8(%rbp), %rax
	movq	8(%rax), %rax
	cmpl	$0, 96(%rax)
	jge	.LBB13_16
# %bb.15:                               # %land.lhs.true
                                        #   in Loop: Header=BB13_12 Depth=1
	movq	-8(%rbp), %rax
	movq	16(%rax), %rax
	cmpl	$0, 96(%rax)
	jg	.LBB13_20
.LBB13_16:                              # %if.then22
                                        #   in Loop: Header=BB13_12 Depth=1
	movq	-8(%rbp), %rax
	movq	8(%rax), %rax
	cmpl	$0, 96(%rax)
	jne	.LBB13_18
# %bb.17:                               # %if.then26
                                        #   in Loop: Header=BB13_12 Depth=1
	movq	-8(%rbp), %rax
	movq	56(%rax), %rax
	movq	-16(%rbp), %rcx
	subq	528(%rcx), %rax
	addq	-32(%rbp), %rax
	movq	%rax, -32(%rbp)
	movq	-48(%rbp), %rax
	addq	$1, %rax
	movq	%rax, -48(%rbp)
	jmp	.LBB13_19
.LBB13_18:                              # %if.else27
                                        #   in Loop: Header=BB13_12 Depth=1
	movq	-8(%rbp), %rax
	movq	56(%rax), %rax
	addq	-32(%rbp), %rax
	movq	%rax, -32(%rbp)
.LBB13_19:                              # %if.end30
                                        #   in Loop: Header=BB13_12 Depth=1
	jmp	.LBB13_20
.LBB13_20:                              # %if.end31
                                        #   in Loop: Header=BB13_12 Depth=1
	jmp	.LBB13_21
.LBB13_21:                              # %if.end32
                                        #   in Loop: Header=BB13_12 Depth=1
	jmp	.LBB13_22
.LBB13_22:                              # %for.inc33
                                        #   in Loop: Header=BB13_12 Depth=1
	movq	-8(%rbp), %rax
	addq	$64, %rax
	movq	%rax, -8(%rbp)
	jmp	.LBB13_12
.LBB13_23:                              # %for.end35
	vcvtsi2sdq	-48(%rbp), %xmm0, %xmm0
	movq	-16(%rbp), %rax
	vcvtsi2sdq	528(%rax), %xmm0, %xmm1
	vmulsd	%xmm1, %xmm0, %xmm0
	vcvtsi2sdq	-32(%rbp), %xmm0, %xmm1
	vaddsd	%xmm1, %xmm0, %xmm0
	cmpl	$1683025717, -52(%rbp)  # imm = 0x6450EF35
	jne	.LBB13_25
.LBB13_24:
	addq	$64, %rsp
	popq	%rbp
	.cfi_def_cfa %rsp, 8
	retq
.LBB13_25:                              # %func_exit
	.cfi_def_cfa %rbp, 16
	vmovsd	%xmm0, -64(%rbp)        # 8-byte Spill
	callq	detect_breach
	vmovsd	-64(%rbp), %xmm0        # 8-byte Reload
                                        # xmm0 = mem[0],zero
	jmp	.LBB13_24
.Lfunc_end13:
	.size	flow_org_cost.7, .Lfunc_end13-flow_org_cost.7
	.cfi_endproc
                                        # -- End function
	.globl	dual_feasible.8         # -- Begin function dual_feasible.8
	.p2align	4, 0x90
	.type	dual_feasible.8,@function
dual_feasible.8:                        # @dual_feasible.8
	.cfi_startproc
# %bb.0:                                # %entry
	pushq	%rbp
	.cfi_def_cfa_offset 16
	.cfi_offset %rbp, -16
	movq	%rsp, %rbp
	.cfi_def_cfa_register %rbp
	pushq	%rbx
	subq	$56, %rsp
	.cfi_offset %rbx, -24
	movl	$2000879306, -28(%rbp)  # imm = 0x7742FECA
	movq	%rdi, -24(%rbp)
	movq	-24(%rbp), %rax
	movq	576(%rax), %rax
	movq	%rax, -56(%rbp)
	movq	-24(%rbp), %rax
	movq	568(%rax), %rax
	movq	%rax, -16(%rbp)
.LBB14_1:                               # %for.cond
                                        # =>This Inner Loop Header: Depth=1
	movq	-16(%rbp), %rax
	cmpq	-56(%rbp), %rax
	jae	.LBB14_15
# %bb.2:                                # %for.body
                                        #   in Loop: Header=BB14_1 Depth=1
	movq	-16(%rbp), %rax
	movq	(%rax), %rcx
	movq	8(%rax), %rdx
	movq	(%rdx), %rdx
	subq	%rdx, %rcx
	movq	16(%rax), %rax
	movq	(%rax), %rax
	addq	%rax, %rcx
	movq	%rcx, -48(%rbp)
	movq	-16(%rbp), %rax
	movl	24(%rax), %eax
	movl	%eax, %ecx
	subl	$-1, %ecx
	je	.LBB14_11
	jmp	.LBB14_3
.LBB14_3:                               # %for.body
                                        #   in Loop: Header=BB14_1 Depth=1
	movl	%eax, %ecx
	subl	$2, %ecx
	jb	.LBB14_5
	jmp	.LBB14_4
.LBB14_4:                               # %for.body
                                        #   in Loop: Header=BB14_1 Depth=1
	subl	$2, %eax
	je	.LBB14_8
	jmp	.LBB14_12
.LBB14_5:                               # %sw.bb
                                        #   in Loop: Header=BB14_1 Depth=1
	xorl	%eax, %eax
	movq	-48(%rbp), %rcx
	movq	-24(%rbp), %rdx
	subq	512(%rdx), %rax
	cmpq	%rax, %rcx
	jge	.LBB14_7
# %bb.6:                                # %if.then
	jmp	.LBB14_16
.LBB14_7:                               # %if.end
                                        #   in Loop: Header=BB14_1 Depth=1
	jmp	.LBB14_13
.LBB14_8:                               # %sw.bb4
                                        #   in Loop: Header=BB14_1 Depth=1
	movq	-48(%rbp), %rax
	movq	-24(%rbp), %rcx
	cmpq	512(%rcx), %rax
	jle	.LBB14_10
# %bb.9:                                # %if.then7
	jmp	.LBB14_16
.LBB14_10:                              # %if.end8
                                        #   in Loop: Header=BB14_1 Depth=1
	jmp	.LBB14_13
.LBB14_11:                              # %sw.bb9
                                        #   in Loop: Header=BB14_1 Depth=1
	jmp	.LBB14_12
.LBB14_12:                              # %sw.default
                                        #   in Loop: Header=BB14_1 Depth=1
	jmp	.LBB14_13
.LBB14_13:                              # %sw.epilog
                                        #   in Loop: Header=BB14_1 Depth=1
	jmp	.LBB14_14
.LBB14_14:                              # %for.inc
                                        #   in Loop: Header=BB14_1 Depth=1
	movq	-16(%rbp), %rax
	addq	$64, %rax
	movq	%rax, -16(%rbp)
	jmp	.LBB14_1
.LBB14_15:                              # %for.end
	movq	$0, -40(%rbp)
	jmp	.LBB14_17
.LBB14_16:                              # %DUAL_INFEAS
	movq	stderr, %rdi
	movabsq	$.L.str.3, %rsi
	movb	$0, %al
	callq	fprintf
	movq	stderr, %rdi
	movabsq	$.L.str.4, %rsi
	movb	$0, %al
	callq	fprintf
	movq	$1, -40(%rbp)
.LBB14_17:                              # %return
	movq	-40(%rbp), %rbx
	cmpl	$2000879306, -28(%rbp)  # imm = 0x7742FECA
	jne	.LBB14_19
.LBB14_18:
	movq	%rbx, %rax
	addq	$56, %rsp
	popq	%rbx
	popq	%rbp
	.cfi_def_cfa %rsp, 8
	retq
.LBB14_19:                              # %func_exit
	.cfi_def_cfa %rbp, 16
	callq	detect_breach
	jmp	.LBB14_18
.Lfunc_end14:
	.size	dual_feasible.8, .Lfunc_end14-dual_feasible.8
	.cfi_endproc
                                        # -- End function
	.globl	flow_cost.9             # -- Begin function flow_cost.9
	.p2align	4, 0x90
	.type	flow_cost.9,@function
flow_cost.9:                            # @flow_cost.9
	.cfi_startproc
# %bb.0:                                # %entry
	pushq	%rbp
	.cfi_def_cfa_offset 16
	.cfi_offset %rbp, -16
	movq	%rsp, %rbp
	.cfi_def_cfa_register %rbp
	subq	$64, %rsp
	movl	$1168715557, -52(%rbp)  # imm = 0x45A92F25
	movq	%rdi, -16(%rbp)
	movq	$0, -48(%rbp)
	movq	$0, -40(%rbp)
	movq	-16(%rbp), %rax
	movq	576(%rax), %rax
	movq	%rax, -32(%rbp)
	movq	-16(%rbp), %rax
	movq	568(%rax), %rax
	movq	%rax, -8(%rbp)
.LBB15_1:                               # %for.cond
                                        # =>This Inner Loop Header: Depth=1
	movq	-8(%rbp), %rax
	movq	-32(%rbp), %rcx
	cmpq	%rcx, %rax
	je	.LBB15_7
# %bb.2:                                # %for.body
                                        #   in Loop: Header=BB15_1 Depth=1
	movq	-8(%rbp), %rax
	cmpl	$2, 24(%rax)
	jne	.LBB15_4
# %bb.3:                                # %if.then
                                        #   in Loop: Header=BB15_1 Depth=1
	movq	-8(%rbp), %rax
	movq	$1, 48(%rax)
	jmp	.LBB15_5
.LBB15_4:                               # %if.else
                                        #   in Loop: Header=BB15_1 Depth=1
	movq	-8(%rbp), %rax
	movq	$0, 48(%rax)
.LBB15_5:                               # %if.end
                                        #   in Loop: Header=BB15_1 Depth=1
	jmp	.LBB15_6
.LBB15_6:                               # %for.inc
                                        #   in Loop: Header=BB15_1 Depth=1
	movq	-8(%rbp), %rax
	addq	$64, %rax
	movq	%rax, -8(%rbp)
	jmp	.LBB15_1
.LBB15_7:                               # %for.end
	movq	-16(%rbp), %rax
	movq	560(%rax), %rax
	movq	%rax, -32(%rbp)
	movq	-16(%rbp), %rax
	movq	552(%rax), %rax
	movq	%rax, -24(%rbp)
	movq	-24(%rbp), %rax
	addq	$104, %rax
	movq	%rax, -24(%rbp)
.LBB15_8:                               # %for.cond4
                                        # =>This Inner Loop Header: Depth=1
	movq	-24(%rbp), %rax
	movq	-32(%rbp), %rcx
	cmpq	%rcx, %rax
	je	.LBB15_11
# %bb.9:                                # %for.body6
                                        #   in Loop: Header=BB15_8 Depth=1
	movq	-24(%rbp), %rax
	movq	80(%rax), %rax
	movq	-24(%rbp), %rcx
	movq	48(%rcx), %rcx
	movq	%rax, 48(%rcx)
# %bb.10:                               # %for.inc9
                                        #   in Loop: Header=BB15_8 Depth=1
	movq	-24(%rbp), %rax
	addq	$104, %rax
	movq	%rax, -24(%rbp)
	jmp	.LBB15_8
.LBB15_11:                              # %for.end11
	movq	-16(%rbp), %rax
	movq	576(%rax), %rax
	movq	%rax, -32(%rbp)
	movq	-16(%rbp), %rax
	movq	568(%rax), %rax
	movq	%rax, -8(%rbp)
.LBB15_12:                              # %for.cond14
                                        # =>This Inner Loop Header: Depth=1
	movq	-8(%rbp), %rax
	movq	-32(%rbp), %rcx
	cmpq	%rcx, %rax
	je	.LBB15_23
# %bb.13:                               # %for.body16
                                        #   in Loop: Header=BB15_12 Depth=1
	movq	-8(%rbp), %rax
	cmpq	$0, 48(%rax)
	je	.LBB15_21
# %bb.14:                               # %if.then18
                                        #   in Loop: Header=BB15_12 Depth=1
	movq	-8(%rbp), %rax
	movq	8(%rax), %rax
	cmpl	$0, 96(%rax)
	jge	.LBB15_16
# %bb.15:                               # %land.lhs.true
                                        #   in Loop: Header=BB15_12 Depth=1
	movq	-8(%rbp), %rax
	movq	16(%rax), %rax
	cmpl	$0, 96(%rax)
	jg	.LBB15_20
.LBB15_16:                              # %if.then22
                                        #   in Loop: Header=BB15_12 Depth=1
	movq	-8(%rbp), %rax
	movq	8(%rax), %rax
	cmpl	$0, 96(%rax)
	jne	.LBB15_18
# %bb.17:                               # %if.then26
                                        #   in Loop: Header=BB15_12 Depth=1
	movq	-8(%rbp), %rax
	movq	(%rax), %rax
	movq	-16(%rbp), %rcx
	subq	528(%rcx), %rax
	addq	-40(%rbp), %rax
	movq	%rax, -40(%rbp)
	movq	-48(%rbp), %rax
	addq	$1, %rax
	movq	%rax, -48(%rbp)
	jmp	.LBB15_19
.LBB15_18:                              # %if.else27
                                        #   in Loop: Header=BB15_12 Depth=1
	movq	-8(%rbp), %rax
	movq	(%rax), %rax
	addq	-40(%rbp), %rax
	movq	%rax, -40(%rbp)
.LBB15_19:                              # %if.end30
                                        #   in Loop: Header=BB15_12 Depth=1
	jmp	.LBB15_20
.LBB15_20:                              # %if.end31
                                        #   in Loop: Header=BB15_12 Depth=1
	jmp	.LBB15_21
.LBB15_21:                              # %if.end32
                                        #   in Loop: Header=BB15_12 Depth=1
	jmp	.LBB15_22
.LBB15_22:                              # %for.inc33
                                        #   in Loop: Header=BB15_12 Depth=1
	movq	-8(%rbp), %rax
	addq	$64, %rax
	movq	%rax, -8(%rbp)
	jmp	.LBB15_12
.LBB15_23:                              # %for.end35
	vcvtsi2sdq	-48(%rbp), %xmm0, %xmm0
	movq	-16(%rbp), %rax
	vcvtsi2sdq	528(%rax), %xmm0, %xmm1
	vmulsd	%xmm1, %xmm0, %xmm0
	vcvtsi2sdq	-40(%rbp), %xmm0, %xmm1
	vaddsd	%xmm1, %xmm0, %xmm0
	cmpl	$1168715557, -52(%rbp)  # imm = 0x45A92F25
	jne	.LBB15_25
.LBB15_24:
	addq	$64, %rsp
	popq	%rbp
	.cfi_def_cfa %rsp, 8
	retq
.LBB15_25:                              # %func_exit
	.cfi_def_cfa %rbp, 16
	vmovsd	%xmm0, -64(%rbp)        # 8-byte Spill
	callq	detect_breach
	vmovsd	-64(%rbp), %xmm0        # 8-byte Reload
                                        # xmm0 = mem[0],zero
	jmp	.LBB15_24
.Lfunc_end15:
	.size	flow_cost.9, .Lfunc_end15-flow_cost.9
	.cfi_endproc
                                        # -- End function
	.globl	dual_feasible.10        # -- Begin function dual_feasible.10
	.p2align	4, 0x90
	.type	dual_feasible.10,@function
dual_feasible.10:                       # @dual_feasible.10
	.cfi_startproc
# %bb.0:                                # %entry
	pushq	%rbp
	.cfi_def_cfa_offset 16
	.cfi_offset %rbp, -16
	movq	%rsp, %rbp
	.cfi_def_cfa_register %rbp
	pushq	%rbx
	subq	$56, %rsp
	.cfi_offset %rbx, -24
	movl	$1376209801, -28(%rbp)  # imm = 0x52074B89
	movq	%rdi, -24(%rbp)
	movq	-24(%rbp), %rax
	movq	576(%rax), %rax
	movq	%rax, -56(%rbp)
	movq	-24(%rbp), %rax
	movq	568(%rax), %rax
	movq	%rax, -16(%rbp)
.LBB16_1:                               # %for.cond
                                        # =>This Inner Loop Header: Depth=1
	movq	-16(%rbp), %rax
	cmpq	-56(%rbp), %rax
	jae	.LBB16_15
# %bb.2:                                # %for.body
                                        #   in Loop: Header=BB16_1 Depth=1
	movq	-16(%rbp), %rax
	movq	(%rax), %rcx
	movq	8(%rax), %rdx
	movq	(%rdx), %rdx
	subq	%rdx, %rcx
	movq	16(%rax), %rax
	movq	(%rax), %rax
	addq	%rax, %rcx
	movq	%rcx, -40(%rbp)
	movq	-16(%rbp), %rax
	movl	24(%rax), %eax
	movl	%eax, %ecx
	subl	$-1, %ecx
	je	.LBB16_11
	jmp	.LBB16_3
.LBB16_3:                               # %for.body
                                        #   in Loop: Header=BB16_1 Depth=1
	movl	%eax, %ecx
	subl	$2, %ecx
	jb	.LBB16_5
	jmp	.LBB16_4
.LBB16_4:                               # %for.body
                                        #   in Loop: Header=BB16_1 Depth=1
	subl	$2, %eax
	je	.LBB16_8
	jmp	.LBB16_12
.LBB16_5:                               # %sw.bb
                                        #   in Loop: Header=BB16_1 Depth=1
	xorl	%eax, %eax
	movq	-40(%rbp), %rcx
	movq	-24(%rbp), %rdx
	subq	512(%rdx), %rax
	cmpq	%rax, %rcx
	jge	.LBB16_7
# %bb.6:                                # %if.then
	jmp	.LBB16_16
.LBB16_7:                               # %if.end
                                        #   in Loop: Header=BB16_1 Depth=1
	jmp	.LBB16_13
.LBB16_8:                               # %sw.bb4
                                        #   in Loop: Header=BB16_1 Depth=1
	movq	-40(%rbp), %rax
	movq	-24(%rbp), %rcx
	cmpq	512(%rcx), %rax
	jle	.LBB16_10
# %bb.9:                                # %if.then7
	jmp	.LBB16_16
.LBB16_10:                              # %if.end8
                                        #   in Loop: Header=BB16_1 Depth=1
	jmp	.LBB16_13
.LBB16_11:                              # %sw.bb9
                                        #   in Loop: Header=BB16_1 Depth=1
	jmp	.LBB16_12
.LBB16_12:                              # %sw.default
                                        #   in Loop: Header=BB16_1 Depth=1
	jmp	.LBB16_13
.LBB16_13:                              # %sw.epilog
                                        #   in Loop: Header=BB16_1 Depth=1
	jmp	.LBB16_14
.LBB16_14:                              # %for.inc
                                        #   in Loop: Header=BB16_1 Depth=1
	movq	-16(%rbp), %rax
	addq	$64, %rax
	movq	%rax, -16(%rbp)
	jmp	.LBB16_1
.LBB16_15:                              # %for.end
	movq	$0, -48(%rbp)
	jmp	.LBB16_17
.LBB16_16:                              # %DUAL_INFEAS
	movq	stderr, %rdi
	movabsq	$.L.str.3, %rsi
	movb	$0, %al
	callq	fprintf
	movq	stderr, %rdi
	movabsq	$.L.str.4, %rsi
	movb	$0, %al
	callq	fprintf
	movq	$1, -48(%rbp)
.LBB16_17:                              # %return
	movq	-48(%rbp), %rbx
	cmpl	$1376209801, -28(%rbp)  # imm = 0x52074B89
	jne	.LBB16_19
.LBB16_18:
	movq	%rbx, %rax
	addq	$56, %rsp
	popq	%rbx
	popq	%rbp
	.cfi_def_cfa %rsp, 8
	retq
.LBB16_19:                              # %func_exit
	.cfi_def_cfa %rbp, 16
	callq	detect_breach
	jmp	.LBB16_18
.Lfunc_end16:
	.size	dual_feasible.10, .Lfunc_end16-dual_feasible.10
	.cfi_endproc
                                        # -- End function
	.globl	flow_org_cost.11        # -- Begin function flow_org_cost.11
	.p2align	4, 0x90
	.type	flow_org_cost.11,@function
flow_org_cost.11:                       # @flow_org_cost.11
	.cfi_startproc
# %bb.0:                                # %entry
	pushq	%rbp
	.cfi_def_cfa_offset 16
	.cfi_offset %rbp, -16
	movq	%rsp, %rbp
	.cfi_def_cfa_register %rbp
	subq	$64, %rsp
	movl	$1625880997, -52(%rbp)  # imm = 0x60E8F9A5
	movq	%rdi, -16(%rbp)
	movq	$0, -48(%rbp)
	movq	$0, -40(%rbp)
	movq	-16(%rbp), %rax
	movq	576(%rax), %rax
	movq	%rax, -32(%rbp)
	movq	-16(%rbp), %rax
	movq	568(%rax), %rax
	movq	%rax, -8(%rbp)
.LBB17_1:                               # %for.cond
                                        # =>This Inner Loop Header: Depth=1
	movq	-8(%rbp), %rax
	movq	-32(%rbp), %rcx
	cmpq	%rcx, %rax
	je	.LBB17_7
# %bb.2:                                # %for.body
                                        #   in Loop: Header=BB17_1 Depth=1
	movq	-8(%rbp), %rax
	cmpl	$2, 24(%rax)
	jne	.LBB17_4
# %bb.3:                                # %if.then
                                        #   in Loop: Header=BB17_1 Depth=1
	movq	-8(%rbp), %rax
	movq	$1, 48(%rax)
	jmp	.LBB17_5
.LBB17_4:                               # %if.else
                                        #   in Loop: Header=BB17_1 Depth=1
	movq	-8(%rbp), %rax
	movq	$0, 48(%rax)
.LBB17_5:                               # %if.end
                                        #   in Loop: Header=BB17_1 Depth=1
	jmp	.LBB17_6
.LBB17_6:                               # %for.inc
                                        #   in Loop: Header=BB17_1 Depth=1
	movq	-8(%rbp), %rax
	addq	$64, %rax
	movq	%rax, -8(%rbp)
	jmp	.LBB17_1
.LBB17_7:                               # %for.end
	movq	-16(%rbp), %rax
	movq	560(%rax), %rax
	movq	%rax, -32(%rbp)
	movq	-16(%rbp), %rax
	movq	552(%rax), %rax
	movq	%rax, -24(%rbp)
	movq	-24(%rbp), %rax
	addq	$104, %rax
	movq	%rax, -24(%rbp)
.LBB17_8:                               # %for.cond4
                                        # =>This Inner Loop Header: Depth=1
	movq	-24(%rbp), %rax
	movq	-32(%rbp), %rcx
	cmpq	%rcx, %rax
	je	.LBB17_11
# %bb.9:                                # %for.body6
                                        #   in Loop: Header=BB17_8 Depth=1
	movq	-24(%rbp), %rax
	movq	80(%rax), %rax
	movq	-24(%rbp), %rcx
	movq	48(%rcx), %rcx
	movq	%rax, 48(%rcx)
# %bb.10:                               # %for.inc9
                                        #   in Loop: Header=BB17_8 Depth=1
	movq	-24(%rbp), %rax
	addq	$104, %rax
	movq	%rax, -24(%rbp)
	jmp	.LBB17_8
.LBB17_11:                              # %for.end11
	movq	-16(%rbp), %rax
	movq	576(%rax), %rax
	movq	%rax, -32(%rbp)
	movq	-16(%rbp), %rax
	movq	568(%rax), %rax
	movq	%rax, -8(%rbp)
.LBB17_12:                              # %for.cond14
                                        # =>This Inner Loop Header: Depth=1
	movq	-8(%rbp), %rax
	movq	-32(%rbp), %rcx
	cmpq	%rcx, %rax
	je	.LBB17_23
# %bb.13:                               # %for.body16
                                        #   in Loop: Header=BB17_12 Depth=1
	movq	-8(%rbp), %rax
	cmpq	$0, 48(%rax)
	je	.LBB17_21
# %bb.14:                               # %if.then18
                                        #   in Loop: Header=BB17_12 Depth=1
	movq	-8(%rbp), %rax
	movq	8(%rax), %rax
	cmpl	$0, 96(%rax)
	jge	.LBB17_16
# %bb.15:                               # %land.lhs.true
                                        #   in Loop: Header=BB17_12 Depth=1
	movq	-8(%rbp), %rax
	movq	16(%rax), %rax
	cmpl	$0, 96(%rax)
	jg	.LBB17_20
.LBB17_16:                              # %if.then22
                                        #   in Loop: Header=BB17_12 Depth=1
	movq	-8(%rbp), %rax
	movq	8(%rax), %rax
	cmpl	$0, 96(%rax)
	jne	.LBB17_18
# %bb.17:                               # %if.then26
                                        #   in Loop: Header=BB17_12 Depth=1
	movq	-8(%rbp), %rax
	movq	56(%rax), %rax
	movq	-16(%rbp), %rcx
	subq	528(%rcx), %rax
	addq	-40(%rbp), %rax
	movq	%rax, -40(%rbp)
	movq	-48(%rbp), %rax
	addq	$1, %rax
	movq	%rax, -48(%rbp)
	jmp	.LBB17_19
.LBB17_18:                              # %if.else27
                                        #   in Loop: Header=BB17_12 Depth=1
	movq	-8(%rbp), %rax
	movq	56(%rax), %rax
	addq	-40(%rbp), %rax
	movq	%rax, -40(%rbp)
.LBB17_19:                              # %if.end30
                                        #   in Loop: Header=BB17_12 Depth=1
	jmp	.LBB17_20
.LBB17_20:                              # %if.end31
                                        #   in Loop: Header=BB17_12 Depth=1
	jmp	.LBB17_21
.LBB17_21:                              # %if.end32
                                        #   in Loop: Header=BB17_12 Depth=1
	jmp	.LBB17_22
.LBB17_22:                              # %for.inc33
                                        #   in Loop: Header=BB17_12 Depth=1
	movq	-8(%rbp), %rax
	addq	$64, %rax
	movq	%rax, -8(%rbp)
	jmp	.LBB17_12
.LBB17_23:                              # %for.end35
	vcvtsi2sdq	-48(%rbp), %xmm0, %xmm0
	movq	-16(%rbp), %rax
	vcvtsi2sdq	528(%rax), %xmm0, %xmm1
	vmulsd	%xmm1, %xmm0, %xmm0
	vcvtsi2sdq	-40(%rbp), %xmm0, %xmm1
	vaddsd	%xmm1, %xmm0, %xmm0
	cmpl	$1625880997, -52(%rbp)  # imm = 0x60E8F9A5
	jne	.LBB17_25
.LBB17_24:
	addq	$64, %rsp
	popq	%rbp
	.cfi_def_cfa %rsp, 8
	retq
.LBB17_25:                              # %func_exit
	.cfi_def_cfa %rbp, 16
	vmovsd	%xmm0, -64(%rbp)        # 8-byte Spill
	callq	detect_breach
	vmovsd	-64(%rbp), %xmm0        # 8-byte Reload
                                        # xmm0 = mem[0],zero
	jmp	.LBB17_24
.Lfunc_end17:
	.size	flow_org_cost.11, .Lfunc_end17-flow_org_cost.11
	.cfi_endproc
                                        # -- End function
	.globl	flow_cost.12            # -- Begin function flow_cost.12
	.p2align	4, 0x90
	.type	flow_cost.12,@function
flow_cost.12:                           # @flow_cost.12
	.cfi_startproc
# %bb.0:                                # %entry
	pushq	%rbp
	.cfi_def_cfa_offset 16
	.cfi_offset %rbp, -16
	movq	%rsp, %rbp
	.cfi_def_cfa_register %rbp
	subq	$64, %rsp
	movl	$783040577, -52(%rbp)   # imm = 0x2EAC4041
	movq	%rdi, -16(%rbp)
	movq	$0, -48(%rbp)
	movq	$0, -40(%rbp)
	movq	-16(%rbp), %rax
	movq	576(%rax), %rax
	movq	%rax, -32(%rbp)
	movq	-16(%rbp), %rax
	movq	568(%rax), %rax
	movq	%rax, -8(%rbp)
.LBB18_1:                               # %for.cond
                                        # =>This Inner Loop Header: Depth=1
	movq	-8(%rbp), %rax
	movq	-32(%rbp), %rcx
	cmpq	%rcx, %rax
	je	.LBB18_7
# %bb.2:                                # %for.body
                                        #   in Loop: Header=BB18_1 Depth=1
	movq	-8(%rbp), %rax
	cmpl	$2, 24(%rax)
	jne	.LBB18_4
# %bb.3:                                # %if.then
                                        #   in Loop: Header=BB18_1 Depth=1
	movq	-8(%rbp), %rax
	movq	$1, 48(%rax)
	jmp	.LBB18_5
.LBB18_4:                               # %if.else
                                        #   in Loop: Header=BB18_1 Depth=1
	movq	-8(%rbp), %rax
	movq	$0, 48(%rax)
.LBB18_5:                               # %if.end
                                        #   in Loop: Header=BB18_1 Depth=1
	jmp	.LBB18_6
.LBB18_6:                               # %for.inc
                                        #   in Loop: Header=BB18_1 Depth=1
	movq	-8(%rbp), %rax
	addq	$64, %rax
	movq	%rax, -8(%rbp)
	jmp	.LBB18_1
.LBB18_7:                               # %for.end
	movq	-16(%rbp), %rax
	movq	560(%rax), %rax
	movq	%rax, -32(%rbp)
	movq	-16(%rbp), %rax
	movq	552(%rax), %rax
	movq	%rax, -24(%rbp)
	movq	-24(%rbp), %rax
	addq	$104, %rax
	movq	%rax, -24(%rbp)
.LBB18_8:                               # %for.cond4
                                        # =>This Inner Loop Header: Depth=1
	movq	-24(%rbp), %rax
	movq	-32(%rbp), %rcx
	cmpq	%rcx, %rax
	je	.LBB18_11
# %bb.9:                                # %for.body6
                                        #   in Loop: Header=BB18_8 Depth=1
	movq	-24(%rbp), %rax
	movq	80(%rax), %rax
	movq	-24(%rbp), %rcx
	movq	48(%rcx), %rcx
	movq	%rax, 48(%rcx)
# %bb.10:                               # %for.inc9
                                        #   in Loop: Header=BB18_8 Depth=1
	movq	-24(%rbp), %rax
	addq	$104, %rax
	movq	%rax, -24(%rbp)
	jmp	.LBB18_8
.LBB18_11:                              # %for.end11
	movq	-16(%rbp), %rax
	movq	576(%rax), %rax
	movq	%rax, -32(%rbp)
	movq	-16(%rbp), %rax
	movq	568(%rax), %rax
	movq	%rax, -8(%rbp)
.LBB18_12:                              # %for.cond14
                                        # =>This Inner Loop Header: Depth=1
	movq	-8(%rbp), %rax
	movq	-32(%rbp), %rcx
	cmpq	%rcx, %rax
	je	.LBB18_23
# %bb.13:                               # %for.body16
                                        #   in Loop: Header=BB18_12 Depth=1
	movq	-8(%rbp), %rax
	cmpq	$0, 48(%rax)
	je	.LBB18_21
# %bb.14:                               # %if.then18
                                        #   in Loop: Header=BB18_12 Depth=1
	movq	-8(%rbp), %rax
	movq	8(%rax), %rax
	cmpl	$0, 96(%rax)
	jge	.LBB18_16
# %bb.15:                               # %land.lhs.true
                                        #   in Loop: Header=BB18_12 Depth=1
	movq	-8(%rbp), %rax
	movq	16(%rax), %rax
	cmpl	$0, 96(%rax)
	jg	.LBB18_20
.LBB18_16:                              # %if.then22
                                        #   in Loop: Header=BB18_12 Depth=1
	movq	-8(%rbp), %rax
	movq	8(%rax), %rax
	cmpl	$0, 96(%rax)
	jne	.LBB18_18
# %bb.17:                               # %if.then26
                                        #   in Loop: Header=BB18_12 Depth=1
	movq	-8(%rbp), %rax
	movq	(%rax), %rax
	movq	-16(%rbp), %rcx
	subq	528(%rcx), %rax
	addq	-40(%rbp), %rax
	movq	%rax, -40(%rbp)
	movq	-48(%rbp), %rax
	addq	$1, %rax
	movq	%rax, -48(%rbp)
	jmp	.LBB18_19
.LBB18_18:                              # %if.else27
                                        #   in Loop: Header=BB18_12 Depth=1
	movq	-8(%rbp), %rax
	movq	(%rax), %rax
	addq	-40(%rbp), %rax
	movq	%rax, -40(%rbp)
.LBB18_19:                              # %if.end30
                                        #   in Loop: Header=BB18_12 Depth=1
	jmp	.LBB18_20
.LBB18_20:                              # %if.end31
                                        #   in Loop: Header=BB18_12 Depth=1
	jmp	.LBB18_21
.LBB18_21:                              # %if.end32
                                        #   in Loop: Header=BB18_12 Depth=1
	jmp	.LBB18_22
.LBB18_22:                              # %for.inc33
                                        #   in Loop: Header=BB18_12 Depth=1
	movq	-8(%rbp), %rax
	addq	$64, %rax
	movq	%rax, -8(%rbp)
	jmp	.LBB18_12
.LBB18_23:                              # %for.end35
	vcvtsi2sdq	-48(%rbp), %xmm0, %xmm0
	movq	-16(%rbp), %rax
	vcvtsi2sdq	528(%rax), %xmm0, %xmm1
	vmulsd	%xmm1, %xmm0, %xmm0
	vcvtsi2sdq	-40(%rbp), %xmm0, %xmm1
	vaddsd	%xmm1, %xmm0, %xmm0
	cmpl	$783040577, -52(%rbp)   # imm = 0x2EAC4041
	jne	.LBB18_25
.LBB18_24:
	addq	$64, %rsp
	popq	%rbp
	.cfi_def_cfa %rsp, 8
	retq
.LBB18_25:                              # %func_exit
	.cfi_def_cfa %rbp, 16
	vmovsd	%xmm0, -64(%rbp)        # 8-byte Spill
	callq	detect_breach
	vmovsd	-64(%rbp), %xmm0        # 8-byte Reload
                                        # xmm0 = mem[0],zero
	jmp	.LBB18_24
.Lfunc_end18:
	.size	flow_cost.12, .Lfunc_end18-flow_cost.12
	.cfi_endproc
                                        # -- End function
	.globl	refresh_neighbour_lists.13 # -- Begin function refresh_neighbour_lists.13
	.p2align	4, 0x90
	.type	refresh_neighbour_lists.13,@function
refresh_neighbour_lists.13:             # @refresh_neighbour_lists.13
	.cfi_startproc
# %bb.0:                                # %entry
	pushq	%rbp
	.cfi_def_cfa_offset 16
	.cfi_offset %rbp, -16
	movq	%rsp, %rbp
	.cfi_def_cfa_register %rbp
	subq	$48, %rsp
	movl	$1590107430, -36(%rbp)  # imm = 0x5EC71D26
	movq	%rdi, -24(%rbp)
	movq	-24(%rbp), %rax
	movq	552(%rax), %rax
	movq	%rax, -16(%rbp)
	movq	-24(%rbp), %rax
	movq	560(%rax), %rax
	movq	%rax, -32(%rbp)
.LBB19_1:                               # %for.cond
                                        # =>This Inner Loop Header: Depth=1
	movq	-16(%rbp), %rax
	movq	-32(%rbp), %rcx
	cmpq	%rcx, %rax
	jae	.LBB19_4
# %bb.2:                                # %for.body
                                        #   in Loop: Header=BB19_1 Depth=1
	movq	-16(%rbp), %rax
	movq	$0, 64(%rax)
	movq	-16(%rbp), %rax
	movq	$0, 56(%rax)
# %bb.3:                                # %for.inc
                                        #   in Loop: Header=BB19_1 Depth=1
	movq	-16(%rbp), %rax
	addq	$104, %rax
	movq	%rax, -16(%rbp)
	jmp	.LBB19_1
.LBB19_4:                               # %for.end
	movq	-24(%rbp), %rax
	movq	568(%rax), %rax
	movq	%rax, -8(%rbp)
	movq	-24(%rbp), %rax
	movq	576(%rax), %rax
	movq	%rax, -32(%rbp)
.LBB19_5:                               # %for.cond1
                                        # =>This Inner Loop Header: Depth=1
	movq	-8(%rbp), %rax
	movq	-32(%rbp), %rcx
	cmpq	%rcx, %rax
	jae	.LBB19_8
# %bb.6:                                # %for.body3
                                        #   in Loop: Header=BB19_5 Depth=1
	movq	-8(%rbp), %rax
	movq	8(%rax), %rax
	movq	56(%rax), %rax
	movq	-8(%rbp), %rcx
	movq	%rax, 32(%rcx)
	movq	-8(%rbp), %rax
	movq	-8(%rbp), %rcx
	movq	8(%rcx), %rcx
	movq	%rax, 56(%rcx)
	movq	-8(%rbp), %rax
	movq	16(%rax), %rax
	movq	64(%rax), %rax
	movq	-8(%rbp), %rcx
	movq	%rax, 40(%rcx)
	movq	-8(%rbp), %rax
	movq	-8(%rbp), %rcx
	movq	16(%rcx), %rcx
	movq	%rax, 64(%rcx)
# %bb.7:                                # %for.inc10
                                        #   in Loop: Header=BB19_5 Depth=1
	movq	-8(%rbp), %rax
	addq	$64, %rax
	movq	%rax, -8(%rbp)
	jmp	.LBB19_5
.LBB19_8:                               # %for.end12
	cmpl	$1590107430, -36(%rbp)  # imm = 0x5EC71D26
	jne	.LBB19_10
.LBB19_9:
	addq	$48, %rsp
	popq	%rbp
	.cfi_def_cfa %rsp, 8
	retq
.LBB19_10:                              # %func_exit
	.cfi_def_cfa %rbp, 16
	callq	detect_breach
	jmp	.LBB19_9
.Lfunc_end19:
	.size	refresh_neighbour_lists.13, .Lfunc_end19-refresh_neighbour_lists.13
	.cfi_endproc
                                        # -- End function
	.globl	flow_org_cost.14        # -- Begin function flow_org_cost.14
	.p2align	4, 0x90
	.type	flow_org_cost.14,@function
flow_org_cost.14:                       # @flow_org_cost.14
	.cfi_startproc
# %bb.0:                                # %entry
	pushq	%rbp
	.cfi_def_cfa_offset 16
	.cfi_offset %rbp, -16
	movq	%rsp, %rbp
	.cfi_def_cfa_register %rbp
	subq	$64, %rsp
	movl	$193140138, -52(%rbp)   # imm = 0xB8315AA
	movq	%rdi, -16(%rbp)
	movq	$0, -48(%rbp)
	movq	$0, -32(%rbp)
	movq	-16(%rbp), %rax
	movq	576(%rax), %rax
	movq	%rax, -40(%rbp)
	movq	-16(%rbp), %rax
	movq	568(%rax), %rax
	movq	%rax, -8(%rbp)
.LBB20_1:                               # %for.cond
                                        # =>This Inner Loop Header: Depth=1
	movq	-8(%rbp), %rax
	movq	-40(%rbp), %rcx
	cmpq	%rcx, %rax
	je	.LBB20_7
# %bb.2:                                # %for.body
                                        #   in Loop: Header=BB20_1 Depth=1
	movq	-8(%rbp), %rax
	cmpl	$2, 24(%rax)
	jne	.LBB20_4
# %bb.3:                                # %if.then
                                        #   in Loop: Header=BB20_1 Depth=1
	movq	-8(%rbp), %rax
	movq	$1, 48(%rax)
	jmp	.LBB20_5
.LBB20_4:                               # %if.else
                                        #   in Loop: Header=BB20_1 Depth=1
	movq	-8(%rbp), %rax
	movq	$0, 48(%rax)
.LBB20_5:                               # %if.end
                                        #   in Loop: Header=BB20_1 Depth=1
	jmp	.LBB20_6
.LBB20_6:                               # %for.inc
                                        #   in Loop: Header=BB20_1 Depth=1
	movq	-8(%rbp), %rax
	addq	$64, %rax
	movq	%rax, -8(%rbp)
	jmp	.LBB20_1
.LBB20_7:                               # %for.end
	movq	-16(%rbp), %rax
	movq	560(%rax), %rax
	movq	%rax, -40(%rbp)
	movq	-16(%rbp), %rax
	movq	552(%rax), %rax
	movq	%rax, -24(%rbp)
	movq	-24(%rbp), %rax
	addq	$104, %rax
	movq	%rax, -24(%rbp)
.LBB20_8:                               # %for.cond4
                                        # =>This Inner Loop Header: Depth=1
	movq	-24(%rbp), %rax
	movq	-40(%rbp), %rcx
	cmpq	%rcx, %rax
	je	.LBB20_11
# %bb.9:                                # %for.body6
                                        #   in Loop: Header=BB20_8 Depth=1
	movq	-24(%rbp), %rax
	movq	80(%rax), %rax
	movq	-24(%rbp), %rcx
	movq	48(%rcx), %rcx
	movq	%rax, 48(%rcx)
# %bb.10:                               # %for.inc9
                                        #   in Loop: Header=BB20_8 Depth=1
	movq	-24(%rbp), %rax
	addq	$104, %rax
	movq	%rax, -24(%rbp)
	jmp	.LBB20_8
.LBB20_11:                              # %for.end11
	movq	-16(%rbp), %rax
	movq	576(%rax), %rax
	movq	%rax, -40(%rbp)
	movq	-16(%rbp), %rax
	movq	568(%rax), %rax
	movq	%rax, -8(%rbp)
.LBB20_12:                              # %for.cond14
                                        # =>This Inner Loop Header: Depth=1
	movq	-8(%rbp), %rax
	movq	-40(%rbp), %rcx
	cmpq	%rcx, %rax
	je	.LBB20_23
# %bb.13:                               # %for.body16
                                        #   in Loop: Header=BB20_12 Depth=1
	movq	-8(%rbp), %rax
	cmpq	$0, 48(%rax)
	je	.LBB20_21
# %bb.14:                               # %if.then18
                                        #   in Loop: Header=BB20_12 Depth=1
	movq	-8(%rbp), %rax
	movq	8(%rax), %rax
	cmpl	$0, 96(%rax)
	jge	.LBB20_16
# %bb.15:                               # %land.lhs.true
                                        #   in Loop: Header=BB20_12 Depth=1
	movq	-8(%rbp), %rax
	movq	16(%rax), %rax
	cmpl	$0, 96(%rax)
	jg	.LBB20_20
.LBB20_16:                              # %if.then22
                                        #   in Loop: Header=BB20_12 Depth=1
	movq	-8(%rbp), %rax
	movq	8(%rax), %rax
	cmpl	$0, 96(%rax)
	jne	.LBB20_18
# %bb.17:                               # %if.then26
                                        #   in Loop: Header=BB20_12 Depth=1
	movq	-8(%rbp), %rax
	movq	56(%rax), %rax
	movq	-16(%rbp), %rcx
	subq	528(%rcx), %rax
	addq	-32(%rbp), %rax
	movq	%rax, -32(%rbp)
	movq	-48(%rbp), %rax
	addq	$1, %rax
	movq	%rax, -48(%rbp)
	jmp	.LBB20_19
.LBB20_18:                              # %if.else27
                                        #   in Loop: Header=BB20_12 Depth=1
	movq	-8(%rbp), %rax
	movq	56(%rax), %rax
	addq	-32(%rbp), %rax
	movq	%rax, -32(%rbp)
.LBB20_19:                              # %if.end30
                                        #   in Loop: Header=BB20_12 Depth=1
	jmp	.LBB20_20
.LBB20_20:                              # %if.end31
                                        #   in Loop: Header=BB20_12 Depth=1
	jmp	.LBB20_21
.LBB20_21:                              # %if.end32
                                        #   in Loop: Header=BB20_12 Depth=1
	jmp	.LBB20_22
.LBB20_22:                              # %for.inc33
                                        #   in Loop: Header=BB20_12 Depth=1
	movq	-8(%rbp), %rax
	addq	$64, %rax
	movq	%rax, -8(%rbp)
	jmp	.LBB20_12
.LBB20_23:                              # %for.end35
	vcvtsi2sdq	-48(%rbp), %xmm0, %xmm0
	movq	-16(%rbp), %rax
	vcvtsi2sdq	528(%rax), %xmm0, %xmm1
	vmulsd	%xmm1, %xmm0, %xmm0
	vcvtsi2sdq	-32(%rbp), %xmm0, %xmm1
	vaddsd	%xmm1, %xmm0, %xmm0
	cmpl	$193140138, -52(%rbp)   # imm = 0xB8315AA
	jne	.LBB20_25
.LBB20_24:
	addq	$64, %rsp
	popq	%rbp
	.cfi_def_cfa %rsp, 8
	retq
.LBB20_25:                              # %func_exit
	.cfi_def_cfa %rbp, 16
	vmovsd	%xmm0, -64(%rbp)        # 8-byte Spill
	callq	detect_breach
	vmovsd	-64(%rbp), %xmm0        # 8-byte Reload
                                        # xmm0 = mem[0],zero
	jmp	.LBB20_24
.Lfunc_end20:
	.size	flow_org_cost.14, .Lfunc_end20-flow_org_cost.14
	.cfi_endproc
                                        # -- End function
	.globl	dual_feasible.15        # -- Begin function dual_feasible.15
	.p2align	4, 0x90
	.type	dual_feasible.15,@function
dual_feasible.15:                       # @dual_feasible.15
	.cfi_startproc
# %bb.0:                                # %entry
	pushq	%rbp
	.cfi_def_cfa_offset 16
	.cfi_offset %rbp, -16
	movq	%rsp, %rbp
	.cfi_def_cfa_register %rbp
	pushq	%rbx
	subq	$56, %rsp
	.cfi_offset %rbx, -24
	movl	$613950127, -28(%rbp)   # imm = 0x249822AF
	movq	%rdi, -24(%rbp)
	movq	-24(%rbp), %rax
	movq	576(%rax), %rax
	movq	%rax, -56(%rbp)
	movq	-24(%rbp), %rax
	movq	568(%rax), %rax
	movq	%rax, -16(%rbp)
.LBB21_1:                               # %for.cond
                                        # =>This Inner Loop Header: Depth=1
	movq	-16(%rbp), %rax
	cmpq	-56(%rbp), %rax
	jae	.LBB21_15
# %bb.2:                                # %for.body
                                        #   in Loop: Header=BB21_1 Depth=1
	movq	-16(%rbp), %rax
	movq	(%rax), %rcx
	movq	8(%rax), %rdx
	movq	(%rdx), %rdx
	subq	%rdx, %rcx
	movq	16(%rax), %rax
	movq	(%rax), %rax
	addq	%rax, %rcx
	movq	%rcx, -40(%rbp)
	movq	-16(%rbp), %rax
	movl	24(%rax), %eax
	movl	%eax, %ecx
	subl	$-1, %ecx
	je	.LBB21_11
	jmp	.LBB21_3
.LBB21_3:                               # %for.body
                                        #   in Loop: Header=BB21_1 Depth=1
	movl	%eax, %ecx
	subl	$2, %ecx
	jb	.LBB21_5
	jmp	.LBB21_4
.LBB21_4:                               # %for.body
                                        #   in Loop: Header=BB21_1 Depth=1
	subl	$2, %eax
	je	.LBB21_8
	jmp	.LBB21_12
.LBB21_5:                               # %sw.bb
                                        #   in Loop: Header=BB21_1 Depth=1
	xorl	%eax, %eax
	movq	-40(%rbp), %rcx
	movq	-24(%rbp), %rdx
	subq	512(%rdx), %rax
	cmpq	%rax, %rcx
	jge	.LBB21_7
# %bb.6:                                # %if.then
	jmp	.LBB21_16
.LBB21_7:                               # %if.end
                                        #   in Loop: Header=BB21_1 Depth=1
	jmp	.LBB21_13
.LBB21_8:                               # %sw.bb4
                                        #   in Loop: Header=BB21_1 Depth=1
	movq	-40(%rbp), %rax
	movq	-24(%rbp), %rcx
	cmpq	512(%rcx), %rax
	jle	.LBB21_10
# %bb.9:                                # %if.then7
	jmp	.LBB21_16
.LBB21_10:                              # %if.end8
                                        #   in Loop: Header=BB21_1 Depth=1
	jmp	.LBB21_13
.LBB21_11:                              # %sw.bb9
                                        #   in Loop: Header=BB21_1 Depth=1
	jmp	.LBB21_12
.LBB21_12:                              # %sw.default
                                        #   in Loop: Header=BB21_1 Depth=1
	jmp	.LBB21_13
.LBB21_13:                              # %sw.epilog
                                        #   in Loop: Header=BB21_1 Depth=1
	jmp	.LBB21_14
.LBB21_14:                              # %for.inc
                                        #   in Loop: Header=BB21_1 Depth=1
	movq	-16(%rbp), %rax
	addq	$64, %rax
	movq	%rax, -16(%rbp)
	jmp	.LBB21_1
.LBB21_15:                              # %for.end
	movq	$0, -48(%rbp)
	jmp	.LBB21_17
.LBB21_16:                              # %DUAL_INFEAS
	movq	stderr, %rdi
	movabsq	$.L.str.3, %rsi
	movb	$0, %al
	callq	fprintf
	movq	stderr, %rdi
	movabsq	$.L.str.4, %rsi
	movb	$0, %al
	callq	fprintf
	movq	$1, -48(%rbp)
.LBB21_17:                              # %return
	movq	-48(%rbp), %rbx
	cmpl	$613950127, -28(%rbp)   # imm = 0x249822AF
	jne	.LBB21_19
.LBB21_18:
	movq	%rbx, %rax
	addq	$56, %rsp
	popq	%rbx
	popq	%rbp
	.cfi_def_cfa %rsp, 8
	retq
.LBB21_19:                              # %func_exit
	.cfi_def_cfa %rbp, 16
	callq	detect_breach
	jmp	.LBB21_18
.Lfunc_end21:
	.size	dual_feasible.15, .Lfunc_end21-dual_feasible.15
	.cfi_endproc
                                        # -- End function
	.globl	flow_org_cost.16        # -- Begin function flow_org_cost.16
	.p2align	4, 0x90
	.type	flow_org_cost.16,@function
flow_org_cost.16:                       # @flow_org_cost.16
	.cfi_startproc
# %bb.0:                                # %entry
	pushq	%rbp
	.cfi_def_cfa_offset 16
	.cfi_offset %rbp, -16
	movq	%rsp, %rbp
	.cfi_def_cfa_register %rbp
	subq	$64, %rsp
	movl	$446473474, -52(%rbp)   # imm = 0x1A9CA502
	movq	%rdi, -16(%rbp)
	movq	$0, -48(%rbp)
	movq	$0, -40(%rbp)
	movq	-16(%rbp), %rax
	movq	576(%rax), %rax
	movq	%rax, -32(%rbp)
	movq	-16(%rbp), %rax
	movq	568(%rax), %rax
	movq	%rax, -8(%rbp)
.LBB22_1:                               # %for.cond
                                        # =>This Inner Loop Header: Depth=1
	movq	-8(%rbp), %rax
	movq	-32(%rbp), %rcx
	cmpq	%rcx, %rax
	je	.LBB22_7
# %bb.2:                                # %for.body
                                        #   in Loop: Header=BB22_1 Depth=1
	movq	-8(%rbp), %rax
	cmpl	$2, 24(%rax)
	jne	.LBB22_4
# %bb.3:                                # %if.then
                                        #   in Loop: Header=BB22_1 Depth=1
	movq	-8(%rbp), %rax
	movq	$1, 48(%rax)
	jmp	.LBB22_5
.LBB22_4:                               # %if.else
                                        #   in Loop: Header=BB22_1 Depth=1
	movq	-8(%rbp), %rax
	movq	$0, 48(%rax)
.LBB22_5:                               # %if.end
                                        #   in Loop: Header=BB22_1 Depth=1
	jmp	.LBB22_6
.LBB22_6:                               # %for.inc
                                        #   in Loop: Header=BB22_1 Depth=1
	movq	-8(%rbp), %rax
	addq	$64, %rax
	movq	%rax, -8(%rbp)
	jmp	.LBB22_1
.LBB22_7:                               # %for.end
	movq	-16(%rbp), %rax
	movq	560(%rax), %rax
	movq	%rax, -32(%rbp)
	movq	-16(%rbp), %rax
	movq	552(%rax), %rax
	movq	%rax, -24(%rbp)
	movq	-24(%rbp), %rax
	addq	$104, %rax
	movq	%rax, -24(%rbp)
.LBB22_8:                               # %for.cond4
                                        # =>This Inner Loop Header: Depth=1
	movq	-24(%rbp), %rax
	movq	-32(%rbp), %rcx
	cmpq	%rcx, %rax
	je	.LBB22_11
# %bb.9:                                # %for.body6
                                        #   in Loop: Header=BB22_8 Depth=1
	movq	-24(%rbp), %rax
	movq	80(%rax), %rax
	movq	-24(%rbp), %rcx
	movq	48(%rcx), %rcx
	movq	%rax, 48(%rcx)
# %bb.10:                               # %for.inc9
                                        #   in Loop: Header=BB22_8 Depth=1
	movq	-24(%rbp), %rax
	addq	$104, %rax
	movq	%rax, -24(%rbp)
	jmp	.LBB22_8
.LBB22_11:                              # %for.end11
	movq	-16(%rbp), %rax
	movq	576(%rax), %rax
	movq	%rax, -32(%rbp)
	movq	-16(%rbp), %rax
	movq	568(%rax), %rax
	movq	%rax, -8(%rbp)
.LBB22_12:                              # %for.cond14
                                        # =>This Inner Loop Header: Depth=1
	movq	-8(%rbp), %rax
	movq	-32(%rbp), %rcx
	cmpq	%rcx, %rax
	je	.LBB22_23
# %bb.13:                               # %for.body16
                                        #   in Loop: Header=BB22_12 Depth=1
	movq	-8(%rbp), %rax
	cmpq	$0, 48(%rax)
	je	.LBB22_21
# %bb.14:                               # %if.then18
                                        #   in Loop: Header=BB22_12 Depth=1
	movq	-8(%rbp), %rax
	movq	8(%rax), %rax
	cmpl	$0, 96(%rax)
	jge	.LBB22_16
# %bb.15:                               # %land.lhs.true
                                        #   in Loop: Header=BB22_12 Depth=1
	movq	-8(%rbp), %rax
	movq	16(%rax), %rax
	cmpl	$0, 96(%rax)
	jg	.LBB22_20
.LBB22_16:                              # %if.then22
                                        #   in Loop: Header=BB22_12 Depth=1
	movq	-8(%rbp), %rax
	movq	8(%rax), %rax
	cmpl	$0, 96(%rax)
	jne	.LBB22_18
# %bb.17:                               # %if.then26
                                        #   in Loop: Header=BB22_12 Depth=1
	movq	-8(%rbp), %rax
	movq	56(%rax), %rax
	movq	-16(%rbp), %rcx
	subq	528(%rcx), %rax
	addq	-40(%rbp), %rax
	movq	%rax, -40(%rbp)
	movq	-48(%rbp), %rax
	addq	$1, %rax
	movq	%rax, -48(%rbp)
	jmp	.LBB22_19
.LBB22_18:                              # %if.else27
                                        #   in Loop: Header=BB22_12 Depth=1
	movq	-8(%rbp), %rax
	movq	56(%rax), %rax
	addq	-40(%rbp), %rax
	movq	%rax, -40(%rbp)
.LBB22_19:                              # %if.end30
                                        #   in Loop: Header=BB22_12 Depth=1
	jmp	.LBB22_20
.LBB22_20:                              # %if.end31
                                        #   in Loop: Header=BB22_12 Depth=1
	jmp	.LBB22_21
.LBB22_21:                              # %if.end32
                                        #   in Loop: Header=BB22_12 Depth=1
	jmp	.LBB22_22
.LBB22_22:                              # %for.inc33
                                        #   in Loop: Header=BB22_12 Depth=1
	movq	-8(%rbp), %rax
	addq	$64, %rax
	movq	%rax, -8(%rbp)
	jmp	.LBB22_12
.LBB22_23:                              # %for.end35
	vcvtsi2sdq	-48(%rbp), %xmm0, %xmm0
	movq	-16(%rbp), %rax
	vcvtsi2sdq	528(%rax), %xmm0, %xmm1
	vmulsd	%xmm1, %xmm0, %xmm0
	vcvtsi2sdq	-40(%rbp), %xmm0, %xmm1
	vaddsd	%xmm1, %xmm0, %xmm0
	cmpl	$446473474, -52(%rbp)   # imm = 0x1A9CA502
	jne	.LBB22_25
.LBB22_24:
	addq	$64, %rsp
	popq	%rbp
	.cfi_def_cfa %rsp, 8
	retq
.LBB22_25:                              # %func_exit
	.cfi_def_cfa %rbp, 16
	vmovsd	%xmm0, -64(%rbp)        # 8-byte Spill
	callq	detect_breach
	vmovsd	-64(%rbp), %xmm0        # 8-byte Reload
                                        # xmm0 = mem[0],zero
	jmp	.LBB22_24
.Lfunc_end22:
	.size	flow_org_cost.16, .Lfunc_end22-flow_org_cost.16
	.cfi_endproc
                                        # -- End function
	.globl	refresh_potential.17    # -- Begin function refresh_potential.17
	.p2align	4, 0x90
	.type	refresh_potential.17,@function
refresh_potential.17:                   # @refresh_potential.17
	.cfi_startproc
# %bb.0:                                # %entry
	pushq	%rbp
	.cfi_def_cfa_offset 16
	.cfi_offset %rbp, -16
	movq	%rsp, %rbp
	.cfi_def_cfa_register %rbp
	pushq	%rbx
	subq	$56, %rsp
	.cfi_offset %rbx, -24
	movl	$915941228, -44(%rbp)   # imm = 0x3698276C
	movq	%rdi, -56(%rbp)
	movq	-56(%rbp), %rax
	movq	552(%rax), %rax
	movq	%rax, -40(%rbp)
	movq	$0, -32(%rbp)
	movq	-40(%rbp), %rax
	movq	$-100000000, (%rax)     # imm = 0xFA0A1F00
	movq	-40(%rbp), %rax
	movq	16(%rax), %rax
	movq	%rax, -16(%rbp)
	movq	%rax, -24(%rbp)
.LBB23_1:                               # %while.cond
                                        # =>This Loop Header: Depth=1
                                        #     Child Loop BB23_3 Depth 2
                                        #     Child Loop BB23_9 Depth 2
	movq	-16(%rbp), %rax
	cmpq	-40(%rbp), %rax
	je	.LBB23_16
# %bb.2:                                # %while.body
                                        #   in Loop: Header=BB23_1 Depth=1
	jmp	.LBB23_3
.LBB23_3:                               # %while.cond1
                                        #   Parent Loop BB23_1 Depth=1
                                        # =>  This Inner Loop Header: Depth=2
	cmpq	$0, -16(%rbp)
	je	.LBB23_8
# %bb.4:                                # %while.body2
                                        #   in Loop: Header=BB23_3 Depth=2
	movq	-16(%rbp), %rax
	cmpl	$1, 8(%rax)
	jne	.LBB23_6
# %bb.5:                                # %if.then
                                        #   in Loop: Header=BB23_3 Depth=2
	movq	-16(%rbp), %rax
	movq	48(%rax), %rax
	movq	(%rax), %rax
	movq	-16(%rbp), %rcx
	movq	24(%rcx), %rcx
	addq	(%rcx), %rax
	movq	-16(%rbp), %rcx
	movq	%rax, (%rcx)
	jmp	.LBB23_7
.LBB23_6:                               # %if.else
                                        #   in Loop: Header=BB23_3 Depth=2
	movq	-16(%rbp), %rax
	movq	24(%rax), %rax
	movq	(%rax), %rax
	movq	-16(%rbp), %rcx
	movq	48(%rcx), %rcx
	subq	(%rcx), %rax
	movq	-16(%rbp), %rcx
	movq	%rax, (%rcx)
	movq	-32(%rbp), %rax
	addq	$1, %rax
	movq	%rax, -32(%rbp)
.LBB23_7:                               # %if.end
                                        #   in Loop: Header=BB23_3 Depth=2
	movq	-16(%rbp), %rax
	movq	%rax, -24(%rbp)
	movq	-16(%rbp), %rax
	movq	16(%rax), %rax
	movq	%rax, -16(%rbp)
	jmp	.LBB23_3
.LBB23_8:                               # %while.end
                                        #   in Loop: Header=BB23_1 Depth=1
	movq	-24(%rbp), %rax
	movq	%rax, -16(%rbp)
.LBB23_9:                               # %while.cond12
                                        #   Parent Loop BB23_1 Depth=1
                                        # =>  This Inner Loop Header: Depth=2
	movq	-16(%rbp), %rax
	cmpq	$0, 24(%rax)
	je	.LBB23_14
# %bb.10:                               # %while.body15
                                        #   in Loop: Header=BB23_9 Depth=2
	movq	-16(%rbp), %rax
	movq	32(%rax), %rax
	movq	%rax, -24(%rbp)
	cmpq	$0, -24(%rbp)
	je	.LBB23_12
# %bb.11:                               # %if.then17
                                        #   in Loop: Header=BB23_1 Depth=1
	movq	-24(%rbp), %rax
	movq	%rax, -16(%rbp)
	jmp	.LBB23_15
.LBB23_12:                              # %if.else18
                                        #   in Loop: Header=BB23_9 Depth=2
	movq	-16(%rbp), %rax
	movq	24(%rax), %rax
	movq	%rax, -16(%rbp)
# %bb.13:                               # %if.end20
                                        #   in Loop: Header=BB23_9 Depth=2
	jmp	.LBB23_9
.LBB23_14:                              # %while.end21.loopexit
                                        #   in Loop: Header=BB23_1 Depth=1
	jmp	.LBB23_15
.LBB23_15:                              # %while.end21
                                        #   in Loop: Header=BB23_1 Depth=1
	jmp	.LBB23_1
.LBB23_16:                              # %while.end22
	movq	-32(%rbp), %rbx
	cmpl	$915941228, -44(%rbp)   # imm = 0x3698276C
	jne	.LBB23_18
.LBB23_17:
	movq	%rbx, %rax
	addq	$56, %rsp
	popq	%rbx
	popq	%rbp
	.cfi_def_cfa %rsp, 8
	retq
.LBB23_18:                              # %func_exit
	.cfi_def_cfa %rbp, 16
	callq	detect_breach
	jmp	.LBB23_17
.Lfunc_end23:
	.size	refresh_potential.17, .Lfunc_end23-refresh_potential.17
	.cfi_endproc
                                        # -- End function
	.globl	refresh_neighbour_lists.18 # -- Begin function refresh_neighbour_lists.18
	.p2align	4, 0x90
	.type	refresh_neighbour_lists.18,@function
refresh_neighbour_lists.18:             # @refresh_neighbour_lists.18
	.cfi_startproc
# %bb.0:                                # %entry
	pushq	%rbp
	.cfi_def_cfa_offset 16
	.cfi_offset %rbp, -16
	movq	%rsp, %rbp
	.cfi_def_cfa_register %rbp
	subq	$48, %rsp
	movl	$2081823124, -36(%rbp)  # imm = 0x7C161994
	movq	%rdi, -24(%rbp)
	movq	-24(%rbp), %rax
	movq	552(%rax), %rax
	movq	%rax, -16(%rbp)
	movq	-24(%rbp), %rax
	movq	560(%rax), %rax
	movq	%rax, -32(%rbp)
.LBB24_1:                               # %for.cond
                                        # =>This Inner Loop Header: Depth=1
	movq	-16(%rbp), %rax
	movq	-32(%rbp), %rcx
	cmpq	%rcx, %rax
	jae	.LBB24_4
# %bb.2:                                # %for.body
                                        #   in Loop: Header=BB24_1 Depth=1
	movq	-16(%rbp), %rax
	movq	$0, 64(%rax)
	movq	-16(%rbp), %rax
	movq	$0, 56(%rax)
# %bb.3:                                # %for.inc
                                        #   in Loop: Header=BB24_1 Depth=1
	movq	-16(%rbp), %rax
	addq	$104, %rax
	movq	%rax, -16(%rbp)
	jmp	.LBB24_1
.LBB24_4:                               # %for.end
	movq	-24(%rbp), %rax
	movq	568(%rax), %rax
	movq	%rax, -8(%rbp)
	movq	-24(%rbp), %rax
	movq	576(%rax), %rax
	movq	%rax, -32(%rbp)
.LBB24_5:                               # %for.cond1
                                        # =>This Inner Loop Header: Depth=1
	movq	-8(%rbp), %rax
	movq	-32(%rbp), %rcx
	cmpq	%rcx, %rax
	jae	.LBB24_8
# %bb.6:                                # %for.body3
                                        #   in Loop: Header=BB24_5 Depth=1
	movq	-8(%rbp), %rax
	movq	8(%rax), %rax
	movq	56(%rax), %rax
	movq	-8(%rbp), %rcx
	movq	%rax, 32(%rcx)
	movq	-8(%rbp), %rax
	movq	-8(%rbp), %rcx
	movq	8(%rcx), %rcx
	movq	%rax, 56(%rcx)
	movq	-8(%rbp), %rax
	movq	16(%rax), %rax
	movq	64(%rax), %rax
	movq	-8(%rbp), %rcx
	movq	%rax, 40(%rcx)
	movq	-8(%rbp), %rax
	movq	-8(%rbp), %rcx
	movq	16(%rcx), %rcx
	movq	%rax, 64(%rcx)
# %bb.7:                                # %for.inc10
                                        #   in Loop: Header=BB24_5 Depth=1
	movq	-8(%rbp), %rax
	addq	$64, %rax
	movq	%rax, -8(%rbp)
	jmp	.LBB24_5
.LBB24_8:                               # %for.end12
	cmpl	$2081823124, -36(%rbp)  # imm = 0x7C161994
	jne	.LBB24_10
.LBB24_9:
	addq	$48, %rsp
	popq	%rbp
	.cfi_def_cfa %rsp, 8
	retq
.LBB24_10:                              # %func_exit
	.cfi_def_cfa %rbp, 16
	callq	detect_breach
	jmp	.LBB24_9
.Lfunc_end24:
	.size	refresh_neighbour_lists.18, .Lfunc_end24-refresh_neighbour_lists.18
	.cfi_endproc
                                        # -- End function
	.globl	refresh_neighbour_lists.19 # -- Begin function refresh_neighbour_lists.19
	.p2align	4, 0x90
	.type	refresh_neighbour_lists.19,@function
refresh_neighbour_lists.19:             # @refresh_neighbour_lists.19
	.cfi_startproc
# %bb.0:                                # %entry
	pushq	%rbp
	.cfi_def_cfa_offset 16
	.cfi_offset %rbp, -16
	movq	%rsp, %rbp
	.cfi_def_cfa_register %rbp
	subq	$48, %rsp
	movl	$428420076, -36(%rbp)   # imm = 0x19892BEC
	movq	%rdi, -24(%rbp)
	movq	-24(%rbp), %rax
	movq	552(%rax), %rax
	movq	%rax, -16(%rbp)
	movq	-24(%rbp), %rax
	movq	560(%rax), %rax
	movq	%rax, -32(%rbp)
.LBB25_1:                               # %for.cond
                                        # =>This Inner Loop Header: Depth=1
	movq	-16(%rbp), %rax
	movq	-32(%rbp), %rcx
	cmpq	%rcx, %rax
	jae	.LBB25_4
# %bb.2:                                # %for.body
                                        #   in Loop: Header=BB25_1 Depth=1
	movq	-16(%rbp), %rax
	movq	$0, 64(%rax)
	movq	-16(%rbp), %rax
	movq	$0, 56(%rax)
# %bb.3:                                # %for.inc
                                        #   in Loop: Header=BB25_1 Depth=1
	movq	-16(%rbp), %rax
	addq	$104, %rax
	movq	%rax, -16(%rbp)
	jmp	.LBB25_1
.LBB25_4:                               # %for.end
	movq	-24(%rbp), %rax
	movq	568(%rax), %rax
	movq	%rax, -8(%rbp)
	movq	-24(%rbp), %rax
	movq	576(%rax), %rax
	movq	%rax, -32(%rbp)
.LBB25_5:                               # %for.cond1
                                        # =>This Inner Loop Header: Depth=1
	movq	-8(%rbp), %rax
	movq	-32(%rbp), %rcx
	cmpq	%rcx, %rax
	jae	.LBB25_8
# %bb.6:                                # %for.body3
                                        #   in Loop: Header=BB25_5 Depth=1
	movq	-8(%rbp), %rax
	movq	8(%rax), %rax
	movq	56(%rax), %rax
	movq	-8(%rbp), %rcx
	movq	%rax, 32(%rcx)
	movq	-8(%rbp), %rax
	movq	-8(%rbp), %rcx
	movq	8(%rcx), %rcx
	movq	%rax, 56(%rcx)
	movq	-8(%rbp), %rax
	movq	16(%rax), %rax
	movq	64(%rax), %rax
	movq	-8(%rbp), %rcx
	movq	%rax, 40(%rcx)
	movq	-8(%rbp), %rax
	movq	-8(%rbp), %rcx
	movq	16(%rcx), %rcx
	movq	%rax, 64(%rcx)
# %bb.7:                                # %for.inc10
                                        #   in Loop: Header=BB25_5 Depth=1
	movq	-8(%rbp), %rax
	addq	$64, %rax
	movq	%rax, -8(%rbp)
	jmp	.LBB25_5
.LBB25_8:                               # %for.end12
	cmpl	$428420076, -36(%rbp)   # imm = 0x19892BEC
	jne	.LBB25_10
.LBB25_9:
	addq	$48, %rsp
	popq	%rbp
	.cfi_def_cfa %rsp, 8
	retq
.LBB25_10:                              # %func_exit
	.cfi_def_cfa %rbp, 16
	callq	detect_breach
	jmp	.LBB25_9
.Lfunc_end25:
	.size	refresh_neighbour_lists.19, .Lfunc_end25-refresh_neighbour_lists.19
	.cfi_endproc
                                        # -- End function
	.globl	flow_org_cost.20        # -- Begin function flow_org_cost.20
	.p2align	4, 0x90
	.type	flow_org_cost.20,@function
flow_org_cost.20:                       # @flow_org_cost.20
	.cfi_startproc
# %bb.0:                                # %entry
	pushq	%rbp
	.cfi_def_cfa_offset 16
	.cfi_offset %rbp, -16
	movq	%rsp, %rbp
	.cfi_def_cfa_register %rbp
	subq	$64, %rsp
	movl	$173316690, -52(%rbp)   # imm = 0xA549A52
	movq	%rdi, -16(%rbp)
	movq	$0, -48(%rbp)
	movq	$0, -40(%rbp)
	movq	-16(%rbp), %rax
	movq	576(%rax), %rax
	movq	%rax, -32(%rbp)
	movq	-16(%rbp), %rax
	movq	568(%rax), %rax
	movq	%rax, -8(%rbp)
.LBB26_1:                               # %for.cond
                                        # =>This Inner Loop Header: Depth=1
	movq	-8(%rbp), %rax
	movq	-32(%rbp), %rcx
	cmpq	%rcx, %rax
	je	.LBB26_7
# %bb.2:                                # %for.body
                                        #   in Loop: Header=BB26_1 Depth=1
	movq	-8(%rbp), %rax
	cmpl	$2, 24(%rax)
	jne	.LBB26_4
# %bb.3:                                # %if.then
                                        #   in Loop: Header=BB26_1 Depth=1
	movq	-8(%rbp), %rax
	movq	$1, 48(%rax)
	jmp	.LBB26_5
.LBB26_4:                               # %if.else
                                        #   in Loop: Header=BB26_1 Depth=1
	movq	-8(%rbp), %rax
	movq	$0, 48(%rax)
.LBB26_5:                               # %if.end
                                        #   in Loop: Header=BB26_1 Depth=1
	jmp	.LBB26_6
.LBB26_6:                               # %for.inc
                                        #   in Loop: Header=BB26_1 Depth=1
	movq	-8(%rbp), %rax
	addq	$64, %rax
	movq	%rax, -8(%rbp)
	jmp	.LBB26_1
.LBB26_7:                               # %for.end
	movq	-16(%rbp), %rax
	movq	560(%rax), %rax
	movq	%rax, -32(%rbp)
	movq	-16(%rbp), %rax
	movq	552(%rax), %rax
	movq	%rax, -24(%rbp)
	movq	-24(%rbp), %rax
	addq	$104, %rax
	movq	%rax, -24(%rbp)
.LBB26_8:                               # %for.cond4
                                        # =>This Inner Loop Header: Depth=1
	movq	-24(%rbp), %rax
	movq	-32(%rbp), %rcx
	cmpq	%rcx, %rax
	je	.LBB26_11
# %bb.9:                                # %for.body6
                                        #   in Loop: Header=BB26_8 Depth=1
	movq	-24(%rbp), %rax
	movq	80(%rax), %rax
	movq	-24(%rbp), %rcx
	movq	48(%rcx), %rcx
	movq	%rax, 48(%rcx)
# %bb.10:                               # %for.inc9
                                        #   in Loop: Header=BB26_8 Depth=1
	movq	-24(%rbp), %rax
	addq	$104, %rax
	movq	%rax, -24(%rbp)
	jmp	.LBB26_8
.LBB26_11:                              # %for.end11
	movq	-16(%rbp), %rax
	movq	576(%rax), %rax
	movq	%rax, -32(%rbp)
	movq	-16(%rbp), %rax
	movq	568(%rax), %rax
	movq	%rax, -8(%rbp)
.LBB26_12:                              # %for.cond14
                                        # =>This Inner Loop Header: Depth=1
	movq	-8(%rbp), %rax
	movq	-32(%rbp), %rcx
	cmpq	%rcx, %rax
	je	.LBB26_23
# %bb.13:                               # %for.body16
                                        #   in Loop: Header=BB26_12 Depth=1
	movq	-8(%rbp), %rax
	cmpq	$0, 48(%rax)
	je	.LBB26_21
# %bb.14:                               # %if.then18
                                        #   in Loop: Header=BB26_12 Depth=1
	movq	-8(%rbp), %rax
	movq	8(%rax), %rax
	cmpl	$0, 96(%rax)
	jge	.LBB26_16
# %bb.15:                               # %land.lhs.true
                                        #   in Loop: Header=BB26_12 Depth=1
	movq	-8(%rbp), %rax
	movq	16(%rax), %rax
	cmpl	$0, 96(%rax)
	jg	.LBB26_20
.LBB26_16:                              # %if.then22
                                        #   in Loop: Header=BB26_12 Depth=1
	movq	-8(%rbp), %rax
	movq	8(%rax), %rax
	cmpl	$0, 96(%rax)
	jne	.LBB26_18
# %bb.17:                               # %if.then26
                                        #   in Loop: Header=BB26_12 Depth=1
	movq	-8(%rbp), %rax
	movq	56(%rax), %rax
	movq	-16(%rbp), %rcx
	subq	528(%rcx), %rax
	addq	-40(%rbp), %rax
	movq	%rax, -40(%rbp)
	movq	-48(%rbp), %rax
	addq	$1, %rax
	movq	%rax, -48(%rbp)
	jmp	.LBB26_19
.LBB26_18:                              # %if.else27
                                        #   in Loop: Header=BB26_12 Depth=1
	movq	-8(%rbp), %rax
	movq	56(%rax), %rax
	addq	-40(%rbp), %rax
	movq	%rax, -40(%rbp)
.LBB26_19:                              # %if.end30
                                        #   in Loop: Header=BB26_12 Depth=1
	jmp	.LBB26_20
.LBB26_20:                              # %if.end31
                                        #   in Loop: Header=BB26_12 Depth=1
	jmp	.LBB26_21
.LBB26_21:                              # %if.end32
                                        #   in Loop: Header=BB26_12 Depth=1
	jmp	.LBB26_22
.LBB26_22:                              # %for.inc33
                                        #   in Loop: Header=BB26_12 Depth=1
	movq	-8(%rbp), %rax
	addq	$64, %rax
	movq	%rax, -8(%rbp)
	jmp	.LBB26_12
.LBB26_23:                              # %for.end35
	vcvtsi2sdq	-48(%rbp), %xmm0, %xmm0
	movq	-16(%rbp), %rax
	vcvtsi2sdq	528(%rax), %xmm0, %xmm1
	vmulsd	%xmm1, %xmm0, %xmm0
	vcvtsi2sdq	-40(%rbp), %xmm0, %xmm1
	vaddsd	%xmm1, %xmm0, %xmm0
	cmpl	$173316690, -52(%rbp)   # imm = 0xA549A52
	jne	.LBB26_25
.LBB26_24:
	addq	$64, %rsp
	popq	%rbp
	.cfi_def_cfa %rsp, 8
	retq
.LBB26_25:                              # %func_exit
	.cfi_def_cfa %rbp, 16
	vmovsd	%xmm0, -64(%rbp)        # 8-byte Spill
	callq	detect_breach
	vmovsd	-64(%rbp), %xmm0        # 8-byte Reload
                                        # xmm0 = mem[0],zero
	jmp	.LBB26_24
.Lfunc_end26:
	.size	flow_org_cost.20, .Lfunc_end26-flow_org_cost.20
	.cfi_endproc
                                        # -- End function
	.globl	dual_feasible.21        # -- Begin function dual_feasible.21
	.p2align	4, 0x90
	.type	dual_feasible.21,@function
dual_feasible.21:                       # @dual_feasible.21
	.cfi_startproc
# %bb.0:                                # %entry
	pushq	%rbp
	.cfi_def_cfa_offset 16
	.cfi_offset %rbp, -16
	movq	%rsp, %rbp
	.cfi_def_cfa_register %rbp
	pushq	%rbx
	subq	$56, %rsp
	.cfi_offset %rbx, -24
	movl	$1021828845, -28(%rbp)  # imm = 0x3CE7DEED
	movq	%rdi, -24(%rbp)
	movq	-24(%rbp), %rax
	movq	576(%rax), %rax
	movq	%rax, -56(%rbp)
	movq	-24(%rbp), %rax
	movq	568(%rax), %rax
	movq	%rax, -16(%rbp)
.LBB27_1:                               # %for.cond
                                        # =>This Inner Loop Header: Depth=1
	movq	-16(%rbp), %rax
	cmpq	-56(%rbp), %rax
	jae	.LBB27_15
# %bb.2:                                # %for.body
                                        #   in Loop: Header=BB27_1 Depth=1
	movq	-16(%rbp), %rax
	movq	(%rax), %rcx
	movq	8(%rax), %rdx
	movq	(%rdx), %rdx
	subq	%rdx, %rcx
	movq	16(%rax), %rax
	movq	(%rax), %rax
	addq	%rax, %rcx
	movq	%rcx, -40(%rbp)
	movq	-16(%rbp), %rax
	movl	24(%rax), %eax
	movl	%eax, %ecx
	subl	$-1, %ecx
	je	.LBB27_11
	jmp	.LBB27_3
.LBB27_3:                               # %for.body
                                        #   in Loop: Header=BB27_1 Depth=1
	movl	%eax, %ecx
	subl	$2, %ecx
	jb	.LBB27_5
	jmp	.LBB27_4
.LBB27_4:                               # %for.body
                                        #   in Loop: Header=BB27_1 Depth=1
	subl	$2, %eax
	je	.LBB27_8
	jmp	.LBB27_12
.LBB27_5:                               # %sw.bb
                                        #   in Loop: Header=BB27_1 Depth=1
	xorl	%eax, %eax
	movq	-40(%rbp), %rcx
	movq	-24(%rbp), %rdx
	subq	512(%rdx), %rax
	cmpq	%rax, %rcx
	jge	.LBB27_7
# %bb.6:                                # %if.then
	jmp	.LBB27_16
.LBB27_7:                               # %if.end
                                        #   in Loop: Header=BB27_1 Depth=1
	jmp	.LBB27_13
.LBB27_8:                               # %sw.bb4
                                        #   in Loop: Header=BB27_1 Depth=1
	movq	-40(%rbp), %rax
	movq	-24(%rbp), %rcx
	cmpq	512(%rcx), %rax
	jle	.LBB27_10
# %bb.9:                                # %if.then7
	jmp	.LBB27_16
.LBB27_10:                              # %if.end8
                                        #   in Loop: Header=BB27_1 Depth=1
	jmp	.LBB27_13
.LBB27_11:                              # %sw.bb9
                                        #   in Loop: Header=BB27_1 Depth=1
	jmp	.LBB27_12
.LBB27_12:                              # %sw.default
                                        #   in Loop: Header=BB27_1 Depth=1
	jmp	.LBB27_13
.LBB27_13:                              # %sw.epilog
                                        #   in Loop: Header=BB27_1 Depth=1
	jmp	.LBB27_14
.LBB27_14:                              # %for.inc
                                        #   in Loop: Header=BB27_1 Depth=1
	movq	-16(%rbp), %rax
	addq	$64, %rax
	movq	%rax, -16(%rbp)
	jmp	.LBB27_1
.LBB27_15:                              # %for.end
	movq	$0, -48(%rbp)
	jmp	.LBB27_17
.LBB27_16:                              # %DUAL_INFEAS
	movq	stderr, %rdi
	movabsq	$.L.str.3, %rsi
	movb	$0, %al
	callq	fprintf
	movq	stderr, %rdi
	movabsq	$.L.str.4, %rsi
	movb	$0, %al
	callq	fprintf
	movq	$1, -48(%rbp)
.LBB27_17:                              # %return
	movq	-48(%rbp), %rbx
	cmpl	$1021828845, -28(%rbp)  # imm = 0x3CE7DEED
	jne	.LBB27_19
.LBB27_18:
	movq	%rbx, %rax
	addq	$56, %rsp
	popq	%rbx
	popq	%rbp
	.cfi_def_cfa %rsp, 8
	retq
.LBB27_19:                              # %func_exit
	.cfi_def_cfa %rbp, 16
	callq	detect_breach
	jmp	.LBB27_18
.Lfunc_end27:
	.size	dual_feasible.21, .Lfunc_end27-dual_feasible.21
	.cfi_endproc
                                        # -- End function
	.globl	dual_feasible.22        # -- Begin function dual_feasible.22
	.p2align	4, 0x90
	.type	dual_feasible.22,@function
dual_feasible.22:                       # @dual_feasible.22
	.cfi_startproc
# %bb.0:                                # %entry
	pushq	%rbp
	.cfi_def_cfa_offset 16
	.cfi_offset %rbp, -16
	movq	%rsp, %rbp
	.cfi_def_cfa_register %rbp
	pushq	%rbx
	subq	$56, %rsp
	.cfi_offset %rbx, -24
	movl	$236173740, -28(%rbp)   # imm = 0xE13B9AC
	movq	%rdi, -24(%rbp)
	movq	-24(%rbp), %rax
	movq	576(%rax), %rax
	movq	%rax, -56(%rbp)
	movq	-24(%rbp), %rax
	movq	568(%rax), %rax
	movq	%rax, -16(%rbp)
.LBB28_1:                               # %for.cond
                                        # =>This Inner Loop Header: Depth=1
	movq	-16(%rbp), %rax
	cmpq	-56(%rbp), %rax
	jae	.LBB28_15
# %bb.2:                                # %for.body
                                        #   in Loop: Header=BB28_1 Depth=1
	movq	-16(%rbp), %rax
	movq	(%rax), %rcx
	movq	8(%rax), %rdx
	movq	(%rdx), %rdx
	subq	%rdx, %rcx
	movq	16(%rax), %rax
	movq	(%rax), %rax
	addq	%rax, %rcx
	movq	%rcx, -40(%rbp)
	movq	-16(%rbp), %rax
	movl	24(%rax), %eax
	movl	%eax, %ecx
	subl	$-1, %ecx
	je	.LBB28_11
	jmp	.LBB28_3
.LBB28_3:                               # %for.body
                                        #   in Loop: Header=BB28_1 Depth=1
	movl	%eax, %ecx
	subl	$2, %ecx
	jb	.LBB28_5
	jmp	.LBB28_4
.LBB28_4:                               # %for.body
                                        #   in Loop: Header=BB28_1 Depth=1
	subl	$2, %eax
	je	.LBB28_8
	jmp	.LBB28_12
.LBB28_5:                               # %sw.bb
                                        #   in Loop: Header=BB28_1 Depth=1
	xorl	%eax, %eax
	movq	-40(%rbp), %rcx
	movq	-24(%rbp), %rdx
	subq	512(%rdx), %rax
	cmpq	%rax, %rcx
	jge	.LBB28_7
# %bb.6:                                # %if.then
	jmp	.LBB28_16
.LBB28_7:                               # %if.end
                                        #   in Loop: Header=BB28_1 Depth=1
	jmp	.LBB28_13
.LBB28_8:                               # %sw.bb4
                                        #   in Loop: Header=BB28_1 Depth=1
	movq	-40(%rbp), %rax
	movq	-24(%rbp), %rcx
	cmpq	512(%rcx), %rax
	jle	.LBB28_10
# %bb.9:                                # %if.then7
	jmp	.LBB28_16
.LBB28_10:                              # %if.end8
                                        #   in Loop: Header=BB28_1 Depth=1
	jmp	.LBB28_13
.LBB28_11:                              # %sw.bb9
                                        #   in Loop: Header=BB28_1 Depth=1
	jmp	.LBB28_12
.LBB28_12:                              # %sw.default
                                        #   in Loop: Header=BB28_1 Depth=1
	jmp	.LBB28_13
.LBB28_13:                              # %sw.epilog
                                        #   in Loop: Header=BB28_1 Depth=1
	jmp	.LBB28_14
.LBB28_14:                              # %for.inc
                                        #   in Loop: Header=BB28_1 Depth=1
	movq	-16(%rbp), %rax
	addq	$64, %rax
	movq	%rax, -16(%rbp)
	jmp	.LBB28_1
.LBB28_15:                              # %for.end
	movq	$0, -48(%rbp)
	jmp	.LBB28_17
.LBB28_16:                              # %DUAL_INFEAS
	movq	stderr, %rdi
	movabsq	$.L.str.3, %rsi
	movb	$0, %al
	callq	fprintf
	movq	stderr, %rdi
	movabsq	$.L.str.4, %rsi
	movb	$0, %al
	callq	fprintf
	movq	$1, -48(%rbp)
.LBB28_17:                              # %return
	movq	-48(%rbp), %rbx
	cmpl	$236173740, -28(%rbp)   # imm = 0xE13B9AC
	jne	.LBB28_19
.LBB28_18:
	movq	%rbx, %rax
	addq	$56, %rsp
	popq	%rbx
	popq	%rbp
	.cfi_def_cfa %rsp, 8
	retq
.LBB28_19:                              # %func_exit
	.cfi_def_cfa %rbp, 16
	callq	detect_breach
	jmp	.LBB28_18
.Lfunc_end28:
	.size	dual_feasible.22, .Lfunc_end28-dual_feasible.22
	.cfi_endproc
                                        # -- End function
	.globl	dual_feasible.23        # -- Begin function dual_feasible.23
	.p2align	4, 0x90
	.type	dual_feasible.23,@function
dual_feasible.23:                       # @dual_feasible.23
	.cfi_startproc
# %bb.0:                                # %entry
	pushq	%rbp
	.cfi_def_cfa_offset 16
	.cfi_offset %rbp, -16
	movq	%rsp, %rbp
	.cfi_def_cfa_register %rbp
	pushq	%rbx
	subq	$56, %rsp
	.cfi_offset %rbx, -24
	movl	$1333080292, -28(%rbp)  # imm = 0x4F7530E4
	movq	%rdi, -24(%rbp)
	movq	-24(%rbp), %rax
	movq	576(%rax), %rax
	movq	%rax, -56(%rbp)
	movq	-24(%rbp), %rax
	movq	568(%rax), %rax
	movq	%rax, -16(%rbp)
.LBB29_1:                               # %for.cond
                                        # =>This Inner Loop Header: Depth=1
	movq	-16(%rbp), %rax
	cmpq	-56(%rbp), %rax
	jae	.LBB29_15
# %bb.2:                                # %for.body
                                        #   in Loop: Header=BB29_1 Depth=1
	movq	-16(%rbp), %rax
	movq	(%rax), %rcx
	movq	8(%rax), %rdx
	movq	(%rdx), %rdx
	subq	%rdx, %rcx
	movq	16(%rax), %rax
	movq	(%rax), %rax
	addq	%rax, %rcx
	movq	%rcx, -48(%rbp)
	movq	-16(%rbp), %rax
	movl	24(%rax), %eax
	movl	%eax, %ecx
	subl	$-1, %ecx
	je	.LBB29_11
	jmp	.LBB29_3
.LBB29_3:                               # %for.body
                                        #   in Loop: Header=BB29_1 Depth=1
	movl	%eax, %ecx
	subl	$2, %ecx
	jb	.LBB29_5
	jmp	.LBB29_4
.LBB29_4:                               # %for.body
                                        #   in Loop: Header=BB29_1 Depth=1
	subl	$2, %eax
	je	.LBB29_8
	jmp	.LBB29_12
.LBB29_5:                               # %sw.bb
                                        #   in Loop: Header=BB29_1 Depth=1
	xorl	%eax, %eax
	movq	-48(%rbp), %rcx
	movq	-24(%rbp), %rdx
	subq	512(%rdx), %rax
	cmpq	%rax, %rcx
	jge	.LBB29_7
# %bb.6:                                # %if.then
	jmp	.LBB29_16
.LBB29_7:                               # %if.end
                                        #   in Loop: Header=BB29_1 Depth=1
	jmp	.LBB29_13
.LBB29_8:                               # %sw.bb4
                                        #   in Loop: Header=BB29_1 Depth=1
	movq	-48(%rbp), %rax
	movq	-24(%rbp), %rcx
	cmpq	512(%rcx), %rax
	jle	.LBB29_10
# %bb.9:                                # %if.then7
	jmp	.LBB29_16
.LBB29_10:                              # %if.end8
                                        #   in Loop: Header=BB29_1 Depth=1
	jmp	.LBB29_13
.LBB29_11:                              # %sw.bb9
                                        #   in Loop: Header=BB29_1 Depth=1
	jmp	.LBB29_12
.LBB29_12:                              # %sw.default
                                        #   in Loop: Header=BB29_1 Depth=1
	jmp	.LBB29_13
.LBB29_13:                              # %sw.epilog
                                        #   in Loop: Header=BB29_1 Depth=1
	jmp	.LBB29_14
.LBB29_14:                              # %for.inc
                                        #   in Loop: Header=BB29_1 Depth=1
	movq	-16(%rbp), %rax
	addq	$64, %rax
	movq	%rax, -16(%rbp)
	jmp	.LBB29_1
.LBB29_15:                              # %for.end
	movq	$0, -40(%rbp)
	jmp	.LBB29_17
.LBB29_16:                              # %DUAL_INFEAS
	movq	stderr, %rdi
	movabsq	$.L.str.3, %rsi
	movb	$0, %al
	callq	fprintf
	movq	stderr, %rdi
	movabsq	$.L.str.4, %rsi
	movb	$0, %al
	callq	fprintf
	movq	$1, -40(%rbp)
.LBB29_17:                              # %return
	movq	-40(%rbp), %rbx
	cmpl	$1333080292, -28(%rbp)  # imm = 0x4F7530E4
	jne	.LBB29_19
.LBB29_18:
	movq	%rbx, %rax
	addq	$56, %rsp
	popq	%rbx
	popq	%rbp
	.cfi_def_cfa %rsp, 8
	retq
.LBB29_19:                              # %func_exit
	.cfi_def_cfa %rbp, 16
	callq	detect_breach
	jmp	.LBB29_18
.Lfunc_end29:
	.size	dual_feasible.23, .Lfunc_end29-dual_feasible.23
	.cfi_endproc
                                        # -- End function
	.globl	dual_feasible.24        # -- Begin function dual_feasible.24
	.p2align	4, 0x90
	.type	dual_feasible.24,@function
dual_feasible.24:                       # @dual_feasible.24
	.cfi_startproc
# %bb.0:                                # %entry
	pushq	%rbp
	.cfi_def_cfa_offset 16
	.cfi_offset %rbp, -16
	movq	%rsp, %rbp
	.cfi_def_cfa_register %rbp
	pushq	%rbx
	subq	$56, %rsp
	.cfi_offset %rbx, -24
	movl	$1540396448, -28(%rbp)  # imm = 0x5BD095A0
	movq	%rdi, -24(%rbp)
	movq	-24(%rbp), %rax
	movq	576(%rax), %rax
	movq	%rax, -56(%rbp)
	movq	-24(%rbp), %rax
	movq	568(%rax), %rax
	movq	%rax, -16(%rbp)
.LBB30_1:                               # %for.cond
                                        # =>This Inner Loop Header: Depth=1
	movq	-16(%rbp), %rax
	cmpq	-56(%rbp), %rax
	jae	.LBB30_15
# %bb.2:                                # %for.body
                                        #   in Loop: Header=BB30_1 Depth=1
	movq	-16(%rbp), %rax
	movq	(%rax), %rcx
	movq	8(%rax), %rdx
	movq	(%rdx), %rdx
	subq	%rdx, %rcx
	movq	16(%rax), %rax
	movq	(%rax), %rax
	addq	%rax, %rcx
	movq	%rcx, -40(%rbp)
	movq	-16(%rbp), %rax
	movl	24(%rax), %eax
	movl	%eax, %ecx
	subl	$-1, %ecx
	je	.LBB30_11
	jmp	.LBB30_3
.LBB30_3:                               # %for.body
                                        #   in Loop: Header=BB30_1 Depth=1
	movl	%eax, %ecx
	subl	$2, %ecx
	jb	.LBB30_5
	jmp	.LBB30_4
.LBB30_4:                               # %for.body
                                        #   in Loop: Header=BB30_1 Depth=1
	subl	$2, %eax
	je	.LBB30_8
	jmp	.LBB30_12
.LBB30_5:                               # %sw.bb
                                        #   in Loop: Header=BB30_1 Depth=1
	xorl	%eax, %eax
	movq	-40(%rbp), %rcx
	movq	-24(%rbp), %rdx
	subq	512(%rdx), %rax
	cmpq	%rax, %rcx
	jge	.LBB30_7
# %bb.6:                                # %if.then
	jmp	.LBB30_16
.LBB30_7:                               # %if.end
                                        #   in Loop: Header=BB30_1 Depth=1
	jmp	.LBB30_13
.LBB30_8:                               # %sw.bb4
                                        #   in Loop: Header=BB30_1 Depth=1
	movq	-40(%rbp), %rax
	movq	-24(%rbp), %rcx
	cmpq	512(%rcx), %rax
	jle	.LBB30_10
# %bb.9:                                # %if.then7
	jmp	.LBB30_16
.LBB30_10:                              # %if.end8
                                        #   in Loop: Header=BB30_1 Depth=1
	jmp	.LBB30_13
.LBB30_11:                              # %sw.bb9
                                        #   in Loop: Header=BB30_1 Depth=1
	jmp	.LBB30_12
.LBB30_12:                              # %sw.default
                                        #   in Loop: Header=BB30_1 Depth=1
	jmp	.LBB30_13
.LBB30_13:                              # %sw.epilog
                                        #   in Loop: Header=BB30_1 Depth=1
	jmp	.LBB30_14
.LBB30_14:                              # %for.inc
                                        #   in Loop: Header=BB30_1 Depth=1
	movq	-16(%rbp), %rax
	addq	$64, %rax
	movq	%rax, -16(%rbp)
	jmp	.LBB30_1
.LBB30_15:                              # %for.end
	movq	$0, -48(%rbp)
	jmp	.LBB30_17
.LBB30_16:                              # %DUAL_INFEAS
	movq	stderr, %rdi
	movabsq	$.L.str.3, %rsi
	movb	$0, %al
	callq	fprintf
	movq	stderr, %rdi
	movabsq	$.L.str.4, %rsi
	movb	$0, %al
	callq	fprintf
	movq	$1, -48(%rbp)
.LBB30_17:                              # %return
	movq	-48(%rbp), %rbx
	cmpl	$1540396448, -28(%rbp)  # imm = 0x5BD095A0
	jne	.LBB30_19
.LBB30_18:
	movq	%rbx, %rax
	addq	$56, %rsp
	popq	%rbx
	popq	%rbp
	.cfi_def_cfa %rsp, 8
	retq
.LBB30_19:                              # %func_exit
	.cfi_def_cfa %rbp, 16
	callq	detect_breach
	jmp	.LBB30_18
.Lfunc_end30:
	.size	dual_feasible.24, .Lfunc_end30-dual_feasible.24
	.cfi_endproc
                                        # -- End function
	.globl	flow_cost.25            # -- Begin function flow_cost.25
	.p2align	4, 0x90
	.type	flow_cost.25,@function
flow_cost.25:                           # @flow_cost.25
	.cfi_startproc
# %bb.0:                                # %entry
	pushq	%rbp
	.cfi_def_cfa_offset 16
	.cfi_offset %rbp, -16
	movq	%rsp, %rbp
	.cfi_def_cfa_register %rbp
	subq	$64, %rsp
	movl	$1076174206, -52(%rbp)  # imm = 0x40251D7E
	movq	%rdi, -16(%rbp)
	movq	$0, -48(%rbp)
	movq	$0, -40(%rbp)
	movq	-16(%rbp), %rax
	movq	576(%rax), %rax
	movq	%rax, -32(%rbp)
	movq	-16(%rbp), %rax
	movq	568(%rax), %rax
	movq	%rax, -8(%rbp)
.LBB31_1:                               # %for.cond
                                        # =>This Inner Loop Header: Depth=1
	movq	-8(%rbp), %rax
	movq	-32(%rbp), %rcx
	cmpq	%rcx, %rax
	je	.LBB31_7
# %bb.2:                                # %for.body
                                        #   in Loop: Header=BB31_1 Depth=1
	movq	-8(%rbp), %rax
	cmpl	$2, 24(%rax)
	jne	.LBB31_4
# %bb.3:                                # %if.then
                                        #   in Loop: Header=BB31_1 Depth=1
	movq	-8(%rbp), %rax
	movq	$1, 48(%rax)
	jmp	.LBB31_5
.LBB31_4:                               # %if.else
                                        #   in Loop: Header=BB31_1 Depth=1
	movq	-8(%rbp), %rax
	movq	$0, 48(%rax)
.LBB31_5:                               # %if.end
                                        #   in Loop: Header=BB31_1 Depth=1
	jmp	.LBB31_6
.LBB31_6:                               # %for.inc
                                        #   in Loop: Header=BB31_1 Depth=1
	movq	-8(%rbp), %rax
	addq	$64, %rax
	movq	%rax, -8(%rbp)
	jmp	.LBB31_1
.LBB31_7:                               # %for.end
	movq	-16(%rbp), %rax
	movq	560(%rax), %rax
	movq	%rax, -32(%rbp)
	movq	-16(%rbp), %rax
	movq	552(%rax), %rax
	movq	%rax, -24(%rbp)
	movq	-24(%rbp), %rax
	addq	$104, %rax
	movq	%rax, -24(%rbp)
.LBB31_8:                               # %for.cond4
                                        # =>This Inner Loop Header: Depth=1
	movq	-24(%rbp), %rax
	movq	-32(%rbp), %rcx
	cmpq	%rcx, %rax
	je	.LBB31_11
# %bb.9:                                # %for.body6
                                        #   in Loop: Header=BB31_8 Depth=1
	movq	-24(%rbp), %rax
	movq	80(%rax), %rax
	movq	-24(%rbp), %rcx
	movq	48(%rcx), %rcx
	movq	%rax, 48(%rcx)
# %bb.10:                               # %for.inc9
                                        #   in Loop: Header=BB31_8 Depth=1
	movq	-24(%rbp), %rax
	addq	$104, %rax
	movq	%rax, -24(%rbp)
	jmp	.LBB31_8
.LBB31_11:                              # %for.end11
	movq	-16(%rbp), %rax
	movq	576(%rax), %rax
	movq	%rax, -32(%rbp)
	movq	-16(%rbp), %rax
	movq	568(%rax), %rax
	movq	%rax, -8(%rbp)
.LBB31_12:                              # %for.cond14
                                        # =>This Inner Loop Header: Depth=1
	movq	-8(%rbp), %rax
	movq	-32(%rbp), %rcx
	cmpq	%rcx, %rax
	je	.LBB31_23
# %bb.13:                               # %for.body16
                                        #   in Loop: Header=BB31_12 Depth=1
	movq	-8(%rbp), %rax
	cmpq	$0, 48(%rax)
	je	.LBB31_21
# %bb.14:                               # %if.then18
                                        #   in Loop: Header=BB31_12 Depth=1
	movq	-8(%rbp), %rax
	movq	8(%rax), %rax
	cmpl	$0, 96(%rax)
	jge	.LBB31_16
# %bb.15:                               # %land.lhs.true
                                        #   in Loop: Header=BB31_12 Depth=1
	movq	-8(%rbp), %rax
	movq	16(%rax), %rax
	cmpl	$0, 96(%rax)
	jg	.LBB31_20
.LBB31_16:                              # %if.then22
                                        #   in Loop: Header=BB31_12 Depth=1
	movq	-8(%rbp), %rax
	movq	8(%rax), %rax
	cmpl	$0, 96(%rax)
	jne	.LBB31_18
# %bb.17:                               # %if.then26
                                        #   in Loop: Header=BB31_12 Depth=1
	movq	-8(%rbp), %rax
	movq	(%rax), %rax
	movq	-16(%rbp), %rcx
	subq	528(%rcx), %rax
	addq	-40(%rbp), %rax
	movq	%rax, -40(%rbp)
	movq	-48(%rbp), %rax
	addq	$1, %rax
	movq	%rax, -48(%rbp)
	jmp	.LBB31_19
.LBB31_18:                              # %if.else27
                                        #   in Loop: Header=BB31_12 Depth=1
	movq	-8(%rbp), %rax
	movq	(%rax), %rax
	addq	-40(%rbp), %rax
	movq	%rax, -40(%rbp)
.LBB31_19:                              # %if.end30
                                        #   in Loop: Header=BB31_12 Depth=1
	jmp	.LBB31_20
.LBB31_20:                              # %if.end31
                                        #   in Loop: Header=BB31_12 Depth=1
	jmp	.LBB31_21
.LBB31_21:                              # %if.end32
                                        #   in Loop: Header=BB31_12 Depth=1
	jmp	.LBB31_22
.LBB31_22:                              # %for.inc33
                                        #   in Loop: Header=BB31_12 Depth=1
	movq	-8(%rbp), %rax
	addq	$64, %rax
	movq	%rax, -8(%rbp)
	jmp	.LBB31_12
.LBB31_23:                              # %for.end35
	vcvtsi2sdq	-48(%rbp), %xmm0, %xmm0
	movq	-16(%rbp), %rax
	vcvtsi2sdq	528(%rax), %xmm0, %xmm1
	vmulsd	%xmm1, %xmm0, %xmm0
	vcvtsi2sdq	-40(%rbp), %xmm0, %xmm1
	vaddsd	%xmm1, %xmm0, %xmm0
	cmpl	$1076174206, -52(%rbp)  # imm = 0x40251D7E
	jne	.LBB31_25
.LBB31_24:
	addq	$64, %rsp
	popq	%rbp
	.cfi_def_cfa %rsp, 8
	retq
.LBB31_25:                              # %func_exit
	.cfi_def_cfa %rbp, 16
	vmovsd	%xmm0, -64(%rbp)        # 8-byte Spill
	callq	detect_breach
	vmovsd	-64(%rbp), %xmm0        # 8-byte Reload
                                        # xmm0 = mem[0],zero
	jmp	.LBB31_24
.Lfunc_end31:
	.size	flow_cost.25, .Lfunc_end31-flow_cost.25
	.cfi_endproc
                                        # -- End function
	.globl	flow_cost.26            # -- Begin function flow_cost.26
	.p2align	4, 0x90
	.type	flow_cost.26,@function
flow_cost.26:                           # @flow_cost.26
	.cfi_startproc
# %bb.0:                                # %entry
	pushq	%rbp
	.cfi_def_cfa_offset 16
	.cfi_offset %rbp, -16
	movq	%rsp, %rbp
	.cfi_def_cfa_register %rbp
	subq	$64, %rsp
	movl	$569910421, -52(%rbp)   # imm = 0x21F82495
	movq	%rdi, -16(%rbp)
	movq	$0, -48(%rbp)
	movq	$0, -32(%rbp)
	movq	-16(%rbp), %rax
	movq	576(%rax), %rax
	movq	%rax, -40(%rbp)
	movq	-16(%rbp), %rax
	movq	568(%rax), %rax
	movq	%rax, -8(%rbp)
.LBB32_1:                               # %for.cond
                                        # =>This Inner Loop Header: Depth=1
	movq	-8(%rbp), %rax
	movq	-40(%rbp), %rcx
	cmpq	%rcx, %rax
	je	.LBB32_7
# %bb.2:                                # %for.body
                                        #   in Loop: Header=BB32_1 Depth=1
	movq	-8(%rbp), %rax
	cmpl	$2, 24(%rax)
	jne	.LBB32_4
# %bb.3:                                # %if.then
                                        #   in Loop: Header=BB32_1 Depth=1
	movq	-8(%rbp), %rax
	movq	$1, 48(%rax)
	jmp	.LBB32_5
.LBB32_4:                               # %if.else
                                        #   in Loop: Header=BB32_1 Depth=1
	movq	-8(%rbp), %rax
	movq	$0, 48(%rax)
.LBB32_5:                               # %if.end
                                        #   in Loop: Header=BB32_1 Depth=1
	jmp	.LBB32_6
.LBB32_6:                               # %for.inc
                                        #   in Loop: Header=BB32_1 Depth=1
	movq	-8(%rbp), %rax
	addq	$64, %rax
	movq	%rax, -8(%rbp)
	jmp	.LBB32_1
.LBB32_7:                               # %for.end
	movq	-16(%rbp), %rax
	movq	560(%rax), %rax
	movq	%rax, -40(%rbp)
	movq	-16(%rbp), %rax
	movq	552(%rax), %rax
	movq	%rax, -24(%rbp)
	movq	-24(%rbp), %rax
	addq	$104, %rax
	movq	%rax, -24(%rbp)
.LBB32_8:                               # %for.cond4
                                        # =>This Inner Loop Header: Depth=1
	movq	-24(%rbp), %rax
	movq	-40(%rbp), %rcx
	cmpq	%rcx, %rax
	je	.LBB32_11
# %bb.9:                                # %for.body6
                                        #   in Loop: Header=BB32_8 Depth=1
	movq	-24(%rbp), %rax
	movq	80(%rax), %rax
	movq	-24(%rbp), %rcx
	movq	48(%rcx), %rcx
	movq	%rax, 48(%rcx)
# %bb.10:                               # %for.inc9
                                        #   in Loop: Header=BB32_8 Depth=1
	movq	-24(%rbp), %rax
	addq	$104, %rax
	movq	%rax, -24(%rbp)
	jmp	.LBB32_8
.LBB32_11:                              # %for.end11
	movq	-16(%rbp), %rax
	movq	576(%rax), %rax
	movq	%rax, -40(%rbp)
	movq	-16(%rbp), %rax
	movq	568(%rax), %rax
	movq	%rax, -8(%rbp)
.LBB32_12:                              # %for.cond14
                                        # =>This Inner Loop Header: Depth=1
	movq	-8(%rbp), %rax
	movq	-40(%rbp), %rcx
	cmpq	%rcx, %rax
	je	.LBB32_23
# %bb.13:                               # %for.body16
                                        #   in Loop: Header=BB32_12 Depth=1
	movq	-8(%rbp), %rax
	cmpq	$0, 48(%rax)
	je	.LBB32_21
# %bb.14:                               # %if.then18
                                        #   in Loop: Header=BB32_12 Depth=1
	movq	-8(%rbp), %rax
	movq	8(%rax), %rax
	cmpl	$0, 96(%rax)
	jge	.LBB32_16
# %bb.15:                               # %land.lhs.true
                                        #   in Loop: Header=BB32_12 Depth=1
	movq	-8(%rbp), %rax
	movq	16(%rax), %rax
	cmpl	$0, 96(%rax)
	jg	.LBB32_20
.LBB32_16:                              # %if.then22
                                        #   in Loop: Header=BB32_12 Depth=1
	movq	-8(%rbp), %rax
	movq	8(%rax), %rax
	cmpl	$0, 96(%rax)
	jne	.LBB32_18
# %bb.17:                               # %if.then26
                                        #   in Loop: Header=BB32_12 Depth=1
	movq	-8(%rbp), %rax
	movq	(%rax), %rax
	movq	-16(%rbp), %rcx
	subq	528(%rcx), %rax
	addq	-32(%rbp), %rax
	movq	%rax, -32(%rbp)
	movq	-48(%rbp), %rax
	addq	$1, %rax
	movq	%rax, -48(%rbp)
	jmp	.LBB32_19
.LBB32_18:                              # %if.else27
                                        #   in Loop: Header=BB32_12 Depth=1
	movq	-8(%rbp), %rax
	movq	(%rax), %rax
	addq	-32(%rbp), %rax
	movq	%rax, -32(%rbp)
.LBB32_19:                              # %if.end30
                                        #   in Loop: Header=BB32_12 Depth=1
	jmp	.LBB32_20
.LBB32_20:                              # %if.end31
                                        #   in Loop: Header=BB32_12 Depth=1
	jmp	.LBB32_21
.LBB32_21:                              # %if.end32
                                        #   in Loop: Header=BB32_12 Depth=1
	jmp	.LBB32_22
.LBB32_22:                              # %for.inc33
                                        #   in Loop: Header=BB32_12 Depth=1
	movq	-8(%rbp), %rax
	addq	$64, %rax
	movq	%rax, -8(%rbp)
	jmp	.LBB32_12
.LBB32_23:                              # %for.end35
	vcvtsi2sdq	-48(%rbp), %xmm0, %xmm0
	movq	-16(%rbp), %rax
	vcvtsi2sdq	528(%rax), %xmm0, %xmm1
	vmulsd	%xmm1, %xmm0, %xmm0
	vcvtsi2sdq	-32(%rbp), %xmm0, %xmm1
	vaddsd	%xmm1, %xmm0, %xmm0
	cmpl	$569910421, -52(%rbp)   # imm = 0x21F82495
	jne	.LBB32_25
.LBB32_24:
	addq	$64, %rsp
	popq	%rbp
	.cfi_def_cfa %rsp, 8
	retq
.LBB32_25:                              # %func_exit
	.cfi_def_cfa %rbp, 16
	vmovsd	%xmm0, -64(%rbp)        # 8-byte Spill
	callq	detect_breach
	vmovsd	-64(%rbp), %xmm0        # 8-byte Reload
                                        # xmm0 = mem[0],zero
	jmp	.LBB32_24
.Lfunc_end32:
	.size	flow_cost.26, .Lfunc_end32-flow_cost.26
	.cfi_endproc
                                        # -- End function
	.globl	dual_feasible.27        # -- Begin function dual_feasible.27
	.p2align	4, 0x90
	.type	dual_feasible.27,@function
dual_feasible.27:                       # @dual_feasible.27
	.cfi_startproc
# %bb.0:                                # %entry
	pushq	%rbp
	.cfi_def_cfa_offset 16
	.cfi_offset %rbp, -16
	movq	%rsp, %rbp
	.cfi_def_cfa_register %rbp
	pushq	%rbx
	subq	$56, %rsp
	.cfi_offset %rbx, -24
	movl	$899236960, -28(%rbp)   # imm = 0x35994460
	movq	%rdi, -24(%rbp)
	movq	-24(%rbp), %rax
	movq	576(%rax), %rax
	movq	%rax, -56(%rbp)
	movq	-24(%rbp), %rax
	movq	568(%rax), %rax
	movq	%rax, -16(%rbp)
.LBB33_1:                               # %for.cond
                                        # =>This Inner Loop Header: Depth=1
	movq	-16(%rbp), %rax
	cmpq	-56(%rbp), %rax
	jae	.LBB33_15
# %bb.2:                                # %for.body
                                        #   in Loop: Header=BB33_1 Depth=1
	movq	-16(%rbp), %rax
	movq	(%rax), %rcx
	movq	8(%rax), %rdx
	movq	(%rdx), %rdx
	subq	%rdx, %rcx
	movq	16(%rax), %rax
	movq	(%rax), %rax
	addq	%rax, %rcx
	movq	%rcx, -40(%rbp)
	movq	-16(%rbp), %rax
	movl	24(%rax), %eax
	movl	%eax, %ecx
	subl	$-1, %ecx
	je	.LBB33_11
	jmp	.LBB33_3
.LBB33_3:                               # %for.body
                                        #   in Loop: Header=BB33_1 Depth=1
	movl	%eax, %ecx
	subl	$2, %ecx
	jb	.LBB33_5
	jmp	.LBB33_4
.LBB33_4:                               # %for.body
                                        #   in Loop: Header=BB33_1 Depth=1
	subl	$2, %eax
	je	.LBB33_8
	jmp	.LBB33_12
.LBB33_5:                               # %sw.bb
                                        #   in Loop: Header=BB33_1 Depth=1
	xorl	%eax, %eax
	movq	-40(%rbp), %rcx
	movq	-24(%rbp), %rdx
	subq	512(%rdx), %rax
	cmpq	%rax, %rcx
	jge	.LBB33_7
# %bb.6:                                # %if.then
	jmp	.LBB33_16
.LBB33_7:                               # %if.end
                                        #   in Loop: Header=BB33_1 Depth=1
	jmp	.LBB33_13
.LBB33_8:                               # %sw.bb4
                                        #   in Loop: Header=BB33_1 Depth=1
	movq	-40(%rbp), %rax
	movq	-24(%rbp), %rcx
	cmpq	512(%rcx), %rax
	jle	.LBB33_10
# %bb.9:                                # %if.then7
	jmp	.LBB33_16
.LBB33_10:                              # %if.end8
                                        #   in Loop: Header=BB33_1 Depth=1
	jmp	.LBB33_13
.LBB33_11:                              # %sw.bb9
                                        #   in Loop: Header=BB33_1 Depth=1
	jmp	.LBB33_12
.LBB33_12:                              # %sw.default
                                        #   in Loop: Header=BB33_1 Depth=1
	jmp	.LBB33_13
.LBB33_13:                              # %sw.epilog
                                        #   in Loop: Header=BB33_1 Depth=1
	jmp	.LBB33_14
.LBB33_14:                              # %for.inc
                                        #   in Loop: Header=BB33_1 Depth=1
	movq	-16(%rbp), %rax
	addq	$64, %rax
	movq	%rax, -16(%rbp)
	jmp	.LBB33_1
.LBB33_15:                              # %for.end
	movq	$0, -48(%rbp)
	jmp	.LBB33_17
.LBB33_16:                              # %DUAL_INFEAS
	movq	stderr, %rdi
	movabsq	$.L.str.3, %rsi
	movb	$0, %al
	callq	fprintf
	movq	stderr, %rdi
	movabsq	$.L.str.4, %rsi
	movb	$0, %al
	callq	fprintf
	movq	$1, -48(%rbp)
.LBB33_17:                              # %return
	movq	-48(%rbp), %rbx
	cmpl	$899236960, -28(%rbp)   # imm = 0x35994460
	jne	.LBB33_19
.LBB33_18:
	movq	%rbx, %rax
	addq	$56, %rsp
	popq	%rbx
	popq	%rbp
	.cfi_def_cfa %rsp, 8
	retq
.LBB33_19:                              # %func_exit
	.cfi_def_cfa %rbp, 16
	callq	detect_breach
	jmp	.LBB33_18
.Lfunc_end33:
	.size	dual_feasible.27, .Lfunc_end33-dual_feasible.27
	.cfi_endproc
                                        # -- End function
	.globl	refresh_potential.28    # -- Begin function refresh_potential.28
	.p2align	4, 0x90
	.type	refresh_potential.28,@function
refresh_potential.28:                   # @refresh_potential.28
	.cfi_startproc
# %bb.0:                                # %entry
	pushq	%rbp
	.cfi_def_cfa_offset 16
	.cfi_offset %rbp, -16
	movq	%rsp, %rbp
	.cfi_def_cfa_register %rbp
	pushq	%rbx
	subq	$56, %rsp
	.cfi_offset %rbx, -24
	movl	$72058846, -44(%rbp)    # imm = 0x44B87DE
	movq	%rdi, -56(%rbp)
	movq	-56(%rbp), %rax
	movq	552(%rax), %rax
	movq	%rax, -40(%rbp)
	movq	$0, -32(%rbp)
	movq	-40(%rbp), %rax
	movq	$-100000000, (%rax)     # imm = 0xFA0A1F00
	movq	-40(%rbp), %rax
	movq	16(%rax), %rax
	movq	%rax, -16(%rbp)
	movq	%rax, -24(%rbp)
.LBB34_1:                               # %while.cond
                                        # =>This Loop Header: Depth=1
                                        #     Child Loop BB34_3 Depth 2
                                        #     Child Loop BB34_9 Depth 2
	movq	-16(%rbp), %rax
	cmpq	-40(%rbp), %rax
	je	.LBB34_16
# %bb.2:                                # %while.body
                                        #   in Loop: Header=BB34_1 Depth=1
	jmp	.LBB34_3
.LBB34_3:                               # %while.cond1
                                        #   Parent Loop BB34_1 Depth=1
                                        # =>  This Inner Loop Header: Depth=2
	cmpq	$0, -16(%rbp)
	je	.LBB34_8
# %bb.4:                                # %while.body2
                                        #   in Loop: Header=BB34_3 Depth=2
	movq	-16(%rbp), %rax
	cmpl	$1, 8(%rax)
	jne	.LBB34_6
# %bb.5:                                # %if.then
                                        #   in Loop: Header=BB34_3 Depth=2
	movq	-16(%rbp), %rax
	movq	48(%rax), %rax
	movq	(%rax), %rax
	movq	-16(%rbp), %rcx
	movq	24(%rcx), %rcx
	addq	(%rcx), %rax
	movq	-16(%rbp), %rcx
	movq	%rax, (%rcx)
	jmp	.LBB34_7
.LBB34_6:                               # %if.else
                                        #   in Loop: Header=BB34_3 Depth=2
	movq	-16(%rbp), %rax
	movq	24(%rax), %rax
	movq	(%rax), %rax
	movq	-16(%rbp), %rcx
	movq	48(%rcx), %rcx
	subq	(%rcx), %rax
	movq	-16(%rbp), %rcx
	movq	%rax, (%rcx)
	movq	-32(%rbp), %rax
	addq	$1, %rax
	movq	%rax, -32(%rbp)
.LBB34_7:                               # %if.end
                                        #   in Loop: Header=BB34_3 Depth=2
	movq	-16(%rbp), %rax
	movq	%rax, -24(%rbp)
	movq	-16(%rbp), %rax
	movq	16(%rax), %rax
	movq	%rax, -16(%rbp)
	jmp	.LBB34_3
.LBB34_8:                               # %while.end
                                        #   in Loop: Header=BB34_1 Depth=1
	movq	-24(%rbp), %rax
	movq	%rax, -16(%rbp)
.LBB34_9:                               # %while.cond12
                                        #   Parent Loop BB34_1 Depth=1
                                        # =>  This Inner Loop Header: Depth=2
	movq	-16(%rbp), %rax
	cmpq	$0, 24(%rax)
	je	.LBB34_14
# %bb.10:                               # %while.body15
                                        #   in Loop: Header=BB34_9 Depth=2
	movq	-16(%rbp), %rax
	movq	32(%rax), %rax
	movq	%rax, -24(%rbp)
	cmpq	$0, -24(%rbp)
	je	.LBB34_12
# %bb.11:                               # %if.then17
                                        #   in Loop: Header=BB34_1 Depth=1
	movq	-24(%rbp), %rax
	movq	%rax, -16(%rbp)
	jmp	.LBB34_15
.LBB34_12:                              # %if.else18
                                        #   in Loop: Header=BB34_9 Depth=2
	movq	-16(%rbp), %rax
	movq	24(%rax), %rax
	movq	%rax, -16(%rbp)
# %bb.13:                               # %if.end20
                                        #   in Loop: Header=BB34_9 Depth=2
	jmp	.LBB34_9
.LBB34_14:                              # %while.end21.loopexit
                                        #   in Loop: Header=BB34_1 Depth=1
	jmp	.LBB34_15
.LBB34_15:                              # %while.end21
                                        #   in Loop: Header=BB34_1 Depth=1
	jmp	.LBB34_1
.LBB34_16:                              # %while.end22
	movq	-32(%rbp), %rbx
	cmpl	$72058846, -44(%rbp)    # imm = 0x44B87DE
	jne	.LBB34_18
.LBB34_17:
	movq	%rbx, %rax
	addq	$56, %rsp
	popq	%rbx
	popq	%rbp
	.cfi_def_cfa %rsp, 8
	retq
.LBB34_18:                              # %func_exit
	.cfi_def_cfa %rbp, 16
	callq	detect_breach
	jmp	.LBB34_17
.Lfunc_end34:
	.size	refresh_potential.28, .Lfunc_end34-refresh_potential.28
	.cfi_endproc
                                        # -- End function
	.globl	refresh_neighbour_lists.29 # -- Begin function refresh_neighbour_lists.29
	.p2align	4, 0x90
	.type	refresh_neighbour_lists.29,@function
refresh_neighbour_lists.29:             # @refresh_neighbour_lists.29
	.cfi_startproc
# %bb.0:                                # %entry
	pushq	%rbp
	.cfi_def_cfa_offset 16
	.cfi_offset %rbp, -16
	movq	%rsp, %rbp
	.cfi_def_cfa_register %rbp
	subq	$48, %rsp
	movl	$816878397, -36(%rbp)   # imm = 0x30B0933D
	movq	%rdi, -24(%rbp)
	movq	-24(%rbp), %rax
	movq	552(%rax), %rax
	movq	%rax, -16(%rbp)
	movq	-24(%rbp), %rax
	movq	560(%rax), %rax
	movq	%rax, -32(%rbp)
.LBB35_1:                               # %for.cond
                                        # =>This Inner Loop Header: Depth=1
	movq	-16(%rbp), %rax
	movq	-32(%rbp), %rcx
	cmpq	%rcx, %rax
	jae	.LBB35_4
# %bb.2:                                # %for.body
                                        #   in Loop: Header=BB35_1 Depth=1
	movq	-16(%rbp), %rax
	movq	$0, 64(%rax)
	movq	-16(%rbp), %rax
	movq	$0, 56(%rax)
# %bb.3:                                # %for.inc
                                        #   in Loop: Header=BB35_1 Depth=1
	movq	-16(%rbp), %rax
	addq	$104, %rax
	movq	%rax, -16(%rbp)
	jmp	.LBB35_1
.LBB35_4:                               # %for.end
	movq	-24(%rbp), %rax
	movq	568(%rax), %rax
	movq	%rax, -8(%rbp)
	movq	-24(%rbp), %rax
	movq	576(%rax), %rax
	movq	%rax, -32(%rbp)
.LBB35_5:                               # %for.cond1
                                        # =>This Inner Loop Header: Depth=1
	movq	-8(%rbp), %rax
	movq	-32(%rbp), %rcx
	cmpq	%rcx, %rax
	jae	.LBB35_8
# %bb.6:                                # %for.body3
                                        #   in Loop: Header=BB35_5 Depth=1
	movq	-8(%rbp), %rax
	movq	8(%rax), %rax
	movq	56(%rax), %rax
	movq	-8(%rbp), %rcx
	movq	%rax, 32(%rcx)
	movq	-8(%rbp), %rax
	movq	-8(%rbp), %rcx
	movq	8(%rcx), %rcx
	movq	%rax, 56(%rcx)
	movq	-8(%rbp), %rax
	movq	16(%rax), %rax
	movq	64(%rax), %rax
	movq	-8(%rbp), %rcx
	movq	%rax, 40(%rcx)
	movq	-8(%rbp), %rax
	movq	-8(%rbp), %rcx
	movq	16(%rcx), %rcx
	movq	%rax, 64(%rcx)
# %bb.7:                                # %for.inc10
                                        #   in Loop: Header=BB35_5 Depth=1
	movq	-8(%rbp), %rax
	addq	$64, %rax
	movq	%rax, -8(%rbp)
	jmp	.LBB35_5
.LBB35_8:                               # %for.end12
	cmpl	$816878397, -36(%rbp)   # imm = 0x30B0933D
	jne	.LBB35_10
.LBB35_9:
	addq	$48, %rsp
	popq	%rbp
	.cfi_def_cfa %rsp, 8
	retq
.LBB35_10:                              # %func_exit
	.cfi_def_cfa %rbp, 16
	callq	detect_breach
	jmp	.LBB35_9
.Lfunc_end35:
	.size	refresh_neighbour_lists.29, .Lfunc_end35-refresh_neighbour_lists.29
	.cfi_endproc
                                        # -- End function
	.globl	refresh_potential.30    # -- Begin function refresh_potential.30
	.p2align	4, 0x90
	.type	refresh_potential.30,@function
refresh_potential.30:                   # @refresh_potential.30
	.cfi_startproc
# %bb.0:                                # %entry
	pushq	%rbp
	.cfi_def_cfa_offset 16
	.cfi_offset %rbp, -16
	movq	%rsp, %rbp
	.cfi_def_cfa_register %rbp
	pushq	%rbx
	subq	$56, %rsp
	.cfi_offset %rbx, -24
	movl	$427153995, -44(%rbp)   # imm = 0x1975DA4B
	movq	%rdi, -56(%rbp)
	movq	-56(%rbp), %rax
	movq	552(%rax), %rax
	movq	%rax, -40(%rbp)
	movq	$0, -32(%rbp)
	movq	-40(%rbp), %rax
	movq	$-100000000, (%rax)     # imm = 0xFA0A1F00
	movq	-40(%rbp), %rax
	movq	16(%rax), %rax
	movq	%rax, -16(%rbp)
	movq	%rax, -24(%rbp)
.LBB36_1:                               # %while.cond
                                        # =>This Loop Header: Depth=1
                                        #     Child Loop BB36_3 Depth 2
                                        #     Child Loop BB36_9 Depth 2
	movq	-16(%rbp), %rax
	cmpq	-40(%rbp), %rax
	je	.LBB36_16
# %bb.2:                                # %while.body
                                        #   in Loop: Header=BB36_1 Depth=1
	jmp	.LBB36_3
.LBB36_3:                               # %while.cond1
                                        #   Parent Loop BB36_1 Depth=1
                                        # =>  This Inner Loop Header: Depth=2
	cmpq	$0, -16(%rbp)
	je	.LBB36_8
# %bb.4:                                # %while.body2
                                        #   in Loop: Header=BB36_3 Depth=2
	movq	-16(%rbp), %rax
	cmpl	$1, 8(%rax)
	jne	.LBB36_6
# %bb.5:                                # %if.then
                                        #   in Loop: Header=BB36_3 Depth=2
	movq	-16(%rbp), %rax
	movq	48(%rax), %rax
	movq	(%rax), %rax
	movq	-16(%rbp), %rcx
	movq	24(%rcx), %rcx
	addq	(%rcx), %rax
	movq	-16(%rbp), %rcx
	movq	%rax, (%rcx)
	jmp	.LBB36_7
.LBB36_6:                               # %if.else
                                        #   in Loop: Header=BB36_3 Depth=2
	movq	-16(%rbp), %rax
	movq	24(%rax), %rax
	movq	(%rax), %rax
	movq	-16(%rbp), %rcx
	movq	48(%rcx), %rcx
	subq	(%rcx), %rax
	movq	-16(%rbp), %rcx
	movq	%rax, (%rcx)
	movq	-32(%rbp), %rax
	addq	$1, %rax
	movq	%rax, -32(%rbp)
.LBB36_7:                               # %if.end
                                        #   in Loop: Header=BB36_3 Depth=2
	movq	-16(%rbp), %rax
	movq	%rax, -24(%rbp)
	movq	-16(%rbp), %rax
	movq	16(%rax), %rax
	movq	%rax, -16(%rbp)
	jmp	.LBB36_3
.LBB36_8:                               # %while.end
                                        #   in Loop: Header=BB36_1 Depth=1
	movq	-24(%rbp), %rax
	movq	%rax, -16(%rbp)
.LBB36_9:                               # %while.cond12
                                        #   Parent Loop BB36_1 Depth=1
                                        # =>  This Inner Loop Header: Depth=2
	movq	-16(%rbp), %rax
	cmpq	$0, 24(%rax)
	je	.LBB36_14
# %bb.10:                               # %while.body15
                                        #   in Loop: Header=BB36_9 Depth=2
	movq	-16(%rbp), %rax
	movq	32(%rax), %rax
	movq	%rax, -24(%rbp)
	cmpq	$0, -24(%rbp)
	je	.LBB36_12
# %bb.11:                               # %if.then17
                                        #   in Loop: Header=BB36_1 Depth=1
	movq	-24(%rbp), %rax
	movq	%rax, -16(%rbp)
	jmp	.LBB36_15
.LBB36_12:                              # %if.else18
                                        #   in Loop: Header=BB36_9 Depth=2
	movq	-16(%rbp), %rax
	movq	24(%rax), %rax
	movq	%rax, -16(%rbp)
# %bb.13:                               # %if.end20
                                        #   in Loop: Header=BB36_9 Depth=2
	jmp	.LBB36_9
.LBB36_14:                              # %while.end21.loopexit
                                        #   in Loop: Header=BB36_1 Depth=1
	jmp	.LBB36_15
.LBB36_15:                              # %while.end21
                                        #   in Loop: Header=BB36_1 Depth=1
	jmp	.LBB36_1
.LBB36_16:                              # %while.end22
	movq	-32(%rbp), %rbx
	cmpl	$427153995, -44(%rbp)   # imm = 0x1975DA4B
	jne	.LBB36_18
.LBB36_17:
	movq	%rbx, %rax
	addq	$56, %rsp
	popq	%rbx
	popq	%rbp
	.cfi_def_cfa %rsp, 8
	retq
.LBB36_18:                              # %func_exit
	.cfi_def_cfa %rbp, 16
	callq	detect_breach
	jmp	.LBB36_17
.Lfunc_end36:
	.size	refresh_potential.30, .Lfunc_end36-refresh_potential.30
	.cfi_endproc
                                        # -- End function
	.globl	primal_feasible.31      # -- Begin function primal_feasible.31
	.p2align	4, 0x90
	.type	primal_feasible.31,@function
primal_feasible.31:                     # @primal_feasible.31
	.cfi_startproc
# %bb.0:                                # %entry
	pushq	%rbp
	.cfi_def_cfa_offset 16
	.cfi_offset %rbp, -16
	movq	%rsp, %rbp
	.cfi_def_cfa_register %rbp
	pushq	%rbx
	subq	$72, %rsp
	.cfi_offset %rbx, -24
	movl	$1082339270, -36(%rbp)  # imm = 0x40832FC6
	movq	%rdi, -16(%rbp)
	movq	-16(%rbp), %rax
	movq	584(%rax), %rax
	movq	%rax, -80(%rbp)
	movq	-16(%rbp), %rax
	movq	592(%rax), %rax
	movq	%rax, -64(%rbp)
	movq	-16(%rbp), %rax
	movq	552(%rax), %rax
	movq	%rax, -24(%rbp)
	movq	-16(%rbp), %rax
	movq	560(%rax), %rax
	movq	%rax, -72(%rbp)
	movq	-24(%rbp), %rax
	addq	$104, %rax
	movq	%rax, -24(%rbp)
.LBB37_1:                               # %for.cond
                                        # =>This Inner Loop Header: Depth=1
	movq	-24(%rbp), %rax
	movq	-72(%rbp), %rcx
	cmpq	%rcx, %rax
	jae	.LBB37_16
# %bb.2:                                # %for.body
                                        #   in Loop: Header=BB37_1 Depth=1
	movq	-24(%rbp), %rax
	movq	48(%rax), %rax
	movq	%rax, -48(%rbp)
	movq	-24(%rbp), %rax
	movq	80(%rax), %rax
	movq	%rax, -32(%rbp)
	movq	-48(%rbp), %rax
	cmpq	-80(%rbp), %rax
	jb	.LBB37_10
# %bb.3:                                # %land.lhs.true
                                        #   in Loop: Header=BB37_1 Depth=1
	movq	-48(%rbp), %rax
	cmpq	-64(%rbp), %rax
	jae	.LBB37_10
# %bb.4:                                # %if.then
                                        #   in Loop: Header=BB37_1 Depth=1
	cmpq	$0, -32(%rbp)
	jl	.LBB37_6
# %bb.5:                                # %cond.true
                                        #   in Loop: Header=BB37_1 Depth=1
	movq	-32(%rbp), %rax
	jmp	.LBB37_7
.LBB37_6:                               # %cond.false
                                        #   in Loop: Header=BB37_1 Depth=1
	xorl	%eax, %eax
	subq	-32(%rbp), %rax
.LBB37_7:                               # %cond.end
                                        #   in Loop: Header=BB37_1 Depth=1
	movq	-16(%rbp), %rcx
	cmpq	512(%rcx), %rax
	jle	.LBB37_9
# %bb.8:                                # %if.then7
                                        #   in Loop: Header=BB37_1 Depth=1
	movabsq	$.L.str, %rdi
	movb	$0, %al
	callq	printf
	movq	-24(%rbp), %rax
	movl	96(%rax), %esi
	movq	-32(%rbp), %rdx
	movabsq	$.L.str.1, %rdi
	movb	$0, %al
	callq	printf
.LBB37_9:                               # %if.end
                                        #   in Loop: Header=BB37_1 Depth=1
	jmp	.LBB37_14
.LBB37_10:                              # %if.else
                                        #   in Loop: Header=BB37_1 Depth=1
	xorl	%eax, %eax
	movq	-32(%rbp), %rcx
	movq	-16(%rbp), %rdx
	subq	512(%rdx), %rax
	cmpq	%rax, %rcx
	jl	.LBB37_12
# %bb.11:                               # %lor.lhs.false
                                        #   in Loop: Header=BB37_1 Depth=1
	movq	-32(%rbp), %rax
	subq	$1, %rax
	movq	-16(%rbp), %rcx
	cmpq	512(%rcx), %rax
	jle	.LBB37_13
.LBB37_12:                              # %if.then15
	movabsq	$.L.str, %rdi
	movb	$0, %al
	callq	printf
	movq	-32(%rbp), %rsi
	movabsq	$.L.str.2, %rdi
	movb	$0, %al
	callq	printf
	movq	-16(%rbp), %rax
	movq	$0, 488(%rax)
	movq	$1, -56(%rbp)
	jmp	.LBB37_17
.LBB37_13:                              # %if.end18
                                        #   in Loop: Header=BB37_1 Depth=1
	jmp	.LBB37_14
.LBB37_14:                              # %if.end19
                                        #   in Loop: Header=BB37_1 Depth=1
	jmp	.LBB37_15
.LBB37_15:                              # %for.inc
                                        #   in Loop: Header=BB37_1 Depth=1
	movq	-24(%rbp), %rax
	addq	$104, %rax
	movq	%rax, -24(%rbp)
	jmp	.LBB37_1
.LBB37_16:                              # %for.end
	movq	-16(%rbp), %rax
	movq	$1, 488(%rax)
	movq	$0, -56(%rbp)
.LBB37_17:                              # %return
	movq	-56(%rbp), %rbx
	cmpl	$1082339270, -36(%rbp)  # imm = 0x40832FC6
	jne	.LBB37_19
.LBB37_18:
	movq	%rbx, %rax
	addq	$72, %rsp
	popq	%rbx
	popq	%rbp
	.cfi_def_cfa %rsp, 8
	retq
.LBB37_19:                              # %func_exit
	.cfi_def_cfa %rbp, 16
	callq	detect_breach
	jmp	.LBB37_18
.Lfunc_end37:
	.size	primal_feasible.31, .Lfunc_end37-primal_feasible.31
	.cfi_endproc
                                        # -- End function
	.globl	refresh_neighbour_lists.32 # -- Begin function refresh_neighbour_lists.32
	.p2align	4, 0x90
	.type	refresh_neighbour_lists.32,@function
refresh_neighbour_lists.32:             # @refresh_neighbour_lists.32
	.cfi_startproc
# %bb.0:                                # %entry
	pushq	%rbp
	.cfi_def_cfa_offset 16
	.cfi_offset %rbp, -16
	movq	%rsp, %rbp
	.cfi_def_cfa_register %rbp
	subq	$48, %rsp
	movl	$176183492, -36(%rbp)   # imm = 0xA8058C4
	movq	%rdi, -24(%rbp)
	movq	-24(%rbp), %rax
	movq	552(%rax), %rax
	movq	%rax, -16(%rbp)
	movq	-24(%rbp), %rax
	movq	560(%rax), %rax
	movq	%rax, -32(%rbp)
.LBB38_1:                               # %for.cond
                                        # =>This Inner Loop Header: Depth=1
	movq	-16(%rbp), %rax
	movq	-32(%rbp), %rcx
	cmpq	%rcx, %rax
	jae	.LBB38_4
# %bb.2:                                # %for.body
                                        #   in Loop: Header=BB38_1 Depth=1
	movq	-16(%rbp), %rax
	movq	$0, 64(%rax)
	movq	-16(%rbp), %rax
	movq	$0, 56(%rax)
# %bb.3:                                # %for.inc
                                        #   in Loop: Header=BB38_1 Depth=1
	movq	-16(%rbp), %rax
	addq	$104, %rax
	movq	%rax, -16(%rbp)
	jmp	.LBB38_1
.LBB38_4:                               # %for.end
	movq	-24(%rbp), %rax
	movq	568(%rax), %rax
	movq	%rax, -8(%rbp)
	movq	-24(%rbp), %rax
	movq	576(%rax), %rax
	movq	%rax, -32(%rbp)
.LBB38_5:                               # %for.cond1
                                        # =>This Inner Loop Header: Depth=1
	movq	-8(%rbp), %rax
	movq	-32(%rbp), %rcx
	cmpq	%rcx, %rax
	jae	.LBB38_8
# %bb.6:                                # %for.body3
                                        #   in Loop: Header=BB38_5 Depth=1
	movq	-8(%rbp), %rax
	movq	8(%rax), %rax
	movq	56(%rax), %rax
	movq	-8(%rbp), %rcx
	movq	%rax, 32(%rcx)
	movq	-8(%rbp), %rax
	movq	-8(%rbp), %rcx
	movq	8(%rcx), %rcx
	movq	%rax, 56(%rcx)
	movq	-8(%rbp), %rax
	movq	16(%rax), %rax
	movq	64(%rax), %rax
	movq	-8(%rbp), %rcx
	movq	%rax, 40(%rcx)
	movq	-8(%rbp), %rax
	movq	-8(%rbp), %rcx
	movq	16(%rcx), %rcx
	movq	%rax, 64(%rcx)
# %bb.7:                                # %for.inc10
                                        #   in Loop: Header=BB38_5 Depth=1
	movq	-8(%rbp), %rax
	addq	$64, %rax
	movq	%rax, -8(%rbp)
	jmp	.LBB38_5
.LBB38_8:                               # %for.end12
	cmpl	$176183492, -36(%rbp)   # imm = 0xA8058C4
	jne	.LBB38_10
.LBB38_9:
	addq	$48, %rsp
	popq	%rbp
	.cfi_def_cfa %rsp, 8
	retq
.LBB38_10:                              # %func_exit
	.cfi_def_cfa %rbp, 16
	callq	detect_breach
	jmp	.LBB38_9
.Lfunc_end38:
	.size	refresh_neighbour_lists.32, .Lfunc_end38-refresh_neighbour_lists.32
	.cfi_endproc
                                        # -- End function
	.globl	refresh_neighbour_lists.33 # -- Begin function refresh_neighbour_lists.33
	.p2align	4, 0x90
	.type	refresh_neighbour_lists.33,@function
refresh_neighbour_lists.33:             # @refresh_neighbour_lists.33
	.cfi_startproc
# %bb.0:                                # %entry
	pushq	%rbp
	.cfi_def_cfa_offset 16
	.cfi_offset %rbp, -16
	movq	%rsp, %rbp
	.cfi_def_cfa_register %rbp
	subq	$48, %rsp
	movl	$1183070881, -36(%rbp)  # imm = 0x46843AA1
	movq	%rdi, -24(%rbp)
	movq	-24(%rbp), %rax
	movq	552(%rax), %rax
	movq	%rax, -16(%rbp)
	movq	-24(%rbp), %rax
	movq	560(%rax), %rax
	movq	%rax, -32(%rbp)
.LBB39_1:                               # %for.cond
                                        # =>This Inner Loop Header: Depth=1
	movq	-16(%rbp), %rax
	movq	-32(%rbp), %rcx
	cmpq	%rcx, %rax
	jae	.LBB39_4
# %bb.2:                                # %for.body
                                        #   in Loop: Header=BB39_1 Depth=1
	movq	-16(%rbp), %rax
	movq	$0, 64(%rax)
	movq	-16(%rbp), %rax
	movq	$0, 56(%rax)
# %bb.3:                                # %for.inc
                                        #   in Loop: Header=BB39_1 Depth=1
	movq	-16(%rbp), %rax
	addq	$104, %rax
	movq	%rax, -16(%rbp)
	jmp	.LBB39_1
.LBB39_4:                               # %for.end
	movq	-24(%rbp), %rax
	movq	568(%rax), %rax
	movq	%rax, -8(%rbp)
	movq	-24(%rbp), %rax
	movq	576(%rax), %rax
	movq	%rax, -32(%rbp)
.LBB39_5:                               # %for.cond1
                                        # =>This Inner Loop Header: Depth=1
	movq	-8(%rbp), %rax
	movq	-32(%rbp), %rcx
	cmpq	%rcx, %rax
	jae	.LBB39_8
# %bb.6:                                # %for.body3
                                        #   in Loop: Header=BB39_5 Depth=1
	movq	-8(%rbp), %rax
	movq	8(%rax), %rax
	movq	56(%rax), %rax
	movq	-8(%rbp), %rcx
	movq	%rax, 32(%rcx)
	movq	-8(%rbp), %rax
	movq	-8(%rbp), %rcx
	movq	8(%rcx), %rcx
	movq	%rax, 56(%rcx)
	movq	-8(%rbp), %rax
	movq	16(%rax), %rax
	movq	64(%rax), %rax
	movq	-8(%rbp), %rcx
	movq	%rax, 40(%rcx)
	movq	-8(%rbp), %rax
	movq	-8(%rbp), %rcx
	movq	16(%rcx), %rcx
	movq	%rax, 64(%rcx)
# %bb.7:                                # %for.inc10
                                        #   in Loop: Header=BB39_5 Depth=1
	movq	-8(%rbp), %rax
	addq	$64, %rax
	movq	%rax, -8(%rbp)
	jmp	.LBB39_5
.LBB39_8:                               # %for.end12
	cmpl	$1183070881, -36(%rbp)  # imm = 0x46843AA1
	jne	.LBB39_10
.LBB39_9:
	addq	$48, %rsp
	popq	%rbp
	.cfi_def_cfa %rsp, 8
	retq
.LBB39_10:                              # %func_exit
	.cfi_def_cfa %rbp, 16
	callq	detect_breach
	jmp	.LBB39_9
.Lfunc_end39:
	.size	refresh_neighbour_lists.33, .Lfunc_end39-refresh_neighbour_lists.33
	.cfi_endproc
                                        # -- End function
	.globl	refresh_potential.34    # -- Begin function refresh_potential.34
	.p2align	4, 0x90
	.type	refresh_potential.34,@function
refresh_potential.34:                   # @refresh_potential.34
	.cfi_startproc
# %bb.0:                                # %entry
	pushq	%rbp
	.cfi_def_cfa_offset 16
	.cfi_offset %rbp, -16
	movq	%rsp, %rbp
	.cfi_def_cfa_register %rbp
	pushq	%rbx
	subq	$56, %rsp
	.cfi_offset %rbx, -24
	movl	$1470383545, -44(%rbp)  # imm = 0x57A445B9
	movq	%rdi, -56(%rbp)
	movq	-56(%rbp), %rax
	movq	552(%rax), %rax
	movq	%rax, -32(%rbp)
	movq	$0, -40(%rbp)
	movq	-32(%rbp), %rax
	movq	$-100000000, (%rax)     # imm = 0xFA0A1F00
	movq	-32(%rbp), %rax
	movq	16(%rax), %rax
	movq	%rax, -16(%rbp)
	movq	%rax, -24(%rbp)
.LBB40_1:                               # %while.cond
                                        # =>This Loop Header: Depth=1
                                        #     Child Loop BB40_3 Depth 2
                                        #     Child Loop BB40_9 Depth 2
	movq	-16(%rbp), %rax
	cmpq	-32(%rbp), %rax
	je	.LBB40_16
# %bb.2:                                # %while.body
                                        #   in Loop: Header=BB40_1 Depth=1
	jmp	.LBB40_3
.LBB40_3:                               # %while.cond1
                                        #   Parent Loop BB40_1 Depth=1
                                        # =>  This Inner Loop Header: Depth=2
	cmpq	$0, -16(%rbp)
	je	.LBB40_8
# %bb.4:                                # %while.body2
                                        #   in Loop: Header=BB40_3 Depth=2
	movq	-16(%rbp), %rax
	cmpl	$1, 8(%rax)
	jne	.LBB40_6
# %bb.5:                                # %if.then
                                        #   in Loop: Header=BB40_3 Depth=2
	movq	-16(%rbp), %rax
	movq	48(%rax), %rax
	movq	(%rax), %rax
	movq	-16(%rbp), %rcx
	movq	24(%rcx), %rcx
	addq	(%rcx), %rax
	movq	-16(%rbp), %rcx
	movq	%rax, (%rcx)
	jmp	.LBB40_7
.LBB40_6:                               # %if.else
                                        #   in Loop: Header=BB40_3 Depth=2
	movq	-16(%rbp), %rax
	movq	24(%rax), %rax
	movq	(%rax), %rax
	movq	-16(%rbp), %rcx
	movq	48(%rcx), %rcx
	subq	(%rcx), %rax
	movq	-16(%rbp), %rcx
	movq	%rax, (%rcx)
	movq	-40(%rbp), %rax
	addq	$1, %rax
	movq	%rax, -40(%rbp)
.LBB40_7:                               # %if.end
                                        #   in Loop: Header=BB40_3 Depth=2
	movq	-16(%rbp), %rax
	movq	%rax, -24(%rbp)
	movq	-16(%rbp), %rax
	movq	16(%rax), %rax
	movq	%rax, -16(%rbp)
	jmp	.LBB40_3
.LBB40_8:                               # %while.end
                                        #   in Loop: Header=BB40_1 Depth=1
	movq	-24(%rbp), %rax
	movq	%rax, -16(%rbp)
.LBB40_9:                               # %while.cond12
                                        #   Parent Loop BB40_1 Depth=1
                                        # =>  This Inner Loop Header: Depth=2
	movq	-16(%rbp), %rax
	cmpq	$0, 24(%rax)
	je	.LBB40_14
# %bb.10:                               # %while.body15
                                        #   in Loop: Header=BB40_9 Depth=2
	movq	-16(%rbp), %rax
	movq	32(%rax), %rax
	movq	%rax, -24(%rbp)
	cmpq	$0, -24(%rbp)
	je	.LBB40_12
# %bb.11:                               # %if.then17
                                        #   in Loop: Header=BB40_1 Depth=1
	movq	-24(%rbp), %rax
	movq	%rax, -16(%rbp)
	jmp	.LBB40_15
.LBB40_12:                              # %if.else18
                                        #   in Loop: Header=BB40_9 Depth=2
	movq	-16(%rbp), %rax
	movq	24(%rax), %rax
	movq	%rax, -16(%rbp)
# %bb.13:                               # %if.end20
                                        #   in Loop: Header=BB40_9 Depth=2
	jmp	.LBB40_9
.LBB40_14:                              # %while.end21.loopexit
                                        #   in Loop: Header=BB40_1 Depth=1
	jmp	.LBB40_15
.LBB40_15:                              # %while.end21
                                        #   in Loop: Header=BB40_1 Depth=1
	jmp	.LBB40_1
.LBB40_16:                              # %while.end22
	movq	-40(%rbp), %rbx
	cmpl	$1470383545, -44(%rbp)  # imm = 0x57A445B9
	jne	.LBB40_18
.LBB40_17:
	movq	%rbx, %rax
	addq	$56, %rsp
	popq	%rbx
	popq	%rbp
	.cfi_def_cfa %rsp, 8
	retq
.LBB40_18:                              # %func_exit
	.cfi_def_cfa %rbp, 16
	callq	detect_breach
	jmp	.LBB40_17
.Lfunc_end40:
	.size	refresh_potential.34, .Lfunc_end40-refresh_potential.34
	.cfi_endproc
                                        # -- End function
	.globl	refresh_potential.35    # -- Begin function refresh_potential.35
	.p2align	4, 0x90
	.type	refresh_potential.35,@function
refresh_potential.35:                   # @refresh_potential.35
	.cfi_startproc
# %bb.0:                                # %entry
	pushq	%rbp
	.cfi_def_cfa_offset 16
	.cfi_offset %rbp, -16
	movq	%rsp, %rbp
	.cfi_def_cfa_register %rbp
	pushq	%rbx
	subq	$56, %rsp
	.cfi_offset %rbx, -24
	movl	$1778900484, -44(%rbp)  # imm = 0x6A07DE04
	movq	%rdi, -56(%rbp)
	movq	-56(%rbp), %rax
	movq	552(%rax), %rax
	movq	%rax, -40(%rbp)
	movq	$0, -32(%rbp)
	movq	-40(%rbp), %rax
	movq	$-100000000, (%rax)     # imm = 0xFA0A1F00
	movq	-40(%rbp), %rax
	movq	16(%rax), %rax
	movq	%rax, -16(%rbp)
	movq	%rax, -24(%rbp)
.LBB41_1:                               # %while.cond
                                        # =>This Loop Header: Depth=1
                                        #     Child Loop BB41_3 Depth 2
                                        #     Child Loop BB41_9 Depth 2
	movq	-16(%rbp), %rax
	cmpq	-40(%rbp), %rax
	je	.LBB41_16
# %bb.2:                                # %while.body
                                        #   in Loop: Header=BB41_1 Depth=1
	jmp	.LBB41_3
.LBB41_3:                               # %while.cond1
                                        #   Parent Loop BB41_1 Depth=1
                                        # =>  This Inner Loop Header: Depth=2
	cmpq	$0, -16(%rbp)
	je	.LBB41_8
# %bb.4:                                # %while.body2
                                        #   in Loop: Header=BB41_3 Depth=2
	movq	-16(%rbp), %rax
	cmpl	$1, 8(%rax)
	jne	.LBB41_6
# %bb.5:                                # %if.then
                                        #   in Loop: Header=BB41_3 Depth=2
	movq	-16(%rbp), %rax
	movq	48(%rax), %rax
	movq	(%rax), %rax
	movq	-16(%rbp), %rcx
	movq	24(%rcx), %rcx
	addq	(%rcx), %rax
	movq	-16(%rbp), %rcx
	movq	%rax, (%rcx)
	jmp	.LBB41_7
.LBB41_6:                               # %if.else
                                        #   in Loop: Header=BB41_3 Depth=2
	movq	-16(%rbp), %rax
	movq	24(%rax), %rax
	movq	(%rax), %rax
	movq	-16(%rbp), %rcx
	movq	48(%rcx), %rcx
	subq	(%rcx), %rax
	movq	-16(%rbp), %rcx
	movq	%rax, (%rcx)
	movq	-32(%rbp), %rax
	addq	$1, %rax
	movq	%rax, -32(%rbp)
.LBB41_7:                               # %if.end
                                        #   in Loop: Header=BB41_3 Depth=2
	movq	-16(%rbp), %rax
	movq	%rax, -24(%rbp)
	movq	-16(%rbp), %rax
	movq	16(%rax), %rax
	movq	%rax, -16(%rbp)
	jmp	.LBB41_3
.LBB41_8:                               # %while.end
                                        #   in Loop: Header=BB41_1 Depth=1
	movq	-24(%rbp), %rax
	movq	%rax, -16(%rbp)
.LBB41_9:                               # %while.cond12
                                        #   Parent Loop BB41_1 Depth=1
                                        # =>  This Inner Loop Header: Depth=2
	movq	-16(%rbp), %rax
	cmpq	$0, 24(%rax)
	je	.LBB41_14
# %bb.10:                               # %while.body15
                                        #   in Loop: Header=BB41_9 Depth=2
	movq	-16(%rbp), %rax
	movq	32(%rax), %rax
	movq	%rax, -24(%rbp)
	cmpq	$0, -24(%rbp)
	je	.LBB41_12
# %bb.11:                               # %if.then17
                                        #   in Loop: Header=BB41_1 Depth=1
	movq	-24(%rbp), %rax
	movq	%rax, -16(%rbp)
	jmp	.LBB41_15
.LBB41_12:                              # %if.else18
                                        #   in Loop: Header=BB41_9 Depth=2
	movq	-16(%rbp), %rax
	movq	24(%rax), %rax
	movq	%rax, -16(%rbp)
# %bb.13:                               # %if.end20
                                        #   in Loop: Header=BB41_9 Depth=2
	jmp	.LBB41_9
.LBB41_14:                              # %while.end21.loopexit
                                        #   in Loop: Header=BB41_1 Depth=1
	jmp	.LBB41_15
.LBB41_15:                              # %while.end21
                                        #   in Loop: Header=BB41_1 Depth=1
	jmp	.LBB41_1
.LBB41_16:                              # %while.end22
	movq	-32(%rbp), %rbx
	cmpl	$1778900484, -44(%rbp)  # imm = 0x6A07DE04
	jne	.LBB41_18
.LBB41_17:
	movq	%rbx, %rax
	addq	$56, %rsp
	popq	%rbx
	popq	%rbp
	.cfi_def_cfa %rsp, 8
	retq
.LBB41_18:                              # %func_exit
	.cfi_def_cfa %rbp, 16
	callq	detect_breach
	jmp	.LBB41_17
.Lfunc_end41:
	.size	refresh_potential.35, .Lfunc_end41-refresh_potential.35
	.cfi_endproc
                                        # -- End function
	.globl	refresh_neighbour_lists.36 # -- Begin function refresh_neighbour_lists.36
	.p2align	4, 0x90
	.type	refresh_neighbour_lists.36,@function
refresh_neighbour_lists.36:             # @refresh_neighbour_lists.36
	.cfi_startproc
# %bb.0:                                # %entry
	pushq	%rbp
	.cfi_def_cfa_offset 16
	.cfi_offset %rbp, -16
	movq	%rsp, %rbp
	.cfi_def_cfa_register %rbp
	subq	$48, %rsp
	movl	$832932047, -36(%rbp)   # imm = 0x31A588CF
	movq	%rdi, -24(%rbp)
	movq	-24(%rbp), %rax
	movq	552(%rax), %rax
	movq	%rax, -16(%rbp)
	movq	-24(%rbp), %rax
	movq	560(%rax), %rax
	movq	%rax, -32(%rbp)
.LBB42_1:                               # %for.cond
                                        # =>This Inner Loop Header: Depth=1
	movq	-16(%rbp), %rax
	movq	-32(%rbp), %rcx
	cmpq	%rcx, %rax
	jae	.LBB42_4
# %bb.2:                                # %for.body
                                        #   in Loop: Header=BB42_1 Depth=1
	movq	-16(%rbp), %rax
	movq	$0, 64(%rax)
	movq	-16(%rbp), %rax
	movq	$0, 56(%rax)
# %bb.3:                                # %for.inc
                                        #   in Loop: Header=BB42_1 Depth=1
	movq	-16(%rbp), %rax
	addq	$104, %rax
	movq	%rax, -16(%rbp)
	jmp	.LBB42_1
.LBB42_4:                               # %for.end
	movq	-24(%rbp), %rax
	movq	568(%rax), %rax
	movq	%rax, -8(%rbp)
	movq	-24(%rbp), %rax
	movq	576(%rax), %rax
	movq	%rax, -32(%rbp)
.LBB42_5:                               # %for.cond1
                                        # =>This Inner Loop Header: Depth=1
	movq	-8(%rbp), %rax
	movq	-32(%rbp), %rcx
	cmpq	%rcx, %rax
	jae	.LBB42_8
# %bb.6:                                # %for.body3
                                        #   in Loop: Header=BB42_5 Depth=1
	movq	-8(%rbp), %rax
	movq	8(%rax), %rax
	movq	56(%rax), %rax
	movq	-8(%rbp), %rcx
	movq	%rax, 32(%rcx)
	movq	-8(%rbp), %rax
	movq	-8(%rbp), %rcx
	movq	8(%rcx), %rcx
	movq	%rax, 56(%rcx)
	movq	-8(%rbp), %rax
	movq	16(%rax), %rax
	movq	64(%rax), %rax
	movq	-8(%rbp), %rcx
	movq	%rax, 40(%rcx)
	movq	-8(%rbp), %rax
	movq	-8(%rbp), %rcx
	movq	16(%rcx), %rcx
	movq	%rax, 64(%rcx)
# %bb.7:                                # %for.inc10
                                        #   in Loop: Header=BB42_5 Depth=1
	movq	-8(%rbp), %rax
	addq	$64, %rax
	movq	%rax, -8(%rbp)
	jmp	.LBB42_5
.LBB42_8:                               # %for.end12
	cmpl	$832932047, -36(%rbp)   # imm = 0x31A588CF
	jne	.LBB42_10
.LBB42_9:
	addq	$48, %rsp
	popq	%rbp
	.cfi_def_cfa %rsp, 8
	retq
.LBB42_10:                              # %func_exit
	.cfi_def_cfa %rbp, 16
	callq	detect_breach
	jmp	.LBB42_9
.Lfunc_end42:
	.size	refresh_neighbour_lists.36, .Lfunc_end42-refresh_neighbour_lists.36
	.cfi_endproc
                                        # -- End function
	.globl	refresh_neighbour_lists.37 # -- Begin function refresh_neighbour_lists.37
	.p2align	4, 0x90
	.type	refresh_neighbour_lists.37,@function
refresh_neighbour_lists.37:             # @refresh_neighbour_lists.37
	.cfi_startproc
# %bb.0:                                # %entry
	pushq	%rbp
	.cfi_def_cfa_offset 16
	.cfi_offset %rbp, -16
	movq	%rsp, %rbp
	.cfi_def_cfa_register %rbp
	subq	$48, %rsp
	movl	$666611042, -36(%rbp)   # imm = 0x27BBAD62
	movq	%rdi, -24(%rbp)
	movq	-24(%rbp), %rax
	movq	552(%rax), %rax
	movq	%rax, -16(%rbp)
	movq	-24(%rbp), %rax
	movq	560(%rax), %rax
	movq	%rax, -32(%rbp)
.LBB43_1:                               # %for.cond
                                        # =>This Inner Loop Header: Depth=1
	movq	-16(%rbp), %rax
	movq	-32(%rbp), %rcx
	cmpq	%rcx, %rax
	jae	.LBB43_4
# %bb.2:                                # %for.body
                                        #   in Loop: Header=BB43_1 Depth=1
	movq	-16(%rbp), %rax
	movq	$0, 64(%rax)
	movq	-16(%rbp), %rax
	movq	$0, 56(%rax)
# %bb.3:                                # %for.inc
                                        #   in Loop: Header=BB43_1 Depth=1
	movq	-16(%rbp), %rax
	addq	$104, %rax
	movq	%rax, -16(%rbp)
	jmp	.LBB43_1
.LBB43_4:                               # %for.end
	movq	-24(%rbp), %rax
	movq	568(%rax), %rax
	movq	%rax, -8(%rbp)
	movq	-24(%rbp), %rax
	movq	576(%rax), %rax
	movq	%rax, -32(%rbp)
.LBB43_5:                               # %for.cond1
                                        # =>This Inner Loop Header: Depth=1
	movq	-8(%rbp), %rax
	movq	-32(%rbp), %rcx
	cmpq	%rcx, %rax
	jae	.LBB43_8
# %bb.6:                                # %for.body3
                                        #   in Loop: Header=BB43_5 Depth=1
	movq	-8(%rbp), %rax
	movq	8(%rax), %rax
	movq	56(%rax), %rax
	movq	-8(%rbp), %rcx
	movq	%rax, 32(%rcx)
	movq	-8(%rbp), %rax
	movq	-8(%rbp), %rcx
	movq	8(%rcx), %rcx
	movq	%rax, 56(%rcx)
	movq	-8(%rbp), %rax
	movq	16(%rax), %rax
	movq	64(%rax), %rax
	movq	-8(%rbp), %rcx
	movq	%rax, 40(%rcx)
	movq	-8(%rbp), %rax
	movq	-8(%rbp), %rcx
	movq	16(%rcx), %rcx
	movq	%rax, 64(%rcx)
# %bb.7:                                # %for.inc10
                                        #   in Loop: Header=BB43_5 Depth=1
	movq	-8(%rbp), %rax
	addq	$64, %rax
	movq	%rax, -8(%rbp)
	jmp	.LBB43_5
.LBB43_8:                               # %for.end12
	cmpl	$666611042, -36(%rbp)   # imm = 0x27BBAD62
	jne	.LBB43_10
.LBB43_9:
	addq	$48, %rsp
	popq	%rbp
	.cfi_def_cfa %rsp, 8
	retq
.LBB43_10:                              # %func_exit
	.cfi_def_cfa %rbp, 16
	callq	detect_breach
	jmp	.LBB43_9
.Lfunc_end43:
	.size	refresh_neighbour_lists.37, .Lfunc_end43-refresh_neighbour_lists.37
	.cfi_endproc
                                        # -- End function
	.globl	flow_org_cost.38        # -- Begin function flow_org_cost.38
	.p2align	4, 0x90
	.type	flow_org_cost.38,@function
flow_org_cost.38:                       # @flow_org_cost.38
	.cfi_startproc
# %bb.0:                                # %entry
	pushq	%rbp
	.cfi_def_cfa_offset 16
	.cfi_offset %rbp, -16
	movq	%rsp, %rbp
	.cfi_def_cfa_register %rbp
	subq	$64, %rsp
	movl	$1788518603, -52(%rbp)  # imm = 0x6A9AA0CB
	movq	%rdi, -16(%rbp)
	movq	$0, -48(%rbp)
	movq	$0, -32(%rbp)
	movq	-16(%rbp), %rax
	movq	576(%rax), %rax
	movq	%rax, -40(%rbp)
	movq	-16(%rbp), %rax
	movq	568(%rax), %rax
	movq	%rax, -8(%rbp)
.LBB44_1:                               # %for.cond
                                        # =>This Inner Loop Header: Depth=1
	movq	-8(%rbp), %rax
	movq	-40(%rbp), %rcx
	cmpq	%rcx, %rax
	je	.LBB44_7
# %bb.2:                                # %for.body
                                        #   in Loop: Header=BB44_1 Depth=1
	movq	-8(%rbp), %rax
	cmpl	$2, 24(%rax)
	jne	.LBB44_4
# %bb.3:                                # %if.then
                                        #   in Loop: Header=BB44_1 Depth=1
	movq	-8(%rbp), %rax
	movq	$1, 48(%rax)
	jmp	.LBB44_5
.LBB44_4:                               # %if.else
                                        #   in Loop: Header=BB44_1 Depth=1
	movq	-8(%rbp), %rax
	movq	$0, 48(%rax)
.LBB44_5:                               # %if.end
                                        #   in Loop: Header=BB44_1 Depth=1
	jmp	.LBB44_6
.LBB44_6:                               # %for.inc
                                        #   in Loop: Header=BB44_1 Depth=1
	movq	-8(%rbp), %rax
	addq	$64, %rax
	movq	%rax, -8(%rbp)
	jmp	.LBB44_1
.LBB44_7:                               # %for.end
	movq	-16(%rbp), %rax
	movq	560(%rax), %rax
	movq	%rax, -40(%rbp)
	movq	-16(%rbp), %rax
	movq	552(%rax), %rax
	movq	%rax, -24(%rbp)
	movq	-24(%rbp), %rax
	addq	$104, %rax
	movq	%rax, -24(%rbp)
.LBB44_8:                               # %for.cond4
                                        # =>This Inner Loop Header: Depth=1
	movq	-24(%rbp), %rax
	movq	-40(%rbp), %rcx
	cmpq	%rcx, %rax
	je	.LBB44_11
# %bb.9:                                # %for.body6
                                        #   in Loop: Header=BB44_8 Depth=1
	movq	-24(%rbp), %rax
	movq	80(%rax), %rax
	movq	-24(%rbp), %rcx
	movq	48(%rcx), %rcx
	movq	%rax, 48(%rcx)
# %bb.10:                               # %for.inc9
                                        #   in Loop: Header=BB44_8 Depth=1
	movq	-24(%rbp), %rax
	addq	$104, %rax
	movq	%rax, -24(%rbp)
	jmp	.LBB44_8
.LBB44_11:                              # %for.end11
	movq	-16(%rbp), %rax
	movq	576(%rax), %rax
	movq	%rax, -40(%rbp)
	movq	-16(%rbp), %rax
	movq	568(%rax), %rax
	movq	%rax, -8(%rbp)
.LBB44_12:                              # %for.cond14
                                        # =>This Inner Loop Header: Depth=1
	movq	-8(%rbp), %rax
	movq	-40(%rbp), %rcx
	cmpq	%rcx, %rax
	je	.LBB44_23
# %bb.13:                               # %for.body16
                                        #   in Loop: Header=BB44_12 Depth=1
	movq	-8(%rbp), %rax
	cmpq	$0, 48(%rax)
	je	.LBB44_21
# %bb.14:                               # %if.then18
                                        #   in Loop: Header=BB44_12 Depth=1
	movq	-8(%rbp), %rax
	movq	8(%rax), %rax
	cmpl	$0, 96(%rax)
	jge	.LBB44_16
# %bb.15:                               # %land.lhs.true
                                        #   in Loop: Header=BB44_12 Depth=1
	movq	-8(%rbp), %rax
	movq	16(%rax), %rax
	cmpl	$0, 96(%rax)
	jg	.LBB44_20
.LBB44_16:                              # %if.then22
                                        #   in Loop: Header=BB44_12 Depth=1
	movq	-8(%rbp), %rax
	movq	8(%rax), %rax
	cmpl	$0, 96(%rax)
	jne	.LBB44_18
# %bb.17:                               # %if.then26
                                        #   in Loop: Header=BB44_12 Depth=1
	movq	-8(%rbp), %rax
	movq	56(%rax), %rax
	movq	-16(%rbp), %rcx
	subq	528(%rcx), %rax
	addq	-32(%rbp), %rax
	movq	%rax, -32(%rbp)
	movq	-48(%rbp), %rax
	addq	$1, %rax
	movq	%rax, -48(%rbp)
	jmp	.LBB44_19
.LBB44_18:                              # %if.else27
                                        #   in Loop: Header=BB44_12 Depth=1
	movq	-8(%rbp), %rax
	movq	56(%rax), %rax
	addq	-32(%rbp), %rax
	movq	%rax, -32(%rbp)
.LBB44_19:                              # %if.end30
                                        #   in Loop: Header=BB44_12 Depth=1
	jmp	.LBB44_20
.LBB44_20:                              # %if.end31
                                        #   in Loop: Header=BB44_12 Depth=1
	jmp	.LBB44_21
.LBB44_21:                              # %if.end32
                                        #   in Loop: Header=BB44_12 Depth=1
	jmp	.LBB44_22
.LBB44_22:                              # %for.inc33
                                        #   in Loop: Header=BB44_12 Depth=1
	movq	-8(%rbp), %rax
	addq	$64, %rax
	movq	%rax, -8(%rbp)
	jmp	.LBB44_12
.LBB44_23:                              # %for.end35
	vcvtsi2sdq	-48(%rbp), %xmm0, %xmm0
	movq	-16(%rbp), %rax
	vcvtsi2sdq	528(%rax), %xmm0, %xmm1
	vmulsd	%xmm1, %xmm0, %xmm0
	vcvtsi2sdq	-32(%rbp), %xmm0, %xmm1
	vaddsd	%xmm1, %xmm0, %xmm0
	cmpl	$1788518603, -52(%rbp)  # imm = 0x6A9AA0CB
	jne	.LBB44_25
.LBB44_24:
	addq	$64, %rsp
	popq	%rbp
	.cfi_def_cfa %rsp, 8
	retq
.LBB44_25:                              # %func_exit
	.cfi_def_cfa %rbp, 16
	vmovsd	%xmm0, -64(%rbp)        # 8-byte Spill
	callq	detect_breach
	vmovsd	-64(%rbp), %xmm0        # 8-byte Reload
                                        # xmm0 = mem[0],zero
	jmp	.LBB44_24
.Lfunc_end44:
	.size	flow_org_cost.38, .Lfunc_end44-flow_org_cost.38
	.cfi_endproc
                                        # -- End function
	.globl	flow_org_cost.39        # -- Begin function flow_org_cost.39
	.p2align	4, 0x90
	.type	flow_org_cost.39,@function
flow_org_cost.39:                       # @flow_org_cost.39
	.cfi_startproc
# %bb.0:                                # %entry
	pushq	%rbp
	.cfi_def_cfa_offset 16
	.cfi_offset %rbp, -16
	movq	%rsp, %rbp
	.cfi_def_cfa_register %rbp
	subq	$64, %rsp
	movl	$1117275666, -52(%rbp)  # imm = 0x42984612
	movq	%rdi, -16(%rbp)
	movq	$0, -48(%rbp)
	movq	$0, -32(%rbp)
	movq	-16(%rbp), %rax
	movq	576(%rax), %rax
	movq	%rax, -40(%rbp)
	movq	-16(%rbp), %rax
	movq	568(%rax), %rax
	movq	%rax, -8(%rbp)
.LBB45_1:                               # %for.cond
                                        # =>This Inner Loop Header: Depth=1
	movq	-8(%rbp), %rax
	movq	-40(%rbp), %rcx
	cmpq	%rcx, %rax
	je	.LBB45_7
# %bb.2:                                # %for.body
                                        #   in Loop: Header=BB45_1 Depth=1
	movq	-8(%rbp), %rax
	cmpl	$2, 24(%rax)
	jne	.LBB45_4
# %bb.3:                                # %if.then
                                        #   in Loop: Header=BB45_1 Depth=1
	movq	-8(%rbp), %rax
	movq	$1, 48(%rax)
	jmp	.LBB45_5
.LBB45_4:                               # %if.else
                                        #   in Loop: Header=BB45_1 Depth=1
	movq	-8(%rbp), %rax
	movq	$0, 48(%rax)
.LBB45_5:                               # %if.end
                                        #   in Loop: Header=BB45_1 Depth=1
	jmp	.LBB45_6
.LBB45_6:                               # %for.inc
                                        #   in Loop: Header=BB45_1 Depth=1
	movq	-8(%rbp), %rax
	addq	$64, %rax
	movq	%rax, -8(%rbp)
	jmp	.LBB45_1
.LBB45_7:                               # %for.end
	movq	-16(%rbp), %rax
	movq	560(%rax), %rax
	movq	%rax, -40(%rbp)
	movq	-16(%rbp), %rax
	movq	552(%rax), %rax
	movq	%rax, -24(%rbp)
	movq	-24(%rbp), %rax
	addq	$104, %rax
	movq	%rax, -24(%rbp)
.LBB45_8:                               # %for.cond4
                                        # =>This Inner Loop Header: Depth=1
	movq	-24(%rbp), %rax
	movq	-40(%rbp), %rcx
	cmpq	%rcx, %rax
	je	.LBB45_11
# %bb.9:                                # %for.body6
                                        #   in Loop: Header=BB45_8 Depth=1
	movq	-24(%rbp), %rax
	movq	80(%rax), %rax
	movq	-24(%rbp), %rcx
	movq	48(%rcx), %rcx
	movq	%rax, 48(%rcx)
# %bb.10:                               # %for.inc9
                                        #   in Loop: Header=BB45_8 Depth=1
	movq	-24(%rbp), %rax
	addq	$104, %rax
	movq	%rax, -24(%rbp)
	jmp	.LBB45_8
.LBB45_11:                              # %for.end11
	movq	-16(%rbp), %rax
	movq	576(%rax), %rax
	movq	%rax, -40(%rbp)
	movq	-16(%rbp), %rax
	movq	568(%rax), %rax
	movq	%rax, -8(%rbp)
.LBB45_12:                              # %for.cond14
                                        # =>This Inner Loop Header: Depth=1
	movq	-8(%rbp), %rax
	movq	-40(%rbp), %rcx
	cmpq	%rcx, %rax
	je	.LBB45_23
# %bb.13:                               # %for.body16
                                        #   in Loop: Header=BB45_12 Depth=1
	movq	-8(%rbp), %rax
	cmpq	$0, 48(%rax)
	je	.LBB45_21
# %bb.14:                               # %if.then18
                                        #   in Loop: Header=BB45_12 Depth=1
	movq	-8(%rbp), %rax
	movq	8(%rax), %rax
	cmpl	$0, 96(%rax)
	jge	.LBB45_16
# %bb.15:                               # %land.lhs.true
                                        #   in Loop: Header=BB45_12 Depth=1
	movq	-8(%rbp), %rax
	movq	16(%rax), %rax
	cmpl	$0, 96(%rax)
	jg	.LBB45_20
.LBB45_16:                              # %if.then22
                                        #   in Loop: Header=BB45_12 Depth=1
	movq	-8(%rbp), %rax
	movq	8(%rax), %rax
	cmpl	$0, 96(%rax)
	jne	.LBB45_18
# %bb.17:                               # %if.then26
                                        #   in Loop: Header=BB45_12 Depth=1
	movq	-8(%rbp), %rax
	movq	56(%rax), %rax
	movq	-16(%rbp), %rcx
	subq	528(%rcx), %rax
	addq	-32(%rbp), %rax
	movq	%rax, -32(%rbp)
	movq	-48(%rbp), %rax
	addq	$1, %rax
	movq	%rax, -48(%rbp)
	jmp	.LBB45_19
.LBB45_18:                              # %if.else27
                                        #   in Loop: Header=BB45_12 Depth=1
	movq	-8(%rbp), %rax
	movq	56(%rax), %rax
	addq	-32(%rbp), %rax
	movq	%rax, -32(%rbp)
.LBB45_19:                              # %if.end30
                                        #   in Loop: Header=BB45_12 Depth=1
	jmp	.LBB45_20
.LBB45_20:                              # %if.end31
                                        #   in Loop: Header=BB45_12 Depth=1
	jmp	.LBB45_21
.LBB45_21:                              # %if.end32
                                        #   in Loop: Header=BB45_12 Depth=1
	jmp	.LBB45_22
.LBB45_22:                              # %for.inc33
                                        #   in Loop: Header=BB45_12 Depth=1
	movq	-8(%rbp), %rax
	addq	$64, %rax
	movq	%rax, -8(%rbp)
	jmp	.LBB45_12
.LBB45_23:                              # %for.end35
	vcvtsi2sdq	-48(%rbp), %xmm0, %xmm0
	movq	-16(%rbp), %rax
	vcvtsi2sdq	528(%rax), %xmm0, %xmm1
	vmulsd	%xmm1, %xmm0, %xmm0
	vcvtsi2sdq	-32(%rbp), %xmm0, %xmm1
	vaddsd	%xmm1, %xmm0, %xmm0
	cmpl	$1117275666, -52(%rbp)  # imm = 0x42984612
	jne	.LBB45_25
.LBB45_24:
	addq	$64, %rsp
	popq	%rbp
	.cfi_def_cfa %rsp, 8
	retq
.LBB45_25:                              # %func_exit
	.cfi_def_cfa %rbp, 16
	vmovsd	%xmm0, -64(%rbp)        # 8-byte Spill
	callq	detect_breach
	vmovsd	-64(%rbp), %xmm0        # 8-byte Reload
                                        # xmm0 = mem[0],zero
	jmp	.LBB45_24
.Lfunc_end45:
	.size	flow_org_cost.39, .Lfunc_end45-flow_org_cost.39
	.cfi_endproc
                                        # -- End function
	.globl	flow_cost.40            # -- Begin function flow_cost.40
	.p2align	4, 0x90
	.type	flow_cost.40,@function
flow_cost.40:                           # @flow_cost.40
	.cfi_startproc
# %bb.0:                                # %entry
	pushq	%rbp
	.cfi_def_cfa_offset 16
	.cfi_offset %rbp, -16
	movq	%rsp, %rbp
	.cfi_def_cfa_register %rbp
	subq	$64, %rsp
	movl	$943004398, -52(%rbp)   # imm = 0x38351AEE
	movq	%rdi, -16(%rbp)
	movq	$0, -48(%rbp)
	movq	$0, -32(%rbp)
	movq	-16(%rbp), %rax
	movq	576(%rax), %rax
	movq	%rax, -40(%rbp)
	movq	-16(%rbp), %rax
	movq	568(%rax), %rax
	movq	%rax, -8(%rbp)
.LBB46_1:                               # %for.cond
                                        # =>This Inner Loop Header: Depth=1
	movq	-8(%rbp), %rax
	movq	-40(%rbp), %rcx
	cmpq	%rcx, %rax
	je	.LBB46_7
# %bb.2:                                # %for.body
                                        #   in Loop: Header=BB46_1 Depth=1
	movq	-8(%rbp), %rax
	cmpl	$2, 24(%rax)
	jne	.LBB46_4
# %bb.3:                                # %if.then
                                        #   in Loop: Header=BB46_1 Depth=1
	movq	-8(%rbp), %rax
	movq	$1, 48(%rax)
	jmp	.LBB46_5
.LBB46_4:                               # %if.else
                                        #   in Loop: Header=BB46_1 Depth=1
	movq	-8(%rbp), %rax
	movq	$0, 48(%rax)
.LBB46_5:                               # %if.end
                                        #   in Loop: Header=BB46_1 Depth=1
	jmp	.LBB46_6
.LBB46_6:                               # %for.inc
                                        #   in Loop: Header=BB46_1 Depth=1
	movq	-8(%rbp), %rax
	addq	$64, %rax
	movq	%rax, -8(%rbp)
	jmp	.LBB46_1
.LBB46_7:                               # %for.end
	movq	-16(%rbp), %rax
	movq	560(%rax), %rax
	movq	%rax, -40(%rbp)
	movq	-16(%rbp), %rax
	movq	552(%rax), %rax
	movq	%rax, -24(%rbp)
	movq	-24(%rbp), %rax
	addq	$104, %rax
	movq	%rax, -24(%rbp)
.LBB46_8:                               # %for.cond4
                                        # =>This Inner Loop Header: Depth=1
	movq	-24(%rbp), %rax
	movq	-40(%rbp), %rcx
	cmpq	%rcx, %rax
	je	.LBB46_11
# %bb.9:                                # %for.body6
                                        #   in Loop: Header=BB46_8 Depth=1
	movq	-24(%rbp), %rax
	movq	80(%rax), %rax
	movq	-24(%rbp), %rcx
	movq	48(%rcx), %rcx
	movq	%rax, 48(%rcx)
# %bb.10:                               # %for.inc9
                                        #   in Loop: Header=BB46_8 Depth=1
	movq	-24(%rbp), %rax
	addq	$104, %rax
	movq	%rax, -24(%rbp)
	jmp	.LBB46_8
.LBB46_11:                              # %for.end11
	movq	-16(%rbp), %rax
	movq	576(%rax), %rax
	movq	%rax, -40(%rbp)
	movq	-16(%rbp), %rax
	movq	568(%rax), %rax
	movq	%rax, -8(%rbp)
.LBB46_12:                              # %for.cond14
                                        # =>This Inner Loop Header: Depth=1
	movq	-8(%rbp), %rax
	movq	-40(%rbp), %rcx
	cmpq	%rcx, %rax
	je	.LBB46_23
# %bb.13:                               # %for.body16
                                        #   in Loop: Header=BB46_12 Depth=1
	movq	-8(%rbp), %rax
	cmpq	$0, 48(%rax)
	je	.LBB46_21
# %bb.14:                               # %if.then18
                                        #   in Loop: Header=BB46_12 Depth=1
	movq	-8(%rbp), %rax
	movq	8(%rax), %rax
	cmpl	$0, 96(%rax)
	jge	.LBB46_16
# %bb.15:                               # %land.lhs.true
                                        #   in Loop: Header=BB46_12 Depth=1
	movq	-8(%rbp), %rax
	movq	16(%rax), %rax
	cmpl	$0, 96(%rax)
	jg	.LBB46_20
.LBB46_16:                              # %if.then22
                                        #   in Loop: Header=BB46_12 Depth=1
	movq	-8(%rbp), %rax
	movq	8(%rax), %rax
	cmpl	$0, 96(%rax)
	jne	.LBB46_18
# %bb.17:                               # %if.then26
                                        #   in Loop: Header=BB46_12 Depth=1
	movq	-8(%rbp), %rax
	movq	(%rax), %rax
	movq	-16(%rbp), %rcx
	subq	528(%rcx), %rax
	addq	-32(%rbp), %rax
	movq	%rax, -32(%rbp)
	movq	-48(%rbp), %rax
	addq	$1, %rax
	movq	%rax, -48(%rbp)
	jmp	.LBB46_19
.LBB46_18:                              # %if.else27
                                        #   in Loop: Header=BB46_12 Depth=1
	movq	-8(%rbp), %rax
	movq	(%rax), %rax
	addq	-32(%rbp), %rax
	movq	%rax, -32(%rbp)
.LBB46_19:                              # %if.end30
                                        #   in Loop: Header=BB46_12 Depth=1
	jmp	.LBB46_20
.LBB46_20:                              # %if.end31
                                        #   in Loop: Header=BB46_12 Depth=1
	jmp	.LBB46_21
.LBB46_21:                              # %if.end32
                                        #   in Loop: Header=BB46_12 Depth=1
	jmp	.LBB46_22
.LBB46_22:                              # %for.inc33
                                        #   in Loop: Header=BB46_12 Depth=1
	movq	-8(%rbp), %rax
	addq	$64, %rax
	movq	%rax, -8(%rbp)
	jmp	.LBB46_12
.LBB46_23:                              # %for.end35
	vcvtsi2sdq	-48(%rbp), %xmm0, %xmm0
	movq	-16(%rbp), %rax
	vcvtsi2sdq	528(%rax), %xmm0, %xmm1
	vmulsd	%xmm1, %xmm0, %xmm0
	vcvtsi2sdq	-32(%rbp), %xmm0, %xmm1
	vaddsd	%xmm1, %xmm0, %xmm0
	cmpl	$943004398, -52(%rbp)   # imm = 0x38351AEE
	jne	.LBB46_25
.LBB46_24:
	addq	$64, %rsp
	popq	%rbp
	.cfi_def_cfa %rsp, 8
	retq
.LBB46_25:                              # %func_exit
	.cfi_def_cfa %rbp, 16
	vmovsd	%xmm0, -64(%rbp)        # 8-byte Spill
	callq	detect_breach
	vmovsd	-64(%rbp), %xmm0        # 8-byte Reload
                                        # xmm0 = mem[0],zero
	jmp	.LBB46_24
.Lfunc_end46:
	.size	flow_cost.40, .Lfunc_end46-flow_cost.40
	.cfi_endproc
                                        # -- End function
	.globl	flow_cost.41            # -- Begin function flow_cost.41
	.p2align	4, 0x90
	.type	flow_cost.41,@function
flow_cost.41:                           # @flow_cost.41
	.cfi_startproc
# %bb.0:                                # %entry
	pushq	%rbp
	.cfi_def_cfa_offset 16
	.cfi_offset %rbp, -16
	movq	%rsp, %rbp
	.cfi_def_cfa_register %rbp
	subq	$64, %rsp
	movl	$245301118, -52(%rbp)   # imm = 0xE9EFF7E
	movq	%rdi, -16(%rbp)
	movq	$0, -48(%rbp)
	movq	$0, -32(%rbp)
	movq	-16(%rbp), %rax
	movq	576(%rax), %rax
	movq	%rax, -40(%rbp)
	movq	-16(%rbp), %rax
	movq	568(%rax), %rax
	movq	%rax, -8(%rbp)
.LBB47_1:                               # %for.cond
                                        # =>This Inner Loop Header: Depth=1
	movq	-8(%rbp), %rax
	movq	-40(%rbp), %rcx
	cmpq	%rcx, %rax
	je	.LBB47_7
# %bb.2:                                # %for.body
                                        #   in Loop: Header=BB47_1 Depth=1
	movq	-8(%rbp), %rax
	cmpl	$2, 24(%rax)
	jne	.LBB47_4
# %bb.3:                                # %if.then
                                        #   in Loop: Header=BB47_1 Depth=1
	movq	-8(%rbp), %rax
	movq	$1, 48(%rax)
	jmp	.LBB47_5
.LBB47_4:                               # %if.else
                                        #   in Loop: Header=BB47_1 Depth=1
	movq	-8(%rbp), %rax
	movq	$0, 48(%rax)
.LBB47_5:                               # %if.end
                                        #   in Loop: Header=BB47_1 Depth=1
	jmp	.LBB47_6
.LBB47_6:                               # %for.inc
                                        #   in Loop: Header=BB47_1 Depth=1
	movq	-8(%rbp), %rax
	addq	$64, %rax
	movq	%rax, -8(%rbp)
	jmp	.LBB47_1
.LBB47_7:                               # %for.end
	movq	-16(%rbp), %rax
	movq	560(%rax), %rax
	movq	%rax, -40(%rbp)
	movq	-16(%rbp), %rax
	movq	552(%rax), %rax
	movq	%rax, -24(%rbp)
	movq	-24(%rbp), %rax
	addq	$104, %rax
	movq	%rax, -24(%rbp)
.LBB47_8:                               # %for.cond4
                                        # =>This Inner Loop Header: Depth=1
	movq	-24(%rbp), %rax
	movq	-40(%rbp), %rcx
	cmpq	%rcx, %rax
	je	.LBB47_11
# %bb.9:                                # %for.body6
                                        #   in Loop: Header=BB47_8 Depth=1
	movq	-24(%rbp), %rax
	movq	80(%rax), %rax
	movq	-24(%rbp), %rcx
	movq	48(%rcx), %rcx
	movq	%rax, 48(%rcx)
# %bb.10:                               # %for.inc9
                                        #   in Loop: Header=BB47_8 Depth=1
	movq	-24(%rbp), %rax
	addq	$104, %rax
	movq	%rax, -24(%rbp)
	jmp	.LBB47_8
.LBB47_11:                              # %for.end11
	movq	-16(%rbp), %rax
	movq	576(%rax), %rax
	movq	%rax, -40(%rbp)
	movq	-16(%rbp), %rax
	movq	568(%rax), %rax
	movq	%rax, -8(%rbp)
.LBB47_12:                              # %for.cond14
                                        # =>This Inner Loop Header: Depth=1
	movq	-8(%rbp), %rax
	movq	-40(%rbp), %rcx
	cmpq	%rcx, %rax
	je	.LBB47_23
# %bb.13:                               # %for.body16
                                        #   in Loop: Header=BB47_12 Depth=1
	movq	-8(%rbp), %rax
	cmpq	$0, 48(%rax)
	je	.LBB47_21
# %bb.14:                               # %if.then18
                                        #   in Loop: Header=BB47_12 Depth=1
	movq	-8(%rbp), %rax
	movq	8(%rax), %rax
	cmpl	$0, 96(%rax)
	jge	.LBB47_16
# %bb.15:                               # %land.lhs.true
                                        #   in Loop: Header=BB47_12 Depth=1
	movq	-8(%rbp), %rax
	movq	16(%rax), %rax
	cmpl	$0, 96(%rax)
	jg	.LBB47_20
.LBB47_16:                              # %if.then22
                                        #   in Loop: Header=BB47_12 Depth=1
	movq	-8(%rbp), %rax
	movq	8(%rax), %rax
	cmpl	$0, 96(%rax)
	jne	.LBB47_18
# %bb.17:                               # %if.then26
                                        #   in Loop: Header=BB47_12 Depth=1
	movq	-8(%rbp), %rax
	movq	(%rax), %rax
	movq	-16(%rbp), %rcx
	subq	528(%rcx), %rax
	addq	-32(%rbp), %rax
	movq	%rax, -32(%rbp)
	movq	-48(%rbp), %rax
	addq	$1, %rax
	movq	%rax, -48(%rbp)
	jmp	.LBB47_19
.LBB47_18:                              # %if.else27
                                        #   in Loop: Header=BB47_12 Depth=1
	movq	-8(%rbp), %rax
	movq	(%rax), %rax
	addq	-32(%rbp), %rax
	movq	%rax, -32(%rbp)
.LBB47_19:                              # %if.end30
                                        #   in Loop: Header=BB47_12 Depth=1
	jmp	.LBB47_20
.LBB47_20:                              # %if.end31
                                        #   in Loop: Header=BB47_12 Depth=1
	jmp	.LBB47_21
.LBB47_21:                              # %if.end32
                                        #   in Loop: Header=BB47_12 Depth=1
	jmp	.LBB47_22
.LBB47_22:                              # %for.inc33
                                        #   in Loop: Header=BB47_12 Depth=1
	movq	-8(%rbp), %rax
	addq	$64, %rax
	movq	%rax, -8(%rbp)
	jmp	.LBB47_12
.LBB47_23:                              # %for.end35
	vcvtsi2sdq	-48(%rbp), %xmm0, %xmm0
	movq	-16(%rbp), %rax
	vcvtsi2sdq	528(%rax), %xmm0, %xmm1
	vmulsd	%xmm1, %xmm0, %xmm0
	vcvtsi2sdq	-32(%rbp), %xmm0, %xmm1
	vaddsd	%xmm1, %xmm0, %xmm0
	cmpl	$245301118, -52(%rbp)   # imm = 0xE9EFF7E
	jne	.LBB47_25
.LBB47_24:
	addq	$64, %rsp
	popq	%rbp
	.cfi_def_cfa %rsp, 8
	retq
.LBB47_25:                              # %func_exit
	.cfi_def_cfa %rbp, 16
	vmovsd	%xmm0, -64(%rbp)        # 8-byte Spill
	callq	detect_breach
	vmovsd	-64(%rbp), %xmm0        # 8-byte Reload
                                        # xmm0 = mem[0],zero
	jmp	.LBB47_24
.Lfunc_end47:
	.size	flow_cost.41, .Lfunc_end47-flow_cost.41
	.cfi_endproc
                                        # -- End function
	.globl	refresh_neighbour_lists.42 # -- Begin function refresh_neighbour_lists.42
	.p2align	4, 0x90
	.type	refresh_neighbour_lists.42,@function
refresh_neighbour_lists.42:             # @refresh_neighbour_lists.42
	.cfi_startproc
# %bb.0:                                # %entry
	pushq	%rbp
	.cfi_def_cfa_offset 16
	.cfi_offset %rbp, -16
	movq	%rsp, %rbp
	.cfi_def_cfa_register %rbp
	subq	$48, %rsp
	movl	$2056323907, -36(%rbp)  # imm = 0x7A910343
	movq	%rdi, -24(%rbp)
	movq	-24(%rbp), %rax
	movq	552(%rax), %rax
	movq	%rax, -16(%rbp)
	movq	-24(%rbp), %rax
	movq	560(%rax), %rax
	movq	%rax, -32(%rbp)
.LBB48_1:                               # %for.cond
                                        # =>This Inner Loop Header: Depth=1
	movq	-16(%rbp), %rax
	movq	-32(%rbp), %rcx
	cmpq	%rcx, %rax
	jae	.LBB48_4
# %bb.2:                                # %for.body
                                        #   in Loop: Header=BB48_1 Depth=1
	movq	-16(%rbp), %rax
	movq	$0, 64(%rax)
	movq	-16(%rbp), %rax
	movq	$0, 56(%rax)
# %bb.3:                                # %for.inc
                                        #   in Loop: Header=BB48_1 Depth=1
	movq	-16(%rbp), %rax
	addq	$104, %rax
	movq	%rax, -16(%rbp)
	jmp	.LBB48_1
.LBB48_4:                               # %for.end
	movq	-24(%rbp), %rax
	movq	568(%rax), %rax
	movq	%rax, -8(%rbp)
	movq	-24(%rbp), %rax
	movq	576(%rax), %rax
	movq	%rax, -32(%rbp)
.LBB48_5:                               # %for.cond1
                                        # =>This Inner Loop Header: Depth=1
	movq	-8(%rbp), %rax
	movq	-32(%rbp), %rcx
	cmpq	%rcx, %rax
	jae	.LBB48_8
# %bb.6:                                # %for.body3
                                        #   in Loop: Header=BB48_5 Depth=1
	movq	-8(%rbp), %rax
	movq	8(%rax), %rax
	movq	56(%rax), %rax
	movq	-8(%rbp), %rcx
	movq	%rax, 32(%rcx)
	movq	-8(%rbp), %rax
	movq	-8(%rbp), %rcx
	movq	8(%rcx), %rcx
	movq	%rax, 56(%rcx)
	movq	-8(%rbp), %rax
	movq	16(%rax), %rax
	movq	64(%rax), %rax
	movq	-8(%rbp), %rcx
	movq	%rax, 40(%rcx)
	movq	-8(%rbp), %rax
	movq	-8(%rbp), %rcx
	movq	16(%rcx), %rcx
	movq	%rax, 64(%rcx)
# %bb.7:                                # %for.inc10
                                        #   in Loop: Header=BB48_5 Depth=1
	movq	-8(%rbp), %rax
	addq	$64, %rax
	movq	%rax, -8(%rbp)
	jmp	.LBB48_5
.LBB48_8:                               # %for.end12
	cmpl	$2056323907, -36(%rbp)  # imm = 0x7A910343
	jne	.LBB48_10
.LBB48_9:
	addq	$48, %rsp
	popq	%rbp
	.cfi_def_cfa %rsp, 8
	retq
.LBB48_10:                              # %func_exit
	.cfi_def_cfa %rbp, 16
	callq	detect_breach
	jmp	.LBB48_9
.Lfunc_end48:
	.size	refresh_neighbour_lists.42, .Lfunc_end48-refresh_neighbour_lists.42
	.cfi_endproc
                                        # -- End function
	.globl	primal_feasible.43      # -- Begin function primal_feasible.43
	.p2align	4, 0x90
	.type	primal_feasible.43,@function
primal_feasible.43:                     # @primal_feasible.43
	.cfi_startproc
# %bb.0:                                # %entry
	pushq	%rbp
	.cfi_def_cfa_offset 16
	.cfi_offset %rbp, -16
	movq	%rsp, %rbp
	.cfi_def_cfa_register %rbp
	pushq	%rbx
	subq	$72, %rsp
	.cfi_offset %rbx, -24
	movl	$1267775522, -36(%rbp)  # imm = 0x4B90B822
	movq	%rdi, -16(%rbp)
	movq	-16(%rbp), %rax
	movq	584(%rax), %rax
	movq	%rax, -72(%rbp)
	movq	-16(%rbp), %rax
	movq	592(%rax), %rax
	movq	%rax, -64(%rbp)
	movq	-16(%rbp), %rax
	movq	552(%rax), %rax
	movq	%rax, -24(%rbp)
	movq	-16(%rbp), %rax
	movq	560(%rax), %rax
	movq	%rax, -80(%rbp)
	movq	-24(%rbp), %rax
	addq	$104, %rax
	movq	%rax, -24(%rbp)
.LBB49_1:                               # %for.cond
                                        # =>This Inner Loop Header: Depth=1
	movq	-24(%rbp), %rax
	movq	-80(%rbp), %rcx
	cmpq	%rcx, %rax
	jae	.LBB49_16
# %bb.2:                                # %for.body
                                        #   in Loop: Header=BB49_1 Depth=1
	movq	-24(%rbp), %rax
	movq	48(%rax), %rax
	movq	%rax, -56(%rbp)
	movq	-24(%rbp), %rax
	movq	80(%rax), %rax
	movq	%rax, -32(%rbp)
	movq	-56(%rbp), %rax
	cmpq	-72(%rbp), %rax
	jb	.LBB49_10
# %bb.3:                                # %land.lhs.true
                                        #   in Loop: Header=BB49_1 Depth=1
	movq	-56(%rbp), %rax
	cmpq	-64(%rbp), %rax
	jae	.LBB49_10
# %bb.4:                                # %if.then
                                        #   in Loop: Header=BB49_1 Depth=1
	cmpq	$0, -32(%rbp)
	jl	.LBB49_6
# %bb.5:                                # %cond.true
                                        #   in Loop: Header=BB49_1 Depth=1
	movq	-32(%rbp), %rax
	jmp	.LBB49_7
.LBB49_6:                               # %cond.false
                                        #   in Loop: Header=BB49_1 Depth=1
	xorl	%eax, %eax
	subq	-32(%rbp), %rax
.LBB49_7:                               # %cond.end
                                        #   in Loop: Header=BB49_1 Depth=1
	movq	-16(%rbp), %rcx
	cmpq	512(%rcx), %rax
	jle	.LBB49_9
# %bb.8:                                # %if.then7
                                        #   in Loop: Header=BB49_1 Depth=1
	movabsq	$.L.str, %rdi
	movb	$0, %al
	callq	printf
	movq	-24(%rbp), %rax
	movl	96(%rax), %esi
	movq	-32(%rbp), %rdx
	movabsq	$.L.str.1, %rdi
	movb	$0, %al
	callq	printf
.LBB49_9:                               # %if.end
                                        #   in Loop: Header=BB49_1 Depth=1
	jmp	.LBB49_14
.LBB49_10:                              # %if.else
                                        #   in Loop: Header=BB49_1 Depth=1
	xorl	%eax, %eax
	movq	-32(%rbp), %rcx
	movq	-16(%rbp), %rdx
	subq	512(%rdx), %rax
	cmpq	%rax, %rcx
	jl	.LBB49_12
# %bb.11:                               # %lor.lhs.false
                                        #   in Loop: Header=BB49_1 Depth=1
	movq	-32(%rbp), %rax
	subq	$1, %rax
	movq	-16(%rbp), %rcx
	cmpq	512(%rcx), %rax
	jle	.LBB49_13
.LBB49_12:                              # %if.then15
	movabsq	$.L.str, %rdi
	movb	$0, %al
	callq	printf
	movq	-32(%rbp), %rsi
	movabsq	$.L.str.2, %rdi
	movb	$0, %al
	callq	printf
	movq	-16(%rbp), %rax
	movq	$0, 488(%rax)
	movq	$1, -48(%rbp)
	jmp	.LBB49_17
.LBB49_13:                              # %if.end18
                                        #   in Loop: Header=BB49_1 Depth=1
	jmp	.LBB49_14
.LBB49_14:                              # %if.end19
                                        #   in Loop: Header=BB49_1 Depth=1
	jmp	.LBB49_15
.LBB49_15:                              # %for.inc
                                        #   in Loop: Header=BB49_1 Depth=1
	movq	-24(%rbp), %rax
	addq	$104, %rax
	movq	%rax, -24(%rbp)
	jmp	.LBB49_1
.LBB49_16:                              # %for.end
	movq	-16(%rbp), %rax
	movq	$1, 488(%rax)
	movq	$0, -48(%rbp)
.LBB49_17:                              # %return
	movq	-48(%rbp), %rbx
	cmpl	$1267775522, -36(%rbp)  # imm = 0x4B90B822
	jne	.LBB49_19
.LBB49_18:
	movq	%rbx, %rax
	addq	$72, %rsp
	popq	%rbx
	popq	%rbp
	.cfi_def_cfa %rsp, 8
	retq
.LBB49_19:                              # %func_exit
	.cfi_def_cfa %rbp, 16
	callq	detect_breach
	jmp	.LBB49_18
.Lfunc_end49:
	.size	primal_feasible.43, .Lfunc_end49-primal_feasible.43
	.cfi_endproc
                                        # -- End function
	.globl	refresh_neighbour_lists.44 # -- Begin function refresh_neighbour_lists.44
	.p2align	4, 0x90
	.type	refresh_neighbour_lists.44,@function
refresh_neighbour_lists.44:             # @refresh_neighbour_lists.44
	.cfi_startproc
# %bb.0:                                # %entry
	pushq	%rbp
	.cfi_def_cfa_offset 16
	.cfi_offset %rbp, -16
	movq	%rsp, %rbp
	.cfi_def_cfa_register %rbp
	subq	$48, %rsp
	movl	$1011236242, -36(%rbp)  # imm = 0x3C463D92
	movq	%rdi, -24(%rbp)
	movq	-24(%rbp), %rax
	movq	552(%rax), %rax
	movq	%rax, -16(%rbp)
	movq	-24(%rbp), %rax
	movq	560(%rax), %rax
	movq	%rax, -32(%rbp)
.LBB50_1:                               # %for.cond
                                        # =>This Inner Loop Header: Depth=1
	movq	-16(%rbp), %rax
	movq	-32(%rbp), %rcx
	cmpq	%rcx, %rax
	jae	.LBB50_4
# %bb.2:                                # %for.body
                                        #   in Loop: Header=BB50_1 Depth=1
	movq	-16(%rbp), %rax
	movq	$0, 64(%rax)
	movq	-16(%rbp), %rax
	movq	$0, 56(%rax)
# %bb.3:                                # %for.inc
                                        #   in Loop: Header=BB50_1 Depth=1
	movq	-16(%rbp), %rax
	addq	$104, %rax
	movq	%rax, -16(%rbp)
	jmp	.LBB50_1
.LBB50_4:                               # %for.end
	movq	-24(%rbp), %rax
	movq	568(%rax), %rax
	movq	%rax, -8(%rbp)
	movq	-24(%rbp), %rax
	movq	576(%rax), %rax
	movq	%rax, -32(%rbp)
.LBB50_5:                               # %for.cond1
                                        # =>This Inner Loop Header: Depth=1
	movq	-8(%rbp), %rax
	movq	-32(%rbp), %rcx
	cmpq	%rcx, %rax
	jae	.LBB50_8
# %bb.6:                                # %for.body3
                                        #   in Loop: Header=BB50_5 Depth=1
	movq	-8(%rbp), %rax
	movq	8(%rax), %rax
	movq	56(%rax), %rax
	movq	-8(%rbp), %rcx
	movq	%rax, 32(%rcx)
	movq	-8(%rbp), %rax
	movq	-8(%rbp), %rcx
	movq	8(%rcx), %rcx
	movq	%rax, 56(%rcx)
	movq	-8(%rbp), %rax
	movq	16(%rax), %rax
	movq	64(%rax), %rax
	movq	-8(%rbp), %rcx
	movq	%rax, 40(%rcx)
	movq	-8(%rbp), %rax
	movq	-8(%rbp), %rcx
	movq	16(%rcx), %rcx
	movq	%rax, 64(%rcx)
# %bb.7:                                # %for.inc10
                                        #   in Loop: Header=BB50_5 Depth=1
	movq	-8(%rbp), %rax
	addq	$64, %rax
	movq	%rax, -8(%rbp)
	jmp	.LBB50_5
.LBB50_8:                               # %for.end12
	cmpl	$1011236242, -36(%rbp)  # imm = 0x3C463D92
	jne	.LBB50_10
.LBB50_9:
	addq	$48, %rsp
	popq	%rbp
	.cfi_def_cfa %rsp, 8
	retq
.LBB50_10:                              # %func_exit
	.cfi_def_cfa %rbp, 16
	callq	detect_breach
	jmp	.LBB50_9
.Lfunc_end50:
	.size	refresh_neighbour_lists.44, .Lfunc_end50-refresh_neighbour_lists.44
	.cfi_endproc
                                        # -- End function
	.globl	primal_feasible.45      # -- Begin function primal_feasible.45
	.p2align	4, 0x90
	.type	primal_feasible.45,@function
primal_feasible.45:                     # @primal_feasible.45
	.cfi_startproc
# %bb.0:                                # %entry
	pushq	%rbp
	.cfi_def_cfa_offset 16
	.cfi_offset %rbp, -16
	movq	%rsp, %rbp
	.cfi_def_cfa_register %rbp
	pushq	%rbx
	subq	$72, %rsp
	.cfi_offset %rbx, -24
	movl	$812624257, -36(%rbp)   # imm = 0x306FA981
	movq	%rdi, -16(%rbp)
	movq	-16(%rbp), %rax
	movq	584(%rax), %rax
	movq	%rax, -72(%rbp)
	movq	-16(%rbp), %rax
	movq	592(%rax), %rax
	movq	%rax, -64(%rbp)
	movq	-16(%rbp), %rax
	movq	552(%rax), %rax
	movq	%rax, -24(%rbp)
	movq	-16(%rbp), %rax
	movq	560(%rax), %rax
	movq	%rax, -80(%rbp)
	movq	-24(%rbp), %rax
	addq	$104, %rax
	movq	%rax, -24(%rbp)
.LBB51_1:                               # %for.cond
                                        # =>This Inner Loop Header: Depth=1
	movq	-24(%rbp), %rax
	movq	-80(%rbp), %rcx
	cmpq	%rcx, %rax
	jae	.LBB51_16
# %bb.2:                                # %for.body
                                        #   in Loop: Header=BB51_1 Depth=1
	movq	-24(%rbp), %rax
	movq	48(%rax), %rax
	movq	%rax, -48(%rbp)
	movq	-24(%rbp), %rax
	movq	80(%rax), %rax
	movq	%rax, -32(%rbp)
	movq	-48(%rbp), %rax
	cmpq	-72(%rbp), %rax
	jb	.LBB51_10
# %bb.3:                                # %land.lhs.true
                                        #   in Loop: Header=BB51_1 Depth=1
	movq	-48(%rbp), %rax
	cmpq	-64(%rbp), %rax
	jae	.LBB51_10
# %bb.4:                                # %if.then
                                        #   in Loop: Header=BB51_1 Depth=1
	cmpq	$0, -32(%rbp)
	jl	.LBB51_6
# %bb.5:                                # %cond.true
                                        #   in Loop: Header=BB51_1 Depth=1
	movq	-32(%rbp), %rax
	jmp	.LBB51_7
.LBB51_6:                               # %cond.false
                                        #   in Loop: Header=BB51_1 Depth=1
	xorl	%eax, %eax
	subq	-32(%rbp), %rax
.LBB51_7:                               # %cond.end
                                        #   in Loop: Header=BB51_1 Depth=1
	movq	-16(%rbp), %rcx
	cmpq	512(%rcx), %rax
	jle	.LBB51_9
# %bb.8:                                # %if.then7
                                        #   in Loop: Header=BB51_1 Depth=1
	movabsq	$.L.str, %rdi
	movb	$0, %al
	callq	printf
	movq	-24(%rbp), %rax
	movl	96(%rax), %esi
	movq	-32(%rbp), %rdx
	movabsq	$.L.str.1, %rdi
	movb	$0, %al
	callq	printf
.LBB51_9:                               # %if.end
                                        #   in Loop: Header=BB51_1 Depth=1
	jmp	.LBB51_14
.LBB51_10:                              # %if.else
                                        #   in Loop: Header=BB51_1 Depth=1
	xorl	%eax, %eax
	movq	-32(%rbp), %rcx
	movq	-16(%rbp), %rdx
	subq	512(%rdx), %rax
	cmpq	%rax, %rcx
	jl	.LBB51_12
# %bb.11:                               # %lor.lhs.false
                                        #   in Loop: Header=BB51_1 Depth=1
	movq	-32(%rbp), %rax
	subq	$1, %rax
	movq	-16(%rbp), %rcx
	cmpq	512(%rcx), %rax
	jle	.LBB51_13
.LBB51_12:                              # %if.then15
	movabsq	$.L.str, %rdi
	movb	$0, %al
	callq	printf
	movq	-32(%rbp), %rsi
	movabsq	$.L.str.2, %rdi
	movb	$0, %al
	callq	printf
	movq	-16(%rbp), %rax
	movq	$0, 488(%rax)
	movq	$1, -56(%rbp)
	jmp	.LBB51_17
.LBB51_13:                              # %if.end18
                                        #   in Loop: Header=BB51_1 Depth=1
	jmp	.LBB51_14
.LBB51_14:                              # %if.end19
                                        #   in Loop: Header=BB51_1 Depth=1
	jmp	.LBB51_15
.LBB51_15:                              # %for.inc
                                        #   in Loop: Header=BB51_1 Depth=1
	movq	-24(%rbp), %rax
	addq	$104, %rax
	movq	%rax, -24(%rbp)
	jmp	.LBB51_1
.LBB51_16:                              # %for.end
	movq	-16(%rbp), %rax
	movq	$1, 488(%rax)
	movq	$0, -56(%rbp)
.LBB51_17:                              # %return
	movq	-56(%rbp), %rbx
	cmpl	$812624257, -36(%rbp)   # imm = 0x306FA981
	jne	.LBB51_19
.LBB51_18:
	movq	%rbx, %rax
	addq	$72, %rsp
	popq	%rbx
	popq	%rbp
	.cfi_def_cfa %rsp, 8
	retq
.LBB51_19:                              # %func_exit
	.cfi_def_cfa %rbp, 16
	callq	detect_breach
	jmp	.LBB51_18
.Lfunc_end51:
	.size	primal_feasible.45, .Lfunc_end51-primal_feasible.45
	.cfi_endproc
                                        # -- End function
	.globl	flow_org_cost.46        # -- Begin function flow_org_cost.46
	.p2align	4, 0x90
	.type	flow_org_cost.46,@function
flow_org_cost.46:                       # @flow_org_cost.46
	.cfi_startproc
# %bb.0:                                # %entry
	pushq	%rbp
	.cfi_def_cfa_offset 16
	.cfi_offset %rbp, -16
	movq	%rsp, %rbp
	.cfi_def_cfa_register %rbp
	subq	$64, %rsp
	movl	$1542718760, -52(%rbp)  # imm = 0x5BF40528
	movq	%rdi, -16(%rbp)
	movq	$0, -48(%rbp)
	movq	$0, -40(%rbp)
	movq	-16(%rbp), %rax
	movq	576(%rax), %rax
	movq	%rax, -32(%rbp)
	movq	-16(%rbp), %rax
	movq	568(%rax), %rax
	movq	%rax, -8(%rbp)
.LBB52_1:                               # %for.cond
                                        # =>This Inner Loop Header: Depth=1
	movq	-8(%rbp), %rax
	movq	-32(%rbp), %rcx
	cmpq	%rcx, %rax
	je	.LBB52_7
# %bb.2:                                # %for.body
                                        #   in Loop: Header=BB52_1 Depth=1
	movq	-8(%rbp), %rax
	cmpl	$2, 24(%rax)
	jne	.LBB52_4
# %bb.3:                                # %if.then
                                        #   in Loop: Header=BB52_1 Depth=1
	movq	-8(%rbp), %rax
	movq	$1, 48(%rax)
	jmp	.LBB52_5
.LBB52_4:                               # %if.else
                                        #   in Loop: Header=BB52_1 Depth=1
	movq	-8(%rbp), %rax
	movq	$0, 48(%rax)
.LBB52_5:                               # %if.end
                                        #   in Loop: Header=BB52_1 Depth=1
	jmp	.LBB52_6
.LBB52_6:                               # %for.inc
                                        #   in Loop: Header=BB52_1 Depth=1
	movq	-8(%rbp), %rax
	addq	$64, %rax
	movq	%rax, -8(%rbp)
	jmp	.LBB52_1
.LBB52_7:                               # %for.end
	movq	-16(%rbp), %rax
	movq	560(%rax), %rax
	movq	%rax, -32(%rbp)
	movq	-16(%rbp), %rax
	movq	552(%rax), %rax
	movq	%rax, -24(%rbp)
	movq	-24(%rbp), %rax
	addq	$104, %rax
	movq	%rax, -24(%rbp)
.LBB52_8:                               # %for.cond4
                                        # =>This Inner Loop Header: Depth=1
	movq	-24(%rbp), %rax
	movq	-32(%rbp), %rcx
	cmpq	%rcx, %rax
	je	.LBB52_11
# %bb.9:                                # %for.body6
                                        #   in Loop: Header=BB52_8 Depth=1
	movq	-24(%rbp), %rax
	movq	80(%rax), %rax
	movq	-24(%rbp), %rcx
	movq	48(%rcx), %rcx
	movq	%rax, 48(%rcx)
# %bb.10:                               # %for.inc9
                                        #   in Loop: Header=BB52_8 Depth=1
	movq	-24(%rbp), %rax
	addq	$104, %rax
	movq	%rax, -24(%rbp)
	jmp	.LBB52_8
.LBB52_11:                              # %for.end11
	movq	-16(%rbp), %rax
	movq	576(%rax), %rax
	movq	%rax, -32(%rbp)
	movq	-16(%rbp), %rax
	movq	568(%rax), %rax
	movq	%rax, -8(%rbp)
.LBB52_12:                              # %for.cond14
                                        # =>This Inner Loop Header: Depth=1
	movq	-8(%rbp), %rax
	movq	-32(%rbp), %rcx
	cmpq	%rcx, %rax
	je	.LBB52_23
# %bb.13:                               # %for.body16
                                        #   in Loop: Header=BB52_12 Depth=1
	movq	-8(%rbp), %rax
	cmpq	$0, 48(%rax)
	je	.LBB52_21
# %bb.14:                               # %if.then18
                                        #   in Loop: Header=BB52_12 Depth=1
	movq	-8(%rbp), %rax
	movq	8(%rax), %rax
	cmpl	$0, 96(%rax)
	jge	.LBB52_16
# %bb.15:                               # %land.lhs.true
                                        #   in Loop: Header=BB52_12 Depth=1
	movq	-8(%rbp), %rax
	movq	16(%rax), %rax
	cmpl	$0, 96(%rax)
	jg	.LBB52_20
.LBB52_16:                              # %if.then22
                                        #   in Loop: Header=BB52_12 Depth=1
	movq	-8(%rbp), %rax
	movq	8(%rax), %rax
	cmpl	$0, 96(%rax)
	jne	.LBB52_18
# %bb.17:                               # %if.then26
                                        #   in Loop: Header=BB52_12 Depth=1
	movq	-8(%rbp), %rax
	movq	56(%rax), %rax
	movq	-16(%rbp), %rcx
	subq	528(%rcx), %rax
	addq	-40(%rbp), %rax
	movq	%rax, -40(%rbp)
	movq	-48(%rbp), %rax
	addq	$1, %rax
	movq	%rax, -48(%rbp)
	jmp	.LBB52_19
.LBB52_18:                              # %if.else27
                                        #   in Loop: Header=BB52_12 Depth=1
	movq	-8(%rbp), %rax
	movq	56(%rax), %rax
	addq	-40(%rbp), %rax
	movq	%rax, -40(%rbp)
.LBB52_19:                              # %if.end30
                                        #   in Loop: Header=BB52_12 Depth=1
	jmp	.LBB52_20
.LBB52_20:                              # %if.end31
                                        #   in Loop: Header=BB52_12 Depth=1
	jmp	.LBB52_21
.LBB52_21:                              # %if.end32
                                        #   in Loop: Header=BB52_12 Depth=1
	jmp	.LBB52_22
.LBB52_22:                              # %for.inc33
                                        #   in Loop: Header=BB52_12 Depth=1
	movq	-8(%rbp), %rax
	addq	$64, %rax
	movq	%rax, -8(%rbp)
	jmp	.LBB52_12
.LBB52_23:                              # %for.end35
	vcvtsi2sdq	-48(%rbp), %xmm0, %xmm0
	movq	-16(%rbp), %rax
	vcvtsi2sdq	528(%rax), %xmm0, %xmm1
	vmulsd	%xmm1, %xmm0, %xmm0
	vcvtsi2sdq	-40(%rbp), %xmm0, %xmm1
	vaddsd	%xmm1, %xmm0, %xmm0
	cmpl	$1542718760, -52(%rbp)  # imm = 0x5BF40528
	jne	.LBB52_25
.LBB52_24:
	addq	$64, %rsp
	popq	%rbp
	.cfi_def_cfa %rsp, 8
	retq
.LBB52_25:                              # %func_exit
	.cfi_def_cfa %rbp, 16
	vmovsd	%xmm0, -64(%rbp)        # 8-byte Spill
	callq	detect_breach
	vmovsd	-64(%rbp), %xmm0        # 8-byte Reload
                                        # xmm0 = mem[0],zero
	jmp	.LBB52_24
.Lfunc_end52:
	.size	flow_org_cost.46, .Lfunc_end52-flow_org_cost.46
	.cfi_endproc
                                        # -- End function
	.globl	flow_org_cost.47        # -- Begin function flow_org_cost.47
	.p2align	4, 0x90
	.type	flow_org_cost.47,@function
flow_org_cost.47:                       # @flow_org_cost.47
	.cfi_startproc
# %bb.0:                                # %entry
	pushq	%rbp
	.cfi_def_cfa_offset 16
	.cfi_offset %rbp, -16
	movq	%rsp, %rbp
	.cfi_def_cfa_register %rbp
	subq	$64, %rsp
	movl	$2098493177, -52(%rbp)  # imm = 0x7D1476F9
	movq	%rdi, -16(%rbp)
	movq	$0, -48(%rbp)
	movq	$0, -32(%rbp)
	movq	-16(%rbp), %rax
	movq	576(%rax), %rax
	movq	%rax, -40(%rbp)
	movq	-16(%rbp), %rax
	movq	568(%rax), %rax
	movq	%rax, -8(%rbp)
.LBB53_1:                               # %for.cond
                                        # =>This Inner Loop Header: Depth=1
	movq	-8(%rbp), %rax
	movq	-40(%rbp), %rcx
	cmpq	%rcx, %rax
	je	.LBB53_7
# %bb.2:                                # %for.body
                                        #   in Loop: Header=BB53_1 Depth=1
	movq	-8(%rbp), %rax
	cmpl	$2, 24(%rax)
	jne	.LBB53_4
# %bb.3:                                # %if.then
                                        #   in Loop: Header=BB53_1 Depth=1
	movq	-8(%rbp), %rax
	movq	$1, 48(%rax)
	jmp	.LBB53_5
.LBB53_4:                               # %if.else
                                        #   in Loop: Header=BB53_1 Depth=1
	movq	-8(%rbp), %rax
	movq	$0, 48(%rax)
.LBB53_5:                               # %if.end
                                        #   in Loop: Header=BB53_1 Depth=1
	jmp	.LBB53_6
.LBB53_6:                               # %for.inc
                                        #   in Loop: Header=BB53_1 Depth=1
	movq	-8(%rbp), %rax
	addq	$64, %rax
	movq	%rax, -8(%rbp)
	jmp	.LBB53_1
.LBB53_7:                               # %for.end
	movq	-16(%rbp), %rax
	movq	560(%rax), %rax
	movq	%rax, -40(%rbp)
	movq	-16(%rbp), %rax
	movq	552(%rax), %rax
	movq	%rax, -24(%rbp)
	movq	-24(%rbp), %rax
	addq	$104, %rax
	movq	%rax, -24(%rbp)
.LBB53_8:                               # %for.cond4
                                        # =>This Inner Loop Header: Depth=1
	movq	-24(%rbp), %rax
	movq	-40(%rbp), %rcx
	cmpq	%rcx, %rax
	je	.LBB53_11
# %bb.9:                                # %for.body6
                                        #   in Loop: Header=BB53_8 Depth=1
	movq	-24(%rbp), %rax
	movq	80(%rax), %rax
	movq	-24(%rbp), %rcx
	movq	48(%rcx), %rcx
	movq	%rax, 48(%rcx)
# %bb.10:                               # %for.inc9
                                        #   in Loop: Header=BB53_8 Depth=1
	movq	-24(%rbp), %rax
	addq	$104, %rax
	movq	%rax, -24(%rbp)
	jmp	.LBB53_8
.LBB53_11:                              # %for.end11
	movq	-16(%rbp), %rax
	movq	576(%rax), %rax
	movq	%rax, -40(%rbp)
	movq	-16(%rbp), %rax
	movq	568(%rax), %rax
	movq	%rax, -8(%rbp)
.LBB53_12:                              # %for.cond14
                                        # =>This Inner Loop Header: Depth=1
	movq	-8(%rbp), %rax
	movq	-40(%rbp), %rcx
	cmpq	%rcx, %rax
	je	.LBB53_23
# %bb.13:                               # %for.body16
                                        #   in Loop: Header=BB53_12 Depth=1
	movq	-8(%rbp), %rax
	cmpq	$0, 48(%rax)
	je	.LBB53_21
# %bb.14:                               # %if.then18
                                        #   in Loop: Header=BB53_12 Depth=1
	movq	-8(%rbp), %rax
	movq	8(%rax), %rax
	cmpl	$0, 96(%rax)
	jge	.LBB53_16
# %bb.15:                               # %land.lhs.true
                                        #   in Loop: Header=BB53_12 Depth=1
	movq	-8(%rbp), %rax
	movq	16(%rax), %rax
	cmpl	$0, 96(%rax)
	jg	.LBB53_20
.LBB53_16:                              # %if.then22
                                        #   in Loop: Header=BB53_12 Depth=1
	movq	-8(%rbp), %rax
	movq	8(%rax), %rax
	cmpl	$0, 96(%rax)
	jne	.LBB53_18
# %bb.17:                               # %if.then26
                                        #   in Loop: Header=BB53_12 Depth=1
	movq	-8(%rbp), %rax
	movq	56(%rax), %rax
	movq	-16(%rbp), %rcx
	subq	528(%rcx), %rax
	addq	-32(%rbp), %rax
	movq	%rax, -32(%rbp)
	movq	-48(%rbp), %rax
	addq	$1, %rax
	movq	%rax, -48(%rbp)
	jmp	.LBB53_19
.LBB53_18:                              # %if.else27
                                        #   in Loop: Header=BB53_12 Depth=1
	movq	-8(%rbp), %rax
	movq	56(%rax), %rax
	addq	-32(%rbp), %rax
	movq	%rax, -32(%rbp)
.LBB53_19:                              # %if.end30
                                        #   in Loop: Header=BB53_12 Depth=1
	jmp	.LBB53_20
.LBB53_20:                              # %if.end31
                                        #   in Loop: Header=BB53_12 Depth=1
	jmp	.LBB53_21
.LBB53_21:                              # %if.end32
                                        #   in Loop: Header=BB53_12 Depth=1
	jmp	.LBB53_22
.LBB53_22:                              # %for.inc33
                                        #   in Loop: Header=BB53_12 Depth=1
	movq	-8(%rbp), %rax
	addq	$64, %rax
	movq	%rax, -8(%rbp)
	jmp	.LBB53_12
.LBB53_23:                              # %for.end35
	vcvtsi2sdq	-48(%rbp), %xmm0, %xmm0
	movq	-16(%rbp), %rax
	vcvtsi2sdq	528(%rax), %xmm0, %xmm1
	vmulsd	%xmm1, %xmm0, %xmm0
	vcvtsi2sdq	-32(%rbp), %xmm0, %xmm1
	vaddsd	%xmm1, %xmm0, %xmm0
	cmpl	$2098493177, -52(%rbp)  # imm = 0x7D1476F9
	jne	.LBB53_25
.LBB53_24:
	addq	$64, %rsp
	popq	%rbp
	.cfi_def_cfa %rsp, 8
	retq
.LBB53_25:                              # %func_exit
	.cfi_def_cfa %rbp, 16
	vmovsd	%xmm0, -64(%rbp)        # 8-byte Spill
	callq	detect_breach
	vmovsd	-64(%rbp), %xmm0        # 8-byte Reload
                                        # xmm0 = mem[0],zero
	jmp	.LBB53_24
.Lfunc_end53:
	.size	flow_org_cost.47, .Lfunc_end53-flow_org_cost.47
	.cfi_endproc
                                        # -- End function
	.globl	dual_feasible.48        # -- Begin function dual_feasible.48
	.p2align	4, 0x90
	.type	dual_feasible.48,@function
dual_feasible.48:                       # @dual_feasible.48
	.cfi_startproc
# %bb.0:                                # %entry
	pushq	%rbp
	.cfi_def_cfa_offset 16
	.cfi_offset %rbp, -16
	movq	%rsp, %rbp
	.cfi_def_cfa_register %rbp
	pushq	%rbx
	subq	$56, %rsp
	.cfi_offset %rbx, -24
	movl	$1894053541, -28(%rbp)  # imm = 0x70E4F6A5
	movq	%rdi, -24(%rbp)
	movq	-24(%rbp), %rax
	movq	576(%rax), %rax
	movq	%rax, -56(%rbp)
	movq	-24(%rbp), %rax
	movq	568(%rax), %rax
	movq	%rax, -16(%rbp)
.LBB54_1:                               # %for.cond
                                        # =>This Inner Loop Header: Depth=1
	movq	-16(%rbp), %rax
	cmpq	-56(%rbp), %rax
	jae	.LBB54_15
# %bb.2:                                # %for.body
                                        #   in Loop: Header=BB54_1 Depth=1
	movq	-16(%rbp), %rax
	movq	(%rax), %rcx
	movq	8(%rax), %rdx
	movq	(%rdx), %rdx
	subq	%rdx, %rcx
	movq	16(%rax), %rax
	movq	(%rax), %rax
	addq	%rax, %rcx
	movq	%rcx, -48(%rbp)
	movq	-16(%rbp), %rax
	movl	24(%rax), %eax
	movl	%eax, %ecx
	subl	$-1, %ecx
	je	.LBB54_11
	jmp	.LBB54_3
.LBB54_3:                               # %for.body
                                        #   in Loop: Header=BB54_1 Depth=1
	movl	%eax, %ecx
	subl	$2, %ecx
	jb	.LBB54_5
	jmp	.LBB54_4
.LBB54_4:                               # %for.body
                                        #   in Loop: Header=BB54_1 Depth=1
	subl	$2, %eax
	je	.LBB54_8
	jmp	.LBB54_12
.LBB54_5:                               # %sw.bb
                                        #   in Loop: Header=BB54_1 Depth=1
	xorl	%eax, %eax
	movq	-48(%rbp), %rcx
	movq	-24(%rbp), %rdx
	subq	512(%rdx), %rax
	cmpq	%rax, %rcx
	jge	.LBB54_7
# %bb.6:                                # %if.then
	jmp	.LBB54_16
.LBB54_7:                               # %if.end
                                        #   in Loop: Header=BB54_1 Depth=1
	jmp	.LBB54_13
.LBB54_8:                               # %sw.bb4
                                        #   in Loop: Header=BB54_1 Depth=1
	movq	-48(%rbp), %rax
	movq	-24(%rbp), %rcx
	cmpq	512(%rcx), %rax
	jle	.LBB54_10
# %bb.9:                                # %if.then7
	jmp	.LBB54_16
.LBB54_10:                              # %if.end8
                                        #   in Loop: Header=BB54_1 Depth=1
	jmp	.LBB54_13
.LBB54_11:                              # %sw.bb9
                                        #   in Loop: Header=BB54_1 Depth=1
	jmp	.LBB54_12
.LBB54_12:                              # %sw.default
                                        #   in Loop: Header=BB54_1 Depth=1
	jmp	.LBB54_13
.LBB54_13:                              # %sw.epilog
                                        #   in Loop: Header=BB54_1 Depth=1
	jmp	.LBB54_14
.LBB54_14:                              # %for.inc
                                        #   in Loop: Header=BB54_1 Depth=1
	movq	-16(%rbp), %rax
	addq	$64, %rax
	movq	%rax, -16(%rbp)
	jmp	.LBB54_1
.LBB54_15:                              # %for.end
	movq	$0, -40(%rbp)
	jmp	.LBB54_17
.LBB54_16:                              # %DUAL_INFEAS
	movq	stderr, %rdi
	movabsq	$.L.str.3, %rsi
	movb	$0, %al
	callq	fprintf
	movq	stderr, %rdi
	movabsq	$.L.str.4, %rsi
	movb	$0, %al
	callq	fprintf
	movq	$1, -40(%rbp)
.LBB54_17:                              # %return
	movq	-40(%rbp), %rbx
	cmpl	$1894053541, -28(%rbp)  # imm = 0x70E4F6A5
	jne	.LBB54_19
.LBB54_18:
	movq	%rbx, %rax
	addq	$56, %rsp
	popq	%rbx
	popq	%rbp
	.cfi_def_cfa %rsp, 8
	retq
.LBB54_19:                              # %func_exit
	.cfi_def_cfa %rbp, 16
	callq	detect_breach
	jmp	.LBB54_18
.Lfunc_end54:
	.size	dual_feasible.48, .Lfunc_end54-dual_feasible.48
	.cfi_endproc
                                        # -- End function
	.globl	flow_org_cost.49        # -- Begin function flow_org_cost.49
	.p2align	4, 0x90
	.type	flow_org_cost.49,@function
flow_org_cost.49:                       # @flow_org_cost.49
	.cfi_startproc
# %bb.0:                                # %entry
	pushq	%rbp
	.cfi_def_cfa_offset 16
	.cfi_offset %rbp, -16
	movq	%rsp, %rbp
	.cfi_def_cfa_register %rbp
	subq	$64, %rsp
	movl	$1681462640, -52(%rbp)  # imm = 0x64391570
	movq	%rdi, -16(%rbp)
	movq	$0, -48(%rbp)
	movq	$0, -40(%rbp)
	movq	-16(%rbp), %rax
	movq	576(%rax), %rax
	movq	%rax, -32(%rbp)
	movq	-16(%rbp), %rax
	movq	568(%rax), %rax
	movq	%rax, -8(%rbp)
.LBB55_1:                               # %for.cond
                                        # =>This Inner Loop Header: Depth=1
	movq	-8(%rbp), %rax
	movq	-32(%rbp), %rcx
	cmpq	%rcx, %rax
	je	.LBB55_7
# %bb.2:                                # %for.body
                                        #   in Loop: Header=BB55_1 Depth=1
	movq	-8(%rbp), %rax
	cmpl	$2, 24(%rax)
	jne	.LBB55_4
# %bb.3:                                # %if.then
                                        #   in Loop: Header=BB55_1 Depth=1
	movq	-8(%rbp), %rax
	movq	$1, 48(%rax)
	jmp	.LBB55_5
.LBB55_4:                               # %if.else
                                        #   in Loop: Header=BB55_1 Depth=1
	movq	-8(%rbp), %rax
	movq	$0, 48(%rax)
.LBB55_5:                               # %if.end
                                        #   in Loop: Header=BB55_1 Depth=1
	jmp	.LBB55_6
.LBB55_6:                               # %for.inc
                                        #   in Loop: Header=BB55_1 Depth=1
	movq	-8(%rbp), %rax
	addq	$64, %rax
	movq	%rax, -8(%rbp)
	jmp	.LBB55_1
.LBB55_7:                               # %for.end
	movq	-16(%rbp), %rax
	movq	560(%rax), %rax
	movq	%rax, -32(%rbp)
	movq	-16(%rbp), %rax
	movq	552(%rax), %rax
	movq	%rax, -24(%rbp)
	movq	-24(%rbp), %rax
	addq	$104, %rax
	movq	%rax, -24(%rbp)
.LBB55_8:                               # %for.cond4
                                        # =>This Inner Loop Header: Depth=1
	movq	-24(%rbp), %rax
	movq	-32(%rbp), %rcx
	cmpq	%rcx, %rax
	je	.LBB55_11
# %bb.9:                                # %for.body6
                                        #   in Loop: Header=BB55_8 Depth=1
	movq	-24(%rbp), %rax
	movq	80(%rax), %rax
	movq	-24(%rbp), %rcx
	movq	48(%rcx), %rcx
	movq	%rax, 48(%rcx)
# %bb.10:                               # %for.inc9
                                        #   in Loop: Header=BB55_8 Depth=1
	movq	-24(%rbp), %rax
	addq	$104, %rax
	movq	%rax, -24(%rbp)
	jmp	.LBB55_8
.LBB55_11:                              # %for.end11
	movq	-16(%rbp), %rax
	movq	576(%rax), %rax
	movq	%rax, -32(%rbp)
	movq	-16(%rbp), %rax
	movq	568(%rax), %rax
	movq	%rax, -8(%rbp)
.LBB55_12:                              # %for.cond14
                                        # =>This Inner Loop Header: Depth=1
	movq	-8(%rbp), %rax
	movq	-32(%rbp), %rcx
	cmpq	%rcx, %rax
	je	.LBB55_23
# %bb.13:                               # %for.body16
                                        #   in Loop: Header=BB55_12 Depth=1
	movq	-8(%rbp), %rax
	cmpq	$0, 48(%rax)
	je	.LBB55_21
# %bb.14:                               # %if.then18
                                        #   in Loop: Header=BB55_12 Depth=1
	movq	-8(%rbp), %rax
	movq	8(%rax), %rax
	cmpl	$0, 96(%rax)
	jge	.LBB55_16
# %bb.15:                               # %land.lhs.true
                                        #   in Loop: Header=BB55_12 Depth=1
	movq	-8(%rbp), %rax
	movq	16(%rax), %rax
	cmpl	$0, 96(%rax)
	jg	.LBB55_20
.LBB55_16:                              # %if.then22
                                        #   in Loop: Header=BB55_12 Depth=1
	movq	-8(%rbp), %rax
	movq	8(%rax), %rax
	cmpl	$0, 96(%rax)
	jne	.LBB55_18
# %bb.17:                               # %if.then26
                                        #   in Loop: Header=BB55_12 Depth=1
	movq	-8(%rbp), %rax
	movq	56(%rax), %rax
	movq	-16(%rbp), %rcx
	subq	528(%rcx), %rax
	addq	-40(%rbp), %rax
	movq	%rax, -40(%rbp)
	movq	-48(%rbp), %rax
	addq	$1, %rax
	movq	%rax, -48(%rbp)
	jmp	.LBB55_19
.LBB55_18:                              # %if.else27
                                        #   in Loop: Header=BB55_12 Depth=1
	movq	-8(%rbp), %rax
	movq	56(%rax), %rax
	addq	-40(%rbp), %rax
	movq	%rax, -40(%rbp)
.LBB55_19:                              # %if.end30
                                        #   in Loop: Header=BB55_12 Depth=1
	jmp	.LBB55_20
.LBB55_20:                              # %if.end31
                                        #   in Loop: Header=BB55_12 Depth=1
	jmp	.LBB55_21
.LBB55_21:                              # %if.end32
                                        #   in Loop: Header=BB55_12 Depth=1
	jmp	.LBB55_22
.LBB55_22:                              # %for.inc33
                                        #   in Loop: Header=BB55_12 Depth=1
	movq	-8(%rbp), %rax
	addq	$64, %rax
	movq	%rax, -8(%rbp)
	jmp	.LBB55_12
.LBB55_23:                              # %for.end35
	vcvtsi2sdq	-48(%rbp), %xmm0, %xmm0
	movq	-16(%rbp), %rax
	vcvtsi2sdq	528(%rax), %xmm0, %xmm1
	vmulsd	%xmm1, %xmm0, %xmm0
	vcvtsi2sdq	-40(%rbp), %xmm0, %xmm1
	vaddsd	%xmm1, %xmm0, %xmm0
	cmpl	$1681462640, -52(%rbp)  # imm = 0x64391570
	jne	.LBB55_25
.LBB55_24:
	addq	$64, %rsp
	popq	%rbp
	.cfi_def_cfa %rsp, 8
	retq
.LBB55_25:                              # %func_exit
	.cfi_def_cfa %rbp, 16
	vmovsd	%xmm0, -64(%rbp)        # 8-byte Spill
	callq	detect_breach
	vmovsd	-64(%rbp), %xmm0        # 8-byte Reload
                                        # xmm0 = mem[0],zero
	jmp	.LBB55_24
.Lfunc_end55:
	.size	flow_org_cost.49, .Lfunc_end55-flow_org_cost.49
	.cfi_endproc
                                        # -- End function
	.globl	refresh_potential.50    # -- Begin function refresh_potential.50
	.p2align	4, 0x90
	.type	refresh_potential.50,@function
refresh_potential.50:                   # @refresh_potential.50
	.cfi_startproc
# %bb.0:                                # %entry
	pushq	%rbp
	.cfi_def_cfa_offset 16
	.cfi_offset %rbp, -16
	movq	%rsp, %rbp
	.cfi_def_cfa_register %rbp
	pushq	%rbx
	subq	$56, %rsp
	.cfi_offset %rbx, -24
	movl	$1913362798, -44(%rbp)  # imm = 0x720B996E
	movq	%rdi, -56(%rbp)
	movq	-56(%rbp), %rax
	movq	552(%rax), %rax
	movq	%rax, -32(%rbp)
	movq	$0, -40(%rbp)
	movq	-32(%rbp), %rax
	movq	$-100000000, (%rax)     # imm = 0xFA0A1F00
	movq	-32(%rbp), %rax
	movq	16(%rax), %rax
	movq	%rax, -16(%rbp)
	movq	%rax, -24(%rbp)
.LBB56_1:                               # %while.cond
                                        # =>This Loop Header: Depth=1
                                        #     Child Loop BB56_3 Depth 2
                                        #     Child Loop BB56_9 Depth 2
	movq	-16(%rbp), %rax
	cmpq	-32(%rbp), %rax
	je	.LBB56_16
# %bb.2:                                # %while.body
                                        #   in Loop: Header=BB56_1 Depth=1
	jmp	.LBB56_3
.LBB56_3:                               # %while.cond1
                                        #   Parent Loop BB56_1 Depth=1
                                        # =>  This Inner Loop Header: Depth=2
	cmpq	$0, -16(%rbp)
	je	.LBB56_8
# %bb.4:                                # %while.body2
                                        #   in Loop: Header=BB56_3 Depth=2
	movq	-16(%rbp), %rax
	cmpl	$1, 8(%rax)
	jne	.LBB56_6
# %bb.5:                                # %if.then
                                        #   in Loop: Header=BB56_3 Depth=2
	movq	-16(%rbp), %rax
	movq	48(%rax), %rax
	movq	(%rax), %rax
	movq	-16(%rbp), %rcx
	movq	24(%rcx), %rcx
	addq	(%rcx), %rax
	movq	-16(%rbp), %rcx
	movq	%rax, (%rcx)
	jmp	.LBB56_7
.LBB56_6:                               # %if.else
                                        #   in Loop: Header=BB56_3 Depth=2
	movq	-16(%rbp), %rax
	movq	24(%rax), %rax
	movq	(%rax), %rax
	movq	-16(%rbp), %rcx
	movq	48(%rcx), %rcx
	subq	(%rcx), %rax
	movq	-16(%rbp), %rcx
	movq	%rax, (%rcx)
	movq	-40(%rbp), %rax
	addq	$1, %rax
	movq	%rax, -40(%rbp)
.LBB56_7:                               # %if.end
                                        #   in Loop: Header=BB56_3 Depth=2
	movq	-16(%rbp), %rax
	movq	%rax, -24(%rbp)
	movq	-16(%rbp), %rax
	movq	16(%rax), %rax
	movq	%rax, -16(%rbp)
	jmp	.LBB56_3
.LBB56_8:                               # %while.end
                                        #   in Loop: Header=BB56_1 Depth=1
	movq	-24(%rbp), %rax
	movq	%rax, -16(%rbp)
.LBB56_9:                               # %while.cond12
                                        #   Parent Loop BB56_1 Depth=1
                                        # =>  This Inner Loop Header: Depth=2
	movq	-16(%rbp), %rax
	cmpq	$0, 24(%rax)
	je	.LBB56_14
# %bb.10:                               # %while.body15
                                        #   in Loop: Header=BB56_9 Depth=2
	movq	-16(%rbp), %rax
	movq	32(%rax), %rax
	movq	%rax, -24(%rbp)
	cmpq	$0, -24(%rbp)
	je	.LBB56_12
# %bb.11:                               # %if.then17
                                        #   in Loop: Header=BB56_1 Depth=1
	movq	-24(%rbp), %rax
	movq	%rax, -16(%rbp)
	jmp	.LBB56_15
.LBB56_12:                              # %if.else18
                                        #   in Loop: Header=BB56_9 Depth=2
	movq	-16(%rbp), %rax
	movq	24(%rax), %rax
	movq	%rax, -16(%rbp)
# %bb.13:                               # %if.end20
                                        #   in Loop: Header=BB56_9 Depth=2
	jmp	.LBB56_9
.LBB56_14:                              # %while.end21.loopexit
                                        #   in Loop: Header=BB56_1 Depth=1
	jmp	.LBB56_15
.LBB56_15:                              # %while.end21
                                        #   in Loop: Header=BB56_1 Depth=1
	jmp	.LBB56_1
.LBB56_16:                              # %while.end22
	movq	-40(%rbp), %rbx
	cmpl	$1913362798, -44(%rbp)  # imm = 0x720B996E
	jne	.LBB56_18
.LBB56_17:
	movq	%rbx, %rax
	addq	$56, %rsp
	popq	%rbx
	popq	%rbp
	.cfi_def_cfa %rsp, 8
	retq
.LBB56_18:                              # %func_exit
	.cfi_def_cfa %rbp, 16
	callq	detect_breach
	jmp	.LBB56_17
.Lfunc_end56:
	.size	refresh_potential.50, .Lfunc_end56-refresh_potential.50
	.cfi_endproc
                                        # -- End function
	.globl	flow_cost.51            # -- Begin function flow_cost.51
	.p2align	4, 0x90
	.type	flow_cost.51,@function
flow_cost.51:                           # @flow_cost.51
	.cfi_startproc
# %bb.0:                                # %entry
	pushq	%rbp
	.cfi_def_cfa_offset 16
	.cfi_offset %rbp, -16
	movq	%rsp, %rbp
	.cfi_def_cfa_register %rbp
	subq	$64, %rsp
	movl	$1945498295, -52(%rbp)  # imm = 0x73F5F2B7
	movq	%rdi, -16(%rbp)
	movq	$0, -48(%rbp)
	movq	$0, -32(%rbp)
	movq	-16(%rbp), %rax
	movq	576(%rax), %rax
	movq	%rax, -40(%rbp)
	movq	-16(%rbp), %rax
	movq	568(%rax), %rax
	movq	%rax, -8(%rbp)
.LBB57_1:                               # %for.cond
                                        # =>This Inner Loop Header: Depth=1
	movq	-8(%rbp), %rax
	movq	-40(%rbp), %rcx
	cmpq	%rcx, %rax
	je	.LBB57_7
# %bb.2:                                # %for.body
