	.text
	.file	"mcfutil.c"
	.globl	refresh_neighbour_lists # -- Begin function refresh_neighbour_lists
	.p2align	4, 0x90
	.type	refresh_neighbour_lists,@function
refresh_neighbour_lists:                # @refresh_neighbour_lists
	.cfi_startproc
# %bb.0:                                # %rand_bb
	pushq	%rbp
	.cfi_def_cfa_offset 16
	.cfi_offset %rbp, -16
	movq	%rsp, %rbp
	.cfi_def_cfa_register %rbp
	pushq	%rbx
	pushq	%rax
	.cfi_offset %rbx, -24
	movq	%rdi, %rbx
	callq	get_rand
	cmpl	$0, %eax
	jne	.LBB0_17
# %bb.1:                                # %func_refresh_neighbour_lists.6
	movq	%rbx, %rdi
	callq	refresh_neighbour_lists.6
	addq	$8, %rsp
	popq	%rbx
	popq	%rbp
	.cfi_def_cfa %rsp, 8
	retq
.LBB0_2:                                # %func_refresh_neighbour_lists.16
	.cfi_def_cfa %rbp, 16
	movq	%rbx, %rdi
	callq	refresh_neighbour_lists.16
	addq	$8, %rsp
	popq	%rbx
	popq	%rbp
	.cfi_def_cfa %rsp, 8
	retq
.LBB0_3:                                # %func_refresh_neighbour_lists.18
	.cfi_def_cfa %rbp, 16
	movq	%rbx, %rdi
	callq	refresh_neighbour_lists.18
	addq	$8, %rsp
	popq	%rbx
	popq	%rbp
	.cfi_def_cfa %rsp, 8
	retq
.LBB0_4:                                # %func_refresh_neighbour_lists.29
	.cfi_def_cfa %rbp, 16
	movq	%rbx, %rdi
	callq	refresh_neighbour_lists.29
	addq	$8, %rsp
	popq	%rbx
	popq	%rbp
	.cfi_def_cfa %rsp, 8
	retq
.LBB0_5:                                # %func_refresh_neighbour_lists.31
	.cfi_def_cfa %rbp, 16
	movq	%rbx, %rdi
	callq	refresh_neighbour_lists.31
	addq	$8, %rsp
	popq	%rbx
	popq	%rbp
	.cfi_def_cfa %rsp, 8
	retq
.LBB0_6:                                # %func_refresh_neighbour_lists.39
	.cfi_def_cfa %rbp, 16
	movq	%rbx, %rdi
	callq	refresh_neighbour_lists.39
	addq	$8, %rsp
	popq	%rbx
	popq	%rbp
	.cfi_def_cfa %rsp, 8
	retq
.LBB0_7:                                # %func_refresh_neighbour_lists.41
	.cfi_def_cfa %rbp, 16
	movq	%rbx, %rdi
	callq	refresh_neighbour_lists.41
	addq	$8, %rsp
	popq	%rbx
	popq	%rbp
	.cfi_def_cfa %rsp, 8
	retq
.LBB0_8:                                # %func_refresh_neighbour_lists.43
	.cfi_def_cfa %rbp, 16
	movq	%rbx, %rdi
	callq	refresh_neighbour_lists.43
	addq	$8, %rsp
	popq	%rbx
	popq	%rbp
	.cfi_def_cfa %rsp, 8
	retq
.LBB0_9:                                # %func_refresh_neighbour_lists.51
	.cfi_def_cfa %rbp, 16
	movq	%rbx, %rdi
	callq	refresh_neighbour_lists.51
	addq	$8, %rsp
	popq	%rbx
	popq	%rbp
	.cfi_def_cfa %rsp, 8
	retq
.LBB0_10:                               # %func_refresh_neighbour_lists.54
	.cfi_def_cfa %rbp, 16
	movq	%rbx, %rdi
	callq	refresh_neighbour_lists.54
	addq	$8, %rsp
	popq	%rbx
	popq	%rbp
	.cfi_def_cfa %rsp, 8
	retq
.LBB0_11:                               # %func_refresh_neighbour_lists.65
	.cfi_def_cfa %rbp, 16
	movq	%rbx, %rdi
	callq	refresh_neighbour_lists.65
	addq	$8, %rsp
	popq	%rbx
	popq	%rbp
	.cfi_def_cfa %rsp, 8
	retq
.LBB0_12:                               # %func_refresh_neighbour_lists.71
	.cfi_def_cfa %rbp, 16
	movq	%rbx, %rdi
	callq	refresh_neighbour_lists.71
	addq	$8, %rsp
	popq	%rbx
	popq	%rbp
	.cfi_def_cfa %rsp, 8
	retq
.LBB0_13:                               # %func_refresh_neighbour_lists.78
	.cfi_def_cfa %rbp, 16
	movq	%rbx, %rdi
	callq	refresh_neighbour_lists.78
	addq	$8, %rsp
	popq	%rbx
	popq	%rbp
	.cfi_def_cfa %rsp, 8
	retq
.LBB0_14:                               # %func_refresh_neighbour_lists.80
	.cfi_def_cfa %rbp, 16
	movq	%rbx, %rdi
	callq	refresh_neighbour_lists.80
	addq	$8, %rsp
	popq	%rbx
	popq	%rbp
	.cfi_def_cfa %rsp, 8
	retq
.LBB0_15:                               # %func_refresh_neighbour_lists.82
	.cfi_def_cfa %rbp, 16
	movq	%rbx, %rdi
	callq	refresh_neighbour_lists.82
	addq	$8, %rsp
	popq	%rbx
	popq	%rbp
	.cfi_def_cfa %rsp, 8
	retq
.LBB0_16:                               # %func_refresh_neighbour_lists.83
	.cfi_def_cfa %rbp, 16
	movq	%rbx, %rdi
	callq	refresh_neighbour_lists.83
	addq	$8, %rsp
	popq	%rbx
	popq	%rbp
	.cfi_def_cfa %rsp, 8
	retq
.LBB0_17:                               # %ctrl0
	.cfi_def_cfa %rbp, 16
	cmpl	$1, %eax
	je	.LBB0_2
# %bb.18:                               # %ctrl1
	cmpl	$2, %eax
	je	.LBB0_3
# %bb.19:                               # %ctrl2
	cmpl	$3, %eax
	je	.LBB0_4
# %bb.20:                               # %ctrl3
	cmpl	$4, %eax
	je	.LBB0_5
# %bb.21:                               # %ctrl4
	cmpl	$5, %eax
	je	.LBB0_6
# %bb.22:                               # %ctrl5
	cmpl	$6, %eax
	je	.LBB0_7
# %bb.23:                               # %ctrl6
	cmpl	$7, %eax
	je	.LBB0_8
# %bb.24:                               # %ctrl7
	cmpl	$8, %eax
	je	.LBB0_9
# %bb.25:                               # %ctrl8
	cmpl	$9, %eax
	je	.LBB0_10
# %bb.26:                               # %ctrl9
	cmpl	$10, %eax
	je	.LBB0_11
# %bb.27:                               # %ctrl10
	cmpl	$11, %eax
	je	.LBB0_12
# %bb.28:                               # %ctrl11
	cmpl	$12, %eax
	je	.LBB0_13
# %bb.29:                               # %ctrl12
	cmpl	$13, %eax
	je	.LBB0_14
# %bb.30:                               # %ctrl13
	cmpl	$14, %eax
	je	.LBB0_15
	jmp	.LBB0_16
.Lfunc_end0:
	.size	refresh_neighbour_lists, .Lfunc_end0-refresh_neighbour_lists
	.cfi_endproc
                                        # -- End function
	.globl	refresh_potential       # -- Begin function refresh_potential
	.p2align	4, 0x90
	.type	refresh_potential,@function
refresh_potential:                      # @refresh_potential
	.cfi_startproc
# %bb.0:                                # %rand_bb
	pushq	%rbp
	.cfi_def_cfa_offset 16
	.cfi_offset %rbp, -16
	movq	%rsp, %rbp
	.cfi_def_cfa_register %rbp
	pushq	%rbx
	pushq	%rax
	.cfi_offset %rbx, -24
	movq	%rdi, %rbx
	callq	get_rand
	cmpl	$0, %eax
	jne	.LBB1_17
# %bb.1:                                # %func_refresh_potential.14
	movq	%rbx, %rdi
	callq	refresh_potential.14
	addq	$8, %rsp
	popq	%rbx
	popq	%rbp
	.cfi_def_cfa %rsp, 8
	retq
.LBB1_2:                                # %func_refresh_potential.22
	.cfi_def_cfa %rbp, 16
	movq	%rbx, %rdi
	callq	refresh_potential.22
	addq	$8, %rsp
	popq	%rbx
	popq	%rbp
	.cfi_def_cfa %rsp, 8
	retq
.LBB1_3:                                # %func_refresh_potential.23
	.cfi_def_cfa %rbp, 16
	movq	%rbx, %rdi
	callq	refresh_potential.23
	addq	$8, %rsp
	popq	%rbx
	popq	%rbp
	.cfi_def_cfa %rsp, 8
	retq
.LBB1_4:                                # %func_refresh_potential.32
	.cfi_def_cfa %rbp, 16
	movq	%rbx, %rdi
	callq	refresh_potential.32
	addq	$8, %rsp
	popq	%rbx
	popq	%rbp
	.cfi_def_cfa %rsp, 8
	retq
.LBB1_5:                                # %func_refresh_potential.38
	.cfi_def_cfa %rbp, 16
	movq	%rbx, %rdi
	callq	refresh_potential.38
	addq	$8, %rsp
	popq	%rbx
	popq	%rbp
	.cfi_def_cfa %rsp, 8
	retq
.LBB1_6:                                # %func_refresh_potential.47
	.cfi_def_cfa %rbp, 16
	movq	%rbx, %rdi
	callq	refresh_potential.47
	addq	$8, %rsp
	popq	%rbx
	popq	%rbp
	.cfi_def_cfa %rsp, 8
	retq
.LBB1_7:                                # %func_refresh_potential.63
	.cfi_def_cfa %rbp, 16
	movq	%rbx, %rdi
	callq	refresh_potential.63
	addq	$8, %rsp
	popq	%rbx
	popq	%rbp
	.cfi_def_cfa %rsp, 8
	retq
.LBB1_8:                                # %func_refresh_potential.66
	.cfi_def_cfa %rbp, 16
	movq	%rbx, %rdi
	callq	refresh_potential.66
	addq	$8, %rsp
	popq	%rbx
	popq	%rbp
	.cfi_def_cfa %rsp, 8
	retq
.LBB1_9:                                # %func_refresh_potential.68
	.cfi_def_cfa %rbp, 16
	movq	%rbx, %rdi
	callq	refresh_potential.68
	addq	$8, %rsp
	popq	%rbx
	popq	%rbp
	.cfi_def_cfa %rsp, 8
	retq
.LBB1_10:                               # %func_refresh_potential.70
	.cfi_def_cfa %rbp, 16
	movq	%rbx, %rdi
	callq	refresh_potential.70
	addq	$8, %rsp
	popq	%rbx
	popq	%rbp
	.cfi_def_cfa %rsp, 8
	retq
.LBB1_11:                               # %func_refresh_potential.72
	.cfi_def_cfa %rbp, 16
	movq	%rbx, %rdi
	callq	refresh_potential.72
	addq	$8, %rsp
	popq	%rbx
	popq	%rbp
	.cfi_def_cfa %rsp, 8
	retq
.LBB1_12:                               # %func_refresh_potential.76
	.cfi_def_cfa %rbp, 16
	movq	%rbx, %rdi
	callq	refresh_potential.76
	addq	$8, %rsp
	popq	%rbx
	popq	%rbp
	.cfi_def_cfa %rsp, 8
	retq
.LBB1_13:                               # %func_refresh_potential.77
	.cfi_def_cfa %rbp, 16
	movq	%rbx, %rdi
	callq	refresh_potential.77
	addq	$8, %rsp
	popq	%rbx
	popq	%rbp
	.cfi_def_cfa %rsp, 8
	retq
.LBB1_14:                               # %func_refresh_potential.79
	.cfi_def_cfa %rbp, 16
	movq	%rbx, %rdi
	callq	refresh_potential.79
	addq	$8, %rsp
	popq	%rbx
	popq	%rbp
	.cfi_def_cfa %rsp, 8
	retq
.LBB1_15:                               # %func_refresh_potential.81
	.cfi_def_cfa %rbp, 16
	movq	%rbx, %rdi
	callq	refresh_potential.81
	addq	$8, %rsp
	popq	%rbx
	popq	%rbp
	.cfi_def_cfa %rsp, 8
	retq
.LBB1_16:                               # %func_refresh_potential.86
	.cfi_def_cfa %rbp, 16
	movq	%rbx, %rdi
	callq	refresh_potential.86
	addq	$8, %rsp
	popq	%rbx
	popq	%rbp
	.cfi_def_cfa %rsp, 8
	retq
.LBB1_17:                               # %ctrl0
	.cfi_def_cfa %rbp, 16
	cmpl	$1, %eax
	je	.LBB1_2
# %bb.18:                               # %ctrl1
	cmpl	$2, %eax
	je	.LBB1_3
# %bb.19:                               # %ctrl2
	cmpl	$3, %eax
	je	.LBB1_4
# %bb.20:                               # %ctrl3
	cmpl	$4, %eax
	je	.LBB1_5
# %bb.21:                               # %ctrl4
	cmpl	$5, %eax
	je	.LBB1_6
# %bb.22:                               # %ctrl5
	cmpl	$6, %eax
	je	.LBB1_7
# %bb.23:                               # %ctrl6
	cmpl	$7, %eax
	je	.LBB1_8
# %bb.24:                               # %ctrl7
	cmpl	$8, %eax
	je	.LBB1_9
# %bb.25:                               # %ctrl8
	cmpl	$9, %eax
	je	.LBB1_10
# %bb.26:                               # %ctrl9
	cmpl	$10, %eax
	je	.LBB1_11
# %bb.27:                               # %ctrl10
	cmpl	$11, %eax
	je	.LBB1_12
# %bb.28:                               # %ctrl11
	cmpl	$12, %eax
	je	.LBB1_13
# %bb.29:                               # %ctrl12
	cmpl	$13, %eax
	je	.LBB1_14
# %bb.30:                               # %ctrl13
	cmpl	$14, %eax
	je	.LBB1_15
	jmp	.LBB1_16
.Lfunc_end1:
	.size	refresh_potential, .Lfunc_end1-refresh_potential
	.cfi_endproc
                                        # -- End function
	.globl	flow_cost               # -- Begin function flow_cost
	.p2align	4, 0x90
	.type	flow_cost,@function
flow_cost:                              # @flow_cost
	.cfi_startproc
# %bb.0:                                # %rand_bb
	pushq	%rbp
	.cfi_def_cfa_offset 16
	.cfi_offset %rbp, -16
	movq	%rsp, %rbp
	.cfi_def_cfa_register %rbp
	pushq	%rbx
	pushq	%rax
	.cfi_offset %rbx, -24
	movq	%rdi, %rbx
	callq	get_rand
	cmpl	$0, %eax
	jne	.LBB2_17
# %bb.1:                                # %func_flow_cost.5
	movq	%rbx, %rdi
	callq	flow_cost.5
	addq	$8, %rsp
	popq	%rbx
	popq	%rbp
	.cfi_def_cfa %rsp, 8
	retq
.LBB2_2:                                # %func_flow_cost.9
	.cfi_def_cfa %rbp, 16
	movq	%rbx, %rdi
	callq	flow_cost.9
	addq	$8, %rsp
	popq	%rbx
	popq	%rbp
	.cfi_def_cfa %rsp, 8
	retq
.LBB2_3:                                # %func_flow_cost.37
	.cfi_def_cfa %rbp, 16
	movq	%rbx, %rdi
	callq	flow_cost.37
	addq	$8, %rsp
	popq	%rbx
	popq	%rbp
	.cfi_def_cfa %rsp, 8
	retq
.LBB2_4:                                # %func_flow_cost.50
	.cfi_def_cfa %rbp, 16
	movq	%rbx, %rdi
	callq	flow_cost.50
	addq	$8, %rsp
	popq	%rbx
	popq	%rbp
	.cfi_def_cfa %rsp, 8
	retq
.LBB2_5:                                # %func_flow_cost.53
	.cfi_def_cfa %rbp, 16
	movq	%rbx, %rdi
	callq	flow_cost.53
	addq	$8, %rsp
	popq	%rbx
	popq	%rbp
	.cfi_def_cfa %rsp, 8
	retq
.LBB2_6:                                # %func_flow_cost.75
	.cfi_def_cfa %rbp, 16
	movq	%rbx, %rdi
	callq	flow_cost.75
	addq	$8, %rsp
	popq	%rbx
	popq	%rbp
	.cfi_def_cfa %rsp, 8
	retq
.LBB2_7:                                # %func_flow_cost.85
	.cfi_def_cfa %rbp, 16
	movq	%rbx, %rdi
	callq	flow_cost.85
	addq	$8, %rsp
	popq	%rbx
	popq	%rbp
	.cfi_def_cfa %rsp, 8
	retq
.LBB2_8:                                # %func_flow_cost.87
	.cfi_def_cfa %rbp, 16
	movq	%rbx, %rdi
	callq	flow_cost.87
	addq	$8, %rsp
	popq	%rbx
	popq	%rbp
	.cfi_def_cfa %rsp, 8
	retq
.LBB2_9:                                # %func_flow_cost.89
	.cfi_def_cfa %rbp, 16
	movq	%rbx, %rdi
	callq	flow_cost.89
	addq	$8, %rsp
	popq	%rbx
	popq	%rbp
	.cfi_def_cfa %rsp, 8
	retq
.LBB2_10:                               # %func_flow_cost.90
	.cfi_def_cfa %rbp, 16
	movq	%rbx, %rdi
	callq	flow_cost.90
	addq	$8, %rsp
	popq	%rbx
	popq	%rbp
	.cfi_def_cfa %rsp, 8
	retq
.LBB2_11:                               # %func_flow_cost.91
	.cfi_def_cfa %rbp, 16
	movq	%rbx, %rdi
	callq	flow_cost.91
	addq	$8, %rsp
	popq	%rbx
	popq	%rbp
	.cfi_def_cfa %rsp, 8
	retq
.LBB2_12:                               # %func_flow_cost.92
	.cfi_def_cfa %rbp, 16
	movq	%rbx, %rdi
	callq	flow_cost.92
	addq	$8, %rsp
	popq	%rbx
	popq	%rbp
	.cfi_def_cfa %rsp, 8
	retq
.LBB2_13:                               # %func_flow_cost.93
	.cfi_def_cfa %rbp, 16
	movq	%rbx, %rdi
	callq	flow_cost.93
	addq	$8, %rsp
	popq	%rbx
	popq	%rbp
	.cfi_def_cfa %rsp, 8
	retq
.LBB2_14:                               # %func_flow_cost.94
	.cfi_def_cfa %rbp, 16
	movq	%rbx, %rdi
	callq	flow_cost.94
	addq	$8, %rsp
	popq	%rbx
	popq	%rbp
	.cfi_def_cfa %rsp, 8
	retq
.LBB2_15:                               # %func_flow_cost.95
	.cfi_def_cfa %rbp, 16
	movq	%rbx, %rdi
	callq	flow_cost.95
	addq	$8, %rsp
	popq	%rbx
	popq	%rbp
	.cfi_def_cfa %rsp, 8
	retq
.LBB2_16:                               # %func_flow_cost.96
	.cfi_def_cfa %rbp, 16
	movq	%rbx, %rdi
	callq	flow_cost.96
	addq	$8, %rsp
	popq	%rbx
	popq	%rbp
	.cfi_def_cfa %rsp, 8
	retq
.LBB2_17:                               # %ctrl0
	.cfi_def_cfa %rbp, 16
	cmpl	$1, %eax
	je	.LBB2_2
# %bb.18:                               # %ctrl1
	cmpl	$2, %eax
	je	.LBB2_3
# %bb.19:                               # %ctrl2
	cmpl	$3, %eax
	je	.LBB2_4
# %bb.20:                               # %ctrl3
	cmpl	$4, %eax
	je	.LBB2_5
# %bb.21:                               # %ctrl4
	cmpl	$5, %eax
	je	.LBB2_6
# %bb.22:                               # %ctrl5
	cmpl	$6, %eax
	je	.LBB2_7
# %bb.23:                               # %ctrl6
	cmpl	$7, %eax
	je	.LBB2_8
# %bb.24:                               # %ctrl7
	cmpl	$8, %eax
	je	.LBB2_9
# %bb.25:                               # %ctrl8
	cmpl	$9, %eax
	je	.LBB2_10
# %bb.26:                               # %ctrl9
	cmpl	$10, %eax
	je	.LBB2_11
# %bb.27:                               # %ctrl10
	cmpl	$11, %eax
	je	.LBB2_12
# %bb.28:                               # %ctrl11
	cmpl	$12, %eax
	je	.LBB2_13
# %bb.29:                               # %ctrl12
	cmpl	$13, %eax
	je	.LBB2_14
# %bb.30:                               # %ctrl13
	cmpl	$14, %eax
	je	.LBB2_15
	jmp	.LBB2_16
.Lfunc_end2:
	.size	flow_cost, .Lfunc_end2-flow_cost
	.cfi_endproc
                                        # -- End function
	.globl	flow_org_cost           # -- Begin function flow_org_cost
	.p2align	4, 0x90
	.type	flow_org_cost,@function
flow_org_cost:                          # @flow_org_cost
	.cfi_startproc
# %bb.0:                                # %rand_bb
	pushq	%rbp
	.cfi_def_cfa_offset 16
	.cfi_offset %rbp, -16
	movq	%rsp, %rbp
	.cfi_def_cfa_register %rbp
	pushq	%rbx
	pushq	%rax
	.cfi_offset %rbx, -24
	movq	%rdi, %rbx
	callq	get_rand
	cmpl	$0, %eax
	jne	.LBB3_17
# %bb.1:                                # %func_flow_org_cost.1
	movq	%rbx, %rdi
	callq	flow_org_cost.1
	addq	$8, %rsp
	popq	%rbx
	popq	%rbp
	.cfi_def_cfa %rsp, 8
	retq
.LBB3_2:                                # %func_flow_org_cost.3
	.cfi_def_cfa %rbp, 16
	movq	%rbx, %rdi
	callq	flow_org_cost.3
	addq	$8, %rsp
	popq	%rbx
	popq	%rbp
	.cfi_def_cfa %rsp, 8
	retq
.LBB3_3:                                # %func_flow_org_cost.7
	.cfi_def_cfa %rbp, 16
	movq	%rbx, %rdi
	callq	flow_org_cost.7
	addq	$8, %rsp
	popq	%rbx
	popq	%rbp
	.cfi_def_cfa %rsp, 8
	retq
.LBB3_4:                                # %func_flow_org_cost.12
	.cfi_def_cfa %rbp, 16
	movq	%rbx, %rdi
	callq	flow_org_cost.12
	addq	$8, %rsp
	popq	%rbx
	popq	%rbp
	.cfi_def_cfa %rsp, 8
	retq
.LBB3_5:                                # %func_flow_org_cost.17
	.cfi_def_cfa %rbp, 16
	movq	%rbx, %rdi
	callq	flow_org_cost.17
	addq	$8, %rsp
	popq	%rbx
	popq	%rbp
	.cfi_def_cfa %rsp, 8
	retq
.LBB3_6:                                # %func_flow_org_cost.20
	.cfi_def_cfa %rbp, 16
	movq	%rbx, %rdi
	callq	flow_org_cost.20
	addq	$8, %rsp
	popq	%rbx
	popq	%rbp
	.cfi_def_cfa %rsp, 8
	retq
.LBB3_7:                                # %func_flow_org_cost.21
	.cfi_def_cfa %rbp, 16
	movq	%rbx, %rdi
	callq	flow_org_cost.21
	addq	$8, %rsp
	popq	%rbx
	popq	%rbp
	.cfi_def_cfa %rsp, 8
	retq
.LBB3_8:                                # %func_flow_org_cost.24
	.cfi_def_cfa %rbp, 16
	movq	%rbx, %rdi
	callq	flow_org_cost.24
	addq	$8, %rsp
	popq	%rbx
	popq	%rbp
	.cfi_def_cfa %rsp, 8
	retq
.LBB3_9:                                # %func_flow_org_cost.25
	.cfi_def_cfa %rbp, 16
	movq	%rbx, %rdi
	callq	flow_org_cost.25
	addq	$8, %rsp
	popq	%rbx
	popq	%rbp
	.cfi_def_cfa %rsp, 8
	retq
.LBB3_10:                               # %func_flow_org_cost.26
	.cfi_def_cfa %rbp, 16
	movq	%rbx, %rdi
	callq	flow_org_cost.26
	addq	$8, %rsp
	popq	%rbx
	popq	%rbp
	.cfi_def_cfa %rsp, 8
	retq
.LBB3_11:                               # %func_flow_org_cost.27
	.cfi_def_cfa %rbp, 16
	movq	%rbx, %rdi
	callq	flow_org_cost.27
	addq	$8, %rsp
	popq	%rbx
	popq	%rbp
	.cfi_def_cfa %rsp, 8
	retq
.LBB3_12:                               # %func_flow_org_cost.28
	.cfi_def_cfa %rbp, 16
	movq	%rbx, %rdi
	callq	flow_org_cost.28
	addq	$8, %rsp
	popq	%rbx
	popq	%rbp
	.cfi_def_cfa %rsp, 8
	retq
.LBB3_13:                               # %func_flow_org_cost.33
	.cfi_def_cfa %rbp, 16
	movq	%rbx, %rdi
	callq	flow_org_cost.33
	addq	$8, %rsp
	popq	%rbx
	popq	%rbp
	.cfi_def_cfa %rsp, 8
	retq
.LBB3_14:                               # %func_flow_org_cost.34
	.cfi_def_cfa %rbp, 16
	movq	%rbx, %rdi
	callq	flow_org_cost.34
	addq	$8, %rsp
	popq	%rbx
	popq	%rbp
	.cfi_def_cfa %rsp, 8
	retq
.LBB3_15:                               # %func_flow_org_cost.36
	.cfi_def_cfa %rbp, 16
	movq	%rbx, %rdi
	callq	flow_org_cost.36
	addq	$8, %rsp
	popq	%rbx
	popq	%rbp
	.cfi_def_cfa %rsp, 8
	retq
.LBB3_16:                               # %func_flow_org_cost.44
	.cfi_def_cfa %rbp, 16
	movq	%rbx, %rdi
	callq	flow_org_cost.44
	addq	$8, %rsp
	popq	%rbx
	popq	%rbp
	.cfi_def_cfa %rsp, 8
	retq
.LBB3_17:                               # %ctrl0
	.cfi_def_cfa %rbp, 16
	cmpl	$1, %eax
	je	.LBB3_2
# %bb.18:                               # %ctrl1
	cmpl	$2, %eax
	je	.LBB3_3
# %bb.19:                               # %ctrl2
	cmpl	$3, %eax
	je	.LBB3_4
# %bb.20:                               # %ctrl3
	cmpl	$4, %eax
	je	.LBB3_5
# %bb.21:                               # %ctrl4
	cmpl	$5, %eax
	je	.LBB3_6
# %bb.22:                               # %ctrl5
	cmpl	$6, %eax
	je	.LBB3_7
# %bb.23:                               # %ctrl6
	cmpl	$7, %eax
	je	.LBB3_8
# %bb.24:                               # %ctrl7
	cmpl	$8, %eax
	je	.LBB3_9
# %bb.25:                               # %ctrl8
	cmpl	$9, %eax
	je	.LBB3_10
# %bb.26:                               # %ctrl9
	cmpl	$10, %eax
	je	.LBB3_11
# %bb.27:                               # %ctrl10
	cmpl	$11, %eax
	je	.LBB3_12
# %bb.28:                               # %ctrl11
	cmpl	$12, %eax
	je	.LBB3_13
# %bb.29:                               # %ctrl12
	cmpl	$13, %eax
	je	.LBB3_14
# %bb.30:                               # %ctrl13
	cmpl	$14, %eax
	je	.LBB3_15
	jmp	.LBB3_16
.Lfunc_end3:
	.size	flow_org_cost, .Lfunc_end3-flow_org_cost
	.cfi_endproc
                                        # -- End function
	.globl	primal_feasible         # -- Begin function primal_feasible
	.p2align	4, 0x90
	.type	primal_feasible,@function
primal_feasible:                        # @primal_feasible
	.cfi_startproc
# %bb.0:                                # %rand_bb
	pushq	%rbp
	.cfi_def_cfa_offset 16
	.cfi_offset %rbp, -16
	movq	%rsp, %rbp
	.cfi_def_cfa_register %rbp
	pushq	%rbx
	pushq	%rax
	.cfi_offset %rbx, -24
	movq	%rdi, %rbx
	callq	get_rand
	cmpl	$0, %eax
	jne	.LBB4_17
# %bb.1:                                # %func_primal_feasible.2
	movq	%rbx, %rdi
	callq	primal_feasible.2
	addq	$8, %rsp
	popq	%rbx
	popq	%rbp
	.cfi_def_cfa %rsp, 8
	retq
.LBB4_2:                                # %func_primal_feasible.4
	.cfi_def_cfa %rbp, 16
	movq	%rbx, %rdi
	callq	primal_feasible.4
	addq	$8, %rsp
	popq	%rbx
	popq	%rbp
	.cfi_def_cfa %rsp, 8
	retq
.LBB4_3:                                # %func_primal_feasible.8
	.cfi_def_cfa %rbp, 16
	movq	%rbx, %rdi
	callq	primal_feasible.8
	addq	$8, %rsp
	popq	%rbx
	popq	%rbp
	.cfi_def_cfa %rsp, 8
	retq
.LBB4_4:                                # %func_primal_feasible.11
	.cfi_def_cfa %rbp, 16
	movq	%rbx, %rdi
	callq	primal_feasible.11
	addq	$8, %rsp
	popq	%rbx
	popq	%rbp
	.cfi_def_cfa %rsp, 8
	retq
.LBB4_5:                                # %func_primal_feasible.13
	.cfi_def_cfa %rbp, 16
	movq	%rbx, %rdi
	callq	primal_feasible.13
	addq	$8, %rsp
	popq	%rbx
	popq	%rbp
	.cfi_def_cfa %rsp, 8
	retq
.LBB4_6:                                # %func_primal_feasible.15
	.cfi_def_cfa %rbp, 16
	movq	%rbx, %rdi
	callq	primal_feasible.15
	addq	$8, %rsp
	popq	%rbx
	popq	%rbp
	.cfi_def_cfa %rsp, 8
	retq
.LBB4_7:                                # %func_primal_feasible.19
	.cfi_def_cfa %rbp, 16
	movq	%rbx, %rdi
	callq	primal_feasible.19
	addq	$8, %rsp
	popq	%rbx
	popq	%rbp
	.cfi_def_cfa %rsp, 8
	retq
.LBB4_8:                                # %func_primal_feasible.40
	.cfi_def_cfa %rbp, 16
	movq	%rbx, %rdi
	callq	primal_feasible.40
	addq	$8, %rsp
	popq	%rbx
	popq	%rbp
	.cfi_def_cfa %rsp, 8
	retq
.LBB4_9:                                # %func_primal_feasible.42
	.cfi_def_cfa %rbp, 16
	movq	%rbx, %rdi
	callq	primal_feasible.42
	addq	$8, %rsp
	popq	%rbx
	popq	%rbp
	.cfi_def_cfa %rsp, 8
	retq
.LBB4_10:                               # %func_primal_feasible.45
	.cfi_def_cfa %rbp, 16
	movq	%rbx, %rdi
	callq	primal_feasible.45
	addq	$8, %rsp
	popq	%rbx
	popq	%rbp
	.cfi_def_cfa %rsp, 8
	retq
.LBB4_11:                               # %func_primal_feasible.46
	.cfi_def_cfa %rbp, 16
	movq	%rbx, %rdi
	callq	primal_feasible.46
	addq	$8, %rsp
	popq	%rbx
	popq	%rbp
	.cfi_def_cfa %rsp, 8
	retq
.LBB4_12:                               # %func_primal_feasible.49
	.cfi_def_cfa %rbp, 16
	movq	%rbx, %rdi
	callq	primal_feasible.49
	addq	$8, %rsp
	popq	%rbx
	popq	%rbp
	.cfi_def_cfa %rsp, 8
	retq
.LBB4_13:                               # %func_primal_feasible.57
	.cfi_def_cfa %rbp, 16
	movq	%rbx, %rdi
	callq	primal_feasible.57
	addq	$8, %rsp
	popq	%rbx
	popq	%rbp
	.cfi_def_cfa %rsp, 8
	retq
.LBB4_14:                               # %func_primal_feasible.58
	.cfi_def_cfa %rbp, 16
	movq	%rbx, %rdi
	callq	primal_feasible.58
	addq	$8, %rsp
	popq	%rbx
	popq	%rbp
	.cfi_def_cfa %rsp, 8
	retq
.LBB4_15:                               # %func_primal_feasible.67
	.cfi_def_cfa %rbp, 16
	movq	%rbx, %rdi
	callq	primal_feasible.67
	addq	$8, %rsp
	popq	%rbx
	popq	%rbp
	.cfi_def_cfa %rsp, 8
	retq
.LBB4_16:                               # %func_primal_feasible.73
	.cfi_def_cfa %rbp, 16
	movq	%rbx, %rdi
	callq	primal_feasible.73
	addq	$8, %rsp
	popq	%rbx
	popq	%rbp
	.cfi_def_cfa %rsp, 8
	retq
.LBB4_17:                               # %ctrl0
	.cfi_def_cfa %rbp, 16
	cmpl	$1, %eax
	je	.LBB4_2
# %bb.18:                               # %ctrl1
	cmpl	$2, %eax
	je	.LBB4_3
# %bb.19:                               # %ctrl2
	cmpl	$3, %eax
	je	.LBB4_4
# %bb.20:                               # %ctrl3
	cmpl	$4, %eax
	je	.LBB4_5
# %bb.21:                               # %ctrl4
	cmpl	$5, %eax
	je	.LBB4_6
# %bb.22:                               # %ctrl5
	cmpl	$6, %eax
	je	.LBB4_7
# %bb.23:                               # %ctrl6
	cmpl	$7, %eax
	je	.LBB4_8
# %bb.24:                               # %ctrl7
	cmpl	$8, %eax
	je	.LBB4_9
# %bb.25:                               # %ctrl8
	cmpl	$9, %eax
	je	.LBB4_10
# %bb.26:                               # %ctrl9
	cmpl	$10, %eax
	je	.LBB4_11
# %bb.27:                               # %ctrl10
	cmpl	$11, %eax
	je	.LBB4_12
# %bb.28:                               # %ctrl11
	cmpl	$12, %eax
	je	.LBB4_13
# %bb.29:                               # %ctrl12
	cmpl	$13, %eax
	je	.LBB4_14
# %bb.30:                               # %ctrl13
	cmpl	$14, %eax
	je	.LBB4_15
	jmp	.LBB4_16
.Lfunc_end4:
	.size	primal_feasible, .Lfunc_end4-primal_feasible
	.cfi_endproc
                                        # -- End function
	.globl	dual_feasible           # -- Begin function dual_feasible
	.p2align	4, 0x90
	.type	dual_feasible,@function
dual_feasible:                          # @dual_feasible
	.cfi_startproc
# %bb.0:                                # %rand_bb
	pushq	%rbp
	.cfi_def_cfa_offset 16
	.cfi_offset %rbp, -16
	movq	%rsp, %rbp
	.cfi_def_cfa_register %rbp
	pushq	%rbx
	pushq	%rax
	.cfi_offset %rbx, -24
	movq	%rdi, %rbx
	callq	get_rand
	cmpl	$0, %eax
	jne	.LBB5_17
# %bb.1:                                # %func_dual_feasible.10
	movq	%rbx, %rdi
	callq	dual_feasible.10
	addq	$8, %rsp
	popq	%rbx
	popq	%rbp
	.cfi_def_cfa %rsp, 8
	retq
.LBB5_2:                                # %func_dual_feasible.30
	.cfi_def_cfa %rbp, 16
	movq	%rbx, %rdi
	callq	dual_feasible.30
	addq	$8, %rsp
	popq	%rbx
	popq	%rbp
	.cfi_def_cfa %rsp, 8
	retq
.LBB5_3:                                # %func_dual_feasible.35
	.cfi_def_cfa %rbp, 16
	movq	%rbx, %rdi
	callq	dual_feasible.35
	addq	$8, %rsp
	popq	%rbx
	popq	%rbp
	.cfi_def_cfa %rsp, 8
	retq
.LBB5_4:                                # %func_dual_feasible.48
	.cfi_def_cfa %rbp, 16
	movq	%rbx, %rdi
	callq	dual_feasible.48
	addq	$8, %rsp
	popq	%rbx
	popq	%rbp
	.cfi_def_cfa %rsp, 8
	retq
.LBB5_5:                                # %func_dual_feasible.52
	.cfi_def_cfa %rbp, 16
	movq	%rbx, %rdi
	callq	dual_feasible.52
	addq	$8, %rsp
	popq	%rbx
	popq	%rbp
	.cfi_def_cfa %rsp, 8
	retq
.LBB5_6:                                # %func_dual_feasible.55
	.cfi_def_cfa %rbp, 16
	movq	%rbx, %rdi
	callq	dual_feasible.55
	addq	$8, %rsp
	popq	%rbx
	popq	%rbp
	.cfi_def_cfa %rsp, 8
	retq
.LBB5_7:                                # %func_dual_feasible.56
	.cfi_def_cfa %rbp, 16
	movq	%rbx, %rdi
	callq	dual_feasible.56
	addq	$8, %rsp
	popq	%rbx
	popq	%rbp
	.cfi_def_cfa %rsp, 8
	retq
.LBB5_8:                                # %func_dual_feasible.59
	.cfi_def_cfa %rbp, 16
	movq	%rbx, %rdi
	callq	dual_feasible.59
	addq	$8, %rsp
	popq	%rbx
	popq	%rbp
	.cfi_def_cfa %rsp, 8
	retq
.LBB5_9:                                # %func_dual_feasible.60
	.cfi_def_cfa %rbp, 16
	movq	%rbx, %rdi
	callq	dual_feasible.60
	addq	$8, %rsp
	popq	%rbx
	popq	%rbp
	.cfi_def_cfa %rsp, 8
	retq
.LBB5_10:                               # %func_dual_feasible.61
	.cfi_def_cfa %rbp, 16
	movq	%rbx, %rdi
	callq	dual_feasible.61
	addq	$8, %rsp
	popq	%rbx
	popq	%rbp
	.cfi_def_cfa %rsp, 8
	retq
.LBB5_11:                               # %func_dual_feasible.62
	.cfi_def_cfa %rbp, 16
	movq	%rbx, %rdi
	callq	dual_feasible.62
	addq	$8, %rsp
	popq	%rbx
	popq	%rbp
	.cfi_def_cfa %rsp, 8
	retq
.LBB5_12:                               # %func_dual_feasible.64
	.cfi_def_cfa %rbp, 16
	movq	%rbx, %rdi
	callq	dual_feasible.64
	addq	$8, %rsp
	popq	%rbx
	popq	%rbp
	.cfi_def_cfa %rsp, 8
	retq
.LBB5_13:                               # %func_dual_feasible.69
	.cfi_def_cfa %rbp, 16
	movq	%rbx, %rdi
	callq	dual_feasible.69
	addq	$8, %rsp
	popq	%rbx
	popq	%rbp
	.cfi_def_cfa %rsp, 8
	retq
.LBB5_14:                               # %func_dual_feasible.74
	.cfi_def_cfa %rbp, 16
	movq	%rbx, %rdi
	callq	dual_feasible.74
	addq	$8, %rsp
	popq	%rbx
	popq	%rbp
	.cfi_def_cfa %rsp, 8
	retq
.LBB5_15:                               # %func_dual_feasible.84
	.cfi_def_cfa %rbp, 16
	movq	%rbx, %rdi
	callq	dual_feasible.84
	addq	$8, %rsp
	popq	%rbx
	popq	%rbp
	.cfi_def_cfa %rsp, 8
	retq
.LBB5_16:                               # %func_dual_feasible.88
	.cfi_def_cfa %rbp, 16
	movq	%rbx, %rdi
	callq	dual_feasible.88
	addq	$8, %rsp
	popq	%rbx
	popq	%rbp
	.cfi_def_cfa %rsp, 8
	retq
.LBB5_17:                               # %ctrl0
	.cfi_def_cfa %rbp, 16
	cmpl	$1, %eax
	je	.LBB5_2
# %bb.18:                               # %ctrl1
	cmpl	$2, %eax
	je	.LBB5_3
# %bb.19:                               # %ctrl2
	cmpl	$3, %eax
	je	.LBB5_4
# %bb.20:                               # %ctrl3
	cmpl	$4, %eax
	je	.LBB5_5
# %bb.21:                               # %ctrl4
	cmpl	$5, %eax
	je	.LBB5_6
# %bb.22:                               # %ctrl5
	cmpl	$6, %eax
	je	.LBB5_7
# %bb.23:                               # %ctrl6
	cmpl	$7, %eax
	je	.LBB5_8
# %bb.24:                               # %ctrl7
	cmpl	$8, %eax
	je	.LBB5_9
# %bb.25:                               # %ctrl8
	cmpl	$9, %eax
	je	.LBB5_10
# %bb.26:                               # %ctrl9
	cmpl	$10, %eax
	je	.LBB5_11
# %bb.27:                               # %ctrl10
	cmpl	$11, %eax
	je	.LBB5_12
# %bb.28:                               # %ctrl11
	cmpl	$12, %eax
	je	.LBB5_13
# %bb.29:                               # %ctrl12
	cmpl	$13, %eax
	je	.LBB5_14
# %bb.30:                               # %ctrl13
	cmpl	$14, %eax
	je	.LBB5_15
	jmp	.LBB5_16
.Lfunc_end5:
	.size	dual_feasible, .Lfunc_end5-dual_feasible
	.cfi_endproc
                                        # -- End function
	.globl	getfree                 # -- Begin function getfree
	.p2align	4, 0x90
	.type	getfree,@function
getfree:                                # @getfree
	.cfi_startproc
# %bb.0:                                # %entry
	pushq	%rbp
	.cfi_def_cfa_offset 16
	.cfi_offset %rbp, -16
	movq	%rsp, %rbp
	.cfi_def_cfa_register %rbp
	subq	$16, %rsp
	movq	%rdi, -8(%rbp)
	movq	-8(%rbp), %rax
	cmpq	$0, 552(%rax)
	je	.LBB6_2
# %bb.1:                                # %if.then
	movq	-8(%rbp), %rax
	movq	552(%rax), %rdi
	callq	free
.LBB6_2:                                # %if.end
	movq	-8(%rbp), %rax
	cmpq	$0, 568(%rax)
	je	.LBB6_4
# %bb.3:                                # %if.then3
	movq	-8(%rbp), %rax
	movq	568(%rax), %rdi
	callq	free
.LBB6_4:                                # %if.end5
	movq	-8(%rbp), %rax
	cmpq	$0, 584(%rax)
	je	.LBB6_6
# %bb.5:                                # %if.then7
	movq	-8(%rbp), %rax
	movq	584(%rax), %rdi
	callq	free
.LBB6_6:                                # %if.end9
	movq	-8(%rbp), %rax
	movq	$0, 560(%rax)
	movq	-8(%rbp), %rax
	movq	$0, 552(%rax)
	movq	-8(%rbp), %rax
	movq	$0, 576(%rax)
	movq	-8(%rbp), %rax
	movq	$0, 568(%rax)
	movq	-8(%rbp), %rax
	movq	$0, 592(%rax)
	movq	-8(%rbp), %rax
	movq	$0, 584(%rax)
	xorl	%eax, %eax
	addq	$16, %rsp
	popq	%rbp
	.cfi_def_cfa %rsp, 8
	retq
.Lfunc_end6:
	.size	getfree, .Lfunc_end6-getfree
	.cfi_endproc
                                        # -- End function
	.globl	flow_org_cost.1         # -- Begin function flow_org_cost.1
	.p2align	4, 0x90
	.type	flow_org_cost.1,@function
flow_org_cost.1:                        # @flow_org_cost.1
	.cfi_startproc
# %bb.0:                                # %entry
	pushq	%rbp
	.cfi_def_cfa_offset 16
	.cfi_offset %rbp, -16
	movq	%rsp, %rbp
	.cfi_def_cfa_register %rbp
	subq	$64, %rsp
	movl	$782112994, -52(%rbp)   # imm = 0x2E9E18E2
	movq	%rdi, -16(%rbp)
	movq	$0, -48(%rbp)
	movq	$0, -32(%rbp)
	movq	-16(%rbp), %rax
	movq	576(%rax), %rax
	movq	%rax, -40(%rbp)
	movq	-16(%rbp), %rax
	movq	568(%rax), %rax
	movq	%rax, -8(%rbp)
.LBB7_1:                                # %for.cond
                                        # =>This Inner Loop Header: Depth=1
	movq	-8(%rbp), %rax
	movq	-40(%rbp), %rcx
	cmpq	%rcx, %rax
	je	.LBB7_7
# %bb.2:                                # %for.body
                                        #   in Loop: Header=BB7_1 Depth=1
	movq	-8(%rbp), %rax
	cmpl	$2, 24(%rax)
	jne	.LBB7_4
# %bb.3:                                # %if.then
                                        #   in Loop: Header=BB7_1 Depth=1
	movq	-8(%rbp), %rax
	movq	$1, 48(%rax)
	jmp	.LBB7_5
.LBB7_4:                                # %if.else
                                        #   in Loop: Header=BB7_1 Depth=1
	movq	-8(%rbp), %rax
	movq	$0, 48(%rax)
.LBB7_5:                                # %if.end
                                        #   in Loop: Header=BB7_1 Depth=1
	jmp	.LBB7_6
.LBB7_6:                                # %for.inc
                                        #   in Loop: Header=BB7_1 Depth=1
	movq	-8(%rbp), %rax
	addq	$64, %rax
	movq	%rax, -8(%rbp)
	jmp	.LBB7_1
.LBB7_7:                                # %for.end
	movq	-16(%rbp), %rax
	movq	560(%rax), %rax
	movq	%rax, -40(%rbp)
	movq	-16(%rbp), %rax
	movq	552(%rax), %rax
	movq	%rax, -24(%rbp)
	movq	-24(%rbp), %rax
	addq	$104, %rax
	movq	%rax, -24(%rbp)
.LBB7_8:                                # %for.cond4
                                        # =>This Inner Loop Header: Depth=1
	movq	-24(%rbp), %rax
	movq	-40(%rbp), %rcx
	cmpq	%rcx, %rax
	je	.LBB7_11
# %bb.9:                                # %for.body6
                                        #   in Loop: Header=BB7_8 Depth=1
	movq	-24(%rbp), %rax
	movq	80(%rax), %rax
	movq	-24(%rbp), %rcx
	movq	48(%rcx), %rcx
	movq	%rax, 48(%rcx)
# %bb.10:                               # %for.inc9
                                        #   in Loop: Header=BB7_8 Depth=1
	movq	-24(%rbp), %rax
	addq	$104, %rax
	movq	%rax, -24(%rbp)
	jmp	.LBB7_8
.LBB7_11:                               # %for.end11
	movq	-16(%rbp), %rax
	movq	576(%rax), %rax
	movq	%rax, -40(%rbp)
	movq	-16(%rbp), %rax
	movq	568(%rax), %rax
	movq	%rax, -8(%rbp)
.LBB7_12:                               # %for.cond14
                                        # =>This Inner Loop Header: Depth=1
	movq	-8(%rbp), %rax
	movq	-40(%rbp), %rcx
	cmpq	%rcx, %rax
	je	.LBB7_23
# %bb.13:                               # %for.body16
                                        #   in Loop: Header=BB7_12 Depth=1
	movq	-8(%rbp), %rax
	cmpq	$0, 48(%rax)
	je	.LBB7_21
# %bb.14:                               # %if.then18
                                        #   in Loop: Header=BB7_12 Depth=1
	movq	-8(%rbp), %rax
	movq	8(%rax), %rax
	cmpl	$0, 96(%rax)
	jge	.LBB7_16
# %bb.15:                               # %land.lhs.true
                                        #   in Loop: Header=BB7_12 Depth=1
	movq	-8(%rbp), %rax
	movq	16(%rax), %rax
	cmpl	$0, 96(%rax)
	jg	.LBB7_20
.LBB7_16:                               # %if.then22
                                        #   in Loop: Header=BB7_12 Depth=1
	movq	-8(%rbp), %rax
	movq	8(%rax), %rax
	cmpl	$0, 96(%rax)
	jne	.LBB7_18
# %bb.17:                               # %if.then26
                                        #   in Loop: Header=BB7_12 Depth=1
	movq	-8(%rbp), %rax
	movq	56(%rax), %rax
	movq	-16(%rbp), %rcx
	subq	528(%rcx), %rax
	addq	-32(%rbp), %rax
	movq	%rax, -32(%rbp)
	movq	-48(%rbp), %rax
	addq	$1, %rax
	movq	%rax, -48(%rbp)
	jmp	.LBB7_19
.LBB7_18:                               # %if.else27
                                        #   in Loop: Header=BB7_12 Depth=1
	movq	-8(%rbp), %rax
	movq	56(%rax), %rax
	addq	-32(%rbp), %rax
	movq	%rax, -32(%rbp)
.LBB7_19:                               # %if.end30
                                        #   in Loop: Header=BB7_12 Depth=1
	jmp	.LBB7_20
.LBB7_20:                               # %if.end31
                                        #   in Loop: Header=BB7_12 Depth=1
	jmp	.LBB7_21
.LBB7_21:                               # %if.end32
                                        #   in Loop: Header=BB7_12 Depth=1
	jmp	.LBB7_22
.LBB7_22:                               # %for.inc33
                                        #   in Loop: Header=BB7_12 Depth=1
	movq	-8(%rbp), %rax
	addq	$64, %rax
	movq	%rax, -8(%rbp)
	jmp	.LBB7_12
.LBB7_23:                               # %for.end35
	vcvtsi2sdq	-48(%rbp), %xmm0, %xmm0
	movq	-16(%rbp), %rax
	vcvtsi2sdq	528(%rax), %xmm0, %xmm1
	vmulsd	%xmm1, %xmm0, %xmm0
	vcvtsi2sdq	-32(%rbp), %xmm0, %xmm1
	vaddsd	%xmm1, %xmm0, %xmm0
	cmpl	$782112994, -52(%rbp)   # imm = 0x2E9E18E2
	jne	.LBB7_25
.LBB7_24:
	addq	$64, %rsp
	popq	%rbp
	.cfi_def_cfa %rsp, 8
	retq
.LBB7_25:                               # %func_exit
	.cfi_def_cfa %rbp, 16
	vmovsd	%xmm0, -64(%rbp)        # 8-byte Spill
	callq	detect_breach
	vmovsd	-64(%rbp), %xmm0        # 8-byte Reload
                                        # xmm0 = mem[0],zero
	jmp	.LBB7_24
.Lfunc_end7:
	.size	flow_org_cost.1, .Lfunc_end7-flow_org_cost.1
	.cfi_endproc
                                        # -- End function
	.globl	primal_feasible.2       # -- Begin function primal_feasible.2
	.p2align	4, 0x90
	.type	primal_feasible.2,@function
primal_feasible.2:                      # @primal_feasible.2
	.cfi_startproc
# %bb.0:                                # %entry
	pushq	%rbp
	.cfi_def_cfa_offset 16
	.cfi_offset %rbp, -16
	movq	%rsp, %rbp
	.cfi_def_cfa_register %rbp
	pushq	%rbx
	subq	$72, %rsp
	.cfi_offset %rbx, -24
	movl	$639672313, -36(%rbp)   # imm = 0x26209FF9
	movq	%rdi, -16(%rbp)
	movq	-16(%rbp), %rax
	movq	584(%rax), %rax
	movq	%rax, -72(%rbp)
	movq	-16(%rbp), %rax
	movq	592(%rax), %rax
	movq	%rax, -80(%rbp)
	movq	-16(%rbp), %rax
	movq	552(%rax), %rax
	movq	%rax, -24(%rbp)
	movq	-16(%rbp), %rax
	movq	560(%rax), %rax
	movq	%rax, -64(%rbp)
	movq	-24(%rbp), %rax
	addq	$104, %rax
	movq	%rax, -24(%rbp)
.LBB8_1:                                # %for.cond
                                        # =>This Inner Loop Header: Depth=1
	movq	-24(%rbp), %rax
	movq	-64(%rbp), %rcx
	cmpq	%rcx, %rax
	jae	.LBB8_16
# %bb.2:                                # %for.body
                                        #   in Loop: Header=BB8_1 Depth=1
	movq	-24(%rbp), %rax
	movq	48(%rax), %rax
	movq	%rax, -48(%rbp)
	movq	-24(%rbp), %rax
	movq	80(%rax), %rax
	movq	%rax, -32(%rbp)
	movq	-48(%rbp), %rax
	cmpq	-72(%rbp), %rax
	jb	.LBB8_10
# %bb.3:                                # %land.lhs.true
                                        #   in Loop: Header=BB8_1 Depth=1
	movq	-48(%rbp), %rax
	cmpq	-80(%rbp), %rax
	jae	.LBB8_10
# %bb.4:                                # %if.then
                                        #   in Loop: Header=BB8_1 Depth=1
	cmpq	$0, -32(%rbp)
	jl	.LBB8_6
# %bb.5:                                # %cond.true
                                        #   in Loop: Header=BB8_1 Depth=1
	movq	-32(%rbp), %rax
	jmp	.LBB8_7
.LBB8_6:                                # %cond.false
                                        #   in Loop: Header=BB8_1 Depth=1
	xorl	%eax, %eax
	subq	-32(%rbp), %rax
.LBB8_7:                                # %cond.end
                                        #   in Loop: Header=BB8_1 Depth=1
	movq	-16(%rbp), %rcx
	cmpq	512(%rcx), %rax
	jle	.LBB8_9
# %bb.8:                                # %if.then7
                                        #   in Loop: Header=BB8_1 Depth=1
	movabsq	$.L.str, %rdi
	movb	$0, %al
	callq	printf
	movq	-24(%rbp), %rax
	movl	96(%rax), %esi
	movq	-32(%rbp), %rdx
	movabsq	$.L.str.1, %rdi
	movb	$0, %al
	callq	printf
.LBB8_9:                                # %if.end
                                        #   in Loop: Header=BB8_1 Depth=1
	jmp	.LBB8_14
.LBB8_10:                               # %if.else
                                        #   in Loop: Header=BB8_1 Depth=1
	xorl	%eax, %eax
	movq	-32(%rbp), %rcx
	movq	-16(%rbp), %rdx
	subq	512(%rdx), %rax
	cmpq	%rax, %rcx
	jl	.LBB8_12
# %bb.11:                               # %lor.lhs.false
                                        #   in Loop: Header=BB8_1 Depth=1
	movq	-32(%rbp), %rax
	subq	$1, %rax
	movq	-16(%rbp), %rcx
	cmpq	512(%rcx), %rax
	jle	.LBB8_13
.LBB8_12:                               # %if.then15
	movabsq	$.L.str, %rdi
	movb	$0, %al
	callq	printf
	movq	-32(%rbp), %rsi
	movabsq	$.L.str.2, %rdi
	movb	$0, %al
	callq	printf
	movq	-16(%rbp), %rax
	movq	$0, 488(%rax)
	movq	$1, -56(%rbp)
	jmp	.LBB8_17
.LBB8_13:                               # %if.end18
                                        #   in Loop: Header=BB8_1 Depth=1
	jmp	.LBB8_14
.LBB8_14:                               # %if.end19
                                        #   in Loop: Header=BB8_1 Depth=1
	jmp	.LBB8_15
.LBB8_15:                               # %for.inc
                                        #   in Loop: Header=BB8_1 Depth=1
	movq	-24(%rbp), %rax
	addq	$104, %rax
	movq	%rax, -24(%rbp)
	jmp	.LBB8_1
.LBB8_16:                               # %for.end
	movq	-16(%rbp), %rax
	movq	$1, 488(%rax)
	movq	$0, -56(%rbp)
.LBB8_17:                               # %return
	movq	-56(%rbp), %rbx
	cmpl	$639672313, -36(%rbp)   # imm = 0x26209FF9
	jne	.LBB8_19
.LBB8_18:
	movq	%rbx, %rax
	addq	$72, %rsp
	popq	%rbx
	popq	%rbp
	.cfi_def_cfa %rsp, 8
	retq
.LBB8_19:                               # %func_exit
	.cfi_def_cfa %rbp, 16
	callq	detect_breach
	jmp	.LBB8_18
.Lfunc_end8:
	.size	primal_feasible.2, .Lfunc_end8-primal_feasible.2
	.cfi_endproc
                                        # -- End function
	.globl	flow_org_cost.3         # -- Begin function flow_org_cost.3
	.p2align	4, 0x90
	.type	flow_org_cost.3,@function
flow_org_cost.3:                        # @flow_org_cost.3
	.cfi_startproc
# %bb.0:                                # %entry
	pushq	%rbp
	.cfi_def_cfa_offset 16
	.cfi_offset %rbp, -16
	movq	%rsp, %rbp
	.cfi_def_cfa_register %rbp
	subq	$64, %rsp
	movl	$1944376607, -52(%rbp)  # imm = 0x73E4D51F
	movq	%rdi, -16(%rbp)
	movq	$0, -48(%rbp)
	movq	$0, -40(%rbp)
	movq	-16(%rbp), %rax
	movq	576(%rax), %rax
	movq	%rax, -32(%rbp)
	movq	-16(%rbp), %rax
	movq	568(%rax), %rax
	movq	%rax, -8(%rbp)
.LBB9_1:                                # %for.cond
                                        # =>This Inner Loop Header: Depth=1
	movq	-8(%rbp), %rax
	movq	-32(%rbp), %rcx
	cmpq	%rcx, %rax
	je	.LBB9_7
# %bb.2:                                # %for.body
                                        #   in Loop: Header=BB9_1 Depth=1
	movq	-8(%rbp), %rax
	cmpl	$2, 24(%rax)
	jne	.LBB9_4
# %bb.3:                                # %if.then
                                        #   in Loop: Header=BB9_1 Depth=1
	movq	-8(%rbp), %rax
	movq	$1, 48(%rax)
	jmp	.LBB9_5
.LBB9_4:                                # %if.else
                                        #   in Loop: Header=BB9_1 Depth=1
	movq	-8(%rbp), %rax
	movq	$0, 48(%rax)
.LBB9_5:                                # %if.end
                                        #   in Loop: Header=BB9_1 Depth=1
	jmp	.LBB9_6
.LBB9_6:                                # %for.inc
                                        #   in Loop: Header=BB9_1 Depth=1
	movq	-8(%rbp), %rax
	addq	$64, %rax
	movq	%rax, -8(%rbp)
	jmp	.LBB9_1
.LBB9_7:                                # %for.end
	movq	-16(%rbp), %rax
	movq	560(%rax), %rax
	movq	%rax, -32(%rbp)
	movq	-16(%rbp), %rax
	movq	552(%rax), %rax
	movq	%rax, -24(%rbp)
	movq	-24(%rbp), %rax
	addq	$104, %rax
	movq	%rax, -24(%rbp)
.LBB9_8:                                # %for.cond4
                                        # =>This Inner Loop Header: Depth=1
	movq	-24(%rbp), %rax
	movq	-32(%rbp), %rcx
	cmpq	%rcx, %rax
	je	.LBB9_11
# %bb.9:                                # %for.body6
                                        #   in Loop: Header=BB9_8 Depth=1
	movq	-24(%rbp), %rax
	movq	80(%rax), %rax
	movq	-24(%rbp), %rcx
	movq	48(%rcx), %rcx
	movq	%rax, 48(%rcx)
# %bb.10:                               # %for.inc9
                                        #   in Loop: Header=BB9_8 Depth=1
	movq	-24(%rbp), %rax
	addq	$104, %rax
	movq	%rax, -24(%rbp)
	jmp	.LBB9_8
.LBB9_11:                               # %for.end11
	movq	-16(%rbp), %rax
	movq	576(%rax), %rax
	movq	%rax, -32(%rbp)
	movq	-16(%rbp), %rax
	movq	568(%rax), %rax
	movq	%rax, -8(%rbp)
.LBB9_12:                               # %for.cond14
                                        # =>This Inner Loop Header: Depth=1
	movq	-8(%rbp), %rax
	movq	-32(%rbp), %rcx
	cmpq	%rcx, %rax
	je	.LBB9_23
# %bb.13:                               # %for.body16
                                        #   in Loop: Header=BB9_12 Depth=1
	movq	-8(%rbp), %rax
	cmpq	$0, 48(%rax)
	je	.LBB9_21
# %bb.14:                               # %if.then18
                                        #   in Loop: Header=BB9_12 Depth=1
	movq	-8(%rbp), %rax
	movq	8(%rax), %rax
	cmpl	$0, 96(%rax)
	jge	.LBB9_16
# %bb.15:                               # %land.lhs.true
                                        #   in Loop: Header=BB9_12 Depth=1
	movq	-8(%rbp), %rax
	movq	16(%rax), %rax
	cmpl	$0, 96(%rax)
	jg	.LBB9_20
.LBB9_16:                               # %if.then22
                                        #   in Loop: Header=BB9_12 Depth=1
	movq	-8(%rbp), %rax
	movq	8(%rax), %rax
	cmpl	$0, 96(%rax)
	jne	.LBB9_18
# %bb.17:                               # %if.then26
                                        #   in Loop: Header=BB9_12 Depth=1
	movq	-8(%rbp), %rax
	movq	56(%rax), %rax
	movq	-16(%rbp), %rcx
	subq	528(%rcx), %rax
	addq	-40(%rbp), %rax
	movq	%rax, -40(%rbp)
	movq	-48(%rbp), %rax
	addq	$1, %rax
	movq	%rax, -48(%rbp)
	jmp	.LBB9_19
.LBB9_18:                               # %if.else27
                                        #   in Loop: Header=BB9_12 Depth=1
	movq	-8(%rbp), %rax
	movq	56(%rax), %rax
	addq	-40(%rbp), %rax
	movq	%rax, -40(%rbp)
.LBB9_19:                               # %if.end30
                                        #   in Loop: Header=BB9_12 Depth=1
	jmp	.LBB9_20
.LBB9_20:                               # %if.end31
                                        #   in Loop: Header=BB9_12 Depth=1
	jmp	.LBB9_21
.LBB9_21:                               # %if.end32
                                        #   in Loop: Header=BB9_12 Depth=1
	jmp	.LBB9_22
.LBB9_22:                               # %for.inc33
                                        #   in Loop: Header=BB9_12 Depth=1
	movq	-8(%rbp), %rax
	addq	$64, %rax
	movq	%rax, -8(%rbp)
	jmp	.LBB9_12
.LBB9_23:                               # %for.end35
	vcvtsi2sdq	-48(%rbp), %xmm0, %xmm0
	movq	-16(%rbp), %rax
	vcvtsi2sdq	528(%rax), %xmm0, %xmm1
	vmulsd	%xmm1, %xmm0, %xmm0
	vcvtsi2sdq	-40(%rbp), %xmm0, %xmm1
	vaddsd	%xmm1, %xmm0, %xmm0
	cmpl	$1944376607, -52(%rbp)  # imm = 0x73E4D51F
	jne	.LBB9_25
.LBB9_24:
	addq	$64, %rsp
	popq	%rbp
	.cfi_def_cfa %rsp, 8
	retq
.LBB9_25:                               # %func_exit
	.cfi_def_cfa %rbp, 16
	vmovsd	%xmm0, -64(%rbp)        # 8-byte Spill
	callq	detect_breach
	vmovsd	-64(%rbp), %xmm0        # 8-byte Reload
                                        # xmm0 = mem[0],zero
	jmp	.LBB9_24
.Lfunc_end9:
	.size	flow_org_cost.3, .Lfunc_end9-flow_org_cost.3
	.cfi_endproc
                                        # -- End function
	.globl	primal_feasible.4       # -- Begin function primal_feasible.4
	.p2align	4, 0x90
	.type	primal_feasible.4,@function
primal_feasible.4:                      # @primal_feasible.4
	.cfi_startproc
# %bb.0:                                # %entry
	pushq	%rbp
	.cfi_def_cfa_offset 16
	.cfi_offset %rbp, -16
	movq	%rsp, %rbp
	.cfi_def_cfa_register %rbp
	pushq	%rbx
	subq	$72, %rsp
	.cfi_offset %rbx, -24
	movl	$1976105919, -36(%rbp)  # imm = 0x75C8FBBF
	movq	%rdi, -16(%rbp)
	movq	-16(%rbp), %rax
	movq	584(%rax), %rax
	movq	%rax, -72(%rbp)
	movq	-16(%rbp), %rax
	movq	592(%rax), %rax
	movq	%rax, -80(%rbp)
	movq	-16(%rbp), %rax
	movq	552(%rax), %rax
	movq	%rax, -24(%rbp)
	movq	-16(%rbp), %rax
	movq	560(%rax), %rax
	movq	%rax, -64(%rbp)
	movq	-24(%rbp), %rax
	addq	$104, %rax
	movq	%rax, -24(%rbp)
.LBB10_1:                               # %for.cond
                                        # =>This Inner Loop Header: Depth=1
	movq	-24(%rbp), %rax
	movq	-64(%rbp), %rcx
	cmpq	%rcx, %rax
	jae	.LBB10_16
# %bb.2:                                # %for.body
                                        #   in Loop: Header=BB10_1 Depth=1
	movq	-24(%rbp), %rax
	movq	48(%rax), %rax
	movq	%rax, -56(%rbp)
	movq	-24(%rbp), %rax
	movq	80(%rax), %rax
	movq	%rax, -32(%rbp)
	movq	-56(%rbp), %rax
	cmpq	-72(%rbp), %rax
	jb	.LBB10_10
# %bb.3:                                # %land.lhs.true
                                        #   in Loop: Header=BB10_1 Depth=1
	movq	-56(%rbp), %rax
	cmpq	-80(%rbp), %rax
	jae	.LBB10_10
# %bb.4:                                # %if.then
                                        #   in Loop: Header=BB10_1 Depth=1
	cmpq	$0, -32(%rbp)
	jl	.LBB10_6
# %bb.5:                                # %cond.true
                                        #   in Loop: Header=BB10_1 Depth=1
	movq	-32(%rbp), %rax
	jmp	.LBB10_7
.LBB10_6:                               # %cond.false
                                        #   in Loop: Header=BB10_1 Depth=1
	xorl	%eax, %eax
	subq	-32(%rbp), %rax
.LBB10_7:                               # %cond.end
                                        #   in Loop: Header=BB10_1 Depth=1
	movq	-16(%rbp), %rcx
	cmpq	512(%rcx), %rax
	jle	.LBB10_9
# %bb.8:                                # %if.then7
                                        #   in Loop: Header=BB10_1 Depth=1
	movabsq	$.L.str, %rdi
	movb	$0, %al
	callq	printf
	movq	-24(%rbp), %rax
	movl	96(%rax), %esi
	movq	-32(%rbp), %rdx
	movabsq	$.L.str.1, %rdi
	movb	$0, %al
	callq	printf
.LBB10_9:                               # %if.end
                                        #   in Loop: Header=BB10_1 Depth=1
	jmp	.LBB10_14
.LBB10_10:                              # %if.else
                                        #   in Loop: Header=BB10_1 Depth=1
	xorl	%eax, %eax
	movq	-32(%rbp), %rcx
	movq	-16(%rbp), %rdx
	subq	512(%rdx), %rax
	cmpq	%rax, %rcx
	jl	.LBB10_12
# %bb.11:                               # %lor.lhs.false
                                        #   in Loop: Header=BB10_1 Depth=1
	movq	-32(%rbp), %rax
	subq	$1, %rax
	movq	-16(%rbp), %rcx
	cmpq	512(%rcx), %rax
	jle	.LBB10_13
.LBB10_12:                              # %if.then15
	movabsq	$.L.str, %rdi
	movb	$0, %al
	callq	printf
	movq	-32(%rbp), %rsi
	movabsq	$.L.str.2, %rdi
	movb	$0, %al
	callq	printf
	movq	-16(%rbp), %rax
	movq	$0, 488(%rax)
	movq	$1, -48(%rbp)
	jmp	.LBB10_17
.LBB10_13:                              # %if.end18
                                        #   in Loop: Header=BB10_1 Depth=1
	jmp	.LBB10_14
.LBB10_14:                              # %if.end19
                                        #   in Loop: Header=BB10_1 Depth=1
	jmp	.LBB10_15
.LBB10_15:                              # %for.inc
                                        #   in Loop: Header=BB10_1 Depth=1
	movq	-24(%rbp), %rax
	addq	$104, %rax
	movq	%rax, -24(%rbp)
	jmp	.LBB10_1
.LBB10_16:                              # %for.end
	movq	-16(%rbp), %rax
	movq	$1, 488(%rax)
	movq	$0, -48(%rbp)
.LBB10_17:                              # %return
	movq	-48(%rbp), %rbx
	cmpl	$1976105919, -36(%rbp)  # imm = 0x75C8FBBF
	jne	.LBB10_19
.LBB10_18:
	movq	%rbx, %rax
	addq	$72, %rsp
	popq	%rbx
	popq	%rbp
	.cfi_def_cfa %rsp, 8
	retq
.LBB10_19:                              # %func_exit
	.cfi_def_cfa %rbp, 16
	callq	detect_breach
	jmp	.LBB10_18
.Lfunc_end10:
	.size	primal_feasible.4, .Lfunc_end10-primal_feasible.4
	.cfi_endproc
                                        # -- End function
	.globl	flow_cost.5             # -- Begin function flow_cost.5
	.p2align	4, 0x90
	.type	flow_cost.5,@function
flow_cost.5:                            # @flow_cost.5
	.cfi_startproc
# %bb.0:                                # %entry
	pushq	%rbp
	.cfi_def_cfa_offset 16
	.cfi_offset %rbp, -16
	movq	%rsp, %rbp
	.cfi_def_cfa_register %rbp
	subq	$64, %rsp
	movl	$243367406, -52(%rbp)   # imm = 0xE817DEE
	movq	%rdi, -16(%rbp)
	movq	$0, -48(%rbp)
	movq	$0, -40(%rbp)
	movq	-16(%rbp), %rax
	movq	576(%rax), %rax
	movq	%rax, -32(%rbp)
	movq	-16(%rbp), %rax
	movq	568(%rax), %rax
	movq	%rax, -8(%rbp)
.LBB11_1:                               # %for.cond
                                        # =>This Inner Loop Header: Depth=1
	movq	-8(%rbp), %rax
	movq	-32(%rbp), %rcx
	cmpq	%rcx, %rax
	je	.LBB11_7
# %bb.2:                                # %for.body
                                        #   in Loop: Header=BB11_1 Depth=1
	movq	-8(%rbp), %rax
	cmpl	$2, 24(%rax)
	jne	.LBB11_4
# %bb.3:                                # %if.then
                                        #   in Loop: Header=BB11_1 Depth=1
	movq	-8(%rbp), %rax
	movq	$1, 48(%rax)
	jmp	.LBB11_5
.LBB11_4:                               # %if.else
                                        #   in Loop: Header=BB11_1 Depth=1
	movq	-8(%rbp), %rax
	movq	$0, 48(%rax)
.LBB11_5:                               # %if.end
                                        #   in Loop: Header=BB11_1 Depth=1
	jmp	.LBB11_6
.LBB11_6:                               # %for.inc
                                        #   in Loop: Header=BB11_1 Depth=1
	movq	-8(%rbp), %rax
	addq	$64, %rax
	movq	%rax, -8(%rbp)
	jmp	.LBB11_1
.LBB11_7:                               # %for.end
	movq	-16(%rbp), %rax
	movq	560(%rax), %rax
	movq	%rax, -32(%rbp)
	movq	-16(%rbp), %rax
	movq	552(%rax), %rax
	movq	%rax, -24(%rbp)
	movq	-24(%rbp), %rax
	addq	$104, %rax
	movq	%rax, -24(%rbp)
.LBB11_8:                               # %for.cond4
                                        # =>This Inner Loop Header: Depth=1
	movq	-24(%rbp), %rax
	movq	-32(%rbp), %rcx
	cmpq	%rcx, %rax
	je	.LBB11_11
# %bb.9:                                # %for.body6
                                        #   in Loop: Header=BB11_8 Depth=1
	movq	-24(%rbp), %rax
	movq	80(%rax), %rax
	movq	-24(%rbp), %rcx
	movq	48(%rcx), %rcx
	movq	%rax, 48(%rcx)
# %bb.10:                               # %for.inc9
                                        #   in Loop: Header=BB11_8 Depth=1
	movq	-24(%rbp), %rax
	addq	$104, %rax
	movq	%rax, -24(%rbp)
	jmp	.LBB11_8
.LBB11_11:                              # %for.end11
	movq	-16(%rbp), %rax
	movq	576(%rax), %rax
	movq	%rax, -32(%rbp)
	movq	-16(%rbp), %rax
	movq	568(%rax), %rax
	movq	%rax, -8(%rbp)
.LBB11_12:                              # %for.cond14
                                        # =>This Inner Loop Header: Depth=1
	movq	-8(%rbp), %rax
	movq	-32(%rbp), %rcx
	cmpq	%rcx, %rax
	je	.LBB11_23
# %bb.13:                               # %for.body16
                                        #   in Loop: Header=BB11_12 Depth=1
	movq	-8(%rbp), %rax
	cmpq	$0, 48(%rax)
	je	.LBB11_21
# %bb.14:                               # %if.then18
                                        #   in Loop: Header=BB11_12 Depth=1
	movq	-8(%rbp), %rax
	movq	8(%rax), %rax
	cmpl	$0, 96(%rax)
	jge	.LBB11_16
# %bb.15:                               # %land.lhs.true
                                        #   in Loop: Header=BB11_12 Depth=1
	movq	-8(%rbp), %rax
	movq	16(%rax), %rax
	cmpl	$0, 96(%rax)
	jg	.LBB11_20
.LBB11_16:                              # %if.then22
                                        #   in Loop: Header=BB11_12 Depth=1
	movq	-8(%rbp), %rax
	movq	8(%rax), %rax
	cmpl	$0, 96(%rax)
	jne	.LBB11_18
# %bb.17:                               # %if.then26
                                        #   in Loop: Header=BB11_12 Depth=1
	movq	-8(%rbp), %rax
	movq	(%rax), %rax
	movq	-16(%rbp), %rcx
	subq	528(%rcx), %rax
	addq	-40(%rbp), %rax
	movq	%rax, -40(%rbp)
	movq	-48(%rbp), %rax
	addq	$1, %rax
	movq	%rax, -48(%rbp)
	jmp	.LBB11_19
.LBB11_18:                              # %if.else27
                                        #   in Loop: Header=BB11_12 Depth=1
	movq	-8(%rbp), %rax
	movq	(%rax), %rax
	addq	-40(%rbp), %rax
	movq	%rax, -40(%rbp)
.LBB11_19:                              # %if.end30
                                        #   in Loop: Header=BB11_12 Depth=1
	jmp	.LBB11_20
.LBB11_20:                              # %if.end31
                                        #   in Loop: Header=BB11_12 Depth=1
	jmp	.LBB11_21
.LBB11_21:                              # %if.end32
                                        #   in Loop: Header=BB11_12 Depth=1
	jmp	.LBB11_22
.LBB11_22:                              # %for.inc33
                                        #   in Loop: Header=BB11_12 Depth=1
	movq	-8(%rbp), %rax
	addq	$64, %rax
	movq	%rax, -8(%rbp)
	jmp	.LBB11_12
.LBB11_23:                              # %for.end35
	vcvtsi2sdq	-48(%rbp), %xmm0, %xmm0
	movq	-16(%rbp), %rax
	vcvtsi2sdq	528(%rax), %xmm0, %xmm1
	vmulsd	%xmm1, %xmm0, %xmm0
	vcvtsi2sdq	-40(%rbp), %xmm0, %xmm1
	vaddsd	%xmm1, %xmm0, %xmm0
	cmpl	$243367406, -52(%rbp)   # imm = 0xE817DEE
	jne	.LBB11_25
.LBB11_24:
	addq	$64, %rsp
	popq	%rbp
	.cfi_def_cfa %rsp, 8
	retq
.LBB11_25:                              # %func_exit
	.cfi_def_cfa %rbp, 16
	vmovsd	%xmm0, -64(%rbp)        # 8-byte Spill
	callq	detect_breach
	vmovsd	-64(%rbp), %xmm0        # 8-byte Reload
                                        # xmm0 = mem[0],zero
	jmp	.LBB11_24
.Lfunc_end11:
	.size	flow_cost.5, .Lfunc_end11-flow_cost.5
	.cfi_endproc
                                        # -- End function
	.globl	refresh_neighbour_lists.6 # -- Begin function refresh_neighbour_lists.6
	.p2align	4, 0x90
	.type	refresh_neighbour_lists.6,@function
refresh_neighbour_lists.6:              # @refresh_neighbour_lists.6
	.cfi_startproc
# %bb.0:                                # %entry
	pushq	%rbp
	.cfi_def_cfa_offset 16
	.cfi_offset %rbp, -16
	movq	%rsp, %rbp
	.cfi_def_cfa_register %rbp
	subq	$48, %rsp
	movl	$1458576886, -36(%rbp)  # imm = 0x56F01DF6
	movq	%rdi, -24(%rbp)
	movq	-24(%rbp), %rax
	movq	552(%rax), %rax
	movq	%rax, -16(%rbp)
	movq	-24(%rbp), %rax
	movq	560(%rax), %rax
	movq	%rax, -32(%rbp)
.LBB12_1:                               # %for.cond
                                        # =>This Inner Loop Header: Depth=1
	movq	-16(%rbp), %rax
	movq	-32(%rbp), %rcx
	cmpq	%rcx, %rax
	jae	.LBB12_4
# %bb.2:                                # %for.body
                                        #   in Loop: Header=BB12_1 Depth=1
	movq	-16(%rbp), %rax
	movq	$0, 64(%rax)
	movq	-16(%rbp), %rax
	movq	$0, 56(%rax)
# %bb.3:                                # %for.inc
                                        #   in Loop: Header=BB12_1 Depth=1
	movq	-16(%rbp), %rax
	addq	$104, %rax
	movq	%rax, -16(%rbp)
	jmp	.LBB12_1
.LBB12_4:                               # %for.end
	movq	-24(%rbp), %rax
	movq	568(%rax), %rax
	movq	%rax, -8(%rbp)
	movq	-24(%rbp), %rax
	movq	576(%rax), %rax
	movq	%rax, -32(%rbp)
.LBB12_5:                               # %for.cond1
                                        # =>This Inner Loop Header: Depth=1
	movq	-8(%rbp), %rax
	movq	-32(%rbp), %rcx
	cmpq	%rcx, %rax
	jae	.LBB12_8
# %bb.6:                                # %for.body3
                                        #   in Loop: Header=BB12_5 Depth=1
	movq	-8(%rbp), %rax
	movq	8(%rax), %rax
	movq	56(%rax), %rax
	movq	-8(%rbp), %rcx
	movq	%rax, 32(%rcx)
	movq	-8(%rbp), %rax
	movq	-8(%rbp), %rcx
	movq	8(%rcx), %rcx
	movq	%rax, 56(%rcx)
	movq	-8(%rbp), %rax
	movq	16(%rax), %rax
	movq	64(%rax), %rax
	movq	-8(%rbp), %rcx
	movq	%rax, 40(%rcx)
	movq	-8(%rbp), %rax
	movq	-8(%rbp), %rcx
	movq	16(%rcx), %rcx
	movq	%rax, 64(%rcx)
# %bb.7:                                # %for.inc10
                                        #   in Loop: Header=BB12_5 Depth=1
	movq	-8(%rbp), %rax
	addq	$64, %rax
	movq	%rax, -8(%rbp)
	jmp	.LBB12_5
.LBB12_8:                               # %for.end12
	cmpl	$1458576886, -36(%rbp)  # imm = 0x56F01DF6
	jne	.LBB12_10
.LBB12_9:
	addq	$48, %rsp
	popq	%rbp
	.cfi_def_cfa %rsp, 8
	retq
.LBB12_10:                              # %func_exit
	.cfi_def_cfa %rbp, 16
	callq	detect_breach
	jmp	.LBB12_9
.Lfunc_end12:
	.size	refresh_neighbour_lists.6, .Lfunc_end12-refresh_neighbour_lists.6
	.cfi_endproc
                                        # -- End function
	.globl	flow_org_cost.7         # -- Begin function flow_org_cost.7
	.p2align	4, 0x90
	.type	flow_org_cost.7,@function
flow_org_cost.7:                        # @flow_org_cost.7
	.cfi_startproc
# %bb.0:                                # %entry
	pushq	%rbp
	.cfi_def_cfa_offset 16
	.cfi_offset %rbp, -16
	movq	%rsp, %rbp
	.cfi_def_cfa_register %rbp
	subq	$64, %rsp
	movl	$553312144, -52(%rbp)   # imm = 0x20FADF90
	movq	%rdi, -16(%rbp)
	movq	$0, -48(%rbp)
	movq	$0, -32(%rbp)
	movq	-16(%rbp), %rax
	movq	576(%rax), %rax
	movq	%rax, -40(%rbp)
	movq	-16(%rbp), %rax
	movq	568(%rax), %rax
	movq	%rax, -8(%rbp)
.LBB13_1:                               # %for.cond
                                        # =>This Inner Loop Header: Depth=1
	movq	-8(%rbp), %rax
	movq	-40(%rbp), %rcx
	cmpq	%rcx, %rax
	je	.LBB13_7
# %bb.2:                                # %for.body
                                        #   in Loop: Header=BB13_1 Depth=1
	movq	-8(%rbp), %rax
	cmpl	$2, 24(%rax)
	jne	.LBB13_4
# %bb.3:                                # %if.then
                                        #   in Loop: Header=BB13_1 Depth=1
	movq	-8(%rbp), %rax
	movq	$1, 48(%rax)
	jmp	.LBB13_5
.LBB13_4:                               # %if.else
                                        #   in Loop: Header=BB13_1 Depth=1
	movq	-8(%rbp), %rax
	movq	$0, 48(%rax)
.LBB13_5:                               # %if.end
                                        #   in Loop: Header=BB13_1 Depth=1
	jmp	.LBB13_6
.LBB13_6:                               # %for.inc
                                        #   in Loop: Header=BB13_1 Depth=1
	movq	-8(%rbp), %rax
	addq	$64, %rax
	movq	%rax, -8(%rbp)
	jmp	.LBB13_1
.LBB13_7:                               # %for.end
	movq	-16(%rbp), %rax
	movq	560(%rax), %rax
	movq	%rax, -40(%rbp)
	movq	-16(%rbp), %rax
	movq	552(%rax), %rax
	movq	%rax, -24(%rbp)
	movq	-24(%rbp), %rax
	addq	$104, %rax
	movq	%rax, -24(%rbp)
.LBB13_8:                               # %for.cond4
                                        # =>This Inner Loop Header: Depth=1
	movq	-24(%rbp), %rax
	movq	-40(%rbp), %rcx
	cmpq	%rcx, %rax
	je	.LBB13_11
# %bb.9:                                # %for.body6
                                        #   in Loop: Header=BB13_8 Depth=1
	movq	-24(%rbp), %rax
	movq	80(%rax), %rax
	movq	-24(%rbp), %rcx
	movq	48(%rcx), %rcx
	movq	%rax, 48(%rcx)
# %bb.10:                               # %for.inc9
                                        #   in Loop: Header=BB13_8 Depth=1
	movq	-24(%rbp), %rax
	addq	$104, %rax
	movq	%rax, -24(%rbp)
	jmp	.LBB13_8
.LBB13_11:                              # %for.end11
	movq	-16(%rbp), %rax
	movq	576(%rax), %rax
	movq	%rax, -40(%rbp)
	movq	-16(%rbp), %rax
	movq	568(%rax), %rax
	movq	%rax, -8(%rbp)
.LBB13_12:                              # %for.cond14
                                        # =>This Inner Loop Header: Depth=1
	movq	-8(%rbp), %rax
	movq	-40(%rbp), %rcx
	cmpq	%rcx, %rax
	je	.LBB13_23
# %bb.13:                               # %for.body16
                                        #   in Loop: Header=BB13_12 Depth=1
	movq	-8(%rbp), %rax
	cmpq	$0, 48(%rax)
	je	.LBB13_21
# %bb.14:                               # %if.then18
                                        #   in Loop: Header=BB13_12 Depth=1
	movq	-8(%rbp), %rax
	movq	8(%rax), %rax
	cmpl	$0, 96(%rax)
	jge	.LBB13_16
# %bb.15:                               # %land.lhs.true
                                        #   in Loop: Header=BB13_12 Depth=1
	movq	-8(%rbp), %rax
	movq	16(%rax), %rax
	cmpl	$0, 96(%rax)
	jg	.LBB13_20
.LBB13_16:                              # %if.then22
                                        #   in Loop: Header=BB13_12 Depth=1
	movq	-8(%rbp), %rax
	movq	8(%rax), %rax
	cmpl	$0, 96(%rax)
	jne	.LBB13_18
# %bb.17:                               # %if.then26
                                        #   in Loop: Header=BB13_12 Depth=1
	movq	-8(%rbp), %rax
	movq	56(%rax), %rax
	movq	-16(%rbp), %rcx
	subq	528(%rcx), %rax
	addq	-32(%rbp), %rax
	movq	%rax, -32(%rbp)
	movq	-48(%rbp), %rax
	addq	$1, %rax
	movq	%rax, -48(%rbp)
	jmp	.LBB13_19
.LBB13_18:                              # %if.else27
                                        #   in Loop: Header=BB13_12 Depth=1
	movq	-8(%rbp), %rax
	movq	56(%rax), %rax
	addq	-32(%rbp), %rax
	movq	%rax, -32(%rbp)
.LBB13_19:                              # %if.end30
                                        #   in Loop: Header=BB13_12 Depth=1
	jmp	.LBB13_20
.LBB13_20:                              # %if.end31
                                        #   in Loop: Header=BB13_12 Depth=1
	jmp	.LBB13_21
.LBB13_21:                              # %if.end32
                                        #   in Loop: Header=BB13_12 Depth=1
	jmp	.LBB13_22
.LBB13_22:                              # %for.inc33
                                        #   in Loop: Header=BB13_12 Depth=1
	movq	-8(%rbp), %rax
	addq	$64, %rax
	movq	%rax, -8(%rbp)
	jmp	.LBB13_12
.LBB13_23:                              # %for.end35
	vcvtsi2sdq	-48(%rbp), %xmm0, %xmm0
	movq	-16(%rbp), %rax
	vcvtsi2sdq	528(%rax), %xmm0, %xmm1
	vmulsd	%xmm1, %xmm0, %xmm0
	vcvtsi2sdq	-32(%rbp), %xmm0, %xmm1
	vaddsd	%xmm1, %xmm0, %xmm0
	cmpl	$553312144, -52(%rbp)   # imm = 0x20FADF90
	jne	.LBB13_25
.LBB13_24:
	addq	$64, %rsp
	popq	%rbp
	.cfi_def_cfa %rsp, 8
	retq
.LBB13_25:                              # %func_exit
	.cfi_def_cfa %rbp, 16
	vmovsd	%xmm0, -64(%rbp)        # 8-byte Spill
	callq	detect_breach
	vmovsd	-64(%rbp), %xmm0        # 8-byte Reload
                                        # xmm0 = mem[0],zero
	jmp	.LBB13_24
.Lfunc_end13:
	.size	flow_org_cost.7, .Lfunc_end13-flow_org_cost.7
	.cfi_endproc
                                        # -- End function
	.globl	primal_feasible.8       # -- Begin function primal_feasible.8
	.p2align	4, 0x90
	.type	primal_feasible.8,@function
primal_feasible.8:                      # @primal_feasible.8
	.cfi_startproc
# %bb.0:                                # %entry
	pushq	%rbp
	.cfi_def_cfa_offset 16
	.cfi_offset %rbp, -16
	movq	%rsp, %rbp
	.cfi_def_cfa_register %rbp
	pushq	%rbx
	subq	$72, %rsp
	.cfi_offset %rbx, -24
	movl	$1117693924, -36(%rbp)  # imm = 0x429EA7E4
	movq	%rdi, -16(%rbp)
	movq	-16(%rbp), %rax
	movq	584(%rax), %rax
	movq	%rax, -64(%rbp)
	movq	-16(%rbp), %rax
	movq	592(%rax), %rax
	movq	%rax, -80(%rbp)
	movq	-16(%rbp), %rax
	movq	552(%rax), %rax
	movq	%rax, -24(%rbp)
	movq	-16(%rbp), %rax
	movq	560(%rax), %rax
	movq	%rax, -72(%rbp)
	movq	-24(%rbp), %rax
	addq	$104, %rax
	movq	%rax, -24(%rbp)
.LBB14_1:                               # %for.cond
                                        # =>This Inner Loop Header: Depth=1
	movq	-24(%rbp), %rax
	movq	-72(%rbp), %rcx
	cmpq	%rcx, %rax
	jae	.LBB14_16
# %bb.2:                                # %for.body
                                        #   in Loop: Header=BB14_1 Depth=1
	movq	-24(%rbp), %rax
	movq	48(%rax), %rax
	movq	%rax, -48(%rbp)
	movq	-24(%rbp), %rax
	movq	80(%rax), %rax
	movq	%rax, -32(%rbp)
	movq	-48(%rbp), %rax
	cmpq	-64(%rbp), %rax
	jb	.LBB14_10
# %bb.3:                                # %land.lhs.true
                                        #   in Loop: Header=BB14_1 Depth=1
	movq	-48(%rbp), %rax
	cmpq	-80(%rbp), %rax
	jae	.LBB14_10
# %bb.4:                                # %if.then
                                        #   in Loop: Header=BB14_1 Depth=1
	cmpq	$0, -32(%rbp)
	jl	.LBB14_6
# %bb.5:                                # %cond.true
                                        #   in Loop: Header=BB14_1 Depth=1
	movq	-32(%rbp), %rax
	jmp	.LBB14_7
.LBB14_6:                               # %cond.false
                                        #   in Loop: Header=BB14_1 Depth=1
	xorl	%eax, %eax
	subq	-32(%rbp), %rax
.LBB14_7:                               # %cond.end
                                        #   in Loop: Header=BB14_1 Depth=1
	movq	-16(%rbp), %rcx
	cmpq	512(%rcx), %rax
	jle	.LBB14_9
# %bb.8:                                # %if.then7
                                        #   in Loop: Header=BB14_1 Depth=1
	movabsq	$.L.str, %rdi
	movb	$0, %al
	callq	printf
	movq	-24(%rbp), %rax
	movl	96(%rax), %esi
	movq	-32(%rbp), %rdx
	movabsq	$.L.str.1, %rdi
	movb	$0, %al
	callq	printf
.LBB14_9:                               # %if.end
                                        #   in Loop: Header=BB14_1 Depth=1
	jmp	.LBB14_14
.LBB14_10:                              # %if.else
                                        #   in Loop: Header=BB14_1 Depth=1
	xorl	%eax, %eax
	movq	-32(%rbp), %rcx
	movq	-16(%rbp), %rdx
	subq	512(%rdx), %rax
	cmpq	%rax, %rcx
	jl	.LBB14_12
# %bb.11:                               # %lor.lhs.false
                                        #   in Loop: Header=BB14_1 Depth=1
	movq	-32(%rbp), %rax
	subq	$1, %rax
	movq	-16(%rbp), %rcx
	cmpq	512(%rcx), %rax
	jle	.LBB14_13
.LBB14_12:                              # %if.then15
	movabsq	$.L.str, %rdi
	movb	$0, %al
	callq	printf
	movq	-32(%rbp), %rsi
	movabsq	$.L.str.2, %rdi
	movb	$0, %al
	callq	printf
	movq	-16(%rbp), %rax
	movq	$0, 488(%rax)
	movq	$1, -56(%rbp)
	jmp	.LBB14_17
.LBB14_13:                              # %if.end18
                                        #   in Loop: Header=BB14_1 Depth=1
	jmp	.LBB14_14
.LBB14_14:                              # %if.end19
                                        #   in Loop: Header=BB14_1 Depth=1
	jmp	.LBB14_15
.LBB14_15:                              # %for.inc
                                        #   in Loop: Header=BB14_1 Depth=1
	movq	-24(%rbp), %rax
	addq	$104, %rax
	movq	%rax, -24(%rbp)
	jmp	.LBB14_1
.LBB14_16:                              # %for.end
	movq	-16(%rbp), %rax
	movq	$1, 488(%rax)
	movq	$0, -56(%rbp)
.LBB14_17:                              # %return
	movq	-56(%rbp), %rbx
	cmpl	$1117693924, -36(%rbp)  # imm = 0x429EA7E4
	jne	.LBB14_19
.LBB14_18:
	movq	%rbx, %rax
	addq	$72, %rsp
	popq	%rbx
	popq	%rbp
	.cfi_def_cfa %rsp, 8
	retq
.LBB14_19:                              # %func_exit
	.cfi_def_cfa %rbp, 16
	callq	detect_breach
	jmp	.LBB14_18
.Lfunc_end14:
	.size	primal_feasible.8, .Lfunc_end14-primal_feasible.8
	.cfi_endproc
                                        # -- End function
	.globl	flow_cost.9             # -- Begin function flow_cost.9
	.p2align	4, 0x90
	.type	flow_cost.9,@function
flow_cost.9:                            # @flow_cost.9
	.cfi_startproc
# %bb.0:                                # %entry
	pushq	%rbp
	.cfi_def_cfa_offset 16
	.cfi_offset %rbp, -16
	movq	%rsp, %rbp
	.cfi_def_cfa_register %rbp
	subq	$64, %rsp
	movl	$1608110500, -52(%rbp)  # imm = 0x5FD9D1A4
	movq	%rdi, -16(%rbp)
	movq	$0, -48(%rbp)
	movq	$0, -32(%rbp)
	movq	-16(%rbp), %rax
	movq	576(%rax), %rax
	movq	%rax, -40(%rbp)
	movq	-16(%rbp), %rax
	movq	568(%rax), %rax
	movq	%rax, -8(%rbp)
.LBB15_1:                               # %for.cond
                                        # =>This Inner Loop Header: Depth=1
	movq	-8(%rbp), %rax
	movq	-40(%rbp), %rcx
	cmpq	%rcx, %rax
	je	.LBB15_7
# %bb.2:                                # %for.body
                                        #   in Loop: Header=BB15_1 Depth=1
	movq	-8(%rbp), %rax
	cmpl	$2, 24(%rax)
	jne	.LBB15_4
# %bb.3:                                # %if.then
                                        #   in Loop: Header=BB15_1 Depth=1
	movq	-8(%rbp), %rax
	movq	$1, 48(%rax)
	jmp	.LBB15_5
.LBB15_4:                               # %if.else
                                        #   in Loop: Header=BB15_1 Depth=1
	movq	-8(%rbp), %rax
	movq	$0, 48(%rax)
.LBB15_5:                               # %if.end
                                        #   in Loop: Header=BB15_1 Depth=1
	jmp	.LBB15_6
.LBB15_6:                               # %for.inc
                                        #   in Loop: Header=BB15_1 Depth=1
	movq	-8(%rbp), %rax
	addq	$64, %rax
	movq	%rax, -8(%rbp)
	jmp	.LBB15_1
.LBB15_7:                               # %for.end
	movq	-16(%rbp), %rax
	movq	560(%rax), %rax
	movq	%rax, -40(%rbp)
	movq	-16(%rbp), %rax
	movq	552(%rax), %rax
	movq	%rax, -24(%rbp)
	movq	-24(%rbp), %rax
	addq	$104, %rax
	movq	%rax, -24(%rbp)
.LBB15_8:                               # %for.cond4
                                        # =>This Inner Loop Header: Depth=1
	movq	-24(%rbp), %rax
	movq	-40(%rbp), %rcx
	cmpq	%rcx, %rax
	je	.LBB15_11
# %bb.9:                                # %for.body6
                                        #   in Loop: Header=BB15_8 Depth=1
	movq	-24(%rbp), %rax
	movq	80(%rax), %rax
	movq	-24(%rbp), %rcx
	movq	48(%rcx), %rcx
	movq	%rax, 48(%rcx)
# %bb.10:                               # %for.inc9
                                        #   in Loop: Header=BB15_8 Depth=1
	movq	-24(%rbp), %rax
	addq	$104, %rax
	movq	%rax, -24(%rbp)
	jmp	.LBB15_8
.LBB15_11:                              # %for.end11
	movq	-16(%rbp), %rax
	movq	576(%rax), %rax
	movq	%rax, -40(%rbp)
	movq	-16(%rbp), %rax
	movq	568(%rax), %rax
	movq	%rax, -8(%rbp)
.LBB15_12:                              # %for.cond14
                                        # =>This Inner Loop Header: Depth=1
	movq	-8(%rbp), %rax
	movq	-40(%rbp), %rcx
	cmpq	%rcx, %rax
	je	.LBB15_23
# %bb.13:                               # %for.body16
                                        #   in Loop: Header=BB15_12 Depth=1
	movq	-8(%rbp), %rax
	cmpq	$0, 48(%rax)
	je	.LBB15_21
# %bb.14:                               # %if.then18
                                        #   in Loop: Header=BB15_12 Depth=1
	movq	-8(%rbp), %rax
	movq	8(%rax), %rax
	cmpl	$0, 96(%rax)
	jge	.LBB15_16
# %bb.15:                               # %land.lhs.true
                                        #   in Loop: Header=BB15_12 Depth=1
	movq	-8(%rbp), %rax
	movq	16(%rax), %rax
	cmpl	$0, 96(%rax)
	jg	.LBB15_20
.LBB15_16:                              # %if.then22
                                        #   in Loop: Header=BB15_12 Depth=1
	movq	-8(%rbp), %rax
	movq	8(%rax), %rax
	cmpl	$0, 96(%rax)
	jne	.LBB15_18
# %bb.17:                               # %if.then26
                                        #   in Loop: Header=BB15_12 Depth=1
	movq	-8(%rbp), %rax
	movq	(%rax), %rax
	movq	-16(%rbp), %rcx
	subq	528(%rcx), %rax
	addq	-32(%rbp), %rax
	movq	%rax, -32(%rbp)
	movq	-48(%rbp), %rax
	addq	$1, %rax
	movq	%rax, -48(%rbp)
	jmp	.LBB15_19
.LBB15_18:                              # %if.else27
                                        #   in Loop: Header=BB15_12 Depth=1
	movq	-8(%rbp), %rax
	movq	(%rax), %rax
	addq	-32(%rbp), %rax
	movq	%rax, -32(%rbp)
.LBB15_19:                              # %if.end30
                                        #   in Loop: Header=BB15_12 Depth=1
	jmp	.LBB15_20
.LBB15_20:                              # %if.end31
                                        #   in Loop: Header=BB15_12 Depth=1
	jmp	.LBB15_21
.LBB15_21:                              # %if.end32
                                        #   in Loop: Header=BB15_12 Depth=1
	jmp	.LBB15_22
.LBB15_22:                              # %for.inc33
                                        #   in Loop: Header=BB15_12 Depth=1
	movq	-8(%rbp), %rax
	addq	$64, %rax
	movq	%rax, -8(%rbp)
	jmp	.LBB15_12
.LBB15_23:                              # %for.end35
	vcvtsi2sdq	-48(%rbp), %xmm0, %xmm0
	movq	-16(%rbp), %rax
	vcvtsi2sdq	528(%rax), %xmm0, %xmm1
	vmulsd	%xmm1, %xmm0, %xmm0
	vcvtsi2sdq	-32(%rbp), %xmm0, %xmm1
	vaddsd	%xmm1, %xmm0, %xmm0
	cmpl	$1608110500, -52(%rbp)  # imm = 0x5FD9D1A4
	jne	.LBB15_25
.LBB15_24:
	addq	$64, %rsp
	popq	%rbp
	.cfi_def_cfa %rsp, 8
	retq
.LBB15_25:                              # %func_exit
	.cfi_def_cfa %rbp, 16
	vmovsd	%xmm0, -64(%rbp)        # 8-byte Spill
	callq	detect_breach
	vmovsd	-64(%rbp), %xmm0        # 8-byte Reload
                                        # xmm0 = mem[0],zero
	jmp	.LBB15_24
.Lfunc_end15:
	.size	flow_cost.9, .Lfunc_end15-flow_cost.9
	.cfi_endproc
                                        # -- End function
	.globl	dual_feasible.10        # -- Begin function dual_feasible.10
	.p2align	4, 0x90
	.type	dual_feasible.10,@function
dual_feasible.10:                       # @dual_feasible.10
	.cfi_startproc
# %bb.0:                                # %entry
	pushq	%rbp
	.cfi_def_cfa_offset 16
	.cfi_offset %rbp, -16
	movq	%rsp, %rbp
	.cfi_def_cfa_register %rbp
	pushq	%rbx
	subq	$56, %rsp
	.cfi_offset %rbx, -24
	movl	$624668543, -28(%rbp)   # imm = 0x253BAF7F
	movq	%rdi, -24(%rbp)
	movq	-24(%rbp), %rax
	movq	576(%rax), %rax
	movq	%rax, -56(%rbp)
	movq	-24(%rbp), %rax
	movq	568(%rax), %rax
	movq	%rax, -16(%rbp)
.LBB16_1:                               # %for.cond
                                        # =>This Inner Loop Header: Depth=1
	movq	-16(%rbp), %rax
	cmpq	-56(%rbp), %rax
	jae	.LBB16_15
# %bb.2:                                # %for.body
                                        #   in Loop: Header=BB16_1 Depth=1
	movq	-16(%rbp), %rax
	movq	(%rax), %rcx
	movq	8(%rax), %rdx
	movq	(%rdx), %rdx
	subq	%rdx, %rcx
	movq	16(%rax), %rax
	movq	(%rax), %rax
	addq	%rax, %rcx
	movq	%rcx, -48(%rbp)
	movq	-16(%rbp), %rax
	movl	24(%rax), %eax
	movl	%eax, %ecx
	subl	$-1, %ecx
	je	.LBB16_11
	jmp	.LBB16_3
.LBB16_3:                               # %for.body
                                        #   in Loop: Header=BB16_1 Depth=1
	movl	%eax, %ecx
	subl	$2, %ecx
	jb	.LBB16_5
	jmp	.LBB16_4
.LBB16_4:                               # %for.body
                                        #   in Loop: Header=BB16_1 Depth=1
	subl	$2, %eax
	je	.LBB16_8
	jmp	.LBB16_12
.LBB16_5:                               # %sw.bb
                                        #   in Loop: Header=BB16_1 Depth=1
	xorl	%eax, %eax
	movq	-48(%rbp), %rcx
	movq	-24(%rbp), %rdx
	subq	512(%rdx), %rax
	cmpq	%rax, %rcx
	jge	.LBB16_7
# %bb.6:                                # %if.then
	jmp	.LBB16_16
.LBB16_7:                               # %if.end
                                        #   in Loop: Header=BB16_1 Depth=1
	jmp	.LBB16_13
.LBB16_8:                               # %sw.bb4
                                        #   in Loop: Header=BB16_1 Depth=1
	movq	-48(%rbp), %rax
	movq	-24(%rbp), %rcx
	cmpq	512(%rcx), %rax
	jle	.LBB16_10
# %bb.9:                                # %if.then7
	jmp	.LBB16_16
.LBB16_10:                              # %if.end8
                                        #   in Loop: Header=BB16_1 Depth=1
	jmp	.LBB16_13
.LBB16_11:                              # %sw.bb9
                                        #   in Loop: Header=BB16_1 Depth=1
	jmp	.LBB16_12
.LBB16_12:                              # %sw.default
                                        #   in Loop: Header=BB16_1 Depth=1
	jmp	.LBB16_13
.LBB16_13:                              # %sw.epilog
                                        #   in Loop: Header=BB16_1 Depth=1
	jmp	.LBB16_14
.LBB16_14:                              # %for.inc
                                        #   in Loop: Header=BB16_1 Depth=1
	movq	-16(%rbp), %rax
	addq	$64, %rax
	movq	%rax, -16(%rbp)
	jmp	.LBB16_1
.LBB16_15:                              # %for.end
	movq	$0, -40(%rbp)
	jmp	.LBB16_17
.LBB16_16:                              # %DUAL_INFEAS
	movq	stderr, %rdi
	movabsq	$.L.str.3, %rsi
	movb	$0, %al
	callq	fprintf
	movq	stderr, %rdi
	movabsq	$.L.str.4, %rsi
	movb	$0, %al
	callq	fprintf
	movq	$1, -40(%rbp)
.LBB16_17:                              # %return
	movq	-40(%rbp), %rbx
	cmpl	$624668543, -28(%rbp)   # imm = 0x253BAF7F
	jne	.LBB16_19
.LBB16_18:
	movq	%rbx, %rax
	addq	$56, %rsp
	popq	%rbx
	popq	%rbp
	.cfi_def_cfa %rsp, 8
	retq
.LBB16_19:                              # %func_exit
	.cfi_def_cfa %rbp, 16
	callq	detect_breach
	jmp	.LBB16_18
.Lfunc_end16:
	.size	dual_feasible.10, .Lfunc_end16-dual_feasible.10
	.cfi_endproc
                                        # -- End function
	.globl	primal_feasible.11      # -- Begin function primal_feasible.11
	.p2align	4, 0x90
	.type	primal_feasible.11,@function
primal_feasible.11:                     # @primal_feasible.11
	.cfi_startproc
# %bb.0:                                # %entry
	pushq	%rbp
	.cfi_def_cfa_offset 16
	.cfi_offset %rbp, -16
	movq	%rsp, %rbp
	.cfi_def_cfa_register %rbp
	pushq	%rbx
	subq	$72, %rsp
	.cfi_offset %rbx, -24
	movl	$1164773719, -36(%rbp)  # imm = 0x456D0957
	movq	%rdi, -16(%rbp)
	movq	-16(%rbp), %rax
	movq	584(%rax), %rax
	movq	%rax, -80(%rbp)
	movq	-16(%rbp), %rax
	movq	592(%rax), %rax
	movq	%rax, -72(%rbp)
	movq	-16(%rbp), %rax
	movq	552(%rax), %rax
	movq	%rax, -24(%rbp)
	movq	-16(%rbp), %rax
	movq	560(%rax), %rax
	movq	%rax, -64(%rbp)
	movq	-24(%rbp), %rax
	addq	$104, %rax
	movq	%rax, -24(%rbp)
.LBB17_1:                               # %for.cond
                                        # =>This Inner Loop Header: Depth=1
	movq	-24(%rbp), %rax
	movq	-64(%rbp), %rcx
	cmpq	%rcx, %rax
	jae	.LBB17_16
# %bb.2:                                # %for.body
                                        #   in Loop: Header=BB17_1 Depth=1
	movq	-24(%rbp), %rax
	movq	48(%rax), %rax
	movq	%rax, -48(%rbp)
	movq	-24(%rbp), %rax
	movq	80(%rax), %rax
	movq	%rax, -32(%rbp)
	movq	-48(%rbp), %rax
	cmpq	-80(%rbp), %rax
	jb	.LBB17_10
# %bb.3:                                # %land.lhs.true
                                        #   in Loop: Header=BB17_1 Depth=1
	movq	-48(%rbp), %rax
	cmpq	-72(%rbp), %rax
	jae	.LBB17_10
# %bb.4:                                # %if.then
                                        #   in Loop: Header=BB17_1 Depth=1
	cmpq	$0, -32(%rbp)
	jl	.LBB17_6
# %bb.5:                                # %cond.true
                                        #   in Loop: Header=BB17_1 Depth=1
	movq	-32(%rbp), %rax
	jmp	.LBB17_7
.LBB17_6:                               # %cond.false
                                        #   in Loop: Header=BB17_1 Depth=1
	xorl	%eax, %eax
	subq	-32(%rbp), %rax
.LBB17_7:                               # %cond.end
                                        #   in Loop: Header=BB17_1 Depth=1
	movq	-16(%rbp), %rcx
	cmpq	512(%rcx), %rax
	jle	.LBB17_9
# %bb.8:                                # %if.then7
                                        #   in Loop: Header=BB17_1 Depth=1
	movabsq	$.L.str, %rdi
	movb	$0, %al
	callq	printf
	movq	-24(%rbp), %rax
	movl	96(%rax), %esi
	movq	-32(%rbp), %rdx
	movabsq	$.L.str.1, %rdi
	movb	$0, %al
	callq	printf
.LBB17_9:                               # %if.end
                                        #   in Loop: Header=BB17_1 Depth=1
	jmp	.LBB17_14
.LBB17_10:                              # %if.else
                                        #   in Loop: Header=BB17_1 Depth=1
	xorl	%eax, %eax
	movq	-32(%rbp), %rcx
	movq	-16(%rbp), %rdx
	subq	512(%rdx), %rax
	cmpq	%rax, %rcx
	jl	.LBB17_12
# %bb.11:                               # %lor.lhs.false
                                        #   in Loop: Header=BB17_1 Depth=1
	movq	-32(%rbp), %rax
	subq	$1, %rax
	movq	-16(%rbp), %rcx
	cmpq	512(%rcx), %rax
	jle	.LBB17_13
.LBB17_12:                              # %if.then15
	movabsq	$.L.str, %rdi
	movb	$0, %al
	callq	printf
	movq	-32(%rbp), %rsi
	movabsq	$.L.str.2, %rdi
	movb	$0, %al
	callq	printf
	movq	-16(%rbp), %rax
	movq	$0, 488(%rax)
	movq	$1, -56(%rbp)
	jmp	.LBB17_17
.LBB17_13:                              # %if.end18
                                        #   in Loop: Header=BB17_1 Depth=1
	jmp	.LBB17_14
.LBB17_14:                              # %if.end19
                                        #   in Loop: Header=BB17_1 Depth=1
	jmp	.LBB17_15
.LBB17_15:                              # %for.inc
                                        #   in Loop: Header=BB17_1 Depth=1
	movq	-24(%rbp), %rax
	addq	$104, %rax
	movq	%rax, -24(%rbp)
	jmp	.LBB17_1
.LBB17_16:                              # %for.end
	movq	-16(%rbp), %rax
	movq	$1, 488(%rax)
	movq	$0, -56(%rbp)
.LBB17_17:                              # %return
	movq	-56(%rbp), %rbx
	cmpl	$1164773719, -36(%rbp)  # imm = 0x456D0957
	jne	.LBB17_19
.LBB17_18:
	movq	%rbx, %rax
	addq	$72, %rsp
	popq	%rbx
	popq	%rbp
	.cfi_def_cfa %rsp, 8
	retq
.LBB17_19:                              # %func_exit
	.cfi_def_cfa %rbp, 16
	callq	detect_breach
	jmp	.LBB17_18
.Lfunc_end17:
	.size	primal_feasible.11, .Lfunc_end17-primal_feasible.11
	.cfi_endproc
                                        # -- End function
	.globl	flow_org_cost.12        # -- Begin function flow_org_cost.12
	.p2align	4, 0x90
	.type	flow_org_cost.12,@function
flow_org_cost.12:                       # @flow_org_cost.12
	.cfi_startproc
# %bb.0:                                # %entry
	pushq	%rbp
	.cfi_def_cfa_offset 16
	.cfi_offset %rbp, -16
	movq	%rsp, %rbp
	.cfi_def_cfa_register %rbp
	subq	$64, %rsp
	movl	$1839902941, -52(%rbp)  # imm = 0x6DAAB0DD
	movq	%rdi, -16(%rbp)
	movq	$0, -48(%rbp)
	movq	$0, -32(%rbp)
	movq	-16(%rbp), %rax
	movq	576(%rax), %rax
	movq	%rax, -40(%rbp)
	movq	-16(%rbp), %rax
	movq	568(%rax), %rax
	movq	%rax, -8(%rbp)
.LBB18_1:                               # %for.cond
                                        # =>This Inner Loop Header: Depth=1
	movq	-8(%rbp), %rax
	movq	-40(%rbp), %rcx
	cmpq	%rcx, %rax
	je	.LBB18_7
# %bb.2:                                # %for.body
                                        #   in Loop: Header=BB18_1 Depth=1
	movq	-8(%rbp), %rax
	cmpl	$2, 24(%rax)
	jne	.LBB18_4
# %bb.3:                                # %if.then
                                        #   in Loop: Header=BB18_1 Depth=1
	movq	-8(%rbp), %rax
	movq	$1, 48(%rax)
	jmp	.LBB18_5
.LBB18_4:                               # %if.else
                                        #   in Loop: Header=BB18_1 Depth=1
	movq	-8(%rbp), %rax
	movq	$0, 48(%rax)
.LBB18_5:                               # %if.end
                                        #   in Loop: Header=BB18_1 Depth=1
	jmp	.LBB18_6
.LBB18_6:                               # %for.inc
                                        #   in Loop: Header=BB18_1 Depth=1
	movq	-8(%rbp), %rax
	addq	$64, %rax
	movq	%rax, -8(%rbp)
	jmp	.LBB18_1
.LBB18_7:                               # %for.end
	movq	-16(%rbp), %rax
	movq	560(%rax), %rax
	movq	%rax, -40(%rbp)
	movq	-16(%rbp), %rax
	movq	552(%rax), %rax
	movq	%rax, -24(%rbp)
	movq	-24(%rbp), %rax
	addq	$104, %rax
	movq	%rax, -24(%rbp)
.LBB18_8:                               # %for.cond4
                                        # =>This Inner Loop Header: Depth=1
	movq	-24(%rbp), %rax
	movq	-40(%rbp), %rcx
	cmpq	%rcx, %rax
	je	.LBB18_11
# %bb.9:                                # %for.body6
                                        #   in Loop: Header=BB18_8 Depth=1
	movq	-24(%rbp), %rax
	movq	80(%rax), %rax
	movq	-24(%rbp), %rcx
	movq	48(%rcx), %rcx
	movq	%rax, 48(%rcx)
# %bb.10:                               # %for.inc9
                                        #   in Loop: Header=BB18_8 Depth=1
	movq	-24(%rbp), %rax
	addq	$104, %rax
	movq	%rax, -24(%rbp)
	jmp	.LBB18_8
.LBB18_11:                              # %for.end11
	movq	-16(%rbp), %rax
	movq	576(%rax), %rax
	movq	%rax, -40(%rbp)
	movq	-16(%rbp), %rax
	movq	568(%rax), %rax
	movq	%rax, -8(%rbp)
.LBB18_12:                              # %for.cond14
                                        # =>This Inner Loop Header: Depth=1
	movq	-8(%rbp), %rax
	movq	-40(%rbp), %rcx
	cmpq	%rcx, %rax
	je	.LBB18_23
# %bb.13:                               # %for.body16
                                        #   in Loop: Header=BB18_12 Depth=1
	movq	-8(%rbp), %rax
	cmpq	$0, 48(%rax)
	je	.LBB18_21
# %bb.14:                               # %if.then18
                                        #   in Loop: Header=BB18_12 Depth=1
	movq	-8(%rbp), %rax
	movq	8(%rax), %rax
	cmpl	$0, 96(%rax)
	jge	.LBB18_16
# %bb.15:                               # %land.lhs.true
                                        #   in Loop: Header=BB18_12 Depth=1
	movq	-8(%rbp), %rax
	movq	16(%rax), %rax
	cmpl	$0, 96(%rax)
	jg	.LBB18_20
.LBB18_16:                              # %if.then22
                                        #   in Loop: Header=BB18_12 Depth=1
	movq	-8(%rbp), %rax
	movq	8(%rax), %rax
	cmpl	$0, 96(%rax)
	jne	.LBB18_18
# %bb.17:                               # %if.then26
                                        #   in Loop: Header=BB18_12 Depth=1
	movq	-8(%rbp), %rax
	movq	56(%rax), %rax
	movq	-16(%rbp), %rcx
	subq	528(%rcx), %rax
	addq	-32(%rbp), %rax
	movq	%rax, -32(%rbp)
	movq	-48(%rbp), %rax
	addq	$1, %rax
	movq	%rax, -48(%rbp)
	jmp	.LBB18_19
.LBB18_18:                              # %if.else27
                                        #   in Loop: Header=BB18_12 Depth=1
	movq	-8(%rbp), %rax
	movq	56(%rax), %rax
	addq	-32(%rbp), %rax
	movq	%rax, -32(%rbp)
.LBB18_19:                              # %if.end30
                                        #   in Loop: Header=BB18_12 Depth=1
	jmp	.LBB18_20
.LBB18_20:                              # %if.end31
                                        #   in Loop: Header=BB18_12 Depth=1
	jmp	.LBB18_21
.LBB18_21:                              # %if.end32
                                        #   in Loop: Header=BB18_12 Depth=1
	jmp	.LBB18_22
.LBB18_22:                              # %for.inc33
                                        #   in Loop: Header=BB18_12 Depth=1
	movq	-8(%rbp), %rax
	addq	$64, %rax
	movq	%rax, -8(%rbp)
	jmp	.LBB18_12
.LBB18_23:                              # %for.end35
	vcvtsi2sdq	-48(%rbp), %xmm0, %xmm0
	movq	-16(%rbp), %rax
	vcvtsi2sdq	528(%rax), %xmm0, %xmm1
	vmulsd	%xmm1, %xmm0, %xmm0
	vcvtsi2sdq	-32(%rbp), %xmm0, %xmm1
	vaddsd	%xmm1, %xmm0, %xmm0
	cmpl	$1839902941, -52(%rbp)  # imm = 0x6DAAB0DD
	jne	.LBB18_25
.LBB18_24:
	addq	$64, %rsp
	popq	%rbp
	.cfi_def_cfa %rsp, 8
	retq
.LBB18_25:                              # %func_exit
	.cfi_def_cfa %rbp, 16
	vmovsd	%xmm0, -64(%rbp)        # 8-byte Spill
	callq	detect_breach
	vmovsd	-64(%rbp), %xmm0        # 8-byte Reload
                                        # xmm0 = mem[0],zero
	jmp	.LBB18_24
.Lfunc_end18:
	.size	flow_org_cost.12, .Lfunc_end18-flow_org_cost.12
	.cfi_endproc
                                        # -- End function
	.globl	primal_feasible.13      # -- Begin function primal_feasible.13
	.p2align	4, 0x90
	.type	primal_feasible.13,@function
primal_feasible.13:                     # @primal_feasible.13
	.cfi_startproc
# %bb.0:                                # %entry
	pushq	%rbp
	.cfi_def_cfa_offset 16
	.cfi_offset %rbp, -16
	movq	%rsp, %rbp
	.cfi_def_cfa_register %rbp
	pushq	%rbx
	subq	$72, %rsp
	.cfi_offset %rbx, -24
	movl	$1484246396, -36(%rbp)  # imm = 0x5877CD7C
	movq	%rdi, -16(%rbp)
	movq	-16(%rbp), %rax
	movq	584(%rax), %rax
	movq	%rax, -80(%rbp)
	movq	-16(%rbp), %rax
	movq	592(%rax), %rax
	movq	%rax, -64(%rbp)
	movq	-16(%rbp), %rax
	movq	552(%rax), %rax
	movq	%rax, -24(%rbp)
	movq	-16(%rbp), %rax
	movq	560(%rax), %rax
	movq	%rax, -72(%rbp)
	movq	-24(%rbp), %rax
	addq	$104, %rax
	movq	%rax, -24(%rbp)
.LBB19_1:                               # %for.cond
                                        # =>This Inner Loop Header: Depth=1
	movq	-24(%rbp), %rax
	movq	-72(%rbp), %rcx
	cmpq	%rcx, %rax
	jae	.LBB19_16
# %bb.2:                                # %for.body
                                        #   in Loop: Header=BB19_1 Depth=1
	movq	-24(%rbp), %rax
	movq	48(%rax), %rax
	movq	%rax, -56(%rbp)
	movq	-24(%rbp), %rax
	movq	80(%rax), %rax
	movq	%rax, -32(%rbp)
	movq	-56(%rbp), %rax
	cmpq	-80(%rbp), %rax
	jb	.LBB19_10
# %bb.3:                                # %land.lhs.true
                                        #   in Loop: Header=BB19_1 Depth=1
	movq	-56(%rbp), %rax
	cmpq	-64(%rbp), %rax
	jae	.LBB19_10
# %bb.4:                                # %if.then
                                        #   in Loop: Header=BB19_1 Depth=1
	cmpq	$0, -32(%rbp)
	jl	.LBB19_6
# %bb.5:                                # %cond.true
                                        #   in Loop: Header=BB19_1 Depth=1
	movq	-32(%rbp), %rax
	jmp	.LBB19_7
.LBB19_6:                               # %cond.false
                                        #   in Loop: Header=BB19_1 Depth=1
	xorl	%eax, %eax
	subq	-32(%rbp), %rax
.LBB19_7:                               # %cond.end
                                        #   in Loop: Header=BB19_1 Depth=1
	movq	-16(%rbp), %rcx
	cmpq	512(%rcx), %rax
	jle	.LBB19_9
# %bb.8:                                # %if.then7
                                        #   in Loop: Header=BB19_1 Depth=1
	movabsq	$.L.str, %rdi
	movb	$0, %al
	callq	printf
	movq	-24(%rbp), %rax
	movl	96(%rax), %esi
	movq	-32(%rbp), %rdx
	movabsq	$.L.str.1, %rdi
	movb	$0, %al
	callq	printf
.LBB19_9:                               # %if.end
                                        #   in Loop: Header=BB19_1 Depth=1
	jmp	.LBB19_14
.LBB19_10:                              # %if.else
                                        #   in Loop: Header=BB19_1 Depth=1
	xorl	%eax, %eax
	movq	-32(%rbp), %rcx
	movq	-16(%rbp), %rdx
	subq	512(%rdx), %rax
	cmpq	%rax, %rcx
	jl	.LBB19_12
# %bb.11:                               # %lor.lhs.false
                                        #   in Loop: Header=BB19_1 Depth=1
	movq	-32(%rbp), %rax
	subq	$1, %rax
	movq	-16(%rbp), %rcx
	cmpq	512(%rcx), %rax
	jle	.LBB19_13
.LBB19_12:                              # %if.then15
	movabsq	$.L.str, %rdi
	movb	$0, %al
	callq	printf
	movq	-32(%rbp), %rsi
	movabsq	$.L.str.2, %rdi
	movb	$0, %al
	callq	printf
	movq	-16(%rbp), %rax
	movq	$0, 488(%rax)
	movq	$1, -48(%rbp)
	jmp	.LBB19_17
.LBB19_13:                              # %if.end18
                                        #   in Loop: Header=BB19_1 Depth=1
	jmp	.LBB19_14
.LBB19_14:                              # %if.end19
                                        #   in Loop: Header=BB19_1 Depth=1
	jmp	.LBB19_15
.LBB19_15:                              # %for.inc
                                        #   in Loop: Header=BB19_1 Depth=1
	movq	-24(%rbp), %rax
	addq	$104, %rax
	movq	%rax, -24(%rbp)
	jmp	.LBB19_1
.LBB19_16:                              # %for.end
	movq	-16(%rbp), %rax
	movq	$1, 488(%rax)
	movq	$0, -48(%rbp)
.LBB19_17:                              # %return
	movq	-48(%rbp), %rbx
	cmpl	$1484246396, -36(%rbp)  # imm = 0x5877CD7C
	jne	.LBB19_19
.LBB19_18:
	movq	%rbx, %rax
	addq	$72, %rsp
	popq	%rbx
	popq	%rbp
	.cfi_def_cfa %rsp, 8
	retq
.LBB19_19:                              # %func_exit
	.cfi_def_cfa %rbp, 16
	callq	detect_breach
	jmp	.LBB19_18
.Lfunc_end19:
	.size	primal_feasible.13, .Lfunc_end19-primal_feasible.13
	.cfi_endproc
                                        # -- End function
	.globl	refresh_potential.14    # -- Begin function refresh_potential.14
	.p2align	4, 0x90
	.type	refresh_potential.14,@function
refresh_potential.14:                   # @refresh_potential.14
	.cfi_startproc
# %bb.0:                                # %entry
	pushq	%rbp
	.cfi_def_cfa_offset 16
	.cfi_offset %rbp, -16
	movq	%rsp, %rbp
	.cfi_def_cfa_register %rbp
	pushq	%rbx
	subq	$56, %rsp
	.cfi_offset %rbx, -24
	movl	$648067621, -44(%rbp)   # imm = 0x26A0BA25
	movq	%rdi, -56(%rbp)
	movq	-56(%rbp), %rax
	movq	552(%rax), %rax
	movq	%rax, -32(%rbp)
	movq	$0, -40(%rbp)
	movq	-32(%rbp), %rax
	movq	$-100000000, (%rax)     # imm = 0xFA0A1F00
	movq	-32(%rbp), %rax
	movq	16(%rax), %rax
	movq	%rax, -16(%rbp)
	movq	%rax, -24(%rbp)
.LBB20_1:                               # %while.cond
                                        # =>This Loop Header: Depth=1
                                        #     Child Loop BB20_3 Depth 2
                                        #     Child Loop BB20_9 Depth 2
	movq	-16(%rbp), %rax
	cmpq	-32(%rbp), %rax
	je	.LBB20_16
# %bb.2:                                # %while.body
                                        #   in Loop: Header=BB20_1 Depth=1
	jmp	.LBB20_3
.LBB20_3:                               # %while.cond1
                                        #   Parent Loop BB20_1 Depth=1
                                        # =>  This Inner Loop Header: Depth=2
	cmpq	$0, -16(%rbp)
	je	.LBB20_8
# %bb.4:                                # %while.body2
                                        #   in Loop: Header=BB20_3 Depth=2
	movq	-16(%rbp), %rax
	cmpl	$1, 8(%rax)
	jne	.LBB20_6
# %bb.5:                                # %if.then
                                        #   in Loop: Header=BB20_3 Depth=2
	movq	-16(%rbp), %rax
	movq	48(%rax), %rax
	movq	(%rax), %rax
	movq	-16(%rbp), %rcx
	movq	24(%rcx), %rcx
	addq	(%rcx), %rax
	movq	-16(%rbp), %rcx
	movq	%rax, (%rcx)
	jmp	.LBB20_7
.LBB20_6:                               # %if.else
                                        #   in Loop: Header=BB20_3 Depth=2
	movq	-16(%rbp), %rax
	movq	24(%rax), %rax
	movq	(%rax), %rax
	movq	-16(%rbp), %rcx
	movq	48(%rcx), %rcx
	subq	(%rcx), %rax
	movq	-16(%rbp), %rcx
	movq	%rax, (%rcx)
	movq	-40(%rbp), %rax
	addq	$1, %rax
	movq	%rax, -40(%rbp)
.LBB20_7:                               # %if.end
                                        #   in Loop: Header=BB20_3 Depth=2
	movq	-16(%rbp), %rax
	movq	%rax, -24(%rbp)
	movq	-16(%rbp), %rax
	movq	16(%rax), %rax
	movq	%rax, -16(%rbp)
	jmp	.LBB20_3
.LBB20_8:                               # %while.end
                                        #   in Loop: Header=BB20_1 Depth=1
	movq	-24(%rbp), %rax
	movq	%rax, -16(%rbp)
.LBB20_9:                               # %while.cond12
                                        #   Parent Loop BB20_1 Depth=1
                                        # =>  This Inner Loop Header: Depth=2
	movq	-16(%rbp), %rax
	cmpq	$0, 24(%rax)
	je	.LBB20_14
# %bb.10:                               # %while.body15
                                        #   in Loop: Header=BB20_9 Depth=2
	movq	-16(%rbp), %rax
	movq	32(%rax), %rax
	movq	%rax, -24(%rbp)
	cmpq	$0, -24(%rbp)
	je	.LBB20_12
# %bb.11:                               # %if.then17
                                        #   in Loop: Header=BB20_1 Depth=1
	movq	-24(%rbp), %rax
	movq	%rax, -16(%rbp)
	jmp	.LBB20_15
.LBB20_12:                              # %if.else18
                                        #   in Loop: Header=BB20_9 Depth=2
	movq	-16(%rbp), %rax
	movq	24(%rax), %rax
	movq	%rax, -16(%rbp)
# %bb.13:                               # %if.end20
                                        #   in Loop: Header=BB20_9 Depth=2
	jmp	.LBB20_9
.LBB20_14:                              # %while.end21.loopexit
                                        #   in Loop: Header=BB20_1 Depth=1
	jmp	.LBB20_15
.LBB20_15:                              # %while.end21
                                        #   in Loop: Header=BB20_1 Depth=1
	jmp	.LBB20_1
.LBB20_16:                              # %while.end22
	movq	-40(%rbp), %rbx
	cmpl	$648067621, -44(%rbp)   # imm = 0x26A0BA25
	jne	.LBB20_18
.LBB20_17:
	movq	%rbx, %rax
	addq	$56, %rsp
	popq	%rbx
	popq	%rbp
	.cfi_def_cfa %rsp, 8
	retq
.LBB20_18:                              # %func_exit
	.cfi_def_cfa %rbp, 16
	callq	detect_breach
	jmp	.LBB20_17
.Lfunc_end20:
	.size	refresh_potential.14, .Lfunc_end20-refresh_potential.14
	.cfi_endproc
                                        # -- End function
	.globl	primal_feasible.15      # -- Begin function primal_feasible.15
	.p2align	4, 0x90
	.type	primal_feasible.15,@function
primal_feasible.15:                     # @primal_feasible.15
	.cfi_startproc
# %bb.0:                                # %entry
	pushq	%rbp
	.cfi_def_cfa_offset 16
	.cfi_offset %rbp, -16
	movq	%rsp, %rbp
	.cfi_def_cfa_register %rbp
	pushq	%rbx
	subq	$72, %rsp
	.cfi_offset %rbx, -24
	movl	$1661926760, -36(%rbp)  # imm = 0x630EFD68
	movq	%rdi, -16(%rbp)
	movq	-16(%rbp), %rax
	movq	584(%rax), %rax
	movq	%rax, -64(%rbp)
	movq	-16(%rbp), %rax
	movq	592(%rax), %rax
	movq	%rax, -80(%rbp)
	movq	-16(%rbp), %rax
	movq	552(%rax), %rax
	movq	%rax, -24(%rbp)
	movq	-16(%rbp), %rax
	movq	560(%rax), %rax
	movq	%rax, -72(%rbp)
	movq	-24(%rbp), %rax
	addq	$104, %rax
	movq	%rax, -24(%rbp)
.LBB21_1:                               # %for.cond
                                        # =>This Inner Loop Header: Depth=1
	movq	-24(%rbp), %rax
	movq	-72(%rbp), %rcx
	cmpq	%rcx, %rax
	jae	.LBB21_16
# %bb.2:                                # %for.body
                                        #   in Loop: Header=BB21_1 Depth=1
	movq	-24(%rbp), %rax
	movq	48(%rax), %rax
	movq	%rax, -48(%rbp)
	movq	-24(%rbp), %rax
	movq	80(%rax), %rax
	movq	%rax, -32(%rbp)
	movq	-48(%rbp), %rax
	cmpq	-64(%rbp), %rax
	jb	.LBB21_10
# %bb.3:                                # %land.lhs.true
                                        #   in Loop: Header=BB21_1 Depth=1
	movq	-48(%rbp), %rax
	cmpq	-80(%rbp), %rax
	jae	.LBB21_10
# %bb.4:                                # %if.then
                                        #   in Loop: Header=BB21_1 Depth=1
	cmpq	$0, -32(%rbp)
	jl	.LBB21_6
# %bb.5:                                # %cond.true
                                        #   in Loop: Header=BB21_1 Depth=1
	movq	-32(%rbp), %rax
	jmp	.LBB21_7
.LBB21_6:                               # %cond.false
                                        #   in Loop: Header=BB21_1 Depth=1
	xorl	%eax, %eax
	subq	-32(%rbp), %rax
.LBB21_7:                               # %cond.end
                                        #   in Loop: Header=BB21_1 Depth=1
	movq	-16(%rbp), %rcx
	cmpq	512(%rcx), %rax
	jle	.LBB21_9
# %bb.8:                                # %if.then7
                                        #   in Loop: Header=BB21_1 Depth=1
	movabsq	$.L.str, %rdi
	movb	$0, %al
	callq	printf
	movq	-24(%rbp), %rax
	movl	96(%rax), %esi
	movq	-32(%rbp), %rdx
	movabsq	$.L.str.1, %rdi
	movb	$0, %al
	callq	printf
.LBB21_9:                               # %if.end
                                        #   in Loop: Header=BB21_1 Depth=1
	jmp	.LBB21_14
.LBB21_10:                              # %if.else
                                        #   in Loop: Header=BB21_1 Depth=1
	xorl	%eax, %eax
	movq	-32(%rbp), %rcx
	movq	-16(%rbp), %rdx
	subq	512(%rdx), %rax
	cmpq	%rax, %rcx
	jl	.LBB21_12
# %bb.11:                               # %lor.lhs.false
                                        #   in Loop: Header=BB21_1 Depth=1
	movq	-32(%rbp), %rax
	subq	$1, %rax
	movq	-16(%rbp), %rcx
	cmpq	512(%rcx), %rax
	jle	.LBB21_13
.LBB21_12:                              # %if.then15
	movabsq	$.L.str, %rdi
	movb	$0, %al
	callq	printf
	movq	-32(%rbp), %rsi
	movabsq	$.L.str.2, %rdi
	movb	$0, %al
	callq	printf
	movq	-16(%rbp), %rax
	movq	$0, 488(%rax)
	movq	$1, -56(%rbp)
	jmp	.LBB21_17
.LBB21_13:                              # %if.end18
                                        #   in Loop: Header=BB21_1 Depth=1
	jmp	.LBB21_14
.LBB21_14:                              # %if.end19
                                        #   in Loop: Header=BB21_1 Depth=1
	jmp	.LBB21_15
.LBB21_15:                              # %for.inc
                                        #   in Loop: Header=BB21_1 Depth=1
	movq	-24(%rbp), %rax
	addq	$104, %rax
	movq	%rax, -24(%rbp)
	jmp	.LBB21_1
.LBB21_16:                              # %for.end
	movq	-16(%rbp), %rax
	movq	$1, 488(%rax)
	movq	$0, -56(%rbp)
.LBB21_17:                              # %return
	movq	-56(%rbp), %rbx
	cmpl	$1661926760, -36(%rbp)  # imm = 0x630EFD68
	jne	.LBB21_19
.LBB21_18:
	movq	%rbx, %rax
	addq	$72, %rsp
	popq	%rbx
	popq	%rbp
	.cfi_def_cfa %rsp, 8
	retq
.LBB21_19:                              # %func_exit
	.cfi_def_cfa %rbp, 16
	callq	detect_breach
	jmp	.LBB21_18
.Lfunc_end21:
	.size	primal_feasible.15, .Lfunc_end21-primal_feasible.15
	.cfi_endproc
                                        # -- End function
	.globl	refresh_neighbour_lists.16 # -- Begin function refresh_neighbour_lists.16
	.p2align	4, 0x90
	.type	refresh_neighbour_lists.16,@function
refresh_neighbour_lists.16:             # @refresh_neighbour_lists.16
	.cfi_startproc
# %bb.0:                                # %entry
	pushq	%rbp
	.cfi_def_cfa_offset 16
	.cfi_offset %rbp, -16
	movq	%rsp, %rbp
	.cfi_def_cfa_register %rbp
	subq	$48, %rsp
	movl	$2035820995, -36(%rbp)  # imm = 0x795829C3
	movq	%rdi, -24(%rbp)
	movq	-24(%rbp), %rax
	movq	552(%rax), %rax
	movq	%rax, -16(%rbp)
	movq	-24(%rbp), %rax
	movq	560(%rax), %rax
	movq	%rax, -32(%rbp)
.LBB22_1:                               # %for.cond
                                        # =>This Inner Loop Header: Depth=1
	movq	-16(%rbp), %rax
	movq	-32(%rbp), %rcx
	cmpq	%rcx, %rax
	jae	.LBB22_4
# %bb.2:                                # %for.body
                                        #   in Loop: Header=BB22_1 Depth=1
	movq	-16(%rbp), %rax
	movq	$0, 64(%rax)
	movq	-16(%rbp), %rax
	movq	$0, 56(%rax)
# %bb.3:                                # %for.inc
                                        #   in Loop: Header=BB22_1 Depth=1
	movq	-16(%rbp), %rax
	addq	$104, %rax
	movq	%rax, -16(%rbp)
	jmp	.LBB22_1
.LBB22_4:                               # %for.end
	movq	-24(%rbp), %rax
	movq	568(%rax), %rax
	movq	%rax, -8(%rbp)
	movq	-24(%rbp), %rax
	movq	576(%rax), %rax
	movq	%rax, -32(%rbp)
.LBB22_5:                               # %for.cond1
                                        # =>This Inner Loop Header: Depth=1
	movq	-8(%rbp), %rax
	movq	-32(%rbp), %rcx
	cmpq	%rcx, %rax
	jae	.LBB22_8
# %bb.6:                                # %for.body3
                                        #   in Loop: Header=BB22_5 Depth=1
	movq	-8(%rbp), %rax
	movq	8(%rax), %rax
	movq	56(%rax), %rax
	movq	-8(%rbp), %rcx
	movq	%rax, 32(%rcx)
	movq	-8(%rbp), %rax
	movq	-8(%rbp), %rcx
	movq	8(%rcx), %rcx
	movq	%rax, 56(%rcx)
	movq	-8(%rbp), %rax
	movq	16(%rax), %rax
	movq	64(%rax), %rax
	movq	-8(%rbp), %rcx
	movq	%rax, 40(%rcx)
	movq	-8(%rbp), %rax
	movq	-8(%rbp), %rcx
	movq	16(%rcx), %rcx
	movq	%rax, 64(%rcx)
# %bb.7:                                # %for.inc10
                                        #   in Loop: Header=BB22_5 Depth=1
	movq	-8(%rbp), %rax
	addq	$64, %rax
	movq	%rax, -8(%rbp)
	jmp	.LBB22_5
.LBB22_8:                               # %for.end12
	cmpl	$2035820995, -36(%rbp)  # imm = 0x795829C3
	jne	.LBB22_10
.LBB22_9:
	addq	$48, %rsp
	popq	%rbp
	.cfi_def_cfa %rsp, 8
	retq
.LBB22_10:                              # %func_exit
	.cfi_def_cfa %rbp, 16
	callq	detect_breach
	jmp	.LBB22_9
.Lfunc_end22:
	.size	refresh_neighbour_lists.16, .Lfunc_end22-refresh_neighbour_lists.16
	.cfi_endproc
                                        # -- End function
	.globl	flow_org_cost.17        # -- Begin function flow_org_cost.17
	.p2align	4, 0x90
	.type	flow_org_cost.17,@function
flow_org_cost.17:                       # @flow_org_cost.17
	.cfi_startproc
# %bb.0:                                # %entry
	pushq	%rbp
	.cfi_def_cfa_offset 16
	.cfi_offset %rbp, -16
	movq	%rsp, %rbp
	.cfi_def_cfa_register %rbp
	subq	$64, %rsp
	movl	$137161726, -52(%rbp)   # imm = 0x82CEBFE
	movq	%rdi, -16(%rbp)
	movq	$0, -48(%rbp)
	movq	$0, -40(%rbp)
	movq	-16(%rbp), %rax
	movq	576(%rax), %rax
	movq	%rax, -32(%rbp)
	movq	-16(%rbp), %rax
	movq	568(%rax), %rax
	movq	%rax, -8(%rbp)
.LBB23_1:                               # %for.cond
                                        # =>This Inner Loop Header: Depth=1
	movq	-8(%rbp), %rax
	movq	-32(%rbp), %rcx
	cmpq	%rcx, %rax
	je	.LBB23_7
# %bb.2:                                # %for.body
                                        #   in Loop: Header=BB23_1 Depth=1
	movq	-8(%rbp), %rax
	cmpl	$2, 24(%rax)
	jne	.LBB23_4
# %bb.3:                                # %if.then
                                        #   in Loop: Header=BB23_1 Depth=1
	movq	-8(%rbp), %rax
	movq	$1, 48(%rax)
	jmp	.LBB23_5
.LBB23_4:                               # %if.else
                                        #   in Loop: Header=BB23_1 Depth=1
	movq	-8(%rbp), %rax
	movq	$0, 48(%rax)
.LBB23_5:                               # %if.end
                                        #   in Loop: Header=BB23_1 Depth=1
	jmp	.LBB23_6
.LBB23_6:                               # %for.inc
                                        #   in Loop: Header=BB23_1 Depth=1
	movq	-8(%rbp), %rax
	addq	$64, %rax
	movq	%rax, -8(%rbp)
	jmp	.LBB23_1
.LBB23_7:                               # %for.end
	movq	-16(%rbp), %rax
	movq	560(%rax), %rax
	movq	%rax, -32(%rbp)
	movq	-16(%rbp), %rax
	movq	552(%rax), %rax
	movq	%rax, -24(%rbp)
	movq	-24(%rbp), %rax
	addq	$104, %rax
	movq	%rax, -24(%rbp)
.LBB23_8:                               # %for.cond4
                                        # =>This Inner Loop Header: Depth=1
	movq	-24(%rbp), %rax
	movq	-32(%rbp), %rcx
	cmpq	%rcx, %rax
	je	.LBB23_11
# %bb.9:                                # %for.body6
                                        #   in Loop: Header=BB23_8 Depth=1
	movq	-24(%rbp), %rax
	movq	80(%rax), %rax
	movq	-24(%rbp), %rcx
	movq	48(%rcx), %rcx
	movq	%rax, 48(%rcx)
# %bb.10:                               # %for.inc9
                                        #   in Loop: Header=BB23_8 Depth=1
	movq	-24(%rbp), %rax
	addq	$104, %rax
	movq	%rax, -24(%rbp)
	jmp	.LBB23_8
.LBB23_11:                              # %for.end11
	movq	-16(%rbp), %rax
	movq	576(%rax), %rax
	movq	%rax, -32(%rbp)
	movq	-16(%rbp), %rax
	movq	568(%rax), %rax
	movq	%rax, -8(%rbp)
.LBB23_12:                              # %for.cond14
                                        # =>This Inner Loop Header: Depth=1
	movq	-8(%rbp), %rax
	movq	-32(%rbp), %rcx
	cmpq	%rcx, %rax
	je	.LBB23_23
# %bb.13:                               # %for.body16
                                        #   in Loop: Header=BB23_12 Depth=1
	movq	-8(%rbp), %rax
	cmpq	$0, 48(%rax)
	je	.LBB23_21
# %bb.14:                               # %if.then18
                                        #   in Loop: Header=BB23_12 Depth=1
	movq	-8(%rbp), %rax
	movq	8(%rax), %rax
	cmpl	$0, 96(%rax)
	jge	.LBB23_16
# %bb.15:                               # %land.lhs.true
                                        #   in Loop: Header=BB23_12 Depth=1
	movq	-8(%rbp), %rax
	movq	16(%rax), %rax
	cmpl	$0, 96(%rax)
	jg	.LBB23_20
.LBB23_16:                              # %if.then22
                                        #   in Loop: Header=BB23_12 Depth=1
	movq	-8(%rbp), %rax
	movq	8(%rax), %rax
	cmpl	$0, 96(%rax)
	jne	.LBB23_18
# %bb.17:                               # %if.then26
                                        #   in Loop: Header=BB23_12 Depth=1
	movq	-8(%rbp), %rax
	movq	56(%rax), %rax
	movq	-16(%rbp), %rcx
	subq	528(%rcx), %rax
	addq	-40(%rbp), %rax
	movq	%rax, -40(%rbp)
	movq	-48(%rbp), %rax
	addq	$1, %rax
	movq	%rax, -48(%rbp)
	jmp	.LBB23_19
.LBB23_18:                              # %if.else27
                                        #   in Loop: Header=BB23_12 Depth=1
	movq	-8(%rbp), %rax
	movq	56(%rax), %rax
	addq	-40(%rbp), %rax
	movq	%rax, -40(%rbp)
.LBB23_19:                              # %if.end30
                                        #   in Loop: Header=BB23_12 Depth=1
	jmp	.LBB23_20
.LBB23_20:                              # %if.end31
                                        #   in Loop: Header=BB23_12 Depth=1
	jmp	.LBB23_21
.LBB23_21:                              # %if.end32
                                        #   in Loop: Header=BB23_12 Depth=1
	jmp	.LBB23_22
.LBB23_22:                              # %for.inc33
                                        #   in Loop: Header=BB23_12 Depth=1
	movq	-8(%rbp), %rax
	addq	$64, %rax
	movq	%rax, -8(%rbp)
	jmp	.LBB23_12
.LBB23_23:                              # %for.end35
	vcvtsi2sdq	-48(%rbp), %xmm0, %xmm0
	movq	-16(%rbp), %rax
	vcvtsi2sdq	528(%rax), %xmm0, %xmm1
	vmulsd	%xmm1, %xmm0, %xmm0
	vcvtsi2sdq	-40(%rbp), %xmm0, %xmm1
	vaddsd	%xmm1, %xmm0, %xmm0
	cmpl	$137161726, -52(%rbp)   # imm = 0x82CEBFE
	jne	.LBB23_25
.LBB23_24:
	addq	$64, %rsp
	popq	%rbp
	.cfi_def_cfa %rsp, 8
	retq
.LBB23_25:                              # %func_exit
	.cfi_def_cfa %rbp, 16
	vmovsd	%xmm0, -64(%rbp)        # 8-byte Spill
	callq	detect_breach
	vmovsd	-64(%rbp), %xmm0        # 8-byte Reload
                                        # xmm0 = mem[0],zero
	jmp	.LBB23_24
.Lfunc_end23:
	.size	flow_org_cost.17, .Lfunc_end23-flow_org_cost.17
	.cfi_endproc
                                        # -- End function
	.globl	refresh_neighbour_lists.18 # -- Begin function refresh_neighbour_lists.18
	.p2align	4, 0x90
	.type	refresh_neighbour_lists.18,@function
refresh_neighbour_lists.18:             # @refresh_neighbour_lists.18
	.cfi_startproc
# %bb.0:                                # %entry
	pushq	%rbp
	.cfi_def_cfa_offset 16
	.cfi_offset %rbp, -16
	movq	%rsp, %rbp
	.cfi_def_cfa_register %rbp
	subq	$48, %rsp
	movl	$748096023, -36(%rbp)   # imm = 0x2C970A17
	movq	%rdi, -24(%rbp)
	movq	-24(%rbp), %rax
	movq	552(%rax), %rax
	movq	%rax, -16(%rbp)
	movq	-24(%rbp), %rax
	movq	560(%rax), %rax
	movq	%rax, -32(%rbp)
.LBB24_1:                               # %for.cond
                                        # =>This Inner Loop Header: Depth=1
	movq	-16(%rbp), %rax
	movq	-32(%rbp), %rcx
	cmpq	%rcx, %rax
	jae	.LBB24_4
# %bb.2:                                # %for.body
                                        #   in Loop: Header=BB24_1 Depth=1
	movq	-16(%rbp), %rax
	movq	$0, 64(%rax)
	movq	-16(%rbp), %rax
	movq	$0, 56(%rax)
# %bb.3:                                # %for.inc
                                        #   in Loop: Header=BB24_1 Depth=1
	movq	-16(%rbp), %rax
	addq	$104, %rax
	movq	%rax, -16(%rbp)
	jmp	.LBB24_1
.LBB24_4:                               # %for.end
	movq	-24(%rbp), %rax
	movq	568(%rax), %rax
	movq	%rax, -8(%rbp)
	movq	-24(%rbp), %rax
	movq	576(%rax), %rax
	movq	%rax, -32(%rbp)
.LBB24_5:                               # %for.cond1
                                        # =>This Inner Loop Header: Depth=1
	movq	-8(%rbp), %rax
	movq	-32(%rbp), %rcx
	cmpq	%rcx, %rax
	jae	.LBB24_8
# %bb.6:                                # %for.body3
                                        #   in Loop: Header=BB24_5 Depth=1
	movq	-8(%rbp), %rax
	movq	8(%rax), %rax
	movq	56(%rax), %rax
	movq	-8(%rbp), %rcx
	movq	%rax, 32(%rcx)
	movq	-8(%rbp), %rax
	movq	-8(%rbp), %rcx
	movq	8(%rcx), %rcx
	movq	%rax, 56(%rcx)
	movq	-8(%rbp), %rax
	movq	16(%rax), %rax
	movq	64(%rax), %rax
	movq	-8(%rbp), %rcx
	movq	%rax, 40(%rcx)
	movq	-8(%rbp), %rax
	movq	-8(%rbp), %rcx
	movq	16(%rcx), %rcx
	movq	%rax, 64(%rcx)
# %bb.7:                                # %for.inc10
                                        #   in Loop: Header=BB24_5 Depth=1
	movq	-8(%rbp), %rax
	addq	$64, %rax
	movq	%rax, -8(%rbp)
	jmp	.LBB24_5
.LBB24_8:                               # %for.end12
	cmpl	$748096023, -36(%rbp)   # imm = 0x2C970A17
	jne	.LBB24_10
.LBB24_9:
	addq	$48, %rsp
	popq	%rbp
	.cfi_def_cfa %rsp, 8
	retq
.LBB24_10:                              # %func_exit
	.cfi_def_cfa %rbp, 16
	callq	detect_breach
	jmp	.LBB24_9
.Lfunc_end24:
	.size	refresh_neighbour_lists.18, .Lfunc_end24-refresh_neighbour_lists.18
	.cfi_endproc
                                        # -- End function
	.globl	primal_feasible.19      # -- Begin function primal_feasible.19
	.p2align	4, 0x90
	.type	primal_feasible.19,@function
primal_feasible.19:                     # @primal_feasible.19
	.cfi_startproc
# %bb.0:                                # %entry
	pushq	%rbp
	.cfi_def_cfa_offset 16
	.cfi_offset %rbp, -16
	movq	%rsp, %rbp
	.cfi_def_cfa_register %rbp
	pushq	%rbx
	subq	$72, %rsp
	.cfi_offset %rbx, -24
	movl	$1662812865, -36(%rbp)  # imm = 0x631C82C1
	movq	%rdi, -16(%rbp)
	movq	-16(%rbp), %rax
	movq	584(%rax), %rax
	movq	%rax, -64(%rbp)
	movq	-16(%rbp), %rax
	movq	592(%rax), %rax
	movq	%rax, -72(%rbp)
	movq	-16(%rbp), %rax
	movq	552(%rax), %rax
	movq	%rax, -24(%rbp)
	movq	-16(%rbp), %rax
	movq	560(%rax), %rax
	movq	%rax, -80(%rbp)
	movq	-24(%rbp), %rax
	addq	$104, %rax
	movq	%rax, -24(%rbp)
.LBB25_1:                               # %for.cond
                                        # =>This Inner Loop Header: Depth=1
	movq	-24(%rbp), %rax
	movq	-80(%rbp), %rcx
	cmpq	%rcx, %rax
	jae	.LBB25_16
# %bb.2:                                # %for.body
                                        #   in Loop: Header=BB25_1 Depth=1
	movq	-24(%rbp), %rax
	movq	48(%rax), %rax
	movq	%rax, -48(%rbp)
	movq	-24(%rbp), %rax
	movq	80(%rax), %rax
	movq	%rax, -32(%rbp)
	movq	-48(%rbp), %rax
	cmpq	-64(%rbp), %rax
	jb	.LBB25_10
# %bb.3:                                # %land.lhs.true
                                        #   in Loop: Header=BB25_1 Depth=1
	movq	-48(%rbp), %rax
	cmpq	-72(%rbp), %rax
	jae	.LBB25_10
# %bb.4:                                # %if.then
                                        #   in Loop: Header=BB25_1 Depth=1
	cmpq	$0, -32(%rbp)
	jl	.LBB25_6
# %bb.5:                                # %cond.true
                                        #   in Loop: Header=BB25_1 Depth=1
	movq	-32(%rbp), %rax
	jmp	.LBB25_7
.LBB25_6:                               # %cond.false
                                        #   in Loop: Header=BB25_1 Depth=1
	xorl	%eax, %eax
	subq	-32(%rbp), %rax
.LBB25_7:                               # %cond.end
                                        #   in Loop: Header=BB25_1 Depth=1
	movq	-16(%rbp), %rcx
	cmpq	512(%rcx), %rax
	jle	.LBB25_9
# %bb.8:                                # %if.then7
                                        #   in Loop: Header=BB25_1 Depth=1
	movabsq	$.L.str, %rdi
	movb	$0, %al
	callq	printf
	movq	-24(%rbp), %rax
	movl	96(%rax), %esi
	movq	-32(%rbp), %rdx
	movabsq	$.L.str.1, %rdi
	movb	$0, %al
	callq	printf
.LBB25_9:                               # %if.end
                                        #   in Loop: Header=BB25_1 Depth=1
	jmp	.LBB25_14
.LBB25_10:                              # %if.else
                                        #   in Loop: Header=BB25_1 Depth=1
	xorl	%eax, %eax
	movq	-32(%rbp), %rcx
	movq	-16(%rbp), %rdx
	subq	512(%rdx), %rax
	cmpq	%rax, %rcx
	jl	.LBB25_12
# %bb.11:                               # %lor.lhs.false
                                        #   in Loop: Header=BB25_1 Depth=1
	movq	-32(%rbp), %rax
	subq	$1, %rax
	movq	-16(%rbp), %rcx
	cmpq	512(%rcx), %rax
	jle	.LBB25_13
.LBB25_12:                              # %if.then15
	movabsq	$.L.str, %rdi
	movb	$0, %al
	callq	printf
	movq	-32(%rbp), %rsi
	movabsq	$.L.str.2, %rdi
	movb	$0, %al
	callq	printf
	movq	-16(%rbp), %rax
	movq	$0, 488(%rax)
	movq	$1, -56(%rbp)
	jmp	.LBB25_17
.LBB25_13:                              # %if.end18
                                        #   in Loop: Header=BB25_1 Depth=1
	jmp	.LBB25_14
.LBB25_14:                              # %if.end19
                                        #   in Loop: Header=BB25_1 Depth=1
	jmp	.LBB25_15
.LBB25_15:                              # %for.inc
                                        #   in Loop: Header=BB25_1 Depth=1
	movq	-24(%rbp), %rax
	addq	$104, %rax
	movq	%rax, -24(%rbp)
	jmp	.LBB25_1
.LBB25_16:                              # %for.end
	movq	-16(%rbp), %rax
	movq	$1, 488(%rax)
	movq	$0, -56(%rbp)
.LBB25_17:                              # %return
	movq	-56(%rbp), %rbx
	cmpl	$1662812865, -36(%rbp)  # imm = 0x631C82C1
	jne	.LBB25_19
.LBB25_18:
	movq	%rbx, %rax
	addq	$72, %rsp
	popq	%rbx
	popq	%rbp
	.cfi_def_cfa %rsp, 8
	retq
.LBB25_19:                              # %func_exit
	.cfi_def_cfa %rbp, 16
	callq	detect_breach
	jmp	.LBB25_18
.Lfunc_end25:
	.size	primal_feasible.19, .Lfunc_end25-primal_feasible.19
	.cfi_endproc
                                        # -- End function
	.globl	flow_org_cost.20        # -- Begin function flow_org_cost.20
	.p2align	4, 0x90
	.type	flow_org_cost.20,@function
flow_org_cost.20:                       # @flow_org_cost.20
	.cfi_startproc
# %bb.0:                                # %entry
	pushq	%rbp
	.cfi_def_cfa_offset 16
	.cfi_offset %rbp, -16
	movq	%rsp, %rbp
	.cfi_def_cfa_register %rbp
	subq	$64, %rsp
	movl	$633359480, -52(%rbp)   # imm = 0x25C04C78
	movq	%rdi, -16(%rbp)
	movq	$0, -48(%rbp)
	movq	$0, -32(%rbp)
	movq	-16(%rbp), %rax
	movq	576(%rax), %rax
	movq	%rax, -40(%rbp)
	movq	-16(%rbp), %rax
	movq	568(%rax), %rax
	movq	%rax, -8(%rbp)
.LBB26_1:                               # %for.cond
                                        # =>This Inner Loop Header: Depth=1
	movq	-8(%rbp), %rax
	movq	-40(%rbp), %rcx
	cmpq	%rcx, %rax
	je	.LBB26_7
# %bb.2:                                # %for.body
                                        #   in Loop: Header=BB26_1 Depth=1
	movq	-8(%rbp), %rax
	cmpl	$2, 24(%rax)
	jne	.LBB26_4
# %bb.3:                                # %if.then
                                        #   in Loop: Header=BB26_1 Depth=1
	movq	-8(%rbp), %rax
	movq	$1, 48(%rax)
	jmp	.LBB26_5
.LBB26_4:                               # %if.else
                                        #   in Loop: Header=BB26_1 Depth=1
	movq	-8(%rbp), %rax
	movq	$0, 48(%rax)
.LBB26_5:                               # %if.end
                                        #   in Loop: Header=BB26_1 Depth=1
	jmp	.LBB26_6
.LBB26_6:                               # %for.inc
                                        #   in Loop: Header=BB26_1 Depth=1
	movq	-8(%rbp), %rax
	addq	$64, %rax
	movq	%rax, -8(%rbp)
	jmp	.LBB26_1
.LBB26_7:                               # %for.end
	movq	-16(%rbp), %rax
	movq	560(%rax), %rax
	movq	%rax, -40(%rbp)
	movq	-16(%rbp), %rax
	movq	552(%rax), %rax
	movq	%rax, -24(%rbp)
	movq	-24(%rbp), %rax
	addq	$104, %rax
	movq	%rax, -24(%rbp)
.LBB26_8:                               # %for.cond4
                                        # =>This Inner Loop Header: Depth=1
	movq	-24(%rbp), %rax
	movq	-40(%rbp), %rcx
	cmpq	%rcx, %rax
	je	.LBB26_11
# %bb.9:                                # %for.body6
                                        #   in Loop: Header=BB26_8 Depth=1
	movq	-24(%rbp), %rax
	movq	80(%rax), %rax
	movq	-24(%rbp), %rcx
	movq	48(%rcx), %rcx
	movq	%rax, 48(%rcx)
# %bb.10:                               # %for.inc9
                                        #   in Loop: Header=BB26_8 Depth=1
	movq	-24(%rbp), %rax
	addq	$104, %rax
	movq	%rax, -24(%rbp)
	jmp	.LBB26_8
.LBB26_11:                              # %for.end11
	movq	-16(%rbp), %rax
	movq	576(%rax), %rax
	movq	%rax, -40(%rbp)
	movq	-16(%rbp), %rax
	movq	568(%rax), %rax
	movq	%rax, -8(%rbp)
.LBB26_12:                              # %for.cond14
                                        # =>This Inner Loop Header: Depth=1
	movq	-8(%rbp), %rax
	movq	-40(%rbp), %rcx
	cmpq	%rcx, %rax
	je	.LBB26_23
# %bb.13:                               # %for.body16
                                        #   in Loop: Header=BB26_12 Depth=1
	movq	-8(%rbp), %rax
	cmpq	$0, 48(%rax)
	je	.LBB26_21
# %bb.14:                               # %if.then18
                                        #   in Loop: Header=BB26_12 Depth=1
	movq	-8(%rbp), %rax
	movq	8(%rax), %rax
	cmpl	$0, 96(%rax)
	jge	.LBB26_16
# %bb.15:                               # %land.lhs.true
                                        #   in Loop: Header=BB26_12 Depth=1
	movq	-8(%rbp), %rax
	movq	16(%rax), %rax
	cmpl	$0, 96(%rax)
	jg	.LBB26_20
.LBB26_16:                              # %if.then22
                                        #   in Loop: Header=BB26_12 Depth=1
	movq	-8(%rbp), %rax
	movq	8(%rax), %rax
	cmpl	$0, 96(%rax)
	jne	.LBB26_18
# %bb.17:                               # %if.then26
                                        #   in Loop: Header=BB26_12 Depth=1
	movq	-8(%rbp), %rax
	movq	56(%rax), %rax
	movq	-16(%rbp), %rcx
	subq	528(%rcx), %rax
	addq	-32(%rbp), %rax
	movq	%rax, -32(%rbp)
	movq	-48(%rbp), %rax
	addq	$1, %rax
	movq	%rax, -48(%rbp)
	jmp	.LBB26_19
.LBB26_18:                              # %if.else27
                                        #   in Loop: Header=BB26_12 Depth=1
	movq	-8(%rbp), %rax
	movq	56(%rax), %rax
	addq	-32(%rbp), %rax
	movq	%rax, -32(%rbp)
.LBB26_19:                              # %if.end30
                                        #   in Loop: Header=BB26_12 Depth=1
	jmp	.LBB26_20
.LBB26_20:                              # %if.end31
                                        #   in Loop: Header=BB26_12 Depth=1
	jmp	.LBB26_21
.LBB26_21:                              # %if.end32
                                        #   in Loop: Header=BB26_12 Depth=1
	jmp	.LBB26_22
.LBB26_22:                              # %for.inc33
                                        #   in Loop: Header=BB26_12 Depth=1
	movq	-8(%rbp), %rax
	addq	$64, %rax
	movq	%rax, -8(%rbp)
	jmp	.LBB26_12
.LBB26_23:                              # %for.end35
	vcvtsi2sdq	-48(%rbp), %xmm0, %xmm0
	movq	-16(%rbp), %rax
	vcvtsi2sdq	528(%rax), %xmm0, %xmm1
	vmulsd	%xmm1, %xmm0, %xmm0
	vcvtsi2sdq	-32(%rbp), %xmm0, %xmm1
	vaddsd	%xmm1, %xmm0, %xmm0
	cmpl	$633359480, -52(%rbp)   # imm = 0x25C04C78
	jne	.LBB26_25
.LBB26_24:
	addq	$64, %rsp
	popq	%rbp
	.cfi_def_cfa %rsp, 8
	retq
.LBB26_25:                              # %func_exit
	.cfi_def_cfa %rbp, 16
	vmovsd	%xmm0, -64(%rbp)        # 8-byte Spill
	callq	detect_breach
	vmovsd	-64(%rbp), %xmm0        # 8-byte Reload
                                        # xmm0 = mem[0],zero
	jmp	.LBB26_24
.Lfunc_end26:
	.size	flow_org_cost.20, .Lfunc_end26-flow_org_cost.20
	.cfi_endproc
                                        # -- End function
	.globl	flow_org_cost.21        # -- Begin function flow_org_cost.21
	.p2align	4, 0x90
	.type	flow_org_cost.21,@function
flow_org_cost.21:                       # @flow_org_cost.21
	.cfi_startproc
# %bb.0:                                # %entry
	pushq	%rbp
	.cfi_def_cfa_offset 16
	.cfi_offset %rbp, -16
	movq	%rsp, %rbp
	.cfi_def_cfa_register %rbp
	subq	$64, %rsp
	movl	$1313369812, -52(%rbp)  # imm = 0x4E486ED4
	movq	%rdi, -16(%rbp)
	movq	$0, -48(%rbp)
	movq	$0, -32(%rbp)
	movq	-16(%rbp), %rax
	movq	576(%rax), %rax
	movq	%rax, -40(%rbp)
	movq	-16(%rbp), %rax
	movq	568(%rax), %rax
	movq	%rax, -8(%rbp)
.LBB27_1:                               # %for.cond
                                        # =>This Inner Loop Header: Depth=1
	movq	-8(%rbp), %rax
	movq	-40(%rbp), %rcx
	cmpq	%rcx, %rax
	je	.LBB27_7
# %bb.2:                                # %for.body
                                        #   in Loop: Header=BB27_1 Depth=1
	movq	-8(%rbp), %rax
	cmpl	$2, 24(%rax)
	jne	.LBB27_4
# %bb.3:                                # %if.then
                                        #   in Loop: Header=BB27_1 Depth=1
	movq	-8(%rbp), %rax
	movq	$1, 48(%rax)
	jmp	.LBB27_5
.LBB27_4:                               # %if.else
                                        #   in Loop: Header=BB27_1 Depth=1
	movq	-8(%rbp), %rax
	movq	$0, 48(%rax)
.LBB27_5:                               # %if.end
                                        #   in Loop: Header=BB27_1 Depth=1
	jmp	.LBB27_6
.LBB27_6:                               # %for.inc
                                        #   in Loop: Header=BB27_1 Depth=1
	movq	-8(%rbp), %rax
	addq	$64, %rax
	movq	%rax, -8(%rbp)
	jmp	.LBB27_1
.LBB27_7:                               # %for.end
	movq	-16(%rbp), %rax
	movq	560(%rax), %rax
	movq	%rax, -40(%rbp)
	movq	-16(%rbp), %rax
	movq	552(%rax), %rax
	movq	%rax, -24(%rbp)
	movq	-24(%rbp), %rax
	addq	$104, %rax
	movq	%rax, -24(%rbp)
.LBB27_8:                               # %for.cond4
                                        # =>This Inner Loop Header: Depth=1
	movq	-24(%rbp), %rax
	movq	-40(%rbp), %rcx
	cmpq	%rcx, %rax
	je	.LBB27_11
# %bb.9:                                # %for.body6
                                        #   in Loop: Header=BB27_8 Depth=1
	movq	-24(%rbp), %rax
	movq	80(%rax), %rax
	movq	-24(%rbp), %rcx
	movq	48(%rcx), %rcx
	movq	%rax, 48(%rcx)
# %bb.10:                               # %for.inc9
                                        #   in Loop: Header=BB27_8 Depth=1
	movq	-24(%rbp), %rax
	addq	$104, %rax
	movq	%rax, -24(%rbp)
	jmp	.LBB27_8
.LBB27_11:                              # %for.end11
	movq	-16(%rbp), %rax
	movq	576(%rax), %rax
	movq	%rax, -40(%rbp)
	movq	-16(%rbp), %rax
	movq	568(%rax), %rax
	movq	%rax, -8(%rbp)
.LBB27_12:                              # %for.cond14
                                        # =>This Inner Loop Header: Depth=1
	movq	-8(%rbp), %rax
	movq	-40(%rbp), %rcx
	cmpq	%rcx, %rax
	je	.LBB27_23
# %bb.13:                               # %for.body16
                                        #   in Loop: Header=BB27_12 Depth=1
	movq	-8(%rbp), %rax
	cmpq	$0, 48(%rax)
	je	.LBB27_21
# %bb.14:                               # %if.then18
                                        #   in Loop: Header=BB27_12 Depth=1
	movq	-8(%rbp), %rax
	movq	8(%rax), %rax
	cmpl	$0, 96(%rax)
	jge	.LBB27_16
# %bb.15:                               # %land.lhs.true
                                        #   in Loop: Header=BB27_12 Depth=1
	movq	-8(%rbp), %rax
	movq	16(%rax), %rax
	cmpl	$0, 96(%rax)
	jg	.LBB27_20
.LBB27_16:                              # %if.then22
                                        #   in Loop: Header=BB27_12 Depth=1
	movq	-8(%rbp), %rax
	movq	8(%rax), %rax
	cmpl	$0, 96(%rax)
	jne	.LBB27_18
# %bb.17:                               # %if.then26
                                        #   in Loop: Header=BB27_12 Depth=1
	movq	-8(%rbp), %rax
	movq	56(%rax), %rax
	movq	-16(%rbp), %rcx
	subq	528(%rcx), %rax
	addq	-32(%rbp), %rax
	movq	%rax, -32(%rbp)
	movq	-48(%rbp), %rax
	addq	$1, %rax
	movq	%rax, -48(%rbp)
	jmp	.LBB27_19
.LBB27_18:                              # %if.else27
                                        #   in Loop: Header=BB27_12 Depth=1
	movq	-8(%rbp), %rax
	movq	56(%rax), %rax
	addq	-32(%rbp), %rax
	movq	%rax, -32(%rbp)
.LBB27_19:                              # %if.end30
                                        #   in Loop: Header=BB27_12 Depth=1
	jmp	.LBB27_20
.LBB27_20:                              # %if.end31
                                        #   in Loop: Header=BB27_12 Depth=1
	jmp	.LBB27_21
.LBB27_21:                              # %if.end32
                                        #   in Loop: Header=BB27_12 Depth=1
	jmp	.LBB27_22
.LBB27_22:                              # %for.inc33
                                        #   in Loop: Header=BB27_12 Depth=1
	movq	-8(%rbp), %rax
	addq	$64, %rax
	movq	%rax, -8(%rbp)
	jmp	.LBB27_12
.LBB27_23:                              # %for.end35
	vcvtsi2sdq	-48(%rbp), %xmm0, %xmm0
	movq	-16(%rbp), %rax
	vcvtsi2sdq	528(%rax), %xmm0, %xmm1
	vmulsd	%xmm1, %xmm0, %xmm0
	vcvtsi2sdq	-32(%rbp), %xmm0, %xmm1
	vaddsd	%xmm1, %xmm0, %xmm0
	cmpl	$1313369812, -52(%rbp)  # imm = 0x4E486ED4
	jne	.LBB27_25
.LBB27_24:
	addq	$64, %rsp
	popq	%rbp
	.cfi_def_cfa %rsp, 8
	retq
.LBB27_25:                              # %func_exit
	.cfi_def_cfa %rbp, 16
	vmovsd	%xmm0, -64(%rbp)        # 8-byte Spill
	callq	detect_breach
	vmovsd	-64(%rbp), %xmm0        # 8-byte Reload
                                        # xmm0 = mem[0],zero
	jmp	.LBB27_24
.Lfunc_end27:
	.size	flow_org_cost.21, .Lfunc_end27-flow_org_cost.21
	.cfi_endproc
                                        # -- End function
	.globl	refresh_potential.22    # -- Begin function refresh_potential.22
	.p2align	4, 0x90
	.type	refresh_potential.22,@function
refresh_potential.22:                   # @refresh_potential.22
	.cfi_startproc
# %bb.0:                                # %entry
	pushq	%rbp
	.cfi_def_cfa_offset 16
	.cfi_offset %rbp, -16
	movq	%rsp, %rbp
	.cfi_def_cfa_register %rbp
	pushq	%rbx
	subq	$56, %rsp
	.cfi_offset %rbx, -24
	movl	$1859755951, -44(%rbp)  # imm = 0x6ED99FAF
	movq	%rdi, -56(%rbp)
	movq	-56(%rbp), %rax
	movq	552(%rax), %rax
	movq	%rax, -40(%rbp)
	movq	$0, -32(%rbp)
	movq	-40(%rbp), %rax
	movq	$-100000000, (%rax)     # imm = 0xFA0A1F00
	movq	-40(%rbp), %rax
	movq	16(%rax), %rax
	movq	%rax, -16(%rbp)
	movq	%rax, -24(%rbp)
.LBB28_1:                               # %while.cond
                                        # =>This Loop Header: Depth=1
                                        #     Child Loop BB28_3 Depth 2
                                        #     Child Loop BB28_9 Depth 2
	movq	-16(%rbp), %rax
	cmpq	-40(%rbp), %rax
	je	.LBB28_16
# %bb.2:                                # %while.body
                                        #   in Loop: Header=BB28_1 Depth=1
	jmp	.LBB28_3
.LBB28_3:                               # %while.cond1
                                        #   Parent Loop BB28_1 Depth=1
                                        # =>  This Inner Loop Header: Depth=2
	cmpq	$0, -16(%rbp)
	je	.LBB28_8
# %bb.4:                                # %while.body2
                                        #   in Loop: Header=BB28_3 Depth=2
	movq	-16(%rbp), %rax
	cmpl	$1, 8(%rax)
	jne	.LBB28_6
# %bb.5:                                # %if.then
                                        #   in Loop: Header=BB28_3 Depth=2
	movq	-16(%rbp), %rax
	movq	48(%rax), %rax
	movq	(%rax), %rax
	movq	-16(%rbp), %rcx
	movq	24(%rcx), %rcx
	addq	(%rcx), %rax
	movq	-16(%rbp), %rcx
	movq	%rax, (%rcx)
	jmp	.LBB28_7
.LBB28_6:                               # %if.else
                                        #   in Loop: Header=BB28_3 Depth=2
	movq	-16(%rbp), %rax
	movq	24(%rax), %rax
	movq	(%rax), %rax
	movq	-16(%rbp), %rcx
	movq	48(%rcx), %rcx
	subq	(%rcx), %rax
	movq	-16(%rbp), %rcx
	movq	%rax, (%rcx)
	movq	-32(%rbp), %rax
	addq	$1, %rax
	movq	%rax, -32(%rbp)
.LBB28_7:                               # %if.end
                                        #   in Loop: Header=BB28_3 Depth=2
	movq	-16(%rbp), %rax
	movq	%rax, -24(%rbp)
	movq	-16(%rbp), %rax
	movq	16(%rax), %rax
	movq	%rax, -16(%rbp)
	jmp	.LBB28_3
.LBB28_8:                               # %while.end
                                        #   in Loop: Header=BB28_1 Depth=1
	movq	-24(%rbp), %rax
	movq	%rax, -16(%rbp)
.LBB28_9:                               # %while.cond12
                                        #   Parent Loop BB28_1 Depth=1
                                        # =>  This Inner Loop Header: Depth=2
	movq	-16(%rbp), %rax
	cmpq	$0, 24(%rax)
	je	.LBB28_14
# %bb.10:                               # %while.body15
                                        #   in Loop: Header=BB28_9 Depth=2
	movq	-16(%rbp), %rax
	movq	32(%rax), %rax
	movq	%rax, -24(%rbp)
	cmpq	$0, -24(%rbp)
	je	.LBB28_12
# %bb.11:                               # %if.then17
                                        #   in Loop: Header=BB28_1 Depth=1
	movq	-24(%rbp), %rax
	movq	%rax, -16(%rbp)
	jmp	.LBB28_15
.LBB28_12:                              # %if.else18
                                        #   in Loop: Header=BB28_9 Depth=2
	movq	-16(%rbp), %rax
	movq	24(%rax), %rax
	movq	%rax, -16(%rbp)
# %bb.13:                               # %if.end20
                                        #   in Loop: Header=BB28_9 Depth=2
	jmp	.LBB28_9
.LBB28_14:                              # %while.end21.loopexit
                                        #   in Loop: Header=BB28_1 Depth=1
	jmp	.LBB28_15
.LBB28_15:                              # %while.end21
                                        #   in Loop: Header=BB28_1 Depth=1
	jmp	.LBB28_1
.LBB28_16:                              # %while.end22
	movq	-32(%rbp), %rbx
	cmpl	$1859755951, -44(%rbp)  # imm = 0x6ED99FAF
	jne	.LBB28_18
.LBB28_17:
	movq	%rbx, %rax
	addq	$56, %rsp
	popq	%rbx
	popq	%rbp
	.cfi_def_cfa %rsp, 8
	retq
.LBB28_18:                              # %func_exit
	.cfi_def_cfa %rbp, 16
	callq	detect_breach
	jmp	.LBB28_17
.Lfunc_end28:
	.size	refresh_potential.22, .Lfunc_end28-refresh_potential.22
	.cfi_endproc
                                        # -- End function
	.globl	refresh_potential.23    # -- Begin function refresh_potential.23
	.p2align	4, 0x90
	.type	refresh_potential.23,@function
refresh_potential.23:                   # @refresh_potential.23
	.cfi_startproc
# %bb.0:                                # %entry
	pushq	%rbp
	.cfi_def_cfa_offset 16
	.cfi_offset %rbp, -16
	movq	%rsp, %rbp
	.cfi_def_cfa_register %rbp
	pushq	%rbx
	subq	$56, %rsp
	.cfi_offset %rbx, -24
	movl	$122862711, -44(%rbp)   # imm = 0x752BC77
	movq	%rdi, -56(%rbp)
	movq	-56(%rbp), %rax
	movq	552(%rax), %rax
	movq	%rax, -40(%rbp)
	movq	$0, -32(%rbp)
	movq	-40(%rbp), %rax
	movq	$-100000000, (%rax)     # imm = 0xFA0A1F00
	movq	-40(%rbp), %rax
	movq	16(%rax), %rax
	movq	%rax, -16(%rbp)
	movq	%rax, -24(%rbp)
.LBB29_1:                               # %while.cond
                                        # =>This Loop Header: Depth=1
                                        #     Child Loop BB29_3 Depth 2
                                        #     Child Loop BB29_9 Depth 2
	movq	-16(%rbp), %rax
	cmpq	-40(%rbp), %rax
	je	.LBB29_16
# %bb.2:                                # %while.body
                                        #   in Loop: Header=BB29_1 Depth=1
	jmp	.LBB29_3
.LBB29_3:                               # %while.cond1
                                        #   Parent Loop BB29_1 Depth=1
                                        # =>  This Inner Loop Header: Depth=2
	cmpq	$0, -16(%rbp)
	je	.LBB29_8
# %bb.4:                                # %while.body2
                                        #   in Loop: Header=BB29_3 Depth=2
	movq	-16(%rbp), %rax
	cmpl	$1, 8(%rax)
	jne	.LBB29_6
# %bb.5:                                # %if.then
                                        #   in Loop: Header=BB29_3 Depth=2
	movq	-16(%rbp), %rax
	movq	48(%rax), %rax
	movq	(%rax), %rax
	movq	-16(%rbp), %rcx
	movq	24(%rcx), %rcx
	addq	(%rcx), %rax
	movq	-16(%rbp), %rcx
	movq	%rax, (%rcx)
	jmp	.LBB29_7
.LBB29_6:                               # %if.else
                                        #   in Loop: Header=BB29_3 Depth=2
	movq	-16(%rbp), %rax
	movq	24(%rax), %rax
	movq	(%rax), %rax
	movq	-16(%rbp), %rcx
	movq	48(%rcx), %rcx
	subq	(%rcx), %rax
	movq	-16(%rbp), %rcx
	movq	%rax, (%rcx)
	movq	-32(%rbp), %rax
	addq	$1, %rax
	movq	%rax, -32(%rbp)
.LBB29_7:                               # %if.end
                                        #   in Loop: Header=BB29_3 Depth=2
	movq	-16(%rbp), %rax
	movq	%rax, -24(%rbp)
	movq	-16(%rbp), %rax
	movq	16(%rax), %rax
	movq	%rax, -16(%rbp)
	jmp	.LBB29_3
.LBB29_8:                               # %while.end
                                        #   in Loop: Header=BB29_1 Depth=1
	movq	-24(%rbp), %rax
	movq	%rax, -16(%rbp)
.LBB29_9:                               # %while.cond12
                                        #   Parent Loop BB29_1 Depth=1
                                        # =>  This Inner Loop Header: Depth=2
	movq	-16(%rbp), %rax
	cmpq	$0, 24(%rax)
	je	.LBB29_14
# %bb.10:                               # %while.body15
                                        #   in Loop: Header=BB29_9 Depth=2
	movq	-16(%rbp), %rax
	movq	32(%rax), %rax
	movq	%rax, -24(%rbp)
	cmpq	$0, -24(%rbp)
	je	.LBB29_12
# %bb.11:                               # %if.then17
                                        #   in Loop: Header=BB29_1 Depth=1
	movq	-24(%rbp), %rax
	movq	%rax, -16(%rbp)
	jmp	.LBB29_15
.LBB29_12:                              # %if.else18
                                        #   in Loop: Header=BB29_9 Depth=2
	movq	-16(%rbp), %rax
	movq	24(%rax), %rax
	movq	%rax, -16(%rbp)
# %bb.13:                               # %if.end20
                                        #   in Loop: Header=BB29_9 Depth=2
	jmp	.LBB29_9
.LBB29_14:                              # %while.end21.loopexit
                                        #   in Loop: Header=BB29_1 Depth=1
	jmp	.LBB29_15
.LBB29_15:                              # %while.end21
                                        #   in Loop: Header=BB29_1 Depth=1
	jmp	.LBB29_1
.LBB29_16:                              # %while.end22
	movq	-32(%rbp), %rbx
	cmpl	$122862711, -44(%rbp)   # imm = 0x752BC77
	jne	.LBB29_18
.LBB29_17:
	movq	%rbx, %rax
	addq	$56, %rsp
	popq	%rbx
	popq	%rbp
	.cfi_def_cfa %rsp, 8
	retq
.LBB29_18:                              # %func_exit
	.cfi_def_cfa %rbp, 16
	callq	detect_breach
	jmp	.LBB29_17
.Lfunc_end29:
	.size	refresh_potential.23, .Lfunc_end29-refresh_potential.23
	.cfi_endproc
                                        # -- End function
	.globl	flow_org_cost.24        # -- Begin function flow_org_cost.24
	.p2align	4, 0x90
	.type	flow_org_cost.24,@function
flow_org_cost.24:                       # @flow_org_cost.24
	.cfi_startproc
# %bb.0:                                # %entry
	pushq	%rbp
	.cfi_def_cfa_offset 16
	.cfi_offset %rbp, -16
	movq	%rsp, %rbp
	.cfi_def_cfa_register %rbp
	subq	$64, %rsp
	movl	$1163045063, -52(%rbp)  # imm = 0x4552A8C7
	movq	%rdi, -16(%rbp)
	movq	$0, -48(%rbp)
	movq	$0, -32(%rbp)
	movq	-16(%rbp), %rax
	movq	576(%rax), %rax
	movq	%rax, -40(%rbp)
	movq	-16(%rbp), %rax
	movq	568(%rax), %rax
	movq	%rax, -8(%rbp)
.LBB30_1:                               # %for.cond
                                        # =>This Inner Loop Header: Depth=1
	movq	-8(%rbp), %rax
	movq	-40(%rbp), %rcx
	cmpq	%rcx, %rax
	je	.LBB30_7
# %bb.2:                                # %for.body
                                        #   in Loop: Header=BB30_1 Depth=1
	movq	-8(%rbp), %rax
	cmpl	$2, 24(%rax)
	jne	.LBB30_4
# %bb.3:                                # %if.then
                                        #   in Loop: Header=BB30_1 Depth=1
	movq	-8(%rbp), %rax
	movq	$1, 48(%rax)
	jmp	.LBB30_5
.LBB30_4:                               # %if.else
                                        #   in Loop: Header=BB30_1 Depth=1
	movq	-8(%rbp), %rax
	movq	$0, 48(%rax)
.LBB30_5:                               # %if.end
                                        #   in Loop: Header=BB30_1 Depth=1
	jmp	.LBB30_6
.LBB30_6:                               # %for.inc
                                        #   in Loop: Header=BB30_1 Depth=1
	movq	-8(%rbp), %rax
	addq	$64, %rax
	movq	%rax, -8(%rbp)
	jmp	.LBB30_1
.LBB30_7:                               # %for.end
	movq	-16(%rbp), %rax
	movq	560(%rax), %rax
	movq	%rax, -40(%rbp)
	movq	-16(%rbp), %rax
	movq	552(%rax), %rax
	movq	%rax, -24(%rbp)
	movq	-24(%rbp), %rax
	addq	$104, %rax
	movq	%rax, -24(%rbp)
.LBB30_8:                               # %for.cond4
                                        # =>This Inner Loop Header: Depth=1
	movq	-24(%rbp), %rax
	movq	-40(%rbp), %rcx
	cmpq	%rcx, %rax
	je	.LBB30_11
# %bb.9:                                # %for.body6
                                        #   in Loop: Header=BB30_8 Depth=1
	movq	-24(%rbp), %rax
	movq	80(%rax), %rax
	movq	-24(%rbp), %rcx
	movq	48(%rcx), %rcx
	movq	%rax, 48(%rcx)
# %bb.10:                               # %for.inc9
                                        #   in Loop: Header=BB30_8 Depth=1
	movq	-24(%rbp), %rax
	addq	$104, %rax
	movq	%rax, -24(%rbp)
	jmp	.LBB30_8
.LBB30_11:                              # %for.end11
	movq	-16(%rbp), %rax
	movq	576(%rax), %rax
	movq	%rax, -40(%rbp)
	movq	-16(%rbp), %rax
	movq	568(%rax), %rax
	movq	%rax, -8(%rbp)
.LBB30_12:                              # %for.cond14
                                        # =>This Inner Loop Header: Depth=1
	movq	-8(%rbp), %rax
	movq	-40(%rbp), %rcx
	cmpq	%rcx, %rax
	je	.LBB30_23
# %bb.13:                               # %for.body16
                                        #   in Loop: Header=BB30_12 Depth=1
	movq	-8(%rbp), %rax
	cmpq	$0, 48(%rax)
	je	.LBB30_21
# %bb.14:                               # %if.then18
                                        #   in Loop: Header=BB30_12 Depth=1
	movq	-8(%rbp), %rax
	movq	8(%rax), %rax
	cmpl	$0, 96(%rax)
	jge	.LBB30_16
# %bb.15:                               # %land.lhs.true
                                        #   in Loop: Header=BB30_12 Depth=1
	movq	-8(%rbp), %rax
	movq	16(%rax), %rax
	cmpl	$0, 96(%rax)
	jg	.LBB30_20
.LBB30_16:                              # %if.then22
                                        #   in Loop: Header=BB30_12 Depth=1
	movq	-8(%rbp), %rax
	movq	8(%rax), %rax
	cmpl	$0, 96(%rax)
	jne	.LBB30_18
# %bb.17:                               # %if.then26
                                        #   in Loop: Header=BB30_12 Depth=1
	movq	-8(%rbp), %rax
	movq	56(%rax), %rax
	movq	-16(%rbp), %rcx
	subq	528(%rcx), %rax
	addq	-32(%rbp), %rax
	movq	%rax, -32(%rbp)
	movq	-48(%rbp), %rax
	addq	$1, %rax
	movq	%rax, -48(%rbp)
	jmp	.LBB30_19
.LBB30_18:                              # %if.else27
                                        #   in Loop: Header=BB30_12 Depth=1
	movq	-8(%rbp), %rax
	movq	56(%rax), %rax
	addq	-32(%rbp), %rax
	movq	%rax, -32(%rbp)
.LBB30_19:                              # %if.end30
                                        #   in Loop: Header=BB30_12 Depth=1
	jmp	.LBB30_20
.LBB30_20:                              # %if.end31
                                        #   in Loop: Header=BB30_12 Depth=1
	jmp	.LBB30_21
.LBB30_21:                              # %if.end32
                                        #   in Loop: Header=BB30_12 Depth=1
	jmp	.LBB30_22
.LBB30_22:                              # %for.inc33
                                        #   in Loop: Header=BB30_12 Depth=1
	movq	-8(%rbp), %rax
	addq	$64, %rax
	movq	%rax, -8(%rbp)
	jmp	.LBB30_12
.LBB30_23:                              # %for.end35
	vcvtsi2sdq	-48(%rbp), %xmm0, %xmm0
	movq	-16(%rbp), %rax
	vcvtsi2sdq	528(%rax), %xmm0, %xmm1
	vmulsd	%xmm1, %xmm0, %xmm0
	vcvtsi2sdq	-32(%rbp), %xmm0, %xmm1
	vaddsd	%xmm1, %xmm0, %xmm0
	cmpl	$1163045063, -52(%rbp)  # imm = 0x4552A8C7
	jne	.LBB30_25
.LBB30_24:
	addq	$64, %rsp
	popq	%rbp
	.cfi_def_cfa %rsp, 8
	retq
.LBB30_25:                              # %func_exit
	.cfi_def_cfa %rbp, 16
	vmovsd	%xmm0, -64(%rbp)        # 8-byte Spill
	callq	detect_breach
	vmovsd	-64(%rbp), %xmm0        # 8-byte Reload
                                        # xmm0 = mem[0],zero
	jmp	.LBB30_24
.Lfunc_end30:
	.size	flow_org_cost.24, .Lfunc_end30-flow_org_cost.24
	.cfi_endproc
                                        # -- End function
	.globl	flow_org_cost.25        # -- Begin function flow_org_cost.25
	.p2align	4, 0x90
	.type	flow_org_cost.25,@function
flow_org_cost.25:                       # @flow_org_cost.25
	.cfi_startproc
# %bb.0:                                # %entry
	pushq	%rbp
	.cfi_def_cfa_offset 16
	.cfi_offset %rbp, -16
	movq	%rsp, %rbp
	.cfi_def_cfa_register %rbp
	subq	$64, %rsp
	movl	$1168155913, -52(%rbp)  # imm = 0x45A0A509
	movq	%rdi, -16(%rbp)
	movq	$0, -48(%rbp)
	movq	$0, -40(%rbp)
	movq	-16(%rbp), %rax
	movq	576(%rax), %rax
	movq	%rax, -32(%rbp)
	movq	-16(%rbp), %rax
	movq	568(%rax), %rax
	movq	%rax, -8(%rbp)
.LBB31_1:                               # %for.cond
                                        # =>This Inner Loop Header: Depth=1
	movq	-8(%rbp), %rax
	movq	-32(%rbp), %rcx
	cmpq	%rcx, %rax
	je	.LBB31_7
# %bb.2:                                # %for.body
                                        #   in Loop: Header=BB31_1 Depth=1
	movq	-8(%rbp), %rax
	cmpl	$2, 24(%rax)
	jne	.LBB31_4
# %bb.3:                                # %if.then
                                        #   in Loop: Header=BB31_1 Depth=1
	movq	-8(%rbp), %rax
	movq	$1, 48(%rax)
	jmp	.LBB31_5
.LBB31_4:                               # %if.else
                                        #   in Loop: Header=BB31_1 Depth=1
	movq	-8(%rbp), %rax
	movq	$0, 48(%rax)
.LBB31_5:                               # %if.end
                                        #   in Loop: Header=BB31_1 Depth=1
	jmp	.LBB31_6
.LBB31_6:                               # %for.inc
                                        #   in Loop: Header=BB31_1 Depth=1
	movq	-8(%rbp), %rax
	addq	$64, %rax
	movq	%rax, -8(%rbp)
	jmp	.LBB31_1
.LBB31_7:                               # %for.end
	movq	-16(%rbp), %rax
	movq	560(%rax), %rax
	movq	%rax, -32(%rbp)
	movq	-16(%rbp), %rax
	movq	552(%rax), %rax
	movq	%rax, -24(%rbp)
	movq	-24(%rbp), %rax
	addq	$104, %rax
	movq	%rax, -24(%rbp)
.LBB31_8:                               # %for.cond4
                                        # =>This Inner Loop Header: Depth=1
	movq	-24(%rbp), %rax
	movq	-32(%rbp), %rcx
	cmpq	%rcx, %rax
	je	.LBB31_11
# %bb.9:                                # %for.body6
                                        #   in Loop: Header=BB31_8 Depth=1
	movq	-24(%rbp), %rax
	movq	80(%rax), %rax
	movq	-24(%rbp), %rcx
	movq	48(%rcx), %rcx
	movq	%rax, 48(%rcx)
# %bb.10:                               # %for.inc9
                                        #   in Loop: Header=BB31_8 Depth=1
	movq	-24(%rbp), %rax
	addq	$104, %rax
	movq	%rax, -24(%rbp)
	jmp	.LBB31_8
.LBB31_11:                              # %for.end11
	movq	-16(%rbp), %rax
	movq	576(%rax), %rax
	movq	%rax, -32(%rbp)
	movq	-16(%rbp), %rax
	movq	568(%rax), %rax
	movq	%rax, -8(%rbp)
.LBB31_12:                              # %for.cond14
                                        # =>This Inner Loop Header: Depth=1
	movq	-8(%rbp), %rax
	movq	-32(%rbp), %rcx
	cmpq	%rcx, %rax
	je	.LBB31_23
# %bb.13:                               # %for.body16
                                        #   in Loop: Header=BB31_12 Depth=1
	movq	-8(%rbp), %rax
	cmpq	$0, 48(%rax)
	je	.LBB31_21
# %bb.14:                               # %if.then18
                                        #   in Loop: Header=BB31_12 Depth=1
	movq	-8(%rbp), %rax
	movq	8(%rax), %rax
	cmpl	$0, 96(%rax)
	jge	.LBB31_16
# %bb.15:                               # %land.lhs.true
                                        #   in Loop: Header=BB31_12 Depth=1
	movq	-8(%rbp), %rax
	movq	16(%rax), %rax
	cmpl	$0, 96(%rax)
	jg	.LBB31_20
.LBB31_16:                              # %if.then22
                                        #   in Loop: Header=BB31_12 Depth=1
	movq	-8(%rbp), %rax
	movq	8(%rax), %rax
	cmpl	$0, 96(%rax)
	jne	.LBB31_18
# %bb.17:                               # %if.then26
                                        #   in Loop: Header=BB31_12 Depth=1
	movq	-8(%rbp), %rax
	movq	56(%rax), %rax
	movq	-16(%rbp), %rcx
	subq	528(%rcx), %rax
	addq	-40(%rbp), %rax
	movq	%rax, -40(%rbp)
	movq	-48(%rbp), %rax
	addq	$1, %rax
	movq	%rax, -48(%rbp)
	jmp	.LBB31_19
.LBB31_18:                              # %if.else27
                                        #   in Loop: Header=BB31_12 Depth=1
	movq	-8(%rbp), %rax
	movq	56(%rax), %rax
	addq	-40(%rbp), %rax
	movq	%rax, -40(%rbp)
.LBB31_19:                              # %if.end30
                                        #   in Loop: Header=BB31_12 Depth=1
	jmp	.LBB31_20
.LBB31_20:                              # %if.end31
                                        #   in Loop: Header=BB31_12 Depth=1
	jmp	.LBB31_21
.LBB31_21:                              # %if.end32
                                        #   in Loop: Header=BB31_12 Depth=1
	jmp	.LBB31_22
.LBB31_22:                              # %for.inc33
                                        #   in Loop: Header=BB31_12 Depth=1
	movq	-8(%rbp), %rax
	addq	$64, %rax
	movq	%rax, -8(%rbp)
	jmp	.LBB31_12
.LBB31_23:                              # %for.end35
	vcvtsi2sdq	-48(%rbp), %xmm0, %xmm0
	movq	-16(%rbp), %rax
	vcvtsi2sdq	528(%rax), %xmm0, %xmm1
	vmulsd	%xmm1, %xmm0, %xmm0
	vcvtsi2sdq	-40(%rbp), %xmm0, %xmm1
	vaddsd	%xmm1, %xmm0, %xmm0
	cmpl	$1168155913, -52(%rbp)  # imm = 0x45A0A509
	jne	.LBB31_25
.LBB31_24:
	addq	$64, %rsp
	popq	%rbp
	.cfi_def_cfa %rsp, 8
	retq
.LBB31_25:                              # %func_exit
	.cfi_def_cfa %rbp, 16
	vmovsd	%xmm0, -64(%rbp)        # 8-byte Spill
	callq	detect_breach
	vmovsd	-64(%rbp), %xmm0        # 8-byte Reload
                                        # xmm0 = mem[0],zero
	jmp	.LBB31_24
.Lfunc_end31:
	.size	flow_org_cost.25, .Lfunc_end31-flow_org_cost.25
	.cfi_endproc
                                        # -- End function
	.globl	flow_org_cost.26        # -- Begin function flow_org_cost.26
	.p2align	4, 0x90
	.type	flow_org_cost.26,@function
flow_org_cost.26:                       # @flow_org_cost.26
	.cfi_startproc
# %bb.0:                                # %entry
	pushq	%rbp
	.cfi_def_cfa_offset 16
	.cfi_offset %rbp, -16
	movq	%rsp, %rbp
	.cfi_def_cfa_register %rbp
	subq	$64, %rsp
	movl	$1347933634, -52(%rbp)  # imm = 0x5057D5C2
	movq	%rdi, -16(%rbp)
	movq	$0, -48(%rbp)
	movq	$0, -40(%rbp)
	movq	-16(%rbp), %rax
	movq	576(%rax), %rax
	movq	%rax, -32(%rbp)
	movq	-16(%rbp), %rax
	movq	568(%rax), %rax
	movq	%rax, -8(%rbp)
.LBB32_1:                               # %for.cond
                                        # =>This Inner Loop Header: Depth=1
	movq	-8(%rbp), %rax
	movq	-32(%rbp), %rcx
	cmpq	%rcx, %rax
	je	.LBB32_7
# %bb.2:                                # %for.body
                                        #   in Loop: Header=BB32_1 Depth=1
	movq	-8(%rbp), %rax
	cmpl	$2, 24(%rax)
	jne	.LBB32_4
# %bb.3:                                # %if.then
                                        #   in Loop: Header=BB32_1 Depth=1
	movq	-8(%rbp), %rax
	movq	$1, 48(%rax)
	jmp	.LBB32_5
.LBB32_4:                               # %if.else
                                        #   in Loop: Header=BB32_1 Depth=1
	movq	-8(%rbp), %rax
	movq	$0, 48(%rax)
.LBB32_5:                               # %if.end
                                        #   in Loop: Header=BB32_1 Depth=1
	jmp	.LBB32_6
.LBB32_6:                               # %for.inc
                                        #   in Loop: Header=BB32_1 Depth=1
	movq	-8(%rbp), %rax
	addq	$64, %rax
	movq	%rax, -8(%rbp)
	jmp	.LBB32_1
.LBB32_7:                               # %for.end
	movq	-16(%rbp), %rax
	movq	560(%rax), %rax
	movq	%rax, -32(%rbp)
	movq	-16(%rbp), %rax
	movq	552(%rax), %rax
	movq	%rax, -24(%rbp)
	movq	-24(%rbp), %rax
	addq	$104, %rax
	movq	%rax, -24(%rbp)
.LBB32_8:                               # %for.cond4
                                        # =>This Inner Loop Header: Depth=1
	movq	-24(%rbp), %rax
	movq	-32(%rbp), %rcx
	cmpq	%rcx, %rax
	je	.LBB32_11
# %bb.9:                                # %for.body6
                                        #   in Loop: Header=BB32_8 Depth=1
	movq	-24(%rbp), %rax
	movq	80(%rax), %rax
	movq	-24(%rbp), %rcx
	movq	48(%rcx), %rcx
	movq	%rax, 48(%rcx)
# %bb.10:                               # %for.inc9
                                        #   in Loop: Header=BB32_8 Depth=1
	movq	-24(%rbp), %rax
	addq	$104, %rax
	movq	%rax, -24(%rbp)
	jmp	.LBB32_8
.LBB32_11:                              # %for.end11
	movq	-16(%rbp), %rax
	movq	576(%rax), %rax
	movq	%rax, -32(%rbp)
	movq	-16(%rbp), %rax
	movq	568(%rax), %rax
	movq	%rax, -8(%rbp)
.LBB32_12:                              # %for.cond14
                                        # =>This Inner Loop Header: Depth=1
	movq	-8(%rbp), %rax
	movq	-32(%rbp), %rcx
	cmpq	%rcx, %rax
	je	.LBB32_23
# %bb.13:                               # %for.body16
                                        #   in Loop: Header=BB32_12 Depth=1
	movq	-8(%rbp), %rax
	cmpq	$0, 48(%rax)
	je	.LBB32_21
# %bb.14:                               # %if.then18
                                        #   in Loop: Header=BB32_12 Depth=1
	movq	-8(%rbp), %rax
	movq	8(%rax), %rax
	cmpl	$0, 96(%rax)
	jge	.LBB32_16
# %bb.15:                               # %land.lhs.true
                                        #   in Loop: Header=BB32_12 Depth=1
	movq	-8(%rbp), %rax
	movq	16(%rax), %rax
	cmpl	$0, 96(%rax)
	jg	.LBB32_20
.LBB32_16:                              # %if.then22
                                        #   in Loop: Header=BB32_12 Depth=1
	movq	-8(%rbp), %rax
	movq	8(%rax), %rax
	cmpl	$0, 96(%rax)
	jne	.LBB32_18
# %bb.17:                               # %if.then26
                                        #   in Loop: Header=BB32_12 Depth=1
	movq	-8(%rbp), %rax
	movq	56(%rax), %rax
	movq	-16(%rbp), %rcx
	subq	528(%rcx), %rax
	addq	-40(%rbp), %rax
	movq	%rax, -40(%rbp)
	movq	-48(%rbp), %rax
	addq	$1, %rax
	movq	%rax, -48(%rbp)
	jmp	.LBB32_19
.LBB32_18:                              # %if.else27
                                        #   in Loop: Header=BB32_12 Depth=1
	movq	-8(%rbp), %rax
	movq	56(%rax), %rax
	addq	-40(%rbp), %rax
	movq	%rax, -40(%rbp)
.LBB32_19:                              # %if.end30
                                        #   in Loop: Header=BB32_12 Depth=1
	jmp	.LBB32_20
.LBB32_20:                              # %if.end31
                                        #   in Loop: Header=BB32_12 Depth=1
	jmp	.LBB32_21
.LBB32_21:                              # %if.end32
                                        #   in Loop: Header=BB32_12 Depth=1
	jmp	.LBB32_22
.LBB32_22:                              # %for.inc33
                                        #   in Loop: Header=BB32_12 Depth=1
	movq	-8(%rbp), %rax
	addq	$64, %rax
	movq	%rax, -8(%rbp)
	jmp	.LBB32_12
.LBB32_23:                              # %for.end35
	vcvtsi2sdq	-48(%rbp), %xmm0, %xmm0
	movq	-16(%rbp), %rax
	vcvtsi2sdq	528(%rax), %xmm0, %xmm1
	vmulsd	%xmm1, %xmm0, %xmm0
	vcvtsi2sdq	-40(%rbp), %xmm0, %xmm1
	vaddsd	%xmm1, %xmm0, %xmm0
	cmpl	$1347933634, -52(%rbp)  # imm = 0x5057D5C2
	jne	.LBB32_25
.LBB32_24:
	addq	$64, %rsp
	popq	%rbp
	.cfi_def_cfa %rsp, 8
	retq
.LBB32_25:                              # %func_exit
	.cfi_def_cfa %rbp, 16
	vmovsd	%xmm0, -64(%rbp)        # 8-byte Spill
	callq	detect_breach
	vmovsd	-64(%rbp), %xmm0        # 8-byte Reload
                                        # xmm0 = mem[0],zero
	jmp	.LBB32_24
.Lfunc_end32:
	.size	flow_org_cost.26, .Lfunc_end32-flow_org_cost.26
	.cfi_endproc
                                        # -- End function
	.globl	flow_org_cost.27        # -- Begin function flow_org_cost.27
	.p2align	4, 0x90
	.type	flow_org_cost.27,@function
flow_org_cost.27:                       # @flow_org_cost.27
	.cfi_startproc
# %bb.0:                                # %entry
	pushq	%rbp
	.cfi_def_cfa_offset 16
	.cfi_offset %rbp, -16
	movq	%rsp, %rbp
	.cfi_def_cfa_register %rbp
	subq	$64, %rsp
	movl	$1272413060, -52(%rbp)  # imm = 0x4BD77B84
	movq	%rdi, -16(%rbp)
	movq	$0, -48(%rbp)
	movq	$0, -32(%rbp)
	movq	-16(%rbp), %rax
	movq	576(%rax), %rax
	movq	%rax, -40(%rbp)
	movq	-16(%rbp), %rax
	movq	568(%rax), %rax
	movq	%rax, -8(%rbp)
.LBB33_1:                               # %for.cond
                                        # =>This Inner Loop Header: Depth=1
	movq	-8(%rbp), %rax
	movq	-40(%rbp), %rcx
	cmpq	%rcx, %rax
	je	.LBB33_7
# %bb.2:                                # %for.body
                                        #   in Loop: Header=BB33_1 Depth=1
	movq	-8(%rbp), %rax
	cmpl	$2, 24(%rax)
	jne	.LBB33_4
# %bb.3:                                # %if.then
                                        #   in Loop: Header=BB33_1 Depth=1
	movq	-8(%rbp), %rax
	movq	$1, 48(%rax)
	jmp	.LBB33_5
.LBB33_4:                               # %if.else
                                        #   in Loop: Header=BB33_1 Depth=1
	movq	-8(%rbp), %rax
	movq	$0, 48(%rax)
.LBB33_5:                               # %if.end
                                        #   in Loop: Header=BB33_1 Depth=1
	jmp	.LBB33_6
.LBB33_6:                               # %for.inc
                                        #   in Loop: Header=BB33_1 Depth=1
	movq	-8(%rbp), %rax
	addq	$64, %rax
	movq	%rax, -8(%rbp)
	jmp	.LBB33_1
.LBB33_7:                               # %for.end
	movq	-16(%rbp), %rax
	movq	560(%rax), %rax
	movq	%rax, -40(%rbp)
	movq	-16(%rbp), %rax
	movq	552(%rax), %rax
	movq	%rax, -24(%rbp)
	movq	-24(%rbp), %rax
	addq	$104, %rax
	movq	%rax, -24(%rbp)
.LBB33_8:                               # %for.cond4
                                        # =>This Inner Loop Header: Depth=1
	movq	-24(%rbp), %rax
	movq	-40(%rbp), %rcx
	cmpq	%rcx, %rax
	je	.LBB33_11
# %bb.9:                                # %for.body6
                                        #   in Loop: Header=BB33_8 Depth=1
	movq	-24(%rbp), %rax
	movq	80(%rax), %rax
	movq	-24(%rbp), %rcx
	movq	48(%rcx), %rcx
	movq	%rax, 48(%rcx)
# %bb.10:                               # %for.inc9
                                        #   in Loop: Header=BB33_8 Depth=1
	movq	-24(%rbp), %rax
	addq	$104, %rax
	movq	%rax, -24(%rbp)
	jmp	.LBB33_8
.LBB33_11:                              # %for.end11
	movq	-16(%rbp), %rax
	movq	576(%rax), %rax
	movq	%rax, -40(%rbp)
	movq	-16(%rbp), %rax
	movq	568(%rax), %rax
	movq	%rax, -8(%rbp)
.LBB33_12:                              # %for.cond14
                                        # =>This Inner Loop Header: Depth=1
	movq	-8(%rbp), %rax
	movq	-40(%rbp), %rcx
	cmpq	%rcx, %rax
	je	.LBB33_23
# %bb.13:                               # %for.body16
                                        #   in Loop: Header=BB33_12 Depth=1
	movq	-8(%rbp), %rax
	cmpq	$0, 48(%rax)
	je	.LBB33_21
# %bb.14:                               # %if.then18
                                        #   in Loop: Header=BB33_12 Depth=1
	movq	-8(%rbp), %rax
	movq	8(%rax), %rax
	cmpl	$0, 96(%rax)
	jge	.LBB33_16
# %bb.15:                               # %land.lhs.true
                                        #   in Loop: Header=BB33_12 Depth=1
	movq	-8(%rbp), %rax
	movq	16(%rax), %rax
	cmpl	$0, 96(%rax)
	jg	.LBB33_20
.LBB33_16:                              # %if.then22
                                        #   in Loop: Header=BB33_12 Depth=1
	movq	-8(%rbp), %rax
	movq	8(%rax), %rax
	cmpl	$0, 96(%rax)
	jne	.LBB33_18
# %bb.17:                               # %if.then26
                                        #   in Loop: Header=BB33_12 Depth=1
	movq	-8(%rbp), %rax
	movq	56(%rax), %rax
	movq	-16(%rbp), %rcx
	subq	528(%rcx), %rax
	addq	-32(%rbp), %rax
	movq	%rax, -32(%rbp)
	movq	-48(%rbp), %rax
	addq	$1, %rax
	movq	%rax, -48(%rbp)
	jmp	.LBB33_19
.LBB33_18:                              # %if.else27
                                        #   in Loop: Header=BB33_12 Depth=1
	movq	-8(%rbp), %rax
	movq	56(%rax), %rax
	addq	-32(%rbp), %rax
	movq	%rax, -32(%rbp)
.LBB33_19:                              # %if.end30
                                        #   in Loop: Header=BB33_12 Depth=1
	jmp	.LBB33_20
.LBB33_20:                              # %if.end31
                                        #   in Loop: Header=BB33_12 Depth=1
	jmp	.LBB33_21
.LBB33_21:                              # %if.end32
                                        #   in Loop: Header=BB33_12 Depth=1
	jmp	.LBB33_22
.LBB33_22:                              # %for.inc33
                                        #   in Loop: Header=BB33_12 Depth=1
	movq	-8(%rbp), %rax
	addq	$64, %rax
	movq	%rax, -8(%rbp)
	jmp	.LBB33_12
.LBB33_23:                              # %for.end35
	vcvtsi2sdq	-48(%rbp), %xmm0, %xmm0
	movq	-16(%rbp), %rax
	vcvtsi2sdq	528(%rax), %xmm0, %xmm1
	vmulsd	%xmm1, %xmm0, %xmm0
	vcvtsi2sdq	-32(%rbp), %xmm0, %xmm1
	vaddsd	%xmm1, %xmm0, %xmm0
	cmpl	$1272413060, -52(%rbp)  # imm = 0x4BD77B84
	jne	.LBB33_25
.LBB33_24:
	addq	$64, %rsp
	popq	%rbp
	.cfi_def_cfa %rsp, 8
	retq
.LBB33_25:                              # %func_exit
	.cfi_def_cfa %rbp, 16
	vmovsd	%xmm0, -64(%rbp)        # 8-byte Spill
	callq	detect_breach
	vmovsd	-64(%rbp), %xmm0        # 8-byte Reload
                                        # xmm0 = mem[0],zero
	jmp	.LBB33_24
.Lfunc_end33:
	.size	flow_org_cost.27, .Lfunc_end33-flow_org_cost.27
	.cfi_endproc
                                        # -- End function
	.globl	flow_org_cost.28        # -- Begin function flow_org_cost.28
	.p2align	4, 0x90
	.type	flow_org_cost.28,@function
flow_org_cost.28:                       # @flow_org_cost.28
	.cfi_startproc
# %bb.0:                                # %entry
	pushq	%rbp
	.cfi_def_cfa_offset 16
	.cfi_offset %rbp, -16
	movq	%rsp, %rbp
	.cfi_def_cfa_register %rbp
	subq	$64, %rsp
	movl	$1450439056, -52(%rbp)  # imm = 0x5673F190
	movq	%rdi, -16(%rbp)
	movq	$0, -48(%rbp)
	movq	$0, -40(%rbp)
	movq	-16(%rbp), %rax
	movq	576(%rax), %rax
	movq	%rax, -32(%rbp)
	movq	-16(%rbp), %rax
	movq	568(%rax), %rax
	movq	%rax, -8(%rbp)
.LBB34_1:                               # %for.cond
                                        # =>This Inner Loop Header: Depth=1
	movq	-8(%rbp), %rax
	movq	-32(%rbp), %rcx
	cmpq	%rcx, %rax
	je	.LBB34_7
# %bb.2:                                # %for.body
                                        #   in Loop: Header=BB34_1 Depth=1
	movq	-8(%rbp), %rax
	cmpl	$2, 24(%rax)
	jne	.LBB34_4
# %bb.3:                                # %if.then
                                        #   in Loop: Header=BB34_1 Depth=1
	movq	-8(%rbp), %rax
	movq	$1, 48(%rax)
	jmp	.LBB34_5
.LBB34_4:                               # %if.else
                                        #   in Loop: Header=BB34_1 Depth=1
	movq	-8(%rbp), %rax
	movq	$0, 48(%rax)
.LBB34_5:                               # %if.end
                                        #   in Loop: Header=BB34_1 Depth=1
	jmp	.LBB34_6
.LBB34_6:                               # %for.inc
                                        #   in Loop: Header=BB34_1 Depth=1
	movq	-8(%rbp), %rax
	addq	$64, %rax
	movq	%rax, -8(%rbp)
	jmp	.LBB34_1
.LBB34_7:                               # %for.end
	movq	-16(%rbp), %rax
	movq	560(%rax), %rax
	movq	%rax, -32(%rbp)
	movq	-16(%rbp), %rax
	movq	552(%rax), %rax
	movq	%rax, -24(%rbp)
	movq	-24(%rbp), %rax
	addq	$104, %rax
	movq	%rax, -24(%rbp)
.LBB34_8:                               # %for.cond4
                                        # =>This Inner Loop Header: Depth=1
	movq	-24(%rbp), %rax
	movq	-32(%rbp), %rcx
	cmpq	%rcx, %rax
	je	.LBB34_11
# %bb.9:                                # %for.body6
                                        #   in Loop: Header=BB34_8 Depth=1
	movq	-24(%rbp), %rax
	movq	80(%rax), %rax
	movq	-24(%rbp), %rcx
	movq	48(%rcx), %rcx
	movq	%rax, 48(%rcx)
# %bb.10:                               # %for.inc9
                                        #   in Loop: Header=BB34_8 Depth=1
	movq	-24(%rbp), %rax
	addq	$104, %rax
	movq	%rax, -24(%rbp)
	jmp	.LBB34_8
.LBB34_11:                              # %for.end11
	movq	-16(%rbp), %rax
	movq	576(%rax), %rax
	movq	%rax, -32(%rbp)
	movq	-16(%rbp), %rax
	movq	568(%rax), %rax
	movq	%rax, -8(%rbp)
.LBB34_12:                              # %for.cond14
                                        # =>This Inner Loop Header: Depth=1
	movq	-8(%rbp), %rax
	movq	-32(%rbp), %rcx
	cmpq	%rcx, %rax
	je	.LBB34_23
# %bb.13:                               # %for.body16
                                        #   in Loop: Header=BB34_12 Depth=1
	movq	-8(%rbp), %rax
	cmpq	$0, 48(%rax)
	je	.LBB34_21
# %bb.14:                               # %if.then18
                                        #   in Loop: Header=BB34_12 Depth=1
	movq	-8(%rbp), %rax
	movq	8(%rax), %rax
	cmpl	$0, 96(%rax)
	jge	.LBB34_16
# %bb.15:                               # %land.lhs.true
                                        #   in Loop: Header=BB34_12 Depth=1
	movq	-8(%rbp), %rax
	movq	16(%rax), %rax
	cmpl	$0, 96(%rax)
	jg	.LBB34_20
.LBB34_16:                              # %if.then22
                                        #   in Loop: Header=BB34_12 Depth=1
	movq	-8(%rbp), %rax
	movq	8(%rax), %rax
	cmpl	$0, 96(%rax)
	jne	.LBB34_18
# %bb.17:                               # %if.then26
                                        #   in Loop: Header=BB34_12 Depth=1
	movq	-8(%rbp), %rax
	movq	56(%rax), %rax
	movq	-16(%rbp), %rcx
	subq	528(%rcx), %rax
	addq	-40(%rbp), %rax
	movq	%rax, -40(%rbp)
	movq	-48(%rbp), %rax
	addq	$1, %rax
	movq	%rax, -48(%rbp)
	jmp	.LBB34_19
.LBB34_18:                              # %if.else27
                                        #   in Loop: Header=BB34_12 Depth=1
	movq	-8(%rbp), %rax
	movq	56(%rax), %rax
	addq	-40(%rbp), %rax
	movq	%rax, -40(%rbp)
.LBB34_19:                              # %if.end30
                                        #   in Loop: Header=BB34_12 Depth=1
	jmp	.LBB34_20
.LBB34_20:                              # %if.end31
                                        #   in Loop: Header=BB34_12 Depth=1
	jmp	.LBB34_21
.LBB34_21:                              # %if.end32
                                        #   in Loop: Header=BB34_12 Depth=1
	jmp	.LBB34_22
.LBB34_22:                              # %for.inc33
                                        #   in Loop: Header=BB34_12 Depth=1
	movq	-8(%rbp), %rax
	addq	$64, %rax
	movq	%rax, -8(%rbp)
	jmp	.LBB34_12
.LBB34_23:                              # %for.end35
	vcvtsi2sdq	-48(%rbp), %xmm0, %xmm0
	movq	-16(%rbp), %rax
	vcvtsi2sdq	528(%rax), %xmm0, %xmm1
	vmulsd	%xmm1, %xmm0, %xmm0
	vcvtsi2sdq	-40(%rbp), %xmm0, %xmm1
	vaddsd	%xmm1, %xmm0, %xmm0
	cmpl	$1450439056, -52(%rbp)  # imm = 0x5673F190
	jne	.LBB34_25
.LBB34_24:
	addq	$64, %rsp
	popq	%rbp
	.cfi_def_cfa %rsp, 8
	retq
.LBB34_25:                              # %func_exit
	.cfi_def_cfa %rbp, 16
	vmovsd	%xmm0, -64(%rbp)        # 8-byte Spill
	callq	detect_breach
	vmovsd	-64(%rbp), %xmm0        # 8-byte Reload
                                        # xmm0 = mem[0],zero
	jmp	.LBB34_24
.Lfunc_end34:
	.size	flow_org_cost.28, .Lfunc_end34-flow_org_cost.28
	.cfi_endproc
                                        # -- End function
	.globl	refresh_neighbour_lists.29 # -- Begin function refresh_neighbour_lists.29
	.p2align	4, 0x90
	.type	refresh_neighbour_lists.29,@function
refresh_neighbour_lists.29:             # @refresh_neighbour_lists.29
	.cfi_startproc
# %bb.0:                                # %entry
	pushq	%rbp
	.cfi_def_cfa_offset 16
	.cfi_offset %rbp, -16
	movq	%rsp, %rbp
	.cfi_def_cfa_register %rbp
	subq	$48, %rsp
	movl	$2009784699, -36(%rbp)  # imm = 0x77CAE17B
	movq	%rdi, -24(%rbp)
	movq	-24(%rbp), %rax
	movq	552(%rax), %rax
	movq	%rax, -16(%rbp)
	movq	-24(%rbp), %rax
	movq	560(%rax), %rax
	movq	%rax, -32(%rbp)
.LBB35_1:                               # %for.cond
                                        # =>This Inner Loop Header: Depth=1
	movq	-16(%rbp), %rax
	movq	-32(%rbp), %rcx
	cmpq	%rcx, %rax
	jae	.LBB35_4
# %bb.2:                                # %for.body
                                        #   in Loop: Header=BB35_1 Depth=1
	movq	-16(%rbp), %rax
	movq	$0, 64(%rax)
	movq	-16(%rbp), %rax
	movq	$0, 56(%rax)
# %bb.3:                                # %for.inc
                                        #   in Loop: Header=BB35_1 Depth=1
	movq	-16(%rbp), %rax
	addq	$104, %rax
	movq	%rax, -16(%rbp)
	jmp	.LBB35_1
.LBB35_4:                               # %for.end
	movq	-24(%rbp), %rax
	movq	568(%rax), %rax
	movq	%rax, -8(%rbp)
	movq	-24(%rbp), %rax
	movq	576(%rax), %rax
	movq	%rax, -32(%rbp)
.LBB35_5:                               # %for.cond1
                                        # =>This Inner Loop Header: Depth=1
	movq	-8(%rbp), %rax
	movq	-32(%rbp), %rcx
	cmpq	%rcx, %rax
	jae	.LBB35_8
# %bb.6:                                # %for.body3
                                        #   in Loop: Header=BB35_5 Depth=1
	movq	-8(%rbp), %rax
	movq	8(%rax), %rax
	movq	56(%rax), %rax
	movq	-8(%rbp), %rcx
	movq	%rax, 32(%rcx)
	movq	-8(%rbp), %rax
	movq	-8(%rbp), %rcx
	movq	8(%rcx), %rcx
	movq	%rax, 56(%rcx)
	movq	-8(%rbp), %rax
	movq	16(%rax), %rax
	movq	64(%rax), %rax
	movq	-8(%rbp), %rcx
	movq	%rax, 40(%rcx)
	movq	-8(%rbp), %rax
	movq	-8(%rbp), %rcx
	movq	16(%rcx), %rcx
	movq	%rax, 64(%rcx)
# %bb.7:                                # %for.inc10
                                        #   in Loop: Header=BB35_5 Depth=1
	movq	-8(%rbp), %rax
	addq	$64, %rax
	movq	%rax, -8(%rbp)
	jmp	.LBB35_5
.LBB35_8:                               # %for.end12
	cmpl	$2009784699, -36(%rbp)  # imm = 0x77CAE17B
	jne	.LBB35_10
.LBB35_9:
	addq	$48, %rsp
	popq	%rbp
	.cfi_def_cfa %rsp, 8
	retq
.LBB35_10:                              # %func_exit
	.cfi_def_cfa %rbp, 16
	callq	detect_breach
	jmp	.LBB35_9
.Lfunc_end35:
	.size	refresh_neighbour_lists.29, .Lfunc_end35-refresh_neighbour_lists.29
	.cfi_endproc
                                        # -- End function
	.globl	dual_feasible.30        # -- Begin function dual_feasible.30
	.p2align	4, 0x90
	.type	dual_feasible.30,@function
dual_feasible.30:                       # @dual_feasible.30
	.cfi_startproc
# %bb.0:                                # %entry
	pushq	%rbp
	.cfi_def_cfa_offset 16
	.cfi_offset %rbp, -16
	movq	%rsp, %rbp
	.cfi_def_cfa_register %rbp
	pushq	%rbx
	subq	$56, %rsp
	.cfi_offset %rbx, -24
	movl	$2072314982, -28(%rbp)  # imm = 0x7B850466
	movq	%rdi, -24(%rbp)
	movq	-24(%rbp), %rax
	movq	576(%rax), %rax
	movq	%rax, -56(%rbp)
	movq	-24(%rbp), %rax
	movq	568(%rax), %rax
	movq	%rax, -16(%rbp)
.LBB36_1:                               # %for.cond
                                        # =>This Inner Loop Header: Depth=1
	movq	-16(%rbp), %rax
	cmpq	-56(%rbp), %rax
	jae	.LBB36_15
# %bb.2:                                # %for.body
                                        #   in Loop: Header=BB36_1 Depth=1
	movq	-16(%rbp), %rax
	movq	(%rax), %rcx
	movq	8(%rax), %rdx
	movq	(%rdx), %rdx
	subq	%rdx, %rcx
	movq	16(%rax), %rax
	movq	(%rax), %rax
	addq	%rax, %rcx
	movq	%rcx, -40(%rbp)
	movq	-16(%rbp), %rax
	movl	24(%rax), %eax
	movl	%eax, %ecx
	subl	$-1, %ecx
	je	.LBB36_11
	jmp	.LBB36_3
.LBB36_3:                               # %for.body
                                        #   in Loop: Header=BB36_1 Depth=1
	movl	%eax, %ecx
	subl	$2, %ecx
	jb	.LBB36_5
	jmp	.LBB36_4
.LBB36_4:                               # %for.body
                                        #   in Loop: Header=BB36_1 Depth=1
	subl	$2, %eax
	je	.LBB36_8
	jmp	.LBB36_12
.LBB36_5:                               # %sw.bb
                                        #   in Loop: Header=BB36_1 Depth=1
	xorl	%eax, %eax
	movq	-40(%rbp), %rcx
	movq	-24(%rbp), %rdx
	subq	512(%rdx), %rax
	cmpq	%rax, %rcx
	jge	.LBB36_7
# %bb.6:                                # %if.then
	jmp	.LBB36_16
.LBB36_7:                               # %if.end
                                        #   in Loop: Header=BB36_1 Depth=1
	jmp	.LBB36_13
.LBB36_8:                               # %sw.bb4
                                        #   in Loop: Header=BB36_1 Depth=1
	movq	-40(%rbp), %rax
	movq	-24(%rbp), %rcx
	cmpq	512(%rcx), %rax
	jle	.LBB36_10
# %bb.9:                                # %if.then7
	jmp	.LBB36_16
.LBB36_10:                              # %if.end8
                                        #   in Loop: Header=BB36_1 Depth=1
	jmp	.LBB36_13
.LBB36_11:                              # %sw.bb9
                                        #   in Loop: Header=BB36_1 Depth=1
	jmp	.LBB36_12
.LBB36_12:                              # %sw.default
                                        #   in Loop: Header=BB36_1 Depth=1
	jmp	.LBB36_13
.LBB36_13:                              # %sw.epilog
                                        #   in Loop: Header=BB36_1 Depth=1
	jmp	.LBB36_14
.LBB36_14:                              # %for.inc
                                        #   in Loop: Header=BB36_1 Depth=1
	movq	-16(%rbp), %rax
	addq	$64, %rax
	movq	%rax, -16(%rbp)
	jmp	.LBB36_1
.LBB36_15:                              # %for.end
	movq	$0, -48(%rbp)
	jmp	.LBB36_17
.LBB36_16:                              # %DUAL_INFEAS
	movq	stderr, %rdi
	movabsq	$.L.str.3, %rsi
	movb	$0, %al
	callq	fprintf
	movq	stderr, %rdi
	movabsq	$.L.str.4, %rsi
	movb	$0, %al
	callq	fprintf
	movq	$1, -48(%rbp)
.LBB36_17:                              # %return
	movq	-48(%rbp), %rbx
	cmpl	$2072314982, -28(%rbp)  # imm = 0x7B850466
	jne	.LBB36_19
.LBB36_18:
	movq	%rbx, %rax
	addq	$56, %rsp
	popq	%rbx
	popq	%rbp
	.cfi_def_cfa %rsp, 8
	retq
.LBB36_19:                              # %func_exit
	.cfi_def_cfa %rbp, 16
	callq	detect_breach
	jmp	.LBB36_18
.Lfunc_end36:
	.size	dual_feasible.30, .Lfunc_end36-dual_feasible.30
	.cfi_endproc
                                        # -- End function
	.globl	refresh_neighbour_lists.31 # -- Begin function refresh_neighbour_lists.31
	.p2align	4, 0x90
	.type	refresh_neighbour_lists.31,@function
refresh_neighbour_lists.31:             # @refresh_neighbour_lists.31
	.cfi_startproc
# %bb.0:                                # %entry
	pushq	%rbp
	.cfi_def_cfa_offset 16
	.cfi_offset %rbp, -16
	movq	%rsp, %rbp
	.cfi_def_cfa_register %rbp
	subq	$48, %rsp
	movl	$221313390, -36(%rbp)   # imm = 0xD30F96E
	movq	%rdi, -24(%rbp)
	movq	-24(%rbp), %rax
	movq	552(%rax), %rax
	movq	%rax, -16(%rbp)
	movq	-24(%rbp), %rax
	movq	560(%rax), %rax
	movq	%rax, -32(%rbp)
.LBB37_1:                               # %for.cond
                                        # =>This Inner Loop Header: Depth=1
	movq	-16(%rbp), %rax
	movq	-32(%rbp), %rcx
	cmpq	%rcx, %rax
	jae	.LBB37_4
# %bb.2:                                # %for.body
                                        #   in Loop: Header=BB37_1 Depth=1
	movq	-16(%rbp), %rax
	movq	$0, 64(%rax)
	movq	-16(%rbp), %rax
	movq	$0, 56(%rax)
# %bb.3:                                # %for.inc
                                        #   in Loop: Header=BB37_1 Depth=1
	movq	-16(%rbp), %rax
	addq	$104, %rax
	movq	%rax, -16(%rbp)
	jmp	.LBB37_1
.LBB37_4:                               # %for.end
	movq	-24(%rbp), %rax
	movq	568(%rax), %rax
	movq	%rax, -8(%rbp)
	movq	-24(%rbp), %rax
	movq	576(%rax), %rax
	movq	%rax, -32(%rbp)
.LBB37_5:                               # %for.cond1
                                        # =>This Inner Loop Header: Depth=1
	movq	-8(%rbp), %rax
	movq	-32(%rbp), %rcx
	cmpq	%rcx, %rax
	jae	.LBB37_8
# %bb.6:                                # %for.body3
                                        #   in Loop: Header=BB37_5 Depth=1
	movq	-8(%rbp), %rax
	movq	8(%rax), %rax
	movq	56(%rax), %rax
	movq	-8(%rbp), %rcx
	movq	%rax, 32(%rcx)
	movq	-8(%rbp), %rax
	movq	-8(%rbp), %rcx
	movq	8(%rcx), %rcx
	movq	%rax, 56(%rcx)
	movq	-8(%rbp), %rax
	movq	16(%rax), %rax
	movq	64(%rax), %rax
	movq	-8(%rbp), %rcx
	movq	%rax, 40(%rcx)
	movq	-8(%rbp), %rax
	movq	-8(%rbp), %rcx
	movq	16(%rcx), %rcx
	movq	%rax, 64(%rcx)
# %bb.7:                                # %for.inc10
                                        #   in Loop: Header=BB37_5 Depth=1
	movq	-8(%rbp), %rax
	addq	$64, %rax
	movq	%rax, -8(%rbp)
	jmp	.LBB37_5
.LBB37_8:                               # %for.end12
	cmpl	$221313390, -36(%rbp)   # imm = 0xD30F96E
	jne	.LBB37_10
.LBB37_9:
	addq	$48, %rsp
	popq	%rbp
	.cfi_def_cfa %rsp, 8
	retq
.LBB37_10:                              # %func_exit
	.cfi_def_cfa %rbp, 16
	callq	detect_breach
	jmp	.LBB37_9
.Lfunc_end37:
	.size	refresh_neighbour_lists.31, .Lfunc_end37-refresh_neighbour_lists.31
	.cfi_endproc
                                        # -- End function
	.globl	refresh_potential.32    # -- Begin function refresh_potential.32
	.p2align	4, 0x90
	.type	refresh_potential.32,@function
refresh_potential.32:                   # @refresh_potential.32
	.cfi_startproc
# %bb.0:                                # %entry
	pushq	%rbp
	.cfi_def_cfa_offset 16
	.cfi_offset %rbp, -16
	movq	%rsp, %rbp
	.cfi_def_cfa_register %rbp
	pushq	%rbx
	subq	$56, %rsp
	.cfi_offset %rbx, -24
	movl	$1983905034, -44(%rbp)  # imm = 0x763FFD0A
	movq	%rdi, -56(%rbp)
	movq	-56(%rbp), %rax
	movq	552(%rax), %rax
	movq	%rax, -32(%rbp)
	movq	$0, -40(%rbp)
	movq	-32(%rbp), %rax
	movq	$-100000000, (%rax)     # imm = 0xFA0A1F00
	movq	-32(%rbp), %rax
	movq	16(%rax), %rax
	movq	%rax, -16(%rbp)
	movq	%rax, -24(%rbp)
.LBB38_1:                               # %while.cond
                                        # =>This Loop Header: Depth=1
                                        #     Child Loop BB38_3 Depth 2
                                        #     Child Loop BB38_9 Depth 2
	movq	-16(%rbp), %rax
	cmpq	-32(%rbp), %rax
	je	.LBB38_16
# %bb.2:                                # %while.body
                                        #   in Loop: Header=BB38_1 Depth=1
	jmp	.LBB38_3
.LBB38_3:                               # %while.cond1
                                        #   Parent Loop BB38_1 Depth=1
                                        # =>  This Inner Loop Header: Depth=2
	cmpq	$0, -16(%rbp)
	je	.LBB38_8
# %bb.4:                                # %while.body2
                                        #   in Loop: Header=BB38_3 Depth=2
	movq	-16(%rbp), %rax
	cmpl	$1, 8(%rax)
	jne	.LBB38_6
# %bb.5:                                # %if.then
                                        #   in Loop: Header=BB38_3 Depth=2
	movq	-16(%rbp), %rax
	movq	48(%rax), %rax
	movq	(%rax), %rax
	movq	-16(%rbp), %rcx
	movq	24(%rcx), %rcx
	addq	(%rcx), %rax
	movq	-16(%rbp), %rcx
	movq	%rax, (%rcx)
	jmp	.LBB38_7
.LBB38_6:                               # %if.else
                                        #   in Loop: Header=BB38_3 Depth=2
	movq	-16(%rbp), %rax
	movq	24(%rax), %rax
	movq	(%rax), %rax
	movq	-16(%rbp), %rcx
	movq	48(%rcx), %rcx
	subq	(%rcx), %rax
	movq	-16(%rbp), %rcx
	movq	%rax, (%rcx)
	movq	-40(%rbp), %rax
	addq	$1, %rax
	movq	%rax, -40(%rbp)
.LBB38_7:                               # %if.end
                                        #   in Loop: Header=BB38_3 Depth=2
	movq	-16(%rbp), %rax
	movq	%rax, -24(%rbp)
	movq	-16(%rbp), %rax
	movq	16(%rax), %rax
	movq	%rax, -16(%rbp)
	jmp	.LBB38_3
.LBB38_8:                               # %while.end
                                        #   in Loop: Header=BB38_1 Depth=1
	movq	-24(%rbp), %rax
	movq	%rax, -16(%rbp)
.LBB38_9:                               # %while.cond12
                                        #   Parent Loop BB38_1 Depth=1
                                        # =>  This Inner Loop Header: Depth=2
	movq	-16(%rbp), %rax
	cmpq	$0, 24(%rax)
	je	.LBB38_14
# %bb.10:                               # %while.body15
                                        #   in Loop: Header=BB38_9 Depth=2
	movq	-16(%rbp), %rax
	movq	32(%rax), %rax
	movq	%rax, -24(%rbp)
	cmpq	$0, -24(%rbp)
	je	.LBB38_12
# %bb.11:                               # %if.then17
                                        #   in Loop: Header=BB38_1 Depth=1
	movq	-24(%rbp), %rax
	movq	%rax, -16(%rbp)
	jmp	.LBB38_15
.LBB38_12:                              # %if.else18
                                        #   in Loop: Header=BB38_9 Depth=2
	movq	-16(%rbp), %rax
	movq	24(%rax), %rax
	movq	%rax, -16(%rbp)
# %bb.13:                               # %if.end20
                                        #   in Loop: Header=BB38_9 Depth=2
	jmp	.LBB38_9
.LBB38_14:                              # %while.end21.loopexit
                                        #   in Loop: Header=BB38_1 Depth=1
	jmp	.LBB38_15
.LBB38_15:                              # %while.end21
                                        #   in Loop: Header=BB38_1 Depth=1
	jmp	.LBB38_1
.LBB38_16:                              # %while.end22
	movq	-40(%rbp), %rbx
	cmpl	$1983905034, -44(%rbp)  # imm = 0x763FFD0A
	jne	.LBB38_18
.LBB38_17:
	movq	%rbx, %rax
	addq	$56, %rsp
	popq	%rbx
	popq	%rbp
	.cfi_def_cfa %rsp, 8
	retq
.LBB38_18:                              # %func_exit
	.cfi_def_cfa %rbp, 16
	callq	detect_breach
	jmp	.LBB38_17
.Lfunc_end38:
	.size	refresh_potential.32, .Lfunc_end38-refresh_potential.32
	.cfi_endproc
                                        # -- End function
	.globl	flow_org_cost.33        # -- Begin function flow_org_cost.33
	.p2align	4, 0x90
	.type	flow_org_cost.33,@function
flow_org_cost.33:                       # @flow_org_cost.33
	.cfi_startproc
# %bb.0:                                # %entry
	pushq	%rbp
	.cfi_def_cfa_offset 16
	.cfi_offset %rbp, -16
	movq	%rsp, %rbp
	.cfi_def_cfa_register %rbp
	subq	$64, %rsp
	movl	$1686506152, -52(%rbp)  # imm = 0x64860AA8
	movq	%rdi, -16(%rbp)
	movq	$0, -48(%rbp)
	movq	$0, -32(%rbp)
	movq	-16(%rbp), %rax
	movq	576(%rax), %rax
	movq	%rax, -40(%rbp)
	movq	-16(%rbp), %rax
	movq	568(%rax), %rax
	movq	%rax, -8(%rbp)
.LBB39_1:                               # %for.cond
                                        # =>This Inner Loop Header: Depth=1
	movq	-8(%rbp), %rax
	movq	-40(%rbp), %rcx
	cmpq	%rcx, %rax
	je	.LBB39_7
# %bb.2:                                # %for.body
                                        #   in Loop: Header=BB39_1 Depth=1
	movq	-8(%rbp), %rax
	cmpl	$2, 24(%rax)
	jne	.LBB39_4
# %bb.3:                                # %if.then
                                        #   in Loop: Header=BB39_1 Depth=1
	movq	-8(%rbp), %rax
	movq	$1, 48(%rax)
	jmp	.LBB39_5
.LBB39_4:                               # %if.else
                                        #   in Loop: Header=BB39_1 Depth=1
	movq	-8(%rbp), %rax
	movq	$0, 48(%rax)
.LBB39_5:                               # %if.end
                                        #   in Loop: Header=BB39_1 Depth=1
	jmp	.LBB39_6
.LBB39_6:                               # %for.inc
                                        #   in Loop: Header=BB39_1 Depth=1
	movq	-8(%rbp), %rax
	addq	$64, %rax
	movq	%rax, -8(%rbp)
	jmp	.LBB39_1
.LBB39_7:                               # %for.end
	movq	-16(%rbp), %rax
	movq	560(%rax), %rax
	movq	%rax, -40(%rbp)
	movq	-16(%rbp), %rax
	movq	552(%rax), %rax
	movq	%rax, -24(%rbp)
	movq	-24(%rbp), %rax
	addq	$104, %rax
	movq	%rax, -24(%rbp)
.LBB39_8:                               # %for.cond4
                                        # =>This Inner Loop Header: Depth=1
	movq	-24(%rbp), %rax
	movq	-40(%rbp), %rcx
	cmpq	%rcx, %rax
	je	.LBB39_11
# %bb.9:                                # %for.body6
                                        #   in Loop: Header=BB39_8 Depth=1
	movq	-24(%rbp), %rax
	movq	80(%rax), %rax
	movq	-24(%rbp), %rcx
	movq	48(%rcx), %rcx
	movq	%rax, 48(%rcx)
# %bb.10:                               # %for.inc9
                                        #   in Loop: Header=BB39_8 Depth=1
	movq	-24(%rbp), %rax
	addq	$104, %rax
	movq	%rax, -24(%rbp)
	jmp	.LBB39_8
.LBB39_11:                              # %for.end11
	movq	-16(%rbp), %rax
	movq	576(%rax), %rax
	movq	%rax, -40(%rbp)
	movq	-16(%rbp), %rax
	movq	568(%rax), %rax
	movq	%rax, -8(%rbp)
.LBB39_12:                              # %for.cond14
                                        # =>This Inner Loop Header: Depth=1
	movq	-8(%rbp), %rax
	movq	-40(%rbp), %rcx
	cmpq	%rcx, %rax
	je	.LBB39_23
# %bb.13:                               # %for.body16
                                        #   in Loop: Header=BB39_12 Depth=1
	movq	-8(%rbp), %rax
	cmpq	$0, 48(%rax)
	je	.LBB39_21
# %bb.14:                               # %if.then18
                                        #   in Loop: Header=BB39_12 Depth=1
	movq	-8(%rbp), %rax
	movq	8(%rax), %rax
	cmpl	$0, 96(%rax)
	jge	.LBB39_16
# %bb.15:                               # %land.lhs.true
                                        #   in Loop: Header=BB39_12 Depth=1
	movq	-8(%rbp), %rax
	movq	16(%rax), %rax
	cmpl	$0, 96(%rax)
	jg	.LBB39_20
.LBB39_16:                              # %if.then22
                                        #   in Loop: Header=BB39_12 Depth=1
	movq	-8(%rbp), %rax
	movq	8(%rax), %rax
	cmpl	$0, 96(%rax)
	jne	.LBB39_18
# %bb.17:                               # %if.then26
                                        #   in Loop: Header=BB39_12 Depth=1
	movq	-8(%rbp), %rax
	movq	56(%rax), %rax
	movq	-16(%rbp), %rcx
	subq	528(%rcx), %rax
	addq	-32(%rbp), %rax
	movq	%rax, -32(%rbp)
	movq	-48(%rbp), %rax
	addq	$1, %rax
	movq	%rax, -48(%rbp)
	jmp	.LBB39_19
.LBB39_18:                              # %if.else27
                                        #   in Loop: Header=BB39_12 Depth=1
	movq	-8(%rbp), %rax
	movq	56(%rax), %rax
	addq	-32(%rbp), %rax
	movq	%rax, -32(%rbp)
.LBB39_19:                              # %if.end30
                                        #   in Loop: Header=BB39_12 Depth=1
	jmp	.LBB39_20
.LBB39_20:                              # %if.end31
                                        #   in Loop: Header=BB39_12 Depth=1
	jmp	.LBB39_21
.LBB39_21:                              # %if.end32
                                        #   in Loop: Header=BB39_12 Depth=1
	jmp	.LBB39_22
.LBB39_22:                              # %for.inc33
                                        #   in Loop: Header=BB39_12 Depth=1
	movq	-8(%rbp), %rax
	addq	$64, %rax
	movq	%rax, -8(%rbp)
	jmp	.LBB39_12
.LBB39_23:                              # %for.end35
	vcvtsi2sdq	-48(%rbp), %xmm0, %xmm0
	movq	-16(%rbp), %rax
	vcvtsi2sdq	528(%rax), %xmm0, %xmm1
	vmulsd	%xmm1, %xmm0, %xmm0
	vcvtsi2sdq	-32(%rbp), %xmm0, %xmm1
	vaddsd	%xmm1, %xmm0, %xmm0
	cmpl	$1686506152, -52(%rbp)  # imm = 0x64860AA8
	jne	.LBB39_25
.LBB39_24:
	addq	$64, %rsp
	popq	%rbp
	.cfi_def_cfa %rsp, 8
	retq
.LBB39_25:                              # %func_exit
	.cfi_def_cfa %rbp, 16
	vmovsd	%xmm0, -64(%rbp)        # 8-byte Spill
	callq	detect_breach
	vmovsd	-64(%rbp), %xmm0        # 8-byte Reload
                                        # xmm0 = mem[0],zero
	jmp	.LBB39_24
.Lfunc_end39:
	.size	flow_org_cost.33, .Lfunc_end39-flow_org_cost.33
	.cfi_endproc
                                        # -- End function
	.globl	flow_org_cost.34        # -- Begin function flow_org_cost.34
	.p2align	4, 0x90
	.type	flow_org_cost.34,@function
flow_org_cost.34:                       # @flow_org_cost.34
	.cfi_startproc
# %bb.0:                                # %entry
	pushq	%rbp
	.cfi_def_cfa_offset 16
	.cfi_offset %rbp, -16
	movq	%rsp, %rbp
	.cfi_def_cfa_register %rbp
	subq	$64, %rsp
	movl	$1991856002, -52(%rbp)  # imm = 0x76B94F82
	movq	%rdi, -16(%rbp)
	movq	$0, -48(%rbp)
	movq	$0, -32(%rbp)
	movq	-16(%rbp), %rax
	movq	576(%rax), %rax
	movq	%rax, -40(%rbp)
	movq	-16(%rbp), %rax
	movq	568(%rax), %rax
	movq	%rax, -8(%rbp)
.LBB40_1:                               # %for.cond
                                        # =>This Inner Loop Header: Depth=1
	movq	-8(%rbp), %rax
	movq	-40(%rbp), %rcx
	cmpq	%rcx, %rax
	je	.LBB40_7
# %bb.2:                                # %for.body
                                        #   in Loop: Header=BB40_1 Depth=1
	movq	-8(%rbp), %rax
	cmpl	$2, 24(%rax)
	jne	.LBB40_4
# %bb.3:                                # %if.then
                                        #   in Loop: Header=BB40_1 Depth=1
	movq	-8(%rbp), %rax
	movq	$1, 48(%rax)
	jmp	.LBB40_5
.LBB40_4:                               # %if.else
                                        #   in Loop: Header=BB40_1 Depth=1
	movq	-8(%rbp), %rax
	movq	$0, 48(%rax)
.LBB40_5:                               # %if.end
                                        #   in Loop: Header=BB40_1 Depth=1
	jmp	.LBB40_6
.LBB40_6:                               # %for.inc
                                        #   in Loop: Header=BB40_1 Depth=1
	movq	-8(%rbp), %rax
	addq	$64, %rax
	movq	%rax, -8(%rbp)
	jmp	.LBB40_1
.LBB40_7:                               # %for.end
	movq	-16(%rbp), %rax
	movq	560(%rax), %rax
	movq	%rax, -40(%rbp)
	movq	-16(%rbp), %rax
	movq	552(%rax), %rax
	movq	%rax, -24(%rbp)
	movq	-24(%rbp), %rax
	addq	$104, %rax
	movq	%rax, -24(%rbp)
.LBB40_8:                               # %for.cond4
                                        # =>This Inner Loop Header: Depth=1
	movq	-24(%rbp), %rax
	movq	-40(%rbp), %rcx
	cmpq	%rcx, %rax
	je	.LBB40_11
# %bb.9:                                # %for.body6
                                        #   in Loop: Header=BB40_8 Depth=1
	movq	-24(%rbp), %rax
	movq	80(%rax), %rax
	movq	-24(%rbp), %rcx
	movq	48(%rcx), %rcx
	movq	%rax, 48(%rcx)
# %bb.10:                               # %for.inc9
                                        #   in Loop: Header=BB40_8 Depth=1
	movq	-24(%rbp), %rax
	addq	$104, %rax
	movq	%rax, -24(%rbp)
	jmp	.LBB40_8
.LBB40_11:                              # %for.end11
	movq	-16(%rbp), %rax
	movq	576(%rax), %rax
	movq	%rax, -40(%rbp)
	movq	-16(%rbp), %rax
	movq	568(%rax), %rax
	movq	%rax, -8(%rbp)
.LBB40_12:                              # %for.cond14
                                        # =>This Inner Loop Header: Depth=1
	movq	-8(%rbp), %rax
	movq	-40(%rbp), %rcx
	cmpq	%rcx, %rax
	je	.LBB40_23
# %bb.13:                               # %for.body16
                                        #   in Loop: Header=BB40_12 Depth=1
	movq	-8(%rbp), %rax
	cmpq	$0, 48(%rax)
	je	.LBB40_21
# %bb.14:                               # %if.then18
                                        #   in Loop: Header=BB40_12 Depth=1
	movq	-8(%rbp), %rax
	movq	8(%rax), %rax
	cmpl	$0, 96(%rax)
	jge	.LBB40_16
# %bb.15:                               # %land.lhs.true
                                        #   in Loop: Header=BB40_12 Depth=1
	movq	-8(%rbp), %rax
	movq	16(%rax), %rax
	cmpl	$0, 96(%rax)
	jg	.LBB40_20
.LBB40_16:                              # %if.then22
                                        #   in Loop: Header=BB40_12 Depth=1
	movq	-8(%rbp), %rax
	movq	8(%rax), %rax
	cmpl	$0, 96(%rax)
	jne	.LBB40_18
# %bb.17:                               # %if.then26
                                        #   in Loop: Header=BB40_12 Depth=1
	movq	-8(%rbp), %rax
	movq	56(%rax), %rax
	movq	-16(%rbp), %rcx
	subq	528(%rcx), %rax
	addq	-32(%rbp), %rax
	movq	%rax, -32(%rbp)
	movq	-48(%rbp), %rax
	addq	$1, %rax
	movq	%rax, -48(%rbp)
	jmp	.LBB40_19
.LBB40_18:                              # %if.else27
                                        #   in Loop: Header=BB40_12 Depth=1
	movq	-8(%rbp), %rax
	movq	56(%rax), %rax
	addq	-32(%rbp), %rax
	movq	%rax, -32(%rbp)
.LBB40_19:                              # %if.end30
                                        #   in Loop: Header=BB40_12 Depth=1
	jmp	.LBB40_20
.LBB40_20:                              # %if.end31
                                        #   in Loop: Header=BB40_12 Depth=1
	jmp	.LBB40_21
.LBB40_21:                              # %if.end32
                                        #   in Loop: Header=BB40_12 Depth=1
	jmp	.LBB40_22
.LBB40_22:                              # %for.inc33
                                        #   in Loop: Header=BB40_12 Depth=1
	movq	-8(%rbp), %rax
	addq	$64, %rax
	movq	%rax, -8(%rbp)
	jmp	.LBB40_12
.LBB40_23:                              # %for.end35
	vcvtsi2sdq	-48(%rbp), %xmm0, %xmm0
	movq	-16(%rbp), %rax
	vcvtsi2sdq	528(%rax), %xmm0, %xmm1
	vmulsd	%xmm1, %xmm0, %xmm0
	vcvtsi2sdq	-32(%rbp), %xmm0, %xmm1
	vaddsd	%xmm1, %xmm0, %xmm0
	cmpl	$1991856002, -52(%rbp)  # imm = 0x76B94F82
	jne	.LBB40_25
.LBB40_24:
	addq	$64, %rsp
	popq	%rbp
	.cfi_def_cfa %rsp, 8
	retq
.LBB40_25:                              # %func_exit
	.cfi_def_cfa %rbp, 16
	vmovsd	%xmm0, -64(%rbp)        # 8-byte Spill
	callq	detect_breach
	vmovsd	-64(%rbp), %xmm0        # 8-byte Reload
                                        # xmm0 = mem[0],zero
	jmp	.LBB40_24
.Lfunc_end40:
	.size	flow_org_cost.34, .Lfunc_end40-flow_org_cost.34
	.cfi_endproc
                                        # -- End function
	.globl	dual_feasible.35        # -- Begin function dual_feasible.35
	.p2align	4, 0x90
	.type	dual_feasible.35,@function
dual_feasible.35:                       # @dual_feasible.35
	.cfi_startproc
# %bb.0:                                # %entry
	pushq	%rbp
	.cfi_def_cfa_offset 16
	.cfi_offset %rbp, -16
	movq	%rsp, %rbp
	.cfi_def_cfa_register %rbp
	pushq	%rbx
	subq	$56, %rsp
	.cfi_offset %rbx, -24
	movl	$1880794174, -28(%rbp)  # imm = 0x701AA43E
	movq	%rdi, -24(%rbp)
	movq	-24(%rbp), %rax
	movq	576(%rax), %rax
	movq	%rax, -56(%rbp)
	movq	-24(%rbp), %rax
	movq	568(%rax), %rax
	movq	%rax, -16(%rbp)
.LBB41_1:                               # %for.cond
                                        # =>This Inner Loop Header: Depth=1
	movq	-16(%rbp), %rax
	cmpq	-56(%rbp), %rax
	jae	.LBB41_15
# %bb.2:                                # %for.body
                                        #   in Loop: Header=BB41_1 Depth=1
	movq	-16(%rbp), %rax
	movq	(%rax), %rcx
	movq	8(%rax), %rdx
	movq	(%rdx), %rdx
	subq	%rdx, %rcx
	movq	16(%rax), %rax
	movq	(%rax), %rax
	addq	%rax, %rcx
	movq	%rcx, -40(%rbp)
	movq	-16(%rbp), %rax
	movl	24(%rax), %eax
	movl	%eax, %ecx
	subl	$-1, %ecx
	je	.LBB41_11
	jmp	.LBB41_3
.LBB41_3:                               # %for.body
                                        #   in Loop: Header=BB41_1 Depth=1
	movl	%eax, %ecx
	subl	$2, %ecx
	jb	.LBB41_5
	jmp	.LBB41_4
.LBB41_4:                               # %for.body
                                        #   in Loop: Header=BB41_1 Depth=1
	subl	$2, %eax
	je	.LBB41_8
	jmp	.LBB41_12
.LBB41_5:                               # %sw.bb
                                        #   in Loop: Header=BB41_1 Depth=1
	xorl	%eax, %eax
	movq	-40(%rbp), %rcx
	movq	-24(%rbp), %rdx
	subq	512(%rdx), %rax
	cmpq	%rax, %rcx
	jge	.LBB41_7
# %bb.6:                                # %if.then
	jmp	.LBB41_16
.LBB41_7:                               # %if.end
                                        #   in Loop: Header=BB41_1 Depth=1
	jmp	.LBB41_13
.LBB41_8:                               # %sw.bb4
                                        #   in Loop: Header=BB41_1 Depth=1
	movq	-40(%rbp), %rax
	movq	-24(%rbp), %rcx
	cmpq	512(%rcx), %rax
	jle	.LBB41_10
# %bb.9:                                # %if.then7
	jmp	.LBB41_16
.LBB41_10:                              # %if.end8
                                        #   in Loop: Header=BB41_1 Depth=1
	jmp	.LBB41_13
.LBB41_11:                              # %sw.bb9
                                        #   in Loop: Header=BB41_1 Depth=1
	jmp	.LBB41_12
.LBB41_12:                              # %sw.default
                                        #   in Loop: Header=BB41_1 Depth=1
	jmp	.LBB41_13
.LBB41_13:                              # %sw.epilog
                                        #   in Loop: Header=BB41_1 Depth=1
	jmp	.LBB41_14
.LBB41_14:                              # %for.inc
                                        #   in Loop: Header=BB41_1 Depth=1
	movq	-16(%rbp), %rax
	addq	$64, %rax
	movq	%rax, -16(%rbp)
	jmp	.LBB41_1
.LBB41_15:                              # %for.end
	movq	$0, -48(%rbp)
	jmp	.LBB41_17
.LBB41_16:                              # %DUAL_INFEAS
	movq	stderr, %rdi
	movabsq	$.L.str.3, %rsi
	movb	$0, %al
	callq	fprintf
	movq	stderr, %rdi
	movabsq	$.L.str.4, %rsi
	movb	$0, %al
	callq	fprintf
	movq	$1, -48(%rbp)
.LBB41_17:                              # %return
	movq	-48(%rbp), %rbx
	cmpl	$1880794174, -28(%rbp)  # imm = 0x701AA43E
	jne	.LBB41_19
.LBB41_18:
	movq	%rbx, %rax
	addq	$56, %rsp
	popq	%rbx
	popq	%rbp
	.cfi_def_cfa %rsp, 8
	retq
.LBB41_19:                              # %func_exit
	.cfi_def_cfa %rbp, 16
	callq	detect_breach
	jmp	.LBB41_18
.Lfunc_end41:
	.size	dual_feasible.35, .Lfunc_end41-dual_feasible.35
	.cfi_endproc
                                        # -- End function
	.globl	flow_org_cost.36        # -- Begin function flow_org_cost.36
	.p2align	4, 0x90
	.type	flow_org_cost.36,@function
flow_org_cost.36:                       # @flow_org_cost.36
	.cfi_startproc
# %bb.0:                                # %entry
	pushq	%rbp
	.cfi_def_cfa_offset 16
	.cfi_offset %rbp, -16
	movq	%rsp, %rbp
	.cfi_def_cfa_register %rbp
	subq	$64, %rsp
	movl	$436973670, -52(%rbp)   # imm = 0x1A0BB066
	movq	%rdi, -16(%rbp)
	movq	$0, -48(%rbp)
	movq	$0, -40(%rbp)
	movq	-16(%rbp), %rax
	movq	576(%rax), %rax
	movq	%rax, -32(%rbp)
	movq	-16(%rbp), %rax
	movq	568(%rax), %rax
	movq	%rax, -8(%rbp)
.LBB42_1:                               # %for.cond
                                        # =>This Inner Loop Header: Depth=1
	movq	-8(%rbp), %rax
	movq	-32(%rbp), %rcx
	cmpq	%rcx, %rax
	je	.LBB42_7
# %bb.2:                                # %for.body
                                        #   in Loop: Header=BB42_1 Depth=1
	movq	-8(%rbp), %rax
	cmpl	$2, 24(%rax)
	jne	.LBB42_4
# %bb.3:                                # %if.then
                                        #   in Loop: Header=BB42_1 Depth=1
	movq	-8(%rbp), %rax
	movq	$1, 48(%rax)
	jmp	.LBB42_5
.LBB42_4:                               # %if.else
                                        #   in Loop: Header=BB42_1 Depth=1
	movq	-8(%rbp), %rax
	movq	$0, 48(%rax)
.LBB42_5:                               # %if.end
                                        #   in Loop: Header=BB42_1 Depth=1
	jmp	.LBB42_6
.LBB42_6:                               # %for.inc
                                        #   in Loop: Header=BB42_1 Depth=1
	movq	-8(%rbp), %rax
	addq	$64, %rax
	movq	%rax, -8(%rbp)
	jmp	.LBB42_1
.LBB42_7:                               # %for.end
	movq	-16(%rbp), %rax
	movq	560(%rax), %rax
	movq	%rax, -32(%rbp)
	movq	-16(%rbp), %rax
	movq	552(%rax), %rax
	movq	%rax, -24(%rbp)
	movq	-24(%rbp), %rax
	addq	$104, %rax
	movq	%rax, -24(%rbp)
.LBB42_8:                               # %for.cond4
                                        # =>This Inner Loop Header: Depth=1
	movq	-24(%rbp), %rax
	movq	-32(%rbp), %rcx
	cmpq	%rcx, %rax
	je	.LBB42_11
# %bb.9:                                # %for.body6
                                        #   in Loop: Header=BB42_8 Depth=1
	movq	-24(%rbp), %rax
	movq	80(%rax), %rax
	movq	-24(%rbp), %rcx
	movq	48(%rcx), %rcx
	movq	%rax, 48(%rcx)
# %bb.10:                               # %for.inc9
                                        #   in Loop: Header=BB42_8 Depth=1
	movq	-24(%rbp), %rax
	addq	$104, %rax
	movq	%rax, -24(%rbp)
	jmp	.LBB42_8
.LBB42_11:                              # %for.end11
	movq	-16(%rbp), %rax
	movq	576(%rax), %rax
	movq	%rax, -32(%rbp)
	movq	-16(%rbp), %rax
	movq	568(%rax), %rax
	movq	%rax, -8(%rbp)
.LBB42_12:                              # %for.cond14
                                        # =>This Inner Loop Header: Depth=1
	movq	-8(%rbp), %rax
	movq	-32(%rbp), %rcx
	cmpq	%rcx, %rax
	je	.LBB42_23
# %bb.13:                               # %for.body16
                                        #   in Loop: Header=BB42_12 Depth=1
	movq	-8(%rbp), %rax
	cmpq	$0, 48(%rax)
	je	.LBB42_21
# %bb.14:                               # %if.then18
                                        #   in Loop: Header=BB42_12 Depth=1
	movq	-8(%rbp), %rax
	movq	8(%rax), %rax
	cmpl	$0, 96(%rax)
	jge	.LBB42_16
# %bb.15:                               # %land.lhs.true
                                        #   in Loop: Header=BB42_12 Depth=1
	movq	-8(%rbp), %rax
	movq	16(%rax), %rax
	cmpl	$0, 96(%rax)
	jg	.LBB42_20
.LBB42_16:                              # %if.then22
                                        #   in Loop: Header=BB42_12 Depth=1
	movq	-8(%rbp), %rax
	movq	8(%rax), %rax
	cmpl	$0, 96(%rax)
	jne	.LBB42_18
# %bb.17:                               # %if.then26
                                        #   in Loop: Header=BB42_12 Depth=1
	movq	-8(%rbp), %rax
	movq	56(%rax), %rax
	movq	-16(%rbp), %rcx
	subq	528(%rcx), %rax
	addq	-40(%rbp), %rax
	movq	%rax, -40(%rbp)
	movq	-48(%rbp), %rax
	addq	$1, %rax
	movq	%rax, -48(%rbp)
	jmp	.LBB42_19
.LBB42_18:                              # %if.else27
                                        #   in Loop: Header=BB42_12 Depth=1
	movq	-8(%rbp), %rax
	movq	56(%rax), %rax
	addq	-40(%rbp), %rax
	movq	%rax, -40(%rbp)
.LBB42_19:                              # %if.end30
                                        #   in Loop: Header=BB42_12 Depth=1
	jmp	.LBB42_20
.LBB42_20:                              # %if.end31
                                        #   in Loop: Header=BB42_12 Depth=1
	jmp	.LBB42_21
.LBB42_21:                              # %if.end32
                                        #   in Loop: Header=BB42_12 Depth=1
	jmp	.LBB42_22
.LBB42_22:                              # %for.inc33
                                        #   in Loop: Header=BB42_12 Depth=1
	movq	-8(%rbp), %rax
	addq	$64, %rax
	movq	%rax, -8(%rbp)
	jmp	.LBB42_12
.LBB42_23:                              # %for.end35
	vcvtsi2sdq	-48(%rbp), %xmm0, %xmm0
	movq	-16(%rbp), %rax
	vcvtsi2sdq	528(%rax), %xmm0, %xmm1
	vmulsd	%xmm1, %xmm0, %xmm0
	vcvtsi2sdq	-40(%rbp), %xmm0, %xmm1
	vaddsd	%xmm1, %xmm0, %xmm0
	cmpl	$436973670, -52(%rbp)   # imm = 0x1A0BB066
	jne	.LBB42_25
.LBB42_24:
	addq	$64, %rsp
	popq	%rbp
	.cfi_def_cfa %rsp, 8
	retq
.LBB42_25:                              # %func_exit
	.cfi_def_cfa %rbp, 16
	vmovsd	%xmm0, -64(%rbp)        # 8-byte Spill
	callq	detect_breach
	vmovsd	-64(%rbp), %xmm0        # 8-byte Reload
                                        # xmm0 = mem[0],zero
	jmp	.LBB42_24
.Lfunc_end42:
	.size	flow_org_cost.36, .Lfunc_end42-flow_org_cost.36
	.cfi_endproc
                                        # -- End function
	.globl	flow_cost.37            # -- Begin function flow_cost.37
	.p2align	4, 0x90
	.type	flow_cost.37,@function
flow_cost.37:                           # @flow_cost.37
	.cfi_startproc
# %bb.0:                                # %entry
	pushq	%rbp
	.cfi_def_cfa_offset 16
	.cfi_offset %rbp, -16
	movq	%rsp, %rbp
	.cfi_def_cfa_register %rbp
	subq	$64, %rsp
	movl	$754190308, -52(%rbp)   # imm = 0x2CF407E4
	movq	%rdi, -16(%rbp)
	movq	$0, -48(%rbp)
	movq	$0, -32(%rbp)
	movq	-16(%rbp), %rax
	movq	576(%rax), %rax
	movq	%rax, -40(%rbp)
	movq	-16(%rbp), %rax
	movq	568(%rax), %rax
	movq	%rax, -8(%rbp)
.LBB43_1:                               # %for.cond
                                        # =>This Inner Loop Header: Depth=1
	movq	-8(%rbp), %rax
	movq	-40(%rbp), %rcx
	cmpq	%rcx, %rax
	je	.LBB43_7
# %bb.2:                                # %for.body
                                        #   in Loop: Header=BB43_1 Depth=1
	movq	-8(%rbp), %rax
	cmpl	$2, 24(%rax)
	jne	.LBB43_4
# %bb.3:                                # %if.then
                                        #   in Loop: Header=BB43_1 Depth=1
	movq	-8(%rbp), %rax
	movq	$1, 48(%rax)
	jmp	.LBB43_5
.LBB43_4:                               # %if.else
                                        #   in Loop: Header=BB43_1 Depth=1
	movq	-8(%rbp), %rax
	movq	$0, 48(%rax)
.LBB43_5:                               # %if.end
                                        #   in Loop: Header=BB43_1 Depth=1
	jmp	.LBB43_6
.LBB43_6:                               # %for.inc
                                        #   in Loop: Header=BB43_1 Depth=1
	movq	-8(%rbp), %rax
	addq	$64, %rax
	movq	%rax, -8(%rbp)
	jmp	.LBB43_1
.LBB43_7:                               # %for.end
	movq	-16(%rbp), %rax
	movq	560(%rax), %rax
	movq	%rax, -40(%rbp)
	movq	-16(%rbp), %rax
	movq	552(%rax), %rax
	movq	%rax, -24(%rbp)
	movq	-24(%rbp), %rax
	addq	$104, %rax
	movq	%rax, -24(%rbp)
.LBB43_8:                               # %for.cond4
                                        # =>This Inner Loop Header: Depth=1
	movq	-24(%rbp), %rax
	movq	-40(%rbp), %rcx
	cmpq	%rcx, %rax
	je	.LBB43_11
# %bb.9:                                # %for.body6
                                        #   in Loop: Header=BB43_8 Depth=1
	movq	-24(%rbp), %rax
	movq	80(%rax), %rax
	movq	-24(%rbp), %rcx
	movq	48(%rcx), %rcx
	movq	%rax, 48(%rcx)
# %bb.10:                               # %for.inc9
                                        #   in Loop: Header=BB43_8 Depth=1
	movq	-24(%rbp), %rax
	addq	$104, %rax
	movq	%rax, -24(%rbp)
	jmp	.LBB43_8
.LBB43_11:                              # %for.end11
	movq	-16(%rbp), %rax
	movq	576(%rax), %rax
	movq	%rax, -40(%rbp)
	movq	-16(%rbp), %rax
	movq	568(%rax), %rax
	movq	%rax, -8(%rbp)
.LBB43_12:                              # %for.cond14
                                        # =>This Inner Loop Header: Depth=1
	movq	-8(%rbp), %rax
	movq	-40(%rbp), %rcx
	cmpq	%rcx, %rax
	je	.LBB43_23
# %bb.13:                               # %for.body16
                                        #   in Loop: Header=BB43_12 Depth=1
	movq	-8(%rbp), %rax
	cmpq	$0, 48(%rax)
	je	.LBB43_21
# %bb.14:                               # %if.then18
                                        #   in Loop: Header=BB43_12 Depth=1
	movq	-8(%rbp), %rax
	movq	8(%rax), %rax
	cmpl	$0, 96(%rax)
	jge	.LBB43_16
# %bb.15:                               # %land.lhs.true
                                        #   in Loop: Header=BB43_12 Depth=1
	movq	-8(%rbp), %rax
	movq	16(%rax), %rax
	cmpl	$0, 96(%rax)
	jg	.LBB43_20
.LBB43_16:                              # %if.then22
                                        #   in Loop: Header=BB43_12 Depth=1
	movq	-8(%rbp), %rax
	movq	8(%rax), %rax
	cmpl	$0, 96(%rax)
	jne	.LBB43_18
# %bb.17:                               # %if.then26
                                        #   in Loop: Header=BB43_12 Depth=1
	movq	-8(%rbp), %rax
	movq	(%rax), %rax
	movq	-16(%rbp), %rcx
	subq	528(%rcx), %rax
	addq	-32(%rbp), %rax
	movq	%rax, -32(%rbp)
	movq	-48(%rbp), %rax
	addq	$1, %rax
	movq	%rax, -48(%rbp)
	jmp	.LBB43_19
.LBB43_18:                              # %if.else27
                                        #   in Loop: Header=BB43_12 Depth=1
	movq	-8(%rbp), %rax
	movq	(%rax), %rax
	addq	-32(%rbp), %rax
	movq	%rax, -32(%rbp)
.LBB43_19:                              # %if.end30
                                        #   in Loop: Header=BB43_12 Depth=1
	jmp	.LBB43_20
.LBB43_20:                              # %if.end31
                                        #   in Loop: Header=BB43_12 Depth=1
	jmp	.LBB43_21
.LBB43_21:                              # %if.end32
                                        #   in Loop: Header=BB43_12 Depth=1
	jmp	.LBB43_22
.LBB43_22:                              # %for.inc33
                                        #   in Loop: Header=BB43_12 Depth=1
	movq	-8(%rbp), %rax
	addq	$64, %rax
	movq	%rax, -8(%rbp)
	jmp	.LBB43_12
.LBB43_23:                              # %for.end35
	vcvtsi2sdq	-48(%rbp), %xmm0, %xmm0
	movq	-16(%rbp), %rax
	vcvtsi2sdq	528(%rax), %xmm0, %xmm1
	vmulsd	%xmm1, %xmm0, %xmm0
	vcvtsi2sdq	-32(%rbp), %xmm0, %xmm1
	vaddsd	%xmm1, %xmm0, %xmm0
	cmpl	$754190308, -52(%rbp)   # imm = 0x2CF407E4
	jne	.LBB43_25
.LBB43_24:
	addq	$64, %rsp
	popq	%rbp
	.cfi_def_cfa %rsp, 8
	retq
.LBB43_25:                              # %func_exit
	.cfi_def_cfa %rbp, 16
	vmovsd	%xmm0, -64(%rbp)        # 8-byte Spill
	callq	detect_breach
	vmovsd	-64(%rbp), %xmm0        # 8-byte Reload
                                        # xmm0 = mem[0],zero
	jmp	.LBB43_24
.Lfunc_end43:
	.size	flow_cost.37, .Lfunc_end43-flow_cost.37
	.cfi_endproc
                                        # -- End function
	.globl	refresh_potential.38    # -- Begin function refresh_potential.38
	.p2align	4, 0x90
	.type	refresh_potential.38,@function
refresh_potential.38:                   # @refresh_potential.38
	.cfi_startproc
# %bb.0:                                # %entry
	pushq	%rbp
	.cfi_def_cfa_offset 16
	.cfi_offset %rbp, -16
	movq	%rsp, %rbp
	.cfi_def_cfa_register %rbp
	pushq	%rbx
	subq	$56, %rsp
	.cfi_offset %rbx, -24
	movl	$917283412, -44(%rbp)   # imm = 0x36ACA254
	movq	%rdi, -56(%rbp)
	movq	-56(%rbp), %rax
	movq	552(%rax), %rax
	movq	%rax, -32(%rbp)
	movq	$0, -40(%rbp)
	movq	-32(%rbp), %rax
	movq	$-100000000, (%rax)     # imm = 0xFA0A1F00
	movq	-32(%rbp), %rax
	movq	16(%rax), %rax
	movq	%rax, -16(%rbp)
	movq	%rax, -24(%rbp)
.LBB44_1:                               # %while.cond
                                        # =>This Loop Header: Depth=1
                                        #     Child Loop BB44_3 Depth 2
                                        #     Child Loop BB44_9 Depth 2
	movq	-16(%rbp), %rax
	cmpq	-32(%rbp), %rax
	je	.LBB44_16
# %bb.2:                                # %while.body
                                        #   in Loop: Header=BB44_1 Depth=1
	jmp	.LBB44_3
.LBB44_3:                               # %while.cond1
                                        #   Parent Loop BB44_1 Depth=1
                                        # =>  This Inner Loop Header: Depth=2
	cmpq	$0, -16(%rbp)
	je	.LBB44_8
# %bb.4:                                # %while.body2
                                        #   in Loop: Header=BB44_3 Depth=2
	movq	-16(%rbp), %rax
	cmpl	$1, 8(%rax)
	jne	.LBB44_6
# %bb.5:                                # %if.then
                                        #   in Loop: Header=BB44_3 Depth=2
	movq	-16(%rbp), %rax
	movq	48(%rax), %rax
	movq	(%rax), %rax
	movq	-16(%rbp), %rcx
	movq	24(%rcx), %rcx
	addq	(%rcx), %rax
	movq	-16(%rbp), %rcx
	movq	%rax, (%rcx)
	jmp	.LBB44_7
.LBB44_6:                               # %if.else
                                        #   in Loop: Header=BB44_3 Depth=2
	movq	-16(%rbp), %rax
	movq	24(%rax), %rax
	movq	(%rax), %rax
	movq	-16(%rbp), %rcx
	movq	48(%rcx), %rcx
	subq	(%rcx), %rax
	movq	-16(%rbp), %rcx
	movq	%rax, (%rcx)
	movq	-40(%rbp), %rax
	addq	$1, %rax
	movq	%rax, -40(%rbp)
.LBB44_7:                               # %if.end
                                        #   in Loop: Header=BB44_3 Depth=2
	movq	-16(%rbp), %rax
	movq	%rax, -24(%rbp)
	movq	-16(%rbp), %rax
	movq	16(%rax), %rax
	movq	%rax, -16(%rbp)
	jmp	.LBB44_3
.LBB44_8:                               # %while.end
                                        #   in Loop: Header=BB44_1 Depth=1
	movq	-24(%rbp), %rax
	movq	%rax, -16(%rbp)
.LBB44_9:                               # %while.cond12
                                        #   Parent Loop BB44_1 Depth=1
                                        # =>  This Inner Loop Header: Depth=2
	movq	-16(%rbp), %rax
	cmpq	$0, 24(%rax)
	je	.LBB44_14
# %bb.10:                               # %while.body15
                                        #   in Loop: Header=BB44_9 Depth=2
	movq	-16(%rbp), %rax
	movq	32(%rax), %rax
	movq	%rax, -24(%rbp)
	cmpq	$0, -24(%rbp)
	je	.LBB44_12
# %bb.11:                               # %if.then17
                                        #   in Loop: Header=BB44_1 Depth=1
	movq	-24(%rbp), %rax
	movq	%rax, -16(%rbp)
	jmp	.LBB44_15
.LBB44_12:                              # %if.else18
                                        #   in Loop: Header=BB44_9 Depth=2
	movq	-16(%rbp), %rax
	movq	24(%rax), %rax
	movq	%rax, -16(%rbp)
# %bb.13:                               # %if.end20
                                        #   in Loop: Header=BB44_9 Depth=2
	jmp	.LBB44_9
.LBB44_14:                              # %while.end21.loopexit
                                        #   in Loop: Header=BB44_1 Depth=1
	jmp	.LBB44_15
.LBB44_15:                              # %while.end21
                                        #   in Loop: Header=BB44_1 Depth=1
	jmp	.LBB44_1
.LBB44_16:                              # %while.end22
	movq	-40(%rbp), %rbx
	cmpl	$917283412, -44(%rbp)   # imm = 0x36ACA254
	jne	.LBB44_18
.LBB44_17:
	movq	%rbx, %rax
	addq	$56, %rsp
	popq	%rbx
	popq	%rbp
	.cfi_def_cfa %rsp, 8
	retq
.LBB44_18:                              # %func_exit
	.cfi_def_cfa %rbp, 16
	callq	detect_breach
	jmp	.LBB44_17
.Lfunc_end44:
	.size	refresh_potential.38, .Lfunc_end44-refresh_potential.38
	.cfi_endproc
                                        # -- End function
	.globl	refresh_neighbour_lists.39 # -- Begin function refresh_neighbour_lists.39
	.p2align	4, 0x90
	.type	refresh_neighbour_lists.39,@function
refresh_neighbour_lists.39:             # @refresh_neighbour_lists.39
	.cfi_startproc
# %bb.0:                                # %entry
	pushq	%rbp
	.cfi_def_cfa_offset 16
	.cfi_offset %rbp, -16
	movq	%rsp, %rbp
	.cfi_def_cfa_register %rbp
	subq	$48, %rsp
	movl	$1654478667, -36(%rbp)  # imm = 0x629D574B
	movq	%rdi, -24(%rbp)
	movq	-24(%rbp), %rax
	movq	552(%rax), %rax
	movq	%rax, -16(%rbp)
	movq	-24(%rbp), %rax
	movq	560(%rax), %rax
	movq	%rax, -32(%rbp)
.LBB45_1:                               # %for.cond
                                        # =>This Inner Loop Header: Depth=1
	movq	-16(%rbp), %rax
	movq	-32(%rbp), %rcx
	cmpq	%rcx, %rax
	jae	.LBB45_4
# %bb.2:                                # %for.body
                                        #   in Loop: Header=BB45_1 Depth=1
	movq	-16(%rbp), %rax
	movq	$0, 64(%rax)
	movq	-16(%rbp), %rax
	movq	$0, 56(%rax)
# %bb.3:                                # %for.inc
                                        #   in Loop: Header=BB45_1 Depth=1
	movq	-16(%rbp), %rax
	addq	$104, %rax
	movq	%rax, -16(%rbp)
	jmp	.LBB45_1
.LBB45_4:                               # %for.end
	movq	-24(%rbp), %rax
	movq	568(%rax), %rax
	movq	%rax, -8(%rbp)
	movq	-24(%rbp), %rax
	movq	576(%rax), %rax
	movq	%rax, -32(%rbp)
.LBB45_5:                               # %for.cond1
                                        # =>This Inner Loop Header: Depth=1
	movq	-8(%rbp), %rax
	movq	-32(%rbp), %rcx
	cmpq	%rcx, %rax
	jae	.LBB45_8
# %bb.6:                                # %for.body3
                                        #   in Loop: Header=BB45_5 Depth=1
	movq	-8(%rbp), %rax
	movq	8(%rax), %rax
	movq	56(%rax), %rax
	movq	-8(%rbp), %rcx
	movq	%rax, 32(%rcx)
	movq	-8(%rbp), %rax
	movq	-8(%rbp), %rcx
	movq	8(%rcx), %rcx
	movq	%rax, 56(%rcx)
	movq	-8(%rbp), %rax
	movq	16(%rax), %rax
	movq	64(%rax), %rax
	movq	-8(%rbp), %rcx
	movq	%rax, 40(%rcx)
	movq	-8(%rbp), %rax
	movq	-8(%rbp), %rcx
	movq	16(%rcx), %rcx
	movq	%rax, 64(%rcx)
# %bb.7:                                # %for.inc10
                                        #   in Loop: Header=BB45_5 Depth=1
	movq	-8(%rbp), %rax
	addq	$64, %rax
	movq	%rax, -8(%rbp)
	jmp	.LBB45_5
.LBB45_8:                               # %for.end12
	cmpl	$1654478667, -36(%rbp)  # imm = 0x629D574B
	jne	.LBB45_10
.LBB45_9:
	addq	$48, %rsp
	popq	%rbp
	.cfi_def_cfa %rsp, 8
	retq
.LBB45_10:                              # %func_exit
	.cfi_def_cfa %rbp, 16
	callq	detect_breach
	jmp	.LBB45_9
.Lfunc_end45:
	.size	refresh_neighbour_lists.39, .Lfunc_end45-refresh_neighbour_lists.39
	.cfi_endproc
                                        # -- End function
	.globl	primal_feasible.40      # -- Begin function primal_feasible.40
	.p2align	4, 0x90
	.type	primal_feasible.40,@function
primal_feasible.40:                     # @primal_feasible.40
	.cfi_startproc
# %bb.0:                                # %entry
	pushq	%rbp
	.cfi_def_cfa_offset 16
	.cfi_offset %rbp, -16
	movq	%rsp, %rbp
	.cfi_def_cfa_register %rbp
	pushq	%rbx
	subq	$72, %rsp
	.cfi_offset %rbx, -24
	movl	$1307044796, -36(%rbp)  # imm = 0x4DE7EBBC
	movq	%rdi, -16(%rbp)
	movq	-16(%rbp), %rax
	movq	584(%rax), %rax
	movq	%rax, -64(%rbp)
	movq	-16(%rbp), %rax
	movq	592(%rax), %rax
	movq	%rax, -72(%rbp)
	movq	-16(%rbp), %rax
	movq	552(%rax), %rax
	movq	%rax, -24(%rbp)
	movq	-16(%rbp), %rax
	movq	560(%rax), %rax
	movq	%rax, -80(%rbp)
	movq	-24(%rbp), %rax
	addq	$104, %rax
	movq	%rax, -24(%rbp)
.LBB46_1:                               # %for.cond
                                        # =>This Inner Loop Header: Depth=1
	movq	-24(%rbp), %rax
	movq	-80(%rbp), %rcx
	cmpq	%rcx, %rax
	jae	.LBB46_16
# %bb.2:                                # %for.body
                                        #   in Loop: Header=BB46_1 Depth=1
	movq	-24(%rbp), %rax
	movq	48(%rax), %rax
	movq	%rax, -48(%rbp)
	movq	-24(%rbp), %rax
	movq	80(%rax), %rax
	movq	%rax, -32(%rbp)
	movq	-48(%rbp), %rax
	cmpq	-64(%rbp), %rax
	jb	.LBB46_10
# %bb.3:                                # %land.lhs.true
                                        #   in Loop: Header=BB46_1 Depth=1
	movq	-48(%rbp), %rax
	cmpq	-72(%rbp), %rax
	jae	.LBB46_10
# %bb.4:                                # %if.then
                                        #   in Loop: Header=BB46_1 Depth=1
	cmpq	$0, -32(%rbp)
	jl	.LBB46_6
# %bb.5:                                # %cond.true
                                        #   in Loop: Header=BB46_1 Depth=1
	movq	-32(%rbp), %rax
	jmp	.LBB46_7
.LBB46_6:                               # %cond.false
                                        #   in Loop: Header=BB46_1 Depth=1
	xorl	%eax, %eax
	subq	-32(%rbp), %rax
.LBB46_7:                               # %cond.end
                                        #   in Loop: Header=BB46_1 Depth=1
	movq	-16(%rbp), %rcx
	cmpq	512(%rcx), %rax
	jle	.LBB46_9
# %bb.8:                                # %if.then7
                                        #   in Loop: Header=BB46_1 Depth=1
	movabsq	$.L.str, %rdi
	movb	$0, %al
	callq	printf
	movq	-24(%rbp), %rax
	movl	96(%rax), %esi
	movq	-32(%rbp), %rdx
	movabsq	$.L.str.1, %rdi
	movb	$0, %al
	callq	printf
.LBB46_9:                               # %if.end
                                        #   in Loop: Header=BB46_1 Depth=1
	jmp	.LBB46_14
.LBB46_10:                              # %if.else
                                        #   in Loop: Header=BB46_1 Depth=1
	xorl	%eax, %eax
	movq	-32(%rbp), %rcx
	movq	-16(%rbp), %rdx
	subq	512(%rdx), %rax
	cmpq	%rax, %rcx
	jl	.LBB46_12
# %bb.11:                               # %lor.lhs.false
                                        #   in Loop: Header=BB46_1 Depth=1
	movq	-32(%rbp), %rax
	subq	$1, %rax
	movq	-16(%rbp), %rcx
	cmpq	512(%rcx), %rax
	jle	.LBB46_13
.LBB46_12:                              # %if.then15
	movabsq	$.L.str, %rdi
	movb	$0, %al
	callq	printf
	movq	-32(%rbp), %rsi
	movabsq	$.L.str.2, %rdi
	movb	$0, %al
	callq	printf
	movq	-16(%rbp), %rax
	movq	$0, 488(%rax)
	movq	$1, -56(%rbp)
	jmp	.LBB46_17
.LBB46_13:                              # %if.end18
                                        #   in Loop: Header=BB46_1 Depth=1
	jmp	.LBB46_14
.LBB46_14:                              # %if.end19
                                        #   in Loop: Header=BB46_1 Depth=1
	jmp	.LBB46_15
.LBB46_15:                              # %for.inc
                                        #   in Loop: Header=BB46_1 Depth=1
	movq	-24(%rbp), %rax
	addq	$104, %rax
	movq	%rax, -24(%rbp)
	jmp	.LBB46_1
.LBB46_16:                              # %for.end
	movq	-16(%rbp), %rax
	movq	$1, 488(%rax)
	movq	$0, -56(%rbp)
.LBB46_17:                              # %return
	movq	-56(%rbp), %rbx
	cmpl	$1307044796, -36(%rbp)  # imm = 0x4DE7EBBC
	jne	.LBB46_19
.LBB46_18:
	movq	%rbx, %rax
	addq	$72, %rsp
	popq	%rbx
	popq	%rbp
	.cfi_def_cfa %rsp, 8
	retq
.LBB46_19:                              # %func_exit
	.cfi_def_cfa %rbp, 16
	callq	detect_breach
	jmp	.LBB46_18
.Lfunc_end46:
	.size	primal_feasible.40, .Lfunc_end46-primal_feasible.40
	.cfi_endproc
                                        # -- End function
	.globl	refresh_neighbour_lists.41 # -- Begin function refresh_neighbour_lists.41
	.p2align	4, 0x90
	.type	refresh_neighbour_lists.41,@function
refresh_neighbour_lists.41:             # @refresh_neighbour_lists.41
	.cfi_startproc
# %bb.0:                                # %entry
	pushq	%rbp
	.cfi_def_cfa_offset 16
	.cfi_offset %rbp, -16
	movq	%rsp, %rbp
	.cfi_def_cfa_register %rbp
	subq	$48, %rsp
	movl	$1128316089, -36(%rbp)  # imm = 0x4340BCB9
	movq	%rdi, -24(%rbp)
	movq	-24(%rbp), %rax
	movq	552(%rax), %rax
	movq	%rax, -16(%rbp)
	movq	-24(%rbp), %rax
	movq	560(%rax), %rax
	movq	%rax, -32(%rbp)
.LBB47_1:                               # %for.cond
                                        # =>This Inner Loop Header: Depth=1
	movq	-16(%rbp), %rax
	movq	-32(%rbp), %rcx
	cmpq	%rcx, %rax
	jae	.LBB47_4
# %bb.2:                                # %for.body
                                        #   in Loop: Header=BB47_1 Depth=1
	movq	-16(%rbp), %rax
	movq	$0, 64(%rax)
	movq	-16(%rbp), %rax
	movq	$0, 56(%rax)
# %bb.3:                                # %for.inc
                                        #   in Loop: Header=BB47_1 Depth=1
	movq	-16(%rbp), %rax
	addq	$104, %rax
	movq	%rax, -16(%rbp)
	jmp	.LBB47_1
.LBB47_4:                               # %for.end
	movq	-24(%rbp), %rax
	movq	568(%rax), %rax
	movq	%rax, -8(%rbp)
	movq	-24(%rbp), %rax
	movq	576(%rax), %rax
	movq	%rax, -32(%rbp)
.LBB47_5:                               # %for.cond1
                                        # =>This Inner Loop Header: Depth=1
	movq	-8(%rbp), %rax
	movq	-32(%rbp), %rcx
	cmpq	%rcx, %rax
	jae	.LBB47_8
# %bb.6:                                # %for.body3
                                        #   in Loop: Header=BB47_5 Depth=1
	movq	-8(%rbp), %rax
	movq	8(%rax), %rax
	movq	56(%rax), %rax
	movq	-8(%rbp), %rcx
	movq	%rax, 32(%rcx)
	movq	-8(%rbp), %rax
	movq	-8(%rbp), %rcx
	movq	8(%rcx), %rcx
	movq	%rax, 56(%rcx)
	movq	-8(%rbp), %rax
	movq	16(%rax), %rax
	movq	64(%rax), %rax
	movq	-8(%rbp), %rcx
	movq	%rax, 40(%rcx)
	movq	-8(%rbp), %rax
	movq	-8(%rbp), %rcx
	movq	16(%rcx), %rcx
	movq	%rax, 64(%rcx)
# %bb.7:                                # %for.inc10
                                        #   in Loop: Header=BB47_5 Depth=1
	movq	-8(%rbp), %rax
	addq	$64, %rax
	movq	%rax, -8(%rbp)
	jmp	.LBB47_5
.LBB47_8:                               # %for.end12
	cmpl	$1128316089, -36(%rbp)  # imm = 0x4340BCB9
	jne	.LBB47_10
.LBB47_9:
	addq	$48, %rsp
	popq	%rbp
	.cfi_def_cfa %rsp, 8
	retq
.LBB47_10:                              # %func_exit
	.cfi_def_cfa %rbp, 16
	callq	detect_breach
	jmp	.LBB47_9
.Lfunc_end47:
	.size	refresh_neighbour_lists.41, .Lfunc_end47-refresh_neighbour_lists.41
	.cfi_endproc
                                        # -- End function
	.globl	primal_feasible.42      # -- Begin function primal_feasible.42
	.p2align	4, 0x90
	.type	primal_feasible.42,@function
primal_feasible.42:                     # @primal_feasible.42
	.cfi_startproc
# %bb.0:                                # %entry
	pushq	%rbp
	.cfi_def_cfa_offset 16
	.cfi_offset %rbp, -16
	movq	%rsp, %rbp
	.cfi_def_cfa_register %rbp
	pushq	%rbx
	subq	$72, %rsp
	.cfi_offset %rbx, -24
	movl	$351397006, -36(%rbp)   # imm = 0x14F1E48E
	movq	%rdi, -16(%rbp)
	movq	-16(%rbp), %rax
	movq	584(%rax), %rax
	movq	%rax, -64(%rbp)
	movq	-16(%rbp), %rax
	movq	592(%rax), %rax
	movq	%rax, -80(%rbp)
	movq	-16(%rbp), %rax
	movq	552(%rax), %rax
	movq	%rax, -24(%rbp)
	movq	-16(%rbp), %rax
	movq	560(%rax), %rax
	movq	%rax, -72(%rbp)
	movq	-24(%rbp), %rax
	addq	$104, %rax
	movq	%rax, -24(%rbp)
.LBB48_1:                               # %for.cond
                                        # =>This Inner Loop Header: Depth=1
	movq	-24(%rbp), %rax
	movq	-72(%rbp), %rcx
	cmpq	%rcx, %rax
	jae	.LBB48_16
# %bb.2:                                # %for.body
                                        #   in Loop: Header=BB48_1 Depth=1
	movq	-24(%rbp), %rax
	movq	48(%rax), %rax
	movq	%rax, -48(%rbp)
	movq	-24(%rbp), %rax
	movq	80(%rax), %rax
	movq	%rax, -32(%rbp)
	movq	-48(%rbp), %rax
	cmpq	-64(%rbp), %rax
	jb	.LBB48_10
# %bb.3:                                # %land.lhs.true
                                        #   in Loop: Header=BB48_1 Depth=1
	movq	-48(%rbp), %rax
	cmpq	-80(%rbp), %rax
	jae	.LBB48_10
# %bb.4:                                # %if.then
                                        #   in Loop: Header=BB48_1 Depth=1
	cmpq	$0, -32(%rbp)
	jl	.LBB48_6
# %bb.5:                                # %cond.true
                                        #   in Loop: Header=BB48_1 Depth=1
	movq	-32(%rbp), %rax
	jmp	.LBB48_7
.LBB48_6:                               # %cond.false
                                        #   in Loop: Header=BB48_1 Depth=1
	xorl	%eax, %eax
	subq	-32(%rbp), %rax
.LBB48_7:                               # %cond.end
                                        #   in Loop: Header=BB48_1 Depth=1
	movq	-16(%rbp), %rcx
	cmpq	512(%rcx), %rax
	jle	.LBB48_9
# %bb.8:                                # %if.then7
                                        #   in Loop: Header=BB48_1 Depth=1
	movabsq	$.L.str, %rdi
	movb	$0, %al
	callq	printf
	movq	-24(%rbp), %rax
	movl	96(%rax), %esi
	movq	-32(%rbp), %rdx
	movabsq	$.L.str.1, %rdi
	movb	$0, %al
	callq	printf
.LBB48_9:                               # %if.end
                                        #   in Loop: Header=BB48_1 Depth=1
	jmp	.LBB48_14
.LBB48_10:                              # %if.else
                                        #   in Loop: Header=BB48_1 Depth=1
	xorl	%eax, %eax
	movq	-32(%rbp), %rcx
	movq	-16(%rbp), %rdx
	subq	512(%rdx), %rax
	cmpq	%rax, %rcx
	jl	.LBB48_12
# %bb.11:                               # %lor.lhs.false
                                        #   in Loop: Header=BB48_1 Depth=1
	movq	-32(%rbp), %rax
	subq	$1, %rax
	movq	-16(%rbp), %rcx
	cmpq	512(%rcx), %rax
	jle	.LBB48_13
.LBB48_12:                              # %if.then15
	movabsq	$.L.str, %rdi
	movb	$0, %al
	callq	printf
	movq	-32(%rbp), %rsi
	movabsq	$.L.str.2, %rdi
	movb	$0, %al
	callq	printf
	movq	-16(%rbp), %rax
	movq	$0, 488(%rax)
	movq	$1, -56(%rbp)
	jmp	.LBB48_17
.LBB48_13:                              # %if.end18
                                        #   in Loop: Header=BB48_1 Depth=1
	jmp	.LBB48_14
.LBB48_14:                              # %if.end19
                                        #   in Loop: Header=BB48_1 Depth=1
	jmp	.LBB48_15
.LBB48_15:                              # %for.inc
                                        #   in Loop: Header=BB48_1 Depth=1
	movq	-24(%rbp), %rax
	addq	$104, %rax
	movq	%rax, -24(%rbp)
	jmp	.LBB48_1
.LBB48_16:                              # %for.end
	movq	-16(%rbp), %rax
	movq	$1, 488(%rax)
	movq	$0, -56(%rbp)
.LBB48_17:                              # %return
	movq	-56(%rbp), %rbx
	cmpl	$351397006, -36(%rbp)   # imm = 0x14F1E48E
	jne	.LBB48_19
.LBB48_18:
	movq	%rbx, %rax
	addq	$72, %rsp
	popq	%rbx
	popq	%rbp
	.cfi_def_cfa %rsp, 8
	retq
.LBB48_19:                              # %func_exit
	.cfi_def_cfa %rbp, 16
	callq	detect_breach
	jmp	.LBB48_18
.Lfunc_end48:
	.size	primal_feasible.42, .Lfunc_end48-primal_feasible.42
	.cfi_endproc
                                        # -- End function
	.globl	refresh_neighbour_lists.43 # -- Begin function refresh_neighbour_lists.43
	.p2align	4, 0x90
	.type	refresh_neighbour_lists.43,@function
refresh_neighbour_lists.43:             # @refresh_neighbour_lists.43
	.cfi_startproc
# %bb.0:                                # %entry
	pushq	%rbp
	.cfi_def_cfa_offset 16
	.cfi_offset %rbp, -16
	movq	%rsp, %rbp
	.cfi_def_cfa_register %rbp
	subq	$48, %rsp
	movl	$975019301, -36(%rbp)   # imm = 0x3A1D9D25
	movq	%rdi, -24(%rbp)
	movq	-24(%rbp), %rax
	movq	552(%rax), %rax
	movq	%rax, -16(%rbp)
	movq	-24(%rbp), %rax
	movq	560(%rax), %rax
	movq	%rax, -32(%rbp)
.LBB49_1:                               # %for.cond
                                        # =>This Inner Loop Header: Depth=1
	movq	-16(%rbp), %rax
	movq	-32(%rbp), %rcx
	cmpq	%rcx, %rax
	jae	.LBB49_4
# %bb.2:                                # %for.body
                                        #   in Loop: Header=BB49_1 Depth=1
	movq	-16(%rbp), %rax
	movq	$0, 64(%rax)
	movq	-16(%rbp), %rax
	movq	$0, 56(%rax)
# %bb.3:                                # %for.inc
                                        #   in Loop: Header=BB49_1 Depth=1
	movq	-16(%rbp), %rax
	addq	$104, %rax
	movq	%rax, -16(%rbp)
	jmp	.LBB49_1
.LBB49_4:                               # %for.end
	movq	-24(%rbp), %rax
	movq	568(%rax), %rax
	movq	%rax, -8(%rbp)
	movq	-24(%rbp), %rax
	movq	576(%rax), %rax
	movq	%rax, -32(%rbp)
.LBB49_5:                               # %for.cond1
                                        # =>This Inner Loop Header: Depth=1
	movq	-8(%rbp), %rax
	movq	-32(%rbp), %rcx
	cmpq	%rcx, %rax
	jae	.LBB49_8
# %bb.6:                                # %for.body3
                                        #   in Loop: Header=BB49_5 Depth=1
	movq	-8(%rbp), %rax
	movq	8(%rax), %rax
	movq	56(%rax), %rax
	movq	-8(%rbp), %rcx
	movq	%rax, 32(%rcx)
	movq	-8(%rbp), %rax
	movq	-8(%rbp), %rcx
	movq	8(%rcx), %rcx
	movq	%rax, 56(%rcx)
	movq	-8(%rbp), %rax
	movq	16(%rax), %rax
	movq	64(%rax), %rax
	movq	-8(%rbp), %rcx
	movq	%rax, 40(%rcx)
	movq	-8(%rbp), %rax
	movq	-8(%rbp), %rcx
	movq	16(%rcx), %rcx
	movq	%rax, 64(%rcx)
# %bb.7:                                # %for.inc10
                                        #   in Loop: Header=BB49_5 Depth=1
	movq	-8(%rbp), %rax
	addq	$64, %rax
	movq	%rax, -8(%rbp)
	jmp	.LBB49_5
.LBB49_8:                               # %for.end12
	cmpl	$975019301, -36(%rbp)   # imm = 0x3A1D9D25
	jne	.LBB49_10
.LBB49_9:
	addq	$48, %rsp
	popq	%rbp
	.cfi_def_cfa %rsp, 8
	retq
.LBB49_10:                              # %func_exit
	.cfi_def_cfa %rbp, 16
	callq	detect_breach
	jmp	.LBB49_9
.Lfunc_end49:
	.size	refresh_neighbour_lists.43, .Lfunc_end49-refresh_neighbour_lists.43
	.cfi_endproc
                                        # -- End function
	.globl	flow_org_cost.44        # -- Begin function flow_org_cost.44
	.p2align	4, 0x90
	.type	flow_org_cost.44,@function
flow_org_cost.44:                       # @flow_org_cost.44
	.cfi_startproc
# %bb.0:                                # %entry
	pushq	%rbp
	.cfi_def_cfa_offset 16
	.cfi_offset %rbp, -16
	movq	%rsp, %rbp
	.cfi_def_cfa_register %rbp
	subq	$64, %rsp
	movl	$2013737954, -52(%rbp)  # imm = 0x780733E2
	movq	%rdi, -16(%rbp)
	movq	$0, -48(%rbp)
	movq	$0, -40(%rbp)
	movq	-16(%rbp), %rax
	movq	576(%rax), %rax
	movq	%rax, -32(%rbp)
	movq	-16(%rbp), %rax
	movq	568(%rax), %rax
	movq	%rax, -8(%rbp)
.LBB50_1:                               # %for.cond
                                        # =>This Inner Loop Header: Depth=1
	movq	-8(%rbp), %rax
	movq	-32(%rbp), %rcx
	cmpq	%rcx, %rax
	je	.LBB50_7
# %bb.2:                                # %for.body
                                        #   in Loop: Header=BB50_1 Depth=1
	movq	-8(%rbp), %rax
	cmpl	$2, 24(%rax)
	jne	.LBB50_4
# %bb.3:                                # %if.then
                                        #   in Loop: Header=BB50_1 Depth=1
	movq	-8(%rbp), %rax
	movq	$1, 48(%rax)
	jmp	.LBB50_5
.LBB50_4:                               # %if.else
                                        #   in Loop: Header=BB50_1 Depth=1
	movq	-8(%rbp), %rax
	movq	$0, 48(%rax)
.LBB50_5:                               # %if.end
                                        #   in Loop: Header=BB50_1 Depth=1
	jmp	.LBB50_6
.LBB50_6:                               # %for.inc
                                        #   in Loop: Header=BB50_1 Depth=1
	movq	-8(%rbp), %rax
	addq	$64, %rax
	movq	%rax, -8(%rbp)
	jmp	.LBB50_1
.LBB50_7:                               # %for.end
	movq	-16(%rbp), %rax
	movq	560(%rax), %rax
	movq	%rax, -32(%rbp)
	movq	-16(%rbp), %rax
	movq	552(%rax), %rax
	movq	%rax, -24(%rbp)
	movq	-24(%rbp), %rax
	addq	$104, %rax
	movq	%rax, -24(%rbp)
.LBB50_8:                               # %for.cond4
                                        # =>This Inner Loop Header: Depth=1
	movq	-24(%rbp), %rax
	movq	-32(%rbp), %rcx
	cmpq	%rcx, %rax
	je	.LBB50_11
# %bb.9:                                # %for.body6
                                        #   in Loop: Header=BB50_8 Depth=1
	movq	-24(%rbp), %rax
	movq	80(%rax), %rax
	movq	-24(%rbp), %rcx
	movq	48(%rcx), %rcx
	movq	%rax, 48(%rcx)
# %bb.10:                               # %for.inc9
                                        #   in Loop: Header=BB50_8 Depth=1
	movq	-24(%rbp), %rax
	addq	$104, %rax
	movq	%rax, -24(%rbp)
	jmp	.LBB50_8
.LBB50_11:                              # %for.end11
	movq	-16(%rbp), %rax
	movq	576(%rax), %rax
	movq	%rax, -32(%rbp)
	movq	-16(%rbp), %rax
	movq	568(%rax), %rax
	movq	%rax, -8(%rbp)
.LBB50_12:                              # %for.cond14
                                        # =>This Inner Loop Header: Depth=1
	movq	-8(%rbp), %rax
	movq	-32(%rbp), %rcx
	cmpq	%rcx, %rax
	je	.LBB50_23
# %bb.13:                               # %for.body16
                                        #   in Loop: Header=BB50_12 Depth=1
	movq	-8(%rbp), %rax
	cmpq	$0, 48(%rax)
	je	.LBB50_21
# %bb.14:                               # %if.then18
                                        #   in Loop: Header=BB50_12 Depth=1
	movq	-8(%rbp), %rax
	movq	8(%rax), %rax
	cmpl	$0, 96(%rax)
	jge	.LBB50_16
# %bb.15:                               # %land.lhs.true
                                        #   in Loop: Header=BB50_12 Depth=1
	movq	-8(%rbp), %rax
	movq	16(%rax), %rax
	cmpl	$0, 96(%rax)
	jg	.LBB50_20
.LBB50_16:                              # %if.then22
                                        #   in Loop: Header=BB50_12 Depth=1
	movq	-8(%rbp), %rax
	movq	8(%rax), %rax
	cmpl	$0, 96(%rax)
	jne	.LBB50_18
# %bb.17:                               # %if.then26
                                        #   in Loop: Header=BB50_12 Depth=1
	movq	-8(%rbp), %rax
	movq	56(%rax), %rax
	movq	-16(%rbp), %rcx
	subq	528(%rcx), %rax
	addq	-40(%rbp), %rax
	movq	%rax, -40(%rbp)
	movq	-48(%rbp), %rax
	addq	$1, %rax
	movq	%rax, -48(%rbp)
	jmp	.LBB50_19
.LBB50_18:                              # %if.else27
                                        #   in Loop: Header=BB50_12 Depth=1
	movq	-8(%rbp), %rax
	movq	56(%rax), %rax
	addq	-40(%rbp), %rax
	movq	%rax, -40(%rbp)
.LBB50_19:                              # %if.end30
                                        #   in Loop: Header=BB50_12 Depth=1
	jmp	.LBB50_20
.LBB50_20:                              # %if.end31
                                        #   in Loop: Header=BB50_12 Depth=1
	jmp	.LBB50_21
.LBB50_21:                              # %if.end32
                                        #   in Loop: Header=BB50_12 Depth=1
	jmp	.LBB50_22
.LBB50_22:                              # %for.inc33
                                        #   in Loop: Header=BB50_12 Depth=1
	movq	-8(%rbp), %rax
	addq	$64, %rax
	movq	%rax, -8(%rbp)
	jmp	.LBB50_12
.LBB50_23:                              # %for.end35
	vcvtsi2sdq	-48(%rbp), %xmm0, %xmm0
	movq	-16(%rbp), %rax
	vcvtsi2sdq	528(%rax), %xmm0, %xmm1
	vmulsd	%xmm1, %xmm0, %xmm0
	vcvtsi2sdq	-40(%rbp), %xmm0, %xmm1
	vaddsd	%xmm1, %xmm0, %xmm0
	cmpl	$2013737954, -52(%rbp)  # imm = 0x780733E2
	jne	.LBB50_25
.LBB50_24:
	addq	$64, %rsp
	popq	%rbp
	.cfi_def_cfa %rsp, 8
	retq
.LBB50_25:                              # %func_exit
	.cfi_def_cfa %rbp, 16
	vmovsd	%xmm0, -64(%rbp)        # 8-byte Spill
	callq	detect_breach
	vmovsd	-64(%rbp), %xmm0        # 8-byte Reload
                                        # xmm0 = mem[0],zero
	jmp	.LBB50_24
.Lfunc_end50:
	.size	flow_org_cost.44, .Lfunc_end50-flow_org_cost.44
	.cfi_endproc
                                        # -- End function
	.globl	primal_feasible.45      # -- Begin function primal_feasible.45
	.p2align	4, 0x90
	.type	primal_feasible.45,@function
primal_feasible.45:                     # @primal_feasible.45
	.cfi_startproc
# %bb.0:                                # %entry
	pushq	%rbp
	.cfi_def_cfa_offset 16
	.cfi_offset %rbp, -16
	movq	%rsp, %rbp
	.cfi_def_cfa_register %rbp
	pushq	%rbx
	subq	$72, %rsp
	.cfi_offset %rbx, -24
	movl	$1069112790, -36(%rbp)  # imm = 0x3FB95DD6
	movq	%rdi, -16(%rbp)
	movq	-16(%rbp), %rax
	movq	584(%rax), %rax
	movq	%rax, -80(%rbp)
	movq	-16(%rbp), %rax
	movq	592(%rax), %rax
	movq	%rax, -64(%rbp)
	movq	-16(%rbp), %rax
	movq	552(%rax), %rax
	movq	%rax, -24(%rbp)
	movq	-16(%rbp), %rax
	movq	560(%rax), %rax
	movq	%rax, -72(%rbp)
	movq	-24(%rbp), %rax
	addq	$104, %rax
	movq	%rax, -24(%rbp)
.LBB51_1:                               # %for.cond
                                        # =>This Inner Loop Header: Depth=1
	movq	-24(%rbp), %rax
	movq	-72(%rbp), %rcx
	cmpq	%rcx, %rax
	jae	.LBB51_16
# %bb.2:                                # %for.body
                                        #   in Loop: Header=BB51_1 Depth=1
	movq	-24(%rbp), %rax
	movq	48(%rax), %rax
	movq	%rax, -48(%rbp)
	movq	-24(%rbp), %rax
	movq	80(%rax), %rax
	movq	%rax, -32(%rbp)
	movq	-48(%rbp), %rax
	cmpq	-80(%rbp), %rax
	jb	.LBB51_10
# %bb.3:                                # %land.lhs.true
                                        #   in Loop: Header=BB51_1 Depth=1
	movq	-48(%rbp), %rax
	cmpq	-64(%rbp), %rax
	jae	.LBB51_10
# %bb.4:                                # %if.then
                                        #   in Loop: Header=BB51_1 Depth=1
	cmpq	$0, -32(%rbp)
	jl	.LBB51_6
# %bb.5:                                # %cond.true
                                        #   in Loop: Header=BB51_1 Depth=1
	movq	-32(%rbp), %rax
	jmp	.LBB51_7
.LBB51_6:                               # %cond.false
                                        #   in Loop: Header=BB51_1 Depth=1
	xorl	%eax, %eax
	subq	-32(%rbp), %rax
.LBB51_7:                               # %cond.end
                                        #   in Loop: Header=BB51_1 Depth=1
	movq	-16(%rbp), %rcx
	cmpq	512(%rcx), %rax
	jle	.LBB51_9
# %bb.8:                                # %if.then7
                                        #   in Loop: Header=BB51_1 Depth=1
	movabsq	$.L.str, %rdi
	movb	$0, %al
	callq	printf
	movq	-24(%rbp), %rax
	movl	96(%rax), %esi
	movq	-32(%rbp), %rdx
	movabsq	$.L.str.1, %rdi
	movb	$0, %al
	callq	printf
.LBB51_9:                               # %if.end
                                        #   in Loop: Header=BB51_1 Depth=1
	jmp	.LBB51_14
.LBB51_10:                              # %if.else
                                        #   in Loop: Header=BB51_1 Depth=1
	xorl	%eax, %eax
	movq	-32(%rbp), %rcx
	movq	-16(%rbp), %rdx
	subq	512(%rdx), %rax
	cmpq	%rax, %rcx
	jl	.LBB51_12
# %bb.11:                               # %lor.lhs.false
                                        #   in Loop: Header=BB51_1 Depth=1
	movq	-32(%rbp), %rax
	subq	$1, %rax
	movq	-16(%rbp), %rcx
	cmpq	512(%rcx), %rax
	jle	.LBB51_13
.LBB51_12:                              # %if.then15
	movabsq	$.L.str, %rdi
	movb	$0, %al
	callq	printf
	movq	-32(%rbp), %rsi
	movabsq	$.L.str.2, %rdi
	movb	$0, %al
	callq	printf
	movq	-16(%rbp), %rax
	movq	$0, 488(%rax)
	movq	$1, -56(%rbp)
	jmp	.LBB51_17
.LBB51_13:                              # %if.end18
                                        #   in Loop: Header=BB51_1 Depth=1
	jmp	.LBB51_14
.LBB51_14:                              # %if.end19
                                        #   in Loop: Header=BB51_1 Depth=1
	jmp	.LBB51_15
.LBB51_15:                              # %for.inc
                                        #   in Loop: Header=BB51_1 Depth=1
	movq	-24(%rbp), %rax
	addq	$104, %rax
	movq	%rax, -24(%rbp)
	jmp	.LBB51_1
.LBB51_16:                              # %for.end
	movq	-16(%rbp), %rax
	movq	$1, 488(%rax)
	movq	$0, -56(%rbp)
.LBB51_17:                              # %return
	movq	-56(%rbp), %rbx
	cmpl	$1069112790, -36(%rbp)  # imm = 0x3FB95DD6
	jne	.LBB51_19
.LBB51_18:
	movq	%rbx, %rax
	addq	$72, %rsp
	popq	%rbx
	popq	%rbp
	.cfi_def_cfa %rsp, 8
	retq
.LBB51_19:                              # %func_exit
	.cfi_def_cfa %rbp, 16
	callq	detect_breach
	jmp	.LBB51_18
.Lfunc_end51:
	.size	primal_feasible.45, .Lfunc_end51-primal_feasible.45
	.cfi_endproc
                                        # -- End function
	.globl	primal_feasible.46      # -- Begin function primal_feasible.46
	.p2align	4, 0x90
	.type	primal_feasible.46,@function
primal_feasible.46:                     # @primal_feasible.46
	.cfi_startproc
# %bb.0:                                # %entry
	pushq	%rbp
	.cfi_def_cfa_offset 16
	.cfi_offset %rbp, -16
	movq	%rsp, %rbp
	.cfi_def_cfa_register %rbp
	pushq	%rbx
	subq	$72, %rsp
	.cfi_offset %rbx, -24
	movl	$2052507418, -36(%rbp)  # imm = 0x7A56C71A
	movq	%rdi, -16(%rbp)
	movq	-16(%rbp), %rax
	movq	584(%rax), %rax
	movq	%rax, -72(%rbp)
	movq	-16(%rbp), %rax
	movq	592(%rax), %rax
	movq	%rax, -80(%rbp)
	movq	-16(%rbp), %rax
	movq	552(%rax), %rax
	movq	%rax, -24(%rbp)
	movq	-16(%rbp), %rax
	movq	560(%rax), %rax
	movq	%rax, -64(%rbp)
	movq	-24(%rbp), %rax
	addq	$104, %rax
	movq	%rax, -24(%rbp)
.LBB52_1:                               # %for.cond
                                        # =>This Inner Loop Header: Depth=1
	movq	-24(%rbp), %rax
	movq	-64(%rbp), %rcx
	cmpq	%rcx, %rax
	jae	.LBB52_16
# %bb.2:                                # %for.body
                                        #   in Loop: Header=BB52_1 Depth=1
	movq	-24(%rbp), %rax
	movq	48(%rax), %rax
	movq	%rax, -48(%rbp)
	movq	-24(%rbp), %rax
	movq	80(%rax), %rax
	movq	%rax, -32(%rbp)
	movq	-48(%rbp), %rax
	cmpq	-72(%rbp), %rax
	jb	.LBB52_10
# %bb.3:                                # %land.lhs.true
                                        #   in Loop: Header=BB52_1 Depth=1
	movq	-48(%rbp), %rax
	cmpq	-80(%rbp), %rax
	jae	.LBB52_10
# %bb.4:                                # %if.then
                                        #   in Loop: Header=BB52_1 Depth=1
	cmpq	$0, -32(%rbp)
	jl	.LBB52_6
# %bb.5:                                # %cond.true
                                        #   in Loop: Header=BB52_1 Depth=1
	movq	-32(%rbp), %rax
	jmp	.LBB52_7
.LBB52_6:                               # %cond.false
                                        #   in Loop: Header=BB52_1 Depth=1
	xorl	%eax, %eax
	subq	-32(%rbp), %rax
.LBB52_7:                               # %cond.end
                                        #   in Loop: Header=BB52_1 Depth=1
	movq	-16(%rbp), %rcx
	cmpq	512(%rcx), %rax
	jle	.LBB52_9
# %bb.8:                                # %if.then7
                                        #   in Loop: Header=BB52_1 Depth=1
	movabsq	$.L.str, %rdi
	movb	$0, %al
	callq	printf
	movq	-24(%rbp), %rax
	movl	96(%rax), %esi
	movq	-32(%rbp), %rdx
	movabsq	$.L.str.1, %rdi
	movb	$0, %al
	callq	printf
.LBB52_9:                               # %if.end
                                        #   in Loop: Header=BB52_1 Depth=1
	jmp	.LBB52_14
.LBB52_10:                              # %if.else
                                        #   in Loop: Header=BB52_1 Depth=1
	xorl	%eax, %eax
	movq	-32(%rbp), %rcx
	movq	-16(%rbp), %rdx
	subq	512(%rdx), %rax
	cmpq	%rax, %rcx
	jl	.LBB52_12
# %bb.11:                               # %lor.lhs.false
                                        #   in Loop: Header=BB52_1 Depth=1
	movq	-32(%rbp), %rax
	subq	$1, %rax
	movq	-16(%rbp), %rcx
	cmpq	512(%rcx), %rax
	jle	.LBB52_13
.LBB52_12:                              # %if.then15
	movabsq	$.L.str, %rdi
	movb	$0, %al
	callq	printf
	movq	-32(%rbp), %rsi
	movabsq	$.L.str.2, %rdi
	movb	$0, %al
	callq	printf
	movq	-16(%rbp), %rax
	movq	$0, 488(%rax)
	movq	$1, -56(%rbp)
	jmp	.LBB52_17
.LBB52_13:                              # %if.end18
                                        #   in Loop: Header=BB52_1 Depth=1
	jmp	.LBB52_14
.LBB52_14:                              # %if.end19
                                        #   in Loop: Header=BB52_1 Depth=1
	jmp	.LBB52_15
.LBB52_15:                              # %for.inc
                                        #   in Loop: Header=BB52_1 Depth=1
	movq	-24(%rbp), %rax
	addq	$104, %rax
	movq	%rax, -24(%rbp)
	jmp	.LBB52_1
.LBB52_16:                              # %for.end
	movq	-16(%rbp), %rax
	movq	$1, 488(%rax)
	movq	$0, -56(%rbp)
.LBB52_17:                              # %return
	movq	-56(%rbp), %rbx
	cmpl	$2052507418, -36(%rbp)  # imm = 0x7A56C71A
	jne	.LBB52_19
.LBB52_18:
	movq	%rbx, %rax
	addq	$72, %rsp
	popq	%rbx
	popq	%rbp
	.cfi_def_cfa %rsp, 8
	retq
.LBB52_19:                              # %func_exit
	.cfi_def_cfa %rbp, 16
	callq	detect_breach
	jmp	.LBB52_18
.Lfunc_end52:
	.size	primal_feasible.46, .Lfunc_end52-primal_feasible.46
	.cfi_endproc
                                        # -- End function
	.globl	refresh_potential.47    # -- Begin function refresh_potential.47
	.p2align	4, 0x90
	.type	refresh_potential.47,@function
refresh_potential.47:                   # @refresh_potential.47
	.cfi_startproc
# %bb.0:                                # %entry
	pushq	%rbp
	.cfi_def_cfa_offset 16
	.cfi_offset %rbp, -16
	movq	%rsp, %rbp
	.cfi_def_cfa_register %rbp
	pushq	%rbx
	subq	$56, %rsp
	.cfi_offset %rbx, -24
	movl	$762218467, -44(%rbp)   # imm = 0x2D6E87E3
	movq	%rdi, -56(%rbp)
	movq	-56(%rbp), %rax
	movq	552(%rax), %rax
	movq	%rax, -32(%rbp)
	movq	$0, -40(%rbp)
	movq	-32(%rbp), %rax
	movq	$-100000000, (%rax)     # imm = 0xFA0A1F00
	movq	-32(%rbp), %rax
	movq	16(%rax), %rax
	movq	%rax, -16(%rbp)
	movq	%rax, -24(%rbp)
.LBB53_1:                               # %while.cond
                                        # =>This Loop Header: Depth=1
                                        #     Child Loop BB53_3 Depth 2
                                        #     Child Loop BB53_9 Depth 2
	movq	-16(%rbp), %rax
	cmpq	-32(%rbp), %rax
	je	.LBB53_16
# %bb.2:                                # %while.body
                                        #   in Loop: Header=BB53_1 Depth=1
	jmp	.LBB53_3
.LBB53_3:                               # %while.cond1
                                        #   Parent Loop BB53_1 Depth=1
                                        # =>  This Inner Loop Header: Depth=2
	cmpq	$0, -16(%rbp)
	je	.LBB53_8
# %bb.4:                                # %while.body2
                                        #   in Loop: Header=BB53_3 Depth=2
	movq	-16(%rbp), %rax
	cmpl	$1, 8(%rax)
	jne	.LBB53_6
# %bb.5:                                # %if.then
                                        #   in Loop: Header=BB53_3 Depth=2
	movq	-16(%rbp), %rax
	movq	48(%rax), %rax
	movq	(%rax), %rax
	movq	-16(%rbp), %rcx
	movq	24(%rcx), %rcx
	addq	(%rcx), %rax
	movq	-16(%rbp), %rcx
	movq	%rax, (%rcx)
	jmp	.LBB53_7
.LBB53_6:                               # %if.else
                                        #   in Loop: Header=BB53_3 Depth=2
	movq	-16(%rbp), %rax
	movq	24(%rax), %rax
	movq	(%rax), %rax
	movq	-16(%rbp), %rcx
	movq	48(%rcx), %rcx
	subq	(%rcx), %rax
	movq	-16(%rbp), %rcx
	movq	%rax, (%rcx)
	movq	-40(%rbp), %rax
	addq	$1, %rax
	movq	%rax, -40(%rbp)
.LBB53_7:                               # %if.end
                                        #   in Loop: Header=BB53_3 Depth=2
	movq	-16(%rbp), %rax
	movq	%rax, -24(%rbp)
	movq	-16(%rbp), %rax
	movq	16(%rax), %rax
	movq	%rax, -16(%rbp)
	jmp	.LBB53_3
.LBB53_8:                               # %while.end
                                        #   in Loop: Header=BB53_1 Depth=1
	movq	-24(%rbp), %rax
	movq	%rax, -16(%rbp)
.LBB53_9:                               # %while.cond12
                                        #   Parent Loop BB53_1 Depth=1
                                        # =>  This Inner Loop Header: Depth=2
	movq	-16(%rbp), %rax
	cmpq	$0, 24(%rax)
	je	.LBB53_14
# %bb.10:                               # %while.body15
                                        #   in Loop: Header=BB53_9 Depth=2
	movq	-16(%rbp), %rax
	movq	32(%rax), %rax
	movq	%rax, -24(%rbp)
	cmpq	$0, -24(%rbp)
	je	.LBB53_12
# %bb.11:                               # %if.then17
                                        #   in Loop: Header=BB53_1 Depth=1
	movq	-24(%rbp), %rax
	movq	%rax, -16(%rbp)
	jmp	.LBB53_15
.LBB53_12:                              # %if.else18
                                        #   in Loop: Header=BB53_9 Depth=2
	movq	-16(%rbp), %rax
	movq	24(%rax), %rax
	movq	%rax, -16(%rbp)
# %bb.13:                               # %if.end20
                                        #   in Loop: Header=BB53_9 Depth=2
	jmp	.LBB53_9
.LBB53_14:                              # %while.end21.loopexit
                                        #   in Loop: Header=BB53_1 Depth=1
	jmp	.LBB53_15
.LBB53_15:                              # %while.end21
                                        #   in Loop: Header=BB53_1 Depth=1
	jmp	.LBB53_1
.LBB53_16:                              # %while.end22
	movq	-40(%rbp), %rbx
	cmpl	$762218467, -44(%rbp)   # imm = 0x2D6E87E3
	jne	.LBB53_18
.LBB53_17:
	movq	%rbx, %rax
	addq	$56, %rsp
	popq	%rbx
	popq	%rbp
	.cfi_def_cfa %rsp, 8
	retq
.LBB53_18:                              # %func_exit
	.cfi_def_cfa %rbp, 16
	callq	detect_breach
	jmp	.LBB53_17
.Lfunc_end53:
	.size	refresh_potential.47, .Lfunc_end53-refresh_potential.47
	.cfi_endproc
                                        # -- End function
	.globl	dual_feasible.48        # -- Begin function dual_feasible.48
	.p2align	4, 0x90
	.type	dual_feasible.48,@function
dual_feasible.48:                       # @dual_feasible.48
	.cfi_startproc
# %bb.0:                                # %entry
	pushq	%rbp
	.cfi_def_cfa_offset 16
	.cfi_offset %rbp, -16
	movq	%rsp, %rbp
	.cfi_def_cfa_register %rbp
	pushq	%rbx
	subq	$56, %rsp
	.cfi_offset %rbx, -24
	movl	$249141331, -28(%rbp)   # imm = 0xED99853
	movq	%rdi, -24(%rbp)
	movq	-24(%rbp), %rax
	movq	576(%rax), %rax
	movq	%rax, -56(%rbp)
	movq	-24(%rbp), %rax
	movq	568(%rax), %rax
	movq	%rax, -16(%rbp)
.LBB54_1:                               # %for.cond
                                        # =>This Inner Loop Header: Depth=1
	movq	-16(%rbp), %rax
	cmpq	-56(%rbp), %rax
	jae	.LBB54_15
# %bb.2:                                # %for.body
                                        #   in Loop: Header=BB54_1 Depth=1
	movq	-16(%rbp), %rax
	movq	(%rax), %rcx
	movq	8(%rax), %rdx
	movq	(%rdx), %rdx
	subq	%rdx, %rcx
	movq	16(%rax), %rax
	movq	(%rax), %rax
	addq	%rax, %rcx
	movq	%rcx, -48(%rbp)
	movq	-16(%rbp), %rax
	movl	24(%rax), %eax
	movl	%eax, %ecx
	subl	$-1, %ecx
	je	.LBB54_11
	jmp	.LBB54_3
.LBB54_3:                               # %for.body
                                        #   in Loop: Header=BB54_1 Depth=1
	movl	%eax, %ecx
	subl	$2, %ecx
	jb	.LBB54_5
	jmp	.LBB54_4
.LBB54_4:                               # %for.body
                                        #   in Loop: Header=BB54_1 Depth=1
	subl	$2, %eax
	je	.LBB54_8
	jmp	.LBB54_12
.LBB54_5:                               # %sw.bb
                                        #   in Loop: Header=BB54_1 Depth=1
	xorl	%eax, %eax
	movq	-48(%rbp), %rcx
	movq	-24(%rbp), %rdx
	subq	512(%rdx), %rax
	cmpq	%rax, %rcx
	jge	.LBB54_7
# %bb.6:                                # %if.then
	jmp	.LBB54_16
.LBB54_7:                               # %if.end
                                        #   in Loop: Header=BB54_1 Depth=1
