	.text
	.file	"mcfutil.c"
	.globl	refresh_neighbour_lists # -- Begin function refresh_neighbour_lists
	.p2align	4, 0x90
	.type	refresh_neighbour_lists,@function
refresh_neighbour_lists:                # @refresh_neighbour_lists
	.cfi_startproc
# %bb.0:                                # %rand_bb
	pushq	%rbp
	.cfi_def_cfa_offset 16
	.cfi_offset %rbp, -16
	movq	%rsp, %rbp
	.cfi_def_cfa_register %rbp
	pushq	%rbx
	pushq	%rax
	.cfi_offset %rbx, -24
	movq	%rdi, %rbx
	callq	get_urand
	cmpl	$0, %eax
	jne	.LBB0_17
# %bb.1:                                # %func_refresh_neighbour_lists.10
	movq	%rbx, %rdi
	callq	refresh_neighbour_lists.10
	addq	$8, %rsp
	popq	%rbx
	popq	%rbp
	.cfi_def_cfa %rsp, 8
	retq
.LBB0_2:                                # %func_refresh_neighbour_lists.16
	.cfi_def_cfa %rbp, 16
	movq	%rbx, %rdi
	callq	refresh_neighbour_lists.16
	addq	$8, %rsp
	popq	%rbx
	popq	%rbp
	.cfi_def_cfa %rsp, 8
	retq
.LBB0_3:                                # %func_refresh_neighbour_lists.18
	.cfi_def_cfa %rbp, 16
	movq	%rbx, %rdi
	callq	refresh_neighbour_lists.18
	addq	$8, %rsp
	popq	%rbx
	popq	%rbp
	.cfi_def_cfa %rsp, 8
	retq
.LBB0_4:                                # %func_refresh_neighbour_lists.24
	.cfi_def_cfa %rbp, 16
	movq	%rbx, %rdi
	callq	refresh_neighbour_lists.24
	addq	$8, %rsp
	popq	%rbx
	popq	%rbp
	.cfi_def_cfa %rsp, 8
	retq
.LBB0_5:                                # %func_refresh_neighbour_lists.51
	.cfi_def_cfa %rbp, 16
	movq	%rbx, %rdi
	callq	refresh_neighbour_lists.51
	addq	$8, %rsp
	popq	%rbx
	popq	%rbp
	.cfi_def_cfa %rsp, 8
	retq
.LBB0_6:                                # %func_refresh_neighbour_lists.56
	.cfi_def_cfa %rbp, 16
	movq	%rbx, %rdi
	callq	refresh_neighbour_lists.56
	addq	$8, %rsp
	popq	%rbx
	popq	%rbp
	.cfi_def_cfa %rsp, 8
	retq
.LBB0_7:                                # %func_refresh_neighbour_lists.58
	.cfi_def_cfa %rbp, 16
	movq	%rbx, %rdi
	callq	refresh_neighbour_lists.58
	addq	$8, %rsp
	popq	%rbx
	popq	%rbp
	.cfi_def_cfa %rsp, 8
	retq
.LBB0_8:                                # %func_refresh_neighbour_lists.67
	.cfi_def_cfa %rbp, 16
	movq	%rbx, %rdi
	callq	refresh_neighbour_lists.67
	addq	$8, %rsp
	popq	%rbx
	popq	%rbp
	.cfi_def_cfa %rsp, 8
	retq
.LBB0_9:                                # %func_refresh_neighbour_lists.69
	.cfi_def_cfa %rbp, 16
	movq	%rbx, %rdi
	callq	refresh_neighbour_lists.69
	addq	$8, %rsp
	popq	%rbx
	popq	%rbp
	.cfi_def_cfa %rsp, 8
	retq
.LBB0_10:                               # %func_refresh_neighbour_lists.80
	.cfi_def_cfa %rbp, 16
	movq	%rbx, %rdi
	callq	refresh_neighbour_lists.80
	addq	$8, %rsp
	popq	%rbx
	popq	%rbp
	.cfi_def_cfa %rsp, 8
	retq
.LBB0_11:                               # %func_refresh_neighbour_lists.87
	.cfi_def_cfa %rbp, 16
	movq	%rbx, %rdi
	callq	refresh_neighbour_lists.87
	addq	$8, %rsp
	popq	%rbx
	popq	%rbp
	.cfi_def_cfa %rsp, 8
	retq
.LBB0_12:                               # %func_refresh_neighbour_lists.89
	.cfi_def_cfa %rbp, 16
	movq	%rbx, %rdi
	callq	refresh_neighbour_lists.89
	addq	$8, %rsp
	popq	%rbx
	popq	%rbp
	.cfi_def_cfa %rsp, 8
	retq
.LBB0_13:                               # %func_refresh_neighbour_lists.91
	.cfi_def_cfa %rbp, 16
	movq	%rbx, %rdi
	callq	refresh_neighbour_lists.91
	addq	$8, %rsp
	popq	%rbx
	popq	%rbp
	.cfi_def_cfa %rsp, 8
	retq
.LBB0_14:                               # %func_refresh_neighbour_lists.93
	.cfi_def_cfa %rbp, 16
	movq	%rbx, %rdi
	callq	refresh_neighbour_lists.93
	addq	$8, %rsp
	popq	%rbx
	popq	%rbp
	.cfi_def_cfa %rsp, 8
	retq
.LBB0_15:                               # %func_refresh_neighbour_lists.95
	.cfi_def_cfa %rbp, 16
	movq	%rbx, %rdi
	callq	refresh_neighbour_lists.95
	addq	$8, %rsp
	popq	%rbx
	popq	%rbp
	.cfi_def_cfa %rsp, 8
	retq
.LBB0_16:                               # %func_refresh_neighbour_lists.96
	.cfi_def_cfa %rbp, 16
	movq	%rbx, %rdi
	callq	refresh_neighbour_lists.96
	addq	$8, %rsp
	popq	%rbx
	popq	%rbp
	.cfi_def_cfa %rsp, 8
	retq
.LBB0_17:                               # %ctrl0
	.cfi_def_cfa %rbp, 16
	cmpl	$1, %eax
	je	.LBB0_2
# %bb.18:                               # %ctrl1
	cmpl	$2, %eax
	je	.LBB0_3
# %bb.19:                               # %ctrl2
	cmpl	$3, %eax
	je	.LBB0_4
# %bb.20:                               # %ctrl3
	cmpl	$4, %eax
	je	.LBB0_5
# %bb.21:                               # %ctrl4
	cmpl	$5, %eax
	je	.LBB0_6
# %bb.22:                               # %ctrl5
	cmpl	$6, %eax
	je	.LBB0_7
# %bb.23:                               # %ctrl6
	cmpl	$7, %eax
	je	.LBB0_8
# %bb.24:                               # %ctrl7
	cmpl	$8, %eax
	je	.LBB0_9
# %bb.25:                               # %ctrl8
	cmpl	$9, %eax
	je	.LBB0_10
# %bb.26:                               # %ctrl9
	cmpl	$10, %eax
	je	.LBB0_11
# %bb.27:                               # %ctrl10
	cmpl	$11, %eax
	je	.LBB0_12
# %bb.28:                               # %ctrl11
	cmpl	$12, %eax
	je	.LBB0_13
# %bb.29:                               # %ctrl12
	cmpl	$13, %eax
	je	.LBB0_14
# %bb.30:                               # %ctrl13
	cmpl	$14, %eax
	je	.LBB0_15
	jmp	.LBB0_16
.Lfunc_end0:
	.size	refresh_neighbour_lists, .Lfunc_end0-refresh_neighbour_lists
	.cfi_endproc
                                        # -- End function
	.globl	refresh_potential       # -- Begin function refresh_potential
	.p2align	4, 0x90
	.type	refresh_potential,@function
refresh_potential:                      # @refresh_potential
	.cfi_startproc
# %bb.0:                                # %rand_bb
	pushq	%rbp
	.cfi_def_cfa_offset 16
	.cfi_offset %rbp, -16
	movq	%rsp, %rbp
	.cfi_def_cfa_register %rbp
	pushq	%rbx
	pushq	%rax
	.cfi_offset %rbx, -24
	movq	%rdi, %rbx
	callq	get_urand
	cmpl	$0, %eax
	jne	.LBB1_17
# %bb.1:                                # %func_refresh_potential.4
	movq	%rbx, %rdi
	callq	refresh_potential.4
	addq	$8, %rsp
	popq	%rbx
	popq	%rbp
	.cfi_def_cfa %rsp, 8
	retq
.LBB1_2:                                # %func_refresh_potential.23
	.cfi_def_cfa %rbp, 16
	movq	%rbx, %rdi
	callq	refresh_potential.23
	addq	$8, %rsp
	popq	%rbx
	popq	%rbp
	.cfi_def_cfa %rsp, 8
	retq
.LBB1_3:                                # %func_refresh_potential.27
	.cfi_def_cfa %rbp, 16
	movq	%rbx, %rdi
	callq	refresh_potential.27
	addq	$8, %rsp
	popq	%rbx
	popq	%rbp
	.cfi_def_cfa %rsp, 8
	retq
.LBB1_4:                                # %func_refresh_potential.28
	.cfi_def_cfa %rbp, 16
	movq	%rbx, %rdi
	callq	refresh_potential.28
	addq	$8, %rsp
	popq	%rbx
	popq	%rbp
	.cfi_def_cfa %rsp, 8
	retq
.LBB1_5:                                # %func_refresh_potential.39
	.cfi_def_cfa %rbp, 16
	movq	%rbx, %rdi
	callq	refresh_potential.39
	addq	$8, %rsp
	popq	%rbx
	popq	%rbp
	.cfi_def_cfa %rsp, 8
	retq
.LBB1_6:                                # %func_refresh_potential.49
	.cfi_def_cfa %rbp, 16
	movq	%rbx, %rdi
	callq	refresh_potential.49
	addq	$8, %rsp
	popq	%rbx
	popq	%rbp
	.cfi_def_cfa %rsp, 8
	retq
.LBB1_7:                                # %func_refresh_potential.55
	.cfi_def_cfa %rbp, 16
	movq	%rbx, %rdi
	callq	refresh_potential.55
	addq	$8, %rsp
	popq	%rbx
	popq	%rbp
	.cfi_def_cfa %rsp, 8
	retq
.LBB1_8:                                # %func_refresh_potential.57
	.cfi_def_cfa %rbp, 16
	movq	%rbx, %rdi
	callq	refresh_potential.57
	addq	$8, %rsp
	popq	%rbx
	popq	%rbp
	.cfi_def_cfa %rsp, 8
	retq
.LBB1_9:                                # %func_refresh_potential.64
	.cfi_def_cfa %rbp, 16
	movq	%rbx, %rdi
	callq	refresh_potential.64
	addq	$8, %rsp
	popq	%rbx
	popq	%rbp
	.cfi_def_cfa %rsp, 8
	retq
.LBB1_10:                               # %func_refresh_potential.65
	.cfi_def_cfa %rbp, 16
	movq	%rbx, %rdi
	callq	refresh_potential.65
	addq	$8, %rsp
	popq	%rbx
	popq	%rbp
	.cfi_def_cfa %rsp, 8
	retq
.LBB1_11:                               # %func_refresh_potential.82
	.cfi_def_cfa %rbp, 16
	movq	%rbx, %rdi
	callq	refresh_potential.82
	addq	$8, %rsp
	popq	%rbx
	popq	%rbp
	.cfi_def_cfa %rsp, 8
	retq
.LBB1_12:                               # %func_refresh_potential.83
	.cfi_def_cfa %rbp, 16
	movq	%rbx, %rdi
	callq	refresh_potential.83
	addq	$8, %rsp
	popq	%rbx
	popq	%rbp
	.cfi_def_cfa %rsp, 8
	retq
.LBB1_13:                               # %func_refresh_potential.84
	.cfi_def_cfa %rbp, 16
	movq	%rbx, %rdi
	callq	refresh_potential.84
	addq	$8, %rsp
	popq	%rbx
	popq	%rbp
	.cfi_def_cfa %rsp, 8
	retq
.LBB1_14:                               # %func_refresh_potential.85
	.cfi_def_cfa %rbp, 16
	movq	%rbx, %rdi
	callq	refresh_potential.85
	addq	$8, %rsp
	popq	%rbx
	popq	%rbp
	.cfi_def_cfa %rsp, 8
	retq
.LBB1_15:                               # %func_refresh_potential.86
	.cfi_def_cfa %rbp, 16
	movq	%rbx, %rdi
	callq	refresh_potential.86
	addq	$8, %rsp
	popq	%rbx
	popq	%rbp
	.cfi_def_cfa %rsp, 8
	retq
.LBB1_16:                               # %func_refresh_potential.88
	.cfi_def_cfa %rbp, 16
	movq	%rbx, %rdi
	callq	refresh_potential.88
	addq	$8, %rsp
	popq	%rbx
	popq	%rbp
	.cfi_def_cfa %rsp, 8
	retq
.LBB1_17:                               # %ctrl0
	.cfi_def_cfa %rbp, 16
	cmpl	$1, %eax
	je	.LBB1_2
# %bb.18:                               # %ctrl1
	cmpl	$2, %eax
	je	.LBB1_3
# %bb.19:                               # %ctrl2
	cmpl	$3, %eax
	je	.LBB1_4
# %bb.20:                               # %ctrl3
	cmpl	$4, %eax
	je	.LBB1_5
# %bb.21:                               # %ctrl4
	cmpl	$5, %eax
	je	.LBB1_6
# %bb.22:                               # %ctrl5
	cmpl	$6, %eax
	je	.LBB1_7
# %bb.23:                               # %ctrl6
	cmpl	$7, %eax
	je	.LBB1_8
# %bb.24:                               # %ctrl7
	cmpl	$8, %eax
	je	.LBB1_9
# %bb.25:                               # %ctrl8
	cmpl	$9, %eax
	je	.LBB1_10
# %bb.26:                               # %ctrl9
	cmpl	$10, %eax
	je	.LBB1_11
# %bb.27:                               # %ctrl10
	cmpl	$11, %eax
	je	.LBB1_12
# %bb.28:                               # %ctrl11
	cmpl	$12, %eax
	je	.LBB1_13
# %bb.29:                               # %ctrl12
	cmpl	$13, %eax
	je	.LBB1_14
# %bb.30:                               # %ctrl13
	cmpl	$14, %eax
	je	.LBB1_15
	jmp	.LBB1_16
.Lfunc_end1:
	.size	refresh_potential, .Lfunc_end1-refresh_potential
	.cfi_endproc
                                        # -- End function
	.globl	flow_cost               # -- Begin function flow_cost
	.p2align	4, 0x90
	.type	flow_cost,@function
flow_cost:                              # @flow_cost
	.cfi_startproc
# %bb.0:                                # %rand_bb
	pushq	%rbp
	.cfi_def_cfa_offset 16
	.cfi_offset %rbp, -16
	movq	%rsp, %rbp
	.cfi_def_cfa_register %rbp
	pushq	%rbx
	pushq	%rax
	.cfi_offset %rbx, -24
	movq	%rdi, %rbx
	callq	get_urand
	cmpl	$0, %eax
	jne	.LBB2_17
# %bb.1:                                # %func_flow_cost.1
	movq	%rbx, %rdi
	callq	flow_cost.1
	addq	$8, %rsp
	popq	%rbx
	popq	%rbp
	.cfi_def_cfa %rsp, 8
	retq
.LBB2_2:                                # %func_flow_cost.3
	.cfi_def_cfa %rbp, 16
	movq	%rbx, %rdi
	callq	flow_cost.3
	addq	$8, %rsp
	popq	%rbx
	popq	%rbp
	.cfi_def_cfa %rsp, 8
	retq
.LBB2_3:                                # %func_flow_cost.5
	.cfi_def_cfa %rbp, 16
	movq	%rbx, %rdi
	callq	flow_cost.5
	addq	$8, %rsp
	popq	%rbx
	popq	%rbp
	.cfi_def_cfa %rsp, 8
	retq
.LBB2_4:                                # %func_flow_cost.13
	.cfi_def_cfa %rbp, 16
	movq	%rbx, %rdi
	callq	flow_cost.13
	addq	$8, %rsp
	popq	%rbx
	popq	%rbp
	.cfi_def_cfa %rsp, 8
	retq
.LBB2_5:                                # %func_flow_cost.17
	.cfi_def_cfa %rbp, 16
	movq	%rbx, %rdi
	callq	flow_cost.17
	addq	$8, %rsp
	popq	%rbx
	popq	%rbp
	.cfi_def_cfa %rsp, 8
	retq
.LBB2_6:                                # %func_flow_cost.20
	.cfi_def_cfa %rbp, 16
	movq	%rbx, %rdi
	callq	flow_cost.20
	addq	$8, %rsp
	popq	%rbx
	popq	%rbp
	.cfi_def_cfa %rsp, 8
	retq
.LBB2_7:                                # %func_flow_cost.21
	.cfi_def_cfa %rbp, 16
	movq	%rbx, %rdi
	callq	flow_cost.21
	addq	$8, %rsp
	popq	%rbx
	popq	%rbp
	.cfi_def_cfa %rsp, 8
	retq
.LBB2_8:                                # %func_flow_cost.26
	.cfi_def_cfa %rbp, 16
	movq	%rbx, %rdi
	callq	flow_cost.26
	addq	$8, %rsp
	popq	%rbx
	popq	%rbp
	.cfi_def_cfa %rsp, 8
	retq
.LBB2_9:                                # %func_flow_cost.38
	.cfi_def_cfa %rbp, 16
	movq	%rbx, %rdi
	callq	flow_cost.38
	addq	$8, %rsp
	popq	%rbx
	popq	%rbp
	.cfi_def_cfa %rsp, 8
	retq
.LBB2_10:                               # %func_flow_cost.40
	.cfi_def_cfa %rbp, 16
	movq	%rbx, %rdi
	callq	flow_cost.40
	addq	$8, %rsp
	popq	%rbx
	popq	%rbp
	.cfi_def_cfa %rsp, 8
	retq
.LBB2_11:                               # %func_flow_cost.47
	.cfi_def_cfa %rbp, 16
	movq	%rbx, %rdi
	callq	flow_cost.47
	addq	$8, %rsp
	popq	%rbx
	popq	%rbp
	.cfi_def_cfa %rsp, 8
	retq
.LBB2_12:                               # %func_flow_cost.53
	.cfi_def_cfa %rbp, 16
	movq	%rbx, %rdi
	callq	flow_cost.53
	addq	$8, %rsp
	popq	%rbx
	popq	%rbp
	.cfi_def_cfa %rsp, 8
	retq
.LBB2_13:                               # %func_flow_cost.59
	.cfi_def_cfa %rbp, 16
	movq	%rbx, %rdi
	callq	flow_cost.59
	addq	$8, %rsp
	popq	%rbx
	popq	%rbp
	.cfi_def_cfa %rsp, 8
	retq
.LBB2_14:                               # %func_flow_cost.63
	.cfi_def_cfa %rbp, 16
	movq	%rbx, %rdi
	callq	flow_cost.63
	addq	$8, %rsp
	popq	%rbx
	popq	%rbp
	.cfi_def_cfa %rsp, 8
	retq
.LBB2_15:                               # %func_flow_cost.74
	.cfi_def_cfa %rbp, 16
	movq	%rbx, %rdi
	callq	flow_cost.74
	addq	$8, %rsp
	popq	%rbx
	popq	%rbp
	.cfi_def_cfa %rsp, 8
	retq
.LBB2_16:                               # %func_flow_cost.78
	.cfi_def_cfa %rbp, 16
	movq	%rbx, %rdi
	callq	flow_cost.78
	addq	$8, %rsp
	popq	%rbx
	popq	%rbp
	.cfi_def_cfa %rsp, 8
	retq
.LBB2_17:                               # %ctrl0
	.cfi_def_cfa %rbp, 16
	cmpl	$1, %eax
	je	.LBB2_2
# %bb.18:                               # %ctrl1
	cmpl	$2, %eax
	je	.LBB2_3
# %bb.19:                               # %ctrl2
	cmpl	$3, %eax
	je	.LBB2_4
# %bb.20:                               # %ctrl3
	cmpl	$4, %eax
	je	.LBB2_5
# %bb.21:                               # %ctrl4
	cmpl	$5, %eax
	je	.LBB2_6
# %bb.22:                               # %ctrl5
	cmpl	$6, %eax
	je	.LBB2_7
# %bb.23:                               # %ctrl6
	cmpl	$7, %eax
	je	.LBB2_8
# %bb.24:                               # %ctrl7
	cmpl	$8, %eax
	je	.LBB2_9
# %bb.25:                               # %ctrl8
	cmpl	$9, %eax
	je	.LBB2_10
# %bb.26:                               # %ctrl9
	cmpl	$10, %eax
	je	.LBB2_11
# %bb.27:                               # %ctrl10
	cmpl	$11, %eax
	je	.LBB2_12
# %bb.28:                               # %ctrl11
	cmpl	$12, %eax
	je	.LBB2_13
# %bb.29:                               # %ctrl12
	cmpl	$13, %eax
	je	.LBB2_14
# %bb.30:                               # %ctrl13
	cmpl	$14, %eax
	je	.LBB2_15
	jmp	.LBB2_16
.Lfunc_end2:
	.size	flow_cost, .Lfunc_end2-flow_cost
	.cfi_endproc
                                        # -- End function
	.globl	flow_org_cost           # -- Begin function flow_org_cost
	.p2align	4, 0x90
	.type	flow_org_cost,@function
flow_org_cost:                          # @flow_org_cost
	.cfi_startproc
# %bb.0:                                # %rand_bb
	pushq	%rbp
	.cfi_def_cfa_offset 16
	.cfi_offset %rbp, -16
	movq	%rsp, %rbp
	.cfi_def_cfa_register %rbp
	pushq	%rbx
	pushq	%rax
	.cfi_offset %rbx, -24
	movq	%rdi, %rbx
	callq	get_urand
	cmpl	$0, %eax
	jne	.LBB3_17
# %bb.1:                                # %func_flow_org_cost.19
	movq	%rbx, %rdi
	callq	flow_org_cost.19
	addq	$8, %rsp
	popq	%rbx
	popq	%rbp
	.cfi_def_cfa %rsp, 8
	retq
.LBB3_2:                                # %func_flow_org_cost.31
	.cfi_def_cfa %rbp, 16
	movq	%rbx, %rdi
	callq	flow_org_cost.31
	addq	$8, %rsp
	popq	%rbx
	popq	%rbp
	.cfi_def_cfa %rsp, 8
	retq
.LBB3_3:                                # %func_flow_org_cost.37
	.cfi_def_cfa %rbp, 16
	movq	%rbx, %rdi
	callq	flow_org_cost.37
	addq	$8, %rsp
	popq	%rbx
	popq	%rbp
	.cfi_def_cfa %rsp, 8
	retq
.LBB3_4:                                # %func_flow_org_cost.41
	.cfi_def_cfa %rbp, 16
	movq	%rbx, %rdi
	callq	flow_org_cost.41
	addq	$8, %rsp
	popq	%rbx
	popq	%rbp
	.cfi_def_cfa %rsp, 8
	retq
.LBB3_5:                                # %func_flow_org_cost.44
	.cfi_def_cfa %rbp, 16
	movq	%rbx, %rdi
	callq	flow_org_cost.44
	addq	$8, %rsp
	popq	%rbx
	popq	%rbp
	.cfi_def_cfa %rsp, 8
	retq
.LBB3_6:                                # %func_flow_org_cost.45
	.cfi_def_cfa %rbp, 16
	movq	%rbx, %rdi
	callq	flow_org_cost.45
	addq	$8, %rsp
	popq	%rbx
	popq	%rbp
	.cfi_def_cfa %rsp, 8
	retq
.LBB3_7:                                # %func_flow_org_cost.46
	.cfi_def_cfa %rbp, 16
	movq	%rbx, %rdi
	callq	flow_org_cost.46
	addq	$8, %rsp
	popq	%rbx
	popq	%rbp
	.cfi_def_cfa %rsp, 8
	retq
.LBB3_8:                                # %func_flow_org_cost.48
	.cfi_def_cfa %rbp, 16
	movq	%rbx, %rdi
	callq	flow_org_cost.48
	addq	$8, %rsp
	popq	%rbx
	popq	%rbp
	.cfi_def_cfa %rsp, 8
	retq
.LBB3_9:                                # %func_flow_org_cost.50
	.cfi_def_cfa %rbp, 16
	movq	%rbx, %rdi
	callq	flow_org_cost.50
	addq	$8, %rsp
	popq	%rbx
	popq	%rbp
	.cfi_def_cfa %rsp, 8
	retq
.LBB3_10:                               # %func_flow_org_cost.52
	.cfi_def_cfa %rbp, 16
	movq	%rbx, %rdi
	callq	flow_org_cost.52
	addq	$8, %rsp
	popq	%rbx
	popq	%rbp
	.cfi_def_cfa %rsp, 8
	retq
.LBB3_11:                               # %func_flow_org_cost.60
	.cfi_def_cfa %rbp, 16
	movq	%rbx, %rdi
	callq	flow_org_cost.60
	addq	$8, %rsp
	popq	%rbx
	popq	%rbp
	.cfi_def_cfa %rsp, 8
	retq
.LBB3_12:                               # %func_flow_org_cost.62
	.cfi_def_cfa %rbp, 16
	movq	%rbx, %rdi
	callq	flow_org_cost.62
	addq	$8, %rsp
	popq	%rbx
	popq	%rbp
	.cfi_def_cfa %rsp, 8
	retq
.LBB3_13:                               # %func_flow_org_cost.68
	.cfi_def_cfa %rbp, 16
	movq	%rbx, %rdi
	callq	flow_org_cost.68
	addq	$8, %rsp
	popq	%rbx
	popq	%rbp
	.cfi_def_cfa %rsp, 8
	retq
.LBB3_14:                               # %func_flow_org_cost.71
	.cfi_def_cfa %rbp, 16
	movq	%rbx, %rdi
	callq	flow_org_cost.71
	addq	$8, %rsp
	popq	%rbx
	popq	%rbp
	.cfi_def_cfa %rsp, 8
	retq
.LBB3_15:                               # %func_flow_org_cost.72
	.cfi_def_cfa %rbp, 16
	movq	%rbx, %rdi
	callq	flow_org_cost.72
	addq	$8, %rsp
	popq	%rbx
	popq	%rbp
	.cfi_def_cfa %rsp, 8
	retq
.LBB3_16:                               # %func_flow_org_cost.73
	.cfi_def_cfa %rbp, 16
	movq	%rbx, %rdi
	callq	flow_org_cost.73
	addq	$8, %rsp
	popq	%rbx
	popq	%rbp
	.cfi_def_cfa %rsp, 8
	retq
.LBB3_17:                               # %ctrl0
	.cfi_def_cfa %rbp, 16
	cmpl	$1, %eax
	je	.LBB3_2
# %bb.18:                               # %ctrl1
	cmpl	$2, %eax
	je	.LBB3_3
# %bb.19:                               # %ctrl2
	cmpl	$3, %eax
	je	.LBB3_4
# %bb.20:                               # %ctrl3
	cmpl	$4, %eax
	je	.LBB3_5
# %bb.21:                               # %ctrl4
	cmpl	$5, %eax
	je	.LBB3_6
# %bb.22:                               # %ctrl5
	cmpl	$6, %eax
	je	.LBB3_7
# %bb.23:                               # %ctrl6
	cmpl	$7, %eax
	je	.LBB3_8
# %bb.24:                               # %ctrl7
	cmpl	$8, %eax
	je	.LBB3_9
# %bb.25:                               # %ctrl8
	cmpl	$9, %eax
	je	.LBB3_10
# %bb.26:                               # %ctrl9
	cmpl	$10, %eax
	je	.LBB3_11
# %bb.27:                               # %ctrl10
	cmpl	$11, %eax
	je	.LBB3_12
# %bb.28:                               # %ctrl11
	cmpl	$12, %eax
	je	.LBB3_13
# %bb.29:                               # %ctrl12
	cmpl	$13, %eax
	je	.LBB3_14
# %bb.30:                               # %ctrl13
	cmpl	$14, %eax
	je	.LBB3_15
	jmp	.LBB3_16
.Lfunc_end3:
	.size	flow_org_cost, .Lfunc_end3-flow_org_cost
	.cfi_endproc
                                        # -- End function
	.globl	primal_feasible         # -- Begin function primal_feasible
	.p2align	4, 0x90
	.type	primal_feasible,@function
primal_feasible:                        # @primal_feasible
	.cfi_startproc
# %bb.0:                                # %rand_bb
	pushq	%rbp
	.cfi_def_cfa_offset 16
	.cfi_offset %rbp, -16
	movq	%rsp, %rbp
	.cfi_def_cfa_register %rbp
	pushq	%rbx
	pushq	%rax
	.cfi_offset %rbx, -24
	movq	%rdi, %rbx
	callq	get_urand
	cmpl	$0, %eax
	jne	.LBB4_17
# %bb.1:                                # %func_primal_feasible.11
	movq	%rbx, %rdi
	callq	primal_feasible.11
	addq	$8, %rsp
	popq	%rbx
	popq	%rbp
	.cfi_def_cfa %rsp, 8
	retq
.LBB4_2:                                # %func_primal_feasible.12
	.cfi_def_cfa %rbp, 16
	movq	%rbx, %rdi
	callq	primal_feasible.12
	addq	$8, %rsp
	popq	%rbx
	popq	%rbp
	.cfi_def_cfa %rsp, 8
	retq
.LBB4_3:                                # %func_primal_feasible.15
	.cfi_def_cfa %rbp, 16
	movq	%rbx, %rdi
	callq	primal_feasible.15
	addq	$8, %rsp
	popq	%rbx
	popq	%rbp
	.cfi_def_cfa %rsp, 8
	retq
.LBB4_4:                                # %func_primal_feasible.22
	.cfi_def_cfa %rbp, 16
	movq	%rbx, %rdi
	callq	primal_feasible.22
	addq	$8, %rsp
	popq	%rbx
	popq	%rbp
	.cfi_def_cfa %rsp, 8
	retq
.LBB4_5:                                # %func_primal_feasible.25
	.cfi_def_cfa %rbp, 16
	movq	%rbx, %rdi
	callq	primal_feasible.25
	addq	$8, %rsp
	popq	%rbx
	popq	%rbp
	.cfi_def_cfa %rsp, 8
	retq
.LBB4_6:                                # %func_primal_feasible.29
	.cfi_def_cfa %rbp, 16
	movq	%rbx, %rdi
	callq	primal_feasible.29
	addq	$8, %rsp
	popq	%rbx
	popq	%rbp
	.cfi_def_cfa %rsp, 8
	retq
.LBB4_7:                                # %func_primal_feasible.32
	.cfi_def_cfa %rbp, 16
	movq	%rbx, %rdi
	callq	primal_feasible.32
	addq	$8, %rsp
	popq	%rbx
	popq	%rbp
	.cfi_def_cfa %rsp, 8
	retq
.LBB4_8:                                # %func_primal_feasible.33
	.cfi_def_cfa %rbp, 16
	movq	%rbx, %rdi
	callq	primal_feasible.33
	addq	$8, %rsp
	popq	%rbx
	popq	%rbp
	.cfi_def_cfa %rsp, 8
	retq
.LBB4_9:                                # %func_primal_feasible.34
	.cfi_def_cfa %rbp, 16
	movq	%rbx, %rdi
	callq	primal_feasible.34
	addq	$8, %rsp
	popq	%rbx
	popq	%rbp
	.cfi_def_cfa %rsp, 8
	retq
.LBB4_10:                               # %func_primal_feasible.36
	.cfi_def_cfa %rbp, 16
	movq	%rbx, %rdi
	callq	primal_feasible.36
	addq	$8, %rsp
	popq	%rbx
	popq	%rbp
	.cfi_def_cfa %rsp, 8
	retq
.LBB4_11:                               # %func_primal_feasible.42
	.cfi_def_cfa %rbp, 16
	movq	%rbx, %rdi
	callq	primal_feasible.42
	addq	$8, %rsp
	popq	%rbx
	popq	%rbp
	.cfi_def_cfa %rsp, 8
	retq
.LBB4_12:                               # %func_primal_feasible.43
	.cfi_def_cfa %rbp, 16
	movq	%rbx, %rdi
	callq	primal_feasible.43
	addq	$8, %rsp
	popq	%rbx
	popq	%rbp
	.cfi_def_cfa %rsp, 8
	retq
.LBB4_13:                               # %func_primal_feasible.75
	.cfi_def_cfa %rbp, 16
	movq	%rbx, %rdi
	callq	primal_feasible.75
	addq	$8, %rsp
	popq	%rbx
	popq	%rbp
	.cfi_def_cfa %rsp, 8
	retq
.LBB4_14:                               # %func_primal_feasible.76
	.cfi_def_cfa %rbp, 16
	movq	%rbx, %rdi
	callq	primal_feasible.76
	addq	$8, %rsp
	popq	%rbx
	popq	%rbp
	.cfi_def_cfa %rsp, 8
	retq
.LBB4_15:                               # %func_primal_feasible.77
	.cfi_def_cfa %rbp, 16
	movq	%rbx, %rdi
	callq	primal_feasible.77
	addq	$8, %rsp
	popq	%rbx
	popq	%rbp
	.cfi_def_cfa %rsp, 8
	retq
.LBB4_16:                               # %func_primal_feasible.79
	.cfi_def_cfa %rbp, 16
	movq	%rbx, %rdi
	callq	primal_feasible.79
	addq	$8, %rsp
	popq	%rbx
	popq	%rbp
	.cfi_def_cfa %rsp, 8
	retq
.LBB4_17:                               # %ctrl0
	.cfi_def_cfa %rbp, 16
	cmpl	$1, %eax
	je	.LBB4_2
# %bb.18:                               # %ctrl1
	cmpl	$2, %eax
	je	.LBB4_3
# %bb.19:                               # %ctrl2
	cmpl	$3, %eax
	je	.LBB4_4
# %bb.20:                               # %ctrl3
	cmpl	$4, %eax
	je	.LBB4_5
# %bb.21:                               # %ctrl4
	cmpl	$5, %eax
	je	.LBB4_6
# %bb.22:                               # %ctrl5
	cmpl	$6, %eax
	je	.LBB4_7
# %bb.23:                               # %ctrl6
	cmpl	$7, %eax
	je	.LBB4_8
# %bb.24:                               # %ctrl7
	cmpl	$8, %eax
	je	.LBB4_9
# %bb.25:                               # %ctrl8
	cmpl	$9, %eax
	je	.LBB4_10
# %bb.26:                               # %ctrl9
	cmpl	$10, %eax
	je	.LBB4_11
# %bb.27:                               # %ctrl10
	cmpl	$11, %eax
	je	.LBB4_12
# %bb.28:                               # %ctrl11
	cmpl	$12, %eax
	je	.LBB4_13
# %bb.29:                               # %ctrl12
	cmpl	$13, %eax
	je	.LBB4_14
# %bb.30:                               # %ctrl13
	cmpl	$14, %eax
	je	.LBB4_15
	jmp	.LBB4_16
.Lfunc_end4:
	.size	primal_feasible, .Lfunc_end4-primal_feasible
	.cfi_endproc
                                        # -- End function
	.globl	dual_feasible           # -- Begin function dual_feasible
	.p2align	4, 0x90
	.type	dual_feasible,@function
dual_feasible:                          # @dual_feasible
	.cfi_startproc
# %bb.0:                                # %rand_bb
	pushq	%rbp
	.cfi_def_cfa_offset 16
	.cfi_offset %rbp, -16
	movq	%rsp, %rbp
	.cfi_def_cfa_register %rbp
	pushq	%rbx
	pushq	%rax
	.cfi_offset %rbx, -24
	movq	%rdi, %rbx
	callq	get_urand
	cmpl	$0, %eax
	jne	.LBB5_17
# %bb.1:                                # %func_dual_feasible.2
	movq	%rbx, %rdi
	callq	dual_feasible.2
	addq	$8, %rsp
	popq	%rbx
	popq	%rbp
	.cfi_def_cfa %rsp, 8
	retq
.LBB5_2:                                # %func_dual_feasible.6
	.cfi_def_cfa %rbp, 16
	movq	%rbx, %rdi
	callq	dual_feasible.6
	addq	$8, %rsp
	popq	%rbx
	popq	%rbp
	.cfi_def_cfa %rsp, 8
	retq
.LBB5_3:                                # %func_dual_feasible.7
	.cfi_def_cfa %rbp, 16
	movq	%rbx, %rdi
	callq	dual_feasible.7
	addq	$8, %rsp
	popq	%rbx
	popq	%rbp
	.cfi_def_cfa %rsp, 8
	retq
.LBB5_4:                                # %func_dual_feasible.8
	.cfi_def_cfa %rbp, 16
	movq	%rbx, %rdi
	callq	dual_feasible.8
	addq	$8, %rsp
	popq	%rbx
	popq	%rbp
	.cfi_def_cfa %rsp, 8
	retq
.LBB5_5:                                # %func_dual_feasible.9
	.cfi_def_cfa %rbp, 16
	movq	%rbx, %rdi
	callq	dual_feasible.9
	addq	$8, %rsp
	popq	%rbx
	popq	%rbp
	.cfi_def_cfa %rsp, 8
	retq
.LBB5_6:                                # %func_dual_feasible.14
	.cfi_def_cfa %rbp, 16
	movq	%rbx, %rdi
	callq	dual_feasible.14
	addq	$8, %rsp
	popq	%rbx
	popq	%rbp
	.cfi_def_cfa %rsp, 8
	retq
.LBB5_7:                                # %func_dual_feasible.30
	.cfi_def_cfa %rbp, 16
	movq	%rbx, %rdi
	callq	dual_feasible.30
	addq	$8, %rsp
	popq	%rbx
	popq	%rbp
	.cfi_def_cfa %rsp, 8
	retq
.LBB5_8:                                # %func_dual_feasible.35
	.cfi_def_cfa %rbp, 16
	movq	%rbx, %rdi
	callq	dual_feasible.35
	addq	$8, %rsp
	popq	%rbx
	popq	%rbp
	.cfi_def_cfa %rsp, 8
	retq
.LBB5_9:                                # %func_dual_feasible.54
	.cfi_def_cfa %rbp, 16
	movq	%rbx, %rdi
	callq	dual_feasible.54
	addq	$8, %rsp
	popq	%rbx
	popq	%rbp
	.cfi_def_cfa %rsp, 8
	retq
.LBB5_10:                               # %func_dual_feasible.61
	.cfi_def_cfa %rbp, 16
	movq	%rbx, %rdi
	callq	dual_feasible.61
	addq	$8, %rsp
	popq	%rbx
	popq	%rbp
	.cfi_def_cfa %rsp, 8
	retq
.LBB5_11:                               # %func_dual_feasible.66
	.cfi_def_cfa %rbp, 16
	movq	%rbx, %rdi
	callq	dual_feasible.66
	addq	$8, %rsp
	popq	%rbx
	popq	%rbp
	.cfi_def_cfa %rsp, 8
	retq
.LBB5_12:                               # %func_dual_feasible.70
	.cfi_def_cfa %rbp, 16
	movq	%rbx, %rdi
	callq	dual_feasible.70
	addq	$8, %rsp
	popq	%rbx
	popq	%rbp
	.cfi_def_cfa %rsp, 8
	retq
.LBB5_13:                               # %func_dual_feasible.81
	.cfi_def_cfa %rbp, 16
	movq	%rbx, %rdi
	callq	dual_feasible.81
	addq	$8, %rsp
	popq	%rbx
	popq	%rbp
	.cfi_def_cfa %rsp, 8
	retq
.LBB5_14:                               # %func_dual_feasible.90
	.cfi_def_cfa %rbp, 16
	movq	%rbx, %rdi
	callq	dual_feasible.90
	addq	$8, %rsp
	popq	%rbx
	popq	%rbp
	.cfi_def_cfa %rsp, 8
	retq
.LBB5_15:                               # %func_dual_feasible.92
	.cfi_def_cfa %rbp, 16
	movq	%rbx, %rdi
	callq	dual_feasible.92
	addq	$8, %rsp
	popq	%rbx
	popq	%rbp
	.cfi_def_cfa %rsp, 8
	retq
.LBB5_16:                               # %func_dual_feasible.94
	.cfi_def_cfa %rbp, 16
	movq	%rbx, %rdi
	callq	dual_feasible.94
	addq	$8, %rsp
	popq	%rbx
	popq	%rbp
	.cfi_def_cfa %rsp, 8
	retq
.LBB5_17:                               # %ctrl0
	.cfi_def_cfa %rbp, 16
	cmpl	$1, %eax
	je	.LBB5_2
# %bb.18:                               # %ctrl1
	cmpl	$2, %eax
	je	.LBB5_3
# %bb.19:                               # %ctrl2
	cmpl	$3, %eax
	je	.LBB5_4
# %bb.20:                               # %ctrl3
	cmpl	$4, %eax
	je	.LBB5_5
# %bb.21:                               # %ctrl4
	cmpl	$5, %eax
	je	.LBB5_6
# %bb.22:                               # %ctrl5
	cmpl	$6, %eax
	je	.LBB5_7
# %bb.23:                               # %ctrl6
	cmpl	$7, %eax
	je	.LBB5_8
# %bb.24:                               # %ctrl7
	cmpl	$8, %eax
	je	.LBB5_9
# %bb.25:                               # %ctrl8
	cmpl	$9, %eax
	je	.LBB5_10
# %bb.26:                               # %ctrl9
	cmpl	$10, %eax
	je	.LBB5_11
# %bb.27:                               # %ctrl10
	cmpl	$11, %eax
	je	.LBB5_12
# %bb.28:                               # %ctrl11
	cmpl	$12, %eax
	je	.LBB5_13
# %bb.29:                               # %ctrl12
	cmpl	$13, %eax
	je	.LBB5_14
# %bb.30:                               # %ctrl13
	cmpl	$14, %eax
	je	.LBB5_15
	jmp	.LBB5_16
.Lfunc_end5:
	.size	dual_feasible, .Lfunc_end5-dual_feasible
	.cfi_endproc
                                        # -- End function
	.globl	getfree                 # -- Begin function getfree
	.p2align	4, 0x90
	.type	getfree,@function
getfree:                                # @getfree
	.cfi_startproc
# %bb.0:                                # %entry
	pushq	%rbp
	.cfi_def_cfa_offset 16
	.cfi_offset %rbp, -16
	movq	%rsp, %rbp
	.cfi_def_cfa_register %rbp
	subq	$16, %rsp
	movq	%rdi, -8(%rbp)
	movq	-8(%rbp), %rax
	cmpq	$0, 552(%rax)
	je	.LBB6_2
# %bb.1:                                # %if.then
	movq	-8(%rbp), %rax
	movq	552(%rax), %rdi
	callq	free
.LBB6_2:                                # %if.end
	movq	-8(%rbp), %rax
	cmpq	$0, 568(%rax)
	je	.LBB6_4
# %bb.3:                                # %if.then3
	movq	-8(%rbp), %rax
	movq	568(%rax), %rdi
	callq	free
.LBB6_4:                                # %if.end5
	movq	-8(%rbp), %rax
	cmpq	$0, 584(%rax)
	je	.LBB6_6
# %bb.5:                                # %if.then7
	movq	-8(%rbp), %rax
	movq	584(%rax), %rdi
	callq	free
.LBB6_6:                                # %if.end9
	movq	-8(%rbp), %rax
	movq	$0, 560(%rax)
	movq	-8(%rbp), %rax
	movq	$0, 552(%rax)
	movq	-8(%rbp), %rax
	movq	$0, 576(%rax)
	movq	-8(%rbp), %rax
	movq	$0, 568(%rax)
	movq	-8(%rbp), %rax
	movq	$0, 592(%rax)
	movq	-8(%rbp), %rax
	movq	$0, 584(%rax)
	xorl	%eax, %eax
	addq	$16, %rsp
	popq	%rbp
	.cfi_def_cfa %rsp, 8
	retq
.Lfunc_end6:
	.size	getfree, .Lfunc_end6-getfree
	.cfi_endproc
                                        # -- End function
	.globl	flow_cost.1             # -- Begin function flow_cost.1
	.p2align	4, 0x90
	.type	flow_cost.1,@function
flow_cost.1:                            # @flow_cost.1
	.cfi_startproc
# %bb.0:                                # %entry
	pushq	%rbp
	.cfi_def_cfa_offset 16
	.cfi_offset %rbp, -16
	movq	%rsp, %rbp
	.cfi_def_cfa_register %rbp
	subq	$64, %rsp
	movl	$1005156601, -52(%rbp)  # imm = 0x3BE978F9
	movq	%rdi, -16(%rbp)
	movq	$0, -48(%rbp)
	movq	$0, -32(%rbp)
	movq	-16(%rbp), %rax
	movq	576(%rax), %rax
	movq	%rax, -40(%rbp)
	movq	-16(%rbp), %rax
	movq	568(%rax), %rax
	movq	%rax, -8(%rbp)
.LBB7_1:                                # %for.cond
                                        # =>This Inner Loop Header: Depth=1
	movq	-8(%rbp), %rax
	movq	-40(%rbp), %rcx
	cmpq	%rcx, %rax
	je	.LBB7_7
# %bb.2:                                # %for.body
                                        #   in Loop: Header=BB7_1 Depth=1
	movq	-8(%rbp), %rax
	cmpl	$2, 24(%rax)
	jne	.LBB7_4
# %bb.3:                                # %if.then
                                        #   in Loop: Header=BB7_1 Depth=1
	movq	-8(%rbp), %rax
	movq	$1, 48(%rax)
	jmp	.LBB7_5
.LBB7_4:                                # %if.else
                                        #   in Loop: Header=BB7_1 Depth=1
	movq	-8(%rbp), %rax
	movq	$0, 48(%rax)
.LBB7_5:                                # %if.end
                                        #   in Loop: Header=BB7_1 Depth=1
	jmp	.LBB7_6
.LBB7_6:                                # %for.inc
                                        #   in Loop: Header=BB7_1 Depth=1
	movq	-8(%rbp), %rax
	addq	$64, %rax
	movq	%rax, -8(%rbp)
	jmp	.LBB7_1
.LBB7_7:                                # %for.end
	movq	-16(%rbp), %rax
	movq	560(%rax), %rax
	movq	%rax, -40(%rbp)
	movq	-16(%rbp), %rax
	movq	552(%rax), %rax
	movq	%rax, -24(%rbp)
	movq	-24(%rbp), %rax
	addq	$104, %rax
	movq	%rax, -24(%rbp)
.LBB7_8:                                # %for.cond4
                                        # =>This Inner Loop Header: Depth=1
	movq	-24(%rbp), %rax
	movq	-40(%rbp), %rcx
	cmpq	%rcx, %rax
	je	.LBB7_11
# %bb.9:                                # %for.body6
                                        #   in Loop: Header=BB7_8 Depth=1
	movq	-24(%rbp), %rax
	movq	80(%rax), %rax
	movq	-24(%rbp), %rcx
	movq	48(%rcx), %rcx
	movq	%rax, 48(%rcx)
# %bb.10:                               # %for.inc9
                                        #   in Loop: Header=BB7_8 Depth=1
	movq	-24(%rbp), %rax
	addq	$104, %rax
	movq	%rax, -24(%rbp)
	jmp	.LBB7_8
.LBB7_11:                               # %for.end11
	movq	-16(%rbp), %rax
	movq	576(%rax), %rax
	movq	%rax, -40(%rbp)
	movq	-16(%rbp), %rax
	movq	568(%rax), %rax
	movq	%rax, -8(%rbp)
.LBB7_12:                               # %for.cond14
                                        # =>This Inner Loop Header: Depth=1
	movq	-8(%rbp), %rax
	movq	-40(%rbp), %rcx
	cmpq	%rcx, %rax
	je	.LBB7_23
# %bb.13:                               # %for.body16
                                        #   in Loop: Header=BB7_12 Depth=1
	movq	-8(%rbp), %rax
	cmpq	$0, 48(%rax)
	je	.LBB7_21
# %bb.14:                               # %if.then18
                                        #   in Loop: Header=BB7_12 Depth=1
	movq	-8(%rbp), %rax
	movq	8(%rax), %rax
	cmpl	$0, 96(%rax)
	jge	.LBB7_16
# %bb.15:                               # %land.lhs.true
                                        #   in Loop: Header=BB7_12 Depth=1
	movq	-8(%rbp), %rax
	movq	16(%rax), %rax
	cmpl	$0, 96(%rax)
	jg	.LBB7_20
.LBB7_16:                               # %if.then22
                                        #   in Loop: Header=BB7_12 Depth=1
	movq	-8(%rbp), %rax
	movq	8(%rax), %rax
	cmpl	$0, 96(%rax)
	jne	.LBB7_18
# %bb.17:                               # %if.then26
                                        #   in Loop: Header=BB7_12 Depth=1
	movq	-8(%rbp), %rax
	movq	(%rax), %rax
	movq	-16(%rbp), %rcx
	subq	528(%rcx), %rax
	addq	-32(%rbp), %rax
	movq	%rax, -32(%rbp)
	movq	-48(%rbp), %rax
	addq	$1, %rax
	movq	%rax, -48(%rbp)
	jmp	.LBB7_19
.LBB7_18:                               # %if.else27
                                        #   in Loop: Header=BB7_12 Depth=1
	movq	-8(%rbp), %rax
	movq	(%rax), %rax
	addq	-32(%rbp), %rax
	movq	%rax, -32(%rbp)
.LBB7_19:                               # %if.end30
                                        #   in Loop: Header=BB7_12 Depth=1
	jmp	.LBB7_20
.LBB7_20:                               # %if.end31
                                        #   in Loop: Header=BB7_12 Depth=1
	jmp	.LBB7_21
.LBB7_21:                               # %if.end32
                                        #   in Loop: Header=BB7_12 Depth=1
	jmp	.LBB7_22
.LBB7_22:                               # %for.inc33
                                        #   in Loop: Header=BB7_12 Depth=1
	movq	-8(%rbp), %rax
	addq	$64, %rax
	movq	%rax, -8(%rbp)
	jmp	.LBB7_12
.LBB7_23:                               # %for.end35
	vcvtsi2sdq	-48(%rbp), %xmm0, %xmm0
	movq	-16(%rbp), %rax
	vcvtsi2sdq	528(%rax), %xmm0, %xmm1
	vmulsd	%xmm1, %xmm0, %xmm0
	vcvtsi2sdq	-32(%rbp), %xmm0, %xmm1
	vaddsd	%xmm1, %xmm0, %xmm0
	cmpl	$1005156601, -52(%rbp)  # imm = 0x3BE978F9
	jne	.LBB7_25
.LBB7_24:
	addq	$64, %rsp
	popq	%rbp
	.cfi_def_cfa %rsp, 8
	retq
.LBB7_25:                               # %func_exit
	.cfi_def_cfa %rbp, 16
	vmovsd	%xmm0, -64(%rbp)        # 8-byte Spill
	callq	detect_breach
	vmovsd	-64(%rbp), %xmm0        # 8-byte Reload
                                        # xmm0 = mem[0],zero
	jmp	.LBB7_24
.Lfunc_end7:
	.size	flow_cost.1, .Lfunc_end7-flow_cost.1
	.cfi_endproc
                                        # -- End function
	.globl	dual_feasible.2         # -- Begin function dual_feasible.2
	.p2align	4, 0x90
	.type	dual_feasible.2,@function
dual_feasible.2:                        # @dual_feasible.2
	.cfi_startproc
# %bb.0:                                # %entry
	pushq	%rbp
	.cfi_def_cfa_offset 16
	.cfi_offset %rbp, -16
	movq	%rsp, %rbp
	.cfi_def_cfa_register %rbp
	pushq	%rbx
	subq	$56, %rsp
	.cfi_offset %rbx, -24
	movl	$1695536756, -28(%rbp)  # imm = 0x650FD674
	movq	%rdi, -24(%rbp)
	movq	-24(%rbp), %rax
	movq	576(%rax), %rax
	movq	%rax, -56(%rbp)
	movq	-24(%rbp), %rax
	movq	568(%rax), %rax
	movq	%rax, -16(%rbp)
.LBB8_1:                                # %for.cond
                                        # =>This Inner Loop Header: Depth=1
	movq	-16(%rbp), %rax
	cmpq	-56(%rbp), %rax
	jae	.LBB8_15
# %bb.2:                                # %for.body
                                        #   in Loop: Header=BB8_1 Depth=1
	movq	-16(%rbp), %rax
	movq	(%rax), %rcx
	movq	8(%rax), %rdx
	movq	(%rdx), %rdx
	subq	%rdx, %rcx
	movq	16(%rax), %rax
	movq	(%rax), %rax
	addq	%rax, %rcx
	movq	%rcx, -48(%rbp)
	movq	-16(%rbp), %rax
	movl	24(%rax), %eax
	movl	%eax, %ecx
	subl	$-1, %ecx
	je	.LBB8_11
	jmp	.LBB8_3
.LBB8_3:                                # %for.body
                                        #   in Loop: Header=BB8_1 Depth=1
	movl	%eax, %ecx
	subl	$2, %ecx
	jb	.LBB8_5
	jmp	.LBB8_4
.LBB8_4:                                # %for.body
                                        #   in Loop: Header=BB8_1 Depth=1
	subl	$2, %eax
	je	.LBB8_8
	jmp	.LBB8_12
.LBB8_5:                                # %sw.bb
                                        #   in Loop: Header=BB8_1 Depth=1
	xorl	%eax, %eax
	movq	-48(%rbp), %rcx
	movq	-24(%rbp), %rdx
	subq	512(%rdx), %rax
	cmpq	%rax, %rcx
	jge	.LBB8_7
# %bb.6:                                # %if.then
	jmp	.LBB8_16
.LBB8_7:                                # %if.end
                                        #   in Loop: Header=BB8_1 Depth=1
	jmp	.LBB8_13
.LBB8_8:                                # %sw.bb4
                                        #   in Loop: Header=BB8_1 Depth=1
	movq	-48(%rbp), %rax
	movq	-24(%rbp), %rcx
	cmpq	512(%rcx), %rax
	jle	.LBB8_10
# %bb.9:                                # %if.then7
	jmp	.LBB8_16
.LBB8_10:                               # %if.end8
                                        #   in Loop: Header=BB8_1 Depth=1
	jmp	.LBB8_13
.LBB8_11:                               # %sw.bb9
                                        #   in Loop: Header=BB8_1 Depth=1
	jmp	.LBB8_12
.LBB8_12:                               # %sw.default
                                        #   in Loop: Header=BB8_1 Depth=1
	jmp	.LBB8_13
.LBB8_13:                               # %sw.epilog
                                        #   in Loop: Header=BB8_1 Depth=1
	jmp	.LBB8_14
.LBB8_14:                               # %for.inc
                                        #   in Loop: Header=BB8_1 Depth=1
	movq	-16(%rbp), %rax
	addq	$64, %rax
	movq	%rax, -16(%rbp)
	jmp	.LBB8_1
.LBB8_15:                               # %for.end
	movq	$0, -40(%rbp)
	jmp	.LBB8_17
.LBB8_16:                               # %DUAL_INFEAS
	movq	stderr, %rdi
	movabsq	$.L.str.3, %rsi
	movb	$0, %al
	callq	fprintf
	movq	stderr, %rdi
	movabsq	$.L.str.4, %rsi
	movb	$0, %al
	callq	fprintf
	movq	$1, -40(%rbp)
.LBB8_17:                               # %return
	movq	-40(%rbp), %rbx
	cmpl	$1695536756, -28(%rbp)  # imm = 0x650FD674
	jne	.LBB8_19
.LBB8_18:
	movq	%rbx, %rax
	addq	$56, %rsp
	popq	%rbx
	popq	%rbp
	.cfi_def_cfa %rsp, 8
	retq
.LBB8_19:                               # %func_exit
	.cfi_def_cfa %rbp, 16
	callq	detect_breach
	jmp	.LBB8_18
.Lfunc_end8:
	.size	dual_feasible.2, .Lfunc_end8-dual_feasible.2
	.cfi_endproc
                                        # -- End function
	.globl	flow_cost.3             # -- Begin function flow_cost.3
	.p2align	4, 0x90
	.type	flow_cost.3,@function
flow_cost.3:                            # @flow_cost.3
	.cfi_startproc
# %bb.0:                                # %entry
	pushq	%rbp
	.cfi_def_cfa_offset 16
	.cfi_offset %rbp, -16
	movq	%rsp, %rbp
	.cfi_def_cfa_register %rbp
	subq	$64, %rsp
	movl	$1428654362, -52(%rbp)  # imm = 0x5527891A
	movq	%rdi, -16(%rbp)
	movq	$0, -48(%rbp)
	movq	$0, -32(%rbp)
	movq	-16(%rbp), %rax
	movq	576(%rax), %rax
	movq	%rax, -40(%rbp)
	movq	-16(%rbp), %rax
	movq	568(%rax), %rax
	movq	%rax, -8(%rbp)
.LBB9_1:                                # %for.cond
                                        # =>This Inner Loop Header: Depth=1
	movq	-8(%rbp), %rax
	movq	-40(%rbp), %rcx
	cmpq	%rcx, %rax
	je	.LBB9_7
# %bb.2:                                # %for.body
                                        #   in Loop: Header=BB9_1 Depth=1
	movq	-8(%rbp), %rax
	cmpl	$2, 24(%rax)
	jne	.LBB9_4
# %bb.3:                                # %if.then
                                        #   in Loop: Header=BB9_1 Depth=1
	movq	-8(%rbp), %rax
	movq	$1, 48(%rax)
	jmp	.LBB9_5
.LBB9_4:                                # %if.else
                                        #   in Loop: Header=BB9_1 Depth=1
	movq	-8(%rbp), %rax
	movq	$0, 48(%rax)
.LBB9_5:                                # %if.end
                                        #   in Loop: Header=BB9_1 Depth=1
	jmp	.LBB9_6
.LBB9_6:                                # %for.inc
                                        #   in Loop: Header=BB9_1 Depth=1
	movq	-8(%rbp), %rax
	addq	$64, %rax
	movq	%rax, -8(%rbp)
	jmp	.LBB9_1
.LBB9_7:                                # %for.end
	movq	-16(%rbp), %rax
	movq	560(%rax), %rax
	movq	%rax, -40(%rbp)
	movq	-16(%rbp), %rax
	movq	552(%rax), %rax
	movq	%rax, -24(%rbp)
	movq	-24(%rbp), %rax
	addq	$104, %rax
	movq	%rax, -24(%rbp)
.LBB9_8:                                # %for.cond4
                                        # =>This Inner Loop Header: Depth=1
	movq	-24(%rbp), %rax
	movq	-40(%rbp), %rcx
	cmpq	%rcx, %rax
	je	.LBB9_11
# %bb.9:                                # %for.body6
                                        #   in Loop: Header=BB9_8 Depth=1
	movq	-24(%rbp), %rax
	movq	80(%rax), %rax
	movq	-24(%rbp), %rcx
	movq	48(%rcx), %rcx
	movq	%rax, 48(%rcx)
# %bb.10:                               # %for.inc9
                                        #   in Loop: Header=BB9_8 Depth=1
	movq	-24(%rbp), %rax
	addq	$104, %rax
	movq	%rax, -24(%rbp)
	jmp	.LBB9_8
.LBB9_11:                               # %for.end11
	movq	-16(%rbp), %rax
	movq	576(%rax), %rax
	movq	%rax, -40(%rbp)
	movq	-16(%rbp), %rax
	movq	568(%rax), %rax
	movq	%rax, -8(%rbp)
.LBB9_12:                               # %for.cond14
                                        # =>This Inner Loop Header: Depth=1
	movq	-8(%rbp), %rax
	movq	-40(%rbp), %rcx
	cmpq	%rcx, %rax
	je	.LBB9_23
# %bb.13:                               # %for.body16
                                        #   in Loop: Header=BB9_12 Depth=1
	movq	-8(%rbp), %rax
	cmpq	$0, 48(%rax)
	je	.LBB9_21
# %bb.14:                               # %if.then18
                                        #   in Loop: Header=BB9_12 Depth=1
	movq	-8(%rbp), %rax
	movq	8(%rax), %rax
	cmpl	$0, 96(%rax)
	jge	.LBB9_16
# %bb.15:                               # %land.lhs.true
                                        #   in Loop: Header=BB9_12 Depth=1
	movq	-8(%rbp), %rax
	movq	16(%rax), %rax
	cmpl	$0, 96(%rax)
	jg	.LBB9_20
.LBB9_16:                               # %if.then22
                                        #   in Loop: Header=BB9_12 Depth=1
	movq	-8(%rbp), %rax
	movq	8(%rax), %rax
	cmpl	$0, 96(%rax)
	jne	.LBB9_18
# %bb.17:                               # %if.then26
                                        #   in Loop: Header=BB9_12 Depth=1
	movq	-8(%rbp), %rax
	movq	(%rax), %rax
	movq	-16(%rbp), %rcx
	subq	528(%rcx), %rax
	addq	-32(%rbp), %rax
	movq	%rax, -32(%rbp)
	movq	-48(%rbp), %rax
	addq	$1, %rax
	movq	%rax, -48(%rbp)
	jmp	.LBB9_19
.LBB9_18:                               # %if.else27
                                        #   in Loop: Header=BB9_12 Depth=1
	movq	-8(%rbp), %rax
	movq	(%rax), %rax
	addq	-32(%rbp), %rax
	movq	%rax, -32(%rbp)
.LBB9_19:                               # %if.end30
                                        #   in Loop: Header=BB9_12 Depth=1
	jmp	.LBB9_20
.LBB9_20:                               # %if.end31
                                        #   in Loop: Header=BB9_12 Depth=1
	jmp	.LBB9_21
.LBB9_21:                               # %if.end32
                                        #   in Loop: Header=BB9_12 Depth=1
	jmp	.LBB9_22
.LBB9_22:                               # %for.inc33
                                        #   in Loop: Header=BB9_12 Depth=1
	movq	-8(%rbp), %rax
	addq	$64, %rax
	movq	%rax, -8(%rbp)
	jmp	.LBB9_12
.LBB9_23:                               # %for.end35
	vcvtsi2sdq	-48(%rbp), %xmm0, %xmm0
	movq	-16(%rbp), %rax
	vcvtsi2sdq	528(%rax), %xmm0, %xmm1
	vmulsd	%xmm1, %xmm0, %xmm0
	vcvtsi2sdq	-32(%rbp), %xmm0, %xmm1
	vaddsd	%xmm1, %xmm0, %xmm0
	cmpl	$1428654362, -52(%rbp)  # imm = 0x5527891A
	jne	.LBB9_25
.LBB9_24:
	addq	$64, %rsp
	popq	%rbp
	.cfi_def_cfa %rsp, 8
	retq
.LBB9_25:                               # %func_exit
	.cfi_def_cfa %rbp, 16
	vmovsd	%xmm0, -64(%rbp)        # 8-byte Spill
	callq	detect_breach
	vmovsd	-64(%rbp), %xmm0        # 8-byte Reload
                                        # xmm0 = mem[0],zero
	jmp	.LBB9_24
.Lfunc_end9:
	.size	flow_cost.3, .Lfunc_end9-flow_cost.3
	.cfi_endproc
                                        # -- End function
	.globl	refresh_potential.4     # -- Begin function refresh_potential.4
	.p2align	4, 0x90
	.type	refresh_potential.4,@function
refresh_potential.4:                    # @refresh_potential.4
	.cfi_startproc
# %bb.0:                                # %entry
	pushq	%rbp
	.cfi_def_cfa_offset 16
	.cfi_offset %rbp, -16
	movq	%rsp, %rbp
	.cfi_def_cfa_register %rbp
	pushq	%rbx
	subq	$56, %rsp
	.cfi_offset %rbx, -24
	movl	$130665951, -44(%rbp)   # imm = 0x7C9CDDF
	movq	%rdi, -56(%rbp)
	movq	-56(%rbp), %rax
	movq	552(%rax), %rax
	movq	%rax, -32(%rbp)
	movq	$0, -40(%rbp)
	movq	-32(%rbp), %rax
	movq	$-100000000, (%rax)     # imm = 0xFA0A1F00
	movq	-32(%rbp), %rax
	movq	16(%rax), %rax
	movq	%rax, -16(%rbp)
	movq	%rax, -24(%rbp)
.LBB10_1:                               # %while.cond
                                        # =>This Loop Header: Depth=1
                                        #     Child Loop BB10_3 Depth 2
                                        #     Child Loop BB10_9 Depth 2
	movq	-16(%rbp), %rax
	cmpq	-32(%rbp), %rax
	je	.LBB10_16
# %bb.2:                                # %while.body
                                        #   in Loop: Header=BB10_1 Depth=1
	jmp	.LBB10_3
.LBB10_3:                               # %while.cond1
                                        #   Parent Loop BB10_1 Depth=1
                                        # =>  This Inner Loop Header: Depth=2
	cmpq	$0, -16(%rbp)
	je	.LBB10_8
# %bb.4:                                # %while.body2
                                        #   in Loop: Header=BB10_3 Depth=2
	movq	-16(%rbp), %rax
	cmpl	$1, 8(%rax)
	jne	.LBB10_6
# %bb.5:                                # %if.then
                                        #   in Loop: Header=BB10_3 Depth=2
	movq	-16(%rbp), %rax
	movq	48(%rax), %rax
	movq	(%rax), %rax
	movq	-16(%rbp), %rcx
	movq	24(%rcx), %rcx
	addq	(%rcx), %rax
	movq	-16(%rbp), %rcx
	movq	%rax, (%rcx)
	jmp	.LBB10_7
.LBB10_6:                               # %if.else
                                        #   in Loop: Header=BB10_3 Depth=2
	movq	-16(%rbp), %rax
	movq	24(%rax), %rax
	movq	(%rax), %rax
	movq	-16(%rbp), %rcx
	movq	48(%rcx), %rcx
	subq	(%rcx), %rax
	movq	-16(%rbp), %rcx
	movq	%rax, (%rcx)
	movq	-40(%rbp), %rax
	addq	$1, %rax
	movq	%rax, -40(%rbp)
.LBB10_7:                               # %if.end
                                        #   in Loop: Header=BB10_3 Depth=2
	movq	-16(%rbp), %rax
	movq	%rax, -24(%rbp)
	movq	-16(%rbp), %rax
	movq	16(%rax), %rax
	movq	%rax, -16(%rbp)
	jmp	.LBB10_3
.LBB10_8:                               # %while.end
                                        #   in Loop: Header=BB10_1 Depth=1
	movq	-24(%rbp), %rax
	movq	%rax, -16(%rbp)
.LBB10_9:                               # %while.cond12
                                        #   Parent Loop BB10_1 Depth=1
                                        # =>  This Inner Loop Header: Depth=2
	movq	-16(%rbp), %rax
	cmpq	$0, 24(%rax)
	je	.LBB10_14
# %bb.10:                               # %while.body15
                                        #   in Loop: Header=BB10_9 Depth=2
	movq	-16(%rbp), %rax
	movq	32(%rax), %rax
	movq	%rax, -24(%rbp)
	cmpq	$0, -24(%rbp)
	je	.LBB10_12
# %bb.11:                               # %if.then17
                                        #   in Loop: Header=BB10_1 Depth=1
	movq	-24(%rbp), %rax
	movq	%rax, -16(%rbp)
	jmp	.LBB10_15
.LBB10_12:                              # %if.else18
                                        #   in Loop: Header=BB10_9 Depth=2
	movq	-16(%rbp), %rax
	movq	24(%rax), %rax
	movq	%rax, -16(%rbp)
# %bb.13:                               # %if.end20
                                        #   in Loop: Header=BB10_9 Depth=2
	jmp	.LBB10_9
.LBB10_14:                              # %while.end21.loopexit
                                        #   in Loop: Header=BB10_1 Depth=1
	jmp	.LBB10_15
.LBB10_15:                              # %while.end21
                                        #   in Loop: Header=BB10_1 Depth=1
	jmp	.LBB10_1
.LBB10_16:                              # %while.end22
	movq	-40(%rbp), %rbx
	cmpl	$130665951, -44(%rbp)   # imm = 0x7C9CDDF
	jne	.LBB10_18
.LBB10_17:
	movq	%rbx, %rax
	addq	$56, %rsp
	popq	%rbx
	popq	%rbp
	.cfi_def_cfa %rsp, 8
	retq
.LBB10_18:                              # %func_exit
	.cfi_def_cfa %rbp, 16
	callq	detect_breach
	jmp	.LBB10_17
.Lfunc_end10:
	.size	refresh_potential.4, .Lfunc_end10-refresh_potential.4
	.cfi_endproc
                                        # -- End function
	.globl	flow_cost.5             # -- Begin function flow_cost.5
	.p2align	4, 0x90
	.type	flow_cost.5,@function
flow_cost.5:                            # @flow_cost.5
	.cfi_startproc
# %bb.0:                                # %entry
	pushq	%rbp
	.cfi_def_cfa_offset 16
	.cfi_offset %rbp, -16
	movq	%rsp, %rbp
	.cfi_def_cfa_register %rbp
	subq	$64, %rsp
	movl	$887258426, -52(%rbp)   # imm = 0x34E27D3A
	movq	%rdi, -16(%rbp)
	movq	$0, -48(%rbp)
	movq	$0, -32(%rbp)
	movq	-16(%rbp), %rax
	movq	576(%rax), %rax
	movq	%rax, -40(%rbp)
	movq	-16(%rbp), %rax
	movq	568(%rax), %rax
	movq	%rax, -8(%rbp)
.LBB11_1:                               # %for.cond
                                        # =>This Inner Loop Header: Depth=1
	movq	-8(%rbp), %rax
	movq	-40(%rbp), %rcx
	cmpq	%rcx, %rax
	je	.LBB11_7
# %bb.2:                                # %for.body
                                        #   in Loop: Header=BB11_1 Depth=1
	movq	-8(%rbp), %rax
	cmpl	$2, 24(%rax)
	jne	.LBB11_4
# %bb.3:                                # %if.then
                                        #   in Loop: Header=BB11_1 Depth=1
	movq	-8(%rbp), %rax
	movq	$1, 48(%rax)
	jmp	.LBB11_5
.LBB11_4:                               # %if.else
                                        #   in Loop: Header=BB11_1 Depth=1
	movq	-8(%rbp), %rax
	movq	$0, 48(%rax)
.LBB11_5:                               # %if.end
                                        #   in Loop: Header=BB11_1 Depth=1
	jmp	.LBB11_6
.LBB11_6:                               # %for.inc
                                        #   in Loop: Header=BB11_1 Depth=1
	movq	-8(%rbp), %rax
	addq	$64, %rax
	movq	%rax, -8(%rbp)
	jmp	.LBB11_1
.LBB11_7:                               # %for.end
	movq	-16(%rbp), %rax
	movq	560(%rax), %rax
	movq	%rax, -40(%rbp)
	movq	-16(%rbp), %rax
	movq	552(%rax), %rax
	movq	%rax, -24(%rbp)
	movq	-24(%rbp), %rax
	addq	$104, %rax
	movq	%rax, -24(%rbp)
.LBB11_8:                               # %for.cond4
                                        # =>This Inner Loop Header: Depth=1
	movq	-24(%rbp), %rax
	movq	-40(%rbp), %rcx
	cmpq	%rcx, %rax
	je	.LBB11_11
# %bb.9:                                # %for.body6
                                        #   in Loop: Header=BB11_8 Depth=1
	movq	-24(%rbp), %rax
	movq	80(%rax), %rax
	movq	-24(%rbp), %rcx
	movq	48(%rcx), %rcx
	movq	%rax, 48(%rcx)
# %bb.10:                               # %for.inc9
                                        #   in Loop: Header=BB11_8 Depth=1
	movq	-24(%rbp), %rax
	addq	$104, %rax
	movq	%rax, -24(%rbp)
	jmp	.LBB11_8
.LBB11_11:                              # %for.end11
	movq	-16(%rbp), %rax
	movq	576(%rax), %rax
	movq	%rax, -40(%rbp)
	movq	-16(%rbp), %rax
	movq	568(%rax), %rax
	movq	%rax, -8(%rbp)
.LBB11_12:                              # %for.cond14
                                        # =>This Inner Loop Header: Depth=1
	movq	-8(%rbp), %rax
	movq	-40(%rbp), %rcx
	cmpq	%rcx, %rax
	je	.LBB11_23
# %bb.13:                               # %for.body16
                                        #   in Loop: Header=BB11_12 Depth=1
	movq	-8(%rbp), %rax
	cmpq	$0, 48(%rax)
	je	.LBB11_21
# %bb.14:                               # %if.then18
                                        #   in Loop: Header=BB11_12 Depth=1
	movq	-8(%rbp), %rax
	movq	8(%rax), %rax
	cmpl	$0, 96(%rax)
	jge	.LBB11_16
# %bb.15:                               # %land.lhs.true
                                        #   in Loop: Header=BB11_12 Depth=1
	movq	-8(%rbp), %rax
	movq	16(%rax), %rax
	cmpl	$0, 96(%rax)
	jg	.LBB11_20
.LBB11_16:                              # %if.then22
                                        #   in Loop: Header=BB11_12 Depth=1
	movq	-8(%rbp), %rax
	movq	8(%rax), %rax
	cmpl	$0, 96(%rax)
	jne	.LBB11_18
# %bb.17:                               # %if.then26
                                        #   in Loop: Header=BB11_12 Depth=1
	movq	-8(%rbp), %rax
	movq	(%rax), %rax
	movq	-16(%rbp), %rcx
	subq	528(%rcx), %rax
	addq	-32(%rbp), %rax
	movq	%rax, -32(%rbp)
	movq	-48(%rbp), %rax
	addq	$1, %rax
	movq	%rax, -48(%rbp)
	jmp	.LBB11_19
.LBB11_18:                              # %if.else27
                                        #   in Loop: Header=BB11_12 Depth=1
	movq	-8(%rbp), %rax
	movq	(%rax), %rax
	addq	-32(%rbp), %rax
	movq	%rax, -32(%rbp)
.LBB11_19:                              # %if.end30
                                        #   in Loop: Header=BB11_12 Depth=1
	jmp	.LBB11_20
.LBB11_20:                              # %if.end31
                                        #   in Loop: Header=BB11_12 Depth=1
	jmp	.LBB11_21
.LBB11_21:                              # %if.end32
                                        #   in Loop: Header=BB11_12 Depth=1
	jmp	.LBB11_22
.LBB11_22:                              # %for.inc33
                                        #   in Loop: Header=BB11_12 Depth=1
	movq	-8(%rbp), %rax
	addq	$64, %rax
	movq	%rax, -8(%rbp)
	jmp	.LBB11_12
.LBB11_23:                              # %for.end35
	vcvtsi2sdq	-48(%rbp), %xmm0, %xmm0
	movq	-16(%rbp), %rax
	vcvtsi2sdq	528(%rax), %xmm0, %xmm1
	vmulsd	%xmm1, %xmm0, %xmm0
	vcvtsi2sdq	-32(%rbp), %xmm0, %xmm1
	vaddsd	%xmm1, %xmm0, %xmm0
	cmpl	$887258426, -52(%rbp)   # imm = 0x34E27D3A
	jne	.LBB11_25
.LBB11_24:
	addq	$64, %rsp
	popq	%rbp
	.cfi_def_cfa %rsp, 8
	retq
.LBB11_25:                              # %func_exit
	.cfi_def_cfa %rbp, 16
	vmovsd	%xmm0, -64(%rbp)        # 8-byte Spill
	callq	detect_breach
	vmovsd	-64(%rbp), %xmm0        # 8-byte Reload
                                        # xmm0 = mem[0],zero
	jmp	.LBB11_24
.Lfunc_end11:
	.size	flow_cost.5, .Lfunc_end11-flow_cost.5
	.cfi_endproc
                                        # -- End function
	.globl	dual_feasible.6         # -- Begin function dual_feasible.6
	.p2align	4, 0x90
	.type	dual_feasible.6,@function
dual_feasible.6:                        # @dual_feasible.6
	.cfi_startproc
# %bb.0:                                # %entry
	pushq	%rbp
	.cfi_def_cfa_offset 16
	.cfi_offset %rbp, -16
	movq	%rsp, %rbp
	.cfi_def_cfa_register %rbp
	pushq	%rbx
	subq	$56, %rsp
	.cfi_offset %rbx, -24
	movl	$1626008321, -28(%rbp)  # imm = 0x60EAEB01
	movq	%rdi, -24(%rbp)
	movq	-24(%rbp), %rax
	movq	576(%rax), %rax
	movq	%rax, -56(%rbp)
	movq	-24(%rbp), %rax
	movq	568(%rax), %rax
	movq	%rax, -16(%rbp)
.LBB12_1:                               # %for.cond
                                        # =>This Inner Loop Header: Depth=1
	movq	-16(%rbp), %rax
	cmpq	-56(%rbp), %rax
	jae	.LBB12_15
# %bb.2:                                # %for.body
                                        #   in Loop: Header=BB12_1 Depth=1
	movq	-16(%rbp), %rax
	movq	(%rax), %rcx
	movq	8(%rax), %rdx
	movq	(%rdx), %rdx
	subq	%rdx, %rcx
	movq	16(%rax), %rax
	movq	(%rax), %rax
	addq	%rax, %rcx
	movq	%rcx, -40(%rbp)
	movq	-16(%rbp), %rax
	movl	24(%rax), %eax
	movl	%eax, %ecx
	subl	$-1, %ecx
	je	.LBB12_11
	jmp	.LBB12_3
.LBB12_3:                               # %for.body
                                        #   in Loop: Header=BB12_1 Depth=1
	movl	%eax, %ecx
	subl	$2, %ecx
	jb	.LBB12_5
	jmp	.LBB12_4
.LBB12_4:                               # %for.body
                                        #   in Loop: Header=BB12_1 Depth=1
	subl	$2, %eax
	je	.LBB12_8
	jmp	.LBB12_12
.LBB12_5:                               # %sw.bb
                                        #   in Loop: Header=BB12_1 Depth=1
	xorl	%eax, %eax
	movq	-40(%rbp), %rcx
	movq	-24(%rbp), %rdx
	subq	512(%rdx), %rax
	cmpq	%rax, %rcx
	jge	.LBB12_7
# %bb.6:                                # %if.then
	jmp	.LBB12_16
.LBB12_7:                               # %if.end
                                        #   in Loop: Header=BB12_1 Depth=1
	jmp	.LBB12_13
.LBB12_8:                               # %sw.bb4
                                        #   in Loop: Header=BB12_1 Depth=1
	movq	-40(%rbp), %rax
	movq	-24(%rbp), %rcx
	cmpq	512(%rcx), %rax
	jle	.LBB12_10
# %bb.9:                                # %if.then7
	jmp	.LBB12_16
.LBB12_10:                              # %if.end8
                                        #   in Loop: Header=BB12_1 Depth=1
	jmp	.LBB12_13
.LBB12_11:                              # %sw.bb9
                                        #   in Loop: Header=BB12_1 Depth=1
	jmp	.LBB12_12
.LBB12_12:                              # %sw.default
                                        #   in Loop: Header=BB12_1 Depth=1
	jmp	.LBB12_13
.LBB12_13:                              # %sw.epilog
                                        #   in Loop: Header=BB12_1 Depth=1
	jmp	.LBB12_14
.LBB12_14:                              # %for.inc
                                        #   in Loop: Header=BB12_1 Depth=1
	movq	-16(%rbp), %rax
	addq	$64, %rax
	movq	%rax, -16(%rbp)
	jmp	.LBB12_1
.LBB12_15:                              # %for.end
	movq	$0, -48(%rbp)
	jmp	.LBB12_17
.LBB12_16:                              # %DUAL_INFEAS
	movq	stderr, %rdi
	movabsq	$.L.str.3, %rsi
	movb	$0, %al
	callq	fprintf
	movq	stderr, %rdi
	movabsq	$.L.str.4, %rsi
	movb	$0, %al
	callq	fprintf
	movq	$1, -48(%rbp)
.LBB12_17:                              # %return
	movq	-48(%rbp), %rbx
	cmpl	$1626008321, -28(%rbp)  # imm = 0x60EAEB01
	jne	.LBB12_19
.LBB12_18:
	movq	%rbx, %rax
	addq	$56, %rsp
	popq	%rbx
	popq	%rbp
	.cfi_def_cfa %rsp, 8
	retq
.LBB12_19:                              # %func_exit
	.cfi_def_cfa %rbp, 16
	callq	detect_breach
	jmp	.LBB12_18
.Lfunc_end12:
	.size	dual_feasible.6, .Lfunc_end12-dual_feasible.6
	.cfi_endproc
                                        # -- End function
	.globl	dual_feasible.7         # -- Begin function dual_feasible.7
	.p2align	4, 0x90
	.type	dual_feasible.7,@function
dual_feasible.7:                        # @dual_feasible.7
	.cfi_startproc
# %bb.0:                                # %entry
	pushq	%rbp
	.cfi_def_cfa_offset 16
	.cfi_offset %rbp, -16
	movq	%rsp, %rbp
	.cfi_def_cfa_register %rbp
	pushq	%rbx
	subq	$56, %rsp
	.cfi_offset %rbx, -24
	movl	$939469676, -28(%rbp)   # imm = 0x37FF2B6C
	movq	%rdi, -24(%rbp)
	movq	-24(%rbp), %rax
	movq	576(%rax), %rax
	movq	%rax, -56(%rbp)
	movq	-24(%rbp), %rax
	movq	568(%rax), %rax
	movq	%rax, -16(%rbp)
.LBB13_1:                               # %for.cond
                                        # =>This Inner Loop Header: Depth=1
	movq	-16(%rbp), %rax
	cmpq	-56(%rbp), %rax
	jae	.LBB13_15
# %bb.2:                                # %for.body
                                        #   in Loop: Header=BB13_1 Depth=1
	movq	-16(%rbp), %rax
	movq	(%rax), %rcx
	movq	8(%rax), %rdx
	movq	(%rdx), %rdx
	subq	%rdx, %rcx
	movq	16(%rax), %rax
	movq	(%rax), %rax
	addq	%rax, %rcx
	movq	%rcx, -48(%rbp)
	movq	-16(%rbp), %rax
	movl	24(%rax), %eax
	movl	%eax, %ecx
	subl	$-1, %ecx
	je	.LBB13_11
	jmp	.LBB13_3
.LBB13_3:                               # %for.body
                                        #   in Loop: Header=BB13_1 Depth=1
	movl	%eax, %ecx
	subl	$2, %ecx
	jb	.LBB13_5
	jmp	.LBB13_4
.LBB13_4:                               # %for.body
                                        #   in Loop: Header=BB13_1 Depth=1
	subl	$2, %eax
	je	.LBB13_8
	jmp	.LBB13_12
.LBB13_5:                               # %sw.bb
                                        #   in Loop: Header=BB13_1 Depth=1
	xorl	%eax, %eax
	movq	-48(%rbp), %rcx
	movq	-24(%rbp), %rdx
	subq	512(%rdx), %rax
	cmpq	%rax, %rcx
	jge	.LBB13_7
# %bb.6:                                # %if.then
	jmp	.LBB13_16
.LBB13_7:                               # %if.end
                                        #   in Loop: Header=BB13_1 Depth=1
	jmp	.LBB13_13
.LBB13_8:                               # %sw.bb4
                                        #   in Loop: Header=BB13_1 Depth=1
	movq	-48(%rbp), %rax
	movq	-24(%rbp), %rcx
	cmpq	512(%rcx), %rax
	jle	.LBB13_10
# %bb.9:                                # %if.then7
	jmp	.LBB13_16
.LBB13_10:                              # %if.end8
                                        #   in Loop: Header=BB13_1 Depth=1
	jmp	.LBB13_13
.LBB13_11:                              # %sw.bb9
                                        #   in Loop: Header=BB13_1 Depth=1
	jmp	.LBB13_12
.LBB13_12:                              # %sw.default
                                        #   in Loop: Header=BB13_1 Depth=1
	jmp	.LBB13_13
.LBB13_13:                              # %sw.epilog
                                        #   in Loop: Header=BB13_1 Depth=1
	jmp	.LBB13_14
.LBB13_14:                              # %for.inc
                                        #   in Loop: Header=BB13_1 Depth=1
	movq	-16(%rbp), %rax
	addq	$64, %rax
	movq	%rax, -16(%rbp)
	jmp	.LBB13_1
.LBB13_15:                              # %for.end
	movq	$0, -40(%rbp)
	jmp	.LBB13_17
.LBB13_16:                              # %DUAL_INFEAS
	movq	stderr, %rdi
	movabsq	$.L.str.3, %rsi
	movb	$0, %al
	callq	fprintf
	movq	stderr, %rdi
	movabsq	$.L.str.4, %rsi
	movb	$0, %al
	callq	fprintf
	movq	$1, -40(%rbp)
.LBB13_17:                              # %return
	movq	-40(%rbp), %rbx
	cmpl	$939469676, -28(%rbp)   # imm = 0x37FF2B6C
	jne	.LBB13_19
.LBB13_18:
	movq	%rbx, %rax
	addq	$56, %rsp
	popq	%rbx
	popq	%rbp
	.cfi_def_cfa %rsp, 8
	retq
.LBB13_19:                              # %func_exit
	.cfi_def_cfa %rbp, 16
	callq	detect_breach
	jmp	.LBB13_18
.Lfunc_end13:
	.size	dual_feasible.7, .Lfunc_end13-dual_feasible.7
	.cfi_endproc
                                        # -- End function
	.globl	dual_feasible.8         # -- Begin function dual_feasible.8
	.p2align	4, 0x90
	.type	dual_feasible.8,@function
dual_feasible.8:                        # @dual_feasible.8
	.cfi_startproc
# %bb.0:                                # %entry
	pushq	%rbp
	.cfi_def_cfa_offset 16
	.cfi_offset %rbp, -16
	movq	%rsp, %rbp
	.cfi_def_cfa_register %rbp
	pushq	%rbx
	subq	$56, %rsp
	.cfi_offset %rbx, -24
	movl	$1018288027, -28(%rbp)  # imm = 0x3CB1D79B
	movq	%rdi, -24(%rbp)
	movq	-24(%rbp), %rax
	movq	576(%rax), %rax
	movq	%rax, -56(%rbp)
	movq	-24(%rbp), %rax
	movq	568(%rax), %rax
	movq	%rax, -16(%rbp)
.LBB14_1:                               # %for.cond
                                        # =>This Inner Loop Header: Depth=1
	movq	-16(%rbp), %rax
	cmpq	-56(%rbp), %rax
	jae	.LBB14_15
# %bb.2:                                # %for.body
                                        #   in Loop: Header=BB14_1 Depth=1
	movq	-16(%rbp), %rax
	movq	(%rax), %rcx
	movq	8(%rax), %rdx
	movq	(%rdx), %rdx
	subq	%rdx, %rcx
	movq	16(%rax), %rax
	movq	(%rax), %rax
	addq	%rax, %rcx
	movq	%rcx, -40(%rbp)
	movq	-16(%rbp), %rax
	movl	24(%rax), %eax
	movl	%eax, %ecx
	subl	$-1, %ecx
	je	.LBB14_11
	jmp	.LBB14_3
.LBB14_3:                               # %for.body
                                        #   in Loop: Header=BB14_1 Depth=1
	movl	%eax, %ecx
	subl	$2, %ecx
	jb	.LBB14_5
	jmp	.LBB14_4
.LBB14_4:                               # %for.body
                                        #   in Loop: Header=BB14_1 Depth=1
	subl	$2, %eax
	je	.LBB14_8
	jmp	.LBB14_12
.LBB14_5:                               # %sw.bb
                                        #   in Loop: Header=BB14_1 Depth=1
	xorl	%eax, %eax
	movq	-40(%rbp), %rcx
	movq	-24(%rbp), %rdx
	subq	512(%rdx), %rax
	cmpq	%rax, %rcx
	jge	.LBB14_7
# %bb.6:                                # %if.then
	jmp	.LBB14_16
.LBB14_7:                               # %if.end
                                        #   in Loop: Header=BB14_1 Depth=1
	jmp	.LBB14_13
.LBB14_8:                               # %sw.bb4
                                        #   in Loop: Header=BB14_1 Depth=1
	movq	-40(%rbp), %rax
	movq	-24(%rbp), %rcx
	cmpq	512(%rcx), %rax
	jle	.LBB14_10
# %bb.9:                                # %if.then7
	jmp	.LBB14_16
.LBB14_10:                              # %if.end8
                                        #   in Loop: Header=BB14_1 Depth=1
	jmp	.LBB14_13
.LBB14_11:                              # %sw.bb9
                                        #   in Loop: Header=BB14_1 Depth=1
	jmp	.LBB14_12
.LBB14_12:                              # %sw.default
                                        #   in Loop: Header=BB14_1 Depth=1
	jmp	.LBB14_13
.LBB14_13:                              # %sw.epilog
                                        #   in Loop: Header=BB14_1 Depth=1
	jmp	.LBB14_14
.LBB14_14:                              # %for.inc
                                        #   in Loop: Header=BB14_1 Depth=1
	movq	-16(%rbp), %rax
	addq	$64, %rax
	movq	%rax, -16(%rbp)
	jmp	.LBB14_1
.LBB14_15:                              # %for.end
	movq	$0, -48(%rbp)
	jmp	.LBB14_17
.LBB14_16:                              # %DUAL_INFEAS
	movq	stderr, %rdi
	movabsq	$.L.str.3, %rsi
	movb	$0, %al
	callq	fprintf
	movq	stderr, %rdi
	movabsq	$.L.str.4, %rsi
	movb	$0, %al
	callq	fprintf
	movq	$1, -48(%rbp)
.LBB14_17:                              # %return
	movq	-48(%rbp), %rbx
	cmpl	$1018288027, -28(%rbp)  # imm = 0x3CB1D79B
	jne	.LBB14_19
.LBB14_18:
	movq	%rbx, %rax
	addq	$56, %rsp
	popq	%rbx
	popq	%rbp
	.cfi_def_cfa %rsp, 8
	retq
.LBB14_19:                              # %func_exit
	.cfi_def_cfa %rbp, 16
	callq	detect_breach
	jmp	.LBB14_18
.Lfunc_end14:
	.size	dual_feasible.8, .Lfunc_end14-dual_feasible.8
	.cfi_endproc
                                        # -- End function
	.globl	dual_feasible.9         # -- Begin function dual_feasible.9
	.p2align	4, 0x90
	.type	dual_feasible.9,@function
dual_feasible.9:                        # @dual_feasible.9
	.cfi_startproc
# %bb.0:                                # %entry
	pushq	%rbp
	.cfi_def_cfa_offset 16
	.cfi_offset %rbp, -16
	movq	%rsp, %rbp
	.cfi_def_cfa_register %rbp
	pushq	%rbx
	subq	$56, %rsp
	.cfi_offset %rbx, -24
	movl	$826565138, -28(%rbp)   # imm = 0x31446212
	movq	%rdi, -24(%rbp)
	movq	-24(%rbp), %rax
	movq	576(%rax), %rax
	movq	%rax, -56(%rbp)
	movq	-24(%rbp), %rax
	movq	568(%rax), %rax
	movq	%rax, -16(%rbp)
.LBB15_1:                               # %for.cond
                                        # =>This Inner Loop Header: Depth=1
	movq	-16(%rbp), %rax
	cmpq	-56(%rbp), %rax
	jae	.LBB15_15
# %bb.2:                                # %for.body
                                        #   in Loop: Header=BB15_1 Depth=1
	movq	-16(%rbp), %rax
	movq	(%rax), %rcx
	movq	8(%rax), %rdx
	movq	(%rdx), %rdx
	subq	%rdx, %rcx
	movq	16(%rax), %rax
	movq	(%rax), %rax
	addq	%rax, %rcx
	movq	%rcx, -40(%rbp)
	movq	-16(%rbp), %rax
	movl	24(%rax), %eax
	movl	%eax, %ecx
	subl	$-1, %ecx
	je	.LBB15_11
	jmp	.LBB15_3
.LBB15_3:                               # %for.body
                                        #   in Loop: Header=BB15_1 Depth=1
	movl	%eax, %ecx
	subl	$2, %ecx
	jb	.LBB15_5
	jmp	.LBB15_4
.LBB15_4:                               # %for.body
                                        #   in Loop: Header=BB15_1 Depth=1
	subl	$2, %eax
	je	.LBB15_8
	jmp	.LBB15_12
.LBB15_5:                               # %sw.bb
                                        #   in Loop: Header=BB15_1 Depth=1
	xorl	%eax, %eax
	movq	-40(%rbp), %rcx
	movq	-24(%rbp), %rdx
	subq	512(%rdx), %rax
	cmpq	%rax, %rcx
	jge	.LBB15_7
# %bb.6:                                # %if.then
	jmp	.LBB15_16
.LBB15_7:                               # %if.end
                                        #   in Loop: Header=BB15_1 Depth=1
	jmp	.LBB15_13
.LBB15_8:                               # %sw.bb4
                                        #   in Loop: Header=BB15_1 Depth=1
	movq	-40(%rbp), %rax
	movq	-24(%rbp), %rcx
	cmpq	512(%rcx), %rax
	jle	.LBB15_10
# %bb.9:                                # %if.then7
	jmp	.LBB15_16
.LBB15_10:                              # %if.end8
                                        #   in Loop: Header=BB15_1 Depth=1
	jmp	.LBB15_13
.LBB15_11:                              # %sw.bb9
                                        #   in Loop: Header=BB15_1 Depth=1
	jmp	.LBB15_12
.LBB15_12:                              # %sw.default
                                        #   in Loop: Header=BB15_1 Depth=1
	jmp	.LBB15_13
.LBB15_13:                              # %sw.epilog
                                        #   in Loop: Header=BB15_1 Depth=1
	jmp	.LBB15_14
.LBB15_14:                              # %for.inc
                                        #   in Loop: Header=BB15_1 Depth=1
	movq	-16(%rbp), %rax
	addq	$64, %rax
	movq	%rax, -16(%rbp)
	jmp	.LBB15_1
.LBB15_15:                              # %for.end
	movq	$0, -48(%rbp)
	jmp	.LBB15_17
.LBB15_16:                              # %DUAL_INFEAS
	movq	stderr, %rdi
	movabsq	$.L.str.3, %rsi
	movb	$0, %al
	callq	fprintf
	movq	stderr, %rdi
	movabsq	$.L.str.4, %rsi
	movb	$0, %al
	callq	fprintf
	movq	$1, -48(%rbp)
.LBB15_17:                              # %return
	movq	-48(%rbp), %rbx
	cmpl	$826565138, -28(%rbp)   # imm = 0x31446212
	jne	.LBB15_19
.LBB15_18:
	movq	%rbx, %rax
	addq	$56, %rsp
	popq	%rbx
	popq	%rbp
	.cfi_def_cfa %rsp, 8
	retq
.LBB15_19:                              # %func_exit
	.cfi_def_cfa %rbp, 16
	callq	detect_breach
	jmp	.LBB15_18
.Lfunc_end15:
	.size	dual_feasible.9, .Lfunc_end15-dual_feasible.9
	.cfi_endproc
                                        # -- End function
	.globl	refresh_neighbour_lists.10 # -- Begin function refresh_neighbour_lists.10
	.p2align	4, 0x90
	.type	refresh_neighbour_lists.10,@function
refresh_neighbour_lists.10:             # @refresh_neighbour_lists.10
	.cfi_startproc
# %bb.0:                                # %entry
	pushq	%rbp
	.cfi_def_cfa_offset 16
	.cfi_offset %rbp, -16
	movq	%rsp, %rbp
	.cfi_def_cfa_register %rbp
	subq	$48, %rsp
	movl	$751280527, -36(%rbp)   # imm = 0x2CC7A18F
	movq	%rdi, -24(%rbp)
	movq	-24(%rbp), %rax
	movq	552(%rax), %rax
	movq	%rax, -16(%rbp)
	movq	-24(%rbp), %rax
	movq	560(%rax), %rax
	movq	%rax, -32(%rbp)
.LBB16_1:                               # %for.cond
                                        # =>This Inner Loop Header: Depth=1
	movq	-16(%rbp), %rax
	movq	-32(%rbp), %rcx
	cmpq	%rcx, %rax
	jae	.LBB16_4
# %bb.2:                                # %for.body
                                        #   in Loop: Header=BB16_1 Depth=1
	movq	-16(%rbp), %rax
	movq	$0, 64(%rax)
	movq	-16(%rbp), %rax
	movq	$0, 56(%rax)
# %bb.3:                                # %for.inc
                                        #   in Loop: Header=BB16_1 Depth=1
	movq	-16(%rbp), %rax
	addq	$104, %rax
	movq	%rax, -16(%rbp)
	jmp	.LBB16_1
.LBB16_4:                               # %for.end
	movq	-24(%rbp), %rax
	movq	568(%rax), %rax
	movq	%rax, -8(%rbp)
	movq	-24(%rbp), %rax
	movq	576(%rax), %rax
	movq	%rax, -32(%rbp)
.LBB16_5:                               # %for.cond1
                                        # =>This Inner Loop Header: Depth=1
	movq	-8(%rbp), %rax
	movq	-32(%rbp), %rcx
	cmpq	%rcx, %rax
	jae	.LBB16_8
# %bb.6:                                # %for.body3
                                        #   in Loop: Header=BB16_5 Depth=1
	movq	-8(%rbp), %rax
	movq	8(%rax), %rax
	movq	56(%rax), %rax
	movq	-8(%rbp), %rcx
	movq	%rax, 32(%rcx)
	movq	-8(%rbp), %rax
	movq	-8(%rbp), %rcx
	movq	8(%rcx), %rcx
	movq	%rax, 56(%rcx)
	movq	-8(%rbp), %rax
	movq	16(%rax), %rax
	movq	64(%rax), %rax
	movq	-8(%rbp), %rcx
	movq	%rax, 40(%rcx)
	movq	-8(%rbp), %rax
	movq	-8(%rbp), %rcx
	movq	16(%rcx), %rcx
	movq	%rax, 64(%rcx)
# %bb.7:                                # %for.inc10
                                        #   in Loop: Header=BB16_5 Depth=1
	movq	-8(%rbp), %rax
	addq	$64, %rax
	movq	%rax, -8(%rbp)
	jmp	.LBB16_5
.LBB16_8:                               # %for.end12
	cmpl	$751280527, -36(%rbp)   # imm = 0x2CC7A18F
	jne	.LBB16_10
.LBB16_9:
	addq	$48, %rsp
	popq	%rbp
	.cfi_def_cfa %rsp, 8
	retq
.LBB16_10:                              # %func_exit
	.cfi_def_cfa %rbp, 16
	callq	detect_breach
	jmp	.LBB16_9
.Lfunc_end16:
	.size	refresh_neighbour_lists.10, .Lfunc_end16-refresh_neighbour_lists.10
	.cfi_endproc
                                        # -- End function
	.globl	primal_feasible.11      # -- Begin function primal_feasible.11
	.p2align	4, 0x90
	.type	primal_feasible.11,@function
primal_feasible.11:                     # @primal_feasible.11
	.cfi_startproc
# %bb.0:                                # %entry
	pushq	%rbp
	.cfi_def_cfa_offset 16
	.cfi_offset %rbp, -16
	movq	%rsp, %rbp
	.cfi_def_cfa_register %rbp
	pushq	%rbx
	subq	$72, %rsp
	.cfi_offset %rbx, -24
	movl	$1181541139, -36(%rbp)  # imm = 0x466CE313
	movq	%rdi, -16(%rbp)
	movq	-16(%rbp), %rax
	movq	584(%rax), %rax
	movq	%rax, -72(%rbp)
	movq	-16(%rbp), %rax
	movq	592(%rax), %rax
	movq	%rax, -64(%rbp)
	movq	-16(%rbp), %rax
	movq	552(%rax), %rax
	movq	%rax, -24(%rbp)
	movq	-16(%rbp), %rax
	movq	560(%rax), %rax
	movq	%rax, -80(%rbp)
	movq	-24(%rbp), %rax
	addq	$104, %rax
	movq	%rax, -24(%rbp)
.LBB17_1:                               # %for.cond
                                        # =>This Inner Loop Header: Depth=1
	movq	-24(%rbp), %rax
	movq	-80(%rbp), %rcx
	cmpq	%rcx, %rax
	jae	.LBB17_16
# %bb.2:                                # %for.body
                                        #   in Loop: Header=BB17_1 Depth=1
	movq	-24(%rbp), %rax
	movq	48(%rax), %rax
	movq	%rax, -48(%rbp)
	movq	-24(%rbp), %rax
	movq	80(%rax), %rax
	movq	%rax, -32(%rbp)
	movq	-48(%rbp), %rax
	cmpq	-72(%rbp), %rax
	jb	.LBB17_10
# %bb.3:                                # %land.lhs.true
                                        #   in Loop: Header=BB17_1 Depth=1
	movq	-48(%rbp), %rax
	cmpq	-64(%rbp), %rax
	jae	.LBB17_10
# %bb.4:                                # %if.then
                                        #   in Loop: Header=BB17_1 Depth=1
	cmpq	$0, -32(%rbp)
	jl	.LBB17_6
# %bb.5:                                # %cond.true
                                        #   in Loop: Header=BB17_1 Depth=1
	movq	-32(%rbp), %rax
	jmp	.LBB17_7
.LBB17_6:                               # %cond.false
                                        #   in Loop: Header=BB17_1 Depth=1
	xorl	%eax, %eax
	subq	-32(%rbp), %rax
.LBB17_7:                               # %cond.end
                                        #   in Loop: Header=BB17_1 Depth=1
	movq	-16(%rbp), %rcx
	cmpq	512(%rcx), %rax
	jle	.LBB17_9
# %bb.8:                                # %if.then7
                                        #   in Loop: Header=BB17_1 Depth=1
	movabsq	$.L.str, %rdi
	movb	$0, %al
	callq	printf
	movq	-24(%rbp), %rax
	movl	96(%rax), %esi
	movq	-32(%rbp), %rdx
	movabsq	$.L.str.1, %rdi
	movb	$0, %al
	callq	printf
.LBB17_9:                               # %if.end
                                        #   in Loop: Header=BB17_1 Depth=1
	jmp	.LBB17_14
.LBB17_10:                              # %if.else
                                        #   in Loop: Header=BB17_1 Depth=1
	xorl	%eax, %eax
	movq	-32(%rbp), %rcx
	movq	-16(%rbp), %rdx
	subq	512(%rdx), %rax
	cmpq	%rax, %rcx
	jl	.LBB17_12
# %bb.11:                               # %lor.lhs.false
                                        #   in Loop: Header=BB17_1 Depth=1
	movq	-32(%rbp), %rax
	subq	$1, %rax
	movq	-16(%rbp), %rcx
	cmpq	512(%rcx), %rax
	jle	.LBB17_13
.LBB17_12:                              # %if.then15
	movabsq	$.L.str, %rdi
	movb	$0, %al
	callq	printf
	movq	-32(%rbp), %rsi
	movabsq	$.L.str.2, %rdi
	movb	$0, %al
	callq	printf
	movq	-16(%rbp), %rax
	movq	$0, 488(%rax)
	movq	$1, -56(%rbp)
	jmp	.LBB17_17
.LBB17_13:                              # %if.end18
                                        #   in Loop: Header=BB17_1 Depth=1
	jmp	.LBB17_14
.LBB17_14:                              # %if.end19
                                        #   in Loop: Header=BB17_1 Depth=1
	jmp	.LBB17_15
.LBB17_15:                              # %for.inc
                                        #   in Loop: Header=BB17_1 Depth=1
	movq	-24(%rbp), %rax
	addq	$104, %rax
	movq	%rax, -24(%rbp)
	jmp	.LBB17_1
.LBB17_16:                              # %for.end
	movq	-16(%rbp), %rax
	movq	$1, 488(%rax)
	movq	$0, -56(%rbp)
.LBB17_17:                              # %return
	movq	-56(%rbp), %rbx
	cmpl	$1181541139, -36(%rbp)  # imm = 0x466CE313
	jne	.LBB17_19
.LBB17_18:
	movq	%rbx, %rax
	addq	$72, %rsp
	popq	%rbx
	popq	%rbp
	.cfi_def_cfa %rsp, 8
	retq
.LBB17_19:                              # %func_exit
	.cfi_def_cfa %rbp, 16
	callq	detect_breach
	jmp	.LBB17_18
.Lfunc_end17:
	.size	primal_feasible.11, .Lfunc_end17-primal_feasible.11
	.cfi_endproc
                                        # -- End function
	.globl	primal_feasible.12      # -- Begin function primal_feasible.12
	.p2align	4, 0x90
	.type	primal_feasible.12,@function
primal_feasible.12:                     # @primal_feasible.12
	.cfi_startproc
# %bb.0:                                # %entry
	pushq	%rbp
	.cfi_def_cfa_offset 16
	.cfi_offset %rbp, -16
	movq	%rsp, %rbp
	.cfi_def_cfa_register %rbp
	pushq	%rbx
	subq	$72, %rsp
	.cfi_offset %rbx, -24
	movl	$711877455, -36(%rbp)   # imm = 0x2A6E634F
	movq	%rdi, -16(%rbp)
	movq	-16(%rbp), %rax
	movq	584(%rax), %rax
	movq	%rax, -80(%rbp)
	movq	-16(%rbp), %rax
	movq	592(%rax), %rax
	movq	%rax, -72(%rbp)
	movq	-16(%rbp), %rax
	movq	552(%rax), %rax
	movq	%rax, -24(%rbp)
	movq	-16(%rbp), %rax
	movq	560(%rax), %rax
	movq	%rax, -64(%rbp)
	movq	-24(%rbp), %rax
	addq	$104, %rax
	movq	%rax, -24(%rbp)
.LBB18_1:                               # %for.cond
                                        # =>This Inner Loop Header: Depth=1
	movq	-24(%rbp), %rax
	movq	-64(%rbp), %rcx
	cmpq	%rcx, %rax
	jae	.LBB18_16
# %bb.2:                                # %for.body
                                        #   in Loop: Header=BB18_1 Depth=1
	movq	-24(%rbp), %rax
	movq	48(%rax), %rax
	movq	%rax, -48(%rbp)
	movq	-24(%rbp), %rax
	movq	80(%rax), %rax
	movq	%rax, -32(%rbp)
	movq	-48(%rbp), %rax
	cmpq	-80(%rbp), %rax
	jb	.LBB18_10
# %bb.3:                                # %land.lhs.true
                                        #   in Loop: Header=BB18_1 Depth=1
	movq	-48(%rbp), %rax
	cmpq	-72(%rbp), %rax
	jae	.LBB18_10
# %bb.4:                                # %if.then
                                        #   in Loop: Header=BB18_1 Depth=1
	cmpq	$0, -32(%rbp)
	jl	.LBB18_6
# %bb.5:                                # %cond.true
                                        #   in Loop: Header=BB18_1 Depth=1
	movq	-32(%rbp), %rax
	jmp	.LBB18_7
.LBB18_6:                               # %cond.false
                                        #   in Loop: Header=BB18_1 Depth=1
	xorl	%eax, %eax
	subq	-32(%rbp), %rax
.LBB18_7:                               # %cond.end
                                        #   in Loop: Header=BB18_1 Depth=1
	movq	-16(%rbp), %rcx
	cmpq	512(%rcx), %rax
	jle	.LBB18_9
# %bb.8:                                # %if.then7
                                        #   in Loop: Header=BB18_1 Depth=1
	movabsq	$.L.str, %rdi
	movb	$0, %al
	callq	printf
	movq	-24(%rbp), %rax
	movl	96(%rax), %esi
	movq	-32(%rbp), %rdx
	movabsq	$.L.str.1, %rdi
	movb	$0, %al
	callq	printf
.LBB18_9:                               # %if.end
                                        #   in Loop: Header=BB18_1 Depth=1
	jmp	.LBB18_14
.LBB18_10:                              # %if.else
                                        #   in Loop: Header=BB18_1 Depth=1
	xorl	%eax, %eax
	movq	-32(%rbp), %rcx
	movq	-16(%rbp), %rdx
	subq	512(%rdx), %rax
	cmpq	%rax, %rcx
	jl	.LBB18_12
# %bb.11:                               # %lor.lhs.false
                                        #   in Loop: Header=BB18_1 Depth=1
	movq	-32(%rbp), %rax
	subq	$1, %rax
	movq	-16(%rbp), %rcx
	cmpq	512(%rcx), %rax
	jle	.LBB18_13
.LBB18_12:                              # %if.then15
	movabsq	$.L.str, %rdi
	movb	$0, %al
	callq	printf
	movq	-32(%rbp), %rsi
	movabsq	$.L.str.2, %rdi
	movb	$0, %al
	callq	printf
	movq	-16(%rbp), %rax
	movq	$0, 488(%rax)
	movq	$1, -56(%rbp)
	jmp	.LBB18_17
.LBB18_13:                              # %if.end18
                                        #   in Loop: Header=BB18_1 Depth=1
	jmp	.LBB18_14
.LBB18_14:                              # %if.end19
                                        #   in Loop: Header=BB18_1 Depth=1
	jmp	.LBB18_15
.LBB18_15:                              # %for.inc
                                        #   in Loop: Header=BB18_1 Depth=1
	movq	-24(%rbp), %rax
	addq	$104, %rax
	movq	%rax, -24(%rbp)
	jmp	.LBB18_1
.LBB18_16:                              # %for.end
	movq	-16(%rbp), %rax
	movq	$1, 488(%rax)
	movq	$0, -56(%rbp)
.LBB18_17:                              # %return
	movq	-56(%rbp), %rbx
	cmpl	$711877455, -36(%rbp)   # imm = 0x2A6E634F
	jne	.LBB18_19
.LBB18_18:
	movq	%rbx, %rax
	addq	$72, %rsp
	popq	%rbx
	popq	%rbp
	.cfi_def_cfa %rsp, 8
	retq
.LBB18_19:                              # %func_exit
	.cfi_def_cfa %rbp, 16
	callq	detect_breach
	jmp	.LBB18_18
.Lfunc_end18:
	.size	primal_feasible.12, .Lfunc_end18-primal_feasible.12
	.cfi_endproc
                                        # -- End function
	.globl	flow_cost.13            # -- Begin function flow_cost.13
	.p2align	4, 0x90
	.type	flow_cost.13,@function
flow_cost.13:                           # @flow_cost.13
	.cfi_startproc
# %bb.0:                                # %entry
	pushq	%rbp
	.cfi_def_cfa_offset 16
	.cfi_offset %rbp, -16
	movq	%rsp, %rbp
	.cfi_def_cfa_register %rbp
	subq	$64, %rsp
	movl	$1690745159, -52(%rbp)  # imm = 0x64C6B947
	movq	%rdi, -16(%rbp)
	movq	$0, -48(%rbp)
	movq	$0, -40(%rbp)
	movq	-16(%rbp), %rax
	movq	576(%rax), %rax
	movq	%rax, -32(%rbp)
	movq	-16(%rbp), %rax
	movq	568(%rax), %rax
	movq	%rax, -8(%rbp)
.LBB19_1:                               # %for.cond
                                        # =>This Inner Loop Header: Depth=1
	movq	-8(%rbp), %rax
	movq	-32(%rbp), %rcx
	cmpq	%rcx, %rax
	je	.LBB19_7
# %bb.2:                                # %for.body
                                        #   in Loop: Header=BB19_1 Depth=1
	movq	-8(%rbp), %rax
	cmpl	$2, 24(%rax)
	jne	.LBB19_4
# %bb.3:                                # %if.then
                                        #   in Loop: Header=BB19_1 Depth=1
	movq	-8(%rbp), %rax
	movq	$1, 48(%rax)
	jmp	.LBB19_5
.LBB19_4:                               # %if.else
                                        #   in Loop: Header=BB19_1 Depth=1
	movq	-8(%rbp), %rax
	movq	$0, 48(%rax)
.LBB19_5:                               # %if.end
                                        #   in Loop: Header=BB19_1 Depth=1
	jmp	.LBB19_6
.LBB19_6:                               # %for.inc
                                        #   in Loop: Header=BB19_1 Depth=1
	movq	-8(%rbp), %rax
	addq	$64, %rax
	movq	%rax, -8(%rbp)
	jmp	.LBB19_1
.LBB19_7:                               # %for.end
	movq	-16(%rbp), %rax
	movq	560(%rax), %rax
	movq	%rax, -32(%rbp)
	movq	-16(%rbp), %rax
	movq	552(%rax), %rax
	movq	%rax, -24(%rbp)
	movq	-24(%rbp), %rax
	addq	$104, %rax
	movq	%rax, -24(%rbp)
.LBB19_8:                               # %for.cond4
                                        # =>This Inner Loop Header: Depth=1
	movq	-24(%rbp), %rax
	movq	-32(%rbp), %rcx
	cmpq	%rcx, %rax
	je	.LBB19_11
# %bb.9:                                # %for.body6
                                        #   in Loop: Header=BB19_8 Depth=1
	movq	-24(%rbp), %rax
	movq	80(%rax), %rax
	movq	-24(%rbp), %rcx
	movq	48(%rcx), %rcx
	movq	%rax, 48(%rcx)
# %bb.10:                               # %for.inc9
                                        #   in Loop: Header=BB19_8 Depth=1
	movq	-24(%rbp), %rax
	addq	$104, %rax
	movq	%rax, -24(%rbp)
	jmp	.LBB19_8
.LBB19_11:                              # %for.end11
	movq	-16(%rbp), %rax
	movq	576(%rax), %rax
	movq	%rax, -32(%rbp)
	movq	-16(%rbp), %rax
	movq	568(%rax), %rax
	movq	%rax, -8(%rbp)
.LBB19_12:                              # %for.cond14
                                        # =>This Inner Loop Header: Depth=1
	movq	-8(%rbp), %rax
	movq	-32(%rbp), %rcx
	cmpq	%rcx, %rax
	je	.LBB19_23
# %bb.13:                               # %for.body16
                                        #   in Loop: Header=BB19_12 Depth=1
	movq	-8(%rbp), %rax
	cmpq	$0, 48(%rax)
	je	.LBB19_21
# %bb.14:                               # %if.then18
                                        #   in Loop: Header=BB19_12 Depth=1
	movq	-8(%rbp), %rax
	movq	8(%rax), %rax
	cmpl	$0, 96(%rax)
	jge	.LBB19_16
# %bb.15:                               # %land.lhs.true
                                        #   in Loop: Header=BB19_12 Depth=1
	movq	-8(%rbp), %rax
	movq	16(%rax), %rax
	cmpl	$0, 96(%rax)
	jg	.LBB19_20
.LBB19_16:                              # %if.then22
                                        #   in Loop: Header=BB19_12 Depth=1
	movq	-8(%rbp), %rax
	movq	8(%rax), %rax
	cmpl	$0, 96(%rax)
	jne	.LBB19_18
# %bb.17:                               # %if.then26
                                        #   in Loop: Header=BB19_12 Depth=1
	movq	-8(%rbp), %rax
	movq	(%rax), %rax
	movq	-16(%rbp), %rcx
	subq	528(%rcx), %rax
	addq	-40(%rbp), %rax
	movq	%rax, -40(%rbp)
	movq	-48(%rbp), %rax
	addq	$1, %rax
	movq	%rax, -48(%rbp)
	jmp	.LBB19_19
.LBB19_18:                              # %if.else27
                                        #   in Loop: Header=BB19_12 Depth=1
	movq	-8(%rbp), %rax
	movq	(%rax), %rax
	addq	-40(%rbp), %rax
	movq	%rax, -40(%rbp)
.LBB19_19:                              # %if.end30
                                        #   in Loop: Header=BB19_12 Depth=1
	jmp	.LBB19_20
.LBB19_20:                              # %if.end31
                                        #   in Loop: Header=BB19_12 Depth=1
	jmp	.LBB19_21
.LBB19_21:                              # %if.end32
                                        #   in Loop: Header=BB19_12 Depth=1
	jmp	.LBB19_22
.LBB19_22:                              # %for.inc33
                                        #   in Loop: Header=BB19_12 Depth=1
	movq	-8(%rbp), %rax
	addq	$64, %rax
	movq	%rax, -8(%rbp)
	jmp	.LBB19_12
.LBB19_23:                              # %for.end35
	vcvtsi2sdq	-48(%rbp), %xmm0, %xmm0
	movq	-16(%rbp), %rax
	vcvtsi2sdq	528(%rax), %xmm0, %xmm1
	vmulsd	%xmm1, %xmm0, %xmm0
	vcvtsi2sdq	-40(%rbp), %xmm0, %xmm1
	vaddsd	%xmm1, %xmm0, %xmm0
	cmpl	$1690745159, -52(%rbp)  # imm = 0x64C6B947
	jne	.LBB19_25
.LBB19_24:
	addq	$64, %rsp
	popq	%rbp
	.cfi_def_cfa %rsp, 8
	retq
.LBB19_25:                              # %func_exit
	.cfi_def_cfa %rbp, 16
	vmovsd	%xmm0, -64(%rbp)        # 8-byte Spill
	callq	detect_breach
	vmovsd	-64(%rbp), %xmm0        # 8-byte Reload
                                        # xmm0 = mem[0],zero
	jmp	.LBB19_24
.Lfunc_end19:
	.size	flow_cost.13, .Lfunc_end19-flow_cost.13
	.cfi_endproc
                                        # -- End function
	.globl	dual_feasible.14        # -- Begin function dual_feasible.14
	.p2align	4, 0x90
	.type	dual_feasible.14,@function
dual_feasible.14:                       # @dual_feasible.14
	.cfi_startproc
# %bb.0:                                # %entry
	pushq	%rbp
	.cfi_def_cfa_offset 16
	.cfi_offset %rbp, -16
	movq	%rsp, %rbp
	.cfi_def_cfa_register %rbp
	pushq	%rbx
	subq	$56, %rsp
	.cfi_offset %rbx, -24
	movl	$1269530904, -28(%rbp)  # imm = 0x4BAB8118
	movq	%rdi, -24(%rbp)
	movq	-24(%rbp), %rax
	movq	576(%rax), %rax
	movq	%rax, -56(%rbp)
	movq	-24(%rbp), %rax
	movq	568(%rax), %rax
	movq	%rax, -16(%rbp)
.LBB20_1:                               # %for.cond
                                        # =>This Inner Loop Header: Depth=1
	movq	-16(%rbp), %rax
	cmpq	-56(%rbp), %rax
	jae	.LBB20_15
# %bb.2:                                # %for.body
                                        #   in Loop: Header=BB20_1 Depth=1
	movq	-16(%rbp), %rax
	movq	(%rax), %rcx
	movq	8(%rax), %rdx
	movq	(%rdx), %rdx
	subq	%rdx, %rcx
	movq	16(%rax), %rax
	movq	(%rax), %rax
	addq	%rax, %rcx
	movq	%rcx, -40(%rbp)
	movq	-16(%rbp), %rax
	movl	24(%rax), %eax
	movl	%eax, %ecx
	subl	$-1, %ecx
	je	.LBB20_11
	jmp	.LBB20_3
.LBB20_3:                               # %for.body
                                        #   in Loop: Header=BB20_1 Depth=1
	movl	%eax, %ecx
	subl	$2, %ecx
	jb	.LBB20_5
	jmp	.LBB20_4
.LBB20_4:                               # %for.body
                                        #   in Loop: Header=BB20_1 Depth=1
	subl	$2, %eax
	je	.LBB20_8
	jmp	.LBB20_12
.LBB20_5:                               # %sw.bb
                                        #   in Loop: Header=BB20_1 Depth=1
	xorl	%eax, %eax
	movq	-40(%rbp), %rcx
	movq	-24(%rbp), %rdx
	subq	512(%rdx), %rax
	cmpq	%rax, %rcx
	jge	.LBB20_7
# %bb.6:                                # %if.then
	jmp	.LBB20_16
.LBB20_7:                               # %if.end
                                        #   in Loop: Header=BB20_1 Depth=1
	jmp	.LBB20_13
.LBB20_8:                               # %sw.bb4
                                        #   in Loop: Header=BB20_1 Depth=1
	movq	-40(%rbp), %rax
	movq	-24(%rbp), %rcx
	cmpq	512(%rcx), %rax
	jle	.LBB20_10
# %bb.9:                                # %if.then7
	jmp	.LBB20_16
.LBB20_10:                              # %if.end8
                                        #   in Loop: Header=BB20_1 Depth=1
	jmp	.LBB20_13
.LBB20_11:                              # %sw.bb9
                                        #   in Loop: Header=BB20_1 Depth=1
	jmp	.LBB20_12
.LBB20_12:                              # %sw.default
                                        #   in Loop: Header=BB20_1 Depth=1
	jmp	.LBB20_13
.LBB20_13:                              # %sw.epilog
                                        #   in Loop: Header=BB20_1 Depth=1
	jmp	.LBB20_14
.LBB20_14:                              # %for.inc
                                        #   in Loop: Header=BB20_1 Depth=1
	movq	-16(%rbp), %rax
	addq	$64, %rax
	movq	%rax, -16(%rbp)
	jmp	.LBB20_1
.LBB20_15:                              # %for.end
	movq	$0, -48(%rbp)
	jmp	.LBB20_17
.LBB20_16:                              # %DUAL_INFEAS
	movq	stderr, %rdi
	movabsq	$.L.str.3, %rsi
	movb	$0, %al
	callq	fprintf
	movq	stderr, %rdi
	movabsq	$.L.str.4, %rsi
	movb	$0, %al
	callq	fprintf
	movq	$1, -48(%rbp)
.LBB20_17:                              # %return
	movq	-48(%rbp), %rbx
	cmpl	$1269530904, -28(%rbp)  # imm = 0x4BAB8118
	jne	.LBB20_19
.LBB20_18:
	movq	%rbx, %rax
	addq	$56, %rsp
	popq	%rbx
	popq	%rbp
	.cfi_def_cfa %rsp, 8
	retq
.LBB20_19:                              # %func_exit
	.cfi_def_cfa %rbp, 16
	callq	detect_breach
	jmp	.LBB20_18
.Lfunc_end20:
	.size	dual_feasible.14, .Lfunc_end20-dual_feasible.14
	.cfi_endproc
                                        # -- End function
	.globl	primal_feasible.15      # -- Begin function primal_feasible.15
	.p2align	4, 0x90
	.type	primal_feasible.15,@function
primal_feasible.15:                     # @primal_feasible.15
	.cfi_startproc
# %bb.0:                                # %entry
	pushq	%rbp
	.cfi_def_cfa_offset 16
	.cfi_offset %rbp, -16
	movq	%rsp, %rbp
	.cfi_def_cfa_register %rbp
	pushq	%rbx
	subq	$72, %rsp
	.cfi_offset %rbx, -24
	movl	$328561016, -36(%rbp)   # imm = 0x13957178
	movq	%rdi, -16(%rbp)
	movq	-16(%rbp), %rax
	movq	584(%rax), %rax
	movq	%rax, -80(%rbp)
	movq	-16(%rbp), %rax
	movq	592(%rax), %rax
	movq	%rax, -64(%rbp)
	movq	-16(%rbp), %rax
	movq	552(%rax), %rax
	movq	%rax, -24(%rbp)
	movq	-16(%rbp), %rax
	movq	560(%rax), %rax
	movq	%rax, -72(%rbp)
	movq	-24(%rbp), %rax
	addq	$104, %rax
	movq	%rax, -24(%rbp)
.LBB21_1:                               # %for.cond
                                        # =>This Inner Loop Header: Depth=1
	movq	-24(%rbp), %rax
	movq	-72(%rbp), %rcx
	cmpq	%rcx, %rax
	jae	.LBB21_16
# %bb.2:                                # %for.body
                                        #   in Loop: Header=BB21_1 Depth=1
	movq	-24(%rbp), %rax
	movq	48(%rax), %rax
	movq	%rax, -48(%rbp)
	movq	-24(%rbp), %rax
	movq	80(%rax), %rax
	movq	%rax, -32(%rbp)
	movq	-48(%rbp), %rax
	cmpq	-80(%rbp), %rax
	jb	.LBB21_10
# %bb.3:                                # %land.lhs.true
                                        #   in Loop: Header=BB21_1 Depth=1
	movq	-48(%rbp), %rax
	cmpq	-64(%rbp), %rax
	jae	.LBB21_10
# %bb.4:                                # %if.then
                                        #   in Loop: Header=BB21_1 Depth=1
	cmpq	$0, -32(%rbp)
	jl	.LBB21_6
# %bb.5:                                # %cond.true
                                        #   in Loop: Header=BB21_1 Depth=1
	movq	-32(%rbp), %rax
	jmp	.LBB21_7
.LBB21_6:                               # %cond.false
                                        #   in Loop: Header=BB21_1 Depth=1
	xorl	%eax, %eax
	subq	-32(%rbp), %rax
.LBB21_7:                               # %cond.end
                                        #   in Loop: Header=BB21_1 Depth=1
	movq	-16(%rbp), %rcx
	cmpq	512(%rcx), %rax
	jle	.LBB21_9
# %bb.8:                                # %if.then7
                                        #   in Loop: Header=BB21_1 Depth=1
	movabsq	$.L.str, %rdi
	movb	$0, %al
	callq	printf
	movq	-24(%rbp), %rax
	movl	96(%rax), %esi
	movq	-32(%rbp), %rdx
	movabsq	$.L.str.1, %rdi
	movb	$0, %al
	callq	printf
.LBB21_9:                               # %if.end
                                        #   in Loop: Header=BB21_1 Depth=1
	jmp	.LBB21_14
.LBB21_10:                              # %if.else
                                        #   in Loop: Header=BB21_1 Depth=1
	xorl	%eax, %eax
	movq	-32(%rbp), %rcx
	movq	-16(%rbp), %rdx
	subq	512(%rdx), %rax
	cmpq	%rax, %rcx
	jl	.LBB21_12
# %bb.11:                               # %lor.lhs.false
                                        #   in Loop: Header=BB21_1 Depth=1
	movq	-32(%rbp), %rax
	subq	$1, %rax
	movq	-16(%rbp), %rcx
	cmpq	512(%rcx), %rax
	jle	.LBB21_13
.LBB21_12:                              # %if.then15
	movabsq	$.L.str, %rdi
	movb	$0, %al
	callq	printf
	movq	-32(%rbp), %rsi
	movabsq	$.L.str.2, %rdi
	movb	$0, %al
	callq	printf
	movq	-16(%rbp), %rax
	movq	$0, 488(%rax)
	movq	$1, -56(%rbp)
	jmp	.LBB21_17
.LBB21_13:                              # %if.end18
                                        #   in Loop: Header=BB21_1 Depth=1
	jmp	.LBB21_14
.LBB21_14:                              # %if.end19
                                        #   in Loop: Header=BB21_1 Depth=1
	jmp	.LBB21_15
.LBB21_15:                              # %for.inc
                                        #   in Loop: Header=BB21_1 Depth=1
	movq	-24(%rbp), %rax
	addq	$104, %rax
	movq	%rax, -24(%rbp)
	jmp	.LBB21_1
.LBB21_16:                              # %for.end
	movq	-16(%rbp), %rax
	movq	$1, 488(%rax)
	movq	$0, -56(%rbp)
.LBB21_17:                              # %return
	movq	-56(%rbp), %rbx
	cmpl	$328561016, -36(%rbp)   # imm = 0x13957178
	jne	.LBB21_19
.LBB21_18:
	movq	%rbx, %rax
	addq	$72, %rsp
	popq	%rbx
	popq	%rbp
	.cfi_def_cfa %rsp, 8
	retq
.LBB21_19:                              # %func_exit
	.cfi_def_cfa %rbp, 16
	callq	detect_breach
	jmp	.LBB21_18
.Lfunc_end21:
	.size	primal_feasible.15, .Lfunc_end21-primal_feasible.15
	.cfi_endproc
                                        # -- End function
	.globl	refresh_neighbour_lists.16 # -- Begin function refresh_neighbour_lists.16
	.p2align	4, 0x90
	.type	refresh_neighbour_lists.16,@function
refresh_neighbour_lists.16:             # @refresh_neighbour_lists.16
	.cfi_startproc
# %bb.0:                                # %entry
	pushq	%rbp
	.cfi_def_cfa_offset 16
	.cfi_offset %rbp, -16
	movq	%rsp, %rbp
	.cfi_def_cfa_register %rbp
	subq	$48, %rsp
	movl	$772536392, -36(%rbp)   # imm = 0x2E0BF848
	movq	%rdi, -24(%rbp)
	movq	-24(%rbp), %rax
	movq	552(%rax), %rax
	movq	%rax, -16(%rbp)
	movq	-24(%rbp), %rax
	movq	560(%rax), %rax
	movq	%rax, -32(%rbp)
.LBB22_1:                               # %for.cond
                                        # =>This Inner Loop Header: Depth=1
	movq	-16(%rbp), %rax
	movq	-32(%rbp), %rcx
	cmpq	%rcx, %rax
	jae	.LBB22_4
# %bb.2:                                # %for.body
                                        #   in Loop: Header=BB22_1 Depth=1
	movq	-16(%rbp), %rax
	movq	$0, 64(%rax)
	movq	-16(%rbp), %rax
	movq	$0, 56(%rax)
# %bb.3:                                # %for.inc
                                        #   in Loop: Header=BB22_1 Depth=1
	movq	-16(%rbp), %rax
	addq	$104, %rax
	movq	%rax, -16(%rbp)
	jmp	.LBB22_1
.LBB22_4:                               # %for.end
	movq	-24(%rbp), %rax
	movq	568(%rax), %rax
	movq	%rax, -8(%rbp)
	movq	-24(%rbp), %rax
	movq	576(%rax), %rax
	movq	%rax, -32(%rbp)
.LBB22_5:                               # %for.cond1
                                        # =>This Inner Loop Header: Depth=1
	movq	-8(%rbp), %rax
	movq	-32(%rbp), %rcx
	cmpq	%rcx, %rax
	jae	.LBB22_8
# %bb.6:                                # %for.body3
                                        #   in Loop: Header=BB22_5 Depth=1
	movq	-8(%rbp), %rax
	movq	8(%rax), %rax
	movq	56(%rax), %rax
	movq	-8(%rbp), %rcx
	movq	%rax, 32(%rcx)
	movq	-8(%rbp), %rax
	movq	-8(%rbp), %rcx
	movq	8(%rcx), %rcx
	movq	%rax, 56(%rcx)
	movq	-8(%rbp), %rax
	movq	16(%rax), %rax
	movq	64(%rax), %rax
	movq	-8(%rbp), %rcx
	movq	%rax, 40(%rcx)
	movq	-8(%rbp), %rax
	movq	-8(%rbp), %rcx
	movq	16(%rcx), %rcx
	movq	%rax, 64(%rcx)
# %bb.7:                                # %for.inc10
                                        #   in Loop: Header=BB22_5 Depth=1
	movq	-8(%rbp), %rax
	addq	$64, %rax
	movq	%rax, -8(%rbp)
	jmp	.LBB22_5
.LBB22_8:                               # %for.end12
	cmpl	$772536392, -36(%rbp)   # imm = 0x2E0BF848
	jne	.LBB22_10
.LBB22_9:
	addq	$48, %rsp
	popq	%rbp
	.cfi_def_cfa %rsp, 8
	retq
.LBB22_10:                              # %func_exit
	.cfi_def_cfa %rbp, 16
	callq	detect_breach
	jmp	.LBB22_9
.Lfunc_end22:
	.size	refresh_neighbour_lists.16, .Lfunc_end22-refresh_neighbour_lists.16
	.cfi_endproc
                                        # -- End function
	.globl	flow_cost.17            # -- Begin function flow_cost.17
	.p2align	4, 0x90
	.type	flow_cost.17,@function
flow_cost.17:                           # @flow_cost.17
	.cfi_startproc
# %bb.0:                                # %entry
	pushq	%rbp
	.cfi_def_cfa_offset 16
	.cfi_offset %rbp, -16
	movq	%rsp, %rbp
	.cfi_def_cfa_register %rbp
	subq	$64, %rsp
	movl	$698992661, -52(%rbp)   # imm = 0x29A9C815
	movq	%rdi, -16(%rbp)
	movq	$0, -48(%rbp)
	movq	$0, -32(%rbp)
	movq	-16(%rbp), %rax
	movq	576(%rax), %rax
	movq	%rax, -40(%rbp)
	movq	-16(%rbp), %rax
	movq	568(%rax), %rax
	movq	%rax, -8(%rbp)
.LBB23_1:                               # %for.cond
                                        # =>This Inner Loop Header: Depth=1
	movq	-8(%rbp), %rax
	movq	-40(%rbp), %rcx
	cmpq	%rcx, %rax
	je	.LBB23_7
# %bb.2:                                # %for.body
                                        #   in Loop: Header=BB23_1 Depth=1
	movq	-8(%rbp), %rax
	cmpl	$2, 24(%rax)
	jne	.LBB23_4
# %bb.3:                                # %if.then
                                        #   in Loop: Header=BB23_1 Depth=1
	movq	-8(%rbp), %rax
	movq	$1, 48(%rax)
	jmp	.LBB23_5
.LBB23_4:                               # %if.else
                                        #   in Loop: Header=BB23_1 Depth=1
	movq	-8(%rbp), %rax
	movq	$0, 48(%rax)
.LBB23_5:                               # %if.end
                                        #   in Loop: Header=BB23_1 Depth=1
	jmp	.LBB23_6
.LBB23_6:                               # %for.inc
                                        #   in Loop: Header=BB23_1 Depth=1
	movq	-8(%rbp), %rax
	addq	$64, %rax
	movq	%rax, -8(%rbp)
	jmp	.LBB23_1
.LBB23_7:                               # %for.end
	movq	-16(%rbp), %rax
	movq	560(%rax), %rax
	movq	%rax, -40(%rbp)
	movq	-16(%rbp), %rax
	movq	552(%rax), %rax
	movq	%rax, -24(%rbp)
	movq	-24(%rbp), %rax
	addq	$104, %rax
	movq	%rax, -24(%rbp)
.LBB23_8:                               # %for.cond4
                                        # =>This Inner Loop Header: Depth=1
	movq	-24(%rbp), %rax
	movq	-40(%rbp), %rcx
	cmpq	%rcx, %rax
	je	.LBB23_11
# %bb.9:                                # %for.body6
                                        #   in Loop: Header=BB23_8 Depth=1
	movq	-24(%rbp), %rax
	movq	80(%rax), %rax
	movq	-24(%rbp), %rcx
	movq	48(%rcx), %rcx
	movq	%rax, 48(%rcx)
# %bb.10:                               # %for.inc9
                                        #   in Loop: Header=BB23_8 Depth=1
	movq	-24(%rbp), %rax
	addq	$104, %rax
	movq	%rax, -24(%rbp)
	jmp	.LBB23_8
.LBB23_11:                              # %for.end11
	movq	-16(%rbp), %rax
	movq	576(%rax), %rax
	movq	%rax, -40(%rbp)
	movq	-16(%rbp), %rax
	movq	568(%rax), %rax
	movq	%rax, -8(%rbp)
.LBB23_12:                              # %for.cond14
                                        # =>This Inner Loop Header: Depth=1
	movq	-8(%rbp), %rax
	movq	-40(%rbp), %rcx
	cmpq	%rcx, %rax
	je	.LBB23_23
# %bb.13:                               # %for.body16
                                        #   in Loop: Header=BB23_12 Depth=1
	movq	-8(%rbp), %rax
	cmpq	$0, 48(%rax)
	je	.LBB23_21
# %bb.14:                               # %if.then18
                                        #   in Loop: Header=BB23_12 Depth=1
	movq	-8(%rbp), %rax
	movq	8(%rax), %rax
	cmpl	$0, 96(%rax)
	jge	.LBB23_16
# %bb.15:                               # %land.lhs.true
                                        #   in Loop: Header=BB23_12 Depth=1
	movq	-8(%rbp), %rax
	movq	16(%rax), %rax
	cmpl	$0, 96(%rax)
	jg	.LBB23_20
.LBB23_16:                              # %if.then22
                                        #   in Loop: Header=BB23_12 Depth=1
	movq	-8(%rbp), %rax
	movq	8(%rax), %rax
	cmpl	$0, 96(%rax)
	jne	.LBB23_18
# %bb.17:                               # %if.then26
                                        #   in Loop: Header=BB23_12 Depth=1
	movq	-8(%rbp), %rax
	movq	(%rax), %rax
	movq	-16(%rbp), %rcx
	subq	528(%rcx), %rax
	addq	-32(%rbp), %rax
	movq	%rax, -32(%rbp)
	movq	-48(%rbp), %rax
	addq	$1, %rax
	movq	%rax, -48(%rbp)
	jmp	.LBB23_19
.LBB23_18:                              # %if.else27
                                        #   in Loop: Header=BB23_12 Depth=1
	movq	-8(%rbp), %rax
	movq	(%rax), %rax
	addq	-32(%rbp), %rax
	movq	%rax, -32(%rbp)
.LBB23_19:                              # %if.end30
                                        #   in Loop: Header=BB23_12 Depth=1
	jmp	.LBB23_20
.LBB23_20:                              # %if.end31
                                        #   in Loop: Header=BB23_12 Depth=1
	jmp	.LBB23_21
.LBB23_21:                              # %if.end32
                                        #   in Loop: Header=BB23_12 Depth=1
	jmp	.LBB23_22
.LBB23_22:                              # %for.inc33
                                        #   in Loop: Header=BB23_12 Depth=1
	movq	-8(%rbp), %rax
	addq	$64, %rax
	movq	%rax, -8(%rbp)
	jmp	.LBB23_12
.LBB23_23:                              # %for.end35
	vcvtsi2sdq	-48(%rbp), %xmm0, %xmm0
	movq	-16(%rbp), %rax
	vcvtsi2sdq	528(%rax), %xmm0, %xmm1
	vmulsd	%xmm1, %xmm0, %xmm0
	vcvtsi2sdq	-32(%rbp), %xmm0, %xmm1
	vaddsd	%xmm1, %xmm0, %xmm0
	cmpl	$698992661, -52(%rbp)   # imm = 0x29A9C815
	jne	.LBB23_25
.LBB23_24:
	addq	$64, %rsp
	popq	%rbp
	.cfi_def_cfa %rsp, 8
	retq
.LBB23_25:                              # %func_exit
	.cfi_def_cfa %rbp, 16
	vmovsd	%xmm0, -64(%rbp)        # 8-byte Spill
	callq	detect_breach
	vmovsd	-64(%rbp), %xmm0        # 8-byte Reload
                                        # xmm0 = mem[0],zero
	jmp	.LBB23_24
.Lfunc_end23:
	.size	flow_cost.17, .Lfunc_end23-flow_cost.17
	.cfi_endproc
                                        # -- End function
	.globl	refresh_neighbour_lists.18 # -- Begin function refresh_neighbour_lists.18
	.p2align	4, 0x90
	.type	refresh_neighbour_lists.18,@function
refresh_neighbour_lists.18:             # @refresh_neighbour_lists.18
	.cfi_startproc
# %bb.0:                                # %entry
	pushq	%rbp
	.cfi_def_cfa_offset 16
	.cfi_offset %rbp, -16
	movq	%rsp, %rbp
	.cfi_def_cfa_register %rbp
	subq	$48, %rsp
	movl	$1638322344, -36(%rbp)  # imm = 0x61A6D0A8
	movq	%rdi, -24(%rbp)
	movq	-24(%rbp), %rax
	movq	552(%rax), %rax
	movq	%rax, -16(%rbp)
	movq	-24(%rbp), %rax
	movq	560(%rax), %rax
	movq	%rax, -32(%rbp)
.LBB24_1:                               # %for.cond
                                        # =>This Inner Loop Header: Depth=1
	movq	-16(%rbp), %rax
	movq	-32(%rbp), %rcx
	cmpq	%rcx, %rax
	jae	.LBB24_4
# %bb.2:                                # %for.body
                                        #   in Loop: Header=BB24_1 Depth=1
	movq	-16(%rbp), %rax
	movq	$0, 64(%rax)
	movq	-16(%rbp), %rax
	movq	$0, 56(%rax)
# %bb.3:                                # %for.inc
                                        #   in Loop: Header=BB24_1 Depth=1
	movq	-16(%rbp), %rax
	addq	$104, %rax
	movq	%rax, -16(%rbp)
	jmp	.LBB24_1
.LBB24_4:                               # %for.end
	movq	-24(%rbp), %rax
	movq	568(%rax), %rax
	movq	%rax, -8(%rbp)
	movq	-24(%rbp), %rax
	movq	576(%rax), %rax
	movq	%rax, -32(%rbp)
.LBB24_5:                               # %for.cond1
                                        # =>This Inner Loop Header: Depth=1
	movq	-8(%rbp), %rax
	movq	-32(%rbp), %rcx
	cmpq	%rcx, %rax
	jae	.LBB24_8
# %bb.6:                                # %for.body3
                                        #   in Loop: Header=BB24_5 Depth=1
	movq	-8(%rbp), %rax
	movq	8(%rax), %rax
	movq	56(%rax), %rax
	movq	-8(%rbp), %rcx
	movq	%rax, 32(%rcx)
	movq	-8(%rbp), %rax
	movq	-8(%rbp), %rcx
	movq	8(%rcx), %rcx
	movq	%rax, 56(%rcx)
	movq	-8(%rbp), %rax
	movq	16(%rax), %rax
	movq	64(%rax), %rax
	movq	-8(%rbp), %rcx
	movq	%rax, 40(%rcx)
	movq	-8(%rbp), %rax
	movq	-8(%rbp), %rcx
	movq	16(%rcx), %rcx
	movq	%rax, 64(%rcx)
# %bb.7:                                # %for.inc10
                                        #   in Loop: Header=BB24_5 Depth=1
	movq	-8(%rbp), %rax
	addq	$64, %rax
	movq	%rax, -8(%rbp)
	jmp	.LBB24_5
.LBB24_8:                               # %for.end12
	cmpl	$1638322344, -36(%rbp)  # imm = 0x61A6D0A8
	jne	.LBB24_10
.LBB24_9:
	addq	$48, %rsp
	popq	%rbp
	.cfi_def_cfa %rsp, 8
	retq
.LBB24_10:                              # %func_exit
	.cfi_def_cfa %rbp, 16
	callq	detect_breach
	jmp	.LBB24_9
.Lfunc_end24:
	.size	refresh_neighbour_lists.18, .Lfunc_end24-refresh_neighbour_lists.18
	.cfi_endproc
                                        # -- End function
	.globl	flow_org_cost.19        # -- Begin function flow_org_cost.19
	.p2align	4, 0x90
	.type	flow_org_cost.19,@function
flow_org_cost.19:                       # @flow_org_cost.19
	.cfi_startproc
# %bb.0:                                # %entry
	pushq	%rbp
	.cfi_def_cfa_offset 16
	.cfi_offset %rbp, -16
	movq	%rsp, %rbp
	.cfi_def_cfa_register %rbp
	subq	$64, %rsp
	movl	$101862810, -52(%rbp)   # imm = 0x6124D9A
	movq	%rdi, -16(%rbp)
	movq	$0, -48(%rbp)
	movq	$0, -32(%rbp)
	movq	-16(%rbp), %rax
	movq	576(%rax), %rax
	movq	%rax, -40(%rbp)
	movq	-16(%rbp), %rax
	movq	568(%rax), %rax
	movq	%rax, -8(%rbp)
.LBB25_1:                               # %for.cond
                                        # =>This Inner Loop Header: Depth=1
	movq	-8(%rbp), %rax
	movq	-40(%rbp), %rcx
	cmpq	%rcx, %rax
	je	.LBB25_7
# %bb.2:                                # %for.body
                                        #   in Loop: Header=BB25_1 Depth=1
	movq	-8(%rbp), %rax
	cmpl	$2, 24(%rax)
	jne	.LBB25_4
# %bb.3:                                # %if.then
                                        #   in Loop: Header=BB25_1 Depth=1
	movq	-8(%rbp), %rax
	movq	$1, 48(%rax)
	jmp	.LBB25_5
.LBB25_4:                               # %if.else
                                        #   in Loop: Header=BB25_1 Depth=1
	movq	-8(%rbp), %rax
	movq	$0, 48(%rax)
.LBB25_5:                               # %if.end
                                        #   in Loop: Header=BB25_1 Depth=1
	jmp	.LBB25_6
.LBB25_6:                               # %for.inc
                                        #   in Loop: Header=BB25_1 Depth=1
	movq	-8(%rbp), %rax
	addq	$64, %rax
	movq	%rax, -8(%rbp)
	jmp	.LBB25_1
.LBB25_7:                               # %for.end
	movq	-16(%rbp), %rax
	movq	560(%rax), %rax
	movq	%rax, -40(%rbp)
	movq	-16(%rbp), %rax
	movq	552(%rax), %rax
	movq	%rax, -24(%rbp)
	movq	-24(%rbp), %rax
	addq	$104, %rax
	movq	%rax, -24(%rbp)
.LBB25_8:                               # %for.cond4
                                        # =>This Inner Loop Header: Depth=1
	movq	-24(%rbp), %rax
	movq	-40(%rbp), %rcx
	cmpq	%rcx, %rax
	je	.LBB25_11
# %bb.9:                                # %for.body6
                                        #   in Loop: Header=BB25_8 Depth=1
	movq	-24(%rbp), %rax
	movq	80(%rax), %rax
	movq	-24(%rbp), %rcx
	movq	48(%rcx), %rcx
	movq	%rax, 48(%rcx)
# %bb.10:                               # %for.inc9
                                        #   in Loop: Header=BB25_8 Depth=1
	movq	-24(%rbp), %rax
	addq	$104, %rax
	movq	%rax, -24(%rbp)
	jmp	.LBB25_8
.LBB25_11:                              # %for.end11
	movq	-16(%rbp), %rax
	movq	576(%rax), %rax
	movq	%rax, -40(%rbp)
	movq	-16(%rbp), %rax
	movq	568(%rax), %rax
	movq	%rax, -8(%rbp)
.LBB25_12:                              # %for.cond14
                                        # =>This Inner Loop Header: Depth=1
	movq	-8(%rbp), %rax
	movq	-40(%rbp), %rcx
	cmpq	%rcx, %rax
	je	.LBB25_23
# %bb.13:                               # %for.body16
                                        #   in Loop: Header=BB25_12 Depth=1
	movq	-8(%rbp), %rax
	cmpq	$0, 48(%rax)
	je	.LBB25_21
# %bb.14:                               # %if.then18
                                        #   in Loop: Header=BB25_12 Depth=1
	movq	-8(%rbp), %rax
	movq	8(%rax), %rax
	cmpl	$0, 96(%rax)
	jge	.LBB25_16
# %bb.15:                               # %land.lhs.true
                                        #   in Loop: Header=BB25_12 Depth=1
	movq	-8(%rbp), %rax
	movq	16(%rax), %rax
	cmpl	$0, 96(%rax)
	jg	.LBB25_20
.LBB25_16:                              # %if.then22
                                        #   in Loop: Header=BB25_12 Depth=1
	movq	-8(%rbp), %rax
	movq	8(%rax), %rax
	cmpl	$0, 96(%rax)
	jne	.LBB25_18
# %bb.17:                               # %if.then26
                                        #   in Loop: Header=BB25_12 Depth=1
	movq	-8(%rbp), %rax
	movq	56(%rax), %rax
	movq	-16(%rbp), %rcx
	subq	528(%rcx), %rax
	addq	-32(%rbp), %rax
	movq	%rax, -32(%rbp)
	movq	-48(%rbp), %rax
	addq	$1, %rax
	movq	%rax, -48(%rbp)
	jmp	.LBB25_19
.LBB25_18:                              # %if.else27
                                        #   in Loop: Header=BB25_12 Depth=1
	movq	-8(%rbp), %rax
	movq	56(%rax), %rax
	addq	-32(%rbp), %rax
	movq	%rax, -32(%rbp)
.LBB25_19:                              # %if.end30
                                        #   in Loop: Header=BB25_12 Depth=1
	jmp	.LBB25_20
.LBB25_20:                              # %if.end31
                                        #   in Loop: Header=BB25_12 Depth=1
	jmp	.LBB25_21
.LBB25_21:                              # %if.end32
                                        #   in Loop: Header=BB25_12 Depth=1
	jmp	.LBB25_22
.LBB25_22:                              # %for.inc33
                                        #   in Loop: Header=BB25_12 Depth=1
	movq	-8(%rbp), %rax
	addq	$64, %rax
	movq	%rax, -8(%rbp)
	jmp	.LBB25_12
.LBB25_23:                              # %for.end35
	vcvtsi2sdq	-48(%rbp), %xmm0, %xmm0
	movq	-16(%rbp), %rax
	vcvtsi2sdq	528(%rax), %xmm0, %xmm1
	vmulsd	%xmm1, %xmm0, %xmm0
	vcvtsi2sdq	-32(%rbp), %xmm0, %xmm1
	vaddsd	%xmm1, %xmm0, %xmm0
	cmpl	$101862810, -52(%rbp)   # imm = 0x6124D9A
	jne	.LBB25_25
.LBB25_24:
	addq	$64, %rsp
	popq	%rbp
	.cfi_def_cfa %rsp, 8
	retq
.LBB25_25:                              # %func_exit
	.cfi_def_cfa %rbp, 16
	vmovsd	%xmm0, -64(%rbp)        # 8-byte Spill
	callq	detect_breach
	vmovsd	-64(%rbp), %xmm0        # 8-byte Reload
                                        # xmm0 = mem[0],zero
	jmp	.LBB25_24
.Lfunc_end25:
	.size	flow_org_cost.19, .Lfunc_end25-flow_org_cost.19
	.cfi_endproc
                                        # -- End function
	.globl	flow_cost.20            # -- Begin function flow_cost.20
	.p2align	4, 0x90
	.type	flow_cost.20,@function
flow_cost.20:                           # @flow_cost.20
	.cfi_startproc
# %bb.0:                                # %entry
	pushq	%rbp
	.cfi_def_cfa_offset 16
	.cfi_offset %rbp, -16
	movq	%rsp, %rbp
	.cfi_def_cfa_register %rbp
	subq	$64, %rsp
	movl	$1405840613, -52(%rbp)  # imm = 0x53CB6CE5
	movq	%rdi, -16(%rbp)
	movq	$0, -48(%rbp)
	movq	$0, -32(%rbp)
	movq	-16(%rbp), %rax
	movq	576(%rax), %rax
	movq	%rax, -40(%rbp)
	movq	-16(%rbp), %rax
	movq	568(%rax), %rax
	movq	%rax, -8(%rbp)
.LBB26_1:                               # %for.cond
                                        # =>This Inner Loop Header: Depth=1
	movq	-8(%rbp), %rax
	movq	-40(%rbp), %rcx
	cmpq	%rcx, %rax
	je	.LBB26_7
# %bb.2:                                # %for.body
                                        #   in Loop: Header=BB26_1 Depth=1
	movq	-8(%rbp), %rax
	cmpl	$2, 24(%rax)
	jne	.LBB26_4
# %bb.3:                                # %if.then
                                        #   in Loop: Header=BB26_1 Depth=1
	movq	-8(%rbp), %rax
	movq	$1, 48(%rax)
	jmp	.LBB26_5
.LBB26_4:                               # %if.else
                                        #   in Loop: Header=BB26_1 Depth=1
	movq	-8(%rbp), %rax
	movq	$0, 48(%rax)
.LBB26_5:                               # %if.end
                                        #   in Loop: Header=BB26_1 Depth=1
	jmp	.LBB26_6
.LBB26_6:                               # %for.inc
                                        #   in Loop: Header=BB26_1 Depth=1
	movq	-8(%rbp), %rax
	addq	$64, %rax
	movq	%rax, -8(%rbp)
	jmp	.LBB26_1
.LBB26_7:                               # %for.end
	movq	-16(%rbp), %rax
	movq	560(%rax), %rax
	movq	%rax, -40(%rbp)
	movq	-16(%rbp), %rax
	movq	552(%rax), %rax
	movq	%rax, -24(%rbp)
	movq	-24(%rbp), %rax
	addq	$104, %rax
	movq	%rax, -24(%rbp)
.LBB26_8:                               # %for.cond4
                                        # =>This Inner Loop Header: Depth=1
	movq	-24(%rbp), %rax
	movq	-40(%rbp), %rcx
	cmpq	%rcx, %rax
	je	.LBB26_11
# %bb.9:                                # %for.body6
                                        #   in Loop: Header=BB26_8 Depth=1
	movq	-24(%rbp), %rax
	movq	80(%rax), %rax
	movq	-24(%rbp), %rcx
	movq	48(%rcx), %rcx
	movq	%rax, 48(%rcx)
# %bb.10:                               # %for.inc9
                                        #   in Loop: Header=BB26_8 Depth=1
	movq	-24(%rbp), %rax
	addq	$104, %rax
	movq	%rax, -24(%rbp)
	jmp	.LBB26_8
.LBB26_11:                              # %for.end11
	movq	-16(%rbp), %rax
	movq	576(%rax), %rax
	movq	%rax, -40(%rbp)
	movq	-16(%rbp), %rax
	movq	568(%rax), %rax
	movq	%rax, -8(%rbp)
.LBB26_12:                              # %for.cond14
                                        # =>This Inner Loop Header: Depth=1
	movq	-8(%rbp), %rax
	movq	-40(%rbp), %rcx
	cmpq	%rcx, %rax
	je	.LBB26_23
# %bb.13:                               # %for.body16
                                        #   in Loop: Header=BB26_12 Depth=1
	movq	-8(%rbp), %rax
	cmpq	$0, 48(%rax)
	je	.LBB26_21
# %bb.14:                               # %if.then18
                                        #   in Loop: Header=BB26_12 Depth=1
	movq	-8(%rbp), %rax
	movq	8(%rax), %rax
	cmpl	$0, 96(%rax)
	jge	.LBB26_16
# %bb.15:                               # %land.lhs.true
                                        #   in Loop: Header=BB26_12 Depth=1
	movq	-8(%rbp), %rax
	movq	16(%rax), %rax
	cmpl	$0, 96(%rax)
	jg	.LBB26_20
.LBB26_16:                              # %if.then22
                                        #   in Loop: Header=BB26_12 Depth=1
	movq	-8(%rbp), %rax
	movq	8(%rax), %rax
	cmpl	$0, 96(%rax)
	jne	.LBB26_18
# %bb.17:                               # %if.then26
                                        #   in Loop: Header=BB26_12 Depth=1
	movq	-8(%rbp), %rax
	movq	(%rax), %rax
	movq	-16(%rbp), %rcx
	subq	528(%rcx), %rax
	addq	-32(%rbp), %rax
	movq	%rax, -32(%rbp)
	movq	-48(%rbp), %rax
	addq	$1, %rax
	movq	%rax, -48(%rbp)
	jmp	.LBB26_19
.LBB26_18:                              # %if.else27
                                        #   in Loop: Header=BB26_12 Depth=1
	movq	-8(%rbp), %rax
	movq	(%rax), %rax
	addq	-32(%rbp), %rax
	movq	%rax, -32(%rbp)
.LBB26_19:                              # %if.end30
                                        #   in Loop: Header=BB26_12 Depth=1
	jmp	.LBB26_20
.LBB26_20:                              # %if.end31
                                        #   in Loop: Header=BB26_12 Depth=1
	jmp	.LBB26_21
.LBB26_21:                              # %if.end32
                                        #   in Loop: Header=BB26_12 Depth=1
	jmp	.LBB26_22
.LBB26_22:                              # %for.inc33
                                        #   in Loop: Header=BB26_12 Depth=1
	movq	-8(%rbp), %rax
	addq	$64, %rax
	movq	%rax, -8(%rbp)
	jmp	.LBB26_12
.LBB26_23:                              # %for.end35
	vcvtsi2sdq	-48(%rbp), %xmm0, %xmm0
	movq	-16(%rbp), %rax
	vcvtsi2sdq	528(%rax), %xmm0, %xmm1
	vmulsd	%xmm1, %xmm0, %xmm0
	vcvtsi2sdq	-32(%rbp), %xmm0, %xmm1
	vaddsd	%xmm1, %xmm0, %xmm0
	cmpl	$1405840613, -52(%rbp)  # imm = 0x53CB6CE5
	jne	.LBB26_25
.LBB26_24:
	addq	$64, %rsp
	popq	%rbp
	.cfi_def_cfa %rsp, 8
	retq
.LBB26_25:                              # %func_exit
	.cfi_def_cfa %rbp, 16
	vmovsd	%xmm0, -64(%rbp)        # 8-byte Spill
	callq	detect_breach
	vmovsd	-64(%rbp), %xmm0        # 8-byte Reload
                                        # xmm0 = mem[0],zero
	jmp	.LBB26_24
.Lfunc_end26:
	.size	flow_cost.20, .Lfunc_end26-flow_cost.20
	.cfi_endproc
                                        # -- End function
	.globl	flow_cost.21            # -- Begin function flow_cost.21
	.p2align	4, 0x90
	.type	flow_cost.21,@function
flow_cost.21:                           # @flow_cost.21
	.cfi_startproc
# %bb.0:                                # %entry
	pushq	%rbp
	.cfi_def_cfa_offset 16
	.cfi_offset %rbp, -16
	movq	%rsp, %rbp
	.cfi_def_cfa_register %rbp
	subq	$64, %rsp
	movl	$1835789909, -52(%rbp)  # imm = 0x6D6BEE55
	movq	%rdi, -16(%rbp)
	movq	$0, -48(%rbp)
	movq	$0, -40(%rbp)
	movq	-16(%rbp), %rax
	movq	576(%rax), %rax
	movq	%rax, -32(%rbp)
	movq	-16(%rbp), %rax
	movq	568(%rax), %rax
	movq	%rax, -8(%rbp)
.LBB27_1:                               # %for.cond
                                        # =>This Inner Loop Header: Depth=1
	movq	-8(%rbp), %rax
	movq	-32(%rbp), %rcx
	cmpq	%rcx, %rax
	je	.LBB27_7
# %bb.2:                                # %for.body
                                        #   in Loop: Header=BB27_1 Depth=1
	movq	-8(%rbp), %rax
	cmpl	$2, 24(%rax)
	jne	.LBB27_4
# %bb.3:                                # %if.then
                                        #   in Loop: Header=BB27_1 Depth=1
	movq	-8(%rbp), %rax
	movq	$1, 48(%rax)
	jmp	.LBB27_5
.LBB27_4:                               # %if.else
                                        #   in Loop: Header=BB27_1 Depth=1
	movq	-8(%rbp), %rax
	movq	$0, 48(%rax)
.LBB27_5:                               # %if.end
                                        #   in Loop: Header=BB27_1 Depth=1
	jmp	.LBB27_6
.LBB27_6:                               # %for.inc
                                        #   in Loop: Header=BB27_1 Depth=1
	movq	-8(%rbp), %rax
	addq	$64, %rax
	movq	%rax, -8(%rbp)
	jmp	.LBB27_1
.LBB27_7:                               # %for.end
	movq	-16(%rbp), %rax
	movq	560(%rax), %rax
	movq	%rax, -32(%rbp)
	movq	-16(%rbp), %rax
	movq	552(%rax), %rax
	movq	%rax, -24(%rbp)
	movq	-24(%rbp), %rax
	addq	$104, %rax
	movq	%rax, -24(%rbp)
.LBB27_8:                               # %for.cond4
                                        # =>This Inner Loop Header: Depth=1
	movq	-24(%rbp), %rax
	movq	-32(%rbp), %rcx
	cmpq	%rcx, %rax
	je	.LBB27_11
# %bb.9:                                # %for.body6
                                        #   in Loop: Header=BB27_8 Depth=1
	movq	-24(%rbp), %rax
	movq	80(%rax), %rax
	movq	-24(%rbp), %rcx
	movq	48(%rcx), %rcx
	movq	%rax, 48(%rcx)
# %bb.10:                               # %for.inc9
                                        #   in Loop: Header=BB27_8 Depth=1
	movq	-24(%rbp), %rax
	addq	$104, %rax
	movq	%rax, -24(%rbp)
	jmp	.LBB27_8
.LBB27_11:                              # %for.end11
	movq	-16(%rbp), %rax
	movq	576(%rax), %rax
	movq	%rax, -32(%rbp)
	movq	-16(%rbp), %rax
	movq	568(%rax), %rax
	movq	%rax, -8(%rbp)
.LBB27_12:                              # %for.cond14
                                        # =>This Inner Loop Header: Depth=1
	movq	-8(%rbp), %rax
	movq	-32(%rbp), %rcx
	cmpq	%rcx, %rax
	je	.LBB27_23
# %bb.13:                               # %for.body16
                                        #   in Loop: Header=BB27_12 Depth=1
	movq	-8(%rbp), %rax
	cmpq	$0, 48(%rax)
	je	.LBB27_21
# %bb.14:                               # %if.then18
                                        #   in Loop: Header=BB27_12 Depth=1
	movq	-8(%rbp), %rax
	movq	8(%rax), %rax
	cmpl	$0, 96(%rax)
	jge	.LBB27_16
# %bb.15:                               # %land.lhs.true
                                        #   in Loop: Header=BB27_12 Depth=1
	movq	-8(%rbp), %rax
	movq	16(%rax), %rax
	cmpl	$0, 96(%rax)
	jg	.LBB27_20
.LBB27_16:                              # %if.then22
                                        #   in Loop: Header=BB27_12 Depth=1
	movq	-8(%rbp), %rax
	movq	8(%rax), %rax
	cmpl	$0, 96(%rax)
	jne	.LBB27_18
# %bb.17:                               # %if.then26
                                        #   in Loop: Header=BB27_12 Depth=1
	movq	-8(%rbp), %rax
	movq	(%rax), %rax
	movq	-16(%rbp), %rcx
	subq	528(%rcx), %rax
	addq	-40(%rbp), %rax
	movq	%rax, -40(%rbp)
	movq	-48(%rbp), %rax
	addq	$1, %rax
	movq	%rax, -48(%rbp)
	jmp	.LBB27_19
.LBB27_18:                              # %if.else27
                                        #   in Loop: Header=BB27_12 Depth=1
	movq	-8(%rbp), %rax
	movq	(%rax), %rax
	addq	-40(%rbp), %rax
	movq	%rax, -40(%rbp)
.LBB27_19:                              # %if.end30
                                        #   in Loop: Header=BB27_12 Depth=1
	jmp	.LBB27_20
.LBB27_20:                              # %if.end31
                                        #   in Loop: Header=BB27_12 Depth=1
	jmp	.LBB27_21
.LBB27_21:                              # %if.end32
                                        #   in Loop: Header=BB27_12 Depth=1
	jmp	.LBB27_22
.LBB27_22:                              # %for.inc33
                                        #   in Loop: Header=BB27_12 Depth=1
	movq	-8(%rbp), %rax
	addq	$64, %rax
	movq	%rax, -8(%rbp)
	jmp	.LBB27_12
.LBB27_23:                              # %for.end35
	vcvtsi2sdq	-48(%rbp), %xmm0, %xmm0
	movq	-16(%rbp), %rax
	vcvtsi2sdq	528(%rax), %xmm0, %xmm1
	vmulsd	%xmm1, %xmm0, %xmm0
	vcvtsi2sdq	-40(%rbp), %xmm0, %xmm1
	vaddsd	%xmm1, %xmm0, %xmm0
	cmpl	$1835789909, -52(%rbp)  # imm = 0x6D6BEE55
	jne	.LBB27_25
.LBB27_24:
	addq	$64, %rsp
	popq	%rbp
	.cfi_def_cfa %rsp, 8
	retq
.LBB27_25:                              # %func_exit
	.cfi_def_cfa %rbp, 16
	vmovsd	%xmm0, -64(%rbp)        # 8-byte Spill
	callq	detect_breach
	vmovsd	-64(%rbp), %xmm0        # 8-byte Reload
                                        # xmm0 = mem[0],zero
	jmp	.LBB27_24
.Lfunc_end27:
	.size	flow_cost.21, .Lfunc_end27-flow_cost.21
	.cfi_endproc
                                        # -- End function
	.globl	primal_feasible.22      # -- Begin function primal_feasible.22
	.p2align	4, 0x90
	.type	primal_feasible.22,@function
primal_feasible.22:                     # @primal_feasible.22
	.cfi_startproc
# %bb.0:                                # %entry
	pushq	%rbp
	.cfi_def_cfa_offset 16
	.cfi_offset %rbp, -16
	movq	%rsp, %rbp
	.cfi_def_cfa_register %rbp
	pushq	%rbx
	subq	$72, %rsp
	.cfi_offset %rbx, -24
	movl	$704680170, -36(%rbp)   # imm = 0x2A0090EA
	movq	%rdi, -16(%rbp)
	movq	-16(%rbp), %rax
	movq	584(%rax), %rax
	movq	%rax, -72(%rbp)
	movq	-16(%rbp), %rax
	movq	592(%rax), %rax
	movq	%rax, -80(%rbp)
	movq	-16(%rbp), %rax
	movq	552(%rax), %rax
	movq	%rax, -24(%rbp)
	movq	-16(%rbp), %rax
	movq	560(%rax), %rax
	movq	%rax, -64(%rbp)
	movq	-24(%rbp), %rax
	addq	$104, %rax
	movq	%rax, -24(%rbp)
.LBB28_1:                               # %for.cond
                                        # =>This Inner Loop Header: Depth=1
	movq	-24(%rbp), %rax
	movq	-64(%rbp), %rcx
	cmpq	%rcx, %rax
	jae	.LBB28_16
# %bb.2:                                # %for.body
                                        #   in Loop: Header=BB28_1 Depth=1
	movq	-24(%rbp), %rax
	movq	48(%rax), %rax
	movq	%rax, -48(%rbp)
	movq	-24(%rbp), %rax
	movq	80(%rax), %rax
	movq	%rax, -32(%rbp)
	movq	-48(%rbp), %rax
	cmpq	-72(%rbp), %rax
	jb	.LBB28_10
# %bb.3:                                # %land.lhs.true
                                        #   in Loop: Header=BB28_1 Depth=1
	movq	-48(%rbp), %rax
	cmpq	-80(%rbp), %rax
	jae	.LBB28_10
# %bb.4:                                # %if.then
                                        #   in Loop: Header=BB28_1 Depth=1
	cmpq	$0, -32(%rbp)
	jl	.LBB28_6
# %bb.5:                                # %cond.true
                                        #   in Loop: Header=BB28_1 Depth=1
	movq	-32(%rbp), %rax
	jmp	.LBB28_7
.LBB28_6:                               # %cond.false
                                        #   in Loop: Header=BB28_1 Depth=1
	xorl	%eax, %eax
	subq	-32(%rbp), %rax
.LBB28_7:                               # %cond.end
                                        #   in Loop: Header=BB28_1 Depth=1
	movq	-16(%rbp), %rcx
	cmpq	512(%rcx), %rax
	jle	.LBB28_9
# %bb.8:                                # %if.then7
                                        #   in Loop: Header=BB28_1 Depth=1
	movabsq	$.L.str, %rdi
	movb	$0, %al
	callq	printf
	movq	-24(%rbp), %rax
	movl	96(%rax), %esi
	movq	-32(%rbp), %rdx
	movabsq	$.L.str.1, %rdi
	movb	$0, %al
	callq	printf
.LBB28_9:                               # %if.end
                                        #   in Loop: Header=BB28_1 Depth=1
	jmp	.LBB28_14
.LBB28_10:                              # %if.else
                                        #   in Loop: Header=BB28_1 Depth=1
	xorl	%eax, %eax
	movq	-32(%rbp), %rcx
	movq	-16(%rbp), %rdx
	subq	512(%rdx), %rax
	cmpq	%rax, %rcx
	jl	.LBB28_12
# %bb.11:                               # %lor.lhs.false
                                        #   in Loop: Header=BB28_1 Depth=1
	movq	-32(%rbp), %rax
	subq	$1, %rax
	movq	-16(%rbp), %rcx
	cmpq	512(%rcx), %rax
	jle	.LBB28_13
.LBB28_12:                              # %if.then15
	movabsq	$.L.str, %rdi
	movb	$0, %al
	callq	printf
	movq	-32(%rbp), %rsi
	movabsq	$.L.str.2, %rdi
	movb	$0, %al
	callq	printf
	movq	-16(%rbp), %rax
	movq	$0, 488(%rax)
	movq	$1, -56(%rbp)
	jmp	.LBB28_17
.LBB28_13:                              # %if.end18
                                        #   in Loop: Header=BB28_1 Depth=1
	jmp	.LBB28_14
.LBB28_14:                              # %if.end19
                                        #   in Loop: Header=BB28_1 Depth=1
	jmp	.LBB28_15
.LBB28_15:                              # %for.inc
                                        #   in Loop: Header=BB28_1 Depth=1
	movq	-24(%rbp), %rax
	addq	$104, %rax
	movq	%rax, -24(%rbp)
	jmp	.LBB28_1
.LBB28_16:                              # %for.end
	movq	-16(%rbp), %rax
	movq	$1, 488(%rax)
	movq	$0, -56(%rbp)
.LBB28_17:                              # %return
	movq	-56(%rbp), %rbx
	cmpl	$704680170, -36(%rbp)   # imm = 0x2A0090EA
	jne	.LBB28_19
.LBB28_18:
	movq	%rbx, %rax
	addq	$72, %rsp
	popq	%rbx
	popq	%rbp
	.cfi_def_cfa %rsp, 8
	retq
.LBB28_19:                              # %func_exit
	.cfi_def_cfa %rbp, 16
	callq	detect_breach
	jmp	.LBB28_18
.Lfunc_end28:
	.size	primal_feasible.22, .Lfunc_end28-primal_feasible.22
	.cfi_endproc
                                        # -- End function
	.globl	refresh_potential.23    # -- Begin function refresh_potential.23
	.p2align	4, 0x90
	.type	refresh_potential.23,@function
refresh_potential.23:                   # @refresh_potential.23
	.cfi_startproc
# %bb.0:                                # %entry
	pushq	%rbp
	.cfi_def_cfa_offset 16
	.cfi_offset %rbp, -16
	movq	%rsp, %rbp
	.cfi_def_cfa_register %rbp
	pushq	%rbx
	subq	$56, %rsp
	.cfi_offset %rbx, -24
	movl	$539403294, -44(%rbp)   # imm = 0x2026A41E
	movq	%rdi, -56(%rbp)
	movq	-56(%rbp), %rax
	movq	552(%rax), %rax
	movq	%rax, -40(%rbp)
	movq	$0, -32(%rbp)
	movq	-40(%rbp), %rax
	movq	$-100000000, (%rax)     # imm = 0xFA0A1F00
	movq	-40(%rbp), %rax
	movq	16(%rax), %rax
	movq	%rax, -16(%rbp)
	movq	%rax, -24(%rbp)
.LBB29_1:                               # %while.cond
                                        # =>This Loop Header: Depth=1
                                        #     Child Loop BB29_3 Depth 2
                                        #     Child Loop BB29_9 Depth 2
	movq	-16(%rbp), %rax
	cmpq	-40(%rbp), %rax
	je	.LBB29_16
# %bb.2:                                # %while.body
                                        #   in Loop: Header=BB29_1 Depth=1
	jmp	.LBB29_3
.LBB29_3:                               # %while.cond1
                                        #   Parent Loop BB29_1 Depth=1
                                        # =>  This Inner Loop Header: Depth=2
	cmpq	$0, -16(%rbp)
	je	.LBB29_8
# %bb.4:                                # %while.body2
                                        #   in Loop: Header=BB29_3 Depth=2
	movq	-16(%rbp), %rax
	cmpl	$1, 8(%rax)
	jne	.LBB29_6
# %bb.5:                                # %if.then
                                        #   in Loop: Header=BB29_3 Depth=2
	movq	-16(%rbp), %rax
	movq	48(%rax), %rax
	movq	(%rax), %rax
	movq	-16(%rbp), %rcx
	movq	24(%rcx), %rcx
	addq	(%rcx), %rax
	movq	-16(%rbp), %rcx
	movq	%rax, (%rcx)
	jmp	.LBB29_7
.LBB29_6:                               # %if.else
                                        #   in Loop: Header=BB29_3 Depth=2
	movq	-16(%rbp), %rax
	movq	24(%rax), %rax
	movq	(%rax), %rax
	movq	-16(%rbp), %rcx
	movq	48(%rcx), %rcx
	subq	(%rcx), %rax
	movq	-16(%rbp), %rcx
	movq	%rax, (%rcx)
	movq	-32(%rbp), %rax
	addq	$1, %rax
	movq	%rax, -32(%rbp)
.LBB29_7:                               # %if.end
                                        #   in Loop: Header=BB29_3 Depth=2
	movq	-16(%rbp), %rax
	movq	%rax, -24(%rbp)
	movq	-16(%rbp), %rax
	movq	16(%rax), %rax
	movq	%rax, -16(%rbp)
	jmp	.LBB29_3
.LBB29_8:                               # %while.end
                                        #   in Loop: Header=BB29_1 Depth=1
	movq	-24(%rbp), %rax
	movq	%rax, -16(%rbp)
.LBB29_9:                               # %while.cond12
                                        #   Parent Loop BB29_1 Depth=1
                                        # =>  This Inner Loop Header: Depth=2
	movq	-16(%rbp), %rax
	cmpq	$0, 24(%rax)
	je	.LBB29_14
# %bb.10:                               # %while.body15
                                        #   in Loop: Header=BB29_9 Depth=2
	movq	-16(%rbp), %rax
	movq	32(%rax), %rax
	movq	%rax, -24(%rbp)
	cmpq	$0, -24(%rbp)
	je	.LBB29_12
# %bb.11:                               # %if.then17
                                        #   in Loop: Header=BB29_1 Depth=1
	movq	-24(%rbp), %rax
	movq	%rax, -16(%rbp)
	jmp	.LBB29_15
.LBB29_12:                              # %if.else18
                                        #   in Loop: Header=BB29_9 Depth=2
	movq	-16(%rbp), %rax
	movq	24(%rax), %rax
	movq	%rax, -16(%rbp)
# %bb.13:                               # %if.end20
                                        #   in Loop: Header=BB29_9 Depth=2
	jmp	.LBB29_9
.LBB29_14:                              # %while.end21.loopexit
                                        #   in Loop: Header=BB29_1 Depth=1
	jmp	.LBB29_15
.LBB29_15:                              # %while.end21
                                        #   in Loop: Header=BB29_1 Depth=1
	jmp	.LBB29_1
.LBB29_16:                              # %while.end22
	movq	-32(%rbp), %rbx
	cmpl	$539403294, -44(%rbp)   # imm = 0x2026A41E
	jne	.LBB29_18
.LBB29_17:
	movq	%rbx, %rax
	addq	$56, %rsp
	popq	%rbx
	popq	%rbp
	.cfi_def_cfa %rsp, 8
	retq
.LBB29_18:                              # %func_exit
	.cfi_def_cfa %rbp, 16
	callq	detect_breach
	jmp	.LBB29_17
.Lfunc_end29:
	.size	refresh_potential.23, .Lfunc_end29-refresh_potential.23
	.cfi_endproc
                                        # -- End function
	.globl	refresh_neighbour_lists.24 # -- Begin function refresh_neighbour_lists.24
	.p2align	4, 0x90
	.type	refresh_neighbour_lists.24,@function
refresh_neighbour_lists.24:             # @refresh_neighbour_lists.24
	.cfi_startproc
# %bb.0:                                # %entry
	pushq	%rbp
	.cfi_def_cfa_offset 16
	.cfi_offset %rbp, -16
	movq	%rsp, %rbp
	.cfi_def_cfa_register %rbp
	subq	$48, %rsp
	movl	$241765966, -36(%rbp)   # imm = 0xE690E4E
	movq	%rdi, -24(%rbp)
	movq	-24(%rbp), %rax
	movq	552(%rax), %rax
	movq	%rax, -16(%rbp)
	movq	-24(%rbp), %rax
	movq	560(%rax), %rax
	movq	%rax, -32(%rbp)
.LBB30_1:                               # %for.cond
                                        # =>This Inner Loop Header: Depth=1
	movq	-16(%rbp), %rax
	movq	-32(%rbp), %rcx
	cmpq	%rcx, %rax
	jae	.LBB30_4
# %bb.2:                                # %for.body
                                        #   in Loop: Header=BB30_1 Depth=1
	movq	-16(%rbp), %rax
	movq	$0, 64(%rax)
	movq	-16(%rbp), %rax
	movq	$0, 56(%rax)
# %bb.3:                                # %for.inc
                                        #   in Loop: Header=BB30_1 Depth=1
	movq	-16(%rbp), %rax
	addq	$104, %rax
	movq	%rax, -16(%rbp)
	jmp	.LBB30_1
.LBB30_4:                               # %for.end
	movq	-24(%rbp), %rax
	movq	568(%rax), %rax
	movq	%rax, -8(%rbp)
	movq	-24(%rbp), %rax
	movq	576(%rax), %rax
	movq	%rax, -32(%rbp)
.LBB30_5:                               # %for.cond1
                                        # =>This Inner Loop Header: Depth=1
	movq	-8(%rbp), %rax
	movq	-32(%rbp), %rcx
	cmpq	%rcx, %rax
	jae	.LBB30_8
# %bb.6:                                # %for.body3
                                        #   in Loop: Header=BB30_5 Depth=1
	movq	-8(%rbp), %rax
	movq	8(%rax), %rax
	movq	56(%rax), %rax
	movq	-8(%rbp), %rcx
	movq	%rax, 32(%rcx)
	movq	-8(%rbp), %rax
	movq	-8(%rbp), %rcx
	movq	8(%rcx), %rcx
	movq	%rax, 56(%rcx)
	movq	-8(%rbp), %rax
	movq	16(%rax), %rax
	movq	64(%rax), %rax
	movq	-8(%rbp), %rcx
	movq	%rax, 40(%rcx)
	movq	-8(%rbp), %rax
	movq	-8(%rbp), %rcx
	movq	16(%rcx), %rcx
	movq	%rax, 64(%rcx)
# %bb.7:                                # %for.inc10
                                        #   in Loop: Header=BB30_5 Depth=1
	movq	-8(%rbp), %rax
	addq	$64, %rax
	movq	%rax, -8(%rbp)
	jmp	.LBB30_5
.LBB30_8:                               # %for.end12
	cmpl	$241765966, -36(%rbp)   # imm = 0xE690E4E
	jne	.LBB30_10
.LBB30_9:
	addq	$48, %rsp
	popq	%rbp
	.cfi_def_cfa %rsp, 8
	retq
.LBB30_10:                              # %func_exit
	.cfi_def_cfa %rbp, 16
	callq	detect_breach
	jmp	.LBB30_9
.Lfunc_end30:
	.size	refresh_neighbour_lists.24, .Lfunc_end30-refresh_neighbour_lists.24
	.cfi_endproc
                                        # -- End function
	.globl	primal_feasible.25      # -- Begin function primal_feasible.25
	.p2align	4, 0x90
	.type	primal_feasible.25,@function
primal_feasible.25:                     # @primal_feasible.25
	.cfi_startproc
# %bb.0:                                # %entry
	pushq	%rbp
	.cfi_def_cfa_offset 16
	.cfi_offset %rbp, -16
	movq	%rsp, %rbp
	.cfi_def_cfa_register %rbp
	pushq	%rbx
	subq	$72, %rsp
	.cfi_offset %rbx, -24
	movl	$84572210, -36(%rbp)    # imm = 0x50A7832
	movq	%rdi, -16(%rbp)
	movq	-16(%rbp), %rax
	movq	584(%rax), %rax
	movq	%rax, -72(%rbp)
	movq	-16(%rbp), %rax
	movq	592(%rax), %rax
	movq	%rax, -64(%rbp)
	movq	-16(%rbp), %rax
	movq	552(%rax), %rax
	movq	%rax, -24(%rbp)
	movq	-16(%rbp), %rax
	movq	560(%rax), %rax
	movq	%rax, -80(%rbp)
	movq	-24(%rbp), %rax
	addq	$104, %rax
	movq	%rax, -24(%rbp)
.LBB31_1:                               # %for.cond
                                        # =>This Inner Loop Header: Depth=1
	movq	-24(%rbp), %rax
	movq	-80(%rbp), %rcx
	cmpq	%rcx, %rax
	jae	.LBB31_16
# %bb.2:                                # %for.body
                                        #   in Loop: Header=BB31_1 Depth=1
	movq	-24(%rbp), %rax
	movq	48(%rax), %rax
	movq	%rax, -56(%rbp)
	movq	-24(%rbp), %rax
	movq	80(%rax), %rax
	movq	%rax, -32(%rbp)
	movq	-56(%rbp), %rax
	cmpq	-72(%rbp), %rax
	jb	.LBB31_10
# %bb.3:                                # %land.lhs.true
                                        #   in Loop: Header=BB31_1 Depth=1
	movq	-56(%rbp), %rax
	cmpq	-64(%rbp), %rax
	jae	.LBB31_10
# %bb.4:                                # %if.then
                                        #   in Loop: Header=BB31_1 Depth=1
	cmpq	$0, -32(%rbp)
	jl	.LBB31_6
# %bb.5:                                # %cond.true
                                        #   in Loop: Header=BB31_1 Depth=1
	movq	-32(%rbp), %rax
	jmp	.LBB31_7
.LBB31_6:                               # %cond.false
                                        #   in Loop: Header=BB31_1 Depth=1
	xorl	%eax, %eax
	subq	-32(%rbp), %rax
.LBB31_7:                               # %cond.end
                                        #   in Loop: Header=BB31_1 Depth=1
	movq	-16(%rbp), %rcx
	cmpq	512(%rcx), %rax
	jle	.LBB31_9
# %bb.8:                                # %if.then7
                                        #   in Loop: Header=BB31_1 Depth=1
	movabsq	$.L.str, %rdi
	movb	$0, %al
	callq	printf
	movq	-24(%rbp), %rax
	movl	96(%rax), %esi
	movq	-32(%rbp), %rdx
	movabsq	$.L.str.1, %rdi
	movb	$0, %al
	callq	printf
.LBB31_9:                               # %if.end
                                        #   in Loop: Header=BB31_1 Depth=1
	jmp	.LBB31_14
.LBB31_10:                              # %if.else
                                        #   in Loop: Header=BB31_1 Depth=1
	xorl	%eax, %eax
	movq	-32(%rbp), %rcx
	movq	-16(%rbp), %rdx
	subq	512(%rdx), %rax
	cmpq	%rax, %rcx
	jl	.LBB31_12
# %bb.11:                               # %lor.lhs.false
                                        #   in Loop: Header=BB31_1 Depth=1
	movq	-32(%rbp), %rax
	subq	$1, %rax
	movq	-16(%rbp), %rcx
	cmpq	512(%rcx), %rax
	jle	.LBB31_13
.LBB31_12:                              # %if.then15
	movabsq	$.L.str, %rdi
	movb	$0, %al
	callq	printf
	movq	-32(%rbp), %rsi
	movabsq	$.L.str.2, %rdi
	movb	$0, %al
	callq	printf
	movq	-16(%rbp), %rax
	movq	$0, 488(%rax)
	movq	$1, -48(%rbp)
	jmp	.LBB31_17
.LBB31_13:                              # %if.end18
                                        #   in Loop: Header=BB31_1 Depth=1
	jmp	.LBB31_14
.LBB31_14:                              # %if.end19
                                        #   in Loop: Header=BB31_1 Depth=1
	jmp	.LBB31_15
.LBB31_15:                              # %for.inc
                                        #   in Loop: Header=BB31_1 Depth=1
	movq	-24(%rbp), %rax
	addq	$104, %rax
	movq	%rax, -24(%rbp)
	jmp	.LBB31_1
.LBB31_16:                              # %for.end
	movq	-16(%rbp), %rax
	movq	$1, 488(%rax)
	movq	$0, -48(%rbp)
.LBB31_17:                              # %return
	movq	-48(%rbp), %rbx
	cmpl	$84572210, -36(%rbp)    # imm = 0x50A7832
	jne	.LBB31_19
.LBB31_18:
	movq	%rbx, %rax
	addq	$72, %rsp
	popq	%rbx
	popq	%rbp
	.cfi_def_cfa %rsp, 8
	retq
.LBB31_19:                              # %func_exit
	.cfi_def_cfa %rbp, 16
	callq	detect_breach
	jmp	.LBB31_18
.Lfunc_end31:
	.size	primal_feasible.25, .Lfunc_end31-primal_feasible.25
	.cfi_endproc
                                        # -- End function
	.globl	flow_cost.26            # -- Begin function flow_cost.26
	.p2align	4, 0x90
	.type	flow_cost.26,@function
flow_cost.26:                           # @flow_cost.26
	.cfi_startproc
# %bb.0:                                # %entry
	pushq	%rbp
	.cfi_def_cfa_offset 16
	.cfi_offset %rbp, -16
	movq	%rsp, %rbp
	.cfi_def_cfa_register %rbp
	subq	$64, %rsp
	movl	$1749019444, -52(%rbp)  # imm = 0x683FEB34
	movq	%rdi, -16(%rbp)
	movq	$0, -48(%rbp)
	movq	$0, -32(%rbp)
	movq	-16(%rbp), %rax
	movq	576(%rax), %rax
	movq	%rax, -40(%rbp)
	movq	-16(%rbp), %rax
	movq	568(%rax), %rax
	movq	%rax, -8(%rbp)
.LBB32_1:                               # %for.cond
                                        # =>This Inner Loop Header: Depth=1
	movq	-8(%rbp), %rax
	movq	-40(%rbp), %rcx
	cmpq	%rcx, %rax
	je	.LBB32_7
# %bb.2:                                # %for.body
                                        #   in Loop: Header=BB32_1 Depth=1
	movq	-8(%rbp), %rax
	cmpl	$2, 24(%rax)
	jne	.LBB32_4
# %bb.3:                                # %if.then
                                        #   in Loop: Header=BB32_1 Depth=1
	movq	-8(%rbp), %rax
	movq	$1, 48(%rax)
	jmp	.LBB32_5
.LBB32_4:                               # %if.else
                                        #   in Loop: Header=BB32_1 Depth=1
	movq	-8(%rbp), %rax
	movq	$0, 48(%rax)
.LBB32_5:                               # %if.end
                                        #   in Loop: Header=BB32_1 Depth=1
	jmp	.LBB32_6
.LBB32_6:                               # %for.inc
                                        #   in Loop: Header=BB32_1 Depth=1
	movq	-8(%rbp), %rax
	addq	$64, %rax
	movq	%rax, -8(%rbp)
	jmp	.LBB32_1
.LBB32_7:                               # %for.end
	movq	-16(%rbp), %rax
	movq	560(%rax), %rax
	movq	%rax, -40(%rbp)
	movq	-16(%rbp), %rax
	movq	552(%rax), %rax
	movq	%rax, -24(%rbp)
	movq	-24(%rbp), %rax
	addq	$104, %rax
	movq	%rax, -24(%rbp)
.LBB32_8:                               # %for.cond4
                                        # =>This Inner Loop Header: Depth=1
	movq	-24(%rbp), %rax
	movq	-40(%rbp), %rcx
	cmpq	%rcx, %rax
	je	.LBB32_11
# %bb.9:                                # %for.body6
                                        #   in Loop: Header=BB32_8 Depth=1
	movq	-24(%rbp), %rax
	movq	80(%rax), %rax
	movq	-24(%rbp), %rcx
	movq	48(%rcx), %rcx
	movq	%rax, 48(%rcx)
# %bb.10:                               # %for.inc9
                                        #   in Loop: Header=BB32_8 Depth=1
	movq	-24(%rbp), %rax
	addq	$104, %rax
	movq	%rax, -24(%rbp)
	jmp	.LBB32_8
.LBB32_11:                              # %for.end11
	movq	-16(%rbp), %rax
	movq	576(%rax), %rax
	movq	%rax, -40(%rbp)
	movq	-16(%rbp), %rax
	movq	568(%rax), %rax
	movq	%rax, -8(%rbp)
.LBB32_12:                              # %for.cond14
                                        # =>This Inner Loop Header: Depth=1
	movq	-8(%rbp), %rax
	movq	-40(%rbp), %rcx
	cmpq	%rcx, %rax
	je	.LBB32_23
# %bb.13:                               # %for.body16
                                        #   in Loop: Header=BB32_12 Depth=1
	movq	-8(%rbp), %rax
	cmpq	$0, 48(%rax)
	je	.LBB32_21
# %bb.14:                               # %if.then18
                                        #   in Loop: Header=BB32_12 Depth=1
	movq	-8(%rbp), %rax
	movq	8(%rax), %rax
	cmpl	$0, 96(%rax)
	jge	.LBB32_16
# %bb.15:                               # %land.lhs.true
                                        #   in Loop: Header=BB32_12 Depth=1
	movq	-8(%rbp), %rax
	movq	16(%rax), %rax
	cmpl	$0, 96(%rax)
	jg	.LBB32_20
.LBB32_16:                              # %if.then22
                                        #   in Loop: Header=BB32_12 Depth=1
	movq	-8(%rbp), %rax
	movq	8(%rax), %rax
	cmpl	$0, 96(%rax)
	jne	.LBB32_18
# %bb.17:                               # %if.then26
                                        #   in Loop: Header=BB32_12 Depth=1
	movq	-8(%rbp), %rax
	movq	(%rax), %rax
	movq	-16(%rbp), %rcx
	subq	528(%rcx), %rax
	addq	-32(%rbp), %rax
	movq	%rax, -32(%rbp)
	movq	-48(%rbp), %rax
	addq	$1, %rax
	movq	%rax, -48(%rbp)
	jmp	.LBB32_19
.LBB32_18:                              # %if.else27
                                        #   in Loop: Header=BB32_12 Depth=1
	movq	-8(%rbp), %rax
	movq	(%rax), %rax
	addq	-32(%rbp), %rax
	movq	%rax, -32(%rbp)
.LBB32_19:                              # %if.end30
                                        #   in Loop: Header=BB32_12 Depth=1
	jmp	.LBB32_20
.LBB32_20:                              # %if.end31
                                        #   in Loop: Header=BB32_12 Depth=1
	jmp	.LBB32_21
.LBB32_21:                              # %if.end32
                                        #   in Loop: Header=BB32_12 Depth=1
	jmp	.LBB32_22
.LBB32_22:                              # %for.inc33
                                        #   in Loop: Header=BB32_12 Depth=1
	movq	-8(%rbp), %rax
	addq	$64, %rax
	movq	%rax, -8(%rbp)
	jmp	.LBB32_12
.LBB32_23:                              # %for.end35
	vcvtsi2sdq	-48(%rbp), %xmm0, %xmm0
	movq	-16(%rbp), %rax
	vcvtsi2sdq	528(%rax), %xmm0, %xmm1
	vmulsd	%xmm1, %xmm0, %xmm0
	vcvtsi2sdq	-32(%rbp), %xmm0, %xmm1
	vaddsd	%xmm1, %xmm0, %xmm0
	cmpl	$1749019444, -52(%rbp)  # imm = 0x683FEB34
	jne	.LBB32_25
.LBB32_24:
	addq	$64, %rsp
	popq	%rbp
	.cfi_def_cfa %rsp, 8
	retq
.LBB32_25:                              # %func_exit
	.cfi_def_cfa %rbp, 16
	vmovsd	%xmm0, -64(%rbp)        # 8-byte Spill
	callq	detect_breach
	vmovsd	-64(%rbp), %xmm0        # 8-byte Reload
                                        # xmm0 = mem[0],zero
	jmp	.LBB32_24
.Lfunc_end32:
	.size	flow_cost.26, .Lfunc_end32-flow_cost.26
	.cfi_endproc
                                        # -- End function
	.globl	refresh_potential.27    # -- Begin function refresh_potential.27
	.p2align	4, 0x90
	.type	refresh_potential.27,@function
refresh_potential.27:                   # @refresh_potential.27
	.cfi_startproc
# %bb.0:                                # %entry
	pushq	%rbp
	.cfi_def_cfa_offset 16
	.cfi_offset %rbp, -16
	movq	%rsp, %rbp
	.cfi_def_cfa_register %rbp
	pushq	%rbx
	subq	$56, %rsp
	.cfi_offset %rbx, -24
	movl	$42152256, -44(%rbp)    # imm = 0x2833140
	movq	%rdi, -56(%rbp)
	movq	-56(%rbp), %rax
	movq	552(%rax), %rax
	movq	%rax, -40(%rbp)
	movq	$0, -32(%rbp)
	movq	-40(%rbp), %rax
	movq	$-100000000, (%rax)     # imm = 0xFA0A1F00
	movq	-40(%rbp), %rax
	movq	16(%rax), %rax
	movq	%rax, -16(%rbp)
	movq	%rax, -24(%rbp)
.LBB33_1:                               # %while.cond
                                        # =>This Loop Header: Depth=1
                                        #     Child Loop BB33_3 Depth 2
                                        #     Child Loop BB33_9 Depth 2
	movq	-16(%rbp), %rax
	cmpq	-40(%rbp), %rax
	je	.LBB33_16
# %bb.2:                                # %while.body
                                        #   in Loop: Header=BB33_1 Depth=1
	jmp	.LBB33_3
.LBB33_3:                               # %while.cond1
                                        #   Parent Loop BB33_1 Depth=1
                                        # =>  This Inner Loop Header: Depth=2
	cmpq	$0, -16(%rbp)
	je	.LBB33_8
# %bb.4:                                # %while.body2
                                        #   in Loop: Header=BB33_3 Depth=2
	movq	-16(%rbp), %rax
	cmpl	$1, 8(%rax)
	jne	.LBB33_6
# %bb.5:                                # %if.then
                                        #   in Loop: Header=BB33_3 Depth=2
	movq	-16(%rbp), %rax
	movq	48(%rax), %rax
	movq	(%rax), %rax
	movq	-16(%rbp), %rcx
	movq	24(%rcx), %rcx
	addq	(%rcx), %rax
	movq	-16(%rbp), %rcx
	movq	%rax, (%rcx)
	jmp	.LBB33_7
.LBB33_6:                               # %if.else
                                        #   in Loop: Header=BB33_3 Depth=2
	movq	-16(%rbp), %rax
	movq	24(%rax), %rax
	movq	(%rax), %rax
	movq	-16(%rbp), %rcx
	movq	48(%rcx), %rcx
	subq	(%rcx), %rax
	movq	-16(%rbp), %rcx
	movq	%rax, (%rcx)
	movq	-32(%rbp), %rax
	addq	$1, %rax
	movq	%rax, -32(%rbp)
.LBB33_7:                               # %if.end
                                        #   in Loop: Header=BB33_3 Depth=2
	movq	-16(%rbp), %rax
	movq	%rax, -24(%rbp)
	movq	-16(%rbp), %rax
	movq	16(%rax), %rax
	movq	%rax, -16(%rbp)
	jmp	.LBB33_3
.LBB33_8:                               # %while.end
                                        #   in Loop: Header=BB33_1 Depth=1
	movq	-24(%rbp), %rax
	movq	%rax, -16(%rbp)
.LBB33_9:                               # %while.cond12
                                        #   Parent Loop BB33_1 Depth=1
                                        # =>  This Inner Loop Header: Depth=2
	movq	-16(%rbp), %rax
	cmpq	$0, 24(%rax)
	je	.LBB33_14
# %bb.10:                               # %while.body15
                                        #   in Loop: Header=BB33_9 Depth=2
	movq	-16(%rbp), %rax
	movq	32(%rax), %rax
	movq	%rax, -24(%rbp)
	cmpq	$0, -24(%rbp)
	je	.LBB33_12
# %bb.11:                               # %if.then17
                                        #   in Loop: Header=BB33_1 Depth=1
	movq	-24(%rbp), %rax
	movq	%rax, -16(%rbp)
	jmp	.LBB33_15
.LBB33_12:                              # %if.else18
                                        #   in Loop: Header=BB33_9 Depth=2
	movq	-16(%rbp), %rax
	movq	24(%rax), %rax
	movq	%rax, -16(%rbp)
# %bb.13:                               # %if.end20
                                        #   in Loop: Header=BB33_9 Depth=2
	jmp	.LBB33_9
.LBB33_14:                              # %while.end21.loopexit
                                        #   in Loop: Header=BB33_1 Depth=1
	jmp	.LBB33_15
.LBB33_15:                              # %while.end21
                                        #   in Loop: Header=BB33_1 Depth=1
	jmp	.LBB33_1
.LBB33_16:                              # %while.end22
	movq	-32(%rbp), %rbx
	cmpl	$42152256, -44(%rbp)    # imm = 0x2833140
	jne	.LBB33_18
.LBB33_17:
	movq	%rbx, %rax
	addq	$56, %rsp
	popq	%rbx
	popq	%rbp
	.cfi_def_cfa %rsp, 8
	retq
.LBB33_18:                              # %func_exit
	.cfi_def_cfa %rbp, 16
	callq	detect_breach
	jmp	.LBB33_17
.Lfunc_end33:
	.size	refresh_potential.27, .Lfunc_end33-refresh_potential.27
	.cfi_endproc
                                        # -- End function
	.globl	refresh_potential.28    # -- Begin function refresh_potential.28
	.p2align	4, 0x90
	.type	refresh_potential.28,@function
refresh_potential.28:                   # @refresh_potential.28
	.cfi_startproc
# %bb.0:                                # %entry
	pushq	%rbp
	.cfi_def_cfa_offset 16
	.cfi_offset %rbp, -16
	movq	%rsp, %rbp
	.cfi_def_cfa_register %rbp
	pushq	%rbx
	subq	$56, %rsp
	.cfi_offset %rbx, -24
	movl	$90589655, -44(%rbp)    # imm = 0x56649D7
	movq	%rdi, -56(%rbp)
	movq	-56(%rbp), %rax
	movq	552(%rax), %rax
	movq	%rax, -32(%rbp)
	movq	$0, -40(%rbp)
	movq	-32(%rbp), %rax
	movq	$-100000000, (%rax)     # imm = 0xFA0A1F00
	movq	-32(%rbp), %rax
	movq	16(%rax), %rax
	movq	%rax, -16(%rbp)
	movq	%rax, -24(%rbp)
.LBB34_1:                               # %while.cond
                                        # =>This Loop Header: Depth=1
                                        #     Child Loop BB34_3 Depth 2
                                        #     Child Loop BB34_9 Depth 2
	movq	-16(%rbp), %rax
	cmpq	-32(%rbp), %rax
	je	.LBB34_16
# %bb.2:                                # %while.body
                                        #   in Loop: Header=BB34_1 Depth=1
	jmp	.LBB34_3
.LBB34_3:                               # %while.cond1
                                        #   Parent Loop BB34_1 Depth=1
                                        # =>  This Inner Loop Header: Depth=2
	cmpq	$0, -16(%rbp)
	je	.LBB34_8
# %bb.4:                                # %while.body2
                                        #   in Loop: Header=BB34_3 Depth=2
	movq	-16(%rbp), %rax
	cmpl	$1, 8(%rax)
	jne	.LBB34_6
# %bb.5:                                # %if.then
                                        #   in Loop: Header=BB34_3 Depth=2
	movq	-16(%rbp), %rax
	movq	48(%rax), %rax
	movq	(%rax), %rax
	movq	-16(%rbp), %rcx
	movq	24(%rcx), %rcx
	addq	(%rcx), %rax
	movq	-16(%rbp), %rcx
	movq	%rax, (%rcx)
	jmp	.LBB34_7
.LBB34_6:                               # %if.else
                                        #   in Loop: Header=BB34_3 Depth=2
	movq	-16(%rbp), %rax
	movq	24(%rax), %rax
	movq	(%rax), %rax
	movq	-16(%rbp), %rcx
	movq	48(%rcx), %rcx
	subq	(%rcx), %rax
	movq	-16(%rbp), %rcx
	movq	%rax, (%rcx)
	movq	-40(%rbp), %rax
	addq	$1, %rax
	movq	%rax, -40(%rbp)
.LBB34_7:                               # %if.end
                                        #   in Loop: Header=BB34_3 Depth=2
	movq	-16(%rbp), %rax
	movq	%rax, -24(%rbp)
	movq	-16(%rbp), %rax
	movq	16(%rax), %rax
	movq	%rax, -16(%rbp)
	jmp	.LBB34_3
.LBB34_8:                               # %while.end
                                        #   in Loop: Header=BB34_1 Depth=1
	movq	-24(%rbp), %rax
	movq	%rax, -16(%rbp)
.LBB34_9:                               # %while.cond12
                                        #   Parent Loop BB34_1 Depth=1
                                        # =>  This Inner Loop Header: Depth=2
	movq	-16(%rbp), %rax
	cmpq	$0, 24(%rax)
	je	.LBB34_14
# %bb.10:                               # %while.body15
                                        #   in Loop: Header=BB34_9 Depth=2
	movq	-16(%rbp), %rax
	movq	32(%rax), %rax
	movq	%rax, -24(%rbp)
	cmpq	$0, -24(%rbp)
	je	.LBB34_12
# %bb.11:                               # %if.then17
                                        #   in Loop: Header=BB34_1 Depth=1
	movq	-24(%rbp), %rax
	movq	%rax, -16(%rbp)
	jmp	.LBB34_15
.LBB34_12:                              # %if.else18
                                        #   in Loop: Header=BB34_9 Depth=2
	movq	-16(%rbp), %rax
	movq	24(%rax), %rax
	movq	%rax, -16(%rbp)
# %bb.13:                               # %if.end20
                                        #   in Loop: Header=BB34_9 Depth=2
	jmp	.LBB34_9
.LBB34_14:                              # %while.end21.loopexit
                                        #   in Loop: Header=BB34_1 Depth=1
	jmp	.LBB34_15
.LBB34_15:                              # %while.end21
                                        #   in Loop: Header=BB34_1 Depth=1
	jmp	.LBB34_1
.LBB34_16:                              # %while.end22
	movq	-40(%rbp), %rbx
	cmpl	$90589655, -44(%rbp)    # imm = 0x56649D7
	jne	.LBB34_18
.LBB34_17:
	movq	%rbx, %rax
	addq	$56, %rsp
	popq	%rbx
	popq	%rbp
	.cfi_def_cfa %rsp, 8
	retq
.LBB34_18:                              # %func_exit
	.cfi_def_cfa %rbp, 16
	callq	detect_breach
	jmp	.LBB34_17
.Lfunc_end34:
	.size	refresh_potential.28, .Lfunc_end34-refresh_potential.28
	.cfi_endproc
                                        # -- End function
	.globl	primal_feasible.29      # -- Begin function primal_feasible.29
	.p2align	4, 0x90
	.type	primal_feasible.29,@function
primal_feasible.29:                     # @primal_feasible.29
	.cfi_startproc
# %bb.0:                                # %entry
	pushq	%rbp
	.cfi_def_cfa_offset 16
	.cfi_offset %rbp, -16
	movq	%rsp, %rbp
	.cfi_def_cfa_register %rbp
	pushq	%rbx
	subq	$72, %rsp
	.cfi_offset %rbx, -24
	movl	$1819955431, -36(%rbp)  # imm = 0x6C7A50E7
	movq	%rdi, -16(%rbp)
	movq	-16(%rbp), %rax
	movq	584(%rax), %rax
	movq	%rax, -80(%rbp)
	movq	-16(%rbp), %rax
	movq	592(%rax), %rax
	movq	%rax, -72(%rbp)
	movq	-16(%rbp), %rax
	movq	552(%rax), %rax
	movq	%rax, -24(%rbp)
	movq	-16(%rbp), %rax
	movq	560(%rax), %rax
	movq	%rax, -64(%rbp)
	movq	-24(%rbp), %rax
	addq	$104, %rax
	movq	%rax, -24(%rbp)
.LBB35_1:                               # %for.cond
                                        # =>This Inner Loop Header: Depth=1
	movq	-24(%rbp), %rax
	movq	-64(%rbp), %rcx
	cmpq	%rcx, %rax
	jae	.LBB35_16
# %bb.2:                                # %for.body
                                        #   in Loop: Header=BB35_1 Depth=1
	movq	-24(%rbp), %rax
	movq	48(%rax), %rax
	movq	%rax, -56(%rbp)
	movq	-24(%rbp), %rax
	movq	80(%rax), %rax
	movq	%rax, -32(%rbp)
	movq	-56(%rbp), %rax
	cmpq	-80(%rbp), %rax
	jb	.LBB35_10
# %bb.3:                                # %land.lhs.true
                                        #   in Loop: Header=BB35_1 Depth=1
	movq	-56(%rbp), %rax
	cmpq	-72(%rbp), %rax
	jae	.LBB35_10
# %bb.4:                                # %if.then
                                        #   in Loop: Header=BB35_1 Depth=1
	cmpq	$0, -32(%rbp)
	jl	.LBB35_6
# %bb.5:                                # %cond.true
                                        #   in Loop: Header=BB35_1 Depth=1
	movq	-32(%rbp), %rax
	jmp	.LBB35_7
.LBB35_6:                               # %cond.false
                                        #   in Loop: Header=BB35_1 Depth=1
	xorl	%eax, %eax
	subq	-32(%rbp), %rax
.LBB35_7:                               # %cond.end
                                        #   in Loop: Header=BB35_1 Depth=1
	movq	-16(%rbp), %rcx
	cmpq	512(%rcx), %rax
	jle	.LBB35_9
# %bb.8:                                # %if.then7
                                        #   in Loop: Header=BB35_1 Depth=1
	movabsq	$.L.str, %rdi
	movb	$0, %al
	callq	printf
	movq	-24(%rbp), %rax
	movl	96(%rax), %esi
	movq	-32(%rbp), %rdx
	movabsq	$.L.str.1, %rdi
	movb	$0, %al
	callq	printf
.LBB35_9:                               # %if.end
                                        #   in Loop: Header=BB35_1 Depth=1
	jmp	.LBB35_14
.LBB35_10:                              # %if.else
                                        #   in Loop: Header=BB35_1 Depth=1
	xorl	%eax, %eax
	movq	-32(%rbp), %rcx
	movq	-16(%rbp), %rdx
	subq	512(%rdx), %rax
	cmpq	%rax, %rcx
	jl	.LBB35_12
# %bb.11:                               # %lor.lhs.false
                                        #   in Loop: Header=BB35_1 Depth=1
	movq	-32(%rbp), %rax
	subq	$1, %rax
	movq	-16(%rbp), %rcx
	cmpq	512(%rcx), %rax
	jle	.LBB35_13
.LBB35_12:                              # %if.then15
	movabsq	$.L.str, %rdi
	movb	$0, %al
	callq	printf
	movq	-32(%rbp), %rsi
	movabsq	$.L.str.2, %rdi
	movb	$0, %al
	callq	printf
	movq	-16(%rbp), %rax
	movq	$0, 488(%rax)
	movq	$1, -48(%rbp)
	jmp	.LBB35_17
.LBB35_13:                              # %if.end18
                                        #   in Loop: Header=BB35_1 Depth=1
	jmp	.LBB35_14
.LBB35_14:                              # %if.end19
                                        #   in Loop: Header=BB35_1 Depth=1
	jmp	.LBB35_15
.LBB35_15:                              # %for.inc
                                        #   in Loop: Header=BB35_1 Depth=1
	movq	-24(%rbp), %rax
	addq	$104, %rax
	movq	%rax, -24(%rbp)
	jmp	.LBB35_1
.LBB35_16:                              # %for.end
	movq	-16(%rbp), %rax
	movq	$1, 488(%rax)
	movq	$0, -48(%rbp)
.LBB35_17:                              # %return
	movq	-48(%rbp), %rbx
	cmpl	$1819955431, -36(%rbp)  # imm = 0x6C7A50E7
	jne	.LBB35_19
.LBB35_18:
	movq	%rbx, %rax
	addq	$72, %rsp
	popq	%rbx
	popq	%rbp
	.cfi_def_cfa %rsp, 8
	retq
.LBB35_19:                              # %func_exit
	.cfi_def_cfa %rbp, 16
	callq	detect_breach
	jmp	.LBB35_18
.Lfunc_end35:
	.size	primal_feasible.29, .Lfunc_end35-primal_feasible.29
	.cfi_endproc
                                        # -- End function
	.globl	dual_feasible.30        # -- Begin function dual_feasible.30
	.p2align	4, 0x90
	.type	dual_feasible.30,@function
dual_feasible.30:                       # @dual_feasible.30
	.cfi_startproc
# %bb.0:                                # %entry
	pushq	%rbp
	.cfi_def_cfa_offset 16
	.cfi_offset %rbp, -16
	movq	%rsp, %rbp
	.cfi_def_cfa_register %rbp
	pushq	%rbx
	subq	$56, %rsp
	.cfi_offset %rbx, -24
	movl	$328713157, -28(%rbp)   # imm = 0x1397C3C5
	movq	%rdi, -24(%rbp)
	movq	-24(%rbp), %rax
	movq	576(%rax), %rax
	movq	%rax, -56(%rbp)
	movq	-24(%rbp), %rax
	movq	568(%rax), %rax
	movq	%rax, -16(%rbp)
.LBB36_1:                               # %for.cond
                                        # =>This Inner Loop Header: Depth=1
	movq	-16(%rbp), %rax
	cmpq	-56(%rbp), %rax
	jae	.LBB36_15
# %bb.2:                                # %for.body
                                        #   in Loop: Header=BB36_1 Depth=1
	movq	-16(%rbp), %rax
	movq	(%rax), %rcx
	movq	8(%rax), %rdx
	movq	(%rdx), %rdx
	subq	%rdx, %rcx
	movq	16(%rax), %rax
	movq	(%rax), %rax
	addq	%rax, %rcx
	movq	%rcx, -40(%rbp)
	movq	-16(%rbp), %rax
	movl	24(%rax), %eax
	movl	%eax, %ecx
	subl	$-1, %ecx
	je	.LBB36_11
	jmp	.LBB36_3
.LBB36_3:                               # %for.body
                                        #   in Loop: Header=BB36_1 Depth=1
	movl	%eax, %ecx
	subl	$2, %ecx
	jb	.LBB36_5
	jmp	.LBB36_4
.LBB36_4:                               # %for.body
                                        #   in Loop: Header=BB36_1 Depth=1
	subl	$2, %eax
	je	.LBB36_8
	jmp	.LBB36_12
.LBB36_5:                               # %sw.bb
                                        #   in Loop: Header=BB36_1 Depth=1
	xorl	%eax, %eax
	movq	-40(%rbp), %rcx
	movq	-24(%rbp), %rdx
	subq	512(%rdx), %rax
	cmpq	%rax, %rcx
	jge	.LBB36_7
# %bb.6:                                # %if.then
	jmp	.LBB36_16
.LBB36_7:                               # %if.end
                                        #   in Loop: Header=BB36_1 Depth=1
	jmp	.LBB36_13
.LBB36_8:                               # %sw.bb4
                                        #   in Loop: Header=BB36_1 Depth=1
	movq	-40(%rbp), %rax
	movq	-24(%rbp), %rcx
	cmpq	512(%rcx), %rax
	jle	.LBB36_10
# %bb.9:                                # %if.then7
	jmp	.LBB36_16
.LBB36_10:                              # %if.end8
                                        #   in Loop: Header=BB36_1 Depth=1
	jmp	.LBB36_13
.LBB36_11:                              # %sw.bb9
                                        #   in Loop: Header=BB36_1 Depth=1
	jmp	.LBB36_12
.LBB36_12:                              # %sw.default
                                        #   in Loop: Header=BB36_1 Depth=1
	jmp	.LBB36_13
.LBB36_13:                              # %sw.epilog
                                        #   in Loop: Header=BB36_1 Depth=1
	jmp	.LBB36_14
.LBB36_14:                              # %for.inc
                                        #   in Loop: Header=BB36_1 Depth=1
	movq	-16(%rbp), %rax
	addq	$64, %rax
	movq	%rax, -16(%rbp)
	jmp	.LBB36_1
.LBB36_15:                              # %for.end
	movq	$0, -48(%rbp)
	jmp	.LBB36_17
.LBB36_16:                              # %DUAL_INFEAS
	movq	stderr, %rdi
	movabsq	$.L.str.3, %rsi
	movb	$0, %al
	callq	fprintf
	movq	stderr, %rdi
	movabsq	$.L.str.4, %rsi
	movb	$0, %al
	callq	fprintf
	movq	$1, -48(%rbp)
.LBB36_17:                              # %return
	movq	-48(%rbp), %rbx
	cmpl	$328713157, -28(%rbp)   # imm = 0x1397C3C5
	jne	.LBB36_19
.LBB36_18:
	movq	%rbx, %rax
	addq	$56, %rsp
	popq	%rbx
	popq	%rbp
	.cfi_def_cfa %rsp, 8
	retq
.LBB36_19:                              # %func_exit
	.cfi_def_cfa %rbp, 16
	callq	detect_breach
	jmp	.LBB36_18
.Lfunc_end36:
	.size	dual_feasible.30, .Lfunc_end36-dual_feasible.30
	.cfi_endproc
                                        # -- End function
	.globl	flow_org_cost.31        # -- Begin function flow_org_cost.31
	.p2align	4, 0x90
	.type	flow_org_cost.31,@function
flow_org_cost.31:                       # @flow_org_cost.31
	.cfi_startproc
# %bb.0:                                # %entry
	pushq	%rbp
	.cfi_def_cfa_offset 16
	.cfi_offset %rbp, -16
	movq	%rsp, %rbp
	.cfi_def_cfa_register %rbp
	subq	$64, %rsp
	movl	$987334934, -52(%rbp)   # imm = 0x3AD98916
	movq	%rdi, -16(%rbp)
	movq	$0, -48(%rbp)
	movq	$0, -40(%rbp)
	movq	-16(%rbp), %rax
	movq	576(%rax), %rax
	movq	%rax, -32(%rbp)
	movq	-16(%rbp), %rax
	movq	568(%rax), %rax
	movq	%rax, -8(%rbp)
.LBB37_1:                               # %for.cond
                                        # =>This Inner Loop Header: Depth=1
	movq	-8(%rbp), %rax
	movq	-32(%rbp), %rcx
	cmpq	%rcx, %rax
	je	.LBB37_7
# %bb.2:                                # %for.body
                                        #   in Loop: Header=BB37_1 Depth=1
	movq	-8(%rbp), %rax
	cmpl	$2, 24(%rax)
	jne	.LBB37_4
# %bb.3:                                # %if.then
                                        #   in Loop: Header=BB37_1 Depth=1
	movq	-8(%rbp), %rax
	movq	$1, 48(%rax)
	jmp	.LBB37_5
.LBB37_4:                               # %if.else
                                        #   in Loop: Header=BB37_1 Depth=1
	movq	-8(%rbp), %rax
	movq	$0, 48(%rax)
.LBB37_5:                               # %if.end
                                        #   in Loop: Header=BB37_1 Depth=1
	jmp	.LBB37_6
.LBB37_6:                               # %for.inc
                                        #   in Loop: Header=BB37_1 Depth=1
	movq	-8(%rbp), %rax
	addq	$64, %rax
	movq	%rax, -8(%rbp)
	jmp	.LBB37_1
.LBB37_7:                               # %for.end
	movq	-16(%rbp), %rax
	movq	560(%rax), %rax
	movq	%rax, -32(%rbp)
	movq	-16(%rbp), %rax
	movq	552(%rax), %rax
	movq	%rax, -24(%rbp)
	movq	-24(%rbp), %rax
	addq	$104, %rax
	movq	%rax, -24(%rbp)
.LBB37_8:                               # %for.cond4
                                        # =>This Inner Loop Header: Depth=1
	movq	-24(%rbp), %rax
	movq	-32(%rbp), %rcx
	cmpq	%rcx, %rax
	je	.LBB37_11
# %bb.9:                                # %for.body6
                                        #   in Loop: Header=BB37_8 Depth=1
	movq	-24(%rbp), %rax
	movq	80(%rax), %rax
	movq	-24(%rbp), %rcx
	movq	48(%rcx), %rcx
	movq	%rax, 48(%rcx)
# %bb.10:                               # %for.inc9
                                        #   in Loop: Header=BB37_8 Depth=1
	movq	-24(%rbp), %rax
	addq	$104, %rax
	movq	%rax, -24(%rbp)
	jmp	.LBB37_8
.LBB37_11:                              # %for.end11
	movq	-16(%rbp), %rax
	movq	576(%rax), %rax
	movq	%rax, -32(%rbp)
	movq	-16(%rbp), %rax
	movq	568(%rax), %rax
	movq	%rax, -8(%rbp)
.LBB37_12:                              # %for.cond14
                                        # =>This Inner Loop Header: Depth=1
	movq	-8(%rbp), %rax
	movq	-32(%rbp), %rcx
	cmpq	%rcx, %rax
	je	.LBB37_23
# %bb.13:                               # %for.body16
                                        #   in Loop: Header=BB37_12 Depth=1
	movq	-8(%rbp), %rax
	cmpq	$0, 48(%rax)
	je	.LBB37_21
# %bb.14:                               # %if.then18
                                        #   in Loop: Header=BB37_12 Depth=1
	movq	-8(%rbp), %rax
	movq	8(%rax), %rax
	cmpl	$0, 96(%rax)
	jge	.LBB37_16
# %bb.15:                               # %land.lhs.true
                                        #   in Loop: Header=BB37_12 Depth=1
	movq	-8(%rbp), %rax
	movq	16(%rax), %rax
	cmpl	$0, 96(%rax)
	jg	.LBB37_20
.LBB37_16:                              # %if.then22
                                        #   in Loop: Header=BB37_12 Depth=1
	movq	-8(%rbp), %rax
	movq	8(%rax), %rax
	cmpl	$0, 96(%rax)
	jne	.LBB37_18
# %bb.17:                               # %if.then26
                                        #   in Loop: Header=BB37_12 Depth=1
	movq	-8(%rbp), %rax
	movq	56(%rax), %rax
	movq	-16(%rbp), %rcx
	subq	528(%rcx), %rax
	addq	-40(%rbp), %rax
	movq	%rax, -40(%rbp)
	movq	-48(%rbp), %rax
	addq	$1, %rax
	movq	%rax, -48(%rbp)
	jmp	.LBB37_19
.LBB37_18:                              # %if.else27
                                        #   in Loop: Header=BB37_12 Depth=1
	movq	-8(%rbp), %rax
	movq	56(%rax), %rax
	addq	-40(%rbp), %rax
	movq	%rax, -40(%rbp)
.LBB37_19:                              # %if.end30
                                        #   in Loop: Header=BB37_12 Depth=1
	jmp	.LBB37_20
.LBB37_20:                              # %if.end31
                                        #   in Loop: Header=BB37_12 Depth=1
	jmp	.LBB37_21
.LBB37_21:                              # %if.end32
                                        #   in Loop: Header=BB37_12 Depth=1
	jmp	.LBB37_22
.LBB37_22:                              # %for.inc33
                                        #   in Loop: Header=BB37_12 Depth=1
	movq	-8(%rbp), %rax
	addq	$64, %rax
	movq	%rax, -8(%rbp)
	jmp	.LBB37_12
.LBB37_23:                              # %for.end35
	vcvtsi2sdq	-48(%rbp), %xmm0, %xmm0
	movq	-16(%rbp), %rax
	vcvtsi2sdq	528(%rax), %xmm0, %xmm1
	vmulsd	%xmm1, %xmm0, %xmm0
	vcvtsi2sdq	-40(%rbp), %xmm0, %xmm1
	vaddsd	%xmm1, %xmm0, %xmm0
	cmpl	$987334934, -52(%rbp)   # imm = 0x3AD98916
	jne	.LBB37_25
.LBB37_24:
	addq	$64, %rsp
	popq	%rbp
	.cfi_def_cfa %rsp, 8
	retq
.LBB37_25:                              # %func_exit
	.cfi_def_cfa %rbp, 16
	vmovsd	%xmm0, -64(%rbp)        # 8-byte Spill
	callq	detect_breach
	vmovsd	-64(%rbp), %xmm0        # 8-byte Reload
                                        # xmm0 = mem[0],zero
	jmp	.LBB37_24
.Lfunc_end37:
	.size	flow_org_cost.31, .Lfunc_end37-flow_org_cost.31
	.cfi_endproc
                                        # -- End function
	.globl	primal_feasible.32      # -- Begin function primal_feasible.32
	.p2align	4, 0x90
	.type	primal_feasible.32,@function
primal_feasible.32:                     # @primal_feasible.32
	.cfi_startproc
# %bb.0:                                # %entry
	pushq	%rbp
	.cfi_def_cfa_offset 16
	.cfi_offset %rbp, -16
	movq	%rsp, %rbp
	.cfi_def_cfa_register %rbp
	pushq	%rbx
	subq	$72, %rsp
	.cfi_offset %rbx, -24
	movl	$686992870, -36(%rbp)   # imm = 0x28F2ADE6
	movq	%rdi, -16(%rbp)
	movq	-16(%rbp), %rax
	movq	584(%rax), %rax
	movq	%rax, -72(%rbp)
	movq	-16(%rbp), %rax
	movq	592(%rax), %rax
	movq	%rax, -80(%rbp)
	movq	-16(%rbp), %rax
	movq	552(%rax), %rax
	movq	%rax, -24(%rbp)
	movq	-16(%rbp), %rax
	movq	560(%rax), %rax
	movq	%rax, -64(%rbp)
	movq	-24(%rbp), %rax
	addq	$104, %rax
	movq	%rax, -24(%rbp)
.LBB38_1:                               # %for.cond
                                        # =>This Inner Loop Header: Depth=1
	movq	-24(%rbp), %rax
	movq	-64(%rbp), %rcx
	cmpq	%rcx, %rax
	jae	.LBB38_16
# %bb.2:                                # %for.body
                                        #   in Loop: Header=BB38_1 Depth=1
	movq	-24(%rbp), %rax
	movq	48(%rax), %rax
	movq	%rax, -48(%rbp)
	movq	-24(%rbp), %rax
	movq	80(%rax), %rax
	movq	%rax, -32(%rbp)
	movq	-48(%rbp), %rax
	cmpq	-72(%rbp), %rax
	jb	.LBB38_10
# %bb.3:                                # %land.lhs.true
                                        #   in Loop: Header=BB38_1 Depth=1
	movq	-48(%rbp), %rax
	cmpq	-80(%rbp), %rax
	jae	.LBB38_10
# %bb.4:                                # %if.then
                                        #   in Loop: Header=BB38_1 Depth=1
	cmpq	$0, -32(%rbp)
	jl	.LBB38_6
# %bb.5:                                # %cond.true
                                        #   in Loop: Header=BB38_1 Depth=1
	movq	-32(%rbp), %rax
	jmp	.LBB38_7
.LBB38_6:                               # %cond.false
                                        #   in Loop: Header=BB38_1 Depth=1
	xorl	%eax, %eax
	subq	-32(%rbp), %rax
.LBB38_7:                               # %cond.end
                                        #   in Loop: Header=BB38_1 Depth=1
	movq	-16(%rbp), %rcx
	cmpq	512(%rcx), %rax
	jle	.LBB38_9
# %bb.8:                                # %if.then7
                                        #   in Loop: Header=BB38_1 Depth=1
	movabsq	$.L.str, %rdi
	movb	$0, %al
	callq	printf
	movq	-24(%rbp), %rax
	movl	96(%rax), %esi
	movq	-32(%rbp), %rdx
	movabsq	$.L.str.1, %rdi
	movb	$0, %al
	callq	printf
.LBB38_9:                               # %if.end
                                        #   in Loop: Header=BB38_1 Depth=1
	jmp	.LBB38_14
.LBB38_10:                              # %if.else
                                        #   in Loop: Header=BB38_1 Depth=1
	xorl	%eax, %eax
	movq	-32(%rbp), %rcx
	movq	-16(%rbp), %rdx
	subq	512(%rdx), %rax
	cmpq	%rax, %rcx
	jl	.LBB38_12
# %bb.11:                               # %lor.lhs.false
                                        #   in Loop: Header=BB38_1 Depth=1
	movq	-32(%rbp), %rax
	subq	$1, %rax
	movq	-16(%rbp), %rcx
	cmpq	512(%rcx), %rax
	jle	.LBB38_13
.LBB38_12:                              # %if.then15
	movabsq	$.L.str, %rdi
	movb	$0, %al
	callq	printf
	movq	-32(%rbp), %rsi
	movabsq	$.L.str.2, %rdi
	movb	$0, %al
	callq	printf
	movq	-16(%rbp), %rax
	movq	$0, 488(%rax)
	movq	$1, -56(%rbp)
	jmp	.LBB38_17
.LBB38_13:                              # %if.end18
                                        #   in Loop: Header=BB38_1 Depth=1
	jmp	.LBB38_14
.LBB38_14:                              # %if.end19
                                        #   in Loop: Header=BB38_1 Depth=1
	jmp	.LBB38_15
.LBB38_15:                              # %for.inc
                                        #   in Loop: Header=BB38_1 Depth=1
	movq	-24(%rbp), %rax
	addq	$104, %rax
	movq	%rax, -24(%rbp)
	jmp	.LBB38_1
.LBB38_16:                              # %for.end
	movq	-16(%rbp), %rax
	movq	$1, 488(%rax)
	movq	$0, -56(%rbp)
.LBB38_17:                              # %return
	movq	-56(%rbp), %rbx
	cmpl	$686992870, -36(%rbp)   # imm = 0x28F2ADE6
	jne	.LBB38_19
.LBB38_18:
	movq	%rbx, %rax
	addq	$72, %rsp
	popq	%rbx
	popq	%rbp
	.cfi_def_cfa %rsp, 8
	retq
.LBB38_19:                              # %func_exit
	.cfi_def_cfa %rbp, 16
	callq	detect_breach
	jmp	.LBB38_18
.Lfunc_end38:
	.size	primal_feasible.32, .Lfunc_end38-primal_feasible.32
	.cfi_endproc
                                        # -- End function
	.globl	primal_feasible.33      # -- Begin function primal_feasible.33
	.p2align	4, 0x90
	.type	primal_feasible.33,@function
primal_feasible.33:                     # @primal_feasible.33
	.cfi_startproc
# %bb.0:                                # %entry
	pushq	%rbp
	.cfi_def_cfa_offset 16
	.cfi_offset %rbp, -16
	movq	%rsp, %rbp
	.cfi_def_cfa_register %rbp
	pushq	%rbx
	subq	$72, %rsp
	.cfi_offset %rbx, -24
	movl	$503448922, -36(%rbp)   # imm = 0x1E02055A
	movq	%rdi, -16(%rbp)
	movq	-16(%rbp), %rax
	movq	584(%rax), %rax
	movq	%rax, -80(%rbp)
	movq	-16(%rbp), %rax
	movq	592(%rax), %rax
	movq	%rax, -72(%rbp)
	movq	-16(%rbp), %rax
	movq	552(%rax), %rax
	movq	%rax, -24(%rbp)
	movq	-16(%rbp), %rax
	movq	560(%rax), %rax
	movq	%rax, -64(%rbp)
	movq	-24(%rbp), %rax
	addq	$104, %rax
	movq	%rax, -24(%rbp)
.LBB39_1:                               # %for.cond
                                        # =>This Inner Loop Header: Depth=1
	movq	-24(%rbp), %rax
	movq	-64(%rbp), %rcx
	cmpq	%rcx, %rax
	jae	.LBB39_16
# %bb.2:                                # %for.body
                                        #   in Loop: Header=BB39_1 Depth=1
	movq	-24(%rbp), %rax
	movq	48(%rax), %rax
	movq	%rax, -56(%rbp)
	movq	-24(%rbp), %rax
	movq	80(%rax), %rax
	movq	%rax, -32(%rbp)
	movq	-56(%rbp), %rax
	cmpq	-80(%rbp), %rax
	jb	.LBB39_10
# %bb.3:                                # %land.lhs.true
                                        #   in Loop: Header=BB39_1 Depth=1
	movq	-56(%rbp), %rax
	cmpq	-72(%rbp), %rax
	jae	.LBB39_10
# %bb.4:                                # %if.then
                                        #   in Loop: Header=BB39_1 Depth=1
	cmpq	$0, -32(%rbp)
	jl	.LBB39_6
# %bb.5:                                # %cond.true
                                        #   in Loop: Header=BB39_1 Depth=1
	movq	-32(%rbp), %rax
	jmp	.LBB39_7
.LBB39_6:                               # %cond.false
                                        #   in Loop: Header=BB39_1 Depth=1
	xorl	%eax, %eax
	subq	-32(%rbp), %rax
.LBB39_7:                               # %cond.end
                                        #   in Loop: Header=BB39_1 Depth=1
	movq	-16(%rbp), %rcx
	cmpq	512(%rcx), %rax
	jle	.LBB39_9
# %bb.8:                                # %if.then7
                                        #   in Loop: Header=BB39_1 Depth=1
	movabsq	$.L.str, %rdi
	movb	$0, %al
	callq	printf
	movq	-24(%rbp), %rax
	movl	96(%rax), %esi
	movq	-32(%rbp), %rdx
	movabsq	$.L.str.1, %rdi
	movb	$0, %al
	callq	printf
.LBB39_9:                               # %if.end
                                        #   in Loop: Header=BB39_1 Depth=1
	jmp	.LBB39_14
.LBB39_10:                              # %if.else
                                        #   in Loop: Header=BB39_1 Depth=1
	xorl	%eax, %eax
	movq	-32(%rbp), %rcx
	movq	-16(%rbp), %rdx
	subq	512(%rdx), %rax
	cmpq	%rax, %rcx
	jl	.LBB39_12
# %bb.11:                               # %lor.lhs.false
                                        #   in Loop: Header=BB39_1 Depth=1
	movq	-32(%rbp), %rax
	subq	$1, %rax
	movq	-16(%rbp), %rcx
	cmpq	512(%rcx), %rax
	jle	.LBB39_13
.LBB39_12:                              # %if.then15
	movabsq	$.L.str, %rdi
	movb	$0, %al
	callq	printf
	movq	-32(%rbp), %rsi
	movabsq	$.L.str.2, %rdi
	movb	$0, %al
	callq	printf
	movq	-16(%rbp), %rax
	movq	$0, 488(%rax)
	movq	$1, -48(%rbp)
	jmp	.LBB39_17
.LBB39_13:                              # %if.end18
                                        #   in Loop: Header=BB39_1 Depth=1
	jmp	.LBB39_14
.LBB39_14:                              # %if.end19
                                        #   in Loop: Header=BB39_1 Depth=1
	jmp	.LBB39_15
.LBB39_15:                              # %for.inc
                                        #   in Loop: Header=BB39_1 Depth=1
	movq	-24(%rbp), %rax
	addq	$104, %rax
	movq	%rax, -24(%rbp)
	jmp	.LBB39_1
.LBB39_16:                              # %for.end
	movq	-16(%rbp), %rax
	movq	$1, 488(%rax)
	movq	$0, -48(%rbp)
.LBB39_17:                              # %return
	movq	-48(%rbp), %rbx
	cmpl	$503448922, -36(%rbp)   # imm = 0x1E02055A
	jne	.LBB39_19
.LBB39_18:
	movq	%rbx, %rax
	addq	$72, %rsp
	popq	%rbx
	popq	%rbp
	.cfi_def_cfa %rsp, 8
	retq
.LBB39_19:                              # %func_exit
	.cfi_def_cfa %rbp, 16
	callq	detect_breach
	jmp	.LBB39_18
.Lfunc_end39:
	.size	primal_feasible.33, .Lfunc_end39-primal_feasible.33
	.cfi_endproc
                                        # -- End function
	.globl	primal_feasible.34      # -- Begin function primal_feasible.34
	.p2align	4, 0x90
	.type	primal_feasible.34,@function
primal_feasible.34:                     # @primal_feasible.34
	.cfi_startproc
# %bb.0:                                # %entry
	pushq	%rbp
	.cfi_def_cfa_offset 16
	.cfi_offset %rbp, -16
	movq	%rsp, %rbp
	.cfi_def_cfa_register %rbp
	pushq	%rbx
	subq	$72, %rsp
	.cfi_offset %rbx, -24
	movl	$468852639, -36(%rbp)   # imm = 0x1BF21F9F
	movq	%rdi, -16(%rbp)
	movq	-16(%rbp), %rax
	movq	584(%rax), %rax
	movq	%rax, -80(%rbp)
	movq	-16(%rbp), %rax
	movq	592(%rax), %rax
	movq	%rax, -72(%rbp)
	movq	-16(%rbp), %rax
	movq	552(%rax), %rax
	movq	%rax, -24(%rbp)
	movq	-16(%rbp), %rax
	movq	560(%rax), %rax
	movq	%rax, -64(%rbp)
	movq	-24(%rbp), %rax
	addq	$104, %rax
	movq	%rax, -24(%rbp)
.LBB40_1:                               # %for.cond
                                        # =>This Inner Loop Header: Depth=1
	movq	-24(%rbp), %rax
	movq	-64(%rbp), %rcx
	cmpq	%rcx, %rax
	jae	.LBB40_16
# %bb.2:                                # %for.body
                                        #   in Loop: Header=BB40_1 Depth=1
	movq	-24(%rbp), %rax
	movq	48(%rax), %rax
	movq	%rax, -48(%rbp)
	movq	-24(%rbp), %rax
	movq	80(%rax), %rax
	movq	%rax, -32(%rbp)
	movq	-48(%rbp), %rax
	cmpq	-80(%rbp), %rax
	jb	.LBB40_10
# %bb.3:                                # %land.lhs.true
                                        #   in Loop: Header=BB40_1 Depth=1
	movq	-48(%rbp), %rax
	cmpq	-72(%rbp), %rax
	jae	.LBB40_10
# %bb.4:                                # %if.then
                                        #   in Loop: Header=BB40_1 Depth=1
	cmpq	$0, -32(%rbp)
	jl	.LBB40_6
# %bb.5:                                # %cond.true
                                        #   in Loop: Header=BB40_1 Depth=1
	movq	-32(%rbp), %rax
	jmp	.LBB40_7
.LBB40_6:                               # %cond.false
                                        #   in Loop: Header=BB40_1 Depth=1
	xorl	%eax, %eax
	subq	-32(%rbp), %rax
.LBB40_7:                               # %cond.end
                                        #   in Loop: Header=BB40_1 Depth=1
	movq	-16(%rbp), %rcx
	cmpq	512(%rcx), %rax
	jle	.LBB40_9
# %bb.8:                                # %if.then7
                                        #   in Loop: Header=BB40_1 Depth=1
	movabsq	$.L.str, %rdi
	movb	$0, %al
	callq	printf
	movq	-24(%rbp), %rax
	movl	96(%rax), %esi
	movq	-32(%rbp), %rdx
	movabsq	$.L.str.1, %rdi
	movb	$0, %al
	callq	printf
.LBB40_9:                               # %if.end
                                        #   in Loop: Header=BB40_1 Depth=1
	jmp	.LBB40_14
.LBB40_10:                              # %if.else
                                        #   in Loop: Header=BB40_1 Depth=1
	xorl	%eax, %eax
	movq	-32(%rbp), %rcx
	movq	-16(%rbp), %rdx
	subq	512(%rdx), %rax
	cmpq	%rax, %rcx
	jl	.LBB40_12
# %bb.11:                               # %lor.lhs.false
                                        #   in Loop: Header=BB40_1 Depth=1
	movq	-32(%rbp), %rax
	subq	$1, %rax
	movq	-16(%rbp), %rcx
	cmpq	512(%rcx), %rax
	jle	.LBB40_13
.LBB40_12:                              # %if.then15
	movabsq	$.L.str, %rdi
	movb	$0, %al
	callq	printf
	movq	-32(%rbp), %rsi
	movabsq	$.L.str.2, %rdi
	movb	$0, %al
	callq	printf
	movq	-16(%rbp), %rax
	movq	$0, 488(%rax)
	movq	$1, -56(%rbp)
	jmp	.LBB40_17
.LBB40_13:                              # %if.end18
                                        #   in Loop: Header=BB40_1 Depth=1
	jmp	.LBB40_14
.LBB40_14:                              # %if.end19
                                        #   in Loop: Header=BB40_1 Depth=1
	jmp	.LBB40_15
.LBB40_15:                              # %for.inc
                                        #   in Loop: Header=BB40_1 Depth=1
	movq	-24(%rbp), %rax
	addq	$104, %rax
	movq	%rax, -24(%rbp)
	jmp	.LBB40_1
.LBB40_16:                              # %for.end
	movq	-16(%rbp), %rax
	movq	$1, 488(%rax)
	movq	$0, -56(%rbp)
.LBB40_17:                              # %return
	movq	-56(%rbp), %rbx
	cmpl	$468852639, -36(%rbp)   # imm = 0x1BF21F9F
	jne	.LBB40_19
.LBB40_18:
	movq	%rbx, %rax
	addq	$72, %rsp
	popq	%rbx
	popq	%rbp
	.cfi_def_cfa %rsp, 8
	retq
.LBB40_19:                              # %func_exit
	.cfi_def_cfa %rbp, 16
	callq	detect_breach
	jmp	.LBB40_18
.Lfunc_end40:
	.size	primal_feasible.34, .Lfunc_end40-primal_feasible.34
	.cfi_endproc
                                        # -- End function
	.globl	dual_feasible.35        # -- Begin function dual_feasible.35
	.p2align	4, 0x90
	.type	dual_feasible.35,@function
dual_feasible.35:                       # @dual_feasible.35
	.cfi_startproc
# %bb.0:                                # %entry
	pushq	%rbp
	.cfi_def_cfa_offset 16
	.cfi_offset %rbp, -16
	movq	%rsp, %rbp
	.cfi_def_cfa_register %rbp
	pushq	%rbx
	subq	$56, %rsp
	.cfi_offset %rbx, -24
	movl	$230226350, -28(%rbp)   # imm = 0xDB8F9AE
	movq	%rdi, -24(%rbp)
	movq	-24(%rbp), %rax
	movq	576(%rax), %rax
	movq	%rax, -56(%rbp)
	movq	-24(%rbp), %rax
	movq	568(%rax), %rax
	movq	%rax, -16(%rbp)
.LBB41_1:                               # %for.cond
                                        # =>This Inner Loop Header: Depth=1
	movq	-16(%rbp), %rax
	cmpq	-56(%rbp), %rax
	jae	.LBB41_15
# %bb.2:                                # %for.body
                                        #   in Loop: Header=BB41_1 Depth=1
	movq	-16(%rbp), %rax
	movq	(%rax), %rcx
	movq	8(%rax), %rdx
	movq	(%rdx), %rdx
	subq	%rdx, %rcx
	movq	16(%rax), %rax
	movq	(%rax), %rax
	addq	%rax, %rcx
	movq	%rcx, -48(%rbp)
	movq	-16(%rbp), %rax
	movl	24(%rax), %eax
	movl	%eax, %ecx
	subl	$-1, %ecx
	je	.LBB41_11
	jmp	.LBB41_3
.LBB41_3:                               # %for.body
                                        #   in Loop: Header=BB41_1 Depth=1
	movl	%eax, %ecx
	subl	$2, %ecx
	jb	.LBB41_5
	jmp	.LBB41_4
.LBB41_4:                               # %for.body
                                        #   in Loop: Header=BB41_1 Depth=1
	subl	$2, %eax
	je	.LBB41_8
	jmp	.LBB41_12
.LBB41_5:                               # %sw.bb
                                        #   in Loop: Header=BB41_1 Depth=1
	xorl	%eax, %eax
	movq	-48(%rbp), %rcx
	movq	-24(%rbp), %rdx
	subq	512(%rdx), %rax
	cmpq	%rax, %rcx
	jge	.LBB41_7
# %bb.6:                                # %if.then
	jmp	.LBB41_16
.LBB41_7:                               # %if.end
                                        #   in Loop: Header=BB41_1 Depth=1
	jmp	.LBB41_13
.LBB41_8:                               # %sw.bb4
                                        #   in Loop: Header=BB41_1 Depth=1
	movq	-48(%rbp), %rax
	movq	-24(%rbp), %rcx
	cmpq	512(%rcx), %rax
	jle	.LBB41_10
# %bb.9:                                # %if.then7
	jmp	.LBB41_16
.LBB41_10:                              # %if.end8
                                        #   in Loop: Header=BB41_1 Depth=1
	jmp	.LBB41_13
.LBB41_11:                              # %sw.bb9
                                        #   in Loop: Header=BB41_1 Depth=1
	jmp	.LBB41_12
.LBB41_12:                              # %sw.default
                                        #   in Loop: Header=BB41_1 Depth=1
	jmp	.LBB41_13
.LBB41_13:                              # %sw.epilog
                                        #   in Loop: Header=BB41_1 Depth=1
	jmp	.LBB41_14
.LBB41_14:                              # %for.inc
                                        #   in Loop: Header=BB41_1 Depth=1
	movq	-16(%rbp), %rax
	addq	$64, %rax
	movq	%rax, -16(%rbp)
	jmp	.LBB41_1
.LBB41_15:                              # %for.end
	movq	$0, -40(%rbp)
	jmp	.LBB41_17
.LBB41_16:                              # %DUAL_INFEAS
	movq	stderr, %rdi
	movabsq	$.L.str.3, %rsi
	movb	$0, %al
	callq	fprintf
	movq	stderr, %rdi
	movabsq	$.L.str.4, %rsi
	movb	$0, %al
	callq	fprintf
	movq	$1, -40(%rbp)
.LBB41_17:                              # %return
	movq	-40(%rbp), %rbx
	cmpl	$230226350, -28(%rbp)   # imm = 0xDB8F9AE
	jne	.LBB41_19
.LBB41_18:
	movq	%rbx, %rax
	addq	$56, %rsp
	popq	%rbx
	popq	%rbp
	.cfi_def_cfa %rsp, 8
	retq
.LBB41_19:                              # %func_exit
	.cfi_def_cfa %rbp, 16
	callq	detect_breach
	jmp	.LBB41_18
.Lfunc_end41:
	.size	dual_feasible.35, .Lfunc_end41-dual_feasible.35
	.cfi_endproc
                                        # -- End function
	.globl	primal_feasible.36      # -- Begin function primal_feasible.36
	.p2align	4, 0x90
	.type	primal_feasible.36,@function
primal_feasible.36:                     # @primal_feasible.36
	.cfi_startproc
# %bb.0:                                # %entry
	pushq	%rbp
	.cfi_def_cfa_offset 16
	.cfi_offset %rbp, -16
	movq	%rsp, %rbp
	.cfi_def_cfa_register %rbp
	pushq	%rbx
	subq	$72, %rsp
	.cfi_offset %rbx, -24
	movl	$2129627068, -36(%rbp)  # imm = 0x7EEF87BC
	movq	%rdi, -16(%rbp)
	movq	-16(%rbp), %rax
	movq	584(%rax), %rax
	movq	%rax, -80(%rbp)
	movq	-16(%rbp), %rax
	movq	592(%rax), %rax
	movq	%rax, -72(%rbp)
	movq	-16(%rbp), %rax
	movq	552(%rax), %rax
	movq	%rax, -24(%rbp)
	movq	-16(%rbp), %rax
	movq	560(%rax), %rax
	movq	%rax, -64(%rbp)
	movq	-24(%rbp), %rax
	addq	$104, %rax
	movq	%rax, -24(%rbp)
.LBB42_1:                               # %for.cond
                                        # =>This Inner Loop Header: Depth=1
	movq	-24(%rbp), %rax
	movq	-64(%rbp), %rcx
	cmpq	%rcx, %rax
	jae	.LBB42_16
# %bb.2:                                # %for.body
                                        #   in Loop: Header=BB42_1 Depth=1
	movq	-24(%rbp), %rax
	movq	48(%rax), %rax
	movq	%rax, -48(%rbp)
	movq	-24(%rbp), %rax
	movq	80(%rax), %rax
	movq	%rax, -32(%rbp)
	movq	-48(%rbp), %rax
	cmpq	-80(%rbp), %rax
	jb	.LBB42_10
# %bb.3:                                # %land.lhs.true
                                        #   in Loop: Header=BB42_1 Depth=1
	movq	-48(%rbp), %rax
	cmpq	-72(%rbp), %rax
	jae	.LBB42_10
# %bb.4:                                # %if.then
                                        #   in Loop: Header=BB42_1 Depth=1
	cmpq	$0, -32(%rbp)
	jl	.LBB42_6
# %bb.5:                                # %cond.true
                                        #   in Loop: Header=BB42_1 Depth=1
	movq	-32(%rbp), %rax
	jmp	.LBB42_7
.LBB42_6:                               # %cond.false
                                        #   in Loop: Header=BB42_1 Depth=1
	xorl	%eax, %eax
	subq	-32(%rbp), %rax
.LBB42_7:                               # %cond.end
                                        #   in Loop: Header=BB42_1 Depth=1
	movq	-16(%rbp), %rcx
	cmpq	512(%rcx), %rax
	jle	.LBB42_9
# %bb.8:                                # %if.then7
                                        #   in Loop: Header=BB42_1 Depth=1
	movabsq	$.L.str, %rdi
	movb	$0, %al
	callq	printf
	movq	-24(%rbp), %rax
	movl	96(%rax), %esi
	movq	-32(%rbp), %rdx
	movabsq	$.L.str.1, %rdi
	movb	$0, %al
	callq	printf
.LBB42_9:                               # %if.end
                                        #   in Loop: Header=BB42_1 Depth=1
	jmp	.LBB42_14
.LBB42_10:                              # %if.else
                                        #   in Loop: Header=BB42_1 Depth=1
	xorl	%eax, %eax
	movq	-32(%rbp), %rcx
	movq	-16(%rbp), %rdx
	subq	512(%rdx), %rax
	cmpq	%rax, %rcx
	jl	.LBB42_12
# %bb.11:                               # %lor.lhs.false
                                        #   in Loop: Header=BB42_1 Depth=1
	movq	-32(%rbp), %rax
	subq	$1, %rax
	movq	-16(%rbp), %rcx
	cmpq	512(%rcx), %rax
	jle	.LBB42_13
.LBB42_12:                              # %if.then15
	movabsq	$.L.str, %rdi
	movb	$0, %al
	callq	printf
	movq	-32(%rbp), %rsi
	movabsq	$.L.str.2, %rdi
	movb	$0, %al
	callq	printf
	movq	-16(%rbp), %rax
	movq	$0, 488(%rax)
	movq	$1, -56(%rbp)
	jmp	.LBB42_17
.LBB42_13:                              # %if.end18
                                        #   in Loop: Header=BB42_1 Depth=1
	jmp	.LBB42_14
.LBB42_14:                              # %if.end19
                                        #   in Loop: Header=BB42_1 Depth=1
	jmp	.LBB42_15
.LBB42_15:                              # %for.inc
                                        #   in Loop: Header=BB42_1 Depth=1
	movq	-24(%rbp), %rax
	addq	$104, %rax
	movq	%rax, -24(%rbp)
	jmp	.LBB42_1
.LBB42_16:                              # %for.end
	movq	-16(%rbp), %rax
	movq	$1, 488(%rax)
	movq	$0, -56(%rbp)
.LBB42_17:                              # %return
	movq	-56(%rbp), %rbx
	cmpl	$2129627068, -36(%rbp)  # imm = 0x7EEF87BC
	jne	.LBB42_19
.LBB42_18:
	movq	%rbx, %rax
	addq	$72, %rsp
	popq	%rbx
	popq	%rbp
	.cfi_def_cfa %rsp, 8
	retq
.LBB42_19:                              # %func_exit
	.cfi_def_cfa %rbp, 16
	callq	detect_breach
	jmp	.LBB42_18
.Lfunc_end42:
	.size	primal_feasible.36, .Lfunc_end42-primal_feasible.36
	.cfi_endproc
                                        # -- End function
	.globl	flow_org_cost.37        # -- Begin function flow_org_cost.37
	.p2align	4, 0x90
	.type	flow_org_cost.37,@function
flow_org_cost.37:                       # @flow_org_cost.37
	.cfi_startproc
# %bb.0:                                # %entry
	pushq	%rbp
	.cfi_def_cfa_offset 16
	.cfi_offset %rbp, -16
	movq	%rsp, %rbp
	.cfi_def_cfa_register %rbp
	subq	$64, %rsp
	movl	$1719101121, -52(%rbp)  # imm = 0x667766C1
	movq	%rdi, -16(%rbp)
	movq	$0, -48(%rbp)
	movq	$0, -40(%rbp)
	movq	-16(%rbp), %rax
	movq	576(%rax), %rax
	movq	%rax, -32(%rbp)
	movq	-16(%rbp), %rax
	movq	568(%rax), %rax
	movq	%rax, -8(%rbp)
.LBB43_1:                               # %for.cond
                                        # =>This Inner Loop Header: Depth=1
	movq	-8(%rbp), %rax
	movq	-32(%rbp), %rcx
	cmpq	%rcx, %rax
	je	.LBB43_7
# %bb.2:                                # %for.body
                                        #   in Loop: Header=BB43_1 Depth=1
	movq	-8(%rbp), %rax
	cmpl	$2, 24(%rax)
	jne	.LBB43_4
# %bb.3:                                # %if.then
                                        #   in Loop: Header=BB43_1 Depth=1
	movq	-8(%rbp), %rax
	movq	$1, 48(%rax)
	jmp	.LBB43_5
.LBB43_4:                               # %if.else
                                        #   in Loop: Header=BB43_1 Depth=1
	movq	-8(%rbp), %rax
	movq	$0, 48(%rax)
.LBB43_5:                               # %if.end
                                        #   in Loop: Header=BB43_1 Depth=1
	jmp	.LBB43_6
.LBB43_6:                               # %for.inc
                                        #   in Loop: Header=BB43_1 Depth=1
	movq	-8(%rbp), %rax
	addq	$64, %rax
	movq	%rax, -8(%rbp)
	jmp	.LBB43_1
.LBB43_7:                               # %for.end
	movq	-16(%rbp), %rax
	movq	560(%rax), %rax
	movq	%rax, -32(%rbp)
	movq	-16(%rbp), %rax
	movq	552(%rax), %rax
	movq	%rax, -24(%rbp)
	movq	-24(%rbp), %rax
	addq	$104, %rax
	movq	%rax, -24(%rbp)
.LBB43_8:                               # %for.cond4
                                        # =>This Inner Loop Header: Depth=1
	movq	-24(%rbp), %rax
	movq	-32(%rbp), %rcx
	cmpq	%rcx, %rax
	je	.LBB43_11
# %bb.9:                                # %for.body6
                                        #   in Loop: Header=BB43_8 Depth=1
	movq	-24(%rbp), %rax
	movq	80(%rax), %rax
	movq	-24(%rbp), %rcx
	movq	48(%rcx), %rcx
	movq	%rax, 48(%rcx)
# %bb.10:                               # %for.inc9
                                        #   in Loop: Header=BB43_8 Depth=1
	movq	-24(%rbp), %rax
	addq	$104, %rax
	movq	%rax, -24(%rbp)
	jmp	.LBB43_8
.LBB43_11:                              # %for.end11
	movq	-16(%rbp), %rax
	movq	576(%rax), %rax
	movq	%rax, -32(%rbp)
	movq	-16(%rbp), %rax
	movq	568(%rax), %rax
	movq	%rax, -8(%rbp)
.LBB43_12:                              # %for.cond14
                                        # =>This Inner Loop Header: Depth=1
	movq	-8(%rbp), %rax
	movq	-32(%rbp), %rcx
	cmpq	%rcx, %rax
	je	.LBB43_23
# %bb.13:                               # %for.body16
                                        #   in Loop: Header=BB43_12 Depth=1
	movq	-8(%rbp), %rax
	cmpq	$0, 48(%rax)
	je	.LBB43_21
# %bb.14:                               # %if.then18
                                        #   in Loop: Header=BB43_12 Depth=1
	movq	-8(%rbp), %rax
	movq	8(%rax), %rax
	cmpl	$0, 96(%rax)
	jge	.LBB43_16
# %bb.15:                               # %land.lhs.true
                                        #   in Loop: Header=BB43_12 Depth=1
	movq	-8(%rbp), %rax
	movq	16(%rax), %rax
	cmpl	$0, 96(%rax)
	jg	.LBB43_20
.LBB43_16:                              # %if.then22
                                        #   in Loop: Header=BB43_12 Depth=1
	movq	-8(%rbp), %rax
	movq	8(%rax), %rax
	cmpl	$0, 96(%rax)
	jne	.LBB43_18
# %bb.17:                               # %if.then26
                                        #   in Loop: Header=BB43_12 Depth=1
	movq	-8(%rbp), %rax
	movq	56(%rax), %rax
	movq	-16(%rbp), %rcx
	subq	528(%rcx), %rax
	addq	-40(%rbp), %rax
	movq	%rax, -40(%rbp)
	movq	-48(%rbp), %rax
	addq	$1, %rax
	movq	%rax, -48(%rbp)
	jmp	.LBB43_19
.LBB43_18:                              # %if.else27
                                        #   in Loop: Header=BB43_12 Depth=1
	movq	-8(%rbp), %rax
	movq	56(%rax), %rax
	addq	-40(%rbp), %rax
	movq	%rax, -40(%rbp)
.LBB43_19:                              # %if.end30
                                        #   in Loop: Header=BB43_12 Depth=1
	jmp	.LBB43_20
.LBB43_20:                              # %if.end31
                                        #   in Loop: Header=BB43_12 Depth=1
	jmp	.LBB43_21
.LBB43_21:                              # %if.end32
                                        #   in Loop: Header=BB43_12 Depth=1
	jmp	.LBB43_22
.LBB43_22:                              # %for.inc33
                                        #   in Loop: Header=BB43_12 Depth=1
	movq	-8(%rbp), %rax
	addq	$64, %rax
	movq	%rax, -8(%rbp)
	jmp	.LBB43_12
.LBB43_23:                              # %for.end35
	vcvtsi2sdq	-48(%rbp), %xmm0, %xmm0
	movq	-16(%rbp), %rax
	vcvtsi2sdq	528(%rax), %xmm0, %xmm1
	vmulsd	%xmm1, %xmm0, %xmm0
	vcvtsi2sdq	-40(%rbp), %xmm0, %xmm1
	vaddsd	%xmm1, %xmm0, %xmm0
	cmpl	$1719101121, -52(%rbp)  # imm = 0x667766C1
	jne	.LBB43_25
.LBB43_24:
	addq	$64, %rsp
	popq	%rbp
	.cfi_def_cfa %rsp, 8
	retq
.LBB43_25:                              # %func_exit
	.cfi_def_cfa %rbp, 16
	vmovsd	%xmm0, -64(%rbp)        # 8-byte Spill
	callq	detect_breach
	vmovsd	-64(%rbp), %xmm0        # 8-byte Reload
                                        # xmm0 = mem[0],zero
	jmp	.LBB43_24
.Lfunc_end43:
	.size	flow_org_cost.37, .Lfunc_end43-flow_org_cost.37
	.cfi_endproc
                                        # -- End function
	.globl	flow_cost.38            # -- Begin function flow_cost.38
	.p2align	4, 0x90
	.type	flow_cost.38,@function
flow_cost.38:                           # @flow_cost.38
	.cfi_startproc
# %bb.0:                                # %entry
	pushq	%rbp
	.cfi_def_cfa_offset 16
	.cfi_offset %rbp, -16
	movq	%rsp, %rbp
	.cfi_def_cfa_register %rbp
	subq	$64, %rsp
	movl	$229343962, -52(%rbp)   # imm = 0xDAB82DA
	movq	%rdi, -16(%rbp)
	movq	$0, -48(%rbp)
	movq	$0, -40(%rbp)
	movq	-16(%rbp), %rax
	movq	576(%rax), %rax
	movq	%rax, -32(%rbp)
	movq	-16(%rbp), %rax
	movq	568(%rax), %rax
	movq	%rax, -8(%rbp)
.LBB44_1:                               # %for.cond
                                        # =>This Inner Loop Header: Depth=1
	movq	-8(%rbp), %rax
	movq	-32(%rbp), %rcx
	cmpq	%rcx, %rax
	je	.LBB44_7
# %bb.2:                                # %for.body
                                        #   in Loop: Header=BB44_1 Depth=1
	movq	-8(%rbp), %rax
	cmpl	$2, 24(%rax)
	jne	.LBB44_4
# %bb.3:                                # %if.then
                                        #   in Loop: Header=BB44_1 Depth=1
	movq	-8(%rbp), %rax
	movq	$1, 48(%rax)
	jmp	.LBB44_5
.LBB44_4:                               # %if.else
                                        #   in Loop: Header=BB44_1 Depth=1
	movq	-8(%rbp), %rax
	movq	$0, 48(%rax)
.LBB44_5:                               # %if.end
                                        #   in Loop: Header=BB44_1 Depth=1
	jmp	.LBB44_6
.LBB44_6:                               # %for.inc
                                        #   in Loop: Header=BB44_1 Depth=1
	movq	-8(%rbp), %rax
	addq	$64, %rax
	movq	%rax, -8(%rbp)
	jmp	.LBB44_1
.LBB44_7:                               # %for.end
	movq	-16(%rbp), %rax
	movq	560(%rax), %rax
	movq	%rax, -32(%rbp)
	movq	-16(%rbp), %rax
	movq	552(%rax), %rax
	movq	%rax, -24(%rbp)
	movq	-24(%rbp), %rax
	addq	$104, %rax
	movq	%rax, -24(%rbp)
.LBB44_8:                               # %for.cond4
                                        # =>This Inner Loop Header: Depth=1
	movq	-24(%rbp), %rax
	movq	-32(%rbp), %rcx
	cmpq	%rcx, %rax
	je	.LBB44_11
# %bb.9:                                # %for.body6
                                        #   in Loop: Header=BB44_8 Depth=1
	movq	-24(%rbp), %rax
	movq	80(%rax), %rax
	movq	-24(%rbp), %rcx
	movq	48(%rcx), %rcx
	movq	%rax, 48(%rcx)
# %bb.10:                               # %for.inc9
                                        #   in Loop: Header=BB44_8 Depth=1
	movq	-24(%rbp), %rax
	addq	$104, %rax
	movq	%rax, -24(%rbp)
	jmp	.LBB44_8
.LBB44_11:                              # %for.end11
	movq	-16(%rbp), %rax
	movq	576(%rax), %rax
	movq	%rax, -32(%rbp)
	movq	-16(%rbp), %rax
	movq	568(%rax), %rax
	movq	%rax, -8(%rbp)
.LBB44_12:                              # %for.cond14
                                        # =>This Inner Loop Header: Depth=1
	movq	-8(%rbp), %rax
	movq	-32(%rbp), %rcx
	cmpq	%rcx, %rax
	je	.LBB44_23
# %bb.13:                               # %for.body16
                                        #   in Loop: Header=BB44_12 Depth=1
	movq	-8(%rbp), %rax
	cmpq	$0, 48(%rax)
	je	.LBB44_21
# %bb.14:                               # %if.then18
                                        #   in Loop: Header=BB44_12 Depth=1
	movq	-8(%rbp), %rax
	movq	8(%rax), %rax
	cmpl	$0, 96(%rax)
	jge	.LBB44_16
# %bb.15:                               # %land.lhs.true
                                        #   in Loop: Header=BB44_12 Depth=1
	movq	-8(%rbp), %rax
	movq	16(%rax), %rax
	cmpl	$0, 96(%rax)
	jg	.LBB44_20
.LBB44_16:                              # %if.then22
                                        #   in Loop: Header=BB44_12 Depth=1
	movq	-8(%rbp), %rax
	movq	8(%rax), %rax
	cmpl	$0, 96(%rax)
	jne	.LBB44_18
# %bb.17:                               # %if.then26
                                        #   in Loop: Header=BB44_12 Depth=1
	movq	-8(%rbp), %rax
	movq	(%rax), %rax
	movq	-16(%rbp), %rcx
	subq	528(%rcx), %rax
	addq	-40(%rbp), %rax
	movq	%rax, -40(%rbp)
	movq	-48(%rbp), %rax
	addq	$1, %rax
	movq	%rax, -48(%rbp)
	jmp	.LBB44_19
.LBB44_18:                              # %if.else27
                                        #   in Loop: Header=BB44_12 Depth=1
	movq	-8(%rbp), %rax
	movq	(%rax), %rax
	addq	-40(%rbp), %rax
	movq	%rax, -40(%rbp)
.LBB44_19:                              # %if.end30
                                        #   in Loop: Header=BB44_12 Depth=1
	jmp	.LBB44_20
.LBB44_20:                              # %if.end31
                                        #   in Loop: Header=BB44_12 Depth=1
	jmp	.LBB44_21
.LBB44_21:                              # %if.end32
                                        #   in Loop: Header=BB44_12 Depth=1
	jmp	.LBB44_22
.LBB44_22:                              # %for.inc33
                                        #   in Loop: Header=BB44_12 Depth=1
	movq	-8(%rbp), %rax
	addq	$64, %rax
	movq	%rax, -8(%rbp)
	jmp	.LBB44_12
.LBB44_23:                              # %for.end35
	vcvtsi2sdq	-48(%rbp), %xmm0, %xmm0
	movq	-16(%rbp), %rax
	vcvtsi2sdq	528(%rax), %xmm0, %xmm1
	vmulsd	%xmm1, %xmm0, %xmm0
	vcvtsi2sdq	-40(%rbp), %xmm0, %xmm1
	vaddsd	%xmm1, %xmm0, %xmm0
	cmpl	$229343962, -52(%rbp)   # imm = 0xDAB82DA
	jne	.LBB44_25
.LBB44_24:
	addq	$64, %rsp
	popq	%rbp
	.cfi_def_cfa %rsp, 8
	retq
.LBB44_25:                              # %func_exit
	.cfi_def_cfa %rbp, 16
	vmovsd	%xmm0, -64(%rbp)        # 8-byte Spill
	callq	detect_breach
	vmovsd	-64(%rbp), %xmm0        # 8-byte Reload
                                        # xmm0 = mem[0],zero
	jmp	.LBB44_24
.Lfunc_end44:
	.size	flow_cost.38, .Lfunc_end44-flow_cost.38
	.cfi_endproc
                                        # -- End function
	.globl	refresh_potential.39    # -- Begin function refresh_potential.39
	.p2align	4, 0x90
	.type	refresh_potential.39,@function
refresh_potential.39:                   # @refresh_potential.39
	.cfi_startproc
# %bb.0:                                # %entry
	pushq	%rbp
	.cfi_def_cfa_offset 16
	.cfi_offset %rbp, -16
	movq	%rsp, %rbp
	.cfi_def_cfa_register %rbp
	pushq	%rbx
	subq	$56, %rsp
	.cfi_offset %rbx, -24
	movl	$414520285, -44(%rbp)   # imm = 0x18B513DD
	movq	%rdi, -56(%rbp)
	movq	-56(%rbp), %rax
	movq	552(%rax), %rax
	movq	%rax, -40(%rbp)
	movq	$0, -32(%rbp)
	movq	-40(%rbp), %rax
	movq	$-100000000, (%rax)     # imm = 0xFA0A1F00
	movq	-40(%rbp), %rax
	movq	16(%rax), %rax
	movq	%rax, -16(%rbp)
	movq	%rax, -24(%rbp)
.LBB45_1:                               # %while.cond
                                        # =>This Loop Header: Depth=1
                                        #     Child Loop BB45_3 Depth 2
                                        #     Child Loop BB45_9 Depth 2
	movq	-16(%rbp), %rax
	cmpq	-40(%rbp), %rax
	je	.LBB45_16
# %bb.2:                                # %while.body
                                        #   in Loop: Header=BB45_1 Depth=1
	jmp	.LBB45_3
.LBB45_3:                               # %while.cond1
                                        #   Parent Loop BB45_1 Depth=1
                                        # =>  This Inner Loop Header: Depth=2
	cmpq	$0, -16(%rbp)
	je	.LBB45_8
# %bb.4:                                # %while.body2
                                        #   in Loop: Header=BB45_3 Depth=2
	movq	-16(%rbp), %rax
	cmpl	$1, 8(%rax)
	jne	.LBB45_6
# %bb.5:                                # %if.then
                                        #   in Loop: Header=BB45_3 Depth=2
	movq	-16(%rbp), %rax
	movq	48(%rax), %rax
	movq	(%rax), %rax
	movq	-16(%rbp), %rcx
	movq	24(%rcx), %rcx
	addq	(%rcx), %rax
	movq	-16(%rbp), %rcx
	movq	%rax, (%rcx)
	jmp	.LBB45_7
.LBB45_6:                               # %if.else
                                        #   in Loop: Header=BB45_3 Depth=2
	movq	-16(%rbp), %rax
	movq	24(%rax), %rax
	movq	(%rax), %rax
	movq	-16(%rbp), %rcx
	movq	48(%rcx), %rcx
	subq	(%rcx), %rax
	movq	-16(%rbp), %rcx
	movq	%rax, (%rcx)
	movq	-32(%rbp), %rax
	addq	$1, %rax
	movq	%rax, -32(%rbp)
.LBB45_7:                               # %if.end
                                        #   in Loop: Header=BB45_3 Depth=2
	movq	-16(%rbp), %rax
	movq	%rax, -24(%rbp)
	movq	-16(%rbp), %rax
	movq	16(%rax), %rax
	movq	%rax, -16(%rbp)
	jmp	.LBB45_3
.LBB45_8:                               # %while.end
                                        #   in Loop: Header=BB45_1 Depth=1
	movq	-24(%rbp), %rax
	movq	%rax, -16(%rbp)
.LBB45_9:                               # %while.cond12
                                        #   Parent Loop BB45_1 Depth=1
                                        # =>  This Inner Loop Header: Depth=2
	movq	-16(%rbp), %rax
	cmpq	$0, 24(%rax)
	je	.LBB45_14
# %bb.10:                               # %while.body15
                                        #   in Loop: Header=BB45_9 Depth=2
	movq	-16(%rbp), %rax
	movq	32(%rax), %rax
	movq	%rax, -24(%rbp)
	cmpq	$0, -24(%rbp)
	je	.LBB45_12
# %bb.11:                               # %if.then17
                                        #   in Loop: Header=BB45_1 Depth=1
	movq	-24(%rbp), %rax
	movq	%rax, -16(%rbp)
	jmp	.LBB45_15
.LBB45_12:                              # %if.else18
                                        #   in Loop: Header=BB45_9 Depth=2
	movq	-16(%rbp), %rax
	movq	24(%rax), %rax
	movq	%rax, -16(%rbp)
# %bb.13:                               # %if.end20
                                        #   in Loop: Header=BB45_9 Depth=2
	jmp	.LBB45_9
.LBB45_14:                              # %while.end21.loopexit
                                        #   in Loop: Header=BB45_1 Depth=1
	jmp	.LBB45_15
.LBB45_15:                              # %while.end21
                                        #   in Loop: Header=BB45_1 Depth=1
	jmp	.LBB45_1
.LBB45_16:                              # %while.end22
	movq	-32(%rbp), %rbx
	cmpl	$414520285, -44(%rbp)   # imm = 0x18B513DD
	jne	.LBB45_18
.LBB45_17:
	movq	%rbx, %rax
	addq	$56, %rsp
	popq	%rbx
	popq	%rbp
	.cfi_def_cfa %rsp, 8
	retq
.LBB45_18:                              # %func_exit
	.cfi_def_cfa %rbp, 16
	callq	detect_breach
	jmp	.LBB45_17
.Lfunc_end45:
	.size	refresh_potential.39, .Lfunc_end45-refresh_potential.39
	.cfi_endproc
                                        # -- End function
	.globl	flow_cost.40            # -- Begin function flow_cost.40
	.p2align	4, 0x90
	.type	flow_cost.40,@function
flow_cost.40:                           # @flow_cost.40
	.cfi_startproc
# %bb.0:                                # %entry
	pushq	%rbp
	.cfi_def_cfa_offset 16
	.cfi_offset %rbp, -16
	movq	%rsp, %rbp
	.cfi_def_cfa_register %rbp
	subq	$64, %rsp
	movl	$1664404289, -52(%rbp)  # imm = 0x6334CB41
	movq	%rdi, -16(%rbp)
	movq	$0, -48(%rbp)
	movq	$0, -32(%rbp)
	movq	-16(%rbp), %rax
	movq	576(%rax), %rax
	movq	%rax, -40(%rbp)
	movq	-16(%rbp), %rax
	movq	568(%rax), %rax
	movq	%rax, -8(%rbp)
.LBB46_1:                               # %for.cond
                                        # =>This Inner Loop Header: Depth=1
	movq	-8(%rbp), %rax
	movq	-40(%rbp), %rcx
	cmpq	%rcx, %rax
	je	.LBB46_7
# %bb.2:                                # %for.body
                                        #   in Loop: Header=BB46_1 Depth=1
	movq	-8(%rbp), %rax
	cmpl	$2, 24(%rax)
	jne	.LBB46_4
# %bb.3:                                # %if.then
                                        #   in Loop: Header=BB46_1 Depth=1
	movq	-8(%rbp), %rax
	movq	$1, 48(%rax)
	jmp	.LBB46_5
.LBB46_4:                               # %if.else
                                        #   in Loop: Header=BB46_1 Depth=1
	movq	-8(%rbp), %rax
	movq	$0, 48(%rax)
.LBB46_5:                               # %if.end
                                        #   in Loop: Header=BB46_1 Depth=1
	jmp	.LBB46_6
.LBB46_6:                               # %for.inc
                                        #   in Loop: Header=BB46_1 Depth=1
	movq	-8(%rbp), %rax
	addq	$64, %rax
	movq	%rax, -8(%rbp)
	jmp	.LBB46_1
.LBB46_7:                               # %for.end
	movq	-16(%rbp), %rax
	movq	560(%rax), %rax
	movq	%rax, -40(%rbp)
	movq	-16(%rbp), %rax
	movq	552(%rax), %rax
	movq	%rax, -24(%rbp)
	movq	-24(%rbp), %rax
	addq	$104, %rax
	movq	%rax, -24(%rbp)
.LBB46_8:                               # %for.cond4
                                        # =>This Inner Loop Header: Depth=1
	movq	-24(%rbp), %rax
	movq	-40(%rbp), %rcx
	cmpq	%rcx, %rax
	je	.LBB46_11
# %bb.9:                                # %for.body6
                                        #   in Loop: Header=BB46_8 Depth=1
	movq	-24(%rbp), %rax
	movq	80(%rax), %rax
	movq	-24(%rbp), %rcx
	movq	48(%rcx), %rcx
	movq	%rax, 48(%rcx)
# %bb.10:                               # %for.inc9
                                        #   in Loop: Header=BB46_8 Depth=1
	movq	-24(%rbp), %rax
	addq	$104, %rax
	movq	%rax, -24(%rbp)
	jmp	.LBB46_8
.LBB46_11:                              # %for.end11
	movq	-16(%rbp), %rax
	movq	576(%rax), %rax
	movq	%rax, -40(%rbp)
	movq	-16(%rbp), %rax
	movq	568(%rax), %rax
	movq	%rax, -8(%rbp)
.LBB46_12:                              # %for.cond14
                                        # =>This Inner Loop Header: Depth=1
	movq	-8(%rbp), %rax
	movq	-40(%rbp), %rcx
	cmpq	%rcx, %rax
	je	.LBB46_23
# %bb.13:                               # %for.body16
                                        #   in Loop: Header=BB46_12 Depth=1
	movq	-8(%rbp), %rax
	cmpq	$0, 48(%rax)
	je	.LBB46_21
# %bb.14:                               # %if.then18
                                        #   in Loop: Header=BB46_12 Depth=1
	movq	-8(%rbp), %rax
	movq	8(%rax), %rax
	cmpl	$0, 96(%rax)
	jge	.LBB46_16
# %bb.15:                               # %land.lhs.true
                                        #   in Loop: Header=BB46_12 Depth=1
	movq	-8(%rbp), %rax
	movq	16(%rax), %rax
	cmpl	$0, 96(%rax)
	jg	.LBB46_20
.LBB46_16:                              # %if.then22
                                        #   in Loop: Header=BB46_12 Depth=1
	movq	-8(%rbp), %rax
	movq	8(%rax), %rax
	cmpl	$0, 96(%rax)
	jne	.LBB46_18
# %bb.17:                               # %if.then26
                                        #   in Loop: Header=BB46_12 Depth=1
	movq	-8(%rbp), %rax
	movq	(%rax), %rax
	movq	-16(%rbp), %rcx
	subq	528(%rcx), %rax
	addq	-32(%rbp), %rax
	movq	%rax, -32(%rbp)
	movq	-48(%rbp), %rax
	addq	$1, %rax
	movq	%rax, -48(%rbp)
	jmp	.LBB46_19
.LBB46_18:                              # %if.else27
                                        #   in Loop: Header=BB46_12 Depth=1
	movq	-8(%rbp), %rax
	movq	(%rax), %rax
	addq	-32(%rbp), %rax
	movq	%rax, -32(%rbp)
.LBB46_19:                              # %if.end30
                                        #   in Loop: Header=BB46_12 Depth=1
	jmp	.LBB46_20
.LBB46_20:                              # %if.end31
                                        #   in Loop: Header=BB46_12 Depth=1
	jmp	.LBB46_21
.LBB46_21:                              # %if.end32
                                        #   in Loop: Header=BB46_12 Depth=1
	jmp	.LBB46_22
.LBB46_22:                              # %for.inc33
                                        #   in Loop: Header=BB46_12 Depth=1
	movq	-8(%rbp), %rax
	addq	$64, %rax
	movq	%rax, -8(%rbp)
	jmp	.LBB46_12
.LBB46_23:                              # %for.end35
	vcvtsi2sdq	-48(%rbp), %xmm0, %xmm0
	movq	-16(%rbp), %rax
	vcvtsi2sdq	528(%rax), %xmm0, %xmm1
	vmulsd	%xmm1, %xmm0, %xmm0
	vcvtsi2sdq	-32(%rbp), %xmm0, %xmm1
	vaddsd	%xmm1, %xmm0, %xmm0
	cmpl	$1664404289, -52(%rbp)  # imm = 0x6334CB41
	jne	.LBB46_25
.LBB46_24:
	addq	$64, %rsp
	popq	%rbp
	.cfi_def_cfa %rsp, 8
	retq
.LBB46_25:                              # %func_exit
	.cfi_def_cfa %rbp, 16
	vmovsd	%xmm0, -64(%rbp)        # 8-byte Spill
	callq	detect_breach
	vmovsd	-64(%rbp), %xmm0        # 8-byte Reload
                                        # xmm0 = mem[0],zero
	jmp	.LBB46_24
.Lfunc_end46:
	.size	flow_cost.40, .Lfunc_end46-flow_cost.40
	.cfi_endproc
                                        # -- End function
	.globl	flow_org_cost.41        # -- Begin function flow_org_cost.41
	.p2align	4, 0x90
	.type	flow_org_cost.41,@function
flow_org_cost.41:                       # @flow_org_cost.41
	.cfi_startproc
# %bb.0:                                # %entry
	pushq	%rbp
	.cfi_def_cfa_offset 16
	.cfi_offset %rbp, -16
	movq	%rsp, %rbp
	.cfi_def_cfa_register %rbp
	subq	$64, %rsp
	movl	$420589950, -52(%rbp)   # imm = 0x1911B17E
	movq	%rdi, -16(%rbp)
	movq	$0, -48(%rbp)
	movq	$0, -32(%rbp)
	movq	-16(%rbp), %rax
	movq	576(%rax), %rax
	movq	%rax, -40(%rbp)
	movq	-16(%rbp), %rax
	movq	568(%rax), %rax
	movq	%rax, -8(%rbp)
.LBB47_1:                               # %for.cond
                                        # =>This Inner Loop Header: Depth=1
	movq	-8(%rbp), %rax
	movq	-40(%rbp), %rcx
	cmpq	%rcx, %rax
	je	.LBB47_7
# %bb.2:                                # %for.body
                                        #   in Loop: Header=BB47_1 Depth=1
	movq	-8(%rbp), %rax
	cmpl	$2, 24(%rax)
	jne	.LBB47_4
# %bb.3:                                # %if.then
                                        #   in Loop: Header=BB47_1 Depth=1
	movq	-8(%rbp), %rax
	movq	$1, 48(%rax)
	jmp	.LBB47_5
.LBB47_4:                               # %if.else
                                        #   in Loop: Header=BB47_1 Depth=1
	movq	-8(%rbp), %rax
	movq	$0, 48(%rax)
.LBB47_5:                               # %if.end
                                        #   in Loop: Header=BB47_1 Depth=1
	jmp	.LBB47_6
.LBB47_6:                               # %for.inc
                                        #   in Loop: Header=BB47_1 Depth=1
	movq	-8(%rbp), %rax
	addq	$64, %rax
	movq	%rax, -8(%rbp)
	jmp	.LBB47_1
.LBB47_7:                               # %for.end
	movq	-16(%rbp), %rax
	movq	560(%rax), %rax
	movq	%rax, -40(%rbp)
	movq	-16(%rbp), %rax
	movq	552(%rax), %rax
	movq	%rax, -24(%rbp)
	movq	-24(%rbp), %rax
	addq	$104, %rax
	movq	%rax, -24(%rbp)
.LBB47_8:                               # %for.cond4
                                        # =>This Inner Loop Header: Depth=1
	movq	-24(%rbp), %rax
	movq	-40(%rbp), %rcx
	cmpq	%rcx, %rax
	je	.LBB47_11
# %bb.9:                                # %for.body6
                                        #   in Loop: Header=BB47_8 Depth=1
	movq	-24(%rbp), %rax
	movq	80(%rax), %rax
	movq	-24(%rbp), %rcx
	movq	48(%rcx), %rcx
	movq	%rax, 48(%rcx)
# %bb.10:                               # %for.inc9
                                        #   in Loop: Header=BB47_8 Depth=1
	movq	-24(%rbp), %rax
	addq	$104, %rax
	movq	%rax, -24(%rbp)
	jmp	.LBB47_8
.LBB47_11:                              # %for.end11
	movq	-16(%rbp), %rax
	movq	576(%rax), %rax
	movq	%rax, -40(%rbp)
	movq	-16(%rbp), %rax
	movq	568(%rax), %rax
	movq	%rax, -8(%rbp)
.LBB47_12:                              # %for.cond14
                                        # =>This Inner Loop Header: Depth=1
	movq	-8(%rbp), %rax
	movq	-40(%rbp), %rcx
	cmpq	%rcx, %rax
	je	.LBB47_23
# %bb.13:                               # %for.body16
                                        #   in Loop: Header=BB47_12 Depth=1
	movq	-8(%rbp), %rax
	cmpq	$0, 48(%rax)
	je	.LBB47_21
# %bb.14:                               # %if.then18
                                        #   in Loop: Header=BB47_12 Depth=1
	movq	-8(%rbp), %rax
	movq	8(%rax), %rax
	cmpl	$0, 96(%rax)
	jge	.LBB47_16
# %bb.15:                               # %land.lhs.true
                                        #   in Loop: Header=BB47_12 Depth=1
	movq	-8(%rbp), %rax
	movq	16(%rax), %rax
	cmpl	$0, 96(%rax)
	jg	.LBB47_20
.LBB47_16:                              # %if.then22
                                        #   in Loop: Header=BB47_12 Depth=1
	movq	-8(%rbp), %rax
	movq	8(%rax), %rax
	cmpl	$0, 96(%rax)
	jne	.LBB47_18
# %bb.17:                               # %if.then26
                                        #   in Loop: Header=BB47_12 Depth=1
	movq	-8(%rbp), %rax
	movq	56(%rax), %rax
	movq	-16(%rbp), %rcx
	subq	528(%rcx), %rax
	addq	-32(%rbp), %rax
	movq	%rax, -32(%rbp)
	movq	-48(%rbp), %rax
	addq	$1, %rax
	movq	%rax, -48(%rbp)
	jmp	.LBB47_19
.LBB47_18:                              # %if.else27
                                        #   in Loop: Header=BB47_12 Depth=1
	movq	-8(%rbp), %rax
	movq	56(%rax), %rax
	addq	-32(%rbp), %rax
	movq	%rax, -32(%rbp)
.LBB47_19:                              # %if.end30
                                        #   in Loop: Header=BB47_12 Depth=1
	jmp	.LBB47_20
.LBB47_20:                              # %if.end31
                                        #   in Loop: Header=BB47_12 Depth=1
	jmp	.LBB47_21
.LBB47_21:                              # %if.end32
                                        #   in Loop: Header=BB47_12 Depth=1
	jmp	.LBB47_22
.LBB47_22:                              # %for.inc33
                                        #   in Loop: Header=BB47_12 Depth=1
	movq	-8(%rbp), %rax
	addq	$64, %rax
	movq	%rax, -8(%rbp)
	jmp	.LBB47_12
.LBB47_23:                              # %for.end35
	vcvtsi2sdq	-48(%rbp), %xmm0, %xmm0
	movq	-16(%rbp), %rax
	vcvtsi2sdq	528(%rax), %xmm0, %xmm1
	vmulsd	%xmm1, %xmm0, %xmm0
	vcvtsi2sdq	-32(%rbp), %xmm0, %xmm1
	vaddsd	%xmm1, %xmm0, %xmm0
	cmpl	$420589950, -52(%rbp)   # imm = 0x1911B17E
	jne	.LBB47_25
.LBB47_24:
	addq	$64, %rsp
	popq	%rbp
	.cfi_def_cfa %rsp, 8
	retq
.LBB47_25:                              # %func_exit
	.cfi_def_cfa %rbp, 16
	vmovsd	%xmm0, -64(%rbp)        # 8-byte Spill
	callq	detect_breach
	vmovsd	-64(%rbp), %xmm0        # 8-byte Reload
                                        # xmm0 = mem[0],zero
	jmp	.LBB47_24
.Lfunc_end47:
	.size	flow_org_cost.41, .Lfunc_end47-flow_org_cost.41
	.cfi_endproc
                                        # -- End function
	.globl	primal_feasible.42      # -- Begin function primal_feasible.42
	.p2align	4, 0x90
	.type	primal_feasible.42,@function
primal_feasible.42:                     # @primal_feasible.42
	.cfi_startproc
# %bb.0:                                # %entry
	pushq	%rbp
	.cfi_def_cfa_offset 16
	.cfi_offset %rbp, -16
	movq	%rsp, %rbp
	.cfi_def_cfa_register %rbp
	pushq	%rbx
	subq	$72, %rsp
	.cfi_offset %rbx, -24
	movl	$547543561, -36(%rbp)   # imm = 0x20A2DA09
	movq	%rdi, -16(%rbp)
	movq	-16(%rbp), %rax
	movq	584(%rax), %rax
	movq	%rax, -80(%rbp)
	movq	-16(%rbp), %rax
	movq	592(%rax), %rax
	movq	%rax, -72(%rbp)
	movq	-16(%rbp), %rax
	movq	552(%rax), %rax
	movq	%rax, -24(%rbp)
	movq	-16(%rbp), %rax
	movq	560(%rax), %rax
	movq	%rax, -64(%rbp)
	movq	-24(%rbp), %rax
	addq	$104, %rax
	movq	%rax, -24(%rbp)
.LBB48_1:                               # %for.cond
                                        # =>This Inner Loop Header: Depth=1
	movq	-24(%rbp), %rax
	movq	-64(%rbp), %rcx
	cmpq	%rcx, %rax
	jae	.LBB48_16
# %bb.2:                                # %for.body
                                        #   in Loop: Header=BB48_1 Depth=1
	movq	-24(%rbp), %rax
	movq	48(%rax), %rax
	movq	%rax, -56(%rbp)
	movq	-24(%rbp), %rax
	movq	80(%rax), %rax
	movq	%rax, -32(%rbp)
	movq	-56(%rbp), %rax
	cmpq	-80(%rbp), %rax
	jb	.LBB48_10
# %bb.3:                                # %land.lhs.true
                                        #   in Loop: Header=BB48_1 Depth=1
	movq	-56(%rbp), %rax
	cmpq	-72(%rbp), %rax
	jae	.LBB48_10
# %bb.4:                                # %if.then
                                        #   in Loop: Header=BB48_1 Depth=1
	cmpq	$0, -32(%rbp)
	jl	.LBB48_6
# %bb.5:                                # %cond.true
                                        #   in Loop: Header=BB48_1 Depth=1
	movq	-32(%rbp), %rax
	jmp	.LBB48_7
.LBB48_6:                               # %cond.false
                                        #   in Loop: Header=BB48_1 Depth=1
	xorl	%eax, %eax
	subq	-32(%rbp), %rax
.LBB48_7:                               # %cond.end
                                        #   in Loop: Header=BB48_1 Depth=1
	movq	-16(%rbp), %rcx
	cmpq	512(%rcx), %rax
	jle	.LBB48_9
# %bb.8:                                # %if.then7
                                        #   in Loop: Header=BB48_1 Depth=1
	movabsq	$.L.str, %rdi
	movb	$0, %al
	callq	printf
	movq	-24(%rbp), %rax
	movl	96(%rax), %esi
	movq	-32(%rbp), %rdx
	movabsq	$.L.str.1, %rdi
	movb	$0, %al
	callq	printf
.LBB48_9:                               # %if.end
                                        #   in Loop: Header=BB48_1 Depth=1
	jmp	.LBB48_14
.LBB48_10:                              # %if.else
                                        #   in Loop: Header=BB48_1 Depth=1
	xorl	%eax, %eax
	movq	-32(%rbp), %rcx
	movq	-16(%rbp), %rdx
	subq	512(%rdx), %rax
	cmpq	%rax, %rcx
	jl	.LBB48_12
# %bb.11:                               # %lor.lhs.false
                                        #   in Loop: Header=BB48_1 Depth=1
	movq	-32(%rbp), %rax
	subq	$1, %rax
	movq	-16(%rbp), %rcx
	cmpq	512(%rcx), %rax
	jle	.LBB48_13
.LBB48_12:                              # %if.then15
	movabsq	$.L.str, %rdi
	movb	$0, %al
	callq	printf
	movq	-32(%rbp), %rsi
	movabsq	$.L.str.2, %rdi
	movb	$0, %al
	callq	printf
	movq	-16(%rbp), %rax
	movq	$0, 488(%rax)
	movq	$1, -48(%rbp)
	jmp	.LBB48_17
.LBB48_13:                              # %if.end18
                                        #   in Loop: Header=BB48_1 Depth=1
	jmp	.LBB48_14
.LBB48_14:                              # %if.end19
                                        #   in Loop: Header=BB48_1 Depth=1
	jmp	.LBB48_15
.LBB48_15:                              # %for.inc
                                        #   in Loop: Header=BB48_1 Depth=1
	movq	-24(%rbp), %rax
	addq	$104, %rax
	movq	%rax, -24(%rbp)
	jmp	.LBB48_1
.LBB48_16:                              # %for.end
	movq	-16(%rbp), %rax
	movq	$1, 488(%rax)
	movq	$0, -48(%rbp)
.LBB48_17:                              # %return
	movq	-48(%rbp), %rbx
	cmpl	$547543561, -36(%rbp)   # imm = 0x20A2DA09
	jne	.LBB48_19
.LBB48_18:
	movq	%rbx, %rax
	addq	$72, %rsp
	popq	%rbx
	popq	%rbp
	.cfi_def_cfa %rsp, 8
	retq
.LBB48_19:                              # %func_exit
	.cfi_def_cfa %rbp, 16
	callq	detect_breach
	jmp	.LBB48_18
.Lfunc_end48:
	.size	primal_feasible.42, .Lfunc_end48-primal_feasible.42
	.cfi_endproc
                                        # -- End function
	.globl	primal_feasible.43      # -- Begin function primal_feasible.43
	.p2align	4, 0x90
	.type	primal_feasible.43,@function
primal_feasible.43:                     # @primal_feasible.43
	.cfi_startproc
# %bb.0:                                # %entry
	pushq	%rbp
	.cfi_def_cfa_offset 16
	.cfi_offset %rbp, -16
	movq	%rsp, %rbp
	.cfi_def_cfa_register %rbp
	pushq	%rbx
	subq	$72, %rsp
	.cfi_offset %rbx, -24
	movl	$2097006333, -36(%rbp)  # imm = 0x7CFDC6FD
	movq	%rdi, -16(%rbp)
	movq	-16(%rbp), %rax
	movq	584(%rax), %rax
	movq	%rax, -72(%rbp)
	movq	-16(%rbp), %rax
	movq	592(%rax), %rax
	movq	%rax, -64(%rbp)
	movq	-16(%rbp), %rax
	movq	552(%rax), %rax
	movq	%rax, -24(%rbp)
	movq	-16(%rbp), %rax
	movq	560(%rax), %rax
	movq	%rax, -80(%rbp)
	movq	-24(%rbp), %rax
	addq	$104, %rax
	movq	%rax, -24(%rbp)
.LBB49_1:                               # %for.cond
                                        # =>This Inner Loop Header: Depth=1
	movq	-24(%rbp), %rax
	movq	-80(%rbp), %rcx
	cmpq	%rcx, %rax
	jae	.LBB49_16
# %bb.2:                                # %for.body
                                        #   in Loop: Header=BB49_1 Depth=1
	movq	-24(%rbp), %rax
	movq	48(%rax), %rax
	movq	%rax, -56(%rbp)
	movq	-24(%rbp), %rax
	movq	80(%rax), %rax
	movq	%rax, -32(%rbp)
	movq	-56(%rbp), %rax
	cmpq	-72(%rbp), %rax
	jb	.LBB49_10
# %bb.3:                                # %land.lhs.true
                                        #   in Loop: Header=BB49_1 Depth=1
	movq	-56(%rbp), %rax
	cmpq	-64(%rbp), %rax
	jae	.LBB49_10
# %bb.4:                                # %if.then
                                        #   in Loop: Header=BB49_1 Depth=1
	cmpq	$0, -32(%rbp)
	jl	.LBB49_6
# %bb.5:                                # %cond.true
                                        #   in Loop: Header=BB49_1 Depth=1
	movq	-32(%rbp), %rax
	jmp	.LBB49_7
.LBB49_6:                               # %cond.false
                                        #   in Loop: Header=BB49_1 Depth=1
	xorl	%eax, %eax
	subq	-32(%rbp), %rax
.LBB49_7:                               # %cond.end
                                        #   in Loop: Header=BB49_1 Depth=1
	movq	-16(%rbp), %rcx
	cmpq	512(%rcx), %rax
	jle	.LBB49_9
# %bb.8:                                # %if.then7
                                        #   in Loop: Header=BB49_1 Depth=1
	movabsq	$.L.str, %rdi
	movb	$0, %al
	callq	printf
	movq	-24(%rbp), %rax
	movl	96(%rax), %esi
	movq	-32(%rbp), %rdx
	movabsq	$.L.str.1, %rdi
	movb	$0, %al
	callq	printf
.LBB49_9:                               # %if.end
                                        #   in Loop: Header=BB49_1 Depth=1
	jmp	.LBB49_14
.LBB49_10:                              # %if.else
                                        #   in Loop: Header=BB49_1 Depth=1
	xorl	%eax, %eax
	movq	-32(%rbp), %rcx
	movq	-16(%rbp), %rdx
	subq	512(%rdx), %rax
	cmpq	%rax, %rcx
	jl	.LBB49_12
# %bb.11:                               # %lor.lhs.false
                                        #   in Loop: Header=BB49_1 Depth=1
	movq	-32(%rbp), %rax
	subq	$1, %rax
	movq	-16(%rbp), %rcx
	cmpq	512(%rcx), %rax
	jle	.LBB49_13
.LBB49_12:                              # %if.then15
	movabsq	$.L.str, %rdi
	movb	$0, %al
	callq	printf
	movq	-32(%rbp), %rsi
	movabsq	$.L.str.2, %rdi
	movb	$0, %al
	callq	printf
	movq	-16(%rbp), %rax
	movq	$0, 488(%rax)
	movq	$1, -48(%rbp)
	jmp	.LBB49_17
.LBB49_13:                              # %if.end18
                                        #   in Loop: Header=BB49_1 Depth=1
	jmp	.LBB49_14
.LBB49_14:                              # %if.end19
                                        #   in Loop: Header=BB49_1 Depth=1
	jmp	.LBB49_15
.LBB49_15:                              # %for.inc
                                        #   in Loop: Header=BB49_1 Depth=1
	movq	-24(%rbp), %rax
	addq	$104, %rax
	movq	%rax, -24(%rbp)
	jmp	.LBB49_1
.LBB49_16:                              # %for.end
	movq	-16(%rbp), %rax
	movq	$1, 488(%rax)
	movq	$0, -48(%rbp)
.LBB49_17:                              # %return
	movq	-48(%rbp), %rbx
	cmpl	$2097006333, -36(%rbp)  # imm = 0x7CFDC6FD
	jne	.LBB49_19
.LBB49_18:
	movq	%rbx, %rax
	addq	$72, %rsp
	popq	%rbx
	popq	%rbp
	.cfi_def_cfa %rsp, 8
	retq
.LBB49_19:                              # %func_exit
	.cfi_def_cfa %rbp, 16
	callq	detect_breach
	jmp	.LBB49_18
.Lfunc_end49:
	.size	primal_feasible.43, .Lfunc_end49-primal_feasible.43
	.cfi_endproc
                                        # -- End function
	.globl	flow_org_cost.44        # -- Begin function flow_org_cost.44
	.p2align	4, 0x90
	.type	flow_org_cost.44,@function
flow_org_cost.44:                       # @flow_org_cost.44
	.cfi_startproc
# %bb.0:                                # %entry
	pushq	%rbp
	.cfi_def_cfa_offset 16
	.cfi_offset %rbp, -16
	movq	%rsp, %rbp
	.cfi_def_cfa_register %rbp
	subq	$64, %rsp
	movl	$991428448, -52(%rbp)   # imm = 0x3B17FF60
	movq	%rdi, -16(%rbp)
	movq	$0, -48(%rbp)
	movq	$0, -40(%rbp)
	movq	-16(%rbp), %rax
	movq	576(%rax), %rax
	movq	%rax, -32(%rbp)
	movq	-16(%rbp), %rax
	movq	568(%rax), %rax
	movq	%rax, -8(%rbp)
.LBB50_1:                               # %for.cond
                                        # =>This Inner Loop Header: Depth=1
	movq	-8(%rbp), %rax
	movq	-32(%rbp), %rcx
	cmpq	%rcx, %rax
	je	.LBB50_7
# %bb.2:                                # %for.body
                                        #   in Loop: Header=BB50_1 Depth=1
	movq	-8(%rbp), %rax
	cmpl	$2, 24(%rax)
	jne	.LBB50_4
# %bb.3:                                # %if.then
                                        #   in Loop: Header=BB50_1 Depth=1
	movq	-8(%rbp), %rax
	movq	$1, 48(%rax)
	jmp	.LBB50_5
.LBB50_4:                               # %if.else
                                        #   in Loop: Header=BB50_1 Depth=1
	movq	-8(%rbp), %rax
	movq	$0, 48(%rax)
.LBB50_5:                               # %if.end
                                        #   in Loop: Header=BB50_1 Depth=1
	jmp	.LBB50_6
.LBB50_6:                               # %for.inc
                                        #   in Loop: Header=BB50_1 Depth=1
	movq	-8(%rbp), %rax
	addq	$64, %rax
	movq	%rax, -8(%rbp)
	jmp	.LBB50_1
.LBB50_7:                               # %for.end
	movq	-16(%rbp), %rax
	movq	560(%rax), %rax
	movq	%rax, -32(%rbp)
	movq	-16(%rbp), %rax
	movq	552(%rax), %rax
	movq	%rax, -24(%rbp)
	movq	-24(%rbp), %rax
	addq	$104, %rax
	movq	%rax, -24(%rbp)
.LBB50_8:                               # %for.cond4
                                        # =>This Inner Loop Header: Depth=1
	movq	-24(%rbp), %rax
	movq	-32(%rbp), %rcx
	cmpq	%rcx, %rax
	je	.LBB50_11
# %bb.9:                                # %for.body6
                                        #   in Loop: Header=BB50_8 Depth=1
	movq	-24(%rbp), %rax
	movq	80(%rax), %rax
	movq	-24(%rbp), %rcx
	movq	48(%rcx), %rcx
	movq	%rax, 48(%rcx)
# %bb.10:                               # %for.inc9
                                        #   in Loop: Header=BB50_8 Depth=1
	movq	-24(%rbp), %rax
	addq	$104, %rax
	movq	%rax, -24(%rbp)
	jmp	.LBB50_8
.LBB50_11:                              # %for.end11
	movq	-16(%rbp), %rax
	movq	576(%rax), %rax
	movq	%rax, -32(%rbp)
	movq	-16(%rbp), %rax
	movq	568(%rax), %rax
	movq	%rax, -8(%rbp)
.LBB50_12:                              # %for.cond14
                                        # =>This Inner Loop Header: Depth=1
	movq	-8(%rbp), %rax
	movq	-32(%rbp), %rcx
	cmpq	%rcx, %rax
	je	.LBB50_23
# %bb.13:                               # %for.body16
                                        #   in Loop: Header=BB50_12 Depth=1
	movq	-8(%rbp), %rax
	cmpq	$0, 48(%rax)
	je	.LBB50_21
# %bb.14:                               # %if.then18
                                        #   in Loop: Header=BB50_12 Depth=1
	movq	-8(%rbp), %rax
	movq	8(%rax), %rax
	cmpl	$0, 96(%rax)
	jge	.LBB50_16
# %bb.15:                               # %land.lhs.true
                                        #   in Loop: Header=BB50_12 Depth=1
	movq	-8(%rbp), %rax
	movq	16(%rax), %rax
	cmpl	$0, 96(%rax)
	jg	.LBB50_20
.LBB50_16:                              # %if.then22
                                        #   in Loop: Header=BB50_12 Depth=1
	movq	-8(%rbp), %rax
	movq	8(%rax), %rax
	cmpl	$0, 96(%rax)
	jne	.LBB50_18
# %bb.17:                               # %if.then26
                                        #   in Loop: Header=BB50_12 Depth=1
	movq	-8(%rbp), %rax
	movq	56(%rax), %rax
	movq	-16(%rbp), %rcx
	subq	528(%rcx), %rax
	addq	-40(%rbp), %rax
	movq	%rax, -40(%rbp)
	movq	-48(%rbp), %rax
	addq	$1, %rax
	movq	%rax, -48(%rbp)
	jmp	.LBB50_19
.LBB50_18:                              # %if.else27
                                        #   in Loop: Header=BB50_12 Depth=1
	movq	-8(%rbp), %rax
	movq	56(%rax), %rax
	addq	-40(%rbp), %rax
	movq	%rax, -40(%rbp)
.LBB50_19:                              # %if.end30
                                        #   in Loop: Header=BB50_12 Depth=1
	jmp	.LBB50_20
.LBB50_20:                              # %if.end31
                                        #   in Loop: Header=BB50_12 Depth=1
	jmp	.LBB50_21
.LBB50_21:                              # %if.end32
                                        #   in Loop: Header=BB50_12 Depth=1
	jmp	.LBB50_22
.LBB50_22:                              # %for.inc33
                                        #   in Loop: Header=BB50_12 Depth=1
	movq	-8(%rbp), %rax
	addq	$64, %rax
	movq	%rax, -8(%rbp)
	jmp	.LBB50_12
.LBB50_23:                              # %for.end35
	vcvtsi2sdq	-48(%rbp), %xmm0, %xmm0
	movq	-16(%rbp), %rax
	vcvtsi2sdq	528(%rax), %xmm0, %xmm1
	vmulsd	%xmm1, %xmm0, %xmm0
	vcvtsi2sdq	-40(%rbp), %xmm0, %xmm1
	vaddsd	%xmm1, %xmm0, %xmm0
	cmpl	$991428448, -52(%rbp)   # imm = 0x3B17FF60
	jne	.LBB50_25
.LBB50_24:
	addq	$64, %rsp
	popq	%rbp
	.cfi_def_cfa %rsp, 8
	retq
.LBB50_25:                              # %func_exit
	.cfi_def_cfa %rbp, 16
	vmovsd	%xmm0, -64(%rbp)        # 8-byte Spill
	callq	detect_breach
	vmovsd	-64(%rbp), %xmm0        # 8-byte Reload
                                        # xmm0 = mem[0],zero
	jmp	.LBB50_24
.Lfunc_end50:
	.size	flow_org_cost.44, .Lfunc_end50-flow_org_cost.44
	.cfi_endproc
                                        # -- End function
	.globl	flow_org_cost.45        # -- Begin function flow_org_cost.45
	.p2align	4, 0x90
	.type	flow_org_cost.45,@function
flow_org_cost.45:                       # @flow_org_cost.45
	.cfi_startproc
# %bb.0:                                # %entry
	pushq	%rbp
	.cfi_def_cfa_offset 16
	.cfi_offset %rbp, -16
	movq	%rsp, %rbp
	.cfi_def_cfa_register %rbp
	subq	$64, %rsp
	movl	$1982378253, -52(%rbp)  # imm = 0x7628B10D
	movq	%rdi, -16(%rbp)
	movq	$0, -48(%rbp)
	movq	$0, -32(%rbp)
	movq	-16(%rbp), %rax
	movq	576(%rax), %rax
	movq	%rax, -40(%rbp)
	movq	-16(%rbp), %rax
	movq	568(%rax), %rax
	movq	%rax, -8(%rbp)
.LBB51_1:                               # %for.cond
                                        # =>This Inner Loop Header: Depth=1
	movq	-8(%rbp), %rax
	movq	-40(%rbp), %rcx
	cmpq	%rcx, %rax
	je	.LBB51_7
# %bb.2:                                # %for.body
                                        #   in Loop: Header=BB51_1 Depth=1
	movq	-8(%rbp), %rax
	cmpl	$2, 24(%rax)
	jne	.LBB51_4
# %bb.3:                                # %if.then
                                        #   in Loop: Header=BB51_1 Depth=1
	movq	-8(%rbp), %rax
	movq	$1, 48(%rax)
	jmp	.LBB51_5
.LBB51_4:                               # %if.else
                                        #   in Loop: Header=BB51_1 Depth=1
	movq	-8(%rbp), %rax
	movq	$0, 48(%rax)
.LBB51_5:                               # %if.end
                                        #   in Loop: Header=BB51_1 Depth=1
	jmp	.LBB51_6
.LBB51_6:                               # %for.inc
                                        #   in Loop: Header=BB51_1 Depth=1
	movq	-8(%rbp), %rax
	addq	$64, %rax
	movq	%rax, -8(%rbp)
	jmp	.LBB51_1
.LBB51_7:                               # %for.end
	movq	-16(%rbp), %rax
	movq	560(%rax), %rax
	movq	%rax, -40(%rbp)
	movq	-16(%rbp), %rax
	movq	552(%rax), %rax
	movq	%rax, -24(%rbp)
	movq	-24(%rbp), %rax
	addq	$104, %rax
	movq	%rax, -24(%rbp)
.LBB51_8:                               # %for.cond4
                                        # =>This Inner Loop Header: Depth=1
	movq	-24(%rbp), %rax
	movq	-40(%rbp), %rcx
	cmpq	%rcx, %rax
	je	.LBB51_11
# %bb.9:                                # %for.body6
                                        #   in Loop: Header=BB51_8 Depth=1
	movq	-24(%rbp), %rax
	movq	80(%rax), %rax
	movq	-24(%rbp), %rcx
	movq	48(%rcx), %rcx
	movq	%rax, 48(%rcx)
# %bb.10:                               # %for.inc9
                                        #   in Loop: Header=BB51_8 Depth=1
	movq	-24(%rbp), %rax
	addq	$104, %rax
	movq	%rax, -24(%rbp)
	jmp	.LBB51_8
.LBB51_11:                              # %for.end11
	movq	-16(%rbp), %rax
	movq	576(%rax), %rax
	movq	%rax, -40(%rbp)
	movq	-16(%rbp), %rax
	movq	568(%rax), %rax
	movq	%rax, -8(%rbp)
.LBB51_12:                              # %for.cond14
                                        # =>This Inner Loop Header: Depth=1
	movq	-8(%rbp), %rax
	movq	-40(%rbp), %rcx
	cmpq	%rcx, %rax
	je	.LBB51_23
# %bb.13:                               # %for.body16
                                        #   in Loop: Header=BB51_12 Depth=1
	movq	-8(%rbp), %rax
	cmpq	$0, 48(%rax)
	je	.LBB51_21
# %bb.14:                               # %if.then18
                                        #   in Loop: Header=BB51_12 Depth=1
	movq	-8(%rbp), %rax
	movq	8(%rax), %rax
	cmpl	$0, 96(%rax)
	jge	.LBB51_16
# %bb.15:                               # %land.lhs.true
                                        #   in Loop: Header=BB51_12 Depth=1
	movq	-8(%rbp), %rax
	movq	16(%rax), %rax
	cmpl	$0, 96(%rax)
	jg	.LBB51_20
.LBB51_16:                              # %if.then22
                                        #   in Loop: Header=BB51_12 Depth=1
	movq	-8(%rbp), %rax
	movq	8(%rax), %rax
	cmpl	$0, 96(%rax)
	jne	.LBB51_18
# %bb.17:                               # %if.then26
                                        #   in Loop: Header=BB51_12 Depth=1
	movq	-8(%rbp), %rax
	movq	56(%rax), %rax
	movq	-16(%rbp), %rcx
	subq	528(%rcx), %rax
	addq	-32(%rbp), %rax
	movq	%rax, -32(%rbp)
	movq	-48(%rbp), %rax
	addq	$1, %rax
	movq	%rax, -48(%rbp)
	jmp	.LBB51_19
.LBB51_18:                              # %if.else27
                                        #   in Loop: Header=BB51_12 Depth=1
	movq	-8(%rbp), %rax
	movq	56(%rax), %rax
	addq	-32(%rbp), %rax
	movq	%rax, -32(%rbp)
.LBB51_19:                              # %if.end30
                                        #   in Loop: Header=BB51_12 Depth=1
	jmp	.LBB51_20
.LBB51_20:                              # %if.end31
                                        #   in Loop: Header=BB51_12 Depth=1
	jmp	.LBB51_21
.LBB51_21:                              # %if.end32
                                        #   in Loop: Header=BB51_12 Depth=1
	jmp	.LBB51_22
.LBB51_22:                              # %for.inc33
                                        #   in Loop: Header=BB51_12 Depth=1
	movq	-8(%rbp), %rax
	addq	$64, %rax
	movq	%rax, -8(%rbp)
	jmp	.LBB51_12
.LBB51_23:                              # %for.end35
	vcvtsi2sdq	-48(%rbp), %xmm0, %xmm0
	movq	-16(%rbp), %rax
	vcvtsi2sdq	528(%rax), %xmm0, %xmm1
	vmulsd	%xmm1, %xmm0, %xmm0
	vcvtsi2sdq	-32(%rbp), %xmm0, %xmm1
	vaddsd	%xmm1, %xmm0, %xmm0
	cmpl	$1982378253, -52(%rbp)  # imm = 0x7628B10D
	jne	.LBB51_25
.LBB51_24:
	addq	$64, %rsp
	popq	%rbp
	.cfi_def_cfa %rsp, 8
	retq
.LBB51_25:                              # %func_exit
	.cfi_def_cfa %rbp, 16
	vmovsd	%xmm0, -64(%rbp)        # 8-byte Spill
	callq	detect_breach
	vmovsd	-64(%rbp), %xmm0        # 8-byte Reload
                                        # xmm0 = mem[0],zero
	jmp	.LBB51_24
.Lfunc_end51:
	.size	flow_org_cost.45, .Lfunc_end51-flow_org_cost.45
	.cfi_endproc
                                        # -- End function
	.globl	flow_org_cost.46        # -- Begin function flow_org_cost.46
	.p2align	4, 0x90
	.type	flow_org_cost.46,@function
flow_org_cost.46:                       # @flow_org_cost.46
	.cfi_startproc
# %bb.0:                                # %entry
	pushq	%rbp
	.cfi_def_cfa_offset 16
	.cfi_offset %rbp, -16
	movq	%rsp, %rbp
	.cfi_def_cfa_register %rbp
	subq	$64, %rsp
	movl	$1170382658, -52(%rbp)  # imm = 0x45C29F42
	movq	%rdi, -16(%rbp)
	movq	$0, -48(%rbp)
	movq	$0, -40(%rbp)
	movq	-16(%rbp), %rax
	movq	576(%rax), %rax
	movq	%rax, -32(%rbp)
	movq	-16(%rbp), %rax
	movq	568(%rax), %rax
	movq	%rax, -8(%rbp)
.LBB52_1:                               # %for.cond
                                        # =>This Inner Loop Header: Depth=1
	movq	-8(%rbp), %rax
	movq	-32(%rbp), %rcx
	cmpq	%rcx, %rax
	je	.LBB52_7
# %bb.2:                                # %for.body
                                        #   in Loop: Header=BB52_1 Depth=1
	movq	-8(%rbp), %rax
	cmpl	$2, 24(%rax)
	jne	.LBB52_4
# %bb.3:                                # %if.then
                                        #   in Loop: Header=BB52_1 Depth=1
	movq	-8(%rbp), %rax
	movq	$1, 48(%rax)
	jmp	.LBB52_5
.LBB52_4:                               # %if.else
                                        #   in Loop: Header=BB52_1 Depth=1
	movq	-8(%rbp), %rax
	movq	$0, 48(%rax)
.LBB52_5:                               # %if.end
                                        #   in Loop: Header=BB52_1 Depth=1
	jmp	.LBB52_6
.LBB52_6:                               # %for.inc
                                        #   in Loop: Header=BB52_1 Depth=1
	movq	-8(%rbp), %rax
	addq	$64, %rax
	movq	%rax, -8(%rbp)
	jmp	.LBB52_1
.LBB52_7:                               # %for.end
	movq	-16(%rbp), %rax
	movq	560(%rax), %rax
	movq	%rax, -32(%rbp)
	movq	-16(%rbp), %rax
	movq	552(%rax), %rax
	movq	%rax, -24(%rbp)
	movq	-24(%rbp), %rax
	addq	$104, %rax
	movq	%rax, -24(%rbp)
.LBB52_8:                               # %for.cond4
                                        # =>This Inner Loop Header: Depth=1
	movq	-24(%rbp), %rax
	movq	-32(%rbp), %rcx
	cmpq	%rcx, %rax
	je	.LBB52_11
# %bb.9:                                # %for.body6
                                        #   in Loop: Header=BB52_8 Depth=1
	movq	-24(%rbp), %rax
	movq	80(%rax), %rax
	movq	-24(%rbp), %rcx
	movq	48(%rcx), %rcx
	movq	%rax, 48(%rcx)
# %bb.10:                               # %for.inc9
                                        #   in Loop: Header=BB52_8 Depth=1
	movq	-24(%rbp), %rax
	addq	$104, %rax
	movq	%rax, -24(%rbp)
	jmp	.LBB52_8
.LBB52_11:                              # %for.end11
	movq	-16(%rbp), %rax
	movq	576(%rax), %rax
	movq	%rax, -32(%rbp)
	movq	-16(%rbp), %rax
	movq	568(%rax), %rax
	movq	%rax, -8(%rbp)
.LBB52_12:                              # %for.cond14
                                        # =>This Inner Loop Header: Depth=1
	movq	-8(%rbp), %rax
	movq	-32(%rbp), %rcx
	cmpq	%rcx, %rax
	je	.LBB52_23
# %bb.13:                               # %for.body16
                                        #   in Loop: Header=BB52_12 Depth=1
	movq	-8(%rbp), %rax
	cmpq	$0, 48(%rax)
	je	.LBB52_21
# %bb.14:                               # %if.then18
                                        #   in Loop: Header=BB52_12 Depth=1
	movq	-8(%rbp), %rax
	movq	8(%rax), %rax
	cmpl	$0, 96(%rax)
	jge	.LBB52_16
# %bb.15:                               # %land.lhs.true
                                        #   in Loop: Header=BB52_12 Depth=1
	movq	-8(%rbp), %rax
	movq	16(%rax), %rax
	cmpl	$0, 96(%rax)
	jg	.LBB52_20
.LBB52_16:                              # %if.then22
                                        #   in Loop: Header=BB52_12 Depth=1
	movq	-8(%rbp), %rax
	movq	8(%rax), %rax
	cmpl	$0, 96(%rax)
	jne	.LBB52_18
# %bb.17:                               # %if.then26
                                        #   in Loop: Header=BB52_12 Depth=1
	movq	-8(%rbp), %rax
	movq	56(%rax), %rax
	movq	-16(%rbp), %rcx
	subq	528(%rcx), %rax
	addq	-40(%rbp), %rax
	movq	%rax, -40(%rbp)
	movq	-48(%rbp), %rax
	addq	$1, %rax
	movq	%rax, -48(%rbp)
	jmp	.LBB52_19
.LBB52_18:                              # %if.else27
                                        #   in Loop: Header=BB52_12 Depth=1
	movq	-8(%rbp), %rax
	movq	56(%rax), %rax
	addq	-40(%rbp), %rax
	movq	%rax, -40(%rbp)
.LBB52_19:                              # %if.end30
                                        #   in Loop: Header=BB52_12 Depth=1
	jmp	.LBB52_20
.LBB52_20:                              # %if.end31
                                        #   in Loop: Header=BB52_12 Depth=1
	jmp	.LBB52_21
.LBB52_21:                              # %if.end32
                                        #   in Loop: Header=BB52_12 Depth=1
	jmp	.LBB52_22
.LBB52_22:                              # %for.inc33
                                        #   in Loop: Header=BB52_12 Depth=1
	movq	-8(%rbp), %rax
	addq	$64, %rax
	movq	%rax, -8(%rbp)
	jmp	.LBB52_12
.LBB52_23:                              # %for.end35
	vcvtsi2sdq	-48(%rbp), %xmm0, %xmm0
	movq	-16(%rbp), %rax
	vcvtsi2sdq	528(%rax), %xmm0, %xmm1
	vmulsd	%xmm1, %xmm0, %xmm0
	vcvtsi2sdq	-40(%rbp), %xmm0, %xmm1
	vaddsd	%xmm1, %xmm0, %xmm0
	cmpl	$1170382658, -52(%rbp)  # imm = 0x45C29F42
	jne	.LBB52_25
.LBB52_24:
	addq	$64, %rsp
	popq	%rbp
	.cfi_def_cfa %rsp, 8
	retq
.LBB52_25:                              # %func_exit
	.cfi_def_cfa %rbp, 16
	vmovsd	%xmm0, -64(%rbp)        # 8-byte Spill
	callq	detect_breach
	vmovsd	-64(%rbp), %xmm0        # 8-byte Reload
                                        # xmm0 = mem[0],zero
	jmp	.LBB52_24
.Lfunc_end52:
	.size	flow_org_cost.46, .Lfunc_end52-flow_org_cost.46
	.cfi_endproc
                                        # -- End function
	.globl	flow_cost.47            # -- Begin function flow_cost.47
	.p2align	4, 0x90
	.type	flow_cost.47,@function
flow_cost.47:                           # @flow_cost.47
	.cfi_startproc
# %bb.0:                                # %entry
	pushq	%rbp
	.cfi_def_cfa_offset 16
	.cfi_offset %rbp, -16
	movq	%rsp, %rbp
	.cfi_def_cfa_register %rbp
	subq	$64, %rsp
	movl	$1312476283, -52(%rbp)  # imm = 0x4E3ACC7B
	movq	%rdi, -16(%rbp)
	movq	$0, -48(%rbp)
	movq	$0, -32(%rbp)
	movq	-16(%rbp), %rax
	movq	576(%rax), %rax
	movq	%rax, -40(%rbp)
	movq	-16(%rbp), %rax
	movq	568(%rax), %rax
	movq	%rax, -8(%rbp)
.LBB53_1:                               # %for.cond
                                        # =>This Inner Loop Header: Depth=1
	movq	-8(%rbp), %rax
	movq	-40(%rbp), %rcx
	cmpq	%rcx, %rax
	je	.LBB53_7
# %bb.2:                                # %for.body
                                        #   in Loop: Header=BB53_1 Depth=1
	movq	-8(%rbp), %rax
	cmpl	$2, 24(%rax)
	jne	.LBB53_4
# %bb.3:                                # %if.then
                                        #   in Loop: Header=BB53_1 Depth=1
	movq	-8(%rbp), %rax
	movq	$1, 48(%rax)
	jmp	.LBB53_5
.LBB53_4:                               # %if.else
                                        #   in Loop: Header=BB53_1 Depth=1
	movq	-8(%rbp), %rax
	movq	$0, 48(%rax)
.LBB53_5:                               # %if.end
                                        #   in Loop: Header=BB53_1 Depth=1
	jmp	.LBB53_6
.LBB53_6:                               # %for.inc
                                        #   in Loop: Header=BB53_1 Depth=1
	movq	-8(%rbp), %rax
	addq	$64, %rax
	movq	%rax, -8(%rbp)
	jmp	.LBB53_1
.LBB53_7:                               # %for.end
	movq	-16(%rbp), %rax
	movq	560(%rax), %rax
	movq	%rax, -40(%rbp)
	movq	-16(%rbp), %rax
	movq	552(%rax), %rax
	movq	%rax, -24(%rbp)
	movq	-24(%rbp), %rax
	addq	$104, %rax
	movq	%rax, -24(%rbp)
.LBB53_8:                               # %for.cond4
                                        # =>This Inner Loop Header: Depth=1
	movq	-24(%rbp), %rax
	movq	-40(%rbp), %rcx
	cmpq	%rcx, %rax
	je	.LBB53_11
# %bb.9:                                # %for.body6
                                        #   in Loop: Header=BB53_8 Depth=1
	movq	-24(%rbp), %rax
	movq	80(%rax), %rax
	movq	-24(%rbp), %rcx
	movq	48(%rcx), %rcx
	movq	%rax, 48(%rcx)
# %bb.10:                               # %for.inc9
                                        #   in Loop: Header=BB53_8 Depth=1
	movq	-24(%rbp), %rax
	addq	$104, %rax
	movq	%rax, -24(%rbp)
	jmp	.LBB53_8
.LBB53_11:                              # %for.end11
	movq	-16(%rbp), %rax
	movq	576(%rax), %rax
	movq	%rax, -40(%rbp)
	movq	-16(%rbp), %rax
	movq	568(%rax), %rax
	movq	%rax, -8(%rbp)
.LBB53_12:                              # %for.cond14
                                        # =>This Inner Loop Header: Depth=1
	movq	-8(%rbp), %rax
	movq	-40(%rbp), %rcx
	cmpq	%rcx, %rax
	je	.LBB53_23
# %bb.13:                               # %for.body16
                                        #   in Loop: Header=BB53_12 Depth=1
	movq	-8(%rbp), %rax
	cmpq	$0, 48(%rax)
	je	.LBB53_21
# %bb.14:                               # %if.then18
                                        #   in Loop: Header=BB53_12 Depth=1
	movq	-8(%rbp), %rax
	movq	8(%rax), %rax
	cmpl	$0, 96(%rax)
	jge	.LBB53_16
# %bb.15:                               # %land.lhs.true
                                        #   in Loop: Header=BB53_12 Depth=1
	movq	-8(%rbp), %rax
	movq	16(%rax), %rax
	cmpl	$0, 96(%rax)
	jg	.LBB53_20
.LBB53_16:                              # %if.then22
                                        #   in Loop: Header=BB53_12 Depth=1
	movq	-8(%rbp), %rax
	movq	8(%rax), %rax
	cmpl	$0, 96(%rax)
	jne	.LBB53_18
# %bb.17:                               # %if.then26
                                        #   in Loop: Header=BB53_12 Depth=1
	movq	-8(%rbp), %rax
	movq	(%rax), %rax
	movq	-16(%rbp), %rcx
	subq	528(%rcx), %rax
	addq	-32(%rbp), %rax
	movq	%rax, -32(%rbp)
	movq	-48(%rbp), %rax
	addq	$1, %rax
	movq	%rax, -48(%rbp)
	jmp	.LBB53_19
.LBB53_18:                              # %if.else27
                                        #   in Loop: Header=BB53_12 Depth=1
	movq	-8(%rbp), %rax
	movq	(%rax), %rax
	addq	-32(%rbp), %rax
	movq	%rax, -32(%rbp)
.LBB53_19:                              # %if.end30
                                        #   in Loop: Header=BB53_12 Depth=1
	jmp	.LBB53_20
.LBB53_20:                              # %if.end31
                                        #   in Loop: Header=BB53_12 Depth=1
	jmp	.LBB53_21
.LBB53_21:                              # %if.end32
                                        #   in Loop: Header=BB53_12 Depth=1
	jmp	.LBB53_22
.LBB53_22:                              # %for.inc33
                                        #   in Loop: Header=BB53_12 Depth=1
	movq	-8(%rbp), %rax
	addq	$64, %rax
	movq	%rax, -8(%rbp)
	jmp	.LBB53_12
.LBB53_23:                              # %for.end35
	vcvtsi2sdq	-48(%rbp), %xmm0, %xmm0
	movq	-16(%rbp), %rax
	vcvtsi2sdq	528(%rax), %xmm0, %xmm1
	vmulsd	%xmm1, %xmm0, %xmm0
	vcvtsi2sdq	-32(%rbp), %xmm0, %xmm1
	vaddsd	%xmm1, %xmm0, %xmm0
	cmpl	$1312476283, -52(%rbp)  # imm = 0x4E3ACC7B
	jne	.LBB53_25
.LBB53_24:
	addq	$64, %rsp
	popq	%rbp
	.cfi_def_cfa %rsp, 8
	retq
.LBB53_25:                              # %func_exit
	.cfi_def_cfa %rbp, 16
	vmovsd	%xmm0, -64(%rbp)        # 8-byte Spill
	callq	detect_breach
	vmovsd	-64(%rbp), %xmm0        # 8-byte Reload
