	.text
	.file	"pbeampp.c"
	.globl	bea_is_dual_infeasible  # -- Begin function bea_is_dual_infeasible
	.p2align	4, 0x90
	.type	bea_is_dual_infeasible,@function
bea_is_dual_infeasible:                 # @bea_is_dual_infeasible
	.cfi_startproc
# %bb.0:                                # %rand_bb
	pushq	%rbp
	.cfi_def_cfa_offset 16
	.cfi_offset %rbp, -16
	movq	%rsp, %rbp
	.cfi_def_cfa_register %rbp
	pushq	%r14
	pushq	%rbx
	.cfi_offset %rbx, -32
	.cfi_offset %r14, -24
	movq	%rsi, %r14
	movq	%rdi, %rbx
	callq	get_rand
	cmpl	$0, %eax
	jne	.LBB0_2
# %bb.1:                                # %func_bea_is_dual_infeasible.1
	movq	%rbx, %rdi
	movq	%r14, %rsi
	callq	bea_is_dual_infeasible.1
	popq	%rbx
	popq	%r14
	popq	%rbp
	.cfi_def_cfa %rsp, 8
	retq
.LBB0_2:                                # %func_bea_is_dual_infeasible.3
	.cfi_def_cfa %rbp, 16
	movq	%rbx, %rdi
	movq	%r14, %rsi
	callq	bea_is_dual_infeasible.3
	popq	%rbx
	popq	%r14
	popq	%rbp
	.cfi_def_cfa %rsp, 8
	retq
.Lfunc_end0:
	.size	bea_is_dual_infeasible, .Lfunc_end0-bea_is_dual_infeasible
	.cfi_endproc
                                        # -- End function
	.globl	sort_basket             # -- Begin function sort_basket
	.p2align	4, 0x90
	.type	sort_basket,@function
sort_basket:                            # @sort_basket
	.cfi_startproc
# %bb.0:                                # %rand_bb
	pushq	%rbp
	.cfi_def_cfa_offset 16
	.cfi_offset %rbp, -16
	movq	%rsp, %rbp
	.cfi_def_cfa_register %rbp
	pushq	%r14
	pushq	%rbx
	.cfi_offset %rbx, -32
	.cfi_offset %r14, -24
	movq	%rsi, %r14
	movq	%rdi, %rbx
	callq	get_rand
	cmpl	$0, %eax
	jne	.LBB1_5
# %bb.1:                                # %func_sort_basket.2
	movq	%rbx, %rdi
	movq	%r14, %rsi
	callq	sort_basket.2
	popq	%rbx
	popq	%r14
	popq	%rbp
	.cfi_def_cfa %rsp, 8
	retq
.LBB1_2:                                # %func_sort_basket.8
	.cfi_def_cfa %rbp, 16
	movq	%rbx, %rdi
	movq	%r14, %rsi
	callq	sort_basket.8
	popq	%rbx
	popq	%r14
	popq	%rbp
	.cfi_def_cfa %rsp, 8
	retq
.LBB1_3:                                # %func_sort_basket.9
	.cfi_def_cfa %rbp, 16
	movq	%rbx, %rdi
	movq	%r14, %rsi
	callq	sort_basket.9
	popq	%rbx
	popq	%r14
	popq	%rbp
	.cfi_def_cfa %rsp, 8
	retq
.LBB1_4:                                # %func_sort_basket.10
	.cfi_def_cfa %rbp, 16
	movq	%rbx, %rdi
	movq	%r14, %rsi
	callq	sort_basket.10
	popq	%rbx
	popq	%r14
	popq	%rbp
	.cfi_def_cfa %rsp, 8
	retq
.LBB1_5:                                # %ctrl0
	.cfi_def_cfa %rbp, 16
	cmpl	$1, %eax
	je	.LBB1_2
# %bb.6:                                # %ctrl1
	cmpl	$2, %eax
	je	.LBB1_3
	jmp	.LBB1_4
.Lfunc_end1:
	.size	sort_basket, .Lfunc_end1-sort_basket
	.cfi_endproc
                                        # -- End function
	.globl	primal_bea_mpp          # -- Begin function primal_bea_mpp
	.p2align	4, 0x90
	.type	primal_bea_mpp,@function
primal_bea_mpp:                         # @primal_bea_mpp
	.cfi_startproc
# %bb.0:                                # %rand_bb
	pushq	%rbp
	.cfi_def_cfa_offset 16
	.cfi_offset %rbp, -16
	movq	%rsp, %rbp
	.cfi_def_cfa_register %rbp
	pushq	%r15
	pushq	%r14
	pushq	%r12
	pushq	%rbx
	.cfi_offset %rbx, -48
	.cfi_offset %r12, -40
	.cfi_offset %r14, -32
	.cfi_offset %r15, -24
	movq	%rcx, %r14
	movq	%rdx, %r15
	movq	%rsi, %r12
	movq	%rdi, %rbx
	callq	get_rand
	cmpl	$0, %eax
	jne	.LBB2_5
# %bb.1:                                # %func_primal_bea_mpp.4
	movq	%rbx, %rdi
	movq	%r12, %rsi
	movq	%r15, %rdx
	movq	%r14, %rcx
	callq	primal_bea_mpp.4
	popq	%rbx
	popq	%r12
	popq	%r14
	popq	%r15
	popq	%rbp
	.cfi_def_cfa %rsp, 8
	retq
.LBB2_2:                                # %func_primal_bea_mpp.5
	.cfi_def_cfa %rbp, 16
	movq	%rbx, %rdi
	movq	%r12, %rsi
	movq	%r15, %rdx
	movq	%r14, %rcx
	callq	primal_bea_mpp.5
	popq	%rbx
	popq	%r12
	popq	%r14
	popq	%r15
	popq	%rbp
	.cfi_def_cfa %rsp, 8
	retq
.LBB2_3:                                # %func_primal_bea_mpp.6
	.cfi_def_cfa %rbp, 16
	movq	%rbx, %rdi
	movq	%r12, %rsi
	movq	%r15, %rdx
	movq	%r14, %rcx
	callq	primal_bea_mpp.6
	popq	%rbx
	popq	%r12
	popq	%r14
	popq	%r15
	popq	%rbp
	.cfi_def_cfa %rsp, 8
	retq
.LBB2_4:                                # %func_primal_bea_mpp.7
	.cfi_def_cfa %rbp, 16
	movq	%rbx, %rdi
	movq	%r12, %rsi
	movq	%r15, %rdx
	movq	%r14, %rcx
	callq	primal_bea_mpp.7
	popq	%rbx
	popq	%r12
	popq	%r14
	popq	%r15
	popq	%rbp
	.cfi_def_cfa %rsp, 8
	retq
.LBB2_5:                                # %ctrl0
	.cfi_def_cfa %rbp, 16
	cmpl	$1, %eax
	je	.LBB2_2
# %bb.6:                                # %ctrl1
	cmpl	$2, %eax
	je	.LBB2_3
	jmp	.LBB2_4
.Lfunc_end2:
	.size	primal_bea_mpp, .Lfunc_end2-primal_bea_mpp
	.cfi_endproc
                                        # -- End function
	.globl	bea_is_dual_infeasible.1 # -- Begin function bea_is_dual_infeasible.1
	.p2align	4, 0x90
	.type	bea_is_dual_infeasible.1,@function
bea_is_dual_infeasible.1:               # @bea_is_dual_infeasible.1
	.cfi_startproc
# %bb.0:                                # %entry
	pushq	%rbp
	.cfi_def_cfa_offset 16
	.cfi_offset %rbp, -16
	movq	%rsp, %rbp
	.cfi_def_cfa_register %rbp
	pushq	%rbx
	subq	$24, %rsp
	.cfi_offset %rbx, -24
	movl	$1239625984, -12(%rbp)  # imm = 0x49E33100
	movq	%rdi, -32(%rbp)
	movq	%rsi, -24(%rbp)
	cmpq	$0, -24(%rbp)
	jge	.LBB3_2
# %bb.1:                                # %land.lhs.true
	movq	-32(%rbp), %rax
	cmpl	$1, 24(%rax)
	movb	$1, %al
	je	.LBB3_5
.LBB3_2:                                # %lor.rhs
	xorl	%eax, %eax
	cmpq	$0, -24(%rbp)
	jle	.LBB3_4
# %bb.3:                                # %land.rhs
	movq	-32(%rbp), %rax
	cmpl	$2, 24(%rax)
	sete	%al
.LBB3_4:                                # %land.end
.LBB3_5:                                # %lor.end
	andb	$1, %al
	movzbl	%al, %ebx
	cmpl	$1239625984, -12(%rbp)  # imm = 0x49E33100
	jne	.LBB3_7
.LBB3_6:
	movl	%ebx, %eax
	addq	$24, %rsp
	popq	%rbx
	popq	%rbp
	.cfi_def_cfa %rsp, 8
	retq
.LBB3_7:                                # %func_exit
	.cfi_def_cfa %rbp, 16
	callq	detect_breach
	jmp	.LBB3_6
.Lfunc_end3:
	.size	bea_is_dual_infeasible.1, .Lfunc_end3-bea_is_dual_infeasible.1
	.cfi_endproc
                                        # -- End function
	.globl	sort_basket.2           # -- Begin function sort_basket.2
	.p2align	4, 0x90
	.type	sort_basket.2,@function
sort_basket.2:                          # @sort_basket.2
	.cfi_startproc
# %bb.0:                                # %entry
	pushq	%rbp
	.cfi_def_cfa_offset 16
	.cfi_offset %rbp, -16
	movq	%rsp, %rbp
	.cfi_def_cfa_register %rbp
	subq	$64, %rsp
	movl	$1077374888, -36(%rbp)  # imm = 0x40376FA8
	movq	%rdi, -24(%rbp)
	movq	%rsi, -32(%rbp)
	movq	-24(%rbp), %rax
	movq	%rax, -8(%rbp)
	movq	-32(%rbp), %rax
	movq	%rax, -16(%rbp)
	movq	-8(%rbp), %rax
	addq	-16(%rbp), %rax
	cqto
	movl	$2, %ecx
	idivq	%rcx
	movq	perm(,%rax,8), %rax
	movq	16(%rax), %rax
	movq	%rax, -48(%rbp)
.LBB4_1:                                # %do.body
                                        # =>This Loop Header: Depth=1
                                        #     Child Loop BB4_2 Depth 2
                                        #     Child Loop BB4_5 Depth 2
	jmp	.LBB4_2
.LBB4_2:                                # %while.cond
                                        #   Parent Loop BB4_1 Depth=1
                                        # =>  This Inner Loop Header: Depth=2
	movq	-8(%rbp), %rax
	movq	perm(,%rax,8), %rax
	movq	16(%rax), %rax
	cmpq	-48(%rbp), %rax
	jle	.LBB4_4
# %bb.3:                                # %while.body
                                        #   in Loop: Header=BB4_2 Depth=2
	movq	-8(%rbp), %rax
	addq	$1, %rax
	movq	%rax, -8(%rbp)
	jmp	.LBB4_2
.LBB4_4:                                # %while.end
                                        #   in Loop: Header=BB4_1 Depth=1
	jmp	.LBB4_5
.LBB4_5:                                # %while.cond3
                                        #   Parent Loop BB4_1 Depth=1
                                        # =>  This Inner Loop Header: Depth=2
	movq	-48(%rbp), %rax
	movq	-16(%rbp), %rcx
	movq	perm(,%rcx,8), %rcx
	cmpq	16(%rcx), %rax
	jle	.LBB4_7
# %bb.6:                                # %while.body7
                                        #   in Loop: Header=BB4_5 Depth=2
	movq	-16(%rbp), %rax
	addq	$-1, %rax
	movq	%rax, -16(%rbp)
	jmp	.LBB4_5
.LBB4_7:                                # %while.end8
                                        #   in Loop: Header=BB4_1 Depth=1
	movq	-8(%rbp), %rax
	cmpq	-16(%rbp), %rax
	jge	.LBB4_9
# %bb.8:                                # %if.then
                                        #   in Loop: Header=BB4_1 Depth=1
	movq	-8(%rbp), %rax
	movq	perm(,%rax,8), %rax
	movq	%rax, -56(%rbp)
	movq	-16(%rbp), %rax
	movq	perm(,%rax,8), %rax
	movq	-8(%rbp), %rcx
	movq	%rax, perm(,%rcx,8)
	movq	-56(%rbp), %rax
	movq	-16(%rbp), %rcx
	movq	%rax, perm(,%rcx,8)
.LBB4_9:                                # %if.end
                                        #   in Loop: Header=BB4_1 Depth=1
	movq	-8(%rbp), %rax
	cmpq	-16(%rbp), %rax
	jg	.LBB4_11
# %bb.10:                               # %if.then15
                                        #   in Loop: Header=BB4_1 Depth=1
	movq	-8(%rbp), %rax
	addq	$1, %rax
	movq	%rax, -8(%rbp)
	movq	-16(%rbp), %rax
	addq	$-1, %rax
	movq	%rax, -16(%rbp)
.LBB4_11:                               # %if.end18
                                        #   in Loop: Header=BB4_1 Depth=1
	jmp	.LBB4_12
.LBB4_12:                               # %do.cond
                                        #   in Loop: Header=BB4_1 Depth=1
	movq	-8(%rbp), %rax
	cmpq	-16(%rbp), %rax
	jle	.LBB4_1
# %bb.13:                               # %do.end
	movq	-24(%rbp), %rax
	cmpq	-16(%rbp), %rax
	jge	.LBB4_15
# %bb.14:                               # %if.then21
	movq	-24(%rbp), %rdi
	movq	-16(%rbp), %rsi
	callq	sort_basket
.LBB4_15:                               # %if.end22
	movq	-8(%rbp), %rax
	cmpq	-32(%rbp), %rax
	jge	.LBB4_18
# %bb.16:                               # %land.lhs.true
	cmpq	$50, -8(%rbp)
	jg	.LBB4_18
# %bb.17:                               # %if.then25
	movq	-8(%rbp), %rdi
	movq	-32(%rbp), %rsi
	callq	sort_basket
.LBB4_18:                               # %if.end26
	cmpl	$1077374888, -36(%rbp)  # imm = 0x40376FA8
	jne	.LBB4_20
.LBB4_19:
	addq	$64, %rsp
	popq	%rbp
	.cfi_def_cfa %rsp, 8
	retq
.LBB4_20:                               # %func_exit
	.cfi_def_cfa %rbp, 16
	callq	detect_breach
	jmp	.LBB4_19
.Lfunc_end4:
	.size	sort_basket.2, .Lfunc_end4-sort_basket.2
	.cfi_endproc
                                        # -- End function
	.globl	bea_is_dual_infeasible.3 # -- Begin function bea_is_dual_infeasible.3
	.p2align	4, 0x90
	.type	bea_is_dual_infeasible.3,@function
bea_is_dual_infeasible.3:               # @bea_is_dual_infeasible.3
	.cfi_startproc
# %bb.0:                                # %entry
	pushq	%rbp
	.cfi_def_cfa_offset 16
	.cfi_offset %rbp, -16
	movq	%rsp, %rbp
	.cfi_def_cfa_register %rbp
	pushq	%rbx
	subq	$24, %rsp
	.cfi_offset %rbx, -24
	movl	$1367307118, -12(%rbp)  # imm = 0x517F736E
	movq	%rdi, -24(%rbp)
	movq	%rsi, -32(%rbp)
	cmpq	$0, -32(%rbp)
	jge	.LBB5_2
# %bb.1:                                # %land.lhs.true
	movq	-24(%rbp), %rax
	cmpl	$1, 24(%rax)
	movb	$1, %al
	je	.LBB5_5
.LBB5_2:                                # %lor.rhs
	xorl	%eax, %eax
	cmpq	$0, -32(%rbp)
	jle	.LBB5_4
# %bb.3:                                # %land.rhs
	movq	-24(%rbp), %rax
	cmpl	$2, 24(%rax)
	sete	%al
.LBB5_4:                                # %land.end
.LBB5_5:                                # %lor.end
	andb	$1, %al
	movzbl	%al, %ebx
	cmpl	$1367307118, -12(%rbp)  # imm = 0x517F736E
	jne	.LBB5_7
.LBB5_6:
	movl	%ebx, %eax
	addq	$24, %rsp
	popq	%rbx
	popq	%rbp
	.cfi_def_cfa %rsp, 8
	retq
.LBB5_7:                                # %func_exit
	.cfi_def_cfa %rbp, 16
	callq	detect_breach
	jmp	.LBB5_6
.Lfunc_end5:
	.size	bea_is_dual_infeasible.3, .Lfunc_end5-bea_is_dual_infeasible.3
	.cfi_endproc
                                        # -- End function
	.globl	primal_bea_mpp.4        # -- Begin function primal_bea_mpp.4
	.p2align	4, 0x90
	.type	primal_bea_mpp.4,@function
primal_bea_mpp.4:                       # @primal_bea_mpp.4
	.cfi_startproc
# %bb.0:                                # %entry
	pushq	%rbp
	.cfi_def_cfa_offset 16
	.cfi_offset %rbp, -16
	movq	%rsp, %rbp
	.cfi_def_cfa_register %rbp
	pushq	%rbx
	subq	$88, %rsp
	.cfi_offset %rbx, -24
	movl	$306107581, -44(%rbp)   # imm = 0x123ED4BD
	movq	%rdi, -72(%rbp)
	movq	%rsi, -88(%rbp)
	movq	%rdx, -80(%rbp)
	movq	%rcx, -64(%rbp)
	cmpq	$0, initialize
	je	.LBB6_6
# %bb.1:                                # %if.then
	movq	$1, -32(%rbp)
.LBB6_2:                                # %for.cond
                                        # =>This Inner Loop Header: Depth=1
	cmpq	$351, -32(%rbp)         # imm = 0x15F
	jge	.LBB6_5
# %bb.3:                                # %for.body
                                        #   in Loop: Header=BB6_2 Depth=1
	imulq	$24, -32(%rbp), %rax
	movabsq	$basket, %rcx
	addq	%rax, %rcx
	movq	-32(%rbp), %rax
	movq	%rcx, perm(,%rax,8)
# %bb.4:                                # %for.inc
                                        #   in Loop: Header=BB6_2 Depth=1
	movq	-32(%rbp), %rax
	addq	$1, %rax
	movq	%rax, -32(%rbp)
	jmp	.LBB6_2
.LBB6_5:                                # %for.end
	movq	-72(%rbp), %rax
	subq	$1, %rax
	cqto
	movl	$300, %ecx              # imm = 0x12C
	idivq	%rcx
	addq	$1, %rax
	movq	%rax, nr_group
	movq	$0, group_pos
	movq	$0, basket_size
	movq	$0, initialize
	jmp	.LBB6_21
.LBB6_6:                                # %if.else
	movq	$2, -32(%rbp)
	movq	$0, -40(%rbp)
.LBB6_7:                                # %for.cond2
                                        # =>This Inner Loop Header: Depth=1
	xorl	%eax, %eax
	cmpq	$50, -32(%rbp)
	jg	.LBB6_9
# %bb.8:                                # %land.rhs
                                        #   in Loop: Header=BB6_7 Depth=1
	movq	-32(%rbp), %rax
	cmpq	basket_size, %rax
	setle	%al
.LBB6_9:                                # %land.end
                                        #   in Loop: Header=BB6_7 Depth=1
	testb	$1, %al
	jne	.LBB6_10
	jmp	.LBB6_20
.LBB6_10:                               # %for.body5
                                        #   in Loop: Header=BB6_7 Depth=1
	movq	-32(%rbp), %rax
	movq	perm(,%rax,8), %rax
	movq	(%rax), %rax
	movq	%rax, -16(%rbp)
	movq	-16(%rbp), %rax
	movq	(%rax), %rax
	movq	-16(%rbp), %rcx
	movq	8(%rcx), %rcx
	subq	(%rcx), %rax
	movq	-16(%rbp), %rcx
	movq	16(%rcx), %rcx
	addq	(%rcx), %rax
	movq	%rax, -24(%rbp)
	cmpq	$0, -24(%rbp)
	jge	.LBB6_12
# %bb.11:                               # %land.lhs.true
                                        #   in Loop: Header=BB6_7 Depth=1
	movq	-16(%rbp), %rax
	cmpl	$1, 24(%rax)
	je	.LBB6_14
.LBB6_12:                               # %lor.lhs.false
                                        #   in Loop: Header=BB6_7 Depth=1
	cmpq	$0, -24(%rbp)
	jle	.LBB6_18
# %bb.13:                               # %land.lhs.true13
                                        #   in Loop: Header=BB6_7 Depth=1
	movq	-16(%rbp), %rax
	cmpl	$2, 24(%rax)
	jne	.LBB6_18
.LBB6_14:                               # %if.then16
                                        #   in Loop: Header=BB6_7 Depth=1
	movq	-40(%rbp), %rax
	addq	$1, %rax
	movq	%rax, -40(%rbp)
	movq	-16(%rbp), %rax
	movq	-40(%rbp), %rcx
	movq	perm(,%rcx,8), %rcx
	movq	%rax, (%rcx)
	movq	-24(%rbp), %rax
	movq	-40(%rbp), %rcx
	movq	perm(,%rcx,8), %rcx
	movq	%rax, 8(%rcx)
	cmpq	$0, -24(%rbp)
	jl	.LBB6_16
# %bb.15:                               # %cond.true
                                        #   in Loop: Header=BB6_7 Depth=1
	movq	-24(%rbp), %rax
	jmp	.LBB6_17
.LBB6_16:                               # %cond.false
                                        #   in Loop: Header=BB6_7 Depth=1
	xorl	%eax, %eax
	subq	-24(%rbp), %rax
.LBB6_17:                               # %cond.end
                                        #   in Loop: Header=BB6_7 Depth=1
	movq	-40(%rbp), %rcx
	movq	perm(,%rcx,8), %rcx
	movq	%rax, 16(%rcx)
.LBB6_18:                               # %if.end
                                        #   in Loop: Header=BB6_7 Depth=1
	jmp	.LBB6_19
.LBB6_19:                               # %for.inc25
                                        #   in Loop: Header=BB6_7 Depth=1
	movq	-32(%rbp), %rax
	addq	$1, %rax
	movq	%rax, -32(%rbp)
	jmp	.LBB6_7
.LBB6_20:                               # %for.end27
	movq	-40(%rbp), %rax
	movq	%rax, basket_size
.LBB6_21:                               # %if.end28
	movq	group_pos, %rax
	movq	%rax, -96(%rbp)
.LBB6_22:                               # %NEXT
                                        # =>This Loop Header: Depth=1
                                        #     Child Loop BB6_23 Depth 2
	movq	-88(%rbp), %rax
	movq	group_pos, %rcx
	shlq	$6, %rcx
	addq	%rcx, %rax
	movq	%rax, -16(%rbp)
.LBB6_23:                               # %for.cond29
                                        #   Parent Loop BB6_22 Depth=1
                                        # =>  This Inner Loop Header: Depth=2
	movq	-16(%rbp), %rax
	cmpq	-80(%rbp), %rax
	jae	.LBB6_33
# %bb.24:                               # %for.body31
                                        #   in Loop: Header=BB6_23 Depth=2
	movq	-16(%rbp), %rax
	cmpl	$0, 24(%rax)
	jle	.LBB6_31
# %bb.25:                               # %if.then34
                                        #   in Loop: Header=BB6_23 Depth=2
	movq	-16(%rbp), %rax
	movq	(%rax), %rax
	movq	-16(%rbp), %rcx
	movq	8(%rcx), %rcx
	subq	(%rcx), %rax
	movq	-16(%rbp), %rcx
	movq	16(%rcx), %rcx
	addq	(%rcx), %rax
	movq	%rax, -24(%rbp)
	movq	-16(%rbp), %rdi
	movq	-24(%rbp), %rsi
	callq	bea_is_dual_infeasible
	cmpl	$0, %eax
	je	.LBB6_30
# %bb.26:                               # %if.then43
                                        #   in Loop: Header=BB6_23 Depth=2
	movq	basket_size, %rax
	addq	$1, %rax
	movq	%rax, basket_size
	movq	-16(%rbp), %rax
	movq	basket_size, %rcx
	movq	perm(,%rcx,8), %rcx
	movq	%rax, (%rcx)
	movq	-24(%rbp), %rax
	movq	basket_size, %rcx
	movq	perm(,%rcx,8), %rcx
	movq	%rax, 8(%rcx)
	cmpq	$0, -24(%rbp)
	jl	.LBB6_28
# %bb.27:                               # %cond.true50
                                        #   in Loop: Header=BB6_23 Depth=2
	movq	-24(%rbp), %rax
	jmp	.LBB6_29
.LBB6_28:                               # %cond.false51
                                        #   in Loop: Header=BB6_23 Depth=2
	xorl	%eax, %eax
	subq	-24(%rbp), %rax
.LBB6_29:                               # %cond.end53
                                        #   in Loop: Header=BB6_23 Depth=2
	movq	basket_size, %rcx
	movq	perm(,%rcx,8), %rcx
	movq	%rax, 16(%rcx)
.LBB6_30:                               # %if.end57
                                        #   in Loop: Header=BB6_23 Depth=2
	jmp	.LBB6_31
.LBB6_31:                               # %if.end58
                                        #   in Loop: Header=BB6_23 Depth=2
	jmp	.LBB6_32
.LBB6_32:                               # %for.inc59
                                        #   in Loop: Header=BB6_23 Depth=2
	movq	nr_group, %rax
	shlq	$6, %rax
	addq	-16(%rbp), %rax
	movq	%rax, -16(%rbp)
	jmp	.LBB6_23
.LBB6_33:                               # %for.end61
                                        #   in Loop: Header=BB6_22 Depth=1
	movq	group_pos, %rax
	addq	$1, %rax
	movq	%rax, group_pos
	cmpq	nr_group, %rax
	jne	.LBB6_35
# %bb.34:                               # %if.then64
                                        #   in Loop: Header=BB6_22 Depth=1
	movq	$0, group_pos
.LBB6_35:                               # %if.end65
                                        #   in Loop: Header=BB6_22 Depth=1
	cmpq	$50, basket_size
	jge	.LBB6_38
# %bb.36:                               # %land.lhs.true67
                                        #   in Loop: Header=BB6_22 Depth=1
	movq	group_pos, %rax
	cmpq	-96(%rbp), %rax
	je	.LBB6_38
# %bb.37:                               # %if.then69
                                        #   in Loop: Header=BB6_22 Depth=1
	jmp	.LBB6_22
.LBB6_38:                               # %if.end70
	cmpq	$0, basket_size
	jne	.LBB6_40
# %bb.39:                               # %if.then72
	movq	$1, initialize
	movq	-64(%rbp), %rax
	movq	$0, (%rax)
	movq	$0, -56(%rbp)
	jmp	.LBB6_41
.LBB6_40:                               # %if.end73
	movq	basket_size, %rsi
	movl	$1, %edi
	callq	sort_basket
	movq	perm+8, %rax
	movq	8(%rax), %rax
	movq	-64(%rbp), %rcx
	movq	%rax, (%rcx)
	movq	perm+8, %rax
	movq	(%rax), %rax
	movq	%rax, -56(%rbp)
.LBB6_41:                               # %return
	movq	-56(%rbp), %rbx
	cmpl	$306107581, -44(%rbp)   # imm = 0x123ED4BD
	jne	.LBB6_43
.LBB6_42:
	movq	%rbx, %rax
	addq	$88, %rsp
	popq	%rbx
	popq	%rbp
	.cfi_def_cfa %rsp, 8
	retq
.LBB6_43:                               # %func_exit
	.cfi_def_cfa %rbp, 16
	callq	detect_breach
	jmp	.LBB6_42
.Lfunc_end6:
	.size	primal_bea_mpp.4, .Lfunc_end6-primal_bea_mpp.4
	.cfi_endproc
                                        # -- End function
	.globl	primal_bea_mpp.5        # -- Begin function primal_bea_mpp.5
	.p2align	4, 0x90
	.type	primal_bea_mpp.5,@function
primal_bea_mpp.5:                       # @primal_bea_mpp.5
	.cfi_startproc
# %bb.0:                                # %entry
	pushq	%rbp
	.cfi_def_cfa_offset 16
	.cfi_offset %rbp, -16
	movq	%rsp, %rbp
	.cfi_def_cfa_register %rbp
	pushq	%rbx
	subq	$88, %rsp
	.cfi_offset %rbx, -24
	movl	$2023112033, -44(%rbp)  # imm = 0x78963D61
	movq	%rdi, -88(%rbp)
	movq	%rsi, -72(%rbp)
	movq	%rdx, -96(%rbp)
	movq	%rcx, -56(%rbp)
	cmpq	$0, initialize
	je	.LBB7_6
# %bb.1:                                # %if.then
	movq	$1, -32(%rbp)
.LBB7_2:                                # %for.cond
                                        # =>This Inner Loop Header: Depth=1
	cmpq	$351, -32(%rbp)         # imm = 0x15F
	jge	.LBB7_5
# %bb.3:                                # %for.body
                                        #   in Loop: Header=BB7_2 Depth=1
	imulq	$24, -32(%rbp), %rax
	movabsq	$basket, %rcx
	addq	%rax, %rcx
	movq	-32(%rbp), %rax
	movq	%rcx, perm(,%rax,8)
# %bb.4:                                # %for.inc
                                        #   in Loop: Header=BB7_2 Depth=1
	movq	-32(%rbp), %rax
	addq	$1, %rax
	movq	%rax, -32(%rbp)
	jmp	.LBB7_2
.LBB7_5:                                # %for.end
	movq	-88(%rbp), %rax
	subq	$1, %rax
	cqto
	movl	$300, %ecx              # imm = 0x12C
	idivq	%rcx
	addq	$1, %rax
	movq	%rax, nr_group
	movq	$0, group_pos
	movq	$0, basket_size
	movq	$0, initialize
	jmp	.LBB7_21
.LBB7_6:                                # %if.else
	movq	$2, -32(%rbp)
	movq	$0, -40(%rbp)
.LBB7_7:                                # %for.cond2
                                        # =>This Inner Loop Header: Depth=1
	xorl	%eax, %eax
	cmpq	$50, -32(%rbp)
	jg	.LBB7_9
# %bb.8:                                # %land.rhs
                                        #   in Loop: Header=BB7_7 Depth=1
	movq	-32(%rbp), %rax
	cmpq	basket_size, %rax
	setle	%al
.LBB7_9:                                # %land.end
                                        #   in Loop: Header=BB7_7 Depth=1
	testb	$1, %al
	jne	.LBB7_10
	jmp	.LBB7_20
.LBB7_10:                               # %for.body5
                                        #   in Loop: Header=BB7_7 Depth=1
	movq	-32(%rbp), %rax
	movq	perm(,%rax,8), %rax
	movq	(%rax), %rax
	movq	%rax, -16(%rbp)
	movq	-16(%rbp), %rax
	movq	(%rax), %rax
	movq	-16(%rbp), %rcx
	movq	8(%rcx), %rcx
	subq	(%rcx), %rax
	movq	-16(%rbp), %rcx
	movq	16(%rcx), %rcx
	addq	(%rcx), %rax
	movq	%rax, -24(%rbp)
	cmpq	$0, -24(%rbp)
	jge	.LBB7_12
# %bb.11:                               # %land.lhs.true
                                        #   in Loop: Header=BB7_7 Depth=1
	movq	-16(%rbp), %rax
	cmpl	$1, 24(%rax)
	je	.LBB7_14
.LBB7_12:                               # %lor.lhs.false
                                        #   in Loop: Header=BB7_7 Depth=1
	cmpq	$0, -24(%rbp)
	jle	.LBB7_18
# %bb.13:                               # %land.lhs.true13
                                        #   in Loop: Header=BB7_7 Depth=1
	movq	-16(%rbp), %rax
	cmpl	$2, 24(%rax)
	jne	.LBB7_18
.LBB7_14:                               # %if.then16
                                        #   in Loop: Header=BB7_7 Depth=1
	movq	-40(%rbp), %rax
	addq	$1, %rax
	movq	%rax, -40(%rbp)
	movq	-16(%rbp), %rax
	movq	-40(%rbp), %rcx
	movq	perm(,%rcx,8), %rcx
	movq	%rax, (%rcx)
	movq	-24(%rbp), %rax
	movq	-40(%rbp), %rcx
	movq	perm(,%rcx,8), %rcx
	movq	%rax, 8(%rcx)
	cmpq	$0, -24(%rbp)
	jl	.LBB7_16
# %bb.15:                               # %cond.true
                                        #   in Loop: Header=BB7_7 Depth=1
	movq	-24(%rbp), %rax
	jmp	.LBB7_17
.LBB7_16:                               # %cond.false
                                        #   in Loop: Header=BB7_7 Depth=1
	xorl	%eax, %eax
	subq	-24(%rbp), %rax
.LBB7_17:                               # %cond.end
                                        #   in Loop: Header=BB7_7 Depth=1
	movq	-40(%rbp), %rcx
	movq	perm(,%rcx,8), %rcx
	movq	%rax, 16(%rcx)
.LBB7_18:                               # %if.end
                                        #   in Loop: Header=BB7_7 Depth=1
	jmp	.LBB7_19
.LBB7_19:                               # %for.inc25
                                        #   in Loop: Header=BB7_7 Depth=1
	movq	-32(%rbp), %rax
	addq	$1, %rax
	movq	%rax, -32(%rbp)
	jmp	.LBB7_7
.LBB7_20:                               # %for.end27
	movq	-40(%rbp), %rax
	movq	%rax, basket_size
.LBB7_21:                               # %if.end28
	movq	group_pos, %rax
	movq	%rax, -80(%rbp)
.LBB7_22:                               # %NEXT
                                        # =>This Loop Header: Depth=1
                                        #     Child Loop BB7_23 Depth 2
	movq	-72(%rbp), %rax
	movq	group_pos, %rcx
	shlq	$6, %rcx
	addq	%rcx, %rax
	movq	%rax, -16(%rbp)
.LBB7_23:                               # %for.cond29
                                        #   Parent Loop BB7_22 Depth=1
                                        # =>  This Inner Loop Header: Depth=2
	movq	-16(%rbp), %rax
	cmpq	-96(%rbp), %rax
	jae	.LBB7_33
# %bb.24:                               # %for.body31
                                        #   in Loop: Header=BB7_23 Depth=2
	movq	-16(%rbp), %rax
	cmpl	$0, 24(%rax)
	jle	.LBB7_31
# %bb.25:                               # %if.then34
                                        #   in Loop: Header=BB7_23 Depth=2
	movq	-16(%rbp), %rax
	movq	(%rax), %rax
	movq	-16(%rbp), %rcx
	movq	8(%rcx), %rcx
	subq	(%rcx), %rax
	movq	-16(%rbp), %rcx
	movq	16(%rcx), %rcx
	addq	(%rcx), %rax
	movq	%rax, -24(%rbp)
	movq	-16(%rbp), %rdi
	movq	-24(%rbp), %rsi
	callq	bea_is_dual_infeasible
	cmpl	$0, %eax
	je	.LBB7_30
# %bb.26:                               # %if.then43
                                        #   in Loop: Header=BB7_23 Depth=2
	movq	basket_size, %rax
	addq	$1, %rax
	movq	%rax, basket_size
	movq	-16(%rbp), %rax
	movq	basket_size, %rcx
	movq	perm(,%rcx,8), %rcx
	movq	%rax, (%rcx)
	movq	-24(%rbp), %rax
	movq	basket_size, %rcx
	movq	perm(,%rcx,8), %rcx
	movq	%rax, 8(%rcx)
	cmpq	$0, -24(%rbp)
	jl	.LBB7_28
# %bb.27:                               # %cond.true50
                                        #   in Loop: Header=BB7_23 Depth=2
	movq	-24(%rbp), %rax
	jmp	.LBB7_29
.LBB7_28:                               # %cond.false51
                                        #   in Loop: Header=BB7_23 Depth=2
	xorl	%eax, %eax
	subq	-24(%rbp), %rax
.LBB7_29:                               # %cond.end53
                                        #   in Loop: Header=BB7_23 Depth=2
	movq	basket_size, %rcx
	movq	perm(,%rcx,8), %rcx
	movq	%rax, 16(%rcx)
.LBB7_30:                               # %if.end57
                                        #   in Loop: Header=BB7_23 Depth=2
	jmp	.LBB7_31
.LBB7_31:                               # %if.end58
                                        #   in Loop: Header=BB7_23 Depth=2
	jmp	.LBB7_32
.LBB7_32:                               # %for.inc59
                                        #   in Loop: Header=BB7_23 Depth=2
	movq	nr_group, %rax
	shlq	$6, %rax
	addq	-16(%rbp), %rax
	movq	%rax, -16(%rbp)
	jmp	.LBB7_23
.LBB7_33:                               # %for.end61
                                        #   in Loop: Header=BB7_22 Depth=1
	movq	group_pos, %rax
	addq	$1, %rax
	movq	%rax, group_pos
	cmpq	nr_group, %rax
	jne	.LBB7_35
# %bb.34:                               # %if.then64
                                        #   in Loop: Header=BB7_22 Depth=1
	movq	$0, group_pos
.LBB7_35:                               # %if.end65
                                        #   in Loop: Header=BB7_22 Depth=1
	cmpq	$50, basket_size
	jge	.LBB7_38
# %bb.36:                               # %land.lhs.true67
                                        #   in Loop: Header=BB7_22 Depth=1
	movq	group_pos, %rax
	cmpq	-80(%rbp), %rax
	je	.LBB7_38
# %bb.37:                               # %if.then69
                                        #   in Loop: Header=BB7_22 Depth=1
	jmp	.LBB7_22
.LBB7_38:                               # %if.end70
	cmpq	$0, basket_size
	jne	.LBB7_40
# %bb.39:                               # %if.then72
	movq	$1, initialize
	movq	-56(%rbp), %rax
	movq	$0, (%rax)
	movq	$0, -64(%rbp)
	jmp	.LBB7_41
.LBB7_40:                               # %if.end73
	movq	basket_size, %rsi
	movl	$1, %edi
	callq	sort_basket
	movq	perm+8, %rax
	movq	8(%rax), %rax
	movq	-56(%rbp), %rcx
	movq	%rax, (%rcx)
	movq	perm+8, %rax
	movq	(%rax), %rax
	movq	%rax, -64(%rbp)
.LBB7_41:                               # %return
	movq	-64(%rbp), %rbx
	cmpl	$2023112033, -44(%rbp)  # imm = 0x78963D61
	jne	.LBB7_43
.LBB7_42:
	movq	%rbx, %rax
	addq	$88, %rsp
	popq	%rbx
	popq	%rbp
	.cfi_def_cfa %rsp, 8
	retq
.LBB7_43:                               # %func_exit
	.cfi_def_cfa %rbp, 16
	callq	detect_breach
	jmp	.LBB7_42
.Lfunc_end7:
	.size	primal_bea_mpp.5, .Lfunc_end7-primal_bea_mpp.5
	.cfi_endproc
                                        # -- End function
	.globl	primal_bea_mpp.6        # -- Begin function primal_bea_mpp.6
	.p2align	4, 0x90
	.type	primal_bea_mpp.6,@function
primal_bea_mpp.6:                       # @primal_bea_mpp.6
	.cfi_startproc
# %bb.0:                                # %entry
	pushq	%rbp
	.cfi_def_cfa_offset 16
	.cfi_offset %rbp, -16
	movq	%rsp, %rbp
	.cfi_def_cfa_register %rbp
	pushq	%rbx
	subq	$88, %rsp
	.cfi_offset %rbx, -24
	movl	$2079454284, -44(%rbp)  # imm = 0x7BF1F44C
	movq	%rdi, -80(%rbp)
	movq	%rsi, -88(%rbp)
	movq	%rdx, -72(%rbp)
	movq	%rcx, -64(%rbp)
	cmpq	$0, initialize
	je	.LBB8_6
# %bb.1:                                # %if.then
	movq	$1, -32(%rbp)
.LBB8_2:                                # %for.cond
                                        # =>This Inner Loop Header: Depth=1
	cmpq	$351, -32(%rbp)         # imm = 0x15F
	jge	.LBB8_5
# %bb.3:                                # %for.body
                                        #   in Loop: Header=BB8_2 Depth=1
	imulq	$24, -32(%rbp), %rax
	movabsq	$basket, %rcx
	addq	%rax, %rcx
	movq	-32(%rbp), %rax
	movq	%rcx, perm(,%rax,8)
# %bb.4:                                # %for.inc
                                        #   in Loop: Header=BB8_2 Depth=1
	movq	-32(%rbp), %rax
	addq	$1, %rax
	movq	%rax, -32(%rbp)
	jmp	.LBB8_2
.LBB8_5:                                # %for.end
	movq	-80(%rbp), %rax
	subq	$1, %rax
	cqto
	movl	$300, %ecx              # imm = 0x12C
	idivq	%rcx
	addq	$1, %rax
	movq	%rax, nr_group
	movq	$0, group_pos
	movq	$0, basket_size
	movq	$0, initialize
	jmp	.LBB8_21
.LBB8_6:                                # %if.else
	movq	$2, -32(%rbp)
	movq	$0, -40(%rbp)
.LBB8_7:                                # %for.cond2
                                        # =>This Inner Loop Header: Depth=1
	xorl	%eax, %eax
	cmpq	$50, -32(%rbp)
	jg	.LBB8_9
# %bb.8:                                # %land.rhs
                                        #   in Loop: Header=BB8_7 Depth=1
	movq	-32(%rbp), %rax
	cmpq	basket_size, %rax
	setle	%al
.LBB8_9:                                # %land.end
                                        #   in Loop: Header=BB8_7 Depth=1
	testb	$1, %al
	jne	.LBB8_10
	jmp	.LBB8_20
.LBB8_10:                               # %for.body5
                                        #   in Loop: Header=BB8_7 Depth=1
	movq	-32(%rbp), %rax
	movq	perm(,%rax,8), %rax
	movq	(%rax), %rax
	movq	%rax, -16(%rbp)
	movq	-16(%rbp), %rax
	movq	(%rax), %rax
	movq	-16(%rbp), %rcx
	movq	8(%rcx), %rcx
	subq	(%rcx), %rax
	movq	-16(%rbp), %rcx
	movq	16(%rcx), %rcx
	addq	(%rcx), %rax
	movq	%rax, -24(%rbp)
	cmpq	$0, -24(%rbp)
	jge	.LBB8_12
# %bb.11:                               # %land.lhs.true
                                        #   in Loop: Header=BB8_7 Depth=1
	movq	-16(%rbp), %rax
	cmpl	$1, 24(%rax)
	je	.LBB8_14
.LBB8_12:                               # %lor.lhs.false
                                        #   in Loop: Header=BB8_7 Depth=1
	cmpq	$0, -24(%rbp)
	jle	.LBB8_18
# %bb.13:                               # %land.lhs.true13
                                        #   in Loop: Header=BB8_7 Depth=1
	movq	-16(%rbp), %rax
	cmpl	$2, 24(%rax)
	jne	.LBB8_18
.LBB8_14:                               # %if.then16
                                        #   in Loop: Header=BB8_7 Depth=1
	movq	-40(%rbp), %rax
	addq	$1, %rax
	movq	%rax, -40(%rbp)
	movq	-16(%rbp), %rax
	movq	-40(%rbp), %rcx
	movq	perm(,%rcx,8), %rcx
	movq	%rax, (%rcx)
	movq	-24(%rbp), %rax
	movq	-40(%rbp), %rcx
	movq	perm(,%rcx,8), %rcx
	movq	%rax, 8(%rcx)
	cmpq	$0, -24(%rbp)
	jl	.LBB8_16
# %bb.15:                               # %cond.true
                                        #   in Loop: Header=BB8_7 Depth=1
	movq	-24(%rbp), %rax
	jmp	.LBB8_17
.LBB8_16:                               # %cond.false
                                        #   in Loop: Header=BB8_7 Depth=1
	xorl	%eax, %eax
	subq	-24(%rbp), %rax
.LBB8_17:                               # %cond.end
                                        #   in Loop: Header=BB8_7 Depth=1
	movq	-40(%rbp), %rcx
	movq	perm(,%rcx,8), %rcx
	movq	%rax, 16(%rcx)
.LBB8_18:                               # %if.end
                                        #   in Loop: Header=BB8_7 Depth=1
	jmp	.LBB8_19
.LBB8_19:                               # %for.inc25
                                        #   in Loop: Header=BB8_7 Depth=1
	movq	-32(%rbp), %rax
	addq	$1, %rax
	movq	%rax, -32(%rbp)
	jmp	.LBB8_7
.LBB8_20:                               # %for.end27
	movq	-40(%rbp), %rax
	movq	%rax, basket_size
.LBB8_21:                               # %if.end28
	movq	group_pos, %rax
	movq	%rax, -96(%rbp)
.LBB8_22:                               # %NEXT
                                        # =>This Loop Header: Depth=1
                                        #     Child Loop BB8_23 Depth 2
	movq	-88(%rbp), %rax
	movq	group_pos, %rcx
	shlq	$6, %rcx
	addq	%rcx, %rax
	movq	%rax, -16(%rbp)
.LBB8_23:                               # %for.cond29
                                        #   Parent Loop BB8_22 Depth=1
                                        # =>  This Inner Loop Header: Depth=2
	movq	-16(%rbp), %rax
	cmpq	-72(%rbp), %rax
	jae	.LBB8_33
# %bb.24:                               # %for.body31
                                        #   in Loop: Header=BB8_23 Depth=2
	movq	-16(%rbp), %rax
	cmpl	$0, 24(%rax)
	jle	.LBB8_31
# %bb.25:                               # %if.then34
                                        #   in Loop: Header=BB8_23 Depth=2
	movq	-16(%rbp), %rax
	movq	(%rax), %rax
	movq	-16(%rbp), %rcx
	movq	8(%rcx), %rcx
	subq	(%rcx), %rax
	movq	-16(%rbp), %rcx
	movq	16(%rcx), %rcx
	addq	(%rcx), %rax
	movq	%rax, -24(%rbp)
	movq	-16(%rbp), %rdi
	movq	-24(%rbp), %rsi
	callq	bea_is_dual_infeasible
	cmpl	$0, %eax
	je	.LBB8_30
# %bb.26:                               # %if.then43
                                        #   in Loop: Header=BB8_23 Depth=2
	movq	basket_size, %rax
	addq	$1, %rax
	movq	%rax, basket_size
	movq	-16(%rbp), %rax
	movq	basket_size, %rcx
	movq	perm(,%rcx,8), %rcx
	movq	%rax, (%rcx)
	movq	-24(%rbp), %rax
	movq	basket_size, %rcx
	movq	perm(,%rcx,8), %rcx
	movq	%rax, 8(%rcx)
	cmpq	$0, -24(%rbp)
	jl	.LBB8_28
# %bb.27:                               # %cond.true50
                                        #   in Loop: Header=BB8_23 Depth=2
	movq	-24(%rbp), %rax
	jmp	.LBB8_29
.LBB8_28:                               # %cond.false51
                                        #   in Loop: Header=BB8_23 Depth=2
	xorl	%eax, %eax
	subq	-24(%rbp), %rax
.LBB8_29:                               # %cond.end53
                                        #   in Loop: Header=BB8_23 Depth=2
	movq	basket_size, %rcx
	movq	perm(,%rcx,8), %rcx
	movq	%rax, 16(%rcx)
.LBB8_30:                               # %if.end57
                                        #   in Loop: Header=BB8_23 Depth=2
	jmp	.LBB8_31
.LBB8_31:                               # %if.end58
                                        #   in Loop: Header=BB8_23 Depth=2
	jmp	.LBB8_32
.LBB8_32:                               # %for.inc59
                                        #   in Loop: Header=BB8_23 Depth=2
	movq	nr_group, %rax
	shlq	$6, %rax
	addq	-16(%rbp), %rax
	movq	%rax, -16(%rbp)
	jmp	.LBB8_23
.LBB8_33:                               # %for.end61
                                        #   in Loop: Header=BB8_22 Depth=1
	movq	group_pos, %rax
	addq	$1, %rax
	movq	%rax, group_pos
	cmpq	nr_group, %rax
	jne	.LBB8_35
# %bb.34:                               # %if.then64
                                        #   in Loop: Header=BB8_22 Depth=1
	movq	$0, group_pos
.LBB8_35:                               # %if.end65
                                        #   in Loop: Header=BB8_22 Depth=1
	cmpq	$50, basket_size
	jge	.LBB8_38
# %bb.36:                               # %land.lhs.true67
                                        #   in Loop: Header=BB8_22 Depth=1
	movq	group_pos, %rax
	cmpq	-96(%rbp), %rax
	je	.LBB8_38
# %bb.37:                               # %if.then69
                                        #   in Loop: Header=BB8_22 Depth=1
	jmp	.LBB8_22
.LBB8_38:                               # %if.end70
	cmpq	$0, basket_size
	jne	.LBB8_40
# %bb.39:                               # %if.then72
	movq	$1, initialize
	movq	-64(%rbp), %rax
	movq	$0, (%rax)
	movq	$0, -56(%rbp)
	jmp	.LBB8_41
.LBB8_40:                               # %if.end73
	movq	basket_size, %rsi
	movl	$1, %edi
	callq	sort_basket
	movq	perm+8, %rax
	movq	8(%rax), %rax
	movq	-64(%rbp), %rcx
	movq	%rax, (%rcx)
	movq	perm+8, %rax
	movq	(%rax), %rax
	movq	%rax, -56(%rbp)
.LBB8_41:                               # %return
	movq	-56(%rbp), %rbx
	cmpl	$2079454284, -44(%rbp)  # imm = 0x7BF1F44C
	jne	.LBB8_43
.LBB8_42:
	movq	%rbx, %rax
	addq	$88, %rsp
	popq	%rbx
	popq	%rbp
	.cfi_def_cfa %rsp, 8
	retq
.LBB8_43:                               # %func_exit
	.cfi_def_cfa %rbp, 16
	callq	detect_breach
	jmp	.LBB8_42
.Lfunc_end8:
	.size	primal_bea_mpp.6, .Lfunc_end8-primal_bea_mpp.6
	.cfi_endproc
                                        # -- End function
	.globl	primal_bea_mpp.7        # -- Begin function primal_bea_mpp.7
	.p2align	4, 0x90
	.type	primal_bea_mpp.7,@function
primal_bea_mpp.7:                       # @primal_bea_mpp.7
	.cfi_startproc
# %bb.0:                                # %entry
	pushq	%rbp
	.cfi_def_cfa_offset 16
	.cfi_offset %rbp, -16
	movq	%rsp, %rbp
	.cfi_def_cfa_register %rbp
	pushq	%rbx
	subq	$88, %rsp
	.cfi_offset %rbx, -24
	movl	$352667151, -44(%rbp)   # imm = 0x1505460F
	movq	%rdi, -96(%rbp)
	movq	%rsi, -80(%rbp)
	movq	%rdx, -72(%rbp)
	movq	%rcx, -64(%rbp)
	cmpq	$0, initialize
	je	.LBB9_6
# %bb.1:                                # %if.then
	movq	$1, -32(%rbp)
.LBB9_2:                                # %for.cond
                                        # =>This Inner Loop Header: Depth=1
	cmpq	$351, -32(%rbp)         # imm = 0x15F
	jge	.LBB9_5
# %bb.3:                                # %for.body
                                        #   in Loop: Header=BB9_2 Depth=1
	imulq	$24, -32(%rbp), %rax
	movabsq	$basket, %rcx
	addq	%rax, %rcx
	movq	-32(%rbp), %rax
	movq	%rcx, perm(,%rax,8)
# %bb.4:                                # %for.inc
                                        #   in Loop: Header=BB9_2 Depth=1
	movq	-32(%rbp), %rax
	addq	$1, %rax
	movq	%rax, -32(%rbp)
	jmp	.LBB9_2
.LBB9_5:                                # %for.end
	movq	-96(%rbp), %rax
	subq	$1, %rax
	cqto
	movl	$300, %ecx              # imm = 0x12C
	idivq	%rcx
	addq	$1, %rax
	movq	%rax, nr_group
	movq	$0, group_pos
	movq	$0, basket_size
	movq	$0, initialize
	jmp	.LBB9_21
.LBB9_6:                                # %if.else
	movq	$2, -32(%rbp)
	movq	$0, -40(%rbp)
.LBB9_7:                                # %for.cond2
                                        # =>This Inner Loop Header: Depth=1
	xorl	%eax, %eax
	cmpq	$50, -32(%rbp)
	jg	.LBB9_9
# %bb.8:                                # %land.rhs
                                        #   in Loop: Header=BB9_7 Depth=1
	movq	-32(%rbp), %rax
	cmpq	basket_size, %rax
	setle	%al
.LBB9_9:                                # %land.end
                                        #   in Loop: Header=BB9_7 Depth=1
	testb	$1, %al
	jne	.LBB9_10
	jmp	.LBB9_20
.LBB9_10:                               # %for.body5
                                        #   in Loop: Header=BB9_7 Depth=1
	movq	-32(%rbp), %rax
	movq	perm(,%rax,8), %rax
	movq	(%rax), %rax
	movq	%rax, -16(%rbp)
	movq	-16(%rbp), %rax
	movq	(%rax), %rax
	movq	-16(%rbp), %rcx
	movq	8(%rcx), %rcx
	subq	(%rcx), %rax
	movq	-16(%rbp), %rcx
	movq	16(%rcx), %rcx
	addq	(%rcx), %rax
	movq	%rax, -24(%rbp)
	cmpq	$0, -24(%rbp)
	jge	.LBB9_12
# %bb.11:                               # %land.lhs.true
                                        #   in Loop: Header=BB9_7 Depth=1
	movq	-16(%rbp), %rax
	cmpl	$1, 24(%rax)
	je	.LBB9_14
.LBB9_12:                               # %lor.lhs.false
                                        #   in Loop: Header=BB9_7 Depth=1
	cmpq	$0, -24(%rbp)
	jle	.LBB9_18
# %bb.13:                               # %land.lhs.true13
                                        #   in Loop: Header=BB9_7 Depth=1
	movq	-16(%rbp), %rax
	cmpl	$2, 24(%rax)
	jne	.LBB9_18
.LBB9_14:                               # %if.then16
                                        #   in Loop: Header=BB9_7 Depth=1
	movq	-40(%rbp), %rax
	addq	$1, %rax
	movq	%rax, -40(%rbp)
	movq	-16(%rbp), %rax
	movq	-40(%rbp), %rcx
	movq	perm(,%rcx,8), %rcx
	movq	%rax, (%rcx)
	movq	-24(%rbp), %rax
	movq	-40(%rbp), %rcx
	movq	perm(,%rcx,8), %rcx
	movq	%rax, 8(%rcx)
	cmpq	$0, -24(%rbp)
	jl	.LBB9_16
# %bb.15:                               # %cond.true
                                        #   in Loop: Header=BB9_7 Depth=1
	movq	-24(%rbp), %rax
	jmp	.LBB9_17
.LBB9_16:                               # %cond.false
                                        #   in Loop: Header=BB9_7 Depth=1
	xorl	%eax, %eax
	subq	-24(%rbp), %rax
.LBB9_17:                               # %cond.end
                                        #   in Loop: Header=BB9_7 Depth=1
	movq	-40(%rbp), %rcx
	movq	perm(,%rcx,8), %rcx
	movq	%rax, 16(%rcx)
.LBB9_18:                               # %if.end
                                        #   in Loop: Header=BB9_7 Depth=1
	jmp	.LBB9_19
.LBB9_19:                               # %for.inc25
                                        #   in Loop: Header=BB9_7 Depth=1
	movq	-32(%rbp), %rax
	addq	$1, %rax
	movq	%rax, -32(%rbp)
	jmp	.LBB9_7
.LBB9_20:                               # %for.end27
	movq	-40(%rbp), %rax
	movq	%rax, basket_size
.LBB9_21:                               # %if.end28
	movq	group_pos, %rax
	movq	%rax, -88(%rbp)
.LBB9_22:                               # %NEXT
                                        # =>This Loop Header: Depth=1
                                        #     Child Loop BB9_23 Depth 2
	movq	-80(%rbp), %rax
	movq	group_pos, %rcx
	shlq	$6, %rcx
	addq	%rcx, %rax
	movq	%rax, -16(%rbp)
.LBB9_23:                               # %for.cond29
                                        #   Parent Loop BB9_22 Depth=1
                                        # =>  This Inner Loop Header: Depth=2
	movq	-16(%rbp), %rax
	cmpq	-72(%rbp), %rax
	jae	.LBB9_33
# %bb.24:                               # %for.body31
                                        #   in Loop: Header=BB9_23 Depth=2
	movq	-16(%rbp), %rax
	cmpl	$0, 24(%rax)
	jle	.LBB9_31
# %bb.25:                               # %if.then34
                                        #   in Loop: Header=BB9_23 Depth=2
	movq	-16(%rbp), %rax
	movq	(%rax), %rax
	movq	-16(%rbp), %rcx
	movq	8(%rcx), %rcx
	subq	(%rcx), %rax
	movq	-16(%rbp), %rcx
	movq	16(%rcx), %rcx
	addq	(%rcx), %rax
	movq	%rax, -24(%rbp)
	movq	-16(%rbp), %rdi
	movq	-24(%rbp), %rsi
	callq	bea_is_dual_infeasible
	cmpl	$0, %eax
	je	.LBB9_30
# %bb.26:                               # %if.then43
                                        #   in Loop: Header=BB9_23 Depth=2
	movq	basket_size, %rax
	addq	$1, %rax
	movq	%rax, basket_size
	movq	-16(%rbp), %rax
	movq	basket_size, %rcx
	movq	perm(,%rcx,8), %rcx
	movq	%rax, (%rcx)
	movq	-24(%rbp), %rax
	movq	basket_size, %rcx
	movq	perm(,%rcx,8), %rcx
	movq	%rax, 8(%rcx)
	cmpq	$0, -24(%rbp)
	jl	.LBB9_28
# %bb.27:                               # %cond.true50
                                        #   in Loop: Header=BB9_23 Depth=2
	movq	-24(%rbp), %rax
	jmp	.LBB9_29
.LBB9_28:                               # %cond.false51
                                        #   in Loop: Header=BB9_23 Depth=2
	xorl	%eax, %eax
	subq	-24(%rbp), %rax
.LBB9_29:                               # %cond.end53
                                        #   in Loop: Header=BB9_23 Depth=2
	movq	basket_size, %rcx
	movq	perm(,%rcx,8), %rcx
	movq	%rax, 16(%rcx)
.LBB9_30:                               # %if.end57
                                        #   in Loop: Header=BB9_23 Depth=2
	jmp	.LBB9_31
.LBB9_31:                               # %if.end58
                                        #   in Loop: Header=BB9_23 Depth=2
	jmp	.LBB9_32
.LBB9_32:                               # %for.inc59
                                        #   in Loop: Header=BB9_23 Depth=2
	movq	nr_group, %rax
	shlq	$6, %rax
	addq	-16(%rbp), %rax
	movq	%rax, -16(%rbp)
	jmp	.LBB9_23
.LBB9_33:                               # %for.end61
                                        #   in Loop: Header=BB9_22 Depth=1
	movq	group_pos, %rax
	addq	$1, %rax
	movq	%rax, group_pos
	cmpq	nr_group, %rax
	jne	.LBB9_35
# %bb.34:                               # %if.then64
                                        #   in Loop: Header=BB9_22 Depth=1
	movq	$0, group_pos
.LBB9_35:                               # %if.end65
                                        #   in Loop: Header=BB9_22 Depth=1
	cmpq	$50, basket_size
	jge	.LBB9_38
# %bb.36:                               # %land.lhs.true67
                                        #   in Loop: Header=BB9_22 Depth=1
	movq	group_pos, %rax
	cmpq	-88(%rbp), %rax
	je	.LBB9_38
# %bb.37:                               # %if.then69
                                        #   in Loop: Header=BB9_22 Depth=1
	jmp	.LBB9_22
.LBB9_38:                               # %if.end70
	cmpq	$0, basket_size
	jne	.LBB9_40
# %bb.39:                               # %if.then72
	movq	$1, initialize
	movq	-64(%rbp), %rax
	movq	$0, (%rax)
	movq	$0, -56(%rbp)
	jmp	.LBB9_41
.LBB9_40:                               # %if.end73
	movq	basket_size, %rsi
	movl	$1, %edi
	callq	sort_basket
	movq	perm+8, %rax
	movq	8(%rax), %rax
	movq	-64(%rbp), %rcx
	movq	%rax, (%rcx)
	movq	perm+8, %rax
	movq	(%rax), %rax
	movq	%rax, -56(%rbp)
.LBB9_41:                               # %return
	movq	-56(%rbp), %rbx
	cmpl	$352667151, -44(%rbp)   # imm = 0x1505460F
	jne	.LBB9_43
.LBB9_42:
	movq	%rbx, %rax
	addq	$88, %rsp
	popq	%rbx
	popq	%rbp
	.cfi_def_cfa %rsp, 8
	retq
.LBB9_43:                               # %func_exit
	.cfi_def_cfa %rbp, 16
	callq	detect_breach
	jmp	.LBB9_42
.Lfunc_end9:
	.size	primal_bea_mpp.7, .Lfunc_end9-primal_bea_mpp.7
	.cfi_endproc
                                        # -- End function
	.globl	sort_basket.8           # -- Begin function sort_basket.8
	.p2align	4, 0x90
	.type	sort_basket.8,@function
sort_basket.8:                          # @sort_basket.8
	.cfi_startproc
# %bb.0:                                # %entry
	pushq	%rbp
	.cfi_def_cfa_offset 16
	.cfi_offset %rbp, -16
	movq	%rsp, %rbp
	.cfi_def_cfa_register %rbp
	subq	$64, %rsp
	movl	$1751782152, -36(%rbp)  # imm = 0x686A1308
	movq	%rdi, -24(%rbp)
	movq	%rsi, -32(%rbp)
	movq	-24(%rbp), %rax
	movq	%rax, -8(%rbp)
	movq	-32(%rbp), %rax
	movq	%rax, -16(%rbp)
	movq	-8(%rbp), %rax
	addq	-16(%rbp), %rax
	cqto
	movl	$2, %ecx
	idivq	%rcx
	movq	perm(,%rax,8), %rax
	movq	16(%rax), %rax
	movq	%rax, -48(%rbp)
.LBB10_1:                               # %do.body
                                        # =>This Loop Header: Depth=1
                                        #     Child Loop BB10_2 Depth 2
                                        #     Child Loop BB10_5 Depth 2
	jmp	.LBB10_2
.LBB10_2:                               # %while.cond
                                        #   Parent Loop BB10_1 Depth=1
                                        # =>  This Inner Loop Header: Depth=2
	movq	-8(%rbp), %rax
	movq	perm(,%rax,8), %rax
	movq	16(%rax), %rax
	cmpq	-48(%rbp), %rax
	jle	.LBB10_4
# %bb.3:                                # %while.body
                                        #   in Loop: Header=BB10_2 Depth=2
	movq	-8(%rbp), %rax
	addq	$1, %rax
	movq	%rax, -8(%rbp)
	jmp	.LBB10_2
.LBB10_4:                               # %while.end
                                        #   in Loop: Header=BB10_1 Depth=1
	jmp	.LBB10_5
.LBB10_5:                               # %while.cond3
                                        #   Parent Loop BB10_1 Depth=1
                                        # =>  This Inner Loop Header: Depth=2
	movq	-48(%rbp), %rax
	movq	-16(%rbp), %rcx
	movq	perm(,%rcx,8), %rcx
	cmpq	16(%rcx), %rax
	jle	.LBB10_7
# %bb.6:                                # %while.body7
                                        #   in Loop: Header=BB10_5 Depth=2
	movq	-16(%rbp), %rax
	addq	$-1, %rax
	movq	%rax, -16(%rbp)
	jmp	.LBB10_5
.LBB10_7:                               # %while.end8
                                        #   in Loop: Header=BB10_1 Depth=1
	movq	-8(%rbp), %rax
	cmpq	-16(%rbp), %rax
	jge	.LBB10_9
# %bb.8:                                # %if.then
                                        #   in Loop: Header=BB10_1 Depth=1
	movq	-8(%rbp), %rax
	movq	perm(,%rax,8), %rax
	movq	%rax, -56(%rbp)
	movq	-16(%rbp), %rax
	movq	perm(,%rax,8), %rax
	movq	-8(%rbp), %rcx
	movq	%rax, perm(,%rcx,8)
	movq	-56(%rbp), %rax
	movq	-16(%rbp), %rcx
	movq	%rax, perm(,%rcx,8)
.LBB10_9:                               # %if.end
                                        #   in Loop: Header=BB10_1 Depth=1
	movq	-8(%rbp), %rax
	cmpq	-16(%rbp), %rax
	jg	.LBB10_11
# %bb.10:                               # %if.then15
                                        #   in Loop: Header=BB10_1 Depth=1
	movq	-8(%rbp), %rax
	addq	$1, %rax
	movq	%rax, -8(%rbp)
	movq	-16(%rbp), %rax
	addq	$-1, %rax
	movq	%rax, -16(%rbp)
.LBB10_11:                              # %if.end18
                                        #   in Loop: Header=BB10_1 Depth=1
	jmp	.LBB10_12
.LBB10_12:                              # %do.cond
                                        #   in Loop: Header=BB10_1 Depth=1
	movq	-8(%rbp), %rax
	cmpq	-16(%rbp), %rax
	jle	.LBB10_1
# %bb.13:                               # %do.end
	movq	-24(%rbp), %rax
	cmpq	-16(%rbp), %rax
	jge	.LBB10_15
# %bb.14:                               # %if.then21
	movq	-24(%rbp), %rdi
	movq	-16(%rbp), %rsi
	callq	sort_basket
.LBB10_15:                              # %if.end22
	movq	-8(%rbp), %rax
	cmpq	-32(%rbp), %rax
	jge	.LBB10_18
# %bb.16:                               # %land.lhs.true
	cmpq	$50, -8(%rbp)
	jg	.LBB10_18
# %bb.17:                               # %if.then25
	movq	-8(%rbp), %rdi
	movq	-32(%rbp), %rsi
	callq	sort_basket
.LBB10_18:                              # %if.end26
	cmpl	$1751782152, -36(%rbp)  # imm = 0x686A1308
	jne	.LBB10_20
.LBB10_19:
	addq	$64, %rsp
	popq	%rbp
	.cfi_def_cfa %rsp, 8
	retq
.LBB10_20:                              # %func_exit
	.cfi_def_cfa %rbp, 16
	callq	detect_breach
	jmp	.LBB10_19
.Lfunc_end10:
	.size	sort_basket.8, .Lfunc_end10-sort_basket.8
	.cfi_endproc
                                        # -- End function
	.globl	sort_basket.9           # -- Begin function sort_basket.9
	.p2align	4, 0x90
	.type	sort_basket.9,@function
sort_basket.9:                          # @sort_basket.9
	.cfi_startproc
# %bb.0:                                # %entry
	pushq	%rbp
	.cfi_def_cfa_offset 16
	.cfi_offset %rbp, -16
	movq	%rsp, %rbp
	.cfi_def_cfa_register %rbp
	subq	$64, %rsp
	movl	$1672324745, -36(%rbp)  # imm = 0x63ADA689
	movq	%rdi, -32(%rbp)
	movq	%rsi, -24(%rbp)
	movq	-32(%rbp), %rax
	movq	%rax, -8(%rbp)
	movq	-24(%rbp), %rax
	movq	%rax, -16(%rbp)
	movq	-8(%rbp), %rax
	addq	-16(%rbp), %rax
	cqto
	movl	$2, %ecx
	idivq	%rcx
	movq	perm(,%rax,8), %rax
	movq	16(%rax), %rax
	movq	%rax, -48(%rbp)
.LBB11_1:                               # %do.body
                                        # =>This Loop Header: Depth=1
                                        #     Child Loop BB11_2 Depth 2
                                        #     Child Loop BB11_5 Depth 2
	jmp	.LBB11_2
.LBB11_2:                               # %while.cond
                                        #   Parent Loop BB11_1 Depth=1
                                        # =>  This Inner Loop Header: Depth=2
	movq	-8(%rbp), %rax
	movq	perm(,%rax,8), %rax
	movq	16(%rax), %rax
	cmpq	-48(%rbp), %rax
	jle	.LBB11_4
# %bb.3:                                # %while.body
                                        #   in Loop: Header=BB11_2 Depth=2
	movq	-8(%rbp), %rax
	addq	$1, %rax
	movq	%rax, -8(%rbp)
	jmp	.LBB11_2
.LBB11_4:                               # %while.end
                                        #   in Loop: Header=BB11_1 Depth=1
	jmp	.LBB11_5
.LBB11_5:                               # %while.cond3
                                        #   Parent Loop BB11_1 Depth=1
                                        # =>  This Inner Loop Header: Depth=2
	movq	-48(%rbp), %rax
	movq	-16(%rbp), %rcx
	movq	perm(,%rcx,8), %rcx
	cmpq	16(%rcx), %rax
	jle	.LBB11_7
# %bb.6:                                # %while.body7
                                        #   in Loop: Header=BB11_5 Depth=2
	movq	-16(%rbp), %rax
	addq	$-1, %rax
	movq	%rax, -16(%rbp)
	jmp	.LBB11_5
.LBB11_7:                               # %while.end8
                                        #   in Loop: Header=BB11_1 Depth=1
	movq	-8(%rbp), %rax
	cmpq	-16(%rbp), %rax
	jge	.LBB11_9
# %bb.8:                                # %if.then
                                        #   in Loop: Header=BB11_1 Depth=1
	movq	-8(%rbp), %rax
	movq	perm(,%rax,8), %rax
	movq	%rax, -56(%rbp)
	movq	-16(%rbp), %rax
	movq	perm(,%rax,8), %rax
	movq	-8(%rbp), %rcx
	movq	%rax, perm(,%rcx,8)
	movq	-56(%rbp), %rax
	movq	-16(%rbp), %rcx
	movq	%rax, perm(,%rcx,8)
.LBB11_9:                               # %if.end
                                        #   in Loop: Header=BB11_1 Depth=1
	movq	-8(%rbp), %rax
	cmpq	-16(%rbp), %rax
	jg	.LBB11_11
# %bb.10:                               # %if.then15
                                        #   in Loop: Header=BB11_1 Depth=1
	movq	-8(%rbp), %rax
	addq	$1, %rax
	movq	%rax, -8(%rbp)
	movq	-16(%rbp), %rax
	addq	$-1, %rax
	movq	%rax, -16(%rbp)
.LBB11_11:                              # %if.end18
                                        #   in Loop: Header=BB11_1 Depth=1
	jmp	.LBB11_12
.LBB11_12:                              # %do.cond
                                        #   in Loop: Header=BB11_1 Depth=1
	movq	-8(%rbp), %rax
	cmpq	-16(%rbp), %rax
	jle	.LBB11_1
# %bb.13:                               # %do.end
	movq	-32(%rbp), %rax
	cmpq	-16(%rbp), %rax
	jge	.LBB11_15
# %bb.14:                               # %if.then21
	movq	-32(%rbp), %rdi
	movq	-16(%rbp), %rsi
	callq	sort_basket
.LBB11_15:                              # %if.end22
	movq	-8(%rbp), %rax
	cmpq	-24(%rbp), %rax
	jge	.LBB11_18
# %bb.16:                               # %land.lhs.true
	cmpq	$50, -8(%rbp)
	jg	.LBB11_18
# %bb.17:                               # %if.then25
	movq	-8(%rbp), %rdi
	movq	-24(%rbp), %rsi
	callq	sort_basket
.LBB11_18:                              # %if.end26
	cmpl	$1672324745, -36(%rbp)  # imm = 0x63ADA689
	jne	.LBB11_20
.LBB11_19:
	addq	$64, %rsp
	popq	%rbp
	.cfi_def_cfa %rsp, 8
	retq
.LBB11_20:                              # %func_exit
	.cfi_def_cfa %rbp, 16
	callq	detect_breach
	jmp	.LBB11_19
.Lfunc_end11:
	.size	sort_basket.9, .Lfunc_end11-sort_basket.9
	.cfi_endproc
                                        # -- End function
	.globl	sort_basket.10          # -- Begin function sort_basket.10
	.p2align	4, 0x90
	.type	sort_basket.10,@function
sort_basket.10:                         # @sort_basket.10
	.cfi_startproc
# %bb.0:                                # %entry
	pushq	%rbp
	.cfi_def_cfa_offset 16
	.cfi_offset %rbp, -16
	movq	%rsp, %rbp
	.cfi_def_cfa_register %rbp
	subq	$64, %rsp
	movl	$167091721, -36(%rbp)   # imm = 0x9F59E09
	movq	%rdi, -32(%rbp)
	movq	%rsi, -24(%rbp)
	movq	-32(%rbp), %rax
	movq	%rax, -8(%rbp)
	movq	-24(%rbp), %rax
	movq	%rax, -16(%rbp)
	movq	-8(%rbp), %rax
	addq	-16(%rbp), %rax
	cqto
	movl	$2, %ecx
	idivq	%rcx
	movq	perm(,%rax,8), %rax
	movq	16(%rax), %rax
	movq	%rax, -48(%rbp)
.LBB12_1:                               # %do.body
                                        # =>This Loop Header: Depth=1
                                        #     Child Loop BB12_2 Depth 2
                                        #     Child Loop BB12_5 Depth 2
	jmp	.LBB12_2
.LBB12_2:                               # %while.cond
                                        #   Parent Loop BB12_1 Depth=1
                                        # =>  This Inner Loop Header: Depth=2
	movq	-8(%rbp), %rax
	movq	perm(,%rax,8), %rax
	movq	16(%rax), %rax
	cmpq	-48(%rbp), %rax
	jle	.LBB12_4
# %bb.3:                                # %while.body
                                        #   in Loop: Header=BB12_2 Depth=2
	movq	-8(%rbp), %rax
	addq	$1, %rax
	movq	%rax, -8(%rbp)
	jmp	.LBB12_2
.LBB12_4:                               # %while.end
                                        #   in Loop: Header=BB12_1 Depth=1
	jmp	.LBB12_5
.LBB12_5:                               # %while.cond3
                                        #   Parent Loop BB12_1 Depth=1
                                        # =>  This Inner Loop Header: Depth=2
	movq	-48(%rbp), %rax
	movq	-16(%rbp), %rcx
	movq	perm(,%rcx,8), %rcx
	cmpq	16(%rcx), %rax
	jle	.LBB12_7
# %bb.6:                                # %while.body7
                                        #   in Loop: Header=BB12_5 Depth=2
	movq	-16(%rbp), %rax
	addq	$-1, %rax
	movq	%rax, -16(%rbp)
	jmp	.LBB12_5
.LBB12_7:                               # %while.end8
                                        #   in Loop: Header=BB12_1 Depth=1
	movq	-8(%rbp), %rax
	cmpq	-16(%rbp), %rax
	jge	.LBB12_9
# %bb.8:                                # %if.then
                                        #   in Loop: Header=BB12_1 Depth=1
	movq	-8(%rbp), %rax
	movq	perm(,%rax,8), %rax
	movq	%rax, -56(%rbp)
	movq	-16(%rbp), %rax
	movq	perm(,%rax,8), %rax
	movq	-8(%rbp), %rcx
	movq	%rax, perm(,%rcx,8)
	movq	-56(%rbp), %rax
	movq	-16(%rbp), %rcx
	movq	%rax, perm(,%rcx,8)
.LBB12_9:                               # %if.end
                                        #   in Loop: Header=BB12_1 Depth=1
	movq	-8(%rbp), %rax
	cmpq	-16(%rbp), %rax
	jg	.LBB12_11
# %bb.10:                               # %if.then15
                                        #   in Loop: Header=BB12_1 Depth=1
	movq	-8(%rbp), %rax
	addq	$1, %rax
	movq	%rax, -8(%rbp)
	movq	-16(%rbp), %rax
	addq	$-1, %rax
	movq	%rax, -16(%rbp)
.LBB12_11:                              # %if.end18
                                        #   in Loop: Header=BB12_1 Depth=1
	jmp	.LBB12_12
.LBB12_12:                              # %do.cond
                                        #   in Loop: Header=BB12_1 Depth=1
	movq	-8(%rbp), %rax
	cmpq	-16(%rbp), %rax
	jle	.LBB12_1
# %bb.13:                               # %do.end
	movq	-32(%rbp), %rax
	cmpq	-16(%rbp), %rax
	jge	.LBB12_15
# %bb.14:                               # %if.then21
	movq	-32(%rbp), %rdi
	movq	-16(%rbp), %rsi
	callq	sort_basket
.LBB12_15:                              # %if.end22
	movq	-8(%rbp), %rax
	cmpq	-24(%rbp), %rax
	jge	.LBB12_18
# %bb.16:                               # %land.lhs.true
	cmpq	$50, -8(%rbp)
	jg	.LBB12_18
# %bb.17:                               # %if.then25
	movq	-8(%rbp), %rdi
	movq	-24(%rbp), %rsi
	callq	sort_basket
.LBB12_18:                              # %if.end26
	cmpl	$167091721, -36(%rbp)   # imm = 0x9F59E09
	jne	.LBB12_20
.LBB12_19:
	addq	$64, %rsp
	popq	%rbp
	.cfi_def_cfa %rsp, 8
	retq
.LBB12_20:                              # %func_exit
	.cfi_def_cfa %rbp, 16
	callq	detect_breach
	jmp	.LBB12_19
.Lfunc_end12:
	.size	sort_basket.10, .Lfunc_end12-sort_basket.10
	.cfi_endproc
                                        # -- End function
	.type	perm,@object            # @perm
	.local	perm
	.comm	perm,2808,16
	.type	initialize,@object      # @initialize
	.data
	.p2align	3
initialize:
	.quad	1                       # 0x1
	.size	initialize, 8

	.type	basket,@object          # @basket
	.local	basket
	.comm	basket,8424,16
	.type	nr_group,@object        # @nr_group
	.local	nr_group
	.comm	nr_group,8,8
	.type	group_pos,@object       # @group_pos
	.local	group_pos
	.comm	group_pos,8,8
	.type	basket_size,@object     # @basket_size
	.local	basket_size
	.comm	basket_size,8,8

	.ident	"clang version 9.0.1 (git@github.com:llvm/llvm-project.git 9b2d207cf4b43cfc1a2b6940b3c06e50a1bd127f)"
	.section	".note.GNU-stack","",@progbits
