	.text
	.file	"perf_compress.c"
	.globl	Usage                   # -- Begin function Usage
	.p2align	4, 0x90
	.type	Usage,@function
Usage:                                  # @Usage
	.cfi_startproc
# %bb.0:                                # %entry
	pushq	%rbp
	.cfi_def_cfa_offset 16
	.cfi_offset %rbp, -16
	movq	%rsp, %rbp
	.cfi_def_cfa_register %rbp
	movq	stderr, %rdi
	movabsq	$.L.str, %rsi
	movb	$0, %al
	callq	fprintf
	popq	%rbp
	.cfi_def_cfa %rsp, 8
	retq
.Lfunc_end0:
	.size	Usage, .Lfunc_end0-Usage
	.cfi_endproc
                                        # -- End function
	.globl	main                    # -- Begin function main
	.p2align	4, 0x90
	.type	main,@function
main:                                   # @main
	.cfi_startproc
# %bb.0:                                # %entry
	pushq	%rbp
	.cfi_def_cfa_offset 16
	.cfi_offset %rbp, -16
	movq	%rsp, %rbp
	.cfi_def_cfa_register %rbp
	pushq	%rbx
	subq	$312, %rsp              # imm = 0x138
	.cfi_offset %rbx, -24
	movl	$0, -60(%rbp)
	movl	%edi, -24(%rbp)
	movq	%rsi, -32(%rbp)
	movl	$0, -44(%rbp)
	movl	$2, %edi
	movl	$1, %esi
	callq	signal
	movq	%rax, bgnd_flag
	movl	$1, %ecx
	cmpq	%rcx, %rax
	je	.LBB1_2
# %bb.1:                                # %if.then
	movl	$2, %edi
	movabsq	$onintr, %rsi
	callq	signal
	movl	$11, %edi
	movabsq	$oops, %rsi
	callq	signal
.LBB1_2:                                # %if.end
	movslq	-24(%rbp), %rdi
	shlq	$3, %rdi
	callq	malloc
	movq	%rax, -16(%rbp)
	movq	%rax, -56(%rbp)
	movq	-56(%rbp), %rax
	movq	$0, (%rax)
	movq	-32(%rbp), %rax
	movq	(%rax), %rdi
	movl	$47, %esi
	callq	rindex
	movq	%rax, -40(%rbp)
	cmpq	$0, %rax
	je	.LBB1_4
# %bb.3:                                # %if.then7
	movq	-40(%rbp), %rax
	addq	$1, %rax
	movq	%rax, -40(%rbp)
	jmp	.LBB1_5
.LBB1_4:                                # %if.else
	movq	-32(%rbp), %rax
	movq	(%rax), %rax
	movq	%rax, -40(%rbp)
.LBB1_5:                                # %if.end9
	movq	-40(%rbp), %rdi
	movl	$.L.str.1, %esi
	callq	strcmp
	cmpl	$0, %eax
	jne	.LBB1_7
# %bb.6:                                # %if.then13
	movl	$1, do_decomp
	jmp	.LBB1_10
.LBB1_7:                                # %if.else14
	movq	-40(%rbp), %rdi
	movl	$.L.str.2, %esi
	callq	strcmp
	cmpl	$0, %eax
	jne	.LBB1_9
# %bb.8:                                # %if.then18
	movl	$1, do_decomp
	movl	$1, zcat_flg
.LBB1_9:                                # %if.end19
	jmp	.LBB1_10
.LBB1_10:                               # %if.end20
	movl	-24(%rbp), %eax
	addl	$-1, %eax
	movl	%eax, -24(%rbp)
	movq	-32(%rbp), %rax
	addq	$8, %rax
	movq	%rax, -32(%rbp)
.LBB1_11:                               # %for.cond
                                        # =>This Loop Header: Depth=1
                                        #     Child Loop BB1_14 Depth 2
	cmpl	$0, -24(%rbp)
	jle	.LBB1_37
# %bb.12:                               # %for.body
                                        #   in Loop: Header=BB1_11 Depth=1
	movq	-32(%rbp), %rax
	movq	(%rax), %rax
	movsbl	(%rax), %eax
	cmpl	$45, %eax
	jne	.LBB1_33
# %bb.13:                               # %if.then27
                                        #   in Loop: Header=BB1_11 Depth=1
	jmp	.LBB1_14
.LBB1_14:                               # %while.cond
                                        #   Parent Loop BB1_11 Depth=1
                                        # =>  This Inner Loop Header: Depth=2
	movq	-32(%rbp), %rax
	movq	(%rax), %rcx
	movq	%rcx, %rdx
	addq	$1, %rdx
	movq	%rdx, (%rax)
	cmpb	$0, 1(%rcx)
	je	.LBB1_32
# %bb.15:                               # %while.body
                                        #   in Loop: Header=BB1_14 Depth=2
	movq	-32(%rbp), %rax
	movq	(%rax), %rax
	movsbl	(%rax), %eax
	addl	$-67, %eax
	movl	%eax, %ecx
	subl	$51, %ecx
	ja	.LBB1_30
# %bb.16:                               # %while.body
                                        #   in Loop: Header=BB1_14 Depth=2
	movq	.LJTI1_0(,%rax,8), %rax
	jmpq	*%rax
.LBB1_17:                               # %sw.bb
                                        #   in Loop: Header=BB1_14 Depth=2
	callq	version
	jmp	.LBB1_31
.LBB1_18:                               # %sw.bb30
                                        #   in Loop: Header=BB1_14 Depth=2
	movl	$0, quiet
	jmp	.LBB1_31
.LBB1_19:                               # %sw.bb31
                                        #   in Loop: Header=BB1_14 Depth=2
	movl	$1, do_decomp
	jmp	.LBB1_31
.LBB1_20:                               # %sw.bb32
                                        #   in Loop: Header=BB1_14 Depth=2
	movl	$1, -44(%rbp)
	movl	$1, force
	jmp	.LBB1_31
.LBB1_21:                               # %sw.bb33
                                        #   in Loop: Header=BB1_14 Depth=2
	movl	$1, nomagic
	jmp	.LBB1_31
.LBB1_22:                               # %sw.bb34
                                        #   in Loop: Header=BB1_14 Depth=2
	movl	$0, block_compress
	jmp	.LBB1_31
.LBB1_23:                               # %sw.bb35
                                        #   in Loop: Header=BB1_11 Depth=1
	movq	-32(%rbp), %rax
	movq	(%rax), %rcx
	movq	%rcx, %rdx
	addq	$1, %rdx
	movq	%rdx, (%rax)
	movsbl	1(%rcx), %eax
	cmpl	$0, %eax
	jne	.LBB1_27
# %bb.24:                               # %lor.lhs.false
                                        #   in Loop: Header=BB1_11 Depth=1
	movl	-24(%rbp), %eax
	addl	$-1, %eax
	movl	%eax, -24(%rbp)
	cmpl	$0, %eax
	je	.LBB1_26
# %bb.25:                               # %land.lhs.true
                                        #   in Loop: Header=BB1_11 Depth=1
	movq	-32(%rbp), %rax
	movq	%rax, %rcx
	addq	$8, %rcx
	movq	%rcx, -32(%rbp)
	cmpq	$0, 8(%rax)
	jne	.LBB1_27
.LBB1_26:                               # %if.then43
	movq	stderr, %rdi
	movabsq	$.L.str.3, %rsi
	movb	$0, %al
	callq	fprintf
	callq	Usage
	movl	$1, %edi
	callq	exit
.LBB1_27:                               # %if.end45
                                        #   in Loop: Header=BB1_11 Depth=1
	movq	-32(%rbp), %rax
	movq	(%rax), %rdi
	callq	atoi
	movl	%eax, maxbits
	jmp	.LBB1_35
.LBB1_28:                               # %sw.bb47
                                        #   in Loop: Header=BB1_14 Depth=2
	movl	$1, zcat_flg
	jmp	.LBB1_31
.LBB1_29:                               # %sw.bb48
                                        #   in Loop: Header=BB1_14 Depth=2
	movl	$1, quiet
	jmp	.LBB1_31
.LBB1_30:                               # %sw.default
	movq	stderr, %rdi
	movq	-32(%rbp), %rax
	movq	(%rax), %rax
	movsbl	(%rax), %edx
	movabsq	$.L.str.4, %rsi
	movb	$0, %al
	callq	fprintf
	callq	Usage
	movl	$1, %edi
	callq	exit
.LBB1_31:                               # %sw.epilog
                                        #   in Loop: Header=BB1_14 Depth=2
	jmp	.LBB1_14
.LBB1_32:                               # %while.end
                                        #   in Loop: Header=BB1_11 Depth=1
	jmp	.LBB1_34
.LBB1_33:                               # %if.else51
                                        #   in Loop: Header=BB1_11 Depth=1
	movq	-32(%rbp), %rax
	movq	(%rax), %rax
	movq	-16(%rbp), %rcx
	movq	%rcx, %rdx
	addq	$8, %rdx
	movq	%rdx, -16(%rbp)
	movq	%rax, (%rcx)
	movq	-16(%rbp), %rax
	movq	$0, (%rax)
.LBB1_34:                               # %if.end53
                                        #   in Loop: Header=BB1_11 Depth=1
	jmp	.LBB1_35
.LBB1_35:                               # %nextarg
                                        #   in Loop: Header=BB1_11 Depth=1
	jmp	.LBB1_36
.LBB1_36:                               # %for.inc
                                        #   in Loop: Header=BB1_11 Depth=1
	movl	-24(%rbp), %eax
	addl	$-1, %eax
	movl	%eax, -24(%rbp)
	movq	-32(%rbp), %rax
	addq	$8, %rax
	movq	%rax, -32(%rbp)
	jmp	.LBB1_11
.LBB1_37:                               # %for.end
	cmpl	$9, maxbits
	jge	.LBB1_39
# %bb.38:                               # %if.then58
	movl	$9, maxbits
.LBB1_39:                               # %if.end59
	cmpl	$16, maxbits
	jle	.LBB1_41
# %bb.40:                               # %if.then62
	movl	$16, maxbits
.LBB1_41:                               # %if.end63
	movl	maxbits, %ecx
                                        # kill: def $cl killed $ecx
	movl	$1, %eax
	shll	%cl, %eax
	cltq
	movq	%rax, maxmaxcode
	movq	-56(%rbp), %rax
	cmpq	$0, (%rax)
	je	.LBB1_113
# %bb.42:                               # %if.then67
	movq	-56(%rbp), %rax
	movq	%rax, -16(%rbp)
.LBB1_43:                               # %for.cond68
                                        # =>This Loop Header: Depth=1
                                        #     Child Loop BB1_86 Depth 2
	movq	-16(%rbp), %rax
	cmpq	$0, (%rax)
	je	.LBB1_112
# %bb.44:                               # %for.body70
                                        #   in Loop: Header=BB1_43 Depth=1
	movl	$0, exit_stat
	cmpl	$0, do_decomp
	je	.LBB1_57
# %bb.45:                               # %if.then73
                                        #   in Loop: Header=BB1_43 Depth=1
	movq	-16(%rbp), %rax
	movq	(%rax), %rbx
	movq	-16(%rbp), %rax
	movq	(%rax), %rdi
	callq	strlen
	addq	%rax, %rbx
	addq	$-2, %rbx
	movq	%rbx, %rdi
	movl	$.L.str.5, %esi
	callq	strcmp
	cmpl	$0, %eax
	je	.LBB1_47
# %bb.46:                               # %if.then79
                                        #   in Loop: Header=BB1_43 Depth=1
	leaq	-320(%rbp), %rbx
	movq	-16(%rbp), %rax
	movq	(%rax), %rsi
	movq	%rbx, %rdi
	callq	strcpy
	movq	%rbx, %rdi
	movabsq	$.L.str.5, %rsi
	callq	strcat
	leaq	-320(%rbp), %rax
	movq	-16(%rbp), %rcx
	movq	%rax, (%rcx)
.LBB1_47:                               # %if.end84
                                        #   in Loop: Header=BB1_43 Depth=1
	movq	-16(%rbp), %rax
	movq	(%rax), %rdi
	movq	stdin, %rdx
	movabsq	$.L.str.6, %rsi
	callq	freopen
	cmpq	$0, %rax
	jne	.LBB1_49
# %bb.48:                               # %if.then88
                                        #   in Loop: Header=BB1_43 Depth=1
	movq	-16(%rbp), %rax
	movq	(%rax), %rdi
	callq	perror
	jmp	.LBB1_111
.LBB1_49:                               # %if.end89
                                        #   in Loop: Header=BB1_43 Depth=1
	cmpl	$0, nomagic
	jne	.LBB1_56
# %bb.50:                               # %if.then92
                                        #   in Loop: Header=BB1_43 Depth=1
	callq	getchar
	movzbl	magic_header, %ecx
	andl	$255, %ecx
	cmpl	%ecx, %eax
	jne	.LBB1_52
# %bb.51:                               # %lor.lhs.false97
                                        #   in Loop: Header=BB1_43 Depth=1
	callq	getchar
	movzbl	magic_header+1, %ecx
	andl	$255, %ecx
	cmpl	%ecx, %eax
	je	.LBB1_53
.LBB1_52:                               # %if.then103
                                        #   in Loop: Header=BB1_43 Depth=1
	movq	stderr, %rdi
	movq	-16(%rbp), %rax
	movq	(%rax), %rdx
	movabsq	$.L.str.7, %rsi
	movb	$0, %al
	callq	fprintf
	jmp	.LBB1_111
.LBB1_53:                               # %if.end105
                                        #   in Loop: Header=BB1_43 Depth=1
	callq	getchar
	movl	%eax, maxbits
	movl	maxbits, %eax
	andl	$128, %eax
	movl	%eax, block_compress
	movl	maxbits, %eax
	andl	$31, %eax
	movl	%eax, maxbits
	movl	maxbits, %ecx
                                        # kill: def $cl killed $ecx
	movl	$1, %eax
	shll	%cl, %eax
	cltq
	movq	%rax, maxmaxcode
	cmpl	$16, maxbits
	jle	.LBB1_55
# %bb.54:                               # %if.then113
                                        #   in Loop: Header=BB1_43 Depth=1
	movq	stderr, %rdi
	movq	-16(%rbp), %rax
	movq	(%rax), %rdx
	movl	maxbits, %ecx
	movabsq	$.L.str.8, %rsi
	movl	$16, %r8d
	movb	$0, %al
	callq	fprintf
	jmp	.LBB1_111
.LBB1_55:                               # %if.end115
                                        #   in Loop: Header=BB1_43 Depth=1
	jmp	.LBB1_56
.LBB1_56:                               # %if.end116
                                        #   in Loop: Header=BB1_43 Depth=1
	movq	-16(%rbp), %rax
	movq	(%rax), %rsi
	movl	$ofname, %edi
	callq	strcpy
	movq	-16(%rbp), %rax
	movq	(%rax), %rdi
	callq	strlen
	subq	$2, %rax
	movb	$0, ofname(,%rax)
	jmp	.LBB1_81
.LBB1_57:                               # %if.else120
                                        #   in Loop: Header=BB1_43 Depth=1
	movq	-16(%rbp), %rax
	movq	(%rax), %rbx
	movq	-16(%rbp), %rax
	movq	(%rax), %rdi
	callq	strlen
	addq	%rax, %rbx
	addq	$-2, %rbx
	movq	%rbx, %rdi
	movl	$.L.str.5, %esi
	callq	strcmp
	cmpl	$0, %eax
	jne	.LBB1_59
# %bb.58:                               # %if.then127
                                        #   in Loop: Header=BB1_43 Depth=1
	movq	stderr, %rdi
	movq	-16(%rbp), %rax
	movq	(%rax), %rdx
	movabsq	$.L.str.9, %rsi
	movb	$0, %al
	callq	fprintf
	jmp	.LBB1_111
.LBB1_59:                               # %if.end129
                                        #   in Loop: Header=BB1_43 Depth=1
	movq	-16(%rbp), %rax
	movq	(%rax), %rdi
	movq	stdin, %rdx
	movabsq	$.L.str.6, %rsi
	callq	freopen
	cmpq	$0, %rax
	jne	.LBB1_61
# %bb.60:                               # %if.then133
                                        #   in Loop: Header=BB1_43 Depth=1
	movq	-16(%rbp), %rax
	movq	(%rax), %rdi
	callq	perror
	jmp	.LBB1_111
.LBB1_61:                               # %if.end134
                                        #   in Loop: Header=BB1_43 Depth=1
	movq	-16(%rbp), %rax
	movq	(%rax), %rdi
	leaq	-208(%rbp), %rsi
	callq	stat
	movq	-160(%rbp), %rax
	movq	%rax, fsize
	movq	$69001, hsize           # imm = 0x10D89
	cmpq	$4096, fsize            # imm = 0x1000
	jge	.LBB1_63
# %bb.62:                               # %if.then138
                                        #   in Loop: Header=BB1_43 Depth=1
	movq	$5003, hsize            # imm = 0x138B
	jmp	.LBB1_75
.LBB1_63:                               # %if.else139
                                        #   in Loop: Header=BB1_43 Depth=1
	cmpq	$8192, fsize            # imm = 0x2000
	jge	.LBB1_65
# %bb.64:                               # %if.then142
                                        #   in Loop: Header=BB1_43 Depth=1
	movq	$9001, hsize            # imm = 0x2329
	jmp	.LBB1_74
.LBB1_65:                               # %if.else143
                                        #   in Loop: Header=BB1_43 Depth=1
	cmpq	$16384, fsize           # imm = 0x4000
	jge	.LBB1_67
# %bb.66:                               # %if.then146
                                        #   in Loop: Header=BB1_43 Depth=1
	movq	$18013, hsize           # imm = 0x465D
	jmp	.LBB1_73
.LBB1_67:                               # %if.else147
                                        #   in Loop: Header=BB1_43 Depth=1
	cmpq	$32768, fsize           # imm = 0x8000
	jge	.LBB1_69
# %bb.68:                               # %if.then150
                                        #   in Loop: Header=BB1_43 Depth=1
	movq	$35023, hsize           # imm = 0x88CF
	jmp	.LBB1_72
.LBB1_69:                               # %if.else151
                                        #   in Loop: Header=BB1_43 Depth=1
	cmpq	$47000, fsize           # imm = 0xB798
	jge	.LBB1_71
# %bb.70:                               # %if.then154
                                        #   in Loop: Header=BB1_43 Depth=1
	movq	$50021, hsize           # imm = 0xC365
.LBB1_71:                               # %if.end155
                                        #   in Loop: Header=BB1_43 Depth=1
	jmp	.LBB1_72
.LBB1_72:                               # %if.end156
                                        #   in Loop: Header=BB1_43 Depth=1
	jmp	.LBB1_73
.LBB1_73:                               # %if.end157
                                        #   in Loop: Header=BB1_43 Depth=1
	jmp	.LBB1_74
.LBB1_74:                               # %if.end158
                                        #   in Loop: Header=BB1_43 Depth=1
	jmp	.LBB1_75
.LBB1_75:                               # %if.end159
                                        #   in Loop: Header=BB1_43 Depth=1
	movq	-16(%rbp), %rax
	movq	(%rax), %rsi
	movl	$ofname, %edi
	callq	strcpy
	movabsq	$ofname, %rdi
	movl	$47, %esi
	callq	rindex
	movq	%rax, -40(%rbp)
	cmpq	$0, %rax
	je	.LBB1_77
# %bb.76:                               # %if.then164
                                        #   in Loop: Header=BB1_43 Depth=1
	movq	-40(%rbp), %rax
	addq	$1, %rax
	movq	%rax, -40(%rbp)
	jmp	.LBB1_78
.LBB1_77:                               # %if.else166
                                        #   in Loop: Header=BB1_43 Depth=1
	movabsq	$ofname, %rax
	movq	%rax, -40(%rbp)
.LBB1_78:                               # %if.end167
                                        #   in Loop: Header=BB1_43 Depth=1
	movq	-40(%rbp), %rdi
	callq	strlen
	cmpq	$12, %rax
	jbe	.LBB1_80
# %bb.79:                               # %if.then171
                                        #   in Loop: Header=BB1_43 Depth=1
	movq	stderr, %rdi
	movq	-40(%rbp), %rdx
	movabsq	$.L.str.10, %rsi
	movb	$0, %al
	callq	fprintf
	jmp	.LBB1_111
.LBB1_80:                               # %if.end173
                                        #   in Loop: Header=BB1_43 Depth=1
	movabsq	$ofname, %rdi
	movabsq	$.L.str.5, %rsi
	callq	strcat
.LBB1_81:                               # %if.end175
                                        #   in Loop: Header=BB1_43 Depth=1
	cmpl	$0, -44(%rbp)
	jne	.LBB1_96
# %bb.82:                               # %land.lhs.true178
                                        #   in Loop: Header=BB1_43 Depth=1
	cmpl	$0, zcat_flg
	jne	.LBB1_96
# %bb.83:                               # %if.then181
                                        #   in Loop: Header=BB1_43 Depth=1
	movabsq	$ofname, %rdi
	leaq	-208(%rbp), %rsi
	callq	stat
	cmpl	$0, %eax
	jne	.LBB1_95
# %bb.84:                               # %if.then185
                                        #   in Loop: Header=BB1_43 Depth=1
	movb	$110, -18(%rbp)
	movq	stderr, %rdi
	movabsq	$.L.str.11, %rsi
	movabsq	$ofname, %rdx
	movb	$0, %al
	callq	fprintf
	callq	foreground
	cmpl	$0, %eax
	je	.LBB1_92
# %bb.85:                               # %if.then190
                                        #   in Loop: Header=BB1_43 Depth=1
	movq	stderr, %rdi
	movabsq	$.L.str.12, %rsi
	movabsq	$ofname, %rdx
	movb	$0, %al
	callq	fprintf
	movq	stderr, %rdi
	callq	fflush
	leaq	-18(%rbp), %rsi
	movl	$2, %edi
	movl	$2, %edx
	callq	read
.LBB1_86:                               # %while.cond195
                                        #   Parent Loop BB1_43 Depth=1
                                        # =>  This Inner Loop Header: Depth=2
	movsbl	-17(%rbp), %eax
	cmpl	$10, %eax
	je	.LBB1_90
# %bb.87:                               # %while.body200
                                        #   in Loop: Header=BB1_86 Depth=2
	leaq	-18(%rbp), %rsi
	addq	$1, %rsi
	movl	$2, %edi
	movl	$1, %edx
	callq	read
	cmpq	$0, %rax
	jge	.LBB1_89
# %bb.88:                               # %if.then206
                                        #   in Loop: Header=BB1_43 Depth=1
	movabsq	$.L.str.13, %rdi
	callq	perror
	jmp	.LBB1_91
.LBB1_89:                               # %if.end207
                                        #   in Loop: Header=BB1_86 Depth=2
	jmp	.LBB1_86
.LBB1_90:                               # %while.end208.loopexit
                                        #   in Loop: Header=BB1_43 Depth=1
	jmp	.LBB1_91
.LBB1_91:                               # %while.end208
                                        #   in Loop: Header=BB1_43 Depth=1
	jmp	.LBB1_92
.LBB1_92:                               # %if.end209
                                        #   in Loop: Header=BB1_43 Depth=1
	movsbl	-18(%rbp), %eax
	cmpl	$121, %eax
	je	.LBB1_94
# %bb.93:                               # %if.then214
                                        #   in Loop: Header=BB1_43 Depth=1
	movq	stderr, %rdi
	movabsq	$.L.str.14, %rsi
	movb	$0, %al
	callq	fprintf
	jmp	.LBB1_111
.LBB1_94:                               # %if.end216
                                        #   in Loop: Header=BB1_43 Depth=1
	jmp	.LBB1_95
.LBB1_95:                               # %if.end217
                                        #   in Loop: Header=BB1_43 Depth=1
	jmp	.LBB1_96
.LBB1_96:                               # %if.end218
                                        #   in Loop: Header=BB1_43 Depth=1
	cmpl	$0, zcat_flg
	jne	.LBB1_102
# %bb.97:                               # %if.then221
                                        #   in Loop: Header=BB1_43 Depth=1
	movq	stdout, %rdx
	movabsq	$ofname, %rdi
	movabsq	$.L.str.15, %rsi
	callq	freopen
	cmpq	$0, %rax
	jne	.LBB1_99
# %bb.98:                               # %if.then225
                                        #   in Loop: Header=BB1_43 Depth=1
	movabsq	$ofname, %rdi
	callq	perror
	jmp	.LBB1_111
.LBB1_99:                               # %if.end226
                                        #   in Loop: Header=BB1_43 Depth=1
	cmpl	$0, quiet
	jne	.LBB1_101
# %bb.100:                              # %if.then228
                                        #   in Loop: Header=BB1_43 Depth=1
	movq	stderr, %rdi
	movq	-16(%rbp), %rax
	movq	(%rax), %rdx
	movabsq	$.L.str.16, %rsi
	movb	$0, %al
	callq	fprintf
.LBB1_101:                              # %if.end230
                                        #   in Loop: Header=BB1_43 Depth=1
	jmp	.LBB1_102
.LBB1_102:                              # %if.end231
                                        #   in Loop: Header=BB1_43 Depth=1
	cmpl	$0, do_decomp
	jne	.LBB1_104
# %bb.103:                              # %if.then234
                                        #   in Loop: Header=BB1_43 Depth=1
	callq	compress
	jmp	.LBB1_105
.LBB1_104:                              # %if.else235
                                        #   in Loop: Header=BB1_43 Depth=1
	callq	decompress
.LBB1_105:                              # %if.end236
                                        #   in Loop: Header=BB1_43 Depth=1
	cmpl	$0, zcat_flg
	jne	.LBB1_110
# %bb.106:                              # %if.then239
                                        #   in Loop: Header=BB1_43 Depth=1
	movq	-16(%rbp), %rax
	movq	(%rax), %rdi
	movabsq	$ofname, %rsi
	callq	copystat
	cmpl	$1, exit_stat
	je	.LBB1_108
# %bb.107:                              # %lor.lhs.false242
                                        #   in Loop: Header=BB1_43 Depth=1
	cmpl	$0, quiet
	jne	.LBB1_109
.LBB1_108:                              # %if.then244
                                        #   in Loop: Header=BB1_43 Depth=1
	movq	stderr, %rsi
	movl	$10, %edi
	callq	_IO_putc
.LBB1_109:                              # %if.end246
                                        #   in Loop: Header=BB1_43 Depth=1
	jmp	.LBB1_110
.LBB1_110:                              # %if.end247
                                        #   in Loop: Header=BB1_43 Depth=1
	jmp	.LBB1_111
.LBB1_111:                              # %for.inc248
                                        #   in Loop: Header=BB1_43 Depth=1
	movq	-16(%rbp), %rax
	addq	$8, %rax
	movq	%rax, -16(%rbp)
	jmp	.LBB1_43
.LBB1_112:                              # %for.end250
	jmp	.LBB1_126
.LBB1_113:                              # %if.else251
	cmpl	$0, do_decomp
	jne	.LBB1_117
# %bb.114:                              # %if.then254
	callq	compress
	cmpl	$0, quiet
	jne	.LBB1_116
# %bb.115:                              # %if.then256
	movq	stderr, %rsi
	movl	$10, %edi
	callq	_IO_putc
.LBB1_116:                              # %if.end258
	jmp	.LBB1_125
.LBB1_117:                              # %if.else259
	cmpl	$0, nomagic
	jne	.LBB1_124
# %bb.118:                              # %if.then262
	callq	getchar
	movzbl	magic_header, %ecx
	andl	$255, %ecx
	cmpl	%ecx, %eax
	jne	.LBB1_120
# %bb.119:                              # %lor.lhs.false268
	callq	getchar
	movzbl	magic_header+1, %ecx
	andl	$255, %ecx
	cmpl	%ecx, %eax
	je	.LBB1_121
.LBB1_120:                              # %if.then274
	movq	stderr, %rdi
	movabsq	$.L.str.17, %rsi
	movb	$0, %al
	callq	fprintf
	movl	$1, %edi
	callq	exit
.LBB1_121:                              # %if.end276
	callq	getchar
	movl	%eax, maxbits
	movl	maxbits, %eax
	andl	$128, %eax
	movl	%eax, block_compress
	movl	maxbits, %eax
	andl	$31, %eax
	movl	%eax, maxbits
	movl	maxbits, %ecx
                                        # kill: def $cl killed $ecx
	movl	$1, %eax
	shll	%cl, %eax
	cltq
	movq	%rax, maxmaxcode
	movq	$100000, fsize          # imm = 0x186A0
	cmpl	$16, maxbits
	jle	.LBB1_123
# %bb.122:                              # %if.then284
	movq	stderr, %rdi
	movl	maxbits, %edx
	movabsq	$.L.str.18, %rsi
	movl	$16, %ecx
	movb	$0, %al
	callq	fprintf
	movl	$1, %edi
	callq	exit
.LBB1_123:                              # %if.end286
	jmp	.LBB1_124
.LBB1_124:                              # %if.end287
	callq	decompress
.LBB1_125:                              # %if.end288
	jmp	.LBB1_126
.LBB1_126:                              # %if.end289
	xorl	%eax, %eax
	addq	$312, %rsp              # imm = 0x138
	popq	%rbx
	popq	%rbp
	.cfi_def_cfa %rsp, 8
	retq
.Lfunc_end1:
	.size	main, .Lfunc_end1-main
	.cfi_endproc
	.section	.rodata,"a",@progbits
	.p2align	3
.LJTI1_0:
	.quad	.LBB1_22
	.quad	.LBB1_30
	.quad	.LBB1_30
	.quad	.LBB1_20
	.quad	.LBB1_30
	.quad	.LBB1_30
	.quad	.LBB1_30
	.quad	.LBB1_30
	.quad	.LBB1_30
	.quad	.LBB1_30
	.quad	.LBB1_30
	.quad	.LBB1_30
	.quad	.LBB1_30
	.quad	.LBB1_30
	.quad	.LBB1_30
	.quad	.LBB1_30
	.quad	.LBB1_30
	.quad	.LBB1_30
	.quad	.LBB1_30
	.quad	.LBB1_17
	.quad	.LBB1_30
	.quad	.LBB1_30
	.quad	.LBB1_30
	.quad	.LBB1_30
	.quad	.LBB1_30
	.quad	.LBB1_30
	.quad	.LBB1_30
	.quad	.LBB1_30
	.quad	.LBB1_30
	.quad	.LBB1_30
	.quad	.LBB1_30
	.quad	.LBB1_23
	.quad	.LBB1_28
	.quad	.LBB1_19
	.quad	.LBB1_30
	.quad	.LBB1_20
	.quad	.LBB1_30
	.quad	.LBB1_30
	.quad	.LBB1_30
	.quad	.LBB1_30
	.quad	.LBB1_30
	.quad	.LBB1_30
	.quad	.LBB1_30
	.quad	.LBB1_21
	.quad	.LBB1_30
	.quad	.LBB1_30
	.quad	.LBB1_29
	.quad	.LBB1_30
	.quad	.LBB1_30
	.quad	.LBB1_30
	.quad	.LBB1_30
	.quad	.LBB1_18
                                        # -- End function
	.text
	.globl	onintr                  # -- Begin function onintr
	.p2align	4, 0x90
	.type	onintr,@function
onintr:                                 # @onintr
	.cfi_startproc
# %bb.0:                                # %entry
	pushq	%rbp
	.cfi_def_cfa_offset 16
	.cfi_offset %rbp, -16
	movq	%rsp, %rbp
	.cfi_def_cfa_register %rbp
	subq	$16, %rsp
	movl	%edi, -4(%rbp)
	movabsq	$ofname, %rdi
	callq	unlink
	movl	$1, %edi
	callq	exit
.Lfunc_end2:
	.size	onintr, .Lfunc_end2-onintr
	.cfi_endproc
                                        # -- End function
	.globl	oops                    # -- Begin function oops
	.p2align	4, 0x90
	.type	oops,@function
oops:                                   # @oops
	.cfi_startproc
# %bb.0:                                # %entry
	pushq	%rbp
	.cfi_def_cfa_offset 16
	.cfi_offset %rbp, -16
	movq	%rsp, %rbp
	.cfi_def_cfa_register %rbp
	subq	$16, %rsp
	movl	%edi, -4(%rbp)
	cmpl	$1, do_decomp
	jne	.LBB3_2
# %bb.1:                                # %if.then
	movq	stderr, %rdi
	movabsq	$.L.str.24, %rsi
	movb	$0, %al
	callq	fprintf
.LBB3_2:                                # %if.end
	movabsq	$ofname, %rdi
	callq	unlink
	movl	$1, %edi
	callq	exit
.Lfunc_end3:
	.size	oops, .Lfunc_end3-oops
	.cfi_endproc
                                        # -- End function
	.globl	copystat                # -- Begin function copystat
	.p2align	4, 0x90
	.type	copystat,@function
copystat:                               # @copystat
	.cfi_startproc
# %bb.0:                                # %rand_bb
	pushq	%rbp
	.cfi_def_cfa_offset 16
	.cfi_offset %rbp, -16
	movq	%rsp, %rbp
	.cfi_def_cfa_register %rbp
	pushq	%r14
	pushq	%rbx
	.cfi_offset %rbx, -32
	.cfi_offset %r14, -24
	movq	%rsi, %r14
	movq	%rdi, %rbx
	callq	get_urand
	cmpl	$0, %eax
	jne	.LBB4_17
# %bb.1:                                # %func_copystat.3
	movq	%rbx, %rdi
	movq	%r14, %rsi
	callq	copystat.3
	popq	%rbx
	popq	%r14
	popq	%rbp
	.cfi_def_cfa %rsp, 8
	retq
.LBB4_2:                                # %func_copystat.4
	.cfi_def_cfa %rbp, 16
	movq	%rbx, %rdi
	movq	%r14, %rsi
	callq	copystat.4
	popq	%rbx
	popq	%r14
	popq	%rbp
	.cfi_def_cfa %rsp, 8
	retq
.LBB4_3:                                # %func_copystat.12
	.cfi_def_cfa %rbp, 16
	movq	%rbx, %rdi
	movq	%r14, %rsi
	callq	copystat.12
	popq	%rbx
	popq	%r14
	popq	%rbp
	.cfi_def_cfa %rsp, 8
	retq
.LBB4_4:                                # %func_copystat.23
	.cfi_def_cfa %rbp, 16
	movq	%rbx, %rdi
	movq	%r14, %rsi
	callq	copystat.23
	popq	%rbx
	popq	%r14
	popq	%rbp
	.cfi_def_cfa %rsp, 8
	retq
.LBB4_5:                                # %func_copystat.31
	.cfi_def_cfa %rbp, 16
	movq	%rbx, %rdi
	movq	%r14, %rsi
	callq	copystat.31
	popq	%rbx
	popq	%r14
	popq	%rbp
	.cfi_def_cfa %rsp, 8
	retq
.LBB4_6:                                # %func_copystat.34
	.cfi_def_cfa %rbp, 16
	movq	%rbx, %rdi
	movq	%r14, %rsi
	callq	copystat.34
	popq	%rbx
	popq	%r14
	popq	%rbp
	.cfi_def_cfa %rsp, 8
	retq
.LBB4_7:                                # %func_copystat.39
	.cfi_def_cfa %rbp, 16
	movq	%rbx, %rdi
	movq	%r14, %rsi
	callq	copystat.39
	popq	%rbx
	popq	%r14
	popq	%rbp
	.cfi_def_cfa %rsp, 8
	retq
.LBB4_8:                                # %func_copystat.49
	.cfi_def_cfa %rbp, 16
	movq	%rbx, %rdi
	movq	%r14, %rsi
	callq	copystat.49
	popq	%rbx
	popq	%r14
	popq	%rbp
	.cfi_def_cfa %rsp, 8
	retq
.LBB4_9:                                # %func_copystat.57
	.cfi_def_cfa %rbp, 16
	movq	%rbx, %rdi
	movq	%r14, %rsi
	callq	copystat.57
	popq	%rbx
	popq	%r14
	popq	%rbp
	.cfi_def_cfa %rsp, 8
	retq
.LBB4_10:                               # %func_copystat.63
	.cfi_def_cfa %rbp, 16
	movq	%rbx, %rdi
	movq	%r14, %rsi
	callq	copystat.63
	popq	%rbx
	popq	%r14
	popq	%rbp
	.cfi_def_cfa %rsp, 8
	retq
.LBB4_11:                               # %func_copystat.67
	.cfi_def_cfa %rbp, 16
	movq	%rbx, %rdi
	movq	%r14, %rsi
	callq	copystat.67
	popq	%rbx
	popq	%r14
	popq	%rbp
	.cfi_def_cfa %rsp, 8
	retq
.LBB4_12:                               # %func_copystat.72
	.cfi_def_cfa %rbp, 16
	movq	%rbx, %rdi
	movq	%r14, %rsi
	callq	copystat.72
	popq	%rbx
	popq	%r14
	popq	%rbp
	.cfi_def_cfa %rsp, 8
	retq
.LBB4_13:                               # %func_copystat.73
	.cfi_def_cfa %rbp, 16
	movq	%rbx, %rdi
	movq	%r14, %rsi
	callq	copystat.73
	popq	%rbx
	popq	%r14
	popq	%rbp
	.cfi_def_cfa %rsp, 8
	retq
.LBB4_14:                               # %func_copystat.82
	.cfi_def_cfa %rbp, 16
	movq	%rbx, %rdi
	movq	%r14, %rsi
	callq	copystat.82
	popq	%rbx
	popq	%r14
	popq	%rbp
	.cfi_def_cfa %rsp, 8
	retq
.LBB4_15:                               # %func_copystat.86
	.cfi_def_cfa %rbp, 16
	movq	%rbx, %rdi
	movq	%r14, %rsi
	callq	copystat.86
	popq	%rbx
	popq	%r14
	popq	%rbp
	.cfi_def_cfa %rsp, 8
	retq
.LBB4_16:                               # %func_copystat.93
	.cfi_def_cfa %rbp, 16
	movq	%rbx, %rdi
	movq	%r14, %rsi
	callq	copystat.93
	popq	%rbx
	popq	%r14
	popq	%rbp
	.cfi_def_cfa %rsp, 8
	retq
.LBB4_17:                               # %ctrl0
	.cfi_def_cfa %rbp, 16
	cmpl	$1, %eax
	je	.LBB4_2
# %bb.18:                               # %ctrl1
	cmpl	$2, %eax
	je	.LBB4_3
# %bb.19:                               # %ctrl2
	cmpl	$3, %eax
	je	.LBB4_4
# %bb.20:                               # %ctrl3
	cmpl	$4, %eax
	je	.LBB4_5
# %bb.21:                               # %ctrl4
	cmpl	$5, %eax
	je	.LBB4_6
# %bb.22:                               # %ctrl5
	cmpl	$6, %eax
	je	.LBB4_7
# %bb.23:                               # %ctrl6
	cmpl	$7, %eax
	je	.LBB4_8
# %bb.24:                               # %ctrl7
	cmpl	$8, %eax
	je	.LBB4_9
# %bb.25:                               # %ctrl8
	cmpl	$9, %eax
	je	.LBB4_10
# %bb.26:                               # %ctrl9
	cmpl	$10, %eax
	je	.LBB4_11
# %bb.27:                               # %ctrl10
	cmpl	$11, %eax
	je	.LBB4_12
# %bb.28:                               # %ctrl11
	cmpl	$12, %eax
	je	.LBB4_13
# %bb.29:                               # %ctrl12
	cmpl	$13, %eax
	je	.LBB4_14
# %bb.30:                               # %ctrl13
	cmpl	$14, %eax
	je	.LBB4_15
	jmp	.LBB4_16
.Lfunc_end4:
	.size	copystat, .Lfunc_end4-copystat
	.cfi_endproc
                                        # -- End function
	.globl	compress                # -- Begin function compress
	.p2align	4, 0x90
	.type	compress,@function
compress:                               # @compress
	.cfi_startproc
# %bb.0:                                # %rand_bb
	pushq	%rbp
	.cfi_def_cfa_offset 16
	.cfi_offset %rbp, -16
	movq	%rsp, %rbp
	.cfi_def_cfa_register %rbp
	callq	get_urand
	cmpl	$0, %eax
	jne	.LBB5_17
# %bb.1:                                # %func_compress.2
	callq	compress.2
	popq	%rbp
	.cfi_def_cfa %rsp, 8
	retq
.LBB5_2:                                # %func_compress.17
	.cfi_def_cfa %rbp, 16
	callq	compress.17
	popq	%rbp
	.cfi_def_cfa %rsp, 8
	retq
.LBB5_3:                                # %func_compress.28
	.cfi_def_cfa %rbp, 16
	callq	compress.28
	popq	%rbp
	.cfi_def_cfa %rsp, 8
	retq
.LBB5_4:                                # %func_compress.36
	.cfi_def_cfa %rbp, 16
	callq	compress.36
	popq	%rbp
	.cfi_def_cfa %rsp, 8
	retq
.LBB5_5:                                # %func_compress.44
	.cfi_def_cfa %rbp, 16
	callq	compress.44
	popq	%rbp
	.cfi_def_cfa %rsp, 8
	retq
.LBB5_6:                                # %func_compress.59
	.cfi_def_cfa %rbp, 16
	callq	compress.59
	popq	%rbp
	.cfi_def_cfa %rsp, 8
	retq
.LBB5_7:                                # %func_compress.61
	.cfi_def_cfa %rbp, 16
	callq	compress.61
	popq	%rbp
	.cfi_def_cfa %rsp, 8
	retq
.LBB5_8:                                # %func_compress.62
	.cfi_def_cfa %rbp, 16
	callq	compress.62
	popq	%rbp
	.cfi_def_cfa %rsp, 8
	retq
.LBB5_9:                                # %func_compress.65
	.cfi_def_cfa %rbp, 16
	callq	compress.65
	popq	%rbp
	.cfi_def_cfa %rsp, 8
	retq
.LBB5_10:                               # %func_compress.70
	.cfi_def_cfa %rbp, 16
	callq	compress.70
	popq	%rbp
	.cfi_def_cfa %rsp, 8
	retq
.LBB5_11:                               # %func_compress.74
	.cfi_def_cfa %rbp, 16
	callq	compress.74
	popq	%rbp
	.cfi_def_cfa %rsp, 8
	retq
.LBB5_12:                               # %func_compress.75
	.cfi_def_cfa %rbp, 16
	callq	compress.75
	popq	%rbp
	.cfi_def_cfa %rsp, 8
	retq
.LBB5_13:                               # %func_compress.83
	.cfi_def_cfa %rbp, 16
	callq	compress.83
	popq	%rbp
	.cfi_def_cfa %rsp, 8
	retq
.LBB5_14:                               # %func_compress.96
	.cfi_def_cfa %rbp, 16
	callq	compress.96
	popq	%rbp
	.cfi_def_cfa %rsp, 8
	retq
.LBB5_15:                               # %func_compress.104
	.cfi_def_cfa %rbp, 16
	callq	compress.104
	popq	%rbp
	.cfi_def_cfa %rsp, 8
	retq
.LBB5_16:                               # %func_compress.109
	.cfi_def_cfa %rbp, 16
	callq	compress.109
	popq	%rbp
	.cfi_def_cfa %rsp, 8
	retq
.LBB5_17:                               # %ctrl0
	.cfi_def_cfa %rbp, 16
	cmpl	$1, %eax
	je	.LBB5_2
# %bb.18:                               # %ctrl1
	cmpl	$2, %eax
	je	.LBB5_3
# %bb.19:                               # %ctrl2
	cmpl	$3, %eax
	je	.LBB5_4
# %bb.20:                               # %ctrl3
	cmpl	$4, %eax
	je	.LBB5_5
# %bb.21:                               # %ctrl4
	cmpl	$5, %eax
	je	.LBB5_6
# %bb.22:                               # %ctrl5
	cmpl	$6, %eax
	je	.LBB5_7
# %bb.23:                               # %ctrl6
	cmpl	$7, %eax
	je	.LBB5_8
# %bb.24:                               # %ctrl7
	cmpl	$8, %eax
	je	.LBB5_9
# %bb.25:                               # %ctrl8
	cmpl	$9, %eax
	je	.LBB5_10
# %bb.26:                               # %ctrl9
	cmpl	$10, %eax
	je	.LBB5_11
# %bb.27:                               # %ctrl10
	cmpl	$11, %eax
	je	.LBB5_12
# %bb.28:                               # %ctrl11
	cmpl	$12, %eax
	je	.LBB5_13
# %bb.29:                               # %ctrl12
	cmpl	$13, %eax
	je	.LBB5_14
# %bb.30:                               # %ctrl13
	cmpl	$14, %eax
	je	.LBB5_15
	jmp	.LBB5_16
.Lfunc_end5:
	.size	compress, .Lfunc_end5-compress
	.cfi_endproc
                                        # -- End function
	.globl	cl_hash                 # -- Begin function cl_hash
	.p2align	4, 0x90
	.type	cl_hash,@function
cl_hash:                                # @cl_hash
	.cfi_startproc
# %bb.0:                                # %rand_bb
	pushq	%rbp
	.cfi_def_cfa_offset 16
	.cfi_offset %rbp, -16
	movq	%rsp, %rbp
	.cfi_def_cfa_register %rbp
	pushq	%rbx
	pushq	%rax
	.cfi_offset %rbx, -24
	movq	%rdi, %rbx
	callq	get_urand
	cmpl	$0, %eax
	jne	.LBB6_17
# %bb.1:                                # %func_cl_hash.5
	movq	%rbx, %rdi
	callq	cl_hash.5
	addq	$8, %rsp
	popq	%rbx
	popq	%rbp
	.cfi_def_cfa %rsp, 8
	retq
.LBB6_2:                                # %func_cl_hash.6
	.cfi_def_cfa %rbp, 16
	movq	%rbx, %rdi
	callq	cl_hash.6
	addq	$8, %rsp
	popq	%rbx
	popq	%rbp
	.cfi_def_cfa %rsp, 8
	retq
.LBB6_3:                                # %func_cl_hash.16
	.cfi_def_cfa %rbp, 16
	movq	%rbx, %rdi
	callq	cl_hash.16
	addq	$8, %rsp
	popq	%rbx
	popq	%rbp
	.cfi_def_cfa %rsp, 8
	retq
.LBB6_4:                                # %func_cl_hash.24
	.cfi_def_cfa %rbp, 16
	movq	%rbx, %rdi
	callq	cl_hash.24
	addq	$8, %rsp
	popq	%rbx
	popq	%rbp
	.cfi_def_cfa %rsp, 8
	retq
.LBB6_5:                                # %func_cl_hash.37
	.cfi_def_cfa %rbp, 16
	movq	%rbx, %rdi
	callq	cl_hash.37
	addq	$8, %rsp
	popq	%rbx
	popq	%rbp
	.cfi_def_cfa %rsp, 8
	retq
.LBB6_6:                                # %func_cl_hash.53
	.cfi_def_cfa %rbp, 16
	movq	%rbx, %rdi
	callq	cl_hash.53
	addq	$8, %rsp
	popq	%rbx
	popq	%rbp
	.cfi_def_cfa %rsp, 8
	retq
.LBB6_7:                                # %func_cl_hash.69
	.cfi_def_cfa %rbp, 16
	movq	%rbx, %rdi
	callq	cl_hash.69
	addq	$8, %rsp
	popq	%rbx
	popq	%rbp
	.cfi_def_cfa %rsp, 8
	retq
.LBB6_8:                                # %func_cl_hash.71
	.cfi_def_cfa %rbp, 16
	movq	%rbx, %rdi
	callq	cl_hash.71
	addq	$8, %rsp
	popq	%rbx
	popq	%rbp
	.cfi_def_cfa %rsp, 8
	retq
.LBB6_9:                                # %func_cl_hash.91
	.cfi_def_cfa %rbp, 16
	movq	%rbx, %rdi
	callq	cl_hash.91
	addq	$8, %rsp
	popq	%rbx
	popq	%rbp
	.cfi_def_cfa %rsp, 8
	retq
.LBB6_10:                               # %func_cl_hash.94
	.cfi_def_cfa %rbp, 16
	movq	%rbx, %rdi
	callq	cl_hash.94
	addq	$8, %rsp
	popq	%rbx
	popq	%rbp
	.cfi_def_cfa %rsp, 8
	retq
.LBB6_11:                               # %func_cl_hash.105
	.cfi_def_cfa %rbp, 16
	movq	%rbx, %rdi
	callq	cl_hash.105
	addq	$8, %rsp
	popq	%rbx
	popq	%rbp
	.cfi_def_cfa %rsp, 8
	retq
.LBB6_12:                               # %func_cl_hash.108
	.cfi_def_cfa %rbp, 16
	movq	%rbx, %rdi
	callq	cl_hash.108
	addq	$8, %rsp
	popq	%rbx
	popq	%rbp
	.cfi_def_cfa %rsp, 8
	retq
.LBB6_13:                               # %func_cl_hash.110
	.cfi_def_cfa %rbp, 16
	movq	%rbx, %rdi
	callq	cl_hash.110
	addq	$8, %rsp
	popq	%rbx
	popq	%rbp
	.cfi_def_cfa %rsp, 8
	retq
.LBB6_14:                               # %func_cl_hash.120
	.cfi_def_cfa %rbp, 16
	movq	%rbx, %rdi
	callq	cl_hash.120
	addq	$8, %rsp
	popq	%rbx
	popq	%rbp
	.cfi_def_cfa %rsp, 8
	retq
.LBB6_15:                               # %func_cl_hash.122
	.cfi_def_cfa %rbp, 16
	movq	%rbx, %rdi
	callq	cl_hash.122
	addq	$8, %rsp
	popq	%rbx
	popq	%rbp
	.cfi_def_cfa %rsp, 8
	retq
.LBB6_16:                               # %func_cl_hash.125
	.cfi_def_cfa %rbp, 16
	movq	%rbx, %rdi
	callq	cl_hash.125
	addq	$8, %rsp
	popq	%rbx
	popq	%rbp
	.cfi_def_cfa %rsp, 8
	retq
.LBB6_17:                               # %ctrl0
	.cfi_def_cfa %rbp, 16
	cmpl	$1, %eax
	je	.LBB6_2
# %bb.18:                               # %ctrl1
	cmpl	$2, %eax
	je	.LBB6_3
# %bb.19:                               # %ctrl2
	cmpl	$3, %eax
	je	.LBB6_4
# %bb.20:                               # %ctrl3
	cmpl	$4, %eax
	je	.LBB6_5
# %bb.21:                               # %ctrl4
	cmpl	$5, %eax
	je	.LBB6_6
# %bb.22:                               # %ctrl5
	cmpl	$6, %eax
	je	.LBB6_7
# %bb.23:                               # %ctrl6
	cmpl	$7, %eax
	je	.LBB6_8
# %bb.24:                               # %ctrl7
	cmpl	$8, %eax
	je	.LBB6_9
# %bb.25:                               # %ctrl8
	cmpl	$9, %eax
	je	.LBB6_10
# %bb.26:                               # %ctrl9
	cmpl	$10, %eax
	je	.LBB6_11
# %bb.27:                               # %ctrl10
	cmpl	$11, %eax
	je	.LBB6_12
# %bb.28:                               # %ctrl11
	cmpl	$12, %eax
	je	.LBB6_13
# %bb.29:                               # %ctrl12
	cmpl	$13, %eax
	je	.LBB6_14
# %bb.30:                               # %ctrl13
	cmpl	$14, %eax
	je	.LBB6_15
	jmp	.LBB6_16
.Lfunc_end6:
	.size	cl_hash, .Lfunc_end6-cl_hash
	.cfi_endproc
                                        # -- End function
	.globl	scott_hack              # -- Begin function scott_hack
	.p2align	4, 0x90
	.type	scott_hack,@function
scott_hack:                             # @scott_hack
	.cfi_startproc
# %bb.0:                                # %rand_bb
	pushq	%rbp
	.cfi_def_cfa_offset 16
	.cfi_offset %rbp, -16
	movq	%rsp, %rbp
	.cfi_def_cfa_register %rbp
	pushq	%r15
	pushq	%r14
	pushq	%r13
	pushq	%r12
	pushq	%rbx
	pushq	%rax
	.cfi_offset %rbx, -56
	.cfi_offset %r12, -48
	.cfi_offset %r13, -40
	.cfi_offset %r14, -32
	.cfi_offset %r15, -24
	movq	%r8, %r14
	movl	%ecx, %r15d
	movl	%edx, %r12d
	movq	%rsi, %r13
	movq	%rdi, %rbx
	callq	get_urand
	cmpl	$0, %eax
	jne	.LBB7_17
# %bb.1:                                # %func_scott_hack.7
	movq	%rbx, %rdi
	movq	%r13, %rsi
	movl	%r12d, %edx
	movl	%r15d, %ecx
	movq	%r14, %r8
	callq	scott_hack.7
	addq	$8, %rsp
	popq	%rbx
	popq	%r12
	popq	%r13
	popq	%r14
	popq	%r15
	popq	%rbp
	.cfi_def_cfa %rsp, 8
	retq
.LBB7_2:                                # %func_scott_hack.19
	.cfi_def_cfa %rbp, 16
	movq	%rbx, %rdi
	movq	%r13, %rsi
	movl	%r12d, %edx
	movl	%r15d, %ecx
	movq	%r14, %r8
	callq	scott_hack.19
	addq	$8, %rsp
	popq	%rbx
	popq	%r12
	popq	%r13
	popq	%r14
	popq	%r15
	popq	%rbp
	.cfi_def_cfa %rsp, 8
	retq
.LBB7_3:                                # %func_scott_hack.22
	.cfi_def_cfa %rbp, 16
	movq	%rbx, %rdi
	movq	%r13, %rsi
	movl	%r12d, %edx
	movl	%r15d, %ecx
	movq	%r14, %r8
	callq	scott_hack.22
	addq	$8, %rsp
	popq	%rbx
	popq	%r12
	popq	%r13
	popq	%r14
	popq	%r15
	popq	%rbp
	.cfi_def_cfa %rsp, 8
	retq
.LBB7_4:                                # %func_scott_hack.26
	.cfi_def_cfa %rbp, 16
	movq	%rbx, %rdi
	movq	%r13, %rsi
	movl	%r12d, %edx
	movl	%r15d, %ecx
	movq	%r14, %r8
	callq	scott_hack.26
	addq	$8, %rsp
	popq	%rbx
	popq	%r12
	popq	%r13
	popq	%r14
	popq	%r15
	popq	%rbp
	.cfi_def_cfa %rsp, 8
	retq
.LBB7_5:                                # %func_scott_hack.32
	.cfi_def_cfa %rbp, 16
	movq	%rbx, %rdi
	movq	%r13, %rsi
	movl	%r12d, %edx
	movl	%r15d, %ecx
	movq	%r14, %r8
	callq	scott_hack.32
	addq	$8, %rsp
	popq	%rbx
	popq	%r12
	popq	%r13
	popq	%r14
	popq	%r15
	popq	%rbp
	.cfi_def_cfa %rsp, 8
	retq
.LBB7_6:                                # %func_scott_hack.35
	.cfi_def_cfa %rbp, 16
	movq	%rbx, %rdi
	movq	%r13, %rsi
	movl	%r12d, %edx
	movl	%r15d, %ecx
	movq	%r14, %r8
	callq	scott_hack.35
	addq	$8, %rsp
	popq	%rbx
	popq	%r12
	popq	%r13
	popq	%r14
	popq	%r15
	popq	%rbp
	.cfi_def_cfa %rsp, 8
	retq
.LBB7_7:                                # %func_scott_hack.46
	.cfi_def_cfa %rbp, 16
	movq	%rbx, %rdi
	movq	%r13, %rsi
	movl	%r12d, %edx
	movl	%r15d, %ecx
	movq	%r14, %r8
	callq	scott_hack.46
	addq	$8, %rsp
	popq	%rbx
	popq	%r12
	popq	%r13
	popq	%r14
	popq	%r15
	popq	%rbp
	.cfi_def_cfa %rsp, 8
	retq
.LBB7_8:                                # %func_scott_hack.47
	.cfi_def_cfa %rbp, 16
	movq	%rbx, %rdi
	movq	%r13, %rsi
	movl	%r12d, %edx
	movl	%r15d, %ecx
	movq	%r14, %r8
	callq	scott_hack.47
	addq	$8, %rsp
	popq	%rbx
	popq	%r12
	popq	%r13
	popq	%r14
	popq	%r15
	popq	%rbp
	.cfi_def_cfa %rsp, 8
	retq
.LBB7_9:                                # %func_scott_hack.58
	.cfi_def_cfa %rbp, 16
	movq	%rbx, %rdi
	movq	%r13, %rsi
	movl	%r12d, %edx
	movl	%r15d, %ecx
	movq	%r14, %r8
	callq	scott_hack.58
	addq	$8, %rsp
	popq	%rbx
	popq	%r12
	popq	%r13
	popq	%r14
	popq	%r15
	popq	%rbp
	.cfi_def_cfa %rsp, 8
	retq
.LBB7_10:                               # %func_scott_hack.66
	.cfi_def_cfa %rbp, 16
	movq	%rbx, %rdi
	movq	%r13, %rsi
	movl	%r12d, %edx
	movl	%r15d, %ecx
	movq	%r14, %r8
	callq	scott_hack.66
	addq	$8, %rsp
	popq	%rbx
	popq	%r12
	popq	%r13
	popq	%r14
	popq	%r15
	popq	%rbp
	.cfi_def_cfa %rsp, 8
	retq
.LBB7_11:                               # %func_scott_hack.68
	.cfi_def_cfa %rbp, 16
	movq	%rbx, %rdi
	movq	%r13, %rsi
	movl	%r12d, %edx
	movl	%r15d, %ecx
	movq	%r14, %r8
	callq	scott_hack.68
	addq	$8, %rsp
	popq	%rbx
	popq	%r12
	popq	%r13
	popq	%r14
	popq	%r15
	popq	%rbp
	.cfi_def_cfa %rsp, 8
	retq
.LBB7_12:                               # %func_scott_hack.79
	.cfi_def_cfa %rbp, 16
	movq	%rbx, %rdi
	movq	%r13, %rsi
	movl	%r12d, %edx
	movl	%r15d, %ecx
	movq	%r14, %r8
	callq	scott_hack.79
	addq	$8, %rsp
	popq	%rbx
	popq	%r12
	popq	%r13
	popq	%r14
	popq	%r15
	popq	%rbp
	.cfi_def_cfa %rsp, 8
	retq
.LBB7_13:                               # %func_scott_hack.89
	.cfi_def_cfa %rbp, 16
	movq	%rbx, %rdi
	movq	%r13, %rsi
	movl	%r12d, %edx
	movl	%r15d, %ecx
	movq	%r14, %r8
	callq	scott_hack.89
	addq	$8, %rsp
	popq	%rbx
	popq	%r12
	popq	%r13
	popq	%r14
	popq	%r15
	popq	%rbp
	.cfi_def_cfa %rsp, 8
	retq
.LBB7_14:                               # %func_scott_hack.106
	.cfi_def_cfa %rbp, 16
	movq	%rbx, %rdi
	movq	%r13, %rsi
	movl	%r12d, %edx
	movl	%r15d, %ecx
	movq	%r14, %r8
	callq	scott_hack.106
	addq	$8, %rsp
	popq	%rbx
	popq	%r12
	popq	%r13
	popq	%r14
	popq	%r15
	popq	%rbp
	.cfi_def_cfa %rsp, 8
	retq
.LBB7_15:                               # %func_scott_hack.116
	.cfi_def_cfa %rbp, 16
	movq	%rbx, %rdi
	movq	%r13, %rsi
	movl	%r12d, %edx
	movl	%r15d, %ecx
	movq	%r14, %r8
	callq	scott_hack.116
	addq	$8, %rsp
	popq	%rbx
	popq	%r12
	popq	%r13
	popq	%r14
	popq	%r15
	popq	%rbp
	.cfi_def_cfa %rsp, 8
	retq
.LBB7_16:                               # %func_scott_hack.118
	.cfi_def_cfa %rbp, 16
	movq	%rbx, %rdi
	movq	%r13, %rsi
	movl	%r12d, %edx
	movl	%r15d, %ecx
	movq	%r14, %r8
	callq	scott_hack.118
	addq	$8, %rsp
	popq	%rbx
	popq	%r12
	popq	%r13
	popq	%r14
	popq	%r15
	popq	%rbp
	.cfi_def_cfa %rsp, 8
	retq
.LBB7_17:                               # %ctrl0
	.cfi_def_cfa %rbp, 16
	cmpl	$1, %eax
	je	.LBB7_2
# %bb.18:                               # %ctrl1
	cmpl	$2, %eax
	je	.LBB7_3
# %bb.19:                               # %ctrl2
	cmpl	$3, %eax
	je	.LBB7_4
# %bb.20:                               # %ctrl3
	cmpl	$4, %eax
	je	.LBB7_5
# %bb.21:                               # %ctrl4
	cmpl	$5, %eax
	je	.LBB7_6
# %bb.22:                               # %ctrl5
	cmpl	$6, %eax
	je	.LBB7_7
# %bb.23:                               # %ctrl6
	cmpl	$7, %eax
	je	.LBB7_8
# %bb.24:                               # %ctrl7
	cmpl	$8, %eax
	je	.LBB7_9
# %bb.25:                               # %ctrl8
	cmpl	$9, %eax
	je	.LBB7_10
# %bb.26:                               # %ctrl9
	cmpl	$10, %eax
	je	.LBB7_11
# %bb.27:                               # %ctrl10
	cmpl	$11, %eax
	je	.LBB7_12
# %bb.28:                               # %ctrl11
	cmpl	$12, %eax
	je	.LBB7_13
# %bb.29:                               # %ctrl12
	cmpl	$13, %eax
	je	.LBB7_14
# %bb.30:                               # %ctrl13
	cmpl	$14, %eax
	je	.LBB7_15
	jmp	.LBB7_16
.Lfunc_end7:
	.size	scott_hack, .Lfunc_end7-scott_hack
	.cfi_endproc
                                        # -- End function
	.globl	output                  # -- Begin function output
	.p2align	4, 0x90
	.type	output,@function
output:                                 # @output
	.cfi_startproc
# %bb.0:                                # %rand_bb
	pushq	%rbp
	.cfi_def_cfa_offset 16
	.cfi_offset %rbp, -16
	movq	%rsp, %rbp
	.cfi_def_cfa_register %rbp
	pushq	%rbx
	pushq	%rax
	.cfi_offset %rbx, -24
	movq	%rdi, %rbx
	callq	get_urand
	cmpl	$0, %eax
	jne	.LBB8_17
# %bb.1:                                # %func_output.9
	movq	%rbx, %rdi
	callq	output.9
	addq	$8, %rsp
	popq	%rbx
	popq	%rbp
	.cfi_def_cfa %rsp, 8
	retq
.LBB8_2:                                # %func_output.13
	.cfi_def_cfa %rbp, 16
	movq	%rbx, %rdi
	callq	output.13
	addq	$8, %rsp
	popq	%rbx
	popq	%rbp
	.cfi_def_cfa %rsp, 8
	retq
.LBB8_3:                                # %func_output.15
	.cfi_def_cfa %rbp, 16
	movq	%rbx, %rdi
	callq	output.15
	addq	$8, %rsp
	popq	%rbx
	popq	%rbp
	.cfi_def_cfa %rsp, 8
	retq
.LBB8_4:                                # %func_output.21
	.cfi_def_cfa %rbp, 16
	movq	%rbx, %rdi
	callq	output.21
	addq	$8, %rsp
	popq	%rbx
	popq	%rbp
	.cfi_def_cfa %rsp, 8
	retq
.LBB8_5:                                # %func_output.27
	.cfi_def_cfa %rbp, 16
	movq	%rbx, %rdi
	callq	output.27
	addq	$8, %rsp
	popq	%rbx
	popq	%rbp
	.cfi_def_cfa %rsp, 8
	retq
.LBB8_6:                                # %func_output.52
	.cfi_def_cfa %rbp, 16
	movq	%rbx, %rdi
	callq	output.52
	addq	$8, %rsp
	popq	%rbx
	popq	%rbp
	.cfi_def_cfa %rsp, 8
	retq
.LBB8_7:                                # %func_output.77
	.cfi_def_cfa %rbp, 16
	movq	%rbx, %rdi
	callq	output.77
	addq	$8, %rsp
	popq	%rbx
	popq	%rbp
	.cfi_def_cfa %rsp, 8
	retq
.LBB8_8:                                # %func_output.80
	.cfi_def_cfa %rbp, 16
	movq	%rbx, %rdi
	callq	output.80
	addq	$8, %rsp
	popq	%rbx
	popq	%rbp
	.cfi_def_cfa %rsp, 8
	retq
.LBB8_9:                                # %func_output.81
	.cfi_def_cfa %rbp, 16
	movq	%rbx, %rdi
	callq	output.81
	addq	$8, %rsp
	popq	%rbx
	popq	%rbp
	.cfi_def_cfa %rsp, 8
	retq
.LBB8_10:                               # %func_output.92
	.cfi_def_cfa %rbp, 16
	movq	%rbx, %rdi
	callq	output.92
	addq	$8, %rsp
	popq	%rbx
	popq	%rbp
	.cfi_def_cfa %rsp, 8
	retq
.LBB8_11:                               # %func_output.95
	.cfi_def_cfa %rbp, 16
	movq	%rbx, %rdi
	callq	output.95
	addq	$8, %rsp
	popq	%rbx
	popq	%rbp
	.cfi_def_cfa %rsp, 8
	retq
.LBB8_12:                               # %func_output.98
	.cfi_def_cfa %rbp, 16
	movq	%rbx, %rdi
	callq	output.98
	addq	$8, %rsp
	popq	%rbx
	popq	%rbp
	.cfi_def_cfa %rsp, 8
	retq
.LBB8_13:                               # %func_output.99
	.cfi_def_cfa %rbp, 16
	movq	%rbx, %rdi
	callq	output.99
	addq	$8, %rsp
	popq	%rbx
	popq	%rbp
	.cfi_def_cfa %rsp, 8
	retq
.LBB8_14:                               # %func_output.113
	.cfi_def_cfa %rbp, 16
	movq	%rbx, %rdi
	callq	output.113
	addq	$8, %rsp
	popq	%rbx
	popq	%rbp
	.cfi_def_cfa %rsp, 8
	retq
.LBB8_15:                               # %func_output.121
	.cfi_def_cfa %rbp, 16
	movq	%rbx, %rdi
	callq	output.121
	addq	$8, %rsp
	popq	%rbx
	popq	%rbp
	.cfi_def_cfa %rsp, 8
	retq
.LBB8_16:                               # %func_output.124
	.cfi_def_cfa %rbp, 16
	movq	%rbx, %rdi
	callq	output.124
	addq	$8, %rsp
	popq	%rbx
	popq	%rbp
	.cfi_def_cfa %rsp, 8
	retq
.LBB8_17:                               # %ctrl0
	.cfi_def_cfa %rbp, 16
	cmpl	$1, %eax
	je	.LBB8_2
# %bb.18:                               # %ctrl1
	cmpl	$2, %eax
	je	.LBB8_3
# %bb.19:                               # %ctrl2
	cmpl	$3, %eax
	je	.LBB8_4
# %bb.20:                               # %ctrl3
	cmpl	$4, %eax
	je	.LBB8_5
# %bb.21:                               # %ctrl4
	cmpl	$5, %eax
	je	.LBB8_6
# %bb.22:                               # %ctrl5
	cmpl	$6, %eax
	je	.LBB8_7
# %bb.23:                               # %ctrl6
	cmpl	$7, %eax
	je	.LBB8_8
# %bb.24:                               # %ctrl7
	cmpl	$8, %eax
	je	.LBB8_9
# %bb.25:                               # %ctrl8
	cmpl	$9, %eax
	je	.LBB8_10
# %bb.26:                               # %ctrl9
	cmpl	$10, %eax
	je	.LBB8_11
# %bb.27:                               # %ctrl10
	cmpl	$11, %eax
	je	.LBB8_12
# %bb.28:                               # %ctrl11
	cmpl	$12, %eax
	je	.LBB8_13
# %bb.29:                               # %ctrl12
	cmpl	$13, %eax
	je	.LBB8_14
# %bb.30:                               # %ctrl13
	cmpl	$14, %eax
	je	.LBB8_15
	jmp	.LBB8_16
.Lfunc_end8:
	.size	output, .Lfunc_end8-output
	.cfi_endproc
                                        # -- End function
	.globl	prratio                 # -- Begin function prratio
	.p2align	4, 0x90
	.type	prratio,@function
prratio:                                # @prratio
	.cfi_startproc
# %bb.0:                                # %rand_bb
	pushq	%rbp
	.cfi_def_cfa_offset 16
	.cfi_offset %rbp, -16
	movq	%rsp, %rbp
	.cfi_def_cfa_register %rbp
	pushq	%r15
	pushq	%r14
	pushq	%rbx
	pushq	%rax
	.cfi_offset %rbx, -40
	.cfi_offset %r14, -32
	.cfi_offset %r15, -24
	movq	%rdx, %r14
	movq	%rsi, %r15
	movq	%rdi, %rbx
	callq	get_urand
	cmpl	$0, %eax
	jne	.LBB9_17
# %bb.1:                                # %func_prratio.18
	movq	%rbx, %rdi
	movq	%r15, %rsi
	movq	%r14, %rdx
	callq	prratio.18
	addq	$8, %rsp
	popq	%rbx
	popq	%r14
	popq	%r15
	popq	%rbp
	.cfi_def_cfa %rsp, 8
	retq
.LBB9_2:                                # %func_prratio.25
	.cfi_def_cfa %rbp, 16
	movq	%rbx, %rdi
	movq	%r15, %rsi
	movq	%r14, %rdx
	callq	prratio.25
	addq	$8, %rsp
	popq	%rbx
	popq	%r14
	popq	%r15
	popq	%rbp
	.cfi_def_cfa %rsp, 8
	retq
.LBB9_3:                                # %func_prratio.29
	.cfi_def_cfa %rbp, 16
	movq	%rbx, %rdi
	movq	%r15, %rsi
	movq	%r14, %rdx
	callq	prratio.29
	addq	$8, %rsp
	popq	%rbx
	popq	%r14
	popq	%r15
	popq	%rbp
	.cfi_def_cfa %rsp, 8
	retq
.LBB9_4:                                # %func_prratio.30
	.cfi_def_cfa %rbp, 16
	movq	%rbx, %rdi
	movq	%r15, %rsi
	movq	%r14, %rdx
	callq	prratio.30
	addq	$8, %rsp
	popq	%rbx
	popq	%r14
	popq	%r15
	popq	%rbp
	.cfi_def_cfa %rsp, 8
	retq
.LBB9_5:                                # %func_prratio.41
	.cfi_def_cfa %rbp, 16
	movq	%rbx, %rdi
	movq	%r15, %rsi
	movq	%r14, %rdx
	callq	prratio.41
	addq	$8, %rsp
	popq	%rbx
	popq	%r14
	popq	%r15
	popq	%rbp
	.cfi_def_cfa %rsp, 8
	retq
.LBB9_6:                                # %func_prratio.45
	.cfi_def_cfa %rbp, 16
	movq	%rbx, %rdi
	movq	%r15, %rsi
	movq	%r14, %rdx
	callq	prratio.45
	addq	$8, %rsp
	popq	%rbx
	popq	%r14
	popq	%r15
	popq	%rbp
	.cfi_def_cfa %rsp, 8
	retq
.LBB9_7:                                # %func_prratio.51
	.cfi_def_cfa %rbp, 16
	movq	%rbx, %rdi
	movq	%r15, %rsi
	movq	%r14, %rdx
	callq	prratio.51
	addq	$8, %rsp
	popq	%rbx
	popq	%r14
	popq	%r15
	popq	%rbp
	.cfi_def_cfa %rsp, 8
	retq
.LBB9_8:                                # %func_prratio.54
	.cfi_def_cfa %rbp, 16
	movq	%rbx, %rdi
	movq	%r15, %rsi
	movq	%r14, %rdx
	callq	prratio.54
	addq	$8, %rsp
	popq	%rbx
	popq	%r14
	popq	%r15
	popq	%rbp
	.cfi_def_cfa %rsp, 8
	retq
.LBB9_9:                                # %func_prratio.60
	.cfi_def_cfa %rbp, 16
	movq	%rbx, %rdi
	movq	%r15, %rsi
	movq	%r14, %rdx
	callq	prratio.60
	addq	$8, %rsp
	popq	%rbx
	popq	%r14
	popq	%r15
	popq	%rbp
	.cfi_def_cfa %rsp, 8
	retq
.LBB9_10:                               # %func_prratio.76
	.cfi_def_cfa %rbp, 16
	movq	%rbx, %rdi
	movq	%r15, %rsi
	movq	%r14, %rdx
	callq	prratio.76
	addq	$8, %rsp
	popq	%rbx
	popq	%r14
	popq	%r15
	popq	%rbp
	.cfi_def_cfa %rsp, 8
	retq
.LBB9_11:                               # %func_prratio.78
	.cfi_def_cfa %rbp, 16
	movq	%rbx, %rdi
	movq	%r15, %rsi
	movq	%r14, %rdx
	callq	prratio.78
	addq	$8, %rsp
	popq	%rbx
	popq	%r14
	popq	%r15
	popq	%rbp
	.cfi_def_cfa %rsp, 8
	retq
.LBB9_12:                               # %func_prratio.85
	.cfi_def_cfa %rbp, 16
	movq	%rbx, %rdi
	movq	%r15, %rsi
	movq	%r14, %rdx
	callq	prratio.85
	addq	$8, %rsp
	popq	%rbx
	popq	%r14
	popq	%r15
	popq	%rbp
	.cfi_def_cfa %rsp, 8
	retq
.LBB9_13:                               # %func_prratio.88
	.cfi_def_cfa %rbp, 16
	movq	%rbx, %rdi
	movq	%r15, %rsi
	movq	%r14, %rdx
	callq	prratio.88
	addq	$8, %rsp
	popq	%rbx
	popq	%r14
	popq	%r15
	popq	%rbp
	.cfi_def_cfa %rsp, 8
	retq
.LBB9_14:                               # %func_prratio.97
	.cfi_def_cfa %rbp, 16
	movq	%rbx, %rdi
	movq	%r15, %rsi
	movq	%r14, %rdx
	callq	prratio.97
	addq	$8, %rsp
	popq	%rbx
	popq	%r14
	popq	%r15
	popq	%rbp
	.cfi_def_cfa %rsp, 8
	retq
.LBB9_15:                               # %func_prratio.100
	.cfi_def_cfa %rbp, 16
	movq	%rbx, %rdi
	movq	%r15, %rsi
	movq	%r14, %rdx
	callq	prratio.100
	addq	$8, %rsp
	popq	%rbx
	popq	%r14
	popq	%r15
	popq	%rbp
	.cfi_def_cfa %rsp, 8
	retq
.LBB9_16:                               # %func_prratio.102
	.cfi_def_cfa %rbp, 16
	movq	%rbx, %rdi
	movq	%r15, %rsi
	movq	%r14, %rdx
	callq	prratio.102
	addq	$8, %rsp
	popq	%rbx
	popq	%r14
	popq	%r15
	popq	%rbp
	.cfi_def_cfa %rsp, 8
	retq
.LBB9_17:                               # %ctrl0
	.cfi_def_cfa %rbp, 16
	cmpl	$1, %eax
	je	.LBB9_2
# %bb.18:                               # %ctrl1
	cmpl	$2, %eax
	je	.LBB9_3
# %bb.19:                               # %ctrl2
	cmpl	$3, %eax
	je	.LBB9_4
# %bb.20:                               # %ctrl3
	cmpl	$4, %eax
	je	.LBB9_5
# %bb.21:                               # %ctrl4
	cmpl	$5, %eax
	je	.LBB9_6
# %bb.22:                               # %ctrl5
	cmpl	$6, %eax
	je	.LBB9_7
# %bb.23:                               # %ctrl6
	cmpl	$7, %eax
	je	.LBB9_8
# %bb.24:                               # %ctrl7
	cmpl	$8, %eax
	je	.LBB9_9
# %bb.25:                               # %ctrl8
	cmpl	$9, %eax
	je	.LBB9_10
# %bb.26:                               # %ctrl9
	cmpl	$10, %eax
	je	.LBB9_11
# %bb.27:                               # %ctrl10
	cmpl	$11, %eax
	je	.LBB9_12
# %bb.28:                               # %ctrl11
	cmpl	$12, %eax
	je	.LBB9_13
# %bb.29:                               # %ctrl12
	cmpl	$13, %eax
	je	.LBB9_14
# %bb.30:                               # %ctrl13
	cmpl	$14, %eax
	je	.LBB9_15
	jmp	.LBB9_16
.Lfunc_end9:
	.size	prratio, .Lfunc_end9-prratio
	.cfi_endproc
                                        # -- End function
	.globl	decompress              # -- Begin function decompress
	.p2align	4, 0x90
	.type	decompress,@function
decompress:                             # @decompress
	.cfi_startproc
# %bb.0:                                # %rand_bb
	pushq	%rbp
	.cfi_def_cfa_offset 16
	.cfi_offset %rbp, -16
	movq	%rsp, %rbp
	.cfi_def_cfa_register %rbp
	callq	get_urand
	cmpl	$0, %eax
	jne	.LBB10_17
# %bb.1:                                # %func_decompress.1
	callq	decompress.1
	popq	%rbp
	.cfi_def_cfa %rsp, 8
	retq
.LBB10_2:                               # %func_decompress.10
	.cfi_def_cfa %rbp, 16
	callq	decompress.10
	popq	%rbp
	.cfi_def_cfa %rsp, 8
	retq
.LBB10_3:                               # %func_decompress.11
	.cfi_def_cfa %rbp, 16
	callq	decompress.11
	popq	%rbp
	.cfi_def_cfa %rsp, 8
	retq
.LBB10_4:                               # %func_decompress.14
	.cfi_def_cfa %rbp, 16
	callq	decompress.14
	popq	%rbp
	.cfi_def_cfa %rsp, 8
	retq
.LBB10_5:                               # %func_decompress.33
	.cfi_def_cfa %rbp, 16
	callq	decompress.33
	popq	%rbp
	.cfi_def_cfa %rsp, 8
	retq
.LBB10_6:                               # %func_decompress.40
	.cfi_def_cfa %rbp, 16
	callq	decompress.40
	popq	%rbp
	.cfi_def_cfa %rsp, 8
	retq
.LBB10_7:                               # %func_decompress.48
	.cfi_def_cfa %rbp, 16
	callq	decompress.48
	popq	%rbp
	.cfi_def_cfa %rsp, 8
	retq
.LBB10_8:                               # %func_decompress.84
	.cfi_def_cfa %rbp, 16
	callq	decompress.84
	popq	%rbp
	.cfi_def_cfa %rsp, 8
	retq
.LBB10_9:                               # %func_decompress.87
	.cfi_def_cfa %rbp, 16
	callq	decompress.87
	popq	%rbp
	.cfi_def_cfa %rsp, 8
	retq
.LBB10_10:                              # %func_decompress.101
	.cfi_def_cfa %rbp, 16
	callq	decompress.101
	popq	%rbp
	.cfi_def_cfa %rsp, 8
	retq
.LBB10_11:                              # %func_decompress.107
	.cfi_def_cfa %rbp, 16
	callq	decompress.107
	popq	%rbp
	.cfi_def_cfa %rsp, 8
	retq
.LBB10_12:                              # %func_decompress.114
	.cfi_def_cfa %rbp, 16
	callq	decompress.114
	popq	%rbp
	.cfi_def_cfa %rsp, 8
	retq
.LBB10_13:                              # %func_decompress.115
	.cfi_def_cfa %rbp, 16
	callq	decompress.115
	popq	%rbp
	.cfi_def_cfa %rsp, 8
	retq
.LBB10_14:                              # %func_decompress.126
	.cfi_def_cfa %rbp, 16
	callq	decompress.126
	popq	%rbp
	.cfi_def_cfa %rsp, 8
	retq
.LBB10_15:                              # %func_decompress.127
	.cfi_def_cfa %rbp, 16
	callq	decompress.127
	popq	%rbp
	.cfi_def_cfa %rsp, 8
	retq
.LBB10_16:                              # %func_decompress.128
	.cfi_def_cfa %rbp, 16
	callq	decompress.128
	popq	%rbp
	.cfi_def_cfa %rsp, 8
	retq
.LBB10_17:                              # %ctrl0
	.cfi_def_cfa %rbp, 16
	cmpl	$1, %eax
	je	.LBB10_2
# %bb.18:                               # %ctrl1
	cmpl	$2, %eax
	je	.LBB10_3
# %bb.19:                               # %ctrl2
	cmpl	$3, %eax
	je	.LBB10_4
# %bb.20:                               # %ctrl3
	cmpl	$4, %eax
	je	.LBB10_5
# %bb.21:                               # %ctrl4
	cmpl	$5, %eax
	je	.LBB10_6
# %bb.22:                               # %ctrl5
	cmpl	$6, %eax
	je	.LBB10_7
# %bb.23:                               # %ctrl6
	cmpl	$7, %eax
	je	.LBB10_8
# %bb.24:                               # %ctrl7
	cmpl	$8, %eax
	je	.LBB10_9
# %bb.25:                               # %ctrl8
	cmpl	$9, %eax
	je	.LBB10_10
# %bb.26:                               # %ctrl9
	cmpl	$10, %eax
	je	.LBB10_11
# %bb.27:                               # %ctrl10
	cmpl	$11, %eax
	je	.LBB10_12
# %bb.28:                               # %ctrl11
	cmpl	$12, %eax
	je	.LBB10_13
# %bb.29:                               # %ctrl12
	cmpl	$13, %eax
	je	.LBB10_14
# %bb.30:                               # %ctrl13
	cmpl	$14, %eax
	je	.LBB10_15
	jmp	.LBB10_16
.Lfunc_end10:
	.size	decompress, .Lfunc_end10-decompress
	.cfi_endproc
                                        # -- End function
	.globl	getcode                 # -- Begin function getcode
	.p2align	4, 0x90
	.type	getcode,@function
getcode:                                # @getcode
	.cfi_startproc
# %bb.0:                                # %rand_bb
	pushq	%rbp
	.cfi_def_cfa_offset 16
	.cfi_offset %rbp, -16
	movq	%rsp, %rbp
	.cfi_def_cfa_register %rbp
	callq	get_urand
	cmpl	$0, %eax
	jne	.LBB11_17
# %bb.1:                                # %func_getcode.8
	callq	getcode.8
	popq	%rbp
	.cfi_def_cfa %rsp, 8
	retq
.LBB11_2:                               # %func_getcode.20
	.cfi_def_cfa %rbp, 16
	callq	getcode.20
	popq	%rbp
	.cfi_def_cfa %rsp, 8
	retq
.LBB11_3:                               # %func_getcode.38
	.cfi_def_cfa %rbp, 16
	callq	getcode.38
	popq	%rbp
	.cfi_def_cfa %rsp, 8
	retq
.LBB11_4:                               # %func_getcode.42
	.cfi_def_cfa %rbp, 16
	callq	getcode.42
	popq	%rbp
	.cfi_def_cfa %rsp, 8
	retq
.LBB11_5:                               # %func_getcode.43
	.cfi_def_cfa %rbp, 16
	callq	getcode.43
	popq	%rbp
	.cfi_def_cfa %rsp, 8
	retq
.LBB11_6:                               # %func_getcode.50
	.cfi_def_cfa %rbp, 16
	callq	getcode.50
	popq	%rbp
	.cfi_def_cfa %rsp, 8
	retq
.LBB11_7:                               # %func_getcode.55
	.cfi_def_cfa %rbp, 16
	callq	getcode.55
	popq	%rbp
	.cfi_def_cfa %rsp, 8
	retq
.LBB11_8:                               # %func_getcode.56
	.cfi_def_cfa %rbp, 16
	callq	getcode.56
	popq	%rbp
	.cfi_def_cfa %rsp, 8
	retq
.LBB11_9:                               # %func_getcode.64
	.cfi_def_cfa %rbp, 16
	callq	getcode.64
	popq	%rbp
	.cfi_def_cfa %rsp, 8
	retq
.LBB11_10:                              # %func_getcode.90
	.cfi_def_cfa %rbp, 16
	callq	getcode.90
	popq	%rbp
	.cfi_def_cfa %rsp, 8
	retq
.LBB11_11:                              # %func_getcode.103
	.cfi_def_cfa %rbp, 16
	callq	getcode.103
	popq	%rbp
	.cfi_def_cfa %rsp, 8
	retq
.LBB11_12:                              # %func_getcode.111
	.cfi_def_cfa %rbp, 16
	callq	getcode.111
	popq	%rbp
	.cfi_def_cfa %rsp, 8
	retq
.LBB11_13:                              # %func_getcode.112
	.cfi_def_cfa %rbp, 16
	callq	getcode.112
	popq	%rbp
	.cfi_def_cfa %rsp, 8
	retq
.LBB11_14:                              # %func_getcode.117
	.cfi_def_cfa %rbp, 16
	callq	getcode.117
	popq	%rbp
	.cfi_def_cfa %rsp, 8
	retq
.LBB11_15:                              # %func_getcode.119
	.cfi_def_cfa %rbp, 16
	callq	getcode.119
	popq	%rbp
	.cfi_def_cfa %rsp, 8
	retq
.LBB11_16:                              # %func_getcode.123
	.cfi_def_cfa %rbp, 16
	callq	getcode.123
	popq	%rbp
	.cfi_def_cfa %rsp, 8
	retq
.LBB11_17:                              # %ctrl0
	.cfi_def_cfa %rbp, 16
	cmpl	$1, %eax
	je	.LBB11_2
# %bb.18:                               # %ctrl1
	cmpl	$2, %eax
	je	.LBB11_3
# %bb.19:                               # %ctrl2
	cmpl	$3, %eax
	je	.LBB11_4
# %bb.20:                               # %ctrl3
	cmpl	$4, %eax
	je	.LBB11_5
# %bb.21:                               # %ctrl4
	cmpl	$5, %eax
	je	.LBB11_6
# %bb.22:                               # %ctrl5
	cmpl	$6, %eax
	je	.LBB11_7
# %bb.23:                               # %ctrl6
	cmpl	$7, %eax
	je	.LBB11_8
# %bb.24:                               # %ctrl7
	cmpl	$8, %eax
	je	.LBB11_9
# %bb.25:                               # %ctrl8
	cmpl	$9, %eax
	je	.LBB11_10
# %bb.26:                               # %ctrl9
	cmpl	$10, %eax
	je	.LBB11_11
# %bb.27:                               # %ctrl10
	cmpl	$11, %eax
	je	.LBB11_12
# %bb.28:                               # %ctrl11
	cmpl	$12, %eax
	je	.LBB11_13
# %bb.29:                               # %ctrl12
	cmpl	$13, %eax
	je	.LBB11_14
# %bb.30:                               # %ctrl13
	cmpl	$14, %eax
	je	.LBB11_15
	jmp	.LBB11_16
.Lfunc_end11:
	.size	getcode, .Lfunc_end11-getcode
	.cfi_endproc
                                        # -- End function
	.globl	writeerr                # -- Begin function writeerr
	.p2align	4, 0x90
	.type	writeerr,@function
writeerr:                               # @writeerr
	.cfi_startproc
# %bb.0:                                # %entry
	pushq	%rbp
	.cfi_def_cfa_offset 16
	.cfi_offset %rbp, -16
	movq	%rsp, %rbp
	.cfi_def_cfa_register %rbp
	movabsq	$ofname, %rdi
	callq	perror
	movabsq	$ofname, %rdi
	callq	unlink
	movl	$1, %edi
	callq	exit
.Lfunc_end12:
	.size	writeerr, .Lfunc_end12-writeerr
	.cfi_endproc
                                        # -- End function
	.globl	foreground              # -- Begin function foreground
	.p2align	4, 0x90
	.type	foreground,@function
foreground:                             # @foreground
	.cfi_startproc
# %bb.0:                                # %entry
	pushq	%rbp
	.cfi_def_cfa_offset 16
	.cfi_offset %rbp, -16
	movq	%rsp, %rbp
	.cfi_def_cfa_register %rbp
	subq	$16, %rsp
	cmpq	$0, bgnd_flag
	je	.LBB13_2
# %bb.1:                                # %if.then
	movl	$0, -4(%rbp)
	jmp	.LBB13_5
.LBB13_2:                               # %if.else
	movl	$2, %edi
	callq	isatty
	cmpl	$0, %eax
	je	.LBB13_4
# %bb.3:                                # %if.then2
	movl	$1, -4(%rbp)
	jmp	.LBB13_5
.LBB13_4:                               # %if.else3
	movl	$0, -4(%rbp)
.LBB13_5:                               # %return
	movl	-4(%rbp), %eax
	addq	$16, %rsp
	popq	%rbp
	.cfi_def_cfa %rsp, 8
	retq
.Lfunc_end13:
	.size	foreground, .Lfunc_end13-foreground
	.cfi_endproc
                                        # -- End function
	.globl	cl_block                # -- Begin function cl_block
	.p2align	4, 0x90
	.type	cl_block,@function
cl_block:                               # @cl_block
	.cfi_startproc
# %bb.0:                                # %entry
	pushq	%rbp
	.cfi_def_cfa_offset 16
	.cfi_offset %rbp, -16
	movq	%rsp, %rbp
	.cfi_def_cfa_register %rbp
	subq	$16, %rsp
	movq	in_count, %rax
	addq	$10000, %rax            # imm = 0x2710
	movq	%rax, checkpoint
	cmpq	$8388607, in_count      # imm = 0x7FFFFF
	jle	.LBB14_5
# %bb.1:                                # %if.then
	movq	bytes_out, %rax
	sarq	$8, %rax
	movq	%rax, -8(%rbp)
	cmpq	$0, -8(%rbp)
	jne	.LBB14_3
# %bb.2:                                # %if.then2
	movq	$2147483647, -8(%rbp)   # imm = 0x7FFFFFFF
	jmp	.LBB14_4
.LBB14_3:                               # %if.else
	movq	in_count, %rax
	cqto
	idivq	-8(%rbp)
	movq	%rax, -8(%rbp)
.LBB14_4:                               # %if.end
	jmp	.LBB14_6
.LBB14_5:                               # %if.else3
	movq	in_count, %rax
	shlq	$8, %rax
	cqto
	idivq	bytes_out
	movq	%rax, -8(%rbp)
.LBB14_6:                               # %if.end5
	movq	-8(%rbp), %rax
	cmpq	ratio, %rax
	jle	.LBB14_8
# %bb.7:                                # %if.then7
	movq	-8(%rbp), %rax
	movq	%rax, ratio
	jmp	.LBB14_9
.LBB14_8:                               # %if.else8
	movq	$0, ratio
	movq	hsize, %rdi
	callq	cl_hash
	movq	$257, free_ent          # imm = 0x101
	movl	$1, clear_flg
	movl	$256, %edi              # imm = 0x100
	callq	output
.LBB14_9:                               # %if.end9
	addq	$16, %rsp
	popq	%rbp
	.cfi_def_cfa %rsp, 8
	retq
.Lfunc_end14:
	.size	cl_block, .Lfunc_end14-cl_block
	.cfi_endproc
                                        # -- End function
	.globl	version                 # -- Begin function version
	.p2align	4, 0x90
	.type	version,@function
version:                                # @version
	.cfi_startproc
# %bb.0:                                # %entry
	pushq	%rbp
	.cfi_def_cfa_offset 16
	.cfi_offset %rbp, -16
	movq	%rsp, %rbp
	.cfi_def_cfa_register %rbp
	movq	stderr, %rdi
	movabsq	$.L.str.26, %rsi
	movabsq	$rcs_ident, %rdx
	movb	$0, %al
	callq	fprintf
	movq	stderr, %rdi
	movabsq	$.L.str.27, %rsi
	movb	$0, %al
	callq	fprintf
	movq	stderr, %rdi
	movabsq	$.L.str.28, %rsi
	movl	$16, %edx
	movb	$0, %al
	callq	fprintf
	popq	%rbp
	.cfi_def_cfa %rsp, 8
	retq
.Lfunc_end15:
	.size	version, .Lfunc_end15-version
	.cfi_endproc
                                        # -- End function
	.globl	decompress.1            # -- Begin function decompress.1
	.p2align	4, 0x90
	.type	decompress.1,@function
decompress.1:                           # @decompress.1
	.cfi_startproc
# %bb.0:                                # %entry
	pushq	%rbp
	.cfi_def_cfa_offset 16
	.cfi_offset %rbp, -16
	movq	%rsp, %rbp
	.cfi_def_cfa_register %rbp
	subq	$48, %rsp
	movl	$1369993395, -36(%rbp)  # imm = 0x51A870B3
	movl	$9, n_bits
	movq	$511, maxcode           # imm = 0x1FF
	movq	$255, -8(%rbp)
.LBB16_1:                               # %for.cond
                                        # =>This Inner Loop Header: Depth=1
	cmpq	$0, -8(%rbp)
	jl	.LBB16_4
# %bb.2:                                # %for.body
                                        #   in Loop: Header=BB16_1 Depth=1
	movq	-8(%rbp), %rax
	movw	$0, codetab(,%rax,2)
	movq	-8(%rbp), %rax
	movq	-8(%rbp), %rcx
	movb	%al, htab(,%rcx)
# %bb.3:                                # %for.inc
                                        #   in Loop: Header=BB16_1 Depth=1
	movq	-8(%rbp), %rax
	addq	$-1, %rax
	movq	%rax, -8(%rbp)
	jmp	.LBB16_1
.LBB16_4:                               # %for.end
	movl	block_compress, %eax
	cmpl	$0, %eax
	movl	$257, %eax              # imm = 0x101
	movl	$256, %ecx              # imm = 0x100
	cmovnel	%eax, %ecx
	movslq	%ecx, %rax
	movq	%rax, free_ent
	callq	getcode
	movq	%rax, -32(%rbp)
	movl	%eax, -20(%rbp)
	cmpq	$-1, -32(%rbp)
	jne	.LBB16_6
# %bb.5:                                # %if.then
	jmp	.LBB16_33
.LBB16_6:                               # %if.end
	movl	-20(%rbp), %eax
	movsbl	%al, %edi
	callq	putchar
	movq	stdout, %rdi
	callq	ferror
	cmpl	$0, %eax
	je	.LBB16_8
# %bb.7:                                # %if.then11
	callq	writeerr
.LBB16_8:                               # %if.end12
	movabsq	$htab, %rax
	addq	$65536, %rax            # imm = 0x10000
	movq	%rax, -16(%rbp)
.LBB16_9:                               # %while.cond
                                        # =>This Loop Header: Depth=1
                                        #     Child Loop BB16_13 Depth 2
                                        #     Child Loop BB16_22 Depth 2
                                        #     Child Loop BB16_25 Depth 2
	callq	getcode
	movq	%rax, -8(%rbp)
	cmpq	$-1, %rax
	jle	.LBB16_30
# %bb.10:                               # %while.body
                                        #   in Loop: Header=BB16_9 Depth=1
	cmpq	$256, -8(%rbp)          # imm = 0x100
	jne	.LBB16_19
# %bb.11:                               # %land.lhs.true
                                        #   in Loop: Header=BB16_9 Depth=1
	cmpl	$0, block_compress
	je	.LBB16_19
# %bb.12:                               # %if.then19
                                        #   in Loop: Header=BB16_9 Depth=1
	movq	$255, -8(%rbp)
.LBB16_13:                              # %for.cond20
                                        #   Parent Loop BB16_9 Depth=1
                                        # =>  This Inner Loop Header: Depth=2
	cmpq	$0, -8(%rbp)
	jl	.LBB16_16
# %bb.14:                               # %for.body23
                                        #   in Loop: Header=BB16_13 Depth=2
	movq	-8(%rbp), %rax
	movw	$0, codetab(,%rax,2)
# %bb.15:                               # %for.inc25
                                        #   in Loop: Header=BB16_13 Depth=2
	movq	-8(%rbp), %rax
	addq	$-1, %rax
	movq	%rax, -8(%rbp)
	jmp	.LBB16_13
.LBB16_16:                              # %for.end27
                                        #   in Loop: Header=BB16_9 Depth=1
	movl	$1, clear_flg
	movq	$256, free_ent          # imm = 0x100
	callq	getcode
	movq	%rax, -8(%rbp)
	cmpq	$-1, %rax
	jne	.LBB16_18
# %bb.17:                               # %if.then31
	jmp	.LBB16_31
.LBB16_18:                              # %if.end32
                                        #   in Loop: Header=BB16_9 Depth=1
	jmp	.LBB16_19
.LBB16_19:                              # %if.end33
                                        #   in Loop: Header=BB16_9 Depth=1
	movq	-8(%rbp), %rax
	movq	%rax, -48(%rbp)
	movq	-8(%rbp), %rax
	cmpq	free_ent, %rax
	jl	.LBB16_21
# %bb.20:                               # %if.then36
                                        #   in Loop: Header=BB16_9 Depth=1
	movl	-20(%rbp), %eax
	movq	-16(%rbp), %rcx
	movq	%rcx, %rdx
	addq	$1, %rdx
	movq	%rdx, -16(%rbp)
	movb	%al, (%rcx)
	movq	-32(%rbp), %rax
	movq	%rax, -8(%rbp)
.LBB16_21:                              # %if.end38
                                        #   in Loop: Header=BB16_9 Depth=1
	jmp	.LBB16_22
.LBB16_22:                              # %while.cond39
                                        #   Parent Loop BB16_9 Depth=1
                                        # =>  This Inner Loop Header: Depth=2
	cmpq	$256, -8(%rbp)          # imm = 0x100
	jl	.LBB16_24
# %bb.23:                               # %while.body42
                                        #   in Loop: Header=BB16_22 Depth=2
	movq	-8(%rbp), %rax
	movb	htab(,%rax), %al
	movq	-16(%rbp), %rcx
	movq	%rcx, %rdx
	addq	$1, %rdx
	movq	%rdx, -16(%rbp)
	movb	%al, (%rcx)
	movq	-8(%rbp), %rax
	movzwl	codetab(,%rax,2), %eax
	movq	%rax, -8(%rbp)
	jmp	.LBB16_22
.LBB16_24:                              # %while.end
                                        #   in Loop: Header=BB16_9 Depth=1
	movq	-8(%rbp), %rax
	movzbl	htab(,%rax), %eax
	movl	%eax, -20(%rbp)
	movq	-16(%rbp), %rcx
	movq	%rcx, %rdx
	addq	$1, %rdx
	movq	%rdx, -16(%rbp)
	movb	%al, (%rcx)
.LBB16_25:                              # %do.body
                                        #   Parent Loop BB16_9 Depth=1
                                        # =>  This Inner Loop Header: Depth=2
	movq	-16(%rbp), %rax
	movq	%rax, %rcx
	addq	$-1, %rcx
	movq	%rcx, -16(%rbp)
	movzbl	-1(%rax), %edi
	callq	putchar
# %bb.26:                               # %do.cond
                                        #   in Loop: Header=BB16_25 Depth=2
	movabsq	$htab, %rax
	addq	$65536, %rax            # imm = 0x10000
	cmpq	%rax, -16(%rbp)
	ja	.LBB16_25
# %bb.27:                               # %do.end
                                        #   in Loop: Header=BB16_9 Depth=1
	movq	free_ent, %rax
	movq	%rax, -8(%rbp)
	cmpq	maxmaxcode, %rax
	jge	.LBB16_29
# %bb.28:                               # %if.then58
                                        #   in Loop: Header=BB16_9 Depth=1
	movq	-32(%rbp), %rax
	movq	-8(%rbp), %rcx
	movw	%ax, codetab(,%rcx,2)
	movl	-20(%rbp), %eax
	movq	-8(%rbp), %rcx
	movb	%al, htab(,%rcx)
	movq	-8(%rbp), %rax
	addq	$1, %rax
	movq	%rax, free_ent
.LBB16_29:                              # %if.end63
                                        #   in Loop: Header=BB16_9 Depth=1
	movq	-48(%rbp), %rax
	movq	%rax, -32(%rbp)
	jmp	.LBB16_9
.LBB16_30:                              # %while.end64.loopexit
	jmp	.LBB16_31
.LBB16_31:                              # %while.end64
	movq	stdout, %rdi
	callq	fflush
	movq	stdout, %rdi
	callq	ferror
	cmpl	$0, %eax
	je	.LBB16_33
# %bb.32:                               # %if.then68
	callq	writeerr
.LBB16_33:                              # %if.end69
	cmpl	$1369993395, -36(%rbp)  # imm = 0x51A870B3
	jne	.LBB16_35
.LBB16_34:
	addq	$48, %rsp
	popq	%rbp
	.cfi_def_cfa %rsp, 8
	retq
.LBB16_35:                              # %func_exit
	.cfi_def_cfa %rbp, 16
	callq	detect_breach
	jmp	.LBB16_34
.Lfunc_end16:
	.size	decompress.1, .Lfunc_end16-decompress.1
	.cfi_endproc
                                        # -- End function
	.globl	compress.2              # -- Begin function compress.2
	.p2align	4, 0x90
	.type	compress.2,@function
compress.2:                             # @compress.2
	.cfi_startproc
# %bb.0:                                # %entry
	pushq	%rbp
	.cfi_def_cfa_offset 16
	.cfi_offset %rbp, -16
	movq	%rsp, %rbp
	.cfi_def_cfa_register %rbp
	subq	$64, %rsp
	movl	$1968582975, -56(%rbp)  # imm = 0x7556313F
	movq	$0, -8(%rbp)
	cmpl	$0, nomagic
	jne	.LBB17_4
# %bb.1:                                # %if.then
	movzbl	magic_header, %edi
	callq	putchar
	movzbl	magic_header+1, %edi
	callq	putchar
	movl	maxbits, %eax
	orl	block_compress, %eax
	movsbl	%al, %edi
	callq	putchar
	movq	stdout, %rdi
	callq	ferror
	cmpl	$0, %eax
	je	.LBB17_3
# %bb.2:                                # %if.then7
	callq	writeerr
.LBB17_3:                               # %if.end
	jmp	.LBB17_4
.LBB17_4:                               # %if.end8
	movl	$0, offset
	movq	$3, bytes_out
	movq	$0, out_count
	movl	$0, clear_flg
	movq	$0, ratio
	movq	$1, in_count
	movq	$10000, checkpoint      # imm = 0x2710
	movl	$9, n_bits
	movq	$511, maxcode           # imm = 0x1FF
	movl	block_compress, %eax
	cmpl	$0, %eax
	movl	$257, %eax              # imm = 0x101
	movl	$256, %ecx              # imm = 0x100
	cmovnel	%eax, %ecx
	movslq	%ecx, %rax
	movq	%rax, free_ent
	callq	getchar
	cltq
	movq	%rax, -24(%rbp)
	movl	$0, -12(%rbp)
	movq	hsize, %rax
	movq	%rax, -32(%rbp)
.LBB17_5:                               # %for.cond
                                        # =>This Inner Loop Header: Depth=1
	cmpq	$65536, -32(%rbp)       # imm = 0x10000
	jge	.LBB17_8
# %bb.6:                                # %for.body
                                        #   in Loop: Header=BB17_5 Depth=1
	movl	-12(%rbp), %eax
	addl	$1, %eax
	movl	%eax, -12(%rbp)
# %bb.7:                                # %for.inc
                                        #   in Loop: Header=BB17_5 Depth=1
	movq	-32(%rbp), %rax
	shlq	$1, %rax
	movq	%rax, -32(%rbp)
	jmp	.LBB17_5
.LBB17_8:                               # %for.end
	movl	$8, %eax
	subl	-12(%rbp), %eax
	movl	%eax, -12(%rbp)
	movq	hsize, %rax
	movq	%rax, -48(%rbp)
	movq	-48(%rbp), %rdi
	callq	cl_hash
.LBB17_9:                               # %while.cond
                                        # =>This Inner Loop Header: Depth=1
	callq	getchar
	movl	%eax, -36(%rbp)
	cmpl	$-1, %eax
	je	.LBB17_46
# %bb.10:                               # %while.body
                                        #   in Loop: Header=BB17_9 Depth=1
	movq	in_count, %rax
	addq	$1, %rax
	movq	%rax, in_count
	movslq	-36(%rbp), %rax
	movl	maxbits, %ecx
                                        # kill: def $cl killed $rcx
	shlq	%cl, %rax
	addq	-24(%rbp), %rax
	movq	%rax, -32(%rbp)
	movl	-36(%rbp), %eax
	movl	-12(%rbp), %ecx
                                        # kill: def $cl killed $ecx
	shll	%cl, %eax
	cltq
	xorq	-24(%rbp), %rax
	movq	%rax, -8(%rbp)
	movq	-8(%rbp), %rax
	movq	htab(,%rax,8), %rax
	cmpq	-32(%rbp), %rax
	jne	.LBB17_13
# %bb.11:                               # %if.then24
                                        #   in Loop: Header=BB17_9 Depth=1
	movq	-8(%rbp), %rax
	movzwl	codetab(,%rax,2), %eax
	movq	%rax, -24(%rbp)
.LBB17_12:                              # %while.cond.backedge
                                        #   in Loop: Header=BB17_9 Depth=1
	jmp	.LBB17_9
.LBB17_13:                              # %if.else
                                        #   in Loop: Header=BB17_9 Depth=1
	movq	-8(%rbp), %rax
	cmpq	$0, htab(,%rax,8)
	jge	.LBB17_15
# %bb.14:                               # %if.then30
                                        #   in Loop: Header=BB17_9 Depth=1
	jmp	.LBB17_39
.LBB17_15:                              # %if.end31
                                        #   in Loop: Header=BB17_9 Depth=1
	jmp	.LBB17_16
.LBB17_16:                              # %if.end32
                                        #   in Loop: Header=BB17_9 Depth=1
	movq	-48(%rbp), %rax
	subq	-8(%rbp), %rax
	movl	%eax, -16(%rbp)
	cmpq	$0, -8(%rbp)
	jne	.LBB17_18
# %bb.17:                               # %if.then37
                                        #   in Loop: Header=BB17_9 Depth=1
	movl	$1, -16(%rbp)
.LBB17_18:                              # %if.end38
                                        #   in Loop: Header=BB17_9 Depth=1
	movslq	-16(%rbp), %rax
	movq	-8(%rbp), %rcx
	subq	%rax, %rcx
	movq	%rcx, -8(%rbp)
	cmpq	$0, %rcx
	jge	.LBB17_20
# %bb.19:                               # %if.then43
                                        #   in Loop: Header=BB17_9 Depth=1
	movq	-48(%rbp), %rax
	addq	-8(%rbp), %rax
	movq	%rax, -8(%rbp)
.LBB17_20:                              # %if.end45
                                        #   in Loop: Header=BB17_9 Depth=1
	movq	-8(%rbp), %rax
	movq	htab(,%rax,8), %rax
	cmpq	-32(%rbp), %rax
	jne	.LBB17_22
# %bb.21:                               # %if.then49
                                        #   in Loop: Header=BB17_9 Depth=1
	movq	-8(%rbp), %rax
	movzwl	codetab(,%rax,2), %eax
	movq	%rax, -24(%rbp)
	jmp	.LBB17_12
.LBB17_22:                              # %if.end52
                                        #   in Loop: Header=BB17_9 Depth=1
	movq	-8(%rbp), %rax
	cmpq	$0, htab(,%rax,8)
	jg	.LBB17_24
# %bb.23:                               # %if.then56
                                        #   in Loop: Header=BB17_9 Depth=1
	jmp	.LBB17_39
.LBB17_24:                              # %if.end57
                                        #   in Loop: Header=BB17_9 Depth=1
	movslq	-16(%rbp), %rax
	movq	-8(%rbp), %rcx
	subq	%rax, %rcx
	movq	%rcx, -8(%rbp)
	cmpq	$0, %rcx
	jge	.LBB17_26
# %bb.25:                               # %if.then62
                                        #   in Loop: Header=BB17_9 Depth=1
	movq	-48(%rbp), %rax
	addq	-8(%rbp), %rax
	movq	%rax, -8(%rbp)
.LBB17_26:                              # %if.end64
                                        #   in Loop: Header=BB17_9 Depth=1
	movq	-8(%rbp), %rax
	movq	htab(,%rax,8), %rax
	cmpq	-32(%rbp), %rax
	jne	.LBB17_28
# %bb.27:                               # %if.then68
                                        #   in Loop: Header=BB17_9 Depth=1
	movq	-8(%rbp), %rax
	movzwl	codetab(,%rax,2), %eax
	movq	%rax, -24(%rbp)
	jmp	.LBB17_12
.LBB17_28:                              # %if.end71
                                        #   in Loop: Header=BB17_9 Depth=1
	movq	-8(%rbp), %rax
	cmpq	$0, htab(,%rax,8)
	jg	.LBB17_30
# %bb.29:                               # %if.then75
                                        #   in Loop: Header=BB17_9 Depth=1
	jmp	.LBB17_39
.LBB17_30:                              # %if.end76
                                        #   in Loop: Header=BB17_9 Depth=1
	movslq	-16(%rbp), %rax
	movq	-8(%rbp), %rcx
	subq	%rax, %rcx
	movq	%rcx, -8(%rbp)
	cmpq	$0, %rcx
	jge	.LBB17_32
# %bb.31:                               # %if.then81
                                        #   in Loop: Header=BB17_9 Depth=1
	movq	-48(%rbp), %rax
	addq	-8(%rbp), %rax
	movq	%rax, -8(%rbp)
.LBB17_32:                              # %if.end83
                                        #   in Loop: Header=BB17_9 Depth=1
	movq	-8(%rbp), %rax
	movq	htab(,%rax,8), %rax
	cmpq	-32(%rbp), %rax
	jne	.LBB17_34
# %bb.33:                               # %if.then87
                                        #   in Loop: Header=BB17_9 Depth=1
	movq	-8(%rbp), %rax
	movzwl	codetab(,%rax,2), %eax
	movq	%rax, -24(%rbp)
	jmp	.LBB17_12
.LBB17_34:                              # %if.end90
                                        #   in Loop: Header=BB17_9 Depth=1
	movq	-8(%rbp), %rax
	cmpq	$0, htab(,%rax,8)
	jle	.LBB17_38
# %bb.35:                               # %if.then94
                                        #   in Loop: Header=BB17_9 Depth=1
	movl	$0, -52(%rbp)
	movq	-32(%rbp), %rsi
	movl	-16(%rbp), %edx
	movq	-48(%rbp), %rcx
	leaq	-8(%rbp), %rdi
                                        # kill: def $ecx killed $ecx killed $rcx
	leaq	-24(%rbp), %r8
	callq	scott_hack
	movl	%eax, -52(%rbp)
	cmpl	$0, -52(%rbp)
	je	.LBB17_37
# %bb.36:                               # %if.then99
                                        #   in Loop: Header=BB17_9 Depth=1
	jmp	.LBB17_12
.LBB17_37:                              # %if.end100
                                        #   in Loop: Header=BB17_9 Depth=1
	jmp	.LBB17_38
.LBB17_38:                              # %if.end101
                                        #   in Loop: Header=BB17_9 Depth=1
	jmp	.LBB17_39
.LBB17_39:                              # %nomatch
                                        #   in Loop: Header=BB17_9 Depth=1
	movq	-24(%rbp), %rdi
	callq	output
	movq	out_count, %rax
	addq	$1, %rax
	movq	%rax, out_count
	movslq	-36(%rbp), %rax
	movq	%rax, -24(%rbp)
	movq	free_ent, %rax
	cmpq	maxmaxcode, %rax
	jge	.LBB17_41
# %bb.40:                               # %if.then106
                                        #   in Loop: Header=BB17_9 Depth=1
	movq	free_ent, %rax
	movq	%rax, %rcx
	addq	$1, %rcx
	movq	%rcx, free_ent
	movq	-8(%rbp), %rcx
	movw	%ax, codetab(,%rcx,2)
	movq	-32(%rbp), %rax
	movq	-8(%rbp), %rcx
	movq	%rax, htab(,%rcx,8)
	jmp	.LBB17_45
.LBB17_41:                              # %if.else111
                                        #   in Loop: Header=BB17_9 Depth=1
	movq	in_count, %rax
	cmpq	checkpoint, %rax
	jl	.LBB17_44
# %bb.42:                               # %land.lhs.true
                                        #   in Loop: Header=BB17_9 Depth=1
	cmpl	$0, block_compress
	je	.LBB17_44
# %bb.43:                               # %if.then115
                                        #   in Loop: Header=BB17_9 Depth=1
	callq	cl_block
.LBB17_44:                              # %if.end116
                                        #   in Loop: Header=BB17_9 Depth=1
	jmp	.LBB17_45
.LBB17_45:                              # %if.end117
                                        #   in Loop: Header=BB17_9 Depth=1
	jmp	.LBB17_12
.LBB17_46:                              # %while.end
	movq	-24(%rbp), %rdi
	callq	output
	movq	out_count, %rax
	addq	$1, %rax
	movq	%rax, out_count
	movq	$-1, %rdi
	callq	output
	cmpl	$0, zcat_flg
	jne	.LBB17_49
# %bb.47:                               # %land.lhs.true121
	cmpl	$0, quiet
	jne	.LBB17_49
# %bb.48:                               # %if.then123
	movq	stderr, %rdi
	movabsq	$.L.str.19, %rsi
	movb	$0, %al
	callq	fprintf
	movq	stderr, %rdi
	movq	in_count, %rsi
	subq	bytes_out, %rsi
	movq	in_count, %rdx
	callq	prratio
.LBB17_49:                              # %if.end126
	movq	bytes_out, %rax
	cmpq	in_count, %rax
	jle	.LBB17_51
# %bb.50:                               # %if.then129
	movl	$2, exit_stat
.LBB17_51:                              # %if.end130
	cmpl	$1968582975, -56(%rbp)  # imm = 0x7556313F
	jne	.LBB17_53
.LBB17_52:
	addq	$64, %rsp
	popq	%rbp
	.cfi_def_cfa %rsp, 8
	retq
.LBB17_53:                              # %func_exit
	.cfi_def_cfa %rbp, 16
	callq	detect_breach
	jmp	.LBB17_52
.Lfunc_end17:
	.size	compress.2, .Lfunc_end17-compress.2
	.cfi_endproc
                                        # -- End function
	.globl	copystat.3              # -- Begin function copystat.3
	.p2align	4, 0x90
	.type	copystat.3,@function
copystat.3:                             # @copystat.3
	.cfi_startproc
# %bb.0:                                # %entry
	pushq	%rbp
	.cfi_def_cfa_offset 16
	.cfi_offset %rbp, -16
	movq	%rsp, %rbp
	.cfi_def_cfa_register %rbp
	subq	$192, %rsp
	movl	$1991502832, -24(%rbp)  # imm = 0x76B3EBF0
	movq	%rdi, -16(%rbp)
	movq	%rsi, -8(%rbp)
	movq	stdout, %rdi
	callq	fclose
	movq	-16(%rbp), %rdi
	leaq	-184(%rbp), %rsi
	callq	stat
	cmpl	$0, %eax
	je	.LBB18_2
# %bb.1:                                # %if.then
	movq	-16(%rbp), %rdi
	callq	perror
	jmp	.LBB18_26
.LBB18_2:                               # %if.end
	movl	-160(%rbp), %eax
	andl	$61440, %eax            # imm = 0xF000
	cmpl	$32768, %eax            # imm = 0x8000
	je	.LBB18_6
# %bb.3:                                # %if.then2
	cmpl	$0, quiet
	je	.LBB18_5
# %bb.4:                                # %if.then4
	movq	stderr, %rdi
	movq	-16(%rbp), %rdx
	movabsq	$.L.str.16, %rsi
	movb	$0, %al
	callq	fprintf
.LBB18_5:                               # %if.end6
	movq	stderr, %rdi
	movabsq	$.L.str.20, %rsi
	movb	$0, %al
	callq	fprintf
	movl	$1, exit_stat
	jmp	.LBB18_24
.LBB18_6:                               # %if.else
	cmpq	$1, -168(%rbp)
	jbe	.LBB18_10
# %bb.7:                                # %if.then9
	cmpl	$0, quiet
	je	.LBB18_9
# %bb.8:                                # %if.then11
	movq	stderr, %rdi
	movq	-16(%rbp), %rdx
	movabsq	$.L.str.16, %rsi
	movb	$0, %al
	callq	fprintf
.LBB18_9:                               # %if.end13
	movq	stderr, %rdi
	movq	-168(%rbp), %rdx
	subq	$1, %rdx
	movabsq	$.L.str.21, %rsi
	movb	$0, %al
	callq	fprintf
	movl	$1, exit_stat
	jmp	.LBB18_23
.LBB18_10:                              # %if.else16
	cmpl	$2, exit_stat
	jne	.LBB18_15
# %bb.11:                               # %land.lhs.true
	cmpl	$0, force
	jne	.LBB18_15
# %bb.12:                               # %if.then19
	cmpl	$0, quiet
	jne	.LBB18_14
# %bb.13:                               # %if.then21
	movq	stderr, %rdi
	movabsq	$.L.str.22, %rsi
	movb	$0, %al
	callq	fprintf
.LBB18_14:                              # %if.end23
	jmp	.LBB18_22
.LBB18_15:                              # %if.else24
	movl	$0, exit_stat
	movl	-160(%rbp), %eax
	andl	$4095, %eax             # imm = 0xFFF
	movl	%eax, -20(%rbp)
	movq	-8(%rbp), %rdi
	movl	-20(%rbp), %esi
	callq	chmod
	cmpl	$0, %eax
	je	.LBB18_17
# %bb.16:                               # %if.then29
	movq	-8(%rbp), %rdi
	callq	perror
.LBB18_17:                              # %if.end30
	movq	-8(%rbp), %rdi
	movl	-156(%rbp), %esi
	movl	-152(%rbp), %edx
	callq	chown
	movq	-112(%rbp), %rax
	movq	%rax, -40(%rbp)
	movq	-96(%rbp), %rax
	movq	%rax, -32(%rbp)
	movq	-8(%rbp), %rdi
	leaq	-40(%rbp), %rsi
	callq	utime
	movq	-16(%rbp), %rdi
	callq	unlink
	cmpl	$0, %eax
	je	.LBB18_19
# %bb.18:                               # %if.then36
	movq	-16(%rbp), %rdi
	callq	perror
.LBB18_19:                              # %if.end37
	cmpl	$0, quiet
	jne	.LBB18_21
# %bb.20:                               # %if.then39
	movq	stderr, %rdi
	movq	-8(%rbp), %rdx
	movabsq	$.L.str.23, %rsi
	movb	$0, %al
	callq	fprintf
.LBB18_21:                              # %if.end41
	jmp	.LBB18_26
.LBB18_22:                              # %if.end42
	jmp	.LBB18_23
.LBB18_23:                              # %if.end43
	jmp	.LBB18_24
.LBB18_24:                              # %if.end44
	movq	-8(%rbp), %rdi
	callq	unlink
	cmpl	$0, %eax
	je	.LBB18_26
# %bb.25:                               # %if.then47
	movq	-8(%rbp), %rdi
	callq	perror
.LBB18_26:                              # %if.end48
	cmpl	$1991502832, -24(%rbp)  # imm = 0x76B3EBF0
	jne	.LBB18_28
.LBB18_27:
	addq	$192, %rsp
	popq	%rbp
	.cfi_def_cfa %rsp, 8
	retq
.LBB18_28:                              # %func_exit
	.cfi_def_cfa %rbp, 16
	callq	detect_breach
	jmp	.LBB18_27
.Lfunc_end18:
	.size	copystat.3, .Lfunc_end18-copystat.3
	.cfi_endproc
                                        # -- End function
	.globl	copystat.4              # -- Begin function copystat.4
	.p2align	4, 0x90
	.type	copystat.4,@function
copystat.4:                             # @copystat.4
	.cfi_startproc
# %bb.0:                                # %entry
	pushq	%rbp
	.cfi_def_cfa_offset 16
	.cfi_offset %rbp, -16
	movq	%rsp, %rbp
	.cfi_def_cfa_register %rbp
	subq	$192, %rsp
	movl	$302493497, -24(%rbp)   # imm = 0x1207AF39
	movq	%rdi, -16(%rbp)
	movq	%rsi, -8(%rbp)
	movq	stdout, %rdi
	callq	fclose
	movq	-16(%rbp), %rdi
	leaq	-184(%rbp), %rsi
	callq	stat
	cmpl	$0, %eax
	je	.LBB19_2
# %bb.1:                                # %if.then
	movq	-16(%rbp), %rdi
	callq	perror
	jmp	.LBB19_26
.LBB19_2:                               # %if.end
	movl	-160(%rbp), %eax
	andl	$61440, %eax            # imm = 0xF000
	cmpl	$32768, %eax            # imm = 0x8000
	je	.LBB19_6
# %bb.3:                                # %if.then2
	cmpl	$0, quiet
	je	.LBB19_5
# %bb.4:                                # %if.then4
	movq	stderr, %rdi
	movq	-16(%rbp), %rdx
	movabsq	$.L.str.16, %rsi
	movb	$0, %al
	callq	fprintf
.LBB19_5:                               # %if.end6
	movq	stderr, %rdi
	movabsq	$.L.str.20, %rsi
	movb	$0, %al
	callq	fprintf
	movl	$1, exit_stat
	jmp	.LBB19_24
.LBB19_6:                               # %if.else
	cmpq	$1, -168(%rbp)
	jbe	.LBB19_10
# %bb.7:                                # %if.then9
	cmpl	$0, quiet
	je	.LBB19_9
# %bb.8:                                # %if.then11
	movq	stderr, %rdi
	movq	-16(%rbp), %rdx
	movabsq	$.L.str.16, %rsi
	movb	$0, %al
	callq	fprintf
.LBB19_9:                               # %if.end13
	movq	stderr, %rdi
	movq	-168(%rbp), %rdx
	subq	$1, %rdx
	movabsq	$.L.str.21, %rsi
	movb	$0, %al
	callq	fprintf
	movl	$1, exit_stat
	jmp	.LBB19_23
.LBB19_10:                              # %if.else16
	cmpl	$2, exit_stat
	jne	.LBB19_15
# %bb.11:                               # %land.lhs.true
	cmpl	$0, force
	jne	.LBB19_15
# %bb.12:                               # %if.then19
	cmpl	$0, quiet
	jne	.LBB19_14
# %bb.13:                               # %if.then21
	movq	stderr, %rdi
	movabsq	$.L.str.22, %rsi
	movb	$0, %al
	callq	fprintf
.LBB19_14:                              # %if.end23
	jmp	.LBB19_22
.LBB19_15:                              # %if.else24
	movl	$0, exit_stat
	movl	-160(%rbp), %eax
	andl	$4095, %eax             # imm = 0xFFF
	movl	%eax, -20(%rbp)
	movq	-8(%rbp), %rdi
	movl	-20(%rbp), %esi
	callq	chmod
	cmpl	$0, %eax
	je	.LBB19_17
# %bb.16:                               # %if.then29
	movq	-8(%rbp), %rdi
	callq	perror
.LBB19_17:                              # %if.end30
	movq	-8(%rbp), %rdi
	movl	-156(%rbp), %esi
	movl	-152(%rbp), %edx
	callq	chown
	movq	-112(%rbp), %rax
	movq	%rax, -40(%rbp)
	movq	-96(%rbp), %rax
	movq	%rax, -32(%rbp)
	movq	-8(%rbp), %rdi
	leaq	-40(%rbp), %rsi
	callq	utime
	movq	-16(%rbp), %rdi
	callq	unlink
	cmpl	$0, %eax
	je	.LBB19_19
# %bb.18:                               # %if.then36
	movq	-16(%rbp), %rdi
	callq	perror
.LBB19_19:                              # %if.end37
	cmpl	$0, quiet
	jne	.LBB19_21
# %bb.20:                               # %if.then39
	movq	stderr, %rdi
	movq	-8(%rbp), %rdx
	movabsq	$.L.str.23, %rsi
	movb	$0, %al
	callq	fprintf
.LBB19_21:                              # %if.end41
	jmp	.LBB19_26
.LBB19_22:                              # %if.end42
	jmp	.LBB19_23
.LBB19_23:                              # %if.end43
	jmp	.LBB19_24
.LBB19_24:                              # %if.end44
	movq	-8(%rbp), %rdi
	callq	unlink
	cmpl	$0, %eax
	je	.LBB19_26
# %bb.25:                               # %if.then47
	movq	-8(%rbp), %rdi
	callq	perror
.LBB19_26:                              # %if.end48
	cmpl	$302493497, -24(%rbp)   # imm = 0x1207AF39
	jne	.LBB19_28
.LBB19_27:
	addq	$192, %rsp
	popq	%rbp
	.cfi_def_cfa %rsp, 8
	retq
.LBB19_28:                              # %func_exit
	.cfi_def_cfa %rbp, 16
	callq	detect_breach
	jmp	.LBB19_27
.Lfunc_end19:
	.size	copystat.4, .Lfunc_end19-copystat.4
	.cfi_endproc
                                        # -- End function
	.globl	cl_hash.5               # -- Begin function cl_hash.5
	.p2align	4, 0x90
	.type	cl_hash.5,@function
cl_hash.5:                              # @cl_hash.5
	.cfi_startproc
# %bb.0:                                # %entry
	pushq	%rbp
	.cfi_def_cfa_offset 16
	.cfi_offset %rbp, -16
	movq	%rsp, %rbp
	.cfi_def_cfa_register %rbp
	subq	$48, %rsp
	movl	$797101259, -28(%rbp)   # imm = 0x2F82CCCB
	movq	%rdi, -40(%rbp)
	movq	-40(%rbp), %rax
	shlq	$3, %rax
	movabsq	$htab, %rcx
	addq	%rax, %rcx
	movq	%rcx, -8(%rbp)
	movq	$-1, -16(%rbp)
	movq	-40(%rbp), %rax
	subq	$16, %rax
	movq	%rax, -24(%rbp)
.LBB20_1:                               # %do.body
                                        # =>This Inner Loop Header: Depth=1
	movq	-16(%rbp), %rax
	movq	-8(%rbp), %rcx
	movq	%rax, -128(%rcx)
	movq	-16(%rbp), %rax
	movq	-8(%rbp), %rcx
	movq	%rax, -120(%rcx)
	movq	-16(%rbp), %rax
	movq	-8(%rbp), %rcx
	movq	%rax, -112(%rcx)
	movq	-16(%rbp), %rax
	movq	-8(%rbp), %rcx
	movq	%rax, -104(%rcx)
	movq	-16(%rbp), %rax
	movq	-8(%rbp), %rcx
	movq	%rax, -96(%rcx)
	movq	-16(%rbp), %rax
	movq	-8(%rbp), %rcx
	movq	%rax, -88(%rcx)
	movq	-16(%rbp), %rax
	movq	-8(%rbp), %rcx
	movq	%rax, -80(%rcx)
	movq	-16(%rbp), %rax
	movq	-8(%rbp), %rcx
	movq	%rax, -72(%rcx)
	movq	-16(%rbp), %rax
	movq	-8(%rbp), %rcx
	movq	%rax, -64(%rcx)
	movq	-16(%rbp), %rax
	movq	-8(%rbp), %rcx
	movq	%rax, -56(%rcx)
	movq	-16(%rbp), %rax
	movq	-8(%rbp), %rcx
	movq	%rax, -48(%rcx)
	movq	-16(%rbp), %rax
	movq	-8(%rbp), %rcx
	movq	%rax, -40(%rcx)
	movq	-16(%rbp), %rax
	movq	-8(%rbp), %rcx
	movq	%rax, -32(%rcx)
	movq	-16(%rbp), %rax
	movq	-8(%rbp), %rcx
	movq	%rax, -24(%rcx)
	movq	-16(%rbp), %rax
	movq	-8(%rbp), %rcx
	movq	%rax, -16(%rcx)
	movq	-16(%rbp), %rax
	movq	-8(%rbp), %rcx
	movq	%rax, -8(%rcx)
	movq	-8(%rbp), %rax
	addq	$-128, %rax
	movq	%rax, -8(%rbp)
# %bb.2:                                # %do.cond
                                        #   in Loop: Header=BB20_1 Depth=1
	movq	-24(%rbp), %rax
	subq	$16, %rax
	movq	%rax, -24(%rbp)
	cmpq	$0, %rax
	jge	.LBB20_1
# %bb.3:                                # %do.end
	movq	-24(%rbp), %rax
	addq	$16, %rax
	movq	%rax, -24(%rbp)
.LBB20_4:                               # %for.cond
                                        # =>This Inner Loop Header: Depth=1
	cmpq	$0, -24(%rbp)
	jle	.LBB20_7
# %bb.5:                                # %for.body
                                        #   in Loop: Header=BB20_4 Depth=1
	movq	-16(%rbp), %rax
	movq	-8(%rbp), %rcx
	movq	%rcx, %rdx
	addq	$-8, %rdx
	movq	%rdx, -8(%rbp)
	movq	%rax, -8(%rcx)
# %bb.6:                                # %for.inc
                                        #   in Loop: Header=BB20_4 Depth=1
	movq	-24(%rbp), %rax
	addq	$-1, %rax
	movq	%rax, -24(%rbp)
	jmp	.LBB20_4
.LBB20_7:                               # %for.end
	cmpl	$797101259, -28(%rbp)   # imm = 0x2F82CCCB
	jne	.LBB20_9
.LBB20_8:
	addq	$48, %rsp
	popq	%rbp
	.cfi_def_cfa %rsp, 8
	retq
.LBB20_9:                               # %func_exit
	.cfi_def_cfa %rbp, 16
	callq	detect_breach
	jmp	.LBB20_8
.Lfunc_end20:
	.size	cl_hash.5, .Lfunc_end20-cl_hash.5
	.cfi_endproc
                                        # -- End function
	.globl	cl_hash.6               # -- Begin function cl_hash.6
	.p2align	4, 0x90
	.type	cl_hash.6,@function
cl_hash.6:                              # @cl_hash.6
	.cfi_startproc
# %bb.0:                                # %entry
	pushq	%rbp
	.cfi_def_cfa_offset 16
	.cfi_offset %rbp, -16
	movq	%rsp, %rbp
	.cfi_def_cfa_register %rbp
	subq	$48, %rsp
	movl	$2127880991, -28(%rbp)  # imm = 0x7ED4E31F
	movq	%rdi, -40(%rbp)
	movq	-40(%rbp), %rax
	shlq	$3, %rax
	movabsq	$htab, %rcx
	addq	%rax, %rcx
	movq	%rcx, -8(%rbp)
	movq	$-1, -16(%rbp)
	movq	-40(%rbp), %rax
	subq	$16, %rax
	movq	%rax, -24(%rbp)
.LBB21_1:                               # %do.body
                                        # =>This Inner Loop Header: Depth=1
	movq	-16(%rbp), %rax
	movq	-8(%rbp), %rcx
	movq	%rax, -128(%rcx)
	movq	-16(%rbp), %rax
	movq	-8(%rbp), %rcx
	movq	%rax, -120(%rcx)
	movq	-16(%rbp), %rax
	movq	-8(%rbp), %rcx
	movq	%rax, -112(%rcx)
	movq	-16(%rbp), %rax
	movq	-8(%rbp), %rcx
	movq	%rax, -104(%rcx)
	movq	-16(%rbp), %rax
	movq	-8(%rbp), %rcx
	movq	%rax, -96(%rcx)
	movq	-16(%rbp), %rax
	movq	-8(%rbp), %rcx
	movq	%rax, -88(%rcx)
	movq	-16(%rbp), %rax
	movq	-8(%rbp), %rcx
	movq	%rax, -80(%rcx)
	movq	-16(%rbp), %rax
	movq	-8(%rbp), %rcx
	movq	%rax, -72(%rcx)
	movq	-16(%rbp), %rax
	movq	-8(%rbp), %rcx
	movq	%rax, -64(%rcx)
	movq	-16(%rbp), %rax
	movq	-8(%rbp), %rcx
	movq	%rax, -56(%rcx)
	movq	-16(%rbp), %rax
	movq	-8(%rbp), %rcx
	movq	%rax, -48(%rcx)
	movq	-16(%rbp), %rax
	movq	-8(%rbp), %rcx
	movq	%rax, -40(%rcx)
	movq	-16(%rbp), %rax
	movq	-8(%rbp), %rcx
	movq	%rax, -32(%rcx)
	movq	-16(%rbp), %rax
	movq	-8(%rbp), %rcx
	movq	%rax, -24(%rcx)
	movq	-16(%rbp), %rax
	movq	-8(%rbp), %rcx
	movq	%rax, -16(%rcx)
	movq	-16(%rbp), %rax
	movq	-8(%rbp), %rcx
	movq	%rax, -8(%rcx)
	movq	-8(%rbp), %rax
	addq	$-128, %rax
	movq	%rax, -8(%rbp)
# %bb.2:                                # %do.cond
                                        #   in Loop: Header=BB21_1 Depth=1
	movq	-24(%rbp), %rax
	subq	$16, %rax
	movq	%rax, -24(%rbp)
	cmpq	$0, %rax
	jge	.LBB21_1
# %bb.3:                                # %do.end
	movq	-24(%rbp), %rax
	addq	$16, %rax
	movq	%rax, -24(%rbp)
.LBB21_4:                               # %for.cond
                                        # =>This Inner Loop Header: Depth=1
	cmpq	$0, -24(%rbp)
	jle	.LBB21_7
# %bb.5:                                # %for.body
                                        #   in Loop: Header=BB21_4 Depth=1
	movq	-16(%rbp), %rax
	movq	-8(%rbp), %rcx
	movq	%rcx, %rdx
	addq	$-8, %rdx
	movq	%rdx, -8(%rbp)
	movq	%rax, -8(%rcx)
# %bb.6:                                # %for.inc
                                        #   in Loop: Header=BB21_4 Depth=1
	movq	-24(%rbp), %rax
	addq	$-1, %rax
	movq	%rax, -24(%rbp)
	jmp	.LBB21_4
.LBB21_7:                               # %for.end
	cmpl	$2127880991, -28(%rbp)  # imm = 0x7ED4E31F
	jne	.LBB21_9
.LBB21_8:
	addq	$48, %rsp
	popq	%rbp
	.cfi_def_cfa %rsp, 8
	retq
.LBB21_9:                               # %func_exit
	.cfi_def_cfa %rbp, 16
	callq	detect_breach
	jmp	.LBB21_8
.Lfunc_end21:
	.size	cl_hash.6, .Lfunc_end21-cl_hash.6
	.cfi_endproc
                                        # -- End function
	.globl	scott_hack.7            # -- Begin function scott_hack.7
	.p2align	4, 0x90
	.type	scott_hack.7,@function
scott_hack.7:                           # @scott_hack.7
	.cfi_startproc
# %bb.0:                                # %entry
	pushq	%rbp
	.cfi_def_cfa_offset 16
	.cfi_offset %rbp, -16
	movq	%rsp, %rbp
	.cfi_def_cfa_register %rbp
	pushq	%rbx
	subq	$40, %rsp
	.cfi_offset %rbx, -24
	movl	$1907012490, -32(%rbp)  # imm = 0x71AAB38A
	movq	%rdi, -16(%rbp)
	movq	%rsi, -48(%rbp)
	movl	%edx, -28(%rbp)
	movl	%ecx, -24(%rbp)
	movq	%r8, -40(%rbp)
.LBB22_1:                               # %probeSH
                                        # =>This Inner Loop Header: Depth=1
	movslq	-28(%rbp), %rax
	movq	-16(%rbp), %rcx
	movq	(%rcx), %rdx
	subq	%rax, %rdx
	movq	%rdx, (%rcx)
	cmpq	$0, %rdx
	jge	.LBB22_3
# %bb.2:                                # %if.then
                                        #   in Loop: Header=BB22_1 Depth=1
	movslq	-24(%rbp), %rax
	movq	-16(%rbp), %rcx
	addq	(%rcx), %rax
	movq	%rax, (%rcx)
.LBB22_3:                               # %if.end
                                        #   in Loop: Header=BB22_1 Depth=1
	movq	-16(%rbp), %rax
	movq	(%rax), %rax
	movq	htab(,%rax,8), %rax
	cmpq	-48(%rbp), %rax
	jne	.LBB22_5
# %bb.4:                                # %if.then5
	movq	-16(%rbp), %rax
	movq	(%rax), %rax
	movzwl	codetab(,%rax,2), %eax
	movq	-40(%rbp), %rcx
	movq	%rax, (%rcx)
	movl	$1, -20(%rbp)
	jmp	.LBB22_8
.LBB22_5:                               # %if.end8
                                        #   in Loop: Header=BB22_1 Depth=1
	movq	-16(%rbp), %rax
	movq	(%rax), %rax
	cmpq	$0, htab(,%rax,8)
	jle	.LBB22_7
# %bb.6:                                # %if.then12
                                        #   in Loop: Header=BB22_1 Depth=1
	jmp	.LBB22_1
.LBB22_7:                               # %if.end13
	movl	$0, -20(%rbp)
.LBB22_8:                               # %return
	movl	-20(%rbp), %ebx
	cmpl	$1907012490, -32(%rbp)  # imm = 0x71AAB38A
	jne	.LBB22_10
.LBB22_9:
	movl	%ebx, %eax
	addq	$40, %rsp
	popq	%rbx
	popq	%rbp
	.cfi_def_cfa %rsp, 8
	retq
.LBB22_10:                              # %func_exit
	.cfi_def_cfa %rbp, 16
	callq	detect_breach
	jmp	.LBB22_9
.Lfunc_end22:
	.size	scott_hack.7, .Lfunc_end22-scott_hack.7
	.cfi_endproc
                                        # -- End function
	.globl	getcode.8               # -- Begin function getcode.8
	.p2align	4, 0x90
	.type	getcode.8,@function
getcode.8:                              # @getcode.8
	.cfi_startproc
# %bb.0:                                # %entry
	pushq	%rbp
	.cfi_def_cfa_offset 16
	.cfi_offset %rbp, -16
	movq	%rsp, %rbp
	.cfi_def_cfa_register %rbp
	pushq	%rbx
	subq	$40, %rsp
	.cfi_offset %rbx, -24
	movl	$1633870564, -36(%rbp)  # imm = 0x6162E2E4
	movabsq	$getcode.buf, %rax
	movq	%rax, -24(%rbp)
	cmpl	$0, clear_flg
	jg	.LBB23_3
# %bb.1:                                # %lor.lhs.false
	movl	getcode.offset, %eax
	cmpl	getcode.size, %eax
	jge	.LBB23_3
# %bb.2:                                # %lor.lhs.false2
	movq	free_ent, %rax
	cmpq	maxcode, %rax
	jle	.LBB23_13
.LBB23_3:                               # %if.then
	movq	free_ent, %rax
	cmpq	maxcode, %rax
	jle	.LBB23_8
# %bb.4:                                # %if.then5
	movl	n_bits, %eax
	addl	$1, %eax
	movl	%eax, n_bits
	movl	n_bits, %eax
	cmpl	maxbits, %eax
	jne	.LBB23_6
# %bb.5:                                # %if.then7
	movq	maxmaxcode, %rax
	movq	%rax, maxcode
	jmp	.LBB23_7
.LBB23_6:                               # %if.else
	movl	n_bits, %ecx
                                        # kill: def $cl killed $ecx
	movl	$1, %eax
	shll	%cl, %eax
	subl	$1, %eax
	cltq
	movq	%rax, maxcode
.LBB23_7:                               # %if.end
	jmp	.LBB23_8
.LBB23_8:                               # %if.end8
	cmpl	$0, clear_flg
	jle	.LBB23_10
# %bb.9:                                # %if.then11
	movl	$9, n_bits
	movq	$511, maxcode           # imm = 0x1FF
	movl	$0, clear_flg
.LBB23_10:                              # %if.end12
	movslq	n_bits, %rdx
	movq	stdin, %rcx
	movabsq	$getcode.buf, %rdi
	movl	$1, %esi
	callq	fread
	movl	%eax, getcode.size
	cmpl	$0, getcode.size
	jg	.LBB23_12
# %bb.11:                               # %if.then17
	movq	$-1, -48(%rbp)
	jmp	.LBB23_16
.LBB23_12:                              # %if.end18
	movl	$0, getcode.offset
	movl	getcode.size, %eax
	shll	$3, %eax
	movl	n_bits, %ecx
	subl	$1, %ecx
	subl	%ecx, %eax
	movl	%eax, getcode.size
.LBB23_13:                              # %if.end22
	movl	getcode.offset, %eax
	movl	%eax, -12(%rbp)
	movl	n_bits, %eax
	movl	%eax, -16(%rbp)
	movl	-12(%rbp), %eax
	sarl	$3, %eax
	movq	-24(%rbp), %rcx
	cltq
	addq	%rax, %rcx
	movq	%rcx, -24(%rbp)
	movl	-12(%rbp), %eax
	andl	$7, %eax
	movl	%eax, -12(%rbp)
	movq	-24(%rbp), %rax
	movq	%rax, %rcx
	addq	$1, %rcx
	movq	%rcx, -24(%rbp)
	movzbl	(%rax), %eax
	movl	-12(%rbp), %ecx
                                        # kill: def $cl killed $ecx
	sarl	%cl, %eax
	cltq
	movq	%rax, -32(%rbp)
	movl	$8, %eax
	movl	$8, %ecx
	subl	-12(%rbp), %ecx
	movl	-16(%rbp), %edx
	subl	%ecx, %edx
	movl	%edx, -16(%rbp)
	subl	-12(%rbp), %eax
	movl	%eax, -12(%rbp)
	cmpl	$8, -16(%rbp)
	jl	.LBB23_15
# %bb.14:                               # %if.then31
	movq	-24(%rbp), %rax
	movq	%rax, %rcx
	addq	$1, %rcx
	movq	%rcx, -24(%rbp)
	movzbl	(%rax), %eax
	movl	-12(%rbp), %ecx
                                        # kill: def $cl killed $ecx
	shll	%cl, %eax
	cltq
	orq	-32(%rbp), %rax
	movq	%rax, -32(%rbp)
	movl	-12(%rbp), %eax
	addl	$8, %eax
	movl	%eax, -12(%rbp)
	movl	-16(%rbp), %eax
	subl	$8, %eax
	movl	%eax, -16(%rbp)
.LBB23_15:                              # %if.end37
	movq	-24(%rbp), %rax
	movzbl	(%rax), %eax
	movslq	-16(%rbp), %rcx
	movzbl	rmask(,%rcx), %ecx
	andl	%ecx, %eax
	movl	-12(%rbp), %ecx
                                        # kill: def $cl killed $ecx
	shll	%cl, %eax
	cltq
	orq	-32(%rbp), %rax
	movq	%rax, -32(%rbp)
	movl	n_bits, %eax
	addl	getcode.offset, %eax
	movl	%eax, getcode.offset
	movq	-32(%rbp), %rax
	movq	%rax, -48(%rbp)
.LBB23_16:                              # %return
	movq	-48(%rbp), %rbx
	cmpl	$1633870564, -36(%rbp)  # imm = 0x6162E2E4
	jne	.LBB23_18
.LBB23_17:
	movq	%rbx, %rax
	addq	$40, %rsp
	popq	%rbx
	popq	%rbp
	.cfi_def_cfa %rsp, 8
	retq
.LBB23_18:                              # %func_exit
	.cfi_def_cfa %rbp, 16
	callq	detect_breach
	jmp	.LBB23_17
.Lfunc_end23:
	.size	getcode.8, .Lfunc_end23-getcode.8
	.cfi_endproc
                                        # -- End function
	.globl	output.9                # -- Begin function output.9
	.p2align	4, 0x90
	.type	output.9,@function
output.9:                               # @output.9
	.cfi_startproc
# %bb.0:                                # %entry
	pushq	%rbp
	.cfi_def_cfa_offset 16
	.cfi_offset %rbp, -16
	movq	%rsp, %rbp
	.cfi_def_cfa_register %rbp
	subq	$32, %rsp
	movl	$683796861, -28(%rbp)   # imm = 0x28C1E97D
	movq	%rdi, -24(%rbp)
	movl	offset, %eax
	movl	%eax, -8(%rbp)
	movl	n_bits, %eax
	movl	%eax, -4(%rbp)
	movabsq	$buf, %rax
	movq	%rax, -16(%rbp)
	cmpq	$0, -24(%rbp)
	jl	.LBB24_24
# %bb.1:                                # %if.then
	movl	-8(%rbp), %eax
	sarl	$3, %eax
	movq	-16(%rbp), %rcx
	cltq
	addq	%rax, %rcx
	movq	%rcx, -16(%rbp)
	movl	-8(%rbp), %eax
	andl	$7, %eax
	movl	%eax, -8(%rbp)
	movq	-16(%rbp), %rax
	movsbl	(%rax), %eax
	movslq	-8(%rbp), %rcx
	movzbl	rmask(,%rcx), %ecx
	andl	%ecx, %eax
	cltq
	movq	-24(%rbp), %rdx
	movl	-8(%rbp), %ecx
                                        # kill: def $cl killed $rcx
	shlq	%cl, %rdx
	movslq	-8(%rbp), %rcx
	movzbl	lmask(,%rcx), %ecx
	andq	%rcx, %rdx
	orq	%rdx, %rax
	movq	-16(%rbp), %rcx
	movb	%al, (%rcx)
	movq	-16(%rbp), %rax
	addq	$1, %rax
	movq	%rax, -16(%rbp)
	movl	$8, %eax
	movl	$8, %ecx
	subl	-8(%rbp), %ecx
	movl	-4(%rbp), %edx
	subl	%ecx, %edx
	movl	%edx, -4(%rbp)
	subl	-8(%rbp), %eax
	movq	-24(%rbp), %rdx
	movl	%eax, %ecx
                                        # kill: def $cl killed $rcx
	sarq	%cl, %rdx
	movq	%rdx, -24(%rbp)
	cmpl	$8, -4(%rbp)
	jl	.LBB24_3
# %bb.2:                                # %if.then15
	movq	-24(%rbp), %rax
	movq	-16(%rbp), %rcx
	movq	%rcx, %rdx
	addq	$1, %rdx
	movq	%rdx, -16(%rbp)
	movb	%al, (%rcx)
	movq	-24(%rbp), %rax
	sarq	$8, %rax
	movq	%rax, -24(%rbp)
	movl	-4(%rbp), %eax
	subl	$8, %eax
	movl	%eax, -4(%rbp)
.LBB24_3:                               # %if.end
	cmpl	$0, -4(%rbp)
	je	.LBB24_5
# %bb.4:                                # %if.then20
	movq	-24(%rbp), %rax
	movq	-16(%rbp), %rcx
	movb	%al, (%rcx)
.LBB24_5:                               # %if.end22
	movl	n_bits, %eax
	addl	offset, %eax
	movl	%eax, offset
	movl	offset, %eax
	movl	n_bits, %ecx
	shll	$3, %ecx
	cmpl	%ecx, %eax
	jne	.LBB24_10
# %bb.6:                                # %if.then26
	movabsq	$buf, %rax
	movq	%rax, -16(%rbp)
	movl	n_bits, %eax
	movl	%eax, -4(%rbp)
	movslq	-4(%rbp), %rax
	addq	bytes_out, %rax
	movq	%rax, bytes_out
.LBB24_7:                               # %do.body
                                        # =>This Inner Loop Header: Depth=1
	movq	-16(%rbp), %rax
	movq	%rax, %rcx
	addq	$1, %rcx
	movq	%rcx, -16(%rbp)
	movsbl	(%rax), %edi
	callq	putchar
# %bb.8:                                # %do.cond
                                        #   in Loop: Header=BB24_7 Depth=1
	movl	-4(%rbp), %eax
	addl	$-1, %eax
	movl	%eax, -4(%rbp)
	cmpl	$0, %eax
	jne	.LBB24_7
# %bb.9:                                # %do.end
	movl	$0, offset
.LBB24_10:                              # %if.end32
	movq	free_ent, %rax
	cmpq	maxcode, %rax
	jg	.LBB24_12
# %bb.11:                               # %lor.lhs.false
	cmpl	$0, clear_flg
	jle	.LBB24_23
.LBB24_12:                              # %if.then37
	cmpl	$0, offset
	jle	.LBB24_16
# %bb.13:                               # %if.then40
	movslq	n_bits, %rdx
	movq	stdout, %rcx
	movabsq	$buf, %rdi
	movl	$1, %esi
	callq	fwrite
	movslq	n_bits, %rcx
	cmpq	%rcx, %rax
	je	.LBB24_15
# %bb.14:                               # %if.then46
	callq	writeerr
.LBB24_15:                              # %if.end47
	movslq	n_bits, %rax
	addq	bytes_out, %rax
	movq	%rax, bytes_out
.LBB24_16:                              # %if.end50
	movl	$0, offset
	cmpl	$0, clear_flg
	je	.LBB24_18
# %bb.17:                               # %if.then52
	movl	$9, n_bits
	movq	$511, maxcode           # imm = 0x1FF
	movl	$0, clear_flg
	jmp	.LBB24_22
.LBB24_18:                              # %if.else
	movl	n_bits, %eax
	addl	$1, %eax
	movl	%eax, n_bits
	movl	n_bits, %eax
	cmpl	maxbits, %eax
	jne	.LBB24_20
# %bb.19:                               # %if.then55
	movq	maxmaxcode, %rax
	movq	%rax, maxcode
	jmp	.LBB24_21
.LBB24_20:                              # %if.else56
	movl	n_bits, %ecx
                                        # kill: def $cl killed $ecx
	movl	$1, %eax
	shll	%cl, %eax
	subl	$1, %eax
	cltq
	movq	%rax, maxcode
.LBB24_21:                              # %if.end60
	jmp	.LBB24_22
.LBB24_22:                              # %if.end61
	jmp	.LBB24_23
.LBB24_23:                              # %if.end62
	jmp	.LBB24_29
.LBB24_24:                              # %if.else63
	cmpl	$0, offset
	jle	.LBB24_26
# %bb.25:                               # %if.then66
	movl	offset, %eax
	addl	$7, %eax
	cltd
	movl	$8, %ecx
	idivl	%ecx
	movslq	%eax, %rdx
	movq	stdout, %rcx
	movabsq	$buf, %rdi
	movl	$1, %esi
	callq	fwrite
.LBB24_26:                              # %if.end70
	movl	offset, %eax
	addl	$7, %eax
	cltd
	movl	$8, %ecx
	idivl	%ecx
	cltq
	addq	bytes_out, %rax
	movq	%rax, bytes_out
	movl	$0, offset
	movq	stdout, %rdi
	callq	fflush
	movq	stdout, %rdi
	callq	ferror
	cmpl	$0, %eax
	je	.LBB24_28
# %bb.27:                               # %if.then78
	callq	writeerr
.LBB24_28:                              # %if.end79
	jmp	.LBB24_29
.LBB24_29:                              # %if.end80
	cmpl	$683796861, -28(%rbp)   # imm = 0x28C1E97D
	jne	.LBB24_31
.LBB24_30:
	addq	$32, %rsp
	popq	%rbp
	.cfi_def_cfa %rsp, 8
	retq
.LBB24_31:                              # %func_exit
	.cfi_def_cfa %rbp, 16
	callq	detect_breach
	jmp	.LBB24_30
.Lfunc_end24:
	.size	output.9, .Lfunc_end24-output.9
	.cfi_endproc
                                        # -- End function
	.globl	decompress.10           # -- Begin function decompress.10
	.p2align	4, 0x90
	.type	decompress.10,@function
decompress.10:                          # @decompress.10
	.cfi_startproc
# %bb.0:                                # %entry
	pushq	%rbp
	.cfi_def_cfa_offset 16
	.cfi_offset %rbp, -16
	movq	%rsp, %rbp
	.cfi_def_cfa_register %rbp
	subq	$48, %rsp
	movl	$626998217, -36(%rbp)   # imm = 0x255F3BC9
	movl	$9, n_bits
	movq	$511, maxcode           # imm = 0x1FF
	movq	$255, -8(%rbp)
.LBB25_1:                               # %for.cond
                                        # =>This Inner Loop Header: Depth=1
	cmpq	$0, -8(%rbp)
	jl	.LBB25_4
# %bb.2:                                # %for.body
                                        #   in Loop: Header=BB25_1 Depth=1
	movq	-8(%rbp), %rax
	movw	$0, codetab(,%rax,2)
	movq	-8(%rbp), %rax
	movq	-8(%rbp), %rcx
	movb	%al, htab(,%rcx)
# %bb.3:                                # %for.inc
                                        #   in Loop: Header=BB25_1 Depth=1
	movq	-8(%rbp), %rax
	addq	$-1, %rax
	movq	%rax, -8(%rbp)
	jmp	.LBB25_1
.LBB25_4:                               # %for.end
	movl	block_compress, %eax
	cmpl	$0, %eax
	movl	$257, %eax              # imm = 0x101
	movl	$256, %ecx              # imm = 0x100
	cmovnel	%eax, %ecx
	movslq	%ecx, %rax
	movq	%rax, free_ent
	callq	getcode
	movq	%rax, -32(%rbp)
	movl	%eax, -20(%rbp)
	cmpq	$-1, -32(%rbp)
	jne	.LBB25_6
# %bb.5:                                # %if.then
	jmp	.LBB25_33
.LBB25_6:                               # %if.end
	movl	-20(%rbp), %eax
	movsbl	%al, %edi
	callq	putchar
	movq	stdout, %rdi
	callq	ferror
	cmpl	$0, %eax
	je	.LBB25_8
# %bb.7:                                # %if.then11
	callq	writeerr
.LBB25_8:                               # %if.end12
	movabsq	$htab, %rax
	addq	$65536, %rax            # imm = 0x10000
	movq	%rax, -16(%rbp)
.LBB25_9:                               # %while.cond
                                        # =>This Loop Header: Depth=1
                                        #     Child Loop BB25_13 Depth 2
                                        #     Child Loop BB25_22 Depth 2
                                        #     Child Loop BB25_25 Depth 2
	callq	getcode
	movq	%rax, -8(%rbp)
	cmpq	$-1, %rax
	jle	.LBB25_30
# %bb.10:                               # %while.body
                                        #   in Loop: Header=BB25_9 Depth=1
	cmpq	$256, -8(%rbp)          # imm = 0x100
	jne	.LBB25_19
# %bb.11:                               # %land.lhs.true
                                        #   in Loop: Header=BB25_9 Depth=1
	cmpl	$0, block_compress
	je	.LBB25_19
# %bb.12:                               # %if.then19
                                        #   in Loop: Header=BB25_9 Depth=1
	movq	$255, -8(%rbp)
.LBB25_13:                              # %for.cond20
                                        #   Parent Loop BB25_9 Depth=1
                                        # =>  This Inner Loop Header: Depth=2
	cmpq	$0, -8(%rbp)
	jl	.LBB25_16
# %bb.14:                               # %for.body23
                                        #   in Loop: Header=BB25_13 Depth=2
	movq	-8(%rbp), %rax
	movw	$0, codetab(,%rax,2)
# %bb.15:                               # %for.inc25
                                        #   in Loop: Header=BB25_13 Depth=2
	movq	-8(%rbp), %rax
	addq	$-1, %rax
	movq	%rax, -8(%rbp)
	jmp	.LBB25_13
.LBB25_16:                              # %for.end27
                                        #   in Loop: Header=BB25_9 Depth=1
	movl	$1, clear_flg
	movq	$256, free_ent          # imm = 0x100
	callq	getcode
	movq	%rax, -8(%rbp)
	cmpq	$-1, %rax
	jne	.LBB25_18
# %bb.17:                               # %if.then31
	jmp	.LBB25_31
.LBB25_18:                              # %if.end32
                                        #   in Loop: Header=BB25_9 Depth=1
	jmp	.LBB25_19
.LBB25_19:                              # %if.end33
                                        #   in Loop: Header=BB25_9 Depth=1
	movq	-8(%rbp), %rax
	movq	%rax, -48(%rbp)
	movq	-8(%rbp), %rax
	cmpq	free_ent, %rax
	jl	.LBB25_21
# %bb.20:                               # %if.then36
                                        #   in Loop: Header=BB25_9 Depth=1
	movl	-20(%rbp), %eax
	movq	-16(%rbp), %rcx
	movq	%rcx, %rdx
	addq	$1, %rdx
	movq	%rdx, -16(%rbp)
	movb	%al, (%rcx)
	movq	-32(%rbp), %rax
	movq	%rax, -8(%rbp)
.LBB25_21:                              # %if.end38
                                        #   in Loop: Header=BB25_9 Depth=1
	jmp	.LBB25_22
.LBB25_22:                              # %while.cond39
                                        #   Parent Loop BB25_9 Depth=1
                                        # =>  This Inner Loop Header: Depth=2
	cmpq	$256, -8(%rbp)          # imm = 0x100
	jl	.LBB25_24
# %bb.23:                               # %while.body42
                                        #   in Loop: Header=BB25_22 Depth=2
	movq	-8(%rbp), %rax
	movb	htab(,%rax), %al
	movq	-16(%rbp), %rcx
	movq	%rcx, %rdx
	addq	$1, %rdx
	movq	%rdx, -16(%rbp)
	movb	%al, (%rcx)
	movq	-8(%rbp), %rax
	movzwl	codetab(,%rax,2), %eax
	movq	%rax, -8(%rbp)
	jmp	.LBB25_22
.LBB25_24:                              # %while.end
                                        #   in Loop: Header=BB25_9 Depth=1
	movq	-8(%rbp), %rax
	movzbl	htab(,%rax), %eax
	movl	%eax, -20(%rbp)
	movq	-16(%rbp), %rcx
	movq	%rcx, %rdx
	addq	$1, %rdx
	movq	%rdx, -16(%rbp)
	movb	%al, (%rcx)
.LBB25_25:                              # %do.body
                                        #   Parent Loop BB25_9 Depth=1
                                        # =>  This Inner Loop Header: Depth=2
	movq	-16(%rbp), %rax
	movq	%rax, %rcx
	addq	$-1, %rcx
	movq	%rcx, -16(%rbp)
	movzbl	-1(%rax), %edi
	callq	putchar
# %bb.26:                               # %do.cond
                                        #   in Loop: Header=BB25_25 Depth=2
	movabsq	$htab, %rax
	addq	$65536, %rax            # imm = 0x10000
	cmpq	%rax, -16(%rbp)
	ja	.LBB25_25
# %bb.27:                               # %do.end
                                        #   in Loop: Header=BB25_9 Depth=1
	movq	free_ent, %rax
	movq	%rax, -8(%rbp)
	cmpq	maxmaxcode, %rax
	jge	.LBB25_29
# %bb.28:                               # %if.then58
                                        #   in Loop: Header=BB25_9 Depth=1
	movq	-32(%rbp), %rax
	movq	-8(%rbp), %rcx
	movw	%ax, codetab(,%rcx,2)
	movl	-20(%rbp), %eax
	movq	-8(%rbp), %rcx
	movb	%al, htab(,%rcx)
	movq	-8(%rbp), %rax
	addq	$1, %rax
	movq	%rax, free_ent
.LBB25_29:                              # %if.end63
                                        #   in Loop: Header=BB25_9 Depth=1
	movq	-48(%rbp), %rax
	movq	%rax, -32(%rbp)
	jmp	.LBB25_9
.LBB25_30:                              # %while.end64.loopexit
	jmp	.LBB25_31
.LBB25_31:                              # %while.end64
	movq	stdout, %rdi
	callq	fflush
	movq	stdout, %rdi
	callq	ferror
	cmpl	$0, %eax
	je	.LBB25_33
# %bb.32:                               # %if.then68
	callq	writeerr
.LBB25_33:                              # %if.end69
	cmpl	$626998217, -36(%rbp)   # imm = 0x255F3BC9
	jne	.LBB25_35
.LBB25_34:
	addq	$48, %rsp
	popq	%rbp
	.cfi_def_cfa %rsp, 8
	retq
.LBB25_35:                              # %func_exit
	.cfi_def_cfa %rbp, 16
	callq	detect_breach
	jmp	.LBB25_34
.Lfunc_end25:
	.size	decompress.10, .Lfunc_end25-decompress.10
	.cfi_endproc
                                        # -- End function
	.globl	decompress.11           # -- Begin function decompress.11
	.p2align	4, 0x90
	.type	decompress.11,@function
decompress.11:                          # @decompress.11
	.cfi_startproc
# %bb.0:                                # %entry
	pushq	%rbp
	.cfi_def_cfa_offset 16
	.cfi_offset %rbp, -16
	movq	%rsp, %rbp
	.cfi_def_cfa_register %rbp
	subq	$48, %rsp
	movl	$159675308, -36(%rbp)   # imm = 0x98473AC
	movl	$9, n_bits
	movq	$511, maxcode           # imm = 0x1FF
	movq	$255, -8(%rbp)
.LBB26_1:                               # %for.cond
                                        # =>This Inner Loop Header: Depth=1
	cmpq	$0, -8(%rbp)
	jl	.LBB26_4
# %bb.2:                                # %for.body
                                        #   in Loop: Header=BB26_1 Depth=1
	movq	-8(%rbp), %rax
	movw	$0, codetab(,%rax,2)
	movq	-8(%rbp), %rax
	movq	-8(%rbp), %rcx
	movb	%al, htab(,%rcx)
# %bb.3:                                # %for.inc
                                        #   in Loop: Header=BB26_1 Depth=1
	movq	-8(%rbp), %rax
	addq	$-1, %rax
	movq	%rax, -8(%rbp)
	jmp	.LBB26_1
.LBB26_4:                               # %for.end
	movl	block_compress, %eax
	cmpl	$0, %eax
	movl	$257, %eax              # imm = 0x101
	movl	$256, %ecx              # imm = 0x100
	cmovnel	%eax, %ecx
	movslq	%ecx, %rax
	movq	%rax, free_ent
	callq	getcode
	movq	%rax, -32(%rbp)
	movl	%eax, -20(%rbp)
	cmpq	$-1, -32(%rbp)
	jne	.LBB26_6
# %bb.5:                                # %if.then
	jmp	.LBB26_33
.LBB26_6:                               # %if.end
	movl	-20(%rbp), %eax
	movsbl	%al, %edi
	callq	putchar
	movq	stdout, %rdi
	callq	ferror
	cmpl	$0, %eax
	je	.LBB26_8
# %bb.7:                                # %if.then11
	callq	writeerr
.LBB26_8:                               # %if.end12
	movabsq	$htab, %rax
	addq	$65536, %rax            # imm = 0x10000
	movq	%rax, -16(%rbp)
.LBB26_9:                               # %while.cond
                                        # =>This Loop Header: Depth=1
                                        #     Child Loop BB26_13 Depth 2
                                        #     Child Loop BB26_22 Depth 2
                                        #     Child Loop BB26_25 Depth 2
	callq	getcode
	movq	%rax, -8(%rbp)
	cmpq	$-1, %rax
	jle	.LBB26_30
# %bb.10:                               # %while.body
                                        #   in Loop: Header=BB26_9 Depth=1
	cmpq	$256, -8(%rbp)          # imm = 0x100
	jne	.LBB26_19
# %bb.11:                               # %land.lhs.true
                                        #   in Loop: Header=BB26_9 Depth=1
	cmpl	$0, block_compress
	je	.LBB26_19
# %bb.12:                               # %if.then19
                                        #   in Loop: Header=BB26_9 Depth=1
	movq	$255, -8(%rbp)
.LBB26_13:                              # %for.cond20
                                        #   Parent Loop BB26_9 Depth=1
                                        # =>  This Inner Loop Header: Depth=2
	cmpq	$0, -8(%rbp)
	jl	.LBB26_16
# %bb.14:                               # %for.body23
                                        #   in Loop: Header=BB26_13 Depth=2
	movq	-8(%rbp), %rax
	movw	$0, codetab(,%rax,2)
# %bb.15:                               # %for.inc25
                                        #   in Loop: Header=BB26_13 Depth=2
	movq	-8(%rbp), %rax
	addq	$-1, %rax
	movq	%rax, -8(%rbp)
	jmp	.LBB26_13
.LBB26_16:                              # %for.end27
                                        #   in Loop: Header=BB26_9 Depth=1
	movl	$1, clear_flg
	movq	$256, free_ent          # imm = 0x100
	callq	getcode
	movq	%rax, -8(%rbp)
	cmpq	$-1, %rax
	jne	.LBB26_18
# %bb.17:                               # %if.then31
	jmp	.LBB26_31
.LBB26_18:                              # %if.end32
                                        #   in Loop: Header=BB26_9 Depth=1
	jmp	.LBB26_19
.LBB26_19:                              # %if.end33
                                        #   in Loop: Header=BB26_9 Depth=1
	movq	-8(%rbp), %rax
	movq	%rax, -48(%rbp)
	movq	-8(%rbp), %rax
	cmpq	free_ent, %rax
	jl	.LBB26_21
# %bb.20:                               # %if.then36
                                        #   in Loop: Header=BB26_9 Depth=1
	movl	-20(%rbp), %eax
	movq	-16(%rbp), %rcx
	movq	%rcx, %rdx
	addq	$1, %rdx
	movq	%rdx, -16(%rbp)
	movb	%al, (%rcx)
	movq	-32(%rbp), %rax
	movq	%rax, -8(%rbp)
.LBB26_21:                              # %if.end38
                                        #   in Loop: Header=BB26_9 Depth=1
	jmp	.LBB26_22
.LBB26_22:                              # %while.cond39
                                        #   Parent Loop BB26_9 Depth=1
                                        # =>  This Inner Loop Header: Depth=2
	cmpq	$256, -8(%rbp)          # imm = 0x100
	jl	.LBB26_24
# %bb.23:                               # %while.body42
                                        #   in Loop: Header=BB26_22 Depth=2
	movq	-8(%rbp), %rax
	movb	htab(,%rax), %al
	movq	-16(%rbp), %rcx
	movq	%rcx, %rdx
	addq	$1, %rdx
	movq	%rdx, -16(%rbp)
	movb	%al, (%rcx)
	movq	-8(%rbp), %rax
	movzwl	codetab(,%rax,2), %eax
	movq	%rax, -8(%rbp)
	jmp	.LBB26_22
.LBB26_24:                              # %while.end
                                        #   in Loop: Header=BB26_9 Depth=1
	movq	-8(%rbp), %rax
	movzbl	htab(,%rax), %eax
	movl	%eax, -20(%rbp)
	movq	-16(%rbp), %rcx
	movq	%rcx, %rdx
	addq	$1, %rdx
	movq	%rdx, -16(%rbp)
	movb	%al, (%rcx)
.LBB26_25:                              # %do.body
                                        #   Parent Loop BB26_9 Depth=1
                                        # =>  This Inner Loop Header: Depth=2
	movq	-16(%rbp), %rax
	movq	%rax, %rcx
	addq	$-1, %rcx
	movq	%rcx, -16(%rbp)
	movzbl	-1(%rax), %edi
	callq	putchar
# %bb.26:                               # %do.cond
                                        #   in Loop: Header=BB26_25 Depth=2
	movabsq	$htab, %rax
	addq	$65536, %rax            # imm = 0x10000
	cmpq	%rax, -16(%rbp)
	ja	.LBB26_25
# %bb.27:                               # %do.end
                                        #   in Loop: Header=BB26_9 Depth=1
	movq	free_ent, %rax
	movq	%rax, -8(%rbp)
	cmpq	maxmaxcode, %rax
	jge	.LBB26_29
# %bb.28:                               # %if.then58
                                        #   in Loop: Header=BB26_9 Depth=1
	movq	-32(%rbp), %rax
	movq	-8(%rbp), %rcx
	movw	%ax, codetab(,%rcx,2)
	movl	-20(%rbp), %eax
	movq	-8(%rbp), %rcx
	movb	%al, htab(,%rcx)
	movq	-8(%rbp), %rax
	addq	$1, %rax
	movq	%rax, free_ent
.LBB26_29:                              # %if.end63
                                        #   in Loop: Header=BB26_9 Depth=1
	movq	-48(%rbp), %rax
	movq	%rax, -32(%rbp)
	jmp	.LBB26_9
.LBB26_30:                              # %while.end64.loopexit
	jmp	.LBB26_31
.LBB26_31:                              # %while.end64
	movq	stdout, %rdi
	callq	fflush
	movq	stdout, %rdi
	callq	ferror
	cmpl	$0, %eax
	je	.LBB26_33
# %bb.32:                               # %if.then68
	callq	writeerr
.LBB26_33:                              # %if.end69
	cmpl	$159675308, -36(%rbp)   # imm = 0x98473AC
	jne	.LBB26_35
.LBB26_34:
	addq	$48, %rsp
	popq	%rbp
	.cfi_def_cfa %rsp, 8
	retq
.LBB26_35:                              # %func_exit
	.cfi_def_cfa %rbp, 16
	callq	detect_breach
	jmp	.LBB26_34
.Lfunc_end26:
	.size	decompress.11, .Lfunc_end26-decompress.11
	.cfi_endproc
                                        # -- End function
	.globl	copystat.12             # -- Begin function copystat.12
	.p2align	4, 0x90
	.type	copystat.12,@function
copystat.12:                            # @copystat.12
	.cfi_startproc
# %bb.0:                                # %entry
	pushq	%rbp
	.cfi_def_cfa_offset 16
	.cfi_offset %rbp, -16
	movq	%rsp, %rbp
	.cfi_def_cfa_register %rbp
	subq	$192, %rsp
	movl	$1745051498, -24(%rbp)  # imm = 0x68035F6A
	movq	%rdi, -16(%rbp)
	movq	%rsi, -8(%rbp)
	movq	stdout, %rdi
	callq	fclose
	movq	-16(%rbp), %rdi
	leaq	-184(%rbp), %rsi
	callq	stat
	cmpl	$0, %eax
	je	.LBB27_2
# %bb.1:                                # %if.then
	movq	-16(%rbp), %rdi
	callq	perror
	jmp	.LBB27_26
.LBB27_2:                               # %if.end
	movl	-160(%rbp), %eax
	andl	$61440, %eax            # imm = 0xF000
	cmpl	$32768, %eax            # imm = 0x8000
	je	.LBB27_6
# %bb.3:                                # %if.then2
	cmpl	$0, quiet
	je	.LBB27_5
# %bb.4:                                # %if.then4
	movq	stderr, %rdi
	movq	-16(%rbp), %rdx
	movabsq	$.L.str.16, %rsi
	movb	$0, %al
	callq	fprintf
.LBB27_5:                               # %if.end6
	movq	stderr, %rdi
	movabsq	$.L.str.20, %rsi
	movb	$0, %al
	callq	fprintf
	movl	$1, exit_stat
	jmp	.LBB27_24
.LBB27_6:                               # %if.else
	cmpq	$1, -168(%rbp)
	jbe	.LBB27_10
# %bb.7:                                # %if.then9
	cmpl	$0, quiet
	je	.LBB27_9
# %bb.8:                                # %if.then11
	movq	stderr, %rdi
	movq	-16(%rbp), %rdx
	movabsq	$.L.str.16, %rsi
	movb	$0, %al
	callq	fprintf
.LBB27_9:                               # %if.end13
	movq	stderr, %rdi
	movq	-168(%rbp), %rdx
	subq	$1, %rdx
	movabsq	$.L.str.21, %rsi
	movb	$0, %al
	callq	fprintf
	movl	$1, exit_stat
	jmp	.LBB27_23
.LBB27_10:                              # %if.else16
	cmpl	$2, exit_stat
	jne	.LBB27_15
# %bb.11:                               # %land.lhs.true
	cmpl	$0, force
	jne	.LBB27_15
# %bb.12:                               # %if.then19
	cmpl	$0, quiet
	jne	.LBB27_14
# %bb.13:                               # %if.then21
	movq	stderr, %rdi
	movabsq	$.L.str.22, %rsi
	movb	$0, %al
	callq	fprintf
.LBB27_14:                              # %if.end23
	jmp	.LBB27_22
.LBB27_15:                              # %if.else24
	movl	$0, exit_stat
	movl	-160(%rbp), %eax
	andl	$4095, %eax             # imm = 0xFFF
	movl	%eax, -20(%rbp)
	movq	-8(%rbp), %rdi
	movl	-20(%rbp), %esi
	callq	chmod
	cmpl	$0, %eax
	je	.LBB27_17
# %bb.16:                               # %if.then29
	movq	-8(%rbp), %rdi
	callq	perror
.LBB27_17:                              # %if.end30
	movq	-8(%rbp), %rdi
	movl	-156(%rbp), %esi
	movl	-152(%rbp), %edx
	callq	chown
	movq	-112(%rbp), %rax
	movq	%rax, -40(%rbp)
	movq	-96(%rbp), %rax
	movq	%rax, -32(%rbp)
	movq	-8(%rbp), %rdi
	leaq	-40(%rbp), %rsi
	callq	utime
	movq	-16(%rbp), %rdi
	callq	unlink
	cmpl	$0, %eax
	je	.LBB27_19
# %bb.18:                               # %if.then36
	movq	-16(%rbp), %rdi
	callq	perror
.LBB27_19:                              # %if.end37
	cmpl	$0, quiet
	jne	.LBB27_21
# %bb.20:                               # %if.then39
	movq	stderr, %rdi
	movq	-8(%rbp), %rdx
	movabsq	$.L.str.23, %rsi
	movb	$0, %al
	callq	fprintf
.LBB27_21:                              # %if.end41
	jmp	.LBB27_26
.LBB27_22:                              # %if.end42
	jmp	.LBB27_23
.LBB27_23:                              # %if.end43
	jmp	.LBB27_24
.LBB27_24:                              # %if.end44
	movq	-8(%rbp), %rdi
	callq	unlink
	cmpl	$0, %eax
	je	.LBB27_26
# %bb.25:                               # %if.then47
	movq	-8(%rbp), %rdi
	callq	perror
.LBB27_26:                              # %if.end48
	cmpl	$1745051498, -24(%rbp)  # imm = 0x68035F6A
	jne	.LBB27_28
.LBB27_27:
	addq	$192, %rsp
	popq	%rbp
	.cfi_def_cfa %rsp, 8
	retq
.LBB27_28:                              # %func_exit
	.cfi_def_cfa %rbp, 16
	callq	detect_breach
	jmp	.LBB27_27
.Lfunc_end27:
	.size	copystat.12, .Lfunc_end27-copystat.12
	.cfi_endproc
                                        # -- End function
	.globl	output.13               # -- Begin function output.13
	.p2align	4, 0x90
	.type	output.13,@function
output.13:                              # @output.13
	.cfi_startproc
# %bb.0:                                # %entry
	pushq	%rbp
	.cfi_def_cfa_offset 16
	.cfi_offset %rbp, -16
	movq	%rsp, %rbp
	.cfi_def_cfa_register %rbp
	subq	$32, %rsp
	movl	$673692921, -28(%rbp)   # imm = 0x2827BCF9
	movq	%rdi, -24(%rbp)
	movl	offset, %eax
	movl	%eax, -8(%rbp)
	movl	n_bits, %eax
	movl	%eax, -4(%rbp)
	movabsq	$buf, %rax
	movq	%rax, -16(%rbp)
	cmpq	$0, -24(%rbp)
	jl	.LBB28_24
# %bb.1:                                # %if.then
	movl	-8(%rbp), %eax
	sarl	$3, %eax
	movq	-16(%rbp), %rcx
	cltq
	addq	%rax, %rcx
	movq	%rcx, -16(%rbp)
	movl	-8(%rbp), %eax
	andl	$7, %eax
	movl	%eax, -8(%rbp)
	movq	-16(%rbp), %rax
	movsbl	(%rax), %eax
	movslq	-8(%rbp), %rcx
	movzbl	rmask(,%rcx), %ecx
	andl	%ecx, %eax
	cltq
	movq	-24(%rbp), %rdx
	movl	-8(%rbp), %ecx
                                        # kill: def $cl killed $rcx
	shlq	%cl, %rdx
	movslq	-8(%rbp), %rcx
	movzbl	lmask(,%rcx), %ecx
	andq	%rcx, %rdx
	orq	%rdx, %rax
	movq	-16(%rbp), %rcx
	movb	%al, (%rcx)
	movq	-16(%rbp), %rax
	addq	$1, %rax
	movq	%rax, -16(%rbp)
	movl	$8, %eax
	movl	$8, %ecx
	subl	-8(%rbp), %ecx
	movl	-4(%rbp), %edx
	subl	%ecx, %edx
	movl	%edx, -4(%rbp)
	subl	-8(%rbp), %eax
	movq	-24(%rbp), %rdx
	movl	%eax, %ecx
                                        # kill: def $cl killed $rcx
	sarq	%cl, %rdx
	movq	%rdx, -24(%rbp)
	cmpl	$8, -4(%rbp)
	jl	.LBB28_3
# %bb.2:                                # %if.then15
	movq	-24(%rbp), %rax
	movq	-16(%rbp), %rcx
	movq	%rcx, %rdx
	addq	$1, %rdx
	movq	%rdx, -16(%rbp)
	movb	%al, (%rcx)
	movq	-24(%rbp), %rax
	sarq	$8, %rax
	movq	%rax, -24(%rbp)
	movl	-4(%rbp), %eax
	subl	$8, %eax
	movl	%eax, -4(%rbp)
.LBB28_3:                               # %if.end
	cmpl	$0, -4(%rbp)
	je	.LBB28_5
# %bb.4:                                # %if.then20
	movq	-24(%rbp), %rax
	movq	-16(%rbp), %rcx
	movb	%al, (%rcx)
.LBB28_5:                               # %if.end22
	movl	n_bits, %eax
	addl	offset, %eax
	movl	%eax, offset
	movl	offset, %eax
	movl	n_bits, %ecx
	shll	$3, %ecx
	cmpl	%ecx, %eax
	jne	.LBB28_10
# %bb.6:                                # %if.then26
	movabsq	$buf, %rax
	movq	%rax, -16(%rbp)
	movl	n_bits, %eax
	movl	%eax, -4(%rbp)
	movslq	-4(%rbp), %rax
	addq	bytes_out, %rax
	movq	%rax, bytes_out
.LBB28_7:                               # %do.body
                                        # =>This Inner Loop Header: Depth=1
	movq	-16(%rbp), %rax
	movq	%rax, %rcx
	addq	$1, %rcx
	movq	%rcx, -16(%rbp)
	movsbl	(%rax), %edi
	callq	putchar
# %bb.8:                                # %do.cond
                                        #   in Loop: Header=BB28_7 Depth=1
	movl	-4(%rbp), %eax
	addl	$-1, %eax
	movl	%eax, -4(%rbp)
	cmpl	$0, %eax
	jne	.LBB28_7
# %bb.9:                                # %do.end
	movl	$0, offset
.LBB28_10:                              # %if.end32
	movq	free_ent, %rax
	cmpq	maxcode, %rax
	jg	.LBB28_12
# %bb.11:                               # %lor.lhs.false
	cmpl	$0, clear_flg
	jle	.LBB28_23
.LBB28_12:                              # %if.then37
	cmpl	$0, offset
	jle	.LBB28_16
# %bb.13:                               # %if.then40
	movslq	n_bits, %rdx
	movq	stdout, %rcx
	movabsq	$buf, %rdi
	movl	$1, %esi
	callq	fwrite
	movslq	n_bits, %rcx
	cmpq	%rcx, %rax
	je	.LBB28_15
# %bb.14:                               # %if.then46
	callq	writeerr
.LBB28_15:                              # %if.end47
	movslq	n_bits, %rax
	addq	bytes_out, %rax
	movq	%rax, bytes_out
.LBB28_16:                              # %if.end50
	movl	$0, offset
	cmpl	$0, clear_flg
	je	.LBB28_18
# %bb.17:                               # %if.then52
	movl	$9, n_bits
	movq	$511, maxcode           # imm = 0x1FF
	movl	$0, clear_flg
	jmp	.LBB28_22
.LBB28_18:                              # %if.else
	movl	n_bits, %eax
	addl	$1, %eax
	movl	%eax, n_bits
	movl	n_bits, %eax
	cmpl	maxbits, %eax
	jne	.LBB28_20
# %bb.19:                               # %if.then55
	movq	maxmaxcode, %rax
	movq	%rax, maxcode
	jmp	.LBB28_21
.LBB28_20:                              # %if.else56
	movl	n_bits, %ecx
                                        # kill: def $cl killed $ecx
	movl	$1, %eax
	shll	%cl, %eax
	subl	$1, %eax
	cltq
	movq	%rax, maxcode
.LBB28_21:                              # %if.end60
	jmp	.LBB28_22
.LBB28_22:                              # %if.end61
	jmp	.LBB28_23
.LBB28_23:                              # %if.end62
	jmp	.LBB28_29
.LBB28_24:                              # %if.else63
	cmpl	$0, offset
	jle	.LBB28_26
# %bb.25:                               # %if.then66
	movl	offset, %eax
	addl	$7, %eax
	cltd
	movl	$8, %ecx
	idivl	%ecx
	movslq	%eax, %rdx
	movq	stdout, %rcx
	movabsq	$buf, %rdi
	movl	$1, %esi
	callq	fwrite
.LBB28_26:                              # %if.end70
	movl	offset, %eax
	addl	$7, %eax
	cltd
	movl	$8, %ecx
	idivl	%ecx
	cltq
	addq	bytes_out, %rax
	movq	%rax, bytes_out
	movl	$0, offset
	movq	stdout, %rdi
	callq	fflush
	movq	stdout, %rdi
	callq	ferror
	cmpl	$0, %eax
	je	.LBB28_28
# %bb.27:                               # %if.then78
	callq	writeerr
.LBB28_28:                              # %if.end79
	jmp	.LBB28_29
.LBB28_29:                              # %if.end80
	cmpl	$673692921, -28(%rbp)   # imm = 0x2827BCF9
	jne	.LBB28_31
.LBB28_30:
	addq	$32, %rsp
	popq	%rbp
	.cfi_def_cfa %rsp, 8
	retq
.LBB28_31:                              # %func_exit
	.cfi_def_cfa %rbp, 16
	callq	detect_breach
	jmp	.LBB28_30
.Lfunc_end28:
	.size	output.13, .Lfunc_end28-output.13
	.cfi_endproc
                                        # -- End function
	.globl	decompress.14           # -- Begin function decompress.14
	.p2align	4, 0x90
	.type	decompress.14,@function
decompress.14:                          # @decompress.14
	.cfi_startproc
# %bb.0:                                # %entry
	pushq	%rbp
	.cfi_def_cfa_offset 16
	.cfi_offset %rbp, -16
	movq	%rsp, %rbp
	.cfi_def_cfa_register %rbp
	subq	$48, %rsp
	movl	$1036325858, -36(%rbp)  # imm = 0x3DC513E2
	movl	$9, n_bits
	movq	$511, maxcode           # imm = 0x1FF
	movq	$255, -8(%rbp)
.LBB29_1:                               # %for.cond
                                        # =>This Inner Loop Header: Depth=1
	cmpq	$0, -8(%rbp)
	jl	.LBB29_4
# %bb.2:                                # %for.body
                                        #   in Loop: Header=BB29_1 Depth=1
	movq	-8(%rbp), %rax
	movw	$0, codetab(,%rax,2)
	movq	-8(%rbp), %rax
	movq	-8(%rbp), %rcx
	movb	%al, htab(,%rcx)
# %bb.3:                                # %for.inc
                                        #   in Loop: Header=BB29_1 Depth=1
	movq	-8(%rbp), %rax
	addq	$-1, %rax
	movq	%rax, -8(%rbp)
	jmp	.LBB29_1
.LBB29_4:                               # %for.end
	movl	block_compress, %eax
	cmpl	$0, %eax
	movl	$257, %eax              # imm = 0x101
	movl	$256, %ecx              # imm = 0x100
	cmovnel	%eax, %ecx
	movslq	%ecx, %rax
	movq	%rax, free_ent
	callq	getcode
	movq	%rax, -32(%rbp)
	movl	%eax, -20(%rbp)
	cmpq	$-1, -32(%rbp)
	jne	.LBB29_6
# %bb.5:                                # %if.then
	jmp	.LBB29_33
.LBB29_6:                               # %if.end
	movl	-20(%rbp), %eax
	movsbl	%al, %edi
	callq	putchar
	movq	stdout, %rdi
	callq	ferror
	cmpl	$0, %eax
	je	.LBB29_8
# %bb.7:                                # %if.then11
	callq	writeerr
.LBB29_8:                               # %if.end12
	movabsq	$htab, %rax
	addq	$65536, %rax            # imm = 0x10000
	movq	%rax, -16(%rbp)
.LBB29_9:                               # %while.cond
                                        # =>This Loop Header: Depth=1
                                        #     Child Loop BB29_13 Depth 2
                                        #     Child Loop BB29_22 Depth 2
                                        #     Child Loop BB29_25 Depth 2
	callq	getcode
	movq	%rax, -8(%rbp)
	cmpq	$-1, %rax
	jle	.LBB29_30
# %bb.10:                               # %while.body
                                        #   in Loop: Header=BB29_9 Depth=1
	cmpq	$256, -8(%rbp)          # imm = 0x100
	jne	.LBB29_19
# %bb.11:                               # %land.lhs.true
                                        #   in Loop: Header=BB29_9 Depth=1
	cmpl	$0, block_compress
	je	.LBB29_19
# %bb.12:                               # %if.then19
                                        #   in Loop: Header=BB29_9 Depth=1
	movq	$255, -8(%rbp)
.LBB29_13:                              # %for.cond20
                                        #   Parent Loop BB29_9 Depth=1
                                        # =>  This Inner Loop Header: Depth=2
	cmpq	$0, -8(%rbp)
	jl	.LBB29_16
# %bb.14:                               # %for.body23
                                        #   in Loop: Header=BB29_13 Depth=2
	movq	-8(%rbp), %rax
	movw	$0, codetab(,%rax,2)
# %bb.15:                               # %for.inc25
                                        #   in Loop: Header=BB29_13 Depth=2
	movq	-8(%rbp), %rax
	addq	$-1, %rax
	movq	%rax, -8(%rbp)
	jmp	.LBB29_13
.LBB29_16:                              # %for.end27
                                        #   in Loop: Header=BB29_9 Depth=1
	movl	$1, clear_flg
	movq	$256, free_ent          # imm = 0x100
	callq	getcode
	movq	%rax, -8(%rbp)
	cmpq	$-1, %rax
	jne	.LBB29_18
# %bb.17:                               # %if.then31
	jmp	.LBB29_31
.LBB29_18:                              # %if.end32
                                        #   in Loop: Header=BB29_9 Depth=1
	jmp	.LBB29_19
.LBB29_19:                              # %if.end33
                                        #   in Loop: Header=BB29_9 Depth=1
	movq	-8(%rbp), %rax
	movq	%rax, -48(%rbp)
	movq	-8(%rbp), %rax
	cmpq	free_ent, %rax
	jl	.LBB29_21
# %bb.20:                               # %if.then36
                                        #   in Loop: Header=BB29_9 Depth=1
	movl	-20(%rbp), %eax
	movq	-16(%rbp), %rcx
	movq	%rcx, %rdx
	addq	$1, %rdx
	movq	%rdx, -16(%rbp)
	movb	%al, (%rcx)
	movq	-32(%rbp), %rax
	movq	%rax, -8(%rbp)
.LBB29_21:                              # %if.end38
                                        #   in Loop: Header=BB29_9 Depth=1
	jmp	.LBB29_22
.LBB29_22:                              # %while.cond39
                                        #   Parent Loop BB29_9 Depth=1
                                        # =>  This Inner Loop Header: Depth=2
	cmpq	$256, -8(%rbp)          # imm = 0x100
	jl	.LBB29_24
# %bb.23:                               # %while.body42
                                        #   in Loop: Header=BB29_22 Depth=2
	movq	-8(%rbp), %rax
	movb	htab(,%rax), %al
	movq	-16(%rbp), %rcx
	movq	%rcx, %rdx
	addq	$1, %rdx
	movq	%rdx, -16(%rbp)
	movb	%al, (%rcx)
	movq	-8(%rbp), %rax
	movzwl	codetab(,%rax,2), %eax
	movq	%rax, -8(%rbp)
	jmp	.LBB29_22
.LBB29_24:                              # %while.end
                                        #   in Loop: Header=BB29_9 Depth=1
	movq	-8(%rbp), %rax
	movzbl	htab(,%rax), %eax
	movl	%eax, -20(%rbp)
	movq	-16(%rbp), %rcx
	movq	%rcx, %rdx
	addq	$1, %rdx
	movq	%rdx, -16(%rbp)
	movb	%al, (%rcx)
.LBB29_25:                              # %do.body
                                        #   Parent Loop BB29_9 Depth=1
                                        # =>  This Inner Loop Header: Depth=2
	movq	-16(%rbp), %rax
	movq	%rax, %rcx
	addq	$-1, %rcx
	movq	%rcx, -16(%rbp)
	movzbl	-1(%rax), %edi
	callq	putchar
# %bb.26:                               # %do.cond
                                        #   in Loop: Header=BB29_25 Depth=2
	movabsq	$htab, %rax
	addq	$65536, %rax            # imm = 0x10000
	cmpq	%rax, -16(%rbp)
	ja	.LBB29_25
# %bb.27:                               # %do.end
                                        #   in Loop: Header=BB29_9 Depth=1
	movq	free_ent, %rax
	movq	%rax, -8(%rbp)
	cmpq	maxmaxcode, %rax
	jge	.LBB29_29
# %bb.28:                               # %if.then58
                                        #   in Loop: Header=BB29_9 Depth=1
	movq	-32(%rbp), %rax
	movq	-8(%rbp), %rcx
	movw	%ax, codetab(,%rcx,2)
	movl	-20(%rbp), %eax
	movq	-8(%rbp), %rcx
	movb	%al, htab(,%rcx)
	movq	-8(%rbp), %rax
	addq	$1, %rax
	movq	%rax, free_ent
.LBB29_29:                              # %if.end63
                                        #   in Loop: Header=BB29_9 Depth=1
	movq	-48(%rbp), %rax
	movq	%rax, -32(%rbp)
	jmp	.LBB29_9
.LBB29_30:                              # %while.end64.loopexit
	jmp	.LBB29_31
.LBB29_31:                              # %while.end64
	movq	stdout, %rdi
	callq	fflush
	movq	stdout, %rdi
	callq	ferror
	cmpl	$0, %eax
	je	.LBB29_33
# %bb.32:                               # %if.then68
	callq	writeerr
.LBB29_33:                              # %if.end69
	cmpl	$1036325858, -36(%rbp)  # imm = 0x3DC513E2
	jne	.LBB29_35
.LBB29_34:
	addq	$48, %rsp
	popq	%rbp
	.cfi_def_cfa %rsp, 8
	retq
.LBB29_35:                              # %func_exit
	.cfi_def_cfa %rbp, 16
	callq	detect_breach
	jmp	.LBB29_34
.Lfunc_end29:
	.size	decompress.14, .Lfunc_end29-decompress.14
	.cfi_endproc
                                        # -- End function
	.globl	output.15               # -- Begin function output.15
	.p2align	4, 0x90
	.type	output.15,@function
output.15:                              # @output.15
	.cfi_startproc
# %bb.0:                                # %entry
	pushq	%rbp
	.cfi_def_cfa_offset 16
	.cfi_offset %rbp, -16
	movq	%rsp, %rbp
	.cfi_def_cfa_register %rbp
	subq	$32, %rsp
	movl	$2019512317, -28(%rbp)  # imm = 0x785F4FFD
	movq	%rdi, -24(%rbp)
	movl	offset, %eax
	movl	%eax, -8(%rbp)
	movl	n_bits, %eax
	movl	%eax, -4(%rbp)
	movabsq	$buf, %rax
	movq	%rax, -16(%rbp)
	cmpq	$0, -24(%rbp)
	jl	.LBB30_24
# %bb.1:                                # %if.then
	movl	-8(%rbp), %eax
	sarl	$3, %eax
	movq	-16(%rbp), %rcx
	cltq
	addq	%rax, %rcx
	movq	%rcx, -16(%rbp)
	movl	-8(%rbp), %eax
	andl	$7, %eax
	movl	%eax, -8(%rbp)
	movq	-16(%rbp), %rax
	movsbl	(%rax), %eax
	movslq	-8(%rbp), %rcx
	movzbl	rmask(,%rcx), %ecx
	andl	%ecx, %eax
	cltq
	movq	-24(%rbp), %rdx
	movl	-8(%rbp), %ecx
                                        # kill: def $cl killed $rcx
	shlq	%cl, %rdx
	movslq	-8(%rbp), %rcx
	movzbl	lmask(,%rcx), %ecx
	andq	%rcx, %rdx
	orq	%rdx, %rax
	movq	-16(%rbp), %rcx
	movb	%al, (%rcx)
	movq	-16(%rbp), %rax
	addq	$1, %rax
	movq	%rax, -16(%rbp)
	movl	$8, %eax
	movl	$8, %ecx
	subl	-8(%rbp), %ecx
	movl	-4(%rbp), %edx
	subl	%ecx, %edx
	movl	%edx, -4(%rbp)
	subl	-8(%rbp), %eax
	movq	-24(%rbp), %rdx
	movl	%eax, %ecx
                                        # kill: def $cl killed $rcx
	sarq	%cl, %rdx
	movq	%rdx, -24(%rbp)
	cmpl	$8, -4(%rbp)
	jl	.LBB30_3
# %bb.2:                                # %if.then15
	movq	-24(%rbp), %rax
	movq	-16(%rbp), %rcx
	movq	%rcx, %rdx
	addq	$1, %rdx
	movq	%rdx, -16(%rbp)
	movb	%al, (%rcx)
	movq	-24(%rbp), %rax
	sarq	$8, %rax
	movq	%rax, -24(%rbp)
	movl	-4(%rbp), %eax
	subl	$8, %eax
	movl	%eax, -4(%rbp)
.LBB30_3:                               # %if.end
	cmpl	$0, -4(%rbp)
	je	.LBB30_5
# %bb.4:                                # %if.then20
	movq	-24(%rbp), %rax
	movq	-16(%rbp), %rcx
	movb	%al, (%rcx)
.LBB30_5:                               # %if.end22
	movl	n_bits, %eax
	addl	offset, %eax
	movl	%eax, offset
	movl	offset, %eax
	movl	n_bits, %ecx
	shll	$3, %ecx
	cmpl	%ecx, %eax
	jne	.LBB30_10
# %bb.6:                                # %if.then26
	movabsq	$buf, %rax
	movq	%rax, -16(%rbp)
	movl	n_bits, %eax
	movl	%eax, -4(%rbp)
	movslq	-4(%rbp), %rax
	addq	bytes_out, %rax
	movq	%rax, bytes_out
.LBB30_7:                               # %do.body
                                        # =>This Inner Loop Header: Depth=1
	movq	-16(%rbp), %rax
	movq	%rax, %rcx
	addq	$1, %rcx
	movq	%rcx, -16(%rbp)
	movsbl	(%rax), %edi
	callq	putchar
# %bb.8:                                # %do.cond
                                        #   in Loop: Header=BB30_7 Depth=1
	movl	-4(%rbp), %eax
	addl	$-1, %eax
	movl	%eax, -4(%rbp)
	cmpl	$0, %eax
	jne	.LBB30_7
# %bb.9:                                # %do.end
	movl	$0, offset
.LBB30_10:                              # %if.end32
	movq	free_ent, %rax
	cmpq	maxcode, %rax
	jg	.LBB30_12
# %bb.11:                               # %lor.lhs.false
	cmpl	$0, clear_flg
	jle	.LBB30_23
.LBB30_12:                              # %if.then37
	cmpl	$0, offset
	jle	.LBB30_16
# %bb.13:                               # %if.then40
	movslq	n_bits, %rdx
	movq	stdout, %rcx
	movabsq	$buf, %rdi
	movl	$1, %esi
	callq	fwrite
	movslq	n_bits, %rcx
	cmpq	%rcx, %rax
	je	.LBB30_15
# %bb.14:                               # %if.then46
	callq	writeerr
.LBB30_15:                              # %if.end47
	movslq	n_bits, %rax
	addq	bytes_out, %rax
	movq	%rax, bytes_out
.LBB30_16:                              # %if.end50
	movl	$0, offset
	cmpl	$0, clear_flg
	je	.LBB30_18
# %bb.17:                               # %if.then52
	movl	$9, n_bits
	movq	$511, maxcode           # imm = 0x1FF
	movl	$0, clear_flg
	jmp	.LBB30_22
.LBB30_18:                              # %if.else
	movl	n_bits, %eax
	addl	$1, %eax
	movl	%eax, n_bits
	movl	n_bits, %eax
	cmpl	maxbits, %eax
	jne	.LBB30_20
# %bb.19:                               # %if.then55
	movq	maxmaxcode, %rax
	movq	%rax, maxcode
	jmp	.LBB30_21
.LBB30_20:                              # %if.else56
	movl	n_bits, %ecx
                                        # kill: def $cl killed $ecx
	movl	$1, %eax
	shll	%cl, %eax
	subl	$1, %eax
	cltq
	movq	%rax, maxcode
.LBB30_21:                              # %if.end60
	jmp	.LBB30_22
.LBB30_22:                              # %if.end61
	jmp	.LBB30_23
.LBB30_23:                              # %if.end62
	jmp	.LBB30_29
.LBB30_24:                              # %if.else63
	cmpl	$0, offset
	jle	.LBB30_26
# %bb.25:                               # %if.then66
	movl	offset, %eax
	addl	$7, %eax
	cltd
	movl	$8, %ecx
	idivl	%ecx
	movslq	%eax, %rdx
	movq	stdout, %rcx
	movabsq	$buf, %rdi
	movl	$1, %esi
	callq	fwrite
.LBB30_26:                              # %if.end70
	movl	offset, %eax
	addl	$7, %eax
	cltd
	movl	$8, %ecx
	idivl	%ecx
	cltq
	addq	bytes_out, %rax
	movq	%rax, bytes_out
	movl	$0, offset
	movq	stdout, %rdi
	callq	fflush
	movq	stdout, %rdi
	callq	ferror
	cmpl	$0, %eax
	je	.LBB30_28
# %bb.27:                               # %if.then78
	callq	writeerr
.LBB30_28:                              # %if.end79
	jmp	.LBB30_29
.LBB30_29:                              # %if.end80
	cmpl	$2019512317, -28(%rbp)  # imm = 0x785F4FFD
	jne	.LBB30_31
.LBB30_30:
	addq	$32, %rsp
	popq	%rbp
	.cfi_def_cfa %rsp, 8
	retq
.LBB30_31:                              # %func_exit
	.cfi_def_cfa %rbp, 16
	callq	detect_breach
	jmp	.LBB30_30
.Lfunc_end30:
	.size	output.15, .Lfunc_end30-output.15
	.cfi_endproc
                                        # -- End function
	.globl	cl_hash.16              # -- Begin function cl_hash.16
	.p2align	4, 0x90
	.type	cl_hash.16,@function
cl_hash.16:                             # @cl_hash.16
	.cfi_startproc
# %bb.0:                                # %entry
	pushq	%rbp
	.cfi_def_cfa_offset 16
	.cfi_offset %rbp, -16
	movq	%rsp, %rbp
	.cfi_def_cfa_register %rbp
	subq	$48, %rsp
	movl	$1459077042, -28(%rbp)  # imm = 0x56F7BFB2
	movq	%rdi, -40(%rbp)
	movq	-40(%rbp), %rax
	shlq	$3, %rax
	movabsq	$htab, %rcx
	addq	%rax, %rcx
	movq	%rcx, -8(%rbp)
	movq	$-1, -16(%rbp)
	movq	-40(%rbp), %rax
	subq	$16, %rax
	movq	%rax, -24(%rbp)
.LBB31_1:                               # %do.body
                                        # =>This Inner Loop Header: Depth=1
	movq	-16(%rbp), %rax
	movq	-8(%rbp), %rcx
	movq	%rax, -128(%rcx)
	movq	-16(%rbp), %rax
	movq	-8(%rbp), %rcx
	movq	%rax, -120(%rcx)
	movq	-16(%rbp), %rax
	movq	-8(%rbp), %rcx
	movq	%rax, -112(%rcx)
	movq	-16(%rbp), %rax
	movq	-8(%rbp), %rcx
	movq	%rax, -104(%rcx)
	movq	-16(%rbp), %rax
	movq	-8(%rbp), %rcx
	movq	%rax, -96(%rcx)
	movq	-16(%rbp), %rax
	movq	-8(%rbp), %rcx
	movq	%rax, -88(%rcx)
	movq	-16(%rbp), %rax
	movq	-8(%rbp), %rcx
	movq	%rax, -80(%rcx)
	movq	-16(%rbp), %rax
	movq	-8(%rbp), %rcx
	movq	%rax, -72(%rcx)
	movq	-16(%rbp), %rax
	movq	-8(%rbp), %rcx
	movq	%rax, -64(%rcx)
	movq	-16(%rbp), %rax
	movq	-8(%rbp), %rcx
	movq	%rax, -56(%rcx)
	movq	-16(%rbp), %rax
	movq	-8(%rbp), %rcx
	movq	%rax, -48(%rcx)
	movq	-16(%rbp), %rax
	movq	-8(%rbp), %rcx
	movq	%rax, -40(%rcx)
	movq	-16(%rbp), %rax
	movq	-8(%rbp), %rcx
	movq	%rax, -32(%rcx)
	movq	-16(%rbp), %rax
	movq	-8(%rbp), %rcx
	movq	%rax, -24(%rcx)
	movq	-16(%rbp), %rax
	movq	-8(%rbp), %rcx
	movq	%rax, -16(%rcx)
	movq	-16(%rbp), %rax
	movq	-8(%rbp), %rcx
	movq	%rax, -8(%rcx)
	movq	-8(%rbp), %rax
	addq	$-128, %rax
	movq	%rax, -8(%rbp)
# %bb.2:                                # %do.cond
                                        #   in Loop: Header=BB31_1 Depth=1
	movq	-24(%rbp), %rax
	subq	$16, %rax
	movq	%rax, -24(%rbp)
	cmpq	$0, %rax
	jge	.LBB31_1
# %bb.3:                                # %do.end
	movq	-24(%rbp), %rax
	addq	$16, %rax
	movq	%rax, -24(%rbp)
.LBB31_4:                               # %for.cond
                                        # =>This Inner Loop Header: Depth=1
	cmpq	$0, -24(%rbp)
	jle	.LBB31_7
# %bb.5:                                # %for.body
                                        #   in Loop: Header=BB31_4 Depth=1
	movq	-16(%rbp), %rax
	movq	-8(%rbp), %rcx
	movq	%rcx, %rdx
	addq	$-8, %rdx
	movq	%rdx, -8(%rbp)
	movq	%rax, -8(%rcx)
# %bb.6:                                # %for.inc
                                        #   in Loop: Header=BB31_4 Depth=1
	movq	-24(%rbp), %rax
	addq	$-1, %rax
	movq	%rax, -24(%rbp)
	jmp	.LBB31_4
.LBB31_7:                               # %for.end
	cmpl	$1459077042, -28(%rbp)  # imm = 0x56F7BFB2
	jne	.LBB31_9
.LBB31_8:
	addq	$48, %rsp
	popq	%rbp
	.cfi_def_cfa %rsp, 8
	retq
.LBB31_9:                               # %func_exit
	.cfi_def_cfa %rbp, 16
	callq	detect_breach
	jmp	.LBB31_8
.Lfunc_end31:
	.size	cl_hash.16, .Lfunc_end31-cl_hash.16
	.cfi_endproc
                                        # -- End function
	.globl	compress.17             # -- Begin function compress.17
	.p2align	4, 0x90
	.type	compress.17,@function
compress.17:                            # @compress.17
	.cfi_startproc
# %bb.0:                                # %entry
	pushq	%rbp
	.cfi_def_cfa_offset 16
	.cfi_offset %rbp, -16
	movq	%rsp, %rbp
	.cfi_def_cfa_register %rbp
	subq	$64, %rsp
	movl	$2060620331, -56(%rbp)  # imm = 0x7AD2922B
	movq	$0, -8(%rbp)
	cmpl	$0, nomagic
	jne	.LBB32_4
# %bb.1:                                # %if.then
	movzbl	magic_header, %edi
	callq	putchar
	movzbl	magic_header+1, %edi
	callq	putchar
	movl	maxbits, %eax
	orl	block_compress, %eax
	movsbl	%al, %edi
	callq	putchar
	movq	stdout, %rdi
	callq	ferror
	cmpl	$0, %eax
	je	.LBB32_3
# %bb.2:                                # %if.then7
	callq	writeerr
.LBB32_3:                               # %if.end
	jmp	.LBB32_4
.LBB32_4:                               # %if.end8
	movl	$0, offset
	movq	$3, bytes_out
	movq	$0, out_count
	movl	$0, clear_flg
	movq	$0, ratio
	movq	$1, in_count
	movq	$10000, checkpoint      # imm = 0x2710
	movl	$9, n_bits
	movq	$511, maxcode           # imm = 0x1FF
	movl	block_compress, %eax
	cmpl	$0, %eax
	movl	$257, %eax              # imm = 0x101
	movl	$256, %ecx              # imm = 0x100
	cmovnel	%eax, %ecx
	movslq	%ecx, %rax
	movq	%rax, free_ent
	callq	getchar
	cltq
	movq	%rax, -24(%rbp)
	movl	$0, -12(%rbp)
	movq	hsize, %rax
	movq	%rax, -32(%rbp)
.LBB32_5:                               # %for.cond
                                        # =>This Inner Loop Header: Depth=1
	cmpq	$65536, -32(%rbp)       # imm = 0x10000
	jge	.LBB32_8
# %bb.6:                                # %for.body
                                        #   in Loop: Header=BB32_5 Depth=1
	movl	-12(%rbp), %eax
	addl	$1, %eax
	movl	%eax, -12(%rbp)
# %bb.7:                                # %for.inc
                                        #   in Loop: Header=BB32_5 Depth=1
	movq	-32(%rbp), %rax
	shlq	$1, %rax
	movq	%rax, -32(%rbp)
	jmp	.LBB32_5
.LBB32_8:                               # %for.end
	movl	$8, %eax
	subl	-12(%rbp), %eax
	movl	%eax, -12(%rbp)
	movq	hsize, %rax
	movq	%rax, -48(%rbp)
	movq	-48(%rbp), %rdi
	callq	cl_hash
.LBB32_9:                               # %while.cond
                                        # =>This Inner Loop Header: Depth=1
	callq	getchar
	movl	%eax, -36(%rbp)
	cmpl	$-1, %eax
	je	.LBB32_46
# %bb.10:                               # %while.body
                                        #   in Loop: Header=BB32_9 Depth=1
	movq	in_count, %rax
	addq	$1, %rax
	movq	%rax, in_count
	movslq	-36(%rbp), %rax
	movl	maxbits, %ecx
                                        # kill: def $cl killed $rcx
	shlq	%cl, %rax
	addq	-24(%rbp), %rax
	movq	%rax, -32(%rbp)
	movl	-36(%rbp), %eax
	movl	-12(%rbp), %ecx
                                        # kill: def $cl killed $ecx
	shll	%cl, %eax
	cltq
	xorq	-24(%rbp), %rax
	movq	%rax, -8(%rbp)
	movq	-8(%rbp), %rax
	movq	htab(,%rax,8), %rax
	cmpq	-32(%rbp), %rax
	jne	.LBB32_13
# %bb.11:                               # %if.then24
                                        #   in Loop: Header=BB32_9 Depth=1
	movq	-8(%rbp), %rax
	movzwl	codetab(,%rax,2), %eax
	movq	%rax, -24(%rbp)
.LBB32_12:                              # %while.cond.backedge
                                        #   in Loop: Header=BB32_9 Depth=1
	jmp	.LBB32_9
.LBB32_13:                              # %if.else
                                        #   in Loop: Header=BB32_9 Depth=1
	movq	-8(%rbp), %rax
	cmpq	$0, htab(,%rax,8)
	jge	.LBB32_15
# %bb.14:                               # %if.then30
                                        #   in Loop: Header=BB32_9 Depth=1
	jmp	.LBB32_39
.LBB32_15:                              # %if.end31
                                        #   in Loop: Header=BB32_9 Depth=1
	jmp	.LBB32_16
.LBB32_16:                              # %if.end32
                                        #   in Loop: Header=BB32_9 Depth=1
	movq	-48(%rbp), %rax
	subq	-8(%rbp), %rax
	movl	%eax, -16(%rbp)
	cmpq	$0, -8(%rbp)
	jne	.LBB32_18
# %bb.17:                               # %if.then37
                                        #   in Loop: Header=BB32_9 Depth=1
	movl	$1, -16(%rbp)
.LBB32_18:                              # %if.end38
                                        #   in Loop: Header=BB32_9 Depth=1
	movslq	-16(%rbp), %rax
	movq	-8(%rbp), %rcx
	subq	%rax, %rcx
	movq	%rcx, -8(%rbp)
	cmpq	$0, %rcx
	jge	.LBB32_20
# %bb.19:                               # %if.then43
                                        #   in Loop: Header=BB32_9 Depth=1
	movq	-48(%rbp), %rax
	addq	-8(%rbp), %rax
	movq	%rax, -8(%rbp)
.LBB32_20:                              # %if.end45
                                        #   in Loop: Header=BB32_9 Depth=1
	movq	-8(%rbp), %rax
	movq	htab(,%rax,8), %rax
	cmpq	-32(%rbp), %rax
	jne	.LBB32_22
# %bb.21:                               # %if.then49
                                        #   in Loop: Header=BB32_9 Depth=1
	movq	-8(%rbp), %rax
	movzwl	codetab(,%rax,2), %eax
	movq	%rax, -24(%rbp)
	jmp	.LBB32_12
.LBB32_22:                              # %if.end52
                                        #   in Loop: Header=BB32_9 Depth=1
	movq	-8(%rbp), %rax
	cmpq	$0, htab(,%rax,8)
	jg	.LBB32_24
# %bb.23:                               # %if.then56
                                        #   in Loop: Header=BB32_9 Depth=1
	jmp	.LBB32_39
.LBB32_24:                              # %if.end57
                                        #   in Loop: Header=BB32_9 Depth=1
	movslq	-16(%rbp), %rax
	movq	-8(%rbp), %rcx
	subq	%rax, %rcx
	movq	%rcx, -8(%rbp)
	cmpq	$0, %rcx
	jge	.LBB32_26
# %bb.25:                               # %if.then62
                                        #   in Loop: Header=BB32_9 Depth=1
	movq	-48(%rbp), %rax
	addq	-8(%rbp), %rax
	movq	%rax, -8(%rbp)
.LBB32_26:                              # %if.end64
                                        #   in Loop: Header=BB32_9 Depth=1
	movq	-8(%rbp), %rax
	movq	htab(,%rax,8), %rax
	cmpq	-32(%rbp), %rax
	jne	.LBB32_28
# %bb.27:                               # %if.then68
                                        #   in Loop: Header=BB32_9 Depth=1
	movq	-8(%rbp), %rax
	movzwl	codetab(,%rax,2), %eax
	movq	%rax, -24(%rbp)
	jmp	.LBB32_12
.LBB32_28:                              # %if.end71
                                        #   in Loop: Header=BB32_9 Depth=1
	movq	-8(%rbp), %rax
	cmpq	$0, htab(,%rax,8)
	jg	.LBB32_30
# %bb.29:                               # %if.then75
                                        #   in Loop: Header=BB32_9 Depth=1
	jmp	.LBB32_39
.LBB32_30:                              # %if.end76
                                        #   in Loop: Header=BB32_9 Depth=1
	movslq	-16(%rbp), %rax
	movq	-8(%rbp), %rcx
	subq	%rax, %rcx
	movq	%rcx, -8(%rbp)
	cmpq	$0, %rcx
	jge	.LBB32_32
# %bb.31:                               # %if.then81
                                        #   in Loop: Header=BB32_9 Depth=1
	movq	-48(%rbp), %rax
	addq	-8(%rbp), %rax
	movq	%rax, -8(%rbp)
.LBB32_32:                              # %if.end83
                                        #   in Loop: Header=BB32_9 Depth=1
	movq	-8(%rbp), %rax
	movq	htab(,%rax,8), %rax
	cmpq	-32(%rbp), %rax
	jne	.LBB32_34
# %bb.33:                               # %if.then87
                                        #   in Loop: Header=BB32_9 Depth=1
	movq	-8(%rbp), %rax
	movzwl	codetab(,%rax,2), %eax
	movq	%rax, -24(%rbp)
	jmp	.LBB32_12
.LBB32_34:                              # %if.end90
                                        #   in Loop: Header=BB32_9 Depth=1
	movq	-8(%rbp), %rax
	cmpq	$0, htab(,%rax,8)
	jle	.LBB32_38
# %bb.35:                               # %if.then94
                                        #   in Loop: Header=BB32_9 Depth=1
	movl	$0, -52(%rbp)
	movq	-32(%rbp), %rsi
	movl	-16(%rbp), %edx
	movq	-48(%rbp), %rcx
	leaq	-8(%rbp), %rdi
                                        # kill: def $ecx killed $ecx killed $rcx
	leaq	-24(%rbp), %r8
	callq	scott_hack
	movl	%eax, -52(%rbp)
	cmpl	$0, -52(%rbp)
	je	.LBB32_37
# %bb.36:                               # %if.then99
                                        #   in Loop: Header=BB32_9 Depth=1
	jmp	.LBB32_12
.LBB32_37:                              # %if.end100
                                        #   in Loop: Header=BB32_9 Depth=1
	jmp	.LBB32_38
.LBB32_38:                              # %if.end101
                                        #   in Loop: Header=BB32_9 Depth=1
	jmp	.LBB32_39
.LBB32_39:                              # %nomatch
                                        #   in Loop: Header=BB32_9 Depth=1
	movq	-24(%rbp), %rdi
	callq	output
	movq	out_count, %rax
	addq	$1, %rax
	movq	%rax, out_count
	movslq	-36(%rbp), %rax
	movq	%rax, -24(%rbp)
	movq	free_ent, %rax
	cmpq	maxmaxcode, %rax
	jge	.LBB32_41
# %bb.40:                               # %if.then106
                                        #   in Loop: Header=BB32_9 Depth=1
	movq	free_ent, %rax
	movq	%rax, %rcx
	addq	$1, %rcx
	movq	%rcx, free_ent
	movq	-8(%rbp), %rcx
	movw	%ax, codetab(,%rcx,2)
	movq	-32(%rbp), %rax
	movq	-8(%rbp), %rcx
	movq	%rax, htab(,%rcx,8)
	jmp	.LBB32_45
.LBB32_41:                              # %if.else111
                                        #   in Loop: Header=BB32_9 Depth=1
	movq	in_count, %rax
	cmpq	checkpoint, %rax
	jl	.LBB32_44
# %bb.42:                               # %land.lhs.true
                                        #   in Loop: Header=BB32_9 Depth=1
	cmpl	$0, block_compress
	je	.LBB32_44
# %bb.43:                               # %if.then115
                                        #   in Loop: Header=BB32_9 Depth=1
	callq	cl_block
.LBB32_44:                              # %if.end116
                                        #   in Loop: Header=BB32_9 Depth=1
	jmp	.LBB32_45
.LBB32_45:                              # %if.end117
                                        #   in Loop: Header=BB32_9 Depth=1
	jmp	.LBB32_12
.LBB32_46:                              # %while.end
	movq	-24(%rbp), %rdi
	callq	output
	movq	out_count, %rax
	addq	$1, %rax
	movq	%rax, out_count
	movq	$-1, %rdi
	callq	output
	cmpl	$0, zcat_flg
	jne	.LBB32_49
# %bb.47:                               # %land.lhs.true121
	cmpl	$0, quiet
	jne	.LBB32_49
# %bb.48:                               # %if.then123
	movq	stderr, %rdi
	movabsq	$.L.str.19, %rsi
	movb	$0, %al
	callq	fprintf
	movq	stderr, %rdi
	movq	in_count, %rsi
	subq	bytes_out, %rsi
	movq	in_count, %rdx
	callq	prratio
.LBB32_49:                              # %if.end126
	movq	bytes_out, %rax
	cmpq	in_count, %rax
	jle	.LBB32_51
# %bb.50:                               # %if.then129
	movl	$2, exit_stat
.LBB32_51:                              # %if.end130
	cmpl	$2060620331, -56(%rbp)  # imm = 0x7AD2922B
	jne	.LBB32_53
.LBB32_52:
	addq	$64, %rsp
	popq	%rbp
	.cfi_def_cfa %rsp, 8
	retq
.LBB32_53:                              # %func_exit
	.cfi_def_cfa %rbp, 16
	callq	detect_breach
	jmp	.LBB32_52
.Lfunc_end32:
	.size	compress.17, .Lfunc_end32-compress.17
	.cfi_endproc
                                        # -- End function
	.globl	prratio.18              # -- Begin function prratio.18
	.p2align	4, 0x90
	.type	prratio.18,@function
prratio.18:                             # @prratio.18
	.cfi_startproc
# %bb.0:                                # %entry
	pushq	%rbp
	.cfi_def_cfa_offset 16
	.cfi_offset %rbp, -16
	movq	%rsp, %rbp
	.cfi_def_cfa_register %rbp
	subq	$48, %rsp
	movl	$1637555646, -20(%rbp)  # imm = 0x619B1DBE
	movq	%rdi, -32(%rbp)
	movq	%rsi, -16(%rbp)
	movq	%rdx, -40(%rbp)
	cmpq	$214748, -16(%rbp)      # imm = 0x346DC
	jle	.LBB33_2
# %bb.1:                                # %if.then
	movq	-16(%rbp), %rcx
	movq	-40(%rbp), %rax
	cqto
	movl	$10000, %esi            # imm = 0x2710
	idivq	%rsi
	movq	%rax, %rsi
	movq	%rcx, %rax
	cqto
	idivq	%rsi
	movl	%eax, -4(%rbp)
	jmp	.LBB33_3
.LBB33_2:                               # %if.else
	imulq	$10000, -16(%rbp), %rax # imm = 0x2710
	cqto
	idivq	-40(%rbp)
	movl	%eax, -4(%rbp)
.LBB33_3:                               # %if.end
	cmpl	$0, -4(%rbp)
	jge	.LBB33_5
# %bb.4:                                # %if.then6
	movq	-32(%rbp), %rsi
	movl	$45, %edi
	callq	_IO_putc
	xorl	%eax, %eax
	subl	-4(%rbp), %eax
	movl	%eax, -4(%rbp)
.LBB33_5:                               # %if.end7
	movq	-32(%rbp), %rdi
	movl	-4(%rbp), %eax
	cltd
	movl	$100, %ecx
	idivl	%ecx
	movl	%eax, %r8d
	movl	-4(%rbp), %eax
	cltd
	idivl	%ecx
	movl	%edx, %ecx
	movabsq	$.L.str.25, %rsi
	movl	%r8d, %edx
	movb	$0, %al
	callq	fprintf
	cmpl	$1637555646, -20(%rbp)  # imm = 0x619B1DBE
	jne	.LBB33_7
.LBB33_6:
	addq	$48, %rsp
	popq	%rbp
	.cfi_def_cfa %rsp, 8
	retq
.LBB33_7:                               # %func_exit
	.cfi_def_cfa %rbp, 16
	callq	detect_breach
	jmp	.LBB33_6
.Lfunc_end33:
	.size	prratio.18, .Lfunc_end33-prratio.18
	.cfi_endproc
                                        # -- End function
	.globl	scott_hack.19           # -- Begin function scott_hack.19
	.p2align	4, 0x90
	.type	scott_hack.19,@function
scott_hack.19:                          # @scott_hack.19
	.cfi_startproc
# %bb.0:                                # %entry
	pushq	%rbp
	.cfi_def_cfa_offset 16
	.cfi_offset %rbp, -16
	movq	%rsp, %rbp
	.cfi_def_cfa_register %rbp
	pushq	%rbx
	subq	$40, %rsp
	.cfi_offset %rbx, -24
	movl	$937451762, -24(%rbp)   # imm = 0x37E060F2
	movq	%rdi, -16(%rbp)
	movq	%rsi, -48(%rbp)
	movl	%edx, -28(%rbp)
	movl	%ecx, -32(%rbp)
	movq	%r8, -40(%rbp)
.LBB34_1:                               # %probeSH
                                        # =>This Inner Loop Header: Depth=1
	movslq	-28(%rbp), %rax
	movq	-16(%rbp), %rcx
	movq	(%rcx), %rdx
	subq	%rax, %rdx
	movq	%rdx, (%rcx)
	cmpq	$0, %rdx
	jge	.LBB34_3
# %bb.2:                                # %if.then
                                        #   in Loop: Header=BB34_1 Depth=1
	movslq	-32(%rbp), %rax
	movq	-16(%rbp), %rcx
	addq	(%rcx), %rax
	movq	%rax, (%rcx)
.LBB34_3:                               # %if.end
                                        #   in Loop: Header=BB34_1 Depth=1
	movq	-16(%rbp), %rax
	movq	(%rax), %rax
	movq	htab(,%rax,8), %rax
	cmpq	-48(%rbp), %rax
	jne	.LBB34_5
# %bb.4:                                # %if.then5
	movq	-16(%rbp), %rax
	movq	(%rax), %rax
	movzwl	codetab(,%rax,2), %eax
	movq	-40(%rbp), %rcx
	movq	%rax, (%rcx)
	movl	$1, -20(%rbp)
	jmp	.LBB34_8
.LBB34_5:                               # %if.end8
                                        #   in Loop: Header=BB34_1 Depth=1
	movq	-16(%rbp), %rax
	movq	(%rax), %rax
	cmpq	$0, htab(,%rax,8)
	jle	.LBB34_7
# %bb.6:                                # %if.then12
                                        #   in Loop: Header=BB34_1 Depth=1
	jmp	.LBB34_1
.LBB34_7:                               # %if.end13
	movl	$0, -20(%rbp)
.LBB34_8:                               # %return
	movl	-20(%rbp), %ebx
	cmpl	$937451762, -24(%rbp)   # imm = 0x37E060F2
	jne	.LBB34_10
.LBB34_9:
	movl	%ebx, %eax
	addq	$40, %rsp
	popq	%rbx
	popq	%rbp
	.cfi_def_cfa %rsp, 8
	retq
.LBB34_10:                              # %func_exit
	.cfi_def_cfa %rbp, 16
	callq	detect_breach
	jmp	.LBB34_9
.Lfunc_end34:
	.size	scott_hack.19, .Lfunc_end34-scott_hack.19
	.cfi_endproc
                                        # -- End function
	.globl	getcode.20              # -- Begin function getcode.20
	.p2align	4, 0x90
	.type	getcode.20,@function
getcode.20:                             # @getcode.20
	.cfi_startproc
# %bb.0:                                # %entry
	pushq	%rbp
	.cfi_def_cfa_offset 16
	.cfi_offset %rbp, -16
	movq	%rsp, %rbp
	.cfi_def_cfa_register %rbp
	pushq	%rbx
	subq	$40, %rsp
	.cfi_offset %rbx, -24
	movl	$2059825240, -36(%rbp)  # imm = 0x7AC67058
	movabsq	$getcode.buf, %rax
	movq	%rax, -24(%rbp)
	cmpl	$0, clear_flg
	jg	.LBB35_3
# %bb.1:                                # %lor.lhs.false
	movl	getcode.offset, %eax
	cmpl	getcode.size, %eax
	jge	.LBB35_3
# %bb.2:                                # %lor.lhs.false2
	movq	free_ent, %rax
	cmpq	maxcode, %rax
	jle	.LBB35_13
.LBB35_3:                               # %if.then
	movq	free_ent, %rax
	cmpq	maxcode, %rax
	jle	.LBB35_8
# %bb.4:                                # %if.then5
	movl	n_bits, %eax
	addl	$1, %eax
	movl	%eax, n_bits
	movl	n_bits, %eax
	cmpl	maxbits, %eax
	jne	.LBB35_6
# %bb.5:                                # %if.then7
	movq	maxmaxcode, %rax
	movq	%rax, maxcode
	jmp	.LBB35_7
.LBB35_6:                               # %if.else
	movl	n_bits, %ecx
                                        # kill: def $cl killed $ecx
	movl	$1, %eax
	shll	%cl, %eax
	subl	$1, %eax
	cltq
	movq	%rax, maxcode
.LBB35_7:                               # %if.end
	jmp	.LBB35_8
.LBB35_8:                               # %if.end8
	cmpl	$0, clear_flg
	jle	.LBB35_10
# %bb.9:                                # %if.then11
	movl	$9, n_bits
	movq	$511, maxcode           # imm = 0x1FF
	movl	$0, clear_flg
.LBB35_10:                              # %if.end12
	movslq	n_bits, %rdx
	movq	stdin, %rcx
	movabsq	$getcode.buf, %rdi
	movl	$1, %esi
	callq	fread
	movl	%eax, getcode.size
	cmpl	$0, getcode.size
	jg	.LBB35_12
# %bb.11:                               # %if.then17
	movq	$-1, -48(%rbp)
	jmp	.LBB35_16
.LBB35_12:                              # %if.end18
	movl	$0, getcode.offset
	movl	getcode.size, %eax
	shll	$3, %eax
	movl	n_bits, %ecx
	subl	$1, %ecx
	subl	%ecx, %eax
	movl	%eax, getcode.size
.LBB35_13:                              # %if.end22
	movl	getcode.offset, %eax
	movl	%eax, -12(%rbp)
	movl	n_bits, %eax
	movl	%eax, -16(%rbp)
	movl	-12(%rbp), %eax
	sarl	$3, %eax
	movq	-24(%rbp), %rcx
	cltq
	addq	%rax, %rcx
	movq	%rcx, -24(%rbp)
	movl	-12(%rbp), %eax
	andl	$7, %eax
	movl	%eax, -12(%rbp)
	movq	-24(%rbp), %rax
	movq	%rax, %rcx
	addq	$1, %rcx
	movq	%rcx, -24(%rbp)
	movzbl	(%rax), %eax
	movl	-12(%rbp), %ecx
                                        # kill: def $cl killed $ecx
	sarl	%cl, %eax
	cltq
	movq	%rax, -32(%rbp)
	movl	$8, %eax
	movl	$8, %ecx
	subl	-12(%rbp), %ecx
	movl	-16(%rbp), %edx
	subl	%ecx, %edx
	movl	%edx, -16(%rbp)
	subl	-12(%rbp), %eax
	movl	%eax, -12(%rbp)
	cmpl	$8, -16(%rbp)
	jl	.LBB35_15
# %bb.14:                               # %if.then31
	movq	-24(%rbp), %rax
	movq	%rax, %rcx
	addq	$1, %rcx
	movq	%rcx, -24(%rbp)
	movzbl	(%rax), %eax
	movl	-12(%rbp), %ecx
                                        # kill: def $cl killed $ecx
	shll	%cl, %eax
	cltq
	orq	-32(%rbp), %rax
	movq	%rax, -32(%rbp)
	movl	-12(%rbp), %eax
	addl	$8, %eax
	movl	%eax, -12(%rbp)
	movl	-16(%rbp), %eax
	subl	$8, %eax
	movl	%eax, -16(%rbp)
.LBB35_15:                              # %if.end37
	movq	-24(%rbp), %rax
	movzbl	(%rax), %eax
	movslq	-16(%rbp), %rcx
	movzbl	rmask(,%rcx), %ecx
	andl	%ecx, %eax
	movl	-12(%rbp), %ecx
                                        # kill: def $cl killed $ecx
	shll	%cl, %eax
	cltq
	orq	-32(%rbp), %rax
	movq	%rax, -32(%rbp)
	movl	n_bits, %eax
	addl	getcode.offset, %eax
	movl	%eax, getcode.offset
	movq	-32(%rbp), %rax
	movq	%rax, -48(%rbp)
.LBB35_16:                              # %return
	movq	-48(%rbp), %rbx
	cmpl	$2059825240, -36(%rbp)  # imm = 0x7AC67058
	jne	.LBB35_18
.LBB35_17:
	movq	%rbx, %rax
	addq	$40, %rsp
	popq	%rbx
	popq	%rbp
	.cfi_def_cfa %rsp, 8
	retq
.LBB35_18:                              # %func_exit
	.cfi_def_cfa %rbp, 16
	callq	detect_breach
	jmp	.LBB35_17
.Lfunc_end35:
	.size	getcode.20, .Lfunc_end35-getcode.20
	.cfi_endproc
                                        # -- End function
	.globl	output.21               # -- Begin function output.21
	.p2align	4, 0x90
	.type	output.21,@function
output.21:                              # @output.21
	.cfi_startproc
# %bb.0:                                # %entry
	pushq	%rbp
	.cfi_def_cfa_offset 16
	.cfi_offset %rbp, -16
	movq	%rsp, %rbp
	.cfi_def_cfa_register %rbp
	subq	$32, %rsp
	movl	$1767685194, -28(%rbp)  # imm = 0x695CBC4A
	movq	%rdi, -24(%rbp)
	movl	offset, %eax
	movl	%eax, -8(%rbp)
	movl	n_bits, %eax
	movl	%eax, -4(%rbp)
	movabsq	$buf, %rax
	movq	%rax, -16(%rbp)
	cmpq	$0, -24(%rbp)
	jl	.LBB36_24
# %bb.1:                                # %if.then
	movl	-8(%rbp), %eax
	sarl	$3, %eax
	movq	-16(%rbp), %rcx
	cltq
	addq	%rax, %rcx
	movq	%rcx, -16(%rbp)
	movl	-8(%rbp), %eax
	andl	$7, %eax
	movl	%eax, -8(%rbp)
	movq	-16(%rbp), %rax
	movsbl	(%rax), %eax
	movslq	-8(%rbp), %rcx
	movzbl	rmask(,%rcx), %ecx
	andl	%ecx, %eax
	cltq
	movq	-24(%rbp), %rdx
	movl	-8(%rbp), %ecx
                                        # kill: def $cl killed $rcx
	shlq	%cl, %rdx
	movslq	-8(%rbp), %rcx
	movzbl	lmask(,%rcx), %ecx
	andq	%rcx, %rdx
	orq	%rdx, %rax
	movq	-16(%rbp), %rcx
	movb	%al, (%rcx)
	movq	-16(%rbp), %rax
	addq	$1, %rax
	movq	%rax, -16(%rbp)
	movl	$8, %eax
	movl	$8, %ecx
	subl	-8(%rbp), %ecx
	movl	-4(%rbp), %edx
	subl	%ecx, %edx
	movl	%edx, -4(%rbp)
	subl	-8(%rbp), %eax
	movq	-24(%rbp), %rdx
	movl	%eax, %ecx
                                        # kill: def $cl killed $rcx
	sarq	%cl, %rdx
	movq	%rdx, -24(%rbp)
	cmpl	$8, -4(%rbp)
	jl	.LBB36_3
# %bb.2:                                # %if.then15
	movq	-24(%rbp), %rax
	movq	-16(%rbp), %rcx
	movq	%rcx, %rdx
	addq	$1, %rdx
	movq	%rdx, -16(%rbp)
	movb	%al, (%rcx)
	movq	-24(%rbp), %rax
	sarq	$8, %rax
	movq	%rax, -24(%rbp)
	movl	-4(%rbp), %eax
	subl	$8, %eax
	movl	%eax, -4(%rbp)
.LBB36_3:                               # %if.end
	cmpl	$0, -4(%rbp)
	je	.LBB36_5
# %bb.4:                                # %if.then20
	movq	-24(%rbp), %rax
	movq	-16(%rbp), %rcx
	movb	%al, (%rcx)
.LBB36_5:                               # %if.end22
	movl	n_bits, %eax
	addl	offset, %eax
	movl	%eax, offset
	movl	offset, %eax
	movl	n_bits, %ecx
	shll	$3, %ecx
	cmpl	%ecx, %eax
	jne	.LBB36_10
# %bb.6:                                # %if.then26
	movabsq	$buf, %rax
	movq	%rax, -16(%rbp)
	movl	n_bits, %eax
	movl	%eax, -4(%rbp)
	movslq	-4(%rbp), %rax
	addq	bytes_out, %rax
	movq	%rax, bytes_out
.LBB36_7:                               # %do.body
                                        # =>This Inner Loop Header: Depth=1
	movq	-16(%rbp), %rax
	movq	%rax, %rcx
	addq	$1, %rcx
	movq	%rcx, -16(%rbp)
	movsbl	(%rax), %edi
	callq	putchar
# %bb.8:                                # %do.cond
                                        #   in Loop: Header=BB36_7 Depth=1
	movl	-4(%rbp), %eax
	addl	$-1, %eax
	movl	%eax, -4(%rbp)
	cmpl	$0, %eax
	jne	.LBB36_7
# %bb.9:                                # %do.end
	movl	$0, offset
.LBB36_10:                              # %if.end32
	movq	free_ent, %rax
	cmpq	maxcode, %rax
	jg	.LBB36_12
# %bb.11:                               # %lor.lhs.false
	cmpl	$0, clear_flg
	jle	.LBB36_23
.LBB36_12:                              # %if.then37
	cmpl	$0, offset
	jle	.LBB36_16
# %bb.13:                               # %if.then40
	movslq	n_bits, %rdx
	movq	stdout, %rcx
	movabsq	$buf, %rdi
	movl	$1, %esi
	callq	fwrite
	movslq	n_bits, %rcx
	cmpq	%rcx, %rax
	je	.LBB36_15
# %bb.14:                               # %if.then46
	callq	writeerr
.LBB36_15:                              # %if.end47
	movslq	n_bits, %rax
	addq	bytes_out, %rax
	movq	%rax, bytes_out
.LBB36_16:                              # %if.end50
	movl	$0, offset
	cmpl	$0, clear_flg
	je	.LBB36_18
# %bb.17:                               # %if.then52
	movl	$9, n_bits
	movq	$511, maxcode           # imm = 0x1FF
	movl	$0, clear_flg
	jmp	.LBB36_22
.LBB36_18:                              # %if.else
	movl	n_bits, %eax
	addl	$1, %eax
	movl	%eax, n_bits
	movl	n_bits, %eax
	cmpl	maxbits, %eax
	jne	.LBB36_20
# %bb.19:                               # %if.then55
	movq	maxmaxcode, %rax
	movq	%rax, maxcode
	jmp	.LBB36_21
.LBB36_20:                              # %if.else56
	movl	n_bits, %ecx
                                        # kill: def $cl killed $ecx
	movl	$1, %eax
	shll	%cl, %eax
	subl	$1, %eax
	cltq
	movq	%rax, maxcode
.LBB36_21:                              # %if.end60
	jmp	.LBB36_22
.LBB36_22:                              # %if.end61
	jmp	.LBB36_23
.LBB36_23:                              # %if.end62
	jmp	.LBB36_29
.LBB36_24:                              # %if.else63
	cmpl	$0, offset
	jle	.LBB36_26
# %bb.25:                               # %if.then66
	movl	offset, %eax
	addl	$7, %eax
	cltd
	movl	$8, %ecx
	idivl	%ecx
	movslq	%eax, %rdx
	movq	stdout, %rcx
	movabsq	$buf, %rdi
	movl	$1, %esi
	callq	fwrite
.LBB36_26:                              # %if.end70
	movl	offset, %eax
	addl	$7, %eax
	cltd
	movl	$8, %ecx
	idivl	%ecx
	cltq
	addq	bytes_out, %rax
	movq	%rax, bytes_out
	movl	$0, offset
	movq	stdout, %rdi
	callq	fflush
	movq	stdout, %rdi
	callq	ferror
	cmpl	$0, %eax
	je	.LBB36_28
# %bb.27:                               # %if.then78
	callq	writeerr
.LBB36_28:                              # %if.end79
	jmp	.LBB36_29
.LBB36_29:                              # %if.end80
	cmpl	$1767685194, -28(%rbp)  # imm = 0x695CBC4A
	jne	.LBB36_31
.LBB36_30:
	addq	$32, %rsp
	popq	%rbp
	.cfi_def_cfa %rsp, 8
	retq
.LBB36_31:                              # %func_exit
	.cfi_def_cfa %rbp, 16
	callq	detect_breach
	jmp	.LBB36_30
.Lfunc_end36:
	.size	output.21, .Lfunc_end36-output.21
	.cfi_endproc
                                        # -- End function
	.globl	scott_hack.22           # -- Begin function scott_hack.22
	.p2align	4, 0x90
	.type	scott_hack.22,@function
scott_hack.22:                          # @scott_hack.22
	.cfi_startproc
# %bb.0:                                # %entry
	pushq	%rbp
	.cfi_def_cfa_offset 16
	.cfi_offset %rbp, -16
	movq	%rsp, %rbp
	.cfi_def_cfa_register %rbp
	pushq	%rbx
	subq	$40, %rsp
	.cfi_offset %rbx, -24
	movl	$116931422, -24(%rbp)   # imm = 0x6F83B5E
	movq	%rdi, -16(%rbp)
	movq	%rsi, -48(%rbp)
	movl	%edx, -28(%rbp)
	movl	%ecx, -32(%rbp)
	movq	%r8, -40(%rbp)
.LBB37_1:                               # %probeSH
                                        # =>This Inner Loop Header: Depth=1
	movslq	-28(%rbp), %rax
	movq	-16(%rbp), %rcx
	movq	(%rcx), %rdx
	subq	%rax, %rdx
	movq	%rdx, (%rcx)
	cmpq	$0, %rdx
	jge	.LBB37_3
# %bb.2:                                # %if.then
                                        #   in Loop: Header=BB37_1 Depth=1
	movslq	-32(%rbp), %rax
	movq	-16(%rbp), %rcx
	addq	(%rcx), %rax
	movq	%rax, (%rcx)
.LBB37_3:                               # %if.end
                                        #   in Loop: Header=BB37_1 Depth=1
	movq	-16(%rbp), %rax
	movq	(%rax), %rax
	movq	htab(,%rax,8), %rax
	cmpq	-48(%rbp), %rax
	jne	.LBB37_5
# %bb.4:                                # %if.then5
	movq	-16(%rbp), %rax
	movq	(%rax), %rax
	movzwl	codetab(,%rax,2), %eax
	movq	-40(%rbp), %rcx
	movq	%rax, (%rcx)
	movl	$1, -20(%rbp)
	jmp	.LBB37_8
.LBB37_5:                               # %if.end8
                                        #   in Loop: Header=BB37_1 Depth=1
	movq	-16(%rbp), %rax
	movq	(%rax), %rax
	cmpq	$0, htab(,%rax,8)
	jle	.LBB37_7
# %bb.6:                                # %if.then12
                                        #   in Loop: Header=BB37_1 Depth=1
	jmp	.LBB37_1
.LBB37_7:                               # %if.end13
	movl	$0, -20(%rbp)
.LBB37_8:                               # %return
	movl	-20(%rbp), %ebx
	cmpl	$116931422, -24(%rbp)   # imm = 0x6F83B5E
	jne	.LBB37_10
.LBB37_9:
	movl	%ebx, %eax
	addq	$40, %rsp
	popq	%rbx
	popq	%rbp
	.cfi_def_cfa %rsp, 8
	retq
.LBB37_10:                              # %func_exit
	.cfi_def_cfa %rbp, 16
	callq	detect_breach
	jmp	.LBB37_9
.Lfunc_end37:
	.size	scott_hack.22, .Lfunc_end37-scott_hack.22
	.cfi_endproc
                                        # -- End function
	.globl	copystat.23             # -- Begin function copystat.23
	.p2align	4, 0x90
	.type	copystat.23,@function
copystat.23:                            # @copystat.23
	.cfi_startproc
# %bb.0:                                # %entry
	pushq	%rbp
	.cfi_def_cfa_offset 16
	.cfi_offset %rbp, -16
	movq	%rsp, %rbp
	.cfi_def_cfa_register %rbp
	subq	$192, %rsp
	movl	$1175862706, -24(%rbp)  # imm = 0x46163DB2
	movq	%rdi, -16(%rbp)
	movq	%rsi, -8(%rbp)
	movq	stdout, %rdi
	callq	fclose
	movq	-16(%rbp), %rdi
	leaq	-184(%rbp), %rsi
	callq	stat
	cmpl	$0, %eax
	je	.LBB38_2
# %bb.1:                                # %if.then
	movq	-16(%rbp), %rdi
	callq	perror
	jmp	.LBB38_26
.LBB38_2:                               # %if.end
	movl	-160(%rbp), %eax
	andl	$61440, %eax            # imm = 0xF000
	cmpl	$32768, %eax            # imm = 0x8000
	je	.LBB38_6
# %bb.3:                                # %if.then2
	cmpl	$0, quiet
	je	.LBB38_5
# %bb.4:                                # %if.then4
	movq	stderr, %rdi
	movq	-16(%rbp), %rdx
	movabsq	$.L.str.16, %rsi
	movb	$0, %al
	callq	fprintf
.LBB38_5:                               # %if.end6
	movq	stderr, %rdi
	movabsq	$.L.str.20, %rsi
	movb	$0, %al
	callq	fprintf
	movl	$1, exit_stat
	jmp	.LBB38_24
.LBB38_6:                               # %if.else
	cmpq	$1, -168(%rbp)
	jbe	.LBB38_10
# %bb.7:                                # %if.then9
	cmpl	$0, quiet
	je	.LBB38_9
# %bb.8:                                # %if.then11
	movq	stderr, %rdi
	movq	-16(%rbp), %rdx
	movabsq	$.L.str.16, %rsi
	movb	$0, %al
	callq	fprintf
.LBB38_9:                               # %if.end13
	movq	stderr, %rdi
	movq	-168(%rbp), %rdx
	subq	$1, %rdx
	movabsq	$.L.str.21, %rsi
	movb	$0, %al
	callq	fprintf
	movl	$1, exit_stat
	jmp	.LBB38_23
.LBB38_10:                              # %if.else16
	cmpl	$2, exit_stat
	jne	.LBB38_15
# %bb.11:                               # %land.lhs.true
	cmpl	$0, force
	jne	.LBB38_15
# %bb.12:                               # %if.then19
	cmpl	$0, quiet
	jne	.LBB38_14
# %bb.13:                               # %if.then21
	movq	stderr, %rdi
	movabsq	$.L.str.22, %rsi
	movb	$0, %al
	callq	fprintf
.LBB38_14:                              # %if.end23
	jmp	.LBB38_22
.LBB38_15:                              # %if.else24
	movl	$0, exit_stat
	movl	-160(%rbp), %eax
	andl	$4095, %eax             # imm = 0xFFF
	movl	%eax, -20(%rbp)
	movq	-8(%rbp), %rdi
	movl	-20(%rbp), %esi
	callq	chmod
	cmpl	$0, %eax
	je	.LBB38_17
# %bb.16:                               # %if.then29
	movq	-8(%rbp), %rdi
	callq	perror
.LBB38_17:                              # %if.end30
	movq	-8(%rbp), %rdi
	movl	-156(%rbp), %esi
	movl	-152(%rbp), %edx
	callq	chown
	movq	-112(%rbp), %rax
	movq	%rax, -40(%rbp)
	movq	-96(%rbp), %rax
	movq	%rax, -32(%rbp)
	movq	-8(%rbp), %rdi
	leaq	-40(%rbp), %rsi
	callq	utime
	movq	-16(%rbp), %rdi
	callq	unlink
	cmpl	$0, %eax
	je	.LBB38_19
# %bb.18:                               # %if.then36
	movq	-16(%rbp), %rdi
	callq	perror
.LBB38_19:                              # %if.end37
	cmpl	$0, quiet
	jne	.LBB38_21
# %bb.20:                               # %if.then39
	movq	stderr, %rdi
	movq	-8(%rbp), %rdx
	movabsq	$.L.str.23, %rsi
	movb	$0, %al
	callq	fprintf
.LBB38_21:                              # %if.end41
	jmp	.LBB38_26
.LBB38_22:                              # %if.end42
	jmp	.LBB38_23
.LBB38_23:                              # %if.end43
	jmp	.LBB38_24
.LBB38_24:                              # %if.end44
	movq	-8(%rbp), %rdi
	callq	unlink
	cmpl	$0, %eax
	je	.LBB38_26
# %bb.25:                               # %if.then47
	movq	-8(%rbp), %rdi
	callq	perror
.LBB38_26:                              # %if.end48
	cmpl	$1175862706, -24(%rbp)  # imm = 0x46163DB2
	jne	.LBB38_28
.LBB38_27:
	addq	$192, %rsp
	popq	%rbp
	.cfi_def_cfa %rsp, 8
	retq
.LBB38_28:                              # %func_exit
	.cfi_def_cfa %rbp, 16
	callq	detect_breach
	jmp	.LBB38_27
.Lfunc_end38:
	.size	copystat.23, .Lfunc_end38-copystat.23
	.cfi_endproc
                                        # -- End function
	.globl	cl_hash.24              # -- Begin function cl_hash.24
	.p2align	4, 0x90
	.type	cl_hash.24,@function
cl_hash.24:                             # @cl_hash.24
	.cfi_startproc
# %bb.0:                                # %entry
	pushq	%rbp
	.cfi_def_cfa_offset 16
	.cfi_offset %rbp, -16
	movq	%rsp, %rbp
	.cfi_def_cfa_register %rbp
	subq	$48, %rsp
	movl	$1369023222, -28(%rbp)  # imm = 0x5199A2F6
	movq	%rdi, -40(%rbp)
	movq	-40(%rbp), %rax
	shlq	$3, %rax
	movabsq	$htab, %rcx
	addq	%rax, %rcx
	movq	%rcx, -8(%rbp)
	movq	$-1, -16(%rbp)
	movq	-40(%rbp), %rax
	subq	$16, %rax
	movq	%rax, -24(%rbp)
.LBB39_1:                               # %do.body
                                        # =>This Inner Loop Header: Depth=1
	movq	-16(%rbp), %rax
	movq	-8(%rbp), %rcx
	movq	%rax, -128(%rcx)
	movq	-16(%rbp), %rax
	movq	-8(%rbp), %rcx
	movq	%rax, -120(%rcx)
	movq	-16(%rbp), %rax
	movq	-8(%rbp), %rcx
	movq	%rax, -112(%rcx)
	movq	-16(%rbp), %rax
	movq	-8(%rbp), %rcx
	movq	%rax, -104(%rcx)
	movq	-16(%rbp), %rax
	movq	-8(%rbp), %rcx
	movq	%rax, -96(%rcx)
	movq	-16(%rbp), %rax
	movq	-8(%rbp), %rcx
	movq	%rax, -88(%rcx)
	movq	-16(%rbp), %rax
	movq	-8(%rbp), %rcx
	movq	%rax, -80(%rcx)
	movq	-16(%rbp), %rax
	movq	-8(%rbp), %rcx
	movq	%rax, -72(%rcx)
	movq	-16(%rbp), %rax
	movq	-8(%rbp), %rcx
	movq	%rax, -64(%rcx)
	movq	-16(%rbp), %rax
	movq	-8(%rbp), %rcx
	movq	%rax, -56(%rcx)
	movq	-16(%rbp), %rax
	movq	-8(%rbp), %rcx
	movq	%rax, -48(%rcx)
	movq	-16(%rbp), %rax
	movq	-8(%rbp), %rcx
	movq	%rax, -40(%rcx)
	movq	-16(%rbp), %rax
	movq	-8(%rbp), %rcx
	movq	%rax, -32(%rcx)
	movq	-16(%rbp), %rax
	movq	-8(%rbp), %rcx
	movq	%rax, -24(%rcx)
	movq	-16(%rbp), %rax
	movq	-8(%rbp), %rcx
	movq	%rax, -16(%rcx)
	movq	-16(%rbp), %rax
	movq	-8(%rbp), %rcx
	movq	%rax, -8(%rcx)
	movq	-8(%rbp), %rax
	addq	$-128, %rax
	movq	%rax, -8(%rbp)
# %bb.2:                                # %do.cond
                                        #   in Loop: Header=BB39_1 Depth=1
	movq	-24(%rbp), %rax
	subq	$16, %rax
	movq	%rax, -24(%rbp)
	cmpq	$0, %rax
	jge	.LBB39_1
# %bb.3:                                # %do.end
	movq	-24(%rbp), %rax
	addq	$16, %rax
	movq	%rax, -24(%rbp)
.LBB39_4:                               # %for.cond
                                        # =>This Inner Loop Header: Depth=1
	cmpq	$0, -24(%rbp)
	jle	.LBB39_7
# %bb.5:                                # %for.body
                                        #   in Loop: Header=BB39_4 Depth=1
	movq	-16(%rbp), %rax
	movq	-8(%rbp), %rcx
	movq	%rcx, %rdx
	addq	$-8, %rdx
	movq	%rdx, -8(%rbp)
	movq	%rax, -8(%rcx)
# %bb.6:                                # %for.inc
                                        #   in Loop: Header=BB39_4 Depth=1
	movq	-24(%rbp), %rax
	addq	$-1, %rax
	movq	%rax, -24(%rbp)
	jmp	.LBB39_4
.LBB39_7:                               # %for.end
	cmpl	$1369023222, -28(%rbp)  # imm = 0x5199A2F6
	jne	.LBB39_9
.LBB39_8:
	addq	$48, %rsp
	popq	%rbp
	.cfi_def_cfa %rsp, 8
	retq
.LBB39_9:                               # %func_exit
	.cfi_def_cfa %rbp, 16
	callq	detect_breach
	jmp	.LBB39_8
.Lfunc_end39:
	.size	cl_hash.24, .Lfunc_end39-cl_hash.24
	.cfi_endproc
                                        # -- End function
	.globl	prratio.25              # -- Begin function prratio.25
	.p2align	4, 0x90
	.type	prratio.25,@function
prratio.25:                             # @prratio.25
	.cfi_startproc
# %bb.0:                                # %entry
	pushq	%rbp
	.cfi_def_cfa_offset 16
	.cfi_offset %rbp, -16
	movq	%rsp, %rbp
	.cfi_def_cfa_register %rbp
	subq	$48, %rsp
	movl	$1457733946, -20(%rbp)  # imm = 0x56E3413A
	movq	%rdi, -40(%rbp)
	movq	%rsi, -16(%rbp)
	movq	%rdx, -32(%rbp)
	cmpq	$214748, -16(%rbp)      # imm = 0x346DC
	jle	.LBB40_2
# %bb.1:                                # %if.then
	movq	-16(%rbp), %rcx
	movq	-32(%rbp), %rax
	cqto
	movl	$10000, %esi            # imm = 0x2710
	idivq	%rsi
	movq	%rax, %rsi
	movq	%rcx, %rax
	cqto
	idivq	%rsi
	movl	%eax, -4(%rbp)
	jmp	.LBB40_3
.LBB40_2:                               # %if.else
	imulq	$10000, -16(%rbp), %rax # imm = 0x2710
	cqto
	idivq	-32(%rbp)
	movl	%eax, -4(%rbp)
.LBB40_3:                               # %if.end
	cmpl	$0, -4(%rbp)
	jge	.LBB40_5
# %bb.4:                                # %if.then6
	movq	-40(%rbp), %rsi
	movl	$45, %edi
	callq	_IO_putc
	xorl	%eax, %eax
	subl	-4(%rbp), %eax
	movl	%eax, -4(%rbp)
.LBB40_5:                               # %if.end7
	movq	-40(%rbp), %rdi
	movl	-4(%rbp), %eax
	cltd
	movl	$100, %ecx
	idivl	%ecx
	movl	%eax, %r8d
	movl	-4(%rbp), %eax
	cltd
	idivl	%ecx
	movl	%edx, %ecx
	movabsq	$.L.str.25, %rsi
	movl	%r8d, %edx
	movb	$0, %al
	callq	fprintf
	cmpl	$1457733946, -20(%rbp)  # imm = 0x56E3413A
	jne	.LBB40_7
.LBB40_6:
	addq	$48, %rsp
	popq	%rbp
	.cfi_def_cfa %rsp, 8
	retq
.LBB40_7:                               # %func_exit
	.cfi_def_cfa %rbp, 16
	callq	detect_breach
	jmp	.LBB40_6
.Lfunc_end40:
	.size	prratio.25, .Lfunc_end40-prratio.25
	.cfi_endproc
                                        # -- End function
	.globl	scott_hack.26           # -- Begin function scott_hack.26
	.p2align	4, 0x90
	.type	scott_hack.26,@function
scott_hack.26:                          # @scott_hack.26
	.cfi_startproc
# %bb.0:                                # %entry
	pushq	%rbp
	.cfi_def_cfa_offset 16
	.cfi_offset %rbp, -16
	movq	%rsp, %rbp
	.cfi_def_cfa_register %rbp
	pushq	%rbx
	subq	$40, %rsp
	.cfi_offset %rbx, -24
	movl	$867759069, -28(%rbp)   # imm = 0x33B8F3DD
	movq	%rdi, -16(%rbp)
	movq	%rsi, -48(%rbp)
	movl	%edx, -24(%rbp)
	movl	%ecx, -32(%rbp)
	movq	%r8, -40(%rbp)
.LBB41_1:                               # %probeSH
                                        # =>This Inner Loop Header: Depth=1
	movslq	-24(%rbp), %rax
	movq	-16(%rbp), %rcx
	movq	(%rcx), %rdx
	subq	%rax, %rdx
	movq	%rdx, (%rcx)
	cmpq	$0, %rdx
	jge	.LBB41_3
# %bb.2:                                # %if.then
                                        #   in Loop: Header=BB41_1 Depth=1
	movslq	-32(%rbp), %rax
	movq	-16(%rbp), %rcx
	addq	(%rcx), %rax
	movq	%rax, (%rcx)
.LBB41_3:                               # %if.end
                                        #   in Loop: Header=BB41_1 Depth=1
	movq	-16(%rbp), %rax
	movq	(%rax), %rax
	movq	htab(,%rax,8), %rax
	cmpq	-48(%rbp), %rax
	jne	.LBB41_5
# %bb.4:                                # %if.then5
	movq	-16(%rbp), %rax
	movq	(%rax), %rax
	movzwl	codetab(,%rax,2), %eax
	movq	-40(%rbp), %rcx
	movq	%rax, (%rcx)
	movl	$1, -20(%rbp)
	jmp	.LBB41_8
.LBB41_5:                               # %if.end8
                                        #   in Loop: Header=BB41_1 Depth=1
	movq	-16(%rbp), %rax
	movq	(%rax), %rax
	cmpq	$0, htab(,%rax,8)
	jle	.LBB41_7
# %bb.6:                                # %if.then12
                                        #   in Loop: Header=BB41_1 Depth=1
	jmp	.LBB41_1
.LBB41_7:                               # %if.end13
	movl	$0, -20(%rbp)
.LBB41_8:                               # %return
	movl	-20(%rbp), %ebx
	cmpl	$867759069, -28(%rbp)   # imm = 0x33B8F3DD
	jne	.LBB41_10
.LBB41_9:
	movl	%ebx, %eax
	addq	$40, %rsp
	popq	%rbx
	popq	%rbp
	.cfi_def_cfa %rsp, 8
	retq
.LBB41_10:                              # %func_exit
	.cfi_def_cfa %rbp, 16
	callq	detect_breach
	jmp	.LBB41_9
.Lfunc_end41:
	.size	scott_hack.26, .Lfunc_end41-scott_hack.26
	.cfi_endproc
                                        # -- End function
	.globl	output.27               # -- Begin function output.27
	.p2align	4, 0x90
	.type	output.27,@function
output.27:                              # @output.27
	.cfi_startproc
# %bb.0:                                # %entry
	pushq	%rbp
	.cfi_def_cfa_offset 16
	.cfi_offset %rbp, -16
	movq	%rsp, %rbp
	.cfi_def_cfa_register %rbp
	subq	$32, %rsp
	movl	$1820842040, -28(%rbp)  # imm = 0x6C87D838
	movq	%rdi, -24(%rbp)
	movl	offset, %eax
	movl	%eax, -8(%rbp)
	movl	n_bits, %eax
	movl	%eax, -4(%rbp)
	movabsq	$buf, %rax
	movq	%rax, -16(%rbp)
	cmpq	$0, -24(%rbp)
	jl	.LBB42_24
# %bb.1:                                # %if.then
	movl	-8(%rbp), %eax
	sarl	$3, %eax
	movq	-16(%rbp), %rcx
	cltq
	addq	%rax, %rcx
	movq	%rcx, -16(%rbp)
	movl	-8(%rbp), %eax
	andl	$7, %eax
	movl	%eax, -8(%rbp)
	movq	-16(%rbp), %rax
	movsbl	(%rax), %eax
	movslq	-8(%rbp), %rcx
	movzbl	rmask(,%rcx), %ecx
	andl	%ecx, %eax
	cltq
	movq	-24(%rbp), %rdx
	movl	-8(%rbp), %ecx
                                        # kill: def $cl killed $rcx
	shlq	%cl, %rdx
	movslq	-8(%rbp), %rcx
	movzbl	lmask(,%rcx), %ecx
	andq	%rcx, %rdx
	orq	%rdx, %rax
	movq	-16(%rbp), %rcx
	movb	%al, (%rcx)
	movq	-16(%rbp), %rax
	addq	$1, %rax
	movq	%rax, -16(%rbp)
	movl	$8, %eax
	movl	$8, %ecx
	subl	-8(%rbp), %ecx
	movl	-4(%rbp), %edx
	subl	%ecx, %edx
	movl	%edx, -4(%rbp)
	subl	-8(%rbp), %eax
	movq	-24(%rbp), %rdx
	movl	%eax, %ecx
                                        # kill: def $cl killed $rcx
	sarq	%cl, %rdx
	movq	%rdx, -24(%rbp)
	cmpl	$8, -4(%rbp)
	jl	.LBB42_3
# %bb.2:                                # %if.then15
	movq	-24(%rbp), %rax
	movq	-16(%rbp), %rcx
	movq	%rcx, %rdx
	addq	$1, %rdx
	movq	%rdx, -16(%rbp)
	movb	%al, (%rcx)
	movq	-24(%rbp), %rax
	sarq	$8, %rax
	movq	%rax, -24(%rbp)
	movl	-4(%rbp), %eax
	subl	$8, %eax
	movl	%eax, -4(%rbp)
.LBB42_3:                               # %if.end
	cmpl	$0, -4(%rbp)
	je	.LBB42_5
# %bb.4:                                # %if.then20
	movq	-24(%rbp), %rax
	movq	-16(%rbp), %rcx
	movb	%al, (%rcx)
.LBB42_5:                               # %if.end22
	movl	n_bits, %eax
	addl	offset, %eax
	movl	%eax, offset
	movl	offset, %eax
	movl	n_bits, %ecx
	shll	$3, %ecx
	cmpl	%ecx, %eax
	jne	.LBB42_10
# %bb.6:                                # %if.then26
	movabsq	$buf, %rax
	movq	%rax, -16(%rbp)
	movl	n_bits, %eax
	movl	%eax, -4(%rbp)
	movslq	-4(%rbp), %rax
	addq	bytes_out, %rax
	movq	%rax, bytes_out
.LBB42_7:                               # %do.body
                                        # =>This Inner Loop Header: Depth=1
	movq	-16(%rbp), %rax
	movq	%rax, %rcx
	addq	$1, %rcx
	movq	%rcx, -16(%rbp)
	movsbl	(%rax), %edi
	callq	putchar
# %bb.8:                                # %do.cond
                                        #   in Loop: Header=BB42_7 Depth=1
	movl	-4(%rbp), %eax
	addl	$-1, %eax
	movl	%eax, -4(%rbp)
	cmpl	$0, %eax
	jne	.LBB42_7
# %bb.9:                                # %do.end
	movl	$0, offset
.LBB42_10:                              # %if.end32
	movq	free_ent, %rax
	cmpq	maxcode, %rax
	jg	.LBB42_12
# %bb.11:                               # %lor.lhs.false
	cmpl	$0, clear_flg
	jle	.LBB42_23
.LBB42_12:                              # %if.then37
	cmpl	$0, offset
	jle	.LBB42_16
# %bb.13:                               # %if.then40
	movslq	n_bits, %rdx
	movq	stdout, %rcx
	movabsq	$buf, %rdi
	movl	$1, %esi
	callq	fwrite
	movslq	n_bits, %rcx
	cmpq	%rcx, %rax
	je	.LBB42_15
# %bb.14:                               # %if.then46
	callq	writeerr
.LBB42_15:                              # %if.end47
	movslq	n_bits, %rax
	addq	bytes_out, %rax
	movq	%rax, bytes_out
.LBB42_16:                              # %if.end50
	movl	$0, offset
	cmpl	$0, clear_flg
	je	.LBB42_18
# %bb.17:                               # %if.then52
	movl	$9, n_bits
	movq	$511, maxcode           # imm = 0x1FF
	movl	$0, clear_flg
	jmp	.LBB42_22
.LBB42_18:                              # %if.else
	movl	n_bits, %eax
	addl	$1, %eax
	movl	%eax, n_bits
	movl	n_bits, %eax
	cmpl	maxbits, %eax
	jne	.LBB42_20
# %bb.19:                               # %if.then55
	movq	maxmaxcode, %rax
	movq	%rax, maxcode
	jmp	.LBB42_21
.LBB42_20:                              # %if.else56
	movl	n_bits, %ecx
                                        # kill: def $cl killed $ecx
	movl	$1, %eax
	shll	%cl, %eax
	subl	$1, %eax
	cltq
	movq	%rax, maxcode
.LBB42_21:                              # %if.end60
	jmp	.LBB42_22
.LBB42_22:                              # %if.end61
	jmp	.LBB42_23
.LBB42_23:                              # %if.end62
	jmp	.LBB42_29
.LBB42_24:                              # %if.else63
	cmpl	$0, offset
	jle	.LBB42_26
# %bb.25:                               # %if.then66
	movl	offset, %eax
	addl	$7, %eax
	cltd
	movl	$8, %ecx
	idivl	%ecx
	movslq	%eax, %rdx
	movq	stdout, %rcx
	movabsq	$buf, %rdi
	movl	$1, %esi
	callq	fwrite
.LBB42_26:                              # %if.end70
	movl	offset, %eax
	addl	$7, %eax
	cltd
	movl	$8, %ecx
	idivl	%ecx
	cltq
	addq	bytes_out, %rax
	movq	%rax, bytes_out
	movl	$0, offset
	movq	stdout, %rdi
	callq	fflush
	movq	stdout, %rdi
	callq	ferror
	cmpl	$0, %eax
	je	.LBB42_28
# %bb.27:                               # %if.then78
	callq	writeerr
.LBB42_28:                              # %if.end79
	jmp	.LBB42_29
.LBB42_29:                              # %if.end80
	cmpl	$1820842040, -28(%rbp)  # imm = 0x6C87D838
	jne	.LBB42_31
.LBB42_30:
	addq	$32, %rsp
	popq	%rbp
	.cfi_def_cfa %rsp, 8
	retq
.LBB42_31:                              # %func_exit
	.cfi_def_cfa %rbp, 16
	callq	detect_breach
	jmp	.LBB42_30
.Lfunc_end42:
	.size	output.27, .Lfunc_end42-output.27
	.cfi_endproc
                                        # -- End function
	.globl	compress.28             # -- Begin function compress.28
	.p2align	4, 0x90
	.type	compress.28,@function
compress.28:                            # @compress.28
	.cfi_startproc
# %bb.0:                                # %entry
	pushq	%rbp
	.cfi_def_cfa_offset 16
	.cfi_offset %rbp, -16
	movq	%rsp, %rbp
	.cfi_def_cfa_register %rbp
	subq	$64, %rsp
	movl	$1800342251, -56(%rbp)  # imm = 0x6B4F0AEB
	movq	$0, -8(%rbp)
	cmpl	$0, nomagic
	jne	.LBB43_4
# %bb.1:                                # %if.then
	movzbl	magic_header, %edi
	callq	putchar
	movzbl	magic_header+1, %edi
	callq	putchar
	movl	maxbits, %eax
	orl	block_compress, %eax
	movsbl	%al, %edi
	callq	putchar
	movq	stdout, %rdi
	callq	ferror
	cmpl	$0, %eax
	je	.LBB43_3
# %bb.2:                                # %if.then7
	callq	writeerr
.LBB43_3:                               # %if.end
	jmp	.LBB43_4
.LBB43_4:                               # %if.end8
	movl	$0, offset
	movq	$3, bytes_out
	movq	$0, out_count
	movl	$0, clear_flg
	movq	$0, ratio
	movq	$1, in_count
	movq	$10000, checkpoint      # imm = 0x2710
	movl	$9, n_bits
	movq	$511, maxcode           # imm = 0x1FF
	movl	block_compress, %eax
	cmpl	$0, %eax
	movl	$257, %eax              # imm = 0x101
	movl	$256, %ecx              # imm = 0x100
	cmovnel	%eax, %ecx
	movslq	%ecx, %rax
	movq	%rax, free_ent
	callq	getchar
	cltq
	movq	%rax, -32(%rbp)
	movl	$0, -12(%rbp)
	movq	hsize, %rax
	movq	%rax, -24(%rbp)
.LBB43_5:                               # %for.cond
                                        # =>This Inner Loop Header: Depth=1
	cmpq	$65536, -24(%rbp)       # imm = 0x10000
	jge	.LBB43_8
# %bb.6:                                # %for.body
                                        #   in Loop: Header=BB43_5 Depth=1
	movl	-12(%rbp), %eax
	addl	$1, %eax
	movl	%eax, -12(%rbp)
# %bb.7:                                # %for.inc
                                        #   in Loop: Header=BB43_5 Depth=1
	movq	-24(%rbp), %rax
	shlq	$1, %rax
	movq	%rax, -24(%rbp)
	jmp	.LBB43_5
.LBB43_8:                               # %for.end
	movl	$8, %eax
	subl	-12(%rbp), %eax
	movl	%eax, -12(%rbp)
	movq	hsize, %rax
	movq	%rax, -48(%rbp)
	movq	-48(%rbp), %rdi
	callq	cl_hash
.LBB43_9:                               # %while.cond
                                        # =>This Inner Loop Header: Depth=1
	callq	getchar
	movl	%eax, -36(%rbp)
	cmpl	$-1, %eax
	je	.LBB43_46
# %bb.10:                               # %while.body
                                        #   in Loop: Header=BB43_9 Depth=1
	movq	in_count, %rax
	addq	$1, %rax
	movq	%rax, in_count
	movslq	-36(%rbp), %rax
	movl	maxbits, %ecx
                                        # kill: def $cl killed $rcx
	shlq	%cl, %rax
	addq	-32(%rbp), %rax
	movq	%rax, -24(%rbp)
	movl	-36(%rbp), %eax
	movl	-12(%rbp), %ecx
                                        # kill: def $cl killed $ecx
	shll	%cl, %eax
	cltq
	xorq	-32(%rbp), %rax
	movq	%rax, -8(%rbp)
	movq	-8(%rbp), %rax
	movq	htab(,%rax,8), %rax
	cmpq	-24(%rbp), %rax
	jne	.LBB43_13
# %bb.11:                               # %if.then24
                                        #   in Loop: Header=BB43_9 Depth=1
	movq	-8(%rbp), %rax
	movzwl	codetab(,%rax,2), %eax
	movq	%rax, -32(%rbp)
.LBB43_12:                              # %while.cond.backedge
                                        #   in Loop: Header=BB43_9 Depth=1
	jmp	.LBB43_9
.LBB43_13:                              # %if.else
                                        #   in Loop: Header=BB43_9 Depth=1
	movq	-8(%rbp), %rax
	cmpq	$0, htab(,%rax,8)
	jge	.LBB43_15
# %bb.14:                               # %if.then30
                                        #   in Loop: Header=BB43_9 Depth=1
	jmp	.LBB43_39
.LBB43_15:                              # %if.end31
                                        #   in Loop: Header=BB43_9 Depth=1
	jmp	.LBB43_16
.LBB43_16:                              # %if.end32
                                        #   in Loop: Header=BB43_9 Depth=1
	movq	-48(%rbp), %rax
	subq	-8(%rbp), %rax
	movl	%eax, -16(%rbp)
	cmpq	$0, -8(%rbp)
	jne	.LBB43_18
# %bb.17:                               # %if.then37
                                        #   in Loop: Header=BB43_9 Depth=1
	movl	$1, -16(%rbp)
.LBB43_18:                              # %if.end38
                                        #   in Loop: Header=BB43_9 Depth=1
	movslq	-16(%rbp), %rax
	movq	-8(%rbp), %rcx
	subq	%rax, %rcx
	movq	%rcx, -8(%rbp)
	cmpq	$0, %rcx
	jge	.LBB43_20
# %bb.19:                               # %if.then43
                                        #   in Loop: Header=BB43_9 Depth=1
	movq	-48(%rbp), %rax
	addq	-8(%rbp), %rax
	movq	%rax, -8(%rbp)
.LBB43_20:                              # %if.end45
                                        #   in Loop: Header=BB43_9 Depth=1
	movq	-8(%rbp), %rax
	movq	htab(,%rax,8), %rax
	cmpq	-24(%rbp), %rax
	jne	.LBB43_22
# %bb.21:                               # %if.then49
                                        #   in Loop: Header=BB43_9 Depth=1
	movq	-8(%rbp), %rax
	movzwl	codetab(,%rax,2), %eax
	movq	%rax, -32(%rbp)
	jmp	.LBB43_12
.LBB43_22:                              # %if.end52
                                        #   in Loop: Header=BB43_9 Depth=1
	movq	-8(%rbp), %rax
	cmpq	$0, htab(,%rax,8)
	jg	.LBB43_24
# %bb.23:                               # %if.then56
                                        #   in Loop: Header=BB43_9 Depth=1
	jmp	.LBB43_39
.LBB43_24:                              # %if.end57
                                        #   in Loop: Header=BB43_9 Depth=1
	movslq	-16(%rbp), %rax
	movq	-8(%rbp), %rcx
	subq	%rax, %rcx
	movq	%rcx, -8(%rbp)
	cmpq	$0, %rcx
	jge	.LBB43_26
# %bb.25:                               # %if.then62
                                        #   in Loop: Header=BB43_9 Depth=1
	movq	-48(%rbp), %rax
	addq	-8(%rbp), %rax
	movq	%rax, -8(%rbp)
.LBB43_26:                              # %if.end64
                                        #   in Loop: Header=BB43_9 Depth=1
	movq	-8(%rbp), %rax
	movq	htab(,%rax,8), %rax
	cmpq	-24(%rbp), %rax
	jne	.LBB43_28
# %bb.27:                               # %if.then68
                                        #   in Loop: Header=BB43_9 Depth=1
	movq	-8(%rbp), %rax
	movzwl	codetab(,%rax,2), %eax
	movq	%rax, -32(%rbp)
	jmp	.LBB43_12
.LBB43_28:                              # %if.end71
                                        #   in Loop: Header=BB43_9 Depth=1
	movq	-8(%rbp), %rax
	cmpq	$0, htab(,%rax,8)
	jg	.LBB43_30
# %bb.29:                               # %if.then75
                                        #   in Loop: Header=BB43_9 Depth=1
	jmp	.LBB43_39
.LBB43_30:                              # %if.end76
                                        #   in Loop: Header=BB43_9 Depth=1
	movslq	-16(%rbp), %rax
	movq	-8(%rbp), %rcx
	subq	%rax, %rcx
	movq	%rcx, -8(%rbp)
	cmpq	$0, %rcx
	jge	.LBB43_32
# %bb.31:                               # %if.then81
                                        #   in Loop: Header=BB43_9 Depth=1
	movq	-48(%rbp), %rax
	addq	-8(%rbp), %rax
	movq	%rax, -8(%rbp)
.LBB43_32:                              # %if.end83
                                        #   in Loop: Header=BB43_9 Depth=1
	movq	-8(%rbp), %rax
	movq	htab(,%rax,8), %rax
	cmpq	-24(%rbp), %rax
	jne	.LBB43_34
# %bb.33:                               # %if.then87
                                        #   in Loop: Header=BB43_9 Depth=1
	movq	-8(%rbp), %rax
	movzwl	codetab(,%rax,2), %eax
	movq	%rax, -32(%rbp)
	jmp	.LBB43_12
.LBB43_34:                              # %if.end90
                                        #   in Loop: Header=BB43_9 Depth=1
	movq	-8(%rbp), %rax
	cmpq	$0, htab(,%rax,8)
	jle	.LBB43_38
# %bb.35:                               # %if.then94
                                        #   in Loop: Header=BB43_9 Depth=1
	movl	$0, -52(%rbp)
	movq	-24(%rbp), %rsi
	movl	-16(%rbp), %edx
	movq	-48(%rbp), %rcx
	leaq	-8(%rbp), %rdi
                                        # kill: def $ecx killed $ecx killed $rcx
	leaq	-32(%rbp), %r8
	callq	scott_hack
	movl	%eax, -52(%rbp)
	cmpl	$0, -52(%rbp)
	je	.LBB43_37
# %bb.36:                               # %if.then99
                                        #   in Loop: Header=BB43_9 Depth=1
	jmp	.LBB43_12
.LBB43_37:                              # %if.end100
                                        #   in Loop: Header=BB43_9 Depth=1
	jmp	.LBB43_38
.LBB43_38:                              # %if.end101
                                        #   in Loop: Header=BB43_9 Depth=1
	jmp	.LBB43_39
.LBB43_39:                              # %nomatch
                                        #   in Loop: Header=BB43_9 Depth=1
	movq	-32(%rbp), %rdi
	callq	output
	movq	out_count, %rax
	addq	$1, %rax
	movq	%rax, out_count
	movslq	-36(%rbp), %rax
	movq	%rax, -32(%rbp)
	movq	free_ent, %rax
	cmpq	maxmaxcode, %rax
	jge	.LBB43_41
# %bb.40:                               # %if.then106
                                        #   in Loop: Header=BB43_9 Depth=1
	movq	free_ent, %rax
	movq	%rax, %rcx
	addq	$1, %rcx
	movq	%rcx, free_ent
	movq	-8(%rbp), %rcx
	movw	%ax, codetab(,%rcx,2)
	movq	-24(%rbp), %rax
	movq	-8(%rbp), %rcx
	movq	%rax, htab(,%rcx,8)
	jmp	.LBB43_45
.LBB43_41:                              # %if.else111
                                        #   in Loop: Header=BB43_9 Depth=1
	movq	in_count, %rax
	cmpq	checkpoint, %rax
	jl	.LBB43_44
# %bb.42:                               # %land.lhs.true
                                        #   in Loop: Header=BB43_9 Depth=1
	cmpl	$0, block_compress
	je	.LBB43_44
# %bb.43:                               # %if.then115
                                        #   in Loop: Header=BB43_9 Depth=1
	callq	cl_block
.LBB43_44:                              # %if.end116
                                        #   in Loop: Header=BB43_9 Depth=1
	jmp	.LBB43_45
.LBB43_45:                              # %if.end117
                                        #   in Loop: Header=BB43_9 Depth=1
	jmp	.LBB43_12
.LBB43_46:                              # %while.end
	movq	-32(%rbp), %rdi
	callq	output
	movq	out_count, %rax
	addq	$1, %rax
	movq	%rax, out_count
	movq	$-1, %rdi
	callq	output
	cmpl	$0, zcat_flg
	jne	.LBB43_49
# %bb.47:                               # %land.lhs.true121
	cmpl	$0, quiet
	jne	.LBB43_49
# %bb.48:                               # %if.then123
	movq	stderr, %rdi
	movabsq	$.L.str.19, %rsi
	movb	$0, %al
	callq	fprintf
	movq	stderr, %rdi
	movq	in_count, %rsi
	subq	bytes_out, %rsi
	movq	in_count, %rdx
	callq	prratio
.LBB43_49:                              # %if.end126
	movq	bytes_out, %rax
	cmpq	in_count, %rax
	jle	.LBB43_51
# %bb.50:                               # %if.then129
	movl	$2, exit_stat
.LBB43_51:                              # %if.end130
	cmpl	$1800342251, -56(%rbp)  # imm = 0x6B4F0AEB
	jne	.LBB43_53
.LBB43_52:
	addq	$64, %rsp
	popq	%rbp
	.cfi_def_cfa %rsp, 8
	retq
.LBB43_53:                              # %func_exit
	.cfi_def_cfa %rbp, 16
	callq	detect_breach
	jmp	.LBB43_52
.Lfunc_end43:
	.size	compress.28, .Lfunc_end43-compress.28
	.cfi_endproc
                                        # -- End function
	.globl	prratio.29              # -- Begin function prratio.29
	.p2align	4, 0x90
	.type	prratio.29,@function
prratio.29:                             # @prratio.29
	.cfi_startproc
# %bb.0:                                # %entry
	pushq	%rbp
	.cfi_def_cfa_offset 16
	.cfi_offset %rbp, -16
	movq	%rsp, %rbp
	.cfi_def_cfa_register %rbp
	subq	$48, %rsp
	movl	$945323600, -20(%rbp)   # imm = 0x38587E50
	movq	%rdi, -40(%rbp)
	movq	%rsi, -16(%rbp)
	movq	%rdx, -32(%rbp)
	cmpq	$214748, -16(%rbp)      # imm = 0x346DC
	jle	.LBB44_2
# %bb.1:                                # %if.then
	movq	-16(%rbp), %rcx
	movq	-32(%rbp), %rax
	cqto
	movl	$10000, %esi            # imm = 0x2710
	idivq	%rsi
	movq	%rax, %rsi
	movq	%rcx, %rax
	cqto
	idivq	%rsi
	movl	%eax, -4(%rbp)
	jmp	.LBB44_3
.LBB44_2:                               # %if.else
	imulq	$10000, -16(%rbp), %rax # imm = 0x2710
	cqto
	idivq	-32(%rbp)
	movl	%eax, -4(%rbp)
.LBB44_3:                               # %if.end
	cmpl	$0, -4(%rbp)
	jge	.LBB44_5
# %bb.4:                                # %if.then6
	movq	-40(%rbp), %rsi
	movl	$45, %edi
	callq	_IO_putc
	xorl	%eax, %eax
	subl	-4(%rbp), %eax
	movl	%eax, -4(%rbp)
.LBB44_5:                               # %if.end7
	movq	-40(%rbp), %rdi
	movl	-4(%rbp), %eax
	cltd
	movl	$100, %ecx
	idivl	%ecx
	movl	%eax, %r8d
	movl	-4(%rbp), %eax
	cltd
	idivl	%ecx
	movl	%edx, %ecx
	movabsq	$.L.str.25, %rsi
	movl	%r8d, %edx
	movb	$0, %al
	callq	fprintf
	cmpl	$945323600, -20(%rbp)   # imm = 0x38587E50
	jne	.LBB44_7
.LBB44_6:
	addq	$48, %rsp
	popq	%rbp
	.cfi_def_cfa %rsp, 8
	retq
.LBB44_7:                               # %func_exit
	.cfi_def_cfa %rbp, 16
	callq	detect_breach
	jmp	.LBB44_6
.Lfunc_end44:
	.size	prratio.29, .Lfunc_end44-prratio.29
	.cfi_endproc
                                        # -- End function
	.globl	prratio.30              # -- Begin function prratio.30
	.p2align	4, 0x90
	.type	prratio.30,@function
prratio.30:                             # @prratio.30
	.cfi_startproc
# %bb.0:                                # %entry
	pushq	%rbp
	.cfi_def_cfa_offset 16
	.cfi_offset %rbp, -16
	movq	%rsp, %rbp
	.cfi_def_cfa_register %rbp
	subq	$48, %rsp
	movl	$1490052995, -20(%rbp)  # imm = 0x58D06783
	movq	%rdi, -32(%rbp)
	movq	%rsi, -16(%rbp)
	movq	%rdx, -40(%rbp)
	cmpq	$214748, -16(%rbp)      # imm = 0x346DC
	jle	.LBB45_2
# %bb.1:                                # %if.then
	movq	-16(%rbp), %rcx
	movq	-40(%rbp), %rax
	cqto
	movl	$10000, %esi            # imm = 0x2710
	idivq	%rsi
	movq	%rax, %rsi
	movq	%rcx, %rax
	cqto
	idivq	%rsi
	movl	%eax, -4(%rbp)
	jmp	.LBB45_3
.LBB45_2:                               # %if.else
	imulq	$10000, -16(%rbp), %rax # imm = 0x2710
	cqto
	idivq	-40(%rbp)
	movl	%eax, -4(%rbp)
.LBB45_3:                               # %if.end
	cmpl	$0, -4(%rbp)
	jge	.LBB45_5
# %bb.4:                                # %if.then6
	movq	-32(%rbp), %rsi
	movl	$45, %edi
	callq	_IO_putc
	xorl	%eax, %eax
	subl	-4(%rbp), %eax
	movl	%eax, -4(%rbp)
.LBB45_5:                               # %if.end7
	movq	-32(%rbp), %rdi
	movl	-4(%rbp), %eax
	cltd
	movl	$100, %ecx
	idivl	%ecx
	movl	%eax, %r8d
	movl	-4(%rbp), %eax
	cltd
	idivl	%ecx
	movl	%edx, %ecx
	movabsq	$.L.str.25, %rsi
	movl	%r8d, %edx
	movb	$0, %al
	callq	fprintf
	cmpl	$1490052995, -20(%rbp)  # imm = 0x58D06783
	jne	.LBB45_7
.LBB45_6:
	addq	$48, %rsp
	popq	%rbp
	.cfi_def_cfa %rsp, 8
	retq
.LBB45_7:                               # %func_exit
	.cfi_def_cfa %rbp, 16
	callq	detect_breach
	jmp	.LBB45_6
.Lfunc_end45:
	.size	prratio.30, .Lfunc_end45-prratio.30
	.cfi_endproc
                                        # -- End function
	.globl	copystat.31             # -- Begin function copystat.31
	.p2align	4, 0x90
	.type	copystat.31,@function
copystat.31:                            # @copystat.31
	.cfi_startproc
# %bb.0:                                # %entry
	pushq	%rbp
	.cfi_def_cfa_offset 16
	.cfi_offset %rbp, -16
	movq	%rsp, %rbp
	.cfi_def_cfa_register %rbp
	subq	$192, %rsp
	movl	$1617714284, -20(%rbp)  # imm = 0x606C5C6C
	movq	%rdi, -16(%rbp)
	movq	%rsi, -8(%rbp)
	movq	stdout, %rdi
	callq	fclose
	movq	-16(%rbp), %rdi
	leaq	-184(%rbp), %rsi
	callq	stat
	cmpl	$0, %eax
	je	.LBB46_2
# %bb.1:                                # %if.then
	movq	-16(%rbp), %rdi
	callq	perror
	jmp	.LBB46_26
.LBB46_2:                               # %if.end
	movl	-160(%rbp), %eax
	andl	$61440, %eax            # imm = 0xF000
	cmpl	$32768, %eax            # imm = 0x8000
	je	.LBB46_6
# %bb.3:                                # %if.then2
	cmpl	$0, quiet
	je	.LBB46_5
# %bb.4:                                # %if.then4
	movq	stderr, %rdi
	movq	-16(%rbp), %rdx
	movabsq	$.L.str.16, %rsi
	movb	$0, %al
	callq	fprintf
.LBB46_5:                               # %if.end6
	movq	stderr, %rdi
	movabsq	$.L.str.20, %rsi
	movb	$0, %al
	callq	fprintf
	movl	$1, exit_stat
	jmp	.LBB46_24
.LBB46_6:                               # %if.else
	cmpq	$1, -168(%rbp)
	jbe	.LBB46_10
# %bb.7:                                # %if.then9
	cmpl	$0, quiet
	je	.LBB46_9
# %bb.8:                                # %if.then11
	movq	stderr, %rdi
	movq	-16(%rbp), %rdx
	movabsq	$.L.str.16, %rsi
	movb	$0, %al
	callq	fprintf
.LBB46_9:                               # %if.end13
	movq	stderr, %rdi
	movq	-168(%rbp), %rdx
	subq	$1, %rdx
	movabsq	$.L.str.21, %rsi
	movb	$0, %al
	callq	fprintf
	movl	$1, exit_stat
	jmp	.LBB46_23
.LBB46_10:                              # %if.else16
	cmpl	$2, exit_stat
	jne	.LBB46_15
# %bb.11:                               # %land.lhs.true
	cmpl	$0, force
	jne	.LBB46_15
# %bb.12:                               # %if.then19
	cmpl	$0, quiet
	jne	.LBB46_14
# %bb.13:                               # %if.then21
	movq	stderr, %rdi
	movabsq	$.L.str.22, %rsi
	movb	$0, %al
	callq	fprintf
.LBB46_14:                              # %if.end23
	jmp	.LBB46_22
.LBB46_15:                              # %if.else24
	movl	$0, exit_stat
	movl	-160(%rbp), %eax
	andl	$4095, %eax             # imm = 0xFFF
	movl	%eax, -24(%rbp)
	movq	-8(%rbp), %rdi
	movl	-24(%rbp), %esi
	callq	chmod
	cmpl	$0, %eax
	je	.LBB46_17
# %bb.16:                               # %if.then29
	movq	-8(%rbp), %rdi
	callq	perror
.LBB46_17:                              # %if.end30
	movq	-8(%rbp), %rdi
	movl	-156(%rbp), %esi
	movl	-152(%rbp), %edx
	callq	chown
	movq	-112(%rbp), %rax
	movq	%rax, -40(%rbp)
	movq	-96(%rbp), %rax
	movq	%rax, -32(%rbp)
	movq	-8(%rbp), %rdi
	leaq	-40(%rbp), %rsi
	callq	utime
	movq	-16(%rbp), %rdi
	callq	unlink
	cmpl	$0, %eax
	je	.LBB46_19
# %bb.18:                               # %if.then36
	movq	-16(%rbp), %rdi
	callq	perror
.LBB46_19:                              # %if.end37
	cmpl	$0, quiet
	jne	.LBB46_21
# %bb.20:                               # %if.then39
	movq	stderr, %rdi
	movq	-8(%rbp), %rdx
	movabsq	$.L.str.23, %rsi
	movb	$0, %al
	callq	fprintf
.LBB46_21:                              # %if.end41
	jmp	.LBB46_26
.LBB46_22:                              # %if.end42
	jmp	.LBB46_23
.LBB46_23:                              # %if.end43
	jmp	.LBB46_24
.LBB46_24:                              # %if.end44
	movq	-8(%rbp), %rdi
	callq	unlink
	cmpl	$0, %eax
	je	.LBB46_26
# %bb.25:                               # %if.then47
	movq	-8(%rbp), %rdi
	callq	perror
.LBB46_26:                              # %if.end48
	cmpl	$1617714284, -20(%rbp)  # imm = 0x606C5C6C
	jne	.LBB46_28
.LBB46_27:
	addq	$192, %rsp
	popq	%rbp
	.cfi_def_cfa %rsp, 8
	retq
.LBB46_28:                              # %func_exit
	.cfi_def_cfa %rbp, 16
	callq	detect_breach
	jmp	.LBB46_27
.Lfunc_end46:
	.size	copystat.31, .Lfunc_end46-copystat.31
	.cfi_endproc
                                        # -- End function
	.globl	scott_hack.32           # -- Begin function scott_hack.32
	.p2align	4, 0x90
	.type	scott_hack.32,@function
scott_hack.32:                          # @scott_hack.32
	.cfi_startproc
# %bb.0:                                # %entry
	pushq	%rbp
	.cfi_def_cfa_offset 16
	.cfi_offset %rbp, -16
	movq	%rsp, %rbp
	.cfi_def_cfa_register %rbp
	pushq	%rbx
	subq	$40, %rsp
	.cfi_offset %rbx, -24
	movl	$663402509, -32(%rbp)   # imm = 0x278AB80D
	movq	%rdi, -16(%rbp)
	movq	%rsi, -40(%rbp)
	movl	%edx, -24(%rbp)
	movl	%ecx, -28(%rbp)
	movq	%r8, -48(%rbp)
.LBB47_1:                               # %probeSH
                                        # =>This Inner Loop Header: Depth=1
	movslq	-24(%rbp), %rax
	movq	-16(%rbp), %rcx
	movq	(%rcx), %rdx
	subq	%rax, %rdx
	movq	%rdx, (%rcx)
	cmpq	$0, %rdx
	jge	.LBB47_3
# %bb.2:                                # %if.then
                                        #   in Loop: Header=BB47_1 Depth=1
	movslq	-28(%rbp), %rax
	movq	-16(%rbp), %rcx
	addq	(%rcx), %rax
	movq	%rax, (%rcx)
.LBB47_3:                               # %if.end
                                        #   in Loop: Header=BB47_1 Depth=1
	movq	-16(%rbp), %rax
	movq	(%rax), %rax
	movq	htab(,%rax,8), %rax
	cmpq	-40(%rbp), %rax
	jne	.LBB47_5
# %bb.4:                                # %if.then5
	movq	-16(%rbp), %rax
	movq	(%rax), %rax
	movzwl	codetab(,%rax,2), %eax
	movq	-48(%rbp), %rcx
	movq	%rax, (%rcx)
	movl	$1, -20(%rbp)
	jmp	.LBB47_8
.LBB47_5:                               # %if.end8
                                        #   in Loop: Header=BB47_1 Depth=1
	movq	-16(%rbp), %rax
	movq	(%rax), %rax
	cmpq	$0, htab(,%rax,8)
	jle	.LBB47_7
# %bb.6:                                # %if.then12
                                        #   in Loop: Header=BB47_1 Depth=1
	jmp	.LBB47_1
.LBB47_7:                               # %if.end13
	movl	$0, -20(%rbp)
.LBB47_8:                               # %return
	movl	-20(%rbp), %ebx
	cmpl	$663402509, -32(%rbp)   # imm = 0x278AB80D
	jne	.LBB47_10
.LBB47_9:
	movl	%ebx, %eax
	addq	$40, %rsp
	popq	%rbx
	popq	%rbp
	.cfi_def_cfa %rsp, 8
	retq
.LBB47_10:                              # %func_exit
	.cfi_def_cfa %rbp, 16
	callq	detect_breach
	jmp	.LBB47_9
.Lfunc_end47:
	.size	scott_hack.32, .Lfunc_end47-scott_hack.32
	.cfi_endproc
                                        # -- End function
	.globl	decompress.33           # -- Begin function decompress.33
	.p2align	4, 0x90
	.type	decompress.33,@function
decompress.33:                          # @decompress.33
	.cfi_startproc
# %bb.0:                                # %entry
	pushq	%rbp
	.cfi_def_cfa_offset 16
	.cfi_offset %rbp, -16
	movq	%rsp, %rbp
	.cfi_def_cfa_register %rbp
	subq	$48, %rsp
	movl	$929756773, -36(%rbp)   # imm = 0x376AF665
	movl	$9, n_bits
	movq	$511, maxcode           # imm = 0x1FF
	movq	$255, -8(%rbp)
.LBB48_1:                               # %for.cond
                                        # =>This Inner Loop Header: Depth=1
	cmpq	$0, -8(%rbp)
	jl	.LBB48_4
# %bb.2:                                # %for.body
                                        #   in Loop: Header=BB48_1 Depth=1
	movq	-8(%rbp), %rax
	movw	$0, codetab(,%rax,2)
	movq	-8(%rbp), %rax
	movq	-8(%rbp), %rcx
	movb	%al, htab(,%rcx)
# %bb.3:                                # %for.inc
                                        #   in Loop: Header=BB48_1 Depth=1
	movq	-8(%rbp), %rax
	addq	$-1, %rax
	movq	%rax, -8(%rbp)
	jmp	.LBB48_1
.LBB48_4:                               # %for.end
	movl	block_compress, %eax
	cmpl	$0, %eax
	movl	$257, %eax              # imm = 0x101
	movl	$256, %ecx              # imm = 0x100
	cmovnel	%eax, %ecx
	movslq	%ecx, %rax
	movq	%rax, free_ent
	callq	getcode
	movq	%rax, -32(%rbp)
	movl	%eax, -20(%rbp)
	cmpq	$-1, -32(%rbp)
	jne	.LBB48_6
# %bb.5:                                # %if.then
	jmp	.LBB48_33
.LBB48_6:                               # %if.end
	movl	-20(%rbp), %eax
	movsbl	%al, %edi
	callq	putchar
	movq	stdout, %rdi
	callq	ferror
	cmpl	$0, %eax
	je	.LBB48_8
# %bb.7:                                # %if.then11
	callq	writeerr
.LBB48_8:                               # %if.end12
	movabsq	$htab, %rax
	addq	$65536, %rax            # imm = 0x10000
	movq	%rax, -16(%rbp)
.LBB48_9:                               # %while.cond
                                        # =>This Loop Header: Depth=1
                                        #     Child Loop BB48_13 Depth 2
                                        #     Child Loop BB48_22 Depth 2
                                        #     Child Loop BB48_25 Depth 2
	callq	getcode
	movq	%rax, -8(%rbp)
	cmpq	$-1, %rax
	jle	.LBB48_30
# %bb.10:                               # %while.body
                                        #   in Loop: Header=BB48_9 Depth=1
	cmpq	$256, -8(%rbp)          # imm = 0x100
	jne	.LBB48_19
# %bb.11:                               # %land.lhs.true
                                        #   in Loop: Header=BB48_9 Depth=1
	cmpl	$0, block_compress
	je	.LBB48_19
# %bb.12:                               # %if.then19
                                        #   in Loop: Header=BB48_9 Depth=1
	movq	$255, -8(%rbp)
.LBB48_13:                              # %for.cond20
                                        #   Parent Loop BB48_9 Depth=1
                                        # =>  This Inner Loop Header: Depth=2
	cmpq	$0, -8(%rbp)
	jl	.LBB48_16
# %bb.14:                               # %for.body23
                                        #   in Loop: Header=BB48_13 Depth=2
	movq	-8(%rbp), %rax
	movw	$0, codetab(,%rax,2)
# %bb.15:                               # %for.inc25
                                        #   in Loop: Header=BB48_13 Depth=2
	movq	-8(%rbp), %rax
	addq	$-1, %rax
	movq	%rax, -8(%rbp)
	jmp	.LBB48_13
.LBB48_16:                              # %for.end27
                                        #   in Loop: Header=BB48_9 Depth=1
	movl	$1, clear_flg
	movq	$256, free_ent          # imm = 0x100
	callq	getcode
	movq	%rax, -8(%rbp)
	cmpq	$-1, %rax
	jne	.LBB48_18
# %bb.17:                               # %if.then31
	jmp	.LBB48_31
.LBB48_18:                              # %if.end32
                                        #   in Loop: Header=BB48_9 Depth=1
	jmp	.LBB48_19
.LBB48_19:                              # %if.end33
                                        #   in Loop: Header=BB48_9 Depth=1
	movq	-8(%rbp), %rax
	movq	%rax, -48(%rbp)
	movq	-8(%rbp), %rax
	cmpq	free_ent, %rax
	jl	.LBB48_21
# %bb.20:                               # %if.then36
                                        #   in Loop: Header=BB48_9 Depth=1
	movl	-20(%rbp), %eax
	movq	-16(%rbp), %rcx
	movq	%rcx, %rdx
	addq	$1, %rdx
	movq	%rdx, -16(%rbp)
	movb	%al, (%rcx)
	movq	-32(%rbp), %rax
	movq	%rax, -8(%rbp)
.LBB48_21:                              # %if.end38
                                        #   in Loop: Header=BB48_9 Depth=1
	jmp	.LBB48_22
.LBB48_22:                              # %while.cond39
                                        #   Parent Loop BB48_9 Depth=1
                                        # =>  This Inner Loop Header: Depth=2
	cmpq	$256, -8(%rbp)          # imm = 0x100
	jl	.LBB48_24
# %bb.23:                               # %while.body42
                                        #   in Loop: Header=BB48_22 Depth=2
	movq	-8(%rbp), %rax
	movb	htab(,%rax), %al
	movq	-16(%rbp), %rcx
	movq	%rcx, %rdx
	addq	$1, %rdx
	movq	%rdx, -16(%rbp)
	movb	%al, (%rcx)
	movq	-8(%rbp), %rax
	movzwl	codetab(,%rax,2), %eax
	movq	%rax, -8(%rbp)
	jmp	.LBB48_22
.LBB48_24:                              # %while.end
                                        #   in Loop: Header=BB48_9 Depth=1
	movq	-8(%rbp), %rax
	movzbl	htab(,%rax), %eax
	movl	%eax, -20(%rbp)
	movq	-16(%rbp), %rcx
	movq	%rcx, %rdx
	addq	$1, %rdx
	movq	%rdx, -16(%rbp)
	movb	%al, (%rcx)
.LBB48_25:                              # %do.body
                                        #   Parent Loop BB48_9 Depth=1
                                        # =>  This Inner Loop Header: Depth=2
	movq	-16(%rbp), %rax
	movq	%rax, %rcx
	addq	$-1, %rcx
	movq	%rcx, -16(%rbp)
	movzbl	-1(%rax), %edi
	callq	putchar
# %bb.26:                               # %do.cond
                                        #   in Loop: Header=BB48_25 Depth=2
	movabsq	$htab, %rax
	addq	$65536, %rax            # imm = 0x10000
	cmpq	%rax, -16(%rbp)
	ja	.LBB48_25
# %bb.27:                               # %do.end
                                        #   in Loop: Header=BB48_9 Depth=1
	movq	free_ent, %rax
	movq	%rax, -8(%rbp)
	cmpq	maxmaxcode, %rax
	jge	.LBB48_29
# %bb.28:                               # %if.then58
                                        #   in Loop: Header=BB48_9 Depth=1
	movq	-32(%rbp), %rax
	movq	-8(%rbp), %rcx
	movw	%ax, codetab(,%rcx,2)
	movl	-20(%rbp), %eax
	movq	-8(%rbp), %rcx
	movb	%al, htab(,%rcx)
	movq	-8(%rbp), %rax
	addq	$1, %rax
	movq	%rax, free_ent
.LBB48_29:                              # %if.end63
                                        #   in Loop: Header=BB48_9 Depth=1
	movq	-48(%rbp), %rax
	movq	%rax, -32(%rbp)
	jmp	.LBB48_9
.LBB48_30:                              # %while.end64.loopexit
	jmp	.LBB48_31
.LBB48_31:                              # %while.end64
	movq	stdout, %rdi
	callq	fflush
	movq	stdout, %rdi
	callq	ferror
	cmpl	$0, %eax
	je	.LBB48_33
# %bb.32:                               # %if.then68
	callq	writeerr
.LBB48_33:                              # %if.end69
	cmpl	$929756773, -36(%rbp)   # imm = 0x376AF665
	jne	.LBB48_35
.LBB48_34:
	addq	$48, %rsp
	popq	%rbp
	.cfi_def_cfa %rsp, 8
	retq
.LBB48_35:                              # %func_exit
	.cfi_def_cfa %rbp, 16
	callq	detect_breach
	jmp	.LBB48_34
.Lfunc_end48:
	.size	decompress.33, .Lfunc_end48-decompress.33
	.cfi_endproc
                                        # -- End function
	.globl	copystat.34             # -- Begin function copystat.34
	.p2align	4, 0x90
	.type	copystat.34,@function
copystat.34:                            # @copystat.34
	.cfi_startproc
# %bb.0:                                # %entry
	pushq	%rbp
	.cfi_def_cfa_offset 16
	.cfi_offset %rbp, -16
	movq	%rsp, %rbp
	.cfi_def_cfa_register %rbp
	subq	$192, %rsp
	movl	$1194261406, -20(%rbp)  # imm = 0x472EFB9E
	movq	%rdi, -16(%rbp)
	movq	%rsi, -8(%rbp)
	movq	stdout, %rdi
	callq	fclose
	movq	-16(%rbp), %rdi
	leaq	-184(%rbp), %rsi
	callq	stat
	cmpl	$0, %eax
	je	.LBB49_2
# %bb.1:                                # %if.then
	movq	-16(%rbp), %rdi
	callq	perror
	jmp	.LBB49_26
.LBB49_2:                               # %if.end
	movl	-160(%rbp), %eax
	andl	$61440, %eax            # imm = 0xF000
	cmpl	$32768, %eax            # imm = 0x8000
	je	.LBB49_6
# %bb.3:                                # %if.then2
	cmpl	$0, quiet
	je	.LBB49_5
# %bb.4:                                # %if.then4
	movq	stderr, %rdi
	movq	-16(%rbp), %rdx
	movabsq	$.L.str.16, %rsi
	movb	$0, %al
	callq	fprintf
.LBB49_5:                               # %if.end6
	movq	stderr, %rdi
	movabsq	$.L.str.20, %rsi
	movb	$0, %al
	callq	fprintf
	movl	$1, exit_stat
	jmp	.LBB49_24
.LBB49_6:                               # %if.else
	cmpq	$1, -168(%rbp)
	jbe	.LBB49_10
# %bb.7:                                # %if.then9
	cmpl	$0, quiet
	je	.LBB49_9
# %bb.8:                                # %if.then11
	movq	stderr, %rdi
	movq	-16(%rbp), %rdx
	movabsq	$.L.str.16, %rsi
	movb	$0, %al
	callq	fprintf
.LBB49_9:                               # %if.end13
	movq	stderr, %rdi
	movq	-168(%rbp), %rdx
	subq	$1, %rdx
	movabsq	$.L.str.21, %rsi
	movb	$0, %al
	callq	fprintf
	movl	$1, exit_stat
	jmp	.LBB49_23
.LBB49_10:                              # %if.else16
	cmpl	$2, exit_stat
	jne	.LBB49_15
# %bb.11:                               # %land.lhs.true
	cmpl	$0, force
	jne	.LBB49_15
# %bb.12:                               # %if.then19
	cmpl	$0, quiet
	jne	.LBB49_14
# %bb.13:                               # %if.then21
	movq	stderr, %rdi
	movabsq	$.L.str.22, %rsi
	movb	$0, %al
	callq	fprintf
.LBB49_14:                              # %if.end23
	jmp	.LBB49_22
.LBB49_15:                              # %if.else24
	movl	$0, exit_stat
	movl	-160(%rbp), %eax
	andl	$4095, %eax             # imm = 0xFFF
	movl	%eax, -24(%rbp)
	movq	-8(%rbp), %rdi
	movl	-24(%rbp), %esi
	callq	chmod
	cmpl	$0, %eax
	je	.LBB49_17
# %bb.16:                               # %if.then29
	movq	-8(%rbp), %rdi
	callq	perror
.LBB49_17:                              # %if.end30
	movq	-8(%rbp), %rdi
	movl	-156(%rbp), %esi
	movl	-152(%rbp), %edx
	callq	chown
	movq	-112(%rbp), %rax
	movq	%rax, -40(%rbp)
	movq	-96(%rbp), %rax
	movq	%rax, -32(%rbp)
	movq	-8(%rbp), %rdi
	leaq	-40(%rbp), %rsi
	callq	utime
	movq	-16(%rbp), %rdi
	callq	unlink
	cmpl	$0, %eax
	je	.LBB49_19
# %bb.18:                               # %if.then36
	movq	-16(%rbp), %rdi
	callq	perror
.LBB49_19:                              # %if.end37
	cmpl	$0, quiet
	jne	.LBB49_21
# %bb.20:                               # %if.then39
	movq	stderr, %rdi
	movq	-8(%rbp), %rdx
	movabsq	$.L.str.23, %rsi
	movb	$0, %al
	callq	fprintf
.LBB49_21:                              # %if.end41
	jmp	.LBB49_26
.LBB49_22:                              # %if.end42
	jmp	.LBB49_23
.LBB49_23:                              # %if.end43
	jmp	.LBB49_24
.LBB49_24:                              # %if.end44
	movq	-8(%rbp), %rdi
	callq	unlink
	cmpl	$0, %eax
	je	.LBB49_26
# %bb.25:                               # %if.then47
	movq	-8(%rbp), %rdi
	callq	perror
.LBB49_26:                              # %if.end48
	cmpl	$1194261406, -20(%rbp)  # imm = 0x472EFB9E
	jne	.LBB49_28
.LBB49_27:
	addq	$192, %rsp
	popq	%rbp
	.cfi_def_cfa %rsp, 8
	retq
.LBB49_28:                              # %func_exit
	.cfi_def_cfa %rbp, 16
	callq	detect_breach
	jmp	.LBB49_27
.Lfunc_end49:
	.size	copystat.34, .Lfunc_end49-copystat.34
	.cfi_endproc
                                        # -- End function
	.globl	scott_hack.35           # -- Begin function scott_hack.35
	.p2align	4, 0x90
	.type	scott_hack.35,@function
scott_hack.35:                          # @scott_hack.35
	.cfi_startproc
# %bb.0:                                # %entry
	pushq	%rbp
	.cfi_def_cfa_offset 16
	.cfi_offset %rbp, -16
	movq	%rsp, %rbp
	.cfi_def_cfa_register %rbp
	pushq	%rbx
	subq	$40, %rsp
	.cfi_offset %rbx, -24
	movl	$1059499757, -28(%rbp)  # imm = 0x3F26AEED
	movq	%rdi, -16(%rbp)
	movq	%rsi, -48(%rbp)
	movl	%edx, -24(%rbp)
	movl	%ecx, -32(%rbp)
	movq	%r8, -40(%rbp)
.LBB50_1:                               # %probeSH
                                        # =>This Inner Loop Header: Depth=1
	movslq	-24(%rbp), %rax
	movq	-16(%rbp), %rcx
	movq	(%rcx), %rdx
	subq	%rax, %rdx
	movq	%rdx, (%rcx)
	cmpq	$0, %rdx
	jge	.LBB50_3
# %bb.2:                                # %if.then
                                        #   in Loop: Header=BB50_1 Depth=1
	movslq	-32(%rbp), %rax
	movq	-16(%rbp), %rcx
	addq	(%rcx), %rax
	movq	%rax, (%rcx)
.LBB50_3:                               # %if.end
                                        #   in Loop: Header=BB50_1 Depth=1
	movq	-16(%rbp), %rax
	movq	(%rax), %rax
	movq	htab(,%rax,8), %rax
	cmpq	-48(%rbp), %rax
	jne	.LBB50_5
# %bb.4:                                # %if.then5
	movq	-16(%rbp), %rax
	movq	(%rax), %rax
	movzwl	codetab(,%rax,2), %eax
	movq	-40(%rbp), %rcx
	movq	%rax, (%rcx)
	movl	$1, -20(%rbp)
	jmp	.LBB50_8
.LBB50_5:                               # %if.end8
                                        #   in Loop: Header=BB50_1 Depth=1
	movq	-16(%rbp), %rax
	movq	(%rax), %rax
	cmpq	$0, htab(,%rax,8)
	jle	.LBB50_7
# %bb.6:                                # %if.then12
                                        #   in Loop: Header=BB50_1 Depth=1
	jmp	.LBB50_1
.LBB50_7:                               # %if.end13
	movl	$0, -20(%rbp)
.LBB50_8:                               # %return
	movl	-20(%rbp), %ebx
	cmpl	$1059499757, -28(%rbp)  # imm = 0x3F26AEED
	jne	.LBB50_10
.LBB50_9:
	movl	%ebx, %eax
	addq	$40, %rsp
	popq	%rbx
	popq	%rbp
	.cfi_def_cfa %rsp, 8
	retq
.LBB50_10:                              # %func_exit
	.cfi_def_cfa %rbp, 16
	callq	detect_breach
	jmp	.LBB50_9
.Lfunc_end50:
	.size	scott_hack.35, .Lfunc_end50-scott_hack.35
	.cfi_endproc
                                        # -- End function
	.globl	compress.36             # -- Begin function compress.36
	.p2align	4, 0x90
	.type	compress.36,@function
compress.36:                            # @compress.36
	.cfi_startproc
# %bb.0:                                # %entry
	pushq	%rbp
	.cfi_def_cfa_offset 16
	.cfi_offset %rbp, -16
	movq	%rsp, %rbp
	.cfi_def_cfa_register %rbp
	subq	$64, %rsp
	movl	$1731691922, -56(%rbp)  # imm = 0x67378592
	movq	$0, -8(%rbp)
	cmpl	$0, nomagic
	jne	.LBB51_4
# %bb.1:                                # %if.then
	movzbl	magic_header, %edi
	callq	putchar
	movzbl	magic_header+1, %edi
	callq	putchar
	movl	maxbits, %eax
	orl	block_compress, %eax
	movsbl	%al, %edi
	callq	putchar
	movq	stdout, %rdi
	callq	ferror
	cmpl	$0, %eax
	je	.LBB51_3
# %bb.2:                                # %if.then7
	callq	writeerr
.LBB51_3:                               # %if.end
	jmp	.LBB51_4
.LBB51_4:                               # %if.end8
	movl	$0, offset
	movq	$3, bytes_out
	movq	$0, out_count
	movl	$0, clear_flg
	movq	$0, ratio
	movq	$1, in_count
	movq	$10000, checkpoint      # imm = 0x2710
	movl	$9, n_bits
	movq	$511, maxcode           # imm = 0x1FF
	movl	block_compress, %eax
	cmpl	$0, %eax
	movl	$257, %eax              # imm = 0x101
	movl	$256, %ecx              # imm = 0x100
	cmovnel	%eax, %ecx
	movslq	%ecx, %rax
	movq	%rax, free_ent
	callq	getchar
	cltq
	movq	%rax, -32(%rbp)
	movl	$0, -12(%rbp)
	movq	hsize, %rax
	movq	%rax, -24(%rbp)
.LBB51_5:                               # %for.cond
                                        # =>This Inner Loop Header: Depth=1
	cmpq	$65536, -24(%rbp)       # imm = 0x10000
	jge	.LBB51_8
# %bb.6:                                # %for.body
                                        #   in Loop: Header=BB51_5 Depth=1
	movl	-12(%rbp), %eax
	addl	$1, %eax
	movl	%eax, -12(%rbp)
# %bb.7:                                # %for.inc
                                        #   in Loop: Header=BB51_5 Depth=1
	movq	-24(%rbp), %rax
	shlq	$1, %rax
	movq	%rax, -24(%rbp)
	jmp	.LBB51_5
.LBB51_8:                               # %for.end
	movl	$8, %eax
	subl	-12(%rbp), %eax
	movl	%eax, -12(%rbp)
	movq	hsize, %rax
	movq	%rax, -48(%rbp)
	movq	-48(%rbp), %rdi
	callq	cl_hash
.LBB51_9:                               # %while.cond
                                        # =>This Inner Loop Header: Depth=1
	callq	getchar
	movl	%eax, -36(%rbp)
	cmpl	$-1, %eax
	je	.LBB51_46
# %bb.10:                               # %while.body
                                        #   in Loop: Header=BB51_9 Depth=1
	movq	in_count, %rax
	addq	$1, %rax
	movq	%rax, in_count
	movslq	-36(%rbp), %rax
	movl	maxbits, %ecx
                                        # kill: def $cl killed $rcx
	shlq	%cl, %rax
	addq	-32(%rbp), %rax
	movq	%rax, -24(%rbp)
	movl	-36(%rbp), %eax
	movl	-12(%rbp), %ecx
                                        # kill: def $cl killed $ecx
	shll	%cl, %eax
	cltq
	xorq	-32(%rbp), %rax
	movq	%rax, -8(%rbp)
	movq	-8(%rbp), %rax
	movq	htab(,%rax,8), %rax
	cmpq	-24(%rbp), %rax
	jne	.LBB51_13
# %bb.11:                               # %if.then24
                                        #   in Loop: Header=BB51_9 Depth=1
	movq	-8(%rbp), %rax
	movzwl	codetab(,%rax,2), %eax
	movq	%rax, -32(%rbp)
.LBB51_12:                              # %while.cond.backedge
                                        #   in Loop: Header=BB51_9 Depth=1
	jmp	.LBB51_9
.LBB51_13:                              # %if.else
                                        #   in Loop: Header=BB51_9 Depth=1
	movq	-8(%rbp), %rax
	cmpq	$0, htab(,%rax,8)
	jge	.LBB51_15
# %bb.14:                               # %if.then30
                                        #   in Loop: Header=BB51_9 Depth=1
	jmp	.LBB51_39
.LBB51_15:                              # %if.end31
                                        #   in Loop: Header=BB51_9 Depth=1
	jmp	.LBB51_16
.LBB51_16:                              # %if.end32
                                        #   in Loop: Header=BB51_9 Depth=1
	movq	-48(%rbp), %rax
	subq	-8(%rbp), %rax
	movl	%eax, -16(%rbp)
	cmpq	$0, -8(%rbp)
	jne	.LBB51_18
# %bb.17:                               # %if.then37
                                        #   in Loop: Header=BB51_9 Depth=1
	movl	$1, -16(%rbp)
.LBB51_18:                              # %if.end38
                                        #   in Loop: Header=BB51_9 Depth=1
	movslq	-16(%rbp), %rax
	movq	-8(%rbp), %rcx
	subq	%rax, %rcx
	movq	%rcx, -8(%rbp)
	cmpq	$0, %rcx
	jge	.LBB51_20
# %bb.19:                               # %if.then43
                                        #   in Loop: Header=BB51_9 Depth=1
	movq	-48(%rbp), %rax
	addq	-8(%rbp), %rax
	movq	%rax, -8(%rbp)
.LBB51_20:                              # %if.end45
                                        #   in Loop: Header=BB51_9 Depth=1
	movq	-8(%rbp), %rax
	movq	htab(,%rax,8), %rax
	cmpq	-24(%rbp), %rax
	jne	.LBB51_22
# %bb.21:                               # %if.then49
                                        #   in Loop: Header=BB51_9 Depth=1
	movq	-8(%rbp), %rax
	movzwl	codetab(,%rax,2), %eax
	movq	%rax, -32(%rbp)
	jmp	.LBB51_12
.LBB51_22:                              # %if.end52
                                        #   in Loop: Header=BB51_9 Depth=1
	movq	-8(%rbp), %rax
	cmpq	$0, htab(,%rax,8)
	jg	.LBB51_24
# %bb.23:                               # %if.then56
                                        #   in Loop: Header=BB51_9 Depth=1
	jmp	.LBB51_39
.LBB51_24:                              # %if.end57
                                        #   in Loop: Header=BB51_9 Depth=1
	movslq	-16(%rbp), %rax
	movq	-8(%rbp), %rcx
	subq	%rax, %rcx
	movq	%rcx, -8(%rbp)
	cmpq	$0, %rcx
	jge	.LBB51_26
# %bb.25:                               # %if.then62
                                        #   in Loop: Header=BB51_9 Depth=1
	movq	-48(%rbp), %rax
	addq	-8(%rbp), %rax
	movq	%rax, -8(%rbp)
.LBB51_26:                              # %if.end64
                                        #   in Loop: Header=BB51_9 Depth=1
	movq	-8(%rbp), %rax
	movq	htab(,%rax,8), %rax
	cmpq	-24(%rbp), %rax
	jne	.LBB51_28
# %bb.27:                               # %if.then68
                                        #   in Loop: Header=BB51_9 Depth=1
	movq	-8(%rbp), %rax
	movzwl	codetab(,%rax,2), %eax
	movq	%rax, -32(%rbp)
	jmp	.LBB51_12
.LBB51_28:                              # %if.end71
                                        #   in Loop: Header=BB51_9 Depth=1
	movq	-8(%rbp), %rax
	cmpq	$0, htab(,%rax,8)
	jg	.LBB51_30
# %bb.29:                               # %if.then75
                                        #   in Loop: Header=BB51_9 Depth=1
	jmp	.LBB51_39
.LBB51_30:                              # %if.end76
                                        #   in Loop: Header=BB51_9 Depth=1
	movslq	-16(%rbp), %rax
	movq	-8(%rbp), %rcx
	subq	%rax, %rcx
	movq	%rcx, -8(%rbp)
	cmpq	$0, %rcx
	jge	.LBB51_32
# %bb.31:                               # %if.then81
                                        #   in Loop: Header=BB51_9 Depth=1
	movq	-48(%rbp), %rax
	addq	-8(%rbp), %rax
	movq	%rax, -8(%rbp)
.LBB51_32:                              # %if.end83
                                        #   in Loop: Header=BB51_9 Depth=1
	movq	-8(%rbp), %rax
	movq	htab(,%rax,8), %rax
	cmpq	-24(%rbp), %rax
	jne	.LBB51_34
# %bb.33:                               # %if.then87
                                        #   in Loop: Header=BB51_9 Depth=1
	movq	-8(%rbp), %rax
	movzwl	codetab(,%rax,2), %eax
	movq	%rax, -32(%rbp)
	jmp	.LBB51_12
.LBB51_34:                              # %if.end90
                                        #   in Loop: Header=BB51_9 Depth=1
	movq	-8(%rbp), %rax
	cmpq	$0, htab(,%rax,8)
	jle	.LBB51_38
# %bb.35:                               # %if.then94
                                        #   in Loop: Header=BB51_9 Depth=1
	movl	$0, -52(%rbp)
	movq	-24(%rbp), %rsi
	movl	-16(%rbp), %edx
	movq	-48(%rbp), %rcx
	leaq	-8(%rbp), %rdi
                                        # kill: def $ecx killed $ecx killed $rcx
	leaq	-32(%rbp), %r8
	callq	scott_hack
	movl	%eax, -52(%rbp)
	cmpl	$0, -52(%rbp)
	je	.LBB51_37
# %bb.36:                               # %if.then99
                                        #   in Loop: Header=BB51_9 Depth=1
	jmp	.LBB51_12
.LBB51_37:                              # %if.end100
                                        #   in Loop: Header=BB51_9 Depth=1
	jmp	.LBB51_38
.LBB51_38:                              # %if.end101
                                        #   in Loop: Header=BB51_9 Depth=1
	jmp	.LBB51_39
.LBB51_39:                              # %nomatch
                                        #   in Loop: Header=BB51_9 Depth=1
	movq	-32(%rbp), %rdi
	callq	output
	movq	out_count, %rax
	addq	$1, %rax
	movq	%rax, out_count
	movslq	-36(%rbp), %rax
	movq	%rax, -32(%rbp)
	movq	free_ent, %rax
	cmpq	maxmaxcode, %rax
	jge	.LBB51_41
# %bb.40:                               # %if.then106
                                        #   in Loop: Header=BB51_9 Depth=1
	movq	free_ent, %rax
	movq	%rax, %rcx
	addq	$1, %rcx
	movq	%rcx, free_ent
	movq	-8(%rbp), %rcx
	movw	%ax, codetab(,%rcx,2)
	movq	-24(%rbp), %rax
	movq	-8(%rbp), %rcx
	movq	%rax, htab(,%rcx,8)
	jmp	.LBB51_45
.LBB51_41:                              # %if.else111
                                        #   in Loop: Header=BB51_9 Depth=1
	movq	in_count, %rax
	cmpq	checkpoint, %rax
	jl	.LBB51_44
# %bb.42:                               # %land.lhs.true
                                        #   in Loop: Header=BB51_9 Depth=1
	cmpl	$0, block_compress
	je	.LBB51_44
# %bb.43:                               # %if.then115
                                        #   in Loop: Header=BB51_9 Depth=1
	callq	cl_block
.LBB51_44:                              # %if.end116
                                        #   in Loop: Header=BB51_9 Depth=1
	jmp	.LBB51_45
.LBB51_45:                              # %if.end117
                                        #   in Loop: Header=BB51_9 Depth=1
	jmp	.LBB51_12
.LBB51_46:                              # %while.end
	movq	-32(%rbp), %rdi
	callq	output
	movq	out_count, %rax
	addq	$1, %rax
	movq	%rax, out_count
	movq	$-1, %rdi
	callq	output
	cmpl	$0, zcat_flg
	jne	.LBB51_49
# %bb.47:                               # %land.lhs.true121
	cmpl	$0, quiet
	jne	.LBB51_49
# %bb.48:                               # %if.then123
	movq	stderr, %rdi
	movabsq	$.L.str.19, %rsi
	movb	$0, %al
	callq	fprintf
	movq	stderr, %rdi
	movq	in_count, %rsi
	subq	bytes_out, %rsi
	movq	in_count, %rdx
	callq	prratio
.LBB51_49:                              # %if.end126
	movq	bytes_out, %rax
	cmpq	in_count, %rax
	jle	.LBB51_51
# %bb.50:                               # %if.then129
	movl	$2, exit_stat
.LBB51_51:                              # %if.end130
	cmpl	$1731691922, -56(%rbp)  # imm = 0x67378592
	jne	.LBB51_53
.LBB51_52:
	addq	$64, %rsp
	popq	%rbp
	.cfi_def_cfa %rsp, 8
	retq
.LBB51_53:                              # %func_exit
	.cfi_def_cfa %rbp, 16
	callq	detect_breach
	jmp	.LBB51_52
.Lfunc_end51:
	.size	compress.36, .Lfunc_end51-compress.36
	.cfi_endproc
                                        # -- End function
	.globl	cl_hash.37              # -- Begin function cl_hash.37
	.p2align	4, 0x90
	.type	cl_hash.37,@function
cl_hash.37:                             # @cl_hash.37
	.cfi_startproc
# %bb.0:                                # %entry
	pushq	%rbp
	.cfi_def_cfa_offset 16
	.cfi_offset %rbp, -16
	movq	%rsp, %rbp
	.cfi_def_cfa_register %rbp
	subq	$48, %rsp
	movl	$1480126939, -28(%rbp)  # imm = 0x5838F1DB
	movq	%rdi, -40(%rbp)
	movq	-40(%rbp), %rax
	shlq	$3, %rax
	movabsq	$htab, %rcx
	addq	%rax, %rcx
	movq	%rcx, -8(%rbp)
	movq	$-1, -16(%rbp)
	movq	-40(%rbp), %rax
	subq	$16, %rax
	movq	%rax, -24(%rbp)
.LBB52_1:                               # %do.body
                                        # =>This Inner Loop Header: Depth=1
	movq	-16(%rbp), %rax
	movq	-8(%rbp), %rcx
	movq	%rax, -128(%rcx)
	movq	-16(%rbp), %rax
	movq	-8(%rbp), %rcx
	movq	%rax, -120(%rcx)
	movq	-16(%rbp), %rax
	movq	-8(%rbp), %rcx
	movq	%rax, -112(%rcx)
	movq	-16(%rbp), %rax
	movq	-8(%rbp), %rcx
	movq	%rax, -104(%rcx)
	movq	-16(%rbp), %rax
	movq	-8(%rbp), %rcx
	movq	%rax, -96(%rcx)
	movq	-16(%rbp), %rax
	movq	-8(%rbp), %rcx
	movq	%rax, -88(%rcx)
	movq	-16(%rbp), %rax
	movq	-8(%rbp), %rcx
	movq	%rax, -80(%rcx)
	movq	-16(%rbp), %rax
	movq	-8(%rbp), %rcx
	movq	%rax, -72(%rcx)
	movq	-16(%rbp), %rax
	movq	-8(%rbp), %rcx
	movq	%rax, -64(%rcx)
	movq	-16(%rbp), %rax
	movq	-8(%rbp), %rcx
	movq	%rax, -56(%rcx)
	movq	-16(%rbp), %rax
	movq	-8(%rbp), %rcx
	movq	%rax, -48(%rcx)
	movq	-16(%rbp), %rax
	movq	-8(%rbp), %rcx
	movq	%rax, -40(%rcx)
	movq	-16(%rbp), %rax
	movq	-8(%rbp), %rcx
	movq	%rax, -32(%rcx)
	movq	-16(%rbp), %rax
	movq	-8(%rbp), %rcx
	movq	%rax, -24(%rcx)
	movq	-16(%rbp), %rax
	movq	-8(%rbp), %rcx
	movq	%rax, -16(%rcx)
	movq	-16(%rbp), %rax
	movq	-8(%rbp), %rcx
	movq	%rax, -8(%rcx)
	movq	-8(%rbp), %rax
	addq	$-128, %rax
	movq	%rax, -8(%rbp)
# %bb.2:                                # %do.cond
                                        #   in Loop: Header=BB52_1 Depth=1
	movq	-24(%rbp), %rax
	subq	$16, %rax
	movq	%rax, -24(%rbp)
	cmpq	$0, %rax
	jge	.LBB52_1
# %bb.3:                                # %do.end
	movq	-24(%rbp), %rax
	addq	$16, %rax
	movq	%rax, -24(%rbp)
.LBB52_4:                               # %for.cond
                                        # =>This Inner Loop Header: Depth=1
	cmpq	$0, -24(%rbp)
	jle	.LBB52_7
# %bb.5:                                # %for.body
                                        #   in Loop: Header=BB52_4 Depth=1
	movq	-16(%rbp), %rax
	movq	-8(%rbp), %rcx
	movq	%rcx, %rdx
	addq	$-8, %rdx
	movq	%rdx, -8(%rbp)
	movq	%rax, -8(%rcx)
# %bb.6:                                # %for.inc
                                        #   in Loop: Header=BB52_4 Depth=1
	movq	-24(%rbp), %rax
	addq	$-1, %rax
	movq	%rax, -24(%rbp)
	jmp	.LBB52_4
.LBB52_7:                               # %for.end
	cmpl	$1480126939, -28(%rbp)  # imm = 0x5838F1DB
	jne	.LBB52_9
.LBB52_8:
	addq	$48, %rsp
	popq	%rbp
	.cfi_def_cfa %rsp, 8
	retq
.LBB52_9:                               # %func_exit
	.cfi_def_cfa %rbp, 16
	callq	detect_breach
	jmp	.LBB52_8
.Lfunc_end52:
	.size	cl_hash.37, .Lfunc_end52-cl_hash.37
	.cfi_endproc
                                        # -- End function
	.globl	getcode.38              # -- Begin function getcode.38
	.p2align	4, 0x90
	.type	getcode.38,@function
getcode.38:                             # @getcode.38
	.cfi_startproc
# %bb.0:                                # %entry
	pushq	%rbp
	.cfi_def_cfa_offset 16
	.cfi_offset %rbp, -16
	movq	%rsp, %rbp
	.cfi_def_cfa_register %rbp
	pushq	%rbx
	subq	$40, %rsp
	.cfi_offset %rbx, -24
	movl	$165430793, -36(%rbp)   # imm = 0x9DC4609
	movabsq	$getcode.buf, %rax
	movq	%rax, -24(%rbp)
	cmpl	$0, clear_flg
	jg	.LBB53_3
# %bb.1:                                # %lor.lhs.false
	movl	getcode.offset, %eax
	cmpl	getcode.size, %eax
	jge	.LBB53_3
# %bb.2:                                # %lor.lhs.false2
	movq	free_ent, %rax
	cmpq	maxcode, %rax
	jle	.LBB53_13
.LBB53_3:                               # %if.then
	movq	free_ent, %rax
	cmpq	maxcode, %rax
	jle	.LBB53_8
# %bb.4:                                # %if.then5
	movl	n_bits, %eax
	addl	$1, %eax
	movl	%eax, n_bits
	movl	n_bits, %eax
	cmpl	maxbits, %eax
	jne	.LBB53_6
# %bb.5:                                # %if.then7
	movq	maxmaxcode, %rax
	movq	%rax, maxcode
	jmp	.LBB53_7
.LBB53_6:                               # %if.else
	movl	n_bits, %ecx
                                        # kill: def $cl killed $ecx
	movl	$1, %eax
	shll	%cl, %eax
	subl	$1, %eax
	cltq
	movq	%rax, maxcode
.LBB53_7:                               # %if.end
	jmp	.LBB53_8
.LBB53_8:                               # %if.end8
	cmpl	$0, clear_flg
	jle	.LBB53_10
# %bb.9:                                # %if.then11
	movl	$9, n_bits
	movq	$511, maxcode           # imm = 0x1FF
	movl	$0, clear_flg
.LBB53_10:                              # %if.end12
	movslq	n_bits, %rdx
	movq	stdin, %rcx
	movabsq	$getcode.buf, %rdi
	movl	$1, %esi
	callq	fread
	movl	%eax, getcode.size
	cmpl	$0, getcode.size
	jg	.LBB53_12
# %bb.11:                               # %if.then17
	movq	$-1, -48(%rbp)
	jmp	.LBB53_16
.LBB53_12:                              # %if.end18
	movl	$0, getcode.offset
	movl	getcode.size, %eax
	shll	$3, %eax
	movl	n_bits, %ecx
	subl	$1, %ecx
	subl	%ecx, %eax
	movl	%eax, getcode.size
