	.text
	.file	"perf_compress.c"
	.globl	Usage                   # -- Begin function Usage
	.p2align	4, 0x90
	.type	Usage,@function
Usage:                                  # @Usage
	.cfi_startproc
# %bb.0:                                # %entry
	pushq	%rbp
	.cfi_def_cfa_offset 16
	.cfi_offset %rbp, -16
	movq	%rsp, %rbp
	.cfi_def_cfa_register %rbp
	movq	stderr, %rdi
	movabsq	$.L.str, %rsi
	movb	$0, %al
	callq	fprintf
	popq	%rbp
	.cfi_def_cfa %rsp, 8
	retq
.Lfunc_end0:
	.size	Usage, .Lfunc_end0-Usage
	.cfi_endproc
                                        # -- End function
	.globl	main                    # -- Begin function main
	.p2align	4, 0x90
	.type	main,@function
main:                                   # @main
	.cfi_startproc
# %bb.0:                                # %entry
	pushq	%rbp
	.cfi_def_cfa_offset 16
	.cfi_offset %rbp, -16
	movq	%rsp, %rbp
	.cfi_def_cfa_register %rbp
	pushq	%rbx
	subq	$312, %rsp              # imm = 0x138
	.cfi_offset %rbx, -24
	movl	$0, -60(%rbp)
	movl	%edi, -24(%rbp)
	movq	%rsi, -32(%rbp)
	movl	$0, -44(%rbp)
	movl	$2, %edi
	movl	$1, %esi
	callq	signal
	movq	%rax, bgnd_flag
	movl	$1, %ecx
	cmpq	%rcx, %rax
	je	.LBB1_2
# %bb.1:                                # %if.then
	movl	$2, %edi
	movabsq	$onintr, %rsi
	callq	signal
	movl	$11, %edi
	movabsq	$oops, %rsi
	callq	signal
.LBB1_2:                                # %if.end
	movslq	-24(%rbp), %rdi
	shlq	$3, %rdi
	callq	malloc
	movq	%rax, -16(%rbp)
	movq	%rax, -56(%rbp)
	movq	-56(%rbp), %rax
	movq	$0, (%rax)
	movq	-32(%rbp), %rax
	movq	(%rax), %rdi
	movl	$47, %esi
	callq	rindex
	movq	%rax, -40(%rbp)
	cmpq	$0, %rax
	je	.LBB1_4
# %bb.3:                                # %if.then7
	movq	-40(%rbp), %rax
	addq	$1, %rax
	movq	%rax, -40(%rbp)
	jmp	.LBB1_5
.LBB1_4:                                # %if.else
	movq	-32(%rbp), %rax
	movq	(%rax), %rax
	movq	%rax, -40(%rbp)
.LBB1_5:                                # %if.end9
	movq	-40(%rbp), %rdi
	movl	$.L.str.1, %esi
	callq	strcmp
	cmpl	$0, %eax
	jne	.LBB1_7
# %bb.6:                                # %if.then13
	movl	$1, do_decomp
	jmp	.LBB1_10
.LBB1_7:                                # %if.else14
	movq	-40(%rbp), %rdi
	movl	$.L.str.2, %esi
	callq	strcmp
	cmpl	$0, %eax
	jne	.LBB1_9
# %bb.8:                                # %if.then18
	movl	$1, do_decomp
	movl	$1, zcat_flg
.LBB1_9:                                # %if.end19
	jmp	.LBB1_10
.LBB1_10:                               # %if.end20
	movl	-24(%rbp), %eax
	addl	$-1, %eax
	movl	%eax, -24(%rbp)
	movq	-32(%rbp), %rax
	addq	$8, %rax
	movq	%rax, -32(%rbp)
.LBB1_11:                               # %for.cond
                                        # =>This Loop Header: Depth=1
                                        #     Child Loop BB1_14 Depth 2
	cmpl	$0, -24(%rbp)
	jle	.LBB1_37
# %bb.12:                               # %for.body
                                        #   in Loop: Header=BB1_11 Depth=1
	movq	-32(%rbp), %rax
	movq	(%rax), %rax
	movsbl	(%rax), %eax
	cmpl	$45, %eax
	jne	.LBB1_33
# %bb.13:                               # %if.then27
                                        #   in Loop: Header=BB1_11 Depth=1
	jmp	.LBB1_14
.LBB1_14:                               # %while.cond
                                        #   Parent Loop BB1_11 Depth=1
                                        # =>  This Inner Loop Header: Depth=2
	movq	-32(%rbp), %rax
	movq	(%rax), %rcx
	movq	%rcx, %rdx
	addq	$1, %rdx
	movq	%rdx, (%rax)
	cmpb	$0, 1(%rcx)
	je	.LBB1_32
# %bb.15:                               # %while.body
                                        #   in Loop: Header=BB1_14 Depth=2
	movq	-32(%rbp), %rax
	movq	(%rax), %rax
	movsbl	(%rax), %eax
	addl	$-67, %eax
	movl	%eax, %ecx
	subl	$51, %ecx
	ja	.LBB1_30
# %bb.16:                               # %while.body
                                        #   in Loop: Header=BB1_14 Depth=2
	movq	.LJTI1_0(,%rax,8), %rax
	jmpq	*%rax
.LBB1_17:                               # %sw.bb
                                        #   in Loop: Header=BB1_14 Depth=2
	callq	version
	jmp	.LBB1_31
.LBB1_18:                               # %sw.bb30
                                        #   in Loop: Header=BB1_14 Depth=2
	movl	$0, quiet
	jmp	.LBB1_31
.LBB1_19:                               # %sw.bb31
                                        #   in Loop: Header=BB1_14 Depth=2
	movl	$1, do_decomp
	jmp	.LBB1_31
.LBB1_20:                               # %sw.bb32
                                        #   in Loop: Header=BB1_14 Depth=2
	movl	$1, -44(%rbp)
	movl	$1, force
	jmp	.LBB1_31
.LBB1_21:                               # %sw.bb33
                                        #   in Loop: Header=BB1_14 Depth=2
	movl	$1, nomagic
	jmp	.LBB1_31
.LBB1_22:                               # %sw.bb34
                                        #   in Loop: Header=BB1_14 Depth=2
	movl	$0, block_compress
	jmp	.LBB1_31
.LBB1_23:                               # %sw.bb35
                                        #   in Loop: Header=BB1_11 Depth=1
	movq	-32(%rbp), %rax
	movq	(%rax), %rcx
	movq	%rcx, %rdx
	addq	$1, %rdx
	movq	%rdx, (%rax)
	movsbl	1(%rcx), %eax
	cmpl	$0, %eax
	jne	.LBB1_27
# %bb.24:                               # %lor.lhs.false
                                        #   in Loop: Header=BB1_11 Depth=1
	movl	-24(%rbp), %eax
	addl	$-1, %eax
	movl	%eax, -24(%rbp)
	cmpl	$0, %eax
	je	.LBB1_26
# %bb.25:                               # %land.lhs.true
                                        #   in Loop: Header=BB1_11 Depth=1
	movq	-32(%rbp), %rax
	movq	%rax, %rcx
	addq	$8, %rcx
	movq	%rcx, -32(%rbp)
	cmpq	$0, 8(%rax)
	jne	.LBB1_27
.LBB1_26:                               # %if.then43
	movq	stderr, %rdi
	movabsq	$.L.str.3, %rsi
	movb	$0, %al
	callq	fprintf
	callq	Usage
	movl	$1, %edi
	callq	exit
.LBB1_27:                               # %if.end45
                                        #   in Loop: Header=BB1_11 Depth=1
	movq	-32(%rbp), %rax
	movq	(%rax), %rdi
	callq	atoi
	movl	%eax, maxbits
	jmp	.LBB1_35
.LBB1_28:                               # %sw.bb47
                                        #   in Loop: Header=BB1_14 Depth=2
	movl	$1, zcat_flg
	jmp	.LBB1_31
.LBB1_29:                               # %sw.bb48
                                        #   in Loop: Header=BB1_14 Depth=2
	movl	$1, quiet
	jmp	.LBB1_31
.LBB1_30:                               # %sw.default
	movq	stderr, %rdi
	movq	-32(%rbp), %rax
	movq	(%rax), %rax
	movsbl	(%rax), %edx
	movabsq	$.L.str.4, %rsi
	movb	$0, %al
	callq	fprintf
	callq	Usage
	movl	$1, %edi
	callq	exit
.LBB1_31:                               # %sw.epilog
                                        #   in Loop: Header=BB1_14 Depth=2
	jmp	.LBB1_14
.LBB1_32:                               # %while.end
                                        #   in Loop: Header=BB1_11 Depth=1
	jmp	.LBB1_34
.LBB1_33:                               # %if.else51
                                        #   in Loop: Header=BB1_11 Depth=1
	movq	-32(%rbp), %rax
	movq	(%rax), %rax
	movq	-16(%rbp), %rcx
	movq	%rcx, %rdx
	addq	$8, %rdx
	movq	%rdx, -16(%rbp)
	movq	%rax, (%rcx)
	movq	-16(%rbp), %rax
	movq	$0, (%rax)
.LBB1_34:                               # %if.end53
                                        #   in Loop: Header=BB1_11 Depth=1
	jmp	.LBB1_35
.LBB1_35:                               # %nextarg
                                        #   in Loop: Header=BB1_11 Depth=1
	jmp	.LBB1_36
.LBB1_36:                               # %for.inc
                                        #   in Loop: Header=BB1_11 Depth=1
	movl	-24(%rbp), %eax
	addl	$-1, %eax
	movl	%eax, -24(%rbp)
	movq	-32(%rbp), %rax
	addq	$8, %rax
	movq	%rax, -32(%rbp)
	jmp	.LBB1_11
.LBB1_37:                               # %for.end
	cmpl	$9, maxbits
	jge	.LBB1_39
# %bb.38:                               # %if.then58
	movl	$9, maxbits
.LBB1_39:                               # %if.end59
	cmpl	$16, maxbits
	jle	.LBB1_41
# %bb.40:                               # %if.then62
	movl	$16, maxbits
.LBB1_41:                               # %if.end63
	movl	maxbits, %ecx
                                        # kill: def $cl killed $ecx
	movl	$1, %eax
	shll	%cl, %eax
	cltq
	movq	%rax, maxmaxcode
	movq	-56(%rbp), %rax
	cmpq	$0, (%rax)
	je	.LBB1_113
# %bb.42:                               # %if.then67
	movq	-56(%rbp), %rax
	movq	%rax, -16(%rbp)
.LBB1_43:                               # %for.cond68
                                        # =>This Loop Header: Depth=1
                                        #     Child Loop BB1_86 Depth 2
	movq	-16(%rbp), %rax
	cmpq	$0, (%rax)
	je	.LBB1_112
# %bb.44:                               # %for.body70
                                        #   in Loop: Header=BB1_43 Depth=1
	movl	$0, exit_stat
	cmpl	$0, do_decomp
	je	.LBB1_57
# %bb.45:                               # %if.then73
                                        #   in Loop: Header=BB1_43 Depth=1
	movq	-16(%rbp), %rax
	movq	(%rax), %rbx
	movq	-16(%rbp), %rax
	movq	(%rax), %rdi
	callq	strlen
	addq	%rax, %rbx
	addq	$-2, %rbx
	movq	%rbx, %rdi
	movl	$.L.str.5, %esi
	callq	strcmp
	cmpl	$0, %eax
	je	.LBB1_47
# %bb.46:                               # %if.then79
                                        #   in Loop: Header=BB1_43 Depth=1
	leaq	-320(%rbp), %rbx
	movq	-16(%rbp), %rax
	movq	(%rax), %rsi
	movq	%rbx, %rdi
	callq	strcpy
	movq	%rbx, %rdi
	movabsq	$.L.str.5, %rsi
	callq	strcat
	leaq	-320(%rbp), %rax
	movq	-16(%rbp), %rcx
	movq	%rax, (%rcx)
.LBB1_47:                               # %if.end84
                                        #   in Loop: Header=BB1_43 Depth=1
	movq	-16(%rbp), %rax
	movq	(%rax), %rdi
	movq	stdin, %rdx
	movabsq	$.L.str.6, %rsi
	callq	freopen
	cmpq	$0, %rax
	jne	.LBB1_49
# %bb.48:                               # %if.then88
                                        #   in Loop: Header=BB1_43 Depth=1
	movq	-16(%rbp), %rax
	movq	(%rax), %rdi
	callq	perror
	jmp	.LBB1_111
.LBB1_49:                               # %if.end89
                                        #   in Loop: Header=BB1_43 Depth=1
	cmpl	$0, nomagic
	jne	.LBB1_56
# %bb.50:                               # %if.then92
                                        #   in Loop: Header=BB1_43 Depth=1
	callq	getchar
	movzbl	magic_header, %ecx
	andl	$255, %ecx
	cmpl	%ecx, %eax
	jne	.LBB1_52
# %bb.51:                               # %lor.lhs.false97
                                        #   in Loop: Header=BB1_43 Depth=1
	callq	getchar
	movzbl	magic_header+1, %ecx
	andl	$255, %ecx
	cmpl	%ecx, %eax
	je	.LBB1_53
.LBB1_52:                               # %if.then103
                                        #   in Loop: Header=BB1_43 Depth=1
	movq	stderr, %rdi
	movq	-16(%rbp), %rax
	movq	(%rax), %rdx
	movabsq	$.L.str.7, %rsi
	movb	$0, %al
	callq	fprintf
	jmp	.LBB1_111
.LBB1_53:                               # %if.end105
                                        #   in Loop: Header=BB1_43 Depth=1
	callq	getchar
	movl	%eax, maxbits
	movl	maxbits, %eax
	andl	$128, %eax
	movl	%eax, block_compress
	movl	maxbits, %eax
	andl	$31, %eax
	movl	%eax, maxbits
	movl	maxbits, %ecx
                                        # kill: def $cl killed $ecx
	movl	$1, %eax
	shll	%cl, %eax
	cltq
	movq	%rax, maxmaxcode
	cmpl	$16, maxbits
	jle	.LBB1_55
# %bb.54:                               # %if.then113
                                        #   in Loop: Header=BB1_43 Depth=1
	movq	stderr, %rdi
	movq	-16(%rbp), %rax
	movq	(%rax), %rdx
	movl	maxbits, %ecx
	movabsq	$.L.str.8, %rsi
	movl	$16, %r8d
	movb	$0, %al
	callq	fprintf
	jmp	.LBB1_111
.LBB1_55:                               # %if.end115
                                        #   in Loop: Header=BB1_43 Depth=1
	jmp	.LBB1_56
.LBB1_56:                               # %if.end116
                                        #   in Loop: Header=BB1_43 Depth=1
	movq	-16(%rbp), %rax
	movq	(%rax), %rsi
	movl	$ofname, %edi
	callq	strcpy
	movq	-16(%rbp), %rax
	movq	(%rax), %rdi
	callq	strlen
	subq	$2, %rax
	movb	$0, ofname(,%rax)
	jmp	.LBB1_81
.LBB1_57:                               # %if.else120
                                        #   in Loop: Header=BB1_43 Depth=1
	movq	-16(%rbp), %rax
	movq	(%rax), %rbx
	movq	-16(%rbp), %rax
	movq	(%rax), %rdi
	callq	strlen
	addq	%rax, %rbx
	addq	$-2, %rbx
	movq	%rbx, %rdi
	movl	$.L.str.5, %esi
	callq	strcmp
	cmpl	$0, %eax
	jne	.LBB1_59
# %bb.58:                               # %if.then127
                                        #   in Loop: Header=BB1_43 Depth=1
	movq	stderr, %rdi
	movq	-16(%rbp), %rax
	movq	(%rax), %rdx
	movabsq	$.L.str.9, %rsi
	movb	$0, %al
	callq	fprintf
	jmp	.LBB1_111
.LBB1_59:                               # %if.end129
                                        #   in Loop: Header=BB1_43 Depth=1
	movq	-16(%rbp), %rax
	movq	(%rax), %rdi
	movq	stdin, %rdx
	movabsq	$.L.str.6, %rsi
	callq	freopen
	cmpq	$0, %rax
	jne	.LBB1_61
# %bb.60:                               # %if.then133
                                        #   in Loop: Header=BB1_43 Depth=1
	movq	-16(%rbp), %rax
	movq	(%rax), %rdi
	callq	perror
	jmp	.LBB1_111
.LBB1_61:                               # %if.end134
                                        #   in Loop: Header=BB1_43 Depth=1
	movq	-16(%rbp), %rax
	movq	(%rax), %rdi
	leaq	-208(%rbp), %rsi
	callq	stat
	movq	-160(%rbp), %rax
	movq	%rax, fsize
	movq	$69001, hsize           # imm = 0x10D89
	cmpq	$4096, fsize            # imm = 0x1000
	jge	.LBB1_63
# %bb.62:                               # %if.then138
                                        #   in Loop: Header=BB1_43 Depth=1
	movq	$5003, hsize            # imm = 0x138B
	jmp	.LBB1_75
.LBB1_63:                               # %if.else139
                                        #   in Loop: Header=BB1_43 Depth=1
	cmpq	$8192, fsize            # imm = 0x2000
	jge	.LBB1_65
# %bb.64:                               # %if.then142
                                        #   in Loop: Header=BB1_43 Depth=1
	movq	$9001, hsize            # imm = 0x2329
	jmp	.LBB1_74
.LBB1_65:                               # %if.else143
                                        #   in Loop: Header=BB1_43 Depth=1
	cmpq	$16384, fsize           # imm = 0x4000
	jge	.LBB1_67
# %bb.66:                               # %if.then146
                                        #   in Loop: Header=BB1_43 Depth=1
	movq	$18013, hsize           # imm = 0x465D
	jmp	.LBB1_73
.LBB1_67:                               # %if.else147
                                        #   in Loop: Header=BB1_43 Depth=1
	cmpq	$32768, fsize           # imm = 0x8000
	jge	.LBB1_69
# %bb.68:                               # %if.then150
                                        #   in Loop: Header=BB1_43 Depth=1
	movq	$35023, hsize           # imm = 0x88CF
	jmp	.LBB1_72
.LBB1_69:                               # %if.else151
                                        #   in Loop: Header=BB1_43 Depth=1
	cmpq	$47000, fsize           # imm = 0xB798
	jge	.LBB1_71
# %bb.70:                               # %if.then154
                                        #   in Loop: Header=BB1_43 Depth=1
	movq	$50021, hsize           # imm = 0xC365
.LBB1_71:                               # %if.end155
                                        #   in Loop: Header=BB1_43 Depth=1
	jmp	.LBB1_72
.LBB1_72:                               # %if.end156
                                        #   in Loop: Header=BB1_43 Depth=1
	jmp	.LBB1_73
.LBB1_73:                               # %if.end157
                                        #   in Loop: Header=BB1_43 Depth=1
	jmp	.LBB1_74
.LBB1_74:                               # %if.end158
                                        #   in Loop: Header=BB1_43 Depth=1
	jmp	.LBB1_75
.LBB1_75:                               # %if.end159
                                        #   in Loop: Header=BB1_43 Depth=1
	movq	-16(%rbp), %rax
	movq	(%rax), %rsi
	movl	$ofname, %edi
	callq	strcpy
	movabsq	$ofname, %rdi
	movl	$47, %esi
	callq	rindex
	movq	%rax, -40(%rbp)
	cmpq	$0, %rax
	je	.LBB1_77
# %bb.76:                               # %if.then164
                                        #   in Loop: Header=BB1_43 Depth=1
	movq	-40(%rbp), %rax
	addq	$1, %rax
	movq	%rax, -40(%rbp)
	jmp	.LBB1_78
.LBB1_77:                               # %if.else166
                                        #   in Loop: Header=BB1_43 Depth=1
	movabsq	$ofname, %rax
	movq	%rax, -40(%rbp)
.LBB1_78:                               # %if.end167
                                        #   in Loop: Header=BB1_43 Depth=1
	movq	-40(%rbp), %rdi
	callq	strlen
	cmpq	$12, %rax
	jbe	.LBB1_80
# %bb.79:                               # %if.then171
                                        #   in Loop: Header=BB1_43 Depth=1
	movq	stderr, %rdi
	movq	-40(%rbp), %rdx
	movabsq	$.L.str.10, %rsi
	movb	$0, %al
	callq	fprintf
	jmp	.LBB1_111
.LBB1_80:                               # %if.end173
                                        #   in Loop: Header=BB1_43 Depth=1
	movabsq	$ofname, %rdi
	movabsq	$.L.str.5, %rsi
	callq	strcat
.LBB1_81:                               # %if.end175
                                        #   in Loop: Header=BB1_43 Depth=1
	cmpl	$0, -44(%rbp)
	jne	.LBB1_96
# %bb.82:                               # %land.lhs.true178
                                        #   in Loop: Header=BB1_43 Depth=1
	cmpl	$0, zcat_flg
	jne	.LBB1_96
# %bb.83:                               # %if.then181
                                        #   in Loop: Header=BB1_43 Depth=1
	movabsq	$ofname, %rdi
	leaq	-208(%rbp), %rsi
	callq	stat
	cmpl	$0, %eax
	jne	.LBB1_95
# %bb.84:                               # %if.then185
                                        #   in Loop: Header=BB1_43 Depth=1
	movb	$110, -18(%rbp)
	movq	stderr, %rdi
	movabsq	$.L.str.11, %rsi
	movabsq	$ofname, %rdx
	movb	$0, %al
	callq	fprintf
	callq	foreground
	cmpl	$0, %eax
	je	.LBB1_92
# %bb.85:                               # %if.then190
                                        #   in Loop: Header=BB1_43 Depth=1
	movq	stderr, %rdi
	movabsq	$.L.str.12, %rsi
	movabsq	$ofname, %rdx
	movb	$0, %al
	callq	fprintf
	movq	stderr, %rdi
	callq	fflush
	leaq	-18(%rbp), %rsi
	movl	$2, %edi
	movl	$2, %edx
	callq	read
.LBB1_86:                               # %while.cond195
                                        #   Parent Loop BB1_43 Depth=1
                                        # =>  This Inner Loop Header: Depth=2
	movsbl	-17(%rbp), %eax
	cmpl	$10, %eax
	je	.LBB1_90
# %bb.87:                               # %while.body200
                                        #   in Loop: Header=BB1_86 Depth=2
	leaq	-18(%rbp), %rsi
	addq	$1, %rsi
	movl	$2, %edi
	movl	$1, %edx
	callq	read
	cmpq	$0, %rax
	jge	.LBB1_89
# %bb.88:                               # %if.then206
                                        #   in Loop: Header=BB1_43 Depth=1
	movabsq	$.L.str.13, %rdi
	callq	perror
	jmp	.LBB1_91
.LBB1_89:                               # %if.end207
                                        #   in Loop: Header=BB1_86 Depth=2
	jmp	.LBB1_86
.LBB1_90:                               # %while.end208.loopexit
                                        #   in Loop: Header=BB1_43 Depth=1
	jmp	.LBB1_91
.LBB1_91:                               # %while.end208
                                        #   in Loop: Header=BB1_43 Depth=1
	jmp	.LBB1_92
.LBB1_92:                               # %if.end209
                                        #   in Loop: Header=BB1_43 Depth=1
	movsbl	-18(%rbp), %eax
	cmpl	$121, %eax
	je	.LBB1_94
# %bb.93:                               # %if.then214
                                        #   in Loop: Header=BB1_43 Depth=1
	movq	stderr, %rdi
	movabsq	$.L.str.14, %rsi
	movb	$0, %al
	callq	fprintf
	jmp	.LBB1_111
.LBB1_94:                               # %if.end216
                                        #   in Loop: Header=BB1_43 Depth=1
	jmp	.LBB1_95
.LBB1_95:                               # %if.end217
                                        #   in Loop: Header=BB1_43 Depth=1
	jmp	.LBB1_96
.LBB1_96:                               # %if.end218
                                        #   in Loop: Header=BB1_43 Depth=1
	cmpl	$0, zcat_flg
	jne	.LBB1_102
# %bb.97:                               # %if.then221
                                        #   in Loop: Header=BB1_43 Depth=1
	movq	stdout, %rdx
	movabsq	$ofname, %rdi
	movabsq	$.L.str.15, %rsi
	callq	freopen
	cmpq	$0, %rax
	jne	.LBB1_99
# %bb.98:                               # %if.then225
                                        #   in Loop: Header=BB1_43 Depth=1
	movabsq	$ofname, %rdi
	callq	perror
	jmp	.LBB1_111
.LBB1_99:                               # %if.end226
                                        #   in Loop: Header=BB1_43 Depth=1
	cmpl	$0, quiet
	jne	.LBB1_101
# %bb.100:                              # %if.then228
                                        #   in Loop: Header=BB1_43 Depth=1
	movq	stderr, %rdi
	movq	-16(%rbp), %rax
	movq	(%rax), %rdx
	movabsq	$.L.str.16, %rsi
	movb	$0, %al
	callq	fprintf
.LBB1_101:                              # %if.end230
                                        #   in Loop: Header=BB1_43 Depth=1
	jmp	.LBB1_102
.LBB1_102:                              # %if.end231
                                        #   in Loop: Header=BB1_43 Depth=1
	cmpl	$0, do_decomp
	jne	.LBB1_104
# %bb.103:                              # %if.then234
                                        #   in Loop: Header=BB1_43 Depth=1
	callq	compress
	jmp	.LBB1_105
.LBB1_104:                              # %if.else235
                                        #   in Loop: Header=BB1_43 Depth=1
	callq	decompress
.LBB1_105:                              # %if.end236
                                        #   in Loop: Header=BB1_43 Depth=1
	cmpl	$0, zcat_flg
	jne	.LBB1_110
# %bb.106:                              # %if.then239
                                        #   in Loop: Header=BB1_43 Depth=1
	movq	-16(%rbp), %rax
	movq	(%rax), %rdi
	movabsq	$ofname, %rsi
	callq	copystat
	cmpl	$1, exit_stat
	je	.LBB1_108
# %bb.107:                              # %lor.lhs.false242
                                        #   in Loop: Header=BB1_43 Depth=1
	cmpl	$0, quiet
	jne	.LBB1_109
.LBB1_108:                              # %if.then244
                                        #   in Loop: Header=BB1_43 Depth=1
	movq	stderr, %rsi
	movl	$10, %edi
	callq	_IO_putc
.LBB1_109:                              # %if.end246
                                        #   in Loop: Header=BB1_43 Depth=1
	jmp	.LBB1_110
.LBB1_110:                              # %if.end247
                                        #   in Loop: Header=BB1_43 Depth=1
	jmp	.LBB1_111
.LBB1_111:                              # %for.inc248
                                        #   in Loop: Header=BB1_43 Depth=1
	movq	-16(%rbp), %rax
	addq	$8, %rax
	movq	%rax, -16(%rbp)
	jmp	.LBB1_43
.LBB1_112:                              # %for.end250
	jmp	.LBB1_126
.LBB1_113:                              # %if.else251
	cmpl	$0, do_decomp
	jne	.LBB1_117
# %bb.114:                              # %if.then254
	callq	compress
	cmpl	$0, quiet
	jne	.LBB1_116
# %bb.115:                              # %if.then256
	movq	stderr, %rsi
	movl	$10, %edi
	callq	_IO_putc
.LBB1_116:                              # %if.end258
	jmp	.LBB1_125
.LBB1_117:                              # %if.else259
	cmpl	$0, nomagic
	jne	.LBB1_124
# %bb.118:                              # %if.then262
	callq	getchar
	movzbl	magic_header, %ecx
	andl	$255, %ecx
	cmpl	%ecx, %eax
	jne	.LBB1_120
# %bb.119:                              # %lor.lhs.false268
	callq	getchar
	movzbl	magic_header+1, %ecx
	andl	$255, %ecx
	cmpl	%ecx, %eax
	je	.LBB1_121
.LBB1_120:                              # %if.then274
	movq	stderr, %rdi
	movabsq	$.L.str.17, %rsi
	movb	$0, %al
	callq	fprintf
	movl	$1, %edi
	callq	exit
.LBB1_121:                              # %if.end276
	callq	getchar
	movl	%eax, maxbits
	movl	maxbits, %eax
	andl	$128, %eax
	movl	%eax, block_compress
	movl	maxbits, %eax
	andl	$31, %eax
	movl	%eax, maxbits
	movl	maxbits, %ecx
                                        # kill: def $cl killed $ecx
	movl	$1, %eax
	shll	%cl, %eax
	cltq
	movq	%rax, maxmaxcode
	movq	$100000, fsize          # imm = 0x186A0
	cmpl	$16, maxbits
	jle	.LBB1_123
# %bb.122:                              # %if.then284
	movq	stderr, %rdi
	movl	maxbits, %edx
	movabsq	$.L.str.18, %rsi
	movl	$16, %ecx
	movb	$0, %al
	callq	fprintf
	movl	$1, %edi
	callq	exit
.LBB1_123:                              # %if.end286
	jmp	.LBB1_124
.LBB1_124:                              # %if.end287
	callq	decompress
.LBB1_125:                              # %if.end288
	jmp	.LBB1_126
.LBB1_126:                              # %if.end289
	xorl	%eax, %eax
	addq	$312, %rsp              # imm = 0x138
	popq	%rbx
	popq	%rbp
	.cfi_def_cfa %rsp, 8
	retq
.Lfunc_end1:
	.size	main, .Lfunc_end1-main
	.cfi_endproc
	.section	.rodata,"a",@progbits
	.p2align	3
.LJTI1_0:
	.quad	.LBB1_22
	.quad	.LBB1_30
	.quad	.LBB1_30
	.quad	.LBB1_20
	.quad	.LBB1_30
	.quad	.LBB1_30
	.quad	.LBB1_30
	.quad	.LBB1_30
	.quad	.LBB1_30
	.quad	.LBB1_30
	.quad	.LBB1_30
	.quad	.LBB1_30
	.quad	.LBB1_30
	.quad	.LBB1_30
	.quad	.LBB1_30
	.quad	.LBB1_30
	.quad	.LBB1_30
	.quad	.LBB1_30
	.quad	.LBB1_30
	.quad	.LBB1_17
	.quad	.LBB1_30
	.quad	.LBB1_30
	.quad	.LBB1_30
	.quad	.LBB1_30
	.quad	.LBB1_30
	.quad	.LBB1_30
	.quad	.LBB1_30
	.quad	.LBB1_30
	.quad	.LBB1_30
	.quad	.LBB1_30
	.quad	.LBB1_30
	.quad	.LBB1_23
	.quad	.LBB1_28
	.quad	.LBB1_19
	.quad	.LBB1_30
	.quad	.LBB1_20
	.quad	.LBB1_30
	.quad	.LBB1_30
	.quad	.LBB1_30
	.quad	.LBB1_30
	.quad	.LBB1_30
	.quad	.LBB1_30
	.quad	.LBB1_30
	.quad	.LBB1_21
	.quad	.LBB1_30
	.quad	.LBB1_30
	.quad	.LBB1_29
	.quad	.LBB1_30
	.quad	.LBB1_30
	.quad	.LBB1_30
	.quad	.LBB1_30
	.quad	.LBB1_18
                                        # -- End function
	.text
	.globl	onintr                  # -- Begin function onintr
	.p2align	4, 0x90
	.type	onintr,@function
onintr:                                 # @onintr
	.cfi_startproc
# %bb.0:                                # %entry
	pushq	%rbp
	.cfi_def_cfa_offset 16
	.cfi_offset %rbp, -16
	movq	%rsp, %rbp
	.cfi_def_cfa_register %rbp
	subq	$16, %rsp
	movl	%edi, -4(%rbp)
	movabsq	$ofname, %rdi
	callq	unlink
	movl	$1, %edi
	callq	exit
.Lfunc_end2:
	.size	onintr, .Lfunc_end2-onintr
	.cfi_endproc
                                        # -- End function
	.globl	oops                    # -- Begin function oops
	.p2align	4, 0x90
	.type	oops,@function
oops:                                   # @oops
	.cfi_startproc
# %bb.0:                                # %entry
	pushq	%rbp
	.cfi_def_cfa_offset 16
	.cfi_offset %rbp, -16
	movq	%rsp, %rbp
	.cfi_def_cfa_register %rbp
	subq	$16, %rsp
	movl	%edi, -4(%rbp)
	cmpl	$1, do_decomp
	jne	.LBB3_2
# %bb.1:                                # %if.then
	movq	stderr, %rdi
	movabsq	$.L.str.24, %rsi
	movb	$0, %al
	callq	fprintf
.LBB3_2:                                # %if.end
	movabsq	$ofname, %rdi
	callq	unlink
	movl	$1, %edi
	callq	exit
.Lfunc_end3:
	.size	oops, .Lfunc_end3-oops
	.cfi_endproc
                                        # -- End function
	.globl	copystat                # -- Begin function copystat
	.p2align	4, 0x90
	.type	copystat,@function
copystat:                               # @copystat
	.cfi_startproc
# %bb.0:                                # %rand_bb
	pushq	%rbp
	.cfi_def_cfa_offset 16
	.cfi_offset %rbp, -16
	movq	%rsp, %rbp
	.cfi_def_cfa_register %rbp
	pushq	%r14
	pushq	%rbx
	.cfi_offset %rbx, -32
	.cfi_offset %r14, -24
	movq	%rsi, %r14
	movq	%rdi, %rbx
	callq	get_urand
	cmpl	$0, %eax
	jne	.LBB4_9
# %bb.1:                                # %func_copystat.13
	movq	%rbx, %rdi
	movq	%r14, %rsi
	callq	copystat.13
	popq	%rbx
	popq	%r14
	popq	%rbp
	.cfi_def_cfa %rsp, 8
	retq
.LBB4_2:                                # %func_copystat.30
	.cfi_def_cfa %rbp, 16
	movq	%rbx, %rdi
	movq	%r14, %rsi
	callq	copystat.30
	popq	%rbx
	popq	%r14
	popq	%rbp
	.cfi_def_cfa %rsp, 8
	retq
.LBB4_3:                                # %func_copystat.34
	.cfi_def_cfa %rbp, 16
	movq	%rbx, %rdi
	movq	%r14, %rsi
	callq	copystat.34
	popq	%rbx
	popq	%r14
	popq	%rbp
	.cfi_def_cfa %rsp, 8
	retq
.LBB4_4:                                # %func_copystat.43
	.cfi_def_cfa %rbp, 16
	movq	%rbx, %rdi
	movq	%r14, %rsi
	callq	copystat.43
	popq	%rbx
	popq	%r14
	popq	%rbp
	.cfi_def_cfa %rsp, 8
	retq
.LBB4_5:                                # %func_copystat.49
	.cfi_def_cfa %rbp, 16
	movq	%rbx, %rdi
	movq	%r14, %rsi
	callq	copystat.49
	popq	%rbx
	popq	%r14
	popq	%rbp
	.cfi_def_cfa %rsp, 8
	retq
.LBB4_6:                                # %func_copystat.50
	.cfi_def_cfa %rbp, 16
	movq	%rbx, %rdi
	movq	%r14, %rsi
	callq	copystat.50
	popq	%rbx
	popq	%r14
	popq	%rbp
	.cfi_def_cfa %rsp, 8
	retq
.LBB4_7:                                # %func_copystat.54
	.cfi_def_cfa %rbp, 16
	movq	%rbx, %rdi
	movq	%r14, %rsi
	callq	copystat.54
	popq	%rbx
	popq	%r14
	popq	%rbp
	.cfi_def_cfa %rsp, 8
	retq
.LBB4_8:                                # %func_copystat.63
	.cfi_def_cfa %rbp, 16
	movq	%rbx, %rdi
	movq	%r14, %rsi
	callq	copystat.63
	popq	%rbx
	popq	%r14
	popq	%rbp
	.cfi_def_cfa %rsp, 8
	retq
.LBB4_9:                                # %ctrl0
	.cfi_def_cfa %rbp, 16
	cmpl	$1, %eax
	je	.LBB4_2
# %bb.10:                               # %ctrl1
	cmpl	$2, %eax
	je	.LBB4_3
# %bb.11:                               # %ctrl2
	cmpl	$3, %eax
	je	.LBB4_4
# %bb.12:                               # %ctrl3
	cmpl	$4, %eax
	je	.LBB4_5
# %bb.13:                               # %ctrl4
	cmpl	$5, %eax
	je	.LBB4_6
# %bb.14:                               # %ctrl5
	cmpl	$6, %eax
	je	.LBB4_7
	jmp	.LBB4_8
.Lfunc_end4:
	.size	copystat, .Lfunc_end4-copystat
	.cfi_endproc
                                        # -- End function
	.globl	compress                # -- Begin function compress
	.p2align	4, 0x90
	.type	compress,@function
compress:                               # @compress
	.cfi_startproc
# %bb.0:                                # %rand_bb
	pushq	%rbp
	.cfi_def_cfa_offset 16
	.cfi_offset %rbp, -16
	movq	%rsp, %rbp
	.cfi_def_cfa_register %rbp
	callq	get_urand
	cmpl	$0, %eax
	jne	.LBB5_9
# %bb.1:                                # %func_compress.16
	callq	compress.16
	popq	%rbp
	.cfi_def_cfa %rsp, 8
	retq
.LBB5_2:                                # %func_compress.24
	.cfi_def_cfa %rbp, 16
	callq	compress.24
	popq	%rbp
	.cfi_def_cfa %rsp, 8
	retq
.LBB5_3:                                # %func_compress.27
	.cfi_def_cfa %rbp, 16
	callq	compress.27
	popq	%rbp
	.cfi_def_cfa %rsp, 8
	retq
.LBB5_4:                                # %func_compress.32
	.cfi_def_cfa %rbp, 16
	callq	compress.32
	popq	%rbp
	.cfi_def_cfa %rsp, 8
	retq
.LBB5_5:                                # %func_compress.40
	.cfi_def_cfa %rbp, 16
	callq	compress.40
	popq	%rbp
	.cfi_def_cfa %rsp, 8
	retq
.LBB5_6:                                # %func_compress.47
	.cfi_def_cfa %rbp, 16
	callq	compress.47
	popq	%rbp
	.cfi_def_cfa %rsp, 8
	retq
.LBB5_7:                                # %func_compress.51
	.cfi_def_cfa %rbp, 16
	callq	compress.51
	popq	%rbp
	.cfi_def_cfa %rsp, 8
	retq
.LBB5_8:                                # %func_compress.55
	.cfi_def_cfa %rbp, 16
	callq	compress.55
	popq	%rbp
	.cfi_def_cfa %rsp, 8
	retq
.LBB5_9:                                # %ctrl0
	.cfi_def_cfa %rbp, 16
	cmpl	$1, %eax
	je	.LBB5_2
# %bb.10:                               # %ctrl1
	cmpl	$2, %eax
	je	.LBB5_3
# %bb.11:                               # %ctrl2
	cmpl	$3, %eax
	je	.LBB5_4
# %bb.12:                               # %ctrl3
	cmpl	$4, %eax
	je	.LBB5_5
# %bb.13:                               # %ctrl4
	cmpl	$5, %eax
	je	.LBB5_6
# %bb.14:                               # %ctrl5
	cmpl	$6, %eax
	je	.LBB5_7
	jmp	.LBB5_8
.Lfunc_end5:
	.size	compress, .Lfunc_end5-compress
	.cfi_endproc
                                        # -- End function
	.globl	cl_hash                 # -- Begin function cl_hash
	.p2align	4, 0x90
	.type	cl_hash,@function
cl_hash:                                # @cl_hash
	.cfi_startproc
# %bb.0:                                # %rand_bb
	pushq	%rbp
	.cfi_def_cfa_offset 16
	.cfi_offset %rbp, -16
	movq	%rsp, %rbp
	.cfi_def_cfa_register %rbp
	pushq	%rbx
	pushq	%rax
	.cfi_offset %rbx, -24
	movq	%rdi, %rbx
	callq	get_urand
	cmpl	$0, %eax
	jne	.LBB6_9
# %bb.1:                                # %func_cl_hash.39
	movq	%rbx, %rdi
	callq	cl_hash.39
	addq	$8, %rsp
	popq	%rbx
	popq	%rbp
	.cfi_def_cfa %rsp, 8
	retq
.LBB6_2:                                # %func_cl_hash.42
	.cfi_def_cfa %rbp, 16
	movq	%rbx, %rdi
	callq	cl_hash.42
	addq	$8, %rsp
	popq	%rbx
	popq	%rbp
	.cfi_def_cfa %rsp, 8
	retq
.LBB6_3:                                # %func_cl_hash.48
	.cfi_def_cfa %rbp, 16
	movq	%rbx, %rdi
	callq	cl_hash.48
	addq	$8, %rsp
	popq	%rbx
	popq	%rbp
	.cfi_def_cfa %rsp, 8
	retq
.LBB6_4:                                # %func_cl_hash.56
	.cfi_def_cfa %rbp, 16
	movq	%rbx, %rdi
	callq	cl_hash.56
	addq	$8, %rsp
	popq	%rbx
	popq	%rbp
	.cfi_def_cfa %rsp, 8
	retq
.LBB6_5:                                # %func_cl_hash.59
	.cfi_def_cfa %rbp, 16
	movq	%rbx, %rdi
	callq	cl_hash.59
	addq	$8, %rsp
	popq	%rbx
	popq	%rbp
	.cfi_def_cfa %rsp, 8
	retq
.LBB6_6:                                # %func_cl_hash.60
	.cfi_def_cfa %rbp, 16
	movq	%rbx, %rdi
	callq	cl_hash.60
	addq	$8, %rsp
	popq	%rbx
	popq	%rbp
	.cfi_def_cfa %rsp, 8
	retq
.LBB6_7:                                # %func_cl_hash.61
	.cfi_def_cfa %rbp, 16
	movq	%rbx, %rdi
	callq	cl_hash.61
	addq	$8, %rsp
	popq	%rbx
	popq	%rbp
	.cfi_def_cfa %rsp, 8
	retq
.LBB6_8:                                # %func_cl_hash.62
	.cfi_def_cfa %rbp, 16
	movq	%rbx, %rdi
	callq	cl_hash.62
	addq	$8, %rsp
	popq	%rbx
	popq	%rbp
	.cfi_def_cfa %rsp, 8
	retq
.LBB6_9:                                # %ctrl0
	.cfi_def_cfa %rbp, 16
	cmpl	$1, %eax
	je	.LBB6_2
# %bb.10:                               # %ctrl1
	cmpl	$2, %eax
	je	.LBB6_3
# %bb.11:                               # %ctrl2
	cmpl	$3, %eax
	je	.LBB6_4
# %bb.12:                               # %ctrl3
	cmpl	$4, %eax
	je	.LBB6_5
# %bb.13:                               # %ctrl4
	cmpl	$5, %eax
	je	.LBB6_6
# %bb.14:                               # %ctrl5
	cmpl	$6, %eax
	je	.LBB6_7
	jmp	.LBB6_8
.Lfunc_end6:
	.size	cl_hash, .Lfunc_end6-cl_hash
	.cfi_endproc
                                        # -- End function
	.globl	scott_hack              # -- Begin function scott_hack
	.p2align	4, 0x90
	.type	scott_hack,@function
scott_hack:                             # @scott_hack
	.cfi_startproc
# %bb.0:                                # %rand_bb
	pushq	%rbp
	.cfi_def_cfa_offset 16
	.cfi_offset %rbp, -16
	movq	%rsp, %rbp
	.cfi_def_cfa_register %rbp
	pushq	%r15
	pushq	%r14
	pushq	%r13
	pushq	%r12
	pushq	%rbx
	pushq	%rax
	.cfi_offset %rbx, -56
	.cfi_offset %r12, -48
	.cfi_offset %r13, -40
	.cfi_offset %r14, -32
	.cfi_offset %r15, -24
	movq	%r8, %r14
	movl	%ecx, %r15d
	movl	%edx, %r12d
	movq	%rsi, %r13
	movq	%rdi, %rbx
	callq	get_urand
	cmpl	$0, %eax
	jne	.LBB7_9
# %bb.1:                                # %func_scott_hack.2
	movq	%rbx, %rdi
	movq	%r13, %rsi
	movl	%r12d, %edx
	movl	%r15d, %ecx
	movq	%r14, %r8
	callq	scott_hack.2
	addq	$8, %rsp
	popq	%rbx
	popq	%r12
	popq	%r13
	popq	%r14
	popq	%r15
	popq	%rbp
	.cfi_def_cfa %rsp, 8
	retq
.LBB7_2:                                # %func_scott_hack.12
	.cfi_def_cfa %rbp, 16
	movq	%rbx, %rdi
	movq	%r13, %rsi
	movl	%r12d, %edx
	movl	%r15d, %ecx
	movq	%r14, %r8
	callq	scott_hack.12
	addq	$8, %rsp
	popq	%rbx
	popq	%r12
	popq	%r13
	popq	%r14
	popq	%r15
	popq	%rbp
	.cfi_def_cfa %rsp, 8
	retq
.LBB7_3:                                # %func_scott_hack.17
	.cfi_def_cfa %rbp, 16
	movq	%rbx, %rdi
	movq	%r13, %rsi
	movl	%r12d, %edx
	movl	%r15d, %ecx
	movq	%r14, %r8
	callq	scott_hack.17
	addq	$8, %rsp
	popq	%rbx
	popq	%r12
	popq	%r13
	popq	%r14
	popq	%r15
	popq	%rbp
	.cfi_def_cfa %rsp, 8
	retq
.LBB7_4:                                # %func_scott_hack.19
	.cfi_def_cfa %rbp, 16
	movq	%rbx, %rdi
	movq	%r13, %rsi
	movl	%r12d, %edx
	movl	%r15d, %ecx
	movq	%r14, %r8
	callq	scott_hack.19
	addq	$8, %rsp
	popq	%rbx
	popq	%r12
	popq	%r13
	popq	%r14
	popq	%r15
	popq	%rbp
	.cfi_def_cfa %rsp, 8
	retq
.LBB7_5:                                # %func_scott_hack.26
	.cfi_def_cfa %rbp, 16
	movq	%rbx, %rdi
	movq	%r13, %rsi
	movl	%r12d, %edx
	movl	%r15d, %ecx
	movq	%r14, %r8
	callq	scott_hack.26
	addq	$8, %rsp
	popq	%rbx
	popq	%r12
	popq	%r13
	popq	%r14
	popq	%r15
	popq	%rbp
	.cfi_def_cfa %rsp, 8
	retq
.LBB7_6:                                # %func_scott_hack.36
	.cfi_def_cfa %rbp, 16
	movq	%rbx, %rdi
	movq	%r13, %rsi
	movl	%r12d, %edx
	movl	%r15d, %ecx
	movq	%r14, %r8
	callq	scott_hack.36
	addq	$8, %rsp
	popq	%rbx
	popq	%r12
	popq	%r13
	popq	%r14
	popq	%r15
	popq	%rbp
	.cfi_def_cfa %rsp, 8
	retq
.LBB7_7:                                # %func_scott_hack.38
	.cfi_def_cfa %rbp, 16
	movq	%rbx, %rdi
	movq	%r13, %rsi
	movl	%r12d, %edx
	movl	%r15d, %ecx
	movq	%r14, %r8
	callq	scott_hack.38
	addq	$8, %rsp
	popq	%rbx
	popq	%r12
	popq	%r13
	popq	%r14
	popq	%r15
	popq	%rbp
	.cfi_def_cfa %rsp, 8
	retq
.LBB7_8:                                # %func_scott_hack.45
	.cfi_def_cfa %rbp, 16
	movq	%rbx, %rdi
	movq	%r13, %rsi
	movl	%r12d, %edx
	movl	%r15d, %ecx
	movq	%r14, %r8
	callq	scott_hack.45
	addq	$8, %rsp
	popq	%rbx
	popq	%r12
	popq	%r13
	popq	%r14
	popq	%r15
	popq	%rbp
	.cfi_def_cfa %rsp, 8
	retq
.LBB7_9:                                # %ctrl0
	.cfi_def_cfa %rbp, 16
	cmpl	$1, %eax
	je	.LBB7_2
# %bb.10:                               # %ctrl1
	cmpl	$2, %eax
	je	.LBB7_3
# %bb.11:                               # %ctrl2
	cmpl	$3, %eax
	je	.LBB7_4
# %bb.12:                               # %ctrl3
	cmpl	$4, %eax
	je	.LBB7_5
# %bb.13:                               # %ctrl4
	cmpl	$5, %eax
	je	.LBB7_6
# %bb.14:                               # %ctrl5
	cmpl	$6, %eax
	je	.LBB7_7
	jmp	.LBB7_8
.Lfunc_end7:
	.size	scott_hack, .Lfunc_end7-scott_hack
	.cfi_endproc
                                        # -- End function
	.globl	output                  # -- Begin function output
	.p2align	4, 0x90
	.type	output,@function
output:                                 # @output
	.cfi_startproc
# %bb.0:                                # %rand_bb
	pushq	%rbp
	.cfi_def_cfa_offset 16
	.cfi_offset %rbp, -16
	movq	%rsp, %rbp
	.cfi_def_cfa_register %rbp
	pushq	%rbx
	pushq	%rax
	.cfi_offset %rbx, -24
	movq	%rdi, %rbx
	callq	get_urand
	cmpl	$0, %eax
	jne	.LBB8_9
# %bb.1:                                # %func_output.8
	movq	%rbx, %rdi
	callq	output.8
	addq	$8, %rsp
	popq	%rbx
	popq	%rbp
	.cfi_def_cfa %rsp, 8
	retq
.LBB8_2:                                # %func_output.11
	.cfi_def_cfa %rbp, 16
	movq	%rbx, %rdi
	callq	output.11
	addq	$8, %rsp
	popq	%rbx
	popq	%rbp
	.cfi_def_cfa %rsp, 8
	retq
.LBB8_3:                                # %func_output.20
	.cfi_def_cfa %rbp, 16
	movq	%rbx, %rdi
	callq	output.20
	addq	$8, %rsp
	popq	%rbx
	popq	%rbp
	.cfi_def_cfa %rsp, 8
	retq
.LBB8_4:                                # %func_output.22
	.cfi_def_cfa %rbp, 16
	movq	%rbx, %rdi
	callq	output.22
	addq	$8, %rsp
	popq	%rbx
	popq	%rbp
	.cfi_def_cfa %rsp, 8
	retq
.LBB8_5:                                # %func_output.31
	.cfi_def_cfa %rbp, 16
	movq	%rbx, %rdi
	callq	output.31
	addq	$8, %rsp
	popq	%rbx
	popq	%rbp
	.cfi_def_cfa %rsp, 8
	retq
.LBB8_6:                                # %func_output.33
	.cfi_def_cfa %rbp, 16
	movq	%rbx, %rdi
	callq	output.33
	addq	$8, %rsp
	popq	%rbx
	popq	%rbp
	.cfi_def_cfa %rsp, 8
	retq
.LBB8_7:                                # %func_output.37
	.cfi_def_cfa %rbp, 16
	movq	%rbx, %rdi
	callq	output.37
	addq	$8, %rsp
	popq	%rbx
	popq	%rbp
	.cfi_def_cfa %rsp, 8
	retq
.LBB8_8:                                # %func_output.44
	.cfi_def_cfa %rbp, 16
	movq	%rbx, %rdi
	callq	output.44
	addq	$8, %rsp
	popq	%rbx
	popq	%rbp
	.cfi_def_cfa %rsp, 8
	retq
.LBB8_9:                                # %ctrl0
	.cfi_def_cfa %rbp, 16
	cmpl	$1, %eax
	je	.LBB8_2
# %bb.10:                               # %ctrl1
	cmpl	$2, %eax
	je	.LBB8_3
# %bb.11:                               # %ctrl2
	cmpl	$3, %eax
	je	.LBB8_4
# %bb.12:                               # %ctrl3
	cmpl	$4, %eax
	je	.LBB8_5
# %bb.13:                               # %ctrl4
	cmpl	$5, %eax
	je	.LBB8_6
# %bb.14:                               # %ctrl5
	cmpl	$6, %eax
	je	.LBB8_7
	jmp	.LBB8_8
.Lfunc_end8:
	.size	output, .Lfunc_end8-output
	.cfi_endproc
                                        # -- End function
	.globl	prratio                 # -- Begin function prratio
	.p2align	4, 0x90
	.type	prratio,@function
prratio:                                # @prratio
	.cfi_startproc
# %bb.0:                                # %rand_bb
	pushq	%rbp
	.cfi_def_cfa_offset 16
	.cfi_offset %rbp, -16
	movq	%rsp, %rbp
	.cfi_def_cfa_register %rbp
	pushq	%r15
	pushq	%r14
	pushq	%rbx
	pushq	%rax
	.cfi_offset %rbx, -40
	.cfi_offset %r14, -32
	.cfi_offset %r15, -24
	movq	%rdx, %r14
	movq	%rsi, %r15
	movq	%rdi, %rbx
	callq	get_urand
	cmpl	$0, %eax
	jne	.LBB9_9
# %bb.1:                                # %func_prratio.25
	movq	%rbx, %rdi
	movq	%r15, %rsi
	movq	%r14, %rdx
	callq	prratio.25
	addq	$8, %rsp
	popq	%rbx
	popq	%r14
	popq	%r15
	popq	%rbp
	.cfi_def_cfa %rsp, 8
	retq
.LBB9_2:                                # %func_prratio.29
	.cfi_def_cfa %rbp, 16
	movq	%rbx, %rdi
	movq	%r15, %rsi
	movq	%r14, %rdx
	callq	prratio.29
	addq	$8, %rsp
	popq	%rbx
	popq	%r14
	popq	%r15
	popq	%rbp
	.cfi_def_cfa %rsp, 8
	retq
.LBB9_3:                                # %func_prratio.35
	.cfi_def_cfa %rbp, 16
	movq	%rbx, %rdi
	movq	%r15, %rsi
	movq	%r14, %rdx
	callq	prratio.35
	addq	$8, %rsp
	popq	%rbx
	popq	%r14
	popq	%r15
	popq	%rbp
	.cfi_def_cfa %rsp, 8
	retq
.LBB9_4:                                # %func_prratio.52
	.cfi_def_cfa %rbp, 16
	movq	%rbx, %rdi
	movq	%r15, %rsi
	movq	%r14, %rdx
	callq	prratio.52
	addq	$8, %rsp
	popq	%rbx
	popq	%r14
	popq	%r15
	popq	%rbp
	.cfi_def_cfa %rsp, 8
	retq
.LBB9_5:                                # %func_prratio.53
	.cfi_def_cfa %rbp, 16
	movq	%rbx, %rdi
	movq	%r15, %rsi
	movq	%r14, %rdx
	callq	prratio.53
	addq	$8, %rsp
	popq	%rbx
	popq	%r14
	popq	%r15
	popq	%rbp
	.cfi_def_cfa %rsp, 8
	retq
.LBB9_6:                                # %func_prratio.57
	.cfi_def_cfa %rbp, 16
	movq	%rbx, %rdi
	movq	%r15, %rsi
	movq	%r14, %rdx
	callq	prratio.57
	addq	$8, %rsp
	popq	%rbx
	popq	%r14
	popq	%r15
	popq	%rbp
	.cfi_def_cfa %rsp, 8
	retq
.LBB9_7:                                # %func_prratio.58
	.cfi_def_cfa %rbp, 16
	movq	%rbx, %rdi
	movq	%r15, %rsi
	movq	%r14, %rdx
	callq	prratio.58
	addq	$8, %rsp
	popq	%rbx
	popq	%r14
	popq	%r15
	popq	%rbp
	.cfi_def_cfa %rsp, 8
	retq
.LBB9_8:                                # %func_prratio.64
	.cfi_def_cfa %rbp, 16
	movq	%rbx, %rdi
	movq	%r15, %rsi
	movq	%r14, %rdx
	callq	prratio.64
	addq	$8, %rsp
	popq	%rbx
	popq	%r14
	popq	%r15
	popq	%rbp
	.cfi_def_cfa %rsp, 8
	retq
.LBB9_9:                                # %ctrl0
	.cfi_def_cfa %rbp, 16
	cmpl	$1, %eax
	je	.LBB9_2
# %bb.10:                               # %ctrl1
	cmpl	$2, %eax
	je	.LBB9_3
# %bb.11:                               # %ctrl2
	cmpl	$3, %eax
	je	.LBB9_4
# %bb.12:                               # %ctrl3
	cmpl	$4, %eax
	je	.LBB9_5
# %bb.13:                               # %ctrl4
	cmpl	$5, %eax
	je	.LBB9_6
# %bb.14:                               # %ctrl5
	cmpl	$6, %eax
	je	.LBB9_7
	jmp	.LBB9_8
.Lfunc_end9:
	.size	prratio, .Lfunc_end9-prratio
	.cfi_endproc
                                        # -- End function
	.globl	decompress              # -- Begin function decompress
	.p2align	4, 0x90
	.type	decompress,@function
decompress:                             # @decompress
	.cfi_startproc
# %bb.0:                                # %rand_bb
	pushq	%rbp
	.cfi_def_cfa_offset 16
	.cfi_offset %rbp, -16
	movq	%rsp, %rbp
	.cfi_def_cfa_register %rbp
	callq	get_urand
	cmpl	$0, %eax
	jne	.LBB10_9
# %bb.1:                                # %func_decompress.1
	callq	decompress.1
	popq	%rbp
	.cfi_def_cfa %rsp, 8
	retq
.LBB10_2:                               # %func_decompress.6
	.cfi_def_cfa %rbp, 16
	callq	decompress.6
	popq	%rbp
	.cfi_def_cfa %rsp, 8
	retq
.LBB10_3:                               # %func_decompress.9
	.cfi_def_cfa %rbp, 16
	callq	decompress.9
	popq	%rbp
	.cfi_def_cfa %rsp, 8
	retq
.LBB10_4:                               # %func_decompress.15
	.cfi_def_cfa %rbp, 16
	callq	decompress.15
	popq	%rbp
	.cfi_def_cfa %rsp, 8
	retq
.LBB10_5:                               # %func_decompress.21
	.cfi_def_cfa %rbp, 16
	callq	decompress.21
	popq	%rbp
	.cfi_def_cfa %rsp, 8
	retq
.LBB10_6:                               # %func_decompress.28
	.cfi_def_cfa %rbp, 16
	callq	decompress.28
	popq	%rbp
	.cfi_def_cfa %rsp, 8
	retq
.LBB10_7:                               # %func_decompress.41
	.cfi_def_cfa %rbp, 16
	callq	decompress.41
	popq	%rbp
	.cfi_def_cfa %rsp, 8
	retq
.LBB10_8:                               # %func_decompress.46
	.cfi_def_cfa %rbp, 16
	callq	decompress.46
	popq	%rbp
	.cfi_def_cfa %rsp, 8
	retq
.LBB10_9:                               # %ctrl0
	.cfi_def_cfa %rbp, 16
	cmpl	$1, %eax
	je	.LBB10_2
# %bb.10:                               # %ctrl1
	cmpl	$2, %eax
	je	.LBB10_3
# %bb.11:                               # %ctrl2
	cmpl	$3, %eax
	je	.LBB10_4
# %bb.12:                               # %ctrl3
	cmpl	$4, %eax
	je	.LBB10_5
# %bb.13:                               # %ctrl4
	cmpl	$5, %eax
	je	.LBB10_6
# %bb.14:                               # %ctrl5
	cmpl	$6, %eax
	je	.LBB10_7
	jmp	.LBB10_8
.Lfunc_end10:
	.size	decompress, .Lfunc_end10-decompress
	.cfi_endproc
                                        # -- End function
	.globl	getcode                 # -- Begin function getcode
	.p2align	4, 0x90
	.type	getcode,@function
getcode:                                # @getcode
	.cfi_startproc
# %bb.0:                                # %rand_bb
	pushq	%rbp
	.cfi_def_cfa_offset 16
	.cfi_offset %rbp, -16
	movq	%rsp, %rbp
	.cfi_def_cfa_register %rbp
	callq	get_urand
	cmpl	$0, %eax
	jne	.LBB11_9
# %bb.1:                                # %func_getcode.3
	callq	getcode.3
	popq	%rbp
	.cfi_def_cfa %rsp, 8
	retq
.LBB11_2:                               # %func_getcode.4
	.cfi_def_cfa %rbp, 16
	callq	getcode.4
	popq	%rbp
	.cfi_def_cfa %rsp, 8
	retq
.LBB11_3:                               # %func_getcode.5
	.cfi_def_cfa %rbp, 16
	callq	getcode.5
	popq	%rbp
	.cfi_def_cfa %rsp, 8
	retq
.LBB11_4:                               # %func_getcode.7
	.cfi_def_cfa %rbp, 16
	callq	getcode.7
	popq	%rbp
	.cfi_def_cfa %rsp, 8
	retq
.LBB11_5:                               # %func_getcode.10
	.cfi_def_cfa %rbp, 16
	callq	getcode.10
	popq	%rbp
	.cfi_def_cfa %rsp, 8
	retq
.LBB11_6:                               # %func_getcode.14
	.cfi_def_cfa %rbp, 16
	callq	getcode.14
	popq	%rbp
	.cfi_def_cfa %rsp, 8
	retq
.LBB11_7:                               # %func_getcode.18
	.cfi_def_cfa %rbp, 16
	callq	getcode.18
	popq	%rbp
	.cfi_def_cfa %rsp, 8
	retq
.LBB11_8:                               # %func_getcode.23
	.cfi_def_cfa %rbp, 16
	callq	getcode.23
	popq	%rbp
	.cfi_def_cfa %rsp, 8
	retq
.LBB11_9:                               # %ctrl0
	.cfi_def_cfa %rbp, 16
	cmpl	$1, %eax
	je	.LBB11_2
# %bb.10:                               # %ctrl1
	cmpl	$2, %eax
	je	.LBB11_3
# %bb.11:                               # %ctrl2
	cmpl	$3, %eax
	je	.LBB11_4
# %bb.12:                               # %ctrl3
	cmpl	$4, %eax
	je	.LBB11_5
# %bb.13:                               # %ctrl4
	cmpl	$5, %eax
	je	.LBB11_6
# %bb.14:                               # %ctrl5
	cmpl	$6, %eax
	je	.LBB11_7
	jmp	.LBB11_8
.Lfunc_end11:
	.size	getcode, .Lfunc_end11-getcode
	.cfi_endproc
                                        # -- End function
	.globl	writeerr                # -- Begin function writeerr
	.p2align	4, 0x90
	.type	writeerr,@function
writeerr:                               # @writeerr
	.cfi_startproc
# %bb.0:                                # %entry
	pushq	%rbp
	.cfi_def_cfa_offset 16
	.cfi_offset %rbp, -16
	movq	%rsp, %rbp
	.cfi_def_cfa_register %rbp
	movabsq	$ofname, %rdi
	callq	perror
	movabsq	$ofname, %rdi
	callq	unlink
	movl	$1, %edi
	callq	exit
.Lfunc_end12:
	.size	writeerr, .Lfunc_end12-writeerr
	.cfi_endproc
                                        # -- End function
	.globl	foreground              # -- Begin function foreground
	.p2align	4, 0x90
	.type	foreground,@function
foreground:                             # @foreground
	.cfi_startproc
# %bb.0:                                # %entry
	pushq	%rbp
	.cfi_def_cfa_offset 16
	.cfi_offset %rbp, -16
	movq	%rsp, %rbp
	.cfi_def_cfa_register %rbp
	subq	$16, %rsp
	cmpq	$0, bgnd_flag
	je	.LBB13_2
# %bb.1:                                # %if.then
	movl	$0, -4(%rbp)
	jmp	.LBB13_5
.LBB13_2:                               # %if.else
	movl	$2, %edi
	callq	isatty
	cmpl	$0, %eax
	je	.LBB13_4
# %bb.3:                                # %if.then2
	movl	$1, -4(%rbp)
	jmp	.LBB13_5
.LBB13_4:                               # %if.else3
	movl	$0, -4(%rbp)
.LBB13_5:                               # %return
	movl	-4(%rbp), %eax
	addq	$16, %rsp
	popq	%rbp
	.cfi_def_cfa %rsp, 8
	retq
.Lfunc_end13:
	.size	foreground, .Lfunc_end13-foreground
	.cfi_endproc
                                        # -- End function
	.globl	cl_block                # -- Begin function cl_block
	.p2align	4, 0x90
	.type	cl_block,@function
cl_block:                               # @cl_block
	.cfi_startproc
# %bb.0:                                # %entry
	pushq	%rbp
	.cfi_def_cfa_offset 16
	.cfi_offset %rbp, -16
	movq	%rsp, %rbp
	.cfi_def_cfa_register %rbp
	subq	$16, %rsp
	movq	in_count, %rax
	addq	$10000, %rax            # imm = 0x2710
	movq	%rax, checkpoint
	cmpq	$8388607, in_count      # imm = 0x7FFFFF
	jle	.LBB14_5
# %bb.1:                                # %if.then
	movq	bytes_out, %rax
	sarq	$8, %rax
	movq	%rax, -8(%rbp)
	cmpq	$0, -8(%rbp)
	jne	.LBB14_3
# %bb.2:                                # %if.then2
	movq	$2147483647, -8(%rbp)   # imm = 0x7FFFFFFF
	jmp	.LBB14_4
.LBB14_3:                               # %if.else
	movq	in_count, %rax
	cqto
	idivq	-8(%rbp)
	movq	%rax, -8(%rbp)
.LBB14_4:                               # %if.end
	jmp	.LBB14_6
.LBB14_5:                               # %if.else3
	movq	in_count, %rax
	shlq	$8, %rax
	cqto
	idivq	bytes_out
	movq	%rax, -8(%rbp)
.LBB14_6:                               # %if.end5
	movq	-8(%rbp), %rax
	cmpq	ratio, %rax
	jle	.LBB14_8
# %bb.7:                                # %if.then7
	movq	-8(%rbp), %rax
	movq	%rax, ratio
	jmp	.LBB14_9
.LBB14_8:                               # %if.else8
	movq	$0, ratio
	movq	hsize, %rdi
	callq	cl_hash
	movq	$257, free_ent          # imm = 0x101
	movl	$1, clear_flg
	movl	$256, %edi              # imm = 0x100
	callq	output
.LBB14_9:                               # %if.end9
	addq	$16, %rsp
	popq	%rbp
	.cfi_def_cfa %rsp, 8
	retq
.Lfunc_end14:
	.size	cl_block, .Lfunc_end14-cl_block
	.cfi_endproc
                                        # -- End function
	.globl	version                 # -- Begin function version
	.p2align	4, 0x90
	.type	version,@function
version:                                # @version
	.cfi_startproc
# %bb.0:                                # %entry
	pushq	%rbp
	.cfi_def_cfa_offset 16
	.cfi_offset %rbp, -16
	movq	%rsp, %rbp
	.cfi_def_cfa_register %rbp
	movq	stderr, %rdi
	movabsq	$.L.str.26, %rsi
	movabsq	$rcs_ident, %rdx
	movb	$0, %al
	callq	fprintf
	movq	stderr, %rdi
	movabsq	$.L.str.27, %rsi
	movb	$0, %al
	callq	fprintf
	movq	stderr, %rdi
	movabsq	$.L.str.28, %rsi
	movl	$16, %edx
	movb	$0, %al
	callq	fprintf
	popq	%rbp
	.cfi_def_cfa %rsp, 8
	retq
.Lfunc_end15:
	.size	version, .Lfunc_end15-version
	.cfi_endproc
                                        # -- End function
	.globl	decompress.1            # -- Begin function decompress.1
	.p2align	4, 0x90
	.type	decompress.1,@function
decompress.1:                           # @decompress.1
	.cfi_startproc
# %bb.0:                                # %entry
	pushq	%rbp
	.cfi_def_cfa_offset 16
	.cfi_offset %rbp, -16
	movq	%rsp, %rbp
	.cfi_def_cfa_register %rbp
	subq	$48, %rsp
	movl	$842046256, -36(%rbp)   # imm = 0x32309B30
	movl	$9, n_bits
	movq	$511, maxcode           # imm = 0x1FF
	movq	$255, -8(%rbp)
.LBB16_1:                               # %for.cond
                                        # =>This Inner Loop Header: Depth=1
	cmpq	$0, -8(%rbp)
	jl	.LBB16_4
# %bb.2:                                # %for.body
                                        #   in Loop: Header=BB16_1 Depth=1
	movq	-8(%rbp), %rax
	movw	$0, codetab(,%rax,2)
	movq	-8(%rbp), %rax
	movq	-8(%rbp), %rcx
	movb	%al, htab(,%rcx)
# %bb.3:                                # %for.inc
                                        #   in Loop: Header=BB16_1 Depth=1
	movq	-8(%rbp), %rax
	addq	$-1, %rax
	movq	%rax, -8(%rbp)
	jmp	.LBB16_1
.LBB16_4:                               # %for.end
	movl	block_compress, %eax
	cmpl	$0, %eax
	movl	$257, %eax              # imm = 0x101
	movl	$256, %ecx              # imm = 0x100
	cmovnel	%eax, %ecx
	movslq	%ecx, %rax
	movq	%rax, free_ent
	callq	getcode
	movq	%rax, -32(%rbp)
	movl	%eax, -20(%rbp)
	cmpq	$-1, -32(%rbp)
	jne	.LBB16_6
# %bb.5:                                # %if.then
	jmp	.LBB16_33
.LBB16_6:                               # %if.end
	movl	-20(%rbp), %eax
	movsbl	%al, %edi
	callq	putchar
	movq	stdout, %rdi
	callq	ferror
	cmpl	$0, %eax
	je	.LBB16_8
# %bb.7:                                # %if.then11
	callq	writeerr
.LBB16_8:                               # %if.end12
	movabsq	$htab, %rax
	addq	$65536, %rax            # imm = 0x10000
	movq	%rax, -16(%rbp)
.LBB16_9:                               # %while.cond
                                        # =>This Loop Header: Depth=1
                                        #     Child Loop BB16_13 Depth 2
                                        #     Child Loop BB16_22 Depth 2
                                        #     Child Loop BB16_25 Depth 2
	callq	getcode
	movq	%rax, -8(%rbp)
	cmpq	$-1, %rax
	jle	.LBB16_30
# %bb.10:                               # %while.body
                                        #   in Loop: Header=BB16_9 Depth=1
	cmpq	$256, -8(%rbp)          # imm = 0x100
	jne	.LBB16_19
# %bb.11:                               # %land.lhs.true
                                        #   in Loop: Header=BB16_9 Depth=1
	cmpl	$0, block_compress
	je	.LBB16_19
# %bb.12:                               # %if.then19
                                        #   in Loop: Header=BB16_9 Depth=1
	movq	$255, -8(%rbp)
.LBB16_13:                              # %for.cond20
                                        #   Parent Loop BB16_9 Depth=1
                                        # =>  This Inner Loop Header: Depth=2
	cmpq	$0, -8(%rbp)
	jl	.LBB16_16
# %bb.14:                               # %for.body23
                                        #   in Loop: Header=BB16_13 Depth=2
	movq	-8(%rbp), %rax
	movw	$0, codetab(,%rax,2)
# %bb.15:                               # %for.inc25
                                        #   in Loop: Header=BB16_13 Depth=2
	movq	-8(%rbp), %rax
	addq	$-1, %rax
	movq	%rax, -8(%rbp)
	jmp	.LBB16_13
.LBB16_16:                              # %for.end27
                                        #   in Loop: Header=BB16_9 Depth=1
	movl	$1, clear_flg
	movq	$256, free_ent          # imm = 0x100
	callq	getcode
	movq	%rax, -8(%rbp)
	cmpq	$-1, %rax
	jne	.LBB16_18
# %bb.17:                               # %if.then31
	jmp	.LBB16_31
.LBB16_18:                              # %if.end32
                                        #   in Loop: Header=BB16_9 Depth=1
	jmp	.LBB16_19
.LBB16_19:                              # %if.end33
                                        #   in Loop: Header=BB16_9 Depth=1
	movq	-8(%rbp), %rax
	movq	%rax, -48(%rbp)
	movq	-8(%rbp), %rax
	cmpq	free_ent, %rax
	jl	.LBB16_21
# %bb.20:                               # %if.then36
                                        #   in Loop: Header=BB16_9 Depth=1
	movl	-20(%rbp), %eax
	movq	-16(%rbp), %rcx
	movq	%rcx, %rdx
	addq	$1, %rdx
	movq	%rdx, -16(%rbp)
	movb	%al, (%rcx)
	movq	-32(%rbp), %rax
	movq	%rax, -8(%rbp)
.LBB16_21:                              # %if.end38
                                        #   in Loop: Header=BB16_9 Depth=1
	jmp	.LBB16_22
.LBB16_22:                              # %while.cond39
                                        #   Parent Loop BB16_9 Depth=1
                                        # =>  This Inner Loop Header: Depth=2
	cmpq	$256, -8(%rbp)          # imm = 0x100
	jl	.LBB16_24
# %bb.23:                               # %while.body42
                                        #   in Loop: Header=BB16_22 Depth=2
	movq	-8(%rbp), %rax
	movb	htab(,%rax), %al
	movq	-16(%rbp), %rcx
	movq	%rcx, %rdx
	addq	$1, %rdx
	movq	%rdx, -16(%rbp)
	movb	%al, (%rcx)
	movq	-8(%rbp), %rax
	movzwl	codetab(,%rax,2), %eax
	movq	%rax, -8(%rbp)
	jmp	.LBB16_22
.LBB16_24:                              # %while.end
                                        #   in Loop: Header=BB16_9 Depth=1
	movq	-8(%rbp), %rax
	movzbl	htab(,%rax), %eax
	movl	%eax, -20(%rbp)
	movq	-16(%rbp), %rcx
	movq	%rcx, %rdx
	addq	$1, %rdx
	movq	%rdx, -16(%rbp)
	movb	%al, (%rcx)
.LBB16_25:                              # %do.body
                                        #   Parent Loop BB16_9 Depth=1
                                        # =>  This Inner Loop Header: Depth=2
	movq	-16(%rbp), %rax
	movq	%rax, %rcx
	addq	$-1, %rcx
	movq	%rcx, -16(%rbp)
	movzbl	-1(%rax), %edi
	callq	putchar
# %bb.26:                               # %do.cond
                                        #   in Loop: Header=BB16_25 Depth=2
	movabsq	$htab, %rax
	addq	$65536, %rax            # imm = 0x10000
	cmpq	%rax, -16(%rbp)
	ja	.LBB16_25
# %bb.27:                               # %do.end
                                        #   in Loop: Header=BB16_9 Depth=1
	movq	free_ent, %rax
	movq	%rax, -8(%rbp)
	cmpq	maxmaxcode, %rax
	jge	.LBB16_29
# %bb.28:                               # %if.then58
                                        #   in Loop: Header=BB16_9 Depth=1
	movq	-32(%rbp), %rax
	movq	-8(%rbp), %rcx
	movw	%ax, codetab(,%rcx,2)
	movl	-20(%rbp), %eax
	movq	-8(%rbp), %rcx
	movb	%al, htab(,%rcx)
	movq	-8(%rbp), %rax
	addq	$1, %rax
	movq	%rax, free_ent
.LBB16_29:                              # %if.end63
                                        #   in Loop: Header=BB16_9 Depth=1
	movq	-48(%rbp), %rax
	movq	%rax, -32(%rbp)
	jmp	.LBB16_9
.LBB16_30:                              # %while.end64.loopexit
	jmp	.LBB16_31
.LBB16_31:                              # %while.end64
	movq	stdout, %rdi
	callq	fflush
	movq	stdout, %rdi
	callq	ferror
	cmpl	$0, %eax
	je	.LBB16_33
# %bb.32:                               # %if.then68
	callq	writeerr
.LBB16_33:                              # %if.end69
	cmpl	$842046256, -36(%rbp)   # imm = 0x32309B30
	jne	.LBB16_35
.LBB16_34:
	addq	$48, %rsp
	popq	%rbp
	.cfi_def_cfa %rsp, 8
	retq
.LBB16_35:                              # %func_exit
	.cfi_def_cfa %rbp, 16
	callq	detect_breach
	jmp	.LBB16_34
.Lfunc_end16:
	.size	decompress.1, .Lfunc_end16-decompress.1
	.cfi_endproc
                                        # -- End function
	.globl	scott_hack.2            # -- Begin function scott_hack.2
	.p2align	4, 0x90
	.type	scott_hack.2,@function
scott_hack.2:                           # @scott_hack.2
	.cfi_startproc
# %bb.0:                                # %entry
	pushq	%rbp
	.cfi_def_cfa_offset 16
	.cfi_offset %rbp, -16
	movq	%rsp, %rbp
	.cfi_def_cfa_register %rbp
	pushq	%rbx
	subq	$40, %rsp
	.cfi_offset %rbx, -24
	movl	$1452013588, -32(%rbp)  # imm = 0x568BF814
	movq	%rdi, -16(%rbp)
	movq	%rsi, -40(%rbp)
	movl	%edx, -24(%rbp)
	movl	%ecx, -28(%rbp)
	movq	%r8, -48(%rbp)
.LBB17_1:                               # %probeSH
                                        # =>This Inner Loop Header: Depth=1
	movslq	-24(%rbp), %rax
	movq	-16(%rbp), %rcx
	movq	(%rcx), %rdx
	subq	%rax, %rdx
	movq	%rdx, (%rcx)
	cmpq	$0, %rdx
	jge	.LBB17_3
# %bb.2:                                # %if.then
                                        #   in Loop: Header=BB17_1 Depth=1
	movslq	-28(%rbp), %rax
	movq	-16(%rbp), %rcx
	addq	(%rcx), %rax
	movq	%rax, (%rcx)
.LBB17_3:                               # %if.end
                                        #   in Loop: Header=BB17_1 Depth=1
	movq	-16(%rbp), %rax
	movq	(%rax), %rax
	movq	htab(,%rax,8), %rax
	cmpq	-40(%rbp), %rax
	jne	.LBB17_5
# %bb.4:                                # %if.then5
	movq	-16(%rbp), %rax
	movq	(%rax), %rax
	movzwl	codetab(,%rax,2), %eax
	movq	-48(%rbp), %rcx
	movq	%rax, (%rcx)
	movl	$1, -20(%rbp)
	jmp	.LBB17_8
.LBB17_5:                               # %if.end8
                                        #   in Loop: Header=BB17_1 Depth=1
	movq	-16(%rbp), %rax
	movq	(%rax), %rax
	cmpq	$0, htab(,%rax,8)
	jle	.LBB17_7
# %bb.6:                                # %if.then12
                                        #   in Loop: Header=BB17_1 Depth=1
	jmp	.LBB17_1
.LBB17_7:                               # %if.end13
	movl	$0, -20(%rbp)
.LBB17_8:                               # %return
	movl	-20(%rbp), %ebx
	cmpl	$1452013588, -32(%rbp)  # imm = 0x568BF814
	jne	.LBB17_10
.LBB17_9:
	movl	%ebx, %eax
	addq	$40, %rsp
	popq	%rbx
	popq	%rbp
	.cfi_def_cfa %rsp, 8
	retq
.LBB17_10:                              # %func_exit
	.cfi_def_cfa %rbp, 16
	callq	detect_breach
	jmp	.LBB17_9
.Lfunc_end17:
	.size	scott_hack.2, .Lfunc_end17-scott_hack.2
	.cfi_endproc
                                        # -- End function
	.globl	getcode.3               # -- Begin function getcode.3
	.p2align	4, 0x90
	.type	getcode.3,@function
getcode.3:                              # @getcode.3
	.cfi_startproc
# %bb.0:                                # %entry
	pushq	%rbp
	.cfi_def_cfa_offset 16
	.cfi_offset %rbp, -16
	movq	%rsp, %rbp
	.cfi_def_cfa_register %rbp
	pushq	%rbx
	subq	$40, %rsp
	.cfi_offset %rbx, -24
	movl	$156790215, -36(%rbp)   # imm = 0x9586DC7
	movabsq	$getcode.buf, %rax
	movq	%rax, -24(%rbp)
	cmpl	$0, clear_flg
	jg	.LBB18_3
# %bb.1:                                # %lor.lhs.false
	movl	getcode.offset, %eax
	cmpl	getcode.size, %eax
	jge	.LBB18_3
# %bb.2:                                # %lor.lhs.false2
	movq	free_ent, %rax
	cmpq	maxcode, %rax
	jle	.LBB18_13
.LBB18_3:                               # %if.then
	movq	free_ent, %rax
	cmpq	maxcode, %rax
	jle	.LBB18_8
# %bb.4:                                # %if.then5
	movl	n_bits, %eax
	addl	$1, %eax
	movl	%eax, n_bits
	movl	n_bits, %eax
	cmpl	maxbits, %eax
	jne	.LBB18_6
# %bb.5:                                # %if.then7
	movq	maxmaxcode, %rax
	movq	%rax, maxcode
	jmp	.LBB18_7
.LBB18_6:                               # %if.else
	movl	n_bits, %ecx
                                        # kill: def $cl killed $ecx
	movl	$1, %eax
	shll	%cl, %eax
	subl	$1, %eax
	cltq
	movq	%rax, maxcode
.LBB18_7:                               # %if.end
	jmp	.LBB18_8
.LBB18_8:                               # %if.end8
	cmpl	$0, clear_flg
	jle	.LBB18_10
# %bb.9:                                # %if.then11
	movl	$9, n_bits
	movq	$511, maxcode           # imm = 0x1FF
	movl	$0, clear_flg
.LBB18_10:                              # %if.end12
	movslq	n_bits, %rdx
	movq	stdin, %rcx
	movabsq	$getcode.buf, %rdi
	movl	$1, %esi
	callq	fread
	movl	%eax, getcode.size
	cmpl	$0, getcode.size
	jg	.LBB18_12
# %bb.11:                               # %if.then17
	movq	$-1, -48(%rbp)
	jmp	.LBB18_16
.LBB18_12:                              # %if.end18
	movl	$0, getcode.offset
	movl	getcode.size, %eax
	shll	$3, %eax
	movl	n_bits, %ecx
	subl	$1, %ecx
	subl	%ecx, %eax
	movl	%eax, getcode.size
.LBB18_13:                              # %if.end22
	movl	getcode.offset, %eax
	movl	%eax, -12(%rbp)
	movl	n_bits, %eax
	movl	%eax, -16(%rbp)
	movl	-12(%rbp), %eax
	sarl	$3, %eax
	movq	-24(%rbp), %rcx
	cltq
	addq	%rax, %rcx
	movq	%rcx, -24(%rbp)
	movl	-12(%rbp), %eax
	andl	$7, %eax
	movl	%eax, -12(%rbp)
	movq	-24(%rbp), %rax
	movq	%rax, %rcx
	addq	$1, %rcx
	movq	%rcx, -24(%rbp)
	movzbl	(%rax), %eax
	movl	-12(%rbp), %ecx
                                        # kill: def $cl killed $ecx
	sarl	%cl, %eax
	cltq
	movq	%rax, -32(%rbp)
	movl	$8, %eax
	movl	$8, %ecx
	subl	-12(%rbp), %ecx
	movl	-16(%rbp), %edx
	subl	%ecx, %edx
	movl	%edx, -16(%rbp)
	subl	-12(%rbp), %eax
	movl	%eax, -12(%rbp)
	cmpl	$8, -16(%rbp)
	jl	.LBB18_15
# %bb.14:                               # %if.then31
	movq	-24(%rbp), %rax
	movq	%rax, %rcx
	addq	$1, %rcx
	movq	%rcx, -24(%rbp)
	movzbl	(%rax), %eax
	movl	-12(%rbp), %ecx
                                        # kill: def $cl killed $ecx
	shll	%cl, %eax
	cltq
	orq	-32(%rbp), %rax
	movq	%rax, -32(%rbp)
	movl	-12(%rbp), %eax
	addl	$8, %eax
	movl	%eax, -12(%rbp)
	movl	-16(%rbp), %eax
	subl	$8, %eax
	movl	%eax, -16(%rbp)
.LBB18_15:                              # %if.end37
	movq	-24(%rbp), %rax
	movzbl	(%rax), %eax
	movslq	-16(%rbp), %rcx
	movzbl	rmask(,%rcx), %ecx
	andl	%ecx, %eax
	movl	-12(%rbp), %ecx
                                        # kill: def $cl killed $ecx
	shll	%cl, %eax
	cltq
	orq	-32(%rbp), %rax
	movq	%rax, -32(%rbp)
	movl	n_bits, %eax
	addl	getcode.offset, %eax
	movl	%eax, getcode.offset
	movq	-32(%rbp), %rax
	movq	%rax, -48(%rbp)
.LBB18_16:                              # %return
	movq	-48(%rbp), %rbx
	cmpl	$156790215, -36(%rbp)   # imm = 0x9586DC7
	jne	.LBB18_18
.LBB18_17:
	movq	%rbx, %rax
	addq	$40, %rsp
	popq	%rbx
	popq	%rbp
	.cfi_def_cfa %rsp, 8
	retq
.LBB18_18:                              # %func_exit
	.cfi_def_cfa %rbp, 16
	callq	detect_breach
	jmp	.LBB18_17
.Lfunc_end18:
	.size	getcode.3, .Lfunc_end18-getcode.3
	.cfi_endproc
                                        # -- End function
	.globl	getcode.4               # -- Begin function getcode.4
	.p2align	4, 0x90
	.type	getcode.4,@function
getcode.4:                              # @getcode.4
	.cfi_startproc
# %bb.0:                                # %entry
	pushq	%rbp
	.cfi_def_cfa_offset 16
	.cfi_offset %rbp, -16
	movq	%rsp, %rbp
	.cfi_def_cfa_register %rbp
	pushq	%rbx
	subq	$40, %rsp
	.cfi_offset %rbx, -24
	movl	$1932309653, -36(%rbp)  # imm = 0x732CB495
	movabsq	$getcode.buf, %rax
	movq	%rax, -24(%rbp)
	cmpl	$0, clear_flg
	jg	.LBB19_3
# %bb.1:                                # %lor.lhs.false
	movl	getcode.offset, %eax
	cmpl	getcode.size, %eax
	jge	.LBB19_3
# %bb.2:                                # %lor.lhs.false2
	movq	free_ent, %rax
	cmpq	maxcode, %rax
	jle	.LBB19_13
.LBB19_3:                               # %if.then
	movq	free_ent, %rax
	cmpq	maxcode, %rax
	jle	.LBB19_8
# %bb.4:                                # %if.then5
	movl	n_bits, %eax
	addl	$1, %eax
	movl	%eax, n_bits
	movl	n_bits, %eax
	cmpl	maxbits, %eax
	jne	.LBB19_6
# %bb.5:                                # %if.then7
	movq	maxmaxcode, %rax
	movq	%rax, maxcode
	jmp	.LBB19_7
.LBB19_6:                               # %if.else
	movl	n_bits, %ecx
                                        # kill: def $cl killed $ecx
	movl	$1, %eax
	shll	%cl, %eax
	subl	$1, %eax
	cltq
	movq	%rax, maxcode
.LBB19_7:                               # %if.end
	jmp	.LBB19_8
.LBB19_8:                               # %if.end8
	cmpl	$0, clear_flg
	jle	.LBB19_10
# %bb.9:                                # %if.then11
	movl	$9, n_bits
	movq	$511, maxcode           # imm = 0x1FF
	movl	$0, clear_flg
.LBB19_10:                              # %if.end12
	movslq	n_bits, %rdx
	movq	stdin, %rcx
	movabsq	$getcode.buf, %rdi
	movl	$1, %esi
	callq	fread
	movl	%eax, getcode.size
	cmpl	$0, getcode.size
	jg	.LBB19_12
# %bb.11:                               # %if.then17
	movq	$-1, -48(%rbp)
	jmp	.LBB19_16
.LBB19_12:                              # %if.end18
	movl	$0, getcode.offset
	movl	getcode.size, %eax
	shll	$3, %eax
	movl	n_bits, %ecx
	subl	$1, %ecx
	subl	%ecx, %eax
	movl	%eax, getcode.size
.LBB19_13:                              # %if.end22
	movl	getcode.offset, %eax
	movl	%eax, -12(%rbp)
	movl	n_bits, %eax
	movl	%eax, -16(%rbp)
	movl	-12(%rbp), %eax
	sarl	$3, %eax
	movq	-24(%rbp), %rcx
	cltq
	addq	%rax, %rcx
	movq	%rcx, -24(%rbp)
	movl	-12(%rbp), %eax
	andl	$7, %eax
	movl	%eax, -12(%rbp)
	movq	-24(%rbp), %rax
	movq	%rax, %rcx
	addq	$1, %rcx
	movq	%rcx, -24(%rbp)
	movzbl	(%rax), %eax
	movl	-12(%rbp), %ecx
                                        # kill: def $cl killed $ecx
	sarl	%cl, %eax
	cltq
	movq	%rax, -32(%rbp)
	movl	$8, %eax
	movl	$8, %ecx
	subl	-12(%rbp), %ecx
	movl	-16(%rbp), %edx
	subl	%ecx, %edx
	movl	%edx, -16(%rbp)
	subl	-12(%rbp), %eax
	movl	%eax, -12(%rbp)
	cmpl	$8, -16(%rbp)
	jl	.LBB19_15
# %bb.14:                               # %if.then31
	movq	-24(%rbp), %rax
	movq	%rax, %rcx
	addq	$1, %rcx
	movq	%rcx, -24(%rbp)
	movzbl	(%rax), %eax
	movl	-12(%rbp), %ecx
                                        # kill: def $cl killed $ecx
	shll	%cl, %eax
	cltq
	orq	-32(%rbp), %rax
	movq	%rax, -32(%rbp)
	movl	-12(%rbp), %eax
	addl	$8, %eax
	movl	%eax, -12(%rbp)
	movl	-16(%rbp), %eax
	subl	$8, %eax
	movl	%eax, -16(%rbp)
.LBB19_15:                              # %if.end37
	movq	-24(%rbp), %rax
	movzbl	(%rax), %eax
	movslq	-16(%rbp), %rcx
	movzbl	rmask(,%rcx), %ecx
	andl	%ecx, %eax
	movl	-12(%rbp), %ecx
                                        # kill: def $cl killed $ecx
	shll	%cl, %eax
	cltq
	orq	-32(%rbp), %rax
	movq	%rax, -32(%rbp)
	movl	n_bits, %eax
	addl	getcode.offset, %eax
	movl	%eax, getcode.offset
	movq	-32(%rbp), %rax
	movq	%rax, -48(%rbp)
.LBB19_16:                              # %return
	movq	-48(%rbp), %rbx
	cmpl	$1932309653, -36(%rbp)  # imm = 0x732CB495
	jne	.LBB19_18
.LBB19_17:
	movq	%rbx, %rax
	addq	$40, %rsp
	popq	%rbx
	popq	%rbp
	.cfi_def_cfa %rsp, 8
	retq
.LBB19_18:                              # %func_exit
	.cfi_def_cfa %rbp, 16
	callq	detect_breach
	jmp	.LBB19_17
.Lfunc_end19:
	.size	getcode.4, .Lfunc_end19-getcode.4
	.cfi_endproc
                                        # -- End function
	.globl	getcode.5               # -- Begin function getcode.5
	.p2align	4, 0x90
	.type	getcode.5,@function
getcode.5:                              # @getcode.5
	.cfi_startproc
# %bb.0:                                # %entry
	pushq	%rbp
	.cfi_def_cfa_offset 16
	.cfi_offset %rbp, -16
	movq	%rsp, %rbp
	.cfi_def_cfa_register %rbp
	pushq	%rbx
	subq	$40, %rsp
	.cfi_offset %rbx, -24
	movl	$734631936, -36(%rbp)   # imm = 0x2BC99800
	movabsq	$getcode.buf, %rax
	movq	%rax, -24(%rbp)
	cmpl	$0, clear_flg
	jg	.LBB20_3
# %bb.1:                                # %lor.lhs.false
	movl	getcode.offset, %eax
	cmpl	getcode.size, %eax
	jge	.LBB20_3
# %bb.2:                                # %lor.lhs.false2
	movq	free_ent, %rax
	cmpq	maxcode, %rax
	jle	.LBB20_13
.LBB20_3:                               # %if.then
	movq	free_ent, %rax
	cmpq	maxcode, %rax
	jle	.LBB20_8
# %bb.4:                                # %if.then5
	movl	n_bits, %eax
	addl	$1, %eax
	movl	%eax, n_bits
	movl	n_bits, %eax
	cmpl	maxbits, %eax
	jne	.LBB20_6
# %bb.5:                                # %if.then7
	movq	maxmaxcode, %rax
	movq	%rax, maxcode
	jmp	.LBB20_7
.LBB20_6:                               # %if.else
	movl	n_bits, %ecx
                                        # kill: def $cl killed $ecx
	movl	$1, %eax
	shll	%cl, %eax
	subl	$1, %eax
	cltq
	movq	%rax, maxcode
.LBB20_7:                               # %if.end
	jmp	.LBB20_8
.LBB20_8:                               # %if.end8
	cmpl	$0, clear_flg
	jle	.LBB20_10
# %bb.9:                                # %if.then11
	movl	$9, n_bits
	movq	$511, maxcode           # imm = 0x1FF
	movl	$0, clear_flg
.LBB20_10:                              # %if.end12
	movslq	n_bits, %rdx
	movq	stdin, %rcx
	movabsq	$getcode.buf, %rdi
	movl	$1, %esi
	callq	fread
	movl	%eax, getcode.size
	cmpl	$0, getcode.size
	jg	.LBB20_12
# %bb.11:                               # %if.then17
	movq	$-1, -48(%rbp)
	jmp	.LBB20_16
.LBB20_12:                              # %if.end18
	movl	$0, getcode.offset
	movl	getcode.size, %eax
	shll	$3, %eax
	movl	n_bits, %ecx
	subl	$1, %ecx
	subl	%ecx, %eax
	movl	%eax, getcode.size
.LBB20_13:                              # %if.end22
	movl	getcode.offset, %eax
	movl	%eax, -12(%rbp)
	movl	n_bits, %eax
	movl	%eax, -16(%rbp)
	movl	-12(%rbp), %eax
	sarl	$3, %eax
	movq	-24(%rbp), %rcx
	cltq
	addq	%rax, %rcx
	movq	%rcx, -24(%rbp)
	movl	-12(%rbp), %eax
	andl	$7, %eax
	movl	%eax, -12(%rbp)
	movq	-24(%rbp), %rax
	movq	%rax, %rcx
	addq	$1, %rcx
	movq	%rcx, -24(%rbp)
	movzbl	(%rax), %eax
	movl	-12(%rbp), %ecx
                                        # kill: def $cl killed $ecx
	sarl	%cl, %eax
	cltq
	movq	%rax, -32(%rbp)
	movl	$8, %eax
	movl	$8, %ecx
	subl	-12(%rbp), %ecx
	movl	-16(%rbp), %edx
	subl	%ecx, %edx
	movl	%edx, -16(%rbp)
	subl	-12(%rbp), %eax
	movl	%eax, -12(%rbp)
	cmpl	$8, -16(%rbp)
	jl	.LBB20_15
# %bb.14:                               # %if.then31
	movq	-24(%rbp), %rax
	movq	%rax, %rcx
	addq	$1, %rcx
	movq	%rcx, -24(%rbp)
	movzbl	(%rax), %eax
	movl	-12(%rbp), %ecx
                                        # kill: def $cl killed $ecx
	shll	%cl, %eax
	cltq
	orq	-32(%rbp), %rax
	movq	%rax, -32(%rbp)
	movl	-12(%rbp), %eax
	addl	$8, %eax
	movl	%eax, -12(%rbp)
	movl	-16(%rbp), %eax
	subl	$8, %eax
	movl	%eax, -16(%rbp)
.LBB20_15:                              # %if.end37
	movq	-24(%rbp), %rax
	movzbl	(%rax), %eax
	movslq	-16(%rbp), %rcx
	movzbl	rmask(,%rcx), %ecx
	andl	%ecx, %eax
	movl	-12(%rbp), %ecx
                                        # kill: def $cl killed $ecx
	shll	%cl, %eax
	cltq
	orq	-32(%rbp), %rax
	movq	%rax, -32(%rbp)
	movl	n_bits, %eax
	addl	getcode.offset, %eax
	movl	%eax, getcode.offset
	movq	-32(%rbp), %rax
	movq	%rax, -48(%rbp)
.LBB20_16:                              # %return
	movq	-48(%rbp), %rbx
	cmpl	$734631936, -36(%rbp)   # imm = 0x2BC99800
	jne	.LBB20_18
.LBB20_17:
	movq	%rbx, %rax
	addq	$40, %rsp
	popq	%rbx
	popq	%rbp
	.cfi_def_cfa %rsp, 8
	retq
.LBB20_18:                              # %func_exit
	.cfi_def_cfa %rbp, 16
	callq	detect_breach
	jmp	.LBB20_17
.Lfunc_end20:
	.size	getcode.5, .Lfunc_end20-getcode.5
	.cfi_endproc
                                        # -- End function
	.globl	decompress.6            # -- Begin function decompress.6
	.p2align	4, 0x90
	.type	decompress.6,@function
decompress.6:                           # @decompress.6
	.cfi_startproc
# %bb.0:                                # %entry
	pushq	%rbp
	.cfi_def_cfa_offset 16
	.cfi_offset %rbp, -16
	movq	%rsp, %rbp
	.cfi_def_cfa_register %rbp
	subq	$48, %rsp
	movl	$2132068288, -36(%rbp)  # imm = 0x7F14C7C0
	movl	$9, n_bits
	movq	$511, maxcode           # imm = 0x1FF
	movq	$255, -8(%rbp)
.LBB21_1:                               # %for.cond
                                        # =>This Inner Loop Header: Depth=1
	cmpq	$0, -8(%rbp)
	jl	.LBB21_4
# %bb.2:                                # %for.body
                                        #   in Loop: Header=BB21_1 Depth=1
	movq	-8(%rbp), %rax
	movw	$0, codetab(,%rax,2)
	movq	-8(%rbp), %rax
	movq	-8(%rbp), %rcx
	movb	%al, htab(,%rcx)
# %bb.3:                                # %for.inc
                                        #   in Loop: Header=BB21_1 Depth=1
	movq	-8(%rbp), %rax
	addq	$-1, %rax
	movq	%rax, -8(%rbp)
	jmp	.LBB21_1
.LBB21_4:                               # %for.end
	movl	block_compress, %eax
	cmpl	$0, %eax
	movl	$257, %eax              # imm = 0x101
	movl	$256, %ecx              # imm = 0x100
	cmovnel	%eax, %ecx
	movslq	%ecx, %rax
	movq	%rax, free_ent
	callq	getcode
	movq	%rax, -32(%rbp)
	movl	%eax, -20(%rbp)
	cmpq	$-1, -32(%rbp)
	jne	.LBB21_6
# %bb.5:                                # %if.then
	jmp	.LBB21_33
.LBB21_6:                               # %if.end
	movl	-20(%rbp), %eax
	movsbl	%al, %edi
	callq	putchar
	movq	stdout, %rdi
	callq	ferror
	cmpl	$0, %eax
	je	.LBB21_8
# %bb.7:                                # %if.then11
	callq	writeerr
.LBB21_8:                               # %if.end12
	movabsq	$htab, %rax
	addq	$65536, %rax            # imm = 0x10000
	movq	%rax, -16(%rbp)
.LBB21_9:                               # %while.cond
                                        # =>This Loop Header: Depth=1
                                        #     Child Loop BB21_13 Depth 2
                                        #     Child Loop BB21_22 Depth 2
                                        #     Child Loop BB21_25 Depth 2
	callq	getcode
	movq	%rax, -8(%rbp)
	cmpq	$-1, %rax
	jle	.LBB21_30
# %bb.10:                               # %while.body
                                        #   in Loop: Header=BB21_9 Depth=1
	cmpq	$256, -8(%rbp)          # imm = 0x100
	jne	.LBB21_19
# %bb.11:                               # %land.lhs.true
                                        #   in Loop: Header=BB21_9 Depth=1
	cmpl	$0, block_compress
	je	.LBB21_19
# %bb.12:                               # %if.then19
                                        #   in Loop: Header=BB21_9 Depth=1
	movq	$255, -8(%rbp)
.LBB21_13:                              # %for.cond20
                                        #   Parent Loop BB21_9 Depth=1
                                        # =>  This Inner Loop Header: Depth=2
	cmpq	$0, -8(%rbp)
	jl	.LBB21_16
# %bb.14:                               # %for.body23
                                        #   in Loop: Header=BB21_13 Depth=2
	movq	-8(%rbp), %rax
	movw	$0, codetab(,%rax,2)
# %bb.15:                               # %for.inc25
                                        #   in Loop: Header=BB21_13 Depth=2
	movq	-8(%rbp), %rax
	addq	$-1, %rax
	movq	%rax, -8(%rbp)
	jmp	.LBB21_13
.LBB21_16:                              # %for.end27
                                        #   in Loop: Header=BB21_9 Depth=1
	movl	$1, clear_flg
	movq	$256, free_ent          # imm = 0x100
	callq	getcode
	movq	%rax, -8(%rbp)
	cmpq	$-1, %rax
	jne	.LBB21_18
# %bb.17:                               # %if.then31
	jmp	.LBB21_31
.LBB21_18:                              # %if.end32
                                        #   in Loop: Header=BB21_9 Depth=1
	jmp	.LBB21_19
.LBB21_19:                              # %if.end33
                                        #   in Loop: Header=BB21_9 Depth=1
	movq	-8(%rbp), %rax
	movq	%rax, -48(%rbp)
	movq	-8(%rbp), %rax
	cmpq	free_ent, %rax
	jl	.LBB21_21
# %bb.20:                               # %if.then36
                                        #   in Loop: Header=BB21_9 Depth=1
	movl	-20(%rbp), %eax
	movq	-16(%rbp), %rcx
	movq	%rcx, %rdx
	addq	$1, %rdx
	movq	%rdx, -16(%rbp)
	movb	%al, (%rcx)
	movq	-32(%rbp), %rax
	movq	%rax, -8(%rbp)
.LBB21_21:                              # %if.end38
                                        #   in Loop: Header=BB21_9 Depth=1
	jmp	.LBB21_22
.LBB21_22:                              # %while.cond39
                                        #   Parent Loop BB21_9 Depth=1
                                        # =>  This Inner Loop Header: Depth=2
	cmpq	$256, -8(%rbp)          # imm = 0x100
	jl	.LBB21_24
# %bb.23:                               # %while.body42
                                        #   in Loop: Header=BB21_22 Depth=2
	movq	-8(%rbp), %rax
	movb	htab(,%rax), %al
	movq	-16(%rbp), %rcx
	movq	%rcx, %rdx
	addq	$1, %rdx
	movq	%rdx, -16(%rbp)
	movb	%al, (%rcx)
	movq	-8(%rbp), %rax
	movzwl	codetab(,%rax,2), %eax
	movq	%rax, -8(%rbp)
	jmp	.LBB21_22
.LBB21_24:                              # %while.end
                                        #   in Loop: Header=BB21_9 Depth=1
	movq	-8(%rbp), %rax
	movzbl	htab(,%rax), %eax
	movl	%eax, -20(%rbp)
	movq	-16(%rbp), %rcx
	movq	%rcx, %rdx
	addq	$1, %rdx
	movq	%rdx, -16(%rbp)
	movb	%al, (%rcx)
.LBB21_25:                              # %do.body
                                        #   Parent Loop BB21_9 Depth=1
                                        # =>  This Inner Loop Header: Depth=2
	movq	-16(%rbp), %rax
	movq	%rax, %rcx
	addq	$-1, %rcx
	movq	%rcx, -16(%rbp)
	movzbl	-1(%rax), %edi
	callq	putchar
# %bb.26:                               # %do.cond
                                        #   in Loop: Header=BB21_25 Depth=2
	movabsq	$htab, %rax
	addq	$65536, %rax            # imm = 0x10000
	cmpq	%rax, -16(%rbp)
	ja	.LBB21_25
# %bb.27:                               # %do.end
                                        #   in Loop: Header=BB21_9 Depth=1
	movq	free_ent, %rax
	movq	%rax, -8(%rbp)
	cmpq	maxmaxcode, %rax
	jge	.LBB21_29
# %bb.28:                               # %if.then58
                                        #   in Loop: Header=BB21_9 Depth=1
	movq	-32(%rbp), %rax
	movq	-8(%rbp), %rcx
	movw	%ax, codetab(,%rcx,2)
	movl	-20(%rbp), %eax
	movq	-8(%rbp), %rcx
	movb	%al, htab(,%rcx)
	movq	-8(%rbp), %rax
	addq	$1, %rax
	movq	%rax, free_ent
.LBB21_29:                              # %if.end63
                                        #   in Loop: Header=BB21_9 Depth=1
	movq	-48(%rbp), %rax
	movq	%rax, -32(%rbp)
	jmp	.LBB21_9
.LBB21_30:                              # %while.end64.loopexit
	jmp	.LBB21_31
.LBB21_31:                              # %while.end64
	movq	stdout, %rdi
	callq	fflush
	movq	stdout, %rdi
	callq	ferror
	cmpl	$0, %eax
	je	.LBB21_33
# %bb.32:                               # %if.then68
	callq	writeerr
.LBB21_33:                              # %if.end69
	cmpl	$2132068288, -36(%rbp)  # imm = 0x7F14C7C0
	jne	.LBB21_35
.LBB21_34:
	addq	$48, %rsp
	popq	%rbp
	.cfi_def_cfa %rsp, 8
	retq
.LBB21_35:                              # %func_exit
	.cfi_def_cfa %rbp, 16
	callq	detect_breach
	jmp	.LBB21_34
.Lfunc_end21:
	.size	decompress.6, .Lfunc_end21-decompress.6
	.cfi_endproc
                                        # -- End function
	.globl	getcode.7               # -- Begin function getcode.7
	.p2align	4, 0x90
	.type	getcode.7,@function
getcode.7:                              # @getcode.7
	.cfi_startproc
# %bb.0:                                # %entry
	pushq	%rbp
	.cfi_def_cfa_offset 16
	.cfi_offset %rbp, -16
	movq	%rsp, %rbp
	.cfi_def_cfa_register %rbp
	pushq	%rbx
	subq	$40, %rsp
	.cfi_offset %rbx, -24
	movl	$874959526, -36(%rbp)   # imm = 0x3426D2A6
	movabsq	$getcode.buf, %rax
	movq	%rax, -24(%rbp)
	cmpl	$0, clear_flg
	jg	.LBB22_3
# %bb.1:                                # %lor.lhs.false
	movl	getcode.offset, %eax
	cmpl	getcode.size, %eax
	jge	.LBB22_3
# %bb.2:                                # %lor.lhs.false2
	movq	free_ent, %rax
	cmpq	maxcode, %rax
	jle	.LBB22_13
.LBB22_3:                               # %if.then
	movq	free_ent, %rax
	cmpq	maxcode, %rax
	jle	.LBB22_8
# %bb.4:                                # %if.then5
	movl	n_bits, %eax
	addl	$1, %eax
	movl	%eax, n_bits
	movl	n_bits, %eax
	cmpl	maxbits, %eax
	jne	.LBB22_6
# %bb.5:                                # %if.then7
	movq	maxmaxcode, %rax
	movq	%rax, maxcode
	jmp	.LBB22_7
.LBB22_6:                               # %if.else
	movl	n_bits, %ecx
                                        # kill: def $cl killed $ecx
	movl	$1, %eax
	shll	%cl, %eax
	subl	$1, %eax
	cltq
	movq	%rax, maxcode
.LBB22_7:                               # %if.end
	jmp	.LBB22_8
.LBB22_8:                               # %if.end8
	cmpl	$0, clear_flg
	jle	.LBB22_10
# %bb.9:                                # %if.then11
	movl	$9, n_bits
	movq	$511, maxcode           # imm = 0x1FF
	movl	$0, clear_flg
.LBB22_10:                              # %if.end12
	movslq	n_bits, %rdx
	movq	stdin, %rcx
	movabsq	$getcode.buf, %rdi
	movl	$1, %esi
	callq	fread
	movl	%eax, getcode.size
	cmpl	$0, getcode.size
	jg	.LBB22_12
# %bb.11:                               # %if.then17
	movq	$-1, -48(%rbp)
	jmp	.LBB22_16
.LBB22_12:                              # %if.end18
	movl	$0, getcode.offset
	movl	getcode.size, %eax
	shll	$3, %eax
	movl	n_bits, %ecx
	subl	$1, %ecx
	subl	%ecx, %eax
	movl	%eax, getcode.size
.LBB22_13:                              # %if.end22
	movl	getcode.offset, %eax
	movl	%eax, -12(%rbp)
	movl	n_bits, %eax
	movl	%eax, -16(%rbp)
	movl	-12(%rbp), %eax
	sarl	$3, %eax
	movq	-24(%rbp), %rcx
	cltq
	addq	%rax, %rcx
	movq	%rcx, -24(%rbp)
	movl	-12(%rbp), %eax
	andl	$7, %eax
	movl	%eax, -12(%rbp)
	movq	-24(%rbp), %rax
	movq	%rax, %rcx
	addq	$1, %rcx
	movq	%rcx, -24(%rbp)
	movzbl	(%rax), %eax
	movl	-12(%rbp), %ecx
                                        # kill: def $cl killed $ecx
	sarl	%cl, %eax
	cltq
	movq	%rax, -32(%rbp)
	movl	$8, %eax
	movl	$8, %ecx
	subl	-12(%rbp), %ecx
	movl	-16(%rbp), %edx
	subl	%ecx, %edx
	movl	%edx, -16(%rbp)
	subl	-12(%rbp), %eax
	movl	%eax, -12(%rbp)
	cmpl	$8, -16(%rbp)
	jl	.LBB22_15
# %bb.14:                               # %if.then31
	movq	-24(%rbp), %rax
	movq	%rax, %rcx
	addq	$1, %rcx
	movq	%rcx, -24(%rbp)
	movzbl	(%rax), %eax
	movl	-12(%rbp), %ecx
                                        # kill: def $cl killed $ecx
	shll	%cl, %eax
	cltq
	orq	-32(%rbp), %rax
	movq	%rax, -32(%rbp)
	movl	-12(%rbp), %eax
	addl	$8, %eax
	movl	%eax, -12(%rbp)
	movl	-16(%rbp), %eax
	subl	$8, %eax
	movl	%eax, -16(%rbp)
.LBB22_15:                              # %if.end37
	movq	-24(%rbp), %rax
	movzbl	(%rax), %eax
	movslq	-16(%rbp), %rcx
	movzbl	rmask(,%rcx), %ecx
	andl	%ecx, %eax
	movl	-12(%rbp), %ecx
                                        # kill: def $cl killed $ecx
	shll	%cl, %eax
	cltq
	orq	-32(%rbp), %rax
	movq	%rax, -32(%rbp)
	movl	n_bits, %eax
	addl	getcode.offset, %eax
	movl	%eax, getcode.offset
	movq	-32(%rbp), %rax
	movq	%rax, -48(%rbp)
.LBB22_16:                              # %return
	movq	-48(%rbp), %rbx
	cmpl	$874959526, -36(%rbp)   # imm = 0x3426D2A6
	jne	.LBB22_18
.LBB22_17:
	movq	%rbx, %rax
	addq	$40, %rsp
	popq	%rbx
	popq	%rbp
	.cfi_def_cfa %rsp, 8
	retq
.LBB22_18:                              # %func_exit
	.cfi_def_cfa %rbp, 16
	callq	detect_breach
	jmp	.LBB22_17
.Lfunc_end22:
	.size	getcode.7, .Lfunc_end22-getcode.7
	.cfi_endproc
                                        # -- End function
	.globl	output.8                # -- Begin function output.8
	.p2align	4, 0x90
	.type	output.8,@function
output.8:                               # @output.8
	.cfi_startproc
# %bb.0:                                # %entry
	pushq	%rbp
	.cfi_def_cfa_offset 16
	.cfi_offset %rbp, -16
	movq	%rsp, %rbp
	.cfi_def_cfa_register %rbp
	subq	$32, %rsp
	movl	$648383277, -28(%rbp)   # imm = 0x26A58B2D
	movq	%rdi, -24(%rbp)
	movl	offset, %eax
	movl	%eax, -8(%rbp)
	movl	n_bits, %eax
	movl	%eax, -4(%rbp)
	movabsq	$buf, %rax
	movq	%rax, -16(%rbp)
	cmpq	$0, -24(%rbp)
	jl	.LBB23_24
# %bb.1:                                # %if.then
	movl	-8(%rbp), %eax
	sarl	$3, %eax
	movq	-16(%rbp), %rcx
	cltq
	addq	%rax, %rcx
	movq	%rcx, -16(%rbp)
	movl	-8(%rbp), %eax
	andl	$7, %eax
	movl	%eax, -8(%rbp)
	movq	-16(%rbp), %rax
	movsbl	(%rax), %eax
	movslq	-8(%rbp), %rcx
	movzbl	rmask(,%rcx), %ecx
	andl	%ecx, %eax
	cltq
	movq	-24(%rbp), %rdx
	movl	-8(%rbp), %ecx
                                        # kill: def $cl killed $rcx
	shlq	%cl, %rdx
	movslq	-8(%rbp), %rcx
	movzbl	lmask(,%rcx), %ecx
	andq	%rcx, %rdx
	orq	%rdx, %rax
	movq	-16(%rbp), %rcx
	movb	%al, (%rcx)
	movq	-16(%rbp), %rax
	addq	$1, %rax
	movq	%rax, -16(%rbp)
	movl	$8, %eax
	movl	$8, %ecx
	subl	-8(%rbp), %ecx
	movl	-4(%rbp), %edx
	subl	%ecx, %edx
	movl	%edx, -4(%rbp)
	subl	-8(%rbp), %eax
	movq	-24(%rbp), %rdx
	movl	%eax, %ecx
                                        # kill: def $cl killed $rcx
	sarq	%cl, %rdx
	movq	%rdx, -24(%rbp)
	cmpl	$8, -4(%rbp)
	jl	.LBB23_3
# %bb.2:                                # %if.then15
	movq	-24(%rbp), %rax
	movq	-16(%rbp), %rcx
	movq	%rcx, %rdx
	addq	$1, %rdx
	movq	%rdx, -16(%rbp)
	movb	%al, (%rcx)
	movq	-24(%rbp), %rax
	sarq	$8, %rax
	movq	%rax, -24(%rbp)
	movl	-4(%rbp), %eax
	subl	$8, %eax
	movl	%eax, -4(%rbp)
.LBB23_3:                               # %if.end
	cmpl	$0, -4(%rbp)
	je	.LBB23_5
# %bb.4:                                # %if.then20
	movq	-24(%rbp), %rax
	movq	-16(%rbp), %rcx
	movb	%al, (%rcx)
.LBB23_5:                               # %if.end22
	movl	n_bits, %eax
	addl	offset, %eax
	movl	%eax, offset
	movl	offset, %eax
	movl	n_bits, %ecx
	shll	$3, %ecx
	cmpl	%ecx, %eax
	jne	.LBB23_10
# %bb.6:                                # %if.then26
	movabsq	$buf, %rax
	movq	%rax, -16(%rbp)
	movl	n_bits, %eax
	movl	%eax, -4(%rbp)
	movslq	-4(%rbp), %rax
	addq	bytes_out, %rax
	movq	%rax, bytes_out
.LBB23_7:                               # %do.body
                                        # =>This Inner Loop Header: Depth=1
	movq	-16(%rbp), %rax
	movq	%rax, %rcx
	addq	$1, %rcx
	movq	%rcx, -16(%rbp)
	movsbl	(%rax), %edi
	callq	putchar
# %bb.8:                                # %do.cond
                                        #   in Loop: Header=BB23_7 Depth=1
	movl	-4(%rbp), %eax
	addl	$-1, %eax
	movl	%eax, -4(%rbp)
	cmpl	$0, %eax
	jne	.LBB23_7
# %bb.9:                                # %do.end
	movl	$0, offset
.LBB23_10:                              # %if.end32
	movq	free_ent, %rax
	cmpq	maxcode, %rax
	jg	.LBB23_12
# %bb.11:                               # %lor.lhs.false
	cmpl	$0, clear_flg
	jle	.LBB23_23
.LBB23_12:                              # %if.then37
	cmpl	$0, offset
	jle	.LBB23_16
# %bb.13:                               # %if.then40
	movslq	n_bits, %rdx
	movq	stdout, %rcx
	movabsq	$buf, %rdi
	movl	$1, %esi
	callq	fwrite
	movslq	n_bits, %rcx
	cmpq	%rcx, %rax
	je	.LBB23_15
# %bb.14:                               # %if.then46
	callq	writeerr
.LBB23_15:                              # %if.end47
	movslq	n_bits, %rax
	addq	bytes_out, %rax
	movq	%rax, bytes_out
.LBB23_16:                              # %if.end50
	movl	$0, offset
	cmpl	$0, clear_flg
	je	.LBB23_18
# %bb.17:                               # %if.then52
	movl	$9, n_bits
	movq	$511, maxcode           # imm = 0x1FF
	movl	$0, clear_flg
	jmp	.LBB23_22
.LBB23_18:                              # %if.else
	movl	n_bits, %eax
	addl	$1, %eax
	movl	%eax, n_bits
	movl	n_bits, %eax
	cmpl	maxbits, %eax
	jne	.LBB23_20
# %bb.19:                               # %if.then55
	movq	maxmaxcode, %rax
	movq	%rax, maxcode
	jmp	.LBB23_21
.LBB23_20:                              # %if.else56
	movl	n_bits, %ecx
                                        # kill: def $cl killed $ecx
	movl	$1, %eax
	shll	%cl, %eax
	subl	$1, %eax
	cltq
	movq	%rax, maxcode
.LBB23_21:                              # %if.end60
	jmp	.LBB23_22
.LBB23_22:                              # %if.end61
	jmp	.LBB23_23
.LBB23_23:                              # %if.end62
	jmp	.LBB23_29
.LBB23_24:                              # %if.else63
	cmpl	$0, offset
	jle	.LBB23_26
# %bb.25:                               # %if.then66
	movl	offset, %eax
	addl	$7, %eax
	cltd
	movl	$8, %ecx
	idivl	%ecx
	movslq	%eax, %rdx
	movq	stdout, %rcx
	movabsq	$buf, %rdi
	movl	$1, %esi
	callq	fwrite
.LBB23_26:                              # %if.end70
	movl	offset, %eax
	addl	$7, %eax
	cltd
	movl	$8, %ecx
	idivl	%ecx
	cltq
	addq	bytes_out, %rax
	movq	%rax, bytes_out
	movl	$0, offset
	movq	stdout, %rdi
	callq	fflush
	movq	stdout, %rdi
	callq	ferror
	cmpl	$0, %eax
	je	.LBB23_28
# %bb.27:                               # %if.then78
	callq	writeerr
.LBB23_28:                              # %if.end79
	jmp	.LBB23_29
.LBB23_29:                              # %if.end80
	cmpl	$648383277, -28(%rbp)   # imm = 0x26A58B2D
	jne	.LBB23_31
.LBB23_30:
	addq	$32, %rsp
	popq	%rbp
	.cfi_def_cfa %rsp, 8
	retq
.LBB23_31:                              # %func_exit
	.cfi_def_cfa %rbp, 16
	callq	detect_breach
	jmp	.LBB23_30
.Lfunc_end23:
	.size	output.8, .Lfunc_end23-output.8
	.cfi_endproc
                                        # -- End function
	.globl	decompress.9            # -- Begin function decompress.9
	.p2align	4, 0x90
	.type	decompress.9,@function
decompress.9:                           # @decompress.9
	.cfi_startproc
# %bb.0:                                # %entry
	pushq	%rbp
	.cfi_def_cfa_offset 16
	.cfi_offset %rbp, -16
	movq	%rsp, %rbp
	.cfi_def_cfa_register %rbp
	subq	$48, %rsp
	movl	$1085933488, -36(%rbp)  # imm = 0x40BA07B0
	movl	$9, n_bits
	movq	$511, maxcode           # imm = 0x1FF
	movq	$255, -8(%rbp)
.LBB24_1:                               # %for.cond
                                        # =>This Inner Loop Header: Depth=1
	cmpq	$0, -8(%rbp)
	jl	.LBB24_4
# %bb.2:                                # %for.body
                                        #   in Loop: Header=BB24_1 Depth=1
	movq	-8(%rbp), %rax
	movw	$0, codetab(,%rax,2)
	movq	-8(%rbp), %rax
	movq	-8(%rbp), %rcx
	movb	%al, htab(,%rcx)
# %bb.3:                                # %for.inc
                                        #   in Loop: Header=BB24_1 Depth=1
	movq	-8(%rbp), %rax
	addq	$-1, %rax
	movq	%rax, -8(%rbp)
	jmp	.LBB24_1
.LBB24_4:                               # %for.end
	movl	block_compress, %eax
	cmpl	$0, %eax
	movl	$257, %eax              # imm = 0x101
	movl	$256, %ecx              # imm = 0x100
	cmovnel	%eax, %ecx
	movslq	%ecx, %rax
	movq	%rax, free_ent
	callq	getcode
	movq	%rax, -32(%rbp)
	movl	%eax, -20(%rbp)
	cmpq	$-1, -32(%rbp)
	jne	.LBB24_6
# %bb.5:                                # %if.then
	jmp	.LBB24_33
.LBB24_6:                               # %if.end
	movl	-20(%rbp), %eax
	movsbl	%al, %edi
	callq	putchar
	movq	stdout, %rdi
	callq	ferror
	cmpl	$0, %eax
	je	.LBB24_8
# %bb.7:                                # %if.then11
	callq	writeerr
.LBB24_8:                               # %if.end12
	movabsq	$htab, %rax
	addq	$65536, %rax            # imm = 0x10000
	movq	%rax, -16(%rbp)
.LBB24_9:                               # %while.cond
                                        # =>This Loop Header: Depth=1
                                        #     Child Loop BB24_13 Depth 2
                                        #     Child Loop BB24_22 Depth 2
                                        #     Child Loop BB24_25 Depth 2
	callq	getcode
	movq	%rax, -8(%rbp)
	cmpq	$-1, %rax
	jle	.LBB24_30
# %bb.10:                               # %while.body
                                        #   in Loop: Header=BB24_9 Depth=1
	cmpq	$256, -8(%rbp)          # imm = 0x100
	jne	.LBB24_19
# %bb.11:                               # %land.lhs.true
                                        #   in Loop: Header=BB24_9 Depth=1
	cmpl	$0, block_compress
	je	.LBB24_19
# %bb.12:                               # %if.then19
                                        #   in Loop: Header=BB24_9 Depth=1
	movq	$255, -8(%rbp)
.LBB24_13:                              # %for.cond20
                                        #   Parent Loop BB24_9 Depth=1
                                        # =>  This Inner Loop Header: Depth=2
	cmpq	$0, -8(%rbp)
	jl	.LBB24_16
# %bb.14:                               # %for.body23
                                        #   in Loop: Header=BB24_13 Depth=2
	movq	-8(%rbp), %rax
	movw	$0, codetab(,%rax,2)
# %bb.15:                               # %for.inc25
                                        #   in Loop: Header=BB24_13 Depth=2
	movq	-8(%rbp), %rax
	addq	$-1, %rax
	movq	%rax, -8(%rbp)
	jmp	.LBB24_13
.LBB24_16:                              # %for.end27
                                        #   in Loop: Header=BB24_9 Depth=1
	movl	$1, clear_flg
	movq	$256, free_ent          # imm = 0x100
	callq	getcode
	movq	%rax, -8(%rbp)
	cmpq	$-1, %rax
	jne	.LBB24_18
# %bb.17:                               # %if.then31
	jmp	.LBB24_31
.LBB24_18:                              # %if.end32
                                        #   in Loop: Header=BB24_9 Depth=1
	jmp	.LBB24_19
.LBB24_19:                              # %if.end33
                                        #   in Loop: Header=BB24_9 Depth=1
	movq	-8(%rbp), %rax
	movq	%rax, -48(%rbp)
	movq	-8(%rbp), %rax
	cmpq	free_ent, %rax
	jl	.LBB24_21
# %bb.20:                               # %if.then36
                                        #   in Loop: Header=BB24_9 Depth=1
	movl	-20(%rbp), %eax
	movq	-16(%rbp), %rcx
	movq	%rcx, %rdx
	addq	$1, %rdx
	movq	%rdx, -16(%rbp)
	movb	%al, (%rcx)
	movq	-32(%rbp), %rax
	movq	%rax, -8(%rbp)
.LBB24_21:                              # %if.end38
                                        #   in Loop: Header=BB24_9 Depth=1
	jmp	.LBB24_22
.LBB24_22:                              # %while.cond39
                                        #   Parent Loop BB24_9 Depth=1
                                        # =>  This Inner Loop Header: Depth=2
	cmpq	$256, -8(%rbp)          # imm = 0x100
	jl	.LBB24_24
# %bb.23:                               # %while.body42
                                        #   in Loop: Header=BB24_22 Depth=2
	movq	-8(%rbp), %rax
	movb	htab(,%rax), %al
	movq	-16(%rbp), %rcx
	movq	%rcx, %rdx
	addq	$1, %rdx
	movq	%rdx, -16(%rbp)
	movb	%al, (%rcx)
	movq	-8(%rbp), %rax
	movzwl	codetab(,%rax,2), %eax
	movq	%rax, -8(%rbp)
	jmp	.LBB24_22
.LBB24_24:                              # %while.end
                                        #   in Loop: Header=BB24_9 Depth=1
	movq	-8(%rbp), %rax
	movzbl	htab(,%rax), %eax
	movl	%eax, -20(%rbp)
	movq	-16(%rbp), %rcx
	movq	%rcx, %rdx
	addq	$1, %rdx
	movq	%rdx, -16(%rbp)
	movb	%al, (%rcx)
.LBB24_25:                              # %do.body
                                        #   Parent Loop BB24_9 Depth=1
                                        # =>  This Inner Loop Header: Depth=2
	movq	-16(%rbp), %rax
	movq	%rax, %rcx
	addq	$-1, %rcx
	movq	%rcx, -16(%rbp)
	movzbl	-1(%rax), %edi
	callq	putchar
# %bb.26:                               # %do.cond
                                        #   in Loop: Header=BB24_25 Depth=2
	movabsq	$htab, %rax
	addq	$65536, %rax            # imm = 0x10000
	cmpq	%rax, -16(%rbp)
	ja	.LBB24_25
# %bb.27:                               # %do.end
                                        #   in Loop: Header=BB24_9 Depth=1
	movq	free_ent, %rax
	movq	%rax, -8(%rbp)
	cmpq	maxmaxcode, %rax
	jge	.LBB24_29
# %bb.28:                               # %if.then58
                                        #   in Loop: Header=BB24_9 Depth=1
	movq	-32(%rbp), %rax
	movq	-8(%rbp), %rcx
	movw	%ax, codetab(,%rcx,2)
	movl	-20(%rbp), %eax
	movq	-8(%rbp), %rcx
	movb	%al, htab(,%rcx)
	movq	-8(%rbp), %rax
	addq	$1, %rax
	movq	%rax, free_ent
.LBB24_29:                              # %if.end63
                                        #   in Loop: Header=BB24_9 Depth=1
	movq	-48(%rbp), %rax
	movq	%rax, -32(%rbp)
	jmp	.LBB24_9
.LBB24_30:                              # %while.end64.loopexit
	jmp	.LBB24_31
.LBB24_31:                              # %while.end64
	movq	stdout, %rdi
	callq	fflush
	movq	stdout, %rdi
	callq	ferror
	cmpl	$0, %eax
	je	.LBB24_33
# %bb.32:                               # %if.then68
	callq	writeerr
.LBB24_33:                              # %if.end69
	cmpl	$1085933488, -36(%rbp)  # imm = 0x40BA07B0
	jne	.LBB24_35
.LBB24_34:
	addq	$48, %rsp
	popq	%rbp
	.cfi_def_cfa %rsp, 8
	retq
.LBB24_35:                              # %func_exit
	.cfi_def_cfa %rbp, 16
	callq	detect_breach
	jmp	.LBB24_34
.Lfunc_end24:
	.size	decompress.9, .Lfunc_end24-decompress.9
	.cfi_endproc
                                        # -- End function
	.globl	getcode.10              # -- Begin function getcode.10
	.p2align	4, 0x90
	.type	getcode.10,@function
getcode.10:                             # @getcode.10
	.cfi_startproc
# %bb.0:                                # %entry
	pushq	%rbp
	.cfi_def_cfa_offset 16
	.cfi_offset %rbp, -16
	movq	%rsp, %rbp
	.cfi_def_cfa_register %rbp
	pushq	%rbx
	subq	$40, %rsp
	.cfi_offset %rbx, -24
	movl	$1945694439, -36(%rbp)  # imm = 0x73F8F0E7
	movabsq	$getcode.buf, %rax
	movq	%rax, -24(%rbp)
	cmpl	$0, clear_flg
	jg	.LBB25_3
# %bb.1:                                # %lor.lhs.false
	movl	getcode.offset, %eax
	cmpl	getcode.size, %eax
	jge	.LBB25_3
# %bb.2:                                # %lor.lhs.false2
	movq	free_ent, %rax
	cmpq	maxcode, %rax
	jle	.LBB25_13
.LBB25_3:                               # %if.then
	movq	free_ent, %rax
	cmpq	maxcode, %rax
	jle	.LBB25_8
# %bb.4:                                # %if.then5
	movl	n_bits, %eax
	addl	$1, %eax
	movl	%eax, n_bits
	movl	n_bits, %eax
	cmpl	maxbits, %eax
	jne	.LBB25_6
# %bb.5:                                # %if.then7
	movq	maxmaxcode, %rax
	movq	%rax, maxcode
	jmp	.LBB25_7
.LBB25_6:                               # %if.else
	movl	n_bits, %ecx
                                        # kill: def $cl killed $ecx
	movl	$1, %eax
	shll	%cl, %eax
	subl	$1, %eax
	cltq
	movq	%rax, maxcode
.LBB25_7:                               # %if.end
	jmp	.LBB25_8
.LBB25_8:                               # %if.end8
	cmpl	$0, clear_flg
	jle	.LBB25_10
# %bb.9:                                # %if.then11
	movl	$9, n_bits
	movq	$511, maxcode           # imm = 0x1FF
	movl	$0, clear_flg
.LBB25_10:                              # %if.end12
	movslq	n_bits, %rdx
	movq	stdin, %rcx
	movabsq	$getcode.buf, %rdi
	movl	$1, %esi
	callq	fread
	movl	%eax, getcode.size
	cmpl	$0, getcode.size
	jg	.LBB25_12
# %bb.11:                               # %if.then17
	movq	$-1, -48(%rbp)
	jmp	.LBB25_16
.LBB25_12:                              # %if.end18
	movl	$0, getcode.offset
	movl	getcode.size, %eax
	shll	$3, %eax
	movl	n_bits, %ecx
	subl	$1, %ecx
	subl	%ecx, %eax
	movl	%eax, getcode.size
.LBB25_13:                              # %if.end22
	movl	getcode.offset, %eax
	movl	%eax, -12(%rbp)
	movl	n_bits, %eax
	movl	%eax, -16(%rbp)
	movl	-12(%rbp), %eax
	sarl	$3, %eax
	movq	-24(%rbp), %rcx
	cltq
	addq	%rax, %rcx
	movq	%rcx, -24(%rbp)
	movl	-12(%rbp), %eax
	andl	$7, %eax
	movl	%eax, -12(%rbp)
	movq	-24(%rbp), %rax
	movq	%rax, %rcx
	addq	$1, %rcx
	movq	%rcx, -24(%rbp)
	movzbl	(%rax), %eax
	movl	-12(%rbp), %ecx
                                        # kill: def $cl killed $ecx
	sarl	%cl, %eax
	cltq
	movq	%rax, -32(%rbp)
	movl	$8, %eax
	movl	$8, %ecx
	subl	-12(%rbp), %ecx
	movl	-16(%rbp), %edx
	subl	%ecx, %edx
	movl	%edx, -16(%rbp)
	subl	-12(%rbp), %eax
	movl	%eax, -12(%rbp)
	cmpl	$8, -16(%rbp)
	jl	.LBB25_15
# %bb.14:                               # %if.then31
	movq	-24(%rbp), %rax
	movq	%rax, %rcx
	addq	$1, %rcx
	movq	%rcx, -24(%rbp)
	movzbl	(%rax), %eax
	movl	-12(%rbp), %ecx
                                        # kill: def $cl killed $ecx
	shll	%cl, %eax
	cltq
	orq	-32(%rbp), %rax
	movq	%rax, -32(%rbp)
	movl	-12(%rbp), %eax
	addl	$8, %eax
	movl	%eax, -12(%rbp)
	movl	-16(%rbp), %eax
	subl	$8, %eax
	movl	%eax, -16(%rbp)
.LBB25_15:                              # %if.end37
	movq	-24(%rbp), %rax
	movzbl	(%rax), %eax
	movslq	-16(%rbp), %rcx
	movzbl	rmask(,%rcx), %ecx
	andl	%ecx, %eax
	movl	-12(%rbp), %ecx
                                        # kill: def $cl killed $ecx
	shll	%cl, %eax
	cltq
	orq	-32(%rbp), %rax
	movq	%rax, -32(%rbp)
	movl	n_bits, %eax
	addl	getcode.offset, %eax
	movl	%eax, getcode.offset
	movq	-32(%rbp), %rax
	movq	%rax, -48(%rbp)
.LBB25_16:                              # %return
	movq	-48(%rbp), %rbx
	cmpl	$1945694439, -36(%rbp)  # imm = 0x73F8F0E7
	jne	.LBB25_18
.LBB25_17:
	movq	%rbx, %rax
	addq	$40, %rsp
	popq	%rbx
	popq	%rbp
	.cfi_def_cfa %rsp, 8
	retq
.LBB25_18:                              # %func_exit
	.cfi_def_cfa %rbp, 16
	callq	detect_breach
	jmp	.LBB25_17
.Lfunc_end25:
	.size	getcode.10, .Lfunc_end25-getcode.10
	.cfi_endproc
                                        # -- End function
	.globl	output.11               # -- Begin function output.11
	.p2align	4, 0x90
	.type	output.11,@function
output.11:                              # @output.11
	.cfi_startproc
# %bb.0:                                # %entry
	pushq	%rbp
	.cfi_def_cfa_offset 16
	.cfi_offset %rbp, -16
	movq	%rsp, %rbp
	.cfi_def_cfa_register %rbp
	subq	$32, %rsp
	movl	$259476260, -28(%rbp)   # imm = 0xF774B24
	movq	%rdi, -24(%rbp)
	movl	offset, %eax
	movl	%eax, -8(%rbp)
	movl	n_bits, %eax
	movl	%eax, -4(%rbp)
	movabsq	$buf, %rax
	movq	%rax, -16(%rbp)
	cmpq	$0, -24(%rbp)
	jl	.LBB26_24
# %bb.1:                                # %if.then
	movl	-8(%rbp), %eax
	sarl	$3, %eax
	movq	-16(%rbp), %rcx
	cltq
	addq	%rax, %rcx
	movq	%rcx, -16(%rbp)
	movl	-8(%rbp), %eax
	andl	$7, %eax
	movl	%eax, -8(%rbp)
	movq	-16(%rbp), %rax
	movsbl	(%rax), %eax
	movslq	-8(%rbp), %rcx
	movzbl	rmask(,%rcx), %ecx
	andl	%ecx, %eax
	cltq
	movq	-24(%rbp), %rdx
	movl	-8(%rbp), %ecx
                                        # kill: def $cl killed $rcx
	shlq	%cl, %rdx
	movslq	-8(%rbp), %rcx
	movzbl	lmask(,%rcx), %ecx
	andq	%rcx, %rdx
	orq	%rdx, %rax
	movq	-16(%rbp), %rcx
	movb	%al, (%rcx)
	movq	-16(%rbp), %rax
	addq	$1, %rax
	movq	%rax, -16(%rbp)
	movl	$8, %eax
	movl	$8, %ecx
	subl	-8(%rbp), %ecx
	movl	-4(%rbp), %edx
	subl	%ecx, %edx
	movl	%edx, -4(%rbp)
	subl	-8(%rbp), %eax
	movq	-24(%rbp), %rdx
	movl	%eax, %ecx
                                        # kill: def $cl killed $rcx
	sarq	%cl, %rdx
	movq	%rdx, -24(%rbp)
	cmpl	$8, -4(%rbp)
	jl	.LBB26_3
# %bb.2:                                # %if.then15
	movq	-24(%rbp), %rax
	movq	-16(%rbp), %rcx
	movq	%rcx, %rdx
	addq	$1, %rdx
	movq	%rdx, -16(%rbp)
	movb	%al, (%rcx)
	movq	-24(%rbp), %rax
	sarq	$8, %rax
	movq	%rax, -24(%rbp)
	movl	-4(%rbp), %eax
	subl	$8, %eax
	movl	%eax, -4(%rbp)
.LBB26_3:                               # %if.end
	cmpl	$0, -4(%rbp)
	je	.LBB26_5
# %bb.4:                                # %if.then20
	movq	-24(%rbp), %rax
	movq	-16(%rbp), %rcx
	movb	%al, (%rcx)
.LBB26_5:                               # %if.end22
	movl	n_bits, %eax
	addl	offset, %eax
	movl	%eax, offset
	movl	offset, %eax
	movl	n_bits, %ecx
	shll	$3, %ecx
	cmpl	%ecx, %eax
	jne	.LBB26_10
# %bb.6:                                # %if.then26
	movabsq	$buf, %rax
	movq	%rax, -16(%rbp)
	movl	n_bits, %eax
	movl	%eax, -4(%rbp)
	movslq	-4(%rbp), %rax
	addq	bytes_out, %rax
	movq	%rax, bytes_out
.LBB26_7:                               # %do.body
                                        # =>This Inner Loop Header: Depth=1
	movq	-16(%rbp), %rax
	movq	%rax, %rcx
	addq	$1, %rcx
	movq	%rcx, -16(%rbp)
	movsbl	(%rax), %edi
	callq	putchar
# %bb.8:                                # %do.cond
                                        #   in Loop: Header=BB26_7 Depth=1
	movl	-4(%rbp), %eax
	addl	$-1, %eax
	movl	%eax, -4(%rbp)
	cmpl	$0, %eax
	jne	.LBB26_7
# %bb.9:                                # %do.end
	movl	$0, offset
.LBB26_10:                              # %if.end32
	movq	free_ent, %rax
	cmpq	maxcode, %rax
	jg	.LBB26_12
# %bb.11:                               # %lor.lhs.false
	cmpl	$0, clear_flg
	jle	.LBB26_23
.LBB26_12:                              # %if.then37
	cmpl	$0, offset
	jle	.LBB26_16
# %bb.13:                               # %if.then40
	movslq	n_bits, %rdx
	movq	stdout, %rcx
	movabsq	$buf, %rdi
	movl	$1, %esi
	callq	fwrite
	movslq	n_bits, %rcx
	cmpq	%rcx, %rax
	je	.LBB26_15
# %bb.14:                               # %if.then46
	callq	writeerr
.LBB26_15:                              # %if.end47
	movslq	n_bits, %rax
	addq	bytes_out, %rax
	movq	%rax, bytes_out
.LBB26_16:                              # %if.end50
	movl	$0, offset
	cmpl	$0, clear_flg
	je	.LBB26_18
# %bb.17:                               # %if.then52
	movl	$9, n_bits
	movq	$511, maxcode           # imm = 0x1FF
	movl	$0, clear_flg
	jmp	.LBB26_22
.LBB26_18:                              # %if.else
	movl	n_bits, %eax
	addl	$1, %eax
	movl	%eax, n_bits
	movl	n_bits, %eax
	cmpl	maxbits, %eax
	jne	.LBB26_20
# %bb.19:                               # %if.then55
	movq	maxmaxcode, %rax
	movq	%rax, maxcode
	jmp	.LBB26_21
.LBB26_20:                              # %if.else56
	movl	n_bits, %ecx
                                        # kill: def $cl killed $ecx
	movl	$1, %eax
	shll	%cl, %eax
	subl	$1, %eax
	cltq
	movq	%rax, maxcode
.LBB26_21:                              # %if.end60
	jmp	.LBB26_22
.LBB26_22:                              # %if.end61
	jmp	.LBB26_23
.LBB26_23:                              # %if.end62
	jmp	.LBB26_29
.LBB26_24:                              # %if.else63
	cmpl	$0, offset
	jle	.LBB26_26
# %bb.25:                               # %if.then66
	movl	offset, %eax
	addl	$7, %eax
	cltd
	movl	$8, %ecx
	idivl	%ecx
	movslq	%eax, %rdx
	movq	stdout, %rcx
	movabsq	$buf, %rdi
	movl	$1, %esi
	callq	fwrite
.LBB26_26:                              # %if.end70
	movl	offset, %eax
	addl	$7, %eax
	cltd
	movl	$8, %ecx
	idivl	%ecx
	cltq
	addq	bytes_out, %rax
	movq	%rax, bytes_out
	movl	$0, offset
	movq	stdout, %rdi
	callq	fflush
	movq	stdout, %rdi
	callq	ferror
	cmpl	$0, %eax
	je	.LBB26_28
# %bb.27:                               # %if.then78
	callq	writeerr
.LBB26_28:                              # %if.end79
	jmp	.LBB26_29
.LBB26_29:                              # %if.end80
	cmpl	$259476260, -28(%rbp)   # imm = 0xF774B24
	jne	.LBB26_31
.LBB26_30:
	addq	$32, %rsp
	popq	%rbp
	.cfi_def_cfa %rsp, 8
	retq
.LBB26_31:                              # %func_exit
	.cfi_def_cfa %rbp, 16
	callq	detect_breach
	jmp	.LBB26_30
.Lfunc_end26:
	.size	output.11, .Lfunc_end26-output.11
	.cfi_endproc
                                        # -- End function
	.globl	scott_hack.12           # -- Begin function scott_hack.12
	.p2align	4, 0x90
	.type	scott_hack.12,@function
scott_hack.12:                          # @scott_hack.12
	.cfi_startproc
# %bb.0:                                # %entry
	pushq	%rbp
	.cfi_def_cfa_offset 16
	.cfi_offset %rbp, -16
	movq	%rsp, %rbp
	.cfi_def_cfa_register %rbp
	pushq	%rbx
	subq	$40, %rsp
	.cfi_offset %rbx, -24
	movl	$103287614, -32(%rbp)   # imm = 0x6280B3E
	movq	%rdi, -16(%rbp)
	movq	%rsi, -48(%rbp)
	movl	%edx, -24(%rbp)
	movl	%ecx, -28(%rbp)
	movq	%r8, -40(%rbp)
.LBB27_1:                               # %probeSH
                                        # =>This Inner Loop Header: Depth=1
	movslq	-24(%rbp), %rax
	movq	-16(%rbp), %rcx
	movq	(%rcx), %rdx
	subq	%rax, %rdx
	movq	%rdx, (%rcx)
	cmpq	$0, %rdx
	jge	.LBB27_3
# %bb.2:                                # %if.then
                                        #   in Loop: Header=BB27_1 Depth=1
	movslq	-28(%rbp), %rax
	movq	-16(%rbp), %rcx
	addq	(%rcx), %rax
	movq	%rax, (%rcx)
.LBB27_3:                               # %if.end
                                        #   in Loop: Header=BB27_1 Depth=1
	movq	-16(%rbp), %rax
	movq	(%rax), %rax
	movq	htab(,%rax,8), %rax
	cmpq	-48(%rbp), %rax
	jne	.LBB27_5
# %bb.4:                                # %if.then5
	movq	-16(%rbp), %rax
	movq	(%rax), %rax
	movzwl	codetab(,%rax,2), %eax
	movq	-40(%rbp), %rcx
	movq	%rax, (%rcx)
	movl	$1, -20(%rbp)
	jmp	.LBB27_8
.LBB27_5:                               # %if.end8
                                        #   in Loop: Header=BB27_1 Depth=1
	movq	-16(%rbp), %rax
	movq	(%rax), %rax
	cmpq	$0, htab(,%rax,8)
	jle	.LBB27_7
# %bb.6:                                # %if.then12
                                        #   in Loop: Header=BB27_1 Depth=1
	jmp	.LBB27_1
.LBB27_7:                               # %if.end13
	movl	$0, -20(%rbp)
.LBB27_8:                               # %return
	movl	-20(%rbp), %ebx
	cmpl	$103287614, -32(%rbp)   # imm = 0x6280B3E
	jne	.LBB27_10
.LBB27_9:
	movl	%ebx, %eax
	addq	$40, %rsp
	popq	%rbx
	popq	%rbp
	.cfi_def_cfa %rsp, 8
	retq
.LBB27_10:                              # %func_exit
	.cfi_def_cfa %rbp, 16
	callq	detect_breach
	jmp	.LBB27_9
.Lfunc_end27:
	.size	scott_hack.12, .Lfunc_end27-scott_hack.12
	.cfi_endproc
                                        # -- End function
	.globl	copystat.13             # -- Begin function copystat.13
	.p2align	4, 0x90
	.type	copystat.13,@function
copystat.13:                            # @copystat.13
	.cfi_startproc
# %bb.0:                                # %entry
	pushq	%rbp
	.cfi_def_cfa_offset 16
	.cfi_offset %rbp, -16
	movq	%rsp, %rbp
	.cfi_def_cfa_register %rbp
	subq	$192, %rsp
	movl	$1837350437, -20(%rbp)  # imm = 0x6D83BE25
	movq	%rdi, -16(%rbp)
	movq	%rsi, -8(%rbp)
	movq	stdout, %rdi
	callq	fclose
	movq	-16(%rbp), %rdi
	leaq	-184(%rbp), %rsi
	callq	stat
	cmpl	$0, %eax
	je	.LBB28_2
# %bb.1:                                # %if.then
	movq	-16(%rbp), %rdi
	callq	perror
	jmp	.LBB28_26
.LBB28_2:                               # %if.end
	movl	-160(%rbp), %eax
	andl	$61440, %eax            # imm = 0xF000
	cmpl	$32768, %eax            # imm = 0x8000
	je	.LBB28_6
# %bb.3:                                # %if.then2
	cmpl	$0, quiet
	je	.LBB28_5
# %bb.4:                                # %if.then4
	movq	stderr, %rdi
	movq	-16(%rbp), %rdx
	movabsq	$.L.str.16, %rsi
	movb	$0, %al
	callq	fprintf
.LBB28_5:                               # %if.end6
	movq	stderr, %rdi
	movabsq	$.L.str.20, %rsi
	movb	$0, %al
	callq	fprintf
	movl	$1, exit_stat
	jmp	.LBB28_24
.LBB28_6:                               # %if.else
	cmpq	$1, -168(%rbp)
	jbe	.LBB28_10
# %bb.7:                                # %if.then9
	cmpl	$0, quiet
	je	.LBB28_9
# %bb.8:                                # %if.then11
	movq	stderr, %rdi
	movq	-16(%rbp), %rdx
	movabsq	$.L.str.16, %rsi
	movb	$0, %al
	callq	fprintf
.LBB28_9:                               # %if.end13
	movq	stderr, %rdi
	movq	-168(%rbp), %rdx
	subq	$1, %rdx
	movabsq	$.L.str.21, %rsi
	movb	$0, %al
	callq	fprintf
	movl	$1, exit_stat
	jmp	.LBB28_23
.LBB28_10:                              # %if.else16
	cmpl	$2, exit_stat
	jne	.LBB28_15
# %bb.11:                               # %land.lhs.true
	cmpl	$0, force
	jne	.LBB28_15
# %bb.12:                               # %if.then19
	cmpl	$0, quiet
	jne	.LBB28_14
# %bb.13:                               # %if.then21
	movq	stderr, %rdi
	movabsq	$.L.str.22, %rsi
	movb	$0, %al
	callq	fprintf
.LBB28_14:                              # %if.end23
	jmp	.LBB28_22
.LBB28_15:                              # %if.else24
	movl	$0, exit_stat
	movl	-160(%rbp), %eax
	andl	$4095, %eax             # imm = 0xFFF
	movl	%eax, -24(%rbp)
	movq	-8(%rbp), %rdi
	movl	-24(%rbp), %esi
	callq	chmod
	cmpl	$0, %eax
	je	.LBB28_17
# %bb.16:                               # %if.then29
	movq	-8(%rbp), %rdi
	callq	perror
.LBB28_17:                              # %if.end30
	movq	-8(%rbp), %rdi
	movl	-156(%rbp), %esi
	movl	-152(%rbp), %edx
	callq	chown
	movq	-112(%rbp), %rax
	movq	%rax, -40(%rbp)
	movq	-96(%rbp), %rax
	movq	%rax, -32(%rbp)
	movq	-8(%rbp), %rdi
	leaq	-40(%rbp), %rsi
	callq	utime
	movq	-16(%rbp), %rdi
	callq	unlink
	cmpl	$0, %eax
	je	.LBB28_19
# %bb.18:                               # %if.then36
	movq	-16(%rbp), %rdi
	callq	perror
.LBB28_19:                              # %if.end37
	cmpl	$0, quiet
	jne	.LBB28_21
# %bb.20:                               # %if.then39
	movq	stderr, %rdi
	movq	-8(%rbp), %rdx
	movabsq	$.L.str.23, %rsi
	movb	$0, %al
	callq	fprintf
.LBB28_21:                              # %if.end41
	jmp	.LBB28_26
.LBB28_22:                              # %if.end42
	jmp	.LBB28_23
.LBB28_23:                              # %if.end43
	jmp	.LBB28_24
.LBB28_24:                              # %if.end44
	movq	-8(%rbp), %rdi
	callq	unlink
	cmpl	$0, %eax
	je	.LBB28_26
# %bb.25:                               # %if.then47
	movq	-8(%rbp), %rdi
	callq	perror
.LBB28_26:                              # %if.end48
	cmpl	$1837350437, -20(%rbp)  # imm = 0x6D83BE25
	jne	.LBB28_28
.LBB28_27:
	addq	$192, %rsp
	popq	%rbp
	.cfi_def_cfa %rsp, 8
	retq
.LBB28_28:                              # %func_exit
	.cfi_def_cfa %rbp, 16
	callq	detect_breach
	jmp	.LBB28_27
.Lfunc_end28:
	.size	copystat.13, .Lfunc_end28-copystat.13
	.cfi_endproc
                                        # -- End function
	.globl	getcode.14              # -- Begin function getcode.14
	.p2align	4, 0x90
	.type	getcode.14,@function
getcode.14:                             # @getcode.14
	.cfi_startproc
# %bb.0:                                # %entry
	pushq	%rbp
	.cfi_def_cfa_offset 16
	.cfi_offset %rbp, -16
	movq	%rsp, %rbp
	.cfi_def_cfa_register %rbp
	pushq	%rbx
	subq	$40, %rsp
	.cfi_offset %rbx, -24
	movl	$1615552916, -36(%rbp)  # imm = 0x604B6194
	movabsq	$getcode.buf, %rax
	movq	%rax, -24(%rbp)
	cmpl	$0, clear_flg
	jg	.LBB29_3
# %bb.1:                                # %lor.lhs.false
	movl	getcode.offset, %eax
	cmpl	getcode.size, %eax
	jge	.LBB29_3
# %bb.2:                                # %lor.lhs.false2
	movq	free_ent, %rax
	cmpq	maxcode, %rax
	jle	.LBB29_13
.LBB29_3:                               # %if.then
	movq	free_ent, %rax
	cmpq	maxcode, %rax
	jle	.LBB29_8
# %bb.4:                                # %if.then5
	movl	n_bits, %eax
	addl	$1, %eax
	movl	%eax, n_bits
	movl	n_bits, %eax
	cmpl	maxbits, %eax
	jne	.LBB29_6
# %bb.5:                                # %if.then7
	movq	maxmaxcode, %rax
	movq	%rax, maxcode
	jmp	.LBB29_7
.LBB29_6:                               # %if.else
	movl	n_bits, %ecx
                                        # kill: def $cl killed $ecx
	movl	$1, %eax
	shll	%cl, %eax
	subl	$1, %eax
	cltq
	movq	%rax, maxcode
.LBB29_7:                               # %if.end
	jmp	.LBB29_8
.LBB29_8:                               # %if.end8
	cmpl	$0, clear_flg
	jle	.LBB29_10
# %bb.9:                                # %if.then11
	movl	$9, n_bits
	movq	$511, maxcode           # imm = 0x1FF
	movl	$0, clear_flg
.LBB29_10:                              # %if.end12
	movslq	n_bits, %rdx
	movq	stdin, %rcx
	movabsq	$getcode.buf, %rdi
	movl	$1, %esi
	callq	fread
	movl	%eax, getcode.size
	cmpl	$0, getcode.size
	jg	.LBB29_12
# %bb.11:                               # %if.then17
	movq	$-1, -48(%rbp)
	jmp	.LBB29_16
.LBB29_12:                              # %if.end18
	movl	$0, getcode.offset
	movl	getcode.size, %eax
	shll	$3, %eax
	movl	n_bits, %ecx
	subl	$1, %ecx
	subl	%ecx, %eax
	movl	%eax, getcode.size
.LBB29_13:                              # %if.end22
	movl	getcode.offset, %eax
	movl	%eax, -12(%rbp)
	movl	n_bits, %eax
	movl	%eax, -16(%rbp)
	movl	-12(%rbp), %eax
	sarl	$3, %eax
	movq	-24(%rbp), %rcx
	cltq
	addq	%rax, %rcx
	movq	%rcx, -24(%rbp)
	movl	-12(%rbp), %eax
	andl	$7, %eax
	movl	%eax, -12(%rbp)
	movq	-24(%rbp), %rax
	movq	%rax, %rcx
	addq	$1, %rcx
	movq	%rcx, -24(%rbp)
	movzbl	(%rax), %eax
	movl	-12(%rbp), %ecx
                                        # kill: def $cl killed $ecx
	sarl	%cl, %eax
	cltq
	movq	%rax, -32(%rbp)
	movl	$8, %eax
	movl	$8, %ecx
	subl	-12(%rbp), %ecx
	movl	-16(%rbp), %edx
	subl	%ecx, %edx
	movl	%edx, -16(%rbp)
	subl	-12(%rbp), %eax
	movl	%eax, -12(%rbp)
	cmpl	$8, -16(%rbp)
	jl	.LBB29_15
# %bb.14:                               # %if.then31
	movq	-24(%rbp), %rax
	movq	%rax, %rcx
	addq	$1, %rcx
	movq	%rcx, -24(%rbp)
	movzbl	(%rax), %eax
	movl	-12(%rbp), %ecx
                                        # kill: def $cl killed $ecx
	shll	%cl, %eax
	cltq
	orq	-32(%rbp), %rax
	movq	%rax, -32(%rbp)
	movl	-12(%rbp), %eax
	addl	$8, %eax
	movl	%eax, -12(%rbp)
	movl	-16(%rbp), %eax
	subl	$8, %eax
	movl	%eax, -16(%rbp)
.LBB29_15:                              # %if.end37
	movq	-24(%rbp), %rax
	movzbl	(%rax), %eax
	movslq	-16(%rbp), %rcx
	movzbl	rmask(,%rcx), %ecx
	andl	%ecx, %eax
	movl	-12(%rbp), %ecx
                                        # kill: def $cl killed $ecx
	shll	%cl, %eax
	cltq
	orq	-32(%rbp), %rax
	movq	%rax, -32(%rbp)
	movl	n_bits, %eax
	addl	getcode.offset, %eax
	movl	%eax, getcode.offset
	movq	-32(%rbp), %rax
	movq	%rax, -48(%rbp)
.LBB29_16:                              # %return
	movq	-48(%rbp), %rbx
	cmpl	$1615552916, -36(%rbp)  # imm = 0x604B6194
	jne	.LBB29_18
.LBB29_17:
	movq	%rbx, %rax
	addq	$40, %rsp
	popq	%rbx
	popq	%rbp
	.cfi_def_cfa %rsp, 8
	retq
.LBB29_18:                              # %func_exit
	.cfi_def_cfa %rbp, 16
	callq	detect_breach
	jmp	.LBB29_17
.Lfunc_end29:
	.size	getcode.14, .Lfunc_end29-getcode.14
	.cfi_endproc
                                        # -- End function
	.globl	decompress.15           # -- Begin function decompress.15
	.p2align	4, 0x90
	.type	decompress.15,@function
decompress.15:                          # @decompress.15
	.cfi_startproc
# %bb.0:                                # %entry
	pushq	%rbp
	.cfi_def_cfa_offset 16
	.cfi_offset %rbp, -16
	movq	%rsp, %rbp
	.cfi_def_cfa_register %rbp
	subq	$48, %rsp
	movl	$929392076, -36(%rbp)   # imm = 0x376565CC
	movl	$9, n_bits
	movq	$511, maxcode           # imm = 0x1FF
	movq	$255, -8(%rbp)
.LBB30_1:                               # %for.cond
                                        # =>This Inner Loop Header: Depth=1
	cmpq	$0, -8(%rbp)
	jl	.LBB30_4
# %bb.2:                                # %for.body
                                        #   in Loop: Header=BB30_1 Depth=1
	movq	-8(%rbp), %rax
	movw	$0, codetab(,%rax,2)
	movq	-8(%rbp), %rax
	movq	-8(%rbp), %rcx
	movb	%al, htab(,%rcx)
# %bb.3:                                # %for.inc
                                        #   in Loop: Header=BB30_1 Depth=1
	movq	-8(%rbp), %rax
	addq	$-1, %rax
	movq	%rax, -8(%rbp)
	jmp	.LBB30_1
.LBB30_4:                               # %for.end
	movl	block_compress, %eax
	cmpl	$0, %eax
	movl	$257, %eax              # imm = 0x101
	movl	$256, %ecx              # imm = 0x100
	cmovnel	%eax, %ecx
	movslq	%ecx, %rax
	movq	%rax, free_ent
	callq	getcode
	movq	%rax, -32(%rbp)
	movl	%eax, -20(%rbp)
	cmpq	$-1, -32(%rbp)
	jne	.LBB30_6
# %bb.5:                                # %if.then
	jmp	.LBB30_33
.LBB30_6:                               # %if.end
	movl	-20(%rbp), %eax
	movsbl	%al, %edi
	callq	putchar
	movq	stdout, %rdi
	callq	ferror
	cmpl	$0, %eax
	je	.LBB30_8
# %bb.7:                                # %if.then11
	callq	writeerr
.LBB30_8:                               # %if.end12
	movabsq	$htab, %rax
	addq	$65536, %rax            # imm = 0x10000
	movq	%rax, -16(%rbp)
.LBB30_9:                               # %while.cond
                                        # =>This Loop Header: Depth=1
                                        #     Child Loop BB30_13 Depth 2
                                        #     Child Loop BB30_22 Depth 2
                                        #     Child Loop BB30_25 Depth 2
	callq	getcode
	movq	%rax, -8(%rbp)
	cmpq	$-1, %rax
	jle	.LBB30_30
# %bb.10:                               # %while.body
                                        #   in Loop: Header=BB30_9 Depth=1
	cmpq	$256, -8(%rbp)          # imm = 0x100
	jne	.LBB30_19
# %bb.11:                               # %land.lhs.true
                                        #   in Loop: Header=BB30_9 Depth=1
	cmpl	$0, block_compress
	je	.LBB30_19
# %bb.12:                               # %if.then19
                                        #   in Loop: Header=BB30_9 Depth=1
	movq	$255, -8(%rbp)
.LBB30_13:                              # %for.cond20
                                        #   Parent Loop BB30_9 Depth=1
                                        # =>  This Inner Loop Header: Depth=2
	cmpq	$0, -8(%rbp)
	jl	.LBB30_16
# %bb.14:                               # %for.body23
                                        #   in Loop: Header=BB30_13 Depth=2
	movq	-8(%rbp), %rax
	movw	$0, codetab(,%rax,2)
# %bb.15:                               # %for.inc25
                                        #   in Loop: Header=BB30_13 Depth=2
	movq	-8(%rbp), %rax
	addq	$-1, %rax
	movq	%rax, -8(%rbp)
	jmp	.LBB30_13
.LBB30_16:                              # %for.end27
                                        #   in Loop: Header=BB30_9 Depth=1
	movl	$1, clear_flg
	movq	$256, free_ent          # imm = 0x100
	callq	getcode
	movq	%rax, -8(%rbp)
	cmpq	$-1, %rax
	jne	.LBB30_18
# %bb.17:                               # %if.then31
	jmp	.LBB30_31
.LBB30_18:                              # %if.end32
                                        #   in Loop: Header=BB30_9 Depth=1
	jmp	.LBB30_19
.LBB30_19:                              # %if.end33
                                        #   in Loop: Header=BB30_9 Depth=1
	movq	-8(%rbp), %rax
	movq	%rax, -48(%rbp)
	movq	-8(%rbp), %rax
	cmpq	free_ent, %rax
	jl	.LBB30_21
# %bb.20:                               # %if.then36
                                        #   in Loop: Header=BB30_9 Depth=1
	movl	-20(%rbp), %eax
	movq	-16(%rbp), %rcx
	movq	%rcx, %rdx
	addq	$1, %rdx
	movq	%rdx, -16(%rbp)
	movb	%al, (%rcx)
	movq	-32(%rbp), %rax
	movq	%rax, -8(%rbp)
.LBB30_21:                              # %if.end38
                                        #   in Loop: Header=BB30_9 Depth=1
	jmp	.LBB30_22
.LBB30_22:                              # %while.cond39
                                        #   Parent Loop BB30_9 Depth=1
                                        # =>  This Inner Loop Header: Depth=2
	cmpq	$256, -8(%rbp)          # imm = 0x100
	jl	.LBB30_24
# %bb.23:                               # %while.body42
                                        #   in Loop: Header=BB30_22 Depth=2
	movq	-8(%rbp), %rax
	movb	htab(,%rax), %al
	movq	-16(%rbp), %rcx
	movq	%rcx, %rdx
	addq	$1, %rdx
	movq	%rdx, -16(%rbp)
	movb	%al, (%rcx)
	movq	-8(%rbp), %rax
	movzwl	codetab(,%rax,2), %eax
	movq	%rax, -8(%rbp)
	jmp	.LBB30_22
.LBB30_24:                              # %while.end
                                        #   in Loop: Header=BB30_9 Depth=1
	movq	-8(%rbp), %rax
	movzbl	htab(,%rax), %eax
	movl	%eax, -20(%rbp)
	movq	-16(%rbp), %rcx
	movq	%rcx, %rdx
	addq	$1, %rdx
	movq	%rdx, -16(%rbp)
	movb	%al, (%rcx)
.LBB30_25:                              # %do.body
                                        #   Parent Loop BB30_9 Depth=1
                                        # =>  This Inner Loop Header: Depth=2
	movq	-16(%rbp), %rax
	movq	%rax, %rcx
	addq	$-1, %rcx
	movq	%rcx, -16(%rbp)
	movzbl	-1(%rax), %edi
	callq	putchar
# %bb.26:                               # %do.cond
                                        #   in Loop: Header=BB30_25 Depth=2
	movabsq	$htab, %rax
	addq	$65536, %rax            # imm = 0x10000
	cmpq	%rax, -16(%rbp)
	ja	.LBB30_25
# %bb.27:                               # %do.end
                                        #   in Loop: Header=BB30_9 Depth=1
	movq	free_ent, %rax
	movq	%rax, -8(%rbp)
	cmpq	maxmaxcode, %rax
	jge	.LBB30_29
# %bb.28:                               # %if.then58
                                        #   in Loop: Header=BB30_9 Depth=1
	movq	-32(%rbp), %rax
	movq	-8(%rbp), %rcx
	movw	%ax, codetab(,%rcx,2)
	movl	-20(%rbp), %eax
	movq	-8(%rbp), %rcx
	movb	%al, htab(,%rcx)
	movq	-8(%rbp), %rax
	addq	$1, %rax
	movq	%rax, free_ent
.LBB30_29:                              # %if.end63
                                        #   in Loop: Header=BB30_9 Depth=1
	movq	-48(%rbp), %rax
	movq	%rax, -32(%rbp)
	jmp	.LBB30_9
.LBB30_30:                              # %while.end64.loopexit
	jmp	.LBB30_31
.LBB30_31:                              # %while.end64
	movq	stdout, %rdi
	callq	fflush
	movq	stdout, %rdi
	callq	ferror
	cmpl	$0, %eax
	je	.LBB30_33
# %bb.32:                               # %if.then68
	callq	writeerr
.LBB30_33:                              # %if.end69
	cmpl	$929392076, -36(%rbp)   # imm = 0x376565CC
	jne	.LBB30_35
.LBB30_34:
	addq	$48, %rsp
	popq	%rbp
	.cfi_def_cfa %rsp, 8
	retq
.LBB30_35:                              # %func_exit
	.cfi_def_cfa %rbp, 16
	callq	detect_breach
	jmp	.LBB30_34
.Lfunc_end30:
	.size	decompress.15, .Lfunc_end30-decompress.15
	.cfi_endproc
                                        # -- End function
	.globl	compress.16             # -- Begin function compress.16
	.p2align	4, 0x90
	.type	compress.16,@function
compress.16:                            # @compress.16
	.cfi_startproc
# %bb.0:                                # %entry
	pushq	%rbp
	.cfi_def_cfa_offset 16
	.cfi_offset %rbp, -16
	movq	%rsp, %rbp
	.cfi_def_cfa_register %rbp
	subq	$64, %rsp
	movl	$1258973480, -56(%rbp)  # imm = 0x4B0A6928
	movq	$0, -8(%rbp)
	cmpl	$0, nomagic
	jne	.LBB31_4
# %bb.1:                                # %if.then
	movzbl	magic_header, %edi
	callq	putchar
	movzbl	magic_header+1, %edi
	callq	putchar
	movl	maxbits, %eax
	orl	block_compress, %eax
	movsbl	%al, %edi
	callq	putchar
	movq	stdout, %rdi
	callq	ferror
	cmpl	$0, %eax
	je	.LBB31_3
# %bb.2:                                # %if.then7
	callq	writeerr
.LBB31_3:                               # %if.end
	jmp	.LBB31_4
.LBB31_4:                               # %if.end8
	movl	$0, offset
	movq	$3, bytes_out
	movq	$0, out_count
	movl	$0, clear_flg
	movq	$0, ratio
	movq	$1, in_count
	movq	$10000, checkpoint      # imm = 0x2710
	movl	$9, n_bits
	movq	$511, maxcode           # imm = 0x1FF
	movl	block_compress, %eax
	cmpl	$0, %eax
	movl	$257, %eax              # imm = 0x101
	movl	$256, %ecx              # imm = 0x100
	cmovnel	%eax, %ecx
	movslq	%ecx, %rax
	movq	%rax, free_ent
	callq	getchar
	cltq
	movq	%rax, -24(%rbp)
	movl	$0, -12(%rbp)
	movq	hsize, %rax
	movq	%rax, -32(%rbp)
.LBB31_5:                               # %for.cond
                                        # =>This Inner Loop Header: Depth=1
	cmpq	$65536, -32(%rbp)       # imm = 0x10000
	jge	.LBB31_8
# %bb.6:                                # %for.body
                                        #   in Loop: Header=BB31_5 Depth=1
	movl	-12(%rbp), %eax
	addl	$1, %eax
	movl	%eax, -12(%rbp)
# %bb.7:                                # %for.inc
                                        #   in Loop: Header=BB31_5 Depth=1
	movq	-32(%rbp), %rax
	shlq	$1, %rax
	movq	%rax, -32(%rbp)
	jmp	.LBB31_5
.LBB31_8:                               # %for.end
	movl	$8, %eax
	subl	-12(%rbp), %eax
	movl	%eax, -12(%rbp)
	movq	hsize, %rax
	movq	%rax, -48(%rbp)
	movq	-48(%rbp), %rdi
	callq	cl_hash
.LBB31_9:                               # %while.cond
                                        # =>This Inner Loop Header: Depth=1
	callq	getchar
	movl	%eax, -36(%rbp)
	cmpl	$-1, %eax
	je	.LBB31_46
# %bb.10:                               # %while.body
                                        #   in Loop: Header=BB31_9 Depth=1
	movq	in_count, %rax
	addq	$1, %rax
	movq	%rax, in_count
	movslq	-36(%rbp), %rax
	movl	maxbits, %ecx
                                        # kill: def $cl killed $rcx
	shlq	%cl, %rax
	addq	-24(%rbp), %rax
	movq	%rax, -32(%rbp)
	movl	-36(%rbp), %eax
	movl	-12(%rbp), %ecx
                                        # kill: def $cl killed $ecx
	shll	%cl, %eax
	cltq
	xorq	-24(%rbp), %rax
	movq	%rax, -8(%rbp)
	movq	-8(%rbp), %rax
	movq	htab(,%rax,8), %rax
	cmpq	-32(%rbp), %rax
	jne	.LBB31_13
# %bb.11:                               # %if.then24
                                        #   in Loop: Header=BB31_9 Depth=1
	movq	-8(%rbp), %rax
	movzwl	codetab(,%rax,2), %eax
	movq	%rax, -24(%rbp)
.LBB31_12:                              # %while.cond.backedge
                                        #   in Loop: Header=BB31_9 Depth=1
	jmp	.LBB31_9
.LBB31_13:                              # %if.else
                                        #   in Loop: Header=BB31_9 Depth=1
	movq	-8(%rbp), %rax
	cmpq	$0, htab(,%rax,8)
	jge	.LBB31_15
# %bb.14:                               # %if.then30
                                        #   in Loop: Header=BB31_9 Depth=1
	jmp	.LBB31_39
.LBB31_15:                              # %if.end31
                                        #   in Loop: Header=BB31_9 Depth=1
	jmp	.LBB31_16
.LBB31_16:                              # %if.end32
                                        #   in Loop: Header=BB31_9 Depth=1
	movq	-48(%rbp), %rax
	subq	-8(%rbp), %rax
	movl	%eax, -16(%rbp)
	cmpq	$0, -8(%rbp)
	jne	.LBB31_18
# %bb.17:                               # %if.then37
                                        #   in Loop: Header=BB31_9 Depth=1
	movl	$1, -16(%rbp)
.LBB31_18:                              # %if.end38
                                        #   in Loop: Header=BB31_9 Depth=1
	movslq	-16(%rbp), %rax
	movq	-8(%rbp), %rcx
	subq	%rax, %rcx
	movq	%rcx, -8(%rbp)
	cmpq	$0, %rcx
	jge	.LBB31_20
# %bb.19:                               # %if.then43
                                        #   in Loop: Header=BB31_9 Depth=1
	movq	-48(%rbp), %rax
	addq	-8(%rbp), %rax
	movq	%rax, -8(%rbp)
.LBB31_20:                              # %if.end45
                                        #   in Loop: Header=BB31_9 Depth=1
	movq	-8(%rbp), %rax
	movq	htab(,%rax,8), %rax
	cmpq	-32(%rbp), %rax
	jne	.LBB31_22
# %bb.21:                               # %if.then49
                                        #   in Loop: Header=BB31_9 Depth=1
	movq	-8(%rbp), %rax
	movzwl	codetab(,%rax,2), %eax
	movq	%rax, -24(%rbp)
	jmp	.LBB31_12
.LBB31_22:                              # %if.end52
                                        #   in Loop: Header=BB31_9 Depth=1
	movq	-8(%rbp), %rax
	cmpq	$0, htab(,%rax,8)
	jg	.LBB31_24
# %bb.23:                               # %if.then56
                                        #   in Loop: Header=BB31_9 Depth=1
	jmp	.LBB31_39
.LBB31_24:                              # %if.end57
                                        #   in Loop: Header=BB31_9 Depth=1
	movslq	-16(%rbp), %rax
	movq	-8(%rbp), %rcx
	subq	%rax, %rcx
	movq	%rcx, -8(%rbp)
	cmpq	$0, %rcx
	jge	.LBB31_26
# %bb.25:                               # %if.then62
                                        #   in Loop: Header=BB31_9 Depth=1
	movq	-48(%rbp), %rax
	addq	-8(%rbp), %rax
	movq	%rax, -8(%rbp)
.LBB31_26:                              # %if.end64
                                        #   in Loop: Header=BB31_9 Depth=1
	movq	-8(%rbp), %rax
	movq	htab(,%rax,8), %rax
	cmpq	-32(%rbp), %rax
	jne	.LBB31_28
# %bb.27:                               # %if.then68
                                        #   in Loop: Header=BB31_9 Depth=1
	movq	-8(%rbp), %rax
	movzwl	codetab(,%rax,2), %eax
	movq	%rax, -24(%rbp)
	jmp	.LBB31_12
.LBB31_28:                              # %if.end71
                                        #   in Loop: Header=BB31_9 Depth=1
	movq	-8(%rbp), %rax
	cmpq	$0, htab(,%rax,8)
	jg	.LBB31_30
# %bb.29:                               # %if.then75
                                        #   in Loop: Header=BB31_9 Depth=1
	jmp	.LBB31_39
.LBB31_30:                              # %if.end76
                                        #   in Loop: Header=BB31_9 Depth=1
	movslq	-16(%rbp), %rax
	movq	-8(%rbp), %rcx
	subq	%rax, %rcx
	movq	%rcx, -8(%rbp)
	cmpq	$0, %rcx
	jge	.LBB31_32
# %bb.31:                               # %if.then81
                                        #   in Loop: Header=BB31_9 Depth=1
	movq	-48(%rbp), %rax
	addq	-8(%rbp), %rax
	movq	%rax, -8(%rbp)
.LBB31_32:                              # %if.end83
                                        #   in Loop: Header=BB31_9 Depth=1
	movq	-8(%rbp), %rax
	movq	htab(,%rax,8), %rax
	cmpq	-32(%rbp), %rax
	jne	.LBB31_34
# %bb.33:                               # %if.then87
                                        #   in Loop: Header=BB31_9 Depth=1
	movq	-8(%rbp), %rax
	movzwl	codetab(,%rax,2), %eax
	movq	%rax, -24(%rbp)
	jmp	.LBB31_12
.LBB31_34:                              # %if.end90
                                        #   in Loop: Header=BB31_9 Depth=1
	movq	-8(%rbp), %rax
	cmpq	$0, htab(,%rax,8)
	jle	.LBB31_38
# %bb.35:                               # %if.then94
                                        #   in Loop: Header=BB31_9 Depth=1
	movl	$0, -52(%rbp)
	movq	-32(%rbp), %rsi
	movl	-16(%rbp), %edx
	movq	-48(%rbp), %rcx
	leaq	-8(%rbp), %rdi
                                        # kill: def $ecx killed $ecx killed $rcx
	leaq	-24(%rbp), %r8
	callq	scott_hack
	movl	%eax, -52(%rbp)
	cmpl	$0, -52(%rbp)
	je	.LBB31_37
# %bb.36:                               # %if.then99
                                        #   in Loop: Header=BB31_9 Depth=1
	jmp	.LBB31_12
.LBB31_37:                              # %if.end100
                                        #   in Loop: Header=BB31_9 Depth=1
	jmp	.LBB31_38
.LBB31_38:                              # %if.end101
                                        #   in Loop: Header=BB31_9 Depth=1
	jmp	.LBB31_39
.LBB31_39:                              # %nomatch
                                        #   in Loop: Header=BB31_9 Depth=1
	movq	-24(%rbp), %rdi
	callq	output
	movq	out_count, %rax
	addq	$1, %rax
	movq	%rax, out_count
	movslq	-36(%rbp), %rax
	movq	%rax, -24(%rbp)
	movq	free_ent, %rax
	cmpq	maxmaxcode, %rax
	jge	.LBB31_41
# %bb.40:                               # %if.then106
                                        #   in Loop: Header=BB31_9 Depth=1
	movq	free_ent, %rax
	movq	%rax, %rcx
	addq	$1, %rcx
	movq	%rcx, free_ent
	movq	-8(%rbp), %rcx
	movw	%ax, codetab(,%rcx,2)
	movq	-32(%rbp), %rax
	movq	-8(%rbp), %rcx
	movq	%rax, htab(,%rcx,8)
	jmp	.LBB31_45
.LBB31_41:                              # %if.else111
                                        #   in Loop: Header=BB31_9 Depth=1
	movq	in_count, %rax
	cmpq	checkpoint, %rax
	jl	.LBB31_44
# %bb.42:                               # %land.lhs.true
                                        #   in Loop: Header=BB31_9 Depth=1
	cmpl	$0, block_compress
	je	.LBB31_44
# %bb.43:                               # %if.then115
                                        #   in Loop: Header=BB31_9 Depth=1
	callq	cl_block
.LBB31_44:                              # %if.end116
                                        #   in Loop: Header=BB31_9 Depth=1
	jmp	.LBB31_45
.LBB31_45:                              # %if.end117
                                        #   in Loop: Header=BB31_9 Depth=1
	jmp	.LBB31_12
.LBB31_46:                              # %while.end
	movq	-24(%rbp), %rdi
	callq	output
	movq	out_count, %rax
	addq	$1, %rax
	movq	%rax, out_count
	movq	$-1, %rdi
	callq	output
	cmpl	$0, zcat_flg
	jne	.LBB31_49
# %bb.47:                               # %land.lhs.true121
	cmpl	$0, quiet
	jne	.LBB31_49
# %bb.48:                               # %if.then123
	movq	stderr, %rdi
	movabsq	$.L.str.19, %rsi
	movb	$0, %al
	callq	fprintf
	movq	stderr, %rdi
	movq	in_count, %rsi
	subq	bytes_out, %rsi
	movq	in_count, %rdx
	callq	prratio
.LBB31_49:                              # %if.end126
	movq	bytes_out, %rax
	cmpq	in_count, %rax
	jle	.LBB31_51
# %bb.50:                               # %if.then129
	movl	$2, exit_stat
.LBB31_51:                              # %if.end130
	cmpl	$1258973480, -56(%rbp)  # imm = 0x4B0A6928
	jne	.LBB31_53
.LBB31_52:
	addq	$64, %rsp
	popq	%rbp
	.cfi_def_cfa %rsp, 8
	retq
.LBB31_53:                              # %func_exit
	.cfi_def_cfa %rbp, 16
	callq	detect_breach
	jmp	.LBB31_52
.Lfunc_end31:
	.size	compress.16, .Lfunc_end31-compress.16
	.cfi_endproc
                                        # -- End function
	.globl	scott_hack.17           # -- Begin function scott_hack.17
	.p2align	4, 0x90
	.type	scott_hack.17,@function
scott_hack.17:                          # @scott_hack.17
	.cfi_startproc
# %bb.0:                                # %entry
	pushq	%rbp
	.cfi_def_cfa_offset 16
	.cfi_offset %rbp, -16
	movq	%rsp, %rbp
	.cfi_def_cfa_register %rbp
	pushq	%rbx
	subq	$40, %rsp
	.cfi_offset %rbx, -24
	movl	$1181972294, -32(%rbp)  # imm = 0x46737746
	movq	%rdi, -16(%rbp)
	movq	%rsi, -48(%rbp)
	movl	%edx, -24(%rbp)
	movl	%ecx, -28(%rbp)
	movq	%r8, -40(%rbp)
.LBB32_1:                               # %probeSH
                                        # =>This Inner Loop Header: Depth=1
	movslq	-24(%rbp), %rax
	movq	-16(%rbp), %rcx
	movq	(%rcx), %rdx
	subq	%rax, %rdx
	movq	%rdx, (%rcx)
	cmpq	$0, %rdx
	jge	.LBB32_3
# %bb.2:                                # %if.then
                                        #   in Loop: Header=BB32_1 Depth=1
	movslq	-28(%rbp), %rax
	movq	-16(%rbp), %rcx
	addq	(%rcx), %rax
	movq	%rax, (%rcx)
.LBB32_3:                               # %if.end
                                        #   in Loop: Header=BB32_1 Depth=1
	movq	-16(%rbp), %rax
	movq	(%rax), %rax
	movq	htab(,%rax,8), %rax
	cmpq	-48(%rbp), %rax
	jne	.LBB32_5
# %bb.4:                                # %if.then5
	movq	-16(%rbp), %rax
	movq	(%rax), %rax
	movzwl	codetab(,%rax,2), %eax
	movq	-40(%rbp), %rcx
	movq	%rax, (%rcx)
	movl	$1, -20(%rbp)
	jmp	.LBB32_8
.LBB32_5:                               # %if.end8
                                        #   in Loop: Header=BB32_1 Depth=1
	movq	-16(%rbp), %rax
	movq	(%rax), %rax
	cmpq	$0, htab(,%rax,8)
	jle	.LBB32_7
# %bb.6:                                # %if.then12
                                        #   in Loop: Header=BB32_1 Depth=1
	jmp	.LBB32_1
.LBB32_7:                               # %if.end13
	movl	$0, -20(%rbp)
.LBB32_8:                               # %return
	movl	-20(%rbp), %ebx
	cmpl	$1181972294, -32(%rbp)  # imm = 0x46737746
	jne	.LBB32_10
.LBB32_9:
	movl	%ebx, %eax
	addq	$40, %rsp
	popq	%rbx
	popq	%rbp
	.cfi_def_cfa %rsp, 8
	retq
.LBB32_10:                              # %func_exit
	.cfi_def_cfa %rbp, 16
	callq	detect_breach
	jmp	.LBB32_9
.Lfunc_end32:
	.size	scott_hack.17, .Lfunc_end32-scott_hack.17
	.cfi_endproc
                                        # -- End function
	.globl	getcode.18              # -- Begin function getcode.18
	.p2align	4, 0x90
	.type	getcode.18,@function
getcode.18:                             # @getcode.18
	.cfi_startproc
# %bb.0:                                # %entry
	pushq	%rbp
	.cfi_def_cfa_offset 16
	.cfi_offset %rbp, -16
	movq	%rsp, %rbp
	.cfi_def_cfa_register %rbp
	pushq	%rbx
	subq	$40, %rsp
	.cfi_offset %rbx, -24
	movl	$1592733968, -36(%rbp)  # imm = 0x5EEF3110
	movabsq	$getcode.buf, %rax
	movq	%rax, -24(%rbp)
	cmpl	$0, clear_flg
	jg	.LBB33_3
# %bb.1:                                # %lor.lhs.false
	movl	getcode.offset, %eax
	cmpl	getcode.size, %eax
	jge	.LBB33_3
# %bb.2:                                # %lor.lhs.false2
	movq	free_ent, %rax
	cmpq	maxcode, %rax
	jle	.LBB33_13
.LBB33_3:                               # %if.then
	movq	free_ent, %rax
	cmpq	maxcode, %rax
	jle	.LBB33_8
# %bb.4:                                # %if.then5
	movl	n_bits, %eax
	addl	$1, %eax
	movl	%eax, n_bits
	movl	n_bits, %eax
	cmpl	maxbits, %eax
	jne	.LBB33_6
# %bb.5:                                # %if.then7
	movq	maxmaxcode, %rax
	movq	%rax, maxcode
	jmp	.LBB33_7
.LBB33_6:                               # %if.else
	movl	n_bits, %ecx
                                        # kill: def $cl killed $ecx
	movl	$1, %eax
	shll	%cl, %eax
	subl	$1, %eax
	cltq
	movq	%rax, maxcode
.LBB33_7:                               # %if.end
	jmp	.LBB33_8
.LBB33_8:                               # %if.end8
	cmpl	$0, clear_flg
	jle	.LBB33_10
# %bb.9:                                # %if.then11
	movl	$9, n_bits
	movq	$511, maxcode           # imm = 0x1FF
	movl	$0, clear_flg
.LBB33_10:                              # %if.end12
	movslq	n_bits, %rdx
	movq	stdin, %rcx
	movabsq	$getcode.buf, %rdi
	movl	$1, %esi
	callq	fread
	movl	%eax, getcode.size
	cmpl	$0, getcode.size
	jg	.LBB33_12
# %bb.11:                               # %if.then17
	movq	$-1, -48(%rbp)
	jmp	.LBB33_16
.LBB33_12:                              # %if.end18
	movl	$0, getcode.offset
	movl	getcode.size, %eax
	shll	$3, %eax
	movl	n_bits, %ecx
	subl	$1, %ecx
	subl	%ecx, %eax
	movl	%eax, getcode.size
.LBB33_13:                              # %if.end22
	movl	getcode.offset, %eax
	movl	%eax, -12(%rbp)
	movl	n_bits, %eax
	movl	%eax, -16(%rbp)
	movl	-12(%rbp), %eax
	sarl	$3, %eax
	movq	-24(%rbp), %rcx
	cltq
	addq	%rax, %rcx
	movq	%rcx, -24(%rbp)
	movl	-12(%rbp), %eax
	andl	$7, %eax
	movl	%eax, -12(%rbp)
	movq	-24(%rbp), %rax
	movq	%rax, %rcx
	addq	$1, %rcx
	movq	%rcx, -24(%rbp)
	movzbl	(%rax), %eax
	movl	-12(%rbp), %ecx
                                        # kill: def $cl killed $ecx
	sarl	%cl, %eax
	cltq
	movq	%rax, -32(%rbp)
	movl	$8, %eax
	movl	$8, %ecx
	subl	-12(%rbp), %ecx
	movl	-16(%rbp), %edx
	subl	%ecx, %edx
	movl	%edx, -16(%rbp)
	subl	-12(%rbp), %eax
	movl	%eax, -12(%rbp)
	cmpl	$8, -16(%rbp)
	jl	.LBB33_15
# %bb.14:                               # %if.then31
	movq	-24(%rbp), %rax
	movq	%rax, %rcx
	addq	$1, %rcx
	movq	%rcx, -24(%rbp)
	movzbl	(%rax), %eax
	movl	-12(%rbp), %ecx
                                        # kill: def $cl killed $ecx
	shll	%cl, %eax
	cltq
	orq	-32(%rbp), %rax
	movq	%rax, -32(%rbp)
	movl	-12(%rbp), %eax
	addl	$8, %eax
	movl	%eax, -12(%rbp)
	movl	-16(%rbp), %eax
	subl	$8, %eax
	movl	%eax, -16(%rbp)
.LBB33_15:                              # %if.end37
	movq	-24(%rbp), %rax
	movzbl	(%rax), %eax
	movslq	-16(%rbp), %rcx
	movzbl	rmask(,%rcx), %ecx
	andl	%ecx, %eax
	movl	-12(%rbp), %ecx
                                        # kill: def $cl killed $ecx
	shll	%cl, %eax
	cltq
	orq	-32(%rbp), %rax
	movq	%rax, -32(%rbp)
	movl	n_bits, %eax
	addl	getcode.offset, %eax
	movl	%eax, getcode.offset
	movq	-32(%rbp), %rax
	movq	%rax, -48(%rbp)
.LBB33_16:                              # %return
	movq	-48(%rbp), %rbx
	cmpl	$1592733968, -36(%rbp)  # imm = 0x5EEF3110
	jne	.LBB33_18
.LBB33_17:
	movq	%rbx, %rax
	addq	$40, %rsp
	popq	%rbx
	popq	%rbp
	.cfi_def_cfa %rsp, 8
	retq
.LBB33_18:                              # %func_exit
	.cfi_def_cfa %rbp, 16
	callq	detect_breach
	jmp	.LBB33_17
.Lfunc_end33:
	.size	getcode.18, .Lfunc_end33-getcode.18
	.cfi_endproc
                                        # -- End function
	.globl	scott_hack.19           # -- Begin function scott_hack.19
	.p2align	4, 0x90
	.type	scott_hack.19,@function
scott_hack.19:                          # @scott_hack.19
	.cfi_startproc
# %bb.0:                                # %entry
	pushq	%rbp
	.cfi_def_cfa_offset 16
	.cfi_offset %rbp, -16
	movq	%rsp, %rbp
	.cfi_def_cfa_register %rbp
	pushq	%rbx
	subq	$40, %rsp
	.cfi_offset %rbx, -24
	movl	$201020029, -28(%rbp)   # imm = 0xBFB527D
	movq	%rdi, -16(%rbp)
	movq	%rsi, -40(%rbp)
	movl	%edx, -32(%rbp)
	movl	%ecx, -24(%rbp)
	movq	%r8, -48(%rbp)
.LBB34_1:                               # %probeSH
                                        # =>This Inner Loop Header: Depth=1
	movslq	-32(%rbp), %rax
	movq	-16(%rbp), %rcx
	movq	(%rcx), %rdx
	subq	%rax, %rdx
	movq	%rdx, (%rcx)
	cmpq	$0, %rdx
	jge	.LBB34_3
# %bb.2:                                # %if.then
                                        #   in Loop: Header=BB34_1 Depth=1
	movslq	-24(%rbp), %rax
	movq	-16(%rbp), %rcx
	addq	(%rcx), %rax
	movq	%rax, (%rcx)
.LBB34_3:                               # %if.end
                                        #   in Loop: Header=BB34_1 Depth=1
	movq	-16(%rbp), %rax
	movq	(%rax), %rax
	movq	htab(,%rax,8), %rax
	cmpq	-40(%rbp), %rax
	jne	.LBB34_5
# %bb.4:                                # %if.then5
	movq	-16(%rbp), %rax
	movq	(%rax), %rax
	movzwl	codetab(,%rax,2), %eax
	movq	-48(%rbp), %rcx
	movq	%rax, (%rcx)
	movl	$1, -20(%rbp)
	jmp	.LBB34_8
.LBB34_5:                               # %if.end8
                                        #   in Loop: Header=BB34_1 Depth=1
	movq	-16(%rbp), %rax
	movq	(%rax), %rax
	cmpq	$0, htab(,%rax,8)
	jle	.LBB34_7
# %bb.6:                                # %if.then12
                                        #   in Loop: Header=BB34_1 Depth=1
	jmp	.LBB34_1
.LBB34_7:                               # %if.end13
	movl	$0, -20(%rbp)
.LBB34_8:                               # %return
	movl	-20(%rbp), %ebx
	cmpl	$201020029, -28(%rbp)   # imm = 0xBFB527D
	jne	.LBB34_10
.LBB34_9:
	movl	%ebx, %eax
	addq	$40, %rsp
	popq	%rbx
	popq	%rbp
	.cfi_def_cfa %rsp, 8
	retq
.LBB34_10:                              # %func_exit
	.cfi_def_cfa %rbp, 16
	callq	detect_breach
	jmp	.LBB34_9
.Lfunc_end34:
	.size	scott_hack.19, .Lfunc_end34-scott_hack.19
	.cfi_endproc
                                        # -- End function
	.globl	output.20               # -- Begin function output.20
	.p2align	4, 0x90
	.type	output.20,@function
output.20:                              # @output.20
	.cfi_startproc
# %bb.0:                                # %entry
	pushq	%rbp
	.cfi_def_cfa_offset 16
	.cfi_offset %rbp, -16
	movq	%rsp, %rbp
	.cfi_def_cfa_register %rbp
	subq	$32, %rsp
	movl	$2082691822, -28(%rbp)  # imm = 0x7C235AEE
	movq	%rdi, -24(%rbp)
	movl	offset, %eax
	movl	%eax, -8(%rbp)
	movl	n_bits, %eax
	movl	%eax, -4(%rbp)
	movabsq	$buf, %rax
	movq	%rax, -16(%rbp)
	cmpq	$0, -24(%rbp)
	jl	.LBB35_24
# %bb.1:                                # %if.then
	movl	-8(%rbp), %eax
	sarl	$3, %eax
	movq	-16(%rbp), %rcx
	cltq
	addq	%rax, %rcx
	movq	%rcx, -16(%rbp)
	movl	-8(%rbp), %eax
	andl	$7, %eax
	movl	%eax, -8(%rbp)
	movq	-16(%rbp), %rax
	movsbl	(%rax), %eax
	movslq	-8(%rbp), %rcx
	movzbl	rmask(,%rcx), %ecx
	andl	%ecx, %eax
	cltq
	movq	-24(%rbp), %rdx
	movl	-8(%rbp), %ecx
                                        # kill: def $cl killed $rcx
	shlq	%cl, %rdx
	movslq	-8(%rbp), %rcx
	movzbl	lmask(,%rcx), %ecx
	andq	%rcx, %rdx
	orq	%rdx, %rax
	movq	-16(%rbp), %rcx
	movb	%al, (%rcx)
	movq	-16(%rbp), %rax
	addq	$1, %rax
	movq	%rax, -16(%rbp)
	movl	$8, %eax
	movl	$8, %ecx
	subl	-8(%rbp), %ecx
	movl	-4(%rbp), %edx
	subl	%ecx, %edx
	movl	%edx, -4(%rbp)
	subl	-8(%rbp), %eax
	movq	-24(%rbp), %rdx
	movl	%eax, %ecx
                                        # kill: def $cl killed $rcx
	sarq	%cl, %rdx
	movq	%rdx, -24(%rbp)
	cmpl	$8, -4(%rbp)
	jl	.LBB35_3
# %bb.2:                                # %if.then15
	movq	-24(%rbp), %rax
	movq	-16(%rbp), %rcx
	movq	%rcx, %rdx
	addq	$1, %rdx
	movq	%rdx, -16(%rbp)
	movb	%al, (%rcx)
	movq	-24(%rbp), %rax
	sarq	$8, %rax
	movq	%rax, -24(%rbp)
	movl	-4(%rbp), %eax
	subl	$8, %eax
	movl	%eax, -4(%rbp)
.LBB35_3:                               # %if.end
	cmpl	$0, -4(%rbp)
	je	.LBB35_5
# %bb.4:                                # %if.then20
	movq	-24(%rbp), %rax
	movq	-16(%rbp), %rcx
	movb	%al, (%rcx)
.LBB35_5:                               # %if.end22
	movl	n_bits, %eax
	addl	offset, %eax
	movl	%eax, offset
	movl	offset, %eax
	movl	n_bits, %ecx
	shll	$3, %ecx
	cmpl	%ecx, %eax
	jne	.LBB35_10
# %bb.6:                                # %if.then26
	movabsq	$buf, %rax
	movq	%rax, -16(%rbp)
	movl	n_bits, %eax
	movl	%eax, -4(%rbp)
	movslq	-4(%rbp), %rax
	addq	bytes_out, %rax
	movq	%rax, bytes_out
.LBB35_7:                               # %do.body
                                        # =>This Inner Loop Header: Depth=1
	movq	-16(%rbp), %rax
	movq	%rax, %rcx
	addq	$1, %rcx
	movq	%rcx, -16(%rbp)
	movsbl	(%rax), %edi
	callq	putchar
# %bb.8:                                # %do.cond
                                        #   in Loop: Header=BB35_7 Depth=1
	movl	-4(%rbp), %eax
	addl	$-1, %eax
	movl	%eax, -4(%rbp)
	cmpl	$0, %eax
	jne	.LBB35_7
# %bb.9:                                # %do.end
	movl	$0, offset
.LBB35_10:                              # %if.end32
	movq	free_ent, %rax
	cmpq	maxcode, %rax
	jg	.LBB35_12
# %bb.11:                               # %lor.lhs.false
	cmpl	$0, clear_flg
	jle	.LBB35_23
.LBB35_12:                              # %if.then37
	cmpl	$0, offset
	jle	.LBB35_16
# %bb.13:                               # %if.then40
	movslq	n_bits, %rdx
	movq	stdout, %rcx
	movabsq	$buf, %rdi
	movl	$1, %esi
	callq	fwrite
	movslq	n_bits, %rcx
	cmpq	%rcx, %rax
	je	.LBB35_15
# %bb.14:                               # %if.then46
	callq	writeerr
.LBB35_15:                              # %if.end47
	movslq	n_bits, %rax
	addq	bytes_out, %rax
	movq	%rax, bytes_out
.LBB35_16:                              # %if.end50
	movl	$0, offset
	cmpl	$0, clear_flg
	je	.LBB35_18
# %bb.17:                               # %if.then52
	movl	$9, n_bits
	movq	$511, maxcode           # imm = 0x1FF
	movl	$0, clear_flg
	jmp	.LBB35_22
.LBB35_18:                              # %if.else
	movl	n_bits, %eax
	addl	$1, %eax
	movl	%eax, n_bits
	movl	n_bits, %eax
	cmpl	maxbits, %eax
	jne	.LBB35_20
# %bb.19:                               # %if.then55
	movq	maxmaxcode, %rax
	movq	%rax, maxcode
	jmp	.LBB35_21
.LBB35_20:                              # %if.else56
	movl	n_bits, %ecx
                                        # kill: def $cl killed $ecx
	movl	$1, %eax
	shll	%cl, %eax
	subl	$1, %eax
	cltq
	movq	%rax, maxcode
.LBB35_21:                              # %if.end60
	jmp	.LBB35_22
.LBB35_22:                              # %if.end61
	jmp	.LBB35_23
.LBB35_23:                              # %if.end62
	jmp	.LBB35_29
.LBB35_24:                              # %if.else63
	cmpl	$0, offset
	jle	.LBB35_26
# %bb.25:                               # %if.then66
	movl	offset, %eax
	addl	$7, %eax
	cltd
	movl	$8, %ecx
	idivl	%ecx
	movslq	%eax, %rdx
	movq	stdout, %rcx
	movabsq	$buf, %rdi
	movl	$1, %esi
	callq	fwrite
.LBB35_26:                              # %if.end70
	movl	offset, %eax
	addl	$7, %eax
	cltd
	movl	$8, %ecx
	idivl	%ecx
	cltq
	addq	bytes_out, %rax
	movq	%rax, bytes_out
	movl	$0, offset
	movq	stdout, %rdi
	callq	fflush
	movq	stdout, %rdi
	callq	ferror
	cmpl	$0, %eax
	je	.LBB35_28
# %bb.27:                               # %if.then78
	callq	writeerr
.LBB35_28:                              # %if.end79
	jmp	.LBB35_29
.LBB35_29:                              # %if.end80
	cmpl	$2082691822, -28(%rbp)  # imm = 0x7C235AEE
	jne	.LBB35_31
.LBB35_30:
	addq	$32, %rsp
	popq	%rbp
	.cfi_def_cfa %rsp, 8
	retq
.LBB35_31:                              # %func_exit
	.cfi_def_cfa %rbp, 16
	callq	detect_breach
	jmp	.LBB35_30
.Lfunc_end35:
	.size	output.20, .Lfunc_end35-output.20
	.cfi_endproc
                                        # -- End function
	.globl	decompress.21           # -- Begin function decompress.21
	.p2align	4, 0x90
	.type	decompress.21,@function
decompress.21:                          # @decompress.21
	.cfi_startproc
# %bb.0:                                # %entry
	pushq	%rbp
	.cfi_def_cfa_offset 16
	.cfi_offset %rbp, -16
	movq	%rsp, %rbp
	.cfi_def_cfa_register %rbp
	subq	$48, %rsp
	movl	$1692902916, -36(%rbp)  # imm = 0x64E7A604
	movl	$9, n_bits
	movq	$511, maxcode           # imm = 0x1FF
	movq	$255, -8(%rbp)
.LBB36_1:                               # %for.cond
                                        # =>This Inner Loop Header: Depth=1
	cmpq	$0, -8(%rbp)
	jl	.LBB36_4
# %bb.2:                                # %for.body
                                        #   in Loop: Header=BB36_1 Depth=1
	movq	-8(%rbp), %rax
	movw	$0, codetab(,%rax,2)
	movq	-8(%rbp), %rax
	movq	-8(%rbp), %rcx
	movb	%al, htab(,%rcx)
# %bb.3:                                # %for.inc
                                        #   in Loop: Header=BB36_1 Depth=1
	movq	-8(%rbp), %rax
	addq	$-1, %rax
	movq	%rax, -8(%rbp)
	jmp	.LBB36_1
.LBB36_4:                               # %for.end
	movl	block_compress, %eax
	cmpl	$0, %eax
	movl	$257, %eax              # imm = 0x101
	movl	$256, %ecx              # imm = 0x100
	cmovnel	%eax, %ecx
	movslq	%ecx, %rax
	movq	%rax, free_ent
	callq	getcode
	movq	%rax, -32(%rbp)
	movl	%eax, -20(%rbp)
	cmpq	$-1, -32(%rbp)
	jne	.LBB36_6
# %bb.5:                                # %if.then
	jmp	.LBB36_33
.LBB36_6:                               # %if.end
	movl	-20(%rbp), %eax
	movsbl	%al, %edi
	callq	putchar
	movq	stdout, %rdi
	callq	ferror
	cmpl	$0, %eax
	je	.LBB36_8
# %bb.7:                                # %if.then11
	callq	writeerr
.LBB36_8:                               # %if.end12
	movabsq	$htab, %rax
	addq	$65536, %rax            # imm = 0x10000
	movq	%rax, -16(%rbp)
.LBB36_9:                               # %while.cond
                                        # =>This Loop Header: Depth=1
                                        #     Child Loop BB36_13 Depth 2
                                        #     Child Loop BB36_22 Depth 2
                                        #     Child Loop BB36_25 Depth 2
	callq	getcode
	movq	%rax, -8(%rbp)
	cmpq	$-1, %rax
	jle	.LBB36_30
# %bb.10:                               # %while.body
                                        #   in Loop: Header=BB36_9 Depth=1
	cmpq	$256, -8(%rbp)          # imm = 0x100
	jne	.LBB36_19
# %bb.11:                               # %land.lhs.true
                                        #   in Loop: Header=BB36_9 Depth=1
	cmpl	$0, block_compress
	je	.LBB36_19
# %bb.12:                               # %if.then19
                                        #   in Loop: Header=BB36_9 Depth=1
	movq	$255, -8(%rbp)
.LBB36_13:                              # %for.cond20
                                        #   Parent Loop BB36_9 Depth=1
                                        # =>  This Inner Loop Header: Depth=2
	cmpq	$0, -8(%rbp)
	jl	.LBB36_16
# %bb.14:                               # %for.body23
                                        #   in Loop: Header=BB36_13 Depth=2
	movq	-8(%rbp), %rax
	movw	$0, codetab(,%rax,2)
# %bb.15:                               # %for.inc25
                                        #   in Loop: Header=BB36_13 Depth=2
	movq	-8(%rbp), %rax
	addq	$-1, %rax
	movq	%rax, -8(%rbp)
	jmp	.LBB36_13
.LBB36_16:                              # %for.end27
                                        #   in Loop: Header=BB36_9 Depth=1
	movl	$1, clear_flg
	movq	$256, free_ent          # imm = 0x100
	callq	getcode
	movq	%rax, -8(%rbp)
	cmpq	$-1, %rax
	jne	.LBB36_18
# %bb.17:                               # %if.then31
	jmp	.LBB36_31
.LBB36_18:                              # %if.end32
                                        #   in Loop: Header=BB36_9 Depth=1
	jmp	.LBB36_19
.LBB36_19:                              # %if.end33
                                        #   in Loop: Header=BB36_9 Depth=1
	movq	-8(%rbp), %rax
	movq	%rax, -48(%rbp)
	movq	-8(%rbp), %rax
	cmpq	free_ent, %rax
	jl	.LBB36_21
# %bb.20:                               # %if.then36
                                        #   in Loop: Header=BB36_9 Depth=1
	movl	-20(%rbp), %eax
	movq	-16(%rbp), %rcx
	movq	%rcx, %rdx
	addq	$1, %rdx
	movq	%rdx, -16(%rbp)
	movb	%al, (%rcx)
	movq	-32(%rbp), %rax
	movq	%rax, -8(%rbp)
.LBB36_21:                              # %if.end38
                                        #   in Loop: Header=BB36_9 Depth=1
	jmp	.LBB36_22
.LBB36_22:                              # %while.cond39
                                        #   Parent Loop BB36_9 Depth=1
                                        # =>  This Inner Loop Header: Depth=2
	cmpq	$256, -8(%rbp)          # imm = 0x100
	jl	.LBB36_24
# %bb.23:                               # %while.body42
                                        #   in Loop: Header=BB36_22 Depth=2
	movq	-8(%rbp), %rax
	movb	htab(,%rax), %al
	movq	-16(%rbp), %rcx
	movq	%rcx, %rdx
	addq	$1, %rdx
	movq	%rdx, -16(%rbp)
	movb	%al, (%rcx)
	movq	-8(%rbp), %rax
	movzwl	codetab(,%rax,2), %eax
	movq	%rax, -8(%rbp)
	jmp	.LBB36_22
.LBB36_24:                              # %while.end
                                        #   in Loop: Header=BB36_9 Depth=1
	movq	-8(%rbp), %rax
	movzbl	htab(,%rax), %eax
	movl	%eax, -20(%rbp)
	movq	-16(%rbp), %rcx
	movq	%rcx, %rdx
	addq	$1, %rdx
	movq	%rdx, -16(%rbp)
	movb	%al, (%rcx)
.LBB36_25:                              # %do.body
                                        #   Parent Loop BB36_9 Depth=1
                                        # =>  This Inner Loop Header: Depth=2
	movq	-16(%rbp), %rax
	movq	%rax, %rcx
	addq	$-1, %rcx
	movq	%rcx, -16(%rbp)
	movzbl	-1(%rax), %edi
	callq	putchar
# %bb.26:                               # %do.cond
                                        #   in Loop: Header=BB36_25 Depth=2
	movabsq	$htab, %rax
	addq	$65536, %rax            # imm = 0x10000
	cmpq	%rax, -16(%rbp)
	ja	.LBB36_25
# %bb.27:                               # %do.end
                                        #   in Loop: Header=BB36_9 Depth=1
	movq	free_ent, %rax
	movq	%rax, -8(%rbp)
	cmpq	maxmaxcode, %rax
	jge	.LBB36_29
# %bb.28:                               # %if.then58
                                        #   in Loop: Header=BB36_9 Depth=1
	movq	-32(%rbp), %rax
	movq	-8(%rbp), %rcx
	movw	%ax, codetab(,%rcx,2)
	movl	-20(%rbp), %eax
	movq	-8(%rbp), %rcx
	movb	%al, htab(,%rcx)
	movq	-8(%rbp), %rax
	addq	$1, %rax
	movq	%rax, free_ent
.LBB36_29:                              # %if.end63
                                        #   in Loop: Header=BB36_9 Depth=1
	movq	-48(%rbp), %rax
	movq	%rax, -32(%rbp)
	jmp	.LBB36_9
.LBB36_30:                              # %while.end64.loopexit
	jmp	.LBB36_31
.LBB36_31:                              # %while.end64
	movq	stdout, %rdi
	callq	fflush
	movq	stdout, %rdi
	callq	ferror
	cmpl	$0, %eax
	je	.LBB36_33
# %bb.32:                               # %if.then68
	callq	writeerr
.LBB36_33:                              # %if.end69
	cmpl	$1692902916, -36(%rbp)  # imm = 0x64E7A604
	jne	.LBB36_35
.LBB36_34:
	addq	$48, %rsp
	popq	%rbp
	.cfi_def_cfa %rsp, 8
	retq
.LBB36_35:                              # %func_exit
	.cfi_def_cfa %rbp, 16
	callq	detect_breach
	jmp	.LBB36_34
.Lfunc_end36:
	.size	decompress.21, .Lfunc_end36-decompress.21
	.cfi_endproc
                                        # -- End function
	.globl	output.22               # -- Begin function output.22
	.p2align	4, 0x90
	.type	output.22,@function
output.22:                              # @output.22
	.cfi_startproc
# %bb.0:                                # %entry
	pushq	%rbp
	.cfi_def_cfa_offset 16
	.cfi_offset %rbp, -16
	movq	%rsp, %rbp
	.cfi_def_cfa_register %rbp
	subq	$32, %rsp
	movl	$1668887533, -28(%rbp)  # imm = 0x637933ED
	movq	%rdi, -24(%rbp)
	movl	offset, %eax
	movl	%eax, -8(%rbp)
	movl	n_bits, %eax
	movl	%eax, -4(%rbp)
	movabsq	$buf, %rax
	movq	%rax, -16(%rbp)
	cmpq	$0, -24(%rbp)
	jl	.LBB37_24
# %bb.1:                                # %if.then
	movl	-8(%rbp), %eax
	sarl	$3, %eax
	movq	-16(%rbp), %rcx
	cltq
	addq	%rax, %rcx
	movq	%rcx, -16(%rbp)
	movl	-8(%rbp), %eax
	andl	$7, %eax
	movl	%eax, -8(%rbp)
	movq	-16(%rbp), %rax
	movsbl	(%rax), %eax
	movslq	-8(%rbp), %rcx
	movzbl	rmask(,%rcx), %ecx
	andl	%ecx, %eax
	cltq
	movq	-24(%rbp), %rdx
	movl	-8(%rbp), %ecx
                                        # kill: def $cl killed $rcx
	shlq	%cl, %rdx
	movslq	-8(%rbp), %rcx
	movzbl	lmask(,%rcx), %ecx
	andq	%rcx, %rdx
	orq	%rdx, %rax
	movq	-16(%rbp), %rcx
	movb	%al, (%rcx)
	movq	-16(%rbp), %rax
	addq	$1, %rax
	movq	%rax, -16(%rbp)
	movl	$8, %eax
	movl	$8, %ecx
	subl	-8(%rbp), %ecx
	movl	-4(%rbp), %edx
	subl	%ecx, %edx
	movl	%edx, -4(%rbp)
	subl	-8(%rbp), %eax
	movq	-24(%rbp), %rdx
	movl	%eax, %ecx
                                        # kill: def $cl killed $rcx
	sarq	%cl, %rdx
	movq	%rdx, -24(%rbp)
	cmpl	$8, -4(%rbp)
	jl	.LBB37_3
# %bb.2:                                # %if.then15
	movq	-24(%rbp), %rax
	movq	-16(%rbp), %rcx
	movq	%rcx, %rdx
	addq	$1, %rdx
	movq	%rdx, -16(%rbp)
	movb	%al, (%rcx)
	movq	-24(%rbp), %rax
	sarq	$8, %rax
	movq	%rax, -24(%rbp)
	movl	-4(%rbp), %eax
	subl	$8, %eax
	movl	%eax, -4(%rbp)
.LBB37_3:                               # %if.end
	cmpl	$0, -4(%rbp)
	je	.LBB37_5
# %bb.4:                                # %if.then20
	movq	-24(%rbp), %rax
	movq	-16(%rbp), %rcx
	movb	%al, (%rcx)
.LBB37_5:                               # %if.end22
	movl	n_bits, %eax
	addl	offset, %eax
	movl	%eax, offset
	movl	offset, %eax
	movl	n_bits, %ecx
	shll	$3, %ecx
	cmpl	%ecx, %eax
	jne	.LBB37_10
# %bb.6:                                # %if.then26
	movabsq	$buf, %rax
	movq	%rax, -16(%rbp)
	movl	n_bits, %eax
	movl	%eax, -4(%rbp)
	movslq	-4(%rbp), %rax
	addq	bytes_out, %rax
	movq	%rax, bytes_out
.LBB37_7:                               # %do.body
                                        # =>This Inner Loop Header: Depth=1
	movq	-16(%rbp), %rax
	movq	%rax, %rcx
	addq	$1, %rcx
	movq	%rcx, -16(%rbp)
	movsbl	(%rax), %edi
	callq	putchar
# %bb.8:                                # %do.cond
                                        #   in Loop: Header=BB37_7 Depth=1
	movl	-4(%rbp), %eax
	addl	$-1, %eax
	movl	%eax, -4(%rbp)
	cmpl	$0, %eax
	jne	.LBB37_7
# %bb.9:                                # %do.end
	movl	$0, offset
.LBB37_10:                              # %if.end32
	movq	free_ent, %rax
	cmpq	maxcode, %rax
	jg	.LBB37_12
# %bb.11:                               # %lor.lhs.false
	cmpl	$0, clear_flg
	jle	.LBB37_23
.LBB37_12:                              # %if.then37
	cmpl	$0, offset
	jle	.LBB37_16
# %bb.13:                               # %if.then40
	movslq	n_bits, %rdx
	movq	stdout, %rcx
	movabsq	$buf, %rdi
	movl	$1, %esi
	callq	fwrite
	movslq	n_bits, %rcx
	cmpq	%rcx, %rax
	je	.LBB37_15
# %bb.14:                               # %if.then46
	callq	writeerr
.LBB37_15:                              # %if.end47
	movslq	n_bits, %rax
	addq	bytes_out, %rax
	movq	%rax, bytes_out
.LBB37_16:                              # %if.end50
	movl	$0, offset
	cmpl	$0, clear_flg
	je	.LBB37_18
# %bb.17:                               # %if.then52
	movl	$9, n_bits
	movq	$511, maxcode           # imm = 0x1FF
	movl	$0, clear_flg
	jmp	.LBB37_22
.LBB37_18:                              # %if.else
	movl	n_bits, %eax
	addl	$1, %eax
	movl	%eax, n_bits
	movl	n_bits, %eax
	cmpl	maxbits, %eax
	jne	.LBB37_20
# %bb.19:                               # %if.then55
	movq	maxmaxcode, %rax
	movq	%rax, maxcode
	jmp	.LBB37_21
.LBB37_20:                              # %if.else56
	movl	n_bits, %ecx
                                        # kill: def $cl killed $ecx
	movl	$1, %eax
	shll	%cl, %eax
	subl	$1, %eax
	cltq
	movq	%rax, maxcode
.LBB37_21:                              # %if.end60
	jmp	.LBB37_22
.LBB37_22:                              # %if.end61
	jmp	.LBB37_23
.LBB37_23:                              # %if.end62
	jmp	.LBB37_29
.LBB37_24:                              # %if.else63
	cmpl	$0, offset
	jle	.LBB37_26
# %bb.25:                               # %if.then66
	movl	offset, %eax
	addl	$7, %eax
	cltd
	movl	$8, %ecx
	idivl	%ecx
	movslq	%eax, %rdx
	movq	stdout, %rcx
	movabsq	$buf, %rdi
	movl	$1, %esi
	callq	fwrite
.LBB37_26:                              # %if.end70
	movl	offset, %eax
	addl	$7, %eax
	cltd
	movl	$8, %ecx
	idivl	%ecx
	cltq
	addq	bytes_out, %rax
	movq	%rax, bytes_out
	movl	$0, offset
	movq	stdout, %rdi
	callq	fflush
	movq	stdout, %rdi
	callq	ferror
	cmpl	$0, %eax
	je	.LBB37_28
# %bb.27:                               # %if.then78
	callq	writeerr
.LBB37_28:                              # %if.end79
	jmp	.LBB37_29
.LBB37_29:                              # %if.end80
	cmpl	$1668887533, -28(%rbp)  # imm = 0x637933ED
	jne	.LBB37_31
.LBB37_30:
	addq	$32, %rsp
	popq	%rbp
	.cfi_def_cfa %rsp, 8
	retq
.LBB37_31:                              # %func_exit
	.cfi_def_cfa %rbp, 16
	callq	detect_breach
	jmp	.LBB37_30
.Lfunc_end37:
	.size	output.22, .Lfunc_end37-output.22
	.cfi_endproc
                                        # -- End function
	.globl	getcode.23              # -- Begin function getcode.23
	.p2align	4, 0x90
	.type	getcode.23,@function
getcode.23:                             # @getcode.23
	.cfi_startproc
# %bb.0:                                # %entry
	pushq	%rbp
	.cfi_def_cfa_offset 16
	.cfi_offset %rbp, -16
	movq	%rsp, %rbp
	.cfi_def_cfa_register %rbp
	pushq	%rbx
	subq	$40, %rsp
	.cfi_offset %rbx, -24
	movl	$1242105129, -36(%rbp)  # imm = 0x4A090529
	movabsq	$getcode.buf, %rax
	movq	%rax, -24(%rbp)
	cmpl	$0, clear_flg
	jg	.LBB38_3
# %bb.1:                                # %lor.lhs.false
	movl	getcode.offset, %eax
	cmpl	getcode.size, %eax
	jge	.LBB38_3
# %bb.2:                                # %lor.lhs.false2
	movq	free_ent, %rax
	cmpq	maxcode, %rax
	jle	.LBB38_13
.LBB38_3:                               # %if.then
	movq	free_ent, %rax
	cmpq	maxcode, %rax
	jle	.LBB38_8
# %bb.4:                                # %if.then5
	movl	n_bits, %eax
	addl	$1, %eax
	movl	%eax, n_bits
	movl	n_bits, %eax
	cmpl	maxbits, %eax
	jne	.LBB38_6
# %bb.5:                                # %if.then7
	movq	maxmaxcode, %rax
	movq	%rax, maxcode
	jmp	.LBB38_7
.LBB38_6:                               # %if.else
	movl	n_bits, %ecx
                                        # kill: def $cl killed $ecx
	movl	$1, %eax
	shll	%cl, %eax
	subl	$1, %eax
	cltq
	movq	%rax, maxcode
.LBB38_7:                               # %if.end
	jmp	.LBB38_8
.LBB38_8:                               # %if.end8
	cmpl	$0, clear_flg
	jle	.LBB38_10
# %bb.9:                                # %if.then11
	movl	$9, n_bits
	movq	$511, maxcode           # imm = 0x1FF
	movl	$0, clear_flg
.LBB38_10:                              # %if.end12
	movslq	n_bits, %rdx
	movq	stdin, %rcx
	movabsq	$getcode.buf, %rdi
	movl	$1, %esi
	callq	fread
	movl	%eax, getcode.size
	cmpl	$0, getcode.size
	jg	.LBB38_12
# %bb.11:                               # %if.then17
	movq	$-1, -48(%rbp)
	jmp	.LBB38_16
.LBB38_12:                              # %if.end18
	movl	$0, getcode.offset
	movl	getcode.size, %eax
	shll	$3, %eax
	movl	n_bits, %ecx
	subl	$1, %ecx
	subl	%ecx, %eax
	movl	%eax, getcode.size
.LBB38_13:                              # %if.end22
	movl	getcode.offset, %eax
	movl	%eax, -12(%rbp)
	movl	n_bits, %eax
	movl	%eax, -16(%rbp)
	movl	-12(%rbp), %eax
	sarl	$3, %eax
	movq	-24(%rbp), %rcx
	cltq
	addq	%rax, %rcx
	movq	%rcx, -24(%rbp)
	movl	-12(%rbp), %eax
	andl	$7, %eax
	movl	%eax, -12(%rbp)
	movq	-24(%rbp), %rax
	movq	%rax, %rcx
	addq	$1, %rcx
	movq	%rcx, -24(%rbp)
	movzbl	(%rax), %eax
	movl	-12(%rbp), %ecx
                                        # kill: def $cl killed $ecx
	sarl	%cl, %eax
	cltq
	movq	%rax, -32(%rbp)
	movl	$8, %eax
	movl	$8, %ecx
	subl	-12(%rbp), %ecx
	movl	-16(%rbp), %edx
	subl	%ecx, %edx
	movl	%edx, -16(%rbp)
	subl	-12(%rbp), %eax
	movl	%eax, -12(%rbp)
	cmpl	$8, -16(%rbp)
	jl	.LBB38_15
# %bb.14:                               # %if.then31
	movq	-24(%rbp), %rax
	movq	%rax, %rcx
	addq	$1, %rcx
	movq	%rcx, -24(%rbp)
	movzbl	(%rax), %eax
	movl	-12(%rbp), %ecx
                                        # kill: def $cl killed $ecx
	shll	%cl, %eax
	cltq
	orq	-32(%rbp), %rax
	movq	%rax, -32(%rbp)
	movl	-12(%rbp), %eax
	addl	$8, %eax
	movl	%eax, -12(%rbp)
	movl	-16(%rbp), %eax
	subl	$8, %eax
	movl	%eax, -16(%rbp)
.LBB38_15:                              # %if.end37
	movq	-24(%rbp), %rax
	movzbl	(%rax), %eax
	movslq	-16(%rbp), %rcx
	movzbl	rmask(,%rcx), %ecx
	andl	%ecx, %eax
	movl	-12(%rbp), %ecx
                                        # kill: def $cl killed $ecx
	shll	%cl, %eax
	cltq
	orq	-32(%rbp), %rax
	movq	%rax, -32(%rbp)
	movl	n_bits, %eax
	addl	getcode.offset, %eax
	movl	%eax, getcode.offset
	movq	-32(%rbp), %rax
	movq	%rax, -48(%rbp)
.LBB38_16:                              # %return
	movq	-48(%rbp), %rbx
	cmpl	$1242105129, -36(%rbp)  # imm = 0x4A090529
	jne	.LBB38_18
.LBB38_17:
	movq	%rbx, %rax
	addq	$40, %rsp
	popq	%rbx
	popq	%rbp
	.cfi_def_cfa %rsp, 8
	retq
.LBB38_18:                              # %func_exit
	.cfi_def_cfa %rbp, 16
	callq	detect_breach
	jmp	.LBB38_17
.Lfunc_end38:
	.size	getcode.23, .Lfunc_end38-getcode.23
	.cfi_endproc
                                        # -- End function
	.globl	compress.24             # -- Begin function compress.24
	.p2align	4, 0x90
	.type	compress.24,@function
compress.24:                            # @compress.24
	.cfi_startproc
# %bb.0:                                # %entry
	pushq	%rbp
	.cfi_def_cfa_offset 16
	.cfi_offset %rbp, -16
	movq	%rsp, %rbp
	.cfi_def_cfa_register %rbp
	subq	$64, %rsp
	movl	$1130313878, -56(%rbp)  # imm = 0x435F3896
	movq	$0, -8(%rbp)
	cmpl	$0, nomagic
	jne	.LBB39_4
# %bb.1:                                # %if.then
	movzbl	magic_header, %edi
	callq	putchar
	movzbl	magic_header+1, %edi
	callq	putchar
	movl	maxbits, %eax
	orl	block_compress, %eax
	movsbl	%al, %edi
	callq	putchar
	movq	stdout, %rdi
	callq	ferror
	cmpl	$0, %eax
	je	.LBB39_3
# %bb.2:                                # %if.then7
	callq	writeerr
.LBB39_3:                               # %if.end
	jmp	.LBB39_4
.LBB39_4:                               # %if.end8
	movl	$0, offset
	movq	$3, bytes_out
	movq	$0, out_count
	movl	$0, clear_flg
	movq	$0, ratio
	movq	$1, in_count
	movq	$10000, checkpoint      # imm = 0x2710
	movl	$9, n_bits
	movq	$511, maxcode           # imm = 0x1FF
	movl	block_compress, %eax
	cmpl	$0, %eax
	movl	$257, %eax              # imm = 0x101
	movl	$256, %ecx              # imm = 0x100
	cmovnel	%eax, %ecx
	movslq	%ecx, %rax
	movq	%rax, free_ent
	callq	getchar
	cltq
	movq	%rax, -24(%rbp)
	movl	$0, -12(%rbp)
	movq	hsize, %rax
	movq	%rax, -32(%rbp)
.LBB39_5:                               # %for.cond
                                        # =>This Inner Loop Header: Depth=1
	cmpq	$65536, -32(%rbp)       # imm = 0x10000
	jge	.LBB39_8
# %bb.6:                                # %for.body
                                        #   in Loop: Header=BB39_5 Depth=1
	movl	-12(%rbp), %eax
	addl	$1, %eax
	movl	%eax, -12(%rbp)
# %bb.7:                                # %for.inc
                                        #   in Loop: Header=BB39_5 Depth=1
	movq	-32(%rbp), %rax
	shlq	$1, %rax
	movq	%rax, -32(%rbp)
	jmp	.LBB39_5
.LBB39_8:                               # %for.end
	movl	$8, %eax
	subl	-12(%rbp), %eax
	movl	%eax, -12(%rbp)
	movq	hsize, %rax
	movq	%rax, -48(%rbp)
	movq	-48(%rbp), %rdi
	callq	cl_hash
.LBB39_9:                               # %while.cond
                                        # =>This Inner Loop Header: Depth=1
	callq	getchar
	movl	%eax, -36(%rbp)
	cmpl	$-1, %eax
	je	.LBB39_46
# %bb.10:                               # %while.body
                                        #   in Loop: Header=BB39_9 Depth=1
	movq	in_count, %rax
	addq	$1, %rax
	movq	%rax, in_count
	movslq	-36(%rbp), %rax
	movl	maxbits, %ecx
                                        # kill: def $cl killed $rcx
	shlq	%cl, %rax
	addq	-24(%rbp), %rax
	movq	%rax, -32(%rbp)
	movl	-36(%rbp), %eax
	movl	-12(%rbp), %ecx
                                        # kill: def $cl killed $ecx
	shll	%cl, %eax
	cltq
	xorq	-24(%rbp), %rax
	movq	%rax, -8(%rbp)
	movq	-8(%rbp), %rax
	movq	htab(,%rax,8), %rax
	cmpq	-32(%rbp), %rax
	jne	.LBB39_13
# %bb.11:                               # %if.then24
                                        #   in Loop: Header=BB39_9 Depth=1
	movq	-8(%rbp), %rax
	movzwl	codetab(,%rax,2), %eax
	movq	%rax, -24(%rbp)
.LBB39_12:                              # %while.cond.backedge
                                        #   in Loop: Header=BB39_9 Depth=1
	jmp	.LBB39_9
.LBB39_13:                              # %if.else
                                        #   in Loop: Header=BB39_9 Depth=1
	movq	-8(%rbp), %rax
	cmpq	$0, htab(,%rax,8)
	jge	.LBB39_15
# %bb.14:                               # %if.then30
                                        #   in Loop: Header=BB39_9 Depth=1
	jmp	.LBB39_39
.LBB39_15:                              # %if.end31
                                        #   in Loop: Header=BB39_9 Depth=1
	jmp	.LBB39_16
.LBB39_16:                              # %if.end32
                                        #   in Loop: Header=BB39_9 Depth=1
	movq	-48(%rbp), %rax
	subq	-8(%rbp), %rax
	movl	%eax, -16(%rbp)
	cmpq	$0, -8(%rbp)
	jne	.LBB39_18
# %bb.17:                               # %if.then37
                                        #   in Loop: Header=BB39_9 Depth=1
	movl	$1, -16(%rbp)
.LBB39_18:                              # %if.end38
                                        #   in Loop: Header=BB39_9 Depth=1
	movslq	-16(%rbp), %rax
	movq	-8(%rbp), %rcx
	subq	%rax, %rcx
	movq	%rcx, -8(%rbp)
	cmpq	$0, %rcx
	jge	.LBB39_20
# %bb.19:                               # %if.then43
                                        #   in Loop: Header=BB39_9 Depth=1
	movq	-48(%rbp), %rax
	addq	-8(%rbp), %rax
	movq	%rax, -8(%rbp)
.LBB39_20:                              # %if.end45
                                        #   in Loop: Header=BB39_9 Depth=1
	movq	-8(%rbp), %rax
	movq	htab(,%rax,8), %rax
	cmpq	-32(%rbp), %rax
	jne	.LBB39_22
# %bb.21:                               # %if.then49
                                        #   in Loop: Header=BB39_9 Depth=1
	movq	-8(%rbp), %rax
	movzwl	codetab(,%rax,2), %eax
	movq	%rax, -24(%rbp)
	jmp	.LBB39_12
.LBB39_22:                              # %if.end52
                                        #   in Loop: Header=BB39_9 Depth=1
	movq	-8(%rbp), %rax
	cmpq	$0, htab(,%rax,8)
	jg	.LBB39_24
# %bb.23:                               # %if.then56
                                        #   in Loop: Header=BB39_9 Depth=1
	jmp	.LBB39_39
.LBB39_24:                              # %if.end57
                                        #   in Loop: Header=BB39_9 Depth=1
	movslq	-16(%rbp), %rax
	movq	-8(%rbp), %rcx
	subq	%rax, %rcx
	movq	%rcx, -8(%rbp)
	cmpq	$0, %rcx
	jge	.LBB39_26
# %bb.25:                               # %if.then62
                                        #   in Loop: Header=BB39_9 Depth=1
	movq	-48(%rbp), %rax
	addq	-8(%rbp), %rax
	movq	%rax, -8(%rbp)
.LBB39_26:                              # %if.end64
                                        #   in Loop: Header=BB39_9 Depth=1
	movq	-8(%rbp), %rax
	movq	htab(,%rax,8), %rax
	cmpq	-32(%rbp), %rax
	jne	.LBB39_28
# %bb.27:                               # %if.then68
                                        #   in Loop: Header=BB39_9 Depth=1
	movq	-8(%rbp), %rax
	movzwl	codetab(,%rax,2), %eax
	movq	%rax, -24(%rbp)
	jmp	.LBB39_12
.LBB39_28:                              # %if.end71
                                        #   in Loop: Header=BB39_9 Depth=1
	movq	-8(%rbp), %rax
	cmpq	$0, htab(,%rax,8)
	jg	.LBB39_30
# %bb.29:                               # %if.then75
                                        #   in Loop: Header=BB39_9 Depth=1
	jmp	.LBB39_39
.LBB39_30:                              # %if.end76
                                        #   in Loop: Header=BB39_9 Depth=1
	movslq	-16(%rbp), %rax
	movq	-8(%rbp), %rcx
	subq	%rax, %rcx
	movq	%rcx, -8(%rbp)
	cmpq	$0, %rcx
	jge	.LBB39_32
# %bb.31:                               # %if.then81
                                        #   in Loop: Header=BB39_9 Depth=1
	movq	-48(%rbp), %rax
	addq	-8(%rbp), %rax
	movq	%rax, -8(%rbp)
.LBB39_32:                              # %if.end83
                                        #   in Loop: Header=BB39_9 Depth=1
	movq	-8(%rbp), %rax
	movq	htab(,%rax,8), %rax
	cmpq	-32(%rbp), %rax
	jne	.LBB39_34
# %bb.33:                               # %if.then87
                                        #   in Loop: Header=BB39_9 Depth=1
	movq	-8(%rbp), %rax
	movzwl	codetab(,%rax,2), %eax
	movq	%rax, -24(%rbp)
	jmp	.LBB39_12
.LBB39_34:                              # %if.end90
                                        #   in Loop: Header=BB39_9 Depth=1
	movq	-8(%rbp), %rax
	cmpq	$0, htab(,%rax,8)
	jle	.LBB39_38
# %bb.35:                               # %if.then94
                                        #   in Loop: Header=BB39_9 Depth=1
	movl	$0, -52(%rbp)
	movq	-32(%rbp), %rsi
	movl	-16(%rbp), %edx
	movq	-48(%rbp), %rcx
	leaq	-8(%rbp), %rdi
                                        # kill: def $ecx killed $ecx killed $rcx
	leaq	-24(%rbp), %r8
	callq	scott_hack
	movl	%eax, -52(%rbp)
	cmpl	$0, -52(%rbp)
	je	.LBB39_37
# %bb.36:                               # %if.then99
                                        #   in Loop: Header=BB39_9 Depth=1
	jmp	.LBB39_12
.LBB39_37:                              # %if.end100
                                        #   in Loop: Header=BB39_9 Depth=1
	jmp	.LBB39_38
.LBB39_38:                              # %if.end101
                                        #   in Loop: Header=BB39_9 Depth=1
	jmp	.LBB39_39
.LBB39_39:                              # %nomatch
                                        #   in Loop: Header=BB39_9 Depth=1
	movq	-24(%rbp), %rdi
	callq	output
	movq	out_count, %rax
	addq	$1, %rax
	movq	%rax, out_count
	movslq	-36(%rbp), %rax
	movq	%rax, -24(%rbp)
	movq	free_ent, %rax
	cmpq	maxmaxcode, %rax
	jge	.LBB39_41
# %bb.40:                               # %if.then106
                                        #   in Loop: Header=BB39_9 Depth=1
	movq	free_ent, %rax
	movq	%rax, %rcx
	addq	$1, %rcx
	movq	%rcx, free_ent
	movq	-8(%rbp), %rcx
	movw	%ax, codetab(,%rcx,2)
	movq	-32(%rbp), %rax
	movq	-8(%rbp), %rcx
	movq	%rax, htab(,%rcx,8)
	jmp	.LBB39_45
.LBB39_41:                              # %if.else111
                                        #   in Loop: Header=BB39_9 Depth=1
	movq	in_count, %rax
	cmpq	checkpoint, %rax
	jl	.LBB39_44
# %bb.42:                               # %land.lhs.true
                                        #   in Loop: Header=BB39_9 Depth=1
	cmpl	$0, block_compress
	je	.LBB39_44
# %bb.43:                               # %if.then115
                                        #   in Loop: Header=BB39_9 Depth=1
	callq	cl_block
.LBB39_44:                              # %if.end116
                                        #   in Loop: Header=BB39_9 Depth=1
	jmp	.LBB39_45
.LBB39_45:                              # %if.end117
                                        #   in Loop: Header=BB39_9 Depth=1
	jmp	.LBB39_12
.LBB39_46:                              # %while.end
	movq	-24(%rbp), %rdi
	callq	output
	movq	out_count, %rax
	addq	$1, %rax
	movq	%rax, out_count
	movq	$-1, %rdi
	callq	output
	cmpl	$0, zcat_flg
	jne	.LBB39_49
# %bb.47:                               # %land.lhs.true121
	cmpl	$0, quiet
	jne	.LBB39_49
# %bb.48:                               # %if.then123
	movq	stderr, %rdi
	movabsq	$.L.str.19, %rsi
	movb	$0, %al
	callq	fprintf
	movq	stderr, %rdi
	movq	in_count, %rsi
	subq	bytes_out, %rsi
	movq	in_count, %rdx
	callq	prratio
.LBB39_49:                              # %if.end126
	movq	bytes_out, %rax
	cmpq	in_count, %rax
	jle	.LBB39_51
# %bb.50:                               # %if.then129
	movl	$2, exit_stat
.LBB39_51:                              # %if.end130
	cmpl	$1130313878, -56(%rbp)  # imm = 0x435F3896
	jne	.LBB39_53
.LBB39_52:
	addq	$64, %rsp
	popq	%rbp
	.cfi_def_cfa %rsp, 8
	retq
.LBB39_53:                              # %func_exit
	.cfi_def_cfa %rbp, 16
	callq	detect_breach
	jmp	.LBB39_52
.Lfunc_end39:
	.size	compress.24, .Lfunc_end39-compress.24
	.cfi_endproc
                                        # -- End function
	.globl	prratio.25              # -- Begin function prratio.25
	.p2align	4, 0x90
	.type	prratio.25,@function
prratio.25:                             # @prratio.25
	.cfi_startproc
# %bb.0:                                # %entry
	pushq	%rbp
	.cfi_def_cfa_offset 16
	.cfi_offset %rbp, -16
	movq	%rsp, %rbp
	.cfi_def_cfa_register %rbp
	subq	$48, %rsp
	movl	$815068827, -20(%rbp)   # imm = 0x3094F69B
	movq	%rdi, -40(%rbp)
	movq	%rsi, -16(%rbp)
	movq	%rdx, -32(%rbp)
	cmpq	$214748, -16(%rbp)      # imm = 0x346DC
	jle	.LBB40_2
# %bb.1:                                # %if.then
	movq	-16(%rbp), %rcx
	movq	-32(%rbp), %rax
	cqto
	movl	$10000, %esi            # imm = 0x2710
	idivq	%rsi
	movq	%rax, %rsi
	movq	%rcx, %rax
	cqto
	idivq	%rsi
	movl	%eax, -4(%rbp)
	jmp	.LBB40_3
.LBB40_2:                               # %if.else
	imulq	$10000, -16(%rbp), %rax # imm = 0x2710
	cqto
	idivq	-32(%rbp)
	movl	%eax, -4(%rbp)
.LBB40_3:                               # %if.end
	cmpl	$0, -4(%rbp)
	jge	.LBB40_5
# %bb.4:                                # %if.then6
	movq	-40(%rbp), %rsi
	movl	$45, %edi
	callq	_IO_putc
	xorl	%eax, %eax
	subl	-4(%rbp), %eax
	movl	%eax, -4(%rbp)
.LBB40_5:                               # %if.end7
	movq	-40(%rbp), %rdi
	movl	-4(%rbp), %eax
	cltd
	movl	$100, %ecx
	idivl	%ecx
	movl	%eax, %r8d
	movl	-4(%rbp), %eax
	cltd
	idivl	%ecx
	movl	%edx, %ecx
	movabsq	$.L.str.25, %rsi
	movl	%r8d, %edx
	movb	$0, %al
	callq	fprintf
	cmpl	$815068827, -20(%rbp)   # imm = 0x3094F69B
	jne	.LBB40_7
.LBB40_6:
	addq	$48, %rsp
	popq	%rbp
	.cfi_def_cfa %rsp, 8
	retq
.LBB40_7:                               # %func_exit
	.cfi_def_cfa %rbp, 16
	callq	detect_breach
	jmp	.LBB40_6
.Lfunc_end40:
	.size	prratio.25, .Lfunc_end40-prratio.25
	.cfi_endproc
                                        # -- End function
	.globl	scott_hack.26           # -- Begin function scott_hack.26
	.p2align	4, 0x90
	.type	scott_hack.26,@function
scott_hack.26:                          # @scott_hack.26
	.cfi_startproc
# %bb.0:                                # %entry
	pushq	%rbp
	.cfi_def_cfa_offset 16
	.cfi_offset %rbp, -16
	movq	%rsp, %rbp
	.cfi_def_cfa_register %rbp
	pushq	%rbx
	subq	$40, %rsp
	.cfi_offset %rbx, -24
	movl	$1070534053, -28(%rbp)  # imm = 0x3FCF0DA5
	movq	%rdi, -16(%rbp)
	movq	%rsi, -40(%rbp)
	movl	%edx, -32(%rbp)
	movl	%ecx, -24(%rbp)
	movq	%r8, -48(%rbp)
.LBB41_1:                               # %probeSH
                                        # =>This Inner Loop Header: Depth=1
	movslq	-32(%rbp), %rax
	movq	-16(%rbp), %rcx
	movq	(%rcx), %rdx
	subq	%rax, %rdx
	movq	%rdx, (%rcx)
	cmpq	$0, %rdx
	jge	.LBB41_3
# %bb.2:                                # %if.then
                                        #   in Loop: Header=BB41_1 Depth=1
	movslq	-24(%rbp), %rax
	movq	-16(%rbp), %rcx
	addq	(%rcx), %rax
	movq	%rax, (%rcx)
.LBB41_3:                               # %if.end
                                        #   in Loop: Header=BB41_1 Depth=1
	movq	-16(%rbp), %rax
	movq	(%rax), %rax
	movq	htab(,%rax,8), %rax
	cmpq	-40(%rbp), %rax
	jne	.LBB41_5
# %bb.4:                                # %if.then5
	movq	-16(%rbp), %rax
	movq	(%rax), %rax
	movzwl	codetab(,%rax,2), %eax
	movq	-48(%rbp), %rcx
	movq	%rax, (%rcx)
	movl	$1, -20(%rbp)
	jmp	.LBB41_8
.LBB41_5:                               # %if.end8
                                        #   in Loop: Header=BB41_1 Depth=1
	movq	-16(%rbp), %rax
	movq	(%rax), %rax
	cmpq	$0, htab(,%rax,8)
	jle	.LBB41_7
# %bb.6:                                # %if.then12
                                        #   in Loop: Header=BB41_1 Depth=1
	jmp	.LBB41_1
.LBB41_7:                               # %if.end13
	movl	$0, -20(%rbp)
.LBB41_8:                               # %return
	movl	-20(%rbp), %ebx
	cmpl	$1070534053, -28(%rbp)  # imm = 0x3FCF0DA5
	jne	.LBB41_10
.LBB41_9:
	movl	%ebx, %eax
	addq	$40, %rsp
	popq	%rbx
	popq	%rbp
	.cfi_def_cfa %rsp, 8
	retq
.LBB41_10:                              # %func_exit
	.cfi_def_cfa %rbp, 16
	callq	detect_breach
	jmp	.LBB41_9
.Lfunc_end41:
	.size	scott_hack.26, .Lfunc_end41-scott_hack.26
	.cfi_endproc
                                        # -- End function
	.globl	compress.27             # -- Begin function compress.27
	.p2align	4, 0x90
	.type	compress.27,@function
compress.27:                            # @compress.27
	.cfi_startproc
# %bb.0:                                # %entry
	pushq	%rbp
	.cfi_def_cfa_offset 16
	.cfi_offset %rbp, -16
	movq	%rsp, %rbp
	.cfi_def_cfa_register %rbp
	subq	$64, %rsp
	movl	$897591734, -56(%rbp)   # imm = 0x358029B6
	movq	$0, -8(%rbp)
	cmpl	$0, nomagic
	jne	.LBB42_4
# %bb.1:                                # %if.then
	movzbl	magic_header, %edi
	callq	putchar
	movzbl	magic_header+1, %edi
	callq	putchar
	movl	maxbits, %eax
	orl	block_compress, %eax
	movsbl	%al, %edi
	callq	putchar
	movq	stdout, %rdi
	callq	ferror
	cmpl	$0, %eax
	je	.LBB42_3
# %bb.2:                                # %if.then7
	callq	writeerr
.LBB42_3:                               # %if.end
	jmp	.LBB42_4
.LBB42_4:                               # %if.end8
	movl	$0, offset
	movq	$3, bytes_out
	movq	$0, out_count
	movl	$0, clear_flg
	movq	$0, ratio
	movq	$1, in_count
	movq	$10000, checkpoint      # imm = 0x2710
	movl	$9, n_bits
	movq	$511, maxcode           # imm = 0x1FF
	movl	block_compress, %eax
	cmpl	$0, %eax
	movl	$257, %eax              # imm = 0x101
	movl	$256, %ecx              # imm = 0x100
	cmovnel	%eax, %ecx
	movslq	%ecx, %rax
	movq	%rax, free_ent
	callq	getchar
	cltq
	movq	%rax, -24(%rbp)
	movl	$0, -16(%rbp)
	movq	hsize, %rax
	movq	%rax, -32(%rbp)
.LBB42_5:                               # %for.cond
                                        # =>This Inner Loop Header: Depth=1
	cmpq	$65536, -32(%rbp)       # imm = 0x10000
	jge	.LBB42_8
# %bb.6:                                # %for.body
                                        #   in Loop: Header=BB42_5 Depth=1
	movl	-16(%rbp), %eax
	addl	$1, %eax
	movl	%eax, -16(%rbp)
# %bb.7:                                # %for.inc
                                        #   in Loop: Header=BB42_5 Depth=1
	movq	-32(%rbp), %rax
	shlq	$1, %rax
	movq	%rax, -32(%rbp)
	jmp	.LBB42_5
.LBB42_8:                               # %for.end
	movl	$8, %eax
	subl	-16(%rbp), %eax
	movl	%eax, -16(%rbp)
	movq	hsize, %rax
	movq	%rax, -48(%rbp)
	movq	-48(%rbp), %rdi
	callq	cl_hash
.LBB42_9:                               # %while.cond
                                        # =>This Inner Loop Header: Depth=1
	callq	getchar
	movl	%eax, -36(%rbp)
	cmpl	$-1, %eax
	je	.LBB42_46
# %bb.10:                               # %while.body
                                        #   in Loop: Header=BB42_9 Depth=1
	movq	in_count, %rax
	addq	$1, %rax
	movq	%rax, in_count
	movslq	-36(%rbp), %rax
	movl	maxbits, %ecx
                                        # kill: def $cl killed $rcx
	shlq	%cl, %rax
	addq	-24(%rbp), %rax
	movq	%rax, -32(%rbp)
	movl	-36(%rbp), %eax
	movl	-16(%rbp), %ecx
                                        # kill: def $cl killed $ecx
	shll	%cl, %eax
	cltq
	xorq	-24(%rbp), %rax
	movq	%rax, -8(%rbp)
	movq	-8(%rbp), %rax
	movq	htab(,%rax,8), %rax
	cmpq	-32(%rbp), %rax
	jne	.LBB42_13
# %bb.11:                               # %if.then24
                                        #   in Loop: Header=BB42_9 Depth=1
	movq	-8(%rbp), %rax
	movzwl	codetab(,%rax,2), %eax
	movq	%rax, -24(%rbp)
.LBB42_12:                              # %while.cond.backedge
                                        #   in Loop: Header=BB42_9 Depth=1
	jmp	.LBB42_9
.LBB42_13:                              # %if.else
                                        #   in Loop: Header=BB42_9 Depth=1
	movq	-8(%rbp), %rax
	cmpq	$0, htab(,%rax,8)
	jge	.LBB42_15
# %bb.14:                               # %if.then30
                                        #   in Loop: Header=BB42_9 Depth=1
	jmp	.LBB42_39
.LBB42_15:                              # %if.end31
                                        #   in Loop: Header=BB42_9 Depth=1
	jmp	.LBB42_16
.LBB42_16:                              # %if.end32
                                        #   in Loop: Header=BB42_9 Depth=1
	movq	-48(%rbp), %rax
	subq	-8(%rbp), %rax
	movl	%eax, -12(%rbp)
	cmpq	$0, -8(%rbp)
	jne	.LBB42_18
# %bb.17:                               # %if.then37
                                        #   in Loop: Header=BB42_9 Depth=1
	movl	$1, -12(%rbp)
.LBB42_18:                              # %if.end38
                                        #   in Loop: Header=BB42_9 Depth=1
	movslq	-12(%rbp), %rax
	movq	-8(%rbp), %rcx
	subq	%rax, %rcx
	movq	%rcx, -8(%rbp)
	cmpq	$0, %rcx
	jge	.LBB42_20
# %bb.19:                               # %if.then43
                                        #   in Loop: Header=BB42_9 Depth=1
	movq	-48(%rbp), %rax
	addq	-8(%rbp), %rax
	movq	%rax, -8(%rbp)
.LBB42_20:                              # %if.end45
                                        #   in Loop: Header=BB42_9 Depth=1
	movq	-8(%rbp), %rax
	movq	htab(,%rax,8), %rax
	cmpq	-32(%rbp), %rax
	jne	.LBB42_22
# %bb.21:                               # %if.then49
                                        #   in Loop: Header=BB42_9 Depth=1
	movq	-8(%rbp), %rax
	movzwl	codetab(,%rax,2), %eax
	movq	%rax, -24(%rbp)
	jmp	.LBB42_12
.LBB42_22:                              # %if.end52
                                        #   in Loop: Header=BB42_9 Depth=1
	movq	-8(%rbp), %rax
	cmpq	$0, htab(,%rax,8)
	jg	.LBB42_24
# %bb.23:                               # %if.then56
                                        #   in Loop: Header=BB42_9 Depth=1
	jmp	.LBB42_39
.LBB42_24:                              # %if.end57
                                        #   in Loop: Header=BB42_9 Depth=1
	movslq	-12(%rbp), %rax
	movq	-8(%rbp), %rcx
	subq	%rax, %rcx
	movq	%rcx, -8(%rbp)
	cmpq	$0, %rcx
	jge	.LBB42_26
# %bb.25:                               # %if.then62
                                        #   in Loop: Header=BB42_9 Depth=1
	movq	-48(%rbp), %rax
	addq	-8(%rbp), %rax
	movq	%rax, -8(%rbp)
.LBB42_26:                              # %if.end64
                                        #   in Loop: Header=BB42_9 Depth=1
	movq	-8(%rbp), %rax
	movq	htab(,%rax,8), %rax
	cmpq	-32(%rbp), %rax
	jne	.LBB42_28
# %bb.27:                               # %if.then68
                                        #   in Loop: Header=BB42_9 Depth=1
	movq	-8(%rbp), %rax
	movzwl	codetab(,%rax,2), %eax
	movq	%rax, -24(%rbp)
	jmp	.LBB42_12
.LBB42_28:                              # %if.end71
                                        #   in Loop: Header=BB42_9 Depth=1
	movq	-8(%rbp), %rax
	cmpq	$0, htab(,%rax,8)
	jg	.LBB42_30
# %bb.29:                               # %if.then75
                                        #   in Loop: Header=BB42_9 Depth=1
	jmp	.LBB42_39
.LBB42_30:                              # %if.end76
                                        #   in Loop: Header=BB42_9 Depth=1
	movslq	-12(%rbp), %rax
	movq	-8(%rbp), %rcx
	subq	%rax, %rcx
	movq	%rcx, -8(%rbp)
	cmpq	$0, %rcx
	jge	.LBB42_32
# %bb.31:                               # %if.then81
                                        #   in Loop: Header=BB42_9 Depth=1
	movq	-48(%rbp), %rax
	addq	-8(%rbp), %rax
	movq	%rax, -8(%rbp)
.LBB42_32:                              # %if.end83
                                        #   in Loop: Header=BB42_9 Depth=1
	movq	-8(%rbp), %rax
	movq	htab(,%rax,8), %rax
	cmpq	-32(%rbp), %rax
	jne	.LBB42_34
# %bb.33:                               # %if.then87
                                        #   in Loop: Header=BB42_9 Depth=1
	movq	-8(%rbp), %rax
	movzwl	codetab(,%rax,2), %eax
	movq	%rax, -24(%rbp)
	jmp	.LBB42_12
.LBB42_34:                              # %if.end90
                                        #   in Loop: Header=BB42_9 Depth=1
	movq	-8(%rbp), %rax
	cmpq	$0, htab(,%rax,8)
	jle	.LBB42_38
# %bb.35:                               # %if.then94
                                        #   in Loop: Header=BB42_9 Depth=1
	movl	$0, -52(%rbp)
	movq	-32(%rbp), %rsi
	movl	-12(%rbp), %edx
	movq	-48(%rbp), %rcx
	leaq	-8(%rbp), %rdi
                                        # kill: def $ecx killed $ecx killed $rcx
	leaq	-24(%rbp), %r8
	callq	scott_hack
	movl	%eax, -52(%rbp)
	cmpl	$0, -52(%rbp)
	je	.LBB42_37
# %bb.36:                               # %if.then99
                                        #   in Loop: Header=BB42_9 Depth=1
	jmp	.LBB42_12
.LBB42_37:                              # %if.end100
                                        #   in Loop: Header=BB42_9 Depth=1
	jmp	.LBB42_38
.LBB42_38:                              # %if.end101
                                        #   in Loop: Header=BB42_9 Depth=1
	jmp	.LBB42_39
.LBB42_39:                              # %nomatch
                                        #   in Loop: Header=BB42_9 Depth=1
	movq	-24(%rbp), %rdi
	callq	output
	movq	out_count, %rax
	addq	$1, %rax
	movq	%rax, out_count
	movslq	-36(%rbp), %rax
	movq	%rax, -24(%rbp)
	movq	free_ent, %rax
	cmpq	maxmaxcode, %rax
	jge	.LBB42_41
# %bb.40:                               # %if.then106
                                        #   in Loop: Header=BB42_9 Depth=1
	movq	free_ent, %rax
	movq	%rax, %rcx
	addq	$1, %rcx
	movq	%rcx, free_ent
	movq	-8(%rbp), %rcx
	movw	%ax, codetab(,%rcx,2)
	movq	-32(%rbp), %rax
	movq	-8(%rbp), %rcx
	movq	%rax, htab(,%rcx,8)
	jmp	.LBB42_45
.LBB42_41:                              # %if.else111
                                        #   in Loop: Header=BB42_9 Depth=1
	movq	in_count, %rax
	cmpq	checkpoint, %rax
	jl	.LBB42_44
# %bb.42:                               # %land.lhs.true
                                        #   in Loop: Header=BB42_9 Depth=1
	cmpl	$0, block_compress
	je	.LBB42_44
# %bb.43:                               # %if.then115
                                        #   in Loop: Header=BB42_9 Depth=1
	callq	cl_block
.LBB42_44:                              # %if.end116
                                        #   in Loop: Header=BB42_9 Depth=1
	jmp	.LBB42_45
.LBB42_45:                              # %if.end117
                                        #   in Loop: Header=BB42_9 Depth=1
	jmp	.LBB42_12
.LBB42_46:                              # %while.end
	movq	-24(%rbp), %rdi
	callq	output
	movq	out_count, %rax
	addq	$1, %rax
	movq	%rax, out_count
	movq	$-1, %rdi
	callq	output
	cmpl	$0, zcat_flg
	jne	.LBB42_49
# %bb.47:                               # %land.lhs.true121
	cmpl	$0, quiet
	jne	.LBB42_49
# %bb.48:                               # %if.then123
	movq	stderr, %rdi
	movabsq	$.L.str.19, %rsi
	movb	$0, %al
	callq	fprintf
	movq	stderr, %rdi
	movq	in_count, %rsi
	subq	bytes_out, %rsi
	movq	in_count, %rdx
	callq	prratio
.LBB42_49:                              # %if.end126
	movq	bytes_out, %rax
	cmpq	in_count, %rax
	jle	.LBB42_51
# %bb.50:                               # %if.then129
	movl	$2, exit_stat
.LBB42_51:                              # %if.end130
	cmpl	$897591734, -56(%rbp)   # imm = 0x358029B6
	jne	.LBB42_53
.LBB42_52:
	addq	$64, %rsp
	popq	%rbp
	.cfi_def_cfa %rsp, 8
	retq
.LBB42_53:                              # %func_exit
	.cfi_def_cfa %rbp, 16
	callq	detect_breach
	jmp	.LBB42_52
.Lfunc_end42:
	.size	compress.27, .Lfunc_end42-compress.27
	.cfi_endproc
                                        # -- End function
	.globl	decompress.28           # -- Begin function decompress.28
	.p2align	4, 0x90
	.type	decompress.28,@function
decompress.28:                          # @decompress.28
	.cfi_startproc
# %bb.0:                                # %entry
	pushq	%rbp
	.cfi_def_cfa_offset 16
	.cfi_offset %rbp, -16
	movq	%rsp, %rbp
	.cfi_def_cfa_register %rbp
	subq	$48, %rsp
	movl	$2043166708, -36(%rbp)  # imm = 0x79C83FF4
	movl	$9, n_bits
	movq	$511, maxcode           # imm = 0x1FF
	movq	$255, -8(%rbp)
.LBB43_1:                               # %for.cond
                                        # =>This Inner Loop Header: Depth=1
	cmpq	$0, -8(%rbp)
	jl	.LBB43_4
# %bb.2:                                # %for.body
                                        #   in Loop: Header=BB43_1 Depth=1
	movq	-8(%rbp), %rax
	movw	$0, codetab(,%rax,2)
	movq	-8(%rbp), %rax
	movq	-8(%rbp), %rcx
	movb	%al, htab(,%rcx)
# %bb.3:                                # %for.inc
                                        #   in Loop: Header=BB43_1 Depth=1
	movq	-8(%rbp), %rax
	addq	$-1, %rax
	movq	%rax, -8(%rbp)
	jmp	.LBB43_1
.LBB43_4:                               # %for.end
	movl	block_compress, %eax
	cmpl	$0, %eax
	movl	$257, %eax              # imm = 0x101
	movl	$256, %ecx              # imm = 0x100
	cmovnel	%eax, %ecx
	movslq	%ecx, %rax
	movq	%rax, free_ent
	callq	getcode
	movq	%rax, -32(%rbp)
	movl	%eax, -20(%rbp)
	cmpq	$-1, -32(%rbp)
	jne	.LBB43_6
# %bb.5:                                # %if.then
	jmp	.LBB43_33
.LBB43_6:                               # %if.end
	movl	-20(%rbp), %eax
	movsbl	%al, %edi
	callq	putchar
	movq	stdout, %rdi
	callq	ferror
	cmpl	$0, %eax
	je	.LBB43_8
# %bb.7:                                # %if.then11
	callq	writeerr
.LBB43_8:                               # %if.end12
	movabsq	$htab, %rax
	addq	$65536, %rax            # imm = 0x10000
	movq	%rax, -16(%rbp)
.LBB43_9:                               # %while.cond
                                        # =>This Loop Header: Depth=1
                                        #     Child Loop BB43_13 Depth 2
                                        #     Child Loop BB43_22 Depth 2
                                        #     Child Loop BB43_25 Depth 2
	callq	getcode
	movq	%rax, -8(%rbp)
	cmpq	$-1, %rax
	jle	.LBB43_30
# %bb.10:                               # %while.body
                                        #   in Loop: Header=BB43_9 Depth=1
	cmpq	$256, -8(%rbp)          # imm = 0x100
	jne	.LBB43_19
# %bb.11:                               # %land.lhs.true
                                        #   in Loop: Header=BB43_9 Depth=1
	cmpl	$0, block_compress
	je	.LBB43_19
# %bb.12:                               # %if.then19
                                        #   in Loop: Header=BB43_9 Depth=1
	movq	$255, -8(%rbp)
.LBB43_13:                              # %for.cond20
                                        #   Parent Loop BB43_9 Depth=1
                                        # =>  This Inner Loop Header: Depth=2
	cmpq	$0, -8(%rbp)
	jl	.LBB43_16
# %bb.14:                               # %for.body23
                                        #   in Loop: Header=BB43_13 Depth=2
	movq	-8(%rbp), %rax
	movw	$0, codetab(,%rax,2)
# %bb.15:                               # %for.inc25
                                        #   in Loop: Header=BB43_13 Depth=2
	movq	-8(%rbp), %rax
	addq	$-1, %rax
	movq	%rax, -8(%rbp)
	jmp	.LBB43_13
.LBB43_16:                              # %for.end27
                                        #   in Loop: Header=BB43_9 Depth=1
	movl	$1, clear_flg
	movq	$256, free_ent          # imm = 0x100
	callq	getcode
	movq	%rax, -8(%rbp)
	cmpq	$-1, %rax
	jne	.LBB43_18
# %bb.17:                               # %if.then31
	jmp	.LBB43_31
.LBB43_18:                              # %if.end32
                                        #   in Loop: Header=BB43_9 Depth=1
	jmp	.LBB43_19
.LBB43_19:                              # %if.end33
                                        #   in Loop: Header=BB43_9 Depth=1
	movq	-8(%rbp), %rax
	movq	%rax, -48(%rbp)
	movq	-8(%rbp), %rax
	cmpq	free_ent, %rax
	jl	.LBB43_21
# %bb.20:                               # %if.then36
                                        #   in Loop: Header=BB43_9 Depth=1
	movl	-20(%rbp), %eax
	movq	-16(%rbp), %rcx
	movq	%rcx, %rdx
	addq	$1, %rdx
	movq	%rdx, -16(%rbp)
	movb	%al, (%rcx)
	movq	-32(%rbp), %rax
	movq	%rax, -8(%rbp)
.LBB43_21:                              # %if.end38
                                        #   in Loop: Header=BB43_9 Depth=1
	jmp	.LBB43_22
.LBB43_22:                              # %while.cond39
                                        #   Parent Loop BB43_9 Depth=1
                                        # =>  This Inner Loop Header: Depth=2
	cmpq	$256, -8(%rbp)          # imm = 0x100
	jl	.LBB43_24
# %bb.23:                               # %while.body42
                                        #   in Loop: Header=BB43_22 Depth=2
	movq	-8(%rbp), %rax
	movb	htab(,%rax), %al
	movq	-16(%rbp), %rcx
	movq	%rcx, %rdx
	addq	$1, %rdx
	movq	%rdx, -16(%rbp)
	movb	%al, (%rcx)
	movq	-8(%rbp), %rax
	movzwl	codetab(,%rax,2), %eax
	movq	%rax, -8(%rbp)
	jmp	.LBB43_22
.LBB43_24:                              # %while.end
                                        #   in Loop: Header=BB43_9 Depth=1
	movq	-8(%rbp), %rax
	movzbl	htab(,%rax), %eax
	movl	%eax, -20(%rbp)
	movq	-16(%rbp), %rcx
	movq	%rcx, %rdx
	addq	$1, %rdx
	movq	%rdx, -16(%rbp)
	movb	%al, (%rcx)
.LBB43_25:                              # %do.body
                                        #   Parent Loop BB43_9 Depth=1
                                        # =>  This Inner Loop Header: Depth=2
	movq	-16(%rbp), %rax
	movq	%rax, %rcx
	addq	$-1, %rcx
	movq	%rcx, -16(%rbp)
	movzbl	-1(%rax), %edi
	callq	putchar
# %bb.26:                               # %do.cond
                                        #   in Loop: Header=BB43_25 Depth=2
	movabsq	$htab, %rax
	addq	$65536, %rax            # imm = 0x10000
	cmpq	%rax, -16(%rbp)
	ja	.LBB43_25
# %bb.27:                               # %do.end
                                        #   in Loop: Header=BB43_9 Depth=1
	movq	free_ent, %rax
	movq	%rax, -8(%rbp)
	cmpq	maxmaxcode, %rax
	jge	.LBB43_29
# %bb.28:                               # %if.then58
                                        #   in Loop: Header=BB43_9 Depth=1
	movq	-32(%rbp), %rax
	movq	-8(%rbp), %rcx
	movw	%ax, codetab(,%rcx,2)
	movl	-20(%rbp), %eax
	movq	-8(%rbp), %rcx
	movb	%al, htab(,%rcx)
	movq	-8(%rbp), %rax
	addq	$1, %rax
	movq	%rax, free_ent
.LBB43_29:                              # %if.end63
                                        #   in Loop: Header=BB43_9 Depth=1
	movq	-48(%rbp), %rax
	movq	%rax, -32(%rbp)
	jmp	.LBB43_9
.LBB43_30:                              # %while.end64.loopexit
	jmp	.LBB43_31
.LBB43_31:                              # %while.end64
	movq	stdout, %rdi
	callq	fflush
	movq	stdout, %rdi
	callq	ferror
	cmpl	$0, %eax
	je	.LBB43_33
# %bb.32:                               # %if.then68
	callq	writeerr
.LBB43_33:                              # %if.end69
	cmpl	$2043166708, -36(%rbp)  # imm = 0x79C83FF4
	jne	.LBB43_35
.LBB43_34:
	addq	$48, %rsp
	popq	%rbp
	.cfi_def_cfa %rsp, 8
	retq
.LBB43_35:                              # %func_exit
	.cfi_def_cfa %rbp, 16
	callq	detect_breach
	jmp	.LBB43_34
.Lfunc_end43:
	.size	decompress.28, .Lfunc_end43-decompress.28
	.cfi_endproc
                                        # -- End function
	.globl	prratio.29              # -- Begin function prratio.29
	.p2align	4, 0x90
	.type	prratio.29,@function
prratio.29:                             # @prratio.29
	.cfi_startproc
# %bb.0:                                # %entry
	pushq	%rbp
	.cfi_def_cfa_offset 16
	.cfi_offset %rbp, -16
	movq	%rsp, %rbp
	.cfi_def_cfa_register %rbp
	subq	$48, %rsp
	movl	$1041668970, -20(%rbp)  # imm = 0x3E169B6A
	movq	%rdi, -32(%rbp)
	movq	%rsi, -16(%rbp)
	movq	%rdx, -40(%rbp)
	cmpq	$214748, -16(%rbp)      # imm = 0x346DC
	jle	.LBB44_2
# %bb.1:                                # %if.then
	movq	-16(%rbp), %rcx
	movq	-40(%rbp), %rax
	cqto
	movl	$10000, %esi            # imm = 0x2710
	idivq	%rsi
	movq	%rax, %rsi
	movq	%rcx, %rax
	cqto
	idivq	%rsi
	movl	%eax, -4(%rbp)
	jmp	.LBB44_3
.LBB44_2:                               # %if.else
	imulq	$10000, -16(%rbp), %rax # imm = 0x2710
	cqto
	idivq	-40(%rbp)
	movl	%eax, -4(%rbp)
.LBB44_3:                               # %if.end
	cmpl	$0, -4(%rbp)
	jge	.LBB44_5
# %bb.4:                                # %if.then6
	movq	-32(%rbp), %rsi
	movl	$45, %edi
	callq	_IO_putc
	xorl	%eax, %eax
	subl	-4(%rbp), %eax
	movl	%eax, -4(%rbp)
.LBB44_5:                               # %if.end7
	movq	-32(%rbp), %rdi
	movl	-4(%rbp), %eax
	cltd
	movl	$100, %ecx
	idivl	%ecx
	movl	%eax, %r8d
	movl	-4(%rbp), %eax
	cltd
	idivl	%ecx
	movl	%edx, %ecx
	movabsq	$.L.str.25, %rsi
	movl	%r8d, %edx
	movb	$0, %al
	callq	fprintf
	cmpl	$1041668970, -20(%rbp)  # imm = 0x3E169B6A
	jne	.LBB44_7
.LBB44_6:
	addq	$48, %rsp
	popq	%rbp
	.cfi_def_cfa %rsp, 8
	retq
.LBB44_7:                               # %func_exit
	.cfi_def_cfa %rbp, 16
	callq	detect_breach
	jmp	.LBB44_6
.Lfunc_end44:
	.size	prratio.29, .Lfunc_end44-prratio.29
	.cfi_endproc
                                        # -- End function
	.globl	copystat.30             # -- Begin function copystat.30
	.p2align	4, 0x90
	.type	copystat.30,@function
copystat.30:                            # @copystat.30
	.cfi_startproc
# %bb.0:                                # %entry
	pushq	%rbp
	.cfi_def_cfa_offset 16
	.cfi_offset %rbp, -16
	movq	%rsp, %rbp
	.cfi_def_cfa_register %rbp
	subq	$192, %rsp
	movl	$1097262903, -20(%rbp)  # imm = 0x4166E737
	movq	%rdi, -16(%rbp)
	movq	%rsi, -8(%rbp)
	movq	stdout, %rdi
	callq	fclose
	movq	-16(%rbp), %rdi
	leaq	-184(%rbp), %rsi
	callq	stat
	cmpl	$0, %eax
	je	.LBB45_2
# %bb.1:                                # %if.then
	movq	-16(%rbp), %rdi
	callq	perror
	jmp	.LBB45_26
.LBB45_2:                               # %if.end
	movl	-160(%rbp), %eax
	andl	$61440, %eax            # imm = 0xF000
	cmpl	$32768, %eax            # imm = 0x8000
	je	.LBB45_6
# %bb.3:                                # %if.then2
	cmpl	$0, quiet
	je	.LBB45_5
# %bb.4:                                # %if.then4
	movq	stderr, %rdi
	movq	-16(%rbp), %rdx
	movabsq	$.L.str.16, %rsi
	movb	$0, %al
	callq	fprintf
.LBB45_5:                               # %if.end6
	movq	stderr, %rdi
	movabsq	$.L.str.20, %rsi
	movb	$0, %al
	callq	fprintf
	movl	$1, exit_stat
	jmp	.LBB45_24
.LBB45_6:                               # %if.else
	cmpq	$1, -168(%rbp)
	jbe	.LBB45_10
# %bb.7:                                # %if.then9
	cmpl	$0, quiet
	je	.LBB45_9
# %bb.8:                                # %if.then11
	movq	stderr, %rdi
	movq	-16(%rbp), %rdx
	movabsq	$.L.str.16, %rsi
	movb	$0, %al
	callq	fprintf
.LBB45_9:                               # %if.end13
	movq	stderr, %rdi
	movq	-168(%rbp), %rdx
	subq	$1, %rdx
	movabsq	$.L.str.21, %rsi
	movb	$0, %al
	callq	fprintf
	movl	$1, exit_stat
	jmp	.LBB45_23
.LBB45_10:                              # %if.else16
	cmpl	$2, exit_stat
	jne	.LBB45_15
# %bb.11:                               # %land.lhs.true
	cmpl	$0, force
	jne	.LBB45_15
# %bb.12:                               # %if.then19
	cmpl	$0, quiet
	jne	.LBB45_14
# %bb.13:                               # %if.then21
	movq	stderr, %rdi
	movabsq	$.L.str.22, %rsi
	movb	$0, %al
	callq	fprintf
.LBB45_14:                              # %if.end23
	jmp	.LBB45_22
.LBB45_15:                              # %if.else24
	movl	$0, exit_stat
	movl	-160(%rbp), %eax
	andl	$4095, %eax             # imm = 0xFFF
	movl	%eax, -24(%rbp)
	movq	-8(%rbp), %rdi
	movl	-24(%rbp), %esi
	callq	chmod
	cmpl	$0, %eax
	je	.LBB45_17
# %bb.16:                               # %if.then29
	movq	-8(%rbp), %rdi
	callq	perror
.LBB45_17:                              # %if.end30
	movq	-8(%rbp), %rdi
	movl	-156(%rbp), %esi
	movl	-152(%rbp), %edx
	callq	chown
	movq	-112(%rbp), %rax
	movq	%rax, -40(%rbp)
	movq	-96(%rbp), %rax
	movq	%rax, -32(%rbp)
	movq	-8(%rbp), %rdi
	leaq	-40(%rbp), %rsi
	callq	utime
	movq	-16(%rbp), %rdi
	callq	unlink
	cmpl	$0, %eax
	je	.LBB45_19
# %bb.18:                               # %if.then36
	movq	-16(%rbp), %rdi
	callq	perror
.LBB45_19:                              # %if.end37
	cmpl	$0, quiet
	jne	.LBB45_21
# %bb.20:                               # %if.then39
	movq	stderr, %rdi
	movq	-8(%rbp), %rdx
	movabsq	$.L.str.23, %rsi
	movb	$0, %al
	callq	fprintf
.LBB45_21:                              # %if.end41
	jmp	.LBB45_26
.LBB45_22:                              # %if.end42
	jmp	.LBB45_23
.LBB45_23:                              # %if.end43
	jmp	.LBB45_24
.LBB45_24:                              # %if.end44
	movq	-8(%rbp), %rdi
	callq	unlink
	cmpl	$0, %eax
	je	.LBB45_26
# %bb.25:                               # %if.then47
	movq	-8(%rbp), %rdi
	callq	perror
.LBB45_26:                              # %if.end48
	cmpl	$1097262903, -20(%rbp)  # imm = 0x4166E737
	jne	.LBB45_28
.LBB45_27:
	addq	$192, %rsp
	popq	%rbp
	.cfi_def_cfa %rsp, 8
	retq
.LBB45_28:                              # %func_exit
	.cfi_def_cfa %rbp, 16
	callq	detect_breach
	jmp	.LBB45_27
.Lfunc_end45:
	.size	copystat.30, .Lfunc_end45-copystat.30
	.cfi_endproc
                                        # -- End function
	.globl	output.31               # -- Begin function output.31
	.p2align	4, 0x90
	.type	output.31,@function
output.31:                              # @output.31
	.cfi_startproc
# %bb.0:                                # %entry
	pushq	%rbp
	.cfi_def_cfa_offset 16
	.cfi_offset %rbp, -16
	movq	%rsp, %rbp
	.cfi_def_cfa_register %rbp
	subq	$32, %rsp
	movl	$2007193149, -28(%rbp)  # imm = 0x77A3563D
	movq	%rdi, -24(%rbp)
	movl	offset, %eax
	movl	%eax, -8(%rbp)
	movl	n_bits, %eax
	movl	%eax, -4(%rbp)
	movabsq	$buf, %rax
	movq	%rax, -16(%rbp)
	cmpq	$0, -24(%rbp)
	jl	.LBB46_24
# %bb.1:                                # %if.then
	movl	-8(%rbp), %eax
	sarl	$3, %eax
	movq	-16(%rbp), %rcx
	cltq
	addq	%rax, %rcx
	movq	%rcx, -16(%rbp)
	movl	-8(%rbp), %eax
	andl	$7, %eax
	movl	%eax, -8(%rbp)
	movq	-16(%rbp), %rax
	movsbl	(%rax), %eax
	movslq	-8(%rbp), %rcx
	movzbl	rmask(,%rcx), %ecx
	andl	%ecx, %eax
	cltq
	movq	-24(%rbp), %rdx
	movl	-8(%rbp), %ecx
                                        # kill: def $cl killed $rcx
	shlq	%cl, %rdx
	movslq	-8(%rbp), %rcx
	movzbl	lmask(,%rcx), %ecx
	andq	%rcx, %rdx
	orq	%rdx, %rax
	movq	-16(%rbp), %rcx
	movb	%al, (%rcx)
	movq	-16(%rbp), %rax
	addq	$1, %rax
	movq	%rax, -16(%rbp)
	movl	$8, %eax
	movl	$8, %ecx
	subl	-8(%rbp), %ecx
	movl	-4(%rbp), %edx
	subl	%ecx, %edx
	movl	%edx, -4(%rbp)
	subl	-8(%rbp), %eax
	movq	-24(%rbp), %rdx
	movl	%eax, %ecx
                                        # kill: def $cl killed $rcx
	sarq	%cl, %rdx
	movq	%rdx, -24(%rbp)
	cmpl	$8, -4(%rbp)
	jl	.LBB46_3
# %bb.2:                                # %if.then15
	movq	-24(%rbp), %rax
	movq	-16(%rbp), %rcx
	movq	%rcx, %rdx
	addq	$1, %rdx
	movq	%rdx, -16(%rbp)
	movb	%al, (%rcx)
	movq	-24(%rbp), %rax
	sarq	$8, %rax
	movq	%rax, -24(%rbp)
	movl	-4(%rbp), %eax
	subl	$8, %eax
	movl	%eax, -4(%rbp)
.LBB46_3:                               # %if.end
	cmpl	$0, -4(%rbp)
	je	.LBB46_5
# %bb.4:                                # %if.then20
	movq	-24(%rbp), %rax
	movq	-16(%rbp), %rcx
	movb	%al, (%rcx)
.LBB46_5:                               # %if.end22
	movl	n_bits, %eax
	addl	offset, %eax
	movl	%eax, offset
	movl	offset, %eax
	movl	n_bits, %ecx
	shll	$3, %ecx
	cmpl	%ecx, %eax
	jne	.LBB46_10
# %bb.6:                                # %if.then26
	movabsq	$buf, %rax
	movq	%rax, -16(%rbp)
	movl	n_bits, %eax
	movl	%eax, -4(%rbp)
	movslq	-4(%rbp), %rax
	addq	bytes_out, %rax
	movq	%rax, bytes_out
.LBB46_7:                               # %do.body
                                        # =>This Inner Loop Header: Depth=1
	movq	-16(%rbp), %rax
	movq	%rax, %rcx
	addq	$1, %rcx
	movq	%rcx, -16(%rbp)
	movsbl	(%rax), %edi
	callq	putchar
# %bb.8:                                # %do.cond
                                        #   in Loop: Header=BB46_7 Depth=1
	movl	-4(%rbp), %eax
	addl	$-1, %eax
	movl	%eax, -4(%rbp)
	cmpl	$0, %eax
	jne	.LBB46_7
# %bb.9:                                # %do.end
	movl	$0, offset
.LBB46_10:                              # %if.end32
	movq	free_ent, %rax
	cmpq	maxcode, %rax
	jg	.LBB46_12
# %bb.11:                               # %lor.lhs.false
	cmpl	$0, clear_flg
	jle	.LBB46_23
.LBB46_12:                              # %if.then37
	cmpl	$0, offset
	jle	.LBB46_16
# %bb.13:                               # %if.then40
	movslq	n_bits, %rdx
	movq	stdout, %rcx
	movabsq	$buf, %rdi
	movl	$1, %esi
	callq	fwrite
	movslq	n_bits, %rcx
	cmpq	%rcx, %rax
	je	.LBB46_15
# %bb.14:                               # %if.then46
	callq	writeerr
.LBB46_15:                              # %if.end47
	movslq	n_bits, %rax
	addq	bytes_out, %rax
	movq	%rax, bytes_out
.LBB46_16:                              # %if.end50
	movl	$0, offset
	cmpl	$0, clear_flg
	je	.LBB46_18
# %bb.17:                               # %if.then52
	movl	$9, n_bits
	movq	$511, maxcode           # imm = 0x1FF
	movl	$0, clear_flg
	jmp	.LBB46_22
.LBB46_18:                              # %if.else
	movl	n_bits, %eax
	addl	$1, %eax
	movl	%eax, n_bits
	movl	n_bits, %eax
	cmpl	maxbits, %eax
	jne	.LBB46_20
# %bb.19:                               # %if.then55
	movq	maxmaxcode, %rax
	movq	%rax, maxcode
	jmp	.LBB46_21
.LBB46_20:                              # %if.else56
	movl	n_bits, %ecx
                                        # kill: def $cl killed $ecx
	movl	$1, %eax
	shll	%cl, %eax
	subl	$1, %eax
	cltq
	movq	%rax, maxcode
.LBB46_21:                              # %if.end60
	jmp	.LBB46_22
.LBB46_22:                              # %if.end61
	jmp	.LBB46_23
.LBB46_23:                              # %if.end62
	jmp	.LBB46_29
.LBB46_24:                              # %if.else63
	cmpl	$0, offset
	jle	.LBB46_26
# %bb.25:                               # %if.then66
	movl	offset, %eax
	addl	$7, %eax
	cltd
	movl	$8, %ecx
	idivl	%ecx
	movslq	%eax, %rdx
	movq	stdout, %rcx
	movabsq	$buf, %rdi
	movl	$1, %esi
	callq	fwrite
.LBB46_26:                              # %if.end70
	movl	offset, %eax
	addl	$7, %eax
	cltd
	movl	$8, %ecx
	idivl	%ecx
	cltq
	addq	bytes_out, %rax
	movq	%rax, bytes_out
	movl	$0, offset
	movq	stdout, %rdi
	callq	fflush
	movq	stdout, %rdi
	callq	ferror
	cmpl	$0, %eax
	je	.LBB46_28
# %bb.27:                               # %if.then78
	callq	writeerr
.LBB46_28:                              # %if.end79
	jmp	.LBB46_29
.LBB46_29:                              # %if.end80
	cmpl	$2007193149, -28(%rbp)  # imm = 0x77A3563D
	jne	.LBB46_31
.LBB46_30:
	addq	$32, %rsp
	popq	%rbp
	.cfi_def_cfa %rsp, 8
	retq
.LBB46_31:                              # %func_exit
	.cfi_def_cfa %rbp, 16
	callq	detect_breach
	jmp	.LBB46_30
.Lfunc_end46:
	.size	output.31, .Lfunc_end46-output.31
	.cfi_endproc
                                        # -- End function
	.globl	compress.32             # -- Begin function compress.32
	.p2align	4, 0x90
	.type	compress.32,@function
compress.32:                            # @compress.32
	.cfi_startproc
# %bb.0:                                # %entry
	pushq	%rbp
	.cfi_def_cfa_offset 16
	.cfi_offset %rbp, -16
	movq	%rsp, %rbp
	.cfi_def_cfa_register %rbp
	subq	$64, %rsp
	movl	$1158598087, -56(%rbp)  # imm = 0x450ECDC7
	movq	$0, -8(%rbp)
	cmpl	$0, nomagic
	jne	.LBB47_4
# %bb.1:                                # %if.then
	movzbl	magic_header, %edi
	callq	putchar
	movzbl	magic_header+1, %edi
	callq	putchar
	movl	maxbits, %eax
	orl	block_compress, %eax
	movsbl	%al, %edi
	callq	putchar
	movq	stdout, %rdi
	callq	ferror
	cmpl	$0, %eax
	je	.LBB47_3
# %bb.2:                                # %if.then7
	callq	writeerr
.LBB47_3:                               # %if.end
	jmp	.LBB47_4
.LBB47_4:                               # %if.end8
	movl	$0, offset
	movq	$3, bytes_out
	movq	$0, out_count
	movl	$0, clear_flg
	movq	$0, ratio
	movq	$1, in_count
	movq	$10000, checkpoint      # imm = 0x2710
	movl	$9, n_bits
	movq	$511, maxcode           # imm = 0x1FF
	movl	block_compress, %eax
	cmpl	$0, %eax
	movl	$257, %eax              # imm = 0x101
	movl	$256, %ecx              # imm = 0x100
	cmovnel	%eax, %ecx
	movslq	%ecx, %rax
	movq	%rax, free_ent
	callq	getchar
	cltq
	movq	%rax, -24(%rbp)
	movl	$0, -16(%rbp)
	movq	hsize, %rax
	movq	%rax, -32(%rbp)
.LBB47_5:                               # %for.cond
                                        # =>This Inner Loop Header: Depth=1
	cmpq	$65536, -32(%rbp)       # imm = 0x10000
	jge	.LBB47_8
# %bb.6:                                # %for.body
                                        #   in Loop: Header=BB47_5 Depth=1
	movl	-16(%rbp), %eax
	addl	$1, %eax
	movl	%eax, -16(%rbp)
# %bb.7:                                # %for.inc
                                        #   in Loop: Header=BB47_5 Depth=1
	movq	-32(%rbp), %rax
	shlq	$1, %rax
	movq	%rax, -32(%rbp)
	jmp	.LBB47_5
.LBB47_8:                               # %for.end
	movl	$8, %eax
	subl	-16(%rbp), %eax
	movl	%eax, -16(%rbp)
	movq	hsize, %rax
	movq	%rax, -48(%rbp)
	movq	-48(%rbp), %rdi
	callq	cl_hash
.LBB47_9:                               # %while.cond
                                        # =>This Inner Loop Header: Depth=1
	callq	getchar
	movl	%eax, -36(%rbp)
	cmpl	$-1, %eax
	je	.LBB47_46
# %bb.10:                               # %while.body
                                        #   in Loop: Header=BB47_9 Depth=1
	movq	in_count, %rax
	addq	$1, %rax
	movq	%rax, in_count
	movslq	-36(%rbp), %rax
	movl	maxbits, %ecx
                                        # kill: def $cl killed $rcx
	shlq	%cl, %rax
	addq	-24(%rbp), %rax
	movq	%rax, -32(%rbp)
	movl	-36(%rbp), %eax
	movl	-16(%rbp), %ecx
                                        # kill: def $cl killed $ecx
	shll	%cl, %eax
	cltq
	xorq	-24(%rbp), %rax
	movq	%rax, -8(%rbp)
	movq	-8(%rbp), %rax
	movq	htab(,%rax,8), %rax
	cmpq	-32(%rbp), %rax
	jne	.LBB47_13
# %bb.11:                               # %if.then24
                                        #   in Loop: Header=BB47_9 Depth=1
	movq	-8(%rbp), %rax
	movzwl	codetab(,%rax,2), %eax
	movq	%rax, -24(%rbp)
.LBB47_12:                              # %while.cond.backedge
                                        #   in Loop: Header=BB47_9 Depth=1
	jmp	.LBB47_9
.LBB47_13:                              # %if.else
                                        #   in Loop: Header=BB47_9 Depth=1
	movq	-8(%rbp), %rax
	cmpq	$0, htab(,%rax,8)
	jge	.LBB47_15
# %bb.14:                               # %if.then30
                                        #   in Loop: Header=BB47_9 Depth=1
	jmp	.LBB47_39
.LBB47_15:                              # %if.end31
                                        #   in Loop: Header=BB47_9 Depth=1
	jmp	.LBB47_16
.LBB47_16:                              # %if.end32
                                        #   in Loop: Header=BB47_9 Depth=1
	movq	-48(%rbp), %rax
	subq	-8(%rbp), %rax
	movl	%eax, -12(%rbp)
	cmpq	$0, -8(%rbp)
	jne	.LBB47_18
# %bb.17:                               # %if.then37
                                        #   in Loop: Header=BB47_9 Depth=1
	movl	$1, -12(%rbp)
.LBB47_18:                              # %if.end38
                                        #   in Loop: Header=BB47_9 Depth=1
	movslq	-12(%rbp), %rax
	movq	-8(%rbp), %rcx
	subq	%rax, %rcx
	movq	%rcx, -8(%rbp)
	cmpq	$0, %rcx
	jge	.LBB47_20
# %bb.19:                               # %if.then43
                                        #   in Loop: Header=BB47_9 Depth=1
	movq	-48(%rbp), %rax
	addq	-8(%rbp), %rax
	movq	%rax, -8(%rbp)
.LBB47_20:                              # %if.end45
                                        #   in Loop: Header=BB47_9 Depth=1
	movq	-8(%rbp), %rax
	movq	htab(,%rax,8), %rax
	cmpq	-32(%rbp), %rax
	jne	.LBB47_22
# %bb.21:                               # %if.then49
                                        #   in Loop: Header=BB47_9 Depth=1
	movq	-8(%rbp), %rax
	movzwl	codetab(,%rax,2), %eax
	movq	%rax, -24(%rbp)
	jmp	.LBB47_12
.LBB47_22:                              # %if.end52
                                        #   in Loop: Header=BB47_9 Depth=1
	movq	-8(%rbp), %rax
	cmpq	$0, htab(,%rax,8)
	jg	.LBB47_24
# %bb.23:                               # %if.then56
                                        #   in Loop: Header=BB47_9 Depth=1
	jmp	.LBB47_39
.LBB47_24:                              # %if.end57
                                        #   in Loop: Header=BB47_9 Depth=1
	movslq	-12(%rbp), %rax
	movq	-8(%rbp), %rcx
	subq	%rax, %rcx
	movq	%rcx, -8(%rbp)
	cmpq	$0, %rcx
	jge	.LBB47_26
# %bb.25:                               # %if.then62
                                        #   in Loop: Header=BB47_9 Depth=1
	movq	-48(%rbp), %rax
	addq	-8(%rbp), %rax
	movq	%rax, -8(%rbp)
.LBB47_26:                              # %if.end64
                                        #   in Loop: Header=BB47_9 Depth=1
	movq	-8(%rbp), %rax
	movq	htab(,%rax,8), %rax
	cmpq	-32(%rbp), %rax
	jne	.LBB47_28
# %bb.27:                               # %if.then68
                                        #   in Loop: Header=BB47_9 Depth=1
	movq	-8(%rbp), %rax
	movzwl	codetab(,%rax,2), %eax
	movq	%rax, -24(%rbp)
	jmp	.LBB47_12
.LBB47_28:                              # %if.end71
                                        #   in Loop: Header=BB47_9 Depth=1
	movq	-8(%rbp), %rax
	cmpq	$0, htab(,%rax,8)
	jg	.LBB47_30
# %bb.29:                               # %if.then75
                                        #   in Loop: Header=BB47_9 Depth=1
	jmp	.LBB47_39
.LBB47_30:                              # %if.end76
                                        #   in Loop: Header=BB47_9 Depth=1
	movslq	-12(%rbp), %rax
	movq	-8(%rbp), %rcx
	subq	%rax, %rcx
	movq	%rcx, -8(%rbp)
	cmpq	$0, %rcx
	jge	.LBB47_32
# %bb.31:                               # %if.then81
                                        #   in Loop: Header=BB47_9 Depth=1
	movq	-48(%rbp), %rax
	addq	-8(%rbp), %rax
	movq	%rax, -8(%rbp)
.LBB47_32:                              # %if.end83
                                        #   in Loop: Header=BB47_9 Depth=1
	movq	-8(%rbp), %rax
	movq	htab(,%rax,8), %rax
	cmpq	-32(%rbp), %rax
	jne	.LBB47_34
# %bb.33:                               # %if.then87
                                        #   in Loop: Header=BB47_9 Depth=1
	movq	-8(%rbp), %rax
	movzwl	codetab(,%rax,2), %eax
	movq	%rax, -24(%rbp)
	jmp	.LBB47_12
.LBB47_34:                              # %if.end90
                                        #   in Loop: Header=BB47_9 Depth=1
	movq	-8(%rbp), %rax
	cmpq	$0, htab(,%rax,8)
	jle	.LBB47_38
# %bb.35:                               # %if.then94
                                        #   in Loop: Header=BB47_9 Depth=1
	movl	$0, -52(%rbp)
	movq	-32(%rbp), %rsi
	movl	-12(%rbp), %edx
	movq	-48(%rbp), %rcx
	leaq	-8(%rbp), %rdi
                                        # kill: def $ecx killed $ecx killed $rcx
	leaq	-24(%rbp), %r8
	callq	scott_hack
	movl	%eax, -52(%rbp)
	cmpl	$0, -52(%rbp)
	je	.LBB47_37
# %bb.36:                               # %if.then99
                                        #   in Loop: Header=BB47_9 Depth=1
	jmp	.LBB47_12
.LBB47_37:                              # %if.end100
                                        #   in Loop: Header=BB47_9 Depth=1
	jmp	.LBB47_38
.LBB47_38:                              # %if.end101
                                        #   in Loop: Header=BB47_9 Depth=1
	jmp	.LBB47_39
.LBB47_39:                              # %nomatch
                                        #   in Loop: Header=BB47_9 Depth=1
	movq	-24(%rbp), %rdi
	callq	output
	movq	out_count, %rax
	addq	$1, %rax
	movq	%rax, out_count
	movslq	-36(%rbp), %rax
	movq	%rax, -24(%rbp)
	movq	free_ent, %rax
	cmpq	maxmaxcode, %rax
	jge	.LBB47_41
# %bb.40:                               # %if.then106
                                        #   in Loop: Header=BB47_9 Depth=1
	movq	free_ent, %rax
	movq	%rax, %rcx
	addq	$1, %rcx
	movq	%rcx, free_ent
	movq	-8(%rbp), %rcx
	movw	%ax, codetab(,%rcx,2)
	movq	-32(%rbp), %rax
	movq	-8(%rbp), %rcx
	movq	%rax, htab(,%rcx,8)
	jmp	.LBB47_45
.LBB47_41:                              # %if.else111
                                        #   in Loop: Header=BB47_9 Depth=1
	movq	in_count, %rax
	cmpq	checkpoint, %rax
	jl	.LBB47_44
# %bb.42:                               # %land.lhs.true
                                        #   in Loop: Header=BB47_9 Depth=1
	cmpl	$0, block_compress
	je	.LBB47_44
# %bb.43:                               # %if.then115
                                        #   in Loop: Header=BB47_9 Depth=1
	callq	cl_block
.LBB47_44:                              # %if.end116
                                        #   in Loop: Header=BB47_9 Depth=1
	jmp	.LBB47_45
.LBB47_45:                              # %if.end117
                                        #   in Loop: Header=BB47_9 Depth=1
	jmp	.LBB47_12
.LBB47_46:                              # %while.end
	movq	-24(%rbp), %rdi
	callq	output
	movq	out_count, %rax
	addq	$1, %rax
	movq	%rax, out_count
	movq	$-1, %rdi
	callq	output
	cmpl	$0, zcat_flg
	jne	.LBB47_49
# %bb.47:                               # %land.lhs.true121
	cmpl	$0, quiet
	jne	.LBB47_49
# %bb.48:                               # %if.then123
	movq	stderr, %rdi
	movabsq	$.L.str.19, %rsi
	movb	$0, %al
	callq	fprintf
	movq	stderr, %rdi
	movq	in_count, %rsi
	subq	bytes_out, %rsi
	movq	in_count, %rdx
	callq	prratio
.LBB47_49:                              # %if.end126
	movq	bytes_out, %rax
	cmpq	in_count, %rax
	jle	.LBB47_51
# %bb.50:                               # %if.then129
	movl	$2, exit_stat
.LBB47_51:                              # %if.end130
	cmpl	$1158598087, -56(%rbp)  # imm = 0x450ECDC7
	jne	.LBB47_53
.LBB47_52:
	addq	$64, %rsp
	popq	%rbp
	.cfi_def_cfa %rsp, 8
	retq
.LBB47_53:                              # %func_exit
	.cfi_def_cfa %rbp, 16
	callq	detect_breach
	jmp	.LBB47_52
.Lfunc_end47:
	.size	compress.32, .Lfunc_end47-compress.32
	.cfi_endproc
                                        # -- End function
	.globl	output.33               # -- Begin function output.33
	.p2align	4, 0x90
	.type	output.33,@function
output.33:                              # @output.33
	.cfi_startproc
# %bb.0:                                # %entry
	pushq	%rbp
	.cfi_def_cfa_offset 16
	.cfi_offset %rbp, -16
	movq	%rsp, %rbp
	.cfi_def_cfa_register %rbp
	subq	$32, %rsp
	movl	$1401292844, -28(%rbp)  # imm = 0x5386082C
	movq	%rdi, -24(%rbp)
	movl	offset, %eax
	movl	%eax, -8(%rbp)
	movl	n_bits, %eax
	movl	%eax, -4(%rbp)
	movabsq	$buf, %rax
	movq	%rax, -16(%rbp)
	cmpq	$0, -24(%rbp)
	jl	.LBB48_24
# %bb.1:                                # %if.then
	movl	-8(%rbp), %eax
	sarl	$3, %eax
	movq	-16(%rbp), %rcx
	cltq
	addq	%rax, %rcx
	movq	%rcx, -16(%rbp)
	movl	-8(%rbp), %eax
	andl	$7, %eax
	movl	%eax, -8(%rbp)
	movq	-16(%rbp), %rax
	movsbl	(%rax), %eax
	movslq	-8(%rbp), %rcx
	movzbl	rmask(,%rcx), %ecx
	andl	%ecx, %eax
	cltq
	movq	-24(%rbp), %rdx
	movl	-8(%rbp), %ecx
                                        # kill: def $cl killed $rcx
	shlq	%cl, %rdx
	movslq	-8(%rbp), %rcx
	movzbl	lmask(,%rcx), %ecx
	andq	%rcx, %rdx
	orq	%rdx, %rax
	movq	-16(%rbp), %rcx
	movb	%al, (%rcx)
	movq	-16(%rbp), %rax
	addq	$1, %rax
	movq	%rax, -16(%rbp)
	movl	$8, %eax
	movl	$8, %ecx
	subl	-8(%rbp), %ecx
	movl	-4(%rbp), %edx
	subl	%ecx, %edx
	movl	%edx, -4(%rbp)
	subl	-8(%rbp), %eax
	movq	-24(%rbp), %rdx
	movl	%eax, %ecx
                                        # kill: def $cl killed $rcx
	sarq	%cl, %rdx
	movq	%rdx, -24(%rbp)
	cmpl	$8, -4(%rbp)
	jl	.LBB48_3
# %bb.2:                                # %if.then15
	movq	-24(%rbp), %rax
	movq	-16(%rbp), %rcx
	movq	%rcx, %rdx
	addq	$1, %rdx
	movq	%rdx, -16(%rbp)
	movb	%al, (%rcx)
	movq	-24(%rbp), %rax
	sarq	$8, %rax
	movq	%rax, -24(%rbp)
	movl	-4(%rbp), %eax
	subl	$8, %eax
	movl	%eax, -4(%rbp)
.LBB48_3:                               # %if.end
	cmpl	$0, -4(%rbp)
	je	.LBB48_5
# %bb.4:                                # %if.then20
	movq	-24(%rbp), %rax
	movq	-16(%rbp), %rcx
	movb	%al, (%rcx)
.LBB48_5:                               # %if.end22
	movl	n_bits, %eax
	addl	offset, %eax
	movl	%eax, offset
	movl	offset, %eax
	movl	n_bits, %ecx
	shll	$3, %ecx
	cmpl	%ecx, %eax
	jne	.LBB48_10
# %bb.6:                                # %if.then26
	movabsq	$buf, %rax
	movq	%rax, -16(%rbp)
	movl	n_bits, %eax
	movl	%eax, -4(%rbp)
	movslq	-4(%rbp), %rax
	addq	bytes_out, %rax
	movq	%rax, bytes_out
.LBB48_7:                               # %do.body
                                        # =>This Inner Loop Header: Depth=1
	movq	-16(%rbp), %rax
	movq	%rax, %rcx
	addq	$1, %rcx
	movq	%rcx, -16(%rbp)
	movsbl	(%rax), %edi
	callq	putchar
# %bb.8:                                # %do.cond
                                        #   in Loop: Header=BB48_7 Depth=1
	movl	-4(%rbp), %eax
	addl	$-1, %eax
	movl	%eax, -4(%rbp)
	cmpl	$0, %eax
	jne	.LBB48_7
# %bb.9:                                # %do.end
	movl	$0, offset
.LBB48_10:                              # %if.end32
	movq	free_ent, %rax
	cmpq	maxcode, %rax
	jg	.LBB48_12
# %bb.11:                               # %lor.lhs.false
	cmpl	$0, clear_flg
	jle	.LBB48_23
.LBB48_12:                              # %if.then37
	cmpl	$0, offset
	jle	.LBB48_16
# %bb.13:                               # %if.then40
	movslq	n_bits, %rdx
	movq	stdout, %rcx
	movabsq	$buf, %rdi
	movl	$1, %esi
	callq	fwrite
	movslq	n_bits, %rcx
	cmpq	%rcx, %rax
	je	.LBB48_15
# %bb.14:                               # %if.then46
	callq	writeerr
.LBB48_15:                              # %if.end47
	movslq	n_bits, %rax
	addq	bytes_out, %rax
	movq	%rax, bytes_out
.LBB48_16:                              # %if.end50
	movl	$0, offset
	cmpl	$0, clear_flg
	je	.LBB48_18
# %bb.17:                               # %if.then52
	movl	$9, n_bits
	movq	$511, maxcode           # imm = 0x1FF
	movl	$0, clear_flg
	jmp	.LBB48_22
.LBB48_18:                              # %if.else
	movl	n_bits, %eax
	addl	$1, %eax
	movl	%eax, n_bits
	movl	n_bits, %eax
	cmpl	maxbits, %eax
	jne	.LBB48_20
# %bb.19:                               # %if.then55
	movq	maxmaxcode, %rax
	movq	%rax, maxcode
	jmp	.LBB48_21
.LBB48_20:                              # %if.else56
	movl	n_bits, %ecx
                                        # kill: def $cl killed $ecx
	movl	$1, %eax
	shll	%cl, %eax
	subl	$1, %eax
	cltq
	movq	%rax, maxcode
.LBB48_21:                              # %if.end60
	jmp	.LBB48_22
.LBB48_22:                              # %if.end61
	jmp	.LBB48_23
.LBB48_23:                              # %if.end62
	jmp	.LBB48_29
.LBB48_24:                              # %if.else63
	cmpl	$0, offset
	jle	.LBB48_26
# %bb.25:                               # %if.then66
	movl	offset, %eax
	addl	$7, %eax
	cltd
	movl	$8, %ecx
	idivl	%ecx
	movslq	%eax, %rdx
	movq	stdout, %rcx
	movabsq	$buf, %rdi
	movl	$1, %esi
	callq	fwrite
.LBB48_26:                              # %if.end70
	movl	offset, %eax
	addl	$7, %eax
	cltd
	movl	$8, %ecx
	idivl	%ecx
	cltq
	addq	bytes_out, %rax
	movq	%rax, bytes_out
	movl	$0, offset
	movq	stdout, %rdi
	callq	fflush
	movq	stdout, %rdi
	callq	ferror
	cmpl	$0, %eax
	je	.LBB48_28
# %bb.27:                               # %if.then78
	callq	writeerr
.LBB48_28:                              # %if.end79
	jmp	.LBB48_29
.LBB48_29:                              # %if.end80
	cmpl	$1401292844, -28(%rbp)  # imm = 0x5386082C
	jne	.LBB48_31
.LBB48_30:
	addq	$32, %rsp
	popq	%rbp
	.cfi_def_cfa %rsp, 8
	retq
.LBB48_31:                              # %func_exit
	.cfi_def_cfa %rbp, 16
	callq	detect_breach
	jmp	.LBB48_30
.Lfunc_end48:
	.size	output.33, .Lfunc_end48-output.33
	.cfi_endproc
                                        # -- End function
	.globl	copystat.34             # -- Begin function copystat.34
	.p2align	4, 0x90
	.type	copystat.34,@function
copystat.34:                            # @copystat.34
	.cfi_startproc
# %bb.0:                                # %entry
	pushq	%rbp
	.cfi_def_cfa_offset 16
	.cfi_offset %rbp, -16
	movq	%rsp, %rbp
	.cfi_def_cfa_register %rbp
	subq	$192, %rsp
	movl	$1166631100, -20(%rbp)  # imm = 0x458960BC
	movq	%rdi, -16(%rbp)
	movq	%rsi, -8(%rbp)
	movq	stdout, %rdi
	callq	fclose
	movq	-16(%rbp), %rdi
	leaq	-184(%rbp), %rsi
	callq	stat
	cmpl	$0, %eax
	je	.LBB49_2
# %bb.1:                                # %if.then
	movq	-16(%rbp), %rdi
	callq	perror
	jmp	.LBB49_26
.LBB49_2:                               # %if.end
	movl	-160(%rbp), %eax
	andl	$61440, %eax            # imm = 0xF000
	cmpl	$32768, %eax            # imm = 0x8000
	je	.LBB49_6
# %bb.3:                                # %if.then2
	cmpl	$0, quiet
	je	.LBB49_5
# %bb.4:                                # %if.then4
	movq	stderr, %rdi
	movq	-16(%rbp), %rdx
	movabsq	$.L.str.16, %rsi
	movb	$0, %al
	callq	fprintf
.LBB49_5:                               # %if.end6
	movq	stderr, %rdi
	movabsq	$.L.str.20, %rsi
	movb	$0, %al
	callq	fprintf
	movl	$1, exit_stat
	jmp	.LBB49_24
.LBB49_6:                               # %if.else
	cmpq	$1, -168(%rbp)
	jbe	.LBB49_10
# %bb.7:                                # %if.then9
	cmpl	$0, quiet
	je	.LBB49_9
# %bb.8:                                # %if.then11
	movq	stderr, %rdi
	movq	-16(%rbp), %rdx
	movabsq	$.L.str.16, %rsi
	movb	$0, %al
	callq	fprintf
.LBB49_9:                               # %if.end13
	movq	stderr, %rdi
	movq	-168(%rbp), %rdx
	subq	$1, %rdx
	movabsq	$.L.str.21, %rsi
	movb	$0, %al
	callq	fprintf
	movl	$1, exit_stat
	jmp	.LBB49_23
.LBB49_10:                              # %if.else16
	cmpl	$2, exit_stat
	jne	.LBB49_15
# %bb.11:                               # %land.lhs.true
	cmpl	$0, force
	jne	.LBB49_15
# %bb.12:                               # %if.then19
	cmpl	$0, quiet
	jne	.LBB49_14
# %bb.13:                               # %if.then21
	movq	stderr, %rdi
	movabsq	$.L.str.22, %rsi
	movb	$0, %al
	callq	fprintf
.LBB49_14:                              # %if.end23
	jmp	.LBB49_22
.LBB49_15:                              # %if.else24
	movl	$0, exit_stat
	movl	-160(%rbp), %eax
	andl	$4095, %eax             # imm = 0xFFF
	movl	%eax, -24(%rbp)
	movq	-8(%rbp), %rdi
	movl	-24(%rbp), %esi
	callq	chmod
	cmpl	$0, %eax
	je	.LBB49_17
# %bb.16:                               # %if.then29
	movq	-8(%rbp), %rdi
	callq	perror
.LBB49_17:                              # %if.end30
	movq	-8(%rbp), %rdi
	movl	-156(%rbp), %esi
	movl	-152(%rbp), %edx
	callq	chown
	movq	-112(%rbp), %rax
	movq	%rax, -40(%rbp)
	movq	-96(%rbp), %rax
	movq	%rax, -32(%rbp)
	movq	-8(%rbp), %rdi
	leaq	-40(%rbp), %rsi
	callq	utime
	movq	-16(%rbp), %rdi
	callq	unlink
	cmpl	$0, %eax
	je	.LBB49_19
# %bb.18:                               # %if.then36
	movq	-16(%rbp), %rdi
	callq	perror
.LBB49_19:                              # %if.end37
	cmpl	$0, quiet
	jne	.LBB49_21
# %bb.20:                               # %if.then39
	movq	stderr, %rdi
	movq	-8(%rbp), %rdx
	movabsq	$.L.str.23, %rsi
	movb	$0, %al
	callq	fprintf
.LBB49_21:                              # %if.end41
	jmp	.LBB49_26
.LBB49_22:                              # %if.end42
	jmp	.LBB49_23
.LBB49_23:                              # %if.end43
	jmp	.LBB49_24
.LBB49_24:                              # %if.end44
	movq	-8(%rbp), %rdi
	callq	unlink
	cmpl	$0, %eax
	je	.LBB49_26
# %bb.25:                               # %if.then47
	movq	-8(%rbp), %rdi
	callq	perror
.LBB49_26:                              # %if.end48
	cmpl	$1166631100, -20(%rbp)  # imm = 0x458960BC
	jne	.LBB49_28
.LBB49_27:
	addq	$192, %rsp
	popq	%rbp
	.cfi_def_cfa %rsp, 8
	retq
.LBB49_28:                              # %func_exit
	.cfi_def_cfa %rbp, 16
	callq	detect_breach
	jmp	.LBB49_27
.Lfunc_end49:
	.size	copystat.34, .Lfunc_end49-copystat.34
	.cfi_endproc
                                        # -- End function
	.globl	prratio.35              # -- Begin function prratio.35
	.p2align	4, 0x90
	.type	prratio.35,@function
prratio.35:                             # @prratio.35
	.cfi_startproc
# %bb.0:                                # %entry
	pushq	%rbp
	.cfi_def_cfa_offset 16
	.cfi_offset %rbp, -16
	movq	%rsp, %rbp
	.cfi_def_cfa_register %rbp
	subq	$48, %rsp
	movl	$1954731023, -20(%rbp)  # imm = 0x7482D40F
	movq	%rdi, -40(%rbp)
	movq	%rsi, -16(%rbp)
	movq	%rdx, -32(%rbp)
	cmpq	$214748, -16(%rbp)      # imm = 0x346DC
	jle	.LBB50_2
# %bb.1:                                # %if.then
	movq	-16(%rbp), %rcx
	movq	-32(%rbp), %rax
	cqto
	movl	$10000, %esi            # imm = 0x2710
	idivq	%rsi
	movq	%rax, %rsi
	movq	%rcx, %rax
	cqto
	idivq	%rsi
	movl	%eax, -4(%rbp)
	jmp	.LBB50_3
.LBB50_2:                               # %if.else
	imulq	$10000, -16(%rbp), %rax # imm = 0x2710
	cqto
	idivq	-32(%rbp)
	movl	%eax, -4(%rbp)
.LBB50_3:                               # %if.end
	cmpl	$0, -4(%rbp)
	jge	.LBB50_5
# %bb.4:                                # %if.then6
	movq	-40(%rbp), %rsi
	movl	$45, %edi
	callq	_IO_putc
	xorl	%eax, %eax
	subl	-4(%rbp), %eax
	movl	%eax, -4(%rbp)
.LBB50_5:                               # %if.end7
	movq	-40(%rbp), %rdi
	movl	-4(%rbp), %eax
	cltd
	movl	$100, %ecx
	idivl	%ecx
	movl	%eax, %r8d
	movl	-4(%rbp), %eax
	cltd
	idivl	%ecx
	movl	%edx, %ecx
	movabsq	$.L.str.25, %rsi
	movl	%r8d, %edx
	movb	$0, %al
	callq	fprintf
	cmpl	$1954731023, -20(%rbp)  # imm = 0x7482D40F
	jne	.LBB50_7
.LBB50_6:
	addq	$48, %rsp
	popq	%rbp
	.cfi_def_cfa %rsp, 8
	retq
.LBB50_7:                               # %func_exit
	.cfi_def_cfa %rbp, 16
	callq	detect_breach
	jmp	.LBB50_6
.Lfunc_end50:
	.size	prratio.35, .Lfunc_end50-prratio.35
	.cfi_endproc
                                        # -- End function
	.globl	scott_hack.36           # -- Begin function scott_hack.36
	.p2align	4, 0x90
	.type	scott_hack.36,@function
scott_hack.36:                          # @scott_hack.36
	.cfi_startproc
# %bb.0:                                # %entry
	pushq	%rbp
	.cfi_def_cfa_offset 16
	.cfi_offset %rbp, -16
	movq	%rsp, %rbp
	.cfi_def_cfa_register %rbp
	pushq	%rbx
	subq	$40, %rsp
	.cfi_offset %rbx, -24
	movl	$1194294207, -32(%rbp)  # imm = 0x472F7BBF
	movq	%rdi, -16(%rbp)
	movq	%rsi, -40(%rbp)
	movl	%edx, -24(%rbp)
	movl	%ecx, -28(%rbp)
	movq	%r8, -48(%rbp)
.LBB51_1:                               # %probeSH
                                        # =>This Inner Loop Header: Depth=1
	movslq	-24(%rbp), %rax
	movq	-16(%rbp), %rcx
	movq	(%rcx), %rdx
	subq	%rax, %rdx
	movq	%rdx, (%rcx)
	cmpq	$0, %rdx
	jge	.LBB51_3
# %bb.2:                                # %if.then
                                        #   in Loop: Header=BB51_1 Depth=1
	movslq	-28(%rbp), %rax
	movq	-16(%rbp), %rcx
	addq	(%rcx), %rax
	movq	%rax, (%rcx)
.LBB51_3:                               # %if.end
                                        #   in Loop: Header=BB51_1 Depth=1
	movq	-16(%rbp), %rax
	movq	(%rax), %rax
	movq	htab(,%rax,8), %rax
	cmpq	-40(%rbp), %rax
	jne	.LBB51_5
# %bb.4:                                # %if.then5
	movq	-16(%rbp), %rax
	movq	(%rax), %rax
	movzwl	codetab(,%rax,2), %eax
	movq	-48(%rbp), %rcx
	movq	%rax, (%rcx)
	movl	$1, -20(%rbp)
	jmp	.LBB51_8
.LBB51_5:                               # %if.end8
                                        #   in Loop: Header=BB51_1 Depth=1
	movq	-16(%rbp), %rax
	movq	(%rax), %rax
	cmpq	$0, htab(,%rax,8)
	jle	.LBB51_7
# %bb.6:                                # %if.then12
                                        #   in Loop: Header=BB51_1 Depth=1
	jmp	.LBB51_1
.LBB51_7:                               # %if.end13
	movl	$0, -20(%rbp)
.LBB51_8:                               # %return
	movl	-20(%rbp), %ebx
	cmpl	$1194294207, -32(%rbp)  # imm = 0x472F7BBF
	jne	.LBB51_10
.LBB51_9:
	movl	%ebx, %eax
	addq	$40, %rsp
	popq	%rbx
	popq	%rbp
	.cfi_def_cfa %rsp, 8
	retq
.LBB51_10:                              # %func_exit
	.cfi_def_cfa %rbp, 16
	callq	detect_breach
	jmp	.LBB51_9
.Lfunc_end51:
	.size	scott_hack.36, .Lfunc_end51-scott_hack.36
	.cfi_endproc
                                        # -- End function
	.globl	output.37               # -- Begin function output.37
	.p2align	4, 0x90
	.type	output.37,@function
output.37:                              # @output.37
	.cfi_startproc
# %bb.0:                                # %entry
	pushq	%rbp
	.cfi_def_cfa_offset 16
	.cfi_offset %rbp, -16
	movq	%rsp, %rbp
	.cfi_def_cfa_register %rbp
	subq	$32, %rsp
	movl	$621044861, -28(%rbp)   # imm = 0x2504647D
	movq	%rdi, -24(%rbp)
	movl	offset, %eax
	movl	%eax, -8(%rbp)
	movl	n_bits, %eax
	movl	%eax, -4(%rbp)
	movabsq	$buf, %rax
	movq	%rax, -16(%rbp)
	cmpq	$0, -24(%rbp)
	jl	.LBB52_24
# %bb.1:                                # %if.then
	movl	-8(%rbp), %eax
	sarl	$3, %eax
	movq	-16(%rbp), %rcx
	cltq
	addq	%rax, %rcx
	movq	%rcx, -16(%rbp)
	movl	-8(%rbp), %eax
	andl	$7, %eax
	movl	%eax, -8(%rbp)
	movq	-16(%rbp), %rax
	movsbl	(%rax), %eax
	movslq	-8(%rbp), %rcx
	movzbl	rmask(,%rcx), %ecx
	andl	%ecx, %eax
	cltq
	movq	-24(%rbp), %rdx
	movl	-8(%rbp), %ecx
                                        # kill: def $cl killed $rcx
	shlq	%cl, %rdx
	movslq	-8(%rbp), %rcx
	movzbl	lmask(,%rcx), %ecx
	andq	%rcx, %rdx
	orq	%rdx, %rax
	movq	-16(%rbp), %rcx
	movb	%al, (%rcx)
	movq	-16(%rbp), %rax
	addq	$1, %rax
	movq	%rax, -16(%rbp)
	movl	$8, %eax
	movl	$8, %ecx
	subl	-8(%rbp), %ecx
	movl	-4(%rbp), %edx
	subl	%ecx, %edx
	movl	%edx, -4(%rbp)
	subl	-8(%rbp), %eax
	movq	-24(%rbp), %rdx
	movl	%eax, %ecx
                                        # kill: def $cl killed $rcx
	sarq	%cl, %rdx
	movq	%rdx, -24(%rbp)
	cmpl	$8, -4(%rbp)
	jl	.LBB52_3
# %bb.2:                                # %if.then15
	movq	-24(%rbp), %rax
	movq	-16(%rbp), %rcx
	movq	%rcx, %rdx
	addq	$1, %rdx
	movq	%rdx, -16(%rbp)
	movb	%al, (%rcx)
	movq	-24(%rbp), %rax
	sarq	$8, %rax
	movq	%rax, -24(%rbp)
	movl	-4(%rbp), %eax
	subl	$8, %eax
	movl	%eax, -4(%rbp)
.LBB52_3:                               # %if.end
	cmpl	$0, -4(%rbp)
	je	.LBB52_5
# %bb.4:                                # %if.then20
	movq	-24(%rbp), %rax
	movq	-16(%rbp), %rcx
	movb	%al, (%rcx)
.LBB52_5:                               # %if.end22
	movl	n_bits, %eax
	addl	offset, %eax
	movl	%eax, offset
	movl	offset, %eax
	movl	n_bits, %ecx
	shll	$3, %ecx
	cmpl	%ecx, %eax
	jne	.LBB52_10
# %bb.6:                                # %if.then26
	movabsq	$buf, %rax
	movq	%rax, -16(%rbp)
	movl	n_bits, %eax
	movl	%eax, -4(%rbp)
	movslq	-4(%rbp), %rax
	addq	bytes_out, %rax
	movq	%rax, bytes_out
.LBB52_7:                               # %do.body
                                        # =>This Inner Loop Header: Depth=1
	movq	-16(%rbp), %rax
	movq	%rax, %rcx
	addq	$1, %rcx
	movq	%rcx, -16(%rbp)
	movsbl	(%rax), %edi
	callq	putchar
# %bb.8:                                # %do.cond
                                        #   in Loop: Header=BB52_7 Depth=1
	movl	-4(%rbp), %eax
	addl	$-1, %eax
	movl	%eax, -4(%rbp)
	cmpl	$0, %eax
	jne	.LBB52_7
# %bb.9:                                # %do.end
	movl	$0, offset
.LBB52_10:                              # %if.end32
	movq	free_ent, %rax
	cmpq	maxcode, %rax
	jg	.LBB52_12
# %bb.11:                               # %lor.lhs.false
	cmpl	$0, clear_flg
	jle	.LBB52_23
.LBB52_12:                              # %if.then37
	cmpl	$0, offset
	jle	.LBB52_16
# %bb.13:                               # %if.then40
	movslq	n_bits, %rdx
	movq	stdout, %rcx
	movabsq	$buf, %rdi
	movl	$1, %esi
	callq	fwrite
	movslq	n_bits, %rcx
	cmpq	%rcx, %rax
	je	.LBB52_15
# %bb.14:                               # %if.then46
	callq	writeerr
.LBB52_15:                              # %if.end47
	movslq	n_bits, %rax
	addq	bytes_out, %rax
	movq	%rax, bytes_out
.LBB52_16:                              # %if.end50
	movl	$0, offset
	cmpl	$0, clear_flg
	je	.LBB52_18
# %bb.17:                               # %if.then52
	movl	$9, n_bits
	movq	$511, maxcode           # imm = 0x1FF
	movl	$0, clear_flg
	jmp	.LBB52_22
.LBB52_18:                              # %if.else
	movl	n_bits, %eax
	addl	$1, %eax
	movl	%eax, n_bits
	movl	n_bits, %eax
	cmpl	maxbits, %eax
	jne	.LBB52_20
# %bb.19:                               # %if.then55
	movq	maxmaxcode, %rax
	movq	%rax, maxcode
	jmp	.LBB52_21
.LBB52_20:                              # %if.else56
	movl	n_bits, %ecx
                                        # kill: def $cl killed $ecx
	movl	$1, %eax
	shll	%cl, %eax
	subl	$1, %eax
	cltq
	movq	%rax, maxcode
.LBB52_21:                              # %if.end60
	jmp	.LBB52_22
.LBB52_22:                              # %if.end61
	jmp	.LBB52_23
.LBB52_23:                              # %if.end62
	jmp	.LBB52_29
.LBB52_24:                              # %if.else63
	cmpl	$0, offset
	jle	.LBB52_26
# %bb.25:                               # %if.then66
	movl	offset, %eax
	addl	$7, %eax
	cltd
	movl	$8, %ecx
	idivl	%ecx
	movslq	%eax, %rdx
	movq	stdout, %rcx
	movabsq	$buf, %rdi
	movl	$1, %esi
	callq	fwrite
.LBB52_26:                              # %if.end70
	movl	offset, %eax
	addl	$7, %eax
	cltd
	movl	$8, %ecx
	idivl	%ecx
	cltq
	addq	bytes_out, %rax
	movq	%rax, bytes_out
	movl	$0, offset
	movq	stdout, %rdi
	callq	fflush
	movq	stdout, %rdi
	callq	ferror
	cmpl	$0, %eax
	je	.LBB52_28
# %bb.27:                               # %if.then78
	callq	writeerr
.LBB52_28:                              # %if.end79
	jmp	.LBB52_29
.LBB52_29:                              # %if.end80
	cmpl	$621044861, -28(%rbp)   # imm = 0x2504647D
	jne	.LBB52_31
.LBB52_30:
	addq	$32, %rsp
	popq	%rbp
	.cfi_def_cfa %rsp, 8
	retq
.LBB52_31:                              # %func_exit
	.cfi_def_cfa %rbp, 16
	callq	detect_breach
	jmp	.LBB52_30
.Lfunc_end52:
	.size	output.37, .Lfunc_end52-output.37
	.cfi_endproc
                                        # -- End function
	.globl	scott_hack.38           # -- Begin function scott_hack.38
	.p2align	4, 0x90
	.type	scott_hack.38,@function
scott_hack.38:                          # @scott_hack.38
	.cfi_startproc
# %bb.0:                                # %entry
	pushq	%rbp
	.cfi_def_cfa_offset 16
	.cfi_offset %rbp, -16
	movq	%rsp, %rbp
	.cfi_def_cfa_register %rbp
	pushq	%rbx
	subq	$40, %rsp
	.cfi_offset %rbx, -24
	movl	$1961836449, -24(%rbp)  # imm = 0x74EF3FA1
	movq	%rdi, -16(%rbp)
	movq	%rsi, -40(%rbp)
	movl	%edx, -28(%rbp)
	movl	%ecx, -32(%rbp)
	movq	%r8, -48(%rbp)
.LBB53_1:                               # %probeSH
                                        # =>This Inner Loop Header: Depth=1
	movslq	-28(%rbp), %rax
	movq	-16(%rbp), %rcx
	movq	(%rcx), %rdx
	subq	%rax, %rdx
	movq	%rdx, (%rcx)
	cmpq	$0, %rdx
	jge	.LBB53_3
# %bb.2:                                # %if.then
                                        #   in Loop: Header=BB53_1 Depth=1
	movslq	-32(%rbp), %rax
	movq	-16(%rbp), %rcx
	addq	(%rcx), %rax
	movq	%rax, (%rcx)
.LBB53_3:                               # %if.end
                                        #   in Loop: Header=BB53_1 Depth=1
	movq	-16(%rbp), %rax
	movq	(%rax), %rax
	movq	htab(,%rax,8), %rax
	cmpq	-40(%rbp), %rax
	jne	.LBB53_5
# %bb.4:                                # %if.then5
	movq	-16(%rbp), %rax
	movq	(%rax), %rax
	movzwl	codetab(,%rax,2), %eax
	movq	-48(%rbp), %rcx
	movq	%rax, (%rcx)
	movl	$1, -20(%rbp)
	jmp	.LBB53_8
.LBB53_5:                               # %if.end8
                                        #   in Loop: Header=BB53_1 Depth=1
	movq	-16(%rbp), %rax
	movq	(%rax), %rax
	cmpq	$0, htab(,%rax,8)
	jle	.LBB53_7
# %bb.6:                                # %if.then12
                                        #   in Loop: Header=BB53_1 Depth=1
	jmp	.LBB53_1
.LBB53_7:                               # %if.end13
	movl	$0, -20(%rbp)
.LBB53_8:                               # %return
	movl	-20(%rbp), %ebx
	cmpl	$1961836449, -24(%rbp)  # imm = 0x74EF3FA1
	jne	.LBB53_10
.LBB53_9:
	movl	%ebx, %eax
	addq	$40, %rsp
	popq	%rbx
	popq	%rbp
	.cfi_def_cfa %rsp, 8
	retq
.LBB53_10:                              # %func_exit
	.cfi_def_cfa %rbp, 16
	callq	detect_breach
	jmp	.LBB53_9
.Lfunc_end53:
	.size	scott_hack.38, .Lfunc_end53-scott_hack.38
	.cfi_endproc
                                        # -- End function
	.globl	cl_hash.39              # -- Begin function cl_hash.39
	.p2align	4, 0x90
	.type	cl_hash.39,@function
cl_hash.39:                             # @cl_hash.39
	.cfi_startproc
# %bb.0:                                # %entry
	pushq	%rbp
	.cfi_def_cfa_offset 16
	.cfi_offset %rbp, -16
	movq	%rsp, %rbp
	.cfi_def_cfa_register %rbp
	subq	$48, %rsp
	movl	$150055789, -28(%rbp)   # imm = 0x8F1AB6D
	movq	%rdi, -40(%rbp)
	movq	-40(%rbp), %rax
	shlq	$3, %rax
	movabsq	$htab, %rcx
	addq	%rax, %rcx
	movq	%rcx, -8(%rbp)
	movq	$-1, -16(%rbp)
	movq	-40(%rbp), %rax
	subq	$16, %rax
	movq	%rax, -24(%rbp)
.LBB54_1:                               # %do.body
                                        # =>This Inner Loop Header: Depth=1
	movq	-16(%rbp), %rax
	movq	-8(%rbp), %rcx
	movq	%rax, -128(%rcx)
	movq	-16(%rbp), %rax
	movq	-8(%rbp), %rcx
	movq	%rax, -120(%rcx)
	movq	-16(%rbp), %rax
	movq	-8(%rbp), %rcx
	movq	%rax, -112(%rcx)
	movq	-16(%rbp), %rax
	movq	-8(%rbp), %rcx
	movq	%rax, -104(%rcx)
	movq	-16(%rbp), %rax
	movq	-8(%rbp), %rcx
	movq	%rax, -96(%rcx)
	movq	-16(%rbp), %rax
	movq	-8(%rbp), %rcx
	movq	%rax, -88(%rcx)
	movq	-16(%rbp), %rax
	movq	-8(%rbp), %rcx
	movq	%rax, -80(%rcx)
	movq	-16(%rbp), %rax
	movq	-8(%rbp), %rcx
	movq	%rax, -72(%rcx)
	movq	-16(%rbp), %rax
	movq	-8(%rbp), %rcx
	movq	%rax, -64(%rcx)
	movq	-16(%rbp), %rax
	movq	-8(%rbp), %rcx
	movq	%rax, -56(%rcx)
	movq	-16(%rbp), %rax
	movq	-8(%rbp), %rcx
	movq	%rax, -48(%rcx)
	movq	-16(%rbp), %rax
	movq	-8(%rbp), %rcx
	movq	%rax, -40(%rcx)
	movq	-16(%rbp), %rax
	movq	-8(%rbp), %rcx
	movq	%rax, -32(%rcx)
	movq	-16(%rbp), %rax
	movq	-8(%rbp), %rcx
	movq	%rax, -24(%rcx)
	movq	-16(%rbp), %rax
	movq	-8(%rbp), %rcx
	movq	%rax, -16(%rcx)
	movq	-16(%rbp), %rax
	movq	-8(%rbp), %rcx
	movq	%rax, -8(%rcx)
	movq	-8(%rbp), %rax
	addq	$-128, %rax
	movq	%rax, -8(%rbp)
# %bb.2:                                # %do.cond
                                        #   in Loop: Header=BB54_1 Depth=1
	movq	-24(%rbp), %rax
	subq	$16, %rax
	movq	%rax, -24(%rbp)
	cmpq	$0, %rax
	jge	.LBB54_1
# %bb.3:                                # %do.end
	movq	-24(%rbp), %rax
	addq	$16, %rax
	movq	%rax, -24(%rbp)
.LBB54_4:                               # %for.cond
                                        # =>This Inner Loop Header: Depth=1
	cmpq	$0, -24(%rbp)
	jle	.LBB54_7
# %bb.5:                                # %for.body
                                        #   in Loop: Header=BB54_4 Depth=1
	movq	-16(%rbp), %rax
	movq	-8(%rbp), %rcx
	movq	%rcx, %rdx
	addq	$-8, %rdx
	movq	%rdx, -8(%rbp)
	movq	%rax, -8(%rcx)
# %bb.6:                                # %for.inc
                                        #   in Loop: Header=BB54_4 Depth=1
	movq	-24(%rbp), %rax
	addq	$-1, %rax
	movq	%rax, -24(%rbp)
	jmp	.LBB54_4
.LBB54_7:                               # %for.end
	cmpl	$150055789, -28(%rbp)   # imm = 0x8F1AB6D
	jne	.LBB54_9
.LBB54_8:
	addq	$48, %rsp
	popq	%rbp
	.cfi_def_cfa %rsp, 8
	retq
.LBB54_9:                               # %func_exit
	.cfi_def_cfa %rbp, 16
	callq	detect_breach
	jmp	.LBB54_8
.Lfunc_end54:
	.size	cl_hash.39, .Lfunc_end54-cl_hash.39
	.cfi_endproc
