	.text
	.file	"perf_compress.c"
	.globl	Usage                   # -- Begin function Usage
	.p2align	4, 0x90
	.type	Usage,@function
Usage:                                  # @Usage
	.cfi_startproc
# %bb.0:                                # %entry
	pushq	%rbp
	.cfi_def_cfa_offset 16
	.cfi_offset %rbp, -16
	movq	%rsp, %rbp
	.cfi_def_cfa_register %rbp
	movq	stderr, %rdi
	movabsq	$.L.str, %rsi
	movb	$0, %al
	callq	fprintf
	popq	%rbp
	.cfi_def_cfa %rsp, 8
	retq
.Lfunc_end0:
	.size	Usage, .Lfunc_end0-Usage
	.cfi_endproc
                                        # -- End function
	.globl	main                    # -- Begin function main
	.p2align	4, 0x90
	.type	main,@function
main:                                   # @main
	.cfi_startproc
# %bb.0:                                # %entry
	pushq	%rbp
	.cfi_def_cfa_offset 16
	.cfi_offset %rbp, -16
	movq	%rsp, %rbp
	.cfi_def_cfa_register %rbp
	pushq	%rbx
	subq	$312, %rsp              # imm = 0x138
	.cfi_offset %rbx, -24
	movl	$0, -60(%rbp)
	movl	%edi, -24(%rbp)
	movq	%rsi, -32(%rbp)
	movl	$0, -44(%rbp)
	movl	$2, %edi
	movl	$1, %esi
	callq	signal
	movq	%rax, bgnd_flag
	movl	$1, %ecx
	cmpq	%rcx, %rax
	je	.LBB1_2
# %bb.1:                                # %if.then
	movl	$2, %edi
	movabsq	$onintr, %rsi
	callq	signal
	movl	$11, %edi
	movabsq	$oops, %rsi
	callq	signal
.LBB1_2:                                # %if.end
	movslq	-24(%rbp), %rdi
	shlq	$3, %rdi
	callq	malloc
	movq	%rax, -16(%rbp)
	movq	%rax, -56(%rbp)
	movq	-56(%rbp), %rax
	movq	$0, (%rax)
	movq	-32(%rbp), %rax
	movq	(%rax), %rdi
	movl	$47, %esi
	callq	rindex
	movq	%rax, -40(%rbp)
	cmpq	$0, %rax
	je	.LBB1_4
# %bb.3:                                # %if.then7
	movq	-40(%rbp), %rax
	addq	$1, %rax
	movq	%rax, -40(%rbp)
	jmp	.LBB1_5
.LBB1_4:                                # %if.else
	movq	-32(%rbp), %rax
	movq	(%rax), %rax
	movq	%rax, -40(%rbp)
.LBB1_5:                                # %if.end9
	movq	-40(%rbp), %rdi
	movl	$.L.str.1, %esi
	callq	strcmp
	cmpl	$0, %eax
	jne	.LBB1_7
# %bb.6:                                # %if.then13
	movl	$1, do_decomp
	jmp	.LBB1_10
.LBB1_7:                                # %if.else14
	movq	-40(%rbp), %rdi
	movl	$.L.str.2, %esi
	callq	strcmp
	cmpl	$0, %eax
	jne	.LBB1_9
# %bb.8:                                # %if.then18
	movl	$1, do_decomp
	movl	$1, zcat_flg
.LBB1_9:                                # %if.end19
	jmp	.LBB1_10
.LBB1_10:                               # %if.end20
	movl	-24(%rbp), %eax
	addl	$-1, %eax
	movl	%eax, -24(%rbp)
	movq	-32(%rbp), %rax
	addq	$8, %rax
	movq	%rax, -32(%rbp)
.LBB1_11:                               # %for.cond
                                        # =>This Loop Header: Depth=1
                                        #     Child Loop BB1_14 Depth 2
	cmpl	$0, -24(%rbp)
	jle	.LBB1_37
# %bb.12:                               # %for.body
                                        #   in Loop: Header=BB1_11 Depth=1
	movq	-32(%rbp), %rax
	movq	(%rax), %rax
	movsbl	(%rax), %eax
	cmpl	$45, %eax
	jne	.LBB1_33
# %bb.13:                               # %if.then27
                                        #   in Loop: Header=BB1_11 Depth=1
	jmp	.LBB1_14
.LBB1_14:                               # %while.cond
                                        #   Parent Loop BB1_11 Depth=1
                                        # =>  This Inner Loop Header: Depth=2
	movq	-32(%rbp), %rax
	movq	(%rax), %rcx
	movq	%rcx, %rdx
	addq	$1, %rdx
	movq	%rdx, (%rax)
	cmpb	$0, 1(%rcx)
	je	.LBB1_32
# %bb.15:                               # %while.body
                                        #   in Loop: Header=BB1_14 Depth=2
	movq	-32(%rbp), %rax
	movq	(%rax), %rax
	movsbl	(%rax), %eax
	addl	$-67, %eax
	movl	%eax, %ecx
	subl	$51, %ecx
	ja	.LBB1_30
# %bb.16:                               # %while.body
                                        #   in Loop: Header=BB1_14 Depth=2
	movq	.LJTI1_0(,%rax,8), %rax
	jmpq	*%rax
.LBB1_17:                               # %sw.bb
                                        #   in Loop: Header=BB1_14 Depth=2
	callq	version
	jmp	.LBB1_31
.LBB1_18:                               # %sw.bb30
                                        #   in Loop: Header=BB1_14 Depth=2
	movl	$0, quiet
	jmp	.LBB1_31
.LBB1_19:                               # %sw.bb31
                                        #   in Loop: Header=BB1_14 Depth=2
	movl	$1, do_decomp
	jmp	.LBB1_31
.LBB1_20:                               # %sw.bb32
                                        #   in Loop: Header=BB1_14 Depth=2
	movl	$1, -44(%rbp)
	movl	$1, force
	jmp	.LBB1_31
.LBB1_21:                               # %sw.bb33
                                        #   in Loop: Header=BB1_14 Depth=2
	movl	$1, nomagic
	jmp	.LBB1_31
.LBB1_22:                               # %sw.bb34
                                        #   in Loop: Header=BB1_14 Depth=2
	movl	$0, block_compress
	jmp	.LBB1_31
.LBB1_23:                               # %sw.bb35
                                        #   in Loop: Header=BB1_11 Depth=1
	movq	-32(%rbp), %rax
	movq	(%rax), %rcx
	movq	%rcx, %rdx
	addq	$1, %rdx
	movq	%rdx, (%rax)
	movsbl	1(%rcx), %eax
	cmpl	$0, %eax
	jne	.LBB1_27
# %bb.24:                               # %lor.lhs.false
                                        #   in Loop: Header=BB1_11 Depth=1
	movl	-24(%rbp), %eax
	addl	$-1, %eax
	movl	%eax, -24(%rbp)
	cmpl	$0, %eax
	je	.LBB1_26
# %bb.25:                               # %land.lhs.true
                                        #   in Loop: Header=BB1_11 Depth=1
	movq	-32(%rbp), %rax
	movq	%rax, %rcx
	addq	$8, %rcx
	movq	%rcx, -32(%rbp)
	cmpq	$0, 8(%rax)
	jne	.LBB1_27
.LBB1_26:                               # %if.then43
	movq	stderr, %rdi
	movabsq	$.L.str.3, %rsi
	movb	$0, %al
	callq	fprintf
	callq	Usage
	movl	$1, %edi
	callq	exit
.LBB1_27:                               # %if.end45
                                        #   in Loop: Header=BB1_11 Depth=1
	movq	-32(%rbp), %rax
	movq	(%rax), %rdi
	callq	atoi
	movl	%eax, maxbits
	jmp	.LBB1_35
.LBB1_28:                               # %sw.bb47
                                        #   in Loop: Header=BB1_14 Depth=2
	movl	$1, zcat_flg
	jmp	.LBB1_31
.LBB1_29:                               # %sw.bb48
                                        #   in Loop: Header=BB1_14 Depth=2
	movl	$1, quiet
	jmp	.LBB1_31
.LBB1_30:                               # %sw.default
	movq	stderr, %rdi
	movq	-32(%rbp), %rax
	movq	(%rax), %rax
	movsbl	(%rax), %edx
	movabsq	$.L.str.4, %rsi
	movb	$0, %al
	callq	fprintf
	callq	Usage
	movl	$1, %edi
	callq	exit
.LBB1_31:                               # %sw.epilog
                                        #   in Loop: Header=BB1_14 Depth=2
	jmp	.LBB1_14
.LBB1_32:                               # %while.end
                                        #   in Loop: Header=BB1_11 Depth=1
	jmp	.LBB1_34
.LBB1_33:                               # %if.else51
                                        #   in Loop: Header=BB1_11 Depth=1
	movq	-32(%rbp), %rax
	movq	(%rax), %rax
	movq	-16(%rbp), %rcx
	movq	%rcx, %rdx
	addq	$8, %rdx
	movq	%rdx, -16(%rbp)
	movq	%rax, (%rcx)
	movq	-16(%rbp), %rax
	movq	$0, (%rax)
.LBB1_34:                               # %if.end53
                                        #   in Loop: Header=BB1_11 Depth=1
	jmp	.LBB1_35
.LBB1_35:                               # %nextarg
                                        #   in Loop: Header=BB1_11 Depth=1
	jmp	.LBB1_36
.LBB1_36:                               # %for.inc
                                        #   in Loop: Header=BB1_11 Depth=1
	movl	-24(%rbp), %eax
	addl	$-1, %eax
	movl	%eax, -24(%rbp)
	movq	-32(%rbp), %rax
	addq	$8, %rax
	movq	%rax, -32(%rbp)
	jmp	.LBB1_11
.LBB1_37:                               # %for.end
	cmpl	$9, maxbits
	jge	.LBB1_39
# %bb.38:                               # %if.then58
	movl	$9, maxbits
.LBB1_39:                               # %if.end59
	cmpl	$16, maxbits
	jle	.LBB1_41
# %bb.40:                               # %if.then62
	movl	$16, maxbits
.LBB1_41:                               # %if.end63
	movl	maxbits, %ecx
                                        # kill: def $cl killed $ecx
	movl	$1, %eax
	shll	%cl, %eax
	cltq
	movq	%rax, maxmaxcode
	movq	-56(%rbp), %rax
	cmpq	$0, (%rax)
	je	.LBB1_113
# %bb.42:                               # %if.then67
	movq	-56(%rbp), %rax
	movq	%rax, -16(%rbp)
.LBB1_43:                               # %for.cond68
                                        # =>This Loop Header: Depth=1
                                        #     Child Loop BB1_86 Depth 2
	movq	-16(%rbp), %rax
	cmpq	$0, (%rax)
	je	.LBB1_112
# %bb.44:                               # %for.body70
                                        #   in Loop: Header=BB1_43 Depth=1
	movl	$0, exit_stat
	cmpl	$0, do_decomp
	je	.LBB1_57
# %bb.45:                               # %if.then73
                                        #   in Loop: Header=BB1_43 Depth=1
	movq	-16(%rbp), %rax
	movq	(%rax), %rbx
	movq	-16(%rbp), %rax
	movq	(%rax), %rdi
	callq	strlen
	addq	%rax, %rbx
	addq	$-2, %rbx
	movq	%rbx, %rdi
	movl	$.L.str.5, %esi
	callq	strcmp
	cmpl	$0, %eax
	je	.LBB1_47
# %bb.46:                               # %if.then79
                                        #   in Loop: Header=BB1_43 Depth=1
	leaq	-320(%rbp), %rbx
	movq	-16(%rbp), %rax
	movq	(%rax), %rsi
	movq	%rbx, %rdi
	callq	strcpy
	movq	%rbx, %rdi
	movabsq	$.L.str.5, %rsi
	callq	strcat
	leaq	-320(%rbp), %rax
	movq	-16(%rbp), %rcx
	movq	%rax, (%rcx)
.LBB1_47:                               # %if.end84
                                        #   in Loop: Header=BB1_43 Depth=1
	movq	-16(%rbp), %rax
	movq	(%rax), %rdi
	movq	stdin, %rdx
	movabsq	$.L.str.6, %rsi
	callq	freopen
	cmpq	$0, %rax
	jne	.LBB1_49
# %bb.48:                               # %if.then88
                                        #   in Loop: Header=BB1_43 Depth=1
	movq	-16(%rbp), %rax
	movq	(%rax), %rdi
	callq	perror
	jmp	.LBB1_111
.LBB1_49:                               # %if.end89
                                        #   in Loop: Header=BB1_43 Depth=1
	cmpl	$0, nomagic
	jne	.LBB1_56
# %bb.50:                               # %if.then92
                                        #   in Loop: Header=BB1_43 Depth=1
	callq	getchar
	movzbl	magic_header, %ecx
	andl	$255, %ecx
	cmpl	%ecx, %eax
	jne	.LBB1_52
# %bb.51:                               # %lor.lhs.false97
                                        #   in Loop: Header=BB1_43 Depth=1
	callq	getchar
	movzbl	magic_header+1, %ecx
	andl	$255, %ecx
	cmpl	%ecx, %eax
	je	.LBB1_53
.LBB1_52:                               # %if.then103
                                        #   in Loop: Header=BB1_43 Depth=1
	movq	stderr, %rdi
	movq	-16(%rbp), %rax
	movq	(%rax), %rdx
	movabsq	$.L.str.7, %rsi
	movb	$0, %al
	callq	fprintf
	jmp	.LBB1_111
.LBB1_53:                               # %if.end105
                                        #   in Loop: Header=BB1_43 Depth=1
	callq	getchar
	movl	%eax, maxbits
	movl	maxbits, %eax
	andl	$128, %eax
	movl	%eax, block_compress
	movl	maxbits, %eax
	andl	$31, %eax
	movl	%eax, maxbits
	movl	maxbits, %ecx
                                        # kill: def $cl killed $ecx
	movl	$1, %eax
	shll	%cl, %eax
	cltq
	movq	%rax, maxmaxcode
	cmpl	$16, maxbits
	jle	.LBB1_55
# %bb.54:                               # %if.then113
                                        #   in Loop: Header=BB1_43 Depth=1
	movq	stderr, %rdi
	movq	-16(%rbp), %rax
	movq	(%rax), %rdx
	movl	maxbits, %ecx
	movabsq	$.L.str.8, %rsi
	movl	$16, %r8d
	movb	$0, %al
	callq	fprintf
	jmp	.LBB1_111
.LBB1_55:                               # %if.end115
                                        #   in Loop: Header=BB1_43 Depth=1
	jmp	.LBB1_56
.LBB1_56:                               # %if.end116
                                        #   in Loop: Header=BB1_43 Depth=1
	movq	-16(%rbp), %rax
	movq	(%rax), %rsi
	movl	$ofname, %edi
	callq	strcpy
	movq	-16(%rbp), %rax
	movq	(%rax), %rdi
	callq	strlen
	subq	$2, %rax
	movb	$0, ofname(,%rax)
	jmp	.LBB1_81
.LBB1_57:                               # %if.else120
                                        #   in Loop: Header=BB1_43 Depth=1
	movq	-16(%rbp), %rax
	movq	(%rax), %rbx
	movq	-16(%rbp), %rax
	movq	(%rax), %rdi
	callq	strlen
	addq	%rax, %rbx
	addq	$-2, %rbx
	movq	%rbx, %rdi
	movl	$.L.str.5, %esi
	callq	strcmp
	cmpl	$0, %eax
	jne	.LBB1_59
# %bb.58:                               # %if.then127
                                        #   in Loop: Header=BB1_43 Depth=1
	movq	stderr, %rdi
	movq	-16(%rbp), %rax
	movq	(%rax), %rdx
	movabsq	$.L.str.9, %rsi
	movb	$0, %al
	callq	fprintf
	jmp	.LBB1_111
.LBB1_59:                               # %if.end129
                                        #   in Loop: Header=BB1_43 Depth=1
	movq	-16(%rbp), %rax
	movq	(%rax), %rdi
	movq	stdin, %rdx
	movabsq	$.L.str.6, %rsi
	callq	freopen
	cmpq	$0, %rax
	jne	.LBB1_61
# %bb.60:                               # %if.then133
                                        #   in Loop: Header=BB1_43 Depth=1
	movq	-16(%rbp), %rax
	movq	(%rax), %rdi
	callq	perror
	jmp	.LBB1_111
.LBB1_61:                               # %if.end134
                                        #   in Loop: Header=BB1_43 Depth=1
	movq	-16(%rbp), %rax
	movq	(%rax), %rdi
	leaq	-208(%rbp), %rsi
	callq	stat
	movq	-160(%rbp), %rax
	movq	%rax, fsize
	movq	$69001, hsize           # imm = 0x10D89
	cmpq	$4096, fsize            # imm = 0x1000
	jge	.LBB1_63
# %bb.62:                               # %if.then138
                                        #   in Loop: Header=BB1_43 Depth=1
	movq	$5003, hsize            # imm = 0x138B
	jmp	.LBB1_75
.LBB1_63:                               # %if.else139
                                        #   in Loop: Header=BB1_43 Depth=1
	cmpq	$8192, fsize            # imm = 0x2000
	jge	.LBB1_65
# %bb.64:                               # %if.then142
                                        #   in Loop: Header=BB1_43 Depth=1
	movq	$9001, hsize            # imm = 0x2329
	jmp	.LBB1_74
.LBB1_65:                               # %if.else143
                                        #   in Loop: Header=BB1_43 Depth=1
	cmpq	$16384, fsize           # imm = 0x4000
	jge	.LBB1_67
# %bb.66:                               # %if.then146
                                        #   in Loop: Header=BB1_43 Depth=1
	movq	$18013, hsize           # imm = 0x465D
	jmp	.LBB1_73
.LBB1_67:                               # %if.else147
                                        #   in Loop: Header=BB1_43 Depth=1
	cmpq	$32768, fsize           # imm = 0x8000
	jge	.LBB1_69
# %bb.68:                               # %if.then150
                                        #   in Loop: Header=BB1_43 Depth=1
	movq	$35023, hsize           # imm = 0x88CF
	jmp	.LBB1_72
.LBB1_69:                               # %if.else151
                                        #   in Loop: Header=BB1_43 Depth=1
	cmpq	$47000, fsize           # imm = 0xB798
	jge	.LBB1_71
# %bb.70:                               # %if.then154
                                        #   in Loop: Header=BB1_43 Depth=1
	movq	$50021, hsize           # imm = 0xC365
.LBB1_71:                               # %if.end155
                                        #   in Loop: Header=BB1_43 Depth=1
	jmp	.LBB1_72
.LBB1_72:                               # %if.end156
                                        #   in Loop: Header=BB1_43 Depth=1
	jmp	.LBB1_73
.LBB1_73:                               # %if.end157
                                        #   in Loop: Header=BB1_43 Depth=1
	jmp	.LBB1_74
.LBB1_74:                               # %if.end158
                                        #   in Loop: Header=BB1_43 Depth=1
	jmp	.LBB1_75
.LBB1_75:                               # %if.end159
                                        #   in Loop: Header=BB1_43 Depth=1
	movq	-16(%rbp), %rax
	movq	(%rax), %rsi
	movl	$ofname, %edi
	callq	strcpy
	movabsq	$ofname, %rdi
	movl	$47, %esi
	callq	rindex
	movq	%rax, -40(%rbp)
	cmpq	$0, %rax
	je	.LBB1_77
# %bb.76:                               # %if.then164
                                        #   in Loop: Header=BB1_43 Depth=1
	movq	-40(%rbp), %rax
	addq	$1, %rax
	movq	%rax, -40(%rbp)
	jmp	.LBB1_78
.LBB1_77:                               # %if.else166
                                        #   in Loop: Header=BB1_43 Depth=1
	movabsq	$ofname, %rax
	movq	%rax, -40(%rbp)
.LBB1_78:                               # %if.end167
                                        #   in Loop: Header=BB1_43 Depth=1
	movq	-40(%rbp), %rdi
	callq	strlen
	cmpq	$12, %rax
	jbe	.LBB1_80
# %bb.79:                               # %if.then171
                                        #   in Loop: Header=BB1_43 Depth=1
	movq	stderr, %rdi
	movq	-40(%rbp), %rdx
	movabsq	$.L.str.10, %rsi
	movb	$0, %al
	callq	fprintf
	jmp	.LBB1_111
.LBB1_80:                               # %if.end173
                                        #   in Loop: Header=BB1_43 Depth=1
	movabsq	$ofname, %rdi
	movabsq	$.L.str.5, %rsi
	callq	strcat
.LBB1_81:                               # %if.end175
                                        #   in Loop: Header=BB1_43 Depth=1
	cmpl	$0, -44(%rbp)
	jne	.LBB1_96
# %bb.82:                               # %land.lhs.true178
                                        #   in Loop: Header=BB1_43 Depth=1
	cmpl	$0, zcat_flg
	jne	.LBB1_96
# %bb.83:                               # %if.then181
                                        #   in Loop: Header=BB1_43 Depth=1
	movabsq	$ofname, %rdi
	leaq	-208(%rbp), %rsi
	callq	stat
	cmpl	$0, %eax
	jne	.LBB1_95
# %bb.84:                               # %if.then185
                                        #   in Loop: Header=BB1_43 Depth=1
	movb	$110, -18(%rbp)
	movq	stderr, %rdi
	movabsq	$.L.str.11, %rsi
	movabsq	$ofname, %rdx
	movb	$0, %al
	callq	fprintf
	callq	foreground
	cmpl	$0, %eax
	je	.LBB1_92
# %bb.85:                               # %if.then190
                                        #   in Loop: Header=BB1_43 Depth=1
	movq	stderr, %rdi
	movabsq	$.L.str.12, %rsi
	movabsq	$ofname, %rdx
	movb	$0, %al
	callq	fprintf
	movq	stderr, %rdi
	callq	fflush
	leaq	-18(%rbp), %rsi
	movl	$2, %edi
	movl	$2, %edx
	callq	read
.LBB1_86:                               # %while.cond195
                                        #   Parent Loop BB1_43 Depth=1
                                        # =>  This Inner Loop Header: Depth=2
	movsbl	-17(%rbp), %eax
	cmpl	$10, %eax
	je	.LBB1_90
# %bb.87:                               # %while.body200
                                        #   in Loop: Header=BB1_86 Depth=2
	leaq	-18(%rbp), %rsi
	addq	$1, %rsi
	movl	$2, %edi
	movl	$1, %edx
	callq	read
	cmpq	$0, %rax
	jge	.LBB1_89
# %bb.88:                               # %if.then206
                                        #   in Loop: Header=BB1_43 Depth=1
	movabsq	$.L.str.13, %rdi
	callq	perror
	jmp	.LBB1_91
.LBB1_89:                               # %if.end207
                                        #   in Loop: Header=BB1_86 Depth=2
	jmp	.LBB1_86
.LBB1_90:                               # %while.end208.loopexit
                                        #   in Loop: Header=BB1_43 Depth=1
	jmp	.LBB1_91
.LBB1_91:                               # %while.end208
                                        #   in Loop: Header=BB1_43 Depth=1
	jmp	.LBB1_92
.LBB1_92:                               # %if.end209
                                        #   in Loop: Header=BB1_43 Depth=1
	movsbl	-18(%rbp), %eax
	cmpl	$121, %eax
	je	.LBB1_94
# %bb.93:                               # %if.then214
                                        #   in Loop: Header=BB1_43 Depth=1
	movq	stderr, %rdi
	movabsq	$.L.str.14, %rsi
	movb	$0, %al
	callq	fprintf
	jmp	.LBB1_111
.LBB1_94:                               # %if.end216
                                        #   in Loop: Header=BB1_43 Depth=1
	jmp	.LBB1_95
.LBB1_95:                               # %if.end217
                                        #   in Loop: Header=BB1_43 Depth=1
	jmp	.LBB1_96
.LBB1_96:                               # %if.end218
                                        #   in Loop: Header=BB1_43 Depth=1
	cmpl	$0, zcat_flg
	jne	.LBB1_102
# %bb.97:                               # %if.then221
                                        #   in Loop: Header=BB1_43 Depth=1
	movq	stdout, %rdx
	movabsq	$ofname, %rdi
	movabsq	$.L.str.15, %rsi
	callq	freopen
	cmpq	$0, %rax
	jne	.LBB1_99
# %bb.98:                               # %if.then225
                                        #   in Loop: Header=BB1_43 Depth=1
	movabsq	$ofname, %rdi
	callq	perror
	jmp	.LBB1_111
.LBB1_99:                               # %if.end226
                                        #   in Loop: Header=BB1_43 Depth=1
	cmpl	$0, quiet
	jne	.LBB1_101
# %bb.100:                              # %if.then228
                                        #   in Loop: Header=BB1_43 Depth=1
	movq	stderr, %rdi
	movq	-16(%rbp), %rax
	movq	(%rax), %rdx
	movabsq	$.L.str.16, %rsi
	movb	$0, %al
	callq	fprintf
.LBB1_101:                              # %if.end230
                                        #   in Loop: Header=BB1_43 Depth=1
	jmp	.LBB1_102
.LBB1_102:                              # %if.end231
                                        #   in Loop: Header=BB1_43 Depth=1
	cmpl	$0, do_decomp
	jne	.LBB1_104
# %bb.103:                              # %if.then234
                                        #   in Loop: Header=BB1_43 Depth=1
	callq	compress
	jmp	.LBB1_105
.LBB1_104:                              # %if.else235
                                        #   in Loop: Header=BB1_43 Depth=1
	callq	decompress
.LBB1_105:                              # %if.end236
                                        #   in Loop: Header=BB1_43 Depth=1
	cmpl	$0, zcat_flg
	jne	.LBB1_110
# %bb.106:                              # %if.then239
                                        #   in Loop: Header=BB1_43 Depth=1
	movq	-16(%rbp), %rax
	movq	(%rax), %rdi
	movabsq	$ofname, %rsi
	callq	copystat
	cmpl	$1, exit_stat
	je	.LBB1_108
# %bb.107:                              # %lor.lhs.false242
                                        #   in Loop: Header=BB1_43 Depth=1
	cmpl	$0, quiet
	jne	.LBB1_109
.LBB1_108:                              # %if.then244
                                        #   in Loop: Header=BB1_43 Depth=1
	movq	stderr, %rsi
	movl	$10, %edi
	callq	_IO_putc
.LBB1_109:                              # %if.end246
                                        #   in Loop: Header=BB1_43 Depth=1
	jmp	.LBB1_110
.LBB1_110:                              # %if.end247
                                        #   in Loop: Header=BB1_43 Depth=1
	jmp	.LBB1_111
.LBB1_111:                              # %for.inc248
                                        #   in Loop: Header=BB1_43 Depth=1
	movq	-16(%rbp), %rax
	addq	$8, %rax
	movq	%rax, -16(%rbp)
	jmp	.LBB1_43
.LBB1_112:                              # %for.end250
	jmp	.LBB1_126
.LBB1_113:                              # %if.else251
	cmpl	$0, do_decomp
	jne	.LBB1_117
# %bb.114:                              # %if.then254
	callq	compress
	cmpl	$0, quiet
	jne	.LBB1_116
# %bb.115:                              # %if.then256
	movq	stderr, %rsi
	movl	$10, %edi
	callq	_IO_putc
.LBB1_116:                              # %if.end258
	jmp	.LBB1_125
.LBB1_117:                              # %if.else259
	cmpl	$0, nomagic
	jne	.LBB1_124
# %bb.118:                              # %if.then262
	callq	getchar
	movzbl	magic_header, %ecx
	andl	$255, %ecx
	cmpl	%ecx, %eax
	jne	.LBB1_120
# %bb.119:                              # %lor.lhs.false268
	callq	getchar
	movzbl	magic_header+1, %ecx
	andl	$255, %ecx
	cmpl	%ecx, %eax
	je	.LBB1_121
.LBB1_120:                              # %if.then274
	movq	stderr, %rdi
	movabsq	$.L.str.17, %rsi
	movb	$0, %al
	callq	fprintf
	movl	$1, %edi
	callq	exit
.LBB1_121:                              # %if.end276
	callq	getchar
	movl	%eax, maxbits
	movl	maxbits, %eax
	andl	$128, %eax
	movl	%eax, block_compress
	movl	maxbits, %eax
	andl	$31, %eax
	movl	%eax, maxbits
	movl	maxbits, %ecx
                                        # kill: def $cl killed $ecx
	movl	$1, %eax
	shll	%cl, %eax
	cltq
	movq	%rax, maxmaxcode
	movq	$100000, fsize          # imm = 0x186A0
	cmpl	$16, maxbits
	jle	.LBB1_123
# %bb.122:                              # %if.then284
	movq	stderr, %rdi
	movl	maxbits, %edx
	movabsq	$.L.str.18, %rsi
	movl	$16, %ecx
	movb	$0, %al
	callq	fprintf
	movl	$1, %edi
	callq	exit
.LBB1_123:                              # %if.end286
	jmp	.LBB1_124
.LBB1_124:                              # %if.end287
	callq	decompress
.LBB1_125:                              # %if.end288
	jmp	.LBB1_126
.LBB1_126:                              # %if.end289
	xorl	%eax, %eax
	addq	$312, %rsp              # imm = 0x138
	popq	%rbx
	popq	%rbp
	.cfi_def_cfa %rsp, 8
	retq
.Lfunc_end1:
	.size	main, .Lfunc_end1-main
	.cfi_endproc
	.section	.rodata,"a",@progbits
	.p2align	3
.LJTI1_0:
	.quad	.LBB1_22
	.quad	.LBB1_30
	.quad	.LBB1_30
	.quad	.LBB1_20
	.quad	.LBB1_30
	.quad	.LBB1_30
	.quad	.LBB1_30
	.quad	.LBB1_30
	.quad	.LBB1_30
	.quad	.LBB1_30
	.quad	.LBB1_30
	.quad	.LBB1_30
	.quad	.LBB1_30
	.quad	.LBB1_30
	.quad	.LBB1_30
	.quad	.LBB1_30
	.quad	.LBB1_30
	.quad	.LBB1_30
	.quad	.LBB1_30
	.quad	.LBB1_17
	.quad	.LBB1_30
	.quad	.LBB1_30
	.quad	.LBB1_30
	.quad	.LBB1_30
	.quad	.LBB1_30
	.quad	.LBB1_30
	.quad	.LBB1_30
	.quad	.LBB1_30
	.quad	.LBB1_30
	.quad	.LBB1_30
	.quad	.LBB1_30
	.quad	.LBB1_23
	.quad	.LBB1_28
	.quad	.LBB1_19
	.quad	.LBB1_30
	.quad	.LBB1_20
	.quad	.LBB1_30
	.quad	.LBB1_30
	.quad	.LBB1_30
	.quad	.LBB1_30
	.quad	.LBB1_30
	.quad	.LBB1_30
	.quad	.LBB1_30
	.quad	.LBB1_21
	.quad	.LBB1_30
	.quad	.LBB1_30
	.quad	.LBB1_29
	.quad	.LBB1_30
	.quad	.LBB1_30
	.quad	.LBB1_30
	.quad	.LBB1_30
	.quad	.LBB1_18
                                        # -- End function
	.text
	.globl	onintr                  # -- Begin function onintr
	.p2align	4, 0x90
	.type	onintr,@function
onintr:                                 # @onintr
	.cfi_startproc
# %bb.0:                                # %entry
	pushq	%rbp
	.cfi_def_cfa_offset 16
	.cfi_offset %rbp, -16
	movq	%rsp, %rbp
	.cfi_def_cfa_register %rbp
	subq	$16, %rsp
	movl	%edi, -4(%rbp)
	movabsq	$ofname, %rdi
	callq	unlink
	movl	$1, %edi
	callq	exit
.Lfunc_end2:
	.size	onintr, .Lfunc_end2-onintr
	.cfi_endproc
                                        # -- End function
	.globl	oops                    # -- Begin function oops
	.p2align	4, 0x90
	.type	oops,@function
oops:                                   # @oops
	.cfi_startproc
# %bb.0:                                # %entry
	pushq	%rbp
	.cfi_def_cfa_offset 16
	.cfi_offset %rbp, -16
	movq	%rsp, %rbp
	.cfi_def_cfa_register %rbp
	subq	$16, %rsp
	movl	%edi, -4(%rbp)
	cmpl	$1, do_decomp
	jne	.LBB3_2
# %bb.1:                                # %if.then
	movq	stderr, %rdi
	movabsq	$.L.str.24, %rsi
	movb	$0, %al
	callq	fprintf
.LBB3_2:                                # %if.end
	movabsq	$ofname, %rdi
	callq	unlink
	movl	$1, %edi
	callq	exit
.Lfunc_end3:
	.size	oops, .Lfunc_end3-oops
	.cfi_endproc
                                        # -- End function
	.globl	copystat                # -- Begin function copystat
	.p2align	4, 0x90
	.type	copystat,@function
copystat:                               # @copystat
	.cfi_startproc
# %bb.0:                                # %rand_bb
	pushq	%rbp
	.cfi_def_cfa_offset 16
	.cfi_offset %rbp, -16
	movq	%rsp, %rbp
	.cfi_def_cfa_register %rbp
	pushq	%r14
	pushq	%rbx
	.cfi_offset %rbx, -32
	.cfi_offset %r14, -24
	movq	%rsi, %r14
	movq	%rdi, %rbx
	callq	get_urand
	cmpl	$0, %eax
	jne	.LBB4_9
# %bb.1:                                # %func_copystat.2
	movq	%rbx, %rdi
	movq	%r14, %rsi
	callq	copystat.2
	popq	%rbx
	popq	%r14
	popq	%rbp
	.cfi_def_cfa %rsp, 8
	retq
.LBB4_2:                                # %func_copystat.6
	.cfi_def_cfa %rbp, 16
	movq	%rbx, %rdi
	movq	%r14, %rsi
	callq	copystat.6
	popq	%rbx
	popq	%r14
	popq	%rbp
	.cfi_def_cfa %rsp, 8
	retq
.LBB4_3:                                # %func_copystat.8
	.cfi_def_cfa %rbp, 16
	movq	%rbx, %rdi
	movq	%r14, %rsi
	callq	copystat.8
	popq	%rbx
	popq	%r14
	popq	%rbp
	.cfi_def_cfa %rsp, 8
	retq
.LBB4_4:                                # %func_copystat.10
	.cfi_def_cfa %rbp, 16
	movq	%rbx, %rdi
	movq	%r14, %rsi
	callq	copystat.10
	popq	%rbx
	popq	%r14
	popq	%rbp
	.cfi_def_cfa %rsp, 8
	retq
.LBB4_5:                                # %func_copystat.12
	.cfi_def_cfa %rbp, 16
	movq	%rbx, %rdi
	movq	%r14, %rsi
	callq	copystat.12
	popq	%rbx
	popq	%r14
	popq	%rbp
	.cfi_def_cfa %rsp, 8
	retq
.LBB4_6:                                # %func_copystat.20
	.cfi_def_cfa %rbp, 16
	movq	%rbx, %rdi
	movq	%r14, %rsi
	callq	copystat.20
	popq	%rbx
	popq	%r14
	popq	%rbp
	.cfi_def_cfa %rsp, 8
	retq
.LBB4_7:                                # %func_copystat.25
	.cfi_def_cfa %rbp, 16
	movq	%rbx, %rdi
	movq	%r14, %rsi
	callq	copystat.25
	popq	%rbx
	popq	%r14
	popq	%rbp
	.cfi_def_cfa %rsp, 8
	retq
.LBB4_8:                                # %func_copystat.45
	.cfi_def_cfa %rbp, 16
	movq	%rbx, %rdi
	movq	%r14, %rsi
	callq	copystat.45
	popq	%rbx
	popq	%r14
	popq	%rbp
	.cfi_def_cfa %rsp, 8
	retq
.LBB4_9:                                # %ctrl0
	.cfi_def_cfa %rbp, 16
	cmpl	$1, %eax
	je	.LBB4_2
# %bb.10:                               # %ctrl1
	cmpl	$2, %eax
	je	.LBB4_3
# %bb.11:                               # %ctrl2
	cmpl	$3, %eax
	je	.LBB4_4
# %bb.12:                               # %ctrl3
	cmpl	$4, %eax
	je	.LBB4_5
# %bb.13:                               # %ctrl4
	cmpl	$5, %eax
	je	.LBB4_6
# %bb.14:                               # %ctrl5
	cmpl	$6, %eax
	je	.LBB4_7
	jmp	.LBB4_8
.Lfunc_end4:
	.size	copystat, .Lfunc_end4-copystat
	.cfi_endproc
                                        # -- End function
	.globl	compress                # -- Begin function compress
	.p2align	4, 0x90
	.type	compress,@function
compress:                               # @compress
	.cfi_startproc
# %bb.0:                                # %rand_bb
	pushq	%rbp
	.cfi_def_cfa_offset 16
	.cfi_offset %rbp, -16
	movq	%rsp, %rbp
	.cfi_def_cfa_register %rbp
	callq	get_urand
	cmpl	$0, %eax
	jne	.LBB5_9
# %bb.1:                                # %func_compress.22
	callq	compress.22
	popq	%rbp
	.cfi_def_cfa %rsp, 8
	retq
.LBB5_2:                                # %func_compress.44
	.cfi_def_cfa %rbp, 16
	callq	compress.44
	popq	%rbp
	.cfi_def_cfa %rsp, 8
	retq
.LBB5_3:                                # %func_compress.46
	.cfi_def_cfa %rbp, 16
	callq	compress.46
	popq	%rbp
	.cfi_def_cfa %rsp, 8
	retq
.LBB5_4:                                # %func_compress.48
	.cfi_def_cfa %rbp, 16
	callq	compress.48
	popq	%rbp
	.cfi_def_cfa %rsp, 8
	retq
.LBB5_5:                                # %func_compress.50
	.cfi_def_cfa %rbp, 16
	callq	compress.50
	popq	%rbp
	.cfi_def_cfa %rsp, 8
	retq
.LBB5_6:                                # %func_compress.53
	.cfi_def_cfa %rbp, 16
	callq	compress.53
	popq	%rbp
	.cfi_def_cfa %rsp, 8
	retq
.LBB5_7:                                # %func_compress.55
	.cfi_def_cfa %rbp, 16
	callq	compress.55
	popq	%rbp
	.cfi_def_cfa %rsp, 8
	retq
.LBB5_8:                                # %func_compress.56
	.cfi_def_cfa %rbp, 16
	callq	compress.56
	popq	%rbp
	.cfi_def_cfa %rsp, 8
	retq
.LBB5_9:                                # %ctrl0
	.cfi_def_cfa %rbp, 16
	cmpl	$1, %eax
	je	.LBB5_2
# %bb.10:                               # %ctrl1
	cmpl	$2, %eax
	je	.LBB5_3
# %bb.11:                               # %ctrl2
	cmpl	$3, %eax
	je	.LBB5_4
# %bb.12:                               # %ctrl3
	cmpl	$4, %eax
	je	.LBB5_5
# %bb.13:                               # %ctrl4
	cmpl	$5, %eax
	je	.LBB5_6
# %bb.14:                               # %ctrl5
	cmpl	$6, %eax
	je	.LBB5_7
	jmp	.LBB5_8
.Lfunc_end5:
	.size	compress, .Lfunc_end5-compress
	.cfi_endproc
                                        # -- End function
	.globl	cl_hash                 # -- Begin function cl_hash
	.p2align	4, 0x90
	.type	cl_hash,@function
cl_hash:                                # @cl_hash
	.cfi_startproc
# %bb.0:                                # %rand_bb
	pushq	%rbp
	.cfi_def_cfa_offset 16
	.cfi_offset %rbp, -16
	movq	%rsp, %rbp
	.cfi_def_cfa_register %rbp
	pushq	%rbx
	pushq	%rax
	.cfi_offset %rbx, -24
	movq	%rdi, %rbx
	callq	get_urand
	cmpl	$0, %eax
	jne	.LBB6_9
# %bb.1:                                # %func_cl_hash.4
	movq	%rbx, %rdi
	callq	cl_hash.4
	addq	$8, %rsp
	popq	%rbx
	popq	%rbp
	.cfi_def_cfa %rsp, 8
	retq
.LBB6_2:                                # %func_cl_hash.51
	.cfi_def_cfa %rbp, 16
	movq	%rbx, %rdi
	callq	cl_hash.51
	addq	$8, %rsp
	popq	%rbx
	popq	%rbp
	.cfi_def_cfa %rsp, 8
	retq
.LBB6_3:                                # %func_cl_hash.58
	.cfi_def_cfa %rbp, 16
	movq	%rbx, %rdi
	callq	cl_hash.58
	addq	$8, %rsp
	popq	%rbx
	popq	%rbp
	.cfi_def_cfa %rsp, 8
	retq
.LBB6_4:                                # %func_cl_hash.60
	.cfi_def_cfa %rbp, 16
	movq	%rbx, %rdi
	callq	cl_hash.60
	addq	$8, %rsp
	popq	%rbx
	popq	%rbp
	.cfi_def_cfa %rsp, 8
	retq
.LBB6_5:                                # %func_cl_hash.61
	.cfi_def_cfa %rbp, 16
	movq	%rbx, %rdi
	callq	cl_hash.61
	addq	$8, %rsp
	popq	%rbx
	popq	%rbp
	.cfi_def_cfa %rsp, 8
	retq
.LBB6_6:                                # %func_cl_hash.62
	.cfi_def_cfa %rbp, 16
	movq	%rbx, %rdi
	callq	cl_hash.62
	addq	$8, %rsp
	popq	%rbx
	popq	%rbp
	.cfi_def_cfa %rsp, 8
	retq
.LBB6_7:                                # %func_cl_hash.63
	.cfi_def_cfa %rbp, 16
	movq	%rbx, %rdi
	callq	cl_hash.63
	addq	$8, %rsp
	popq	%rbx
	popq	%rbp
	.cfi_def_cfa %rsp, 8
	retq
.LBB6_8:                                # %func_cl_hash.64
	.cfi_def_cfa %rbp, 16
	movq	%rbx, %rdi
	callq	cl_hash.64
	addq	$8, %rsp
	popq	%rbx
	popq	%rbp
	.cfi_def_cfa %rsp, 8
	retq
.LBB6_9:                                # %ctrl0
	.cfi_def_cfa %rbp, 16
	cmpl	$1, %eax
	je	.LBB6_2
# %bb.10:                               # %ctrl1
	cmpl	$2, %eax
	je	.LBB6_3
# %bb.11:                               # %ctrl2
	cmpl	$3, %eax
	je	.LBB6_4
# %bb.12:                               # %ctrl3
	cmpl	$4, %eax
	je	.LBB6_5
# %bb.13:                               # %ctrl4
	cmpl	$5, %eax
	je	.LBB6_6
# %bb.14:                               # %ctrl5
	cmpl	$6, %eax
	je	.LBB6_7
	jmp	.LBB6_8
.Lfunc_end6:
	.size	cl_hash, .Lfunc_end6-cl_hash
	.cfi_endproc
                                        # -- End function
	.globl	scott_hack              # -- Begin function scott_hack
	.p2align	4, 0x90
	.type	scott_hack,@function
scott_hack:                             # @scott_hack
	.cfi_startproc
# %bb.0:                                # %rand_bb
	pushq	%rbp
	.cfi_def_cfa_offset 16
	.cfi_offset %rbp, -16
	movq	%rsp, %rbp
	.cfi_def_cfa_register %rbp
	pushq	%r15
	pushq	%r14
	pushq	%r13
	pushq	%r12
	pushq	%rbx
	pushq	%rax
	.cfi_offset %rbx, -56
	.cfi_offset %r12, -48
	.cfi_offset %r13, -40
	.cfi_offset %r14, -32
	.cfi_offset %r15, -24
	movq	%r8, %r14
	movl	%ecx, %r15d
	movl	%edx, %r12d
	movq	%rsi, %r13
	movq	%rdi, %rbx
	callq	get_urand
	cmpl	$0, %eax
	jne	.LBB7_9
# %bb.1:                                # %func_scott_hack.13
	movq	%rbx, %rdi
	movq	%r13, %rsi
	movl	%r12d, %edx
	movl	%r15d, %ecx
	movq	%r14, %r8
	callq	scott_hack.13
	addq	$8, %rsp
	popq	%rbx
	popq	%r12
	popq	%r13
	popq	%r14
	popq	%r15
	popq	%rbp
	.cfi_def_cfa %rsp, 8
	retq
.LBB7_2:                                # %func_scott_hack.15
	.cfi_def_cfa %rbp, 16
	movq	%rbx, %rdi
	movq	%r13, %rsi
	movl	%r12d, %edx
	movl	%r15d, %ecx
	movq	%r14, %r8
	callq	scott_hack.15
	addq	$8, %rsp
	popq	%rbx
	popq	%r12
	popq	%r13
	popq	%r14
	popq	%r15
	popq	%rbp
	.cfi_def_cfa %rsp, 8
	retq
.LBB7_3:                                # %func_scott_hack.21
	.cfi_def_cfa %rbp, 16
	movq	%rbx, %rdi
	movq	%r13, %rsi
	movl	%r12d, %edx
	movl	%r15d, %ecx
	movq	%r14, %r8
	callq	scott_hack.21
	addq	$8, %rsp
	popq	%rbx
	popq	%r12
	popq	%r13
	popq	%r14
	popq	%r15
	popq	%rbp
	.cfi_def_cfa %rsp, 8
	retq
.LBB7_4:                                # %func_scott_hack.32
	.cfi_def_cfa %rbp, 16
	movq	%rbx, %rdi
	movq	%r13, %rsi
	movl	%r12d, %edx
	movl	%r15d, %ecx
	movq	%r14, %r8
	callq	scott_hack.32
	addq	$8, %rsp
	popq	%rbx
	popq	%r12
	popq	%r13
	popq	%r14
	popq	%r15
	popq	%rbp
	.cfi_def_cfa %rsp, 8
	retq
.LBB7_5:                                # %func_scott_hack.34
	.cfi_def_cfa %rbp, 16
	movq	%rbx, %rdi
	movq	%r13, %rsi
	movl	%r12d, %edx
	movl	%r15d, %ecx
	movq	%r14, %r8
	callq	scott_hack.34
	addq	$8, %rsp
	popq	%rbx
	popq	%r12
	popq	%r13
	popq	%r14
	popq	%r15
	popq	%rbp
	.cfi_def_cfa %rsp, 8
	retq
.LBB7_6:                                # %func_scott_hack.36
	.cfi_def_cfa %rbp, 16
	movq	%rbx, %rdi
	movq	%r13, %rsi
	movl	%r12d, %edx
	movl	%r15d, %ecx
	movq	%r14, %r8
	callq	scott_hack.36
	addq	$8, %rsp
	popq	%rbx
	popq	%r12
	popq	%r13
	popq	%r14
	popq	%r15
	popq	%rbp
	.cfi_def_cfa %rsp, 8
	retq
.LBB7_7:                                # %func_scott_hack.37
	.cfi_def_cfa %rbp, 16
	movq	%rbx, %rdi
	movq	%r13, %rsi
	movl	%r12d, %edx
	movl	%r15d, %ecx
	movq	%r14, %r8
	callq	scott_hack.37
	addq	$8, %rsp
	popq	%rbx
	popq	%r12
	popq	%r13
	popq	%r14
	popq	%r15
	popq	%rbp
	.cfi_def_cfa %rsp, 8
	retq
.LBB7_8:                                # %func_scott_hack.39
	.cfi_def_cfa %rbp, 16
	movq	%rbx, %rdi
	movq	%r13, %rsi
	movl	%r12d, %edx
	movl	%r15d, %ecx
	movq	%r14, %r8
	callq	scott_hack.39
	addq	$8, %rsp
	popq	%rbx
	popq	%r12
	popq	%r13
	popq	%r14
	popq	%r15
	popq	%rbp
	.cfi_def_cfa %rsp, 8
	retq
.LBB7_9:                                # %ctrl0
	.cfi_def_cfa %rbp, 16
	cmpl	$1, %eax
	je	.LBB7_2
# %bb.10:                               # %ctrl1
	cmpl	$2, %eax
	je	.LBB7_3
# %bb.11:                               # %ctrl2
	cmpl	$3, %eax
	je	.LBB7_4
# %bb.12:                               # %ctrl3
	cmpl	$4, %eax
	je	.LBB7_5
# %bb.13:                               # %ctrl4
	cmpl	$5, %eax
	je	.LBB7_6
# %bb.14:                               # %ctrl5
	cmpl	$6, %eax
	je	.LBB7_7
	jmp	.LBB7_8
.Lfunc_end7:
	.size	scott_hack, .Lfunc_end7-scott_hack
	.cfi_endproc
                                        # -- End function
	.globl	output                  # -- Begin function output
	.p2align	4, 0x90
	.type	output,@function
output:                                 # @output
	.cfi_startproc
# %bb.0:                                # %rand_bb
	pushq	%rbp
	.cfi_def_cfa_offset 16
	.cfi_offset %rbp, -16
	movq	%rsp, %rbp
	.cfi_def_cfa_register %rbp
	pushq	%rbx
	pushq	%rax
	.cfi_offset %rbx, -24
	movq	%rdi, %rbx
	callq	get_urand
	cmpl	$0, %eax
	jne	.LBB8_9
# %bb.1:                                # %func_output.5
	movq	%rbx, %rdi
	callq	output.5
	addq	$8, %rsp
	popq	%rbx
	popq	%rbp
	.cfi_def_cfa %rsp, 8
	retq
.LBB8_2:                                # %func_output.11
	.cfi_def_cfa %rbp, 16
	movq	%rbx, %rdi
	callq	output.11
	addq	$8, %rsp
	popq	%rbx
	popq	%rbp
	.cfi_def_cfa %rsp, 8
	retq
.LBB8_3:                                # %func_output.16
	.cfi_def_cfa %rbp, 16
	movq	%rbx, %rdi
	callq	output.16
	addq	$8, %rsp
	popq	%rbx
	popq	%rbp
	.cfi_def_cfa %rsp, 8
	retq
.LBB8_4:                                # %func_output.17
	.cfi_def_cfa %rbp, 16
	movq	%rbx, %rdi
	callq	output.17
	addq	$8, %rsp
	popq	%rbx
	popq	%rbp
	.cfi_def_cfa %rsp, 8
	retq
.LBB8_5:                                # %func_output.18
	.cfi_def_cfa %rbp, 16
	movq	%rbx, %rdi
	callq	output.18
	addq	$8, %rsp
	popq	%rbx
	popq	%rbp
	.cfi_def_cfa %rsp, 8
	retq
.LBB8_6:                                # %func_output.19
	.cfi_def_cfa %rbp, 16
	movq	%rbx, %rdi
	callq	output.19
	addq	$8, %rsp
	popq	%rbx
	popq	%rbp
	.cfi_def_cfa %rsp, 8
	retq
.LBB8_7:                                # %func_output.29
	.cfi_def_cfa %rbp, 16
	movq	%rbx, %rdi
	callq	output.29
	addq	$8, %rsp
	popq	%rbx
	popq	%rbp
	.cfi_def_cfa %rsp, 8
	retq
.LBB8_8:                                # %func_output.38
	.cfi_def_cfa %rbp, 16
	movq	%rbx, %rdi
	callq	output.38
	addq	$8, %rsp
	popq	%rbx
	popq	%rbp
	.cfi_def_cfa %rsp, 8
	retq
.LBB8_9:                                # %ctrl0
	.cfi_def_cfa %rbp, 16
	cmpl	$1, %eax
	je	.LBB8_2
# %bb.10:                               # %ctrl1
	cmpl	$2, %eax
	je	.LBB8_3
# %bb.11:                               # %ctrl2
	cmpl	$3, %eax
	je	.LBB8_4
# %bb.12:                               # %ctrl3
	cmpl	$4, %eax
	je	.LBB8_5
# %bb.13:                               # %ctrl4
	cmpl	$5, %eax
	je	.LBB8_6
# %bb.14:                               # %ctrl5
	cmpl	$6, %eax
	je	.LBB8_7
	jmp	.LBB8_8
.Lfunc_end8:
	.size	output, .Lfunc_end8-output
	.cfi_endproc
                                        # -- End function
	.globl	prratio                 # -- Begin function prratio
	.p2align	4, 0x90
	.type	prratio,@function
prratio:                                # @prratio
	.cfi_startproc
# %bb.0:                                # %rand_bb
	pushq	%rbp
	.cfi_def_cfa_offset 16
	.cfi_offset %rbp, -16
	movq	%rsp, %rbp
	.cfi_def_cfa_register %rbp
	pushq	%r15
	pushq	%r14
	pushq	%rbx
	pushq	%rax
	.cfi_offset %rbx, -40
	.cfi_offset %r14, -32
	.cfi_offset %r15, -24
	movq	%rdx, %r14
	movq	%rsi, %r15
	movq	%rdi, %rbx
	callq	get_urand
	cmpl	$0, %eax
	jne	.LBB9_9
# %bb.1:                                # %func_prratio.3
	movq	%rbx, %rdi
	movq	%r15, %rsi
	movq	%r14, %rdx
	callq	prratio.3
	addq	$8, %rsp
	popq	%rbx
	popq	%r14
	popq	%r15
	popq	%rbp
	.cfi_def_cfa %rsp, 8
	retq
.LBB9_2:                                # %func_prratio.23
	.cfi_def_cfa %rbp, 16
	movq	%rbx, %rdi
	movq	%r15, %rsi
	movq	%r14, %rdx
	callq	prratio.23
	addq	$8, %rsp
	popq	%rbx
	popq	%r14
	popq	%r15
	popq	%rbp
	.cfi_def_cfa %rsp, 8
	retq
.LBB9_3:                                # %func_prratio.24
	.cfi_def_cfa %rbp, 16
	movq	%rbx, %rdi
	movq	%r15, %rsi
	movq	%r14, %rdx
	callq	prratio.24
	addq	$8, %rsp
	popq	%rbx
	popq	%r14
	popq	%r15
	popq	%rbp
	.cfi_def_cfa %rsp, 8
	retq
.LBB9_4:                                # %func_prratio.35
	.cfi_def_cfa %rbp, 16
	movq	%rbx, %rdi
	movq	%r15, %rsi
	movq	%r14, %rdx
	callq	prratio.35
	addq	$8, %rsp
	popq	%rbx
	popq	%r14
	popq	%r15
	popq	%rbp
	.cfi_def_cfa %rsp, 8
	retq
.LBB9_5:                                # %func_prratio.42
	.cfi_def_cfa %rbp, 16
	movq	%rbx, %rdi
	movq	%r15, %rsi
	movq	%r14, %rdx
	callq	prratio.42
	addq	$8, %rsp
	popq	%rbx
	popq	%r14
	popq	%r15
	popq	%rbp
	.cfi_def_cfa %rsp, 8
	retq
.LBB9_6:                                # %func_prratio.54
	.cfi_def_cfa %rbp, 16
	movq	%rbx, %rdi
	movq	%r15, %rsi
	movq	%r14, %rdx
	callq	prratio.54
	addq	$8, %rsp
	popq	%rbx
	popq	%r14
	popq	%r15
	popq	%rbp
	.cfi_def_cfa %rsp, 8
	retq
.LBB9_7:                                # %func_prratio.57
	.cfi_def_cfa %rbp, 16
	movq	%rbx, %rdi
	movq	%r15, %rsi
	movq	%r14, %rdx
	callq	prratio.57
	addq	$8, %rsp
	popq	%rbx
	popq	%r14
	popq	%r15
	popq	%rbp
	.cfi_def_cfa %rsp, 8
	retq
.LBB9_8:                                # %func_prratio.59
	.cfi_def_cfa %rbp, 16
	movq	%rbx, %rdi
	movq	%r15, %rsi
	movq	%r14, %rdx
	callq	prratio.59
	addq	$8, %rsp
	popq	%rbx
	popq	%r14
	popq	%r15
	popq	%rbp
	.cfi_def_cfa %rsp, 8
	retq
.LBB9_9:                                # %ctrl0
	.cfi_def_cfa %rbp, 16
	cmpl	$1, %eax
	je	.LBB9_2
# %bb.10:                               # %ctrl1
	cmpl	$2, %eax
	je	.LBB9_3
# %bb.11:                               # %ctrl2
	cmpl	$3, %eax
	je	.LBB9_4
# %bb.12:                               # %ctrl3
	cmpl	$4, %eax
	je	.LBB9_5
# %bb.13:                               # %ctrl4
	cmpl	$5, %eax
	je	.LBB9_6
# %bb.14:                               # %ctrl5
	cmpl	$6, %eax
	je	.LBB9_7
	jmp	.LBB9_8
.Lfunc_end9:
	.size	prratio, .Lfunc_end9-prratio
	.cfi_endproc
                                        # -- End function
	.globl	decompress              # -- Begin function decompress
	.p2align	4, 0x90
	.type	decompress,@function
decompress:                             # @decompress
	.cfi_startproc
# %bb.0:                                # %rand_bb
	pushq	%rbp
	.cfi_def_cfa_offset 16
	.cfi_offset %rbp, -16
	movq	%rsp, %rbp
	.cfi_def_cfa_register %rbp
	callq	get_urand
	cmpl	$0, %eax
	jne	.LBB10_9
# %bb.1:                                # %func_decompress.14
	callq	decompress.14
	popq	%rbp
	.cfi_def_cfa %rsp, 8
	retq
.LBB10_2:                               # %func_decompress.26
	.cfi_def_cfa %rbp, 16
	callq	decompress.26
	popq	%rbp
	.cfi_def_cfa %rsp, 8
	retq
.LBB10_3:                               # %func_decompress.27
	.cfi_def_cfa %rbp, 16
	callq	decompress.27
	popq	%rbp
	.cfi_def_cfa %rsp, 8
	retq
.LBB10_4:                               # %func_decompress.28
	.cfi_def_cfa %rbp, 16
	callq	decompress.28
	popq	%rbp
	.cfi_def_cfa %rsp, 8
	retq
.LBB10_5:                               # %func_decompress.31
	.cfi_def_cfa %rbp, 16
	callq	decompress.31
	popq	%rbp
	.cfi_def_cfa %rsp, 8
	retq
.LBB10_6:                               # %func_decompress.43
	.cfi_def_cfa %rbp, 16
	callq	decompress.43
	popq	%rbp
	.cfi_def_cfa %rsp, 8
	retq
.LBB10_7:                               # %func_decompress.47
	.cfi_def_cfa %rbp, 16
	callq	decompress.47
	popq	%rbp
	.cfi_def_cfa %rsp, 8
	retq
.LBB10_8:                               # %func_decompress.49
	.cfi_def_cfa %rbp, 16
	callq	decompress.49
	popq	%rbp
	.cfi_def_cfa %rsp, 8
	retq
.LBB10_9:                               # %ctrl0
	.cfi_def_cfa %rbp, 16
	cmpl	$1, %eax
	je	.LBB10_2
# %bb.10:                               # %ctrl1
	cmpl	$2, %eax
	je	.LBB10_3
# %bb.11:                               # %ctrl2
	cmpl	$3, %eax
	je	.LBB10_4
# %bb.12:                               # %ctrl3
	cmpl	$4, %eax
	je	.LBB10_5
# %bb.13:                               # %ctrl4
	cmpl	$5, %eax
	je	.LBB10_6
# %bb.14:                               # %ctrl5
	cmpl	$6, %eax
	je	.LBB10_7
	jmp	.LBB10_8
.Lfunc_end10:
	.size	decompress, .Lfunc_end10-decompress
	.cfi_endproc
                                        # -- End function
	.globl	getcode                 # -- Begin function getcode
	.p2align	4, 0x90
	.type	getcode,@function
getcode:                                # @getcode
	.cfi_startproc
# %bb.0:                                # %rand_bb
	pushq	%rbp
	.cfi_def_cfa_offset 16
	.cfi_offset %rbp, -16
	movq	%rsp, %rbp
	.cfi_def_cfa_register %rbp
	callq	get_urand
	cmpl	$0, %eax
	jne	.LBB11_9
# %bb.1:                                # %func_getcode.1
	callq	getcode.1
	popq	%rbp
	.cfi_def_cfa %rsp, 8
	retq
.LBB11_2:                               # %func_getcode.7
	.cfi_def_cfa %rbp, 16
	callq	getcode.7
	popq	%rbp
	.cfi_def_cfa %rsp, 8
	retq
.LBB11_3:                               # %func_getcode.9
	.cfi_def_cfa %rbp, 16
	callq	getcode.9
	popq	%rbp
	.cfi_def_cfa %rsp, 8
	retq
.LBB11_4:                               # %func_getcode.30
	.cfi_def_cfa %rbp, 16
	callq	getcode.30
	popq	%rbp
	.cfi_def_cfa %rsp, 8
	retq
.LBB11_5:                               # %func_getcode.33
	.cfi_def_cfa %rbp, 16
	callq	getcode.33
	popq	%rbp
	.cfi_def_cfa %rsp, 8
	retq
.LBB11_6:                               # %func_getcode.40
	.cfi_def_cfa %rbp, 16
	callq	getcode.40
	popq	%rbp
	.cfi_def_cfa %rsp, 8
	retq
.LBB11_7:                               # %func_getcode.41
	.cfi_def_cfa %rbp, 16
	callq	getcode.41
	popq	%rbp
	.cfi_def_cfa %rsp, 8
	retq
.LBB11_8:                               # %func_getcode.52
	.cfi_def_cfa %rbp, 16
	callq	getcode.52
	popq	%rbp
	.cfi_def_cfa %rsp, 8
	retq
.LBB11_9:                               # %ctrl0
	.cfi_def_cfa %rbp, 16
	cmpl	$1, %eax
	je	.LBB11_2
# %bb.10:                               # %ctrl1
	cmpl	$2, %eax
	je	.LBB11_3
# %bb.11:                               # %ctrl2
	cmpl	$3, %eax
	je	.LBB11_4
# %bb.12:                               # %ctrl3
	cmpl	$4, %eax
	je	.LBB11_5
# %bb.13:                               # %ctrl4
	cmpl	$5, %eax
	je	.LBB11_6
# %bb.14:                               # %ctrl5
	cmpl	$6, %eax
	je	.LBB11_7
	jmp	.LBB11_8
.Lfunc_end11:
	.size	getcode, .Lfunc_end11-getcode
	.cfi_endproc
                                        # -- End function
	.globl	writeerr                # -- Begin function writeerr
	.p2align	4, 0x90
	.type	writeerr,@function
writeerr:                               # @writeerr
	.cfi_startproc
# %bb.0:                                # %entry
	pushq	%rbp
	.cfi_def_cfa_offset 16
	.cfi_offset %rbp, -16
	movq	%rsp, %rbp
	.cfi_def_cfa_register %rbp
	movabsq	$ofname, %rdi
	callq	perror
	movabsq	$ofname, %rdi
	callq	unlink
	movl	$1, %edi
	callq	exit
.Lfunc_end12:
	.size	writeerr, .Lfunc_end12-writeerr
	.cfi_endproc
                                        # -- End function
	.globl	foreground              # -- Begin function foreground
	.p2align	4, 0x90
	.type	foreground,@function
foreground:                             # @foreground
	.cfi_startproc
# %bb.0:                                # %entry
	pushq	%rbp
	.cfi_def_cfa_offset 16
	.cfi_offset %rbp, -16
	movq	%rsp, %rbp
	.cfi_def_cfa_register %rbp
	subq	$16, %rsp
	cmpq	$0, bgnd_flag
	je	.LBB13_2
# %bb.1:                                # %if.then
	movl	$0, -4(%rbp)
	jmp	.LBB13_5
.LBB13_2:                               # %if.else
	movl	$2, %edi
	callq	isatty
	cmpl	$0, %eax
	je	.LBB13_4
# %bb.3:                                # %if.then2
	movl	$1, -4(%rbp)
	jmp	.LBB13_5
.LBB13_4:                               # %if.else3
	movl	$0, -4(%rbp)
.LBB13_5:                               # %return
	movl	-4(%rbp), %eax
	addq	$16, %rsp
	popq	%rbp
	.cfi_def_cfa %rsp, 8
	retq
.Lfunc_end13:
	.size	foreground, .Lfunc_end13-foreground
	.cfi_endproc
                                        # -- End function
	.globl	cl_block                # -- Begin function cl_block
	.p2align	4, 0x90
	.type	cl_block,@function
cl_block:                               # @cl_block
	.cfi_startproc
# %bb.0:                                # %entry
	pushq	%rbp
	.cfi_def_cfa_offset 16
	.cfi_offset %rbp, -16
	movq	%rsp, %rbp
	.cfi_def_cfa_register %rbp
	subq	$16, %rsp
	movq	in_count, %rax
	addq	$10000, %rax            # imm = 0x2710
	movq	%rax, checkpoint
	cmpq	$8388607, in_count      # imm = 0x7FFFFF
	jle	.LBB14_5
# %bb.1:                                # %if.then
	movq	bytes_out, %rax
	sarq	$8, %rax
	movq	%rax, -8(%rbp)
	cmpq	$0, -8(%rbp)
	jne	.LBB14_3
# %bb.2:                                # %if.then2
	movq	$2147483647, -8(%rbp)   # imm = 0x7FFFFFFF
	jmp	.LBB14_4
.LBB14_3:                               # %if.else
	movq	in_count, %rax
	cqto
	idivq	-8(%rbp)
	movq	%rax, -8(%rbp)
.LBB14_4:                               # %if.end
	jmp	.LBB14_6
.LBB14_5:                               # %if.else3
	movq	in_count, %rax
	shlq	$8, %rax
	cqto
	idivq	bytes_out
	movq	%rax, -8(%rbp)
.LBB14_6:                               # %if.end5
	movq	-8(%rbp), %rax
	cmpq	ratio, %rax
	jle	.LBB14_8
# %bb.7:                                # %if.then7
	movq	-8(%rbp), %rax
	movq	%rax, ratio
	jmp	.LBB14_9
.LBB14_8:                               # %if.else8
	movq	$0, ratio
	movq	hsize, %rdi
	callq	cl_hash
	movq	$257, free_ent          # imm = 0x101
	movl	$1, clear_flg
	movl	$256, %edi              # imm = 0x100
	callq	output
.LBB14_9:                               # %if.end9
	addq	$16, %rsp
	popq	%rbp
	.cfi_def_cfa %rsp, 8
	retq
.Lfunc_end14:
	.size	cl_block, .Lfunc_end14-cl_block
	.cfi_endproc
                                        # -- End function
	.globl	version                 # -- Begin function version
	.p2align	4, 0x90
	.type	version,@function
version:                                # @version
	.cfi_startproc
# %bb.0:                                # %entry
	pushq	%rbp
	.cfi_def_cfa_offset 16
	.cfi_offset %rbp, -16
	movq	%rsp, %rbp
	.cfi_def_cfa_register %rbp
	movq	stderr, %rdi
	movabsq	$.L.str.26, %rsi
	movabsq	$rcs_ident, %rdx
	movb	$0, %al
	callq	fprintf
	movq	stderr, %rdi
	movabsq	$.L.str.27, %rsi
	movb	$0, %al
	callq	fprintf
	movq	stderr, %rdi
	movabsq	$.L.str.28, %rsi
	movl	$16, %edx
	movb	$0, %al
	callq	fprintf
	popq	%rbp
	.cfi_def_cfa %rsp, 8
	retq
.Lfunc_end15:
	.size	version, .Lfunc_end15-version
	.cfi_endproc
                                        # -- End function
	.globl	getcode.1               # -- Begin function getcode.1
	.p2align	4, 0x90
	.type	getcode.1,@function
getcode.1:                              # @getcode.1
	.cfi_startproc
# %bb.0:                                # %entry
	pushq	%rbp
	.cfi_def_cfa_offset 16
	.cfi_offset %rbp, -16
	movq	%rsp, %rbp
	.cfi_def_cfa_register %rbp
	pushq	%rbx
	subq	$40, %rsp
	.cfi_offset %rbx, -24
	movl	$851269306, -36(%rbp)   # imm = 0x32BD56BA
	movabsq	$getcode.buf, %rax
	movq	%rax, -24(%rbp)
	cmpl	$0, clear_flg
	jg	.LBB16_3
# %bb.1:                                # %lor.lhs.false
	movl	getcode.offset, %eax
	cmpl	getcode.size, %eax
	jge	.LBB16_3
# %bb.2:                                # %lor.lhs.false2
	movq	free_ent, %rax
	cmpq	maxcode, %rax
	jle	.LBB16_13
.LBB16_3:                               # %if.then
	movq	free_ent, %rax
	cmpq	maxcode, %rax
	jle	.LBB16_8
# %bb.4:                                # %if.then5
	movl	n_bits, %eax
	addl	$1, %eax
	movl	%eax, n_bits
	movl	n_bits, %eax
	cmpl	maxbits, %eax
	jne	.LBB16_6
# %bb.5:                                # %if.then7
	movq	maxmaxcode, %rax
	movq	%rax, maxcode
	jmp	.LBB16_7
.LBB16_6:                               # %if.else
	movl	n_bits, %ecx
                                        # kill: def $cl killed $ecx
	movl	$1, %eax
	shll	%cl, %eax
	subl	$1, %eax
	cltq
	movq	%rax, maxcode
.LBB16_7:                               # %if.end
	jmp	.LBB16_8
.LBB16_8:                               # %if.end8
	cmpl	$0, clear_flg
	jle	.LBB16_10
# %bb.9:                                # %if.then11
	movl	$9, n_bits
	movq	$511, maxcode           # imm = 0x1FF
	movl	$0, clear_flg
.LBB16_10:                              # %if.end12
	movslq	n_bits, %rdx
	movq	stdin, %rcx
	movabsq	$getcode.buf, %rdi
	movl	$1, %esi
	callq	fread
	movl	%eax, getcode.size
	cmpl	$0, getcode.size
	jg	.LBB16_12
# %bb.11:                               # %if.then17
	movq	$-1, -48(%rbp)
	jmp	.LBB16_16
.LBB16_12:                              # %if.end18
	movl	$0, getcode.offset
	movl	getcode.size, %eax
	shll	$3, %eax
	movl	n_bits, %ecx
	subl	$1, %ecx
	subl	%ecx, %eax
	movl	%eax, getcode.size
.LBB16_13:                              # %if.end22
	movl	getcode.offset, %eax
	movl	%eax, -12(%rbp)
	movl	n_bits, %eax
	movl	%eax, -16(%rbp)
	movl	-12(%rbp), %eax
	sarl	$3, %eax
	movq	-24(%rbp), %rcx
	cltq
	addq	%rax, %rcx
	movq	%rcx, -24(%rbp)
	movl	-12(%rbp), %eax
	andl	$7, %eax
	movl	%eax, -12(%rbp)
	movq	-24(%rbp), %rax
	movq	%rax, %rcx
	addq	$1, %rcx
	movq	%rcx, -24(%rbp)
	movzbl	(%rax), %eax
	movl	-12(%rbp), %ecx
                                        # kill: def $cl killed $ecx
	sarl	%cl, %eax
	cltq
	movq	%rax, -32(%rbp)
	movl	$8, %eax
	movl	$8, %ecx
	subl	-12(%rbp), %ecx
	movl	-16(%rbp), %edx
	subl	%ecx, %edx
	movl	%edx, -16(%rbp)
	subl	-12(%rbp), %eax
	movl	%eax, -12(%rbp)
	cmpl	$8, -16(%rbp)
	jl	.LBB16_15
# %bb.14:                               # %if.then31
	movq	-24(%rbp), %rax
	movq	%rax, %rcx
	addq	$1, %rcx
	movq	%rcx, -24(%rbp)
	movzbl	(%rax), %eax
	movl	-12(%rbp), %ecx
                                        # kill: def $cl killed $ecx
	shll	%cl, %eax
	cltq
	orq	-32(%rbp), %rax
	movq	%rax, -32(%rbp)
	movl	-12(%rbp), %eax
	addl	$8, %eax
	movl	%eax, -12(%rbp)
	movl	-16(%rbp), %eax
	subl	$8, %eax
	movl	%eax, -16(%rbp)
.LBB16_15:                              # %if.end37
	movq	-24(%rbp), %rax
	movzbl	(%rax), %eax
	movslq	-16(%rbp), %rcx
	movzbl	rmask(,%rcx), %ecx
	andl	%ecx, %eax
	movl	-12(%rbp), %ecx
                                        # kill: def $cl killed $ecx
	shll	%cl, %eax
	cltq
	orq	-32(%rbp), %rax
	movq	%rax, -32(%rbp)
	movl	n_bits, %eax
	addl	getcode.offset, %eax
	movl	%eax, getcode.offset
	movq	-32(%rbp), %rax
	movq	%rax, -48(%rbp)
.LBB16_16:                              # %return
	movq	-48(%rbp), %rbx
	cmpl	$851269306, -36(%rbp)   # imm = 0x32BD56BA
	jne	.LBB16_18
.LBB16_17:
	movq	%rbx, %rax
	addq	$40, %rsp
	popq	%rbx
	popq	%rbp
	.cfi_def_cfa %rsp, 8
	retq
.LBB16_18:                              # %func_exit
	.cfi_def_cfa %rbp, 16
	callq	detect_breach
	jmp	.LBB16_17
.Lfunc_end16:
	.size	getcode.1, .Lfunc_end16-getcode.1
	.cfi_endproc
                                        # -- End function
	.globl	copystat.2              # -- Begin function copystat.2
	.p2align	4, 0x90
	.type	copystat.2,@function
copystat.2:                             # @copystat.2
	.cfi_startproc
# %bb.0:                                # %entry
	pushq	%rbp
	.cfi_def_cfa_offset 16
	.cfi_offset %rbp, -16
	movq	%rsp, %rbp
	.cfi_def_cfa_register %rbp
	subq	$192, %rsp
	movl	$747860810, -24(%rbp)   # imm = 0x2C93734A
	movq	%rdi, -16(%rbp)
	movq	%rsi, -8(%rbp)
	movq	stdout, %rdi
	callq	fclose
	movq	-16(%rbp), %rdi
	leaq	-184(%rbp), %rsi
	callq	stat
	cmpl	$0, %eax
	je	.LBB17_2
# %bb.1:                                # %if.then
	movq	-16(%rbp), %rdi
	callq	perror
	jmp	.LBB17_26
.LBB17_2:                               # %if.end
	movl	-160(%rbp), %eax
	andl	$61440, %eax            # imm = 0xF000
	cmpl	$32768, %eax            # imm = 0x8000
	je	.LBB17_6
# %bb.3:                                # %if.then2
	cmpl	$0, quiet
	je	.LBB17_5
# %bb.4:                                # %if.then4
	movq	stderr, %rdi
	movq	-16(%rbp), %rdx
	movabsq	$.L.str.16, %rsi
	movb	$0, %al
	callq	fprintf
.LBB17_5:                               # %if.end6
	movq	stderr, %rdi
	movabsq	$.L.str.20, %rsi
	movb	$0, %al
	callq	fprintf
	movl	$1, exit_stat
	jmp	.LBB17_24
.LBB17_6:                               # %if.else
	cmpq	$1, -168(%rbp)
	jbe	.LBB17_10
# %bb.7:                                # %if.then9
	cmpl	$0, quiet
	je	.LBB17_9
# %bb.8:                                # %if.then11
	movq	stderr, %rdi
	movq	-16(%rbp), %rdx
	movabsq	$.L.str.16, %rsi
	movb	$0, %al
	callq	fprintf
.LBB17_9:                               # %if.end13
	movq	stderr, %rdi
	movq	-168(%rbp), %rdx
	subq	$1, %rdx
	movabsq	$.L.str.21, %rsi
	movb	$0, %al
	callq	fprintf
	movl	$1, exit_stat
	jmp	.LBB17_23
.LBB17_10:                              # %if.else16
	cmpl	$2, exit_stat
	jne	.LBB17_15
# %bb.11:                               # %land.lhs.true
	cmpl	$0, force
	jne	.LBB17_15
# %bb.12:                               # %if.then19
	cmpl	$0, quiet
	jne	.LBB17_14
# %bb.13:                               # %if.then21
	movq	stderr, %rdi
	movabsq	$.L.str.22, %rsi
	movb	$0, %al
	callq	fprintf
.LBB17_14:                              # %if.end23
	jmp	.LBB17_22
.LBB17_15:                              # %if.else24
	movl	$0, exit_stat
	movl	-160(%rbp), %eax
	andl	$4095, %eax             # imm = 0xFFF
	movl	%eax, -20(%rbp)
	movq	-8(%rbp), %rdi
	movl	-20(%rbp), %esi
	callq	chmod
	cmpl	$0, %eax
	je	.LBB17_17
# %bb.16:                               # %if.then29
	movq	-8(%rbp), %rdi
	callq	perror
.LBB17_17:                              # %if.end30
	movq	-8(%rbp), %rdi
	movl	-156(%rbp), %esi
	movl	-152(%rbp), %edx
	callq	chown
	movq	-112(%rbp), %rax
	movq	%rax, -40(%rbp)
	movq	-96(%rbp), %rax
	movq	%rax, -32(%rbp)
	movq	-8(%rbp), %rdi
	leaq	-40(%rbp), %rsi
	callq	utime
	movq	-16(%rbp), %rdi
	callq	unlink
	cmpl	$0, %eax
	je	.LBB17_19
# %bb.18:                               # %if.then36
	movq	-16(%rbp), %rdi
	callq	perror
.LBB17_19:                              # %if.end37
	cmpl	$0, quiet
	jne	.LBB17_21
# %bb.20:                               # %if.then39
	movq	stderr, %rdi
	movq	-8(%rbp), %rdx
	movabsq	$.L.str.23, %rsi
	movb	$0, %al
	callq	fprintf
.LBB17_21:                              # %if.end41
	jmp	.LBB17_26
.LBB17_22:                              # %if.end42
	jmp	.LBB17_23
.LBB17_23:                              # %if.end43
	jmp	.LBB17_24
.LBB17_24:                              # %if.end44
	movq	-8(%rbp), %rdi
	callq	unlink
	cmpl	$0, %eax
	je	.LBB17_26
# %bb.25:                               # %if.then47
	movq	-8(%rbp), %rdi
	callq	perror
.LBB17_26:                              # %if.end48
	cmpl	$747860810, -24(%rbp)   # imm = 0x2C93734A
	jne	.LBB17_28
.LBB17_27:
	addq	$192, %rsp
	popq	%rbp
	.cfi_def_cfa %rsp, 8
	retq
.LBB17_28:                              # %func_exit
	.cfi_def_cfa %rbp, 16
	callq	detect_breach
	jmp	.LBB17_27
.Lfunc_end17:
	.size	copystat.2, .Lfunc_end17-copystat.2
	.cfi_endproc
                                        # -- End function
	.globl	prratio.3               # -- Begin function prratio.3
	.p2align	4, 0x90
	.type	prratio.3,@function
prratio.3:                              # @prratio.3
	.cfi_startproc
# %bb.0:                                # %entry
	pushq	%rbp
	.cfi_def_cfa_offset 16
	.cfi_offset %rbp, -16
	movq	%rsp, %rbp
	.cfi_def_cfa_register %rbp
	subq	$48, %rsp
	movl	$986643685, -20(%rbp)   # imm = 0x3ACEFCE5
	movq	%rdi, -40(%rbp)
	movq	%rsi, -16(%rbp)
	movq	%rdx, -32(%rbp)
	cmpq	$214748, -16(%rbp)      # imm = 0x346DC
	jle	.LBB18_2
# %bb.1:                                # %if.then
	movq	-16(%rbp), %rcx
	movq	-32(%rbp), %rax
	cqto
	movl	$10000, %esi            # imm = 0x2710
	idivq	%rsi
	movq	%rax, %rsi
	movq	%rcx, %rax
	cqto
	idivq	%rsi
	movl	%eax, -4(%rbp)
	jmp	.LBB18_3
.LBB18_2:                               # %if.else
	imulq	$10000, -16(%rbp), %rax # imm = 0x2710
	cqto
	idivq	-32(%rbp)
	movl	%eax, -4(%rbp)
.LBB18_3:                               # %if.end
	cmpl	$0, -4(%rbp)
	jge	.LBB18_5
# %bb.4:                                # %if.then6
	movq	-40(%rbp), %rsi
	movl	$45, %edi
	callq	_IO_putc
	xorl	%eax, %eax
	subl	-4(%rbp), %eax
	movl	%eax, -4(%rbp)
.LBB18_5:                               # %if.end7
	movq	-40(%rbp), %rdi
	movl	-4(%rbp), %eax
	cltd
	movl	$100, %ecx
	idivl	%ecx
	movl	%eax, %r8d
	movl	-4(%rbp), %eax
	cltd
	idivl	%ecx
	movl	%edx, %ecx
	movabsq	$.L.str.25, %rsi
	movl	%r8d, %edx
	movb	$0, %al
	callq	fprintf
	cmpl	$986643685, -20(%rbp)   # imm = 0x3ACEFCE5
	jne	.LBB18_7
.LBB18_6:
	addq	$48, %rsp
	popq	%rbp
	.cfi_def_cfa %rsp, 8
	retq
.LBB18_7:                               # %func_exit
	.cfi_def_cfa %rbp, 16
	callq	detect_breach
	jmp	.LBB18_6
.Lfunc_end18:
	.size	prratio.3, .Lfunc_end18-prratio.3
	.cfi_endproc
                                        # -- End function
	.globl	cl_hash.4               # -- Begin function cl_hash.4
	.p2align	4, 0x90
	.type	cl_hash.4,@function
cl_hash.4:                              # @cl_hash.4
	.cfi_startproc
# %bb.0:                                # %entry
	pushq	%rbp
	.cfi_def_cfa_offset 16
	.cfi_offset %rbp, -16
	movq	%rsp, %rbp
	.cfi_def_cfa_register %rbp
	subq	$48, %rsp
	movl	$928531611, -28(%rbp)   # imm = 0x3758449B
	movq	%rdi, -40(%rbp)
	movq	-40(%rbp), %rax
	shlq	$3, %rax
	movabsq	$htab, %rcx
	addq	%rax, %rcx
	movq	%rcx, -8(%rbp)
	movq	$-1, -16(%rbp)
	movq	-40(%rbp), %rax
	subq	$16, %rax
	movq	%rax, -24(%rbp)
.LBB19_1:                               # %do.body
                                        # =>This Inner Loop Header: Depth=1
	movq	-16(%rbp), %rax
	movq	-8(%rbp), %rcx
	movq	%rax, -128(%rcx)
	movq	-16(%rbp), %rax
	movq	-8(%rbp), %rcx
	movq	%rax, -120(%rcx)
	movq	-16(%rbp), %rax
	movq	-8(%rbp), %rcx
	movq	%rax, -112(%rcx)
	movq	-16(%rbp), %rax
	movq	-8(%rbp), %rcx
	movq	%rax, -104(%rcx)
	movq	-16(%rbp), %rax
	movq	-8(%rbp), %rcx
	movq	%rax, -96(%rcx)
	movq	-16(%rbp), %rax
	movq	-8(%rbp), %rcx
	movq	%rax, -88(%rcx)
	movq	-16(%rbp), %rax
	movq	-8(%rbp), %rcx
	movq	%rax, -80(%rcx)
	movq	-16(%rbp), %rax
	movq	-8(%rbp), %rcx
	movq	%rax, -72(%rcx)
	movq	-16(%rbp), %rax
	movq	-8(%rbp), %rcx
	movq	%rax, -64(%rcx)
	movq	-16(%rbp), %rax
	movq	-8(%rbp), %rcx
	movq	%rax, -56(%rcx)
	movq	-16(%rbp), %rax
	movq	-8(%rbp), %rcx
	movq	%rax, -48(%rcx)
	movq	-16(%rbp), %rax
	movq	-8(%rbp), %rcx
	movq	%rax, -40(%rcx)
	movq	-16(%rbp), %rax
	movq	-8(%rbp), %rcx
	movq	%rax, -32(%rcx)
	movq	-16(%rbp), %rax
	movq	-8(%rbp), %rcx
	movq	%rax, -24(%rcx)
	movq	-16(%rbp), %rax
	movq	-8(%rbp), %rcx
	movq	%rax, -16(%rcx)
	movq	-16(%rbp), %rax
	movq	-8(%rbp), %rcx
	movq	%rax, -8(%rcx)
	movq	-8(%rbp), %rax
	addq	$-128, %rax
	movq	%rax, -8(%rbp)
# %bb.2:                                # %do.cond
                                        #   in Loop: Header=BB19_1 Depth=1
	movq	-24(%rbp), %rax
	subq	$16, %rax
	movq	%rax, -24(%rbp)
	cmpq	$0, %rax
	jge	.LBB19_1
# %bb.3:                                # %do.end
	movq	-24(%rbp), %rax
	addq	$16, %rax
	movq	%rax, -24(%rbp)
.LBB19_4:                               # %for.cond
                                        # =>This Inner Loop Header: Depth=1
	cmpq	$0, -24(%rbp)
	jle	.LBB19_7
# %bb.5:                                # %for.body
                                        #   in Loop: Header=BB19_4 Depth=1
	movq	-16(%rbp), %rax
	movq	-8(%rbp), %rcx
	movq	%rcx, %rdx
	addq	$-8, %rdx
	movq	%rdx, -8(%rbp)
	movq	%rax, -8(%rcx)
# %bb.6:                                # %for.inc
                                        #   in Loop: Header=BB19_4 Depth=1
	movq	-24(%rbp), %rax
	addq	$-1, %rax
	movq	%rax, -24(%rbp)
	jmp	.LBB19_4
.LBB19_7:                               # %for.end
	cmpl	$928531611, -28(%rbp)   # imm = 0x3758449B
	jne	.LBB19_9
.LBB19_8:
	addq	$48, %rsp
	popq	%rbp
	.cfi_def_cfa %rsp, 8
	retq
.LBB19_9:                               # %func_exit
	.cfi_def_cfa %rbp, 16
	callq	detect_breach
	jmp	.LBB19_8
.Lfunc_end19:
	.size	cl_hash.4, .Lfunc_end19-cl_hash.4
	.cfi_endproc
                                        # -- End function
	.globl	output.5                # -- Begin function output.5
	.p2align	4, 0x90
	.type	output.5,@function
output.5:                               # @output.5
	.cfi_startproc
# %bb.0:                                # %entry
	pushq	%rbp
	.cfi_def_cfa_offset 16
	.cfi_offset %rbp, -16
	movq	%rsp, %rbp
	.cfi_def_cfa_register %rbp
	subq	$32, %rsp
	movl	$788343829, -28(%rbp)   # imm = 0x2EFD2C15
	movq	%rdi, -24(%rbp)
	movl	offset, %eax
	movl	%eax, -8(%rbp)
	movl	n_bits, %eax
	movl	%eax, -4(%rbp)
	movabsq	$buf, %rax
	movq	%rax, -16(%rbp)
	cmpq	$0, -24(%rbp)
	jl	.LBB20_24
# %bb.1:                                # %if.then
	movl	-8(%rbp), %eax
	sarl	$3, %eax
	movq	-16(%rbp), %rcx
	cltq
	addq	%rax, %rcx
	movq	%rcx, -16(%rbp)
	movl	-8(%rbp), %eax
	andl	$7, %eax
	movl	%eax, -8(%rbp)
	movq	-16(%rbp), %rax
	movsbl	(%rax), %eax
	movslq	-8(%rbp), %rcx
	movzbl	rmask(,%rcx), %ecx
	andl	%ecx, %eax
	cltq
	movq	-24(%rbp), %rdx
	movl	-8(%rbp), %ecx
                                        # kill: def $cl killed $rcx
	shlq	%cl, %rdx
	movslq	-8(%rbp), %rcx
	movzbl	lmask(,%rcx), %ecx
	andq	%rcx, %rdx
	orq	%rdx, %rax
	movq	-16(%rbp), %rcx
	movb	%al, (%rcx)
	movq	-16(%rbp), %rax
	addq	$1, %rax
	movq	%rax, -16(%rbp)
	movl	$8, %eax
	movl	$8, %ecx
	subl	-8(%rbp), %ecx
	movl	-4(%rbp), %edx
	subl	%ecx, %edx
	movl	%edx, -4(%rbp)
	subl	-8(%rbp), %eax
	movq	-24(%rbp), %rdx
	movl	%eax, %ecx
                                        # kill: def $cl killed $rcx
	sarq	%cl, %rdx
	movq	%rdx, -24(%rbp)
	cmpl	$8, -4(%rbp)
	jl	.LBB20_3
# %bb.2:                                # %if.then15
	movq	-24(%rbp), %rax
	movq	-16(%rbp), %rcx
	movq	%rcx, %rdx
	addq	$1, %rdx
	movq	%rdx, -16(%rbp)
	movb	%al, (%rcx)
	movq	-24(%rbp), %rax
	sarq	$8, %rax
	movq	%rax, -24(%rbp)
	movl	-4(%rbp), %eax
	subl	$8, %eax
	movl	%eax, -4(%rbp)
.LBB20_3:                               # %if.end
	cmpl	$0, -4(%rbp)
	je	.LBB20_5
# %bb.4:                                # %if.then20
	movq	-24(%rbp), %rax
	movq	-16(%rbp), %rcx
	movb	%al, (%rcx)
.LBB20_5:                               # %if.end22
	movl	n_bits, %eax
	addl	offset, %eax
	movl	%eax, offset
	movl	offset, %eax
	movl	n_bits, %ecx
	shll	$3, %ecx
	cmpl	%ecx, %eax
	jne	.LBB20_10
# %bb.6:                                # %if.then26
	movabsq	$buf, %rax
	movq	%rax, -16(%rbp)
	movl	n_bits, %eax
	movl	%eax, -4(%rbp)
	movslq	-4(%rbp), %rax
	addq	bytes_out, %rax
	movq	%rax, bytes_out
.LBB20_7:                               # %do.body
                                        # =>This Inner Loop Header: Depth=1
	movq	-16(%rbp), %rax
	movq	%rax, %rcx
	addq	$1, %rcx
	movq	%rcx, -16(%rbp)
	movsbl	(%rax), %edi
	callq	putchar
# %bb.8:                                # %do.cond
                                        #   in Loop: Header=BB20_7 Depth=1
	movl	-4(%rbp), %eax
	addl	$-1, %eax
	movl	%eax, -4(%rbp)
	cmpl	$0, %eax
	jne	.LBB20_7
# %bb.9:                                # %do.end
	movl	$0, offset
.LBB20_10:                              # %if.end32
	movq	free_ent, %rax
	cmpq	maxcode, %rax
	jg	.LBB20_12
# %bb.11:                               # %lor.lhs.false
	cmpl	$0, clear_flg
	jle	.LBB20_23
.LBB20_12:                              # %if.then37
	cmpl	$0, offset
	jle	.LBB20_16
# %bb.13:                               # %if.then40
	movslq	n_bits, %rdx
	movq	stdout, %rcx
	movabsq	$buf, %rdi
	movl	$1, %esi
	callq	fwrite
	movslq	n_bits, %rcx
	cmpq	%rcx, %rax
	je	.LBB20_15
# %bb.14:                               # %if.then46
	callq	writeerr
.LBB20_15:                              # %if.end47
	movslq	n_bits, %rax
	addq	bytes_out, %rax
	movq	%rax, bytes_out
.LBB20_16:                              # %if.end50
	movl	$0, offset
	cmpl	$0, clear_flg
	je	.LBB20_18
# %bb.17:                               # %if.then52
	movl	$9, n_bits
	movq	$511, maxcode           # imm = 0x1FF
	movl	$0, clear_flg
	jmp	.LBB20_22
.LBB20_18:                              # %if.else
	movl	n_bits, %eax
	addl	$1, %eax
	movl	%eax, n_bits
	movl	n_bits, %eax
	cmpl	maxbits, %eax
	jne	.LBB20_20
# %bb.19:                               # %if.then55
	movq	maxmaxcode, %rax
	movq	%rax, maxcode
	jmp	.LBB20_21
.LBB20_20:                              # %if.else56
	movl	n_bits, %ecx
                                        # kill: def $cl killed $ecx
	movl	$1, %eax
	shll	%cl, %eax
	subl	$1, %eax
	cltq
	movq	%rax, maxcode
.LBB20_21:                              # %if.end60
	jmp	.LBB20_22
.LBB20_22:                              # %if.end61
	jmp	.LBB20_23
.LBB20_23:                              # %if.end62
	jmp	.LBB20_29
.LBB20_24:                              # %if.else63
	cmpl	$0, offset
	jle	.LBB20_26
# %bb.25:                               # %if.then66
	movl	offset, %eax
	addl	$7, %eax
	cltd
	movl	$8, %ecx
	idivl	%ecx
	movslq	%eax, %rdx
	movq	stdout, %rcx
	movabsq	$buf, %rdi
	movl	$1, %esi
	callq	fwrite
.LBB20_26:                              # %if.end70
	movl	offset, %eax
	addl	$7, %eax
	cltd
	movl	$8, %ecx
	idivl	%ecx
	cltq
	addq	bytes_out, %rax
	movq	%rax, bytes_out
	movl	$0, offset
	movq	stdout, %rdi
	callq	fflush
	movq	stdout, %rdi
	callq	ferror
	cmpl	$0, %eax
	je	.LBB20_28
# %bb.27:                               # %if.then78
	callq	writeerr
.LBB20_28:                              # %if.end79
	jmp	.LBB20_29
.LBB20_29:                              # %if.end80
	cmpl	$788343829, -28(%rbp)   # imm = 0x2EFD2C15
	jne	.LBB20_31
.LBB20_30:
	addq	$32, %rsp
	popq	%rbp
	.cfi_def_cfa %rsp, 8
	retq
.LBB20_31:                              # %func_exit
	.cfi_def_cfa %rbp, 16
	callq	detect_breach
	jmp	.LBB20_30
.Lfunc_end20:
	.size	output.5, .Lfunc_end20-output.5
	.cfi_endproc
                                        # -- End function
	.globl	copystat.6              # -- Begin function copystat.6
	.p2align	4, 0x90
	.type	copystat.6,@function
copystat.6:                             # @copystat.6
	.cfi_startproc
# %bb.0:                                # %entry
	pushq	%rbp
	.cfi_def_cfa_offset 16
	.cfi_offset %rbp, -16
	movq	%rsp, %rbp
	.cfi_def_cfa_register %rbp
	subq	$192, %rsp
	movl	$75516577, -24(%rbp)    # imm = 0x4804AA1
	movq	%rdi, -16(%rbp)
	movq	%rsi, -8(%rbp)
	movq	stdout, %rdi
	callq	fclose
	movq	-16(%rbp), %rdi
	leaq	-184(%rbp), %rsi
	callq	stat
	cmpl	$0, %eax
	je	.LBB21_2
# %bb.1:                                # %if.then
	movq	-16(%rbp), %rdi
	callq	perror
	jmp	.LBB21_26
.LBB21_2:                               # %if.end
	movl	-160(%rbp), %eax
	andl	$61440, %eax            # imm = 0xF000
	cmpl	$32768, %eax            # imm = 0x8000
	je	.LBB21_6
# %bb.3:                                # %if.then2
	cmpl	$0, quiet
	je	.LBB21_5
# %bb.4:                                # %if.then4
	movq	stderr, %rdi
	movq	-16(%rbp), %rdx
	movabsq	$.L.str.16, %rsi
	movb	$0, %al
	callq	fprintf
.LBB21_5:                               # %if.end6
	movq	stderr, %rdi
	movabsq	$.L.str.20, %rsi
	movb	$0, %al
	callq	fprintf
	movl	$1, exit_stat
	jmp	.LBB21_24
.LBB21_6:                               # %if.else
	cmpq	$1, -168(%rbp)
	jbe	.LBB21_10
# %bb.7:                                # %if.then9
	cmpl	$0, quiet
	je	.LBB21_9
# %bb.8:                                # %if.then11
	movq	stderr, %rdi
	movq	-16(%rbp), %rdx
	movabsq	$.L.str.16, %rsi
	movb	$0, %al
	callq	fprintf
.LBB21_9:                               # %if.end13
	movq	stderr, %rdi
	movq	-168(%rbp), %rdx
	subq	$1, %rdx
	movabsq	$.L.str.21, %rsi
	movb	$0, %al
	callq	fprintf
	movl	$1, exit_stat
	jmp	.LBB21_23
.LBB21_10:                              # %if.else16
	cmpl	$2, exit_stat
	jne	.LBB21_15
# %bb.11:                               # %land.lhs.true
	cmpl	$0, force
	jne	.LBB21_15
# %bb.12:                               # %if.then19
	cmpl	$0, quiet
	jne	.LBB21_14
# %bb.13:                               # %if.then21
	movq	stderr, %rdi
	movabsq	$.L.str.22, %rsi
	movb	$0, %al
	callq	fprintf
.LBB21_14:                              # %if.end23
	jmp	.LBB21_22
.LBB21_15:                              # %if.else24
	movl	$0, exit_stat
	movl	-160(%rbp), %eax
	andl	$4095, %eax             # imm = 0xFFF
	movl	%eax, -20(%rbp)
	movq	-8(%rbp), %rdi
	movl	-20(%rbp), %esi
	callq	chmod
	cmpl	$0, %eax
	je	.LBB21_17
# %bb.16:                               # %if.then29
	movq	-8(%rbp), %rdi
	callq	perror
.LBB21_17:                              # %if.end30
	movq	-8(%rbp), %rdi
	movl	-156(%rbp), %esi
	movl	-152(%rbp), %edx
	callq	chown
	movq	-112(%rbp), %rax
	movq	%rax, -40(%rbp)
	movq	-96(%rbp), %rax
	movq	%rax, -32(%rbp)
	movq	-8(%rbp), %rdi
	leaq	-40(%rbp), %rsi
	callq	utime
	movq	-16(%rbp), %rdi
	callq	unlink
	cmpl	$0, %eax
	je	.LBB21_19
# %bb.18:                               # %if.then36
	movq	-16(%rbp), %rdi
	callq	perror
.LBB21_19:                              # %if.end37
	cmpl	$0, quiet
	jne	.LBB21_21
# %bb.20:                               # %if.then39
	movq	stderr, %rdi
	movq	-8(%rbp), %rdx
	movabsq	$.L.str.23, %rsi
	movb	$0, %al
	callq	fprintf
.LBB21_21:                              # %if.end41
	jmp	.LBB21_26
.LBB21_22:                              # %if.end42
	jmp	.LBB21_23
.LBB21_23:                              # %if.end43
	jmp	.LBB21_24
.LBB21_24:                              # %if.end44
	movq	-8(%rbp), %rdi
	callq	unlink
	cmpl	$0, %eax
	je	.LBB21_26
# %bb.25:                               # %if.then47
	movq	-8(%rbp), %rdi
	callq	perror
.LBB21_26:                              # %if.end48
	cmpl	$75516577, -24(%rbp)    # imm = 0x4804AA1
	jne	.LBB21_28
.LBB21_27:
	addq	$192, %rsp
	popq	%rbp
	.cfi_def_cfa %rsp, 8
	retq
.LBB21_28:                              # %func_exit
	.cfi_def_cfa %rbp, 16
	callq	detect_breach
	jmp	.LBB21_27
.Lfunc_end21:
	.size	copystat.6, .Lfunc_end21-copystat.6
	.cfi_endproc
                                        # -- End function
	.globl	getcode.7               # -- Begin function getcode.7
	.p2align	4, 0x90
	.type	getcode.7,@function
getcode.7:                              # @getcode.7
	.cfi_startproc
# %bb.0:                                # %entry
	pushq	%rbp
	.cfi_def_cfa_offset 16
	.cfi_offset %rbp, -16
	movq	%rsp, %rbp
	.cfi_def_cfa_register %rbp
	pushq	%rbx
	subq	$40, %rsp
	.cfi_offset %rbx, -24
	movl	$1966679119, -36(%rbp)  # imm = 0x7539244F
	movabsq	$getcode.buf, %rax
	movq	%rax, -24(%rbp)
	cmpl	$0, clear_flg
	jg	.LBB22_3
# %bb.1:                                # %lor.lhs.false
	movl	getcode.offset, %eax
	cmpl	getcode.size, %eax
	jge	.LBB22_3
# %bb.2:                                # %lor.lhs.false2
	movq	free_ent, %rax
	cmpq	maxcode, %rax
	jle	.LBB22_13
.LBB22_3:                               # %if.then
	movq	free_ent, %rax
	cmpq	maxcode, %rax
	jle	.LBB22_8
# %bb.4:                                # %if.then5
	movl	n_bits, %eax
	addl	$1, %eax
	movl	%eax, n_bits
	movl	n_bits, %eax
	cmpl	maxbits, %eax
	jne	.LBB22_6
# %bb.5:                                # %if.then7
	movq	maxmaxcode, %rax
	movq	%rax, maxcode
	jmp	.LBB22_7
.LBB22_6:                               # %if.else
	movl	n_bits, %ecx
                                        # kill: def $cl killed $ecx
	movl	$1, %eax
	shll	%cl, %eax
	subl	$1, %eax
	cltq
	movq	%rax, maxcode
.LBB22_7:                               # %if.end
	jmp	.LBB22_8
.LBB22_8:                               # %if.end8
	cmpl	$0, clear_flg
	jle	.LBB22_10
# %bb.9:                                # %if.then11
	movl	$9, n_bits
	movq	$511, maxcode           # imm = 0x1FF
	movl	$0, clear_flg
.LBB22_10:                              # %if.end12
	movslq	n_bits, %rdx
	movq	stdin, %rcx
	movabsq	$getcode.buf, %rdi
	movl	$1, %esi
	callq	fread
	movl	%eax, getcode.size
	cmpl	$0, getcode.size
	jg	.LBB22_12
# %bb.11:                               # %if.then17
	movq	$-1, -48(%rbp)
	jmp	.LBB22_16
.LBB22_12:                              # %if.end18
	movl	$0, getcode.offset
	movl	getcode.size, %eax
	shll	$3, %eax
	movl	n_bits, %ecx
	subl	$1, %ecx
	subl	%ecx, %eax
	movl	%eax, getcode.size
.LBB22_13:                              # %if.end22
	movl	getcode.offset, %eax
	movl	%eax, -12(%rbp)
	movl	n_bits, %eax
	movl	%eax, -16(%rbp)
	movl	-12(%rbp), %eax
	sarl	$3, %eax
	movq	-24(%rbp), %rcx
	cltq
	addq	%rax, %rcx
	movq	%rcx, -24(%rbp)
	movl	-12(%rbp), %eax
	andl	$7, %eax
	movl	%eax, -12(%rbp)
	movq	-24(%rbp), %rax
	movq	%rax, %rcx
	addq	$1, %rcx
	movq	%rcx, -24(%rbp)
	movzbl	(%rax), %eax
	movl	-12(%rbp), %ecx
                                        # kill: def $cl killed $ecx
	sarl	%cl, %eax
	cltq
	movq	%rax, -32(%rbp)
	movl	$8, %eax
	movl	$8, %ecx
	subl	-12(%rbp), %ecx
	movl	-16(%rbp), %edx
	subl	%ecx, %edx
	movl	%edx, -16(%rbp)
	subl	-12(%rbp), %eax
	movl	%eax, -12(%rbp)
	cmpl	$8, -16(%rbp)
	jl	.LBB22_15
# %bb.14:                               # %if.then31
	movq	-24(%rbp), %rax
	movq	%rax, %rcx
	addq	$1, %rcx
	movq	%rcx, -24(%rbp)
	movzbl	(%rax), %eax
	movl	-12(%rbp), %ecx
                                        # kill: def $cl killed $ecx
	shll	%cl, %eax
	cltq
	orq	-32(%rbp), %rax
	movq	%rax, -32(%rbp)
	movl	-12(%rbp), %eax
	addl	$8, %eax
	movl	%eax, -12(%rbp)
	movl	-16(%rbp), %eax
	subl	$8, %eax
	movl	%eax, -16(%rbp)
.LBB22_15:                              # %if.end37
	movq	-24(%rbp), %rax
	movzbl	(%rax), %eax
	movslq	-16(%rbp), %rcx
	movzbl	rmask(,%rcx), %ecx
	andl	%ecx, %eax
	movl	-12(%rbp), %ecx
                                        # kill: def $cl killed $ecx
	shll	%cl, %eax
	cltq
	orq	-32(%rbp), %rax
	movq	%rax, -32(%rbp)
	movl	n_bits, %eax
	addl	getcode.offset, %eax
	movl	%eax, getcode.offset
	movq	-32(%rbp), %rax
	movq	%rax, -48(%rbp)
.LBB22_16:                              # %return
	movq	-48(%rbp), %rbx
	cmpl	$1966679119, -36(%rbp)  # imm = 0x7539244F
	jne	.LBB22_18
.LBB22_17:
	movq	%rbx, %rax
	addq	$40, %rsp
	popq	%rbx
	popq	%rbp
	.cfi_def_cfa %rsp, 8
	retq
.LBB22_18:                              # %func_exit
	.cfi_def_cfa %rbp, 16
	callq	detect_breach
	jmp	.LBB22_17
.Lfunc_end22:
	.size	getcode.7, .Lfunc_end22-getcode.7
	.cfi_endproc
                                        # -- End function
	.globl	copystat.8              # -- Begin function copystat.8
	.p2align	4, 0x90
	.type	copystat.8,@function
copystat.8:                             # @copystat.8
	.cfi_startproc
# %bb.0:                                # %entry
	pushq	%rbp
	.cfi_def_cfa_offset 16
	.cfi_offset %rbp, -16
	movq	%rsp, %rbp
	.cfi_def_cfa_register %rbp
	subq	$192, %rsp
	movl	$726032002, -24(%rbp)   # imm = 0x2B465E82
	movq	%rdi, -16(%rbp)
	movq	%rsi, -8(%rbp)
	movq	stdout, %rdi
	callq	fclose
	movq	-16(%rbp), %rdi
	leaq	-184(%rbp), %rsi
	callq	stat
	cmpl	$0, %eax
	je	.LBB23_2
# %bb.1:                                # %if.then
	movq	-16(%rbp), %rdi
	callq	perror
	jmp	.LBB23_26
.LBB23_2:                               # %if.end
	movl	-160(%rbp), %eax
	andl	$61440, %eax            # imm = 0xF000
	cmpl	$32768, %eax            # imm = 0x8000
	je	.LBB23_6
# %bb.3:                                # %if.then2
	cmpl	$0, quiet
	je	.LBB23_5
# %bb.4:                                # %if.then4
	movq	stderr, %rdi
	movq	-16(%rbp), %rdx
	movabsq	$.L.str.16, %rsi
	movb	$0, %al
	callq	fprintf
.LBB23_5:                               # %if.end6
	movq	stderr, %rdi
	movabsq	$.L.str.20, %rsi
	movb	$0, %al
	callq	fprintf
	movl	$1, exit_stat
	jmp	.LBB23_24
.LBB23_6:                               # %if.else
	cmpq	$1, -168(%rbp)
	jbe	.LBB23_10
# %bb.7:                                # %if.then9
	cmpl	$0, quiet
	je	.LBB23_9
# %bb.8:                                # %if.then11
	movq	stderr, %rdi
	movq	-16(%rbp), %rdx
	movabsq	$.L.str.16, %rsi
	movb	$0, %al
	callq	fprintf
.LBB23_9:                               # %if.end13
	movq	stderr, %rdi
	movq	-168(%rbp), %rdx
	subq	$1, %rdx
	movabsq	$.L.str.21, %rsi
	movb	$0, %al
	callq	fprintf
	movl	$1, exit_stat
	jmp	.LBB23_23
.LBB23_10:                              # %if.else16
	cmpl	$2, exit_stat
	jne	.LBB23_15
# %bb.11:                               # %land.lhs.true
	cmpl	$0, force
	jne	.LBB23_15
# %bb.12:                               # %if.then19
	cmpl	$0, quiet
	jne	.LBB23_14
# %bb.13:                               # %if.then21
	movq	stderr, %rdi
	movabsq	$.L.str.22, %rsi
	movb	$0, %al
	callq	fprintf
.LBB23_14:                              # %if.end23
	jmp	.LBB23_22
.LBB23_15:                              # %if.else24
	movl	$0, exit_stat
	movl	-160(%rbp), %eax
	andl	$4095, %eax             # imm = 0xFFF
	movl	%eax, -20(%rbp)
	movq	-8(%rbp), %rdi
	movl	-20(%rbp), %esi
	callq	chmod
	cmpl	$0, %eax
	je	.LBB23_17
# %bb.16:                               # %if.then29
	movq	-8(%rbp), %rdi
	callq	perror
.LBB23_17:                              # %if.end30
	movq	-8(%rbp), %rdi
	movl	-156(%rbp), %esi
	movl	-152(%rbp), %edx
	callq	chown
	movq	-112(%rbp), %rax
	movq	%rax, -40(%rbp)
	movq	-96(%rbp), %rax
	movq	%rax, -32(%rbp)
	movq	-8(%rbp), %rdi
	leaq	-40(%rbp), %rsi
	callq	utime
	movq	-16(%rbp), %rdi
	callq	unlink
	cmpl	$0, %eax
	je	.LBB23_19
# %bb.18:                               # %if.then36
	movq	-16(%rbp), %rdi
	callq	perror
.LBB23_19:                              # %if.end37
	cmpl	$0, quiet
	jne	.LBB23_21
# %bb.20:                               # %if.then39
	movq	stderr, %rdi
	movq	-8(%rbp), %rdx
	movabsq	$.L.str.23, %rsi
	movb	$0, %al
	callq	fprintf
.LBB23_21:                              # %if.end41
	jmp	.LBB23_26
.LBB23_22:                              # %if.end42
	jmp	.LBB23_23
.LBB23_23:                              # %if.end43
	jmp	.LBB23_24
.LBB23_24:                              # %if.end44
	movq	-8(%rbp), %rdi
	callq	unlink
	cmpl	$0, %eax
	je	.LBB23_26
# %bb.25:                               # %if.then47
	movq	-8(%rbp), %rdi
	callq	perror
.LBB23_26:                              # %if.end48
	cmpl	$726032002, -24(%rbp)   # imm = 0x2B465E82
	jne	.LBB23_28
.LBB23_27:
	addq	$192, %rsp
	popq	%rbp
	.cfi_def_cfa %rsp, 8
	retq
.LBB23_28:                              # %func_exit
	.cfi_def_cfa %rbp, 16
	callq	detect_breach
	jmp	.LBB23_27
.Lfunc_end23:
	.size	copystat.8, .Lfunc_end23-copystat.8
	.cfi_endproc
                                        # -- End function
	.globl	getcode.9               # -- Begin function getcode.9
	.p2align	4, 0x90
	.type	getcode.9,@function
getcode.9:                              # @getcode.9
	.cfi_startproc
# %bb.0:                                # %entry
	pushq	%rbp
	.cfi_def_cfa_offset 16
	.cfi_offset %rbp, -16
	movq	%rsp, %rbp
	.cfi_def_cfa_register %rbp
	pushq	%rbx
	subq	$40, %rsp
	.cfi_offset %rbx, -24
	movl	$109889583, -36(%rbp)   # imm = 0x68CC82F
	movabsq	$getcode.buf, %rax
	movq	%rax, -24(%rbp)
	cmpl	$0, clear_flg
	jg	.LBB24_3
# %bb.1:                                # %lor.lhs.false
	movl	getcode.offset, %eax
	cmpl	getcode.size, %eax
	jge	.LBB24_3
# %bb.2:                                # %lor.lhs.false2
	movq	free_ent, %rax
	cmpq	maxcode, %rax
	jle	.LBB24_13
.LBB24_3:                               # %if.then
	movq	free_ent, %rax
	cmpq	maxcode, %rax
	jle	.LBB24_8
# %bb.4:                                # %if.then5
	movl	n_bits, %eax
	addl	$1, %eax
	movl	%eax, n_bits
	movl	n_bits, %eax
	cmpl	maxbits, %eax
	jne	.LBB24_6
# %bb.5:                                # %if.then7
	movq	maxmaxcode, %rax
	movq	%rax, maxcode
	jmp	.LBB24_7
.LBB24_6:                               # %if.else
	movl	n_bits, %ecx
                                        # kill: def $cl killed $ecx
	movl	$1, %eax
	shll	%cl, %eax
	subl	$1, %eax
	cltq
	movq	%rax, maxcode
.LBB24_7:                               # %if.end
	jmp	.LBB24_8
.LBB24_8:                               # %if.end8
	cmpl	$0, clear_flg
	jle	.LBB24_10
# %bb.9:                                # %if.then11
	movl	$9, n_bits
	movq	$511, maxcode           # imm = 0x1FF
	movl	$0, clear_flg
.LBB24_10:                              # %if.end12
	movslq	n_bits, %rdx
	movq	stdin, %rcx
	movabsq	$getcode.buf, %rdi
	movl	$1, %esi
	callq	fread
	movl	%eax, getcode.size
	cmpl	$0, getcode.size
	jg	.LBB24_12
# %bb.11:                               # %if.then17
	movq	$-1, -48(%rbp)
	jmp	.LBB24_16
.LBB24_12:                              # %if.end18
	movl	$0, getcode.offset
	movl	getcode.size, %eax
	shll	$3, %eax
	movl	n_bits, %ecx
	subl	$1, %ecx
	subl	%ecx, %eax
	movl	%eax, getcode.size
.LBB24_13:                              # %if.end22
	movl	getcode.offset, %eax
	movl	%eax, -12(%rbp)
	movl	n_bits, %eax
	movl	%eax, -16(%rbp)
	movl	-12(%rbp), %eax
	sarl	$3, %eax
	movq	-24(%rbp), %rcx
	cltq
	addq	%rax, %rcx
	movq	%rcx, -24(%rbp)
	movl	-12(%rbp), %eax
	andl	$7, %eax
	movl	%eax, -12(%rbp)
	movq	-24(%rbp), %rax
	movq	%rax, %rcx
	addq	$1, %rcx
	movq	%rcx, -24(%rbp)
	movzbl	(%rax), %eax
	movl	-12(%rbp), %ecx
                                        # kill: def $cl killed $ecx
	sarl	%cl, %eax
	cltq
	movq	%rax, -32(%rbp)
	movl	$8, %eax
	movl	$8, %ecx
	subl	-12(%rbp), %ecx
	movl	-16(%rbp), %edx
	subl	%ecx, %edx
	movl	%edx, -16(%rbp)
	subl	-12(%rbp), %eax
	movl	%eax, -12(%rbp)
	cmpl	$8, -16(%rbp)
	jl	.LBB24_15
# %bb.14:                               # %if.then31
	movq	-24(%rbp), %rax
	movq	%rax, %rcx
	addq	$1, %rcx
	movq	%rcx, -24(%rbp)
	movzbl	(%rax), %eax
	movl	-12(%rbp), %ecx
                                        # kill: def $cl killed $ecx
	shll	%cl, %eax
	cltq
	orq	-32(%rbp), %rax
	movq	%rax, -32(%rbp)
	movl	-12(%rbp), %eax
	addl	$8, %eax
	movl	%eax, -12(%rbp)
	movl	-16(%rbp), %eax
	subl	$8, %eax
	movl	%eax, -16(%rbp)
.LBB24_15:                              # %if.end37
	movq	-24(%rbp), %rax
	movzbl	(%rax), %eax
	movslq	-16(%rbp), %rcx
	movzbl	rmask(,%rcx), %ecx
	andl	%ecx, %eax
	movl	-12(%rbp), %ecx
                                        # kill: def $cl killed $ecx
	shll	%cl, %eax
	cltq
	orq	-32(%rbp), %rax
	movq	%rax, -32(%rbp)
	movl	n_bits, %eax
	addl	getcode.offset, %eax
	movl	%eax, getcode.offset
	movq	-32(%rbp), %rax
	movq	%rax, -48(%rbp)
.LBB24_16:                              # %return
	movq	-48(%rbp), %rbx
	cmpl	$109889583, -36(%rbp)   # imm = 0x68CC82F
	jne	.LBB24_18
.LBB24_17:
	movq	%rbx, %rax
	addq	$40, %rsp
	popq	%rbx
	popq	%rbp
	.cfi_def_cfa %rsp, 8
	retq
.LBB24_18:                              # %func_exit
	.cfi_def_cfa %rbp, 16
	callq	detect_breach
	jmp	.LBB24_17
.Lfunc_end24:
	.size	getcode.9, .Lfunc_end24-getcode.9
	.cfi_endproc
                                        # -- End function
	.globl	copystat.10             # -- Begin function copystat.10
	.p2align	4, 0x90
	.type	copystat.10,@function
copystat.10:                            # @copystat.10
	.cfi_startproc
# %bb.0:                                # %entry
	pushq	%rbp
	.cfi_def_cfa_offset 16
	.cfi_offset %rbp, -16
	movq	%rsp, %rbp
	.cfi_def_cfa_register %rbp
	subq	$192, %rsp
	movl	$1243741898, -20(%rbp)  # imm = 0x4A21FECA
	movq	%rdi, -16(%rbp)
	movq	%rsi, -8(%rbp)
	movq	stdout, %rdi
	callq	fclose
	movq	-16(%rbp), %rdi
	leaq	-184(%rbp), %rsi
	callq	stat
	cmpl	$0, %eax
	je	.LBB25_2
# %bb.1:                                # %if.then
	movq	-16(%rbp), %rdi
	callq	perror
	jmp	.LBB25_26
.LBB25_2:                               # %if.end
	movl	-160(%rbp), %eax
	andl	$61440, %eax            # imm = 0xF000
	cmpl	$32768, %eax            # imm = 0x8000
	je	.LBB25_6
# %bb.3:                                # %if.then2
	cmpl	$0, quiet
	je	.LBB25_5
# %bb.4:                                # %if.then4
	movq	stderr, %rdi
	movq	-16(%rbp), %rdx
	movabsq	$.L.str.16, %rsi
	movb	$0, %al
	callq	fprintf
.LBB25_5:                               # %if.end6
	movq	stderr, %rdi
	movabsq	$.L.str.20, %rsi
	movb	$0, %al
	callq	fprintf
	movl	$1, exit_stat
	jmp	.LBB25_24
.LBB25_6:                               # %if.else
	cmpq	$1, -168(%rbp)
	jbe	.LBB25_10
# %bb.7:                                # %if.then9
	cmpl	$0, quiet
	je	.LBB25_9
# %bb.8:                                # %if.then11
	movq	stderr, %rdi
	movq	-16(%rbp), %rdx
	movabsq	$.L.str.16, %rsi
	movb	$0, %al
	callq	fprintf
.LBB25_9:                               # %if.end13
	movq	stderr, %rdi
	movq	-168(%rbp), %rdx
	subq	$1, %rdx
	movabsq	$.L.str.21, %rsi
	movb	$0, %al
	callq	fprintf
	movl	$1, exit_stat
	jmp	.LBB25_23
.LBB25_10:                              # %if.else16
	cmpl	$2, exit_stat
	jne	.LBB25_15
# %bb.11:                               # %land.lhs.true
	cmpl	$0, force
	jne	.LBB25_15
# %bb.12:                               # %if.then19
	cmpl	$0, quiet
	jne	.LBB25_14
# %bb.13:                               # %if.then21
	movq	stderr, %rdi
	movabsq	$.L.str.22, %rsi
	movb	$0, %al
	callq	fprintf
.LBB25_14:                              # %if.end23
	jmp	.LBB25_22
.LBB25_15:                              # %if.else24
	movl	$0, exit_stat
	movl	-160(%rbp), %eax
	andl	$4095, %eax             # imm = 0xFFF
	movl	%eax, -24(%rbp)
	movq	-8(%rbp), %rdi
	movl	-24(%rbp), %esi
	callq	chmod
	cmpl	$0, %eax
	je	.LBB25_17
# %bb.16:                               # %if.then29
	movq	-8(%rbp), %rdi
	callq	perror
.LBB25_17:                              # %if.end30
	movq	-8(%rbp), %rdi
	movl	-156(%rbp), %esi
	movl	-152(%rbp), %edx
	callq	chown
	movq	-112(%rbp), %rax
	movq	%rax, -40(%rbp)
	movq	-96(%rbp), %rax
	movq	%rax, -32(%rbp)
	movq	-8(%rbp), %rdi
	leaq	-40(%rbp), %rsi
	callq	utime
	movq	-16(%rbp), %rdi
	callq	unlink
	cmpl	$0, %eax
	je	.LBB25_19
# %bb.18:                               # %if.then36
	movq	-16(%rbp), %rdi
	callq	perror
.LBB25_19:                              # %if.end37
	cmpl	$0, quiet
	jne	.LBB25_21
# %bb.20:                               # %if.then39
	movq	stderr, %rdi
	movq	-8(%rbp), %rdx
	movabsq	$.L.str.23, %rsi
	movb	$0, %al
	callq	fprintf
.LBB25_21:                              # %if.end41
	jmp	.LBB25_26
.LBB25_22:                              # %if.end42
	jmp	.LBB25_23
.LBB25_23:                              # %if.end43
	jmp	.LBB25_24
.LBB25_24:                              # %if.end44
	movq	-8(%rbp), %rdi
	callq	unlink
	cmpl	$0, %eax
	je	.LBB25_26
# %bb.25:                               # %if.then47
	movq	-8(%rbp), %rdi
	callq	perror
.LBB25_26:                              # %if.end48
	cmpl	$1243741898, -20(%rbp)  # imm = 0x4A21FECA
	jne	.LBB25_28
.LBB25_27:
	addq	$192, %rsp
	popq	%rbp
	.cfi_def_cfa %rsp, 8
	retq
.LBB25_28:                              # %func_exit
	.cfi_def_cfa %rbp, 16
	callq	detect_breach
	jmp	.LBB25_27
.Lfunc_end25:
	.size	copystat.10, .Lfunc_end25-copystat.10
	.cfi_endproc
                                        # -- End function
	.globl	output.11               # -- Begin function output.11
	.p2align	4, 0x90
	.type	output.11,@function
output.11:                              # @output.11
	.cfi_startproc
# %bb.0:                                # %entry
	pushq	%rbp
	.cfi_def_cfa_offset 16
	.cfi_offset %rbp, -16
	movq	%rsp, %rbp
	.cfi_def_cfa_register %rbp
	subq	$32, %rsp
	movl	$2015724148, -28(%rbp)  # imm = 0x78258274
	movq	%rdi, -24(%rbp)
	movl	offset, %eax
	movl	%eax, -8(%rbp)
	movl	n_bits, %eax
	movl	%eax, -4(%rbp)
	movabsq	$buf, %rax
	movq	%rax, -16(%rbp)
	cmpq	$0, -24(%rbp)
	jl	.LBB26_24
# %bb.1:                                # %if.then
	movl	-8(%rbp), %eax
	sarl	$3, %eax
	movq	-16(%rbp), %rcx
	cltq
	addq	%rax, %rcx
	movq	%rcx, -16(%rbp)
	movl	-8(%rbp), %eax
	andl	$7, %eax
	movl	%eax, -8(%rbp)
	movq	-16(%rbp), %rax
	movsbl	(%rax), %eax
	movslq	-8(%rbp), %rcx
	movzbl	rmask(,%rcx), %ecx
	andl	%ecx, %eax
	cltq
	movq	-24(%rbp), %rdx
	movl	-8(%rbp), %ecx
                                        # kill: def $cl killed $rcx
	shlq	%cl, %rdx
	movslq	-8(%rbp), %rcx
	movzbl	lmask(,%rcx), %ecx
	andq	%rcx, %rdx
	orq	%rdx, %rax
	movq	-16(%rbp), %rcx
	movb	%al, (%rcx)
	movq	-16(%rbp), %rax
	addq	$1, %rax
	movq	%rax, -16(%rbp)
	movl	$8, %eax
	movl	$8, %ecx
	subl	-8(%rbp), %ecx
	movl	-4(%rbp), %edx
	subl	%ecx, %edx
	movl	%edx, -4(%rbp)
	subl	-8(%rbp), %eax
	movq	-24(%rbp), %rdx
	movl	%eax, %ecx
                                        # kill: def $cl killed $rcx
	sarq	%cl, %rdx
	movq	%rdx, -24(%rbp)
	cmpl	$8, -4(%rbp)
	jl	.LBB26_3
# %bb.2:                                # %if.then15
	movq	-24(%rbp), %rax
	movq	-16(%rbp), %rcx
	movq	%rcx, %rdx
	addq	$1, %rdx
	movq	%rdx, -16(%rbp)
	movb	%al, (%rcx)
	movq	-24(%rbp), %rax
	sarq	$8, %rax
	movq	%rax, -24(%rbp)
	movl	-4(%rbp), %eax
	subl	$8, %eax
	movl	%eax, -4(%rbp)
.LBB26_3:                               # %if.end
	cmpl	$0, -4(%rbp)
	je	.LBB26_5
# %bb.4:                                # %if.then20
	movq	-24(%rbp), %rax
	movq	-16(%rbp), %rcx
	movb	%al, (%rcx)
.LBB26_5:                               # %if.end22
	movl	n_bits, %eax
	addl	offset, %eax
	movl	%eax, offset
	movl	offset, %eax
	movl	n_bits, %ecx
	shll	$3, %ecx
	cmpl	%ecx, %eax
	jne	.LBB26_10
# %bb.6:                                # %if.then26
	movabsq	$buf, %rax
	movq	%rax, -16(%rbp)
	movl	n_bits, %eax
	movl	%eax, -4(%rbp)
	movslq	-4(%rbp), %rax
	addq	bytes_out, %rax
	movq	%rax, bytes_out
.LBB26_7:                               # %do.body
                                        # =>This Inner Loop Header: Depth=1
	movq	-16(%rbp), %rax
	movq	%rax, %rcx
	addq	$1, %rcx
	movq	%rcx, -16(%rbp)
	movsbl	(%rax), %edi
	callq	putchar
# %bb.8:                                # %do.cond
                                        #   in Loop: Header=BB26_7 Depth=1
	movl	-4(%rbp), %eax
	addl	$-1, %eax
	movl	%eax, -4(%rbp)
	cmpl	$0, %eax
	jne	.LBB26_7
# %bb.9:                                # %do.end
	movl	$0, offset
.LBB26_10:                              # %if.end32
	movq	free_ent, %rax
	cmpq	maxcode, %rax
	jg	.LBB26_12
# %bb.11:                               # %lor.lhs.false
	cmpl	$0, clear_flg
	jle	.LBB26_23
.LBB26_12:                              # %if.then37
	cmpl	$0, offset
	jle	.LBB26_16
# %bb.13:                               # %if.then40
	movslq	n_bits, %rdx
	movq	stdout, %rcx
	movabsq	$buf, %rdi
	movl	$1, %esi
	callq	fwrite
	movslq	n_bits, %rcx
	cmpq	%rcx, %rax
	je	.LBB26_15
# %bb.14:                               # %if.then46
	callq	writeerr
.LBB26_15:                              # %if.end47
	movslq	n_bits, %rax
	addq	bytes_out, %rax
	movq	%rax, bytes_out
.LBB26_16:                              # %if.end50
	movl	$0, offset
	cmpl	$0, clear_flg
	je	.LBB26_18
# %bb.17:                               # %if.then52
	movl	$9, n_bits
	movq	$511, maxcode           # imm = 0x1FF
	movl	$0, clear_flg
	jmp	.LBB26_22
.LBB26_18:                              # %if.else
	movl	n_bits, %eax
	addl	$1, %eax
	movl	%eax, n_bits
	movl	n_bits, %eax
	cmpl	maxbits, %eax
	jne	.LBB26_20
# %bb.19:                               # %if.then55
	movq	maxmaxcode, %rax
	movq	%rax, maxcode
	jmp	.LBB26_21
.LBB26_20:                              # %if.else56
	movl	n_bits, %ecx
                                        # kill: def $cl killed $ecx
	movl	$1, %eax
	shll	%cl, %eax
	subl	$1, %eax
	cltq
	movq	%rax, maxcode
.LBB26_21:                              # %if.end60
	jmp	.LBB26_22
.LBB26_22:                              # %if.end61
	jmp	.LBB26_23
.LBB26_23:                              # %if.end62
	jmp	.LBB26_29
.LBB26_24:                              # %if.else63
	cmpl	$0, offset
	jle	.LBB26_26
# %bb.25:                               # %if.then66
	movl	offset, %eax
	addl	$7, %eax
	cltd
	movl	$8, %ecx
	idivl	%ecx
	movslq	%eax, %rdx
	movq	stdout, %rcx
	movabsq	$buf, %rdi
	movl	$1, %esi
	callq	fwrite
.LBB26_26:                              # %if.end70
	movl	offset, %eax
	addl	$7, %eax
	cltd
	movl	$8, %ecx
	idivl	%ecx
	cltq
	addq	bytes_out, %rax
	movq	%rax, bytes_out
	movl	$0, offset
	movq	stdout, %rdi
	callq	fflush
	movq	stdout, %rdi
	callq	ferror
	cmpl	$0, %eax
	je	.LBB26_28
# %bb.27:                               # %if.then78
	callq	writeerr
.LBB26_28:                              # %if.end79
	jmp	.LBB26_29
.LBB26_29:                              # %if.end80
	cmpl	$2015724148, -28(%rbp)  # imm = 0x78258274
	jne	.LBB26_31
.LBB26_30:
	addq	$32, %rsp
	popq	%rbp
	.cfi_def_cfa %rsp, 8
	retq
.LBB26_31:                              # %func_exit
	.cfi_def_cfa %rbp, 16
	callq	detect_breach
	jmp	.LBB26_30
.Lfunc_end26:
	.size	output.11, .Lfunc_end26-output.11
	.cfi_endproc
                                        # -- End function
	.globl	copystat.12             # -- Begin function copystat.12
	.p2align	4, 0x90
	.type	copystat.12,@function
copystat.12:                            # @copystat.12
	.cfi_startproc
# %bb.0:                                # %entry
	pushq	%rbp
	.cfi_def_cfa_offset 16
	.cfi_offset %rbp, -16
	movq	%rsp, %rbp
	.cfi_def_cfa_register %rbp
	subq	$192, %rsp
	movl	$195930051, -24(%rbp)   # imm = 0xBADA7C3
	movq	%rdi, -16(%rbp)
	movq	%rsi, -8(%rbp)
	movq	stdout, %rdi
	callq	fclose
	movq	-16(%rbp), %rdi
	leaq	-184(%rbp), %rsi
	callq	stat
	cmpl	$0, %eax
	je	.LBB27_2
# %bb.1:                                # %if.then
	movq	-16(%rbp), %rdi
	callq	perror
	jmp	.LBB27_26
.LBB27_2:                               # %if.end
	movl	-160(%rbp), %eax
	andl	$61440, %eax            # imm = 0xF000
	cmpl	$32768, %eax            # imm = 0x8000
	je	.LBB27_6
# %bb.3:                                # %if.then2
	cmpl	$0, quiet
	je	.LBB27_5
# %bb.4:                                # %if.then4
	movq	stderr, %rdi
	movq	-16(%rbp), %rdx
	movabsq	$.L.str.16, %rsi
	movb	$0, %al
	callq	fprintf
.LBB27_5:                               # %if.end6
	movq	stderr, %rdi
	movabsq	$.L.str.20, %rsi
	movb	$0, %al
	callq	fprintf
	movl	$1, exit_stat
	jmp	.LBB27_24
.LBB27_6:                               # %if.else
	cmpq	$1, -168(%rbp)
	jbe	.LBB27_10
# %bb.7:                                # %if.then9
	cmpl	$0, quiet
	je	.LBB27_9
# %bb.8:                                # %if.then11
	movq	stderr, %rdi
	movq	-16(%rbp), %rdx
	movabsq	$.L.str.16, %rsi
	movb	$0, %al
	callq	fprintf
.LBB27_9:                               # %if.end13
	movq	stderr, %rdi
	movq	-168(%rbp), %rdx
	subq	$1, %rdx
	movabsq	$.L.str.21, %rsi
	movb	$0, %al
	callq	fprintf
	movl	$1, exit_stat
	jmp	.LBB27_23
.LBB27_10:                              # %if.else16
	cmpl	$2, exit_stat
	jne	.LBB27_15
# %bb.11:                               # %land.lhs.true
	cmpl	$0, force
	jne	.LBB27_15
# %bb.12:                               # %if.then19
	cmpl	$0, quiet
	jne	.LBB27_14
# %bb.13:                               # %if.then21
	movq	stderr, %rdi
	movabsq	$.L.str.22, %rsi
	movb	$0, %al
	callq	fprintf
.LBB27_14:                              # %if.end23
	jmp	.LBB27_22
.LBB27_15:                              # %if.else24
	movl	$0, exit_stat
	movl	-160(%rbp), %eax
	andl	$4095, %eax             # imm = 0xFFF
	movl	%eax, -20(%rbp)
	movq	-8(%rbp), %rdi
	movl	-20(%rbp), %esi
	callq	chmod
	cmpl	$0, %eax
	je	.LBB27_17
# %bb.16:                               # %if.then29
	movq	-8(%rbp), %rdi
	callq	perror
.LBB27_17:                              # %if.end30
	movq	-8(%rbp), %rdi
	movl	-156(%rbp), %esi
	movl	-152(%rbp), %edx
	callq	chown
	movq	-112(%rbp), %rax
	movq	%rax, -40(%rbp)
	movq	-96(%rbp), %rax
	movq	%rax, -32(%rbp)
	movq	-8(%rbp), %rdi
	leaq	-40(%rbp), %rsi
	callq	utime
	movq	-16(%rbp), %rdi
	callq	unlink
	cmpl	$0, %eax
	je	.LBB27_19
# %bb.18:                               # %if.then36
	movq	-16(%rbp), %rdi
	callq	perror
.LBB27_19:                              # %if.end37
	cmpl	$0, quiet
	jne	.LBB27_21
# %bb.20:                               # %if.then39
	movq	stderr, %rdi
	movq	-8(%rbp), %rdx
	movabsq	$.L.str.23, %rsi
	movb	$0, %al
	callq	fprintf
.LBB27_21:                              # %if.end41
	jmp	.LBB27_26
.LBB27_22:                              # %if.end42
	jmp	.LBB27_23
.LBB27_23:                              # %if.end43
	jmp	.LBB27_24
.LBB27_24:                              # %if.end44
	movq	-8(%rbp), %rdi
	callq	unlink
	cmpl	$0, %eax
	je	.LBB27_26
# %bb.25:                               # %if.then47
	movq	-8(%rbp), %rdi
	callq	perror
.LBB27_26:                              # %if.end48
	cmpl	$195930051, -24(%rbp)   # imm = 0xBADA7C3
	jne	.LBB27_28
.LBB27_27:
	addq	$192, %rsp
	popq	%rbp
	.cfi_def_cfa %rsp, 8
	retq
.LBB27_28:                              # %func_exit
	.cfi_def_cfa %rbp, 16
	callq	detect_breach
	jmp	.LBB27_27
.Lfunc_end27:
	.size	copystat.12, .Lfunc_end27-copystat.12
	.cfi_endproc
                                        # -- End function
	.globl	scott_hack.13           # -- Begin function scott_hack.13
	.p2align	4, 0x90
	.type	scott_hack.13,@function
scott_hack.13:                          # @scott_hack.13
	.cfi_startproc
# %bb.0:                                # %entry
	pushq	%rbp
	.cfi_def_cfa_offset 16
	.cfi_offset %rbp, -16
	movq	%rsp, %rbp
	.cfi_def_cfa_register %rbp
	pushq	%rbx
	subq	$40, %rsp
	.cfi_offset %rbx, -24
	movl	$920381529, -24(%rbp)   # imm = 0x36DBE859
	movq	%rdi, -16(%rbp)
	movq	%rsi, -48(%rbp)
	movl	%edx, -32(%rbp)
	movl	%ecx, -28(%rbp)
	movq	%r8, -40(%rbp)
.LBB28_1:                               # %probeSH
                                        # =>This Inner Loop Header: Depth=1
	movslq	-32(%rbp), %rax
	movq	-16(%rbp), %rcx
	movq	(%rcx), %rdx
	subq	%rax, %rdx
	movq	%rdx, (%rcx)
	cmpq	$0, %rdx
	jge	.LBB28_3
# %bb.2:                                # %if.then
                                        #   in Loop: Header=BB28_1 Depth=1
	movslq	-28(%rbp), %rax
	movq	-16(%rbp), %rcx
	addq	(%rcx), %rax
	movq	%rax, (%rcx)
.LBB28_3:                               # %if.end
                                        #   in Loop: Header=BB28_1 Depth=1
	movq	-16(%rbp), %rax
	movq	(%rax), %rax
	movq	htab(,%rax,8), %rax
	cmpq	-48(%rbp), %rax
	jne	.LBB28_5
# %bb.4:                                # %if.then5
	movq	-16(%rbp), %rax
	movq	(%rax), %rax
	movzwl	codetab(,%rax,2), %eax
	movq	-40(%rbp), %rcx
	movq	%rax, (%rcx)
	movl	$1, -20(%rbp)
	jmp	.LBB28_8
.LBB28_5:                               # %if.end8
                                        #   in Loop: Header=BB28_1 Depth=1
	movq	-16(%rbp), %rax
	movq	(%rax), %rax
	cmpq	$0, htab(,%rax,8)
	jle	.LBB28_7
# %bb.6:                                # %if.then12
                                        #   in Loop: Header=BB28_1 Depth=1
	jmp	.LBB28_1
.LBB28_7:                               # %if.end13
	movl	$0, -20(%rbp)
.LBB28_8:                               # %return
	movl	-20(%rbp), %ebx
	cmpl	$920381529, -24(%rbp)   # imm = 0x36DBE859
	jne	.LBB28_10
.LBB28_9:
	movl	%ebx, %eax
	addq	$40, %rsp
	popq	%rbx
	popq	%rbp
	.cfi_def_cfa %rsp, 8
	retq
.LBB28_10:                              # %func_exit
	.cfi_def_cfa %rbp, 16
	callq	detect_breach
	jmp	.LBB28_9
.Lfunc_end28:
	.size	scott_hack.13, .Lfunc_end28-scott_hack.13
	.cfi_endproc
                                        # -- End function
	.globl	decompress.14           # -- Begin function decompress.14
	.p2align	4, 0x90
	.type	decompress.14,@function
decompress.14:                          # @decompress.14
	.cfi_startproc
# %bb.0:                                # %entry
	pushq	%rbp
	.cfi_def_cfa_offset 16
	.cfi_offset %rbp, -16
	movq	%rsp, %rbp
	.cfi_def_cfa_register %rbp
	subq	$48, %rsp
	movl	$1719858426, -36(%rbp)  # imm = 0x6682F4FA
	movl	$9, n_bits
	movq	$511, maxcode           # imm = 0x1FF
	movq	$255, -8(%rbp)
.LBB29_1:                               # %for.cond
                                        # =>This Inner Loop Header: Depth=1
	cmpq	$0, -8(%rbp)
	jl	.LBB29_4
# %bb.2:                                # %for.body
                                        #   in Loop: Header=BB29_1 Depth=1
	movq	-8(%rbp), %rax
	movw	$0, codetab(,%rax,2)
	movq	-8(%rbp), %rax
	movq	-8(%rbp), %rcx
	movb	%al, htab(,%rcx)
# %bb.3:                                # %for.inc
                                        #   in Loop: Header=BB29_1 Depth=1
	movq	-8(%rbp), %rax
	addq	$-1, %rax
	movq	%rax, -8(%rbp)
	jmp	.LBB29_1
.LBB29_4:                               # %for.end
	movl	block_compress, %eax
	cmpl	$0, %eax
	movl	$257, %eax              # imm = 0x101
	movl	$256, %ecx              # imm = 0x100
	cmovnel	%eax, %ecx
	movslq	%ecx, %rax
	movq	%rax, free_ent
	callq	getcode
	movq	%rax, -32(%rbp)
	movl	%eax, -20(%rbp)
	cmpq	$-1, -32(%rbp)
	jne	.LBB29_6
# %bb.5:                                # %if.then
	jmp	.LBB29_33
.LBB29_6:                               # %if.end
	movl	-20(%rbp), %eax
	movsbl	%al, %edi
	callq	putchar
	movq	stdout, %rdi
	callq	ferror
	cmpl	$0, %eax
	je	.LBB29_8
# %bb.7:                                # %if.then11
	callq	writeerr
.LBB29_8:                               # %if.end12
	movabsq	$htab, %rax
	addq	$65536, %rax            # imm = 0x10000
	movq	%rax, -16(%rbp)
.LBB29_9:                               # %while.cond
                                        # =>This Loop Header: Depth=1
                                        #     Child Loop BB29_13 Depth 2
                                        #     Child Loop BB29_22 Depth 2
                                        #     Child Loop BB29_25 Depth 2
	callq	getcode
	movq	%rax, -8(%rbp)
	cmpq	$-1, %rax
	jle	.LBB29_30
# %bb.10:                               # %while.body
                                        #   in Loop: Header=BB29_9 Depth=1
	cmpq	$256, -8(%rbp)          # imm = 0x100
	jne	.LBB29_19
# %bb.11:                               # %land.lhs.true
                                        #   in Loop: Header=BB29_9 Depth=1
	cmpl	$0, block_compress
	je	.LBB29_19
# %bb.12:                               # %if.then19
                                        #   in Loop: Header=BB29_9 Depth=1
	movq	$255, -8(%rbp)
.LBB29_13:                              # %for.cond20
                                        #   Parent Loop BB29_9 Depth=1
                                        # =>  This Inner Loop Header: Depth=2
	cmpq	$0, -8(%rbp)
	jl	.LBB29_16
# %bb.14:                               # %for.body23
                                        #   in Loop: Header=BB29_13 Depth=2
	movq	-8(%rbp), %rax
	movw	$0, codetab(,%rax,2)
# %bb.15:                               # %for.inc25
                                        #   in Loop: Header=BB29_13 Depth=2
	movq	-8(%rbp), %rax
	addq	$-1, %rax
	movq	%rax, -8(%rbp)
	jmp	.LBB29_13
.LBB29_16:                              # %for.end27
                                        #   in Loop: Header=BB29_9 Depth=1
	movl	$1, clear_flg
	movq	$256, free_ent          # imm = 0x100
	callq	getcode
	movq	%rax, -8(%rbp)
	cmpq	$-1, %rax
	jne	.LBB29_18
# %bb.17:                               # %if.then31
	jmp	.LBB29_31
.LBB29_18:                              # %if.end32
                                        #   in Loop: Header=BB29_9 Depth=1
	jmp	.LBB29_19
.LBB29_19:                              # %if.end33
                                        #   in Loop: Header=BB29_9 Depth=1
	movq	-8(%rbp), %rax
	movq	%rax, -48(%rbp)
	movq	-8(%rbp), %rax
	cmpq	free_ent, %rax
	jl	.LBB29_21
# %bb.20:                               # %if.then36
                                        #   in Loop: Header=BB29_9 Depth=1
	movl	-20(%rbp), %eax
	movq	-16(%rbp), %rcx
	movq	%rcx, %rdx
	addq	$1, %rdx
	movq	%rdx, -16(%rbp)
	movb	%al, (%rcx)
	movq	-32(%rbp), %rax
	movq	%rax, -8(%rbp)
.LBB29_21:                              # %if.end38
                                        #   in Loop: Header=BB29_9 Depth=1
	jmp	.LBB29_22
.LBB29_22:                              # %while.cond39
                                        #   Parent Loop BB29_9 Depth=1
                                        # =>  This Inner Loop Header: Depth=2
	cmpq	$256, -8(%rbp)          # imm = 0x100
	jl	.LBB29_24
# %bb.23:                               # %while.body42
                                        #   in Loop: Header=BB29_22 Depth=2
	movq	-8(%rbp), %rax
	movb	htab(,%rax), %al
	movq	-16(%rbp), %rcx
	movq	%rcx, %rdx
	addq	$1, %rdx
	movq	%rdx, -16(%rbp)
	movb	%al, (%rcx)
	movq	-8(%rbp), %rax
	movzwl	codetab(,%rax,2), %eax
	movq	%rax, -8(%rbp)
	jmp	.LBB29_22
.LBB29_24:                              # %while.end
                                        #   in Loop: Header=BB29_9 Depth=1
	movq	-8(%rbp), %rax
	movzbl	htab(,%rax), %eax
	movl	%eax, -20(%rbp)
	movq	-16(%rbp), %rcx
	movq	%rcx, %rdx
	addq	$1, %rdx
	movq	%rdx, -16(%rbp)
	movb	%al, (%rcx)
.LBB29_25:                              # %do.body
                                        #   Parent Loop BB29_9 Depth=1
                                        # =>  This Inner Loop Header: Depth=2
	movq	-16(%rbp), %rax
	movq	%rax, %rcx
	addq	$-1, %rcx
	movq	%rcx, -16(%rbp)
	movzbl	-1(%rax), %edi
	callq	putchar
# %bb.26:                               # %do.cond
                                        #   in Loop: Header=BB29_25 Depth=2
	movabsq	$htab, %rax
	addq	$65536, %rax            # imm = 0x10000
	cmpq	%rax, -16(%rbp)
	ja	.LBB29_25
# %bb.27:                               # %do.end
                                        #   in Loop: Header=BB29_9 Depth=1
	movq	free_ent, %rax
	movq	%rax, -8(%rbp)
	cmpq	maxmaxcode, %rax
	jge	.LBB29_29
# %bb.28:                               # %if.then58
                                        #   in Loop: Header=BB29_9 Depth=1
	movq	-32(%rbp), %rax
	movq	-8(%rbp), %rcx
	movw	%ax, codetab(,%rcx,2)
	movl	-20(%rbp), %eax
	movq	-8(%rbp), %rcx
	movb	%al, htab(,%rcx)
	movq	-8(%rbp), %rax
	addq	$1, %rax
	movq	%rax, free_ent
.LBB29_29:                              # %if.end63
                                        #   in Loop: Header=BB29_9 Depth=1
	movq	-48(%rbp), %rax
	movq	%rax, -32(%rbp)
	jmp	.LBB29_9
.LBB29_30:                              # %while.end64.loopexit
	jmp	.LBB29_31
.LBB29_31:                              # %while.end64
	movq	stdout, %rdi
	callq	fflush
	movq	stdout, %rdi
	callq	ferror
	cmpl	$0, %eax
	je	.LBB29_33
# %bb.32:                               # %if.then68
	callq	writeerr
.LBB29_33:                              # %if.end69
	cmpl	$1719858426, -36(%rbp)  # imm = 0x6682F4FA
	jne	.LBB29_35
.LBB29_34:
	addq	$48, %rsp
	popq	%rbp
	.cfi_def_cfa %rsp, 8
	retq
.LBB29_35:                              # %func_exit
	.cfi_def_cfa %rbp, 16
	callq	detect_breach
	jmp	.LBB29_34
.Lfunc_end29:
	.size	decompress.14, .Lfunc_end29-decompress.14
	.cfi_endproc
                                        # -- End function
	.globl	scott_hack.15           # -- Begin function scott_hack.15
	.p2align	4, 0x90
	.type	scott_hack.15,@function
scott_hack.15:                          # @scott_hack.15
	.cfi_startproc
# %bb.0:                                # %entry
	pushq	%rbp
	.cfi_def_cfa_offset 16
	.cfi_offset %rbp, -16
	movq	%rsp, %rbp
	.cfi_def_cfa_register %rbp
	pushq	%rbx
	subq	$40, %rsp
	.cfi_offset %rbx, -24
	movl	$1582136192, -28(%rbp)  # imm = 0x5E4D7B80
	movq	%rdi, -16(%rbp)
	movq	%rsi, -40(%rbp)
	movl	%edx, -32(%rbp)
	movl	%ecx, -24(%rbp)
	movq	%r8, -48(%rbp)
.LBB30_1:                               # %probeSH
                                        # =>This Inner Loop Header: Depth=1
	movslq	-32(%rbp), %rax
	movq	-16(%rbp), %rcx
	movq	(%rcx), %rdx
	subq	%rax, %rdx
	movq	%rdx, (%rcx)
	cmpq	$0, %rdx
	jge	.LBB30_3
# %bb.2:                                # %if.then
                                        #   in Loop: Header=BB30_1 Depth=1
	movslq	-24(%rbp), %rax
	movq	-16(%rbp), %rcx
	addq	(%rcx), %rax
	movq	%rax, (%rcx)
.LBB30_3:                               # %if.end
                                        #   in Loop: Header=BB30_1 Depth=1
	movq	-16(%rbp), %rax
	movq	(%rax), %rax
	movq	htab(,%rax,8), %rax
	cmpq	-40(%rbp), %rax
	jne	.LBB30_5
# %bb.4:                                # %if.then5
	movq	-16(%rbp), %rax
	movq	(%rax), %rax
	movzwl	codetab(,%rax,2), %eax
	movq	-48(%rbp), %rcx
	movq	%rax, (%rcx)
	movl	$1, -20(%rbp)
	jmp	.LBB30_8
.LBB30_5:                               # %if.end8
                                        #   in Loop: Header=BB30_1 Depth=1
	movq	-16(%rbp), %rax
	movq	(%rax), %rax
	cmpq	$0, htab(,%rax,8)
	jle	.LBB30_7
# %bb.6:                                # %if.then12
                                        #   in Loop: Header=BB30_1 Depth=1
	jmp	.LBB30_1
.LBB30_7:                               # %if.end13
	movl	$0, -20(%rbp)
.LBB30_8:                               # %return
	movl	-20(%rbp), %ebx
	cmpl	$1582136192, -28(%rbp)  # imm = 0x5E4D7B80
	jne	.LBB30_10
.LBB30_9:
	movl	%ebx, %eax
	addq	$40, %rsp
	popq	%rbx
	popq	%rbp
	.cfi_def_cfa %rsp, 8
	retq
.LBB30_10:                              # %func_exit
	.cfi_def_cfa %rbp, 16
	callq	detect_breach
	jmp	.LBB30_9
.Lfunc_end30:
	.size	scott_hack.15, .Lfunc_end30-scott_hack.15
	.cfi_endproc
                                        # -- End function
	.globl	output.16               # -- Begin function output.16
	.p2align	4, 0x90
	.type	output.16,@function
output.16:                              # @output.16
	.cfi_startproc
# %bb.0:                                # %entry
	pushq	%rbp
	.cfi_def_cfa_offset 16
	.cfi_offset %rbp, -16
	movq	%rsp, %rbp
	.cfi_def_cfa_register %rbp
	subq	$32, %rsp
	movl	$705445105, -28(%rbp)   # imm = 0x2A0C3CF1
	movq	%rdi, -24(%rbp)
	movl	offset, %eax
	movl	%eax, -8(%rbp)
	movl	n_bits, %eax
	movl	%eax, -4(%rbp)
	movabsq	$buf, %rax
	movq	%rax, -16(%rbp)
	cmpq	$0, -24(%rbp)
	jl	.LBB31_24
# %bb.1:                                # %if.then
	movl	-8(%rbp), %eax
	sarl	$3, %eax
	movq	-16(%rbp), %rcx
	cltq
	addq	%rax, %rcx
	movq	%rcx, -16(%rbp)
	movl	-8(%rbp), %eax
	andl	$7, %eax
	movl	%eax, -8(%rbp)
	movq	-16(%rbp), %rax
	movsbl	(%rax), %eax
	movslq	-8(%rbp), %rcx
	movzbl	rmask(,%rcx), %ecx
	andl	%ecx, %eax
	cltq
	movq	-24(%rbp), %rdx
	movl	-8(%rbp), %ecx
                                        # kill: def $cl killed $rcx
	shlq	%cl, %rdx
	movslq	-8(%rbp), %rcx
	movzbl	lmask(,%rcx), %ecx
	andq	%rcx, %rdx
	orq	%rdx, %rax
	movq	-16(%rbp), %rcx
	movb	%al, (%rcx)
	movq	-16(%rbp), %rax
	addq	$1, %rax
	movq	%rax, -16(%rbp)
	movl	$8, %eax
	movl	$8, %ecx
	subl	-8(%rbp), %ecx
	movl	-4(%rbp), %edx
	subl	%ecx, %edx
	movl	%edx, -4(%rbp)
	subl	-8(%rbp), %eax
	movq	-24(%rbp), %rdx
	movl	%eax, %ecx
                                        # kill: def $cl killed $rcx
	sarq	%cl, %rdx
	movq	%rdx, -24(%rbp)
	cmpl	$8, -4(%rbp)
	jl	.LBB31_3
# %bb.2:                                # %if.then15
	movq	-24(%rbp), %rax
	movq	-16(%rbp), %rcx
	movq	%rcx, %rdx
	addq	$1, %rdx
	movq	%rdx, -16(%rbp)
	movb	%al, (%rcx)
	movq	-24(%rbp), %rax
	sarq	$8, %rax
	movq	%rax, -24(%rbp)
	movl	-4(%rbp), %eax
	subl	$8, %eax
	movl	%eax, -4(%rbp)
.LBB31_3:                               # %if.end
	cmpl	$0, -4(%rbp)
	je	.LBB31_5
# %bb.4:                                # %if.then20
	movq	-24(%rbp), %rax
	movq	-16(%rbp), %rcx
	movb	%al, (%rcx)
.LBB31_5:                               # %if.end22
	movl	n_bits, %eax
	addl	offset, %eax
	movl	%eax, offset
	movl	offset, %eax
	movl	n_bits, %ecx
	shll	$3, %ecx
	cmpl	%ecx, %eax
	jne	.LBB31_10
# %bb.6:                                # %if.then26
	movabsq	$buf, %rax
	movq	%rax, -16(%rbp)
	movl	n_bits, %eax
	movl	%eax, -4(%rbp)
	movslq	-4(%rbp), %rax
	addq	bytes_out, %rax
	movq	%rax, bytes_out
.LBB31_7:                               # %do.body
                                        # =>This Inner Loop Header: Depth=1
	movq	-16(%rbp), %rax
	movq	%rax, %rcx
	addq	$1, %rcx
	movq	%rcx, -16(%rbp)
	movsbl	(%rax), %edi
	callq	putchar
# %bb.8:                                # %do.cond
                                        #   in Loop: Header=BB31_7 Depth=1
	movl	-4(%rbp), %eax
	addl	$-1, %eax
	movl	%eax, -4(%rbp)
	cmpl	$0, %eax
	jne	.LBB31_7
# %bb.9:                                # %do.end
	movl	$0, offset
.LBB31_10:                              # %if.end32
	movq	free_ent, %rax
	cmpq	maxcode, %rax
	jg	.LBB31_12
# %bb.11:                               # %lor.lhs.false
	cmpl	$0, clear_flg
	jle	.LBB31_23
.LBB31_12:                              # %if.then37
	cmpl	$0, offset
	jle	.LBB31_16
# %bb.13:                               # %if.then40
	movslq	n_bits, %rdx
	movq	stdout, %rcx
	movabsq	$buf, %rdi
	movl	$1, %esi
	callq	fwrite
	movslq	n_bits, %rcx
	cmpq	%rcx, %rax
	je	.LBB31_15
# %bb.14:                               # %if.then46
	callq	writeerr
.LBB31_15:                              # %if.end47
	movslq	n_bits, %rax
	addq	bytes_out, %rax
	movq	%rax, bytes_out
.LBB31_16:                              # %if.end50
	movl	$0, offset
	cmpl	$0, clear_flg
	je	.LBB31_18
# %bb.17:                               # %if.then52
	movl	$9, n_bits
	movq	$511, maxcode           # imm = 0x1FF
	movl	$0, clear_flg
	jmp	.LBB31_22
.LBB31_18:                              # %if.else
	movl	n_bits, %eax
	addl	$1, %eax
	movl	%eax, n_bits
	movl	n_bits, %eax
	cmpl	maxbits, %eax
	jne	.LBB31_20
# %bb.19:                               # %if.then55
	movq	maxmaxcode, %rax
	movq	%rax, maxcode
	jmp	.LBB31_21
.LBB31_20:                              # %if.else56
	movl	n_bits, %ecx
                                        # kill: def $cl killed $ecx
	movl	$1, %eax
	shll	%cl, %eax
	subl	$1, %eax
	cltq
	movq	%rax, maxcode
.LBB31_21:                              # %if.end60
	jmp	.LBB31_22
.LBB31_22:                              # %if.end61
	jmp	.LBB31_23
.LBB31_23:                              # %if.end62
	jmp	.LBB31_29
.LBB31_24:                              # %if.else63
	cmpl	$0, offset
	jle	.LBB31_26
# %bb.25:                               # %if.then66
	movl	offset, %eax
	addl	$7, %eax
	cltd
	movl	$8, %ecx
	idivl	%ecx
	movslq	%eax, %rdx
	movq	stdout, %rcx
	movabsq	$buf, %rdi
	movl	$1, %esi
	callq	fwrite
.LBB31_26:                              # %if.end70
	movl	offset, %eax
	addl	$7, %eax
	cltd
	movl	$8, %ecx
	idivl	%ecx
	cltq
	addq	bytes_out, %rax
	movq	%rax, bytes_out
	movl	$0, offset
	movq	stdout, %rdi
	callq	fflush
	movq	stdout, %rdi
	callq	ferror
	cmpl	$0, %eax
	je	.LBB31_28
# %bb.27:                               # %if.then78
	callq	writeerr
.LBB31_28:                              # %if.end79
	jmp	.LBB31_29
.LBB31_29:                              # %if.end80
	cmpl	$705445105, -28(%rbp)   # imm = 0x2A0C3CF1
	jne	.LBB31_31
.LBB31_30:
	addq	$32, %rsp
	popq	%rbp
	.cfi_def_cfa %rsp, 8
	retq
.LBB31_31:                              # %func_exit
	.cfi_def_cfa %rbp, 16
	callq	detect_breach
	jmp	.LBB31_30
.Lfunc_end31:
	.size	output.16, .Lfunc_end31-output.16
	.cfi_endproc
                                        # -- End function
	.globl	output.17               # -- Begin function output.17
	.p2align	4, 0x90
	.type	output.17,@function
output.17:                              # @output.17
	.cfi_startproc
# %bb.0:                                # %entry
	pushq	%rbp
	.cfi_def_cfa_offset 16
	.cfi_offset %rbp, -16
	movq	%rsp, %rbp
	.cfi_def_cfa_register %rbp
	subq	$32, %rsp
	movl	$1152717123, -28(%rbp)  # imm = 0x44B51143
	movq	%rdi, -24(%rbp)
	movl	offset, %eax
	movl	%eax, -8(%rbp)
	movl	n_bits, %eax
	movl	%eax, -4(%rbp)
	movabsq	$buf, %rax
	movq	%rax, -16(%rbp)
	cmpq	$0, -24(%rbp)
	jl	.LBB32_24
# %bb.1:                                # %if.then
	movl	-8(%rbp), %eax
	sarl	$3, %eax
	movq	-16(%rbp), %rcx
	cltq
	addq	%rax, %rcx
	movq	%rcx, -16(%rbp)
	movl	-8(%rbp), %eax
	andl	$7, %eax
	movl	%eax, -8(%rbp)
	movq	-16(%rbp), %rax
	movsbl	(%rax), %eax
	movslq	-8(%rbp), %rcx
	movzbl	rmask(,%rcx), %ecx
	andl	%ecx, %eax
	cltq
	movq	-24(%rbp), %rdx
	movl	-8(%rbp), %ecx
                                        # kill: def $cl killed $rcx
	shlq	%cl, %rdx
	movslq	-8(%rbp), %rcx
	movzbl	lmask(,%rcx), %ecx
	andq	%rcx, %rdx
	orq	%rdx, %rax
	movq	-16(%rbp), %rcx
	movb	%al, (%rcx)
	movq	-16(%rbp), %rax
	addq	$1, %rax
	movq	%rax, -16(%rbp)
	movl	$8, %eax
	movl	$8, %ecx
	subl	-8(%rbp), %ecx
	movl	-4(%rbp), %edx
	subl	%ecx, %edx
	movl	%edx, -4(%rbp)
	subl	-8(%rbp), %eax
	movq	-24(%rbp), %rdx
	movl	%eax, %ecx
                                        # kill: def $cl killed $rcx
	sarq	%cl, %rdx
	movq	%rdx, -24(%rbp)
	cmpl	$8, -4(%rbp)
	jl	.LBB32_3
# %bb.2:                                # %if.then15
	movq	-24(%rbp), %rax
	movq	-16(%rbp), %rcx
	movq	%rcx, %rdx
	addq	$1, %rdx
	movq	%rdx, -16(%rbp)
	movb	%al, (%rcx)
	movq	-24(%rbp), %rax
	sarq	$8, %rax
	movq	%rax, -24(%rbp)
	movl	-4(%rbp), %eax
	subl	$8, %eax
	movl	%eax, -4(%rbp)
.LBB32_3:                               # %if.end
	cmpl	$0, -4(%rbp)
	je	.LBB32_5
# %bb.4:                                # %if.then20
	movq	-24(%rbp), %rax
	movq	-16(%rbp), %rcx
	movb	%al, (%rcx)
.LBB32_5:                               # %if.end22
	movl	n_bits, %eax
	addl	offset, %eax
	movl	%eax, offset
	movl	offset, %eax
	movl	n_bits, %ecx
	shll	$3, %ecx
	cmpl	%ecx, %eax
	jne	.LBB32_10
# %bb.6:                                # %if.then26
	movabsq	$buf, %rax
	movq	%rax, -16(%rbp)
	movl	n_bits, %eax
	movl	%eax, -4(%rbp)
	movslq	-4(%rbp), %rax
	addq	bytes_out, %rax
	movq	%rax, bytes_out
.LBB32_7:                               # %do.body
                                        # =>This Inner Loop Header: Depth=1
	movq	-16(%rbp), %rax
	movq	%rax, %rcx
	addq	$1, %rcx
	movq	%rcx, -16(%rbp)
	movsbl	(%rax), %edi
	callq	putchar
# %bb.8:                                # %do.cond
                                        #   in Loop: Header=BB32_7 Depth=1
	movl	-4(%rbp), %eax
	addl	$-1, %eax
	movl	%eax, -4(%rbp)
	cmpl	$0, %eax
	jne	.LBB32_7
# %bb.9:                                # %do.end
	movl	$0, offset
.LBB32_10:                              # %if.end32
	movq	free_ent, %rax
	cmpq	maxcode, %rax
	jg	.LBB32_12
# %bb.11:                               # %lor.lhs.false
	cmpl	$0, clear_flg
	jle	.LBB32_23
.LBB32_12:                              # %if.then37
	cmpl	$0, offset
	jle	.LBB32_16
# %bb.13:                               # %if.then40
	movslq	n_bits, %rdx
	movq	stdout, %rcx
	movabsq	$buf, %rdi
	movl	$1, %esi
	callq	fwrite
	movslq	n_bits, %rcx
	cmpq	%rcx, %rax
	je	.LBB32_15
# %bb.14:                               # %if.then46
	callq	writeerr
.LBB32_15:                              # %if.end47
	movslq	n_bits, %rax
	addq	bytes_out, %rax
	movq	%rax, bytes_out
.LBB32_16:                              # %if.end50
	movl	$0, offset
	cmpl	$0, clear_flg
	je	.LBB32_18
# %bb.17:                               # %if.then52
	movl	$9, n_bits
	movq	$511, maxcode           # imm = 0x1FF
	movl	$0, clear_flg
	jmp	.LBB32_22
.LBB32_18:                              # %if.else
	movl	n_bits, %eax
	addl	$1, %eax
	movl	%eax, n_bits
	movl	n_bits, %eax
	cmpl	maxbits, %eax
	jne	.LBB32_20
# %bb.19:                               # %if.then55
	movq	maxmaxcode, %rax
	movq	%rax, maxcode
	jmp	.LBB32_21
.LBB32_20:                              # %if.else56
	movl	n_bits, %ecx
                                        # kill: def $cl killed $ecx
	movl	$1, %eax
	shll	%cl, %eax
	subl	$1, %eax
	cltq
	movq	%rax, maxcode
.LBB32_21:                              # %if.end60
	jmp	.LBB32_22
.LBB32_22:                              # %if.end61
	jmp	.LBB32_23
.LBB32_23:                              # %if.end62
	jmp	.LBB32_29
.LBB32_24:                              # %if.else63
	cmpl	$0, offset
	jle	.LBB32_26
# %bb.25:                               # %if.then66
	movl	offset, %eax
	addl	$7, %eax
	cltd
	movl	$8, %ecx
	idivl	%ecx
	movslq	%eax, %rdx
	movq	stdout, %rcx
	movabsq	$buf, %rdi
	movl	$1, %esi
	callq	fwrite
.LBB32_26:                              # %if.end70
	movl	offset, %eax
	addl	$7, %eax
	cltd
	movl	$8, %ecx
	idivl	%ecx
	cltq
	addq	bytes_out, %rax
	movq	%rax, bytes_out
	movl	$0, offset
	movq	stdout, %rdi
	callq	fflush
	movq	stdout, %rdi
	callq	ferror
	cmpl	$0, %eax
	je	.LBB32_28
# %bb.27:                               # %if.then78
	callq	writeerr
.LBB32_28:                              # %if.end79
	jmp	.LBB32_29
.LBB32_29:                              # %if.end80
	cmpl	$1152717123, -28(%rbp)  # imm = 0x44B51143
	jne	.LBB32_31
.LBB32_30:
	addq	$32, %rsp
	popq	%rbp
	.cfi_def_cfa %rsp, 8
	retq
.LBB32_31:                              # %func_exit
	.cfi_def_cfa %rbp, 16
	callq	detect_breach
	jmp	.LBB32_30
.Lfunc_end32:
	.size	output.17, .Lfunc_end32-output.17
	.cfi_endproc
                                        # -- End function
	.globl	output.18               # -- Begin function output.18
	.p2align	4, 0x90
	.type	output.18,@function
output.18:                              # @output.18
	.cfi_startproc
# %bb.0:                                # %entry
	pushq	%rbp
	.cfi_def_cfa_offset 16
	.cfi_offset %rbp, -16
	movq	%rsp, %rbp
	.cfi_def_cfa_register %rbp
	subq	$32, %rsp
	movl	$1113357684, -28(%rbp)  # imm = 0x425C7D74
	movq	%rdi, -24(%rbp)
	movl	offset, %eax
	movl	%eax, -8(%rbp)
	movl	n_bits, %eax
	movl	%eax, -4(%rbp)
	movabsq	$buf, %rax
	movq	%rax, -16(%rbp)
	cmpq	$0, -24(%rbp)
	jl	.LBB33_24
# %bb.1:                                # %if.then
	movl	-8(%rbp), %eax
	sarl	$3, %eax
	movq	-16(%rbp), %rcx
	cltq
	addq	%rax, %rcx
	movq	%rcx, -16(%rbp)
	movl	-8(%rbp), %eax
	andl	$7, %eax
	movl	%eax, -8(%rbp)
	movq	-16(%rbp), %rax
	movsbl	(%rax), %eax
	movslq	-8(%rbp), %rcx
	movzbl	rmask(,%rcx), %ecx
	andl	%ecx, %eax
	cltq
	movq	-24(%rbp), %rdx
	movl	-8(%rbp), %ecx
                                        # kill: def $cl killed $rcx
	shlq	%cl, %rdx
	movslq	-8(%rbp), %rcx
	movzbl	lmask(,%rcx), %ecx
	andq	%rcx, %rdx
	orq	%rdx, %rax
	movq	-16(%rbp), %rcx
	movb	%al, (%rcx)
	movq	-16(%rbp), %rax
	addq	$1, %rax
	movq	%rax, -16(%rbp)
	movl	$8, %eax
	movl	$8, %ecx
	subl	-8(%rbp), %ecx
	movl	-4(%rbp), %edx
	subl	%ecx, %edx
	movl	%edx, -4(%rbp)
	subl	-8(%rbp), %eax
	movq	-24(%rbp), %rdx
	movl	%eax, %ecx
                                        # kill: def $cl killed $rcx
	sarq	%cl, %rdx
	movq	%rdx, -24(%rbp)
	cmpl	$8, -4(%rbp)
	jl	.LBB33_3
# %bb.2:                                # %if.then15
	movq	-24(%rbp), %rax
	movq	-16(%rbp), %rcx
	movq	%rcx, %rdx
	addq	$1, %rdx
	movq	%rdx, -16(%rbp)
	movb	%al, (%rcx)
	movq	-24(%rbp), %rax
	sarq	$8, %rax
	movq	%rax, -24(%rbp)
	movl	-4(%rbp), %eax
	subl	$8, %eax
	movl	%eax, -4(%rbp)
.LBB33_3:                               # %if.end
	cmpl	$0, -4(%rbp)
	je	.LBB33_5
# %bb.4:                                # %if.then20
	movq	-24(%rbp), %rax
	movq	-16(%rbp), %rcx
	movb	%al, (%rcx)
.LBB33_5:                               # %if.end22
	movl	n_bits, %eax
	addl	offset, %eax
	movl	%eax, offset
	movl	offset, %eax
	movl	n_bits, %ecx
	shll	$3, %ecx
	cmpl	%ecx, %eax
	jne	.LBB33_10
# %bb.6:                                # %if.then26
	movabsq	$buf, %rax
	movq	%rax, -16(%rbp)
	movl	n_bits, %eax
	movl	%eax, -4(%rbp)
	movslq	-4(%rbp), %rax
	addq	bytes_out, %rax
	movq	%rax, bytes_out
.LBB33_7:                               # %do.body
                                        # =>This Inner Loop Header: Depth=1
	movq	-16(%rbp), %rax
	movq	%rax, %rcx
	addq	$1, %rcx
	movq	%rcx, -16(%rbp)
	movsbl	(%rax), %edi
	callq	putchar
# %bb.8:                                # %do.cond
                                        #   in Loop: Header=BB33_7 Depth=1
	movl	-4(%rbp), %eax
	addl	$-1, %eax
	movl	%eax, -4(%rbp)
	cmpl	$0, %eax
	jne	.LBB33_7
# %bb.9:                                # %do.end
	movl	$0, offset
.LBB33_10:                              # %if.end32
	movq	free_ent, %rax
	cmpq	maxcode, %rax
	jg	.LBB33_12
# %bb.11:                               # %lor.lhs.false
	cmpl	$0, clear_flg
	jle	.LBB33_23
.LBB33_12:                              # %if.then37
	cmpl	$0, offset
	jle	.LBB33_16
# %bb.13:                               # %if.then40
	movslq	n_bits, %rdx
	movq	stdout, %rcx
	movabsq	$buf, %rdi
	movl	$1, %esi
	callq	fwrite
	movslq	n_bits, %rcx
	cmpq	%rcx, %rax
	je	.LBB33_15
# %bb.14:                               # %if.then46
	callq	writeerr
.LBB33_15:                              # %if.end47
	movslq	n_bits, %rax
	addq	bytes_out, %rax
	movq	%rax, bytes_out
.LBB33_16:                              # %if.end50
	movl	$0, offset
	cmpl	$0, clear_flg
	je	.LBB33_18
# %bb.17:                               # %if.then52
	movl	$9, n_bits
	movq	$511, maxcode           # imm = 0x1FF
	movl	$0, clear_flg
	jmp	.LBB33_22
.LBB33_18:                              # %if.else
	movl	n_bits, %eax
	addl	$1, %eax
	movl	%eax, n_bits
	movl	n_bits, %eax
	cmpl	maxbits, %eax
	jne	.LBB33_20
# %bb.19:                               # %if.then55
	movq	maxmaxcode, %rax
	movq	%rax, maxcode
	jmp	.LBB33_21
.LBB33_20:                              # %if.else56
	movl	n_bits, %ecx
                                        # kill: def $cl killed $ecx
	movl	$1, %eax
	shll	%cl, %eax
	subl	$1, %eax
	cltq
	movq	%rax, maxcode
.LBB33_21:                              # %if.end60
	jmp	.LBB33_22
.LBB33_22:                              # %if.end61
	jmp	.LBB33_23
.LBB33_23:                              # %if.end62
	jmp	.LBB33_29
.LBB33_24:                              # %if.else63
	cmpl	$0, offset
	jle	.LBB33_26
# %bb.25:                               # %if.then66
	movl	offset, %eax
	addl	$7, %eax
	cltd
	movl	$8, %ecx
	idivl	%ecx
	movslq	%eax, %rdx
	movq	stdout, %rcx
	movabsq	$buf, %rdi
	movl	$1, %esi
	callq	fwrite
.LBB33_26:                              # %if.end70
	movl	offset, %eax
	addl	$7, %eax
	cltd
	movl	$8, %ecx
	idivl	%ecx
	cltq
	addq	bytes_out, %rax
	movq	%rax, bytes_out
	movl	$0, offset
	movq	stdout, %rdi
	callq	fflush
	movq	stdout, %rdi
	callq	ferror
	cmpl	$0, %eax
	je	.LBB33_28
# %bb.27:                               # %if.then78
	callq	writeerr
.LBB33_28:                              # %if.end79
	jmp	.LBB33_29
.LBB33_29:                              # %if.end80
	cmpl	$1113357684, -28(%rbp)  # imm = 0x425C7D74
	jne	.LBB33_31
.LBB33_30:
	addq	$32, %rsp
	popq	%rbp
	.cfi_def_cfa %rsp, 8
	retq
.LBB33_31:                              # %func_exit
	.cfi_def_cfa %rbp, 16
	callq	detect_breach
	jmp	.LBB33_30
.Lfunc_end33:
	.size	output.18, .Lfunc_end33-output.18
	.cfi_endproc
                                        # -- End function
	.globl	output.19               # -- Begin function output.19
	.p2align	4, 0x90
	.type	output.19,@function
output.19:                              # @output.19
	.cfi_startproc
# %bb.0:                                # %entry
	pushq	%rbp
	.cfi_def_cfa_offset 16
	.cfi_offset %rbp, -16
	movq	%rsp, %rbp
	.cfi_def_cfa_register %rbp
	subq	$32, %rsp
	movl	$1089214973, -28(%rbp)  # imm = 0x40EC19FD
	movq	%rdi, -24(%rbp)
	movl	offset, %eax
	movl	%eax, -8(%rbp)
	movl	n_bits, %eax
	movl	%eax, -4(%rbp)
	movabsq	$buf, %rax
	movq	%rax, -16(%rbp)
	cmpq	$0, -24(%rbp)
	jl	.LBB34_24
# %bb.1:                                # %if.then
	movl	-8(%rbp), %eax
	sarl	$3, %eax
	movq	-16(%rbp), %rcx
	cltq
	addq	%rax, %rcx
	movq	%rcx, -16(%rbp)
	movl	-8(%rbp), %eax
	andl	$7, %eax
	movl	%eax, -8(%rbp)
	movq	-16(%rbp), %rax
	movsbl	(%rax), %eax
	movslq	-8(%rbp), %rcx
	movzbl	rmask(,%rcx), %ecx
	andl	%ecx, %eax
	cltq
	movq	-24(%rbp), %rdx
	movl	-8(%rbp), %ecx
                                        # kill: def $cl killed $rcx
	shlq	%cl, %rdx
	movslq	-8(%rbp), %rcx
	movzbl	lmask(,%rcx), %ecx
	andq	%rcx, %rdx
	orq	%rdx, %rax
	movq	-16(%rbp), %rcx
	movb	%al, (%rcx)
	movq	-16(%rbp), %rax
	addq	$1, %rax
	movq	%rax, -16(%rbp)
	movl	$8, %eax
	movl	$8, %ecx
	subl	-8(%rbp), %ecx
	movl	-4(%rbp), %edx
	subl	%ecx, %edx
	movl	%edx, -4(%rbp)
	subl	-8(%rbp), %eax
	movq	-24(%rbp), %rdx
	movl	%eax, %ecx
                                        # kill: def $cl killed $rcx
	sarq	%cl, %rdx
	movq	%rdx, -24(%rbp)
	cmpl	$8, -4(%rbp)
	jl	.LBB34_3
# %bb.2:                                # %if.then15
	movq	-24(%rbp), %rax
	movq	-16(%rbp), %rcx
	movq	%rcx, %rdx
	addq	$1, %rdx
	movq	%rdx, -16(%rbp)
	movb	%al, (%rcx)
	movq	-24(%rbp), %rax
	sarq	$8, %rax
	movq	%rax, -24(%rbp)
	movl	-4(%rbp), %eax
	subl	$8, %eax
	movl	%eax, -4(%rbp)
.LBB34_3:                               # %if.end
	cmpl	$0, -4(%rbp)
	je	.LBB34_5
# %bb.4:                                # %if.then20
	movq	-24(%rbp), %rax
	movq	-16(%rbp), %rcx
	movb	%al, (%rcx)
.LBB34_5:                               # %if.end22
	movl	n_bits, %eax
	addl	offset, %eax
	movl	%eax, offset
	movl	offset, %eax
	movl	n_bits, %ecx
	shll	$3, %ecx
	cmpl	%ecx, %eax
	jne	.LBB34_10
# %bb.6:                                # %if.then26
	movabsq	$buf, %rax
	movq	%rax, -16(%rbp)
	movl	n_bits, %eax
	movl	%eax, -4(%rbp)
	movslq	-4(%rbp), %rax
	addq	bytes_out, %rax
	movq	%rax, bytes_out
.LBB34_7:                               # %do.body
                                        # =>This Inner Loop Header: Depth=1
	movq	-16(%rbp), %rax
	movq	%rax, %rcx
	addq	$1, %rcx
	movq	%rcx, -16(%rbp)
	movsbl	(%rax), %edi
	callq	putchar
# %bb.8:                                # %do.cond
                                        #   in Loop: Header=BB34_7 Depth=1
	movl	-4(%rbp), %eax
	addl	$-1, %eax
	movl	%eax, -4(%rbp)
	cmpl	$0, %eax
	jne	.LBB34_7
# %bb.9:                                # %do.end
	movl	$0, offset
.LBB34_10:                              # %if.end32
	movq	free_ent, %rax
	cmpq	maxcode, %rax
	jg	.LBB34_12
# %bb.11:                               # %lor.lhs.false
	cmpl	$0, clear_flg
	jle	.LBB34_23
.LBB34_12:                              # %if.then37
	cmpl	$0, offset
	jle	.LBB34_16
# %bb.13:                               # %if.then40
	movslq	n_bits, %rdx
	movq	stdout, %rcx
	movabsq	$buf, %rdi
	movl	$1, %esi
	callq	fwrite
	movslq	n_bits, %rcx
	cmpq	%rcx, %rax
	je	.LBB34_15
# %bb.14:                               # %if.then46
	callq	writeerr
.LBB34_15:                              # %if.end47
	movslq	n_bits, %rax
	addq	bytes_out, %rax
	movq	%rax, bytes_out
.LBB34_16:                              # %if.end50
	movl	$0, offset
	cmpl	$0, clear_flg
	je	.LBB34_18
# %bb.17:                               # %if.then52
	movl	$9, n_bits
	movq	$511, maxcode           # imm = 0x1FF
	movl	$0, clear_flg
	jmp	.LBB34_22
.LBB34_18:                              # %if.else
	movl	n_bits, %eax
	addl	$1, %eax
	movl	%eax, n_bits
	movl	n_bits, %eax
	cmpl	maxbits, %eax
	jne	.LBB34_20
# %bb.19:                               # %if.then55
	movq	maxmaxcode, %rax
	movq	%rax, maxcode
	jmp	.LBB34_21
.LBB34_20:                              # %if.else56
	movl	n_bits, %ecx
                                        # kill: def $cl killed $ecx
	movl	$1, %eax
	shll	%cl, %eax
	subl	$1, %eax
	cltq
	movq	%rax, maxcode
.LBB34_21:                              # %if.end60
	jmp	.LBB34_22
.LBB34_22:                              # %if.end61
	jmp	.LBB34_23
.LBB34_23:                              # %if.end62
	jmp	.LBB34_29
.LBB34_24:                              # %if.else63
	cmpl	$0, offset
	jle	.LBB34_26
# %bb.25:                               # %if.then66
	movl	offset, %eax
	addl	$7, %eax
	cltd
	movl	$8, %ecx
	idivl	%ecx
	movslq	%eax, %rdx
	movq	stdout, %rcx
	movabsq	$buf, %rdi
	movl	$1, %esi
	callq	fwrite
.LBB34_26:                              # %if.end70
	movl	offset, %eax
	addl	$7, %eax
	cltd
	movl	$8, %ecx
	idivl	%ecx
	cltq
	addq	bytes_out, %rax
	movq	%rax, bytes_out
	movl	$0, offset
	movq	stdout, %rdi
	callq	fflush
	movq	stdout, %rdi
	callq	ferror
	cmpl	$0, %eax
	je	.LBB34_28
# %bb.27:                               # %if.then78
	callq	writeerr
.LBB34_28:                              # %if.end79
	jmp	.LBB34_29
.LBB34_29:                              # %if.end80
	cmpl	$1089214973, -28(%rbp)  # imm = 0x40EC19FD
	jne	.LBB34_31
.LBB34_30:
	addq	$32, %rsp
	popq	%rbp
	.cfi_def_cfa %rsp, 8
	retq
.LBB34_31:                              # %func_exit
	.cfi_def_cfa %rbp, 16
	callq	detect_breach
	jmp	.LBB34_30
.Lfunc_end34:
	.size	output.19, .Lfunc_end34-output.19
	.cfi_endproc
                                        # -- End function
	.globl	copystat.20             # -- Begin function copystat.20
	.p2align	4, 0x90
	.type	copystat.20,@function
copystat.20:                            # @copystat.20
	.cfi_startproc
# %bb.0:                                # %entry
	pushq	%rbp
	.cfi_def_cfa_offset 16
	.cfi_offset %rbp, -16
	movq	%rsp, %rbp
	.cfi_def_cfa_register %rbp
	subq	$192, %rsp
	movl	$796727441, -20(%rbp)   # imm = 0x2F7D1891
	movq	%rdi, -16(%rbp)
	movq	%rsi, -8(%rbp)
	movq	stdout, %rdi
	callq	fclose
	movq	-16(%rbp), %rdi
	leaq	-184(%rbp), %rsi
	callq	stat
	cmpl	$0, %eax
	je	.LBB35_2
# %bb.1:                                # %if.then
	movq	-16(%rbp), %rdi
	callq	perror
	jmp	.LBB35_26
.LBB35_2:                               # %if.end
	movl	-160(%rbp), %eax
	andl	$61440, %eax            # imm = 0xF000
	cmpl	$32768, %eax            # imm = 0x8000
	je	.LBB35_6
# %bb.3:                                # %if.then2
	cmpl	$0, quiet
	je	.LBB35_5
# %bb.4:                                # %if.then4
	movq	stderr, %rdi
	movq	-16(%rbp), %rdx
	movabsq	$.L.str.16, %rsi
	movb	$0, %al
	callq	fprintf
.LBB35_5:                               # %if.end6
	movq	stderr, %rdi
	movabsq	$.L.str.20, %rsi
	movb	$0, %al
	callq	fprintf
	movl	$1, exit_stat
	jmp	.LBB35_24
.LBB35_6:                               # %if.else
	cmpq	$1, -168(%rbp)
	jbe	.LBB35_10
# %bb.7:                                # %if.then9
	cmpl	$0, quiet
	je	.LBB35_9
# %bb.8:                                # %if.then11
	movq	stderr, %rdi
	movq	-16(%rbp), %rdx
	movabsq	$.L.str.16, %rsi
	movb	$0, %al
	callq	fprintf
.LBB35_9:                               # %if.end13
	movq	stderr, %rdi
	movq	-168(%rbp), %rdx
	subq	$1, %rdx
	movabsq	$.L.str.21, %rsi
	movb	$0, %al
	callq	fprintf
	movl	$1, exit_stat
	jmp	.LBB35_23
.LBB35_10:                              # %if.else16
	cmpl	$2, exit_stat
	jne	.LBB35_15
# %bb.11:                               # %land.lhs.true
	cmpl	$0, force
	jne	.LBB35_15
# %bb.12:                               # %if.then19
	cmpl	$0, quiet
	jne	.LBB35_14
# %bb.13:                               # %if.then21
	movq	stderr, %rdi
	movabsq	$.L.str.22, %rsi
	movb	$0, %al
	callq	fprintf
.LBB35_14:                              # %if.end23
	jmp	.LBB35_22
.LBB35_15:                              # %if.else24
	movl	$0, exit_stat
	movl	-160(%rbp), %eax
	andl	$4095, %eax             # imm = 0xFFF
	movl	%eax, -24(%rbp)
	movq	-8(%rbp), %rdi
	movl	-24(%rbp), %esi
	callq	chmod
	cmpl	$0, %eax
	je	.LBB35_17
# %bb.16:                               # %if.then29
	movq	-8(%rbp), %rdi
	callq	perror
.LBB35_17:                              # %if.end30
	movq	-8(%rbp), %rdi
	movl	-156(%rbp), %esi
	movl	-152(%rbp), %edx
	callq	chown
	movq	-112(%rbp), %rax
	movq	%rax, -40(%rbp)
	movq	-96(%rbp), %rax
	movq	%rax, -32(%rbp)
	movq	-8(%rbp), %rdi
	leaq	-40(%rbp), %rsi
	callq	utime
	movq	-16(%rbp), %rdi
	callq	unlink
	cmpl	$0, %eax
	je	.LBB35_19
# %bb.18:                               # %if.then36
	movq	-16(%rbp), %rdi
	callq	perror
.LBB35_19:                              # %if.end37
	cmpl	$0, quiet
	jne	.LBB35_21
# %bb.20:                               # %if.then39
	movq	stderr, %rdi
	movq	-8(%rbp), %rdx
	movabsq	$.L.str.23, %rsi
	movb	$0, %al
	callq	fprintf
.LBB35_21:                              # %if.end41
	jmp	.LBB35_26
.LBB35_22:                              # %if.end42
	jmp	.LBB35_23
.LBB35_23:                              # %if.end43
	jmp	.LBB35_24
.LBB35_24:                              # %if.end44
	movq	-8(%rbp), %rdi
	callq	unlink
	cmpl	$0, %eax
	je	.LBB35_26
# %bb.25:                               # %if.then47
	movq	-8(%rbp), %rdi
	callq	perror
.LBB35_26:                              # %if.end48
	cmpl	$796727441, -20(%rbp)   # imm = 0x2F7D1891
	jne	.LBB35_28
.LBB35_27:
	addq	$192, %rsp
	popq	%rbp
	.cfi_def_cfa %rsp, 8
	retq
.LBB35_28:                              # %func_exit
	.cfi_def_cfa %rbp, 16
	callq	detect_breach
	jmp	.LBB35_27
.Lfunc_end35:
	.size	copystat.20, .Lfunc_end35-copystat.20
	.cfi_endproc
                                        # -- End function
	.globl	scott_hack.21           # -- Begin function scott_hack.21
	.p2align	4, 0x90
	.type	scott_hack.21,@function
scott_hack.21:                          # @scott_hack.21
	.cfi_startproc
# %bb.0:                                # %entry
	pushq	%rbp
	.cfi_def_cfa_offset 16
	.cfi_offset %rbp, -16
	movq	%rsp, %rbp
	.cfi_def_cfa_register %rbp
	pushq	%rbx
	subq	$40, %rsp
	.cfi_offset %rbx, -24
	movl	$60800226, -32(%rbp)    # imm = 0x39FBCE2
	movq	%rdi, -16(%rbp)
	movq	%rsi, -40(%rbp)
	movl	%edx, -28(%rbp)
	movl	%ecx, -24(%rbp)
	movq	%r8, -48(%rbp)
.LBB36_1:                               # %probeSH
                                        # =>This Inner Loop Header: Depth=1
	movslq	-28(%rbp), %rax
	movq	-16(%rbp), %rcx
	movq	(%rcx), %rdx
	subq	%rax, %rdx
	movq	%rdx, (%rcx)
	cmpq	$0, %rdx
	jge	.LBB36_3
# %bb.2:                                # %if.then
                                        #   in Loop: Header=BB36_1 Depth=1
	movslq	-24(%rbp), %rax
	movq	-16(%rbp), %rcx
	addq	(%rcx), %rax
	movq	%rax, (%rcx)
.LBB36_3:                               # %if.end
                                        #   in Loop: Header=BB36_1 Depth=1
	movq	-16(%rbp), %rax
	movq	(%rax), %rax
	movq	htab(,%rax,8), %rax
	cmpq	-40(%rbp), %rax
	jne	.LBB36_5
# %bb.4:                                # %if.then5
	movq	-16(%rbp), %rax
	movq	(%rax), %rax
	movzwl	codetab(,%rax,2), %eax
	movq	-48(%rbp), %rcx
	movq	%rax, (%rcx)
	movl	$1, -20(%rbp)
	jmp	.LBB36_8
.LBB36_5:                               # %if.end8
                                        #   in Loop: Header=BB36_1 Depth=1
	movq	-16(%rbp), %rax
	movq	(%rax), %rax
	cmpq	$0, htab(,%rax,8)
	jle	.LBB36_7
# %bb.6:                                # %if.then12
                                        #   in Loop: Header=BB36_1 Depth=1
	jmp	.LBB36_1
.LBB36_7:                               # %if.end13
	movl	$0, -20(%rbp)
.LBB36_8:                               # %return
	movl	-20(%rbp), %ebx
	cmpl	$60800226, -32(%rbp)    # imm = 0x39FBCE2
	jne	.LBB36_10
.LBB36_9:
	movl	%ebx, %eax
	addq	$40, %rsp
	popq	%rbx
	popq	%rbp
	.cfi_def_cfa %rsp, 8
	retq
.LBB36_10:                              # %func_exit
	.cfi_def_cfa %rbp, 16
	callq	detect_breach
	jmp	.LBB36_9
.Lfunc_end36:
	.size	scott_hack.21, .Lfunc_end36-scott_hack.21
	.cfi_endproc
                                        # -- End function
	.globl	compress.22             # -- Begin function compress.22
	.p2align	4, 0x90
	.type	compress.22,@function
compress.22:                            # @compress.22
	.cfi_startproc
# %bb.0:                                # %entry
	pushq	%rbp
	.cfi_def_cfa_offset 16
	.cfi_offset %rbp, -16
	movq	%rsp, %rbp
	.cfi_def_cfa_register %rbp
	subq	$64, %rsp
	movl	$539534330, -56(%rbp)   # imm = 0x2028A3FA
	movq	$0, -8(%rbp)
	cmpl	$0, nomagic
	jne	.LBB37_4
# %bb.1:                                # %if.then
	movzbl	magic_header, %edi
	callq	putchar
	movzbl	magic_header+1, %edi
	callq	putchar
	movl	maxbits, %eax
	orl	block_compress, %eax
	movsbl	%al, %edi
	callq	putchar
	movq	stdout, %rdi
	callq	ferror
	cmpl	$0, %eax
	je	.LBB37_3
# %bb.2:                                # %if.then7
	callq	writeerr
.LBB37_3:                               # %if.end
	jmp	.LBB37_4
.LBB37_4:                               # %if.end8
	movl	$0, offset
	movq	$3, bytes_out
	movq	$0, out_count
	movl	$0, clear_flg
	movq	$0, ratio
	movq	$1, in_count
	movq	$10000, checkpoint      # imm = 0x2710
	movl	$9, n_bits
	movq	$511, maxcode           # imm = 0x1FF
	movl	block_compress, %eax
	cmpl	$0, %eax
	movl	$257, %eax              # imm = 0x101
	movl	$256, %ecx              # imm = 0x100
	cmovnel	%eax, %ecx
	movslq	%ecx, %rax
	movq	%rax, free_ent
	callq	getchar
	cltq
	movq	%rax, -24(%rbp)
	movl	$0, -16(%rbp)
	movq	hsize, %rax
	movq	%rax, -32(%rbp)
.LBB37_5:                               # %for.cond
                                        # =>This Inner Loop Header: Depth=1
	cmpq	$65536, -32(%rbp)       # imm = 0x10000
	jge	.LBB37_8
# %bb.6:                                # %for.body
                                        #   in Loop: Header=BB37_5 Depth=1
	movl	-16(%rbp), %eax
	addl	$1, %eax
	movl	%eax, -16(%rbp)
# %bb.7:                                # %for.inc
                                        #   in Loop: Header=BB37_5 Depth=1
	movq	-32(%rbp), %rax
	shlq	$1, %rax
	movq	%rax, -32(%rbp)
	jmp	.LBB37_5
.LBB37_8:                               # %for.end
	movl	$8, %eax
	subl	-16(%rbp), %eax
	movl	%eax, -16(%rbp)
	movq	hsize, %rax
	movq	%rax, -48(%rbp)
	movq	-48(%rbp), %rdi
	callq	cl_hash
.LBB37_9:                               # %while.cond
                                        # =>This Inner Loop Header: Depth=1
	callq	getchar
	movl	%eax, -36(%rbp)
	cmpl	$-1, %eax
	je	.LBB37_46
# %bb.10:                               # %while.body
                                        #   in Loop: Header=BB37_9 Depth=1
	movq	in_count, %rax
	addq	$1, %rax
	movq	%rax, in_count
	movslq	-36(%rbp), %rax
	movl	maxbits, %ecx
                                        # kill: def $cl killed $rcx
	shlq	%cl, %rax
	addq	-24(%rbp), %rax
	movq	%rax, -32(%rbp)
	movl	-36(%rbp), %eax
	movl	-16(%rbp), %ecx
                                        # kill: def $cl killed $ecx
	shll	%cl, %eax
	cltq
	xorq	-24(%rbp), %rax
	movq	%rax, -8(%rbp)
	movq	-8(%rbp), %rax
	movq	htab(,%rax,8), %rax
	cmpq	-32(%rbp), %rax
	jne	.LBB37_13
# %bb.11:                               # %if.then24
                                        #   in Loop: Header=BB37_9 Depth=1
	movq	-8(%rbp), %rax
	movzwl	codetab(,%rax,2), %eax
	movq	%rax, -24(%rbp)
.LBB37_12:                              # %while.cond.backedge
                                        #   in Loop: Header=BB37_9 Depth=1
	jmp	.LBB37_9
.LBB37_13:                              # %if.else
                                        #   in Loop: Header=BB37_9 Depth=1
	movq	-8(%rbp), %rax
	cmpq	$0, htab(,%rax,8)
	jge	.LBB37_15
# %bb.14:                               # %if.then30
                                        #   in Loop: Header=BB37_9 Depth=1
	jmp	.LBB37_39
.LBB37_15:                              # %if.end31
                                        #   in Loop: Header=BB37_9 Depth=1
	jmp	.LBB37_16
.LBB37_16:                              # %if.end32
                                        #   in Loop: Header=BB37_9 Depth=1
	movq	-48(%rbp), %rax
	subq	-8(%rbp), %rax
	movl	%eax, -12(%rbp)
	cmpq	$0, -8(%rbp)
	jne	.LBB37_18
# %bb.17:                               # %if.then37
                                        #   in Loop: Header=BB37_9 Depth=1
	movl	$1, -12(%rbp)
.LBB37_18:                              # %if.end38
                                        #   in Loop: Header=BB37_9 Depth=1
	movslq	-12(%rbp), %rax
	movq	-8(%rbp), %rcx
	subq	%rax, %rcx
	movq	%rcx, -8(%rbp)
	cmpq	$0, %rcx
	jge	.LBB37_20
# %bb.19:                               # %if.then43
                                        #   in Loop: Header=BB37_9 Depth=1
	movq	-48(%rbp), %rax
	addq	-8(%rbp), %rax
	movq	%rax, -8(%rbp)
.LBB37_20:                              # %if.end45
                                        #   in Loop: Header=BB37_9 Depth=1
	movq	-8(%rbp), %rax
	movq	htab(,%rax,8), %rax
	cmpq	-32(%rbp), %rax
	jne	.LBB37_22
# %bb.21:                               # %if.then49
                                        #   in Loop: Header=BB37_9 Depth=1
	movq	-8(%rbp), %rax
	movzwl	codetab(,%rax,2), %eax
	movq	%rax, -24(%rbp)
	jmp	.LBB37_12
.LBB37_22:                              # %if.end52
                                        #   in Loop: Header=BB37_9 Depth=1
	movq	-8(%rbp), %rax
	cmpq	$0, htab(,%rax,8)
	jg	.LBB37_24
# %bb.23:                               # %if.then56
                                        #   in Loop: Header=BB37_9 Depth=1
	jmp	.LBB37_39
.LBB37_24:                              # %if.end57
                                        #   in Loop: Header=BB37_9 Depth=1
	movslq	-12(%rbp), %rax
	movq	-8(%rbp), %rcx
	subq	%rax, %rcx
	movq	%rcx, -8(%rbp)
	cmpq	$0, %rcx
	jge	.LBB37_26
# %bb.25:                               # %if.then62
                                        #   in Loop: Header=BB37_9 Depth=1
	movq	-48(%rbp), %rax
	addq	-8(%rbp), %rax
	movq	%rax, -8(%rbp)
.LBB37_26:                              # %if.end64
                                        #   in Loop: Header=BB37_9 Depth=1
	movq	-8(%rbp), %rax
	movq	htab(,%rax,8), %rax
	cmpq	-32(%rbp), %rax
	jne	.LBB37_28
# %bb.27:                               # %if.then68
                                        #   in Loop: Header=BB37_9 Depth=1
	movq	-8(%rbp), %rax
	movzwl	codetab(,%rax,2), %eax
	movq	%rax, -24(%rbp)
	jmp	.LBB37_12
.LBB37_28:                              # %if.end71
                                        #   in Loop: Header=BB37_9 Depth=1
	movq	-8(%rbp), %rax
	cmpq	$0, htab(,%rax,8)
	jg	.LBB37_30
# %bb.29:                               # %if.then75
                                        #   in Loop: Header=BB37_9 Depth=1
	jmp	.LBB37_39
.LBB37_30:                              # %if.end76
                                        #   in Loop: Header=BB37_9 Depth=1
	movslq	-12(%rbp), %rax
	movq	-8(%rbp), %rcx
	subq	%rax, %rcx
	movq	%rcx, -8(%rbp)
	cmpq	$0, %rcx
	jge	.LBB37_32
# %bb.31:                               # %if.then81
                                        #   in Loop: Header=BB37_9 Depth=1
	movq	-48(%rbp), %rax
	addq	-8(%rbp), %rax
	movq	%rax, -8(%rbp)
.LBB37_32:                              # %if.end83
                                        #   in Loop: Header=BB37_9 Depth=1
	movq	-8(%rbp), %rax
	movq	htab(,%rax,8), %rax
	cmpq	-32(%rbp), %rax
	jne	.LBB37_34
# %bb.33:                               # %if.then87
                                        #   in Loop: Header=BB37_9 Depth=1
	movq	-8(%rbp), %rax
	movzwl	codetab(,%rax,2), %eax
	movq	%rax, -24(%rbp)
	jmp	.LBB37_12
.LBB37_34:                              # %if.end90
                                        #   in Loop: Header=BB37_9 Depth=1
	movq	-8(%rbp), %rax
	cmpq	$0, htab(,%rax,8)
	jle	.LBB37_38
# %bb.35:                               # %if.then94
                                        #   in Loop: Header=BB37_9 Depth=1
	movl	$0, -52(%rbp)
	movq	-32(%rbp), %rsi
	movl	-12(%rbp), %edx
	movq	-48(%rbp), %rcx
	leaq	-8(%rbp), %rdi
                                        # kill: def $ecx killed $ecx killed $rcx
	leaq	-24(%rbp), %r8
	callq	scott_hack
	movl	%eax, -52(%rbp)
	cmpl	$0, -52(%rbp)
	je	.LBB37_37
# %bb.36:                               # %if.then99
                                        #   in Loop: Header=BB37_9 Depth=1
	jmp	.LBB37_12
.LBB37_37:                              # %if.end100
                                        #   in Loop: Header=BB37_9 Depth=1
	jmp	.LBB37_38
.LBB37_38:                              # %if.end101
                                        #   in Loop: Header=BB37_9 Depth=1
	jmp	.LBB37_39
.LBB37_39:                              # %nomatch
                                        #   in Loop: Header=BB37_9 Depth=1
	movq	-24(%rbp), %rdi
	callq	output
	movq	out_count, %rax
	addq	$1, %rax
	movq	%rax, out_count
	movslq	-36(%rbp), %rax
	movq	%rax, -24(%rbp)
	movq	free_ent, %rax
	cmpq	maxmaxcode, %rax
	jge	.LBB37_41
# %bb.40:                               # %if.then106
                                        #   in Loop: Header=BB37_9 Depth=1
	movq	free_ent, %rax
	movq	%rax, %rcx
	addq	$1, %rcx
	movq	%rcx, free_ent
	movq	-8(%rbp), %rcx
	movw	%ax, codetab(,%rcx,2)
	movq	-32(%rbp), %rax
	movq	-8(%rbp), %rcx
	movq	%rax, htab(,%rcx,8)
	jmp	.LBB37_45
.LBB37_41:                              # %if.else111
                                        #   in Loop: Header=BB37_9 Depth=1
	movq	in_count, %rax
	cmpq	checkpoint, %rax
	jl	.LBB37_44
# %bb.42:                               # %land.lhs.true
                                        #   in Loop: Header=BB37_9 Depth=1
	cmpl	$0, block_compress
	je	.LBB37_44
# %bb.43:                               # %if.then115
                                        #   in Loop: Header=BB37_9 Depth=1
	callq	cl_block
.LBB37_44:                              # %if.end116
                                        #   in Loop: Header=BB37_9 Depth=1
	jmp	.LBB37_45
.LBB37_45:                              # %if.end117
                                        #   in Loop: Header=BB37_9 Depth=1
	jmp	.LBB37_12
.LBB37_46:                              # %while.end
	movq	-24(%rbp), %rdi
	callq	output
	movq	out_count, %rax
	addq	$1, %rax
	movq	%rax, out_count
	movq	$-1, %rdi
	callq	output
	cmpl	$0, zcat_flg
	jne	.LBB37_49
# %bb.47:                               # %land.lhs.true121
	cmpl	$0, quiet
	jne	.LBB37_49
# %bb.48:                               # %if.then123
	movq	stderr, %rdi
	movabsq	$.L.str.19, %rsi
	movb	$0, %al
	callq	fprintf
	movq	stderr, %rdi
	movq	in_count, %rsi
	subq	bytes_out, %rsi
	movq	in_count, %rdx
	callq	prratio
.LBB37_49:                              # %if.end126
	movq	bytes_out, %rax
	cmpq	in_count, %rax
	jle	.LBB37_51
# %bb.50:                               # %if.then129
	movl	$2, exit_stat
.LBB37_51:                              # %if.end130
	cmpl	$539534330, -56(%rbp)   # imm = 0x2028A3FA
	jne	.LBB37_53
.LBB37_52:
	addq	$64, %rsp
	popq	%rbp
	.cfi_def_cfa %rsp, 8
	retq
.LBB37_53:                              # %func_exit
	.cfi_def_cfa %rbp, 16
	callq	detect_breach
	jmp	.LBB37_52
.Lfunc_end37:
	.size	compress.22, .Lfunc_end37-compress.22
	.cfi_endproc
                                        # -- End function
	.globl	prratio.23              # -- Begin function prratio.23
	.p2align	4, 0x90
	.type	prratio.23,@function
prratio.23:                             # @prratio.23
	.cfi_startproc
# %bb.0:                                # %entry
	pushq	%rbp
	.cfi_def_cfa_offset 16
	.cfi_offset %rbp, -16
	movq	%rsp, %rbp
	.cfi_def_cfa_register %rbp
	subq	$48, %rsp
	movl	$914402319, -20(%rbp)   # imm = 0x3680AC0F
	movq	%rdi, -40(%rbp)
	movq	%rsi, -16(%rbp)
	movq	%rdx, -32(%rbp)
	cmpq	$214748, -16(%rbp)      # imm = 0x346DC
	jle	.LBB38_2
# %bb.1:                                # %if.then
	movq	-16(%rbp), %rcx
	movq	-32(%rbp), %rax
	cqto
	movl	$10000, %esi            # imm = 0x2710
	idivq	%rsi
	movq	%rax, %rsi
	movq	%rcx, %rax
	cqto
	idivq	%rsi
	movl	%eax, -4(%rbp)
	jmp	.LBB38_3
.LBB38_2:                               # %if.else
	imulq	$10000, -16(%rbp), %rax # imm = 0x2710
	cqto
	idivq	-32(%rbp)
	movl	%eax, -4(%rbp)
.LBB38_3:                               # %if.end
	cmpl	$0, -4(%rbp)
	jge	.LBB38_5
# %bb.4:                                # %if.then6
	movq	-40(%rbp), %rsi
	movl	$45, %edi
	callq	_IO_putc
	xorl	%eax, %eax
	subl	-4(%rbp), %eax
	movl	%eax, -4(%rbp)
.LBB38_5:                               # %if.end7
	movq	-40(%rbp), %rdi
	movl	-4(%rbp), %eax
	cltd
	movl	$100, %ecx
	idivl	%ecx
	movl	%eax, %r8d
	movl	-4(%rbp), %eax
	cltd
	idivl	%ecx
	movl	%edx, %ecx
	movabsq	$.L.str.25, %rsi
	movl	%r8d, %edx
	movb	$0, %al
	callq	fprintf
	cmpl	$914402319, -20(%rbp)   # imm = 0x3680AC0F
	jne	.LBB38_7
.LBB38_6:
	addq	$48, %rsp
	popq	%rbp
	.cfi_def_cfa %rsp, 8
	retq
.LBB38_7:                               # %func_exit
	.cfi_def_cfa %rbp, 16
	callq	detect_breach
	jmp	.LBB38_6
.Lfunc_end38:
	.size	prratio.23, .Lfunc_end38-prratio.23
	.cfi_endproc
                                        # -- End function
	.globl	prratio.24              # -- Begin function prratio.24
	.p2align	4, 0x90
	.type	prratio.24,@function
prratio.24:                             # @prratio.24
	.cfi_startproc
# %bb.0:                                # %entry
	pushq	%rbp
	.cfi_def_cfa_offset 16
	.cfi_offset %rbp, -16
	movq	%rsp, %rbp
	.cfi_def_cfa_register %rbp
	subq	$48, %rsp
	movl	$1272635379, -20(%rbp)  # imm = 0x4BDADFF3
	movq	%rdi, -32(%rbp)
	movq	%rsi, -16(%rbp)
	movq	%rdx, -40(%rbp)
	cmpq	$214748, -16(%rbp)      # imm = 0x346DC
	jle	.LBB39_2
# %bb.1:                                # %if.then
	movq	-16(%rbp), %rcx
	movq	-40(%rbp), %rax
	cqto
	movl	$10000, %esi            # imm = 0x2710
	idivq	%rsi
	movq	%rax, %rsi
	movq	%rcx, %rax
	cqto
	idivq	%rsi
	movl	%eax, -4(%rbp)
	jmp	.LBB39_3
.LBB39_2:                               # %if.else
	imulq	$10000, -16(%rbp), %rax # imm = 0x2710
	cqto
	idivq	-40(%rbp)
	movl	%eax, -4(%rbp)
.LBB39_3:                               # %if.end
	cmpl	$0, -4(%rbp)
	jge	.LBB39_5
# %bb.4:                                # %if.then6
	movq	-32(%rbp), %rsi
	movl	$45, %edi
	callq	_IO_putc
	xorl	%eax, %eax
	subl	-4(%rbp), %eax
	movl	%eax, -4(%rbp)
.LBB39_5:                               # %if.end7
	movq	-32(%rbp), %rdi
	movl	-4(%rbp), %eax
	cltd
	movl	$100, %ecx
	idivl	%ecx
	movl	%eax, %r8d
	movl	-4(%rbp), %eax
	cltd
	idivl	%ecx
	movl	%edx, %ecx
	movabsq	$.L.str.25, %rsi
	movl	%r8d, %edx
	movb	$0, %al
	callq	fprintf
	cmpl	$1272635379, -20(%rbp)  # imm = 0x4BDADFF3
	jne	.LBB39_7
.LBB39_6:
	addq	$48, %rsp
	popq	%rbp
	.cfi_def_cfa %rsp, 8
	retq
.LBB39_7:                               # %func_exit
	.cfi_def_cfa %rbp, 16
	callq	detect_breach
	jmp	.LBB39_6
.Lfunc_end39:
	.size	prratio.24, .Lfunc_end39-prratio.24
	.cfi_endproc
                                        # -- End function
	.globl	copystat.25             # -- Begin function copystat.25
	.p2align	4, 0x90
	.type	copystat.25,@function
copystat.25:                            # @copystat.25
	.cfi_startproc
# %bb.0:                                # %entry
	pushq	%rbp
	.cfi_def_cfa_offset 16
	.cfi_offset %rbp, -16
	movq	%rsp, %rbp
	.cfi_def_cfa_register %rbp
	subq	$192, %rsp
	movl	$526229763, -24(%rbp)   # imm = 0x1F5DA103
	movq	%rdi, -16(%rbp)
	movq	%rsi, -8(%rbp)
	movq	stdout, %rdi
	callq	fclose
	movq	-16(%rbp), %rdi
	leaq	-184(%rbp), %rsi
	callq	stat
	cmpl	$0, %eax
	je	.LBB40_2
# %bb.1:                                # %if.then
	movq	-16(%rbp), %rdi
	callq	perror
	jmp	.LBB40_26
.LBB40_2:                               # %if.end
	movl	-160(%rbp), %eax
	andl	$61440, %eax            # imm = 0xF000
	cmpl	$32768, %eax            # imm = 0x8000
	je	.LBB40_6
# %bb.3:                                # %if.then2
	cmpl	$0, quiet
	je	.LBB40_5
# %bb.4:                                # %if.then4
	movq	stderr, %rdi
	movq	-16(%rbp), %rdx
	movabsq	$.L.str.16, %rsi
	movb	$0, %al
	callq	fprintf
.LBB40_5:                               # %if.end6
	movq	stderr, %rdi
	movabsq	$.L.str.20, %rsi
	movb	$0, %al
	callq	fprintf
	movl	$1, exit_stat
	jmp	.LBB40_24
.LBB40_6:                               # %if.else
	cmpq	$1, -168(%rbp)
	jbe	.LBB40_10
# %bb.7:                                # %if.then9
	cmpl	$0, quiet
	je	.LBB40_9
# %bb.8:                                # %if.then11
	movq	stderr, %rdi
	movq	-16(%rbp), %rdx
	movabsq	$.L.str.16, %rsi
	movb	$0, %al
	callq	fprintf
.LBB40_9:                               # %if.end13
	movq	stderr, %rdi
	movq	-168(%rbp), %rdx
	subq	$1, %rdx
	movabsq	$.L.str.21, %rsi
	movb	$0, %al
	callq	fprintf
	movl	$1, exit_stat
	jmp	.LBB40_23
.LBB40_10:                              # %if.else16
	cmpl	$2, exit_stat
	jne	.LBB40_15
# %bb.11:                               # %land.lhs.true
	cmpl	$0, force
	jne	.LBB40_15
# %bb.12:                               # %if.then19
	cmpl	$0, quiet
	jne	.LBB40_14
# %bb.13:                               # %if.then21
	movq	stderr, %rdi
	movabsq	$.L.str.22, %rsi
	movb	$0, %al
	callq	fprintf
.LBB40_14:                              # %if.end23
	jmp	.LBB40_22
.LBB40_15:                              # %if.else24
	movl	$0, exit_stat
	movl	-160(%rbp), %eax
	andl	$4095, %eax             # imm = 0xFFF
	movl	%eax, -20(%rbp)
	movq	-8(%rbp), %rdi
	movl	-20(%rbp), %esi
	callq	chmod
	cmpl	$0, %eax
	je	.LBB40_17
# %bb.16:                               # %if.then29
	movq	-8(%rbp), %rdi
	callq	perror
.LBB40_17:                              # %if.end30
	movq	-8(%rbp), %rdi
	movl	-156(%rbp), %esi
	movl	-152(%rbp), %edx
	callq	chown
	movq	-112(%rbp), %rax
	movq	%rax, -40(%rbp)
	movq	-96(%rbp), %rax
	movq	%rax, -32(%rbp)
	movq	-8(%rbp), %rdi
	leaq	-40(%rbp), %rsi
	callq	utime
	movq	-16(%rbp), %rdi
	callq	unlink
	cmpl	$0, %eax
	je	.LBB40_19
# %bb.18:                               # %if.then36
	movq	-16(%rbp), %rdi
	callq	perror
.LBB40_19:                              # %if.end37
	cmpl	$0, quiet
	jne	.LBB40_21
# %bb.20:                               # %if.then39
	movq	stderr, %rdi
	movq	-8(%rbp), %rdx
	movabsq	$.L.str.23, %rsi
	movb	$0, %al
	callq	fprintf
.LBB40_21:                              # %if.end41
	jmp	.LBB40_26
.LBB40_22:                              # %if.end42
	jmp	.LBB40_23
.LBB40_23:                              # %if.end43
	jmp	.LBB40_24
.LBB40_24:                              # %if.end44
	movq	-8(%rbp), %rdi
	callq	unlink
	cmpl	$0, %eax
	je	.LBB40_26
# %bb.25:                               # %if.then47
	movq	-8(%rbp), %rdi
	callq	perror
.LBB40_26:                              # %if.end48
	cmpl	$526229763, -24(%rbp)   # imm = 0x1F5DA103
	jne	.LBB40_28
.LBB40_27:
	addq	$192, %rsp
	popq	%rbp
	.cfi_def_cfa %rsp, 8
	retq
.LBB40_28:                              # %func_exit
	.cfi_def_cfa %rbp, 16
	callq	detect_breach
	jmp	.LBB40_27
.Lfunc_end40:
	.size	copystat.25, .Lfunc_end40-copystat.25
	.cfi_endproc
                                        # -- End function
	.globl	decompress.26           # -- Begin function decompress.26
	.p2align	4, 0x90
	.type	decompress.26,@function
decompress.26:                          # @decompress.26
	.cfi_startproc
# %bb.0:                                # %entry
	pushq	%rbp
	.cfi_def_cfa_offset 16
	.cfi_offset %rbp, -16
	movq	%rsp, %rbp
	.cfi_def_cfa_register %rbp
	subq	$48, %rsp
	movl	$1879676033, -36(%rbp)  # imm = 0x70099481
	movl	$9, n_bits
	movq	$511, maxcode           # imm = 0x1FF
	movq	$255, -8(%rbp)
.LBB41_1:                               # %for.cond
                                        # =>This Inner Loop Header: Depth=1
	cmpq	$0, -8(%rbp)
	jl	.LBB41_4
# %bb.2:                                # %for.body
                                        #   in Loop: Header=BB41_1 Depth=1
	movq	-8(%rbp), %rax
	movw	$0, codetab(,%rax,2)
	movq	-8(%rbp), %rax
	movq	-8(%rbp), %rcx
	movb	%al, htab(,%rcx)
# %bb.3:                                # %for.inc
                                        #   in Loop: Header=BB41_1 Depth=1
	movq	-8(%rbp), %rax
	addq	$-1, %rax
	movq	%rax, -8(%rbp)
	jmp	.LBB41_1
.LBB41_4:                               # %for.end
	movl	block_compress, %eax
	cmpl	$0, %eax
	movl	$257, %eax              # imm = 0x101
	movl	$256, %ecx              # imm = 0x100
	cmovnel	%eax, %ecx
	movslq	%ecx, %rax
	movq	%rax, free_ent
	callq	getcode
	movq	%rax, -32(%rbp)
	movl	%eax, -20(%rbp)
	cmpq	$-1, -32(%rbp)
	jne	.LBB41_6
# %bb.5:                                # %if.then
	jmp	.LBB41_33
.LBB41_6:                               # %if.end
	movl	-20(%rbp), %eax
	movsbl	%al, %edi
	callq	putchar
	movq	stdout, %rdi
	callq	ferror
	cmpl	$0, %eax
	je	.LBB41_8
# %bb.7:                                # %if.then11
	callq	writeerr
.LBB41_8:                               # %if.end12
	movabsq	$htab, %rax
	addq	$65536, %rax            # imm = 0x10000
	movq	%rax, -16(%rbp)
.LBB41_9:                               # %while.cond
                                        # =>This Loop Header: Depth=1
                                        #     Child Loop BB41_13 Depth 2
                                        #     Child Loop BB41_22 Depth 2
                                        #     Child Loop BB41_25 Depth 2
	callq	getcode
	movq	%rax, -8(%rbp)
	cmpq	$-1, %rax
	jle	.LBB41_30
# %bb.10:                               # %while.body
                                        #   in Loop: Header=BB41_9 Depth=1
	cmpq	$256, -8(%rbp)          # imm = 0x100
	jne	.LBB41_19
# %bb.11:                               # %land.lhs.true
                                        #   in Loop: Header=BB41_9 Depth=1
	cmpl	$0, block_compress
	je	.LBB41_19
# %bb.12:                               # %if.then19
                                        #   in Loop: Header=BB41_9 Depth=1
	movq	$255, -8(%rbp)
.LBB41_13:                              # %for.cond20
                                        #   Parent Loop BB41_9 Depth=1
                                        # =>  This Inner Loop Header: Depth=2
	cmpq	$0, -8(%rbp)
	jl	.LBB41_16
# %bb.14:                               # %for.body23
                                        #   in Loop: Header=BB41_13 Depth=2
	movq	-8(%rbp), %rax
	movw	$0, codetab(,%rax,2)
# %bb.15:                               # %for.inc25
                                        #   in Loop: Header=BB41_13 Depth=2
	movq	-8(%rbp), %rax
	addq	$-1, %rax
	movq	%rax, -8(%rbp)
	jmp	.LBB41_13
.LBB41_16:                              # %for.end27
                                        #   in Loop: Header=BB41_9 Depth=1
	movl	$1, clear_flg
	movq	$256, free_ent          # imm = 0x100
	callq	getcode
	movq	%rax, -8(%rbp)
	cmpq	$-1, %rax
	jne	.LBB41_18
# %bb.17:                               # %if.then31
	jmp	.LBB41_31
.LBB41_18:                              # %if.end32
                                        #   in Loop: Header=BB41_9 Depth=1
	jmp	.LBB41_19
.LBB41_19:                              # %if.end33
                                        #   in Loop: Header=BB41_9 Depth=1
	movq	-8(%rbp), %rax
	movq	%rax, -48(%rbp)
	movq	-8(%rbp), %rax
	cmpq	free_ent, %rax
	jl	.LBB41_21
# %bb.20:                               # %if.then36
                                        #   in Loop: Header=BB41_9 Depth=1
	movl	-20(%rbp), %eax
	movq	-16(%rbp), %rcx
	movq	%rcx, %rdx
	addq	$1, %rdx
	movq	%rdx, -16(%rbp)
	movb	%al, (%rcx)
	movq	-32(%rbp), %rax
	movq	%rax, -8(%rbp)
.LBB41_21:                              # %if.end38
                                        #   in Loop: Header=BB41_9 Depth=1
	jmp	.LBB41_22
.LBB41_22:                              # %while.cond39
                                        #   Parent Loop BB41_9 Depth=1
                                        # =>  This Inner Loop Header: Depth=2
	cmpq	$256, -8(%rbp)          # imm = 0x100
	jl	.LBB41_24
# %bb.23:                               # %while.body42
                                        #   in Loop: Header=BB41_22 Depth=2
	movq	-8(%rbp), %rax
	movb	htab(,%rax), %al
	movq	-16(%rbp), %rcx
	movq	%rcx, %rdx
	addq	$1, %rdx
	movq	%rdx, -16(%rbp)
	movb	%al, (%rcx)
	movq	-8(%rbp), %rax
	movzwl	codetab(,%rax,2), %eax
	movq	%rax, -8(%rbp)
	jmp	.LBB41_22
.LBB41_24:                              # %while.end
                                        #   in Loop: Header=BB41_9 Depth=1
	movq	-8(%rbp), %rax
	movzbl	htab(,%rax), %eax
	movl	%eax, -20(%rbp)
	movq	-16(%rbp), %rcx
	movq	%rcx, %rdx
	addq	$1, %rdx
	movq	%rdx, -16(%rbp)
	movb	%al, (%rcx)
.LBB41_25:                              # %do.body
                                        #   Parent Loop BB41_9 Depth=1
                                        # =>  This Inner Loop Header: Depth=2
	movq	-16(%rbp), %rax
	movq	%rax, %rcx
	addq	$-1, %rcx
	movq	%rcx, -16(%rbp)
	movzbl	-1(%rax), %edi
	callq	putchar
# %bb.26:                               # %do.cond
                                        #   in Loop: Header=BB41_25 Depth=2
	movabsq	$htab, %rax
	addq	$65536, %rax            # imm = 0x10000
	cmpq	%rax, -16(%rbp)
	ja	.LBB41_25
# %bb.27:                               # %do.end
                                        #   in Loop: Header=BB41_9 Depth=1
	movq	free_ent, %rax
	movq	%rax, -8(%rbp)
	cmpq	maxmaxcode, %rax
	jge	.LBB41_29
# %bb.28:                               # %if.then58
                                        #   in Loop: Header=BB41_9 Depth=1
	movq	-32(%rbp), %rax
	movq	-8(%rbp), %rcx
	movw	%ax, codetab(,%rcx,2)
	movl	-20(%rbp), %eax
	movq	-8(%rbp), %rcx
	movb	%al, htab(,%rcx)
	movq	-8(%rbp), %rax
	addq	$1, %rax
	movq	%rax, free_ent
.LBB41_29:                              # %if.end63
                                        #   in Loop: Header=BB41_9 Depth=1
	movq	-48(%rbp), %rax
	movq	%rax, -32(%rbp)
	jmp	.LBB41_9
.LBB41_30:                              # %while.end64.loopexit
	jmp	.LBB41_31
.LBB41_31:                              # %while.end64
	movq	stdout, %rdi
	callq	fflush
	movq	stdout, %rdi
	callq	ferror
	cmpl	$0, %eax
	je	.LBB41_33
# %bb.32:                               # %if.then68
	callq	writeerr
.LBB41_33:                              # %if.end69
	cmpl	$1879676033, -36(%rbp)  # imm = 0x70099481
	jne	.LBB41_35
.LBB41_34:
	addq	$48, %rsp
	popq	%rbp
	.cfi_def_cfa %rsp, 8
	retq
.LBB41_35:                              # %func_exit
	.cfi_def_cfa %rbp, 16
	callq	detect_breach
	jmp	.LBB41_34
.Lfunc_end41:
	.size	decompress.26, .Lfunc_end41-decompress.26
	.cfi_endproc
                                        # -- End function
	.globl	decompress.27           # -- Begin function decompress.27
	.p2align	4, 0x90
	.type	decompress.27,@function
decompress.27:                          # @decompress.27
	.cfi_startproc
# %bb.0:                                # %entry
	pushq	%rbp
	.cfi_def_cfa_offset 16
	.cfi_offset %rbp, -16
	movq	%rsp, %rbp
	.cfi_def_cfa_register %rbp
	subq	$48, %rsp
	movl	$763924599, -36(%rbp)   # imm = 0x2D889077
	movl	$9, n_bits
	movq	$511, maxcode           # imm = 0x1FF
	movq	$255, -8(%rbp)
.LBB42_1:                               # %for.cond
                                        # =>This Inner Loop Header: Depth=1
	cmpq	$0, -8(%rbp)
	jl	.LBB42_4
# %bb.2:                                # %for.body
                                        #   in Loop: Header=BB42_1 Depth=1
	movq	-8(%rbp), %rax
	movw	$0, codetab(,%rax,2)
	movq	-8(%rbp), %rax
	movq	-8(%rbp), %rcx
	movb	%al, htab(,%rcx)
# %bb.3:                                # %for.inc
                                        #   in Loop: Header=BB42_1 Depth=1
	movq	-8(%rbp), %rax
	addq	$-1, %rax
	movq	%rax, -8(%rbp)
	jmp	.LBB42_1
.LBB42_4:                               # %for.end
	movl	block_compress, %eax
	cmpl	$0, %eax
	movl	$257, %eax              # imm = 0x101
	movl	$256, %ecx              # imm = 0x100
	cmovnel	%eax, %ecx
	movslq	%ecx, %rax
	movq	%rax, free_ent
	callq	getcode
	movq	%rax, -32(%rbp)
	movl	%eax, -20(%rbp)
	cmpq	$-1, -32(%rbp)
	jne	.LBB42_6
# %bb.5:                                # %if.then
	jmp	.LBB42_33
.LBB42_6:                               # %if.end
	movl	-20(%rbp), %eax
	movsbl	%al, %edi
	callq	putchar
	movq	stdout, %rdi
	callq	ferror
	cmpl	$0, %eax
	je	.LBB42_8
# %bb.7:                                # %if.then11
	callq	writeerr
.LBB42_8:                               # %if.end12
	movabsq	$htab, %rax
	addq	$65536, %rax            # imm = 0x10000
	movq	%rax, -16(%rbp)
.LBB42_9:                               # %while.cond
                                        # =>This Loop Header: Depth=1
                                        #     Child Loop BB42_13 Depth 2
                                        #     Child Loop BB42_22 Depth 2
                                        #     Child Loop BB42_25 Depth 2
	callq	getcode
	movq	%rax, -8(%rbp)
	cmpq	$-1, %rax
	jle	.LBB42_30
# %bb.10:                               # %while.body
                                        #   in Loop: Header=BB42_9 Depth=1
	cmpq	$256, -8(%rbp)          # imm = 0x100
	jne	.LBB42_19
# %bb.11:                               # %land.lhs.true
                                        #   in Loop: Header=BB42_9 Depth=1
	cmpl	$0, block_compress
	je	.LBB42_19
# %bb.12:                               # %if.then19
                                        #   in Loop: Header=BB42_9 Depth=1
	movq	$255, -8(%rbp)
.LBB42_13:                              # %for.cond20
                                        #   Parent Loop BB42_9 Depth=1
                                        # =>  This Inner Loop Header: Depth=2
	cmpq	$0, -8(%rbp)
	jl	.LBB42_16
# %bb.14:                               # %for.body23
                                        #   in Loop: Header=BB42_13 Depth=2
	movq	-8(%rbp), %rax
	movw	$0, codetab(,%rax,2)
# %bb.15:                               # %for.inc25
                                        #   in Loop: Header=BB42_13 Depth=2
	movq	-8(%rbp), %rax
	addq	$-1, %rax
	movq	%rax, -8(%rbp)
	jmp	.LBB42_13
.LBB42_16:                              # %for.end27
                                        #   in Loop: Header=BB42_9 Depth=1
	movl	$1, clear_flg
	movq	$256, free_ent          # imm = 0x100
	callq	getcode
	movq	%rax, -8(%rbp)
	cmpq	$-1, %rax
	jne	.LBB42_18
# %bb.17:                               # %if.then31
	jmp	.LBB42_31
.LBB42_18:                              # %if.end32
                                        #   in Loop: Header=BB42_9 Depth=1
	jmp	.LBB42_19
.LBB42_19:                              # %if.end33
                                        #   in Loop: Header=BB42_9 Depth=1
	movq	-8(%rbp), %rax
	movq	%rax, -48(%rbp)
	movq	-8(%rbp), %rax
	cmpq	free_ent, %rax
	jl	.LBB42_21
# %bb.20:                               # %if.then36
                                        #   in Loop: Header=BB42_9 Depth=1
	movl	-20(%rbp), %eax
	movq	-16(%rbp), %rcx
	movq	%rcx, %rdx
	addq	$1, %rdx
	movq	%rdx, -16(%rbp)
	movb	%al, (%rcx)
	movq	-32(%rbp), %rax
	movq	%rax, -8(%rbp)
.LBB42_21:                              # %if.end38
                                        #   in Loop: Header=BB42_9 Depth=1
	jmp	.LBB42_22
.LBB42_22:                              # %while.cond39
                                        #   Parent Loop BB42_9 Depth=1
                                        # =>  This Inner Loop Header: Depth=2
	cmpq	$256, -8(%rbp)          # imm = 0x100
	jl	.LBB42_24
# %bb.23:                               # %while.body42
                                        #   in Loop: Header=BB42_22 Depth=2
	movq	-8(%rbp), %rax
	movb	htab(,%rax), %al
	movq	-16(%rbp), %rcx
	movq	%rcx, %rdx
	addq	$1, %rdx
	movq	%rdx, -16(%rbp)
	movb	%al, (%rcx)
	movq	-8(%rbp), %rax
	movzwl	codetab(,%rax,2), %eax
	movq	%rax, -8(%rbp)
	jmp	.LBB42_22
.LBB42_24:                              # %while.end
                                        #   in Loop: Header=BB42_9 Depth=1
	movq	-8(%rbp), %rax
	movzbl	htab(,%rax), %eax
	movl	%eax, -20(%rbp)
	movq	-16(%rbp), %rcx
	movq	%rcx, %rdx
	addq	$1, %rdx
	movq	%rdx, -16(%rbp)
	movb	%al, (%rcx)
.LBB42_25:                              # %do.body
                                        #   Parent Loop BB42_9 Depth=1
                                        # =>  This Inner Loop Header: Depth=2
	movq	-16(%rbp), %rax
	movq	%rax, %rcx
	addq	$-1, %rcx
	movq	%rcx, -16(%rbp)
	movzbl	-1(%rax), %edi
	callq	putchar
# %bb.26:                               # %do.cond
                                        #   in Loop: Header=BB42_25 Depth=2
	movabsq	$htab, %rax
	addq	$65536, %rax            # imm = 0x10000
	cmpq	%rax, -16(%rbp)
	ja	.LBB42_25
# %bb.27:                               # %do.end
                                        #   in Loop: Header=BB42_9 Depth=1
	movq	free_ent, %rax
	movq	%rax, -8(%rbp)
	cmpq	maxmaxcode, %rax
	jge	.LBB42_29
# %bb.28:                               # %if.then58
                                        #   in Loop: Header=BB42_9 Depth=1
	movq	-32(%rbp), %rax
	movq	-8(%rbp), %rcx
	movw	%ax, codetab(,%rcx,2)
	movl	-20(%rbp), %eax
	movq	-8(%rbp), %rcx
	movb	%al, htab(,%rcx)
	movq	-8(%rbp), %rax
	addq	$1, %rax
	movq	%rax, free_ent
.LBB42_29:                              # %if.end63
                                        #   in Loop: Header=BB42_9 Depth=1
	movq	-48(%rbp), %rax
	movq	%rax, -32(%rbp)
	jmp	.LBB42_9
.LBB42_30:                              # %while.end64.loopexit
	jmp	.LBB42_31
.LBB42_31:                              # %while.end64
	movq	stdout, %rdi
	callq	fflush
	movq	stdout, %rdi
	callq	ferror
	cmpl	$0, %eax
	je	.LBB42_33
# %bb.32:                               # %if.then68
	callq	writeerr
.LBB42_33:                              # %if.end69
	cmpl	$763924599, -36(%rbp)   # imm = 0x2D889077
	jne	.LBB42_35
.LBB42_34:
	addq	$48, %rsp
	popq	%rbp
	.cfi_def_cfa %rsp, 8
	retq
.LBB42_35:                              # %func_exit
	.cfi_def_cfa %rbp, 16
	callq	detect_breach
	jmp	.LBB42_34
.Lfunc_end42:
	.size	decompress.27, .Lfunc_end42-decompress.27
	.cfi_endproc
                                        # -- End function
	.globl	decompress.28           # -- Begin function decompress.28
	.p2align	4, 0x90
	.type	decompress.28,@function
decompress.28:                          # @decompress.28
	.cfi_startproc
# %bb.0:                                # %entry
	pushq	%rbp
	.cfi_def_cfa_offset 16
	.cfi_offset %rbp, -16
	movq	%rsp, %rbp
	.cfi_def_cfa_register %rbp
	subq	$48, %rsp
	movl	$650987873, -36(%rbp)   # imm = 0x26CD4961
	movl	$9, n_bits
	movq	$511, maxcode           # imm = 0x1FF
	movq	$255, -8(%rbp)
.LBB43_1:                               # %for.cond
                                        # =>This Inner Loop Header: Depth=1
	cmpq	$0, -8(%rbp)
	jl	.LBB43_4
# %bb.2:                                # %for.body
                                        #   in Loop: Header=BB43_1 Depth=1
	movq	-8(%rbp), %rax
	movw	$0, codetab(,%rax,2)
	movq	-8(%rbp), %rax
	movq	-8(%rbp), %rcx
	movb	%al, htab(,%rcx)
# %bb.3:                                # %for.inc
                                        #   in Loop: Header=BB43_1 Depth=1
	movq	-8(%rbp), %rax
	addq	$-1, %rax
	movq	%rax, -8(%rbp)
	jmp	.LBB43_1
.LBB43_4:                               # %for.end
	movl	block_compress, %eax
	cmpl	$0, %eax
	movl	$257, %eax              # imm = 0x101
	movl	$256, %ecx              # imm = 0x100
	cmovnel	%eax, %ecx
	movslq	%ecx, %rax
	movq	%rax, free_ent
	callq	getcode
	movq	%rax, -32(%rbp)
	movl	%eax, -20(%rbp)
	cmpq	$-1, -32(%rbp)
	jne	.LBB43_6
# %bb.5:                                # %if.then
	jmp	.LBB43_33
.LBB43_6:                               # %if.end
	movl	-20(%rbp), %eax
	movsbl	%al, %edi
	callq	putchar
	movq	stdout, %rdi
	callq	ferror
	cmpl	$0, %eax
	je	.LBB43_8
# %bb.7:                                # %if.then11
	callq	writeerr
.LBB43_8:                               # %if.end12
	movabsq	$htab, %rax
	addq	$65536, %rax            # imm = 0x10000
	movq	%rax, -16(%rbp)
.LBB43_9:                               # %while.cond
                                        # =>This Loop Header: Depth=1
                                        #     Child Loop BB43_13 Depth 2
                                        #     Child Loop BB43_22 Depth 2
                                        #     Child Loop BB43_25 Depth 2
	callq	getcode
	movq	%rax, -8(%rbp)
	cmpq	$-1, %rax
	jle	.LBB43_30
# %bb.10:                               # %while.body
                                        #   in Loop: Header=BB43_9 Depth=1
	cmpq	$256, -8(%rbp)          # imm = 0x100
	jne	.LBB43_19
# %bb.11:                               # %land.lhs.true
                                        #   in Loop: Header=BB43_9 Depth=1
	cmpl	$0, block_compress
	je	.LBB43_19
# %bb.12:                               # %if.then19
                                        #   in Loop: Header=BB43_9 Depth=1
	movq	$255, -8(%rbp)
.LBB43_13:                              # %for.cond20
                                        #   Parent Loop BB43_9 Depth=1
                                        # =>  This Inner Loop Header: Depth=2
	cmpq	$0, -8(%rbp)
	jl	.LBB43_16
# %bb.14:                               # %for.body23
                                        #   in Loop: Header=BB43_13 Depth=2
	movq	-8(%rbp), %rax
	movw	$0, codetab(,%rax,2)
# %bb.15:                               # %for.inc25
                                        #   in Loop: Header=BB43_13 Depth=2
	movq	-8(%rbp), %rax
	addq	$-1, %rax
	movq	%rax, -8(%rbp)
	jmp	.LBB43_13
.LBB43_16:                              # %for.end27
                                        #   in Loop: Header=BB43_9 Depth=1
	movl	$1, clear_flg
	movq	$256, free_ent          # imm = 0x100
	callq	getcode
	movq	%rax, -8(%rbp)
	cmpq	$-1, %rax
	jne	.LBB43_18
# %bb.17:                               # %if.then31
	jmp	.LBB43_31
.LBB43_18:                              # %if.end32
                                        #   in Loop: Header=BB43_9 Depth=1
	jmp	.LBB43_19
.LBB43_19:                              # %if.end33
                                        #   in Loop: Header=BB43_9 Depth=1
	movq	-8(%rbp), %rax
	movq	%rax, -48(%rbp)
	movq	-8(%rbp), %rax
	cmpq	free_ent, %rax
	jl	.LBB43_21
# %bb.20:                               # %if.then36
                                        #   in Loop: Header=BB43_9 Depth=1
	movl	-20(%rbp), %eax
	movq	-16(%rbp), %rcx
	movq	%rcx, %rdx
	addq	$1, %rdx
	movq	%rdx, -16(%rbp)
	movb	%al, (%rcx)
	movq	-32(%rbp), %rax
	movq	%rax, -8(%rbp)
.LBB43_21:                              # %if.end38
                                        #   in Loop: Header=BB43_9 Depth=1
	jmp	.LBB43_22
.LBB43_22:                              # %while.cond39
                                        #   Parent Loop BB43_9 Depth=1
                                        # =>  This Inner Loop Header: Depth=2
	cmpq	$256, -8(%rbp)          # imm = 0x100
	jl	.LBB43_24
# %bb.23:                               # %while.body42
                                        #   in Loop: Header=BB43_22 Depth=2
	movq	-8(%rbp), %rax
	movb	htab(,%rax), %al
	movq	-16(%rbp), %rcx
	movq	%rcx, %rdx
	addq	$1, %rdx
	movq	%rdx, -16(%rbp)
	movb	%al, (%rcx)
	movq	-8(%rbp), %rax
	movzwl	codetab(,%rax,2), %eax
	movq	%rax, -8(%rbp)
	jmp	.LBB43_22
.LBB43_24:                              # %while.end
                                        #   in Loop: Header=BB43_9 Depth=1
	movq	-8(%rbp), %rax
	movzbl	htab(,%rax), %eax
	movl	%eax, -20(%rbp)
	movq	-16(%rbp), %rcx
	movq	%rcx, %rdx
	addq	$1, %rdx
	movq	%rdx, -16(%rbp)
	movb	%al, (%rcx)
.LBB43_25:                              # %do.body
                                        #   Parent Loop BB43_9 Depth=1
                                        # =>  This Inner Loop Header: Depth=2
	movq	-16(%rbp), %rax
	movq	%rax, %rcx
	addq	$-1, %rcx
	movq	%rcx, -16(%rbp)
	movzbl	-1(%rax), %edi
	callq	putchar
# %bb.26:                               # %do.cond
                                        #   in Loop: Header=BB43_25 Depth=2
	movabsq	$htab, %rax
	addq	$65536, %rax            # imm = 0x10000
	cmpq	%rax, -16(%rbp)
	ja	.LBB43_25
# %bb.27:                               # %do.end
                                        #   in Loop: Header=BB43_9 Depth=1
	movq	free_ent, %rax
	movq	%rax, -8(%rbp)
	cmpq	maxmaxcode, %rax
	jge	.LBB43_29
# %bb.28:                               # %if.then58
                                        #   in Loop: Header=BB43_9 Depth=1
	movq	-32(%rbp), %rax
	movq	-8(%rbp), %rcx
	movw	%ax, codetab(,%rcx,2)
	movl	-20(%rbp), %eax
	movq	-8(%rbp), %rcx
	movb	%al, htab(,%rcx)
	movq	-8(%rbp), %rax
	addq	$1, %rax
	movq	%rax, free_ent
.LBB43_29:                              # %if.end63
                                        #   in Loop: Header=BB43_9 Depth=1
	movq	-48(%rbp), %rax
	movq	%rax, -32(%rbp)
	jmp	.LBB43_9
.LBB43_30:                              # %while.end64.loopexit
	jmp	.LBB43_31
.LBB43_31:                              # %while.end64
	movq	stdout, %rdi
	callq	fflush
	movq	stdout, %rdi
	callq	ferror
	cmpl	$0, %eax
	je	.LBB43_33
# %bb.32:                               # %if.then68
	callq	writeerr
.LBB43_33:                              # %if.end69
	cmpl	$650987873, -36(%rbp)   # imm = 0x26CD4961
	jne	.LBB43_35
.LBB43_34:
	addq	$48, %rsp
	popq	%rbp
	.cfi_def_cfa %rsp, 8
	retq
.LBB43_35:                              # %func_exit
	.cfi_def_cfa %rbp, 16
	callq	detect_breach
	jmp	.LBB43_34
.Lfunc_end43:
	.size	decompress.28, .Lfunc_end43-decompress.28
	.cfi_endproc
                                        # -- End function
	.globl	output.29               # -- Begin function output.29
	.p2align	4, 0x90
	.type	output.29,@function
output.29:                              # @output.29
	.cfi_startproc
# %bb.0:                                # %entry
	pushq	%rbp
	.cfi_def_cfa_offset 16
	.cfi_offset %rbp, -16
	movq	%rsp, %rbp
	.cfi_def_cfa_register %rbp
	subq	$32, %rsp
	movl	$40893303, -28(%rbp)    # imm = 0x26FFB77
	movq	%rdi, -24(%rbp)
	movl	offset, %eax
	movl	%eax, -8(%rbp)
	movl	n_bits, %eax
	movl	%eax, -4(%rbp)
	movabsq	$buf, %rax
	movq	%rax, -16(%rbp)
	cmpq	$0, -24(%rbp)
	jl	.LBB44_24
# %bb.1:                                # %if.then
	movl	-8(%rbp), %eax
	sarl	$3, %eax
	movq	-16(%rbp), %rcx
	cltq
	addq	%rax, %rcx
	movq	%rcx, -16(%rbp)
	movl	-8(%rbp), %eax
	andl	$7, %eax
	movl	%eax, -8(%rbp)
	movq	-16(%rbp), %rax
	movsbl	(%rax), %eax
	movslq	-8(%rbp), %rcx
	movzbl	rmask(,%rcx), %ecx
	andl	%ecx, %eax
	cltq
	movq	-24(%rbp), %rdx
	movl	-8(%rbp), %ecx
                                        # kill: def $cl killed $rcx
	shlq	%cl, %rdx
	movslq	-8(%rbp), %rcx
	movzbl	lmask(,%rcx), %ecx
	andq	%rcx, %rdx
	orq	%rdx, %rax
	movq	-16(%rbp), %rcx
	movb	%al, (%rcx)
	movq	-16(%rbp), %rax
	addq	$1, %rax
	movq	%rax, -16(%rbp)
	movl	$8, %eax
	movl	$8, %ecx
	subl	-8(%rbp), %ecx
	movl	-4(%rbp), %edx
	subl	%ecx, %edx
	movl	%edx, -4(%rbp)
	subl	-8(%rbp), %eax
	movq	-24(%rbp), %rdx
	movl	%eax, %ecx
                                        # kill: def $cl killed $rcx
	sarq	%cl, %rdx
	movq	%rdx, -24(%rbp)
	cmpl	$8, -4(%rbp)
	jl	.LBB44_3
# %bb.2:                                # %if.then15
	movq	-24(%rbp), %rax
	movq	-16(%rbp), %rcx
	movq	%rcx, %rdx
	addq	$1, %rdx
	movq	%rdx, -16(%rbp)
	movb	%al, (%rcx)
	movq	-24(%rbp), %rax
	sarq	$8, %rax
	movq	%rax, -24(%rbp)
	movl	-4(%rbp), %eax
	subl	$8, %eax
	movl	%eax, -4(%rbp)
.LBB44_3:                               # %if.end
	cmpl	$0, -4(%rbp)
	je	.LBB44_5
# %bb.4:                                # %if.then20
	movq	-24(%rbp), %rax
	movq	-16(%rbp), %rcx
	movb	%al, (%rcx)
.LBB44_5:                               # %if.end22
	movl	n_bits, %eax
	addl	offset, %eax
	movl	%eax, offset
	movl	offset, %eax
	movl	n_bits, %ecx
	shll	$3, %ecx
	cmpl	%ecx, %eax
	jne	.LBB44_10
# %bb.6:                                # %if.then26
	movabsq	$buf, %rax
	movq	%rax, -16(%rbp)
	movl	n_bits, %eax
	movl	%eax, -4(%rbp)
	movslq	-4(%rbp), %rax
	addq	bytes_out, %rax
	movq	%rax, bytes_out
.LBB44_7:                               # %do.body
                                        # =>This Inner Loop Header: Depth=1
	movq	-16(%rbp), %rax
	movq	%rax, %rcx
	addq	$1, %rcx
	movq	%rcx, -16(%rbp)
	movsbl	(%rax), %edi
	callq	putchar
# %bb.8:                                # %do.cond
                                        #   in Loop: Header=BB44_7 Depth=1
	movl	-4(%rbp), %eax
	addl	$-1, %eax
	movl	%eax, -4(%rbp)
	cmpl	$0, %eax
	jne	.LBB44_7
# %bb.9:                                # %do.end
	movl	$0, offset
.LBB44_10:                              # %if.end32
	movq	free_ent, %rax
	cmpq	maxcode, %rax
	jg	.LBB44_12
# %bb.11:                               # %lor.lhs.false
	cmpl	$0, clear_flg
	jle	.LBB44_23
.LBB44_12:                              # %if.then37
	cmpl	$0, offset
	jle	.LBB44_16
# %bb.13:                               # %if.then40
	movslq	n_bits, %rdx
	movq	stdout, %rcx
	movabsq	$buf, %rdi
	movl	$1, %esi
	callq	fwrite
	movslq	n_bits, %rcx
	cmpq	%rcx, %rax
	je	.LBB44_15
# %bb.14:                               # %if.then46
	callq	writeerr
.LBB44_15:                              # %if.end47
	movslq	n_bits, %rax
	addq	bytes_out, %rax
	movq	%rax, bytes_out
.LBB44_16:                              # %if.end50
	movl	$0, offset
	cmpl	$0, clear_flg
	je	.LBB44_18
# %bb.17:                               # %if.then52
	movl	$9, n_bits
	movq	$511, maxcode           # imm = 0x1FF
	movl	$0, clear_flg
	jmp	.LBB44_22
.LBB44_18:                              # %if.else
	movl	n_bits, %eax
	addl	$1, %eax
	movl	%eax, n_bits
	movl	n_bits, %eax
	cmpl	maxbits, %eax
	jne	.LBB44_20
# %bb.19:                               # %if.then55
	movq	maxmaxcode, %rax
	movq	%rax, maxcode
	jmp	.LBB44_21
.LBB44_20:                              # %if.else56
	movl	n_bits, %ecx
                                        # kill: def $cl killed $ecx
	movl	$1, %eax
	shll	%cl, %eax
	subl	$1, %eax
	cltq
	movq	%rax, maxcode
.LBB44_21:                              # %if.end60
	jmp	.LBB44_22
.LBB44_22:                              # %if.end61
	jmp	.LBB44_23
.LBB44_23:                              # %if.end62
	jmp	.LBB44_29
.LBB44_24:                              # %if.else63
	cmpl	$0, offset
	jle	.LBB44_26
# %bb.25:                               # %if.then66
	movl	offset, %eax
	addl	$7, %eax
	cltd
	movl	$8, %ecx
	idivl	%ecx
	movslq	%eax, %rdx
	movq	stdout, %rcx
	movabsq	$buf, %rdi
	movl	$1, %esi
	callq	fwrite
.LBB44_26:                              # %if.end70
	movl	offset, %eax
	addl	$7, %eax
	cltd
	movl	$8, %ecx
	idivl	%ecx
	cltq
	addq	bytes_out, %rax
	movq	%rax, bytes_out
	movl	$0, offset
	movq	stdout, %rdi
	callq	fflush
	movq	stdout, %rdi
	callq	ferror
	cmpl	$0, %eax
	je	.LBB44_28
# %bb.27:                               # %if.then78
	callq	writeerr
.LBB44_28:                              # %if.end79
	jmp	.LBB44_29
.LBB44_29:                              # %if.end80
	cmpl	$40893303, -28(%rbp)    # imm = 0x26FFB77
	jne	.LBB44_31
.LBB44_30:
	addq	$32, %rsp
	popq	%rbp
	.cfi_def_cfa %rsp, 8
	retq
.LBB44_31:                              # %func_exit
	.cfi_def_cfa %rbp, 16
	callq	detect_breach
	jmp	.LBB44_30
.Lfunc_end44:
	.size	output.29, .Lfunc_end44-output.29
	.cfi_endproc
                                        # -- End function
	.globl	getcode.30              # -- Begin function getcode.30
	.p2align	4, 0x90
	.type	getcode.30,@function
getcode.30:                             # @getcode.30
	.cfi_startproc
# %bb.0:                                # %entry
	pushq	%rbp
	.cfi_def_cfa_offset 16
	.cfi_offset %rbp, -16
	movq	%rsp, %rbp
	.cfi_def_cfa_register %rbp
	pushq	%rbx
	subq	$40, %rsp
	.cfi_offset %rbx, -24
	movl	$200543461, -36(%rbp)   # imm = 0xBF40CE5
	movabsq	$getcode.buf, %rax
	movq	%rax, -24(%rbp)
	cmpl	$0, clear_flg
	jg	.LBB45_3
# %bb.1:                                # %lor.lhs.false
	movl	getcode.offset, %eax
	cmpl	getcode.size, %eax
	jge	.LBB45_3
# %bb.2:                                # %lor.lhs.false2
	movq	free_ent, %rax
	cmpq	maxcode, %rax
	jle	.LBB45_13
.LBB45_3:                               # %if.then
	movq	free_ent, %rax
	cmpq	maxcode, %rax
	jle	.LBB45_8
# %bb.4:                                # %if.then5
	movl	n_bits, %eax
	addl	$1, %eax
	movl	%eax, n_bits
	movl	n_bits, %eax
	cmpl	maxbits, %eax
	jne	.LBB45_6
# %bb.5:                                # %if.then7
	movq	maxmaxcode, %rax
	movq	%rax, maxcode
	jmp	.LBB45_7
.LBB45_6:                               # %if.else
	movl	n_bits, %ecx
                                        # kill: def $cl killed $ecx
	movl	$1, %eax
	shll	%cl, %eax
	subl	$1, %eax
	cltq
	movq	%rax, maxcode
.LBB45_7:                               # %if.end
	jmp	.LBB45_8
.LBB45_8:                               # %if.end8
	cmpl	$0, clear_flg
	jle	.LBB45_10
# %bb.9:                                # %if.then11
	movl	$9, n_bits
	movq	$511, maxcode           # imm = 0x1FF
	movl	$0, clear_flg
.LBB45_10:                              # %if.end12
	movslq	n_bits, %rdx
	movq	stdin, %rcx
	movabsq	$getcode.buf, %rdi
	movl	$1, %esi
	callq	fread
	movl	%eax, getcode.size
	cmpl	$0, getcode.size
	jg	.LBB45_12
# %bb.11:                               # %if.then17
	movq	$-1, -48(%rbp)
	jmp	.LBB45_16
.LBB45_12:                              # %if.end18
	movl	$0, getcode.offset
	movl	getcode.size, %eax
	shll	$3, %eax
	movl	n_bits, %ecx
	subl	$1, %ecx
	subl	%ecx, %eax
	movl	%eax, getcode.size
.LBB45_13:                              # %if.end22
	movl	getcode.offset, %eax
	movl	%eax, -12(%rbp)
	movl	n_bits, %eax
	movl	%eax, -16(%rbp)
	movl	-12(%rbp), %eax
	sarl	$3, %eax
	movq	-24(%rbp), %rcx
	cltq
	addq	%rax, %rcx
	movq	%rcx, -24(%rbp)
	movl	-12(%rbp), %eax
	andl	$7, %eax
	movl	%eax, -12(%rbp)
	movq	-24(%rbp), %rax
	movq	%rax, %rcx
	addq	$1, %rcx
	movq	%rcx, -24(%rbp)
	movzbl	(%rax), %eax
	movl	-12(%rbp), %ecx
                                        # kill: def $cl killed $ecx
	sarl	%cl, %eax
	cltq
	movq	%rax, -32(%rbp)
	movl	$8, %eax
	movl	$8, %ecx
	subl	-12(%rbp), %ecx
	movl	-16(%rbp), %edx
	subl	%ecx, %edx
	movl	%edx, -16(%rbp)
	subl	-12(%rbp), %eax
	movl	%eax, -12(%rbp)
	cmpl	$8, -16(%rbp)
	jl	.LBB45_15
# %bb.14:                               # %if.then31
	movq	-24(%rbp), %rax
	movq	%rax, %rcx
	addq	$1, %rcx
	movq	%rcx, -24(%rbp)
	movzbl	(%rax), %eax
	movl	-12(%rbp), %ecx
                                        # kill: def $cl killed $ecx
	shll	%cl, %eax
	cltq
	orq	-32(%rbp), %rax
	movq	%rax, -32(%rbp)
	movl	-12(%rbp), %eax
	addl	$8, %eax
	movl	%eax, -12(%rbp)
	movl	-16(%rbp), %eax
	subl	$8, %eax
	movl	%eax, -16(%rbp)
.LBB45_15:                              # %if.end37
	movq	-24(%rbp), %rax
	movzbl	(%rax), %eax
	movslq	-16(%rbp), %rcx
	movzbl	rmask(,%rcx), %ecx
	andl	%ecx, %eax
	movl	-12(%rbp), %ecx
                                        # kill: def $cl killed $ecx
	shll	%cl, %eax
	cltq
	orq	-32(%rbp), %rax
	movq	%rax, -32(%rbp)
	movl	n_bits, %eax
	addl	getcode.offset, %eax
	movl	%eax, getcode.offset
	movq	-32(%rbp), %rax
	movq	%rax, -48(%rbp)
.LBB45_16:                              # %return
	movq	-48(%rbp), %rbx
	cmpl	$200543461, -36(%rbp)   # imm = 0xBF40CE5
	jne	.LBB45_18
.LBB45_17:
	movq	%rbx, %rax
	addq	$40, %rsp
	popq	%rbx
	popq	%rbp
	.cfi_def_cfa %rsp, 8
	retq
.LBB45_18:                              # %func_exit
	.cfi_def_cfa %rbp, 16
	callq	detect_breach
	jmp	.LBB45_17
.Lfunc_end45:
	.size	getcode.30, .Lfunc_end45-getcode.30
	.cfi_endproc
                                        # -- End function
	.globl	decompress.31           # -- Begin function decompress.31
	.p2align	4, 0x90
	.type	decompress.31,@function
decompress.31:                          # @decompress.31
	.cfi_startproc
# %bb.0:                                # %entry
	pushq	%rbp
	.cfi_def_cfa_offset 16
	.cfi_offset %rbp, -16
	movq	%rsp, %rbp
	.cfi_def_cfa_register %rbp
	subq	$48, %rsp
	movl	$1702996725, -36(%rbp)  # imm = 0x6581AAF5
	movl	$9, n_bits
	movq	$511, maxcode           # imm = 0x1FF
	movq	$255, -8(%rbp)
.LBB46_1:                               # %for.cond
                                        # =>This Inner Loop Header: Depth=1
	cmpq	$0, -8(%rbp)
	jl	.LBB46_4
# %bb.2:                                # %for.body
                                        #   in Loop: Header=BB46_1 Depth=1
	movq	-8(%rbp), %rax
	movw	$0, codetab(,%rax,2)
	movq	-8(%rbp), %rax
	movq	-8(%rbp), %rcx
	movb	%al, htab(,%rcx)
# %bb.3:                                # %for.inc
                                        #   in Loop: Header=BB46_1 Depth=1
	movq	-8(%rbp), %rax
	addq	$-1, %rax
	movq	%rax, -8(%rbp)
	jmp	.LBB46_1
.LBB46_4:                               # %for.end
	movl	block_compress, %eax
	cmpl	$0, %eax
	movl	$257, %eax              # imm = 0x101
	movl	$256, %ecx              # imm = 0x100
	cmovnel	%eax, %ecx
	movslq	%ecx, %rax
	movq	%rax, free_ent
	callq	getcode
	movq	%rax, -32(%rbp)
	movl	%eax, -20(%rbp)
	cmpq	$-1, -32(%rbp)
	jne	.LBB46_6
# %bb.5:                                # %if.then
	jmp	.LBB46_33
.LBB46_6:                               # %if.end
	movl	-20(%rbp), %eax
	movsbl	%al, %edi
	callq	putchar
	movq	stdout, %rdi
	callq	ferror
	cmpl	$0, %eax
	je	.LBB46_8
# %bb.7:                                # %if.then11
	callq	writeerr
.LBB46_8:                               # %if.end12
	movabsq	$htab, %rax
	addq	$65536, %rax            # imm = 0x10000
	movq	%rax, -16(%rbp)
.LBB46_9:                               # %while.cond
                                        # =>This Loop Header: Depth=1
                                        #     Child Loop BB46_13 Depth 2
                                        #     Child Loop BB46_22 Depth 2
                                        #     Child Loop BB46_25 Depth 2
	callq	getcode
	movq	%rax, -8(%rbp)
	cmpq	$-1, %rax
	jle	.LBB46_30
# %bb.10:                               # %while.body
                                        #   in Loop: Header=BB46_9 Depth=1
	cmpq	$256, -8(%rbp)          # imm = 0x100
	jne	.LBB46_19
# %bb.11:                               # %land.lhs.true
                                        #   in Loop: Header=BB46_9 Depth=1
	cmpl	$0, block_compress
	je	.LBB46_19
# %bb.12:                               # %if.then19
                                        #   in Loop: Header=BB46_9 Depth=1
	movq	$255, -8(%rbp)
.LBB46_13:                              # %for.cond20
                                        #   Parent Loop BB46_9 Depth=1
                                        # =>  This Inner Loop Header: Depth=2
	cmpq	$0, -8(%rbp)
	jl	.LBB46_16
# %bb.14:                               # %for.body23
                                        #   in Loop: Header=BB46_13 Depth=2
	movq	-8(%rbp), %rax
	movw	$0, codetab(,%rax,2)
# %bb.15:                               # %for.inc25
                                        #   in Loop: Header=BB46_13 Depth=2
	movq	-8(%rbp), %rax
	addq	$-1, %rax
	movq	%rax, -8(%rbp)
	jmp	.LBB46_13
.LBB46_16:                              # %for.end27
                                        #   in Loop: Header=BB46_9 Depth=1
	movl	$1, clear_flg
	movq	$256, free_ent          # imm = 0x100
	callq	getcode
	movq	%rax, -8(%rbp)
	cmpq	$-1, %rax
	jne	.LBB46_18
# %bb.17:                               # %if.then31
	jmp	.LBB46_31
.LBB46_18:                              # %if.end32
                                        #   in Loop: Header=BB46_9 Depth=1
	jmp	.LBB46_19
.LBB46_19:                              # %if.end33
                                        #   in Loop: Header=BB46_9 Depth=1
	movq	-8(%rbp), %rax
	movq	%rax, -48(%rbp)
	movq	-8(%rbp), %rax
	cmpq	free_ent, %rax
	jl	.LBB46_21
# %bb.20:                               # %if.then36
                                        #   in Loop: Header=BB46_9 Depth=1
	movl	-20(%rbp), %eax
	movq	-16(%rbp), %rcx
	movq	%rcx, %rdx
	addq	$1, %rdx
	movq	%rdx, -16(%rbp)
	movb	%al, (%rcx)
	movq	-32(%rbp), %rax
	movq	%rax, -8(%rbp)
.LBB46_21:                              # %if.end38
                                        #   in Loop: Header=BB46_9 Depth=1
	jmp	.LBB46_22
.LBB46_22:                              # %while.cond39
                                        #   Parent Loop BB46_9 Depth=1
                                        # =>  This Inner Loop Header: Depth=2
	cmpq	$256, -8(%rbp)          # imm = 0x100
	jl	.LBB46_24
# %bb.23:                               # %while.body42
                                        #   in Loop: Header=BB46_22 Depth=2
	movq	-8(%rbp), %rax
	movb	htab(,%rax), %al
	movq	-16(%rbp), %rcx
	movq	%rcx, %rdx
	addq	$1, %rdx
	movq	%rdx, -16(%rbp)
	movb	%al, (%rcx)
	movq	-8(%rbp), %rax
	movzwl	codetab(,%rax,2), %eax
	movq	%rax, -8(%rbp)
	jmp	.LBB46_22
.LBB46_24:                              # %while.end
                                        #   in Loop: Header=BB46_9 Depth=1
	movq	-8(%rbp), %rax
	movzbl	htab(,%rax), %eax
	movl	%eax, -20(%rbp)
	movq	-16(%rbp), %rcx
	movq	%rcx, %rdx
	addq	$1, %rdx
	movq	%rdx, -16(%rbp)
	movb	%al, (%rcx)
.LBB46_25:                              # %do.body
                                        #   Parent Loop BB46_9 Depth=1
                                        # =>  This Inner Loop Header: Depth=2
	movq	-16(%rbp), %rax
	movq	%rax, %rcx
	addq	$-1, %rcx
	movq	%rcx, -16(%rbp)
	movzbl	-1(%rax), %edi
	callq	putchar
# %bb.26:                               # %do.cond
                                        #   in Loop: Header=BB46_25 Depth=2
	movabsq	$htab, %rax
	addq	$65536, %rax            # imm = 0x10000
	cmpq	%rax, -16(%rbp)
	ja	.LBB46_25
# %bb.27:                               # %do.end
                                        #   in Loop: Header=BB46_9 Depth=1
	movq	free_ent, %rax
	movq	%rax, -8(%rbp)
	cmpq	maxmaxcode, %rax
	jge	.LBB46_29
# %bb.28:                               # %if.then58
                                        #   in Loop: Header=BB46_9 Depth=1
	movq	-32(%rbp), %rax
	movq	-8(%rbp), %rcx
	movw	%ax, codetab(,%rcx,2)
	movl	-20(%rbp), %eax
	movq	-8(%rbp), %rcx
	movb	%al, htab(,%rcx)
	movq	-8(%rbp), %rax
	addq	$1, %rax
	movq	%rax, free_ent
.LBB46_29:                              # %if.end63
                                        #   in Loop: Header=BB46_9 Depth=1
	movq	-48(%rbp), %rax
	movq	%rax, -32(%rbp)
	jmp	.LBB46_9
.LBB46_30:                              # %while.end64.loopexit
	jmp	.LBB46_31
.LBB46_31:                              # %while.end64
	movq	stdout, %rdi
	callq	fflush
	movq	stdout, %rdi
	callq	ferror
	cmpl	$0, %eax
	je	.LBB46_33
# %bb.32:                               # %if.then68
	callq	writeerr
.LBB46_33:                              # %if.end69
	cmpl	$1702996725, -36(%rbp)  # imm = 0x6581AAF5
	jne	.LBB46_35
.LBB46_34:
	addq	$48, %rsp
	popq	%rbp
	.cfi_def_cfa %rsp, 8
	retq
.LBB46_35:                              # %func_exit
	.cfi_def_cfa %rbp, 16
	callq	detect_breach
	jmp	.LBB46_34
.Lfunc_end46:
	.size	decompress.31, .Lfunc_end46-decompress.31
	.cfi_endproc
                                        # -- End function
	.globl	scott_hack.32           # -- Begin function scott_hack.32
	.p2align	4, 0x90
	.type	scott_hack.32,@function
scott_hack.32:                          # @scott_hack.32
	.cfi_startproc
# %bb.0:                                # %entry
	pushq	%rbp
	.cfi_def_cfa_offset 16
	.cfi_offset %rbp, -16
	movq	%rsp, %rbp
	.cfi_def_cfa_register %rbp
	pushq	%rbx
	subq	$40, %rsp
	.cfi_offset %rbx, -24
	movl	$1290926107, -28(%rbp)  # imm = 0x4CF1F81B
	movq	%rdi, -16(%rbp)
	movq	%rsi, -48(%rbp)
	movl	%edx, -32(%rbp)
	movl	%ecx, -24(%rbp)
	movq	%r8, -40(%rbp)
.LBB47_1:                               # %probeSH
                                        # =>This Inner Loop Header: Depth=1
	movslq	-32(%rbp), %rax
	movq	-16(%rbp), %rcx
	movq	(%rcx), %rdx
	subq	%rax, %rdx
	movq	%rdx, (%rcx)
	cmpq	$0, %rdx
	jge	.LBB47_3
# %bb.2:                                # %if.then
                                        #   in Loop: Header=BB47_1 Depth=1
	movslq	-24(%rbp), %rax
	movq	-16(%rbp), %rcx
	addq	(%rcx), %rax
	movq	%rax, (%rcx)
.LBB47_3:                               # %if.end
                                        #   in Loop: Header=BB47_1 Depth=1
	movq	-16(%rbp), %rax
	movq	(%rax), %rax
	movq	htab(,%rax,8), %rax
	cmpq	-48(%rbp), %rax
	jne	.LBB47_5
# %bb.4:                                # %if.then5
	movq	-16(%rbp), %rax
	movq	(%rax), %rax
	movzwl	codetab(,%rax,2), %eax
	movq	-40(%rbp), %rcx
	movq	%rax, (%rcx)
	movl	$1, -20(%rbp)
	jmp	.LBB47_8
.LBB47_5:                               # %if.end8
                                        #   in Loop: Header=BB47_1 Depth=1
	movq	-16(%rbp), %rax
	movq	(%rax), %rax
	cmpq	$0, htab(,%rax,8)
	jle	.LBB47_7
# %bb.6:                                # %if.then12
                                        #   in Loop: Header=BB47_1 Depth=1
	jmp	.LBB47_1
.LBB47_7:                               # %if.end13
	movl	$0, -20(%rbp)
.LBB47_8:                               # %return
	movl	-20(%rbp), %ebx
	cmpl	$1290926107, -28(%rbp)  # imm = 0x4CF1F81B
	jne	.LBB47_10
.LBB47_9:
	movl	%ebx, %eax
	addq	$40, %rsp
	popq	%rbx
	popq	%rbp
	.cfi_def_cfa %rsp, 8
	retq
.LBB47_10:                              # %func_exit
	.cfi_def_cfa %rbp, 16
	callq	detect_breach
	jmp	.LBB47_9
.Lfunc_end47:
	.size	scott_hack.32, .Lfunc_end47-scott_hack.32
	.cfi_endproc
                                        # -- End function
	.globl	getcode.33              # -- Begin function getcode.33
	.p2align	4, 0x90
	.type	getcode.33,@function
getcode.33:                             # @getcode.33
	.cfi_startproc
# %bb.0:                                # %entry
	pushq	%rbp
	.cfi_def_cfa_offset 16
	.cfi_offset %rbp, -16
	movq	%rsp, %rbp
	.cfi_def_cfa_register %rbp
	pushq	%rbx
	subq	$40, %rsp
	.cfi_offset %rbx, -24
	movl	$137226253, -36(%rbp)   # imm = 0x82DE80D
	movabsq	$getcode.buf, %rax
	movq	%rax, -24(%rbp)
	cmpl	$0, clear_flg
	jg	.LBB48_3
# %bb.1:                                # %lor.lhs.false
	movl	getcode.offset, %eax
	cmpl	getcode.size, %eax
	jge	.LBB48_3
# %bb.2:                                # %lor.lhs.false2
	movq	free_ent, %rax
	cmpq	maxcode, %rax
	jle	.LBB48_13
.LBB48_3:                               # %if.then
	movq	free_ent, %rax
	cmpq	maxcode, %rax
	jle	.LBB48_8
# %bb.4:                                # %if.then5
	movl	n_bits, %eax
	addl	$1, %eax
	movl	%eax, n_bits
	movl	n_bits, %eax
	cmpl	maxbits, %eax
	jne	.LBB48_6
# %bb.5:                                # %if.then7
	movq	maxmaxcode, %rax
	movq	%rax, maxcode
	jmp	.LBB48_7
.LBB48_6:                               # %if.else
	movl	n_bits, %ecx
                                        # kill: def $cl killed $ecx
	movl	$1, %eax
	shll	%cl, %eax
	subl	$1, %eax
	cltq
	movq	%rax, maxcode
.LBB48_7:                               # %if.end
	jmp	.LBB48_8
.LBB48_8:                               # %if.end8
	cmpl	$0, clear_flg
	jle	.LBB48_10
# %bb.9:                                # %if.then11
	movl	$9, n_bits
	movq	$511, maxcode           # imm = 0x1FF
	movl	$0, clear_flg
.LBB48_10:                              # %if.end12
	movslq	n_bits, %rdx
	movq	stdin, %rcx
	movabsq	$getcode.buf, %rdi
	movl	$1, %esi
	callq	fread
	movl	%eax, getcode.size
	cmpl	$0, getcode.size
	jg	.LBB48_12
# %bb.11:                               # %if.then17
	movq	$-1, -48(%rbp)
	jmp	.LBB48_16
.LBB48_12:                              # %if.end18
	movl	$0, getcode.offset
	movl	getcode.size, %eax
	shll	$3, %eax
	movl	n_bits, %ecx
	subl	$1, %ecx
	subl	%ecx, %eax
	movl	%eax, getcode.size
.LBB48_13:                              # %if.end22
	movl	getcode.offset, %eax
	movl	%eax, -12(%rbp)
	movl	n_bits, %eax
	movl	%eax, -16(%rbp)
	movl	-12(%rbp), %eax
	sarl	$3, %eax
	movq	-24(%rbp), %rcx
	cltq
	addq	%rax, %rcx
	movq	%rcx, -24(%rbp)
	movl	-12(%rbp), %eax
	andl	$7, %eax
	movl	%eax, -12(%rbp)
	movq	-24(%rbp), %rax
	movq	%rax, %rcx
	addq	$1, %rcx
	movq	%rcx, -24(%rbp)
	movzbl	(%rax), %eax
	movl	-12(%rbp), %ecx
                                        # kill: def $cl killed $ecx
	sarl	%cl, %eax
	cltq
	movq	%rax, -32(%rbp)
	movl	$8, %eax
	movl	$8, %ecx
	subl	-12(%rbp), %ecx
	movl	-16(%rbp), %edx
	subl	%ecx, %edx
	movl	%edx, -16(%rbp)
	subl	-12(%rbp), %eax
	movl	%eax, -12(%rbp)
	cmpl	$8, -16(%rbp)
	jl	.LBB48_15
# %bb.14:                               # %if.then31
	movq	-24(%rbp), %rax
	movq	%rax, %rcx
	addq	$1, %rcx
	movq	%rcx, -24(%rbp)
	movzbl	(%rax), %eax
	movl	-12(%rbp), %ecx
                                        # kill: def $cl killed $ecx
	shll	%cl, %eax
	cltq
	orq	-32(%rbp), %rax
	movq	%rax, -32(%rbp)
	movl	-12(%rbp), %eax
	addl	$8, %eax
	movl	%eax, -12(%rbp)
	movl	-16(%rbp), %eax
	subl	$8, %eax
	movl	%eax, -16(%rbp)
.LBB48_15:                              # %if.end37
	movq	-24(%rbp), %rax
	movzbl	(%rax), %eax
	movslq	-16(%rbp), %rcx
	movzbl	rmask(,%rcx), %ecx
	andl	%ecx, %eax
	movl	-12(%rbp), %ecx
                                        # kill: def $cl killed $ecx
	shll	%cl, %eax
	cltq
	orq	-32(%rbp), %rax
	movq	%rax, -32(%rbp)
	movl	n_bits, %eax
	addl	getcode.offset, %eax
	movl	%eax, getcode.offset
	movq	-32(%rbp), %rax
	movq	%rax, -48(%rbp)
.LBB48_16:                              # %return
	movq	-48(%rbp), %rbx
	cmpl	$137226253, -36(%rbp)   # imm = 0x82DE80D
	jne	.LBB48_18
.LBB48_17:
	movq	%rbx, %rax
	addq	$40, %rsp
	popq	%rbx
	popq	%rbp
	.cfi_def_cfa %rsp, 8
	retq
.LBB48_18:                              # %func_exit
	.cfi_def_cfa %rbp, 16
	callq	detect_breach
	jmp	.LBB48_17
.Lfunc_end48:
	.size	getcode.33, .Lfunc_end48-getcode.33
	.cfi_endproc
                                        # -- End function
	.globl	scott_hack.34           # -- Begin function scott_hack.34
	.p2align	4, 0x90
	.type	scott_hack.34,@function
scott_hack.34:                          # @scott_hack.34
	.cfi_startproc
# %bb.0:                                # %entry
	pushq	%rbp
	.cfi_def_cfa_offset 16
	.cfi_offset %rbp, -16
	movq	%rsp, %rbp
	.cfi_def_cfa_register %rbp
	pushq	%rbx
	subq	$40, %rsp
	.cfi_offset %rbx, -24
	movl	$2130620880, -32(%rbp)  # imm = 0x7EFEB1D0
	movq	%rdi, -16(%rbp)
	movq	%rsi, -40(%rbp)
	movl	%edx, -24(%rbp)
	movl	%ecx, -28(%rbp)
	movq	%r8, -48(%rbp)
.LBB49_1:                               # %probeSH
                                        # =>This Inner Loop Header: Depth=1
	movslq	-24(%rbp), %rax
	movq	-16(%rbp), %rcx
	movq	(%rcx), %rdx
	subq	%rax, %rdx
	movq	%rdx, (%rcx)
	cmpq	$0, %rdx
	jge	.LBB49_3
# %bb.2:                                # %if.then
                                        #   in Loop: Header=BB49_1 Depth=1
	movslq	-28(%rbp), %rax
	movq	-16(%rbp), %rcx
	addq	(%rcx), %rax
	movq	%rax, (%rcx)
.LBB49_3:                               # %if.end
                                        #   in Loop: Header=BB49_1 Depth=1
	movq	-16(%rbp), %rax
	movq	(%rax), %rax
	movq	htab(,%rax,8), %rax
	cmpq	-40(%rbp), %rax
	jne	.LBB49_5
# %bb.4:                                # %if.then5
	movq	-16(%rbp), %rax
	movq	(%rax), %rax
	movzwl	codetab(,%rax,2), %eax
	movq	-48(%rbp), %rcx
	movq	%rax, (%rcx)
	movl	$1, -20(%rbp)
	jmp	.LBB49_8
.LBB49_5:                               # %if.end8
                                        #   in Loop: Header=BB49_1 Depth=1
	movq	-16(%rbp), %rax
	movq	(%rax), %rax
	cmpq	$0, htab(,%rax,8)
	jle	.LBB49_7
# %bb.6:                                # %if.then12
                                        #   in Loop: Header=BB49_1 Depth=1
	jmp	.LBB49_1
.LBB49_7:                               # %if.end13
	movl	$0, -20(%rbp)
.LBB49_8:                               # %return
	movl	-20(%rbp), %ebx
	cmpl	$2130620880, -32(%rbp)  # imm = 0x7EFEB1D0
	jne	.LBB49_10
.LBB49_9:
	movl	%ebx, %eax
	addq	$40, %rsp
	popq	%rbx
	popq	%rbp
	.cfi_def_cfa %rsp, 8
	retq
.LBB49_10:                              # %func_exit
	.cfi_def_cfa %rbp, 16
	callq	detect_breach
	jmp	.LBB49_9
.Lfunc_end49:
	.size	scott_hack.34, .Lfunc_end49-scott_hack.34
	.cfi_endproc
                                        # -- End function
	.globl	prratio.35              # -- Begin function prratio.35
	.p2align	4, 0x90
	.type	prratio.35,@function
prratio.35:                             # @prratio.35
	.cfi_startproc
# %bb.0:                                # %entry
	pushq	%rbp
	.cfi_def_cfa_offset 16
	.cfi_offset %rbp, -16
	movq	%rsp, %rbp
	.cfi_def_cfa_register %rbp
	subq	$48, %rsp
	movl	$721092043, -20(%rbp)   # imm = 0x2AFAFDCB
	movq	%rdi, -32(%rbp)
	movq	%rsi, -16(%rbp)
	movq	%rdx, -40(%rbp)
	cmpq	$214748, -16(%rbp)      # imm = 0x346DC
	jle	.LBB50_2
# %bb.1:                                # %if.then
	movq	-16(%rbp), %rcx
	movq	-40(%rbp), %rax
	cqto
	movl	$10000, %esi            # imm = 0x2710
	idivq	%rsi
	movq	%rax, %rsi
	movq	%rcx, %rax
	cqto
	idivq	%rsi
	movl	%eax, -4(%rbp)
	jmp	.LBB50_3
.LBB50_2:                               # %if.else
	imulq	$10000, -16(%rbp), %rax # imm = 0x2710
	cqto
	idivq	-40(%rbp)
	movl	%eax, -4(%rbp)
.LBB50_3:                               # %if.end
	cmpl	$0, -4(%rbp)
	jge	.LBB50_5
# %bb.4:                                # %if.then6
	movq	-32(%rbp), %rsi
	movl	$45, %edi
	callq	_IO_putc
	xorl	%eax, %eax
	subl	-4(%rbp), %eax
	movl	%eax, -4(%rbp)
.LBB50_5:                               # %if.end7
	movq	-32(%rbp), %rdi
	movl	-4(%rbp), %eax
	cltd
	movl	$100, %ecx
	idivl	%ecx
	movl	%eax, %r8d
	movl	-4(%rbp), %eax
	cltd
	idivl	%ecx
	movl	%edx, %ecx
	movabsq	$.L.str.25, %rsi
	movl	%r8d, %edx
	movb	$0, %al
	callq	fprintf
	cmpl	$721092043, -20(%rbp)   # imm = 0x2AFAFDCB
	jne	.LBB50_7
.LBB50_6:
	addq	$48, %rsp
	popq	%rbp
	.cfi_def_cfa %rsp, 8
	retq
.LBB50_7:                               # %func_exit
	.cfi_def_cfa %rbp, 16
	callq	detect_breach
	jmp	.LBB50_6
.Lfunc_end50:
	.size	prratio.35, .Lfunc_end50-prratio.35
	.cfi_endproc
                                        # -- End function
	.globl	scott_hack.36           # -- Begin function scott_hack.36
	.p2align	4, 0x90
	.type	scott_hack.36,@function
scott_hack.36:                          # @scott_hack.36
	.cfi_startproc
# %bb.0:                                # %entry
	pushq	%rbp
	.cfi_def_cfa_offset 16
	.cfi_offset %rbp, -16
	movq	%rsp, %rbp
	.cfi_def_cfa_register %rbp
	pushq	%rbx
	subq	$40, %rsp
	.cfi_offset %rbx, -24
	movl	$1327488294, -32(%rbp)  # imm = 0x4F1FDD26
	movq	%rdi, -16(%rbp)
	movq	%rsi, -40(%rbp)
	movl	%edx, -28(%rbp)
	movl	%ecx, -24(%rbp)
	movq	%r8, -48(%rbp)
.LBB51_1:                               # %probeSH
                                        # =>This Inner Loop Header: Depth=1
	movslq	-28(%rbp), %rax
	movq	-16(%rbp), %rcx
	movq	(%rcx), %rdx
	subq	%rax, %rdx
	movq	%rdx, (%rcx)
	cmpq	$0, %rdx
	jge	.LBB51_3
# %bb.2:                                # %if.then
                                        #   in Loop: Header=BB51_1 Depth=1
	movslq	-24(%rbp), %rax
	movq	-16(%rbp), %rcx
	addq	(%rcx), %rax
	movq	%rax, (%rcx)
.LBB51_3:                               # %if.end
                                        #   in Loop: Header=BB51_1 Depth=1
	movq	-16(%rbp), %rax
	movq	(%rax), %rax
	movq	htab(,%rax,8), %rax
	cmpq	-40(%rbp), %rax
	jne	.LBB51_5
# %bb.4:                                # %if.then5
	movq	-16(%rbp), %rax
	movq	(%rax), %rax
	movzwl	codetab(,%rax,2), %eax
	movq	-48(%rbp), %rcx
	movq	%rax, (%rcx)
	movl	$1, -20(%rbp)
	jmp	.LBB51_8
.LBB51_5:                               # %if.end8
                                        #   in Loop: Header=BB51_1 Depth=1
	movq	-16(%rbp), %rax
	movq	(%rax), %rax
	cmpq	$0, htab(,%rax,8)
	jle	.LBB51_7
# %bb.6:                                # %if.then12
                                        #   in Loop: Header=BB51_1 Depth=1
	jmp	.LBB51_1
.LBB51_7:                               # %if.end13
	movl	$0, -20(%rbp)
.LBB51_8:                               # %return
	movl	-20(%rbp), %ebx
	cmpl	$1327488294, -32(%rbp)  # imm = 0x4F1FDD26
	jne	.LBB51_10
.LBB51_9:
	movl	%ebx, %eax
	addq	$40, %rsp
	popq	%rbx
	popq	%rbp
	.cfi_def_cfa %rsp, 8
	retq
.LBB51_10:                              # %func_exit
	.cfi_def_cfa %rbp, 16
	callq	detect_breach
	jmp	.LBB51_9
.Lfunc_end51:
	.size	scott_hack.36, .Lfunc_end51-scott_hack.36
	.cfi_endproc
                                        # -- End function
	.globl	scott_hack.37           # -- Begin function scott_hack.37
	.p2align	4, 0x90
	.type	scott_hack.37,@function
scott_hack.37:                          # @scott_hack.37
	.cfi_startproc
# %bb.0:                                # %entry
	pushq	%rbp
	.cfi_def_cfa_offset 16
	.cfi_offset %rbp, -16
	movq	%rsp, %rbp
	.cfi_def_cfa_register %rbp
	pushq	%rbx
	subq	$40, %rsp
	.cfi_offset %rbx, -24
	movl	$948407457, -32(%rbp)   # imm = 0x38878CA1
	movq	%rdi, -16(%rbp)
	movq	%rsi, -48(%rbp)
	movl	%edx, -24(%rbp)
	movl	%ecx, -28(%rbp)
	movq	%r8, -40(%rbp)
.LBB52_1:                               # %probeSH
                                        # =>This Inner Loop Header: Depth=1
	movslq	-24(%rbp), %rax
	movq	-16(%rbp), %rcx
	movq	(%rcx), %rdx
	subq	%rax, %rdx
	movq	%rdx, (%rcx)
	cmpq	$0, %rdx
	jge	.LBB52_3
# %bb.2:                                # %if.then
                                        #   in Loop: Header=BB52_1 Depth=1
	movslq	-28(%rbp), %rax
	movq	-16(%rbp), %rcx
	addq	(%rcx), %rax
	movq	%rax, (%rcx)
.LBB52_3:                               # %if.end
                                        #   in Loop: Header=BB52_1 Depth=1
	movq	-16(%rbp), %rax
	movq	(%rax), %rax
	movq	htab(,%rax,8), %rax
	cmpq	-48(%rbp), %rax
	jne	.LBB52_5
# %bb.4:                                # %if.then5
	movq	-16(%rbp), %rax
	movq	(%rax), %rax
	movzwl	codetab(,%rax,2), %eax
	movq	-40(%rbp), %rcx
	movq	%rax, (%rcx)
	movl	$1, -20(%rbp)
	jmp	.LBB52_8
.LBB52_5:                               # %if.end8
                                        #   in Loop: Header=BB52_1 Depth=1
	movq	-16(%rbp), %rax
	movq	(%rax), %rax
	cmpq	$0, htab(,%rax,8)
	jle	.LBB52_7
# %bb.6:                                # %if.then12
                                        #   in Loop: Header=BB52_1 Depth=1
	jmp	.LBB52_1
.LBB52_7:                               # %if.end13
	movl	$0, -20(%rbp)
.LBB52_8:                               # %return
	movl	-20(%rbp), %ebx
	cmpl	$948407457, -32(%rbp)   # imm = 0x38878CA1
	jne	.LBB52_10
.LBB52_9:
	movl	%ebx, %eax
	addq	$40, %rsp
	popq	%rbx
	popq	%rbp
	.cfi_def_cfa %rsp, 8
	retq
.LBB52_10:                              # %func_exit
	.cfi_def_cfa %rbp, 16
	callq	detect_breach
	jmp	.LBB52_9
.Lfunc_end52:
	.size	scott_hack.37, .Lfunc_end52-scott_hack.37
	.cfi_endproc
                                        # -- End function
	.globl	output.38               # -- Begin function output.38
	.p2align	4, 0x90
	.type	output.38,@function
output.38:                              # @output.38
	.cfi_startproc
# %bb.0:                                # %entry
	pushq	%rbp
	.cfi_def_cfa_offset 16
	.cfi_offset %rbp, -16
	movq	%rsp, %rbp
	.cfi_def_cfa_register %rbp
	subq	$32, %rsp
	movl	$513438179, -28(%rbp)   # imm = 0x1E9A71E3
	movq	%rdi, -24(%rbp)
	movl	offset, %eax
	movl	%eax, -8(%rbp)
	movl	n_bits, %eax
	movl	%eax, -4(%rbp)
	movabsq	$buf, %rax
	movq	%rax, -16(%rbp)
	cmpq	$0, -24(%rbp)
	jl	.LBB53_24
# %bb.1:                                # %if.then
	movl	-8(%rbp), %eax
	sarl	$3, %eax
	movq	-16(%rbp), %rcx
	cltq
	addq	%rax, %rcx
	movq	%rcx, -16(%rbp)
	movl	-8(%rbp), %eax
	andl	$7, %eax
	movl	%eax, -8(%rbp)
	movq	-16(%rbp), %rax
	movsbl	(%rax), %eax
	movslq	-8(%rbp), %rcx
	movzbl	rmask(,%rcx), %ecx
	andl	%ecx, %eax
	cltq
	movq	-24(%rbp), %rdx
	movl	-8(%rbp), %ecx
                                        # kill: def $cl killed $rcx
	shlq	%cl, %rdx
	movslq	-8(%rbp), %rcx
	movzbl	lmask(,%rcx), %ecx
	andq	%rcx, %rdx
	orq	%rdx, %rax
	movq	-16(%rbp), %rcx
	movb	%al, (%rcx)
	movq	-16(%rbp), %rax
	addq	$1, %rax
	movq	%rax, -16(%rbp)
	movl	$8, %eax
	movl	$8, %ecx
	subl	-8(%rbp), %ecx
	movl	-4(%rbp), %edx
	subl	%ecx, %edx
	movl	%edx, -4(%rbp)
	subl	-8(%rbp), %eax
	movq	-24(%rbp), %rdx
	movl	%eax, %ecx
                                        # kill: def $cl killed $rcx
	sarq	%cl, %rdx
	movq	%rdx, -24(%rbp)
	cmpl	$8, -4(%rbp)
	jl	.LBB53_3
# %bb.2:                                # %if.then15
	movq	-24(%rbp), %rax
	movq	-16(%rbp), %rcx
	movq	%rcx, %rdx
	addq	$1, %rdx
	movq	%rdx, -16(%rbp)
	movb	%al, (%rcx)
	movq	-24(%rbp), %rax
	sarq	$8, %rax
	movq	%rax, -24(%rbp)
	movl	-4(%rbp), %eax
	subl	$8, %eax
	movl	%eax, -4(%rbp)
.LBB53_3:                               # %if.end
	cmpl	$0, -4(%rbp)
	je	.LBB53_5
# %bb.4:                                # %if.then20
	movq	-24(%rbp), %rax
	movq	-16(%rbp), %rcx
	movb	%al, (%rcx)
.LBB53_5:                               # %if.end22
	movl	n_bits, %eax
	addl	offset, %eax
	movl	%eax, offset
	movl	offset, %eax
	movl	n_bits, %ecx
	shll	$3, %ecx
	cmpl	%ecx, %eax
	jne	.LBB53_10
# %bb.6:                                # %if.then26
	movabsq	$buf, %rax
	movq	%rax, -16(%rbp)
	movl	n_bits, %eax
	movl	%eax, -4(%rbp)
	movslq	-4(%rbp), %rax
	addq	bytes_out, %rax
	movq	%rax, bytes_out
.LBB53_7:                               # %do.body
                                        # =>This Inner Loop Header: Depth=1
	movq	-16(%rbp), %rax
	movq	%rax, %rcx
	addq	$1, %rcx
	movq	%rcx, -16(%rbp)
	movsbl	(%rax), %edi
	callq	putchar
# %bb.8:                                # %do.cond
                                        #   in Loop: Header=BB53_7 Depth=1
	movl	-4(%rbp), %eax
	addl	$-1, %eax
	movl	%eax, -4(%rbp)
	cmpl	$0, %eax
	jne	.LBB53_7
# %bb.9:                                # %do.end
	movl	$0, offset
.LBB53_10:                              # %if.end32
	movq	free_ent, %rax
	cmpq	maxcode, %rax
	jg	.LBB53_12
# %bb.11:                               # %lor.lhs.false
	cmpl	$0, clear_flg
	jle	.LBB53_23
.LBB53_12:                              # %if.then37
	cmpl	$0, offset
	jle	.LBB53_16
# %bb.13:                               # %if.then40
	movslq	n_bits, %rdx
	movq	stdout, %rcx
	movabsq	$buf, %rdi
	movl	$1, %esi
	callq	fwrite
	movslq	n_bits, %rcx
	cmpq	%rcx, %rax
	je	.LBB53_15
# %bb.14:                               # %if.then46
	callq	writeerr
.LBB53_15:                              # %if.end47
	movslq	n_bits, %rax
	addq	bytes_out, %rax
	movq	%rax, bytes_out
.LBB53_16:                              # %if.end50
	movl	$0, offset
	cmpl	$0, clear_flg
	je	.LBB53_18
# %bb.17:                               # %if.then52
	movl	$9, n_bits
	movq	$511, maxcode           # imm = 0x1FF
	movl	$0, clear_flg
	jmp	.LBB53_22
.LBB53_18:                              # %if.else
	movl	n_bits, %eax
	addl	$1, %eax
	movl	%eax, n_bits
	movl	n_bits, %eax
	cmpl	maxbits, %eax
	jne	.LBB53_20
# %bb.19:                               # %if.then55
	movq	maxmaxcode, %rax
	movq	%rax, maxcode
	jmp	.LBB53_21
.LBB53_20:                              # %if.else56
	movl	n_bits, %ecx
                                        # kill: def $cl killed $ecx
	movl	$1, %eax
	shll	%cl, %eax
	subl	$1, %eax
	cltq
	movq	%rax, maxcode
.LBB53_21:                              # %if.end60
	jmp	.LBB53_22
.LBB53_22:                              # %if.end61
	jmp	.LBB53_23
.LBB53_23:                              # %if.end62
	jmp	.LBB53_29
.LBB53_24:                              # %if.else63
	cmpl	$0, offset
	jle	.LBB53_26
# %bb.25:                               # %if.then66
	movl	offset, %eax
	addl	$7, %eax
	cltd
	movl	$8, %ecx
	idivl	%ecx
	movslq	%eax, %rdx
	movq	stdout, %rcx
	movabsq	$buf, %rdi
	movl	$1, %esi
	callq	fwrite
.LBB53_26:                              # %if.end70
	movl	offset, %eax
	addl	$7, %eax
	cltd
	movl	$8, %ecx
	idivl	%ecx
	cltq
	addq	bytes_out, %rax
	movq	%rax, bytes_out
	movl	$0, offset
	movq	stdout, %rdi
	callq	fflush
	movq	stdout, %rdi
	callq	ferror
	cmpl	$0, %eax
	je	.LBB53_28
# %bb.27:                               # %if.then78
	callq	writeerr
.LBB53_28:                              # %if.end79
	jmp	.LBB53_29
.LBB53_29:                              # %if.end80
	cmpl	$513438179, -28(%rbp)   # imm = 0x1E9A71E3
	jne	.LBB53_31
.LBB53_30:
	addq	$32, %rsp
	popq	%rbp
	.cfi_def_cfa %rsp, 8
	retq
.LBB53_31:                              # %func_exit
	.cfi_def_cfa %rbp, 16
	callq	detect_breach
	jmp	.LBB53_30
.Lfunc_end53:
	.size	output.38, .Lfunc_end53-output.38
	.cfi_endproc
                                        # -- End function
	.globl	scott_hack.39           # -- Begin function scott_hack.39
	.p2align	4, 0x90
	.type	scott_hack.39,@function
scott_hack.39:                          # @scott_hack.39
	.cfi_startproc
# %bb.0:                                # %entry
	pushq	%rbp
	.cfi_def_cfa_offset 16
	.cfi_offset %rbp, -16
	movq	%rsp, %rbp
	.cfi_def_cfa_register %rbp
	pushq	%rbx
	subq	$40, %rsp
	.cfi_offset %rbx, -24
	movl	$2144237736, -32(%rbp)  # imm = 0x7FCE78A8
	movq	%rdi, -16(%rbp)
	movq	%rsi, -48(%rbp)
	movl	%edx, -28(%rbp)
	movl	%ecx, -24(%rbp)
	movq	%r8, -40(%rbp)
.LBB54_1:                               # %probeSH
                                        # =>This Inner Loop Header: Depth=1
	movslq	-28(%rbp), %rax
	movq	-16(%rbp), %rcx
	movq	(%rcx), %rdx
	subq	%rax, %rdx
	movq	%rdx, (%rcx)
	cmpq	$0, %rdx
	jge	.LBB54_3
# %bb.2:                                # %if.then
                                        #   in Loop: Header=BB54_1 Depth=1
	movslq	-24(%rbp), %rax
	movq	-16(%rbp), %rcx
	addq	(%rcx), %rax
	movq	%rax, (%rcx)
.LBB54_3:                               # %if.end
                                        #   in Loop: Header=BB54_1 Depth=1
	movq	-16(%rbp), %rax
	movq	(%rax), %rax
	movq	htab(,%rax,8), %rax
	cmpq	-48(%rbp), %rax
	jne	.LBB54_5
# %bb.4:                                # %if.then5
	movq	-16(%rbp), %rax
	movq	(%rax), %rax
	movzwl	codetab(,%rax,2), %eax
	movq	-40(%rbp), %rcx
	movq	%rax, (%rcx)
	movl	$1, -20(%rbp)
	jmp	.LBB54_8
.LBB54_5:                               # %if.end8
                                        #   in Loop: Header=BB54_1 Depth=1
	movq	-16(%rbp), %rax
	movq	(%rax), %rax
	cmpq	$0, htab(,%rax,8)
	jle	.LBB54_7
# %bb.6:                                # %if.then12
                                        #   in Loop: Header=BB54_1 Depth=1
	jmp	.LBB54_1
.LBB54_7:                               # %if.end13
	movl	$0, -20(%rbp)
.LBB54_8:                               # %return
	movl	-20(%rbp), %ebx
	cmpl	$2144237736, -32(%rbp)  # imm = 0x7FCE78A8
	jne	.LBB54_10
.LBB54_9:
	movl	%ebx, %eax
	addq	$40, %rsp
	popq	%rbx
	popq	%rbp
	.cfi_def_cfa %rsp, 8
	retq
.LBB54_10:                              # %func_exit
	.cfi_def_cfa %rbp, 16
	callq	detect_breach
	jmp	.LBB54_9
.Lfunc_end54:
	.size	scott_hack.39, .Lfunc_end54-scott_hack.39
	.cfi_endproc
                                        # -- End function
	.globl	getcode.40              # -- Begin function getcode.40
	.p2align	4, 0x90
	.type	getcode.40,@function
getcode.40:                             # @getcode.40
	.cfi_startproc
# %bb.0:                                # %entry
	pushq	%rbp
	.cfi_def_cfa_offset 16
	.cfi_offset %rbp, -16
	movq	%rsp, %rbp
	.cfi_def_cfa_register %rbp
	pushq	%rbx
	subq	$40, %rsp
	.cfi_offset %rbx, -24
	movl	$55256289, -36(%rbp)    # imm = 0x34B24E1
	movabsq	$getcode.buf, %rax
	movq	%rax, -24(%rbp)
	cmpl	$0, clear_flg
	jg	.LBB55_3
# %bb.1:                                # %lor.lhs.false
	movl	getcode.offset, %eax
	cmpl	getcode.size, %eax
	jge	.LBB55_3
# %bb.2:                                # %lor.lhs.false2
	movq	free_ent, %rax
	cmpq	maxcode, %rax
	jle	.LBB55_13
.LBB55_3:                               # %if.then
	movq	free_ent, %rax
	cmpq	maxcode, %rax
	jle	.LBB55_8
# %bb.4:                                # %if.then5
	movl	n_bits, %eax
	addl	$1, %eax
	movl	%eax, n_bits
	movl	n_bits, %eax
	cmpl	maxbits, %eax
	jne	.LBB55_6
# %bb.5:                                # %if.then7
	movq	maxmaxcode, %rax
	movq	%rax, maxcode
	jmp	.LBB55_7
.LBB55_6:                               # %if.else
	movl	n_bits, %ecx
                                        # kill: def $cl killed $ecx
	movl	$1, %eax
	shll	%cl, %eax
	subl	$1, %eax
	cltq
	movq	%rax, maxcode
.LBB55_7:                               # %if.end
	jmp	.LBB55_8
.LBB55_8:                               # %if.end8
	cmpl	$0, clear_flg
	jle	.LBB55_10
# %bb.9:                                # %if.then11
	movl	$9, n_bits
	movq	$511, maxcode           # imm = 0x1FF
	movl	$0, clear_flg
.LBB55_10:                              # %if.end12
	movslq	n_bits, %rdx
	movq	stdin, %rcx
	movabsq	$getcode.buf, %rdi
	movl	$1, %esi
	callq	fread
	movl	%eax, getcode.size
	cmpl	$0, getcode.size
	jg	.LBB55_12
# %bb.11:                               # %if.then17
	movq	$-1, -48(%rbp)
	jmp	.LBB55_16
.LBB55_12:                              # %if.end18
	movl	$0, getcode.offset
	movl	getcode.size, %eax
	shll	$3, %eax
	movl	n_bits, %ecx
	subl	$1, %ecx
	subl	%ecx, %eax
	movl	%eax, getcode.size
.LBB55_13:                              # %if.end22
	movl	getcode.offset, %eax
	movl	%eax, -12(%rbp)
	movl	n_bits, %eax
	movl	%eax, -16(%rbp)
	movl	-12(%rbp), %eax
	sarl	$3, %eax
	movq	-24(%rbp), %rcx
	cltq
	addq	%rax, %rcx
	movq	%rcx, -24(%rbp)
	movl	-12(%rbp), %eax
	andl	$7, %eax
	movl	%eax, -12(%rbp)
	movq	-24(%rbp), %rax
	movq	%rax, %rcx
	addq	$1, %rcx
	movq	%rcx, -24(%rbp)
	movzbl	(%rax), %eax
	movl	-12(%rbp), %ecx
                                        # kill: def $cl killed $ecx
	sarl	%cl, %eax
	cltq
	movq	%rax, -32(%rbp)
	movl	$8, %eax
	movl	$8, %ecx
	subl	-12(%rbp), %ecx
	movl	-16(%rbp), %edx
	subl	%ecx, %edx
	movl	%edx, -16(%rbp)
	subl	-12(%rbp), %eax
	movl	%eax, -12(%rbp)
	cmpl	$8, -16(%rbp)
	jl	.LBB55_15
# %bb.14:                               # %if.then31
	movq	-24(%rbp), %rax
	movq	%rax, %rcx
	addq	$1, %rcx
	movq	%rcx, -24(%rbp)
	movzbl	(%rax), %eax
	movl	-12(%rbp), %ecx
                                        # kill: def $cl killed $ecx
	shll	%cl, %eax
	cltq
	orq	-32(%rbp), %rax
	movq	%rax, -32(%rbp)
	movl	-12(%rbp), %eax
	addl	$8, %eax
	movl	%eax, -12(%rbp)
	movl	-16(%rbp), %eax
	subl	$8, %eax
	movl	%eax, -16(%rbp)
.LBB55_15:                              # %if.end37
	movq	-24(%rbp), %rax
	movzbl	(%rax), %eax
	movslq	-16(%rbp), %rcx
	movzbl	rmask(,%rcx), %ecx
	andl	%ecx, %eax
	movl	-12(%rbp), %ecx
                                        # kill: def $cl killed $ecx
	shll	%cl, %eax
	cltq
	orq	-32(%rbp), %rax
	movq	%rax, -32(%rbp)
	movl	n_bits, %eax
	addl	getcode.offset, %eax
	movl	%eax, getcode.offset
	movq	-32(%rbp), %rax
	movq	%rax, -48(%rbp)
.LBB55_16:                              # %return
	movq	-48(%rbp), %rbx
	cmpl	$55256289, -36(%rbp)    # imm = 0x34B24E1
	jne	.LBB55_18
.LBB55_17:
	movq	%rbx, %rax
	addq	$40, %rsp
	popq	%rbx
	popq	%rbp
	.cfi_def_cfa %rsp, 8
	retq
.LBB55_18:                              # %func_exit
	.cfi_def_cfa %rbp, 16
	callq	detect_breach
	jmp	.LBB55_17
.Lfunc_end55:
	.size	getcode.40, .Lfunc_end55-getcode.40
	.cfi_endproc
                                        # -- End function
	.globl	getcode.41              # -- Begin function getcode.41
	.p2align	4, 0x90
	.type	getcode.41,@function
getcode.41:                             # @getcode.41
	.cfi_startproc
# %bb.0:                                # %entry
	pushq	%rbp
	.cfi_def_cfa_offset 16
	.cfi_offset %rbp, -16
	movq	%rsp, %rbp
	.cfi_def_cfa_register %rbp
	pushq	%rbx
	subq	$40, %rsp
	.cfi_offset %rbx, -24
	movl	$1157382882, -36(%rbp)  # imm = 0x44FC42E2
	movabsq	$getcode.buf, %rax
	movq	%rax, -24(%rbp)
	cmpl	$0, clear_flg
	jg	.LBB56_3
# %bb.1:                                # %lor.lhs.false
	movl	getcode.offset, %eax
	cmpl	getcode.size, %eax
	jge	.LBB56_3
# %bb.2:                                # %lor.lhs.false2
	movq	free_ent, %rax
	cmpq	maxcode, %rax
	jle	.LBB56_13
.LBB56_3:                               # %if.then
	movq	free_ent, %rax
	cmpq	maxcode, %rax
	jle	.LBB56_8
# %bb.4:                                # %if.then5
	movl	n_bits, %eax
	addl	$1, %eax
	movl	%eax, n_bits
	movl	n_bits, %eax
	cmpl	maxbits, %eax
	jne	.LBB56_6
# %bb.5:                                # %if.then7
	movq	maxmaxcode, %rax
	movq	%rax, maxcode
	jmp	.LBB56_7
.LBB56_6:                               # %if.else
	movl	n_bits, %ecx
                                        # kill: def $cl killed $ecx
	movl	$1, %eax
	shll	%cl, %eax
	subl	$1, %eax
	cltq
	movq	%rax, maxcode
.LBB56_7:                               # %if.end
	jmp	.LBB56_8
.LBB56_8:                               # %if.end8
	cmpl	$0, clear_flg
	jle	.LBB56_10
# %bb.9:                                # %if.then11
	movl	$9, n_bits
	movq	$511, maxcode           # imm = 0x1FF
	movl	$0, clear_flg
.LBB56_10:                              # %if.end12
	movslq	n_bits, %rdx
	movq	stdin, %rcx
	movabsq	$getcode.buf, %rdi
	movl	$1, %esi
	callq	fread
	movl	%eax, getcode.size
	cmpl	$0, getcode.size
	jg	.LBB56_12
# %bb.11:                               # %if.then17
	movq	$-1, -48(%rbp)
	jmp	.LBB56_16
.LBB56_12:                              # %if.end18
	movl	$0, getcode.offset
	movl	getcode.size, %eax
	shll	$3, %eax
	movl	n_bits, %ecx
	subl	$1, %ecx
	subl	%ecx, %eax
	movl	%eax, getcode.size
.LBB56_13:                              # %if.end22
	movl	getcode.offset, %eax
	movl	%eax, -12(%rbp)
	movl	n_bits, %eax
	movl	%eax, -16(%rbp)
	movl	-12(%rbp), %eax
	sarl	$3, %eax
	movq	-24(%rbp), %rcx
	cltq
	addq	%rax, %rcx
	movq	%rcx, -24(%rbp)
	movl	-12(%rbp), %eax
	andl	$7, %eax
	movl	%eax, -12(%rbp)
	movq	-24(%rbp), %rax
	movq	%rax, %rcx
	addq	$1, %rcx
	movq	%rcx, -24(%rbp)
	movzbl	(%rax), %eax
	movl	-12(%rbp), %ecx
                                        # kill: def $cl killed $ecx
	sarl	%cl, %eax
	cltq
	movq	%rax, -32(%rbp)
	movl	$8, %eax
	movl	$8, %ecx
	subl	-12(%rbp), %ecx
	movl	-16(%rbp), %edx
	subl	%ecx, %edx
	movl	%edx, -16(%rbp)
	subl	-12(%rbp), %eax
	movl	%eax, -12(%rbp)
	cmpl	$8, -16(%rbp)
	jl	.LBB56_15
# %bb.14:                               # %if.then31
	movq	-24(%rbp), %rax
	movq	%rax, %rcx
	addq	$1, %rcx
	movq	%rcx, -24(%rbp)
	movzbl	(%rax), %eax
	movl	-12(%rbp), %ecx
                                        # kill: def $cl killed $ecx
	shll	%cl, %eax
	cltq
	orq	-32(%rbp), %rax
	movq	%rax, -32(%rbp)
	movl	-12(%rbp), %eax
	addl	$8, %eax
	movl	%eax, -12(%rbp)
	movl	-16(%rbp), %eax
	subl	$8, %eax
	movl	%eax, -16(%rbp)
.LBB56_15:                              # %if.end37
	movq	-24(%rbp), %rax
	movzbl	(%rax), %eax
	movslq	-16(%rbp), %rcx
	movzbl	rmask(,%rcx), %ecx
	andl	%ecx, %eax
	movl	-12(%rbp), %ecx
                                        # kill: def $cl killed $ecx
	shll	%cl, %eax
	cltq
	orq	-32(%rbp), %rax
	movq	%rax, -32(%rbp)
	movl	n_bits, %eax
	addl	getcode.offset, %eax
	movl	%eax, getcode.offset
	movq	-32(%rbp), %rax
	movq	%rax, -48(%rbp)
.LBB56_16:                              # %return
	movq	-48(%rbp), %rbx
	cmpl	$1157382882, -36(%rbp)  # imm = 0x44FC42E2
	jne	.LBB56_18
.LBB56_17:
	movq	%rbx, %rax
	addq	$40, %rsp
	popq	%rbx
	popq	%rbp
	.cfi_def_cfa %rsp, 8
	retq
.LBB56_18:                              # %func_exit
	.cfi_def_cfa %rbp, 16
	callq	detect_breach
	jmp	.LBB56_17
.Lfunc_end56:
	.size	getcode.41, .Lfunc_end56-getcode.41
	.cfi_endproc
                                        # -- End function
	.globl	prratio.42              # -- Begin function prratio.42
	.p2align	4, 0x90
	.type	prratio.42,@function
prratio.42:                             # @prratio.42
	.cfi_startproc
# %bb.0:                                # %entry
	pushq	%rbp
	.cfi_def_cfa_offset 16
	.cfi_offset %rbp, -16
	movq	%rsp, %rbp
	.cfi_def_cfa_register %rbp
	subq	$48, %rsp
	movl	$1891004124, -20(%rbp)  # imm = 0x70B66EDC
	movq	%rdi, -32(%rbp)
	movq	%rsi, -16(%rbp)
	movq	%rdx, -40(%rbp)
	cmpq	$214748, -16(%rbp)      # imm = 0x346DC
	jle	.LBB57_2
# %bb.1:                                # %if.then
	movq	-16(%rbp), %rcx
	movq	-40(%rbp), %rax
	cqto
	movl	$10000, %esi            # imm = 0x2710
	idivq	%rsi
	movq	%rax, %rsi
	movq	%rcx, %rax
	cqto
	idivq	%rsi
	movl	%eax, -4(%rbp)
	jmp	.LBB57_3
.LBB57_2:                               # %if.else
	imulq	$10000, -16(%rbp), %rax # imm = 0x2710
	cqto
	idivq	-40(%rbp)
	movl	%eax, -4(%rbp)
.LBB57_3:                               # %if.end
	cmpl	$0, -4(%rbp)
	jge	.LBB57_5
# %bb.4:                                # %if.then6
	movq	-32(%rbp), %rsi
	movl	$45, %edi
	callq	_IO_putc
	xorl	%eax, %eax
	subl	-4(%rbp), %eax
	movl	%eax, -4(%rbp)
.LBB57_5:                               # %if.end7
	movq	-32(%rbp), %rdi
	movl	-4(%rbp), %eax
	cltd
	movl	$100, %ecx
	idivl	%ecx
	movl	%eax, %r8d
	movl	-4(%rbp), %eax
	cltd
	idivl	%ecx
	movl	%edx, %ecx
	movabsq	$.L.str.25, %rsi
	movl	%r8d, %edx
	movb	$0, %al
	callq	fprintf
	cmpl	$1891004124, -20(%rbp)  # imm = 0x70B66EDC
	jne	.LBB57_7
.LBB57_6:
	addq	$48, %rsp
	popq	%rbp
	.cfi_def_cfa %rsp, 8
	retq
.LBB57_7:                               # %func_exit
	.cfi_def_cfa %rbp, 16
	callq	detect_breach
	jmp	.LBB57_6
.Lfunc_end57:
	.size	prratio.42, .Lfunc_end57-prratio.42
	.cfi_endproc
                                        # -- End function
	.globl	decompress.43           # -- Begin function decompress.43
	.p2align	4, 0x90
	.type	decompress.43,@function
decompress.43:                          # @decompress.43
	.cfi_startproc
# %bb.0:                                # %entry
	pushq	%rbp
	.cfi_def_cfa_offset 16
	.cfi_offset %rbp, -16
	movq	%rsp, %rbp
	.cfi_def_cfa_register %rbp
	subq	$48, %rsp
	movl	$830552192, -36(%rbp)   # imm = 0x31813880
	movl	$9, n_bits
	movq	$511, maxcode           # imm = 0x1FF
	movq	$255, -8(%rbp)
.LBB58_1:                               # %for.cond
                                        # =>This Inner Loop Header: Depth=1
	cmpq	$0, -8(%rbp)
	jl	.LBB58_4
# %bb.2:                                # %for.body
                                        #   in Loop: Header=BB58_1 Depth=1
	movq	-8(%rbp), %rax
	movw	$0, codetab(,%rax,2)
	movq	-8(%rbp), %rax
	movq	-8(%rbp), %rcx
	movb	%al, htab(,%rcx)
# %bb.3:                                # %for.inc
                                        #   in Loop: Header=BB58_1 Depth=1
	movq	-8(%rbp), %rax
	addq	$-1, %rax
	movq	%rax, -8(%rbp)
	jmp	.LBB58_1
.LBB58_4:                               # %for.end
	movl	block_compress, %eax
	cmpl	$0, %eax
	movl	$257, %eax              # imm = 0x101
	movl	$256, %ecx              # imm = 0x100
	cmovnel	%eax, %ecx
	movslq	%ecx, %rax
	movq	%rax, free_ent
	callq	getcode
	movq	%rax, -32(%rbp)
	movl	%eax, -20(%rbp)
	cmpq	$-1, -32(%rbp)
	jne	.LBB58_6
# %bb.5:                                # %if.then
	jmp	.LBB58_33
.LBB58_6:                               # %if.end
	movl	-20(%rbp), %eax
	movsbl	%al, %edi
	callq	putchar
	movq	stdout, %rdi
	callq	ferror
	cmpl	$0, %eax
	je	.LBB58_8
# %bb.7:                                # %if.then11
	callq	writeerr
.LBB58_8:                               # %if.end12
	movabsq	$htab, %rax
	addq	$65536, %rax            # imm = 0x10000
	movq	%rax, -16(%rbp)
.LBB58_9:                               # %while.cond
                                        # =>This Loop Header: Depth=1
                                        #     Child Loop BB58_13 Depth 2
                                        #     Child Loop BB58_22 Depth 2
                                        #     Child Loop BB58_25 Depth 2
	callq	getcode
	movq	%rax, -8(%rbp)
	cmpq	$-1, %rax
	jle	.LBB58_30
# %bb.10:                               # %while.body
                                        #   in Loop: Header=BB58_9 Depth=1
	cmpq	$256, -8(%rbp)          # imm = 0x100
	jne	.LBB58_19
# %bb.11:                               # %land.lhs.true
                                        #   in Loop: Header=BB58_9 Depth=1
	cmpl	$0, block_compress
	je	.LBB58_19
# %bb.12:                               # %if.then19
                                        #   in Loop: Header=BB58_9 Depth=1
	movq	$255, -8(%rbp)
.LBB58_13:                              # %for.cond20
                                        #   Parent Loop BB58_9 Depth=1
                                        # =>  This Inner Loop Header: Depth=2
	cmpq	$0, -8(%rbp)
	jl	.LBB58_16
# %bb.14:                               # %for.body23
                                        #   in Loop: Header=BB58_13 Depth=2
	movq	-8(%rbp), %rax
	movw	$0, codetab(,%rax,2)
# %bb.15:                               # %for.inc25
                                        #   in Loop: Header=BB58_13 Depth=2
	movq	-8(%rbp), %rax
	addq	$-1, %rax
	movq	%rax, -8(%rbp)
	jmp	.LBB58_13
.LBB58_16:                              # %for.end27
                                        #   in Loop: Header=BB58_9 Depth=1
	movl	$1, clear_flg
	movq	$256, free_ent          # imm = 0x100
	callq	getcode
	movq	%rax, -8(%rbp)
	cmpq	$-1, %rax
	jne	.LBB58_18
# %bb.17:                               # %if.then31
	jmp	.LBB58_31
.LBB58_18:                              # %if.end32
                                        #   in Loop: Header=BB58_9 Depth=1
	jmp	.LBB58_19
.LBB58_19:                              # %if.end33
                                        #   in Loop: Header=BB58_9 Depth=1
	movq	-8(%rbp), %rax
	movq	%rax, -48(%rbp)
	movq	-8(%rbp), %rax
	cmpq	free_ent, %rax
	jl	.LBB58_21
# %bb.20:                               # %if.then36
                                        #   in Loop: Header=BB58_9 Depth=1
	movl	-20(%rbp), %eax
	movq	-16(%rbp), %rcx
	movq	%rcx, %rdx
	addq	$1, %rdx
	movq	%rdx, -16(%rbp)
	movb	%al, (%rcx)
	movq	-32(%rbp), %rax
	movq	%rax, -8(%rbp)
.LBB58_21:                              # %if.end38
                                        #   in Loop: Header=BB58_9 Depth=1
	jmp	.LBB58_22
.LBB58_22:                              # %while.cond39
                                        #   Parent Loop BB58_9 Depth=1
                                        # =>  This Inner Loop Header: Depth=2
	cmpq	$256, -8(%rbp)          # imm = 0x100
	jl	.LBB58_24
# %bb.23:                               # %while.body42
                                        #   in Loop: Header=BB58_22 Depth=2
	movq	-8(%rbp), %rax
	movb	htab(,%rax), %al
	movq	-16(%rbp), %rcx
	movq	%rcx, %rdx
	addq	$1, %rdx
	movq	%rdx, -16(%rbp)
	movb	%al, (%rcx)
	movq	-8(%rbp), %rax
	movzwl	codetab(,%rax,2), %eax
	movq	%rax, -8(%rbp)
	jmp	.LBB58_22
.LBB58_24:                              # %while.end
                                        #   in Loop: Header=BB58_9 Depth=1
	movq	-8(%rbp), %rax
	movzbl	htab(,%rax), %eax
	movl	%eax, -20(%rbp)
	movq	-16(%rbp), %rcx
	movq	%rcx, %rdx
	addq	$1, %rdx
	movq	%rdx, -16(%rbp)
	movb	%al, (%rcx)
.LBB58_25:                              # %do.body
                                        #   Parent Loop BB58_9 Depth=1
                                        # =>  This Inner Loop Header: Depth=2
	movq	-16(%rbp), %rax
	movq	%rax, %rcx
	addq	$-1, %rcx
	movq	%rcx, -16(%rbp)
	movzbl	-1(%rax), %edi
	callq	putchar
# %bb.26:                               # %do.cond
                                        #   in Loop: Header=BB58_25 Depth=2
	movabsq	$htab, %rax
	addq	$65536, %rax            # imm = 0x10000
	cmpq	%rax, -16(%rbp)
	ja	.LBB58_25
# %bb.27:                               # %do.end
                                        #   in Loop: Header=BB58_9 Depth=1
	movq	free_ent, %rax
	movq	%rax, -8(%rbp)
	cmpq	maxmaxcode, %rax
	jge	.LBB58_29
# %bb.28:                               # %if.then58
                                        #   in Loop: Header=BB58_9 Depth=1
	movq	-32(%rbp), %rax
	movq	-8(%rbp), %rcx
	movw	%ax, codetab(,%rcx,2)
	movl	-20(%rbp), %eax
	movq	-8(%rbp), %rcx
	movb	%al, htab(,%rcx)
	movq	-8(%rbp), %rax
	addq	$1, %rax
	movq	%rax, free_ent
.LBB58_29:                              # %if.end63
                                        #   in Loop: Header=BB58_9 Depth=1
	movq	-48(%rbp), %rax
	movq	%rax, -32(%rbp)
	jmp	.LBB58_9
.LBB58_30:                              # %while.end64.loopexit
	jmp	.LBB58_31
.LBB58_31:                              # %while.end64
	movq	stdout, %rdi
	callq	fflush
	movq	stdout, %rdi
	callq	ferror
	cmpl	$0, %eax
	je	.LBB58_33
# %bb.32:                               # %if.then68
	callq	writeerr
.LBB58_33:                              # %if.end69
	cmpl	$830552192, -36(%rbp)   # imm = 0x31813880
	jne	.LBB58_35
.LBB58_34:
	addq	$48, %rsp
	popq	%rbp
	.cfi_def_cfa %rsp, 8
	retq
.LBB58_35:                              # %func_exit
	.cfi_def_cfa %rbp, 16
	callq	detect_breach
	jmp	.LBB58_34
.Lfunc_end58:
	.size	decompress.43, .Lfunc_end58-decompress.43
	.cfi_endproc
                                        # -- End function
	.globl	compress.44             # -- Begin function compress.44
	.p2align	4, 0x90
	.type	compress.44,@function
compress.44:                            # @compress.44
	.cfi_startproc
# %bb.0:                                # %entry
	pushq	%rbp
	.cfi_def_cfa_offset 16
	.cfi_offset %rbp, -16
	movq	%rsp, %rbp
	.cfi_def_cfa_register %rbp
	subq	$64, %rsp
	movl	$1201185894, -56(%rbp)  # imm = 0x4798A466
	movq	$0, -8(%rbp)
	cmpl	$0, nomagic
	jne	.LBB59_4
# %bb.1:                                # %if.then
	movzbl	magic_header, %edi
	callq	putchar
	movzbl	magic_header+1, %edi
	callq	putchar
	movl	maxbits, %eax
	orl	block_compress, %eax
	movsbl	%al, %edi
	callq	putchar
	movq	stdout, %rdi
	callq	ferror
	cmpl	$0, %eax
	je	.LBB59_3
# %bb.2:                                # %if.then7
	callq	writeerr
.LBB59_3:                               # %if.end
	jmp	.LBB59_4
.LBB59_4:                               # %if.end8
	movl	$0, offset
	movq	$3, bytes_out
	movq	$0, out_count
	movl	$0, clear_flg
	movq	$0, ratio
	movq	$1, in_count
	movq	$10000, checkpoint      # imm = 0x2710
	movl	$9, n_bits
	movq	$511, maxcode           # imm = 0x1FF
	movl	block_compress, %eax
	cmpl	$0, %eax
	movl	$257, %eax              # imm = 0x101
	movl	$256, %ecx              # imm = 0x100
	cmovnel	%eax, %ecx
	movslq	%ecx, %rax
	movq	%rax, free_ent
	callq	getchar
	cltq
	movq	%rax, -24(%rbp)
	movl	$0, -12(%rbp)
	movq	hsize, %rax
	movq	%rax, -32(%rbp)
.LBB59_5:                               # %for.cond
                                        # =>This Inner Loop Header: Depth=1
	cmpq	$65536, -32(%rbp)       # imm = 0x10000
	jge	.LBB59_8
# %bb.6:                                # %for.body
                                        #   in Loop: Header=BB59_5 Depth=1
	movl	-12(%rbp), %eax
	addl	$1, %eax
	movl	%eax, -12(%rbp)
# %bb.7:                                # %for.inc
                                        #   in Loop: Header=BB59_5 Depth=1
	movq	-32(%rbp), %rax
	shlq	$1, %rax
	movq	%rax, -32(%rbp)
	jmp	.LBB59_5
.LBB59_8:                               # %for.end
	movl	$8, %eax
	subl	-12(%rbp), %eax
	movl	%eax, -12(%rbp)
	movq	hsize, %rax
	movq	%rax, -48(%rbp)
	movq	-48(%rbp), %rdi
	callq	cl_hash
.LBB59_9:                               # %while.cond
                                        # =>This Inner Loop Header: Depth=1
	callq	getchar
	movl	%eax, -36(%rbp)
	cmpl	$-1, %eax
	je	.LBB59_46
# %bb.10:                               # %while.body
                                        #   in Loop: Header=BB59_9 Depth=1
	movq	in_count, %rax
	addq	$1, %rax
	movq	%rax, in_count
	movslq	-36(%rbp), %rax
	movl	maxbits, %ecx
                                        # kill: def $cl killed $rcx
	shlq	%cl, %rax
	addq	-24(%rbp), %rax
	movq	%rax, -32(%rbp)
	movl	-36(%rbp), %eax
	movl	-12(%rbp), %ecx
                                        # kill: def $cl killed $ecx
	shll	%cl, %eax
	cltq
	xorq	-24(%rbp), %rax
	movq	%rax, -8(%rbp)
	movq	-8(%rbp), %rax
	movq	htab(,%rax,8), %rax
	cmpq	-32(%rbp), %rax
	jne	.LBB59_13
# %bb.11:                               # %if.then24
                                        #   in Loop: Header=BB59_9 Depth=1
	movq	-8(%rbp), %rax
	movzwl	codetab(,%rax,2), %eax
	movq	%rax, -24(%rbp)
.LBB59_12:                              # %while.cond.backedge
                                        #   in Loop: Header=BB59_9 Depth=1
	jmp	.LBB59_9
.LBB59_13:                              # %if.else
                                        #   in Loop: Header=BB59_9 Depth=1
	movq	-8(%rbp), %rax
	cmpq	$0, htab(,%rax,8)
	jge	.LBB59_15
# %bb.14:                               # %if.then30
                                        #   in Loop: Header=BB59_9 Depth=1
	jmp	.LBB59_39
.LBB59_15:                              # %if.end31
                                        #   in Loop: Header=BB59_9 Depth=1
	jmp	.LBB59_16
.LBB59_16:                              # %if.end32
                                        #   in Loop: Header=BB59_9 Depth=1
	movq	-48(%rbp), %rax
	subq	-8(%rbp), %rax
	movl	%eax, -16(%rbp)
	cmpq	$0, -8(%rbp)
	jne	.LBB59_18
# %bb.17:                               # %if.then37
                                        #   in Loop: Header=BB59_9 Depth=1
	movl	$1, -16(%rbp)
.LBB59_18:                              # %if.end38
                                        #   in Loop: Header=BB59_9 Depth=1
	movslq	-16(%rbp), %rax
	movq	-8(%rbp), %rcx
	subq	%rax, %rcx
	movq	%rcx, -8(%rbp)
	cmpq	$0, %rcx
	jge	.LBB59_20
# %bb.19:                               # %if.then43
                                        #   in Loop: Header=BB59_9 Depth=1
	movq	-48(%rbp), %rax
	addq	-8(%rbp), %rax
	movq	%rax, -8(%rbp)
.LBB59_20:                              # %if.end45
                                        #   in Loop: Header=BB59_9 Depth=1
	movq	-8(%rbp), %rax
	movq	htab(,%rax,8), %rax
	cmpq	-32(%rbp), %rax
	jne	.LBB59_22
# %bb.21:                               # %if.then49
                                        #   in Loop: Header=BB59_9 Depth=1
	movq	-8(%rbp), %rax
	movzwl	codetab(,%rax,2), %eax
	movq	%rax, -24(%rbp)
	jmp	.LBB59_12
.LBB59_22:                              # %if.end52
                                        #   in Loop: Header=BB59_9 Depth=1
	movq	-8(%rbp), %rax
	cmpq	$0, htab(,%rax,8)
	jg	.LBB59_24
# %bb.23:                               # %if.then56
                                        #   in Loop: Header=BB59_9 Depth=1
	jmp	.LBB59_39
.LBB59_24:                              # %if.end57
                                        #   in Loop: Header=BB59_9 Depth=1
	movslq	-16(%rbp), %rax
	movq	-8(%rbp), %rcx
	subq	%rax, %rcx
	movq	%rcx, -8(%rbp)
	cmpq	$0, %rcx
	jge	.LBB59_26
# %bb.25:                               # %if.then62
                                        #   in Loop: Header=BB59_9 Depth=1
	movq	-48(%rbp), %rax
	addq	-8(%rbp), %rax
	movq	%rax, -8(%rbp)
.LBB59_26:                              # %if.end64
                                        #   in Loop: Header=BB59_9 Depth=1
	movq	-8(%rbp), %rax
	movq	htab(,%rax,8), %rax
	cmpq	-32(%rbp), %rax
	jne	.LBB59_28
# %bb.27:                               # %if.then68
                                        #   in Loop: Header=BB59_9 Depth=1
	movq	-8(%rbp), %rax
	movzwl	codetab(,%rax,2), %eax
	movq	%rax, -24(%rbp)
	jmp	.LBB59_12
.LBB59_28:                              # %if.end71
                                        #   in Loop: Header=BB59_9 Depth=1
	movq	-8(%rbp), %rax
	cmpq	$0, htab(,%rax,8)
	jg	.LBB59_30
# %bb.29:                               # %if.then75
                                        #   in Loop: Header=BB59_9 Depth=1
	jmp	.LBB59_39
.LBB59_30:                              # %if.end76
                                        #   in Loop: Header=BB59_9 Depth=1
	movslq	-16(%rbp), %rax
	movq	-8(%rbp), %rcx
	subq	%rax, %rcx
	movq	%rcx, -8(%rbp)
	cmpq	$0, %rcx
	jge	.LBB59_32
# %bb.31:                               # %if.then81
                                        #   in Loop: Header=BB59_9 Depth=1
	movq	-48(%rbp), %rax
	addq	-8(%rbp), %rax
	movq	%rax, -8(%rbp)
.LBB59_32:                              # %if.end83
                                        #   in Loop: Header=BB59_9 Depth=1
	movq	-8(%rbp), %rax
	movq	htab(,%rax,8), %rax
	cmpq	-32(%rbp), %rax
	jne	.LBB59_34
# %bb.33:                               # %if.then87
                                        #   in Loop: Header=BB59_9 Depth=1
	movq	-8(%rbp), %rax
	movzwl	codetab(,%rax,2), %eax
	movq	%rax, -24(%rbp)
	jmp	.LBB59_12
.LBB59_34:                              # %if.end90
                                        #   in Loop: Header=BB59_9 Depth=1
	movq	-8(%rbp), %rax
	cmpq	$0, htab(,%rax,8)
	jle	.LBB59_38
# %bb.35:                               # %if.then94
                                        #   in Loop: Header=BB59_9 Depth=1
	movl	$0, -52(%rbp)
	movq	-32(%rbp), %rsi
	movl	-16(%rbp), %edx
	movq	-48(%rbp), %rcx
	leaq	-8(%rbp), %rdi
                                        # kill: def $ecx killed $ecx killed $rcx
	leaq	-24(%rbp), %r8
	callq	scott_hack
	movl	%eax, -52(%rbp)
	cmpl	$0, -52(%rbp)
	je	.LBB59_37
# %bb.36:                               # %if.then99
                                        #   in Loop: Header=BB59_9 Depth=1
	jmp	.LBB59_12
.LBB59_37:                              # %if.end100
                                        #   in Loop: Header=BB59_9 Depth=1
	jmp	.LBB59_38
.LBB59_38:                              # %if.end101
                                        #   in Loop: Header=BB59_9 Depth=1
	jmp	.LBB59_39
.LBB59_39:                              # %nomatch
                                        #   in Loop: Header=BB59_9 Depth=1
	movq	-24(%rbp), %rdi
	callq	output
	movq	out_count, %rax
	addq	$1, %rax
	movq	%rax, out_count
	movslq	-36(%rbp), %rax
	movq	%rax, -24(%rbp)
	movq	free_ent, %rax
	cmpq	maxmaxcode, %rax
	jge	.LBB59_41
# %bb.40:                               # %if.then106
                                        #   in Loop: Header=BB59_9 Depth=1
	movq	free_ent, %rax
	movq	%rax, %rcx
	addq	$1, %rcx
	movq	%rcx, free_ent
	movq	-8(%rbp), %rcx
	movw	%ax, codetab(,%rcx,2)
	movq	-32(%rbp), %rax
	movq	-8(%rbp), %rcx
	movq	%rax, htab(,%rcx,8)
	jmp	.LBB59_45
.LBB59_41:                              # %if.else111
                                        #   in Loop: Header=BB59_9 Depth=1
	movq	in_count, %rax
	cmpq	checkpoint, %rax
	jl	.LBB59_44
# %bb.42:                               # %land.lhs.true
                                        #   in Loop: Header=BB59_9 Depth=1
	cmpl	$0, block_compress
	je	.LBB59_44
# %bb.43:                               # %if.then115
                                        #   in Loop: Header=BB59_9 Depth=1
