	.text
	.file	"perf_compress.c"
	.globl	Usage                   # -- Begin function Usage
	.p2align	4, 0x90
	.type	Usage,@function
Usage:                                  # @Usage
	.cfi_startproc
# %bb.0:                                # %entry
	pushq	%rbp
	.cfi_def_cfa_offset 16
	.cfi_offset %rbp, -16
	movq	%rsp, %rbp
	.cfi_def_cfa_register %rbp
	movq	stderr, %rdi
	movabsq	$.L.str, %rsi
	movb	$0, %al
	callq	fprintf
	popq	%rbp
	.cfi_def_cfa %rsp, 8
	retq
.Lfunc_end0:
	.size	Usage, .Lfunc_end0-Usage
	.cfi_endproc
                                        # -- End function
	.globl	main                    # -- Begin function main
	.p2align	4, 0x90
	.type	main,@function
main:                                   # @main
	.cfi_startproc
# %bb.0:                                # %entry
	pushq	%rbp
	.cfi_def_cfa_offset 16
	.cfi_offset %rbp, -16
	movq	%rsp, %rbp
	.cfi_def_cfa_register %rbp
	pushq	%rbx
	subq	$312, %rsp              # imm = 0x138
	.cfi_offset %rbx, -24
	movl	$0, -60(%rbp)
	movl	%edi, -24(%rbp)
	movq	%rsi, -32(%rbp)
	movl	$0, -44(%rbp)
	movl	$2, %edi
	movl	$1, %esi
	callq	signal
	movq	%rax, bgnd_flag
	movl	$1, %ecx
	cmpq	%rcx, %rax
	je	.LBB1_2
# %bb.1:                                # %if.then
	movl	$2, %edi
	movabsq	$onintr, %rsi
	callq	signal
	movl	$11, %edi
	movabsq	$oops, %rsi
	callq	signal
.LBB1_2:                                # %if.end
	movslq	-24(%rbp), %rdi
	shlq	$3, %rdi
	callq	malloc
	movq	%rax, -16(%rbp)
	movq	%rax, -56(%rbp)
	movq	-56(%rbp), %rax
	movq	$0, (%rax)
	movq	-32(%rbp), %rax
	movq	(%rax), %rdi
	movl	$47, %esi
	callq	rindex
	movq	%rax, -40(%rbp)
	cmpq	$0, %rax
	je	.LBB1_4
# %bb.3:                                # %if.then7
	movq	-40(%rbp), %rax
	addq	$1, %rax
	movq	%rax, -40(%rbp)
	jmp	.LBB1_5
.LBB1_4:                                # %if.else
	movq	-32(%rbp), %rax
	movq	(%rax), %rax
	movq	%rax, -40(%rbp)
.LBB1_5:                                # %if.end9
	movq	-40(%rbp), %rdi
	movl	$.L.str.1, %esi
	callq	strcmp
	cmpl	$0, %eax
	jne	.LBB1_7
# %bb.6:                                # %if.then13
	movl	$1, do_decomp
	jmp	.LBB1_10
.LBB1_7:                                # %if.else14
	movq	-40(%rbp), %rdi
	movl	$.L.str.2, %esi
	callq	strcmp
	cmpl	$0, %eax
	jne	.LBB1_9
# %bb.8:                                # %if.then18
	movl	$1, do_decomp
	movl	$1, zcat_flg
.LBB1_9:                                # %if.end19
	jmp	.LBB1_10
.LBB1_10:                               # %if.end20
	movl	-24(%rbp), %eax
	addl	$-1, %eax
	movl	%eax, -24(%rbp)
	movq	-32(%rbp), %rax
	addq	$8, %rax
	movq	%rax, -32(%rbp)
.LBB1_11:                               # %for.cond
                                        # =>This Loop Header: Depth=1
                                        #     Child Loop BB1_14 Depth 2
	cmpl	$0, -24(%rbp)
	jle	.LBB1_37
# %bb.12:                               # %for.body
                                        #   in Loop: Header=BB1_11 Depth=1
	movq	-32(%rbp), %rax
	movq	(%rax), %rax
	movsbl	(%rax), %eax
	cmpl	$45, %eax
	jne	.LBB1_33
# %bb.13:                               # %if.then27
                                        #   in Loop: Header=BB1_11 Depth=1
	jmp	.LBB1_14
.LBB1_14:                               # %while.cond
                                        #   Parent Loop BB1_11 Depth=1
                                        # =>  This Inner Loop Header: Depth=2
	movq	-32(%rbp), %rax
	movq	(%rax), %rcx
	movq	%rcx, %rdx
	addq	$1, %rdx
	movq	%rdx, (%rax)
	cmpb	$0, 1(%rcx)
	je	.LBB1_32
# %bb.15:                               # %while.body
                                        #   in Loop: Header=BB1_14 Depth=2
	movq	-32(%rbp), %rax
	movq	(%rax), %rax
	movsbl	(%rax), %eax
	addl	$-67, %eax
	movl	%eax, %ecx
	subl	$51, %ecx
	ja	.LBB1_30
# %bb.16:                               # %while.body
                                        #   in Loop: Header=BB1_14 Depth=2
	movq	.LJTI1_0(,%rax,8), %rax
	jmpq	*%rax
.LBB1_17:                               # %sw.bb
                                        #   in Loop: Header=BB1_14 Depth=2
	callq	version
	jmp	.LBB1_31
.LBB1_18:                               # %sw.bb30
                                        #   in Loop: Header=BB1_14 Depth=2
	movl	$0, quiet
	jmp	.LBB1_31
.LBB1_19:                               # %sw.bb31
                                        #   in Loop: Header=BB1_14 Depth=2
	movl	$1, do_decomp
	jmp	.LBB1_31
.LBB1_20:                               # %sw.bb32
                                        #   in Loop: Header=BB1_14 Depth=2
	movl	$1, -44(%rbp)
	movl	$1, force
	jmp	.LBB1_31
.LBB1_21:                               # %sw.bb33
                                        #   in Loop: Header=BB1_14 Depth=2
	movl	$1, nomagic
	jmp	.LBB1_31
.LBB1_22:                               # %sw.bb34
                                        #   in Loop: Header=BB1_14 Depth=2
	movl	$0, block_compress
	jmp	.LBB1_31
.LBB1_23:                               # %sw.bb35
                                        #   in Loop: Header=BB1_11 Depth=1
	movq	-32(%rbp), %rax
	movq	(%rax), %rcx
	movq	%rcx, %rdx
	addq	$1, %rdx
	movq	%rdx, (%rax)
	movsbl	1(%rcx), %eax
	cmpl	$0, %eax
	jne	.LBB1_27
# %bb.24:                               # %lor.lhs.false
                                        #   in Loop: Header=BB1_11 Depth=1
	movl	-24(%rbp), %eax
	addl	$-1, %eax
	movl	%eax, -24(%rbp)
	cmpl	$0, %eax
	je	.LBB1_26
# %bb.25:                               # %land.lhs.true
                                        #   in Loop: Header=BB1_11 Depth=1
	movq	-32(%rbp), %rax
	movq	%rax, %rcx
	addq	$8, %rcx
	movq	%rcx, -32(%rbp)
	cmpq	$0, 8(%rax)
	jne	.LBB1_27
.LBB1_26:                               # %if.then43
	movq	stderr, %rdi
	movabsq	$.L.str.3, %rsi
	movb	$0, %al
	callq	fprintf
	callq	Usage
	movl	$1, %edi
	callq	exit
.LBB1_27:                               # %if.end45
                                        #   in Loop: Header=BB1_11 Depth=1
	movq	-32(%rbp), %rax
	movq	(%rax), %rdi
	callq	atoi
	movl	%eax, maxbits
	jmp	.LBB1_35
.LBB1_28:                               # %sw.bb47
                                        #   in Loop: Header=BB1_14 Depth=2
	movl	$1, zcat_flg
	jmp	.LBB1_31
.LBB1_29:                               # %sw.bb48
                                        #   in Loop: Header=BB1_14 Depth=2
	movl	$1, quiet
	jmp	.LBB1_31
.LBB1_30:                               # %sw.default
	movq	stderr, %rdi
	movq	-32(%rbp), %rax
	movq	(%rax), %rax
	movsbl	(%rax), %edx
	movabsq	$.L.str.4, %rsi
	movb	$0, %al
	callq	fprintf
	callq	Usage
	movl	$1, %edi
	callq	exit
.LBB1_31:                               # %sw.epilog
                                        #   in Loop: Header=BB1_14 Depth=2
	jmp	.LBB1_14
.LBB1_32:                               # %while.end
                                        #   in Loop: Header=BB1_11 Depth=1
	jmp	.LBB1_34
.LBB1_33:                               # %if.else51
                                        #   in Loop: Header=BB1_11 Depth=1
	movq	-32(%rbp), %rax
	movq	(%rax), %rax
	movq	-16(%rbp), %rcx
	movq	%rcx, %rdx
	addq	$8, %rdx
	movq	%rdx, -16(%rbp)
	movq	%rax, (%rcx)
	movq	-16(%rbp), %rax
	movq	$0, (%rax)
.LBB1_34:                               # %if.end53
                                        #   in Loop: Header=BB1_11 Depth=1
	jmp	.LBB1_35
.LBB1_35:                               # %nextarg
                                        #   in Loop: Header=BB1_11 Depth=1
	jmp	.LBB1_36
.LBB1_36:                               # %for.inc
                                        #   in Loop: Header=BB1_11 Depth=1
	movl	-24(%rbp), %eax
	addl	$-1, %eax
	movl	%eax, -24(%rbp)
	movq	-32(%rbp), %rax
	addq	$8, %rax
	movq	%rax, -32(%rbp)
	jmp	.LBB1_11
.LBB1_37:                               # %for.end
	cmpl	$9, maxbits
	jge	.LBB1_39
# %bb.38:                               # %if.then58
	movl	$9, maxbits
.LBB1_39:                               # %if.end59
	cmpl	$16, maxbits
	jle	.LBB1_41
# %bb.40:                               # %if.then62
	movl	$16, maxbits
.LBB1_41:                               # %if.end63
	movl	maxbits, %ecx
                                        # kill: def $cl killed $ecx
	movl	$1, %eax
	shll	%cl, %eax
	cltq
	movq	%rax, maxmaxcode
	movq	-56(%rbp), %rax
	cmpq	$0, (%rax)
	je	.LBB1_113
# %bb.42:                               # %if.then67
	movq	-56(%rbp), %rax
	movq	%rax, -16(%rbp)
.LBB1_43:                               # %for.cond68
                                        # =>This Loop Header: Depth=1
                                        #     Child Loop BB1_86 Depth 2
	movq	-16(%rbp), %rax
	cmpq	$0, (%rax)
	je	.LBB1_112
# %bb.44:                               # %for.body70
                                        #   in Loop: Header=BB1_43 Depth=1
	movl	$0, exit_stat
	cmpl	$0, do_decomp
	je	.LBB1_57
# %bb.45:                               # %if.then73
                                        #   in Loop: Header=BB1_43 Depth=1
	movq	-16(%rbp), %rax
	movq	(%rax), %rbx
	movq	-16(%rbp), %rax
	movq	(%rax), %rdi
	callq	strlen
	addq	%rax, %rbx
	addq	$-2, %rbx
	movq	%rbx, %rdi
	movl	$.L.str.5, %esi
	callq	strcmp
	cmpl	$0, %eax
	je	.LBB1_47
# %bb.46:                               # %if.then79
                                        #   in Loop: Header=BB1_43 Depth=1
	leaq	-320(%rbp), %rbx
	movq	-16(%rbp), %rax
	movq	(%rax), %rsi
	movq	%rbx, %rdi
	callq	strcpy
	movq	%rbx, %rdi
	movabsq	$.L.str.5, %rsi
	callq	strcat
	leaq	-320(%rbp), %rax
	movq	-16(%rbp), %rcx
	movq	%rax, (%rcx)
.LBB1_47:                               # %if.end84
                                        #   in Loop: Header=BB1_43 Depth=1
	movq	-16(%rbp), %rax
	movq	(%rax), %rdi
	movq	stdin, %rdx
	movabsq	$.L.str.6, %rsi
	callq	freopen
	cmpq	$0, %rax
	jne	.LBB1_49
# %bb.48:                               # %if.then88
                                        #   in Loop: Header=BB1_43 Depth=1
	movq	-16(%rbp), %rax
	movq	(%rax), %rdi
	callq	perror
	jmp	.LBB1_111
.LBB1_49:                               # %if.end89
                                        #   in Loop: Header=BB1_43 Depth=1
	cmpl	$0, nomagic
	jne	.LBB1_56
# %bb.50:                               # %if.then92
                                        #   in Loop: Header=BB1_43 Depth=1
	callq	getchar
	movzbl	magic_header, %ecx
	andl	$255, %ecx
	cmpl	%ecx, %eax
	jne	.LBB1_52
# %bb.51:                               # %lor.lhs.false97
                                        #   in Loop: Header=BB1_43 Depth=1
	callq	getchar
	movzbl	magic_header+1, %ecx
	andl	$255, %ecx
	cmpl	%ecx, %eax
	je	.LBB1_53
.LBB1_52:                               # %if.then103
                                        #   in Loop: Header=BB1_43 Depth=1
	movq	stderr, %rdi
	movq	-16(%rbp), %rax
	movq	(%rax), %rdx
	movabsq	$.L.str.7, %rsi
	movb	$0, %al
	callq	fprintf
	jmp	.LBB1_111
.LBB1_53:                               # %if.end105
                                        #   in Loop: Header=BB1_43 Depth=1
	callq	getchar
	movl	%eax, maxbits
	movl	maxbits, %eax
	andl	$128, %eax
	movl	%eax, block_compress
	movl	maxbits, %eax
	andl	$31, %eax
	movl	%eax, maxbits
	movl	maxbits, %ecx
                                        # kill: def $cl killed $ecx
	movl	$1, %eax
	shll	%cl, %eax
	cltq
	movq	%rax, maxmaxcode
	cmpl	$16, maxbits
	jle	.LBB1_55
# %bb.54:                               # %if.then113
                                        #   in Loop: Header=BB1_43 Depth=1
	movq	stderr, %rdi
	movq	-16(%rbp), %rax
	movq	(%rax), %rdx
	movl	maxbits, %ecx
	movabsq	$.L.str.8, %rsi
	movl	$16, %r8d
	movb	$0, %al
	callq	fprintf
	jmp	.LBB1_111
.LBB1_55:                               # %if.end115
                                        #   in Loop: Header=BB1_43 Depth=1
	jmp	.LBB1_56
.LBB1_56:                               # %if.end116
                                        #   in Loop: Header=BB1_43 Depth=1
	movq	-16(%rbp), %rax
	movq	(%rax), %rsi
	movl	$ofname, %edi
	callq	strcpy
	movq	-16(%rbp), %rax
	movq	(%rax), %rdi
	callq	strlen
	subq	$2, %rax
	movb	$0, ofname(,%rax)
	jmp	.LBB1_81
.LBB1_57:                               # %if.else120
                                        #   in Loop: Header=BB1_43 Depth=1
	movq	-16(%rbp), %rax
	movq	(%rax), %rbx
	movq	-16(%rbp), %rax
	movq	(%rax), %rdi
	callq	strlen
	addq	%rax, %rbx
	addq	$-2, %rbx
	movq	%rbx, %rdi
	movl	$.L.str.5, %esi
	callq	strcmp
	cmpl	$0, %eax
	jne	.LBB1_59
# %bb.58:                               # %if.then127
                                        #   in Loop: Header=BB1_43 Depth=1
	movq	stderr, %rdi
	movq	-16(%rbp), %rax
	movq	(%rax), %rdx
	movabsq	$.L.str.9, %rsi
	movb	$0, %al
	callq	fprintf
	jmp	.LBB1_111
.LBB1_59:                               # %if.end129
                                        #   in Loop: Header=BB1_43 Depth=1
	movq	-16(%rbp), %rax
	movq	(%rax), %rdi
	movq	stdin, %rdx
	movabsq	$.L.str.6, %rsi
	callq	freopen
	cmpq	$0, %rax
	jne	.LBB1_61
# %bb.60:                               # %if.then133
                                        #   in Loop: Header=BB1_43 Depth=1
	movq	-16(%rbp), %rax
	movq	(%rax), %rdi
	callq	perror
	jmp	.LBB1_111
.LBB1_61:                               # %if.end134
                                        #   in Loop: Header=BB1_43 Depth=1
	movq	-16(%rbp), %rax
	movq	(%rax), %rdi
	leaq	-208(%rbp), %rsi
	callq	stat
	movq	-160(%rbp), %rax
	movq	%rax, fsize
	movq	$69001, hsize           # imm = 0x10D89
	cmpq	$4096, fsize            # imm = 0x1000
	jge	.LBB1_63
# %bb.62:                               # %if.then138
                                        #   in Loop: Header=BB1_43 Depth=1
	movq	$5003, hsize            # imm = 0x138B
	jmp	.LBB1_75
.LBB1_63:                               # %if.else139
                                        #   in Loop: Header=BB1_43 Depth=1
	cmpq	$8192, fsize            # imm = 0x2000
	jge	.LBB1_65
# %bb.64:                               # %if.then142
                                        #   in Loop: Header=BB1_43 Depth=1
	movq	$9001, hsize            # imm = 0x2329
	jmp	.LBB1_74
.LBB1_65:                               # %if.else143
                                        #   in Loop: Header=BB1_43 Depth=1
	cmpq	$16384, fsize           # imm = 0x4000
	jge	.LBB1_67
# %bb.66:                               # %if.then146
                                        #   in Loop: Header=BB1_43 Depth=1
	movq	$18013, hsize           # imm = 0x465D
	jmp	.LBB1_73
.LBB1_67:                               # %if.else147
                                        #   in Loop: Header=BB1_43 Depth=1
	cmpq	$32768, fsize           # imm = 0x8000
	jge	.LBB1_69
# %bb.68:                               # %if.then150
                                        #   in Loop: Header=BB1_43 Depth=1
	movq	$35023, hsize           # imm = 0x88CF
	jmp	.LBB1_72
.LBB1_69:                               # %if.else151
                                        #   in Loop: Header=BB1_43 Depth=1
	cmpq	$47000, fsize           # imm = 0xB798
	jge	.LBB1_71
# %bb.70:                               # %if.then154
                                        #   in Loop: Header=BB1_43 Depth=1
	movq	$50021, hsize           # imm = 0xC365
.LBB1_71:                               # %if.end155
                                        #   in Loop: Header=BB1_43 Depth=1
	jmp	.LBB1_72
.LBB1_72:                               # %if.end156
                                        #   in Loop: Header=BB1_43 Depth=1
	jmp	.LBB1_73
.LBB1_73:                               # %if.end157
                                        #   in Loop: Header=BB1_43 Depth=1
	jmp	.LBB1_74
.LBB1_74:                               # %if.end158
                                        #   in Loop: Header=BB1_43 Depth=1
	jmp	.LBB1_75
.LBB1_75:                               # %if.end159
                                        #   in Loop: Header=BB1_43 Depth=1
	movq	-16(%rbp), %rax
	movq	(%rax), %rsi
	movl	$ofname, %edi
	callq	strcpy
	movabsq	$ofname, %rdi
	movl	$47, %esi
	callq	rindex
	movq	%rax, -40(%rbp)
	cmpq	$0, %rax
	je	.LBB1_77
# %bb.76:                               # %if.then164
                                        #   in Loop: Header=BB1_43 Depth=1
	movq	-40(%rbp), %rax
	addq	$1, %rax
	movq	%rax, -40(%rbp)
	jmp	.LBB1_78
.LBB1_77:                               # %if.else166
                                        #   in Loop: Header=BB1_43 Depth=1
	movabsq	$ofname, %rax
	movq	%rax, -40(%rbp)
.LBB1_78:                               # %if.end167
                                        #   in Loop: Header=BB1_43 Depth=1
	movq	-40(%rbp), %rdi
	callq	strlen
	cmpq	$12, %rax
	jbe	.LBB1_80
# %bb.79:                               # %if.then171
                                        #   in Loop: Header=BB1_43 Depth=1
	movq	stderr, %rdi
	movq	-40(%rbp), %rdx
	movabsq	$.L.str.10, %rsi
	movb	$0, %al
	callq	fprintf
	jmp	.LBB1_111
.LBB1_80:                               # %if.end173
                                        #   in Loop: Header=BB1_43 Depth=1
	movabsq	$ofname, %rdi
	movabsq	$.L.str.5, %rsi
	callq	strcat
.LBB1_81:                               # %if.end175
                                        #   in Loop: Header=BB1_43 Depth=1
	cmpl	$0, -44(%rbp)
	jne	.LBB1_96
# %bb.82:                               # %land.lhs.true178
                                        #   in Loop: Header=BB1_43 Depth=1
	cmpl	$0, zcat_flg
	jne	.LBB1_96
# %bb.83:                               # %if.then181
                                        #   in Loop: Header=BB1_43 Depth=1
	movabsq	$ofname, %rdi
	leaq	-208(%rbp), %rsi
	callq	stat
	cmpl	$0, %eax
	jne	.LBB1_95
# %bb.84:                               # %if.then185
                                        #   in Loop: Header=BB1_43 Depth=1
	movb	$110, -18(%rbp)
	movq	stderr, %rdi
	movabsq	$.L.str.11, %rsi
	movabsq	$ofname, %rdx
	movb	$0, %al
	callq	fprintf
	callq	foreground
	cmpl	$0, %eax
	je	.LBB1_92
# %bb.85:                               # %if.then190
                                        #   in Loop: Header=BB1_43 Depth=1
	movq	stderr, %rdi
	movabsq	$.L.str.12, %rsi
	movabsq	$ofname, %rdx
	movb	$0, %al
	callq	fprintf
	movq	stderr, %rdi
	callq	fflush
	leaq	-18(%rbp), %rsi
	movl	$2, %edi
	movl	$2, %edx
	callq	read
.LBB1_86:                               # %while.cond195
                                        #   Parent Loop BB1_43 Depth=1
                                        # =>  This Inner Loop Header: Depth=2
	movsbl	-17(%rbp), %eax
	cmpl	$10, %eax
	je	.LBB1_90
# %bb.87:                               # %while.body200
                                        #   in Loop: Header=BB1_86 Depth=2
	leaq	-18(%rbp), %rsi
	addq	$1, %rsi
	movl	$2, %edi
	movl	$1, %edx
	callq	read
	cmpq	$0, %rax
	jge	.LBB1_89
# %bb.88:                               # %if.then206
                                        #   in Loop: Header=BB1_43 Depth=1
	movabsq	$.L.str.13, %rdi
	callq	perror
	jmp	.LBB1_91
.LBB1_89:                               # %if.end207
                                        #   in Loop: Header=BB1_86 Depth=2
	jmp	.LBB1_86
.LBB1_90:                               # %while.end208.loopexit
                                        #   in Loop: Header=BB1_43 Depth=1
	jmp	.LBB1_91
.LBB1_91:                               # %while.end208
                                        #   in Loop: Header=BB1_43 Depth=1
	jmp	.LBB1_92
.LBB1_92:                               # %if.end209
                                        #   in Loop: Header=BB1_43 Depth=1
	movsbl	-18(%rbp), %eax
	cmpl	$121, %eax
	je	.LBB1_94
# %bb.93:                               # %if.then214
                                        #   in Loop: Header=BB1_43 Depth=1
	movq	stderr, %rdi
	movabsq	$.L.str.14, %rsi
	movb	$0, %al
	callq	fprintf
	jmp	.LBB1_111
.LBB1_94:                               # %if.end216
                                        #   in Loop: Header=BB1_43 Depth=1
	jmp	.LBB1_95
.LBB1_95:                               # %if.end217
                                        #   in Loop: Header=BB1_43 Depth=1
	jmp	.LBB1_96
.LBB1_96:                               # %if.end218
                                        #   in Loop: Header=BB1_43 Depth=1
	cmpl	$0, zcat_flg
	jne	.LBB1_102
# %bb.97:                               # %if.then221
                                        #   in Loop: Header=BB1_43 Depth=1
	movq	stdout, %rdx
	movabsq	$ofname, %rdi
	movabsq	$.L.str.15, %rsi
	callq	freopen
	cmpq	$0, %rax
	jne	.LBB1_99
# %bb.98:                               # %if.then225
                                        #   in Loop: Header=BB1_43 Depth=1
	movabsq	$ofname, %rdi
	callq	perror
	jmp	.LBB1_111
.LBB1_99:                               # %if.end226
                                        #   in Loop: Header=BB1_43 Depth=1
	cmpl	$0, quiet
	jne	.LBB1_101
# %bb.100:                              # %if.then228
                                        #   in Loop: Header=BB1_43 Depth=1
	movq	stderr, %rdi
	movq	-16(%rbp), %rax
	movq	(%rax), %rdx
	movabsq	$.L.str.16, %rsi
	movb	$0, %al
	callq	fprintf
.LBB1_101:                              # %if.end230
                                        #   in Loop: Header=BB1_43 Depth=1
	jmp	.LBB1_102
.LBB1_102:                              # %if.end231
                                        #   in Loop: Header=BB1_43 Depth=1
	cmpl	$0, do_decomp
	jne	.LBB1_104
# %bb.103:                              # %if.then234
                                        #   in Loop: Header=BB1_43 Depth=1
	callq	compress
	jmp	.LBB1_105
.LBB1_104:                              # %if.else235
                                        #   in Loop: Header=BB1_43 Depth=1
	callq	decompress
.LBB1_105:                              # %if.end236
                                        #   in Loop: Header=BB1_43 Depth=1
	cmpl	$0, zcat_flg
	jne	.LBB1_110
# %bb.106:                              # %if.then239
                                        #   in Loop: Header=BB1_43 Depth=1
	movq	-16(%rbp), %rax
	movq	(%rax), %rdi
	movabsq	$ofname, %rsi
	callq	copystat
	cmpl	$1, exit_stat
	je	.LBB1_108
# %bb.107:                              # %lor.lhs.false242
                                        #   in Loop: Header=BB1_43 Depth=1
	cmpl	$0, quiet
	jne	.LBB1_109
.LBB1_108:                              # %if.then244
                                        #   in Loop: Header=BB1_43 Depth=1
	movq	stderr, %rsi
	movl	$10, %edi
	callq	_IO_putc
.LBB1_109:                              # %if.end246
                                        #   in Loop: Header=BB1_43 Depth=1
	jmp	.LBB1_110
.LBB1_110:                              # %if.end247
                                        #   in Loop: Header=BB1_43 Depth=1
	jmp	.LBB1_111
.LBB1_111:                              # %for.inc248
                                        #   in Loop: Header=BB1_43 Depth=1
	movq	-16(%rbp), %rax
	addq	$8, %rax
	movq	%rax, -16(%rbp)
	jmp	.LBB1_43
.LBB1_112:                              # %for.end250
	jmp	.LBB1_126
.LBB1_113:                              # %if.else251
	cmpl	$0, do_decomp
	jne	.LBB1_117
# %bb.114:                              # %if.then254
	callq	compress
	cmpl	$0, quiet
	jne	.LBB1_116
# %bb.115:                              # %if.then256
	movq	stderr, %rsi
	movl	$10, %edi
	callq	_IO_putc
.LBB1_116:                              # %if.end258
	jmp	.LBB1_125
.LBB1_117:                              # %if.else259
	cmpl	$0, nomagic
	jne	.LBB1_124
# %bb.118:                              # %if.then262
	callq	getchar
	movzbl	magic_header, %ecx
	andl	$255, %ecx
	cmpl	%ecx, %eax
	jne	.LBB1_120
# %bb.119:                              # %lor.lhs.false268
	callq	getchar
	movzbl	magic_header+1, %ecx
	andl	$255, %ecx
	cmpl	%ecx, %eax
	je	.LBB1_121
.LBB1_120:                              # %if.then274
	movq	stderr, %rdi
	movabsq	$.L.str.17, %rsi
	movb	$0, %al
	callq	fprintf
	movl	$1, %edi
	callq	exit
.LBB1_121:                              # %if.end276
	callq	getchar
	movl	%eax, maxbits
	movl	maxbits, %eax
	andl	$128, %eax
	movl	%eax, block_compress
	movl	maxbits, %eax
	andl	$31, %eax
	movl	%eax, maxbits
	movl	maxbits, %ecx
                                        # kill: def $cl killed $ecx
	movl	$1, %eax
	shll	%cl, %eax
	cltq
	movq	%rax, maxmaxcode
	movq	$100000, fsize          # imm = 0x186A0
	cmpl	$16, maxbits
	jle	.LBB1_123
# %bb.122:                              # %if.then284
	movq	stderr, %rdi
	movl	maxbits, %edx
	movabsq	$.L.str.18, %rsi
	movl	$16, %ecx
	movb	$0, %al
	callq	fprintf
	movl	$1, %edi
	callq	exit
.LBB1_123:                              # %if.end286
	jmp	.LBB1_124
.LBB1_124:                              # %if.end287
	callq	decompress
.LBB1_125:                              # %if.end288
	jmp	.LBB1_126
.LBB1_126:                              # %if.end289
	xorl	%eax, %eax
	addq	$312, %rsp              # imm = 0x138
	popq	%rbx
	popq	%rbp
	.cfi_def_cfa %rsp, 8
	retq
.Lfunc_end1:
	.size	main, .Lfunc_end1-main
	.cfi_endproc
	.section	.rodata,"a",@progbits
	.p2align	3
.LJTI1_0:
	.quad	.LBB1_22
	.quad	.LBB1_30
	.quad	.LBB1_30
	.quad	.LBB1_20
	.quad	.LBB1_30
	.quad	.LBB1_30
	.quad	.LBB1_30
	.quad	.LBB1_30
	.quad	.LBB1_30
	.quad	.LBB1_30
	.quad	.LBB1_30
	.quad	.LBB1_30
	.quad	.LBB1_30
	.quad	.LBB1_30
	.quad	.LBB1_30
	.quad	.LBB1_30
	.quad	.LBB1_30
	.quad	.LBB1_30
	.quad	.LBB1_30
	.quad	.LBB1_17
	.quad	.LBB1_30
	.quad	.LBB1_30
	.quad	.LBB1_30
	.quad	.LBB1_30
	.quad	.LBB1_30
	.quad	.LBB1_30
	.quad	.LBB1_30
	.quad	.LBB1_30
	.quad	.LBB1_30
	.quad	.LBB1_30
	.quad	.LBB1_30
	.quad	.LBB1_23
	.quad	.LBB1_28
	.quad	.LBB1_19
	.quad	.LBB1_30
	.quad	.LBB1_20
	.quad	.LBB1_30
	.quad	.LBB1_30
	.quad	.LBB1_30
	.quad	.LBB1_30
	.quad	.LBB1_30
	.quad	.LBB1_30
	.quad	.LBB1_30
	.quad	.LBB1_21
	.quad	.LBB1_30
	.quad	.LBB1_30
	.quad	.LBB1_29
	.quad	.LBB1_30
	.quad	.LBB1_30
	.quad	.LBB1_30
	.quad	.LBB1_30
	.quad	.LBB1_18
                                        # -- End function
	.text
	.globl	onintr                  # -- Begin function onintr
	.p2align	4, 0x90
	.type	onintr,@function
onintr:                                 # @onintr
	.cfi_startproc
# %bb.0:                                # %entry
	pushq	%rbp
	.cfi_def_cfa_offset 16
	.cfi_offset %rbp, -16
	movq	%rsp, %rbp
	.cfi_def_cfa_register %rbp
	subq	$16, %rsp
	movl	%edi, -4(%rbp)
	movabsq	$ofname, %rdi
	callq	unlink
	movl	$1, %edi
	callq	exit
.Lfunc_end2:
	.size	onintr, .Lfunc_end2-onintr
	.cfi_endproc
                                        # -- End function
	.globl	oops                    # -- Begin function oops
	.p2align	4, 0x90
	.type	oops,@function
oops:                                   # @oops
	.cfi_startproc
# %bb.0:                                # %entry
	pushq	%rbp
	.cfi_def_cfa_offset 16
	.cfi_offset %rbp, -16
	movq	%rsp, %rbp
	.cfi_def_cfa_register %rbp
	subq	$16, %rsp
	movl	%edi, -4(%rbp)
	cmpl	$1, do_decomp
	jne	.LBB3_2
# %bb.1:                                # %if.then
	movq	stderr, %rdi
	movabsq	$.L.str.24, %rsi
	movb	$0, %al
	callq	fprintf
.LBB3_2:                                # %if.end
	movabsq	$ofname, %rdi
	callq	unlink
	movl	$1, %edi
	callq	exit
.Lfunc_end3:
	.size	oops, .Lfunc_end3-oops
	.cfi_endproc
                                        # -- End function
	.globl	copystat                # -- Begin function copystat
	.p2align	4, 0x90
	.type	copystat,@function
copystat:                               # @copystat
	.cfi_startproc
# %bb.0:                                # %rand_bb
	pushq	%rbp
	.cfi_def_cfa_offset 16
	.cfi_offset %rbp, -16
	movq	%rsp, %rbp
	.cfi_def_cfa_register %rbp
	pushq	%r14
	pushq	%rbx
	.cfi_offset %rbx, -32
	.cfi_offset %r14, -24
	movq	%rsi, %r14
	movq	%rdi, %rbx
	callq	get_rand
	cmpl	$0, %eax
	jne	.LBB4_5
# %bb.1:                                # %func_copystat.8
	movq	%rbx, %rdi
	movq	%r14, %rsi
	callq	copystat.8
	popq	%rbx
	popq	%r14
	popq	%rbp
	.cfi_def_cfa %rsp, 8
	retq
.LBB4_2:                                # %func_copystat.11
	.cfi_def_cfa %rbp, 16
	movq	%rbx, %rdi
	movq	%r14, %rsi
	callq	copystat.11
	popq	%rbx
	popq	%r14
	popq	%rbp
	.cfi_def_cfa %rsp, 8
	retq
.LBB4_3:                                # %func_copystat.17
	.cfi_def_cfa %rbp, 16
	movq	%rbx, %rdi
	movq	%r14, %rsi
	callq	copystat.17
	popq	%rbx
	popq	%r14
	popq	%rbp
	.cfi_def_cfa %rsp, 8
	retq
.LBB4_4:                                # %func_copystat.18
	.cfi_def_cfa %rbp, 16
	movq	%rbx, %rdi
	movq	%r14, %rsi
	callq	copystat.18
	popq	%rbx
	popq	%r14
	popq	%rbp
	.cfi_def_cfa %rsp, 8
	retq
.LBB4_5:                                # %ctrl0
	.cfi_def_cfa %rbp, 16
	cmpl	$1, %eax
	je	.LBB4_2
# %bb.6:                                # %ctrl1
	cmpl	$2, %eax
	je	.LBB4_3
	jmp	.LBB4_4
.Lfunc_end4:
	.size	copystat, .Lfunc_end4-copystat
	.cfi_endproc
                                        # -- End function
	.globl	compress                # -- Begin function compress
	.p2align	4, 0x90
	.type	compress,@function
compress:                               # @compress
	.cfi_startproc
# %bb.0:                                # %rand_bb
	pushq	%rbp
	.cfi_def_cfa_offset 16
	.cfi_offset %rbp, -16
	movq	%rsp, %rbp
	.cfi_def_cfa_register %rbp
	callq	get_rand
	cmpl	$0, %eax
	jne	.LBB5_5
# %bb.1:                                # %func_compress.19
	callq	compress.19
	popq	%rbp
	.cfi_def_cfa %rsp, 8
	retq
.LBB5_2:                                # %func_compress.20
	.cfi_def_cfa %rbp, 16
	callq	compress.20
	popq	%rbp
	.cfi_def_cfa %rsp, 8
	retq
.LBB5_3:                                # %func_compress.22
	.cfi_def_cfa %rbp, 16
	callq	compress.22
	popq	%rbp
	.cfi_def_cfa %rsp, 8
	retq
.LBB5_4:                                # %func_compress.27
	.cfi_def_cfa %rbp, 16
	callq	compress.27
	popq	%rbp
	.cfi_def_cfa %rsp, 8
	retq
.LBB5_5:                                # %ctrl0
	.cfi_def_cfa %rbp, 16
	cmpl	$1, %eax
	je	.LBB5_2
# %bb.6:                                # %ctrl1
	cmpl	$2, %eax
	je	.LBB5_3
	jmp	.LBB5_4
.Lfunc_end5:
	.size	compress, .Lfunc_end5-compress
	.cfi_endproc
                                        # -- End function
	.globl	cl_hash                 # -- Begin function cl_hash
	.p2align	4, 0x90
	.type	cl_hash,@function
cl_hash:                                # @cl_hash
	.cfi_startproc
# %bb.0:                                # %rand_bb
	pushq	%rbp
	.cfi_def_cfa_offset 16
	.cfi_offset %rbp, -16
	movq	%rsp, %rbp
	.cfi_def_cfa_register %rbp
	pushq	%rbx
	pushq	%rax
	.cfi_offset %rbx, -24
	movq	%rdi, %rbx
	callq	get_rand
	cmpl	$0, %eax
	jne	.LBB6_5
# %bb.1:                                # %func_cl_hash.15
	movq	%rbx, %rdi
	callq	cl_hash.15
	addq	$8, %rsp
	popq	%rbx
	popq	%rbp
	.cfi_def_cfa %rsp, 8
	retq
.LBB6_2:                                # %func_cl_hash.29
	.cfi_def_cfa %rbp, 16
	movq	%rbx, %rdi
	callq	cl_hash.29
	addq	$8, %rsp
	popq	%rbx
	popq	%rbp
	.cfi_def_cfa %rsp, 8
	retq
.LBB6_3:                                # %func_cl_hash.31
	.cfi_def_cfa %rbp, 16
	movq	%rbx, %rdi
	callq	cl_hash.31
	addq	$8, %rsp
	popq	%rbx
	popq	%rbp
	.cfi_def_cfa %rsp, 8
	retq
.LBB6_4:                                # %func_cl_hash.32
	.cfi_def_cfa %rbp, 16
	movq	%rbx, %rdi
	callq	cl_hash.32
	addq	$8, %rsp
	popq	%rbx
	popq	%rbp
	.cfi_def_cfa %rsp, 8
	retq
.LBB6_5:                                # %ctrl0
	.cfi_def_cfa %rbp, 16
	cmpl	$1, %eax
	je	.LBB6_2
# %bb.6:                                # %ctrl1
	cmpl	$2, %eax
	je	.LBB6_3
	jmp	.LBB6_4
.Lfunc_end6:
	.size	cl_hash, .Lfunc_end6-cl_hash
	.cfi_endproc
                                        # -- End function
	.globl	scott_hack              # -- Begin function scott_hack
	.p2align	4, 0x90
	.type	scott_hack,@function
scott_hack:                             # @scott_hack
	.cfi_startproc
# %bb.0:                                # %rand_bb
	pushq	%rbp
	.cfi_def_cfa_offset 16
	.cfi_offset %rbp, -16
	movq	%rsp, %rbp
	.cfi_def_cfa_register %rbp
	pushq	%r15
	pushq	%r14
	pushq	%r13
	pushq	%r12
	pushq	%rbx
	pushq	%rax
	.cfi_offset %rbx, -56
	.cfi_offset %r12, -48
	.cfi_offset %r13, -40
	.cfi_offset %r14, -32
	.cfi_offset %r15, -24
	movq	%r8, %r14
	movl	%ecx, %r15d
	movl	%edx, %r12d
	movq	%rsi, %r13
	movq	%rdi, %rbx
	callq	get_rand
	cmpl	$0, %eax
	jne	.LBB7_5
# %bb.1:                                # %func_scott_hack.6
	movq	%rbx, %rdi
	movq	%r13, %rsi
	movl	%r12d, %edx
	movl	%r15d, %ecx
	movq	%r14, %r8
	callq	scott_hack.6
	addq	$8, %rsp
	popq	%rbx
	popq	%r12
	popq	%r13
	popq	%r14
	popq	%r15
	popq	%rbp
	.cfi_def_cfa %rsp, 8
	retq
.LBB7_2:                                # %func_scott_hack.9
	.cfi_def_cfa %rbp, 16
	movq	%rbx, %rdi
	movq	%r13, %rsi
	movl	%r12d, %edx
	movl	%r15d, %ecx
	movq	%r14, %r8
	callq	scott_hack.9
	addq	$8, %rsp
	popq	%rbx
	popq	%r12
	popq	%r13
	popq	%r14
	popq	%r15
	popq	%rbp
	.cfi_def_cfa %rsp, 8
	retq
.LBB7_3:                                # %func_scott_hack.12
	.cfi_def_cfa %rbp, 16
	movq	%rbx, %rdi
	movq	%r13, %rsi
	movl	%r12d, %edx
	movl	%r15d, %ecx
	movq	%r14, %r8
	callq	scott_hack.12
	addq	$8, %rsp
	popq	%rbx
	popq	%r12
	popq	%r13
	popq	%r14
	popq	%r15
	popq	%rbp
	.cfi_def_cfa %rsp, 8
	retq
.LBB7_4:                                # %func_scott_hack.26
	.cfi_def_cfa %rbp, 16
	movq	%rbx, %rdi
	movq	%r13, %rsi
	movl	%r12d, %edx
	movl	%r15d, %ecx
	movq	%r14, %r8
	callq	scott_hack.26
	addq	$8, %rsp
	popq	%rbx
	popq	%r12
	popq	%r13
	popq	%r14
	popq	%r15
	popq	%rbp
	.cfi_def_cfa %rsp, 8
	retq
.LBB7_5:                                # %ctrl0
	.cfi_def_cfa %rbp, 16
	cmpl	$1, %eax
	je	.LBB7_2
# %bb.6:                                # %ctrl1
	cmpl	$2, %eax
	je	.LBB7_3
	jmp	.LBB7_4
.Lfunc_end7:
	.size	scott_hack, .Lfunc_end7-scott_hack
	.cfi_endproc
                                        # -- End function
	.globl	output                  # -- Begin function output
	.p2align	4, 0x90
	.type	output,@function
output:                                 # @output
	.cfi_startproc
# %bb.0:                                # %rand_bb
	pushq	%rbp
	.cfi_def_cfa_offset 16
	.cfi_offset %rbp, -16
	movq	%rsp, %rbp
	.cfi_def_cfa_register %rbp
	pushq	%rbx
	pushq	%rax
	.cfi_offset %rbx, -24
	movq	%rdi, %rbx
	callq	get_rand
	cmpl	$0, %eax
	jne	.LBB8_5
# %bb.1:                                # %func_output.10
	movq	%rbx, %rdi
	callq	output.10
	addq	$8, %rsp
	popq	%rbx
	popq	%rbp
	.cfi_def_cfa %rsp, 8
	retq
.LBB8_2:                                # %func_output.14
	.cfi_def_cfa %rbp, 16
	movq	%rbx, %rdi
	callq	output.14
	addq	$8, %rsp
	popq	%rbx
	popq	%rbp
	.cfi_def_cfa %rsp, 8
	retq
.LBB8_3:                                # %func_output.23
	.cfi_def_cfa %rbp, 16
	movq	%rbx, %rdi
	callq	output.23
	addq	$8, %rsp
	popq	%rbx
	popq	%rbp
	.cfi_def_cfa %rsp, 8
	retq
.LBB8_4:                                # %func_output.24
	.cfi_def_cfa %rbp, 16
	movq	%rbx, %rdi
	callq	output.24
	addq	$8, %rsp
	popq	%rbx
	popq	%rbp
	.cfi_def_cfa %rsp, 8
	retq
.LBB8_5:                                # %ctrl0
	.cfi_def_cfa %rbp, 16
	cmpl	$1, %eax
	je	.LBB8_2
# %bb.6:                                # %ctrl1
	cmpl	$2, %eax
	je	.LBB8_3
	jmp	.LBB8_4
.Lfunc_end8:
	.size	output, .Lfunc_end8-output
	.cfi_endproc
                                        # -- End function
	.globl	prratio                 # -- Begin function prratio
	.p2align	4, 0x90
	.type	prratio,@function
prratio:                                # @prratio
	.cfi_startproc
# %bb.0:                                # %rand_bb
	pushq	%rbp
	.cfi_def_cfa_offset 16
	.cfi_offset %rbp, -16
	movq	%rsp, %rbp
	.cfi_def_cfa_register %rbp
	pushq	%r15
	pushq	%r14
	pushq	%rbx
	pushq	%rax
	.cfi_offset %rbx, -40
	.cfi_offset %r14, -32
	.cfi_offset %r15, -24
	movq	%rdx, %r14
	movq	%rsi, %r15
	movq	%rdi, %rbx
	callq	get_rand
	cmpl	$0, %eax
	jne	.LBB9_5
# %bb.1:                                # %func_prratio.1
	movq	%rbx, %rdi
	movq	%r15, %rsi
	movq	%r14, %rdx
	callq	prratio.1
	addq	$8, %rsp
	popq	%rbx
	popq	%r14
	popq	%r15
	popq	%rbp
	.cfi_def_cfa %rsp, 8
	retq
.LBB9_2:                                # %func_prratio.5
	.cfi_def_cfa %rbp, 16
	movq	%rbx, %rdi
	movq	%r15, %rsi
	movq	%r14, %rdx
	callq	prratio.5
	addq	$8, %rsp
	popq	%rbx
	popq	%r14
	popq	%r15
	popq	%rbp
	.cfi_def_cfa %rsp, 8
	retq
.LBB9_3:                                # %func_prratio.28
	.cfi_def_cfa %rbp, 16
	movq	%rbx, %rdi
	movq	%r15, %rsi
	movq	%r14, %rdx
	callq	prratio.28
	addq	$8, %rsp
	popq	%rbx
	popq	%r14
	popq	%r15
	popq	%rbp
	.cfi_def_cfa %rsp, 8
	retq
.LBB9_4:                                # %func_prratio.30
	.cfi_def_cfa %rbp, 16
	movq	%rbx, %rdi
	movq	%r15, %rsi
	movq	%r14, %rdx
	callq	prratio.30
	addq	$8, %rsp
	popq	%rbx
	popq	%r14
	popq	%r15
	popq	%rbp
	.cfi_def_cfa %rsp, 8
	retq
.LBB9_5:                                # %ctrl0
	.cfi_def_cfa %rbp, 16
	cmpl	$1, %eax
	je	.LBB9_2
# %bb.6:                                # %ctrl1
	cmpl	$2, %eax
	je	.LBB9_3
	jmp	.LBB9_4
.Lfunc_end9:
	.size	prratio, .Lfunc_end9-prratio
	.cfi_endproc
                                        # -- End function
	.globl	decompress              # -- Begin function decompress
	.p2align	4, 0x90
	.type	decompress,@function
decompress:                             # @decompress
	.cfi_startproc
# %bb.0:                                # %rand_bb
	pushq	%rbp
	.cfi_def_cfa_offset 16
	.cfi_offset %rbp, -16
	movq	%rsp, %rbp
	.cfi_def_cfa_register %rbp
	callq	get_rand
	cmpl	$0, %eax
	jne	.LBB10_5
# %bb.1:                                # %func_decompress.2
	callq	decompress.2
	popq	%rbp
	.cfi_def_cfa %rsp, 8
	retq
.LBB10_2:                               # %func_decompress.7
	.cfi_def_cfa %rbp, 16
	callq	decompress.7
	popq	%rbp
	.cfi_def_cfa %rsp, 8
	retq
.LBB10_3:                               # %func_decompress.13
	.cfi_def_cfa %rbp, 16
	callq	decompress.13
	popq	%rbp
	.cfi_def_cfa %rsp, 8
	retq
.LBB10_4:                               # %func_decompress.16
	.cfi_def_cfa %rbp, 16
	callq	decompress.16
	popq	%rbp
	.cfi_def_cfa %rsp, 8
	retq
.LBB10_5:                               # %ctrl0
	.cfi_def_cfa %rbp, 16
	cmpl	$1, %eax
	je	.LBB10_2
# %bb.6:                                # %ctrl1
	cmpl	$2, %eax
	je	.LBB10_3
	jmp	.LBB10_4
.Lfunc_end10:
	.size	decompress, .Lfunc_end10-decompress
	.cfi_endproc
                                        # -- End function
	.globl	getcode                 # -- Begin function getcode
	.p2align	4, 0x90
	.type	getcode,@function
getcode:                                # @getcode
	.cfi_startproc
# %bb.0:                                # %rand_bb
	pushq	%rbp
	.cfi_def_cfa_offset 16
	.cfi_offset %rbp, -16
	movq	%rsp, %rbp
	.cfi_def_cfa_register %rbp
	callq	get_rand
	cmpl	$0, %eax
	jne	.LBB11_5
# %bb.1:                                # %func_getcode.3
	callq	getcode.3
	popq	%rbp
	.cfi_def_cfa %rsp, 8
	retq
.LBB11_2:                               # %func_getcode.4
	.cfi_def_cfa %rbp, 16
	callq	getcode.4
	popq	%rbp
	.cfi_def_cfa %rsp, 8
	retq
.LBB11_3:                               # %func_getcode.21
	.cfi_def_cfa %rbp, 16
	callq	getcode.21
	popq	%rbp
	.cfi_def_cfa %rsp, 8
	retq
.LBB11_4:                               # %func_getcode.25
	.cfi_def_cfa %rbp, 16
	callq	getcode.25
	popq	%rbp
	.cfi_def_cfa %rsp, 8
	retq
.LBB11_5:                               # %ctrl0
	.cfi_def_cfa %rbp, 16
	cmpl	$1, %eax
	je	.LBB11_2
# %bb.6:                                # %ctrl1
	cmpl	$2, %eax
	je	.LBB11_3
	jmp	.LBB11_4
.Lfunc_end11:
	.size	getcode, .Lfunc_end11-getcode
	.cfi_endproc
                                        # -- End function
	.globl	writeerr                # -- Begin function writeerr
	.p2align	4, 0x90
	.type	writeerr,@function
writeerr:                               # @writeerr
	.cfi_startproc
# %bb.0:                                # %entry
	pushq	%rbp
	.cfi_def_cfa_offset 16
	.cfi_offset %rbp, -16
	movq	%rsp, %rbp
	.cfi_def_cfa_register %rbp
	movabsq	$ofname, %rdi
	callq	perror
	movabsq	$ofname, %rdi
	callq	unlink
	movl	$1, %edi
	callq	exit
.Lfunc_end12:
	.size	writeerr, .Lfunc_end12-writeerr
	.cfi_endproc
                                        # -- End function
	.globl	foreground              # -- Begin function foreground
	.p2align	4, 0x90
	.type	foreground,@function
foreground:                             # @foreground
	.cfi_startproc
# %bb.0:                                # %entry
	pushq	%rbp
	.cfi_def_cfa_offset 16
	.cfi_offset %rbp, -16
	movq	%rsp, %rbp
	.cfi_def_cfa_register %rbp
	subq	$16, %rsp
	cmpq	$0, bgnd_flag
	je	.LBB13_2
# %bb.1:                                # %if.then
	movl	$0, -4(%rbp)
	jmp	.LBB13_5
.LBB13_2:                               # %if.else
	movl	$2, %edi
	callq	isatty
	cmpl	$0, %eax
	je	.LBB13_4
# %bb.3:                                # %if.then2
	movl	$1, -4(%rbp)
	jmp	.LBB13_5
.LBB13_4:                               # %if.else3
	movl	$0, -4(%rbp)
.LBB13_5:                               # %return
	movl	-4(%rbp), %eax
	addq	$16, %rsp
	popq	%rbp
	.cfi_def_cfa %rsp, 8
	retq
.Lfunc_end13:
	.size	foreground, .Lfunc_end13-foreground
	.cfi_endproc
                                        # -- End function
	.globl	cl_block                # -- Begin function cl_block
	.p2align	4, 0x90
	.type	cl_block,@function
cl_block:                               # @cl_block
	.cfi_startproc
# %bb.0:                                # %entry
	pushq	%rbp
	.cfi_def_cfa_offset 16
	.cfi_offset %rbp, -16
	movq	%rsp, %rbp
	.cfi_def_cfa_register %rbp
	subq	$16, %rsp
	movq	in_count, %rax
	addq	$10000, %rax            # imm = 0x2710
	movq	%rax, checkpoint
	cmpq	$8388607, in_count      # imm = 0x7FFFFF
	jle	.LBB14_5
# %bb.1:                                # %if.then
	movq	bytes_out, %rax
	sarq	$8, %rax
	movq	%rax, -8(%rbp)
	cmpq	$0, -8(%rbp)
	jne	.LBB14_3
# %bb.2:                                # %if.then2
	movq	$2147483647, -8(%rbp)   # imm = 0x7FFFFFFF
	jmp	.LBB14_4
.LBB14_3:                               # %if.else
	movq	in_count, %rax
	cqto
	idivq	-8(%rbp)
	movq	%rax, -8(%rbp)
.LBB14_4:                               # %if.end
	jmp	.LBB14_6
.LBB14_5:                               # %if.else3
	movq	in_count, %rax
	shlq	$8, %rax
	cqto
	idivq	bytes_out
	movq	%rax, -8(%rbp)
.LBB14_6:                               # %if.end5
	movq	-8(%rbp), %rax
	cmpq	ratio, %rax
	jle	.LBB14_8
# %bb.7:                                # %if.then7
	movq	-8(%rbp), %rax
	movq	%rax, ratio
	jmp	.LBB14_9
.LBB14_8:                               # %if.else8
	movq	$0, ratio
	movq	hsize, %rdi
	callq	cl_hash
	movq	$257, free_ent          # imm = 0x101
	movl	$1, clear_flg
	movl	$256, %edi              # imm = 0x100
	callq	output
.LBB14_9:                               # %if.end9
	addq	$16, %rsp
	popq	%rbp
	.cfi_def_cfa %rsp, 8
	retq
.Lfunc_end14:
	.size	cl_block, .Lfunc_end14-cl_block
	.cfi_endproc
                                        # -- End function
	.globl	version                 # -- Begin function version
	.p2align	4, 0x90
	.type	version,@function
version:                                # @version
	.cfi_startproc
# %bb.0:                                # %entry
	pushq	%rbp
	.cfi_def_cfa_offset 16
	.cfi_offset %rbp, -16
	movq	%rsp, %rbp
	.cfi_def_cfa_register %rbp
	movq	stderr, %rdi
	movabsq	$.L.str.26, %rsi
	movabsq	$rcs_ident, %rdx
	movb	$0, %al
	callq	fprintf
	movq	stderr, %rdi
	movabsq	$.L.str.27, %rsi
	movb	$0, %al
	callq	fprintf
	movq	stderr, %rdi
	movabsq	$.L.str.28, %rsi
	movl	$16, %edx
	movb	$0, %al
	callq	fprintf
	popq	%rbp
	.cfi_def_cfa %rsp, 8
	retq
.Lfunc_end15:
	.size	version, .Lfunc_end15-version
	.cfi_endproc
                                        # -- End function
	.globl	prratio.1               # -- Begin function prratio.1
	.p2align	4, 0x90
	.type	prratio.1,@function
prratio.1:                              # @prratio.1
	.cfi_startproc
# %bb.0:                                # %entry
	pushq	%rbp
	.cfi_def_cfa_offset 16
	.cfi_offset %rbp, -16
	movq	%rsp, %rbp
	.cfi_def_cfa_register %rbp
	subq	$48, %rsp
	movl	$591436719, -20(%rbp)   # imm = 0x23409BAF
	movq	%rdi, -40(%rbp)
	movq	%rsi, -16(%rbp)
	movq	%rdx, -32(%rbp)
	cmpq	$214748, -16(%rbp)      # imm = 0x346DC
	jle	.LBB16_2
# %bb.1:                                # %if.then
	movq	-16(%rbp), %rcx
	movq	-32(%rbp), %rax
	cqto
	movl	$10000, %esi            # imm = 0x2710
	idivq	%rsi
	movq	%rax, %rsi
	movq	%rcx, %rax
	cqto
	idivq	%rsi
	movl	%eax, -4(%rbp)
	jmp	.LBB16_3
.LBB16_2:                               # %if.else
	imulq	$10000, -16(%rbp), %rax # imm = 0x2710
	cqto
	idivq	-32(%rbp)
	movl	%eax, -4(%rbp)
.LBB16_3:                               # %if.end
	cmpl	$0, -4(%rbp)
	jge	.LBB16_5
# %bb.4:                                # %if.then6
	movq	-40(%rbp), %rsi
	movl	$45, %edi
	callq	_IO_putc
	xorl	%eax, %eax
	subl	-4(%rbp), %eax
	movl	%eax, -4(%rbp)
.LBB16_5:                               # %if.end7
	movq	-40(%rbp), %rdi
	movl	-4(%rbp), %eax
	cltd
	movl	$100, %ecx
	idivl	%ecx
	movl	%eax, %r8d
	movl	-4(%rbp), %eax
	cltd
	idivl	%ecx
	movl	%edx, %ecx
	movabsq	$.L.str.25, %rsi
	movl	%r8d, %edx
	movb	$0, %al
	callq	fprintf
	cmpl	$591436719, -20(%rbp)   # imm = 0x23409BAF
	jne	.LBB16_7
.LBB16_6:
	addq	$48, %rsp
	popq	%rbp
	.cfi_def_cfa %rsp, 8
	retq
.LBB16_7:                               # %func_exit
	.cfi_def_cfa %rbp, 16
	callq	detect_breach
	jmp	.LBB16_6
.Lfunc_end16:
	.size	prratio.1, .Lfunc_end16-prratio.1
	.cfi_endproc
                                        # -- End function
	.globl	decompress.2            # -- Begin function decompress.2
	.p2align	4, 0x90
	.type	decompress.2,@function
decompress.2:                           # @decompress.2
	.cfi_startproc
# %bb.0:                                # %entry
	pushq	%rbp
	.cfi_def_cfa_offset 16
	.cfi_offset %rbp, -16
	movq	%rsp, %rbp
	.cfi_def_cfa_register %rbp
	subq	$48, %rsp
	movl	$1130022316, -36(%rbp)  # imm = 0x435AC5AC
	movl	$9, n_bits
	movq	$511, maxcode           # imm = 0x1FF
	movq	$255, -8(%rbp)
.LBB17_1:                               # %for.cond
                                        # =>This Inner Loop Header: Depth=1
	cmpq	$0, -8(%rbp)
	jl	.LBB17_4
# %bb.2:                                # %for.body
                                        #   in Loop: Header=BB17_1 Depth=1
	movq	-8(%rbp), %rax
	movw	$0, codetab(,%rax,2)
	movq	-8(%rbp), %rax
	movq	-8(%rbp), %rcx
	movb	%al, htab(,%rcx)
# %bb.3:                                # %for.inc
                                        #   in Loop: Header=BB17_1 Depth=1
	movq	-8(%rbp), %rax
	addq	$-1, %rax
	movq	%rax, -8(%rbp)
	jmp	.LBB17_1
.LBB17_4:                               # %for.end
	movl	block_compress, %eax
	cmpl	$0, %eax
	movl	$257, %eax              # imm = 0x101
	movl	$256, %ecx              # imm = 0x100
	cmovnel	%eax, %ecx
	movslq	%ecx, %rax
	movq	%rax, free_ent
	callq	getcode
	movq	%rax, -32(%rbp)
	movl	%eax, -20(%rbp)
	cmpq	$-1, -32(%rbp)
	jne	.LBB17_6
# %bb.5:                                # %if.then
	jmp	.LBB17_33
.LBB17_6:                               # %if.end
	movl	-20(%rbp), %eax
	movsbl	%al, %edi
	callq	putchar
	movq	stdout, %rdi
	callq	ferror
	cmpl	$0, %eax
	je	.LBB17_8
# %bb.7:                                # %if.then11
	callq	writeerr
.LBB17_8:                               # %if.end12
	movabsq	$htab, %rax
	addq	$65536, %rax            # imm = 0x10000
	movq	%rax, -16(%rbp)
.LBB17_9:                               # %while.cond
                                        # =>This Loop Header: Depth=1
                                        #     Child Loop BB17_13 Depth 2
                                        #     Child Loop BB17_22 Depth 2
                                        #     Child Loop BB17_25 Depth 2
	callq	getcode
	movq	%rax, -8(%rbp)
	cmpq	$-1, %rax
	jle	.LBB17_30
# %bb.10:                               # %while.body
                                        #   in Loop: Header=BB17_9 Depth=1
	cmpq	$256, -8(%rbp)          # imm = 0x100
	jne	.LBB17_19
# %bb.11:                               # %land.lhs.true
                                        #   in Loop: Header=BB17_9 Depth=1
	cmpl	$0, block_compress
	je	.LBB17_19
# %bb.12:                               # %if.then19
                                        #   in Loop: Header=BB17_9 Depth=1
	movq	$255, -8(%rbp)
.LBB17_13:                              # %for.cond20
                                        #   Parent Loop BB17_9 Depth=1
                                        # =>  This Inner Loop Header: Depth=2
	cmpq	$0, -8(%rbp)
	jl	.LBB17_16
# %bb.14:                               # %for.body23
                                        #   in Loop: Header=BB17_13 Depth=2
	movq	-8(%rbp), %rax
	movw	$0, codetab(,%rax,2)
# %bb.15:                               # %for.inc25
                                        #   in Loop: Header=BB17_13 Depth=2
	movq	-8(%rbp), %rax
	addq	$-1, %rax
	movq	%rax, -8(%rbp)
	jmp	.LBB17_13
.LBB17_16:                              # %for.end27
                                        #   in Loop: Header=BB17_9 Depth=1
	movl	$1, clear_flg
	movq	$256, free_ent          # imm = 0x100
	callq	getcode
	movq	%rax, -8(%rbp)
	cmpq	$-1, %rax
	jne	.LBB17_18
# %bb.17:                               # %if.then31
	jmp	.LBB17_31
.LBB17_18:                              # %if.end32
                                        #   in Loop: Header=BB17_9 Depth=1
	jmp	.LBB17_19
.LBB17_19:                              # %if.end33
                                        #   in Loop: Header=BB17_9 Depth=1
	movq	-8(%rbp), %rax
	movq	%rax, -48(%rbp)
	movq	-8(%rbp), %rax
	cmpq	free_ent, %rax
	jl	.LBB17_21
# %bb.20:                               # %if.then36
                                        #   in Loop: Header=BB17_9 Depth=1
	movl	-20(%rbp), %eax
	movq	-16(%rbp), %rcx
	movq	%rcx, %rdx
	addq	$1, %rdx
	movq	%rdx, -16(%rbp)
	movb	%al, (%rcx)
	movq	-32(%rbp), %rax
	movq	%rax, -8(%rbp)
.LBB17_21:                              # %if.end38
                                        #   in Loop: Header=BB17_9 Depth=1
	jmp	.LBB17_22
.LBB17_22:                              # %while.cond39
                                        #   Parent Loop BB17_9 Depth=1
                                        # =>  This Inner Loop Header: Depth=2
	cmpq	$256, -8(%rbp)          # imm = 0x100
	jl	.LBB17_24
# %bb.23:                               # %while.body42
                                        #   in Loop: Header=BB17_22 Depth=2
	movq	-8(%rbp), %rax
	movb	htab(,%rax), %al
	movq	-16(%rbp), %rcx
	movq	%rcx, %rdx
	addq	$1, %rdx
	movq	%rdx, -16(%rbp)
	movb	%al, (%rcx)
	movq	-8(%rbp), %rax
	movzwl	codetab(,%rax,2), %eax
	movq	%rax, -8(%rbp)
	jmp	.LBB17_22
.LBB17_24:                              # %while.end
                                        #   in Loop: Header=BB17_9 Depth=1
	movq	-8(%rbp), %rax
	movzbl	htab(,%rax), %eax
	movl	%eax, -20(%rbp)
	movq	-16(%rbp), %rcx
	movq	%rcx, %rdx
	addq	$1, %rdx
	movq	%rdx, -16(%rbp)
	movb	%al, (%rcx)
.LBB17_25:                              # %do.body
                                        #   Parent Loop BB17_9 Depth=1
                                        # =>  This Inner Loop Header: Depth=2
	movq	-16(%rbp), %rax
	movq	%rax, %rcx
	addq	$-1, %rcx
	movq	%rcx, -16(%rbp)
	movzbl	-1(%rax), %edi
	callq	putchar
# %bb.26:                               # %do.cond
                                        #   in Loop: Header=BB17_25 Depth=2
	movabsq	$htab, %rax
	addq	$65536, %rax            # imm = 0x10000
	cmpq	%rax, -16(%rbp)
	ja	.LBB17_25
# %bb.27:                               # %do.end
                                        #   in Loop: Header=BB17_9 Depth=1
	movq	free_ent, %rax
	movq	%rax, -8(%rbp)
	cmpq	maxmaxcode, %rax
	jge	.LBB17_29
# %bb.28:                               # %if.then58
                                        #   in Loop: Header=BB17_9 Depth=1
	movq	-32(%rbp), %rax
	movq	-8(%rbp), %rcx
	movw	%ax, codetab(,%rcx,2)
	movl	-20(%rbp), %eax
	movq	-8(%rbp), %rcx
	movb	%al, htab(,%rcx)
	movq	-8(%rbp), %rax
	addq	$1, %rax
	movq	%rax, free_ent
.LBB17_29:                              # %if.end63
                                        #   in Loop: Header=BB17_9 Depth=1
	movq	-48(%rbp), %rax
	movq	%rax, -32(%rbp)
	jmp	.LBB17_9
.LBB17_30:                              # %while.end64.loopexit
	jmp	.LBB17_31
.LBB17_31:                              # %while.end64
	movq	stdout, %rdi
	callq	fflush
	movq	stdout, %rdi
	callq	ferror
	cmpl	$0, %eax
	je	.LBB17_33
# %bb.32:                               # %if.then68
	callq	writeerr
.LBB17_33:                              # %if.end69
	cmpl	$1130022316, -36(%rbp)  # imm = 0x435AC5AC
	jne	.LBB17_35
.LBB17_34:
	addq	$48, %rsp
	popq	%rbp
	.cfi_def_cfa %rsp, 8
	retq
.LBB17_35:                              # %func_exit
	.cfi_def_cfa %rbp, 16
	callq	detect_breach
	jmp	.LBB17_34
.Lfunc_end17:
	.size	decompress.2, .Lfunc_end17-decompress.2
	.cfi_endproc
                                        # -- End function
	.globl	getcode.3               # -- Begin function getcode.3
	.p2align	4, 0x90
	.type	getcode.3,@function
getcode.3:                              # @getcode.3
	.cfi_startproc
# %bb.0:                                # %entry
	pushq	%rbp
	.cfi_def_cfa_offset 16
	.cfi_offset %rbp, -16
	movq	%rsp, %rbp
	.cfi_def_cfa_register %rbp
	pushq	%rbx
	subq	$40, %rsp
	.cfi_offset %rbx, -24
	movl	$881395956, -36(%rbp)   # imm = 0x348908F4
	movabsq	$getcode.buf, %rax
	movq	%rax, -24(%rbp)
	cmpl	$0, clear_flg
	jg	.LBB18_3
# %bb.1:                                # %lor.lhs.false
	movl	getcode.offset, %eax
	cmpl	getcode.size, %eax
	jge	.LBB18_3
# %bb.2:                                # %lor.lhs.false2
	movq	free_ent, %rax
	cmpq	maxcode, %rax
	jle	.LBB18_13
.LBB18_3:                               # %if.then
	movq	free_ent, %rax
	cmpq	maxcode, %rax
	jle	.LBB18_8
# %bb.4:                                # %if.then5
	movl	n_bits, %eax
	addl	$1, %eax
	movl	%eax, n_bits
	movl	n_bits, %eax
	cmpl	maxbits, %eax
	jne	.LBB18_6
# %bb.5:                                # %if.then7
	movq	maxmaxcode, %rax
	movq	%rax, maxcode
	jmp	.LBB18_7
.LBB18_6:                               # %if.else
	movl	n_bits, %ecx
                                        # kill: def $cl killed $ecx
	movl	$1, %eax
	shll	%cl, %eax
	subl	$1, %eax
	cltq
	movq	%rax, maxcode
.LBB18_7:                               # %if.end
	jmp	.LBB18_8
.LBB18_8:                               # %if.end8
	cmpl	$0, clear_flg
	jle	.LBB18_10
# %bb.9:                                # %if.then11
	movl	$9, n_bits
	movq	$511, maxcode           # imm = 0x1FF
	movl	$0, clear_flg
.LBB18_10:                              # %if.end12
	movslq	n_bits, %rdx
	movq	stdin, %rcx
	movabsq	$getcode.buf, %rdi
	movl	$1, %esi
	callq	fread
	movl	%eax, getcode.size
	cmpl	$0, getcode.size
	jg	.LBB18_12
# %bb.11:                               # %if.then17
	movq	$-1, -48(%rbp)
	jmp	.LBB18_16
.LBB18_12:                              # %if.end18
	movl	$0, getcode.offset
	movl	getcode.size, %eax
	shll	$3, %eax
	movl	n_bits, %ecx
	subl	$1, %ecx
	subl	%ecx, %eax
	movl	%eax, getcode.size
.LBB18_13:                              # %if.end22
	movl	getcode.offset, %eax
	movl	%eax, -12(%rbp)
	movl	n_bits, %eax
	movl	%eax, -16(%rbp)
	movl	-12(%rbp), %eax
	sarl	$3, %eax
	movq	-24(%rbp), %rcx
	cltq
	addq	%rax, %rcx
	movq	%rcx, -24(%rbp)
	movl	-12(%rbp), %eax
	andl	$7, %eax
	movl	%eax, -12(%rbp)
	movq	-24(%rbp), %rax
	movq	%rax, %rcx
	addq	$1, %rcx
	movq	%rcx, -24(%rbp)
	movzbl	(%rax), %eax
	movl	-12(%rbp), %ecx
                                        # kill: def $cl killed $ecx
	sarl	%cl, %eax
	cltq
	movq	%rax, -32(%rbp)
	movl	$8, %eax
	movl	$8, %ecx
	subl	-12(%rbp), %ecx
	movl	-16(%rbp), %edx
	subl	%ecx, %edx
	movl	%edx, -16(%rbp)
	subl	-12(%rbp), %eax
	movl	%eax, -12(%rbp)
	cmpl	$8, -16(%rbp)
	jl	.LBB18_15
# %bb.14:                               # %if.then31
	movq	-24(%rbp), %rax
	movq	%rax, %rcx
	addq	$1, %rcx
	movq	%rcx, -24(%rbp)
	movzbl	(%rax), %eax
	movl	-12(%rbp), %ecx
                                        # kill: def $cl killed $ecx
	shll	%cl, %eax
	cltq
	orq	-32(%rbp), %rax
	movq	%rax, -32(%rbp)
	movl	-12(%rbp), %eax
	addl	$8, %eax
	movl	%eax, -12(%rbp)
	movl	-16(%rbp), %eax
	subl	$8, %eax
	movl	%eax, -16(%rbp)
.LBB18_15:                              # %if.end37
	movq	-24(%rbp), %rax
	movzbl	(%rax), %eax
	movslq	-16(%rbp), %rcx
	movzbl	rmask(,%rcx), %ecx
	andl	%ecx, %eax
	movl	-12(%rbp), %ecx
                                        # kill: def $cl killed $ecx
	shll	%cl, %eax
	cltq
	orq	-32(%rbp), %rax
	movq	%rax, -32(%rbp)
	movl	n_bits, %eax
	addl	getcode.offset, %eax
	movl	%eax, getcode.offset
	movq	-32(%rbp), %rax
	movq	%rax, -48(%rbp)
.LBB18_16:                              # %return
	movq	-48(%rbp), %rbx
	cmpl	$881395956, -36(%rbp)   # imm = 0x348908F4
	jne	.LBB18_18
.LBB18_17:
	movq	%rbx, %rax
	addq	$40, %rsp
	popq	%rbx
	popq	%rbp
	.cfi_def_cfa %rsp, 8
	retq
.LBB18_18:                              # %func_exit
	.cfi_def_cfa %rbp, 16
	callq	detect_breach
	jmp	.LBB18_17
.Lfunc_end18:
	.size	getcode.3, .Lfunc_end18-getcode.3
	.cfi_endproc
                                        # -- End function
	.globl	getcode.4               # -- Begin function getcode.4
	.p2align	4, 0x90
	.type	getcode.4,@function
getcode.4:                              # @getcode.4
	.cfi_startproc
# %bb.0:                                # %entry
	pushq	%rbp
	.cfi_def_cfa_offset 16
	.cfi_offset %rbp, -16
	movq	%rsp, %rbp
	.cfi_def_cfa_register %rbp
	pushq	%rbx
	subq	$40, %rsp
	.cfi_offset %rbx, -24
	movl	$1114444238, -36(%rbp)  # imm = 0x426D11CE
	movabsq	$getcode.buf, %rax
	movq	%rax, -24(%rbp)
	cmpl	$0, clear_flg
	jg	.LBB19_3
# %bb.1:                                # %lor.lhs.false
	movl	getcode.offset, %eax
	cmpl	getcode.size, %eax
	jge	.LBB19_3
# %bb.2:                                # %lor.lhs.false2
	movq	free_ent, %rax
	cmpq	maxcode, %rax
	jle	.LBB19_13
.LBB19_3:                               # %if.then
	movq	free_ent, %rax
	cmpq	maxcode, %rax
	jle	.LBB19_8
# %bb.4:                                # %if.then5
	movl	n_bits, %eax
	addl	$1, %eax
	movl	%eax, n_bits
	movl	n_bits, %eax
	cmpl	maxbits, %eax
	jne	.LBB19_6
# %bb.5:                                # %if.then7
	movq	maxmaxcode, %rax
	movq	%rax, maxcode
	jmp	.LBB19_7
.LBB19_6:                               # %if.else
	movl	n_bits, %ecx
                                        # kill: def $cl killed $ecx
	movl	$1, %eax
	shll	%cl, %eax
	subl	$1, %eax
	cltq
	movq	%rax, maxcode
.LBB19_7:                               # %if.end
	jmp	.LBB19_8
.LBB19_8:                               # %if.end8
	cmpl	$0, clear_flg
	jle	.LBB19_10
# %bb.9:                                # %if.then11
	movl	$9, n_bits
	movq	$511, maxcode           # imm = 0x1FF
	movl	$0, clear_flg
.LBB19_10:                              # %if.end12
	movslq	n_bits, %rdx
	movq	stdin, %rcx
	movabsq	$getcode.buf, %rdi
	movl	$1, %esi
	callq	fread
	movl	%eax, getcode.size
	cmpl	$0, getcode.size
	jg	.LBB19_12
# %bb.11:                               # %if.then17
	movq	$-1, -48(%rbp)
	jmp	.LBB19_16
.LBB19_12:                              # %if.end18
	movl	$0, getcode.offset
	movl	getcode.size, %eax
	shll	$3, %eax
	movl	n_bits, %ecx
	subl	$1, %ecx
	subl	%ecx, %eax
	movl	%eax, getcode.size
.LBB19_13:                              # %if.end22
	movl	getcode.offset, %eax
	movl	%eax, -12(%rbp)
	movl	n_bits, %eax
	movl	%eax, -16(%rbp)
	movl	-12(%rbp), %eax
	sarl	$3, %eax
	movq	-24(%rbp), %rcx
	cltq
	addq	%rax, %rcx
	movq	%rcx, -24(%rbp)
	movl	-12(%rbp), %eax
	andl	$7, %eax
	movl	%eax, -12(%rbp)
	movq	-24(%rbp), %rax
	movq	%rax, %rcx
	addq	$1, %rcx
	movq	%rcx, -24(%rbp)
	movzbl	(%rax), %eax
	movl	-12(%rbp), %ecx
                                        # kill: def $cl killed $ecx
	sarl	%cl, %eax
	cltq
	movq	%rax, -32(%rbp)
	movl	$8, %eax
	movl	$8, %ecx
	subl	-12(%rbp), %ecx
	movl	-16(%rbp), %edx
	subl	%ecx, %edx
	movl	%edx, -16(%rbp)
	subl	-12(%rbp), %eax
	movl	%eax, -12(%rbp)
	cmpl	$8, -16(%rbp)
	jl	.LBB19_15
# %bb.14:                               # %if.then31
	movq	-24(%rbp), %rax
	movq	%rax, %rcx
	addq	$1, %rcx
	movq	%rcx, -24(%rbp)
	movzbl	(%rax), %eax
	movl	-12(%rbp), %ecx
                                        # kill: def $cl killed $ecx
	shll	%cl, %eax
	cltq
	orq	-32(%rbp), %rax
	movq	%rax, -32(%rbp)
	movl	-12(%rbp), %eax
	addl	$8, %eax
	movl	%eax, -12(%rbp)
	movl	-16(%rbp), %eax
	subl	$8, %eax
	movl	%eax, -16(%rbp)
.LBB19_15:                              # %if.end37
	movq	-24(%rbp), %rax
	movzbl	(%rax), %eax
	movslq	-16(%rbp), %rcx
	movzbl	rmask(,%rcx), %ecx
	andl	%ecx, %eax
	movl	-12(%rbp), %ecx
                                        # kill: def $cl killed $ecx
	shll	%cl, %eax
	cltq
	orq	-32(%rbp), %rax
	movq	%rax, -32(%rbp)
	movl	n_bits, %eax
	addl	getcode.offset, %eax
	movl	%eax, getcode.offset
	movq	-32(%rbp), %rax
	movq	%rax, -48(%rbp)
.LBB19_16:                              # %return
	movq	-48(%rbp), %rbx
	cmpl	$1114444238, -36(%rbp)  # imm = 0x426D11CE
	jne	.LBB19_18
.LBB19_17:
	movq	%rbx, %rax
	addq	$40, %rsp
	popq	%rbx
	popq	%rbp
	.cfi_def_cfa %rsp, 8
	retq
.LBB19_18:                              # %func_exit
	.cfi_def_cfa %rbp, 16
	callq	detect_breach
	jmp	.LBB19_17
.Lfunc_end19:
	.size	getcode.4, .Lfunc_end19-getcode.4
	.cfi_endproc
                                        # -- End function
	.globl	prratio.5               # -- Begin function prratio.5
	.p2align	4, 0x90
	.type	prratio.5,@function
prratio.5:                              # @prratio.5
	.cfi_startproc
# %bb.0:                                # %entry
	pushq	%rbp
	.cfi_def_cfa_offset 16
	.cfi_offset %rbp, -16
	movq	%rsp, %rbp
	.cfi_def_cfa_register %rbp
	subq	$48, %rsp
	movl	$1067330148, -20(%rbp)  # imm = 0x3F9E2A64
	movq	%rdi, -40(%rbp)
	movq	%rsi, -16(%rbp)
	movq	%rdx, -32(%rbp)
	cmpq	$214748, -16(%rbp)      # imm = 0x346DC
	jle	.LBB20_2
# %bb.1:                                # %if.then
	movq	-16(%rbp), %rcx
	movq	-32(%rbp), %rax
	cqto
	movl	$10000, %esi            # imm = 0x2710
	idivq	%rsi
	movq	%rax, %rsi
	movq	%rcx, %rax
	cqto
	idivq	%rsi
	movl	%eax, -4(%rbp)
	jmp	.LBB20_3
.LBB20_2:                               # %if.else
	imulq	$10000, -16(%rbp), %rax # imm = 0x2710
	cqto
	idivq	-32(%rbp)
	movl	%eax, -4(%rbp)
.LBB20_3:                               # %if.end
	cmpl	$0, -4(%rbp)
	jge	.LBB20_5
# %bb.4:                                # %if.then6
	movq	-40(%rbp), %rsi
	movl	$45, %edi
	callq	_IO_putc
	xorl	%eax, %eax
	subl	-4(%rbp), %eax
	movl	%eax, -4(%rbp)
.LBB20_5:                               # %if.end7
	movq	-40(%rbp), %rdi
	movl	-4(%rbp), %eax
	cltd
	movl	$100, %ecx
	idivl	%ecx
	movl	%eax, %r8d
	movl	-4(%rbp), %eax
	cltd
	idivl	%ecx
	movl	%edx, %ecx
	movabsq	$.L.str.25, %rsi
	movl	%r8d, %edx
	movb	$0, %al
	callq	fprintf
	cmpl	$1067330148, -20(%rbp)  # imm = 0x3F9E2A64
	jne	.LBB20_7
.LBB20_6:
	addq	$48, %rsp
	popq	%rbp
	.cfi_def_cfa %rsp, 8
	retq
.LBB20_7:                               # %func_exit
	.cfi_def_cfa %rbp, 16
	callq	detect_breach
	jmp	.LBB20_6
.Lfunc_end20:
	.size	prratio.5, .Lfunc_end20-prratio.5
	.cfi_endproc
                                        # -- End function
	.globl	scott_hack.6            # -- Begin function scott_hack.6
	.p2align	4, 0x90
	.type	scott_hack.6,@function
scott_hack.6:                           # @scott_hack.6
	.cfi_startproc
# %bb.0:                                # %entry
	pushq	%rbp
	.cfi_def_cfa_offset 16
	.cfi_offset %rbp, -16
	movq	%rsp, %rbp
	.cfi_def_cfa_register %rbp
	pushq	%rbx
	subq	$40, %rsp
	.cfi_offset %rbx, -24
	movl	$1059497260, -24(%rbp)  # imm = 0x3F26A52C
	movq	%rdi, -16(%rbp)
	movq	%rsi, -48(%rbp)
	movl	%edx, -28(%rbp)
	movl	%ecx, -32(%rbp)
	movq	%r8, -40(%rbp)
.LBB21_1:                               # %probeSH
                                        # =>This Inner Loop Header: Depth=1
	movslq	-28(%rbp), %rax
	movq	-16(%rbp), %rcx
	movq	(%rcx), %rdx
	subq	%rax, %rdx
	movq	%rdx, (%rcx)
	cmpq	$0, %rdx
	jge	.LBB21_3
# %bb.2:                                # %if.then
                                        #   in Loop: Header=BB21_1 Depth=1
	movslq	-32(%rbp), %rax
	movq	-16(%rbp), %rcx
	addq	(%rcx), %rax
	movq	%rax, (%rcx)
.LBB21_3:                               # %if.end
                                        #   in Loop: Header=BB21_1 Depth=1
	movq	-16(%rbp), %rax
	movq	(%rax), %rax
	movq	htab(,%rax,8), %rax
	cmpq	-48(%rbp), %rax
	jne	.LBB21_5
# %bb.4:                                # %if.then5
	movq	-16(%rbp), %rax
	movq	(%rax), %rax
	movzwl	codetab(,%rax,2), %eax
	movq	-40(%rbp), %rcx
	movq	%rax, (%rcx)
	movl	$1, -20(%rbp)
	jmp	.LBB21_8
.LBB21_5:                               # %if.end8
                                        #   in Loop: Header=BB21_1 Depth=1
	movq	-16(%rbp), %rax
	movq	(%rax), %rax
	cmpq	$0, htab(,%rax,8)
	jle	.LBB21_7
# %bb.6:                                # %if.then12
                                        #   in Loop: Header=BB21_1 Depth=1
	jmp	.LBB21_1
.LBB21_7:                               # %if.end13
	movl	$0, -20(%rbp)
.LBB21_8:                               # %return
	movl	-20(%rbp), %ebx
	cmpl	$1059497260, -24(%rbp)  # imm = 0x3F26A52C
	jne	.LBB21_10
.LBB21_9:
	movl	%ebx, %eax
	addq	$40, %rsp
	popq	%rbx
	popq	%rbp
	.cfi_def_cfa %rsp, 8
	retq
.LBB21_10:                              # %func_exit
	.cfi_def_cfa %rbp, 16
	callq	detect_breach
	jmp	.LBB21_9
.Lfunc_end21:
	.size	scott_hack.6, .Lfunc_end21-scott_hack.6
	.cfi_endproc
                                        # -- End function
	.globl	decompress.7            # -- Begin function decompress.7
	.p2align	4, 0x90
	.type	decompress.7,@function
decompress.7:                           # @decompress.7
	.cfi_startproc
# %bb.0:                                # %entry
	pushq	%rbp
	.cfi_def_cfa_offset 16
	.cfi_offset %rbp, -16
	movq	%rsp, %rbp
	.cfi_def_cfa_register %rbp
	subq	$48, %rsp
	movl	$1388340711, -36(%rbp)  # imm = 0x52C065E7
	movl	$9, n_bits
	movq	$511, maxcode           # imm = 0x1FF
	movq	$255, -8(%rbp)
.LBB22_1:                               # %for.cond
                                        # =>This Inner Loop Header: Depth=1
	cmpq	$0, -8(%rbp)
	jl	.LBB22_4
# %bb.2:                                # %for.body
                                        #   in Loop: Header=BB22_1 Depth=1
	movq	-8(%rbp), %rax
	movw	$0, codetab(,%rax,2)
	movq	-8(%rbp), %rax
	movq	-8(%rbp), %rcx
	movb	%al, htab(,%rcx)
# %bb.3:                                # %for.inc
                                        #   in Loop: Header=BB22_1 Depth=1
	movq	-8(%rbp), %rax
	addq	$-1, %rax
	movq	%rax, -8(%rbp)
	jmp	.LBB22_1
.LBB22_4:                               # %for.end
	movl	block_compress, %eax
	cmpl	$0, %eax
	movl	$257, %eax              # imm = 0x101
	movl	$256, %ecx              # imm = 0x100
	cmovnel	%eax, %ecx
	movslq	%ecx, %rax
	movq	%rax, free_ent
	callq	getcode
	movq	%rax, -32(%rbp)
	movl	%eax, -20(%rbp)
	cmpq	$-1, -32(%rbp)
	jne	.LBB22_6
# %bb.5:                                # %if.then
	jmp	.LBB22_33
.LBB22_6:                               # %if.end
	movl	-20(%rbp), %eax
	movsbl	%al, %edi
	callq	putchar
	movq	stdout, %rdi
	callq	ferror
	cmpl	$0, %eax
	je	.LBB22_8
# %bb.7:                                # %if.then11
	callq	writeerr
.LBB22_8:                               # %if.end12
	movabsq	$htab, %rax
	addq	$65536, %rax            # imm = 0x10000
	movq	%rax, -16(%rbp)
.LBB22_9:                               # %while.cond
                                        # =>This Loop Header: Depth=1
                                        #     Child Loop BB22_13 Depth 2
                                        #     Child Loop BB22_22 Depth 2
                                        #     Child Loop BB22_25 Depth 2
	callq	getcode
	movq	%rax, -8(%rbp)
	cmpq	$-1, %rax
	jle	.LBB22_30
# %bb.10:                               # %while.body
                                        #   in Loop: Header=BB22_9 Depth=1
	cmpq	$256, -8(%rbp)          # imm = 0x100
	jne	.LBB22_19
# %bb.11:                               # %land.lhs.true
                                        #   in Loop: Header=BB22_9 Depth=1
	cmpl	$0, block_compress
	je	.LBB22_19
# %bb.12:                               # %if.then19
                                        #   in Loop: Header=BB22_9 Depth=1
	movq	$255, -8(%rbp)
.LBB22_13:                              # %for.cond20
                                        #   Parent Loop BB22_9 Depth=1
                                        # =>  This Inner Loop Header: Depth=2
	cmpq	$0, -8(%rbp)
	jl	.LBB22_16
# %bb.14:                               # %for.body23
                                        #   in Loop: Header=BB22_13 Depth=2
	movq	-8(%rbp), %rax
	movw	$0, codetab(,%rax,2)
# %bb.15:                               # %for.inc25
                                        #   in Loop: Header=BB22_13 Depth=2
	movq	-8(%rbp), %rax
	addq	$-1, %rax
	movq	%rax, -8(%rbp)
	jmp	.LBB22_13
.LBB22_16:                              # %for.end27
                                        #   in Loop: Header=BB22_9 Depth=1
	movl	$1, clear_flg
	movq	$256, free_ent          # imm = 0x100
	callq	getcode
	movq	%rax, -8(%rbp)
	cmpq	$-1, %rax
	jne	.LBB22_18
# %bb.17:                               # %if.then31
	jmp	.LBB22_31
.LBB22_18:                              # %if.end32
                                        #   in Loop: Header=BB22_9 Depth=1
	jmp	.LBB22_19
.LBB22_19:                              # %if.end33
                                        #   in Loop: Header=BB22_9 Depth=1
	movq	-8(%rbp), %rax
	movq	%rax, -48(%rbp)
	movq	-8(%rbp), %rax
	cmpq	free_ent, %rax
	jl	.LBB22_21
# %bb.20:                               # %if.then36
                                        #   in Loop: Header=BB22_9 Depth=1
	movl	-20(%rbp), %eax
	movq	-16(%rbp), %rcx
	movq	%rcx, %rdx
	addq	$1, %rdx
	movq	%rdx, -16(%rbp)
	movb	%al, (%rcx)
	movq	-32(%rbp), %rax
	movq	%rax, -8(%rbp)
.LBB22_21:                              # %if.end38
                                        #   in Loop: Header=BB22_9 Depth=1
	jmp	.LBB22_22
.LBB22_22:                              # %while.cond39
                                        #   Parent Loop BB22_9 Depth=1
                                        # =>  This Inner Loop Header: Depth=2
	cmpq	$256, -8(%rbp)          # imm = 0x100
	jl	.LBB22_24
# %bb.23:                               # %while.body42
                                        #   in Loop: Header=BB22_22 Depth=2
	movq	-8(%rbp), %rax
	movb	htab(,%rax), %al
	movq	-16(%rbp), %rcx
	movq	%rcx, %rdx
	addq	$1, %rdx
	movq	%rdx, -16(%rbp)
	movb	%al, (%rcx)
	movq	-8(%rbp), %rax
	movzwl	codetab(,%rax,2), %eax
	movq	%rax, -8(%rbp)
	jmp	.LBB22_22
.LBB22_24:                              # %while.end
                                        #   in Loop: Header=BB22_9 Depth=1
	movq	-8(%rbp), %rax
	movzbl	htab(,%rax), %eax
	movl	%eax, -20(%rbp)
	movq	-16(%rbp), %rcx
	movq	%rcx, %rdx
	addq	$1, %rdx
	movq	%rdx, -16(%rbp)
	movb	%al, (%rcx)
.LBB22_25:                              # %do.body
                                        #   Parent Loop BB22_9 Depth=1
                                        # =>  This Inner Loop Header: Depth=2
	movq	-16(%rbp), %rax
	movq	%rax, %rcx
	addq	$-1, %rcx
	movq	%rcx, -16(%rbp)
	movzbl	-1(%rax), %edi
	callq	putchar
# %bb.26:                               # %do.cond
                                        #   in Loop: Header=BB22_25 Depth=2
	movabsq	$htab, %rax
	addq	$65536, %rax            # imm = 0x10000
	cmpq	%rax, -16(%rbp)
	ja	.LBB22_25
# %bb.27:                               # %do.end
                                        #   in Loop: Header=BB22_9 Depth=1
	movq	free_ent, %rax
	movq	%rax, -8(%rbp)
	cmpq	maxmaxcode, %rax
	jge	.LBB22_29
# %bb.28:                               # %if.then58
                                        #   in Loop: Header=BB22_9 Depth=1
	movq	-32(%rbp), %rax
	movq	-8(%rbp), %rcx
	movw	%ax, codetab(,%rcx,2)
	movl	-20(%rbp), %eax
	movq	-8(%rbp), %rcx
	movb	%al, htab(,%rcx)
	movq	-8(%rbp), %rax
	addq	$1, %rax
	movq	%rax, free_ent
.LBB22_29:                              # %if.end63
                                        #   in Loop: Header=BB22_9 Depth=1
	movq	-48(%rbp), %rax
	movq	%rax, -32(%rbp)
	jmp	.LBB22_9
.LBB22_30:                              # %while.end64.loopexit
	jmp	.LBB22_31
.LBB22_31:                              # %while.end64
	movq	stdout, %rdi
	callq	fflush
	movq	stdout, %rdi
	callq	ferror
	cmpl	$0, %eax
	je	.LBB22_33
# %bb.32:                               # %if.then68
	callq	writeerr
.LBB22_33:                              # %if.end69
	cmpl	$1388340711, -36(%rbp)  # imm = 0x52C065E7
	jne	.LBB22_35
.LBB22_34:
	addq	$48, %rsp
	popq	%rbp
	.cfi_def_cfa %rsp, 8
	retq
.LBB22_35:                              # %func_exit
	.cfi_def_cfa %rbp, 16
	callq	detect_breach
	jmp	.LBB22_34
.Lfunc_end22:
	.size	decompress.7, .Lfunc_end22-decompress.7
	.cfi_endproc
                                        # -- End function
	.globl	copystat.8              # -- Begin function copystat.8
	.p2align	4, 0x90
	.type	copystat.8,@function
copystat.8:                             # @copystat.8
	.cfi_startproc
# %bb.0:                                # %entry
	pushq	%rbp
	.cfi_def_cfa_offset 16
	.cfi_offset %rbp, -16
	movq	%rsp, %rbp
	.cfi_def_cfa_register %rbp
	subq	$192, %rsp
	movl	$465629411, -20(%rbp)   # imm = 0x1BC0F0E3
	movq	%rdi, -16(%rbp)
	movq	%rsi, -8(%rbp)
	movq	stdout, %rdi
	callq	fclose
	movq	-16(%rbp), %rdi
	leaq	-184(%rbp), %rsi
	callq	stat
	cmpl	$0, %eax
	je	.LBB23_2
# %bb.1:                                # %if.then
	movq	-16(%rbp), %rdi
	callq	perror
	jmp	.LBB23_26
.LBB23_2:                               # %if.end
	movl	-160(%rbp), %eax
	andl	$61440, %eax            # imm = 0xF000
	cmpl	$32768, %eax            # imm = 0x8000
	je	.LBB23_6
# %bb.3:                                # %if.then2
	cmpl	$0, quiet
	je	.LBB23_5
# %bb.4:                                # %if.then4
	movq	stderr, %rdi
	movq	-16(%rbp), %rdx
	movabsq	$.L.str.16, %rsi
	movb	$0, %al
	callq	fprintf
.LBB23_5:                               # %if.end6
	movq	stderr, %rdi
	movabsq	$.L.str.20, %rsi
	movb	$0, %al
	callq	fprintf
	movl	$1, exit_stat
	jmp	.LBB23_24
.LBB23_6:                               # %if.else
	cmpq	$1, -168(%rbp)
	jbe	.LBB23_10
# %bb.7:                                # %if.then9
	cmpl	$0, quiet
	je	.LBB23_9
# %bb.8:                                # %if.then11
	movq	stderr, %rdi
	movq	-16(%rbp), %rdx
	movabsq	$.L.str.16, %rsi
	movb	$0, %al
	callq	fprintf
.LBB23_9:                               # %if.end13
	movq	stderr, %rdi
	movq	-168(%rbp), %rdx
	subq	$1, %rdx
	movabsq	$.L.str.21, %rsi
	movb	$0, %al
	callq	fprintf
	movl	$1, exit_stat
	jmp	.LBB23_23
.LBB23_10:                              # %if.else16
	cmpl	$2, exit_stat
	jne	.LBB23_15
# %bb.11:                               # %land.lhs.true
	cmpl	$0, force
	jne	.LBB23_15
# %bb.12:                               # %if.then19
	cmpl	$0, quiet
	jne	.LBB23_14
# %bb.13:                               # %if.then21
	movq	stderr, %rdi
	movabsq	$.L.str.22, %rsi
	movb	$0, %al
	callq	fprintf
.LBB23_14:                              # %if.end23
	jmp	.LBB23_22
.LBB23_15:                              # %if.else24
	movl	$0, exit_stat
	movl	-160(%rbp), %eax
	andl	$4095, %eax             # imm = 0xFFF
	movl	%eax, -24(%rbp)
	movq	-8(%rbp), %rdi
	movl	-24(%rbp), %esi
	callq	chmod
	cmpl	$0, %eax
	je	.LBB23_17
# %bb.16:                               # %if.then29
	movq	-8(%rbp), %rdi
	callq	perror
.LBB23_17:                              # %if.end30
	movq	-8(%rbp), %rdi
	movl	-156(%rbp), %esi
	movl	-152(%rbp), %edx
	callq	chown
	movq	-112(%rbp), %rax
	movq	%rax, -40(%rbp)
	movq	-96(%rbp), %rax
	movq	%rax, -32(%rbp)
	movq	-8(%rbp), %rdi
	leaq	-40(%rbp), %rsi
	callq	utime
	movq	-16(%rbp), %rdi
	callq	unlink
	cmpl	$0, %eax
	je	.LBB23_19
# %bb.18:                               # %if.then36
	movq	-16(%rbp), %rdi
	callq	perror
.LBB23_19:                              # %if.end37
	cmpl	$0, quiet
	jne	.LBB23_21
# %bb.20:                               # %if.then39
	movq	stderr, %rdi
	movq	-8(%rbp), %rdx
	movabsq	$.L.str.23, %rsi
	movb	$0, %al
	callq	fprintf
.LBB23_21:                              # %if.end41
	jmp	.LBB23_26
.LBB23_22:                              # %if.end42
	jmp	.LBB23_23
.LBB23_23:                              # %if.end43
	jmp	.LBB23_24
.LBB23_24:                              # %if.end44
	movq	-8(%rbp), %rdi
	callq	unlink
	cmpl	$0, %eax
	je	.LBB23_26
# %bb.25:                               # %if.then47
	movq	-8(%rbp), %rdi
	callq	perror
.LBB23_26:                              # %if.end48
	cmpl	$465629411, -20(%rbp)   # imm = 0x1BC0F0E3
	jne	.LBB23_28
.LBB23_27:
	addq	$192, %rsp
	popq	%rbp
	.cfi_def_cfa %rsp, 8
	retq
.LBB23_28:                              # %func_exit
	.cfi_def_cfa %rbp, 16
	callq	detect_breach
	jmp	.LBB23_27
.Lfunc_end23:
	.size	copystat.8, .Lfunc_end23-copystat.8
	.cfi_endproc
                                        # -- End function
	.globl	scott_hack.9            # -- Begin function scott_hack.9
	.p2align	4, 0x90
	.type	scott_hack.9,@function
scott_hack.9:                           # @scott_hack.9
	.cfi_startproc
# %bb.0:                                # %entry
	pushq	%rbp
	.cfi_def_cfa_offset 16
	.cfi_offset %rbp, -16
	movq	%rsp, %rbp
	.cfi_def_cfa_register %rbp
	pushq	%rbx
	subq	$40, %rsp
	.cfi_offset %rbx, -24
	movl	$519706752, -32(%rbp)   # imm = 0x1EFA1880
	movq	%rdi, -16(%rbp)
	movq	%rsi, -48(%rbp)
	movl	%edx, -24(%rbp)
	movl	%ecx, -28(%rbp)
	movq	%r8, -40(%rbp)
.LBB24_1:                               # %probeSH
                                        # =>This Inner Loop Header: Depth=1
	movslq	-24(%rbp), %rax
	movq	-16(%rbp), %rcx
	movq	(%rcx), %rdx
	subq	%rax, %rdx
	movq	%rdx, (%rcx)
	cmpq	$0, %rdx
	jge	.LBB24_3
# %bb.2:                                # %if.then
                                        #   in Loop: Header=BB24_1 Depth=1
	movslq	-28(%rbp), %rax
	movq	-16(%rbp), %rcx
	addq	(%rcx), %rax
	movq	%rax, (%rcx)
.LBB24_3:                               # %if.end
                                        #   in Loop: Header=BB24_1 Depth=1
	movq	-16(%rbp), %rax
	movq	(%rax), %rax
	movq	htab(,%rax,8), %rax
	cmpq	-48(%rbp), %rax
	jne	.LBB24_5
# %bb.4:                                # %if.then5
	movq	-16(%rbp), %rax
	movq	(%rax), %rax
	movzwl	codetab(,%rax,2), %eax
	movq	-40(%rbp), %rcx
	movq	%rax, (%rcx)
	movl	$1, -20(%rbp)
	jmp	.LBB24_8
.LBB24_5:                               # %if.end8
                                        #   in Loop: Header=BB24_1 Depth=1
	movq	-16(%rbp), %rax
	movq	(%rax), %rax
	cmpq	$0, htab(,%rax,8)
	jle	.LBB24_7
# %bb.6:                                # %if.then12
                                        #   in Loop: Header=BB24_1 Depth=1
	jmp	.LBB24_1
.LBB24_7:                               # %if.end13
	movl	$0, -20(%rbp)
.LBB24_8:                               # %return
	movl	-20(%rbp), %ebx
	cmpl	$519706752, -32(%rbp)   # imm = 0x1EFA1880
	jne	.LBB24_10
.LBB24_9:
	movl	%ebx, %eax
	addq	$40, %rsp
	popq	%rbx
	popq	%rbp
	.cfi_def_cfa %rsp, 8
	retq
.LBB24_10:                              # %func_exit
	.cfi_def_cfa %rbp, 16
	callq	detect_breach
	jmp	.LBB24_9
.Lfunc_end24:
	.size	scott_hack.9, .Lfunc_end24-scott_hack.9
	.cfi_endproc
                                        # -- End function
	.globl	output.10               # -- Begin function output.10
	.p2align	4, 0x90
	.type	output.10,@function
output.10:                              # @output.10
	.cfi_startproc
# %bb.0:                                # %entry
	pushq	%rbp
	.cfi_def_cfa_offset 16
	.cfi_offset %rbp, -16
	movq	%rsp, %rbp
	.cfi_def_cfa_register %rbp
	subq	$32, %rsp
	movl	$1331800600, -28(%rbp)  # imm = 0x4F61AA18
	movq	%rdi, -24(%rbp)
	movl	offset, %eax
	movl	%eax, -8(%rbp)
	movl	n_bits, %eax
	movl	%eax, -4(%rbp)
	movabsq	$buf, %rax
	movq	%rax, -16(%rbp)
	cmpq	$0, -24(%rbp)
	jl	.LBB25_24
# %bb.1:                                # %if.then
	movl	-8(%rbp), %eax
	sarl	$3, %eax
	movq	-16(%rbp), %rcx
	cltq
	addq	%rax, %rcx
	movq	%rcx, -16(%rbp)
	movl	-8(%rbp), %eax
	andl	$7, %eax
	movl	%eax, -8(%rbp)
	movq	-16(%rbp), %rax
	movsbl	(%rax), %eax
	movslq	-8(%rbp), %rcx
	movzbl	rmask(,%rcx), %ecx
	andl	%ecx, %eax
	cltq
	movq	-24(%rbp), %rdx
	movl	-8(%rbp), %ecx
                                        # kill: def $cl killed $rcx
	shlq	%cl, %rdx
	movslq	-8(%rbp), %rcx
	movzbl	lmask(,%rcx), %ecx
	andq	%rcx, %rdx
	orq	%rdx, %rax
	movq	-16(%rbp), %rcx
	movb	%al, (%rcx)
	movq	-16(%rbp), %rax
	addq	$1, %rax
	movq	%rax, -16(%rbp)
	movl	$8, %eax
	movl	$8, %ecx
	subl	-8(%rbp), %ecx
	movl	-4(%rbp), %edx
	subl	%ecx, %edx
	movl	%edx, -4(%rbp)
	subl	-8(%rbp), %eax
	movq	-24(%rbp), %rdx
	movl	%eax, %ecx
                                        # kill: def $cl killed $rcx
	sarq	%cl, %rdx
	movq	%rdx, -24(%rbp)
	cmpl	$8, -4(%rbp)
	jl	.LBB25_3
# %bb.2:                                # %if.then15
	movq	-24(%rbp), %rax
	movq	-16(%rbp), %rcx
	movq	%rcx, %rdx
	addq	$1, %rdx
	movq	%rdx, -16(%rbp)
	movb	%al, (%rcx)
	movq	-24(%rbp), %rax
	sarq	$8, %rax
	movq	%rax, -24(%rbp)
	movl	-4(%rbp), %eax
	subl	$8, %eax
	movl	%eax, -4(%rbp)
.LBB25_3:                               # %if.end
	cmpl	$0, -4(%rbp)
	je	.LBB25_5
# %bb.4:                                # %if.then20
	movq	-24(%rbp), %rax
	movq	-16(%rbp), %rcx
	movb	%al, (%rcx)
.LBB25_5:                               # %if.end22
	movl	n_bits, %eax
	addl	offset, %eax
	movl	%eax, offset
	movl	offset, %eax
	movl	n_bits, %ecx
	shll	$3, %ecx
	cmpl	%ecx, %eax
	jne	.LBB25_10
# %bb.6:                                # %if.then26
	movabsq	$buf, %rax
	movq	%rax, -16(%rbp)
	movl	n_bits, %eax
	movl	%eax, -4(%rbp)
	movslq	-4(%rbp), %rax
	addq	bytes_out, %rax
	movq	%rax, bytes_out
.LBB25_7:                               # %do.body
                                        # =>This Inner Loop Header: Depth=1
	movq	-16(%rbp), %rax
	movq	%rax, %rcx
	addq	$1, %rcx
	movq	%rcx, -16(%rbp)
	movsbl	(%rax), %edi
	callq	putchar
# %bb.8:                                # %do.cond
                                        #   in Loop: Header=BB25_7 Depth=1
	movl	-4(%rbp), %eax
	addl	$-1, %eax
	movl	%eax, -4(%rbp)
	cmpl	$0, %eax
	jne	.LBB25_7
# %bb.9:                                # %do.end
	movl	$0, offset
.LBB25_10:                              # %if.end32
	movq	free_ent, %rax
	cmpq	maxcode, %rax
	jg	.LBB25_12
# %bb.11:                               # %lor.lhs.false
	cmpl	$0, clear_flg
	jle	.LBB25_23
.LBB25_12:                              # %if.then37
	cmpl	$0, offset
	jle	.LBB25_16
# %bb.13:                               # %if.then40
	movslq	n_bits, %rdx
	movq	stdout, %rcx
	movabsq	$buf, %rdi
	movl	$1, %esi
	callq	fwrite
	movslq	n_bits, %rcx
	cmpq	%rcx, %rax
	je	.LBB25_15
# %bb.14:                               # %if.then46
	callq	writeerr
.LBB25_15:                              # %if.end47
	movslq	n_bits, %rax
	addq	bytes_out, %rax
	movq	%rax, bytes_out
.LBB25_16:                              # %if.end50
	movl	$0, offset
	cmpl	$0, clear_flg
	je	.LBB25_18
# %bb.17:                               # %if.then52
	movl	$9, n_bits
	movq	$511, maxcode           # imm = 0x1FF
	movl	$0, clear_flg
	jmp	.LBB25_22
.LBB25_18:                              # %if.else
	movl	n_bits, %eax
	addl	$1, %eax
	movl	%eax, n_bits
	movl	n_bits, %eax
	cmpl	maxbits, %eax
	jne	.LBB25_20
# %bb.19:                               # %if.then55
	movq	maxmaxcode, %rax
	movq	%rax, maxcode
	jmp	.LBB25_21
.LBB25_20:                              # %if.else56
	movl	n_bits, %ecx
                                        # kill: def $cl killed $ecx
	movl	$1, %eax
	shll	%cl, %eax
	subl	$1, %eax
	cltq
	movq	%rax, maxcode
.LBB25_21:                              # %if.end60
	jmp	.LBB25_22
.LBB25_22:                              # %if.end61
	jmp	.LBB25_23
.LBB25_23:                              # %if.end62
	jmp	.LBB25_29
.LBB25_24:                              # %if.else63
	cmpl	$0, offset
	jle	.LBB25_26
# %bb.25:                               # %if.then66
	movl	offset, %eax
	addl	$7, %eax
	cltd
	movl	$8, %ecx
	idivl	%ecx
	movslq	%eax, %rdx
	movq	stdout, %rcx
	movabsq	$buf, %rdi
	movl	$1, %esi
	callq	fwrite
.LBB25_26:                              # %if.end70
	movl	offset, %eax
	addl	$7, %eax
	cltd
	movl	$8, %ecx
	idivl	%ecx
	cltq
	addq	bytes_out, %rax
	movq	%rax, bytes_out
	movl	$0, offset
	movq	stdout, %rdi
	callq	fflush
	movq	stdout, %rdi
	callq	ferror
	cmpl	$0, %eax
	je	.LBB25_28
# %bb.27:                               # %if.then78
	callq	writeerr
.LBB25_28:                              # %if.end79
	jmp	.LBB25_29
.LBB25_29:                              # %if.end80
	cmpl	$1331800600, -28(%rbp)  # imm = 0x4F61AA18
	jne	.LBB25_31
.LBB25_30:
	addq	$32, %rsp
	popq	%rbp
	.cfi_def_cfa %rsp, 8
	retq
.LBB25_31:                              # %func_exit
	.cfi_def_cfa %rbp, 16
	callq	detect_breach
	jmp	.LBB25_30
.Lfunc_end25:
	.size	output.10, .Lfunc_end25-output.10
	.cfi_endproc
                                        # -- End function
	.globl	copystat.11             # -- Begin function copystat.11
	.p2align	4, 0x90
	.type	copystat.11,@function
copystat.11:                            # @copystat.11
	.cfi_startproc
# %bb.0:                                # %entry
	pushq	%rbp
	.cfi_def_cfa_offset 16
	.cfi_offset %rbp, -16
	movq	%rsp, %rbp
	.cfi_def_cfa_register %rbp
	subq	$192, %rsp
	movl	$265241187, -24(%rbp)   # imm = 0xFCF4263
	movq	%rdi, -16(%rbp)
	movq	%rsi, -8(%rbp)
	movq	stdout, %rdi
	callq	fclose
	movq	-16(%rbp), %rdi
	leaq	-184(%rbp), %rsi
	callq	stat
	cmpl	$0, %eax
	je	.LBB26_2
# %bb.1:                                # %if.then
	movq	-16(%rbp), %rdi
	callq	perror
	jmp	.LBB26_26
.LBB26_2:                               # %if.end
	movl	-160(%rbp), %eax
	andl	$61440, %eax            # imm = 0xF000
	cmpl	$32768, %eax            # imm = 0x8000
	je	.LBB26_6
# %bb.3:                                # %if.then2
	cmpl	$0, quiet
	je	.LBB26_5
# %bb.4:                                # %if.then4
	movq	stderr, %rdi
	movq	-16(%rbp), %rdx
	movabsq	$.L.str.16, %rsi
	movb	$0, %al
	callq	fprintf
.LBB26_5:                               # %if.end6
	movq	stderr, %rdi
	movabsq	$.L.str.20, %rsi
	movb	$0, %al
	callq	fprintf
	movl	$1, exit_stat
	jmp	.LBB26_24
.LBB26_6:                               # %if.else
	cmpq	$1, -168(%rbp)
	jbe	.LBB26_10
# %bb.7:                                # %if.then9
	cmpl	$0, quiet
	je	.LBB26_9
# %bb.8:                                # %if.then11
	movq	stderr, %rdi
	movq	-16(%rbp), %rdx
	movabsq	$.L.str.16, %rsi
	movb	$0, %al
	callq	fprintf
.LBB26_9:                               # %if.end13
	movq	stderr, %rdi
	movq	-168(%rbp), %rdx
	subq	$1, %rdx
	movabsq	$.L.str.21, %rsi
	movb	$0, %al
	callq	fprintf
	movl	$1, exit_stat
	jmp	.LBB26_23
.LBB26_10:                              # %if.else16
	cmpl	$2, exit_stat
	jne	.LBB26_15
# %bb.11:                               # %land.lhs.true
	cmpl	$0, force
	jne	.LBB26_15
# %bb.12:                               # %if.then19
	cmpl	$0, quiet
	jne	.LBB26_14
# %bb.13:                               # %if.then21
	movq	stderr, %rdi
	movabsq	$.L.str.22, %rsi
	movb	$0, %al
	callq	fprintf
.LBB26_14:                              # %if.end23
	jmp	.LBB26_22
.LBB26_15:                              # %if.else24
	movl	$0, exit_stat
	movl	-160(%rbp), %eax
	andl	$4095, %eax             # imm = 0xFFF
	movl	%eax, -20(%rbp)
	movq	-8(%rbp), %rdi
	movl	-20(%rbp), %esi
	callq	chmod
	cmpl	$0, %eax
	je	.LBB26_17
# %bb.16:                               # %if.then29
	movq	-8(%rbp), %rdi
	callq	perror
.LBB26_17:                              # %if.end30
	movq	-8(%rbp), %rdi
	movl	-156(%rbp), %esi
	movl	-152(%rbp), %edx
	callq	chown
	movq	-112(%rbp), %rax
	movq	%rax, -40(%rbp)
	movq	-96(%rbp), %rax
	movq	%rax, -32(%rbp)
	movq	-8(%rbp), %rdi
	leaq	-40(%rbp), %rsi
	callq	utime
	movq	-16(%rbp), %rdi
	callq	unlink
	cmpl	$0, %eax
	je	.LBB26_19
# %bb.18:                               # %if.then36
	movq	-16(%rbp), %rdi
	callq	perror
.LBB26_19:                              # %if.end37
	cmpl	$0, quiet
	jne	.LBB26_21
# %bb.20:                               # %if.then39
	movq	stderr, %rdi
	movq	-8(%rbp), %rdx
	movabsq	$.L.str.23, %rsi
	movb	$0, %al
	callq	fprintf
.LBB26_21:                              # %if.end41
	jmp	.LBB26_26
.LBB26_22:                              # %if.end42
	jmp	.LBB26_23
.LBB26_23:                              # %if.end43
	jmp	.LBB26_24
.LBB26_24:                              # %if.end44
	movq	-8(%rbp), %rdi
	callq	unlink
	cmpl	$0, %eax
	je	.LBB26_26
# %bb.25:                               # %if.then47
	movq	-8(%rbp), %rdi
	callq	perror
.LBB26_26:                              # %if.end48
	cmpl	$265241187, -24(%rbp)   # imm = 0xFCF4263
	jne	.LBB26_28
.LBB26_27:
	addq	$192, %rsp
	popq	%rbp
	.cfi_def_cfa %rsp, 8
	retq
.LBB26_28:                              # %func_exit
	.cfi_def_cfa %rbp, 16
	callq	detect_breach
	jmp	.LBB26_27
.Lfunc_end26:
	.size	copystat.11, .Lfunc_end26-copystat.11
	.cfi_endproc
                                        # -- End function
	.globl	scott_hack.12           # -- Begin function scott_hack.12
	.p2align	4, 0x90
	.type	scott_hack.12,@function
scott_hack.12:                          # @scott_hack.12
	.cfi_startproc
# %bb.0:                                # %entry
	pushq	%rbp
	.cfi_def_cfa_offset 16
	.cfi_offset %rbp, -16
	movq	%rsp, %rbp
	.cfi_def_cfa_register %rbp
	pushq	%rbx
	subq	$40, %rsp
	.cfi_offset %rbx, -24
	movl	$1095028132, -32(%rbp)  # imm = 0x4144CDA4
	movq	%rdi, -16(%rbp)
	movq	%rsi, -48(%rbp)
	movl	%edx, -24(%rbp)
	movl	%ecx, -28(%rbp)
	movq	%r8, -40(%rbp)
.LBB27_1:                               # %probeSH
                                        # =>This Inner Loop Header: Depth=1
	movslq	-24(%rbp), %rax
	movq	-16(%rbp), %rcx
	movq	(%rcx), %rdx
	subq	%rax, %rdx
	movq	%rdx, (%rcx)
	cmpq	$0, %rdx
	jge	.LBB27_3
# %bb.2:                                # %if.then
                                        #   in Loop: Header=BB27_1 Depth=1
	movslq	-28(%rbp), %rax
	movq	-16(%rbp), %rcx
	addq	(%rcx), %rax
	movq	%rax, (%rcx)
.LBB27_3:                               # %if.end
                                        #   in Loop: Header=BB27_1 Depth=1
	movq	-16(%rbp), %rax
	movq	(%rax), %rax
	movq	htab(,%rax,8), %rax
	cmpq	-48(%rbp), %rax
	jne	.LBB27_5
# %bb.4:                                # %if.then5
	movq	-16(%rbp), %rax
	movq	(%rax), %rax
	movzwl	codetab(,%rax,2), %eax
	movq	-40(%rbp), %rcx
	movq	%rax, (%rcx)
	movl	$1, -20(%rbp)
	jmp	.LBB27_8
.LBB27_5:                               # %if.end8
                                        #   in Loop: Header=BB27_1 Depth=1
	movq	-16(%rbp), %rax
	movq	(%rax), %rax
	cmpq	$0, htab(,%rax,8)
	jle	.LBB27_7
# %bb.6:                                # %if.then12
                                        #   in Loop: Header=BB27_1 Depth=1
	jmp	.LBB27_1
.LBB27_7:                               # %if.end13
	movl	$0, -20(%rbp)
.LBB27_8:                               # %return
	movl	-20(%rbp), %ebx
	cmpl	$1095028132, -32(%rbp)  # imm = 0x4144CDA4
	jne	.LBB27_10
.LBB27_9:
	movl	%ebx, %eax
	addq	$40, %rsp
	popq	%rbx
	popq	%rbp
	.cfi_def_cfa %rsp, 8
	retq
.LBB27_10:                              # %func_exit
	.cfi_def_cfa %rbp, 16
	callq	detect_breach
	jmp	.LBB27_9
.Lfunc_end27:
	.size	scott_hack.12, .Lfunc_end27-scott_hack.12
	.cfi_endproc
                                        # -- End function
	.globl	decompress.13           # -- Begin function decompress.13
	.p2align	4, 0x90
	.type	decompress.13,@function
decompress.13:                          # @decompress.13
	.cfi_startproc
# %bb.0:                                # %entry
	pushq	%rbp
	.cfi_def_cfa_offset 16
	.cfi_offset %rbp, -16
	movq	%rsp, %rbp
	.cfi_def_cfa_register %rbp
	subq	$48, %rsp
	movl	$1860380097, -36(%rbp)  # imm = 0x6EE325C1
	movl	$9, n_bits
	movq	$511, maxcode           # imm = 0x1FF
	movq	$255, -8(%rbp)
.LBB28_1:                               # %for.cond
                                        # =>This Inner Loop Header: Depth=1
	cmpq	$0, -8(%rbp)
	jl	.LBB28_4
# %bb.2:                                # %for.body
                                        #   in Loop: Header=BB28_1 Depth=1
	movq	-8(%rbp), %rax
	movw	$0, codetab(,%rax,2)
	movq	-8(%rbp), %rax
	movq	-8(%rbp), %rcx
	movb	%al, htab(,%rcx)
# %bb.3:                                # %for.inc
                                        #   in Loop: Header=BB28_1 Depth=1
	movq	-8(%rbp), %rax
	addq	$-1, %rax
	movq	%rax, -8(%rbp)
	jmp	.LBB28_1
.LBB28_4:                               # %for.end
	movl	block_compress, %eax
	cmpl	$0, %eax
	movl	$257, %eax              # imm = 0x101
	movl	$256, %ecx              # imm = 0x100
	cmovnel	%eax, %ecx
	movslq	%ecx, %rax
	movq	%rax, free_ent
	callq	getcode
	movq	%rax, -32(%rbp)
	movl	%eax, -20(%rbp)
	cmpq	$-1, -32(%rbp)
	jne	.LBB28_6
# %bb.5:                                # %if.then
	jmp	.LBB28_33
.LBB28_6:                               # %if.end
	movl	-20(%rbp), %eax
	movsbl	%al, %edi
	callq	putchar
	movq	stdout, %rdi
	callq	ferror
	cmpl	$0, %eax
	je	.LBB28_8
# %bb.7:                                # %if.then11
	callq	writeerr
.LBB28_8:                               # %if.end12
	movabsq	$htab, %rax
	addq	$65536, %rax            # imm = 0x10000
	movq	%rax, -16(%rbp)
.LBB28_9:                               # %while.cond
                                        # =>This Loop Header: Depth=1
                                        #     Child Loop BB28_13 Depth 2
                                        #     Child Loop BB28_22 Depth 2
                                        #     Child Loop BB28_25 Depth 2
	callq	getcode
	movq	%rax, -8(%rbp)
	cmpq	$-1, %rax
	jle	.LBB28_30
# %bb.10:                               # %while.body
                                        #   in Loop: Header=BB28_9 Depth=1
	cmpq	$256, -8(%rbp)          # imm = 0x100
	jne	.LBB28_19
# %bb.11:                               # %land.lhs.true
                                        #   in Loop: Header=BB28_9 Depth=1
	cmpl	$0, block_compress
	je	.LBB28_19
# %bb.12:                               # %if.then19
                                        #   in Loop: Header=BB28_9 Depth=1
	movq	$255, -8(%rbp)
.LBB28_13:                              # %for.cond20
                                        #   Parent Loop BB28_9 Depth=1
                                        # =>  This Inner Loop Header: Depth=2
	cmpq	$0, -8(%rbp)
	jl	.LBB28_16
# %bb.14:                               # %for.body23
                                        #   in Loop: Header=BB28_13 Depth=2
	movq	-8(%rbp), %rax
	movw	$0, codetab(,%rax,2)
# %bb.15:                               # %for.inc25
                                        #   in Loop: Header=BB28_13 Depth=2
	movq	-8(%rbp), %rax
	addq	$-1, %rax
	movq	%rax, -8(%rbp)
	jmp	.LBB28_13
.LBB28_16:                              # %for.end27
                                        #   in Loop: Header=BB28_9 Depth=1
	movl	$1, clear_flg
	movq	$256, free_ent          # imm = 0x100
	callq	getcode
	movq	%rax, -8(%rbp)
	cmpq	$-1, %rax
	jne	.LBB28_18
# %bb.17:                               # %if.then31
	jmp	.LBB28_31
.LBB28_18:                              # %if.end32
                                        #   in Loop: Header=BB28_9 Depth=1
	jmp	.LBB28_19
.LBB28_19:                              # %if.end33
                                        #   in Loop: Header=BB28_9 Depth=1
	movq	-8(%rbp), %rax
	movq	%rax, -48(%rbp)
	movq	-8(%rbp), %rax
	cmpq	free_ent, %rax
	jl	.LBB28_21
# %bb.20:                               # %if.then36
                                        #   in Loop: Header=BB28_9 Depth=1
	movl	-20(%rbp), %eax
	movq	-16(%rbp), %rcx
	movq	%rcx, %rdx
	addq	$1, %rdx
	movq	%rdx, -16(%rbp)
	movb	%al, (%rcx)
	movq	-32(%rbp), %rax
	movq	%rax, -8(%rbp)
.LBB28_21:                              # %if.end38
                                        #   in Loop: Header=BB28_9 Depth=1
	jmp	.LBB28_22
.LBB28_22:                              # %while.cond39
                                        #   Parent Loop BB28_9 Depth=1
                                        # =>  This Inner Loop Header: Depth=2
	cmpq	$256, -8(%rbp)          # imm = 0x100
	jl	.LBB28_24
# %bb.23:                               # %while.body42
                                        #   in Loop: Header=BB28_22 Depth=2
	movq	-8(%rbp), %rax
	movb	htab(,%rax), %al
	movq	-16(%rbp), %rcx
	movq	%rcx, %rdx
	addq	$1, %rdx
	movq	%rdx, -16(%rbp)
	movb	%al, (%rcx)
	movq	-8(%rbp), %rax
	movzwl	codetab(,%rax,2), %eax
	movq	%rax, -8(%rbp)
	jmp	.LBB28_22
.LBB28_24:                              # %while.end
                                        #   in Loop: Header=BB28_9 Depth=1
	movq	-8(%rbp), %rax
	movzbl	htab(,%rax), %eax
	movl	%eax, -20(%rbp)
	movq	-16(%rbp), %rcx
	movq	%rcx, %rdx
	addq	$1, %rdx
	movq	%rdx, -16(%rbp)
	movb	%al, (%rcx)
.LBB28_25:                              # %do.body
                                        #   Parent Loop BB28_9 Depth=1
                                        # =>  This Inner Loop Header: Depth=2
	movq	-16(%rbp), %rax
	movq	%rax, %rcx
	addq	$-1, %rcx
	movq	%rcx, -16(%rbp)
	movzbl	-1(%rax), %edi
	callq	putchar
# %bb.26:                               # %do.cond
                                        #   in Loop: Header=BB28_25 Depth=2
	movabsq	$htab, %rax
	addq	$65536, %rax            # imm = 0x10000
	cmpq	%rax, -16(%rbp)
	ja	.LBB28_25
# %bb.27:                               # %do.end
                                        #   in Loop: Header=BB28_9 Depth=1
	movq	free_ent, %rax
	movq	%rax, -8(%rbp)
	cmpq	maxmaxcode, %rax
	jge	.LBB28_29
# %bb.28:                               # %if.then58
                                        #   in Loop: Header=BB28_9 Depth=1
	movq	-32(%rbp), %rax
	movq	-8(%rbp), %rcx
	movw	%ax, codetab(,%rcx,2)
	movl	-20(%rbp), %eax
	movq	-8(%rbp), %rcx
	movb	%al, htab(,%rcx)
	movq	-8(%rbp), %rax
	addq	$1, %rax
	movq	%rax, free_ent
.LBB28_29:                              # %if.end63
                                        #   in Loop: Header=BB28_9 Depth=1
	movq	-48(%rbp), %rax
	movq	%rax, -32(%rbp)
	jmp	.LBB28_9
.LBB28_30:                              # %while.end64.loopexit
	jmp	.LBB28_31
.LBB28_31:                              # %while.end64
	movq	stdout, %rdi
	callq	fflush
	movq	stdout, %rdi
	callq	ferror
	cmpl	$0, %eax
	je	.LBB28_33
# %bb.32:                               # %if.then68
	callq	writeerr
.LBB28_33:                              # %if.end69
	cmpl	$1860380097, -36(%rbp)  # imm = 0x6EE325C1
	jne	.LBB28_35
.LBB28_34:
	addq	$48, %rsp
	popq	%rbp
	.cfi_def_cfa %rsp, 8
	retq
.LBB28_35:                              # %func_exit
	.cfi_def_cfa %rbp, 16
	callq	detect_breach
	jmp	.LBB28_34
.Lfunc_end28:
	.size	decompress.13, .Lfunc_end28-decompress.13
	.cfi_endproc
                                        # -- End function
	.globl	output.14               # -- Begin function output.14
	.p2align	4, 0x90
	.type	output.14,@function
output.14:                              # @output.14
	.cfi_startproc
# %bb.0:                                # %entry
	pushq	%rbp
	.cfi_def_cfa_offset 16
	.cfi_offset %rbp, -16
	movq	%rsp, %rbp
	.cfi_def_cfa_register %rbp
	subq	$32, %rsp
	movl	$1485050665, -28(%rbp)  # imm = 0x58841329
	movq	%rdi, -24(%rbp)
	movl	offset, %eax
	movl	%eax, -8(%rbp)
	movl	n_bits, %eax
	movl	%eax, -4(%rbp)
	movabsq	$buf, %rax
	movq	%rax, -16(%rbp)
	cmpq	$0, -24(%rbp)
	jl	.LBB29_24
# %bb.1:                                # %if.then
	movl	-8(%rbp), %eax
	sarl	$3, %eax
	movq	-16(%rbp), %rcx
	cltq
	addq	%rax, %rcx
	movq	%rcx, -16(%rbp)
	movl	-8(%rbp), %eax
	andl	$7, %eax
	movl	%eax, -8(%rbp)
	movq	-16(%rbp), %rax
	movsbl	(%rax), %eax
	movslq	-8(%rbp), %rcx
	movzbl	rmask(,%rcx), %ecx
	andl	%ecx, %eax
	cltq
	movq	-24(%rbp), %rdx
	movl	-8(%rbp), %ecx
                                        # kill: def $cl killed $rcx
	shlq	%cl, %rdx
	movslq	-8(%rbp), %rcx
	movzbl	lmask(,%rcx), %ecx
	andq	%rcx, %rdx
	orq	%rdx, %rax
	movq	-16(%rbp), %rcx
	movb	%al, (%rcx)
	movq	-16(%rbp), %rax
	addq	$1, %rax
	movq	%rax, -16(%rbp)
	movl	$8, %eax
	movl	$8, %ecx
	subl	-8(%rbp), %ecx
	movl	-4(%rbp), %edx
	subl	%ecx, %edx
	movl	%edx, -4(%rbp)
	subl	-8(%rbp), %eax
	movq	-24(%rbp), %rdx
	movl	%eax, %ecx
                                        # kill: def $cl killed $rcx
	sarq	%cl, %rdx
	movq	%rdx, -24(%rbp)
	cmpl	$8, -4(%rbp)
	jl	.LBB29_3
# %bb.2:                                # %if.then15
	movq	-24(%rbp), %rax
	movq	-16(%rbp), %rcx
	movq	%rcx, %rdx
	addq	$1, %rdx
	movq	%rdx, -16(%rbp)
	movb	%al, (%rcx)
	movq	-24(%rbp), %rax
	sarq	$8, %rax
	movq	%rax, -24(%rbp)
	movl	-4(%rbp), %eax
	subl	$8, %eax
	movl	%eax, -4(%rbp)
.LBB29_3:                               # %if.end
	cmpl	$0, -4(%rbp)
	je	.LBB29_5
# %bb.4:                                # %if.then20
	movq	-24(%rbp), %rax
	movq	-16(%rbp), %rcx
	movb	%al, (%rcx)
.LBB29_5:                               # %if.end22
	movl	n_bits, %eax
	addl	offset, %eax
	movl	%eax, offset
	movl	offset, %eax
	movl	n_bits, %ecx
	shll	$3, %ecx
	cmpl	%ecx, %eax
	jne	.LBB29_10
# %bb.6:                                # %if.then26
	movabsq	$buf, %rax
	movq	%rax, -16(%rbp)
	movl	n_bits, %eax
	movl	%eax, -4(%rbp)
	movslq	-4(%rbp), %rax
	addq	bytes_out, %rax
	movq	%rax, bytes_out
.LBB29_7:                               # %do.body
                                        # =>This Inner Loop Header: Depth=1
	movq	-16(%rbp), %rax
	movq	%rax, %rcx
	addq	$1, %rcx
	movq	%rcx, -16(%rbp)
	movsbl	(%rax), %edi
	callq	putchar
# %bb.8:                                # %do.cond
                                        #   in Loop: Header=BB29_7 Depth=1
	movl	-4(%rbp), %eax
	addl	$-1, %eax
	movl	%eax, -4(%rbp)
	cmpl	$0, %eax
	jne	.LBB29_7
# %bb.9:                                # %do.end
	movl	$0, offset
.LBB29_10:                              # %if.end32
	movq	free_ent, %rax
	cmpq	maxcode, %rax
	jg	.LBB29_12
# %bb.11:                               # %lor.lhs.false
	cmpl	$0, clear_flg
	jle	.LBB29_23
.LBB29_12:                              # %if.then37
	cmpl	$0, offset
	jle	.LBB29_16
# %bb.13:                               # %if.then40
	movslq	n_bits, %rdx
	movq	stdout, %rcx
	movabsq	$buf, %rdi
	movl	$1, %esi
	callq	fwrite
	movslq	n_bits, %rcx
	cmpq	%rcx, %rax
	je	.LBB29_15
# %bb.14:                               # %if.then46
	callq	writeerr
.LBB29_15:                              # %if.end47
	movslq	n_bits, %rax
	addq	bytes_out, %rax
	movq	%rax, bytes_out
.LBB29_16:                              # %if.end50
	movl	$0, offset
	cmpl	$0, clear_flg
	je	.LBB29_18
# %bb.17:                               # %if.then52
	movl	$9, n_bits
	movq	$511, maxcode           # imm = 0x1FF
	movl	$0, clear_flg
	jmp	.LBB29_22
.LBB29_18:                              # %if.else
	movl	n_bits, %eax
	addl	$1, %eax
	movl	%eax, n_bits
	movl	n_bits, %eax
	cmpl	maxbits, %eax
	jne	.LBB29_20
# %bb.19:                               # %if.then55
	movq	maxmaxcode, %rax
	movq	%rax, maxcode
	jmp	.LBB29_21
.LBB29_20:                              # %if.else56
	movl	n_bits, %ecx
                                        # kill: def $cl killed $ecx
	movl	$1, %eax
	shll	%cl, %eax
	subl	$1, %eax
	cltq
	movq	%rax, maxcode
.LBB29_21:                              # %if.end60
	jmp	.LBB29_22
.LBB29_22:                              # %if.end61
	jmp	.LBB29_23
.LBB29_23:                              # %if.end62
	jmp	.LBB29_29
.LBB29_24:                              # %if.else63
	cmpl	$0, offset
	jle	.LBB29_26
# %bb.25:                               # %if.then66
	movl	offset, %eax
	addl	$7, %eax
	cltd
	movl	$8, %ecx
	idivl	%ecx
	movslq	%eax, %rdx
	movq	stdout, %rcx
	movabsq	$buf, %rdi
	movl	$1, %esi
	callq	fwrite
.LBB29_26:                              # %if.end70
	movl	offset, %eax
	addl	$7, %eax
	cltd
	movl	$8, %ecx
	idivl	%ecx
	cltq
	addq	bytes_out, %rax
	movq	%rax, bytes_out
	movl	$0, offset
	movq	stdout, %rdi
	callq	fflush
	movq	stdout, %rdi
	callq	ferror
	cmpl	$0, %eax
	je	.LBB29_28
# %bb.27:                               # %if.then78
	callq	writeerr
.LBB29_28:                              # %if.end79
	jmp	.LBB29_29
.LBB29_29:                              # %if.end80
	cmpl	$1485050665, -28(%rbp)  # imm = 0x58841329
	jne	.LBB29_31
.LBB29_30:
	addq	$32, %rsp
	popq	%rbp
	.cfi_def_cfa %rsp, 8
	retq
.LBB29_31:                              # %func_exit
	.cfi_def_cfa %rbp, 16
	callq	detect_breach
	jmp	.LBB29_30
.Lfunc_end29:
	.size	output.14, .Lfunc_end29-output.14
	.cfi_endproc
                                        # -- End function
	.globl	cl_hash.15              # -- Begin function cl_hash.15
	.p2align	4, 0x90
	.type	cl_hash.15,@function
cl_hash.15:                             # @cl_hash.15
	.cfi_startproc
# %bb.0:                                # %entry
	pushq	%rbp
	.cfi_def_cfa_offset 16
	.cfi_offset %rbp, -16
	movq	%rsp, %rbp
	.cfi_def_cfa_register %rbp
	subq	$48, %rsp
	movl	$479817410, -28(%rbp)   # imm = 0x1C996EC2
	movq	%rdi, -40(%rbp)
	movq	-40(%rbp), %rax
	shlq	$3, %rax
	movabsq	$htab, %rcx
	addq	%rax, %rcx
	movq	%rcx, -8(%rbp)
	movq	$-1, -16(%rbp)
	movq	-40(%rbp), %rax
	subq	$16, %rax
	movq	%rax, -24(%rbp)
.LBB30_1:                               # %do.body
                                        # =>This Inner Loop Header: Depth=1
	movq	-16(%rbp), %rax
	movq	-8(%rbp), %rcx
	movq	%rax, -128(%rcx)
	movq	-16(%rbp), %rax
	movq	-8(%rbp), %rcx
	movq	%rax, -120(%rcx)
	movq	-16(%rbp), %rax
	movq	-8(%rbp), %rcx
	movq	%rax, -112(%rcx)
	movq	-16(%rbp), %rax
	movq	-8(%rbp), %rcx
	movq	%rax, -104(%rcx)
	movq	-16(%rbp), %rax
	movq	-8(%rbp), %rcx
	movq	%rax, -96(%rcx)
	movq	-16(%rbp), %rax
	movq	-8(%rbp), %rcx
	movq	%rax, -88(%rcx)
	movq	-16(%rbp), %rax
	movq	-8(%rbp), %rcx
	movq	%rax, -80(%rcx)
	movq	-16(%rbp), %rax
	movq	-8(%rbp), %rcx
	movq	%rax, -72(%rcx)
	movq	-16(%rbp), %rax
	movq	-8(%rbp), %rcx
	movq	%rax, -64(%rcx)
	movq	-16(%rbp), %rax
	movq	-8(%rbp), %rcx
	movq	%rax, -56(%rcx)
	movq	-16(%rbp), %rax
	movq	-8(%rbp), %rcx
	movq	%rax, -48(%rcx)
	movq	-16(%rbp), %rax
	movq	-8(%rbp), %rcx
	movq	%rax, -40(%rcx)
	movq	-16(%rbp), %rax
	movq	-8(%rbp), %rcx
	movq	%rax, -32(%rcx)
	movq	-16(%rbp), %rax
	movq	-8(%rbp), %rcx
	movq	%rax, -24(%rcx)
	movq	-16(%rbp), %rax
	movq	-8(%rbp), %rcx
	movq	%rax, -16(%rcx)
	movq	-16(%rbp), %rax
	movq	-8(%rbp), %rcx
	movq	%rax, -8(%rcx)
	movq	-8(%rbp), %rax
	addq	$-128, %rax
	movq	%rax, -8(%rbp)
# %bb.2:                                # %do.cond
                                        #   in Loop: Header=BB30_1 Depth=1
	movq	-24(%rbp), %rax
	subq	$16, %rax
	movq	%rax, -24(%rbp)
	cmpq	$0, %rax
	jge	.LBB30_1
# %bb.3:                                # %do.end
	movq	-24(%rbp), %rax
	addq	$16, %rax
	movq	%rax, -24(%rbp)
.LBB30_4:                               # %for.cond
                                        # =>This Inner Loop Header: Depth=1
	cmpq	$0, -24(%rbp)
	jle	.LBB30_7
# %bb.5:                                # %for.body
                                        #   in Loop: Header=BB30_4 Depth=1
	movq	-16(%rbp), %rax
	movq	-8(%rbp), %rcx
	movq	%rcx, %rdx
	addq	$-8, %rdx
	movq	%rdx, -8(%rbp)
	movq	%rax, -8(%rcx)
# %bb.6:                                # %for.inc
                                        #   in Loop: Header=BB30_4 Depth=1
	movq	-24(%rbp), %rax
	addq	$-1, %rax
	movq	%rax, -24(%rbp)
	jmp	.LBB30_4
.LBB30_7:                               # %for.end
	cmpl	$479817410, -28(%rbp)   # imm = 0x1C996EC2
	jne	.LBB30_9
.LBB30_8:
	addq	$48, %rsp
	popq	%rbp
	.cfi_def_cfa %rsp, 8
	retq
.LBB30_9:                               # %func_exit
	.cfi_def_cfa %rbp, 16
	callq	detect_breach
	jmp	.LBB30_8
.Lfunc_end30:
	.size	cl_hash.15, .Lfunc_end30-cl_hash.15
	.cfi_endproc
                                        # -- End function
	.globl	decompress.16           # -- Begin function decompress.16
	.p2align	4, 0x90
	.type	decompress.16,@function
decompress.16:                          # @decompress.16
	.cfi_startproc
# %bb.0:                                # %entry
	pushq	%rbp
	.cfi_def_cfa_offset 16
	.cfi_offset %rbp, -16
	movq	%rsp, %rbp
	.cfi_def_cfa_register %rbp
	subq	$48, %rsp
	movl	$2022694994, -36(%rbp)  # imm = 0x788FE052
	movl	$9, n_bits
	movq	$511, maxcode           # imm = 0x1FF
	movq	$255, -8(%rbp)
.LBB31_1:                               # %for.cond
                                        # =>This Inner Loop Header: Depth=1
	cmpq	$0, -8(%rbp)
	jl	.LBB31_4
# %bb.2:                                # %for.body
                                        #   in Loop: Header=BB31_1 Depth=1
	movq	-8(%rbp), %rax
	movw	$0, codetab(,%rax,2)
	movq	-8(%rbp), %rax
	movq	-8(%rbp), %rcx
	movb	%al, htab(,%rcx)
# %bb.3:                                # %for.inc
                                        #   in Loop: Header=BB31_1 Depth=1
	movq	-8(%rbp), %rax
	addq	$-1, %rax
	movq	%rax, -8(%rbp)
	jmp	.LBB31_1
.LBB31_4:                               # %for.end
	movl	block_compress, %eax
	cmpl	$0, %eax
	movl	$257, %eax              # imm = 0x101
	movl	$256, %ecx              # imm = 0x100
	cmovnel	%eax, %ecx
	movslq	%ecx, %rax
	movq	%rax, free_ent
	callq	getcode
	movq	%rax, -32(%rbp)
	movl	%eax, -20(%rbp)
	cmpq	$-1, -32(%rbp)
	jne	.LBB31_6
# %bb.5:                                # %if.then
	jmp	.LBB31_33
.LBB31_6:                               # %if.end
	movl	-20(%rbp), %eax
	movsbl	%al, %edi
	callq	putchar
	movq	stdout, %rdi
	callq	ferror
	cmpl	$0, %eax
	je	.LBB31_8
# %bb.7:                                # %if.then11
	callq	writeerr
.LBB31_8:                               # %if.end12
	movabsq	$htab, %rax
	addq	$65536, %rax            # imm = 0x10000
	movq	%rax, -16(%rbp)
.LBB31_9:                               # %while.cond
                                        # =>This Loop Header: Depth=1
                                        #     Child Loop BB31_13 Depth 2
                                        #     Child Loop BB31_22 Depth 2
                                        #     Child Loop BB31_25 Depth 2
	callq	getcode
	movq	%rax, -8(%rbp)
	cmpq	$-1, %rax
	jle	.LBB31_30
# %bb.10:                               # %while.body
                                        #   in Loop: Header=BB31_9 Depth=1
	cmpq	$256, -8(%rbp)          # imm = 0x100
	jne	.LBB31_19
# %bb.11:                               # %land.lhs.true
                                        #   in Loop: Header=BB31_9 Depth=1
	cmpl	$0, block_compress
	je	.LBB31_19
# %bb.12:                               # %if.then19
                                        #   in Loop: Header=BB31_9 Depth=1
	movq	$255, -8(%rbp)
.LBB31_13:                              # %for.cond20
                                        #   Parent Loop BB31_9 Depth=1
                                        # =>  This Inner Loop Header: Depth=2
	cmpq	$0, -8(%rbp)
	jl	.LBB31_16
# %bb.14:                               # %for.body23
                                        #   in Loop: Header=BB31_13 Depth=2
	movq	-8(%rbp), %rax
	movw	$0, codetab(,%rax,2)
# %bb.15:                               # %for.inc25
                                        #   in Loop: Header=BB31_13 Depth=2
	movq	-8(%rbp), %rax
	addq	$-1, %rax
	movq	%rax, -8(%rbp)
	jmp	.LBB31_13
.LBB31_16:                              # %for.end27
                                        #   in Loop: Header=BB31_9 Depth=1
	movl	$1, clear_flg
	movq	$256, free_ent          # imm = 0x100
	callq	getcode
	movq	%rax, -8(%rbp)
	cmpq	$-1, %rax
	jne	.LBB31_18
# %bb.17:                               # %if.then31
	jmp	.LBB31_31
.LBB31_18:                              # %if.end32
                                        #   in Loop: Header=BB31_9 Depth=1
	jmp	.LBB31_19
.LBB31_19:                              # %if.end33
                                        #   in Loop: Header=BB31_9 Depth=1
	movq	-8(%rbp), %rax
	movq	%rax, -48(%rbp)
	movq	-8(%rbp), %rax
	cmpq	free_ent, %rax
	jl	.LBB31_21
# %bb.20:                               # %if.then36
                                        #   in Loop: Header=BB31_9 Depth=1
	movl	-20(%rbp), %eax
	movq	-16(%rbp), %rcx
	movq	%rcx, %rdx
	addq	$1, %rdx
	movq	%rdx, -16(%rbp)
	movb	%al, (%rcx)
	movq	-32(%rbp), %rax
	movq	%rax, -8(%rbp)
.LBB31_21:                              # %if.end38
                                        #   in Loop: Header=BB31_9 Depth=1
	jmp	.LBB31_22
.LBB31_22:                              # %while.cond39
                                        #   Parent Loop BB31_9 Depth=1
                                        # =>  This Inner Loop Header: Depth=2
	cmpq	$256, -8(%rbp)          # imm = 0x100
	jl	.LBB31_24
# %bb.23:                               # %while.body42
                                        #   in Loop: Header=BB31_22 Depth=2
	movq	-8(%rbp), %rax
	movb	htab(,%rax), %al
	movq	-16(%rbp), %rcx
	movq	%rcx, %rdx
	addq	$1, %rdx
	movq	%rdx, -16(%rbp)
	movb	%al, (%rcx)
	movq	-8(%rbp), %rax
	movzwl	codetab(,%rax,2), %eax
	movq	%rax, -8(%rbp)
	jmp	.LBB31_22
.LBB31_24:                              # %while.end
                                        #   in Loop: Header=BB31_9 Depth=1
	movq	-8(%rbp), %rax
	movzbl	htab(,%rax), %eax
	movl	%eax, -20(%rbp)
	movq	-16(%rbp), %rcx
	movq	%rcx, %rdx
	addq	$1, %rdx
	movq	%rdx, -16(%rbp)
	movb	%al, (%rcx)
.LBB31_25:                              # %do.body
                                        #   Parent Loop BB31_9 Depth=1
                                        # =>  This Inner Loop Header: Depth=2
	movq	-16(%rbp), %rax
	movq	%rax, %rcx
	addq	$-1, %rcx
	movq	%rcx, -16(%rbp)
	movzbl	-1(%rax), %edi
	callq	putchar
# %bb.26:                               # %do.cond
                                        #   in Loop: Header=BB31_25 Depth=2
	movabsq	$htab, %rax
	addq	$65536, %rax            # imm = 0x10000
	cmpq	%rax, -16(%rbp)
	ja	.LBB31_25
# %bb.27:                               # %do.end
                                        #   in Loop: Header=BB31_9 Depth=1
	movq	free_ent, %rax
	movq	%rax, -8(%rbp)
	cmpq	maxmaxcode, %rax
	jge	.LBB31_29
# %bb.28:                               # %if.then58
                                        #   in Loop: Header=BB31_9 Depth=1
	movq	-32(%rbp), %rax
	movq	-8(%rbp), %rcx
	movw	%ax, codetab(,%rcx,2)
	movl	-20(%rbp), %eax
	movq	-8(%rbp), %rcx
	movb	%al, htab(,%rcx)
	movq	-8(%rbp), %rax
	addq	$1, %rax
	movq	%rax, free_ent
.LBB31_29:                              # %if.end63
                                        #   in Loop: Header=BB31_9 Depth=1
	movq	-48(%rbp), %rax
	movq	%rax, -32(%rbp)
	jmp	.LBB31_9
.LBB31_30:                              # %while.end64.loopexit
	jmp	.LBB31_31
.LBB31_31:                              # %while.end64
	movq	stdout, %rdi
	callq	fflush
	movq	stdout, %rdi
	callq	ferror
	cmpl	$0, %eax
	je	.LBB31_33
# %bb.32:                               # %if.then68
	callq	writeerr
.LBB31_33:                              # %if.end69
	cmpl	$2022694994, -36(%rbp)  # imm = 0x788FE052
	jne	.LBB31_35
.LBB31_34:
	addq	$48, %rsp
	popq	%rbp
	.cfi_def_cfa %rsp, 8
	retq
.LBB31_35:                              # %func_exit
	.cfi_def_cfa %rbp, 16
	callq	detect_breach
	jmp	.LBB31_34
.Lfunc_end31:
	.size	decompress.16, .Lfunc_end31-decompress.16
	.cfi_endproc
                                        # -- End function
	.globl	copystat.17             # -- Begin function copystat.17
	.p2align	4, 0x90
	.type	copystat.17,@function
copystat.17:                            # @copystat.17
	.cfi_startproc
# %bb.0:                                # %entry
	pushq	%rbp
	.cfi_def_cfa_offset 16
	.cfi_offset %rbp, -16
	movq	%rsp, %rbp
	.cfi_def_cfa_register %rbp
	subq	$192, %rsp
	movl	$256124063, -20(%rbp)   # imm = 0xF44249F
	movq	%rdi, -16(%rbp)
	movq	%rsi, -8(%rbp)
	movq	stdout, %rdi
	callq	fclose
	movq	-16(%rbp), %rdi
	leaq	-184(%rbp), %rsi
	callq	stat
	cmpl	$0, %eax
	je	.LBB32_2
# %bb.1:                                # %if.then
	movq	-16(%rbp), %rdi
	callq	perror
	jmp	.LBB32_26
.LBB32_2:                               # %if.end
	movl	-160(%rbp), %eax
	andl	$61440, %eax            # imm = 0xF000
	cmpl	$32768, %eax            # imm = 0x8000
	je	.LBB32_6
# %bb.3:                                # %if.then2
	cmpl	$0, quiet
	je	.LBB32_5
# %bb.4:                                # %if.then4
	movq	stderr, %rdi
	movq	-16(%rbp), %rdx
	movabsq	$.L.str.16, %rsi
	movb	$0, %al
	callq	fprintf
.LBB32_5:                               # %if.end6
	movq	stderr, %rdi
	movabsq	$.L.str.20, %rsi
	movb	$0, %al
	callq	fprintf
	movl	$1, exit_stat
	jmp	.LBB32_24
.LBB32_6:                               # %if.else
	cmpq	$1, -168(%rbp)
	jbe	.LBB32_10
# %bb.7:                                # %if.then9
	cmpl	$0, quiet
	je	.LBB32_9
# %bb.8:                                # %if.then11
	movq	stderr, %rdi
	movq	-16(%rbp), %rdx
	movabsq	$.L.str.16, %rsi
	movb	$0, %al
	callq	fprintf
.LBB32_9:                               # %if.end13
	movq	stderr, %rdi
	movq	-168(%rbp), %rdx
	subq	$1, %rdx
	movabsq	$.L.str.21, %rsi
	movb	$0, %al
	callq	fprintf
	movl	$1, exit_stat
	jmp	.LBB32_23
.LBB32_10:                              # %if.else16
	cmpl	$2, exit_stat
	jne	.LBB32_15
# %bb.11:                               # %land.lhs.true
	cmpl	$0, force
	jne	.LBB32_15
# %bb.12:                               # %if.then19
	cmpl	$0, quiet
	jne	.LBB32_14
# %bb.13:                               # %if.then21
	movq	stderr, %rdi
	movabsq	$.L.str.22, %rsi
	movb	$0, %al
	callq	fprintf
.LBB32_14:                              # %if.end23
	jmp	.LBB32_22
.LBB32_15:                              # %if.else24
	movl	$0, exit_stat
	movl	-160(%rbp), %eax
	andl	$4095, %eax             # imm = 0xFFF
	movl	%eax, -24(%rbp)
	movq	-8(%rbp), %rdi
	movl	-24(%rbp), %esi
	callq	chmod
	cmpl	$0, %eax
	je	.LBB32_17
# %bb.16:                               # %if.then29
	movq	-8(%rbp), %rdi
	callq	perror
.LBB32_17:                              # %if.end30
	movq	-8(%rbp), %rdi
	movl	-156(%rbp), %esi
	movl	-152(%rbp), %edx
	callq	chown
	movq	-112(%rbp), %rax
	movq	%rax, -40(%rbp)
	movq	-96(%rbp), %rax
	movq	%rax, -32(%rbp)
	movq	-8(%rbp), %rdi
	leaq	-40(%rbp), %rsi
	callq	utime
	movq	-16(%rbp), %rdi
	callq	unlink
	cmpl	$0, %eax
	je	.LBB32_19
# %bb.18:                               # %if.then36
	movq	-16(%rbp), %rdi
	callq	perror
.LBB32_19:                              # %if.end37
	cmpl	$0, quiet
	jne	.LBB32_21
# %bb.20:                               # %if.then39
	movq	stderr, %rdi
	movq	-8(%rbp), %rdx
	movabsq	$.L.str.23, %rsi
	movb	$0, %al
	callq	fprintf
.LBB32_21:                              # %if.end41
	jmp	.LBB32_26
.LBB32_22:                              # %if.end42
	jmp	.LBB32_23
.LBB32_23:                              # %if.end43
	jmp	.LBB32_24
.LBB32_24:                              # %if.end44
	movq	-8(%rbp), %rdi
	callq	unlink
	cmpl	$0, %eax
	je	.LBB32_26
# %bb.25:                               # %if.then47
	movq	-8(%rbp), %rdi
	callq	perror
.LBB32_26:                              # %if.end48
	cmpl	$256124063, -20(%rbp)   # imm = 0xF44249F
	jne	.LBB32_28
.LBB32_27:
	addq	$192, %rsp
	popq	%rbp
	.cfi_def_cfa %rsp, 8
	retq
.LBB32_28:                              # %func_exit
	.cfi_def_cfa %rbp, 16
	callq	detect_breach
	jmp	.LBB32_27
.Lfunc_end32:
	.size	copystat.17, .Lfunc_end32-copystat.17
	.cfi_endproc
                                        # -- End function
	.globl	copystat.18             # -- Begin function copystat.18
	.p2align	4, 0x90
	.type	copystat.18,@function
copystat.18:                            # @copystat.18
	.cfi_startproc
# %bb.0:                                # %entry
	pushq	%rbp
	.cfi_def_cfa_offset 16
	.cfi_offset %rbp, -16
	movq	%rsp, %rbp
	.cfi_def_cfa_register %rbp
	subq	$192, %rsp
	movl	$873398518, -24(%rbp)   # imm = 0x340F00F6
	movq	%rdi, -16(%rbp)
	movq	%rsi, -8(%rbp)
	movq	stdout, %rdi
	callq	fclose
	movq	-16(%rbp), %rdi
	leaq	-184(%rbp), %rsi
	callq	stat
	cmpl	$0, %eax
	je	.LBB33_2
# %bb.1:                                # %if.then
	movq	-16(%rbp), %rdi
	callq	perror
	jmp	.LBB33_26
.LBB33_2:                               # %if.end
	movl	-160(%rbp), %eax
	andl	$61440, %eax            # imm = 0xF000
	cmpl	$32768, %eax            # imm = 0x8000
	je	.LBB33_6
# %bb.3:                                # %if.then2
	cmpl	$0, quiet
	je	.LBB33_5
# %bb.4:                                # %if.then4
	movq	stderr, %rdi
	movq	-16(%rbp), %rdx
	movabsq	$.L.str.16, %rsi
	movb	$0, %al
	callq	fprintf
.LBB33_5:                               # %if.end6
	movq	stderr, %rdi
	movabsq	$.L.str.20, %rsi
	movb	$0, %al
	callq	fprintf
	movl	$1, exit_stat
	jmp	.LBB33_24
.LBB33_6:                               # %if.else
	cmpq	$1, -168(%rbp)
	jbe	.LBB33_10
# %bb.7:                                # %if.then9
	cmpl	$0, quiet
	je	.LBB33_9
# %bb.8:                                # %if.then11
	movq	stderr, %rdi
	movq	-16(%rbp), %rdx
	movabsq	$.L.str.16, %rsi
	movb	$0, %al
	callq	fprintf
.LBB33_9:                               # %if.end13
	movq	stderr, %rdi
	movq	-168(%rbp), %rdx
	subq	$1, %rdx
	movabsq	$.L.str.21, %rsi
	movb	$0, %al
	callq	fprintf
	movl	$1, exit_stat
	jmp	.LBB33_23
.LBB33_10:                              # %if.else16
	cmpl	$2, exit_stat
	jne	.LBB33_15
# %bb.11:                               # %land.lhs.true
	cmpl	$0, force
	jne	.LBB33_15
# %bb.12:                               # %if.then19
	cmpl	$0, quiet
	jne	.LBB33_14
# %bb.13:                               # %if.then21
	movq	stderr, %rdi
	movabsq	$.L.str.22, %rsi
	movb	$0, %al
	callq	fprintf
.LBB33_14:                              # %if.end23
	jmp	.LBB33_22
.LBB33_15:                              # %if.else24
	movl	$0, exit_stat
	movl	-160(%rbp), %eax
	andl	$4095, %eax             # imm = 0xFFF
	movl	%eax, -20(%rbp)
	movq	-8(%rbp), %rdi
	movl	-20(%rbp), %esi
	callq	chmod
	cmpl	$0, %eax
	je	.LBB33_17
# %bb.16:                               # %if.then29
	movq	-8(%rbp), %rdi
	callq	perror
.LBB33_17:                              # %if.end30
	movq	-8(%rbp), %rdi
	movl	-156(%rbp), %esi
	movl	-152(%rbp), %edx
	callq	chown
	movq	-112(%rbp), %rax
	movq	%rax, -40(%rbp)
	movq	-96(%rbp), %rax
	movq	%rax, -32(%rbp)
	movq	-8(%rbp), %rdi
	leaq	-40(%rbp), %rsi
	callq	utime
	movq	-16(%rbp), %rdi
	callq	unlink
	cmpl	$0, %eax
	je	.LBB33_19
# %bb.18:                               # %if.then36
	movq	-16(%rbp), %rdi
	callq	perror
.LBB33_19:                              # %if.end37
	cmpl	$0, quiet
	jne	.LBB33_21
# %bb.20:                               # %if.then39
	movq	stderr, %rdi
	movq	-8(%rbp), %rdx
	movabsq	$.L.str.23, %rsi
	movb	$0, %al
	callq	fprintf
.LBB33_21:                              # %if.end41
	jmp	.LBB33_26
.LBB33_22:                              # %if.end42
	jmp	.LBB33_23
.LBB33_23:                              # %if.end43
	jmp	.LBB33_24
.LBB33_24:                              # %if.end44
	movq	-8(%rbp), %rdi
	callq	unlink
	cmpl	$0, %eax
	je	.LBB33_26
# %bb.25:                               # %if.then47
	movq	-8(%rbp), %rdi
	callq	perror
.LBB33_26:                              # %if.end48
	cmpl	$873398518, -24(%rbp)   # imm = 0x340F00F6
	jne	.LBB33_28
.LBB33_27:
	addq	$192, %rsp
	popq	%rbp
	.cfi_def_cfa %rsp, 8
	retq
.LBB33_28:                              # %func_exit
	.cfi_def_cfa %rbp, 16
	callq	detect_breach
	jmp	.LBB33_27
.Lfunc_end33:
	.size	copystat.18, .Lfunc_end33-copystat.18
	.cfi_endproc
                                        # -- End function
	.globl	compress.19             # -- Begin function compress.19
	.p2align	4, 0x90
	.type	compress.19,@function
compress.19:                            # @compress.19
	.cfi_startproc
# %bb.0:                                # %entry
	pushq	%rbp
	.cfi_def_cfa_offset 16
	.cfi_offset %rbp, -16
	movq	%rsp, %rbp
	.cfi_def_cfa_register %rbp
	subq	$64, %rsp
	movl	$2133580397, -56(%rbp)  # imm = 0x7F2BDA6D
	movq	$0, -8(%rbp)
	cmpl	$0, nomagic
	jne	.LBB34_4
# %bb.1:                                # %if.then
	movzbl	magic_header, %edi
	callq	putchar
	movzbl	magic_header+1, %edi
	callq	putchar
	movl	maxbits, %eax
	orl	block_compress, %eax
	movsbl	%al, %edi
	callq	putchar
	movq	stdout, %rdi
	callq	ferror
	cmpl	$0, %eax
	je	.LBB34_3
# %bb.2:                                # %if.then7
	callq	writeerr
.LBB34_3:                               # %if.end
	jmp	.LBB34_4
.LBB34_4:                               # %if.end8
	movl	$0, offset
	movq	$3, bytes_out
	movq	$0, out_count
	movl	$0, clear_flg
	movq	$0, ratio
	movq	$1, in_count
	movq	$10000, checkpoint      # imm = 0x2710
	movl	$9, n_bits
	movq	$511, maxcode           # imm = 0x1FF
	movl	block_compress, %eax
	cmpl	$0, %eax
	movl	$257, %eax              # imm = 0x101
	movl	$256, %ecx              # imm = 0x100
	cmovnel	%eax, %ecx
	movslq	%ecx, %rax
	movq	%rax, free_ent
	callq	getchar
	cltq
	movq	%rax, -32(%rbp)
	movl	$0, -16(%rbp)
	movq	hsize, %rax
	movq	%rax, -24(%rbp)
.LBB34_5:                               # %for.cond
                                        # =>This Inner Loop Header: Depth=1
	cmpq	$65536, -24(%rbp)       # imm = 0x10000
	jge	.LBB34_8
# %bb.6:                                # %for.body
                                        #   in Loop: Header=BB34_5 Depth=1
	movl	-16(%rbp), %eax
	addl	$1, %eax
	movl	%eax, -16(%rbp)
# %bb.7:                                # %for.inc
                                        #   in Loop: Header=BB34_5 Depth=1
	movq	-24(%rbp), %rax
	shlq	$1, %rax
	movq	%rax, -24(%rbp)
	jmp	.LBB34_5
.LBB34_8:                               # %for.end
	movl	$8, %eax
	subl	-16(%rbp), %eax
	movl	%eax, -16(%rbp)
	movq	hsize, %rax
	movq	%rax, -48(%rbp)
	movq	-48(%rbp), %rdi
	callq	cl_hash
.LBB34_9:                               # %while.cond
                                        # =>This Inner Loop Header: Depth=1
	callq	getchar
	movl	%eax, -36(%rbp)
	cmpl	$-1, %eax
	je	.LBB34_46
# %bb.10:                               # %while.body
                                        #   in Loop: Header=BB34_9 Depth=1
	movq	in_count, %rax
	addq	$1, %rax
	movq	%rax, in_count
	movslq	-36(%rbp), %rax
	movl	maxbits, %ecx
                                        # kill: def $cl killed $rcx
	shlq	%cl, %rax
	addq	-32(%rbp), %rax
	movq	%rax, -24(%rbp)
	movl	-36(%rbp), %eax
	movl	-16(%rbp), %ecx
                                        # kill: def $cl killed $ecx
	shll	%cl, %eax
	cltq
	xorq	-32(%rbp), %rax
	movq	%rax, -8(%rbp)
	movq	-8(%rbp), %rax
	movq	htab(,%rax,8), %rax
	cmpq	-24(%rbp), %rax
	jne	.LBB34_13
# %bb.11:                               # %if.then24
                                        #   in Loop: Header=BB34_9 Depth=1
	movq	-8(%rbp), %rax
	movzwl	codetab(,%rax,2), %eax
	movq	%rax, -32(%rbp)
.LBB34_12:                              # %while.cond.backedge
                                        #   in Loop: Header=BB34_9 Depth=1
	jmp	.LBB34_9
.LBB34_13:                              # %if.else
                                        #   in Loop: Header=BB34_9 Depth=1
	movq	-8(%rbp), %rax
	cmpq	$0, htab(,%rax,8)
	jge	.LBB34_15
# %bb.14:                               # %if.then30
                                        #   in Loop: Header=BB34_9 Depth=1
	jmp	.LBB34_39
.LBB34_15:                              # %if.end31
                                        #   in Loop: Header=BB34_9 Depth=1
	jmp	.LBB34_16
.LBB34_16:                              # %if.end32
                                        #   in Loop: Header=BB34_9 Depth=1
	movq	-48(%rbp), %rax
	subq	-8(%rbp), %rax
	movl	%eax, -12(%rbp)
	cmpq	$0, -8(%rbp)
	jne	.LBB34_18
# %bb.17:                               # %if.then37
                                        #   in Loop: Header=BB34_9 Depth=1
	movl	$1, -12(%rbp)
.LBB34_18:                              # %if.end38
                                        #   in Loop: Header=BB34_9 Depth=1
	movslq	-12(%rbp), %rax
	movq	-8(%rbp), %rcx
	subq	%rax, %rcx
	movq	%rcx, -8(%rbp)
	cmpq	$0, %rcx
	jge	.LBB34_20
# %bb.19:                               # %if.then43
                                        #   in Loop: Header=BB34_9 Depth=1
	movq	-48(%rbp), %rax
	addq	-8(%rbp), %rax
	movq	%rax, -8(%rbp)
.LBB34_20:                              # %if.end45
                                        #   in Loop: Header=BB34_9 Depth=1
	movq	-8(%rbp), %rax
	movq	htab(,%rax,8), %rax
	cmpq	-24(%rbp), %rax
	jne	.LBB34_22
# %bb.21:                               # %if.then49
                                        #   in Loop: Header=BB34_9 Depth=1
	movq	-8(%rbp), %rax
	movzwl	codetab(,%rax,2), %eax
	movq	%rax, -32(%rbp)
	jmp	.LBB34_12
.LBB34_22:                              # %if.end52
                                        #   in Loop: Header=BB34_9 Depth=1
	movq	-8(%rbp), %rax
	cmpq	$0, htab(,%rax,8)
	jg	.LBB34_24
# %bb.23:                               # %if.then56
                                        #   in Loop: Header=BB34_9 Depth=1
	jmp	.LBB34_39
.LBB34_24:                              # %if.end57
                                        #   in Loop: Header=BB34_9 Depth=1
	movslq	-12(%rbp), %rax
	movq	-8(%rbp), %rcx
	subq	%rax, %rcx
	movq	%rcx, -8(%rbp)
	cmpq	$0, %rcx
	jge	.LBB34_26
# %bb.25:                               # %if.then62
                                        #   in Loop: Header=BB34_9 Depth=1
	movq	-48(%rbp), %rax
	addq	-8(%rbp), %rax
	movq	%rax, -8(%rbp)
.LBB34_26:                              # %if.end64
                                        #   in Loop: Header=BB34_9 Depth=1
	movq	-8(%rbp), %rax
	movq	htab(,%rax,8), %rax
	cmpq	-24(%rbp), %rax
	jne	.LBB34_28
# %bb.27:                               # %if.then68
                                        #   in Loop: Header=BB34_9 Depth=1
	movq	-8(%rbp), %rax
	movzwl	codetab(,%rax,2), %eax
	movq	%rax, -32(%rbp)
	jmp	.LBB34_12
.LBB34_28:                              # %if.end71
                                        #   in Loop: Header=BB34_9 Depth=1
	movq	-8(%rbp), %rax
	cmpq	$0, htab(,%rax,8)
	jg	.LBB34_30
# %bb.29:                               # %if.then75
                                        #   in Loop: Header=BB34_9 Depth=1
	jmp	.LBB34_39
.LBB34_30:                              # %if.end76
                                        #   in Loop: Header=BB34_9 Depth=1
	movslq	-12(%rbp), %rax
	movq	-8(%rbp), %rcx
	subq	%rax, %rcx
	movq	%rcx, -8(%rbp)
	cmpq	$0, %rcx
	jge	.LBB34_32
# %bb.31:                               # %if.then81
                                        #   in Loop: Header=BB34_9 Depth=1
	movq	-48(%rbp), %rax
	addq	-8(%rbp), %rax
	movq	%rax, -8(%rbp)
.LBB34_32:                              # %if.end83
                                        #   in Loop: Header=BB34_9 Depth=1
	movq	-8(%rbp), %rax
	movq	htab(,%rax,8), %rax
	cmpq	-24(%rbp), %rax
	jne	.LBB34_34
# %bb.33:                               # %if.then87
                                        #   in Loop: Header=BB34_9 Depth=1
	movq	-8(%rbp), %rax
	movzwl	codetab(,%rax,2), %eax
	movq	%rax, -32(%rbp)
	jmp	.LBB34_12
.LBB34_34:                              # %if.end90
                                        #   in Loop: Header=BB34_9 Depth=1
	movq	-8(%rbp), %rax
	cmpq	$0, htab(,%rax,8)
	jle	.LBB34_38
# %bb.35:                               # %if.then94
                                        #   in Loop: Header=BB34_9 Depth=1
	movl	$0, -52(%rbp)
	movq	-24(%rbp), %rsi
	movl	-12(%rbp), %edx
	movq	-48(%rbp), %rcx
	leaq	-8(%rbp), %rdi
                                        # kill: def $ecx killed $ecx killed $rcx
	leaq	-32(%rbp), %r8
	callq	scott_hack
	movl	%eax, -52(%rbp)
	cmpl	$0, -52(%rbp)
	je	.LBB34_37
# %bb.36:                               # %if.then99
                                        #   in Loop: Header=BB34_9 Depth=1
	jmp	.LBB34_12
.LBB34_37:                              # %if.end100
                                        #   in Loop: Header=BB34_9 Depth=1
	jmp	.LBB34_38
.LBB34_38:                              # %if.end101
                                        #   in Loop: Header=BB34_9 Depth=1
	jmp	.LBB34_39
.LBB34_39:                              # %nomatch
                                        #   in Loop: Header=BB34_9 Depth=1
	movq	-32(%rbp), %rdi
	callq	output
	movq	out_count, %rax
	addq	$1, %rax
	movq	%rax, out_count
	movslq	-36(%rbp), %rax
	movq	%rax, -32(%rbp)
	movq	free_ent, %rax
	cmpq	maxmaxcode, %rax
	jge	.LBB34_41
# %bb.40:                               # %if.then106
                                        #   in Loop: Header=BB34_9 Depth=1
	movq	free_ent, %rax
	movq	%rax, %rcx
	addq	$1, %rcx
	movq	%rcx, free_ent
	movq	-8(%rbp), %rcx
	movw	%ax, codetab(,%rcx,2)
	movq	-24(%rbp), %rax
	movq	-8(%rbp), %rcx
	movq	%rax, htab(,%rcx,8)
	jmp	.LBB34_45
.LBB34_41:                              # %if.else111
                                        #   in Loop: Header=BB34_9 Depth=1
	movq	in_count, %rax
	cmpq	checkpoint, %rax
	jl	.LBB34_44
# %bb.42:                               # %land.lhs.true
                                        #   in Loop: Header=BB34_9 Depth=1
	cmpl	$0, block_compress
	je	.LBB34_44
# %bb.43:                               # %if.then115
                                        #   in Loop: Header=BB34_9 Depth=1
	callq	cl_block
.LBB34_44:                              # %if.end116
                                        #   in Loop: Header=BB34_9 Depth=1
	jmp	.LBB34_45
.LBB34_45:                              # %if.end117
                                        #   in Loop: Header=BB34_9 Depth=1
	jmp	.LBB34_12
.LBB34_46:                              # %while.end
	movq	-32(%rbp), %rdi
	callq	output
	movq	out_count, %rax
	addq	$1, %rax
	movq	%rax, out_count
	movq	$-1, %rdi
	callq	output
	cmpl	$0, zcat_flg
	jne	.LBB34_49
# %bb.47:                               # %land.lhs.true121
	cmpl	$0, quiet
	jne	.LBB34_49
# %bb.48:                               # %if.then123
	movq	stderr, %rdi
	movabsq	$.L.str.19, %rsi
	movb	$0, %al
	callq	fprintf
	movq	stderr, %rdi
	movq	in_count, %rsi
	subq	bytes_out, %rsi
	movq	in_count, %rdx
	callq	prratio
.LBB34_49:                              # %if.end126
	movq	bytes_out, %rax
	cmpq	in_count, %rax
	jle	.LBB34_51
# %bb.50:                               # %if.then129
	movl	$2, exit_stat
.LBB34_51:                              # %if.end130
	cmpl	$2133580397, -56(%rbp)  # imm = 0x7F2BDA6D
	jne	.LBB34_53
.LBB34_52:
	addq	$64, %rsp
	popq	%rbp
	.cfi_def_cfa %rsp, 8
	retq
.LBB34_53:                              # %func_exit
	.cfi_def_cfa %rbp, 16
	callq	detect_breach
	jmp	.LBB34_52
.Lfunc_end34:
	.size	compress.19, .Lfunc_end34-compress.19
	.cfi_endproc
                                        # -- End function
	.globl	compress.20             # -- Begin function compress.20
	.p2align	4, 0x90
	.type	compress.20,@function
compress.20:                            # @compress.20
	.cfi_startproc
# %bb.0:                                # %entry
	pushq	%rbp
	.cfi_def_cfa_offset 16
	.cfi_offset %rbp, -16
	movq	%rsp, %rbp
	.cfi_def_cfa_register %rbp
	subq	$64, %rsp
	movl	$1895905460, -56(%rbp)  # imm = 0x710138B4
	movq	$0, -8(%rbp)
	cmpl	$0, nomagic
	jne	.LBB35_4
# %bb.1:                                # %if.then
	movzbl	magic_header, %edi
	callq	putchar
	movzbl	magic_header+1, %edi
	callq	putchar
	movl	maxbits, %eax
	orl	block_compress, %eax
	movsbl	%al, %edi
	callq	putchar
	movq	stdout, %rdi
	callq	ferror
	cmpl	$0, %eax
	je	.LBB35_3
# %bb.2:                                # %if.then7
	callq	writeerr
.LBB35_3:                               # %if.end
	jmp	.LBB35_4
.LBB35_4:                               # %if.end8
	movl	$0, offset
	movq	$3, bytes_out
	movq	$0, out_count
	movl	$0, clear_flg
	movq	$0, ratio
	movq	$1, in_count
	movq	$10000, checkpoint      # imm = 0x2710
	movl	$9, n_bits
	movq	$511, maxcode           # imm = 0x1FF
	movl	block_compress, %eax
	cmpl	$0, %eax
	movl	$257, %eax              # imm = 0x101
	movl	$256, %ecx              # imm = 0x100
	cmovnel	%eax, %ecx
	movslq	%ecx, %rax
	movq	%rax, free_ent
	callq	getchar
	cltq
	movq	%rax, -24(%rbp)
	movl	$0, -16(%rbp)
	movq	hsize, %rax
	movq	%rax, -32(%rbp)
.LBB35_5:                               # %for.cond
                                        # =>This Inner Loop Header: Depth=1
	cmpq	$65536, -32(%rbp)       # imm = 0x10000
	jge	.LBB35_8
# %bb.6:                                # %for.body
                                        #   in Loop: Header=BB35_5 Depth=1
	movl	-16(%rbp), %eax
	addl	$1, %eax
	movl	%eax, -16(%rbp)
# %bb.7:                                # %for.inc
                                        #   in Loop: Header=BB35_5 Depth=1
	movq	-32(%rbp), %rax
	shlq	$1, %rax
	movq	%rax, -32(%rbp)
	jmp	.LBB35_5
.LBB35_8:                               # %for.end
	movl	$8, %eax
	subl	-16(%rbp), %eax
	movl	%eax, -16(%rbp)
	movq	hsize, %rax
	movq	%rax, -48(%rbp)
	movq	-48(%rbp), %rdi
	callq	cl_hash
.LBB35_9:                               # %while.cond
                                        # =>This Inner Loop Header: Depth=1
	callq	getchar
	movl	%eax, -36(%rbp)
	cmpl	$-1, %eax
	je	.LBB35_46
# %bb.10:                               # %while.body
                                        #   in Loop: Header=BB35_9 Depth=1
	movq	in_count, %rax
	addq	$1, %rax
	movq	%rax, in_count
	movslq	-36(%rbp), %rax
	movl	maxbits, %ecx
                                        # kill: def $cl killed $rcx
	shlq	%cl, %rax
	addq	-24(%rbp), %rax
	movq	%rax, -32(%rbp)
	movl	-36(%rbp), %eax
	movl	-16(%rbp), %ecx
                                        # kill: def $cl killed $ecx
	shll	%cl, %eax
	cltq
	xorq	-24(%rbp), %rax
	movq	%rax, -8(%rbp)
	movq	-8(%rbp), %rax
	movq	htab(,%rax,8), %rax
	cmpq	-32(%rbp), %rax
	jne	.LBB35_13
# %bb.11:                               # %if.then24
                                        #   in Loop: Header=BB35_9 Depth=1
	movq	-8(%rbp), %rax
	movzwl	codetab(,%rax,2), %eax
	movq	%rax, -24(%rbp)
.LBB35_12:                              # %while.cond.backedge
                                        #   in Loop: Header=BB35_9 Depth=1
	jmp	.LBB35_9
.LBB35_13:                              # %if.else
                                        #   in Loop: Header=BB35_9 Depth=1
	movq	-8(%rbp), %rax
	cmpq	$0, htab(,%rax,8)
	jge	.LBB35_15
# %bb.14:                               # %if.then30
                                        #   in Loop: Header=BB35_9 Depth=1
	jmp	.LBB35_39
.LBB35_15:                              # %if.end31
                                        #   in Loop: Header=BB35_9 Depth=1
	jmp	.LBB35_16
.LBB35_16:                              # %if.end32
                                        #   in Loop: Header=BB35_9 Depth=1
	movq	-48(%rbp), %rax
	subq	-8(%rbp), %rax
	movl	%eax, -12(%rbp)
	cmpq	$0, -8(%rbp)
	jne	.LBB35_18
# %bb.17:                               # %if.then37
                                        #   in Loop: Header=BB35_9 Depth=1
	movl	$1, -12(%rbp)
.LBB35_18:                              # %if.end38
                                        #   in Loop: Header=BB35_9 Depth=1
	movslq	-12(%rbp), %rax
	movq	-8(%rbp), %rcx
	subq	%rax, %rcx
	movq	%rcx, -8(%rbp)
	cmpq	$0, %rcx
	jge	.LBB35_20
# %bb.19:                               # %if.then43
                                        #   in Loop: Header=BB35_9 Depth=1
	movq	-48(%rbp), %rax
	addq	-8(%rbp), %rax
	movq	%rax, -8(%rbp)
.LBB35_20:                              # %if.end45
                                        #   in Loop: Header=BB35_9 Depth=1
	movq	-8(%rbp), %rax
	movq	htab(,%rax,8), %rax
	cmpq	-32(%rbp), %rax
	jne	.LBB35_22
# %bb.21:                               # %if.then49
                                        #   in Loop: Header=BB35_9 Depth=1
	movq	-8(%rbp), %rax
	movzwl	codetab(,%rax,2), %eax
	movq	%rax, -24(%rbp)
	jmp	.LBB35_12
.LBB35_22:                              # %if.end52
                                        #   in Loop: Header=BB35_9 Depth=1
	movq	-8(%rbp), %rax
	cmpq	$0, htab(,%rax,8)
	jg	.LBB35_24
# %bb.23:                               # %if.then56
                                        #   in Loop: Header=BB35_9 Depth=1
	jmp	.LBB35_39
.LBB35_24:                              # %if.end57
                                        #   in Loop: Header=BB35_9 Depth=1
	movslq	-12(%rbp), %rax
	movq	-8(%rbp), %rcx
	subq	%rax, %rcx
	movq	%rcx, -8(%rbp)
	cmpq	$0, %rcx
	jge	.LBB35_26
# %bb.25:                               # %if.then62
                                        #   in Loop: Header=BB35_9 Depth=1
	movq	-48(%rbp), %rax
	addq	-8(%rbp), %rax
	movq	%rax, -8(%rbp)
.LBB35_26:                              # %if.end64
                                        #   in Loop: Header=BB35_9 Depth=1
	movq	-8(%rbp), %rax
	movq	htab(,%rax,8), %rax
	cmpq	-32(%rbp), %rax
	jne	.LBB35_28
# %bb.27:                               # %if.then68
                                        #   in Loop: Header=BB35_9 Depth=1
	movq	-8(%rbp), %rax
	movzwl	codetab(,%rax,2), %eax
	movq	%rax, -24(%rbp)
	jmp	.LBB35_12
.LBB35_28:                              # %if.end71
                                        #   in Loop: Header=BB35_9 Depth=1
	movq	-8(%rbp), %rax
	cmpq	$0, htab(,%rax,8)
	jg	.LBB35_30
# %bb.29:                               # %if.then75
                                        #   in Loop: Header=BB35_9 Depth=1
	jmp	.LBB35_39
.LBB35_30:                              # %if.end76
                                        #   in Loop: Header=BB35_9 Depth=1
	movslq	-12(%rbp), %rax
	movq	-8(%rbp), %rcx
	subq	%rax, %rcx
	movq	%rcx, -8(%rbp)
	cmpq	$0, %rcx
	jge	.LBB35_32
# %bb.31:                               # %if.then81
                                        #   in Loop: Header=BB35_9 Depth=1
	movq	-48(%rbp), %rax
	addq	-8(%rbp), %rax
	movq	%rax, -8(%rbp)
.LBB35_32:                              # %if.end83
                                        #   in Loop: Header=BB35_9 Depth=1
	movq	-8(%rbp), %rax
	movq	htab(,%rax,8), %rax
	cmpq	-32(%rbp), %rax
	jne	.LBB35_34
# %bb.33:                               # %if.then87
                                        #   in Loop: Header=BB35_9 Depth=1
	movq	-8(%rbp), %rax
	movzwl	codetab(,%rax,2), %eax
	movq	%rax, -24(%rbp)
	jmp	.LBB35_12
.LBB35_34:                              # %if.end90
                                        #   in Loop: Header=BB35_9 Depth=1
	movq	-8(%rbp), %rax
	cmpq	$0, htab(,%rax,8)
	jle	.LBB35_38
# %bb.35:                               # %if.then94
                                        #   in Loop: Header=BB35_9 Depth=1
	movl	$0, -52(%rbp)
	movq	-32(%rbp), %rsi
	movl	-12(%rbp), %edx
	movq	-48(%rbp), %rcx
	leaq	-8(%rbp), %rdi
                                        # kill: def $ecx killed $ecx killed $rcx
	leaq	-24(%rbp), %r8
	callq	scott_hack
	movl	%eax, -52(%rbp)
	cmpl	$0, -52(%rbp)
	je	.LBB35_37
# %bb.36:                               # %if.then99
                                        #   in Loop: Header=BB35_9 Depth=1
	jmp	.LBB35_12
.LBB35_37:                              # %if.end100
                                        #   in Loop: Header=BB35_9 Depth=1
	jmp	.LBB35_38
.LBB35_38:                              # %if.end101
                                        #   in Loop: Header=BB35_9 Depth=1
	jmp	.LBB35_39
.LBB35_39:                              # %nomatch
                                        #   in Loop: Header=BB35_9 Depth=1
	movq	-24(%rbp), %rdi
	callq	output
	movq	out_count, %rax
	addq	$1, %rax
	movq	%rax, out_count
	movslq	-36(%rbp), %rax
	movq	%rax, -24(%rbp)
	movq	free_ent, %rax
	cmpq	maxmaxcode, %rax
	jge	.LBB35_41
# %bb.40:                               # %if.then106
                                        #   in Loop: Header=BB35_9 Depth=1
	movq	free_ent, %rax
	movq	%rax, %rcx
	addq	$1, %rcx
	movq	%rcx, free_ent
	movq	-8(%rbp), %rcx
	movw	%ax, codetab(,%rcx,2)
	movq	-32(%rbp), %rax
	movq	-8(%rbp), %rcx
	movq	%rax, htab(,%rcx,8)
	jmp	.LBB35_45
.LBB35_41:                              # %if.else111
                                        #   in Loop: Header=BB35_9 Depth=1
	movq	in_count, %rax
	cmpq	checkpoint, %rax
	jl	.LBB35_44
# %bb.42:                               # %land.lhs.true
                                        #   in Loop: Header=BB35_9 Depth=1
	cmpl	$0, block_compress
	je	.LBB35_44
# %bb.43:                               # %if.then115
                                        #   in Loop: Header=BB35_9 Depth=1
	callq	cl_block
.LBB35_44:                              # %if.end116
                                        #   in Loop: Header=BB35_9 Depth=1
	jmp	.LBB35_45
.LBB35_45:                              # %if.end117
                                        #   in Loop: Header=BB35_9 Depth=1
	jmp	.LBB35_12
.LBB35_46:                              # %while.end
	movq	-24(%rbp), %rdi
	callq	output
	movq	out_count, %rax
	addq	$1, %rax
	movq	%rax, out_count
	movq	$-1, %rdi
	callq	output
	cmpl	$0, zcat_flg
	jne	.LBB35_49
# %bb.47:                               # %land.lhs.true121
	cmpl	$0, quiet
	jne	.LBB35_49
# %bb.48:                               # %if.then123
	movq	stderr, %rdi
	movabsq	$.L.str.19, %rsi
	movb	$0, %al
	callq	fprintf
	movq	stderr, %rdi
	movq	in_count, %rsi
	subq	bytes_out, %rsi
	movq	in_count, %rdx
	callq	prratio
.LBB35_49:                              # %if.end126
	movq	bytes_out, %rax
	cmpq	in_count, %rax
	jle	.LBB35_51
# %bb.50:                               # %if.then129
	movl	$2, exit_stat
.LBB35_51:                              # %if.end130
	cmpl	$1895905460, -56(%rbp)  # imm = 0x710138B4
	jne	.LBB35_53
.LBB35_52:
	addq	$64, %rsp
	popq	%rbp
	.cfi_def_cfa %rsp, 8
	retq
.LBB35_53:                              # %func_exit
	.cfi_def_cfa %rbp, 16
	callq	detect_breach
	jmp	.LBB35_52
.Lfunc_end35:
	.size	compress.20, .Lfunc_end35-compress.20
	.cfi_endproc
                                        # -- End function
	.globl	getcode.21              # -- Begin function getcode.21
	.p2align	4, 0x90
	.type	getcode.21,@function
getcode.21:                             # @getcode.21
	.cfi_startproc
# %bb.0:                                # %entry
	pushq	%rbp
	.cfi_def_cfa_offset 16
	.cfi_offset %rbp, -16
	movq	%rsp, %rbp
	.cfi_def_cfa_register %rbp
	pushq	%rbx
	subq	$40, %rsp
	.cfi_offset %rbx, -24
	movl	$1127804710, -36(%rbp)  # imm = 0x4338EF26
	movabsq	$getcode.buf, %rax
	movq	%rax, -24(%rbp)
	cmpl	$0, clear_flg
	jg	.LBB36_3
# %bb.1:                                # %lor.lhs.false
	movl	getcode.offset, %eax
	cmpl	getcode.size, %eax
	jge	.LBB36_3
# %bb.2:                                # %lor.lhs.false2
	movq	free_ent, %rax
	cmpq	maxcode, %rax
	jle	.LBB36_13
.LBB36_3:                               # %if.then
	movq	free_ent, %rax
	cmpq	maxcode, %rax
	jle	.LBB36_8
# %bb.4:                                # %if.then5
	movl	n_bits, %eax
	addl	$1, %eax
	movl	%eax, n_bits
	movl	n_bits, %eax
	cmpl	maxbits, %eax
	jne	.LBB36_6
# %bb.5:                                # %if.then7
	movq	maxmaxcode, %rax
	movq	%rax, maxcode
	jmp	.LBB36_7
.LBB36_6:                               # %if.else
	movl	n_bits, %ecx
                                        # kill: def $cl killed $ecx
	movl	$1, %eax
	shll	%cl, %eax
	subl	$1, %eax
	cltq
	movq	%rax, maxcode
.LBB36_7:                               # %if.end
	jmp	.LBB36_8
.LBB36_8:                               # %if.end8
	cmpl	$0, clear_flg
	jle	.LBB36_10
# %bb.9:                                # %if.then11
	movl	$9, n_bits
	movq	$511, maxcode           # imm = 0x1FF
	movl	$0, clear_flg
.LBB36_10:                              # %if.end12
	movslq	n_bits, %rdx
	movq	stdin, %rcx
	movabsq	$getcode.buf, %rdi
	movl	$1, %esi
	callq	fread
	movl	%eax, getcode.size
	cmpl	$0, getcode.size
	jg	.LBB36_12
# %bb.11:                               # %if.then17
	movq	$-1, -48(%rbp)
	jmp	.LBB36_16
.LBB36_12:                              # %if.end18
	movl	$0, getcode.offset
	movl	getcode.size, %eax
	shll	$3, %eax
	movl	n_bits, %ecx
	subl	$1, %ecx
	subl	%ecx, %eax
	movl	%eax, getcode.size
.LBB36_13:                              # %if.end22
	movl	getcode.offset, %eax
	movl	%eax, -12(%rbp)
	movl	n_bits, %eax
	movl	%eax, -16(%rbp)
	movl	-12(%rbp), %eax
	sarl	$3, %eax
	movq	-24(%rbp), %rcx
	cltq
	addq	%rax, %rcx
	movq	%rcx, -24(%rbp)
	movl	-12(%rbp), %eax
	andl	$7, %eax
	movl	%eax, -12(%rbp)
	movq	-24(%rbp), %rax
	movq	%rax, %rcx
	addq	$1, %rcx
	movq	%rcx, -24(%rbp)
	movzbl	(%rax), %eax
	movl	-12(%rbp), %ecx
                                        # kill: def $cl killed $ecx
	sarl	%cl, %eax
	cltq
	movq	%rax, -32(%rbp)
	movl	$8, %eax
	movl	$8, %ecx
	subl	-12(%rbp), %ecx
	movl	-16(%rbp), %edx
	subl	%ecx, %edx
	movl	%edx, -16(%rbp)
	subl	-12(%rbp), %eax
	movl	%eax, -12(%rbp)
	cmpl	$8, -16(%rbp)
	jl	.LBB36_15
# %bb.14:                               # %if.then31
	movq	-24(%rbp), %rax
	movq	%rax, %rcx
	addq	$1, %rcx
	movq	%rcx, -24(%rbp)
	movzbl	(%rax), %eax
	movl	-12(%rbp), %ecx
                                        # kill: def $cl killed $ecx
	shll	%cl, %eax
	cltq
	orq	-32(%rbp), %rax
	movq	%rax, -32(%rbp)
	movl	-12(%rbp), %eax
	addl	$8, %eax
	movl	%eax, -12(%rbp)
	movl	-16(%rbp), %eax
	subl	$8, %eax
	movl	%eax, -16(%rbp)
.LBB36_15:                              # %if.end37
	movq	-24(%rbp), %rax
	movzbl	(%rax), %eax
	movslq	-16(%rbp), %rcx
	movzbl	rmask(,%rcx), %ecx
	andl	%ecx, %eax
	movl	-12(%rbp), %ecx
                                        # kill: def $cl killed $ecx
	shll	%cl, %eax
	cltq
	orq	-32(%rbp), %rax
	movq	%rax, -32(%rbp)
	movl	n_bits, %eax
	addl	getcode.offset, %eax
	movl	%eax, getcode.offset
	movq	-32(%rbp), %rax
	movq	%rax, -48(%rbp)
.LBB36_16:                              # %return
	movq	-48(%rbp), %rbx
	cmpl	$1127804710, -36(%rbp)  # imm = 0x4338EF26
	jne	.LBB36_18
.LBB36_17:
	movq	%rbx, %rax
	addq	$40, %rsp
	popq	%rbx
	popq	%rbp
	.cfi_def_cfa %rsp, 8
	retq
.LBB36_18:                              # %func_exit
	.cfi_def_cfa %rbp, 16
	callq	detect_breach
	jmp	.LBB36_17
.Lfunc_end36:
	.size	getcode.21, .Lfunc_end36-getcode.21
	.cfi_endproc
                                        # -- End function
	.globl	compress.22             # -- Begin function compress.22
	.p2align	4, 0x90
	.type	compress.22,@function
compress.22:                            # @compress.22
	.cfi_startproc
# %bb.0:                                # %entry
	pushq	%rbp
	.cfi_def_cfa_offset 16
	.cfi_offset %rbp, -16
	movq	%rsp, %rbp
	.cfi_def_cfa_register %rbp
	subq	$64, %rsp
	movl	$1350903979, -56(%rbp)  # imm = 0x508528AB
	movq	$0, -8(%rbp)
	cmpl	$0, nomagic
	jne	.LBB37_4
# %bb.1:                                # %if.then
	movzbl	magic_header, %edi
	callq	putchar
	movzbl	magic_header+1, %edi
	callq	putchar
	movl	maxbits, %eax
	orl	block_compress, %eax
	movsbl	%al, %edi
	callq	putchar
	movq	stdout, %rdi
	callq	ferror
	cmpl	$0, %eax
	je	.LBB37_3
# %bb.2:                                # %if.then7
	callq	writeerr
.LBB37_3:                               # %if.end
	jmp	.LBB37_4
.LBB37_4:                               # %if.end8
	movl	$0, offset
	movq	$3, bytes_out
	movq	$0, out_count
	movl	$0, clear_flg
	movq	$0, ratio
	movq	$1, in_count
	movq	$10000, checkpoint      # imm = 0x2710
	movl	$9, n_bits
	movq	$511, maxcode           # imm = 0x1FF
	movl	block_compress, %eax
	cmpl	$0, %eax
	movl	$257, %eax              # imm = 0x101
	movl	$256, %ecx              # imm = 0x100
	cmovnel	%eax, %ecx
	movslq	%ecx, %rax
	movq	%rax, free_ent
	callq	getchar
	cltq
	movq	%rax, -24(%rbp)
	movl	$0, -16(%rbp)
	movq	hsize, %rax
	movq	%rax, -32(%rbp)
.LBB37_5:                               # %for.cond
                                        # =>This Inner Loop Header: Depth=1
	cmpq	$65536, -32(%rbp)       # imm = 0x10000
	jge	.LBB37_8
# %bb.6:                                # %for.body
                                        #   in Loop: Header=BB37_5 Depth=1
	movl	-16(%rbp), %eax
	addl	$1, %eax
	movl	%eax, -16(%rbp)
# %bb.7:                                # %for.inc
                                        #   in Loop: Header=BB37_5 Depth=1
	movq	-32(%rbp), %rax
	shlq	$1, %rax
	movq	%rax, -32(%rbp)
	jmp	.LBB37_5
.LBB37_8:                               # %for.end
	movl	$8, %eax
	subl	-16(%rbp), %eax
	movl	%eax, -16(%rbp)
	movq	hsize, %rax
	movq	%rax, -48(%rbp)
	movq	-48(%rbp), %rdi
	callq	cl_hash
.LBB37_9:                               # %while.cond
                                        # =>This Inner Loop Header: Depth=1
	callq	getchar
	movl	%eax, -36(%rbp)
	cmpl	$-1, %eax
	je	.LBB37_46
# %bb.10:                               # %while.body
                                        #   in Loop: Header=BB37_9 Depth=1
	movq	in_count, %rax
	addq	$1, %rax
	movq	%rax, in_count
	movslq	-36(%rbp), %rax
	movl	maxbits, %ecx
                                        # kill: def $cl killed $rcx
	shlq	%cl, %rax
	addq	-24(%rbp), %rax
	movq	%rax, -32(%rbp)
	movl	-36(%rbp), %eax
	movl	-16(%rbp), %ecx
                                        # kill: def $cl killed $ecx
	shll	%cl, %eax
	cltq
	xorq	-24(%rbp), %rax
	movq	%rax, -8(%rbp)
	movq	-8(%rbp), %rax
	movq	htab(,%rax,8), %rax
	cmpq	-32(%rbp), %rax
	jne	.LBB37_13
# %bb.11:                               # %if.then24
                                        #   in Loop: Header=BB37_9 Depth=1
	movq	-8(%rbp), %rax
	movzwl	codetab(,%rax,2), %eax
	movq	%rax, -24(%rbp)
.LBB37_12:                              # %while.cond.backedge
                                        #   in Loop: Header=BB37_9 Depth=1
	jmp	.LBB37_9
.LBB37_13:                              # %if.else
                                        #   in Loop: Header=BB37_9 Depth=1
	movq	-8(%rbp), %rax
	cmpq	$0, htab(,%rax,8)
	jge	.LBB37_15
# %bb.14:                               # %if.then30
                                        #   in Loop: Header=BB37_9 Depth=1
	jmp	.LBB37_39
.LBB37_15:                              # %if.end31
                                        #   in Loop: Header=BB37_9 Depth=1
	jmp	.LBB37_16
.LBB37_16:                              # %if.end32
                                        #   in Loop: Header=BB37_9 Depth=1
	movq	-48(%rbp), %rax
	subq	-8(%rbp), %rax
	movl	%eax, -12(%rbp)
	cmpq	$0, -8(%rbp)
	jne	.LBB37_18
# %bb.17:                               # %if.then37
                                        #   in Loop: Header=BB37_9 Depth=1
	movl	$1, -12(%rbp)
.LBB37_18:                              # %if.end38
                                        #   in Loop: Header=BB37_9 Depth=1
	movslq	-12(%rbp), %rax
	movq	-8(%rbp), %rcx
	subq	%rax, %rcx
	movq	%rcx, -8(%rbp)
	cmpq	$0, %rcx
	jge	.LBB37_20
# %bb.19:                               # %if.then43
                                        #   in Loop: Header=BB37_9 Depth=1
	movq	-48(%rbp), %rax
	addq	-8(%rbp), %rax
	movq	%rax, -8(%rbp)
.LBB37_20:                              # %if.end45
                                        #   in Loop: Header=BB37_9 Depth=1
	movq	-8(%rbp), %rax
	movq	htab(,%rax,8), %rax
	cmpq	-32(%rbp), %rax
	jne	.LBB37_22
# %bb.21:                               # %if.then49
                                        #   in Loop: Header=BB37_9 Depth=1
	movq	-8(%rbp), %rax
	movzwl	codetab(,%rax,2), %eax
	movq	%rax, -24(%rbp)
	jmp	.LBB37_12
.LBB37_22:                              # %if.end52
                                        #   in Loop: Header=BB37_9 Depth=1
	movq	-8(%rbp), %rax
	cmpq	$0, htab(,%rax,8)
	jg	.LBB37_24
# %bb.23:                               # %if.then56
                                        #   in Loop: Header=BB37_9 Depth=1
	jmp	.LBB37_39
.LBB37_24:                              # %if.end57
                                        #   in Loop: Header=BB37_9 Depth=1
	movslq	-12(%rbp), %rax
	movq	-8(%rbp), %rcx
	subq	%rax, %rcx
	movq	%rcx, -8(%rbp)
	cmpq	$0, %rcx
	jge	.LBB37_26
# %bb.25:                               # %if.then62
                                        #   in Loop: Header=BB37_9 Depth=1
	movq	-48(%rbp), %rax
	addq	-8(%rbp), %rax
	movq	%rax, -8(%rbp)
.LBB37_26:                              # %if.end64
                                        #   in Loop: Header=BB37_9 Depth=1
	movq	-8(%rbp), %rax
	movq	htab(,%rax,8), %rax
	cmpq	-32(%rbp), %rax
	jne	.LBB37_28
# %bb.27:                               # %if.then68
                                        #   in Loop: Header=BB37_9 Depth=1
	movq	-8(%rbp), %rax
	movzwl	codetab(,%rax,2), %eax
	movq	%rax, -24(%rbp)
	jmp	.LBB37_12
.LBB37_28:                              # %if.end71
                                        #   in Loop: Header=BB37_9 Depth=1
	movq	-8(%rbp), %rax
	cmpq	$0, htab(,%rax,8)
	jg	.LBB37_30
# %bb.29:                               # %if.then75
                                        #   in Loop: Header=BB37_9 Depth=1
	jmp	.LBB37_39
.LBB37_30:                              # %if.end76
                                        #   in Loop: Header=BB37_9 Depth=1
	movslq	-12(%rbp), %rax
	movq	-8(%rbp), %rcx
	subq	%rax, %rcx
	movq	%rcx, -8(%rbp)
	cmpq	$0, %rcx
	jge	.LBB37_32
# %bb.31:                               # %if.then81
                                        #   in Loop: Header=BB37_9 Depth=1
	movq	-48(%rbp), %rax
	addq	-8(%rbp), %rax
	movq	%rax, -8(%rbp)
.LBB37_32:                              # %if.end83
                                        #   in Loop: Header=BB37_9 Depth=1
	movq	-8(%rbp), %rax
	movq	htab(,%rax,8), %rax
	cmpq	-32(%rbp), %rax
	jne	.LBB37_34
# %bb.33:                               # %if.then87
                                        #   in Loop: Header=BB37_9 Depth=1
	movq	-8(%rbp), %rax
	movzwl	codetab(,%rax,2), %eax
	movq	%rax, -24(%rbp)
	jmp	.LBB37_12
.LBB37_34:                              # %if.end90
                                        #   in Loop: Header=BB37_9 Depth=1
	movq	-8(%rbp), %rax
	cmpq	$0, htab(,%rax,8)
	jle	.LBB37_38
# %bb.35:                               # %if.then94
                                        #   in Loop: Header=BB37_9 Depth=1
	movl	$0, -52(%rbp)
	movq	-32(%rbp), %rsi
	movl	-12(%rbp), %edx
	movq	-48(%rbp), %rcx
	leaq	-8(%rbp), %rdi
                                        # kill: def $ecx killed $ecx killed $rcx
	leaq	-24(%rbp), %r8
	callq	scott_hack
	movl	%eax, -52(%rbp)
	cmpl	$0, -52(%rbp)
	je	.LBB37_37
# %bb.36:                               # %if.then99
                                        #   in Loop: Header=BB37_9 Depth=1
	jmp	.LBB37_12
.LBB37_37:                              # %if.end100
                                        #   in Loop: Header=BB37_9 Depth=1
	jmp	.LBB37_38
.LBB37_38:                              # %if.end101
                                        #   in Loop: Header=BB37_9 Depth=1
	jmp	.LBB37_39
.LBB37_39:                              # %nomatch
                                        #   in Loop: Header=BB37_9 Depth=1
	movq	-24(%rbp), %rdi
	callq	output
	movq	out_count, %rax
	addq	$1, %rax
	movq	%rax, out_count
	movslq	-36(%rbp), %rax
	movq	%rax, -24(%rbp)
	movq	free_ent, %rax
	cmpq	maxmaxcode, %rax
	jge	.LBB37_41
# %bb.40:                               # %if.then106
                                        #   in Loop: Header=BB37_9 Depth=1
	movq	free_ent, %rax
	movq	%rax, %rcx
	addq	$1, %rcx
	movq	%rcx, free_ent
	movq	-8(%rbp), %rcx
	movw	%ax, codetab(,%rcx,2)
	movq	-32(%rbp), %rax
	movq	-8(%rbp), %rcx
	movq	%rax, htab(,%rcx,8)
	jmp	.LBB37_45
.LBB37_41:                              # %if.else111
                                        #   in Loop: Header=BB37_9 Depth=1
	movq	in_count, %rax
	cmpq	checkpoint, %rax
	jl	.LBB37_44
# %bb.42:                               # %land.lhs.true
                                        #   in Loop: Header=BB37_9 Depth=1
	cmpl	$0, block_compress
	je	.LBB37_44
# %bb.43:                               # %if.then115
                                        #   in Loop: Header=BB37_9 Depth=1
	callq	cl_block
.LBB37_44:                              # %if.end116
                                        #   in Loop: Header=BB37_9 Depth=1
	jmp	.LBB37_45
.LBB37_45:                              # %if.end117
                                        #   in Loop: Header=BB37_9 Depth=1
	jmp	.LBB37_12
.LBB37_46:                              # %while.end
	movq	-24(%rbp), %rdi
	callq	output
	movq	out_count, %rax
	addq	$1, %rax
	movq	%rax, out_count
	movq	$-1, %rdi
	callq	output
	cmpl	$0, zcat_flg
	jne	.LBB37_49
# %bb.47:                               # %land.lhs.true121
	cmpl	$0, quiet
	jne	.LBB37_49
# %bb.48:                               # %if.then123
	movq	stderr, %rdi
	movabsq	$.L.str.19, %rsi
	movb	$0, %al
	callq	fprintf
	movq	stderr, %rdi
	movq	in_count, %rsi
	subq	bytes_out, %rsi
	movq	in_count, %rdx
	callq	prratio
.LBB37_49:                              # %if.end126
	movq	bytes_out, %rax
	cmpq	in_count, %rax
	jle	.LBB37_51
# %bb.50:                               # %if.then129
	movl	$2, exit_stat
.LBB37_51:                              # %if.end130
	cmpl	$1350903979, -56(%rbp)  # imm = 0x508528AB
	jne	.LBB37_53
.LBB37_52:
	addq	$64, %rsp
	popq	%rbp
	.cfi_def_cfa %rsp, 8
	retq
.LBB37_53:                              # %func_exit
	.cfi_def_cfa %rbp, 16
	callq	detect_breach
	jmp	.LBB37_52
.Lfunc_end37:
	.size	compress.22, .Lfunc_end37-compress.22
	.cfi_endproc
                                        # -- End function
	.globl	output.23               # -- Begin function output.23
	.p2align	4, 0x90
	.type	output.23,@function
output.23:                              # @output.23
	.cfi_startproc
# %bb.0:                                # %entry
	pushq	%rbp
	.cfi_def_cfa_offset 16
	.cfi_offset %rbp, -16
	movq	%rsp, %rbp
	.cfi_def_cfa_register %rbp
	subq	$32, %rsp
	movl	$398473527, -28(%rbp)   # imm = 0x17C03937
	movq	%rdi, -24(%rbp)
	movl	offset, %eax
	movl	%eax, -8(%rbp)
	movl	n_bits, %eax
	movl	%eax, -4(%rbp)
	movabsq	$buf, %rax
	movq	%rax, -16(%rbp)
	cmpq	$0, -24(%rbp)
	jl	.LBB38_24
# %bb.1:                                # %if.then
	movl	-8(%rbp), %eax
	sarl	$3, %eax
	movq	-16(%rbp), %rcx
	cltq
	addq	%rax, %rcx
	movq	%rcx, -16(%rbp)
	movl	-8(%rbp), %eax
	andl	$7, %eax
	movl	%eax, -8(%rbp)
	movq	-16(%rbp), %rax
	movsbl	(%rax), %eax
	movslq	-8(%rbp), %rcx
	movzbl	rmask(,%rcx), %ecx
	andl	%ecx, %eax
	cltq
	movq	-24(%rbp), %rdx
	movl	-8(%rbp), %ecx
                                        # kill: def $cl killed $rcx
	shlq	%cl, %rdx
	movslq	-8(%rbp), %rcx
	movzbl	lmask(,%rcx), %ecx
	andq	%rcx, %rdx
	orq	%rdx, %rax
	movq	-16(%rbp), %rcx
	movb	%al, (%rcx)
	movq	-16(%rbp), %rax
	addq	$1, %rax
	movq	%rax, -16(%rbp)
	movl	$8, %eax
	movl	$8, %ecx
	subl	-8(%rbp), %ecx
	movl	-4(%rbp), %edx
	subl	%ecx, %edx
	movl	%edx, -4(%rbp)
	subl	-8(%rbp), %eax
	movq	-24(%rbp), %rdx
	movl	%eax, %ecx
                                        # kill: def $cl killed $rcx
	sarq	%cl, %rdx
	movq	%rdx, -24(%rbp)
	cmpl	$8, -4(%rbp)
	jl	.LBB38_3
# %bb.2:                                # %if.then15
	movq	-24(%rbp), %rax
	movq	-16(%rbp), %rcx
	movq	%rcx, %rdx
	addq	$1, %rdx
	movq	%rdx, -16(%rbp)
	movb	%al, (%rcx)
	movq	-24(%rbp), %rax
	sarq	$8, %rax
	movq	%rax, -24(%rbp)
	movl	-4(%rbp), %eax
	subl	$8, %eax
	movl	%eax, -4(%rbp)
.LBB38_3:                               # %if.end
	cmpl	$0, -4(%rbp)
	je	.LBB38_5
# %bb.4:                                # %if.then20
	movq	-24(%rbp), %rax
	movq	-16(%rbp), %rcx
	movb	%al, (%rcx)
.LBB38_5:                               # %if.end22
	movl	n_bits, %eax
	addl	offset, %eax
	movl	%eax, offset
	movl	offset, %eax
	movl	n_bits, %ecx
	shll	$3, %ecx
	cmpl	%ecx, %eax
	jne	.LBB38_10
# %bb.6:                                # %if.then26
	movabsq	$buf, %rax
	movq	%rax, -16(%rbp)
	movl	n_bits, %eax
	movl	%eax, -4(%rbp)
	movslq	-4(%rbp), %rax
	addq	bytes_out, %rax
	movq	%rax, bytes_out
.LBB38_7:                               # %do.body
                                        # =>This Inner Loop Header: Depth=1
	movq	-16(%rbp), %rax
	movq	%rax, %rcx
	addq	$1, %rcx
	movq	%rcx, -16(%rbp)
	movsbl	(%rax), %edi
	callq	putchar
# %bb.8:                                # %do.cond
                                        #   in Loop: Header=BB38_7 Depth=1
	movl	-4(%rbp), %eax
	addl	$-1, %eax
	movl	%eax, -4(%rbp)
	cmpl	$0, %eax
	jne	.LBB38_7
# %bb.9:                                # %do.end
	movl	$0, offset
.LBB38_10:                              # %if.end32
	movq	free_ent, %rax
	cmpq	maxcode, %rax
	jg	.LBB38_12
# %bb.11:                               # %lor.lhs.false
	cmpl	$0, clear_flg
	jle	.LBB38_23
.LBB38_12:                              # %if.then37
	cmpl	$0, offset
	jle	.LBB38_16
# %bb.13:                               # %if.then40
	movslq	n_bits, %rdx
	movq	stdout, %rcx
	movabsq	$buf, %rdi
	movl	$1, %esi
	callq	fwrite
	movslq	n_bits, %rcx
	cmpq	%rcx, %rax
	je	.LBB38_15
# %bb.14:                               # %if.then46
	callq	writeerr
.LBB38_15:                              # %if.end47
	movslq	n_bits, %rax
	addq	bytes_out, %rax
	movq	%rax, bytes_out
.LBB38_16:                              # %if.end50
	movl	$0, offset
	cmpl	$0, clear_flg
	je	.LBB38_18
# %bb.17:                               # %if.then52
	movl	$9, n_bits
	movq	$511, maxcode           # imm = 0x1FF
	movl	$0, clear_flg
	jmp	.LBB38_22
.LBB38_18:                              # %if.else
	movl	n_bits, %eax
	addl	$1, %eax
	movl	%eax, n_bits
	movl	n_bits, %eax
	cmpl	maxbits, %eax
	jne	.LBB38_20
# %bb.19:                               # %if.then55
	movq	maxmaxcode, %rax
	movq	%rax, maxcode
	jmp	.LBB38_21
.LBB38_20:                              # %if.else56
	movl	n_bits, %ecx
                                        # kill: def $cl killed $ecx
	movl	$1, %eax
	shll	%cl, %eax
	subl	$1, %eax
	cltq
	movq	%rax, maxcode
.LBB38_21:                              # %if.end60
	jmp	.LBB38_22
.LBB38_22:                              # %if.end61
	jmp	.LBB38_23
.LBB38_23:                              # %if.end62
	jmp	.LBB38_29
.LBB38_24:                              # %if.else63
	cmpl	$0, offset
	jle	.LBB38_26
# %bb.25:                               # %if.then66
	movl	offset, %eax
	addl	$7, %eax
	cltd
	movl	$8, %ecx
	idivl	%ecx
	movslq	%eax, %rdx
	movq	stdout, %rcx
	movabsq	$buf, %rdi
	movl	$1, %esi
	callq	fwrite
.LBB38_26:                              # %if.end70
	movl	offset, %eax
	addl	$7, %eax
	cltd
	movl	$8, %ecx
	idivl	%ecx
	cltq
	addq	bytes_out, %rax
	movq	%rax, bytes_out
	movl	$0, offset
	movq	stdout, %rdi
	callq	fflush
	movq	stdout, %rdi
	callq	ferror
	cmpl	$0, %eax
	je	.LBB38_28
# %bb.27:                               # %if.then78
	callq	writeerr
.LBB38_28:                              # %if.end79
	jmp	.LBB38_29
.LBB38_29:                              # %if.end80
	cmpl	$398473527, -28(%rbp)   # imm = 0x17C03937
	jne	.LBB38_31
.LBB38_30:
	addq	$32, %rsp
	popq	%rbp
	.cfi_def_cfa %rsp, 8
	retq
.LBB38_31:                              # %func_exit
	.cfi_def_cfa %rbp, 16
	callq	detect_breach
	jmp	.LBB38_30
.Lfunc_end38:
	.size	output.23, .Lfunc_end38-output.23
	.cfi_endproc
                                        # -- End function
	.globl	output.24               # -- Begin function output.24
	.p2align	4, 0x90
	.type	output.24,@function
output.24:                              # @output.24
	.cfi_startproc
# %bb.0:                                # %entry
	pushq	%rbp
	.cfi_def_cfa_offset 16
	.cfi_offset %rbp, -16
	movq	%rsp, %rbp
	.cfi_def_cfa_register %rbp
	subq	$32, %rsp
	movl	$208673993, -28(%rbp)   # imm = 0xC701CC9
	movq	%rdi, -24(%rbp)
	movl	offset, %eax
	movl	%eax, -8(%rbp)
	movl	n_bits, %eax
	movl	%eax, -4(%rbp)
	movabsq	$buf, %rax
	movq	%rax, -16(%rbp)
	cmpq	$0, -24(%rbp)
	jl	.LBB39_24
# %bb.1:                                # %if.then
	movl	-8(%rbp), %eax
	sarl	$3, %eax
	movq	-16(%rbp), %rcx
	cltq
	addq	%rax, %rcx
	movq	%rcx, -16(%rbp)
	movl	-8(%rbp), %eax
	andl	$7, %eax
	movl	%eax, -8(%rbp)
	movq	-16(%rbp), %rax
	movsbl	(%rax), %eax
	movslq	-8(%rbp), %rcx
	movzbl	rmask(,%rcx), %ecx
	andl	%ecx, %eax
	cltq
	movq	-24(%rbp), %rdx
	movl	-8(%rbp), %ecx
                                        # kill: def $cl killed $rcx
	shlq	%cl, %rdx
	movslq	-8(%rbp), %rcx
	movzbl	lmask(,%rcx), %ecx
	andq	%rcx, %rdx
	orq	%rdx, %rax
	movq	-16(%rbp), %rcx
	movb	%al, (%rcx)
	movq	-16(%rbp), %rax
	addq	$1, %rax
	movq	%rax, -16(%rbp)
	movl	$8, %eax
	movl	$8, %ecx
	subl	-8(%rbp), %ecx
	movl	-4(%rbp), %edx
	subl	%ecx, %edx
	movl	%edx, -4(%rbp)
	subl	-8(%rbp), %eax
	movq	-24(%rbp), %rdx
	movl	%eax, %ecx
                                        # kill: def $cl killed $rcx
	sarq	%cl, %rdx
	movq	%rdx, -24(%rbp)
	cmpl	$8, -4(%rbp)
	jl	.LBB39_3
# %bb.2:                                # %if.then15
	movq	-24(%rbp), %rax
	movq	-16(%rbp), %rcx
	movq	%rcx, %rdx
	addq	$1, %rdx
	movq	%rdx, -16(%rbp)
	movb	%al, (%rcx)
	movq	-24(%rbp), %rax
	sarq	$8, %rax
	movq	%rax, -24(%rbp)
	movl	-4(%rbp), %eax
	subl	$8, %eax
	movl	%eax, -4(%rbp)
.LBB39_3:                               # %if.end
	cmpl	$0, -4(%rbp)
	je	.LBB39_5
# %bb.4:                                # %if.then20
	movq	-24(%rbp), %rax
	movq	-16(%rbp), %rcx
	movb	%al, (%rcx)
.LBB39_5:                               # %if.end22
	movl	n_bits, %eax
	addl	offset, %eax
	movl	%eax, offset
	movl	offset, %eax
	movl	n_bits, %ecx
	shll	$3, %ecx
	cmpl	%ecx, %eax
	jne	.LBB39_10
# %bb.6:                                # %if.then26
	movabsq	$buf, %rax
	movq	%rax, -16(%rbp)
	movl	n_bits, %eax
	movl	%eax, -4(%rbp)
	movslq	-4(%rbp), %rax
	addq	bytes_out, %rax
	movq	%rax, bytes_out
.LBB39_7:                               # %do.body
                                        # =>This Inner Loop Header: Depth=1
	movq	-16(%rbp), %rax
	movq	%rax, %rcx
	addq	$1, %rcx
	movq	%rcx, -16(%rbp)
	movsbl	(%rax), %edi
	callq	putchar
# %bb.8:                                # %do.cond
                                        #   in Loop: Header=BB39_7 Depth=1
	movl	-4(%rbp), %eax
	addl	$-1, %eax
	movl	%eax, -4(%rbp)
	cmpl	$0, %eax
	jne	.LBB39_7
# %bb.9:                                # %do.end
	movl	$0, offset
.LBB39_10:                              # %if.end32
	movq	free_ent, %rax
	cmpq	maxcode, %rax
	jg	.LBB39_12
# %bb.11:                               # %lor.lhs.false
	cmpl	$0, clear_flg
	jle	.LBB39_23
.LBB39_12:                              # %if.then37
	cmpl	$0, offset
	jle	.LBB39_16
# %bb.13:                               # %if.then40
	movslq	n_bits, %rdx
	movq	stdout, %rcx
	movabsq	$buf, %rdi
	movl	$1, %esi
	callq	fwrite
	movslq	n_bits, %rcx
	cmpq	%rcx, %rax
	je	.LBB39_15
# %bb.14:                               # %if.then46
	callq	writeerr
.LBB39_15:                              # %if.end47
	movslq	n_bits, %rax
	addq	bytes_out, %rax
	movq	%rax, bytes_out
.LBB39_16:                              # %if.end50
	movl	$0, offset
	cmpl	$0, clear_flg
	je	.LBB39_18
# %bb.17:                               # %if.then52
	movl	$9, n_bits
	movq	$511, maxcode           # imm = 0x1FF
	movl	$0, clear_flg
	jmp	.LBB39_22
.LBB39_18:                              # %if.else
	movl	n_bits, %eax
	addl	$1, %eax
	movl	%eax, n_bits
	movl	n_bits, %eax
	cmpl	maxbits, %eax
	jne	.LBB39_20
# %bb.19:                               # %if.then55
	movq	maxmaxcode, %rax
	movq	%rax, maxcode
	jmp	.LBB39_21
.LBB39_20:                              # %if.else56
	movl	n_bits, %ecx
                                        # kill: def $cl killed $ecx
	movl	$1, %eax
	shll	%cl, %eax
	subl	$1, %eax
	cltq
	movq	%rax, maxcode
.LBB39_21:                              # %if.end60
	jmp	.LBB39_22
.LBB39_22:                              # %if.end61
	jmp	.LBB39_23
.LBB39_23:                              # %if.end62
	jmp	.LBB39_29
.LBB39_24:                              # %if.else63
	cmpl	$0, offset
	jle	.LBB39_26
# %bb.25:                               # %if.then66
	movl	offset, %eax
	addl	$7, %eax
	cltd
	movl	$8, %ecx
	idivl	%ecx
	movslq	%eax, %rdx
	movq	stdout, %rcx
	movabsq	$buf, %rdi
	movl	$1, %esi
	callq	fwrite
.LBB39_26:                              # %if.end70
	movl	offset, %eax
	addl	$7, %eax
	cltd
	movl	$8, %ecx
	idivl	%ecx
	cltq
	addq	bytes_out, %rax
	movq	%rax, bytes_out
	movl	$0, offset
	movq	stdout, %rdi
	callq	fflush
	movq	stdout, %rdi
	callq	ferror
	cmpl	$0, %eax
	je	.LBB39_28
# %bb.27:                               # %if.then78
	callq	writeerr
.LBB39_28:                              # %if.end79
	jmp	.LBB39_29
.LBB39_29:                              # %if.end80
	cmpl	$208673993, -28(%rbp)   # imm = 0xC701CC9
	jne	.LBB39_31
.LBB39_30:
	addq	$32, %rsp
	popq	%rbp
	.cfi_def_cfa %rsp, 8
	retq
.LBB39_31:                              # %func_exit
	.cfi_def_cfa %rbp, 16
	callq	detect_breach
	jmp	.LBB39_30
.Lfunc_end39:
	.size	output.24, .Lfunc_end39-output.24
	.cfi_endproc
                                        # -- End function
	.globl	getcode.25              # -- Begin function getcode.25
	.p2align	4, 0x90
	.type	getcode.25,@function
getcode.25:                             # @getcode.25
	.cfi_startproc
# %bb.0:                                # %entry
	pushq	%rbp
	.cfi_def_cfa_offset 16
	.cfi_offset %rbp, -16
	movq	%rsp, %rbp
	.cfi_def_cfa_register %rbp
	pushq	%rbx
	subq	$40, %rsp
	.cfi_offset %rbx, -24
	movl	$1585393659, -36(%rbp)  # imm = 0x5E7F2FFB
	movabsq	$getcode.buf, %rax
	movq	%rax, -24(%rbp)
	cmpl	$0, clear_flg
	jg	.LBB40_3
# %bb.1:                                # %lor.lhs.false
	movl	getcode.offset, %eax
	cmpl	getcode.size, %eax
	jge	.LBB40_3
# %bb.2:                                # %lor.lhs.false2
	movq	free_ent, %rax
	cmpq	maxcode, %rax
	jle	.LBB40_13
.LBB40_3:                               # %if.then
	movq	free_ent, %rax
	cmpq	maxcode, %rax
	jle	.LBB40_8
# %bb.4:                                # %if.then5
	movl	n_bits, %eax
	addl	$1, %eax
	movl	%eax, n_bits
	movl	n_bits, %eax
	cmpl	maxbits, %eax
	jne	.LBB40_6
# %bb.5:                                # %if.then7
	movq	maxmaxcode, %rax
	movq	%rax, maxcode
	jmp	.LBB40_7
.LBB40_6:                               # %if.else
	movl	n_bits, %ecx
                                        # kill: def $cl killed $ecx
	movl	$1, %eax
	shll	%cl, %eax
	subl	$1, %eax
	cltq
	movq	%rax, maxcode
.LBB40_7:                               # %if.end
	jmp	.LBB40_8
.LBB40_8:                               # %if.end8
	cmpl	$0, clear_flg
	jle	.LBB40_10
# %bb.9:                                # %if.then11
	movl	$9, n_bits
	movq	$511, maxcode           # imm = 0x1FF
	movl	$0, clear_flg
.LBB40_10:                              # %if.end12
	movslq	n_bits, %rdx
	movq	stdin, %rcx
	movabsq	$getcode.buf, %rdi
	movl	$1, %esi
	callq	fread
	movl	%eax, getcode.size
	cmpl	$0, getcode.size
	jg	.LBB40_12
# %bb.11:                               # %if.then17
	movq	$-1, -48(%rbp)
	jmp	.LBB40_16
.LBB40_12:                              # %if.end18
	movl	$0, getcode.offset
	movl	getcode.size, %eax
	shll	$3, %eax
	movl	n_bits, %ecx
	subl	$1, %ecx
	subl	%ecx, %eax
	movl	%eax, getcode.size
.LBB40_13:                              # %if.end22
	movl	getcode.offset, %eax
	movl	%eax, -12(%rbp)
	movl	n_bits, %eax
	movl	%eax, -16(%rbp)
	movl	-12(%rbp), %eax
	sarl	$3, %eax
	movq	-24(%rbp), %rcx
	cltq
	addq	%rax, %rcx
	movq	%rcx, -24(%rbp)
	movl	-12(%rbp), %eax
	andl	$7, %eax
	movl	%eax, -12(%rbp)
	movq	-24(%rbp), %rax
	movq	%rax, %rcx
	addq	$1, %rcx
	movq	%rcx, -24(%rbp)
	movzbl	(%rax), %eax
	movl	-12(%rbp), %ecx
                                        # kill: def $cl killed $ecx
	sarl	%cl, %eax
	cltq
	movq	%rax, -32(%rbp)
	movl	$8, %eax
	movl	$8, %ecx
	subl	-12(%rbp), %ecx
	movl	-16(%rbp), %edx
	subl	%ecx, %edx
	movl	%edx, -16(%rbp)
	subl	-12(%rbp), %eax
	movl	%eax, -12(%rbp)
	cmpl	$8, -16(%rbp)
	jl	.LBB40_15
# %bb.14:                               # %if.then31
	movq	-24(%rbp), %rax
	movq	%rax, %rcx
	addq	$1, %rcx
	movq	%rcx, -24(%rbp)
	movzbl	(%rax), %eax
	movl	-12(%rbp), %ecx
                                        # kill: def $cl killed $ecx
	shll	%cl, %eax
	cltq
	orq	-32(%rbp), %rax
	movq	%rax, -32(%rbp)
	movl	-12(%rbp), %eax
	addl	$8, %eax
	movl	%eax, -12(%rbp)
	movl	-16(%rbp), %eax
	subl	$8, %eax
	movl	%eax, -16(%rbp)
.LBB40_15:                              # %if.end37
	movq	-24(%rbp), %rax
	movzbl	(%rax), %eax
	movslq	-16(%rbp), %rcx
	movzbl	rmask(,%rcx), %ecx
	andl	%ecx, %eax
	movl	-12(%rbp), %ecx
                                        # kill: def $cl killed $ecx
	shll	%cl, %eax
	cltq
	orq	-32(%rbp), %rax
	movq	%rax, -32(%rbp)
	movl	n_bits, %eax
	addl	getcode.offset, %eax
	movl	%eax, getcode.offset
	movq	-32(%rbp), %rax
	movq	%rax, -48(%rbp)
.LBB40_16:                              # %return
	movq	-48(%rbp), %rbx
	cmpl	$1585393659, -36(%rbp)  # imm = 0x5E7F2FFB
	jne	.LBB40_18
.LBB40_17:
	movq	%rbx, %rax
	addq	$40, %rsp
	popq	%rbx
	popq	%rbp
	.cfi_def_cfa %rsp, 8
	retq
.LBB40_18:                              # %func_exit
	.cfi_def_cfa %rbp, 16
	callq	detect_breach
	jmp	.LBB40_17
.Lfunc_end40:
	.size	getcode.25, .Lfunc_end40-getcode.25
	.cfi_endproc
                                        # -- End function
	.globl	scott_hack.26           # -- Begin function scott_hack.26
	.p2align	4, 0x90
	.type	scott_hack.26,@function
scott_hack.26:                          # @scott_hack.26
	.cfi_startproc
# %bb.0:                                # %entry
	pushq	%rbp
	.cfi_def_cfa_offset 16
	.cfi_offset %rbp, -16
	movq	%rsp, %rbp
	.cfi_def_cfa_register %rbp
	pushq	%rbx
	subq	$40, %rsp
	.cfi_offset %rbx, -24
	movl	$221126281, -28(%rbp)   # imm = 0xD2E1E89
	movq	%rdi, -16(%rbp)
	movq	%rsi, -48(%rbp)
	movl	%edx, -32(%rbp)
	movl	%ecx, -24(%rbp)
	movq	%r8, -40(%rbp)
.LBB41_1:                               # %probeSH
                                        # =>This Inner Loop Header: Depth=1
	movslq	-32(%rbp), %rax
	movq	-16(%rbp), %rcx
	movq	(%rcx), %rdx
	subq	%rax, %rdx
	movq	%rdx, (%rcx)
	cmpq	$0, %rdx
	jge	.LBB41_3
# %bb.2:                                # %if.then
                                        #   in Loop: Header=BB41_1 Depth=1
	movslq	-24(%rbp), %rax
	movq	-16(%rbp), %rcx
	addq	(%rcx), %rax
	movq	%rax, (%rcx)
.LBB41_3:                               # %if.end
                                        #   in Loop: Header=BB41_1 Depth=1
	movq	-16(%rbp), %rax
	movq	(%rax), %rax
	movq	htab(,%rax,8), %rax
	cmpq	-48(%rbp), %rax
	jne	.LBB41_5
# %bb.4:                                # %if.then5
	movq	-16(%rbp), %rax
	movq	(%rax), %rax
	movzwl	codetab(,%rax,2), %eax
	movq	-40(%rbp), %rcx
	movq	%rax, (%rcx)
	movl	$1, -20(%rbp)
	jmp	.LBB41_8
.LBB41_5:                               # %if.end8
                                        #   in Loop: Header=BB41_1 Depth=1
	movq	-16(%rbp), %rax
	movq	(%rax), %rax
	cmpq	$0, htab(,%rax,8)
	jle	.LBB41_7
# %bb.6:                                # %if.then12
                                        #   in Loop: Header=BB41_1 Depth=1
	jmp	.LBB41_1
.LBB41_7:                               # %if.end13
	movl	$0, -20(%rbp)
.LBB41_8:                               # %return
	movl	-20(%rbp), %ebx
	cmpl	$221126281, -28(%rbp)   # imm = 0xD2E1E89
	jne	.LBB41_10
.LBB41_9:
	movl	%ebx, %eax
	addq	$40, %rsp
	popq	%rbx
	popq	%rbp
	.cfi_def_cfa %rsp, 8
	retq
.LBB41_10:                              # %func_exit
	.cfi_def_cfa %rbp, 16
	callq	detect_breach
	jmp	.LBB41_9
.Lfunc_end41:
	.size	scott_hack.26, .Lfunc_end41-scott_hack.26
	.cfi_endproc
                                        # -- End function
	.globl	compress.27             # -- Begin function compress.27
	.p2align	4, 0x90
	.type	compress.27,@function
compress.27:                            # @compress.27
	.cfi_startproc
# %bb.0:                                # %entry
	pushq	%rbp
	.cfi_def_cfa_offset 16
	.cfi_offset %rbp, -16
	movq	%rsp, %rbp
	.cfi_def_cfa_register %rbp
	subq	$64, %rsp
	movl	$1139159119, -56(%rbp)  # imm = 0x43E6304F
	movq	$0, -8(%rbp)
	cmpl	$0, nomagic
	jne	.LBB42_4
# %bb.1:                                # %if.then
	movzbl	magic_header, %edi
	callq	putchar
	movzbl	magic_header+1, %edi
	callq	putchar
	movl	maxbits, %eax
	orl	block_compress, %eax
	movsbl	%al, %edi
	callq	putchar
	movq	stdout, %rdi
	callq	ferror
	cmpl	$0, %eax
	je	.LBB42_3
# %bb.2:                                # %if.then7
	callq	writeerr
.LBB42_3:                               # %if.end
	jmp	.LBB42_4
.LBB42_4:                               # %if.end8
	movl	$0, offset
	movq	$3, bytes_out
	movq	$0, out_count
	movl	$0, clear_flg
	movq	$0, ratio
	movq	$1, in_count
	movq	$10000, checkpoint      # imm = 0x2710
	movl	$9, n_bits
	movq	$511, maxcode           # imm = 0x1FF
	movl	block_compress, %eax
	cmpl	$0, %eax
	movl	$257, %eax              # imm = 0x101
	movl	$256, %ecx              # imm = 0x100
	cmovnel	%eax, %ecx
	movslq	%ecx, %rax
	movq	%rax, free_ent
	callq	getchar
	cltq
	movq	%rax, -24(%rbp)
	movl	$0, -16(%rbp)
	movq	hsize, %rax
	movq	%rax, -32(%rbp)
.LBB42_5:                               # %for.cond
                                        # =>This Inner Loop Header: Depth=1
	cmpq	$65536, -32(%rbp)       # imm = 0x10000
	jge	.LBB42_8
# %bb.6:                                # %for.body
                                        #   in Loop: Header=BB42_5 Depth=1
	movl	-16(%rbp), %eax
	addl	$1, %eax
	movl	%eax, -16(%rbp)
# %bb.7:                                # %for.inc
                                        #   in Loop: Header=BB42_5 Depth=1
	movq	-32(%rbp), %rax
	shlq	$1, %rax
	movq	%rax, -32(%rbp)
	jmp	.LBB42_5
.LBB42_8:                               # %for.end
	movl	$8, %eax
	subl	-16(%rbp), %eax
	movl	%eax, -16(%rbp)
	movq	hsize, %rax
	movq	%rax, -48(%rbp)
	movq	-48(%rbp), %rdi
	callq	cl_hash
.LBB42_9:                               # %while.cond
                                        # =>This Inner Loop Header: Depth=1
	callq	getchar
	movl	%eax, -36(%rbp)
	cmpl	$-1, %eax
	je	.LBB42_46
# %bb.10:                               # %while.body
                                        #   in Loop: Header=BB42_9 Depth=1
	movq	in_count, %rax
	addq	$1, %rax
	movq	%rax, in_count
	movslq	-36(%rbp), %rax
	movl	maxbits, %ecx
                                        # kill: def $cl killed $rcx
	shlq	%cl, %rax
	addq	-24(%rbp), %rax
	movq	%rax, -32(%rbp)
	movl	-36(%rbp), %eax
	movl	-16(%rbp), %ecx
                                        # kill: def $cl killed $ecx
	shll	%cl, %eax
	cltq
	xorq	-24(%rbp), %rax
	movq	%rax, -8(%rbp)
	movq	-8(%rbp), %rax
	movq	htab(,%rax,8), %rax
	cmpq	-32(%rbp), %rax
	jne	.LBB42_13
# %bb.11:                               # %if.then24
                                        #   in Loop: Header=BB42_9 Depth=1
	movq	-8(%rbp), %rax
	movzwl	codetab(,%rax,2), %eax
	movq	%rax, -24(%rbp)
.LBB42_12:                              # %while.cond.backedge
                                        #   in Loop: Header=BB42_9 Depth=1
	jmp	.LBB42_9
.LBB42_13:                              # %if.else
                                        #   in Loop: Header=BB42_9 Depth=1
	movq	-8(%rbp), %rax
	cmpq	$0, htab(,%rax,8)
	jge	.LBB42_15
# %bb.14:                               # %if.then30
                                        #   in Loop: Header=BB42_9 Depth=1
	jmp	.LBB42_39
.LBB42_15:                              # %if.end31
                                        #   in Loop: Header=BB42_9 Depth=1
	jmp	.LBB42_16
.LBB42_16:                              # %if.end32
                                        #   in Loop: Header=BB42_9 Depth=1
	movq	-48(%rbp), %rax
	subq	-8(%rbp), %rax
	movl	%eax, -12(%rbp)
	cmpq	$0, -8(%rbp)
	jne	.LBB42_18
# %bb.17:                               # %if.then37
                                        #   in Loop: Header=BB42_9 Depth=1
	movl	$1, -12(%rbp)
.LBB42_18:                              # %if.end38
                                        #   in Loop: Header=BB42_9 Depth=1
	movslq	-12(%rbp), %rax
	movq	-8(%rbp), %rcx
	subq	%rax, %rcx
	movq	%rcx, -8(%rbp)
	cmpq	$0, %rcx
	jge	.LBB42_20
# %bb.19:                               # %if.then43
                                        #   in Loop: Header=BB42_9 Depth=1
	movq	-48(%rbp), %rax
	addq	-8(%rbp), %rax
	movq	%rax, -8(%rbp)
.LBB42_20:                              # %if.end45
                                        #   in Loop: Header=BB42_9 Depth=1
	movq	-8(%rbp), %rax
	movq	htab(,%rax,8), %rax
	cmpq	-32(%rbp), %rax
	jne	.LBB42_22
# %bb.21:                               # %if.then49
                                        #   in Loop: Header=BB42_9 Depth=1
	movq	-8(%rbp), %rax
	movzwl	codetab(,%rax,2), %eax
	movq	%rax, -24(%rbp)
	jmp	.LBB42_12
.LBB42_22:                              # %if.end52
                                        #   in Loop: Header=BB42_9 Depth=1
	movq	-8(%rbp), %rax
	cmpq	$0, htab(,%rax,8)
	jg	.LBB42_24
# %bb.23:                               # %if.then56
                                        #   in Loop: Header=BB42_9 Depth=1
	jmp	.LBB42_39
.LBB42_24:                              # %if.end57
                                        #   in Loop: Header=BB42_9 Depth=1
	movslq	-12(%rbp), %rax
	movq	-8(%rbp), %rcx
	subq	%rax, %rcx
	movq	%rcx, -8(%rbp)
	cmpq	$0, %rcx
	jge	.LBB42_26
# %bb.25:                               # %if.then62
                                        #   in Loop: Header=BB42_9 Depth=1
	movq	-48(%rbp), %rax
	addq	-8(%rbp), %rax
	movq	%rax, -8(%rbp)
.LBB42_26:                              # %if.end64
                                        #   in Loop: Header=BB42_9 Depth=1
	movq	-8(%rbp), %rax
	movq	htab(,%rax,8), %rax
	cmpq	-32(%rbp), %rax
	jne	.LBB42_28
# %bb.27:                               # %if.then68
                                        #   in Loop: Header=BB42_9 Depth=1
	movq	-8(%rbp), %rax
	movzwl	codetab(,%rax,2), %eax
	movq	%rax, -24(%rbp)
	jmp	.LBB42_12
.LBB42_28:                              # %if.end71
                                        #   in Loop: Header=BB42_9 Depth=1
	movq	-8(%rbp), %rax
	cmpq	$0, htab(,%rax,8)
	jg	.LBB42_30
# %bb.29:                               # %if.then75
                                        #   in Loop: Header=BB42_9 Depth=1
	jmp	.LBB42_39
.LBB42_30:                              # %if.end76
                                        #   in Loop: Header=BB42_9 Depth=1
	movslq	-12(%rbp), %rax
	movq	-8(%rbp), %rcx
	subq	%rax, %rcx
	movq	%rcx, -8(%rbp)
	cmpq	$0, %rcx
	jge	.LBB42_32
# %bb.31:                               # %if.then81
                                        #   in Loop: Header=BB42_9 Depth=1
	movq	-48(%rbp), %rax
	addq	-8(%rbp), %rax
	movq	%rax, -8(%rbp)
.LBB42_32:                              # %if.end83
                                        #   in Loop: Header=BB42_9 Depth=1
	movq	-8(%rbp), %rax
	movq	htab(,%rax,8), %rax
	cmpq	-32(%rbp), %rax
	jne	.LBB42_34
# %bb.33:                               # %if.then87
                                        #   in Loop: Header=BB42_9 Depth=1
	movq	-8(%rbp), %rax
	movzwl	codetab(,%rax,2), %eax
	movq	%rax, -24(%rbp)
	jmp	.LBB42_12
.LBB42_34:                              # %if.end90
                                        #   in Loop: Header=BB42_9 Depth=1
	movq	-8(%rbp), %rax
	cmpq	$0, htab(,%rax,8)
	jle	.LBB42_38
# %bb.35:                               # %if.then94
                                        #   in Loop: Header=BB42_9 Depth=1
	movl	$0, -52(%rbp)
	movq	-32(%rbp), %rsi
	movl	-12(%rbp), %edx
	movq	-48(%rbp), %rcx
	leaq	-8(%rbp), %rdi
                                        # kill: def $ecx killed $ecx killed $rcx
	leaq	-24(%rbp), %r8
	callq	scott_hack
	movl	%eax, -52(%rbp)
	cmpl	$0, -52(%rbp)
	je	.LBB42_37
# %bb.36:                               # %if.then99
                                        #   in Loop: Header=BB42_9 Depth=1
	jmp	.LBB42_12
.LBB42_37:                              # %if.end100
                                        #   in Loop: Header=BB42_9 Depth=1
	jmp	.LBB42_38
.LBB42_38:                              # %if.end101
                                        #   in Loop: Header=BB42_9 Depth=1
	jmp	.LBB42_39
.LBB42_39:                              # %nomatch
                                        #   in Loop: Header=BB42_9 Depth=1
	movq	-24(%rbp), %rdi
	callq	output
	movq	out_count, %rax
	addq	$1, %rax
	movq	%rax, out_count
	movslq	-36(%rbp), %rax
	movq	%rax, -24(%rbp)
	movq	free_ent, %rax
	cmpq	maxmaxcode, %rax
	jge	.LBB42_41
# %bb.40:                               # %if.then106
                                        #   in Loop: Header=BB42_9 Depth=1
	movq	free_ent, %rax
	movq	%rax, %rcx
	addq	$1, %rcx
	movq	%rcx, free_ent
	movq	-8(%rbp), %rcx
	movw	%ax, codetab(,%rcx,2)
	movq	-32(%rbp), %rax
	movq	-8(%rbp), %rcx
	movq	%rax, htab(,%rcx,8)
	jmp	.LBB42_45
.LBB42_41:                              # %if.else111
                                        #   in Loop: Header=BB42_9 Depth=1
	movq	in_count, %rax
	cmpq	checkpoint, %rax
	jl	.LBB42_44
# %bb.42:                               # %land.lhs.true
                                        #   in Loop: Header=BB42_9 Depth=1
	cmpl	$0, block_compress
	je	.LBB42_44
# %bb.43:                               # %if.then115
                                        #   in Loop: Header=BB42_9 Depth=1
	callq	cl_block
.LBB42_44:                              # %if.end116
                                        #   in Loop: Header=BB42_9 Depth=1
	jmp	.LBB42_45
.LBB42_45:                              # %if.end117
                                        #   in Loop: Header=BB42_9 Depth=1
	jmp	.LBB42_12
.LBB42_46:                              # %while.end
	movq	-24(%rbp), %rdi
	callq	output
	movq	out_count, %rax
	addq	$1, %rax
	movq	%rax, out_count
	movq	$-1, %rdi
	callq	output
	cmpl	$0, zcat_flg
	jne	.LBB42_49
# %bb.47:                               # %land.lhs.true121
	cmpl	$0, quiet
	jne	.LBB42_49
# %bb.48:                               # %if.then123
	movq	stderr, %rdi
	movabsq	$.L.str.19, %rsi
	movb	$0, %al
	callq	fprintf
	movq	stderr, %rdi
	movq	in_count, %rsi
	subq	bytes_out, %rsi
	movq	in_count, %rdx
	callq	prratio
.LBB42_49:                              # %if.end126
	movq	bytes_out, %rax
	cmpq	in_count, %rax
	jle	.LBB42_51
# %bb.50:                               # %if.then129
	movl	$2, exit_stat
.LBB42_51:                              # %if.end130
	cmpl	$1139159119, -56(%rbp)  # imm = 0x43E6304F
	jne	.LBB42_53
.LBB42_52:
	addq	$64, %rsp
	popq	%rbp
	.cfi_def_cfa %rsp, 8
	retq
.LBB42_53:                              # %func_exit
	.cfi_def_cfa %rbp, 16
	callq	detect_breach
	jmp	.LBB42_52
.Lfunc_end42:
	.size	compress.27, .Lfunc_end42-compress.27
	.cfi_endproc
                                        # -- End function
	.globl	prratio.28              # -- Begin function prratio.28
	.p2align	4, 0x90
	.type	prratio.28,@function
prratio.28:                             # @prratio.28
	.cfi_startproc
# %bb.0:                                # %entry
	pushq	%rbp
	.cfi_def_cfa_offset 16
	.cfi_offset %rbp, -16
	movq	%rsp, %rbp
	.cfi_def_cfa_register %rbp
	subq	$48, %rsp
	movl	$1000985415, -20(%rbp)  # imm = 0x3BA9D347
	movq	%rdi, -32(%rbp)
	movq	%rsi, -16(%rbp)
	movq	%rdx, -40(%rbp)
	cmpq	$214748, -16(%rbp)      # imm = 0x346DC
	jle	.LBB43_2
# %bb.1:                                # %if.then
	movq	-16(%rbp), %rcx
	movq	-40(%rbp), %rax
	cqto
	movl	$10000, %esi            # imm = 0x2710
	idivq	%rsi
	movq	%rax, %rsi
	movq	%rcx, %rax
	cqto
	idivq	%rsi
	movl	%eax, -4(%rbp)
	jmp	.LBB43_3
.LBB43_2:                               # %if.else
	imulq	$10000, -16(%rbp), %rax # imm = 0x2710
	cqto
	idivq	-40(%rbp)
	movl	%eax, -4(%rbp)
.LBB43_3:                               # %if.end
	cmpl	$0, -4(%rbp)
	jge	.LBB43_5
# %bb.4:                                # %if.then6
	movq	-32(%rbp), %rsi
	movl	$45, %edi
	callq	_IO_putc
	xorl	%eax, %eax
	subl	-4(%rbp), %eax
	movl	%eax, -4(%rbp)
.LBB43_5:                               # %if.end7
	movq	-32(%rbp), %rdi
	movl	-4(%rbp), %eax
	cltd
	movl	$100, %ecx
	idivl	%ecx
	movl	%eax, %r8d
	movl	-4(%rbp), %eax
	cltd
	idivl	%ecx
	movl	%edx, %ecx
	movabsq	$.L.str.25, %rsi
	movl	%r8d, %edx
	movb	$0, %al
	callq	fprintf
	cmpl	$1000985415, -20(%rbp)  # imm = 0x3BA9D347
	jne	.LBB43_7
.LBB43_6:
	addq	$48, %rsp
	popq	%rbp
	.cfi_def_cfa %rsp, 8
	retq
.LBB43_7:                               # %func_exit
	.cfi_def_cfa %rbp, 16
	callq	detect_breach
	jmp	.LBB43_6
.Lfunc_end43:
	.size	prratio.28, .Lfunc_end43-prratio.28
	.cfi_endproc
                                        # -- End function
	.globl	cl_hash.29              # -- Begin function cl_hash.29
	.p2align	4, 0x90
	.type	cl_hash.29,@function
cl_hash.29:                             # @cl_hash.29
	.cfi_startproc
# %bb.0:                                # %entry
	pushq	%rbp
	.cfi_def_cfa_offset 16
	.cfi_offset %rbp, -16
	movq	%rsp, %rbp
	.cfi_def_cfa_register %rbp
	subq	$48, %rsp
	movl	$1742132731, -28(%rbp)  # imm = 0x67D6D5FB
	movq	%rdi, -40(%rbp)
	movq	-40(%rbp), %rax
	shlq	$3, %rax
	movabsq	$htab, %rcx
	addq	%rax, %rcx
	movq	%rcx, -8(%rbp)
	movq	$-1, -16(%rbp)
	movq	-40(%rbp), %rax
	subq	$16, %rax
	movq	%rax, -24(%rbp)
.LBB44_1:                               # %do.body
                                        # =>This Inner Loop Header: Depth=1
	movq	-16(%rbp), %rax
	movq	-8(%rbp), %rcx
	movq	%rax, -128(%rcx)
	movq	-16(%rbp), %rax
	movq	-8(%rbp), %rcx
	movq	%rax, -120(%rcx)
	movq	-16(%rbp), %rax
	movq	-8(%rbp), %rcx
	movq	%rax, -112(%rcx)
	movq	-16(%rbp), %rax
	movq	-8(%rbp), %rcx
	movq	%rax, -104(%rcx)
	movq	-16(%rbp), %rax
	movq	-8(%rbp), %rcx
	movq	%rax, -96(%rcx)
	movq	-16(%rbp), %rax
	movq	-8(%rbp), %rcx
	movq	%rax, -88(%rcx)
	movq	-16(%rbp), %rax
	movq	-8(%rbp), %rcx
	movq	%rax, -80(%rcx)
	movq	-16(%rbp), %rax
	movq	-8(%rbp), %rcx
	movq	%rax, -72(%rcx)
	movq	-16(%rbp), %rax
	movq	-8(%rbp), %rcx
	movq	%rax, -64(%rcx)
	movq	-16(%rbp), %rax
	movq	-8(%rbp), %rcx
	movq	%rax, -56(%rcx)
	movq	-16(%rbp), %rax
	movq	-8(%rbp), %rcx
	movq	%rax, -48(%rcx)
	movq	-16(%rbp), %rax
	movq	-8(%rbp), %rcx
	movq	%rax, -40(%rcx)
	movq	-16(%rbp), %rax
	movq	-8(%rbp), %rcx
	movq	%rax, -32(%rcx)
	movq	-16(%rbp), %rax
	movq	-8(%rbp), %rcx
	movq	%rax, -24(%rcx)
	movq	-16(%rbp), %rax
	movq	-8(%rbp), %rcx
	movq	%rax, -16(%rcx)
	movq	-16(%rbp), %rax
	movq	-8(%rbp), %rcx
	movq	%rax, -8(%rcx)
	movq	-8(%rbp), %rax
	addq	$-128, %rax
	movq	%rax, -8(%rbp)
# %bb.2:                                # %do.cond
                                        #   in Loop: Header=BB44_1 Depth=1
	movq	-24(%rbp), %rax
	subq	$16, %rax
	movq	%rax, -24(%rbp)
	cmpq	$0, %rax
	jge	.LBB44_1
# %bb.3:                                # %do.end
	movq	-24(%rbp), %rax
	addq	$16, %rax
	movq	%rax, -24(%rbp)
.LBB44_4:                               # %for.cond
                                        # =>This Inner Loop Header: Depth=1
	cmpq	$0, -24(%rbp)
	jle	.LBB44_7
# %bb.5:                                # %for.body
                                        #   in Loop: Header=BB44_4 Depth=1
	movq	-16(%rbp), %rax
	movq	-8(%rbp), %rcx
	movq	%rcx, %rdx
	addq	$-8, %rdx
	movq	%rdx, -8(%rbp)
	movq	%rax, -8(%rcx)
# %bb.6:                                # %for.inc
                                        #   in Loop: Header=BB44_4 Depth=1
	movq	-24(%rbp), %rax
	addq	$-1, %rax
	movq	%rax, -24(%rbp)
	jmp	.LBB44_4
.LBB44_7:                               # %for.end
	cmpl	$1742132731, -28(%rbp)  # imm = 0x67D6D5FB
	jne	.LBB44_9
.LBB44_8:
	addq	$48, %rsp
	popq	%rbp
	.cfi_def_cfa %rsp, 8
	retq
.LBB44_9:                               # %func_exit
	.cfi_def_cfa %rbp, 16
	callq	detect_breach
	jmp	.LBB44_8
.Lfunc_end44:
	.size	cl_hash.29, .Lfunc_end44-cl_hash.29
	.cfi_endproc
                                        # -- End function
	.globl	prratio.30              # -- Begin function prratio.30
	.p2align	4, 0x90
	.type	prratio.30,@function
prratio.30:                             # @prratio.30
	.cfi_startproc
# %bb.0:                                # %entry
	pushq	%rbp
	.cfi_def_cfa_offset 16
	.cfi_offset %rbp, -16
	movq	%rsp, %rbp
	.cfi_def_cfa_register %rbp
	subq	$48, %rsp
	movl	$1732494030, -20(%rbp)  # imm = 0x6743C2CE
	movq	%rdi, -40(%rbp)
	movq	%rsi, -16(%rbp)
	movq	%rdx, -32(%rbp)
	cmpq	$214748, -16(%rbp)      # imm = 0x346DC
	jle	.LBB45_2
# %bb.1:                                # %if.then
	movq	-16(%rbp), %rcx
	movq	-32(%rbp), %rax
	cqto
	movl	$10000, %esi            # imm = 0x2710
	idivq	%rsi
	movq	%rax, %rsi
	movq	%rcx, %rax
	cqto
	idivq	%rsi
	movl	%eax, -4(%rbp)
	jmp	.LBB45_3
.LBB45_2:                               # %if.else
	imulq	$10000, -16(%rbp), %rax # imm = 0x2710
	cqto
	idivq	-32(%rbp)
	movl	%eax, -4(%rbp)
.LBB45_3:                               # %if.end
	cmpl	$0, -4(%rbp)
	jge	.LBB45_5
# %bb.4:                                # %if.then6
	movq	-40(%rbp), %rsi
	movl	$45, %edi
	callq	_IO_putc
	xorl	%eax, %eax
	subl	-4(%rbp), %eax
	movl	%eax, -4(%rbp)
.LBB45_5:                               # %if.end7
	movq	-40(%rbp), %rdi
	movl	-4(%rbp), %eax
	cltd
	movl	$100, %ecx
	idivl	%ecx
	movl	%eax, %r8d
	movl	-4(%rbp), %eax
	cltd
	idivl	%ecx
	movl	%edx, %ecx
	movabsq	$.L.str.25, %rsi
	movl	%r8d, %edx
	movb	$0, %al
	callq	fprintf
	cmpl	$1732494030, -20(%rbp)  # imm = 0x6743C2CE
	jne	.LBB45_7
.LBB45_6:
	addq	$48, %rsp
	popq	%rbp
	.cfi_def_cfa %rsp, 8
	retq
.LBB45_7:                               # %func_exit
	.cfi_def_cfa %rbp, 16
	callq	detect_breach
	jmp	.LBB45_6
.Lfunc_end45:
	.size	prratio.30, .Lfunc_end45-prratio.30
	.cfi_endproc
                                        # -- End function
	.globl	cl_hash.31              # -- Begin function cl_hash.31
	.p2align	4, 0x90
	.type	cl_hash.31,@function
cl_hash.31:                             # @cl_hash.31
	.cfi_startproc
# %bb.0:                                # %entry
	pushq	%rbp
	.cfi_def_cfa_offset 16
	.cfi_offset %rbp, -16
	movq	%rsp, %rbp
	.cfi_def_cfa_register %rbp
	subq	$48, %rsp
	movl	$1052846169, -28(%rbp)  # imm = 0x3EC12859
	movq	%rdi, -40(%rbp)
	movq	-40(%rbp), %rax
	shlq	$3, %rax
	movabsq	$htab, %rcx
	addq	%rax, %rcx
	movq	%rcx, -8(%rbp)
	movq	$-1, -16(%rbp)
	movq	-40(%rbp), %rax
	subq	$16, %rax
	movq	%rax, -24(%rbp)
.LBB46_1:                               # %do.body
                                        # =>This Inner Loop Header: Depth=1
	movq	-16(%rbp), %rax
	movq	-8(%rbp), %rcx
	movq	%rax, -128(%rcx)
	movq	-16(%rbp), %rax
	movq	-8(%rbp), %rcx
	movq	%rax, -120(%rcx)
	movq	-16(%rbp), %rax
	movq	-8(%rbp), %rcx
	movq	%rax, -112(%rcx)
	movq	-16(%rbp), %rax
	movq	-8(%rbp), %rcx
	movq	%rax, -104(%rcx)
	movq	-16(%rbp), %rax
	movq	-8(%rbp), %rcx
	movq	%rax, -96(%rcx)
	movq	-16(%rbp), %rax
	movq	-8(%rbp), %rcx
	movq	%rax, -88(%rcx)
	movq	-16(%rbp), %rax
	movq	-8(%rbp), %rcx
	movq	%rax, -80(%rcx)
	movq	-16(%rbp), %rax
	movq	-8(%rbp), %rcx
	movq	%rax, -72(%rcx)
	movq	-16(%rbp), %rax
	movq	-8(%rbp), %rcx
	movq	%rax, -64(%rcx)
	movq	-16(%rbp), %rax
	movq	-8(%rbp), %rcx
	movq	%rax, -56(%rcx)
	movq	-16(%rbp), %rax
	movq	-8(%rbp), %rcx
	movq	%rax, -48(%rcx)
	movq	-16(%rbp), %rax
	movq	-8(%rbp), %rcx
	movq	%rax, -40(%rcx)
	movq	-16(%rbp), %rax
	movq	-8(%rbp), %rcx
	movq	%rax, -32(%rcx)
	movq	-16(%rbp), %rax
	movq	-8(%rbp), %rcx
	movq	%rax, -24(%rcx)
	movq	-16(%rbp), %rax
	movq	-8(%rbp), %rcx
	movq	%rax, -16(%rcx)
	movq	-16(%rbp), %rax
	movq	-8(%rbp), %rcx
	movq	%rax, -8(%rcx)
	movq	-8(%rbp), %rax
	addq	$-128, %rax
	movq	%rax, -8(%rbp)
# %bb.2:                                # %do.cond
                                        #   in Loop: Header=BB46_1 Depth=1
	movq	-24(%rbp), %rax
	subq	$16, %rax
	movq	%rax, -24(%rbp)
	cmpq	$0, %rax
	jge	.LBB46_1
# %bb.3:                                # %do.end
	movq	-24(%rbp), %rax
	addq	$16, %rax
	movq	%rax, -24(%rbp)
.LBB46_4:                               # %for.cond
                                        # =>This Inner Loop Header: Depth=1
	cmpq	$0, -24(%rbp)
	jle	.LBB46_7
# %bb.5:                                # %for.body
                                        #   in Loop: Header=BB46_4 Depth=1
	movq	-16(%rbp), %rax
	movq	-8(%rbp), %rcx
	movq	%rcx, %rdx
	addq	$-8, %rdx
	movq	%rdx, -8(%rbp)
	movq	%rax, -8(%rcx)
# %bb.6:                                # %for.inc
                                        #   in Loop: Header=BB46_4 Depth=1
	movq	-24(%rbp), %rax
	addq	$-1, %rax
	movq	%rax, -24(%rbp)
	jmp	.LBB46_4
.LBB46_7:                               # %for.end
	cmpl	$1052846169, -28(%rbp)  # imm = 0x3EC12859
	jne	.LBB46_9
.LBB46_8:
	addq	$48, %rsp
	popq	%rbp
	.cfi_def_cfa %rsp, 8
	retq
.LBB46_9:                               # %func_exit
	.cfi_def_cfa %rbp, 16
	callq	detect_breach
	jmp	.LBB46_8
.Lfunc_end46:
	.size	cl_hash.31, .Lfunc_end46-cl_hash.31
	.cfi_endproc
                                        # -- End function
	.globl	cl_hash.32              # -- Begin function cl_hash.32
	.p2align	4, 0x90
	.type	cl_hash.32,@function
cl_hash.32:                             # @cl_hash.32
	.cfi_startproc
# %bb.0:                                # %entry
	pushq	%rbp
	.cfi_def_cfa_offset 16
	.cfi_offset %rbp, -16
	movq	%rsp, %rbp
	.cfi_def_cfa_register %rbp
	subq	$48, %rsp
	movl	$932061081, -28(%rbp)   # imm = 0x378E1F99
	movq	%rdi, -40(%rbp)
	movq	-40(%rbp), %rax
	shlq	$3, %rax
	movabsq	$htab, %rcx
	addq	%rax, %rcx
	movq	%rcx, -8(%rbp)
	movq	$-1, -16(%rbp)
	movq	-40(%rbp), %rax
	subq	$16, %rax
	movq	%rax, -24(%rbp)
.LBB47_1:                               # %do.body
                                        # =>This Inner Loop Header: Depth=1
	movq	-16(%rbp), %rax
	movq	-8(%rbp), %rcx
	movq	%rax, -128(%rcx)
	movq	-16(%rbp), %rax
	movq	-8(%rbp), %rcx
	movq	%rax, -120(%rcx)
	movq	-16(%rbp), %rax
	movq	-8(%rbp), %rcx
	movq	%rax, -112(%rcx)
	movq	-16(%rbp), %rax
	movq	-8(%rbp), %rcx
	movq	%rax, -104(%rcx)
	movq	-16(%rbp), %rax
	movq	-8(%rbp), %rcx
	movq	%rax, -96(%rcx)
	movq	-16(%rbp), %rax
	movq	-8(%rbp), %rcx
	movq	%rax, -88(%rcx)
	movq	-16(%rbp), %rax
	movq	-8(%rbp), %rcx
	movq	%rax, -80(%rcx)
	movq	-16(%rbp), %rax
	movq	-8(%rbp), %rcx
	movq	%rax, -72(%rcx)
	movq	-16(%rbp), %rax
	movq	-8(%rbp), %rcx
	movq	%rax, -64(%rcx)
	movq	-16(%rbp), %rax
	movq	-8(%rbp), %rcx
	movq	%rax, -56(%rcx)
	movq	-16(%rbp), %rax
	movq	-8(%rbp), %rcx
	movq	%rax, -48(%rcx)
	movq	-16(%rbp), %rax
	movq	-8(%rbp), %rcx
	movq	%rax, -40(%rcx)
	movq	-16(%rbp), %rax
	movq	-8(%rbp), %rcx
	movq	%rax, -32(%rcx)
	movq	-16(%rbp), %rax
	movq	-8(%rbp), %rcx
	movq	%rax, -24(%rcx)
	movq	-16(%rbp), %rax
	movq	-8(%rbp), %rcx
	movq	%rax, -16(%rcx)
	movq	-16(%rbp), %rax
	movq	-8(%rbp), %rcx
	movq	%rax, -8(%rcx)
	movq	-8(%rbp), %rax
	addq	$-128, %rax
	movq	%rax, -8(%rbp)
# %bb.2:                                # %do.cond
                                        #   in Loop: Header=BB47_1 Depth=1
	movq	-24(%rbp), %rax
	subq	$16, %rax
	movq	%rax, -24(%rbp)
	cmpq	$0, %rax
	jge	.LBB47_1
# %bb.3:                                # %do.end
	movq	-24(%rbp), %rax
	addq	$16, %rax
	movq	%rax, -24(%rbp)
.LBB47_4:                               # %for.cond
                                        # =>This Inner Loop Header: Depth=1
	cmpq	$0, -24(%rbp)
	jle	.LBB47_7
# %bb.5:                                # %for.body
                                        #   in Loop: Header=BB47_4 Depth=1
	movq	-16(%rbp), %rax
	movq	-8(%rbp), %rcx
	movq	%rcx, %rdx
	addq	$-8, %rdx
	movq	%rdx, -8(%rbp)
	movq	%rax, -8(%rcx)
# %bb.6:                                # %for.inc
                                        #   in Loop: Header=BB47_4 Depth=1
	movq	-24(%rbp), %rax
	addq	$-1, %rax
	movq	%rax, -24(%rbp)
	jmp	.LBB47_4
.LBB47_7:                               # %for.end
	cmpl	$932061081, -28(%rbp)   # imm = 0x378E1F99
	jne	.LBB47_9
.LBB47_8:
	addq	$48, %rsp
	popq	%rbp
	.cfi_def_cfa %rsp, 8
	retq
.LBB47_9:                               # %func_exit
	.cfi_def_cfa %rbp, 16
	callq	detect_breach
	jmp	.LBB47_8
.Lfunc_end47:
	.size	cl_hash.32, .Lfunc_end47-cl_hash.32
	.cfi_endproc
                                        # -- End function
	.type	.L.str,@object          # @.str
	.section	.rodata.str1.1,"aMS",@progbits,1
.L.str:
	.asciz	"Usage: compress [-dfvcV] [-b maxbits] [file ...]\n"
	.size	.L.str, 50

	.type	bgnd_flag,@object       # @bgnd_flag
	.comm	bgnd_flag,8,8
	.type	.L.str.1,@object        # @.str.1
.L.str.1:
	.asciz	"uncompress"
	.size	.L.str.1, 11

	.type	do_decomp,@object       # @do_decomp
	.bss
	.globl	do_decomp
	.p2align	2
do_decomp:
	.long	0                       # 0x0
	.size	do_decomp, 4

	.type	.L.str.2,@object        # @.str.2
	.section	.rodata.str1.1,"aMS",@progbits,1
.L.str.2:
	.asciz	"zcat"
	.size	.L.str.2, 5

	.type	zcat_flg,@object        # @zcat_flg
	.bss
	.globl	zcat_flg
	.p2align	2
zcat_flg:
	.long	0                       # 0x0
	.size	zcat_flg, 4

	.type	quiet,@object           # @quiet
	.data
	.globl	quiet
	.p2align	2
quiet:
	.long	1                       # 0x1
	.size	quiet, 4

	.type	force,@object           # @force
	.bss
	.globl	force
	.p2align	2
force:
	.long	0                       # 0x0
	.size	force, 4

	.type	nomagic,@object         # @nomagic
	.globl	nomagic
	.p2align	2
nomagic:
	.long	0                       # 0x0
	.size	nomagic, 4

	.type	block_compress,@object  # @block_compress
	.data
	.globl	block_compress
	.p2align	2
block_compress:
	.long	128                     # 0x80
	.size	block_compress, 4

	.type	.L.str.3,@object        # @.str.3
	.section	.rodata.str1.1,"aMS",@progbits,1
.L.str.3:
	.asciz	"Missing maxbits\n"
	.size	.L.str.3, 17

	.type	maxbits,@object         # @maxbits
	.data
	.globl	maxbits
	.p2align	2
maxbits:
	.long	16                      # 0x10
	.size	maxbits, 4

	.type	.L.str.4,@object        # @.str.4
	.section	.rodata.str1.1,"aMS",@progbits,1
.L.str.4:
	.asciz	"Unknown flag: '%c'; "
	.size	.L.str.4, 21

	.type	maxmaxcode,@object      # @maxmaxcode
	.data
	.globl	maxmaxcode
	.p2align	3
maxmaxcode:
	.quad	65536                   # 0x10000
	.size	maxmaxcode, 8

	.type	exit_stat,@object       # @exit_stat
	.bss
	.globl	exit_stat
	.p2align	2
exit_stat:
	.long	0                       # 0x0
	.size	exit_stat, 4

	.type	.L.str.5,@object        # @.str.5
	.section	.rodata.str1.1,"aMS",@progbits,1
.L.str.5:
	.asciz	".Z"
	.size	.L.str.5, 3

	.type	.L.str.6,@object        # @.str.6
.L.str.6:
	.asciz	"r"
	.size	.L.str.6, 2

	.type	magic_header,@object    # @magic_header
	.data
	.globl	magic_header
magic_header:
	.asciz	"\037\235"
	.size	magic_header, 3

	.type	.L.str.7,@object        # @.str.7
	.section	.rodata.str1.1,"aMS",@progbits,1
.L.str.7:
	.asciz	"%s: not in compressed format\n"
	.size	.L.str.7, 30

	.type	.L.str.8,@object        # @.str.8
.L.str.8:
	.asciz	"%s: compressed with %d bits, can only handle %d bits\n"
	.size	.L.str.8, 54

	.type	ofname,@object          # @ofname
	.comm	ofname,100,16
	.type	.L.str.9,@object        # @.str.9
.L.str.9:
	.asciz	"%s: already has .Z suffix -- no change\n"
	.size	.L.str.9, 40

	.type	fsize,@object           # @fsize
	.comm	fsize,8,8
	.type	hsize,@object           # @hsize
	.data
	.globl	hsize
	.p2align	3
hsize:
	.quad	69001                   # 0x10d89
	.size	hsize, 8

	.type	.L.str.10,@object       # @.str.10
	.section	.rodata.str1.1,"aMS",@progbits,1
.L.str.10:
	.asciz	"%s: filename too long to tack on .Z\n"
	.size	.L.str.10, 37

	.type	.L.str.11,@object       # @.str.11
.L.str.11:
	.asciz	"%s already exists;"
	.size	.L.str.11, 19

	.type	.L.str.12,@object       # @.str.12
.L.str.12:
	.asciz	" do you wish to overwrite %s (y or n)? "
	.size	.L.str.12, 40

	.type	.L.str.13,@object       # @.str.13
.L.str.13:
	.asciz	"stderr"
	.size	.L.str.13, 7

	.type	.L.str.14,@object       # @.str.14
.L.str.14:
	.asciz	"\tnot overwritten\n"
	.size	.L.str.14, 18

	.type	.L.str.15,@object       # @.str.15
.L.str.15:
	.asciz	"w"
	.size	.L.str.15, 2

	.type	.L.str.16,@object       # @.str.16
.L.str.16:
	.asciz	"%s: "
	.size	.L.str.16, 5

	.type	.L.str.17,@object       # @.str.17
.L.str.17:
	.asciz	"stdin: not in compressed format\n"
	.size	.L.str.17, 33

	.type	.L.str.18,@object       # @.str.18
.L.str.18:
	.asciz	"stdin: compressed with %d bits, can only handle %d bits\n"
	.size	.L.str.18, 57

	.type	offset,@object          # @offset
	.local	offset
	.comm	offset,4,4
	.type	bytes_out,@object       # @bytes_out
	.comm	bytes_out,8,8
	.type	out_count,@object       # @out_count
	.bss
	.globl	out_count
	.p2align	3
out_count:
	.quad	0                       # 0x0
	.size	out_count, 8

	.type	clear_flg,@object       # @clear_flg
	.globl	clear_flg
	.p2align	2
clear_flg:
	.long	0                       # 0x0
	.size	clear_flg, 4

	.type	ratio,@object           # @ratio
	.globl	ratio
	.p2align	3
ratio:
	.quad	0                       # 0x0
	.size	ratio, 8

	.type	in_count,@object        # @in_count
	.data
	.globl	in_count
	.p2align	3
in_count:
	.quad	1                       # 0x1
	.size	in_count, 8

	.type	checkpoint,@object      # @checkpoint
	.globl	checkpoint
	.p2align	3
checkpoint:
	.quad	10000                   # 0x2710
	.size	checkpoint, 8

	.type	n_bits,@object          # @n_bits
	.comm	n_bits,4,4
	.type	maxcode,@object         # @maxcode
	.comm	maxcode,8,8
	.type	free_ent,@object        # @free_ent
	.bss
	.globl	free_ent
	.p2align	3
free_ent:
	.quad	0                       # 0x0
	.size	free_ent, 8

	.type	htab,@object            # @htab
	.comm	htab,552008,16
	.type	codetab,@object         # @codetab
	.comm	codetab,138002,16
	.type	.L.str.19,@object       # @.str.19
	.section	.rodata.str1.1,"aMS",@progbits,1
.L.str.19:
	.asciz	"Compression: "
	.size	.L.str.19, 14

	.type	buf,@object             # @buf
	.local	buf
	.comm	buf,16,16
	.type	rmask,@object           # @rmask
	.data
	.globl	rmask
rmask:
	.ascii	"\000\001\003\007\017\037?\177\377"
	.size	rmask, 9

	.type	lmask,@object           # @lmask
	.globl	lmask
lmask:
	.asciz	"\377\376\374\370\360\340\300\200"
	.size	lmask, 9

	.type	getcode.offset,@object  # @getcode.offset
	.local	getcode.offset
	.comm	getcode.offset,4,4
	.type	getcode.size,@object    # @getcode.size
	.local	getcode.size
	.comm	getcode.size,4,4
	.type	getcode.buf,@object     # @getcode.buf
	.local	getcode.buf
	.comm	getcode.buf,16,16
	.type	.L.str.20,@object       # @.str.20
	.section	.rodata.str1.1,"aMS",@progbits,1
.L.str.20:
	.asciz	" -- not a regular file: unchanged"
	.size	.L.str.20, 34

	.type	.L.str.21,@object       # @.str.21
.L.str.21:
	.asciz	" -- has %ld other links: unchanged"
	.size	.L.str.21, 35

	.type	.L.str.22,@object       # @.str.22
.L.str.22:
	.asciz	" -- file unchanged"
	.size	.L.str.22, 19

	.type	.L.str.23,@object       # @.str.23
.L.str.23:
	.asciz	" -- replaced with %s"
	.size	.L.str.23, 21

	.type	.L.str.24,@object       # @.str.24
.L.str.24:
	.asciz	"uncompress: corrupt input\n"
	.size	.L.str.24, 27

	.type	.L.str.25,@object       # @.str.25
.L.str.25:
	.asciz	"%d.%02d%%"
	.size	.L.str.25, 10

	.type	.L.str.26,@object       # @.str.26
.L.str.26:
	.asciz	"%s\n"
	.size	.L.str.26, 4

	.type	rcs_ident,@object       # @rcs_ident
	.data
	.p2align	4
rcs_ident:
	.asciz	"$Header: /z/repository/benchmarks/specint92/026.compress/src/compress.c,v 1.2 2005/01/04 22:46:33 mchu Exp $"
	.size	rcs_ident, 109

	.type	.L.str.27,@object       # @.str.27
	.section	.rodata.str1.1,"aMS",@progbits,1
.L.str.27:
	.asciz	"Options: "
	.size	.L.str.27, 10

	.type	.L.str.28,@object       # @.str.28
.L.str.28:
	.asciz	"BITS = %d\n"
	.size	.L.str.28, 11


	.ident	"clang version 9.0.1 (git@github.com:llvm/llvm-project.git 9b2d207cf4b43cfc1a2b6940b3c06e50a1bd127f)"
	.section	".note.GNU-stack","",@progbits
