	.text
	.file	"blocksort.c"
	.globl	BZ2_blockSort           # -- Begin function BZ2_blockSort
	.p2align	4, 0x90
	.type	BZ2_blockSort,@function
BZ2_blockSort:                          # @BZ2_blockSort
	.cfi_startproc
# %bb.0:                                # %rand_bb
	pushq	%rbp
	.cfi_def_cfa_offset 16
	.cfi_offset %rbp, -16
	movq	%rsp, %rbp
	.cfi_def_cfa_register %rbp
	pushq	%rbx
	pushq	%rax
	.cfi_offset %rbx, -24
	movq	%rdi, %rbx
	callq	get_urand
	cmpl	$0, %eax
	jne	.LBB0_5
# %bb.1:                                # %func_BZ2_blockSort.3
	movq	%rbx, %rdi
	callq	BZ2_blockSort.3
	addq	$8, %rsp
	popq	%rbx
	popq	%rbp
	.cfi_def_cfa %rsp, 8
	retq
.LBB0_2:                                # %func_BZ2_blockSort.5
	.cfi_def_cfa %rbp, 16
	movq	%rbx, %rdi
	callq	BZ2_blockSort.5
	addq	$8, %rsp
	popq	%rbx
	popq	%rbp
	.cfi_def_cfa %rsp, 8
	retq
.LBB0_3:                                # %func_BZ2_blockSort.28
	.cfi_def_cfa %rbp, 16
	movq	%rbx, %rdi
	callq	BZ2_blockSort.28
	addq	$8, %rsp
	popq	%rbx
	popq	%rbp
	.cfi_def_cfa %rsp, 8
	retq
.LBB0_4:                                # %func_BZ2_blockSort.34
	.cfi_def_cfa %rbp, 16
	movq	%rbx, %rdi
	callq	BZ2_blockSort.34
	addq	$8, %rsp
	popq	%rbx
	popq	%rbp
	.cfi_def_cfa %rsp, 8
	retq
.LBB0_5:                                # %ctrl0
	.cfi_def_cfa %rbp, 16
	cmpl	$1, %eax
	je	.LBB0_2
# %bb.6:                                # %ctrl1
	cmpl	$2, %eax
	je	.LBB0_3
	jmp	.LBB0_4
.Lfunc_end0:
	.size	BZ2_blockSort, .Lfunc_end0-BZ2_blockSort
	.cfi_endproc
                                        # -- End function
	.p2align	4, 0x90         # -- Begin function fallbackSort
	.type	fallbackSort,@function
fallbackSort:                           # @fallbackSort
	.cfi_startproc
# %bb.0:                                # %rand_bb
	pushq	%rbp
	.cfi_def_cfa_offset 16
	.cfi_offset %rbp, -16
	movq	%rsp, %rbp
	.cfi_def_cfa_register %rbp
	pushq	%r15
	pushq	%r14
	pushq	%r13
	pushq	%r12
	pushq	%rbx
	pushq	%rax
	.cfi_offset %rbx, -56
	.cfi_offset %r12, -48
	.cfi_offset %r13, -40
	.cfi_offset %r14, -32
	.cfi_offset %r15, -24
	movl	%r8d, %r14d
	movl	%ecx, %r15d
	movq	%rdx, %r12
	movq	%rsi, %r13
	movq	%rdi, %rbx
	callq	get_urand
	cmpl	$0, %eax
	jne	.LBB1_5
# %bb.1:                                # %func_fallbackSort.29
	movq	%rbx, %rdi
	movq	%r13, %rsi
	movq	%r12, %rdx
	movl	%r15d, %ecx
	movl	%r14d, %r8d
	callq	fallbackSort.29
	addq	$8, %rsp
	popq	%rbx
	popq	%r12
	popq	%r13
	popq	%r14
	popq	%r15
	popq	%rbp
	.cfi_def_cfa %rsp, 8
	retq
.LBB1_2:                                # %func_fallbackSort.30
	.cfi_def_cfa %rbp, 16
	movq	%rbx, %rdi
	movq	%r13, %rsi
	movq	%r12, %rdx
	movl	%r15d, %ecx
	movl	%r14d, %r8d
	callq	fallbackSort.30
	addq	$8, %rsp
	popq	%rbx
	popq	%r12
	popq	%r13
	popq	%r14
	popq	%r15
	popq	%rbp
	.cfi_def_cfa %rsp, 8
	retq
.LBB1_3:                                # %func_fallbackSort.31
	.cfi_def_cfa %rbp, 16
	movq	%rbx, %rdi
	movq	%r13, %rsi
	movq	%r12, %rdx
	movl	%r15d, %ecx
	movl	%r14d, %r8d
	callq	fallbackSort.31
	addq	$8, %rsp
	popq	%rbx
	popq	%r12
	popq	%r13
	popq	%r14
	popq	%r15
	popq	%rbp
	.cfi_def_cfa %rsp, 8
	retq
.LBB1_4:                                # %func_fallbackSort.33
	.cfi_def_cfa %rbp, 16
	movq	%rbx, %rdi
	movq	%r13, %rsi
	movq	%r12, %rdx
	movl	%r15d, %ecx
	movl	%r14d, %r8d
	callq	fallbackSort.33
	addq	$8, %rsp
	popq	%rbx
	popq	%r12
	popq	%r13
	popq	%r14
	popq	%r15
	popq	%rbp
	.cfi_def_cfa %rsp, 8
	retq
.LBB1_5:                                # %ctrl0
	.cfi_def_cfa %rbp, 16
	cmpl	$1, %eax
	je	.LBB1_2
# %bb.6:                                # %ctrl1
	cmpl	$2, %eax
	je	.LBB1_3
	jmp	.LBB1_4
.Lfunc_end1:
	.size	fallbackSort, .Lfunc_end1-fallbackSort
	.cfi_endproc
                                        # -- End function
	.p2align	4, 0x90         # -- Begin function mainSort
	.type	mainSort,@function
mainSort:                               # @mainSort
	.cfi_startproc
# %bb.0:                                # %rand_bb
	pushq	%rbp
	.cfi_def_cfa_offset 16
	.cfi_offset %rbp, -16
	movq	%rsp, %rbp
	.cfi_def_cfa_register %rbp
	pushq	%r15
	pushq	%r14
	pushq	%r13
	pushq	%r12
	pushq	%rbx
	subq	$24, %rsp
	.cfi_offset %rbx, -56
	.cfi_offset %r12, -48
	.cfi_offset %r13, -40
	.cfi_offset %r14, -32
	.cfi_offset %r15, -24
	movl	%r9d, -44(%rbp)         # 4-byte Spill
	movl	%r8d, %r12d
	movq	%rcx, %r13
	movq	%rdx, %rbx
	movq	%rsi, %r14
	movq	%rdi, %r15
	callq	get_urand
	cmpl	$0, %eax
	jne	.LBB2_5
# %bb.1:                                # %func_mainSort.4
	movq	%r15, %rdi
	movq	%r14, %rsi
	movq	%rbx, %rdx
	movq	%r13, %rcx
	movl	%r12d, %r8d
	movl	-44(%rbp), %r9d         # 4-byte Reload
	movq	16(%rbp), %rax
	movq	%rax, (%rsp)
	callq	mainSort.4
	addq	$24, %rsp
	popq	%rbx
	popq	%r12
	popq	%r13
	popq	%r14
	popq	%r15
	popq	%rbp
	.cfi_def_cfa %rsp, 8
	retq
.LBB2_2:                                # %func_mainSort.21
	.cfi_def_cfa %rbp, 16
	movq	%r15, %rdi
	movq	%r14, %rsi
	movq	%rbx, %rdx
	movq	%r13, %rcx
	movl	%r12d, %r8d
	movq	%r10, (%rsp)
	callq	mainSort.21
	addq	$24, %rsp
	popq	%rbx
	popq	%r12
	popq	%r13
	popq	%r14
	popq	%r15
	popq	%rbp
	.cfi_def_cfa %rsp, 8
	retq
.LBB2_3:                                # %func_mainSort.23
	.cfi_def_cfa %rbp, 16
	movq	%rax, (%rsp)
	callq	mainSort.23
	addq	$24, %rsp
	popq	%rbx
	popq	%r12
	popq	%r13
	popq	%r14
	popq	%r15
	popq	%rbp
	.cfi_def_cfa %rsp, 8
	retq
.LBB2_4:                                # %func_mainSort.32
	.cfi_def_cfa %rbp, 16
	movq	%rax, (%rsp)
	callq	mainSort.32
	addq	$24, %rsp
	popq	%rbx
	popq	%r12
	popq	%r13
	popq	%r14
	popq	%r15
	popq	%rbp
	.cfi_def_cfa %rsp, 8
	retq
.LBB2_5:                                # %ctrl0
	.cfi_def_cfa %rbp, 16
	movq	16(%rbp), %r10
	movl	-44(%rbp), %r9d         # 4-byte Reload
	cmpl	$1, %eax
	je	.LBB2_2
# %bb.6:                                # %ctrl1
	cmpl	$2, %eax
	movq	%r10, %rax
	movl	%r12d, %r8d
	movq	%r13, %rcx
	movq	%rbx, %rdx
	movq	%r14, %rsi
	movq	%r15, %rdi
	je	.LBB2_3
	jmp	.LBB2_4
.Lfunc_end2:
	.size	mainSort, .Lfunc_end2-mainSort
	.cfi_endproc
                                        # -- End function
	.p2align	4, 0x90         # -- Begin function fallbackQSort3
	.type	fallbackQSort3,@function
fallbackQSort3:                         # @fallbackQSort3
	.cfi_startproc
# %bb.0:                                # %rand_bb
	pushq	%rbp
	.cfi_def_cfa_offset 16
	.cfi_offset %rbp, -16
	movq	%rsp, %rbp
	.cfi_def_cfa_register %rbp
	pushq	%r15
	pushq	%r14
	pushq	%r12
	pushq	%rbx
	.cfi_offset %rbx, -48
	.cfi_offset %r12, -40
	.cfi_offset %r14, -32
	.cfi_offset %r15, -24
	movl	%ecx, %r14d
	movl	%edx, %r15d
	movq	%rsi, %r12
	movq	%rdi, %rbx
	callq	get_urand
	cmpl	$0, %eax
	jne	.LBB3_5
# %bb.1:                                # %func_fallbackQSort3.6
	movq	%rbx, %rdi
	movq	%r12, %rsi
	movl	%r15d, %edx
	movl	%r14d, %ecx
	callq	fallbackQSort3.6
	popq	%rbx
	popq	%r12
	popq	%r14
	popq	%r15
	popq	%rbp
	.cfi_def_cfa %rsp, 8
	retq
.LBB3_2:                                # %func_fallbackQSort3.8
	.cfi_def_cfa %rbp, 16
	movq	%rbx, %rdi
	movq	%r12, %rsi
	movl	%r15d, %edx
	movl	%r14d, %ecx
	callq	fallbackQSort3.8
	popq	%rbx
	popq	%r12
	popq	%r14
	popq	%r15
	popq	%rbp
	.cfi_def_cfa %rsp, 8
	retq
.LBB3_3:                                # %func_fallbackQSort3.16
	.cfi_def_cfa %rbp, 16
	movq	%rbx, %rdi
	movq	%r12, %rsi
	movl	%r15d, %edx
	movl	%r14d, %ecx
	callq	fallbackQSort3.16
	popq	%rbx
	popq	%r12
	popq	%r14
	popq	%r15
	popq	%rbp
	.cfi_def_cfa %rsp, 8
	retq
.LBB3_4:                                # %func_fallbackQSort3.18
	.cfi_def_cfa %rbp, 16
	movq	%rbx, %rdi
	movq	%r12, %rsi
	movl	%r15d, %edx
	movl	%r14d, %ecx
	callq	fallbackQSort3.18
	popq	%rbx
	popq	%r12
	popq	%r14
	popq	%r15
	popq	%rbp
	.cfi_def_cfa %rsp, 8
	retq
.LBB3_5:                                # %ctrl0
	.cfi_def_cfa %rbp, 16
	cmpl	$1, %eax
	je	.LBB3_2
# %bb.6:                                # %ctrl1
	cmpl	$2, %eax
	je	.LBB3_3
	jmp	.LBB3_4
.Lfunc_end3:
	.size	fallbackQSort3, .Lfunc_end3-fallbackQSort3
	.cfi_endproc
                                        # -- End function
	.p2align	4, 0x90         # -- Begin function fallbackSimpleSort
	.type	fallbackSimpleSort,@function
fallbackSimpleSort:                     # @fallbackSimpleSort
	.cfi_startproc
# %bb.0:                                # %rand_bb
	pushq	%rbp
	.cfi_def_cfa_offset 16
	.cfi_offset %rbp, -16
	movq	%rsp, %rbp
	.cfi_def_cfa_register %rbp
	pushq	%r15
	pushq	%r14
	pushq	%r12
	pushq	%rbx
	.cfi_offset %rbx, -48
	.cfi_offset %r12, -40
	.cfi_offset %r14, -32
	.cfi_offset %r15, -24
	movl	%ecx, %r14d
	movl	%edx, %r15d
	movq	%rsi, %r12
	movq	%rdi, %rbx
	callq	get_urand
	cmpl	$0, %eax
	jne	.LBB4_5
# %bb.1:                                # %func_fallbackSimpleSort.11
	movq	%rbx, %rdi
	movq	%r12, %rsi
	movl	%r15d, %edx
	movl	%r14d, %ecx
	callq	fallbackSimpleSort.11
	popq	%rbx
	popq	%r12
	popq	%r14
	popq	%r15
	popq	%rbp
	.cfi_def_cfa %rsp, 8
	retq
.LBB4_2:                                # %func_fallbackSimpleSort.14
	.cfi_def_cfa %rbp, 16
	movq	%rbx, %rdi
	movq	%r12, %rsi
	movl	%r15d, %edx
	movl	%r14d, %ecx
	callq	fallbackSimpleSort.14
	popq	%rbx
	popq	%r12
	popq	%r14
	popq	%r15
	popq	%rbp
	.cfi_def_cfa %rsp, 8
	retq
.LBB4_3:                                # %func_fallbackSimpleSort.35
	.cfi_def_cfa %rbp, 16
	movq	%rbx, %rdi
	movq	%r12, %rsi
	movl	%r15d, %edx
	movl	%r14d, %ecx
	callq	fallbackSimpleSort.35
	popq	%rbx
	popq	%r12
	popq	%r14
	popq	%r15
	popq	%rbp
	.cfi_def_cfa %rsp, 8
	retq
.LBB4_4:                                # %func_fallbackSimpleSort.36
	.cfi_def_cfa %rbp, 16
	movq	%rbx, %rdi
	movq	%r12, %rsi
	movl	%r15d, %edx
	movl	%r14d, %ecx
	callq	fallbackSimpleSort.36
	popq	%rbx
	popq	%r12
	popq	%r14
	popq	%r15
	popq	%rbp
	.cfi_def_cfa %rsp, 8
	retq
.LBB4_5:                                # %ctrl0
	.cfi_def_cfa %rbp, 16
	cmpl	$1, %eax
	je	.LBB4_2
# %bb.6:                                # %ctrl1
	cmpl	$2, %eax
	je	.LBB4_3
	jmp	.LBB4_4
.Lfunc_end4:
	.size	fallbackSimpleSort, .Lfunc_end4-fallbackSimpleSort
	.cfi_endproc
                                        # -- End function
	.p2align	4, 0x90         # -- Begin function mainQSort3
	.type	mainQSort3,@function
mainQSort3:                             # @mainQSort3
	.cfi_startproc
# %bb.0:                                # %rand_bb
	pushq	%rbp
	.cfi_def_cfa_offset 16
	.cfi_offset %rbp, -16
	movq	%rsp, %rbp
	.cfi_def_cfa_register %rbp
	pushq	%r15
	pushq	%r14
	pushq	%r13
	pushq	%r12
	pushq	%rbx
	subq	$24, %rsp
	.cfi_offset %rbx, -56
	.cfi_offset %r12, -48
	.cfi_offset %r13, -40
	.cfi_offset %r14, -32
	.cfi_offset %r15, -24
	movl	%r9d, -44(%rbp)         # 4-byte Spill
	movl	%r8d, %r12d
	movl	%ecx, %r13d
	movq	%rdx, %rbx
	movq	%rsi, %r14
	movq	%rdi, %r15
	callq	get_urand
	cmpl	$0, %eax
	jne	.LBB5_5
# %bb.1:                                # %func_mainQSort3.12
	movq	%r15, %rdi
	movq	%r14, %rsi
	movq	%rbx, %rdx
	movl	%r13d, %ecx
	movl	%r12d, %r8d
	movl	-44(%rbp), %r9d         # 4-byte Reload
	movl	16(%rbp), %eax
	movl	%eax, (%rsp)
	movq	24(%rbp), %rax
	movq	%rax, 8(%rsp)
	callq	mainQSort3.12
	addq	$24, %rsp
	popq	%rbx
	popq	%r12
	popq	%r13
	popq	%r14
	popq	%r15
	popq	%rbp
	.cfi_def_cfa %rsp, 8
	retq
.LBB5_2:                                # %func_mainQSort3.17
	.cfi_def_cfa %rbp, 16
	movq	%r15, %rdi
	movq	%r14, %rsi
	movq	%rbx, %rdx
	movl	%r13d, %ecx
	movl	%r12d, %r8d
	movl	%r11d, (%rsp)
	movq	%r10, 8(%rsp)
	callq	mainQSort3.17
	addq	$24, %rsp
	popq	%rbx
	popq	%r12
	popq	%r13
	popq	%r14
	popq	%r15
	popq	%rbp
	.cfi_def_cfa %rsp, 8
	retq
.LBB5_3:                                # %func_mainQSort3.20
	.cfi_def_cfa %rbp, 16
	movl	%eax, (%rsp)
	movq	%r10, 8(%rsp)
	callq	mainQSort3.20
	addq	$24, %rsp
	popq	%rbx
	popq	%r12
	popq	%r13
	popq	%r14
	popq	%r15
	popq	%rbp
	.cfi_def_cfa %rsp, 8
	retq
.LBB5_4:                                # %func_mainQSort3.22
	.cfi_def_cfa %rbp, 16
	movl	%eax, (%rsp)
	movq	%r10, 8(%rsp)
	callq	mainQSort3.22
	addq	$24, %rsp
	popq	%rbx
	popq	%r12
	popq	%r13
	popq	%r14
	popq	%r15
	popq	%rbp
	.cfi_def_cfa %rsp, 8
	retq
.LBB5_5:                                # %ctrl0
	.cfi_def_cfa %rbp, 16
	movl	16(%rbp), %r11d
	movl	-44(%rbp), %r9d         # 4-byte Reload
	movq	24(%rbp), %r10
	cmpl	$1, %eax
	je	.LBB5_2
# %bb.6:                                # %ctrl1
	cmpl	$2, %eax
	movl	%r11d, %eax
	movl	%r12d, %r8d
	movl	%r13d, %ecx
	movq	%rbx, %rdx
	movq	%r14, %rsi
	movq	%r15, %rdi
	je	.LBB5_3
	jmp	.LBB5_4
.Lfunc_end5:
	.size	mainQSort3, .Lfunc_end5-mainQSort3
	.cfi_endproc
                                        # -- End function
	.p2align	4, 0x90         # -- Begin function mainSimpleSort
	.type	mainSimpleSort,@function
mainSimpleSort:                         # @mainSimpleSort
	.cfi_startproc
# %bb.0:                                # %rand_bb
	pushq	%rbp
	.cfi_def_cfa_offset 16
	.cfi_offset %rbp, -16
	movq	%rsp, %rbp
	.cfi_def_cfa_register %rbp
	pushq	%r15
	pushq	%r14
	pushq	%r13
	pushq	%r12
	pushq	%rbx
	subq	$24, %rsp
	.cfi_offset %rbx, -56
	.cfi_offset %r12, -48
	.cfi_offset %r13, -40
	.cfi_offset %r14, -32
	.cfi_offset %r15, -24
	movl	%r9d, -44(%rbp)         # 4-byte Spill
	movl	%r8d, %r12d
	movl	%ecx, %r13d
	movq	%rdx, %rbx
	movq	%rsi, %r14
	movq	%rdi, %r15
	callq	get_urand
	cmpl	$0, %eax
	jne	.LBB6_5
# %bb.1:                                # %func_mainSimpleSort.1
	movq	%r15, %rdi
	movq	%r14, %rsi
	movq	%rbx, %rdx
	movl	%r13d, %ecx
	movl	%r12d, %r8d
	movl	-44(%rbp), %r9d         # 4-byte Reload
	movl	16(%rbp), %eax
	movl	%eax, (%rsp)
	movq	24(%rbp), %rax
	movq	%rax, 8(%rsp)
	callq	mainSimpleSort.1
	addq	$24, %rsp
	popq	%rbx
	popq	%r12
	popq	%r13
	popq	%r14
	popq	%r15
	popq	%rbp
	.cfi_def_cfa %rsp, 8
	retq
.LBB6_2:                                # %func_mainSimpleSort.2
	.cfi_def_cfa %rbp, 16
	movq	%r15, %rdi
	movq	%r14, %rsi
	movq	%rbx, %rdx
	movl	%r13d, %ecx
	movl	%r12d, %r8d
	movl	%r11d, (%rsp)
	movq	%r10, 8(%rsp)
	callq	mainSimpleSort.2
	addq	$24, %rsp
	popq	%rbx
	popq	%r12
	popq	%r13
	popq	%r14
	popq	%r15
	popq	%rbp
	.cfi_def_cfa %rsp, 8
	retq
.LBB6_3:                                # %func_mainSimpleSort.19
	.cfi_def_cfa %rbp, 16
	movl	%eax, (%rsp)
	movq	%r10, 8(%rsp)
	callq	mainSimpleSort.19
	addq	$24, %rsp
	popq	%rbx
	popq	%r12
	popq	%r13
	popq	%r14
	popq	%r15
	popq	%rbp
	.cfi_def_cfa %rsp, 8
	retq
.LBB6_4:                                # %func_mainSimpleSort.24
	.cfi_def_cfa %rbp, 16
	movl	%eax, (%rsp)
	movq	%r10, 8(%rsp)
	callq	mainSimpleSort.24
	addq	$24, %rsp
	popq	%rbx
	popq	%r12
	popq	%r13
	popq	%r14
	popq	%r15
	popq	%rbp
	.cfi_def_cfa %rsp, 8
	retq
.LBB6_5:                                # %ctrl0
	.cfi_def_cfa %rbp, 16
	movl	16(%rbp), %r11d
	movl	-44(%rbp), %r9d         # 4-byte Reload
	movq	24(%rbp), %r10
	cmpl	$1, %eax
	je	.LBB6_2
# %bb.6:                                # %ctrl1
	cmpl	$2, %eax
	movl	%r11d, %eax
	movl	%r12d, %r8d
	movl	%r13d, %ecx
	movq	%rbx, %rdx
	movq	%r14, %rsi
	movq	%r15, %rdi
	je	.LBB6_3
	jmp	.LBB6_4
.Lfunc_end6:
	.size	mainSimpleSort, .Lfunc_end6-mainSimpleSort
	.cfi_endproc
                                        # -- End function
	.p2align	4, 0x90         # -- Begin function mmed3
	.type	mmed3,@function
mmed3:                                  # @mmed3
	.cfi_startproc
# %bb.0:                                # %rand_bb
	pushq	%rbp
	.cfi_def_cfa_offset 16
	.cfi_offset %rbp, -16
	movq	%rsp, %rbp
	.cfi_def_cfa_register %rbp
	pushq	%r15
	pushq	%r14
	pushq	%rbx
	pushq	%rax
	.cfi_offset %rbx, -40
	.cfi_offset %r14, -32
	.cfi_offset %r15, -24
	movl	%edx, %r14d
	movl	%esi, %r15d
	movl	%edi, %ebx
	callq	get_urand
	cmpl	$0, %eax
	jne	.LBB7_5
# %bb.1:                                # %func_mmed3.7
	movzbl	%bl, %edi
	movzbl	%r15b, %esi
	movzbl	%r14b, %edx
	callq	mmed3.7
	movzbl	%al, %eax
	addq	$8, %rsp
	popq	%rbx
	popq	%r14
	popq	%r15
	popq	%rbp
	.cfi_def_cfa %rsp, 8
	retq
.LBB7_2:                                # %func_mmed3.10
	.cfi_def_cfa %rbp, 16
	movzbl	%bl, %edi
	movzbl	%r15b, %esi
	movzbl	%r14b, %edx
	callq	mmed3.10
	movzbl	%al, %eax
	addq	$8, %rsp
	popq	%rbx
	popq	%r14
	popq	%r15
	popq	%rbp
	.cfi_def_cfa %rsp, 8
	retq
.LBB7_3:                                # %func_mmed3.13
	.cfi_def_cfa %rbp, 16
	movzbl	%bl, %edi
	movzbl	%r15b, %esi
	movzbl	%r14b, %edx
	callq	mmed3.13
	movzbl	%al, %eax
	addq	$8, %rsp
	popq	%rbx
	popq	%r14
	popq	%r15
	popq	%rbp
	.cfi_def_cfa %rsp, 8
	retq
.LBB7_4:                                # %func_mmed3.15
	.cfi_def_cfa %rbp, 16
	movzbl	%bl, %edi
	movzbl	%r15b, %esi
	movzbl	%r14b, %edx
	callq	mmed3.15
	movzbl	%al, %eax
	addq	$8, %rsp
	popq	%rbx
	popq	%r14
	popq	%r15
	popq	%rbp
	.cfi_def_cfa %rsp, 8
	retq
.LBB7_5:                                # %ctrl0
	.cfi_def_cfa %rbp, 16
	cmpl	$1, %eax
	je	.LBB7_2
# %bb.6:                                # %ctrl1
	cmpl	$2, %eax
	je	.LBB7_3
	jmp	.LBB7_4
.Lfunc_end7:
	.size	mmed3, .Lfunc_end7-mmed3
	.cfi_endproc
                                        # -- End function
	.p2align	4, 0x90         # -- Begin function mainGtU
	.type	mainGtU,@function
mainGtU:                                # @mainGtU
	.cfi_startproc
# %bb.0:                                # %rand_bb
	pushq	%rbp
	.cfi_def_cfa_offset 16
	.cfi_offset %rbp, -16
	movq	%rsp, %rbp
	.cfi_def_cfa_register %rbp
	pushq	%r15
	pushq	%r14
	pushq	%r13
	pushq	%r12
	pushq	%rbx
	pushq	%rax
	.cfi_offset %rbx, -56
	.cfi_offset %r12, -48
	.cfi_offset %r13, -40
	.cfi_offset %r14, -32
	.cfi_offset %r15, -24
	movq	%r9, -48(%rbp)          # 8-byte Spill
	movl	%r8d, %r12d
	movq	%rcx, %r13
	movq	%rdx, %rbx
	movl	%esi, %r14d
	movl	%edi, %r15d
	callq	get_urand
	cmpl	$0, %eax
	jne	.LBB8_5
# %bb.1:                                # %func_mainGtU.9
	movl	%r15d, %edi
	movl	%r14d, %esi
	movq	%rbx, %rdx
	movq	%r13, %rcx
	movl	%r12d, %r8d
	movq	-48(%rbp), %r9          # 8-byte Reload
	callq	mainGtU.9
	movzbl	%al, %eax
	addq	$8, %rsp
	popq	%rbx
	popq	%r12
	popq	%r13
	popq	%r14
	popq	%r15
	popq	%rbp
	.cfi_def_cfa %rsp, 8
	retq
.LBB8_2:                                # %func_mainGtU.25
	.cfi_def_cfa %rbp, 16
	movl	%r15d, %edi
	movl	%r14d, %esi
	movq	%rbx, %rdx
	movq	%r13, %rcx
	movl	%r12d, %r8d
	callq	mainGtU.25
	movzbl	%al, %eax
	addq	$8, %rsp
	popq	%rbx
	popq	%r12
	popq	%r13
	popq	%r14
	popq	%r15
	popq	%rbp
	.cfi_def_cfa %rsp, 8
	retq
.LBB8_3:                                # %func_mainGtU.26
	.cfi_def_cfa %rbp, 16
	callq	mainGtU.26
	movzbl	%al, %eax
	addq	$8, %rsp
	popq	%rbx
	popq	%r12
	popq	%r13
	popq	%r14
	popq	%r15
	popq	%rbp
	.cfi_def_cfa %rsp, 8
	retq
.LBB8_4:                                # %func_mainGtU.27
	.cfi_def_cfa %rbp, 16
	callq	mainGtU.27
	movzbl	%al, %eax
	addq	$8, %rsp
	popq	%rbx
	popq	%r12
	popq	%r13
	popq	%r14
	popq	%r15
	popq	%rbp
	.cfi_def_cfa %rsp, 8
	retq
.LBB8_5:                                # %ctrl0
	.cfi_def_cfa %rbp, 16
	movq	-48(%rbp), %r9          # 8-byte Reload
	cmpl	$1, %eax
	je	.LBB8_2
# %bb.6:                                # %ctrl1
	cmpl	$2, %eax
	movl	%r12d, %r8d
	movq	%r13, %rcx
	movq	%rbx, %rdx
	movl	%r14d, %esi
	movl	%r15d, %edi
	je	.LBB8_3
	jmp	.LBB8_4
.Lfunc_end8:
	.size	mainGtU, .Lfunc_end8-mainGtU
	.cfi_endproc
                                        # -- End function
	.p2align	4, 0x90         # -- Begin function mainSimpleSort.1
	.type	mainSimpleSort.1,@function
mainSimpleSort.1:                       # @mainSimpleSort.1
	.cfi_startproc
# %bb.0:                                # %entry
	pushq	%rbp
	.cfi_def_cfa_offset 16
	.cfi_offset %rbp, -16
	movq	%rsp, %rbp
	.cfi_def_cfa_register %rbp
	subq	$80, %rsp
	movq	24(%rbp), %rax
	movl	16(%rbp), %eax
	movl	$907375504, -68(%rbp)   # imm = 0x36157390
	movq	%rdi, -32(%rbp)
	movq	%rsi, -56(%rbp)
	movq	%rdx, -64(%rbp)
	movl	%ecx, -44(%rbp)
	movl	%r8d, -36(%rbp)
	movl	%r9d, -40(%rbp)
	movl	-40(%rbp), %eax
	subl	-36(%rbp), %eax
	addl	$1, %eax
	movl	%eax, -48(%rbp)
	cmpl	$2, -48(%rbp)
	jge	.LBB9_2
# %bb.1:                                # %if.then
	jmp	.LBB9_38
.LBB9_2:                                # %if.end
	movl	$0, -16(%rbp)
.LBB9_3:                                # %while.cond
                                        # =>This Inner Loop Header: Depth=1
	movslq	-16(%rbp), %rax
	movl	incs(,%rax,4), %eax
	cmpl	-48(%rbp), %eax
	jge	.LBB9_5
# %bb.4:                                # %while.body
                                        #   in Loop: Header=BB9_3 Depth=1
	movl	-16(%rbp), %eax
	addl	$1, %eax
	movl	%eax, -16(%rbp)
	jmp	.LBB9_3
.LBB9_5:                                # %while.end
	movl	-16(%rbp), %eax
	addl	$-1, %eax
	movl	%eax, -16(%rbp)
.LBB9_6:                                # %for.cond
                                        # =>This Loop Header: Depth=1
                                        #     Child Loop BB9_8 Depth 2
                                        #       Child Loop BB9_11 Depth 3
                                        #       Child Loop BB9_19 Depth 3
                                        #       Child Loop BB9_27 Depth 3
	cmpl	$0, -16(%rbp)
	jl	.LBB9_37
# %bb.7:                                # %for.body
                                        #   in Loop: Header=BB9_6 Depth=1
	movslq	-16(%rbp), %rax
	movl	incs(,%rax,4), %eax
	movl	%eax, -12(%rbp)
	movl	-36(%rbp), %eax
	addl	-12(%rbp), %eax
	movl	%eax, -8(%rbp)
.LBB9_8:                                # %while.body7
                                        #   Parent Loop BB9_6 Depth=1
                                        # =>  This Loop Header: Depth=2
                                        #       Child Loop BB9_11 Depth 3
                                        #       Child Loop BB9_19 Depth 3
                                        #       Child Loop BB9_27 Depth 3
	movl	-8(%rbp), %eax
	cmpl	-40(%rbp), %eax
	jle	.LBB9_10
# %bb.9:                                # %if.then9
                                        #   in Loop: Header=BB9_6 Depth=1
	jmp	.LBB9_35
.LBB9_10:                               # %if.end10
                                        #   in Loop: Header=BB9_8 Depth=2
	movq	-32(%rbp), %rax
	movslq	-8(%rbp), %rcx
	movl	(%rax,%rcx,4), %eax
	movl	%eax, -20(%rbp)
	movl	-8(%rbp), %eax
	movl	%eax, -4(%rbp)
.LBB9_11:                               # %while.cond13
                                        #   Parent Loop BB9_6 Depth=1
                                        #     Parent Loop BB9_8 Depth=2
                                        # =>    This Inner Loop Header: Depth=3
	movq	-32(%rbp), %rax
	movl	-4(%rbp), %ecx
	subl	-12(%rbp), %ecx
	movslq	%ecx, %rcx
	movl	(%rax,%rcx,4), %edi
	addl	16(%rbp), %edi
	movl	-20(%rbp), %esi
	addl	16(%rbp), %esi
	movq	-56(%rbp), %rdx
	movq	-64(%rbp), %rcx
	movl	-44(%rbp), %r8d
	movq	24(%rbp), %r9
	callq	mainGtU
	cmpb	$0, %al
	je	.LBB9_15
# %bb.12:                               # %while.body19
                                        #   in Loop: Header=BB9_11 Depth=3
	movq	-32(%rbp), %rax
	movl	-4(%rbp), %ecx
	subl	-12(%rbp), %ecx
	movslq	%ecx, %rcx
	movl	(%rax,%rcx,4), %eax
	movq	-32(%rbp), %rcx
	movslq	-4(%rbp), %rdx
	movl	%eax, (%rcx,%rdx,4)
	movl	-4(%rbp), %eax
	subl	-12(%rbp), %eax
	movl	%eax, -4(%rbp)
	movl	-4(%rbp), %eax
	movl	-36(%rbp), %ecx
	addl	-12(%rbp), %ecx
	subl	$1, %ecx
	cmpl	%ecx, %eax
	jg	.LBB9_14
# %bb.13:                               # %if.then29
                                        #   in Loop: Header=BB9_8 Depth=2
	jmp	.LBB9_16
.LBB9_14:                               # %if.end30
                                        #   in Loop: Header=BB9_11 Depth=3
	jmp	.LBB9_11
.LBB9_15:                               # %while.end31.loopexit
                                        #   in Loop: Header=BB9_8 Depth=2
	jmp	.LBB9_16
.LBB9_16:                               # %while.end31
                                        #   in Loop: Header=BB9_8 Depth=2
	movl	-20(%rbp), %eax
	movq	-32(%rbp), %rcx
	movslq	-4(%rbp), %rdx
	movl	%eax, (%rcx,%rdx,4)
	movl	-8(%rbp), %eax
	addl	$1, %eax
	movl	%eax, -8(%rbp)
	movl	-8(%rbp), %eax
	cmpl	-40(%rbp), %eax
	jle	.LBB9_18
# %bb.17:                               # %if.then36
                                        #   in Loop: Header=BB9_6 Depth=1
	jmp	.LBB9_35
.LBB9_18:                               # %if.end37
                                        #   in Loop: Header=BB9_8 Depth=2
	movq	-32(%rbp), %rax
	movslq	-8(%rbp), %rcx
	movl	(%rax,%rcx,4), %eax
	movl	%eax, -20(%rbp)
	movl	-8(%rbp), %eax
	movl	%eax, -4(%rbp)
.LBB9_19:                               # %while.cond40
                                        #   Parent Loop BB9_6 Depth=1
                                        #     Parent Loop BB9_8 Depth=2
                                        # =>    This Inner Loop Header: Depth=3
	movq	-32(%rbp), %rax
	movl	-4(%rbp), %ecx
	subl	-12(%rbp), %ecx
	movslq	%ecx, %rcx
	movl	(%rax,%rcx,4), %edi
	addl	16(%rbp), %edi
	movl	-20(%rbp), %esi
	addl	16(%rbp), %esi
	movq	-56(%rbp), %rdx
	movq	-64(%rbp), %rcx
	movl	-44(%rbp), %r8d
	movq	24(%rbp), %r9
	callq	mainGtU
	cmpb	$0, %al
	je	.LBB9_23
# %bb.20:                               # %while.body48
                                        #   in Loop: Header=BB9_19 Depth=3
	movq	-32(%rbp), %rax
	movl	-4(%rbp), %ecx
	subl	-12(%rbp), %ecx
	movslq	%ecx, %rcx
	movl	(%rax,%rcx,4), %eax
	movq	-32(%rbp), %rcx
	movslq	-4(%rbp), %rdx
	movl	%eax, (%rcx,%rdx,4)
	movl	-4(%rbp), %eax
	subl	-12(%rbp), %eax
	movl	%eax, -4(%rbp)
	movl	-4(%rbp), %eax
	movl	-36(%rbp), %ecx
	addl	-12(%rbp), %ecx
	subl	$1, %ecx
	cmpl	%ecx, %eax
	jg	.LBB9_22
# %bb.21:                               # %if.then58
                                        #   in Loop: Header=BB9_8 Depth=2
	jmp	.LBB9_24
.LBB9_22:                               # %if.end59
                                        #   in Loop: Header=BB9_19 Depth=3
	jmp	.LBB9_19
.LBB9_23:                               # %while.end60.loopexit
                                        #   in Loop: Header=BB9_8 Depth=2
	jmp	.LBB9_24
.LBB9_24:                               # %while.end60
                                        #   in Loop: Header=BB9_8 Depth=2
	movl	-20(%rbp), %eax
	movq	-32(%rbp), %rcx
	movslq	-4(%rbp), %rdx
	movl	%eax, (%rcx,%rdx,4)
	movl	-8(%rbp), %eax
	addl	$1, %eax
	movl	%eax, -8(%rbp)
	movl	-8(%rbp), %eax
	cmpl	-40(%rbp), %eax
	jle	.LBB9_26
# %bb.25:                               # %if.then65
                                        #   in Loop: Header=BB9_6 Depth=1
	jmp	.LBB9_35
.LBB9_26:                               # %if.end66
                                        #   in Loop: Header=BB9_8 Depth=2
	movq	-32(%rbp), %rax
	movslq	-8(%rbp), %rcx
	movl	(%rax,%rcx,4), %eax
	movl	%eax, -20(%rbp)
	movl	-8(%rbp), %eax
	movl	%eax, -4(%rbp)
.LBB9_27:                               # %while.cond69
                                        #   Parent Loop BB9_6 Depth=1
                                        #     Parent Loop BB9_8 Depth=2
                                        # =>    This Inner Loop Header: Depth=3
	movq	-32(%rbp), %rax
	movl	-4(%rbp), %ecx
	subl	-12(%rbp), %ecx
	movslq	%ecx, %rcx
	movl	(%rax,%rcx,4), %edi
	addl	16(%rbp), %edi
	movl	-20(%rbp), %esi
	addl	16(%rbp), %esi
	movq	-56(%rbp), %rdx
	movq	-64(%rbp), %rcx
	movl	-44(%rbp), %r8d
	movq	24(%rbp), %r9
	callq	mainGtU
	cmpb	$0, %al
	je	.LBB9_31
# %bb.28:                               # %while.body77
                                        #   in Loop: Header=BB9_27 Depth=3
	movq	-32(%rbp), %rax
	movl	-4(%rbp), %ecx
	subl	-12(%rbp), %ecx
	movslq	%ecx, %rcx
	movl	(%rax,%rcx,4), %eax
	movq	-32(%rbp), %rcx
	movslq	-4(%rbp), %rdx
	movl	%eax, (%rcx,%rdx,4)
	movl	-4(%rbp), %eax
	subl	-12(%rbp), %eax
	movl	%eax, -4(%rbp)
	movl	-4(%rbp), %eax
	movl	-36(%rbp), %ecx
	addl	-12(%rbp), %ecx
	subl	$1, %ecx
	cmpl	%ecx, %eax
	jg	.LBB9_30
# %bb.29:                               # %if.then87
                                        #   in Loop: Header=BB9_8 Depth=2
	jmp	.LBB9_32
.LBB9_30:                               # %if.end88
                                        #   in Loop: Header=BB9_27 Depth=3
	jmp	.LBB9_27
.LBB9_31:                               # %while.end89.loopexit
                                        #   in Loop: Header=BB9_8 Depth=2
	jmp	.LBB9_32
.LBB9_32:                               # %while.end89
                                        #   in Loop: Header=BB9_8 Depth=2
	movl	-20(%rbp), %eax
	movq	-32(%rbp), %rcx
	movslq	-4(%rbp), %rdx
	movl	%eax, (%rcx,%rdx,4)
	movl	-8(%rbp), %eax
	addl	$1, %eax
	movl	%eax, -8(%rbp)
	movq	24(%rbp), %rax
	cmpl	$0, (%rax)
	jge	.LBB9_34
# %bb.33:                               # %if.then94
	jmp	.LBB9_38
.LBB9_34:                               # %if.end95
                                        #   in Loop: Header=BB9_8 Depth=2
	jmp	.LBB9_8
.LBB9_35:                               # %while.end96
                                        #   in Loop: Header=BB9_6 Depth=1
	jmp	.LBB9_36
.LBB9_36:                               # %for.inc
                                        #   in Loop: Header=BB9_6 Depth=1
	movl	-16(%rbp), %eax
	addl	$-1, %eax
	movl	%eax, -16(%rbp)
	jmp	.LBB9_6
.LBB9_37:                               # %for.end.loopexit
	jmp	.LBB9_38
.LBB9_38:                               # %for.end
	cmpl	$907375504, -68(%rbp)   # imm = 0x36157390
	jne	.LBB9_40
.LBB9_39:
	addq	$80, %rsp
	popq	%rbp
	.cfi_def_cfa %rsp, 8
	retq
.LBB9_40:                               # %func_exit
	.cfi_def_cfa %rbp, 16
	callq	detect_breach
	jmp	.LBB9_39
.Lfunc_end9:
	.size	mainSimpleSort.1, .Lfunc_end9-mainSimpleSort.1
	.cfi_endproc
                                        # -- End function
	.p2align	4, 0x90         # -- Begin function mainSimpleSort.2
	.type	mainSimpleSort.2,@function
mainSimpleSort.2:                       # @mainSimpleSort.2
	.cfi_startproc
# %bb.0:                                # %entry
	pushq	%rbp
	.cfi_def_cfa_offset 16
	.cfi_offset %rbp, -16
	movq	%rsp, %rbp
	.cfi_def_cfa_register %rbp
	subq	$80, %rsp
	movq	24(%rbp), %rax
	movl	16(%rbp), %eax
	movl	$1183237661, -68(%rbp)  # imm = 0x4686C61D
	movq	%rdi, -32(%rbp)
	movq	%rsi, -64(%rbp)
	movq	%rdx, -56(%rbp)
	movl	%ecx, -44(%rbp)
	movl	%r8d, -36(%rbp)
	movl	%r9d, -40(%rbp)
	movl	-40(%rbp), %eax
	subl	-36(%rbp), %eax
	addl	$1, %eax
	movl	%eax, -48(%rbp)
	cmpl	$2, -48(%rbp)
	jge	.LBB10_2
# %bb.1:                                # %if.then
	jmp	.LBB10_38
.LBB10_2:                               # %if.end
	movl	$0, -16(%rbp)
.LBB10_3:                               # %while.cond
                                        # =>This Inner Loop Header: Depth=1
	movslq	-16(%rbp), %rax
	movl	incs(,%rax,4), %eax
	cmpl	-48(%rbp), %eax
	jge	.LBB10_5
# %bb.4:                                # %while.body
                                        #   in Loop: Header=BB10_3 Depth=1
	movl	-16(%rbp), %eax
	addl	$1, %eax
	movl	%eax, -16(%rbp)
	jmp	.LBB10_3
.LBB10_5:                               # %while.end
	movl	-16(%rbp), %eax
	addl	$-1, %eax
	movl	%eax, -16(%rbp)
.LBB10_6:                               # %for.cond
                                        # =>This Loop Header: Depth=1
                                        #     Child Loop BB10_8 Depth 2
                                        #       Child Loop BB10_11 Depth 3
                                        #       Child Loop BB10_19 Depth 3
                                        #       Child Loop BB10_27 Depth 3
	cmpl	$0, -16(%rbp)
	jl	.LBB10_37
# %bb.7:                                # %for.body
                                        #   in Loop: Header=BB10_6 Depth=1
	movslq	-16(%rbp), %rax
	movl	incs(,%rax,4), %eax
	movl	%eax, -12(%rbp)
	movl	-36(%rbp), %eax
	addl	-12(%rbp), %eax
	movl	%eax, -8(%rbp)
.LBB10_8:                               # %while.body7
                                        #   Parent Loop BB10_6 Depth=1
                                        # =>  This Loop Header: Depth=2
                                        #       Child Loop BB10_11 Depth 3
                                        #       Child Loop BB10_19 Depth 3
                                        #       Child Loop BB10_27 Depth 3
	movl	-8(%rbp), %eax
	cmpl	-40(%rbp), %eax
	jle	.LBB10_10
# %bb.9:                                # %if.then9
                                        #   in Loop: Header=BB10_6 Depth=1
	jmp	.LBB10_35
.LBB10_10:                              # %if.end10
                                        #   in Loop: Header=BB10_8 Depth=2
	movq	-32(%rbp), %rax
	movslq	-8(%rbp), %rcx
	movl	(%rax,%rcx,4), %eax
	movl	%eax, -20(%rbp)
	movl	-8(%rbp), %eax
	movl	%eax, -4(%rbp)
.LBB10_11:                              # %while.cond13
                                        #   Parent Loop BB10_6 Depth=1
                                        #     Parent Loop BB10_8 Depth=2
                                        # =>    This Inner Loop Header: Depth=3
	movq	-32(%rbp), %rax
	movl	-4(%rbp), %ecx
	subl	-12(%rbp), %ecx
	movslq	%ecx, %rcx
	movl	(%rax,%rcx,4), %edi
	addl	16(%rbp), %edi
	movl	-20(%rbp), %esi
	addl	16(%rbp), %esi
	movq	-64(%rbp), %rdx
	movq	-56(%rbp), %rcx
	movl	-44(%rbp), %r8d
	movq	24(%rbp), %r9
	callq	mainGtU
	cmpb	$0, %al
	je	.LBB10_15
# %bb.12:                               # %while.body19
                                        #   in Loop: Header=BB10_11 Depth=3
	movq	-32(%rbp), %rax
	movl	-4(%rbp), %ecx
	subl	-12(%rbp), %ecx
	movslq	%ecx, %rcx
	movl	(%rax,%rcx,4), %eax
	movq	-32(%rbp), %rcx
	movslq	-4(%rbp), %rdx
	movl	%eax, (%rcx,%rdx,4)
	movl	-4(%rbp), %eax
	subl	-12(%rbp), %eax
	movl	%eax, -4(%rbp)
	movl	-4(%rbp), %eax
	movl	-36(%rbp), %ecx
	addl	-12(%rbp), %ecx
	subl	$1, %ecx
	cmpl	%ecx, %eax
	jg	.LBB10_14
# %bb.13:                               # %if.then29
                                        #   in Loop: Header=BB10_8 Depth=2
	jmp	.LBB10_16
.LBB10_14:                              # %if.end30
                                        #   in Loop: Header=BB10_11 Depth=3
	jmp	.LBB10_11
.LBB10_15:                              # %while.end31.loopexit
                                        #   in Loop: Header=BB10_8 Depth=2
	jmp	.LBB10_16
.LBB10_16:                              # %while.end31
                                        #   in Loop: Header=BB10_8 Depth=2
	movl	-20(%rbp), %eax
	movq	-32(%rbp), %rcx
	movslq	-4(%rbp), %rdx
	movl	%eax, (%rcx,%rdx,4)
	movl	-8(%rbp), %eax
	addl	$1, %eax
	movl	%eax, -8(%rbp)
	movl	-8(%rbp), %eax
	cmpl	-40(%rbp), %eax
	jle	.LBB10_18
# %bb.17:                               # %if.then36
                                        #   in Loop: Header=BB10_6 Depth=1
	jmp	.LBB10_35
.LBB10_18:                              # %if.end37
                                        #   in Loop: Header=BB10_8 Depth=2
	movq	-32(%rbp), %rax
	movslq	-8(%rbp), %rcx
	movl	(%rax,%rcx,4), %eax
	movl	%eax, -20(%rbp)
	movl	-8(%rbp), %eax
	movl	%eax, -4(%rbp)
.LBB10_19:                              # %while.cond40
                                        #   Parent Loop BB10_6 Depth=1
                                        #     Parent Loop BB10_8 Depth=2
                                        # =>    This Inner Loop Header: Depth=3
	movq	-32(%rbp), %rax
	movl	-4(%rbp), %ecx
	subl	-12(%rbp), %ecx
	movslq	%ecx, %rcx
	movl	(%rax,%rcx,4), %edi
	addl	16(%rbp), %edi
	movl	-20(%rbp), %esi
	addl	16(%rbp), %esi
	movq	-64(%rbp), %rdx
	movq	-56(%rbp), %rcx
	movl	-44(%rbp), %r8d
	movq	24(%rbp), %r9
	callq	mainGtU
	cmpb	$0, %al
	je	.LBB10_23
# %bb.20:                               # %while.body48
                                        #   in Loop: Header=BB10_19 Depth=3
	movq	-32(%rbp), %rax
	movl	-4(%rbp), %ecx
	subl	-12(%rbp), %ecx
	movslq	%ecx, %rcx
	movl	(%rax,%rcx,4), %eax
	movq	-32(%rbp), %rcx
	movslq	-4(%rbp), %rdx
	movl	%eax, (%rcx,%rdx,4)
	movl	-4(%rbp), %eax
	subl	-12(%rbp), %eax
	movl	%eax, -4(%rbp)
	movl	-4(%rbp), %eax
	movl	-36(%rbp), %ecx
	addl	-12(%rbp), %ecx
	subl	$1, %ecx
	cmpl	%ecx, %eax
	jg	.LBB10_22
# %bb.21:                               # %if.then58
                                        #   in Loop: Header=BB10_8 Depth=2
	jmp	.LBB10_24
.LBB10_22:                              # %if.end59
                                        #   in Loop: Header=BB10_19 Depth=3
	jmp	.LBB10_19
.LBB10_23:                              # %while.end60.loopexit
                                        #   in Loop: Header=BB10_8 Depth=2
	jmp	.LBB10_24
.LBB10_24:                              # %while.end60
                                        #   in Loop: Header=BB10_8 Depth=2
	movl	-20(%rbp), %eax
	movq	-32(%rbp), %rcx
	movslq	-4(%rbp), %rdx
	movl	%eax, (%rcx,%rdx,4)
	movl	-8(%rbp), %eax
	addl	$1, %eax
	movl	%eax, -8(%rbp)
	movl	-8(%rbp), %eax
	cmpl	-40(%rbp), %eax
	jle	.LBB10_26
# %bb.25:                               # %if.then65
                                        #   in Loop: Header=BB10_6 Depth=1
	jmp	.LBB10_35
.LBB10_26:                              # %if.end66
                                        #   in Loop: Header=BB10_8 Depth=2
	movq	-32(%rbp), %rax
	movslq	-8(%rbp), %rcx
	movl	(%rax,%rcx,4), %eax
	movl	%eax, -20(%rbp)
	movl	-8(%rbp), %eax
	movl	%eax, -4(%rbp)
.LBB10_27:                              # %while.cond69
                                        #   Parent Loop BB10_6 Depth=1
                                        #     Parent Loop BB10_8 Depth=2
                                        # =>    This Inner Loop Header: Depth=3
	movq	-32(%rbp), %rax
	movl	-4(%rbp), %ecx
	subl	-12(%rbp), %ecx
	movslq	%ecx, %rcx
	movl	(%rax,%rcx,4), %edi
	addl	16(%rbp), %edi
	movl	-20(%rbp), %esi
	addl	16(%rbp), %esi
	movq	-64(%rbp), %rdx
	movq	-56(%rbp), %rcx
	movl	-44(%rbp), %r8d
	movq	24(%rbp), %r9
	callq	mainGtU
	cmpb	$0, %al
	je	.LBB10_31
# %bb.28:                               # %while.body77
                                        #   in Loop: Header=BB10_27 Depth=3
	movq	-32(%rbp), %rax
	movl	-4(%rbp), %ecx
	subl	-12(%rbp), %ecx
	movslq	%ecx, %rcx
	movl	(%rax,%rcx,4), %eax
	movq	-32(%rbp), %rcx
	movslq	-4(%rbp), %rdx
	movl	%eax, (%rcx,%rdx,4)
	movl	-4(%rbp), %eax
	subl	-12(%rbp), %eax
	movl	%eax, -4(%rbp)
	movl	-4(%rbp), %eax
	movl	-36(%rbp), %ecx
	addl	-12(%rbp), %ecx
	subl	$1, %ecx
	cmpl	%ecx, %eax
	jg	.LBB10_30
# %bb.29:                               # %if.then87
                                        #   in Loop: Header=BB10_8 Depth=2
	jmp	.LBB10_32
.LBB10_30:                              # %if.end88
                                        #   in Loop: Header=BB10_27 Depth=3
	jmp	.LBB10_27
.LBB10_31:                              # %while.end89.loopexit
                                        #   in Loop: Header=BB10_8 Depth=2
	jmp	.LBB10_32
.LBB10_32:                              # %while.end89
                                        #   in Loop: Header=BB10_8 Depth=2
	movl	-20(%rbp), %eax
	movq	-32(%rbp), %rcx
	movslq	-4(%rbp), %rdx
	movl	%eax, (%rcx,%rdx,4)
	movl	-8(%rbp), %eax
	addl	$1, %eax
	movl	%eax, -8(%rbp)
	movq	24(%rbp), %rax
	cmpl	$0, (%rax)
	jge	.LBB10_34
# %bb.33:                               # %if.then94
	jmp	.LBB10_38
.LBB10_34:                              # %if.end95
                                        #   in Loop: Header=BB10_8 Depth=2
	jmp	.LBB10_8
.LBB10_35:                              # %while.end96
                                        #   in Loop: Header=BB10_6 Depth=1
	jmp	.LBB10_36
.LBB10_36:                              # %for.inc
                                        #   in Loop: Header=BB10_6 Depth=1
	movl	-16(%rbp), %eax
	addl	$-1, %eax
	movl	%eax, -16(%rbp)
	jmp	.LBB10_6
.LBB10_37:                              # %for.end.loopexit
	jmp	.LBB10_38
.LBB10_38:                              # %for.end
	cmpl	$1183237661, -68(%rbp)  # imm = 0x4686C61D
	jne	.LBB10_40
.LBB10_39:
	addq	$80, %rsp
	popq	%rbp
	.cfi_def_cfa %rsp, 8
	retq
.LBB10_40:                              # %func_exit
	.cfi_def_cfa %rbp, 16
	callq	detect_breach
	jmp	.LBB10_39
.Lfunc_end10:
	.size	mainSimpleSort.2, .Lfunc_end10-mainSimpleSort.2
	.cfi_endproc
                                        # -- End function
	.globl	BZ2_blockSort.3         # -- Begin function BZ2_blockSort.3
	.p2align	4, 0x90
	.type	BZ2_blockSort.3,@function
BZ2_blockSort.3:                        # @BZ2_blockSort.3
	.cfi_startproc
# %bb.0:                                # %entry
	pushq	%rbp
	.cfi_def_cfa_offset 16
	.cfi_offset %rbp, -16
	movq	%rsp, %rbp
	.cfi_def_cfa_register %rbp
	subq	$80, %rsp
	movl	$860649343, -44(%rbp)   # imm = 0x334C777F
	movq	%rdi, -16(%rbp)
	movq	-16(%rbp), %rax
	movq	56(%rax), %rax
	movq	%rax, -56(%rbp)
	movq	-16(%rbp), %rax
	movq	64(%rax), %rax
	movq	%rax, -64(%rbp)
	movq	-16(%rbp), %rax
	movq	40(%rax), %rax
	movq	%rax, -40(%rbp)
	movq	-16(%rbp), %rax
	movl	108(%rax), %eax
	movl	%eax, -8(%rbp)
	movq	-16(%rbp), %rax
	movl	656(%rax), %eax
	movl	%eax, -20(%rbp)
	movq	-16(%rbp), %rax
	movl	88(%rax), %eax
	movl	%eax, -24(%rbp)
	cmpl	$10000, -8(%rbp)        # imm = 0x2710
	jge	.LBB11_2
# %bb.1:                                # %if.then
	movq	-16(%rbp), %rax
	movq	24(%rax), %rdi
	movq	-16(%rbp), %rax
	movq	32(%rax), %rsi
	movq	-40(%rbp), %rdx
	movl	-8(%rbp), %ecx
	movl	-20(%rbp), %r8d
	callq	fallbackSort
	jmp	.LBB11_18
.LBB11_2:                               # %if.else
	movl	-8(%rbp), %eax
	addl	$34, %eax
	movl	%eax, -4(%rbp)
	movl	-4(%rbp), %eax
	andl	$1, %eax
	cmpl	$0, %eax
	je	.LBB11_4
# %bb.3:                                # %if.then5
	movl	-4(%rbp), %eax
	addl	$1, %eax
	movl	%eax, -4(%rbp)
.LBB11_4:                               # %if.end
	movq	-64(%rbp), %rax
	movslq	-4(%rbp), %rcx
	addq	%rcx, %rax
	movq	%rax, -72(%rbp)
	cmpl	$1, -24(%rbp)
	jge	.LBB11_6
# %bb.5:                                # %if.then7
	movl	$1, -24(%rbp)
.LBB11_6:                               # %if.end8
	cmpl	$100, -24(%rbp)
	jle	.LBB11_8
# %bb.7:                                # %if.then10
	movl	$100, -24(%rbp)
.LBB11_8:                               # %if.end11
	movl	-8(%rbp), %ecx
	movl	-24(%rbp), %eax
	subl	$1, %eax
	cltd
	movl	$3, %esi
	idivl	%esi
	imull	%eax, %ecx
	movl	%ecx, -32(%rbp)
	movl	-32(%rbp), %eax
	movl	%eax, -28(%rbp)
	movq	-56(%rbp), %rdi
	movq	-64(%rbp), %rsi
	movq	-72(%rbp), %rdx
	movq	-40(%rbp), %rcx
	movl	-8(%rbp), %r8d
	movl	-20(%rbp), %r9d
	leaq	-28(%rbp), %rax
	movq	%rax, (%rsp)
	callq	mainSort
	cmpl	$3, -20(%rbp)
	jl	.LBB11_13
# %bb.9:                                # %if.then13
	movq	stderr, %rdi
	movl	-32(%rbp), %edx
	subl	-28(%rbp), %edx
	movl	-8(%rbp), %ecx
	movl	-32(%rbp), %eax
	subl	-28(%rbp), %eax
	vcvtsi2ss	%eax, %xmm0, %xmm0
	cmpl	$0, -8(%rbp)
	jne	.LBB11_11
# %bb.10:                               # %cond.true
	movl	$1, %eax
	jmp	.LBB11_12
.LBB11_11:                              # %cond.false
	movl	-8(%rbp), %eax
.LBB11_12:                              # %cond.end
	vcvtsi2ss	%eax, %xmm0, %xmm1
	vdivss	%xmm1, %xmm0, %xmm0
	vcvtss2sd	%xmm0, %xmm0, %xmm0
	movabsq	$.L.str, %rsi
	movb	$1, %al
	callq	fprintf
.LBB11_13:                              # %if.end21
	cmpl	$0, -28(%rbp)
	jge	.LBB11_17
# %bb.14:                               # %if.then24
	cmpl	$2, -20(%rbp)
	jl	.LBB11_16
# %bb.15:                               # %if.then27
	movq	stderr, %rdi
	movabsq	$.L.str.1, %rsi
	movb	$0, %al
	callq	fprintf
.LBB11_16:                              # %if.end29
	movq	-16(%rbp), %rax
	movq	24(%rax), %rdi
	movq	-16(%rbp), %rax
	movq	32(%rax), %rsi
	movq	-40(%rbp), %rdx
	movl	-8(%rbp), %ecx
	movl	-20(%rbp), %r8d
	callq	fallbackSort
.LBB11_17:                              # %if.end32
	jmp	.LBB11_18
.LBB11_18:                              # %if.end33
	movq	-16(%rbp), %rax
	movl	$-1, 48(%rax)
	movl	$0, -4(%rbp)
.LBB11_19:                              # %for.cond
                                        # =>This Inner Loop Header: Depth=1
	movl	-4(%rbp), %eax
	movq	-16(%rbp), %rcx
	cmpl	108(%rcx), %eax
	jge	.LBB11_24
# %bb.20:                               # %for.body
                                        #   in Loop: Header=BB11_19 Depth=1
	movq	-56(%rbp), %rax
	movslq	-4(%rbp), %rcx
	cmpl	$0, (%rax,%rcx,4)
	jne	.LBB11_22
# %bb.21:                               # %if.then41
	movl	-4(%rbp), %eax
	movq	-16(%rbp), %rcx
	movl	%eax, 48(%rcx)
	jmp	.LBB11_25
.LBB11_22:                              # %if.end43
                                        #   in Loop: Header=BB11_19 Depth=1
	jmp	.LBB11_23
.LBB11_23:                              # %for.inc
                                        #   in Loop: Header=BB11_19 Depth=1
	movl	-4(%rbp), %eax
	addl	$1, %eax
	movl	%eax, -4(%rbp)
	jmp	.LBB11_19
.LBB11_24:                              # %for.end.loopexit
	jmp	.LBB11_25
.LBB11_25:                              # %for.end
	movq	-16(%rbp), %rax
	cmpl	$-1, 48(%rax)
	jne	.LBB11_27
# %bb.26:                               # %if.then48
	movl	$1003, %edi             # imm = 0x3EB
	callq	BZ2_bz__AssertH__fail
.LBB11_27:                              # %if.end49
	cmpl	$860649343, -44(%rbp)   # imm = 0x334C777F
	jne	.LBB11_29
.LBB11_28:
	addq	$80, %rsp
	popq	%rbp
	.cfi_def_cfa %rsp, 8
	retq
.LBB11_29:                              # %func_exit
	.cfi_def_cfa %rbp, 16
	callq	detect_breach
	jmp	.LBB11_28
.Lfunc_end11:
	.size	BZ2_blockSort.3, .Lfunc_end11-BZ2_blockSort.3
	.cfi_endproc
                                        # -- End function
	.p2align	4, 0x90         # -- Begin function mainSort.4
	.type	mainSort.4,@function
mainSort.4:                             # @mainSort.4
	.cfi_startproc
# %bb.0:                                # %entry
	pushq	%rbp
	.cfi_def_cfa_offset 16
	.cfi_offset %rbp, -16
	movq	%rsp, %rbp
	.cfi_def_cfa_register %rbp
	subq	$3472, %rsp             # imm = 0xD90
	movq	16(%rbp), %rax
	movl	$1069229382, -116(%rbp) # imm = 0x3FBB2546
	movq	%rdi, -56(%rbp)
	movq	%rsi, -48(%rbp)
	movq	%rdx, -80(%rbp)
	movq	%rcx, -24(%rbp)
	movl	%r8d, -32(%rbp)
	movl	%r9d, -96(%rbp)
	cmpl	$4, -96(%rbp)
	jl	.LBB12_2
# %bb.1:                                # %if.then
	movq	stderr, %rdi
	movabsq	$.L.str.6, %rsi
	movb	$0, %al
	callq	fprintf
.LBB12_2:                               # %if.end
	movl	$65536, -8(%rbp)        # imm = 0x10000
.LBB12_3:                               # %for.cond
                                        # =>This Inner Loop Header: Depth=1
	cmpl	$0, -8(%rbp)
	jl	.LBB12_6
# %bb.4:                                # %for.body
                                        #   in Loop: Header=BB12_3 Depth=1
	movq	-24(%rbp), %rax
	movslq	-8(%rbp), %rcx
	movl	$0, (%rax,%rcx,4)
# %bb.5:                                # %for.inc
                                        #   in Loop: Header=BB12_3 Depth=1
	movl	-8(%rbp), %eax
	addl	$-1, %eax
	movl	%eax, -8(%rbp)
	jmp	.LBB12_3
.LBB12_6:                               # %for.end
	movq	-48(%rbp), %rax
	movzbl	(%rax), %eax
	shll	$8, %eax
	movl	%eax, -4(%rbp)
	movl	-32(%rbp), %eax
	subl	$1, %eax
	movl	%eax, -8(%rbp)
.LBB12_7:                               # %for.cond3
                                        # =>This Inner Loop Header: Depth=1
	cmpl	$3, -8(%rbp)
	jl	.LBB12_10
# %bb.8:                                # %for.body6
                                        #   in Loop: Header=BB12_7 Depth=1
	movq	-80(%rbp), %rax
	movslq	-8(%rbp), %rcx
	movw	$0, (%rax,%rcx,2)
	movl	-4(%rbp), %eax
	sarl	$8, %eax
	movq	-48(%rbp), %rcx
	movslq	-8(%rbp), %rdx
	movzbl	(%rcx,%rdx), %ecx
	movzwl	%cx, %ecx
	shll	$8, %ecx
	orl	%ecx, %eax
	movl	%eax, -4(%rbp)
	movq	-24(%rbp), %rax
	movslq	-4(%rbp), %rcx
	movl	(%rax,%rcx,4), %edx
	addl	$1, %edx
	movl	%edx, (%rax,%rcx,4)
	movq	-80(%rbp), %rax
	movl	-8(%rbp), %ecx
	subl	$1, %ecx
	movslq	%ecx, %rcx
	movw	$0, (%rax,%rcx,2)
	movl	-4(%rbp), %eax
	sarl	$8, %eax
	movq	-48(%rbp), %rcx
	movl	-8(%rbp), %edx
	subl	$1, %edx
	movslq	%edx, %rdx
	movzbl	(%rcx,%rdx), %ecx
	movzwl	%cx, %ecx
	shll	$8, %ecx
	orl	%ecx, %eax
	movl	%eax, -4(%rbp)
	movq	-24(%rbp), %rax
	movslq	-4(%rbp), %rcx
	movl	(%rax,%rcx,4), %edx
	addl	$1, %edx
	movl	%edx, (%rax,%rcx,4)
	movq	-80(%rbp), %rax
	movl	-8(%rbp), %ecx
	subl	$2, %ecx
	movslq	%ecx, %rcx
	movw	$0, (%rax,%rcx,2)
	movl	-4(%rbp), %eax
	sarl	$8, %eax
	movq	-48(%rbp), %rcx
	movl	-8(%rbp), %edx
	subl	$2, %edx
	movslq	%edx, %rdx
	movzbl	(%rcx,%rdx), %ecx
	movzwl	%cx, %ecx
	shll	$8, %ecx
	orl	%ecx, %eax
	movl	%eax, -4(%rbp)
	movq	-24(%rbp), %rax
	movslq	-4(%rbp), %rcx
	movl	(%rax,%rcx,4), %edx
	addl	$1, %edx
	movl	%edx, (%rax,%rcx,4)
	movq	-80(%rbp), %rax
	movl	-8(%rbp), %ecx
	subl	$3, %ecx
	movslq	%ecx, %rcx
	movw	$0, (%rax,%rcx,2)
	movl	-4(%rbp), %eax
	sarl	$8, %eax
	movq	-48(%rbp), %rcx
	movl	-8(%rbp), %edx
	subl	$3, %edx
	movslq	%edx, %rdx
	movzbl	(%rcx,%rdx), %ecx
	movzwl	%cx, %ecx
	shll	$8, %ecx
	orl	%ecx, %eax
	movl	%eax, -4(%rbp)
	movq	-24(%rbp), %rax
	movslq	-4(%rbp), %rcx
	movl	(%rax,%rcx,4), %edx
	addl	$1, %edx
	movl	%edx, (%rax,%rcx,4)
# %bb.9:                                # %for.inc58
                                        #   in Loop: Header=BB12_7 Depth=1
	movl	-8(%rbp), %eax
	subl	$4, %eax
	movl	%eax, -8(%rbp)
	jmp	.LBB12_7
.LBB12_10:                              # %for.end60
	jmp	.LBB12_11
.LBB12_11:                              # %for.cond61
                                        # =>This Inner Loop Header: Depth=1
	cmpl	$0, -8(%rbp)
	jl	.LBB12_14
# %bb.12:                               # %for.body64
                                        #   in Loop: Header=BB12_11 Depth=1
	movq	-80(%rbp), %rax
	movslq	-8(%rbp), %rcx
	movw	$0, (%rax,%rcx,2)
	movl	-4(%rbp), %eax
	sarl	$8, %eax
	movq	-48(%rbp), %rcx
	movslq	-8(%rbp), %rdx
	movzbl	(%rcx,%rdx), %ecx
	movzwl	%cx, %ecx
	shll	$8, %ecx
	orl	%ecx, %eax
	movl	%eax, -4(%rbp)
	movq	-24(%rbp), %rax
	movslq	-4(%rbp), %rcx
	movl	(%rax,%rcx,4), %edx
	addl	$1, %edx
	movl	%edx, (%rax,%rcx,4)
# %bb.13:                               # %for.inc77
                                        #   in Loop: Header=BB12_11 Depth=1
	movl	-8(%rbp), %eax
	addl	$-1, %eax
	movl	%eax, -8(%rbp)
	jmp	.LBB12_11
.LBB12_14:                              # %for.end79
	movl	$0, -8(%rbp)
.LBB12_15:                              # %for.cond80
                                        # =>This Inner Loop Header: Depth=1
	cmpl	$34, -8(%rbp)
	jge	.LBB12_18
# %bb.16:                               # %for.body83
                                        #   in Loop: Header=BB12_15 Depth=1
	movq	-48(%rbp), %rax
	movslq	-8(%rbp), %rcx
	movb	(%rax,%rcx), %al
	movq	-48(%rbp), %rcx
	movl	-32(%rbp), %edx
	addl	-8(%rbp), %edx
	movslq	%edx, %rdx
	movb	%al, (%rcx,%rdx)
	movq	-80(%rbp), %rax
	movl	-32(%rbp), %ecx
	addl	-8(%rbp), %ecx
	movslq	%ecx, %rcx
	movw	$0, (%rax,%rcx,2)
# %bb.17:                               # %for.inc91
                                        #   in Loop: Header=BB12_15 Depth=1
	movl	-8(%rbp), %eax
	addl	$1, %eax
	movl	%eax, -8(%rbp)
	jmp	.LBB12_15
.LBB12_18:                              # %for.end93
	cmpl	$4, -96(%rbp)
	jl	.LBB12_20
# %bb.19:                               # %if.then96
	movq	stderr, %rdi
	movabsq	$.L.str.2, %rsi
	movb	$0, %al
	callq	fprintf
.LBB12_20:                              # %if.end98
	movl	$1, -8(%rbp)
.LBB12_21:                              # %for.cond99
                                        # =>This Inner Loop Header: Depth=1
	cmpl	$65536, -8(%rbp)        # imm = 0x10000
	jg	.LBB12_24
# %bb.22:                               # %for.body102
                                        #   in Loop: Header=BB12_21 Depth=1
	movq	-24(%rbp), %rax
	movl	-8(%rbp), %ecx
	subl	$1, %ecx
	movslq	%ecx, %rcx
	movl	(%rax,%rcx,4), %eax
	movq	-24(%rbp), %rcx
	movslq	-8(%rbp), %rdx
	addl	(%rcx,%rdx,4), %eax
	movl	%eax, (%rcx,%rdx,4)
# %bb.23:                               # %for.inc109
                                        #   in Loop: Header=BB12_21 Depth=1
	movl	-8(%rbp), %eax
	addl	$1, %eax
	movl	%eax, -8(%rbp)
	jmp	.LBB12_21
.LBB12_24:                              # %for.end111
	movq	-48(%rbp), %rax
	movzbl	(%rax), %eax
	shll	$8, %eax
	movw	%ax, -10(%rbp)
	movl	-32(%rbp), %eax
	subl	$1, %eax
	movl	%eax, -8(%rbp)
.LBB12_25:                              # %for.cond117
                                        # =>This Inner Loop Header: Depth=1
	cmpl	$3, -8(%rbp)
	jl	.LBB12_28
# %bb.26:                               # %for.body120
                                        #   in Loop: Header=BB12_25 Depth=1
	movzwl	-10(%rbp), %eax
	sarl	$8, %eax
	movq	-48(%rbp), %rcx
	movslq	-8(%rbp), %rdx
	movzbl	(%rcx,%rdx), %ecx
	shll	$8, %ecx
	orl	%ecx, %eax
	movw	%ax, -10(%rbp)
	movq	-24(%rbp), %rax
	movzwl	-10(%rbp), %ecx
	movl	(%rax,%rcx,4), %eax
	subl	$1, %eax
	movl	%eax, -4(%rbp)
	movl	-4(%rbp), %eax
	movq	-24(%rbp), %rcx
	movzwl	-10(%rbp), %edx
	movl	%eax, (%rcx,%rdx,4)
	movl	-8(%rbp), %eax
	movq	-56(%rbp), %rcx
	movslq	-4(%rbp), %rdx
	movl	%eax, (%rcx,%rdx,4)
	movzwl	-10(%rbp), %eax
	sarl	$8, %eax
	movq	-48(%rbp), %rcx
	movl	-8(%rbp), %edx
	subl	$1, %edx
	movslq	%edx, %rdx
	movzbl	(%rcx,%rdx), %ecx
	shll	$8, %ecx
	orl	%ecx, %eax
	movw	%ax, -10(%rbp)
	movq	-24(%rbp), %rax
	movzwl	-10(%rbp), %ecx
	movl	(%rax,%rcx,4), %eax
	subl	$1, %eax
	movl	%eax, -4(%rbp)
	movl	-4(%rbp), %eax
	movq	-24(%rbp), %rcx
	movzwl	-10(%rbp), %edx
	movl	%eax, (%rcx,%rdx,4)
	movl	-8(%rbp), %eax
	subl	$1, %eax
	movq	-56(%rbp), %rcx
	movslq	-4(%rbp), %rdx
	movl	%eax, (%rcx,%rdx,4)
	movzwl	-10(%rbp), %eax
	sarl	$8, %eax
	movq	-48(%rbp), %rcx
	movl	-8(%rbp), %edx
	subl	$2, %edx
	movslq	%edx, %rdx
	movzbl	(%rcx,%rdx), %ecx
	shll	$8, %ecx
	orl	%ecx, %eax
	movw	%ax, -10(%rbp)
	movq	-24(%rbp), %rax
	movzwl	-10(%rbp), %ecx
	movl	(%rax,%rcx,4), %eax
	subl	$1, %eax
	movl	%eax, -4(%rbp)
	movl	-4(%rbp), %eax
	movq	-24(%rbp), %rcx
	movzwl	-10(%rbp), %edx
	movl	%eax, (%rcx,%rdx,4)
	movl	-8(%rbp), %eax
	subl	$2, %eax
	movq	-56(%rbp), %rcx
	movslq	-4(%rbp), %rdx
	movl	%eax, (%rcx,%rdx,4)
	movzwl	-10(%rbp), %eax
	sarl	$8, %eax
	movq	-48(%rbp), %rcx
	movl	-8(%rbp), %edx
	subl	$3, %edx
	movslq	%edx, %rdx
	movzbl	(%rcx,%rdx), %ecx
	shll	$8, %ecx
	orl	%ecx, %eax
	movw	%ax, -10(%rbp)
	movq	-24(%rbp), %rax
	movzwl	-10(%rbp), %ecx
	movl	(%rax,%rcx,4), %eax
	subl	$1, %eax
	movl	%eax, -4(%rbp)
	movl	-4(%rbp), %eax
	movq	-24(%rbp), %rcx
	movzwl	-10(%rbp), %edx
	movl	%eax, (%rcx,%rdx,4)
	movl	-8(%rbp), %eax
	subl	$3, %eax
	movq	-56(%rbp), %rcx
	movslq	-4(%rbp), %rdx
	movl	%eax, (%rcx,%rdx,4)
# %bb.27:                               # %for.inc187
                                        #   in Loop: Header=BB12_25 Depth=1
	movl	-8(%rbp), %eax
	subl	$4, %eax
	movl	%eax, -8(%rbp)
	jmp	.LBB12_25
.LBB12_28:                              # %for.end189
	jmp	.LBB12_29
.LBB12_29:                              # %for.cond190
                                        # =>This Inner Loop Header: Depth=1
	cmpl	$0, -8(%rbp)
	jl	.LBB12_32
# %bb.30:                               # %for.body193
                                        #   in Loop: Header=BB12_29 Depth=1
	movzwl	-10(%rbp), %eax
	sarl	$8, %eax
	movq	-48(%rbp), %rcx
	movslq	-8(%rbp), %rdx
	movzbl	(%rcx,%rdx), %ecx
	shll	$8, %ecx
	orl	%ecx, %eax
	movw	%ax, -10(%rbp)
	movq	-24(%rbp), %rax
	movzwl	-10(%rbp), %ecx
	movl	(%rax,%rcx,4), %eax
	subl	$1, %eax
	movl	%eax, -4(%rbp)
	movl	-4(%rbp), %eax
	movq	-24(%rbp), %rcx
	movzwl	-10(%rbp), %edx
	movl	%eax, (%rcx,%rdx,4)
	movl	-8(%rbp), %eax
	movq	-56(%rbp), %rcx
	movslq	-4(%rbp), %rdx
	movl	%eax, (%rcx,%rdx,4)
# %bb.31:                               # %for.inc209
                                        #   in Loop: Header=BB12_29 Depth=1
	movl	-8(%rbp), %eax
	addl	$-1, %eax
	movl	%eax, -8(%rbp)
	jmp	.LBB12_29
.LBB12_32:                              # %for.end211
	movl	$0, -8(%rbp)
.LBB12_33:                              # %for.cond212
                                        # =>This Inner Loop Header: Depth=1
	cmpl	$255, -8(%rbp)
	jg	.LBB12_36
# %bb.34:                               # %for.body215
                                        #   in Loop: Header=BB12_33 Depth=1
	movslq	-8(%rbp), %rax
	movb	$0, -384(%rbp,%rax)
	movl	-8(%rbp), %eax
	movslq	-8(%rbp), %rcx
	movl	%eax, -1408(%rbp,%rcx,4)
# %bb.35:                               # %for.inc220
                                        #   in Loop: Header=BB12_33 Depth=1
	movl	-8(%rbp), %eax
	addl	$1, %eax
	movl	%eax, -8(%rbp)
	jmp	.LBB12_33
.LBB12_36:                              # %for.end222
	movl	$1, -28(%rbp)
.LBB12_37:                              # %do.body
                                        # =>This Inner Loop Header: Depth=1
	imull	$3, -28(%rbp), %eax
	addl	$1, %eax
	movl	%eax, -28(%rbp)
# %bb.38:                               # %do.cond
                                        #   in Loop: Header=BB12_37 Depth=1
	cmpl	$256, -28(%rbp)         # imm = 0x100
	jle	.LBB12_37
# %bb.39:                               # %do.end
	jmp	.LBB12_40
.LBB12_40:                              # %do.body226
                                        # =>This Loop Header: Depth=1
                                        #     Child Loop BB12_41 Depth 2
                                        #       Child Loop BB12_43 Depth 3
	movl	-28(%rbp), %eax
	cltd
	movl	$3, %ecx
	idivl	%ecx
	movl	%eax, -28(%rbp)
	movl	-28(%rbp), %eax
	movl	%eax, -8(%rbp)
.LBB12_41:                              # %for.cond227
                                        #   Parent Loop BB12_40 Depth=1
                                        # =>  This Loop Header: Depth=2
                                        #       Child Loop BB12_43 Depth 3
	cmpl	$255, -8(%rbp)
	jg	.LBB12_50
# %bb.42:                               # %for.body230
                                        #   in Loop: Header=BB12_41 Depth=2
	movslq	-8(%rbp), %rax
	movl	-1408(%rbp,%rax,4), %eax
	movl	%eax, -108(%rbp)
	movl	-8(%rbp), %eax
	movl	%eax, -4(%rbp)
.LBB12_43:                              # %while.cond
                                        #   Parent Loop BB12_40 Depth=1
                                        #     Parent Loop BB12_41 Depth=2
                                        # =>    This Inner Loop Header: Depth=3
	movq	-24(%rbp), %rax
	movl	-4(%rbp), %ecx
	subl	-28(%rbp), %ecx
	movslq	%ecx, %rcx
	movl	-1408(%rbp,%rcx,4), %ecx
	addl	$1, %ecx
	shll	$8, %ecx
	movslq	%ecx, %rcx
	movl	(%rax,%rcx,4), %eax
	movq	-24(%rbp), %rcx
	movl	-4(%rbp), %edx
	subl	-28(%rbp), %edx
	movslq	%edx, %rdx
	movl	-1408(%rbp,%rdx,4), %edx
	shll	$8, %edx
	movslq	%edx, %rdx
	subl	(%rcx,%rdx,4), %eax
	movq	-24(%rbp), %rcx
	movl	-108(%rbp), %edx
	addl	$1, %edx
	shll	$8, %edx
	movslq	%edx, %rdx
	movl	(%rcx,%rdx,4), %ecx
	movq	-24(%rbp), %rdx
	movl	-108(%rbp), %esi
	shll	$8, %esi
	movslq	%esi, %rsi
	subl	(%rdx,%rsi,4), %ecx
	cmpl	%ecx, %eax
	jbe	.LBB12_47
# %bb.44:                               # %while.body
                                        #   in Loop: Header=BB12_43 Depth=3
	movl	-4(%rbp), %eax
	subl	-28(%rbp), %eax
	cltq
	movl	-1408(%rbp,%rax,4), %eax
	movslq	-4(%rbp), %rcx
	movl	%eax, -1408(%rbp,%rcx,4)
	movl	-4(%rbp), %eax
	subl	-28(%rbp), %eax
	movl	%eax, -4(%rbp)
	movl	-4(%rbp), %eax
	movl	-28(%rbp), %ecx
	subl	$1, %ecx
	cmpl	%ecx, %eax
	jg	.LBB12_46
# %bb.45:                               # %if.then266
                                        #   in Loop: Header=BB12_41 Depth=2
	jmp	.LBB12_48
.LBB12_46:                              # %if.end267
                                        #   in Loop: Header=BB12_43 Depth=3
	jmp	.LBB12_43
.LBB12_47:                              # %while.end
                                        #   in Loop: Header=BB12_41 Depth=2
	jmp	.LBB12_48
.LBB12_48:                              # %zero
                                        #   in Loop: Header=BB12_41 Depth=2
	movl	-108(%rbp), %eax
	movslq	-4(%rbp), %rcx
	movl	%eax, -1408(%rbp,%rcx,4)
# %bb.49:                               # %for.inc270
                                        #   in Loop: Header=BB12_41 Depth=2
	movl	-8(%rbp), %eax
	addl	$1, %eax
	movl	%eax, -8(%rbp)
	jmp	.LBB12_41
.LBB12_50:                              # %for.end272
                                        #   in Loop: Header=BB12_40 Depth=1
	jmp	.LBB12_51
.LBB12_51:                              # %do.cond273
                                        #   in Loop: Header=BB12_40 Depth=1
	cmpl	$1, -28(%rbp)
	jne	.LBB12_40
# %bb.52:                               # %do.end276
	movl	$0, -64(%rbp)
	movl	$0, -8(%rbp)
.LBB12_53:                              # %for.cond277
                                        # =>This Loop Header: Depth=1
                                        #     Child Loop BB12_55 Depth 2
                                        #     Child Loop BB12_71 Depth 2
                                        #     Child Loop BB12_75 Depth 2
                                        #     Child Loop BB12_83 Depth 2
                                        #     Child Loop BB12_95 Depth 2
                                        #     Child Loop BB12_100 Depth 2
                                        #     Child Loop BB12_103 Depth 2
	cmpl	$255, -8(%rbp)
	jg	.LBB12_113
# %bb.54:                               # %for.body280
                                        #   in Loop: Header=BB12_53 Depth=1
	movslq	-8(%rbp), %rax
	movl	-1408(%rbp,%rax,4), %eax
	movl	%eax, -16(%rbp)
	movl	$0, -4(%rbp)
.LBB12_55:                              # %for.cond283
                                        #   Parent Loop BB12_53 Depth=1
                                        # =>  This Inner Loop Header: Depth=2
	cmpl	$255, -4(%rbp)
	jg	.LBB12_68
# %bb.56:                               # %for.body286
                                        #   in Loop: Header=BB12_55 Depth=2
	movl	-4(%rbp), %eax
	cmpl	-16(%rbp), %eax
	je	.LBB12_66
# %bb.57:                               # %if.then289
                                        #   in Loop: Header=BB12_55 Depth=2
	movl	-16(%rbp), %eax
	shll	$8, %eax
	addl	-4(%rbp), %eax
	movl	%eax, -88(%rbp)
	movq	-24(%rbp), %rax
	movslq	-88(%rbp), %rcx
	movl	(%rax,%rcx,4), %eax
	andl	$2097152, %eax          # imm = 0x200000
	cmpl	$0, %eax
	jne	.LBB12_65
# %bb.58:                               # %if.then294
                                        #   in Loop: Header=BB12_55 Depth=2
	movq	-24(%rbp), %rax
	movslq	-88(%rbp), %rcx
	movl	(%rax,%rcx,4), %eax
	andl	$-2097153, %eax         # imm = 0xFFDFFFFF
	movl	%eax, -92(%rbp)
	movq	-24(%rbp), %rax
	movl	-88(%rbp), %ecx
	addl	$1, %ecx
	movslq	%ecx, %rcx
	movl	(%rax,%rcx,4), %eax
	andl	$-2097153, %eax         # imm = 0xFFDFFFFF
	subl	$1, %eax
	movl	%eax, -84(%rbp)
	movl	-84(%rbp), %eax
	cmpl	-92(%rbp), %eax
	jle	.LBB12_64
# %bb.59:                               # %if.then305
                                        #   in Loop: Header=BB12_55 Depth=2
	cmpl	$4, -96(%rbp)
	jl	.LBB12_61
# %bb.60:                               # %if.then308
                                        #   in Loop: Header=BB12_55 Depth=2
	movq	stderr, %rdi
	movl	-16(%rbp), %edx
	movl	-4(%rbp), %ecx
	movl	-64(%rbp), %r8d
	movl	-84(%rbp), %r9d
	subl	-92(%rbp), %r9d
	addl	$1, %r9d
	movabsq	$.L.str.7, %rsi
	movb	$0, %al
	callq	fprintf
.LBB12_61:                              # %if.end312
                                        #   in Loop: Header=BB12_55 Depth=2
	movq	-56(%rbp), %rdi
	movq	-48(%rbp), %rsi
	movq	-80(%rbp), %rdx
	movl	-32(%rbp), %ecx
	movl	-92(%rbp), %r8d
	movl	-84(%rbp), %r9d
	movq	16(%rbp), %rax
	movl	$2, (%rsp)
	movq	%rax, 8(%rsp)
	callq	mainQSort3
	movl	-84(%rbp), %eax
	subl	-92(%rbp), %eax
	addl	$1, %eax
	addl	-64(%rbp), %eax
	movl	%eax, -64(%rbp)
	movq	16(%rbp), %rax
	cmpl	$0, (%rax)
	jge	.LBB12_63
# %bb.62:                               # %if.then318
	jmp	.LBB12_115
.LBB12_63:                              # %if.end319
                                        #   in Loop: Header=BB12_55 Depth=2
	jmp	.LBB12_64
.LBB12_64:                              # %if.end320
                                        #   in Loop: Header=BB12_55 Depth=2
	jmp	.LBB12_65
.LBB12_65:                              # %if.end321
                                        #   in Loop: Header=BB12_55 Depth=2
	movq	-24(%rbp), %rax
	movslq	-88(%rbp), %rcx
	movl	(%rax,%rcx,4), %edx
	orl	$2097152, %edx          # imm = 0x200000
	movl	%edx, (%rax,%rcx,4)
.LBB12_66:                              # %if.end325
                                        #   in Loop: Header=BB12_55 Depth=2
	jmp	.LBB12_67
.LBB12_67:                              # %for.inc326
                                        #   in Loop: Header=BB12_55 Depth=2
	movl	-4(%rbp), %eax
	addl	$1, %eax
	movl	%eax, -4(%rbp)
	jmp	.LBB12_55
.LBB12_68:                              # %for.end328
                                        #   in Loop: Header=BB12_53 Depth=1
	movslq	-16(%rbp), %rax
	cmpb	$0, -384(%rbp,%rax)
	je	.LBB12_70
# %bb.69:                               # %if.then332
                                        #   in Loop: Header=BB12_53 Depth=1
	movl	$1006, %edi             # imm = 0x3EE
	callq	BZ2_bz__AssertH__fail
.LBB12_70:                              # %if.end333
                                        #   in Loop: Header=BB12_53 Depth=1
	movl	$0, -4(%rbp)
.LBB12_71:                              # %for.cond334
                                        #   Parent Loop BB12_53 Depth=1
                                        # =>  This Inner Loop Header: Depth=2
	cmpl	$255, -4(%rbp)
	jg	.LBB12_74
# %bb.72:                               # %for.body337
                                        #   in Loop: Header=BB12_71 Depth=2
	movq	-24(%rbp), %rax
	movl	-4(%rbp), %ecx
	shll	$8, %ecx
	addl	-16(%rbp), %ecx
	movslq	%ecx, %rcx
	movl	(%rax,%rcx,4), %eax
	andl	$-2097153, %eax         # imm = 0xFFDFFFFF
	movslq	-4(%rbp), %rcx
	movl	%eax, -3456(%rbp,%rcx,4)
	movq	-24(%rbp), %rax
	movl	-4(%rbp), %ecx
	shll	$8, %ecx
	addl	-16(%rbp), %ecx
	addl	$1, %ecx
	movslq	%ecx, %rcx
	movl	(%rax,%rcx,4), %eax
	andl	$-2097153, %eax         # imm = 0xFFDFFFFF
	subl	$1, %eax
	movslq	-4(%rbp), %rcx
	movl	%eax, -2432(%rbp,%rcx,4)
# %bb.73:                               # %for.inc354
                                        #   in Loop: Header=BB12_71 Depth=2
	movl	-4(%rbp), %eax
	addl	$1, %eax
	movl	%eax, -4(%rbp)
	jmp	.LBB12_71
.LBB12_74:                              # %for.end356
                                        #   in Loop: Header=BB12_53 Depth=1
	movq	-24(%rbp), %rax
	movl	-16(%rbp), %ecx
	shll	$8, %ecx
	movslq	%ecx, %rcx
	movl	(%rax,%rcx,4), %eax
	andl	$-2097153, %eax         # imm = 0xFFDFFFFF
	movl	%eax, -4(%rbp)
.LBB12_75:                              # %for.cond361
                                        #   Parent Loop BB12_53 Depth=1
                                        # =>  This Inner Loop Header: Depth=2
	movl	-4(%rbp), %eax
	movslq	-16(%rbp), %rcx
	cmpl	-3456(%rbp,%rcx,4), %eax
	jge	.LBB12_82
# %bb.76:                               # %for.body366
                                        #   in Loop: Header=BB12_75 Depth=2
	movq	-56(%rbp), %rax
	movslq	-4(%rbp), %rcx
	movl	(%rax,%rcx,4), %eax
	subl	$1, %eax
	movl	%eax, -36(%rbp)
	cmpl	$0, -36(%rbp)
	jge	.LBB12_78
# %bb.77:                               # %if.then372
                                        #   in Loop: Header=BB12_75 Depth=2
	movl	-32(%rbp), %eax
	addl	-36(%rbp), %eax
	movl	%eax, -36(%rbp)
.LBB12_78:                              # %if.end374
                                        #   in Loop: Header=BB12_75 Depth=2
	movq	-48(%rbp), %rax
	movslq	-36(%rbp), %rcx
	movb	(%rax,%rcx), %al
	movb	%al, -11(%rbp)
	movzbl	-11(%rbp), %eax
	cmpb	$0, -384(%rbp,%rax)
	jne	.LBB12_80
# %bb.79:                               # %if.then380
                                        #   in Loop: Header=BB12_75 Depth=2
	movl	-36(%rbp), %eax
	movq	-56(%rbp), %rcx
	movzbl	-11(%rbp), %edx
	movl	-3456(%rbp,%rdx,4), %esi
	movl	%esi, %edi
	addl	$1, %edi
	movl	%edi, -3456(%rbp,%rdx,4)
	movslq	%esi, %rdx
	movl	%eax, (%rcx,%rdx,4)
.LBB12_80:                              # %if.end386
                                        #   in Loop: Header=BB12_75 Depth=2
	jmp	.LBB12_81
.LBB12_81:                              # %for.inc387
                                        #   in Loop: Header=BB12_75 Depth=2
	movl	-4(%rbp), %eax
	addl	$1, %eax
	movl	%eax, -4(%rbp)
	jmp	.LBB12_75
.LBB12_82:                              # %for.end389
                                        #   in Loop: Header=BB12_53 Depth=1
	movq	-24(%rbp), %rax
	movl	-16(%rbp), %ecx
	addl	$1, %ecx
	shll	$8, %ecx
	movslq	%ecx, %rcx
	movl	(%rax,%rcx,4), %eax
	andl	$-2097153, %eax         # imm = 0xFFDFFFFF
	subl	$1, %eax
	movl	%eax, -4(%rbp)
.LBB12_83:                              # %for.cond396
                                        #   Parent Loop BB12_53 Depth=1
                                        # =>  This Inner Loop Header: Depth=2
	movl	-4(%rbp), %eax
	movslq	-16(%rbp), %rcx
	cmpl	-2432(%rbp,%rcx,4), %eax
	jle	.LBB12_90
# %bb.84:                               # %for.body401
                                        #   in Loop: Header=BB12_83 Depth=2
	movq	-56(%rbp), %rax
	movslq	-4(%rbp), %rcx
	movl	(%rax,%rcx,4), %eax
	subl	$1, %eax
	movl	%eax, -36(%rbp)
	cmpl	$0, -36(%rbp)
	jge	.LBB12_86
# %bb.85:                               # %if.then407
                                        #   in Loop: Header=BB12_83 Depth=2
	movl	-32(%rbp), %eax
	addl	-36(%rbp), %eax
	movl	%eax, -36(%rbp)
.LBB12_86:                              # %if.end409
                                        #   in Loop: Header=BB12_83 Depth=2
	movq	-48(%rbp), %rax
	movslq	-36(%rbp), %rcx
	movb	(%rax,%rcx), %al
	movb	%al, -11(%rbp)
	movzbl	-11(%rbp), %eax
	cmpb	$0, -384(%rbp,%rax)
	jne	.LBB12_88
# %bb.87:                               # %if.then415
                                        #   in Loop: Header=BB12_83 Depth=2
	movl	-36(%rbp), %eax
	movq	-56(%rbp), %rcx
	movzbl	-11(%rbp), %edx
	movl	-2432(%rbp,%rdx,4), %esi
	movl	%esi, %edi
	addl	$-1, %edi
	movl	%edi, -2432(%rbp,%rdx,4)
	movslq	%esi, %rdx
	movl	%eax, (%rcx,%rdx,4)
.LBB12_88:                              # %if.end421
                                        #   in Loop: Header=BB12_83 Depth=2
	jmp	.LBB12_89
.LBB12_89:                              # %for.inc422
                                        #   in Loop: Header=BB12_83 Depth=2
	movl	-4(%rbp), %eax
	addl	$-1, %eax
	movl	%eax, -4(%rbp)
	jmp	.LBB12_83
.LBB12_90:                              # %for.end424
                                        #   in Loop: Header=BB12_53 Depth=1
	movslq	-16(%rbp), %rax
	movl	-3456(%rbp,%rax,4), %eax
	subl	$1, %eax
	movslq	-16(%rbp), %rcx
	cmpl	-2432(%rbp,%rcx,4), %eax
	je	.LBB12_94
# %bb.91:                               # %lor.lhs.false
                                        #   in Loop: Header=BB12_53 Depth=1
	movslq	-16(%rbp), %rax
	cmpl	$0, -3456(%rbp,%rax,4)
	jne	.LBB12_93
# %bb.92:                               # %land.lhs.true
                                        #   in Loop: Header=BB12_53 Depth=1
	movslq	-16(%rbp), %rax
	movl	-2432(%rbp,%rax,4), %eax
	movl	-32(%rbp), %ecx
	subl	$1, %ecx
	cmpl	%ecx, %eax
	je	.LBB12_94
.LBB12_93:                              # %if.then441
                                        #   in Loop: Header=BB12_53 Depth=1
	movl	$1007, %edi             # imm = 0x3EF
	callq	BZ2_bz__AssertH__fail
.LBB12_94:                              # %if.end442
                                        #   in Loop: Header=BB12_53 Depth=1
	movl	$0, -4(%rbp)
.LBB12_95:                              # %for.cond443
                                        #   Parent Loop BB12_53 Depth=1
                                        # =>  This Inner Loop Header: Depth=2
	cmpl	$255, -4(%rbp)
	jg	.LBB12_98
# %bb.96:                               # %for.body446
                                        #   in Loop: Header=BB12_95 Depth=2
	movq	-24(%rbp), %rax
	movl	-4(%rbp), %ecx
	shll	$8, %ecx
	addl	-16(%rbp), %ecx
	movslq	%ecx, %rcx
	movl	(%rax,%rcx,4), %edx
	orl	$2097152, %edx          # imm = 0x200000
	movl	%edx, (%rax,%rcx,4)
# %bb.97:                               # %for.inc452
                                        #   in Loop: Header=BB12_95 Depth=2
	movl	-4(%rbp), %eax
	addl	$1, %eax
	movl	%eax, -4(%rbp)
	jmp	.LBB12_95
.LBB12_98:                              # %for.end454
                                        #   in Loop: Header=BB12_53 Depth=1
	movslq	-16(%rbp), %rax
	movb	$1, -384(%rbp,%rax)
	cmpl	$255, -8(%rbp)
	jge	.LBB12_111
# %bb.99:                               # %if.then459
                                        #   in Loop: Header=BB12_53 Depth=1
	movq	-24(%rbp), %rax
	movl	-16(%rbp), %ecx
	shll	$8, %ecx
	movslq	%ecx, %rcx
	movl	(%rax,%rcx,4), %eax
	andl	$-2097153, %eax         # imm = 0xFFDFFFFF
	movl	%eax, -112(%rbp)
	movq	-24(%rbp), %rax
	movl	-16(%rbp), %ecx
	addl	$1, %ecx
	shll	$8, %ecx
	movslq	%ecx, %rcx
	movl	(%rax,%rcx,4), %eax
	andl	$-2097153, %eax         # imm = 0xFFDFFFFF
	subl	-112(%rbp), %eax
	movl	%eax, -104(%rbp)
	movl	$0, -60(%rbp)
.LBB12_100:                             # %while.cond470
                                        #   Parent Loop BB12_53 Depth=1
                                        # =>  This Inner Loop Header: Depth=2
	movl	-104(%rbp), %eax
	movl	-60(%rbp), %ecx
                                        # kill: def $cl killed $ecx
	sarl	%cl, %eax
	cmpl	$65534, %eax            # imm = 0xFFFE
	jle	.LBB12_102
# %bb.101:                              # %while.body474
                                        #   in Loop: Header=BB12_100 Depth=2
	movl	-60(%rbp), %eax
	addl	$1, %eax
	movl	%eax, -60(%rbp)
	jmp	.LBB12_100
.LBB12_102:                             # %while.end476
                                        #   in Loop: Header=BB12_53 Depth=1
	movl	-104(%rbp), %eax
	subl	$1, %eax
	movl	%eax, -4(%rbp)
.LBB12_103:                             # %for.cond478
                                        #   Parent Loop BB12_53 Depth=1
                                        # =>  This Inner Loop Header: Depth=2
	cmpl	$0, -4(%rbp)
	jl	.LBB12_108
# %bb.104:                              # %for.body481
                                        #   in Loop: Header=BB12_103 Depth=2
	movq	-56(%rbp), %rax
	movl	-112(%rbp), %ecx
	addl	-4(%rbp), %ecx
	movslq	%ecx, %rcx
	movl	(%rax,%rcx,4), %eax
	movl	%eax, -100(%rbp)
	movl	-4(%rbp), %eax
	movl	-60(%rbp), %ecx
                                        # kill: def $cl killed $ecx
	sarl	%cl, %eax
	movw	%ax, -66(%rbp)
	movw	-66(%rbp), %ax
	movq	-80(%rbp), %rcx
	movslq	-100(%rbp), %rdx
	movw	%ax, (%rcx,%rdx,2)
	cmpl	$34, -100(%rbp)
	jge	.LBB12_106
# %bb.105:                              # %if.then491
                                        #   in Loop: Header=BB12_103 Depth=2
	movw	-66(%rbp), %ax
	movq	-80(%rbp), %rcx
	movl	-100(%rbp), %edx
	addl	-32(%rbp), %edx
	movslq	%edx, %rdx
	movw	%ax, (%rcx,%rdx,2)
.LBB12_106:                             # %if.end495
                                        #   in Loop: Header=BB12_103 Depth=2
	jmp	.LBB12_107
.LBB12_107:                             # %for.inc496
                                        #   in Loop: Header=BB12_103 Depth=2
	movl	-4(%rbp), %eax
	addl	$-1, %eax
	movl	%eax, -4(%rbp)
	jmp	.LBB12_103
.LBB12_108:                             # %for.end498
                                        #   in Loop: Header=BB12_53 Depth=1
	movl	-104(%rbp), %eax
	subl	$1, %eax
	movl	-60(%rbp), %ecx
                                        # kill: def $cl killed $ecx
	sarl	%cl, %eax
	cmpl	$65535, %eax            # imm = 0xFFFF
	jle	.LBB12_110
# %bb.109:                              # %if.then503
                                        #   in Loop: Header=BB12_53 Depth=1
	movl	$1002, %edi             # imm = 0x3EA
	callq	BZ2_bz__AssertH__fail
.LBB12_110:                             # %if.end504
                                        #   in Loop: Header=BB12_53 Depth=1
	jmp	.LBB12_111
.LBB12_111:                             # %if.end505
                                        #   in Loop: Header=BB12_53 Depth=1
	jmp	.LBB12_112
.LBB12_112:                             # %for.inc506
                                        #   in Loop: Header=BB12_53 Depth=1
	movl	-8(%rbp), %eax
	addl	$1, %eax
	movl	%eax, -8(%rbp)
	jmp	.LBB12_53
.LBB12_113:                             # %for.end508
	cmpl	$4, -96(%rbp)
	jl	.LBB12_115
# %bb.114:                              # %if.then511
	movq	stderr, %rdi
	movl	-32(%rbp), %edx
	movl	-64(%rbp), %ecx
	movl	-32(%rbp), %r8d
	subl	-64(%rbp), %r8d
	movabsq	$.L.str.8, %rsi
	movb	$0, %al
	callq	fprintf
.LBB12_115:                             # %if.end514
	cmpl	$1069229382, -116(%rbp) # imm = 0x3FBB2546
	jne	.LBB12_117
.LBB12_116:
	addq	$3472, %rsp             # imm = 0xD90
	popq	%rbp
	.cfi_def_cfa %rsp, 8
	retq
.LBB12_117:                             # %func_exit
	.cfi_def_cfa %rbp, 16
	callq	detect_breach
	jmp	.LBB12_116
.Lfunc_end12:
	.size	mainSort.4, .Lfunc_end12-mainSort.4
	.cfi_endproc
                                        # -- End function
	.globl	BZ2_blockSort.5         # -- Begin function BZ2_blockSort.5
	.p2align	4, 0x90
	.type	BZ2_blockSort.5,@function
BZ2_blockSort.5:                        # @BZ2_blockSort.5
	.cfi_startproc
# %bb.0:                                # %entry
	pushq	%rbp
	.cfi_def_cfa_offset 16
	.cfi_offset %rbp, -16
	movq	%rsp, %rbp
	.cfi_def_cfa_register %rbp
	subq	$80, %rsp
	movl	$785284754, -44(%rbp)   # imm = 0x2ECE7E92
	movq	%rdi, -16(%rbp)
	movq	-16(%rbp), %rax
	movq	56(%rax), %rax
	movq	%rax, -64(%rbp)
	movq	-16(%rbp), %rax
	movq	64(%rax), %rax
	movq	%rax, -56(%rbp)
	movq	-16(%rbp), %rax
	movq	40(%rax), %rax
	movq	%rax, -40(%rbp)
	movq	-16(%rbp), %rax
	movl	108(%rax), %eax
	movl	%eax, -8(%rbp)
	movq	-16(%rbp), %rax
	movl	656(%rax), %eax
	movl	%eax, -20(%rbp)
	movq	-16(%rbp), %rax
	movl	88(%rax), %eax
	movl	%eax, -24(%rbp)
	cmpl	$10000, -8(%rbp)        # imm = 0x2710
	jge	.LBB13_2
# %bb.1:                                # %if.then
	movq	-16(%rbp), %rax
	movq	24(%rax), %rdi
	movq	-16(%rbp), %rax
	movq	32(%rax), %rsi
	movq	-40(%rbp), %rdx
	movl	-8(%rbp), %ecx
	movl	-20(%rbp), %r8d
	callq	fallbackSort
	jmp	.LBB13_18
.LBB13_2:                               # %if.else
	movl	-8(%rbp), %eax
	addl	$34, %eax
	movl	%eax, -4(%rbp)
	movl	-4(%rbp), %eax
	andl	$1, %eax
	cmpl	$0, %eax
	je	.LBB13_4
# %bb.3:                                # %if.then5
	movl	-4(%rbp), %eax
	addl	$1, %eax
	movl	%eax, -4(%rbp)
.LBB13_4:                               # %if.end
	movq	-56(%rbp), %rax
	movslq	-4(%rbp), %rcx
	addq	%rcx, %rax
	movq	%rax, -72(%rbp)
	cmpl	$1, -24(%rbp)
	jge	.LBB13_6
# %bb.5:                                # %if.then7
	movl	$1, -24(%rbp)
.LBB13_6:                               # %if.end8
	cmpl	$100, -24(%rbp)
	jle	.LBB13_8
# %bb.7:                                # %if.then10
	movl	$100, -24(%rbp)
.LBB13_8:                               # %if.end11
	movl	-8(%rbp), %ecx
	movl	-24(%rbp), %eax
	subl	$1, %eax
	cltd
	movl	$3, %esi
	idivl	%esi
	imull	%eax, %ecx
	movl	%ecx, -32(%rbp)
	movl	-32(%rbp), %eax
	movl	%eax, -28(%rbp)
	movq	-64(%rbp), %rdi
	movq	-56(%rbp), %rsi
	movq	-72(%rbp), %rdx
	movq	-40(%rbp), %rcx
	movl	-8(%rbp), %r8d
	movl	-20(%rbp), %r9d
	leaq	-28(%rbp), %rax
	movq	%rax, (%rsp)
	callq	mainSort
	cmpl	$3, -20(%rbp)
	jl	.LBB13_13
# %bb.9:                                # %if.then13
	movq	stderr, %rdi
	movl	-32(%rbp), %edx
	subl	-28(%rbp), %edx
	movl	-8(%rbp), %ecx
	movl	-32(%rbp), %eax
	subl	-28(%rbp), %eax
	vcvtsi2ss	%eax, %xmm0, %xmm0
	cmpl	$0, -8(%rbp)
	jne	.LBB13_11
# %bb.10:                               # %cond.true
	movl	$1, %eax
	jmp	.LBB13_12
.LBB13_11:                              # %cond.false
	movl	-8(%rbp), %eax
.LBB13_12:                              # %cond.end
	vcvtsi2ss	%eax, %xmm0, %xmm1
	vdivss	%xmm1, %xmm0, %xmm0
	vcvtss2sd	%xmm0, %xmm0, %xmm0
	movabsq	$.L.str, %rsi
	movb	$1, %al
	callq	fprintf
.LBB13_13:                              # %if.end21
	cmpl	$0, -28(%rbp)
	jge	.LBB13_17
# %bb.14:                               # %if.then24
	cmpl	$2, -20(%rbp)
	jl	.LBB13_16
# %bb.15:                               # %if.then27
	movq	stderr, %rdi
	movabsq	$.L.str.1, %rsi
	movb	$0, %al
	callq	fprintf
.LBB13_16:                              # %if.end29
	movq	-16(%rbp), %rax
	movq	24(%rax), %rdi
	movq	-16(%rbp), %rax
	movq	32(%rax), %rsi
	movq	-40(%rbp), %rdx
	movl	-8(%rbp), %ecx
	movl	-20(%rbp), %r8d
	callq	fallbackSort
.LBB13_17:                              # %if.end32
	jmp	.LBB13_18
.LBB13_18:                              # %if.end33
	movq	-16(%rbp), %rax
	movl	$-1, 48(%rax)
	movl	$0, -4(%rbp)
.LBB13_19:                              # %for.cond
                                        # =>This Inner Loop Header: Depth=1
	movl	-4(%rbp), %eax
	movq	-16(%rbp), %rcx
	cmpl	108(%rcx), %eax
	jge	.LBB13_24
# %bb.20:                               # %for.body
                                        #   in Loop: Header=BB13_19 Depth=1
	movq	-64(%rbp), %rax
	movslq	-4(%rbp), %rcx
	cmpl	$0, (%rax,%rcx,4)
	jne	.LBB13_22
# %bb.21:                               # %if.then41
	movl	-4(%rbp), %eax
	movq	-16(%rbp), %rcx
	movl	%eax, 48(%rcx)
	jmp	.LBB13_25
.LBB13_22:                              # %if.end43
                                        #   in Loop: Header=BB13_19 Depth=1
	jmp	.LBB13_23
.LBB13_23:                              # %for.inc
                                        #   in Loop: Header=BB13_19 Depth=1
	movl	-4(%rbp), %eax
	addl	$1, %eax
	movl	%eax, -4(%rbp)
	jmp	.LBB13_19
.LBB13_24:                              # %for.end.loopexit
	jmp	.LBB13_25
.LBB13_25:                              # %for.end
	movq	-16(%rbp), %rax
	cmpl	$-1, 48(%rax)
	jne	.LBB13_27
# %bb.26:                               # %if.then48
	movl	$1003, %edi             # imm = 0x3EB
	callq	BZ2_bz__AssertH__fail
.LBB13_27:                              # %if.end49
	cmpl	$785284754, -44(%rbp)   # imm = 0x2ECE7E92
	jne	.LBB13_29
.LBB13_28:
	addq	$80, %rsp
	popq	%rbp
	.cfi_def_cfa %rsp, 8
	retq
.LBB13_29:                              # %func_exit
	.cfi_def_cfa %rbp, 16
	callq	detect_breach
	jmp	.LBB13_28
.Lfunc_end13:
	.size	BZ2_blockSort.5, .Lfunc_end13-BZ2_blockSort.5
	.cfi_endproc
                                        # -- End function
	.p2align	4, 0x90         # -- Begin function fallbackQSort3.6
	.type	fallbackQSort3.6,@function
fallbackQSort3.6:                       # @fallbackQSort3.6
	.cfi_startproc
# %bb.0:                                # %entry
	pushq	%rbp
	.cfi_def_cfa_offset 16
	.cfi_offset %rbp, -16
	movq	%rsp, %rbp
	.cfi_def_cfa_register %rbp
	subq	$928, %rsp              # imm = 0x3A0
	movl	$890421408, -112(%rbp)  # imm = 0x3512C0A0
	movq	%rdi, -24(%rbp)
	movq	%rsi, -88(%rbp)
	movl	%edx, -120(%rbp)
	movl	%ecx, -104(%rbp)
	movl	$0, -80(%rbp)
	movl	$0, -4(%rbp)
	movl	-120(%rbp), %eax
	movslq	-4(%rbp), %rcx
	movl	%eax, -528(%rbp,%rcx,4)
	movl	-104(%rbp), %eax
	movslq	-4(%rbp), %rcx
	movl	%eax, -928(%rbp,%rcx,4)
	movl	-4(%rbp), %eax
	addl	$1, %eax
	movl	%eax, -4(%rbp)
.LBB14_1:                               # %while.cond
                                        # =>This Loop Header: Depth=1
                                        #     Child Loop BB14_14 Depth 2
                                        #       Child Loop BB14_15 Depth 3
                                        #       Child Loop BB14_24 Depth 3
                                        #     Child Loop BB14_41 Depth 2
                                        #     Child Loop BB14_47 Depth 2
	cmpl	$0, -4(%rbp)
	jle	.LBB14_53
# %bb.2:                                # %while.body
                                        #   in Loop: Header=BB14_1 Depth=1
	cmpl	$100, -4(%rbp)
	jl	.LBB14_4
# %bb.3:                                # %if.then
                                        #   in Loop: Header=BB14_1 Depth=1
	movl	$1004, %edi             # imm = 0x3EC
	callq	BZ2_bz__AssertH__fail
.LBB14_4:                               # %if.end
                                        #   in Loop: Header=BB14_1 Depth=1
	movl	-4(%rbp), %eax
	addl	$-1, %eax
	movl	%eax, -4(%rbp)
	movslq	-4(%rbp), %rax
	movl	-528(%rbp,%rax,4), %eax
	movl	%eax, -36(%rbp)
	movslq	-4(%rbp), %rax
	movl	-928(%rbp,%rax,4), %eax
	movl	%eax, -32(%rbp)
	movl	-32(%rbp), %eax
	subl	-36(%rbp), %eax
	cmpl	$10, %eax
	jge	.LBB14_7
# %bb.5:                                # %if.then9
                                        #   in Loop: Header=BB14_1 Depth=1
	movq	-24(%rbp), %rdi
	movq	-88(%rbp), %rsi
	movl	-36(%rbp), %edx
	movl	-32(%rbp), %ecx
	callq	fallbackSimpleSort
.LBB14_6:                               # %while.cond.backedge
                                        #   in Loop: Header=BB14_1 Depth=1
	jmp	.LBB14_1
.LBB14_7:                               # %if.end10
                                        #   in Loop: Header=BB14_1 Depth=1
	imull	$7621, -80(%rbp), %eax  # imm = 0x1DC5
	addl	$1, %eax
	andl	$32767, %eax            # imm = 0x7FFF
	movl	%eax, -80(%rbp)
	movl	-80(%rbp), %eax
	xorl	%edx, %edx
	movl	$3, %ecx
	divl	%ecx
	movl	%edx, -92(%rbp)
	cmpl	$0, -92(%rbp)
	jne	.LBB14_9
# %bb.8:                                # %if.then13
                                        #   in Loop: Header=BB14_1 Depth=1
	movq	-88(%rbp), %rax
	movq	-24(%rbp), %rcx
	movslq	-36(%rbp), %rdx
	movl	(%rcx,%rdx,4), %ecx
	movl	(%rax,%rcx,4), %eax
	movl	%eax, -64(%rbp)
	jmp	.LBB14_13
.LBB14_9:                               # %if.else
                                        #   in Loop: Header=BB14_1 Depth=1
	cmpl	$1, -92(%rbp)
	jne	.LBB14_11
# %bb.10:                               # %if.then19
                                        #   in Loop: Header=BB14_1 Depth=1
	movq	-88(%rbp), %rax
	movq	-24(%rbp), %rcx
	movl	-36(%rbp), %edx
	addl	-32(%rbp), %edx
	sarl	$1, %edx
	movslq	%edx, %rdx
	movl	(%rcx,%rdx,4), %ecx
	movl	(%rax,%rcx,4), %eax
	movl	%eax, -64(%rbp)
	jmp	.LBB14_12
.LBB14_11:                              # %if.else25
                                        #   in Loop: Header=BB14_1 Depth=1
	movq	-88(%rbp), %rax
	movq	-24(%rbp), %rcx
	movslq	-32(%rbp), %rdx
	movl	(%rcx,%rdx,4), %ecx
	movl	(%rax,%rcx,4), %eax
	movl	%eax, -64(%rbp)
.LBB14_12:                              # %if.end30
                                        #   in Loop: Header=BB14_1 Depth=1
	jmp	.LBB14_13
.LBB14_13:                              # %if.end31
                                        #   in Loop: Header=BB14_1 Depth=1
	movl	-36(%rbp), %eax
	movl	%eax, -40(%rbp)
	movl	%eax, -8(%rbp)
	movl	-32(%rbp), %eax
	movl	%eax, -44(%rbp)
	movl	%eax, -12(%rbp)
.LBB14_14:                              # %while.body33
                                        #   Parent Loop BB14_1 Depth=1
                                        # =>  This Loop Header: Depth=2
                                        #       Child Loop BB14_15 Depth 3
                                        #       Child Loop BB14_24 Depth 3
	jmp	.LBB14_15
.LBB14_15:                              # %while.body35
                                        #   Parent Loop BB14_1 Depth=1
                                        #     Parent Loop BB14_14 Depth=2
                                        # =>    This Inner Loop Header: Depth=3
	movl	-8(%rbp), %eax
	cmpl	-12(%rbp), %eax
	jle	.LBB14_17
# %bb.16:                               # %if.then37
                                        #   in Loop: Header=BB14_14 Depth=2
	jmp	.LBB14_23
.LBB14_17:                              # %if.end38
                                        #   in Loop: Header=BB14_15 Depth=3
	movq	-88(%rbp), %rax
	movq	-24(%rbp), %rcx
	movslq	-8(%rbp), %rdx
	movl	(%rcx,%rdx,4), %ecx
	movl	(%rax,%rcx,4), %eax
	subl	-64(%rbp), %eax
	movl	%eax, -28(%rbp)
	cmpl	$0, -28(%rbp)
	jne	.LBB14_20
# %bb.18:                               # %if.then45
                                        #   in Loop: Header=BB14_15 Depth=3
	movq	-24(%rbp), %rax
	movslq	-8(%rbp), %rcx
	movl	(%rax,%rcx,4), %eax
	movl	%eax, -124(%rbp)
	movq	-24(%rbp), %rax
	movslq	-40(%rbp), %rcx
	movl	(%rax,%rcx,4), %eax
	movq	-24(%rbp), %rcx
	movslq	-8(%rbp), %rdx
	movl	%eax, (%rcx,%rdx,4)
	movl	-124(%rbp), %eax
	movq	-24(%rbp), %rcx
	movslq	-40(%rbp), %rdx
	movl	%eax, (%rcx,%rdx,4)
	movl	-40(%rbp), %eax
	addl	$1, %eax
	movl	%eax, -40(%rbp)
	movl	-8(%rbp), %eax
	addl	$1, %eax
	movl	%eax, -8(%rbp)
.LBB14_19:                              # %while.body35.backedge
                                        #   in Loop: Header=BB14_15 Depth=3
	jmp	.LBB14_15
.LBB14_20:                              # %if.end56
                                        #   in Loop: Header=BB14_15 Depth=3
	cmpl	$0, -28(%rbp)
	jle	.LBB14_22
# %bb.21:                               # %if.then58
                                        #   in Loop: Header=BB14_14 Depth=2
	jmp	.LBB14_23
.LBB14_22:                              # %if.end59
                                        #   in Loop: Header=BB14_15 Depth=3
	movl	-8(%rbp), %eax
	addl	$1, %eax
	movl	%eax, -8(%rbp)
	jmp	.LBB14_19
.LBB14_23:                              # %while.end
                                        #   in Loop: Header=BB14_14 Depth=2
	jmp	.LBB14_24
.LBB14_24:                              # %while.body62
                                        #   Parent Loop BB14_1 Depth=1
                                        #     Parent Loop BB14_14 Depth=2
                                        # =>    This Inner Loop Header: Depth=3
	movl	-8(%rbp), %eax
	cmpl	-12(%rbp), %eax
	jle	.LBB14_26
# %bb.25:                               # %if.then64
                                        #   in Loop: Header=BB14_14 Depth=2
	jmp	.LBB14_32
.LBB14_26:                              # %if.end65
                                        #   in Loop: Header=BB14_24 Depth=3
	movq	-88(%rbp), %rax
	movq	-24(%rbp), %rcx
	movslq	-12(%rbp), %rdx
	movl	(%rcx,%rdx,4), %ecx
	movl	(%rax,%rcx,4), %eax
	subl	-64(%rbp), %eax
	movl	%eax, -28(%rbp)
	cmpl	$0, -28(%rbp)
	jne	.LBB14_29
# %bb.27:                               # %if.then72
                                        #   in Loop: Header=BB14_24 Depth=3
	movq	-24(%rbp), %rax
	movslq	-12(%rbp), %rcx
	movl	(%rax,%rcx,4), %eax
	movl	%eax, -116(%rbp)
	movq	-24(%rbp), %rax
	movslq	-44(%rbp), %rcx
	movl	(%rax,%rcx,4), %eax
	movq	-24(%rbp), %rcx
	movslq	-12(%rbp), %rdx
	movl	%eax, (%rcx,%rdx,4)
	movl	-116(%rbp), %eax
	movq	-24(%rbp), %rcx
	movslq	-44(%rbp), %rdx
	movl	%eax, (%rcx,%rdx,4)
	movl	-44(%rbp), %eax
	addl	$-1, %eax
	movl	%eax, -44(%rbp)
	movl	-12(%rbp), %eax
	addl	$-1, %eax
	movl	%eax, -12(%rbp)
.LBB14_28:                              # %while.body62.backedge
                                        #   in Loop: Header=BB14_24 Depth=3
	jmp	.LBB14_24
.LBB14_29:                              # %if.end84
                                        #   in Loop: Header=BB14_24 Depth=3
	cmpl	$0, -28(%rbp)
	jge	.LBB14_31
# %bb.30:                               # %if.then86
                                        #   in Loop: Header=BB14_14 Depth=2
	jmp	.LBB14_32
.LBB14_31:                              # %if.end87
                                        #   in Loop: Header=BB14_24 Depth=3
	movl	-12(%rbp), %eax
	addl	$-1, %eax
	movl	%eax, -12(%rbp)
	jmp	.LBB14_28
.LBB14_32:                              # %while.end89
                                        #   in Loop: Header=BB14_14 Depth=2
	movl	-8(%rbp), %eax
	cmpl	-12(%rbp), %eax
	jle	.LBB14_34
# %bb.33:                               # %if.then91
                                        #   in Loop: Header=BB14_1 Depth=1
	jmp	.LBB14_35
.LBB14_34:                              # %if.end92
                                        #   in Loop: Header=BB14_14 Depth=2
	movq	-24(%rbp), %rax
	movslq	-8(%rbp), %rcx
	movl	(%rax,%rcx,4), %eax
	movl	%eax, -100(%rbp)
	movq	-24(%rbp), %rax
	movslq	-12(%rbp), %rcx
	movl	(%rax,%rcx,4), %eax
	movq	-24(%rbp), %rcx
	movslq	-8(%rbp), %rdx
	movl	%eax, (%rcx,%rdx,4)
	movl	-100(%rbp), %eax
	movq	-24(%rbp), %rcx
	movslq	-12(%rbp), %rdx
	movl	%eax, (%rcx,%rdx,4)
	movl	-8(%rbp), %eax
	addl	$1, %eax
	movl	%eax, -8(%rbp)
	movl	-12(%rbp), %eax
	addl	$-1, %eax
	movl	%eax, -12(%rbp)
	jmp	.LBB14_14
.LBB14_35:                              # %while.end104
                                        #   in Loop: Header=BB14_1 Depth=1
	movl	-44(%rbp), %eax
	cmpl	-40(%rbp), %eax
	jge	.LBB14_37
# %bb.36:                               # %if.then106
                                        #   in Loop: Header=BB14_1 Depth=1
	jmp	.LBB14_6
.LBB14_37:                              # %if.end107
                                        #   in Loop: Header=BB14_1 Depth=1
	movl	-40(%rbp), %eax
	subl	-36(%rbp), %eax
	movl	-8(%rbp), %ecx
	subl	-40(%rbp), %ecx
	cmpl	%ecx, %eax
	jge	.LBB14_39
# %bb.38:                               # %cond.true
                                        #   in Loop: Header=BB14_1 Depth=1
	movl	-40(%rbp), %eax
	subl	-36(%rbp), %eax
	jmp	.LBB14_40
.LBB14_39:                              # %cond.false
                                        #   in Loop: Header=BB14_1 Depth=1
	movl	-8(%rbp), %eax
	subl	-40(%rbp), %eax
.LBB14_40:                              # %cond.end
                                        #   in Loop: Header=BB14_1 Depth=1
	movl	%eax, -28(%rbp)
	movl	-36(%rbp), %eax
	movl	%eax, -56(%rbp)
	movl	-8(%rbp), %eax
	subl	-28(%rbp), %eax
	movl	%eax, -52(%rbp)
	movl	-28(%rbp), %eax
	movl	%eax, -72(%rbp)
.LBB14_41:                              # %while.cond114
                                        #   Parent Loop BB14_1 Depth=1
                                        # =>  This Inner Loop Header: Depth=2
	cmpl	$0, -72(%rbp)
	jle	.LBB14_43
# %bb.42:                               # %while.body116
                                        #   in Loop: Header=BB14_41 Depth=2
	movq	-24(%rbp), %rax
	movslq	-56(%rbp), %rcx
	movl	(%rax,%rcx,4), %eax
	movl	%eax, -96(%rbp)
	movq	-24(%rbp), %rax
	movslq	-52(%rbp), %rcx
	movl	(%rax,%rcx,4), %eax
	movq	-24(%rbp), %rcx
	movslq	-56(%rbp), %rdx
	movl	%eax, (%rcx,%rdx,4)
	movl	-96(%rbp), %eax
	movq	-24(%rbp), %rcx
	movslq	-52(%rbp), %rdx
	movl	%eax, (%rcx,%rdx,4)
	movl	-56(%rbp), %eax
	addl	$1, %eax
	movl	%eax, -56(%rbp)
	movl	-52(%rbp), %eax
	addl	$1, %eax
	movl	%eax, -52(%rbp)
	movl	-72(%rbp), %eax
	addl	$-1, %eax
	movl	%eax, -72(%rbp)
	jmp	.LBB14_41
.LBB14_43:                              # %while.end129
                                        #   in Loop: Header=BB14_1 Depth=1
	movl	-32(%rbp), %eax
	subl	-44(%rbp), %eax
	movl	-44(%rbp), %ecx
	subl	-12(%rbp), %ecx
	cmpl	%ecx, %eax
	jge	.LBB14_45
# %bb.44:                               # %cond.true133
                                        #   in Loop: Header=BB14_1 Depth=1
	movl	-32(%rbp), %eax
	subl	-44(%rbp), %eax
	jmp	.LBB14_46
.LBB14_45:                              # %cond.false135
                                        #   in Loop: Header=BB14_1 Depth=1
	movl	-44(%rbp), %eax
	subl	-12(%rbp), %eax
.LBB14_46:                              # %cond.end137
                                        #   in Loop: Header=BB14_1 Depth=1
	movl	%eax, -48(%rbp)
	movl	-8(%rbp), %eax
	movl	%eax, -60(%rbp)
	movl	-32(%rbp), %eax
	subl	-48(%rbp), %eax
	addl	$1, %eax
	movl	%eax, -68(%rbp)
	movl	-48(%rbp), %eax
	movl	%eax, -76(%rbp)
.LBB14_47:                              # %while.cond144
                                        #   Parent Loop BB14_1 Depth=1
                                        # =>  This Inner Loop Header: Depth=2
	cmpl	$0, -76(%rbp)
	jle	.LBB14_49
# %bb.48:                               # %while.body146
                                        #   in Loop: Header=BB14_47 Depth=2
	movq	-24(%rbp), %rax
	movslq	-60(%rbp), %rcx
	movl	(%rax,%rcx,4), %eax
	movl	%eax, -108(%rbp)
	movq	-24(%rbp), %rax
	movslq	-68(%rbp), %rcx
	movl	(%rax,%rcx,4), %eax
	movq	-24(%rbp), %rcx
	movslq	-60(%rbp), %rdx
	movl	%eax, (%rcx,%rdx,4)
	movl	-108(%rbp), %eax
	movq	-24(%rbp), %rcx
	movslq	-68(%rbp), %rdx
	movl	%eax, (%rcx,%rdx,4)
	movl	-60(%rbp), %eax
	addl	$1, %eax
	movl	%eax, -60(%rbp)
	movl	-68(%rbp), %eax
	addl	$1, %eax
	movl	%eax, -68(%rbp)
	movl	-76(%rbp), %eax
	addl	$-1, %eax
	movl	%eax, -76(%rbp)
	jmp	.LBB14_47
.LBB14_49:                              # %while.end159
                                        #   in Loop: Header=BB14_1 Depth=1
	movl	-36(%rbp), %eax
	addl	-8(%rbp), %eax
	subl	-40(%rbp), %eax
	subl	$1, %eax
	movl	%eax, -28(%rbp)
	movl	-32(%rbp), %eax
	movl	-44(%rbp), %ecx
	subl	-12(%rbp), %ecx
	subl	%ecx, %eax
	addl	$1, %eax
	movl	%eax, -48(%rbp)
	movl	-28(%rbp), %eax
	subl	-36(%rbp), %eax
	movl	-32(%rbp), %ecx
	subl	-48(%rbp), %ecx
	cmpl	%ecx, %eax
	jle	.LBB14_51
# %bb.50:                               # %if.then169
                                        #   in Loop: Header=BB14_1 Depth=1
	movl	-36(%rbp), %eax
	movslq	-4(%rbp), %rcx
	movl	%eax, -528(%rbp,%rcx,4)
	movl	-28(%rbp), %eax
	movslq	-4(%rbp), %rcx
	movl	%eax, -928(%rbp,%rcx,4)
	movl	-4(%rbp), %eax
	addl	$1, %eax
	movl	%eax, -4(%rbp)
	movl	-48(%rbp), %eax
	movslq	-4(%rbp), %rcx
	movl	%eax, -528(%rbp,%rcx,4)
	movl	-32(%rbp), %eax
	movslq	-4(%rbp), %rcx
	movl	%eax, -928(%rbp,%rcx,4)
	movl	-4(%rbp), %eax
	addl	$1, %eax
	movl	%eax, -4(%rbp)
	jmp	.LBB14_52
.LBB14_51:                              # %if.else180
                                        #   in Loop: Header=BB14_1 Depth=1
	movl	-48(%rbp), %eax
	movslq	-4(%rbp), %rcx
	movl	%eax, -528(%rbp,%rcx,4)
	movl	-32(%rbp), %eax
	movslq	-4(%rbp), %rcx
	movl	%eax, -928(%rbp,%rcx,4)
	movl	-4(%rbp), %eax
	addl	$1, %eax
	movl	%eax, -4(%rbp)
	movl	-36(%rbp), %eax
	movslq	-4(%rbp), %rcx
	movl	%eax, -528(%rbp,%rcx,4)
	movl	-28(%rbp), %eax
	movslq	-4(%rbp), %rcx
	movl	%eax, -928(%rbp,%rcx,4)
	movl	-4(%rbp), %eax
	addl	$1, %eax
	movl	%eax, -4(%rbp)
.LBB14_52:                              # %if.end191
                                        #   in Loop: Header=BB14_1 Depth=1
	jmp	.LBB14_6
.LBB14_53:                              # %while.end192
	cmpl	$890421408, -112(%rbp)  # imm = 0x3512C0A0
	jne	.LBB14_55
.LBB14_54:
	addq	$928, %rsp              # imm = 0x3A0
	popq	%rbp
	.cfi_def_cfa %rsp, 8
	retq
.LBB14_55:                              # %func_exit
	.cfi_def_cfa %rbp, 16
	callq	detect_breach
	jmp	.LBB14_54
.Lfunc_end14:
	.size	fallbackQSort3.6, .Lfunc_end14-fallbackQSort3.6
	.cfi_endproc
                                        # -- End function
	.p2align	4, 0x90         # -- Begin function mmed3.7
	.type	mmed3.7,@function
mmed3.7:                                # @mmed3.7
	.cfi_startproc
# %bb.0:                                # %entry
	pushq	%rbp
	.cfi_def_cfa_offset 16
	.cfi_offset %rbp, -16
	movq	%rsp, %rbp
	.cfi_def_cfa_register %rbp
	pushq	%rbx
	pushq	%rax
	.cfi_offset %rbx, -24
	movl	$1752223743, -16(%rbp)  # imm = 0x6870CFFF
	movb	%dil, -10(%rbp)
	movb	%sil, -9(%rbp)
	movb	%dl, -11(%rbp)
	movzbl	-10(%rbp), %eax
	movzbl	-9(%rbp), %ecx
	cmpl	%ecx, %eax
	jle	.LBB15_2
# %bb.1:                                # %if.then
	movb	-10(%rbp), %al
	movb	%al, -12(%rbp)
	movb	-9(%rbp), %al
	movb	%al, -10(%rbp)
	movb	-12(%rbp), %al
	movb	%al, -9(%rbp)
.LBB15_2:                               # %if.end
	movzbl	-9(%rbp), %eax
	movzbl	-11(%rbp), %ecx
	cmpl	%ecx, %eax
	jle	.LBB15_6
# %bb.3:                                # %if.then7
	movb	-11(%rbp), %al
	movb	%al, -9(%rbp)
	movzbl	-10(%rbp), %eax
	movzbl	-9(%rbp), %ecx
	cmpl	%ecx, %eax
	jle	.LBB15_5
# %bb.4:                                # %if.then12
	movb	-10(%rbp), %al
	movb	%al, -9(%rbp)
.LBB15_5:                               # %if.end13
	jmp	.LBB15_6
.LBB15_6:                               # %if.end14
	movb	-9(%rbp), %bl
	cmpl	$1752223743, -16(%rbp)  # imm = 0x6870CFFF
	jne	.LBB15_8
.LBB15_7:
	movzbl	%bl, %eax
	addq	$8, %rsp
	popq	%rbx
	popq	%rbp
	.cfi_def_cfa %rsp, 8
	retq
.LBB15_8:                               # %func_exit
	.cfi_def_cfa %rbp, 16
	callq	detect_breach
	jmp	.LBB15_7
.Lfunc_end15:
	.size	mmed3.7, .Lfunc_end15-mmed3.7
	.cfi_endproc
                                        # -- End function
	.p2align	4, 0x90         # -- Begin function fallbackQSort3.8
	.type	fallbackQSort3.8,@function
fallbackQSort3.8:                       # @fallbackQSort3.8
	.cfi_startproc
# %bb.0:                                # %entry
	pushq	%rbp
	.cfi_def_cfa_offset 16
	.cfi_offset %rbp, -16
	movq	%rsp, %rbp
	.cfi_def_cfa_register %rbp
	subq	$928, %rsp              # imm = 0x3A0
	movl	$479854786, -124(%rbp)  # imm = 0x1C9A00C2
	movq	%rdi, -24(%rbp)
	movq	%rsi, -88(%rbp)
	movl	%edx, -100(%rbp)
	movl	%ecx, -108(%rbp)
	movl	$0, -72(%rbp)
	movl	$0, -4(%rbp)
	movl	-100(%rbp), %eax
	movslq	-4(%rbp), %rcx
	movl	%eax, -928(%rbp,%rcx,4)
	movl	-108(%rbp), %eax
	movslq	-4(%rbp), %rcx
	movl	%eax, -528(%rbp,%rcx,4)
	movl	-4(%rbp), %eax
	addl	$1, %eax
	movl	%eax, -4(%rbp)
.LBB16_1:                               # %while.cond
                                        # =>This Loop Header: Depth=1
                                        #     Child Loop BB16_14 Depth 2
                                        #       Child Loop BB16_15 Depth 3
                                        #       Child Loop BB16_24 Depth 3
                                        #     Child Loop BB16_41 Depth 2
                                        #     Child Loop BB16_47 Depth 2
	cmpl	$0, -4(%rbp)
	jle	.LBB16_53
# %bb.2:                                # %while.body
                                        #   in Loop: Header=BB16_1 Depth=1
	cmpl	$100, -4(%rbp)
	jl	.LBB16_4
# %bb.3:                                # %if.then
                                        #   in Loop: Header=BB16_1 Depth=1
	movl	$1004, %edi             # imm = 0x3EC
	callq	BZ2_bz__AssertH__fail
.LBB16_4:                               # %if.end
                                        #   in Loop: Header=BB16_1 Depth=1
	movl	-4(%rbp), %eax
	addl	$-1, %eax
	movl	%eax, -4(%rbp)
	movslq	-4(%rbp), %rax
	movl	-928(%rbp,%rax,4), %eax
	movl	%eax, -36(%rbp)
	movslq	-4(%rbp), %rax
	movl	-528(%rbp,%rax,4), %eax
	movl	%eax, -32(%rbp)
	movl	-32(%rbp), %eax
	subl	-36(%rbp), %eax
	cmpl	$10, %eax
	jge	.LBB16_7
# %bb.5:                                # %if.then9
                                        #   in Loop: Header=BB16_1 Depth=1
	movq	-24(%rbp), %rdi
	movq	-88(%rbp), %rsi
	movl	-36(%rbp), %edx
	movl	-32(%rbp), %ecx
	callq	fallbackSimpleSort
.LBB16_6:                               # %while.cond.backedge
                                        #   in Loop: Header=BB16_1 Depth=1
	jmp	.LBB16_1
.LBB16_7:                               # %if.end10
                                        #   in Loop: Header=BB16_1 Depth=1
	imull	$7621, -72(%rbp), %eax  # imm = 0x1DC5
	addl	$1, %eax
	andl	$32767, %eax            # imm = 0x7FFF
	movl	%eax, -72(%rbp)
	movl	-72(%rbp), %eax
	xorl	%edx, %edx
	movl	$3, %ecx
	divl	%ecx
	movl	%edx, -92(%rbp)
	cmpl	$0, -92(%rbp)
	jne	.LBB16_9
# %bb.8:                                # %if.then13
                                        #   in Loop: Header=BB16_1 Depth=1
	movq	-88(%rbp), %rax
	movq	-24(%rbp), %rcx
	movslq	-36(%rbp), %rdx
	movl	(%rcx,%rdx,4), %ecx
	movl	(%rax,%rcx,4), %eax
	movl	%eax, -52(%rbp)
	jmp	.LBB16_13
.LBB16_9:                               # %if.else
                                        #   in Loop: Header=BB16_1 Depth=1
	cmpl	$1, -92(%rbp)
	jne	.LBB16_11
# %bb.10:                               # %if.then19
                                        #   in Loop: Header=BB16_1 Depth=1
	movq	-88(%rbp), %rax
	movq	-24(%rbp), %rcx
	movl	-36(%rbp), %edx
	addl	-32(%rbp), %edx
	sarl	$1, %edx
	movslq	%edx, %rdx
	movl	(%rcx,%rdx,4), %ecx
	movl	(%rax,%rcx,4), %eax
	movl	%eax, -52(%rbp)
	jmp	.LBB16_12
.LBB16_11:                              # %if.else25
                                        #   in Loop: Header=BB16_1 Depth=1
	movq	-88(%rbp), %rax
	movq	-24(%rbp), %rcx
	movslq	-32(%rbp), %rdx
	movl	(%rcx,%rdx,4), %ecx
	movl	(%rax,%rcx,4), %eax
	movl	%eax, -52(%rbp)
.LBB16_12:                              # %if.end30
                                        #   in Loop: Header=BB16_1 Depth=1
	jmp	.LBB16_13
.LBB16_13:                              # %if.end31
                                        #   in Loop: Header=BB16_1 Depth=1
	movl	-36(%rbp), %eax
	movl	%eax, -44(%rbp)
	movl	%eax, -8(%rbp)
	movl	-32(%rbp), %eax
	movl	%eax, -40(%rbp)
	movl	%eax, -12(%rbp)
.LBB16_14:                              # %while.body33
                                        #   Parent Loop BB16_1 Depth=1
                                        # =>  This Loop Header: Depth=2
                                        #       Child Loop BB16_15 Depth 3
                                        #       Child Loop BB16_24 Depth 3
	jmp	.LBB16_15
.LBB16_15:                              # %while.body35
                                        #   Parent Loop BB16_1 Depth=1
                                        #     Parent Loop BB16_14 Depth=2
                                        # =>    This Inner Loop Header: Depth=3
	movl	-8(%rbp), %eax
	cmpl	-12(%rbp), %eax
	jle	.LBB16_17
# %bb.16:                               # %if.then37
                                        #   in Loop: Header=BB16_14 Depth=2
	jmp	.LBB16_23
.LBB16_17:                              # %if.end38
                                        #   in Loop: Header=BB16_15 Depth=3
	movq	-88(%rbp), %rax
	movq	-24(%rbp), %rcx
	movslq	-8(%rbp), %rdx
	movl	(%rcx,%rdx,4), %ecx
	movl	(%rax,%rcx,4), %eax
	subl	-52(%rbp), %eax
	movl	%eax, -28(%rbp)
	cmpl	$0, -28(%rbp)
	jne	.LBB16_20
# %bb.18:                               # %if.then45
                                        #   in Loop: Header=BB16_15 Depth=3
	movq	-24(%rbp), %rax
	movslq	-8(%rbp), %rcx
	movl	(%rax,%rcx,4), %eax
	movl	%eax, -116(%rbp)
	movq	-24(%rbp), %rax
	movslq	-44(%rbp), %rcx
	movl	(%rax,%rcx,4), %eax
	movq	-24(%rbp), %rcx
	movslq	-8(%rbp), %rdx
	movl	%eax, (%rcx,%rdx,4)
	movl	-116(%rbp), %eax
	movq	-24(%rbp), %rcx
	movslq	-44(%rbp), %rdx
	movl	%eax, (%rcx,%rdx,4)
	movl	-44(%rbp), %eax
	addl	$1, %eax
	movl	%eax, -44(%rbp)
	movl	-8(%rbp), %eax
	addl	$1, %eax
	movl	%eax, -8(%rbp)
.LBB16_19:                              # %while.body35.backedge
                                        #   in Loop: Header=BB16_15 Depth=3
	jmp	.LBB16_15
.LBB16_20:                              # %if.end56
                                        #   in Loop: Header=BB16_15 Depth=3
	cmpl	$0, -28(%rbp)
	jle	.LBB16_22
# %bb.21:                               # %if.then58
                                        #   in Loop: Header=BB16_14 Depth=2
	jmp	.LBB16_23
.LBB16_22:                              # %if.end59
                                        #   in Loop: Header=BB16_15 Depth=3
	movl	-8(%rbp), %eax
	addl	$1, %eax
	movl	%eax, -8(%rbp)
	jmp	.LBB16_19
.LBB16_23:                              # %while.end
                                        #   in Loop: Header=BB16_14 Depth=2
	jmp	.LBB16_24
.LBB16_24:                              # %while.body62
                                        #   Parent Loop BB16_1 Depth=1
                                        #     Parent Loop BB16_14 Depth=2
                                        # =>    This Inner Loop Header: Depth=3
	movl	-8(%rbp), %eax
	cmpl	-12(%rbp), %eax
	jle	.LBB16_26
# %bb.25:                               # %if.then64
                                        #   in Loop: Header=BB16_14 Depth=2
	jmp	.LBB16_32
.LBB16_26:                              # %if.end65
                                        #   in Loop: Header=BB16_24 Depth=3
	movq	-88(%rbp), %rax
	movq	-24(%rbp), %rcx
	movslq	-12(%rbp), %rdx
	movl	(%rcx,%rdx,4), %ecx
	movl	(%rax,%rcx,4), %eax
	subl	-52(%rbp), %eax
	movl	%eax, -28(%rbp)
	cmpl	$0, -28(%rbp)
	jne	.LBB16_29
# %bb.27:                               # %if.then72
                                        #   in Loop: Header=BB16_24 Depth=3
	movq	-24(%rbp), %rax
	movslq	-12(%rbp), %rcx
	movl	(%rax,%rcx,4), %eax
	movl	%eax, -96(%rbp)
	movq	-24(%rbp), %rax
	movslq	-40(%rbp), %rcx
	movl	(%rax,%rcx,4), %eax
	movq	-24(%rbp), %rcx
	movslq	-12(%rbp), %rdx
	movl	%eax, (%rcx,%rdx,4)
	movl	-96(%rbp), %eax
	movq	-24(%rbp), %rcx
	movslq	-40(%rbp), %rdx
	movl	%eax, (%rcx,%rdx,4)
	movl	-40(%rbp), %eax
	addl	$-1, %eax
	movl	%eax, -40(%rbp)
	movl	-12(%rbp), %eax
	addl	$-1, %eax
	movl	%eax, -12(%rbp)
.LBB16_28:                              # %while.body62.backedge
                                        #   in Loop: Header=BB16_24 Depth=3
	jmp	.LBB16_24
.LBB16_29:                              # %if.end84
                                        #   in Loop: Header=BB16_24 Depth=3
	cmpl	$0, -28(%rbp)
	jge	.LBB16_31
# %bb.30:                               # %if.then86
                                        #   in Loop: Header=BB16_14 Depth=2
	jmp	.LBB16_32
.LBB16_31:                              # %if.end87
                                        #   in Loop: Header=BB16_24 Depth=3
	movl	-12(%rbp), %eax
	addl	$-1, %eax
	movl	%eax, -12(%rbp)
	jmp	.LBB16_28
.LBB16_32:                              # %while.end89
                                        #   in Loop: Header=BB16_14 Depth=2
	movl	-8(%rbp), %eax
	cmpl	-12(%rbp), %eax
	jle	.LBB16_34
# %bb.33:                               # %if.then91
                                        #   in Loop: Header=BB16_1 Depth=1
	jmp	.LBB16_35
.LBB16_34:                              # %if.end92
                                        #   in Loop: Header=BB16_14 Depth=2
	movq	-24(%rbp), %rax
	movslq	-8(%rbp), %rcx
	movl	(%rax,%rcx,4), %eax
	movl	%eax, -120(%rbp)
	movq	-24(%rbp), %rax
	movslq	-12(%rbp), %rcx
	movl	(%rax,%rcx,4), %eax
	movq	-24(%rbp), %rcx
	movslq	-8(%rbp), %rdx
	movl	%eax, (%rcx,%rdx,4)
	movl	-120(%rbp), %eax
	movq	-24(%rbp), %rcx
	movslq	-12(%rbp), %rdx
	movl	%eax, (%rcx,%rdx,4)
	movl	-8(%rbp), %eax
	addl	$1, %eax
	movl	%eax, -8(%rbp)
	movl	-12(%rbp), %eax
	addl	$-1, %eax
	movl	%eax, -12(%rbp)
	jmp	.LBB16_14
.LBB16_35:                              # %while.end104
                                        #   in Loop: Header=BB16_1 Depth=1
	movl	-40(%rbp), %eax
	cmpl	-44(%rbp), %eax
	jge	.LBB16_37
# %bb.36:                               # %if.then106
                                        #   in Loop: Header=BB16_1 Depth=1
	jmp	.LBB16_6
.LBB16_37:                              # %if.end107
                                        #   in Loop: Header=BB16_1 Depth=1
	movl	-44(%rbp), %eax
	subl	-36(%rbp), %eax
	movl	-8(%rbp), %ecx
	subl	-44(%rbp), %ecx
	cmpl	%ecx, %eax
	jge	.LBB16_39
# %bb.38:                               # %cond.true
                                        #   in Loop: Header=BB16_1 Depth=1
	movl	-44(%rbp), %eax
	subl	-36(%rbp), %eax
	jmp	.LBB16_40
.LBB16_39:                              # %cond.false
                                        #   in Loop: Header=BB16_1 Depth=1
	movl	-8(%rbp), %eax
	subl	-44(%rbp), %eax
.LBB16_40:                              # %cond.end
                                        #   in Loop: Header=BB16_1 Depth=1
	movl	%eax, -28(%rbp)
	movl	-36(%rbp), %eax
	movl	%eax, -64(%rbp)
	movl	-8(%rbp), %eax
	subl	-28(%rbp), %eax
	movl	%eax, -60(%rbp)
	movl	-28(%rbp), %eax
	movl	%eax, -80(%rbp)
.LBB16_41:                              # %while.cond114
                                        #   Parent Loop BB16_1 Depth=1
                                        # =>  This Inner Loop Header: Depth=2
	cmpl	$0, -80(%rbp)
	jle	.LBB16_43
# %bb.42:                               # %while.body116
                                        #   in Loop: Header=BB16_41 Depth=2
	movq	-24(%rbp), %rax
	movslq	-64(%rbp), %rcx
	movl	(%rax,%rcx,4), %eax
	movl	%eax, -112(%rbp)
	movq	-24(%rbp), %rax
	movslq	-60(%rbp), %rcx
	movl	(%rax,%rcx,4), %eax
	movq	-24(%rbp), %rcx
	movslq	-64(%rbp), %rdx
	movl	%eax, (%rcx,%rdx,4)
	movl	-112(%rbp), %eax
	movq	-24(%rbp), %rcx
	movslq	-60(%rbp), %rdx
	movl	%eax, (%rcx,%rdx,4)
	movl	-64(%rbp), %eax
	addl	$1, %eax
	movl	%eax, -64(%rbp)
	movl	-60(%rbp), %eax
	addl	$1, %eax
	movl	%eax, -60(%rbp)
	movl	-80(%rbp), %eax
	addl	$-1, %eax
	movl	%eax, -80(%rbp)
	jmp	.LBB16_41
.LBB16_43:                              # %while.end129
                                        #   in Loop: Header=BB16_1 Depth=1
	movl	-32(%rbp), %eax
	subl	-40(%rbp), %eax
	movl	-40(%rbp), %ecx
	subl	-12(%rbp), %ecx
	cmpl	%ecx, %eax
	jge	.LBB16_45
# %bb.44:                               # %cond.true133
                                        #   in Loop: Header=BB16_1 Depth=1
	movl	-32(%rbp), %eax
	subl	-40(%rbp), %eax
	jmp	.LBB16_46
.LBB16_45:                              # %cond.false135
                                        #   in Loop: Header=BB16_1 Depth=1
	movl	-40(%rbp), %eax
	subl	-12(%rbp), %eax
.LBB16_46:                              # %cond.end137
                                        #   in Loop: Header=BB16_1 Depth=1
	movl	%eax, -48(%rbp)
	movl	-8(%rbp), %eax
	movl	%eax, -68(%rbp)
	movl	-32(%rbp), %eax
	subl	-48(%rbp), %eax
	addl	$1, %eax
	movl	%eax, -56(%rbp)
	movl	-48(%rbp), %eax
	movl	%eax, -76(%rbp)
.LBB16_47:                              # %while.cond144
                                        #   Parent Loop BB16_1 Depth=1
                                        # =>  This Inner Loop Header: Depth=2
	cmpl	$0, -76(%rbp)
	jle	.LBB16_49
# %bb.48:                               # %while.body146
                                        #   in Loop: Header=BB16_47 Depth=2
	movq	-24(%rbp), %rax
	movslq	-68(%rbp), %rcx
	movl	(%rax,%rcx,4), %eax
	movl	%eax, -104(%rbp)
	movq	-24(%rbp), %rax
	movslq	-56(%rbp), %rcx
	movl	(%rax,%rcx,4), %eax
	movq	-24(%rbp), %rcx
	movslq	-68(%rbp), %rdx
	movl	%eax, (%rcx,%rdx,4)
	movl	-104(%rbp), %eax
	movq	-24(%rbp), %rcx
	movslq	-56(%rbp), %rdx
	movl	%eax, (%rcx,%rdx,4)
	movl	-68(%rbp), %eax
	addl	$1, %eax
	movl	%eax, -68(%rbp)
	movl	-56(%rbp), %eax
	addl	$1, %eax
	movl	%eax, -56(%rbp)
	movl	-76(%rbp), %eax
	addl	$-1, %eax
	movl	%eax, -76(%rbp)
	jmp	.LBB16_47
.LBB16_49:                              # %while.end159
                                        #   in Loop: Header=BB16_1 Depth=1
	movl	-36(%rbp), %eax
	addl	-8(%rbp), %eax
	subl	-44(%rbp), %eax
	subl	$1, %eax
	movl	%eax, -28(%rbp)
	movl	-32(%rbp), %eax
	movl	-40(%rbp), %ecx
	subl	-12(%rbp), %ecx
	subl	%ecx, %eax
	addl	$1, %eax
	movl	%eax, -48(%rbp)
	movl	-28(%rbp), %eax
	subl	-36(%rbp), %eax
	movl	-32(%rbp), %ecx
	subl	-48(%rbp), %ecx
	cmpl	%ecx, %eax
	jle	.LBB16_51
# %bb.50:                               # %if.then169
                                        #   in Loop: Header=BB16_1 Depth=1
	movl	-36(%rbp), %eax
	movslq	-4(%rbp), %rcx
	movl	%eax, -928(%rbp,%rcx,4)
	movl	-28(%rbp), %eax
	movslq	-4(%rbp), %rcx
	movl	%eax, -528(%rbp,%rcx,4)
	movl	-4(%rbp), %eax
	addl	$1, %eax
	movl	%eax, -4(%rbp)
	movl	-48(%rbp), %eax
	movslq	-4(%rbp), %rcx
	movl	%eax, -928(%rbp,%rcx,4)
	movl	-32(%rbp), %eax
	movslq	-4(%rbp), %rcx
	movl	%eax, -528(%rbp,%rcx,4)
	movl	-4(%rbp), %eax
	addl	$1, %eax
	movl	%eax, -4(%rbp)
	jmp	.LBB16_52
.LBB16_51:                              # %if.else180
                                        #   in Loop: Header=BB16_1 Depth=1
	movl	-48(%rbp), %eax
	movslq	-4(%rbp), %rcx
	movl	%eax, -928(%rbp,%rcx,4)
	movl	-32(%rbp), %eax
	movslq	-4(%rbp), %rcx
	movl	%eax, -528(%rbp,%rcx,4)
	movl	-4(%rbp), %eax
	addl	$1, %eax
	movl	%eax, -4(%rbp)
	movl	-36(%rbp), %eax
	movslq	-4(%rbp), %rcx
	movl	%eax, -928(%rbp,%rcx,4)
	movl	-28(%rbp), %eax
	movslq	-4(%rbp), %rcx
	movl	%eax, -528(%rbp,%rcx,4)
	movl	-4(%rbp), %eax
	addl	$1, %eax
	movl	%eax, -4(%rbp)
.LBB16_52:                              # %if.end191
                                        #   in Loop: Header=BB16_1 Depth=1
	jmp	.LBB16_6
.LBB16_53:                              # %while.end192
	cmpl	$479854786, -124(%rbp)  # imm = 0x1C9A00C2
	jne	.LBB16_55
.LBB16_54:
	addq	$928, %rsp              # imm = 0x3A0
	popq	%rbp
	.cfi_def_cfa %rsp, 8
	retq
.LBB16_55:                              # %func_exit
	.cfi_def_cfa %rbp, 16
	callq	detect_breach
	jmp	.LBB16_54
.Lfunc_end16:
	.size	fallbackQSort3.8, .Lfunc_end16-fallbackQSort3.8
	.cfi_endproc
                                        # -- End function
	.p2align	4, 0x90         # -- Begin function mainGtU.9
	.type	mainGtU.9,@function
mainGtU.9:                              # @mainGtU.9
	.cfi_startproc
# %bb.0:                                # %entry
	pushq	%rbp
	.cfi_def_cfa_offset 16
	.cfi_offset %rbp, -16
	movq	%rsp, %rbp
	.cfi_def_cfa_register %rbp
	pushq	%rbx
	subq	$56, %rsp
	.cfi_offset %rbx, -24
	movl	$1933763554, -52(%rbp)  # imm = 0x7342E3E2
	movl	%edi, -20(%rbp)
	movl	%esi, -16(%rbp)
	movq	%rdx, -32(%rbp)
	movq	%rcx, -40(%rbp)
	movl	%r8d, -44(%rbp)
	movq	%r9, -64(%rbp)
	movq	-32(%rbp), %rax
	movl	-20(%rbp), %ecx
	movb	(%rax,%rcx), %al
	movb	%al, -9(%rbp)
	movq	-32(%rbp), %rax
	movl	-16(%rbp), %ecx
	movb	(%rax,%rcx), %al
	movb	%al, -10(%rbp)
	movzbl	-9(%rbp), %eax
	movzbl	-10(%rbp), %ecx
	cmpl	%ecx, %eax
	je	.LBB17_2
# %bb.1:                                # %if.then
	movzbl	-9(%rbp), %eax
	movzbl	-10(%rbp), %ecx
	cmpl	%ecx, %eax
	setg	%al
	andb	$1, %al
	movzbl	%al, %eax
	movb	%al, -11(%rbp)
	jmp	.LBB17_64
.LBB17_2:                               # %if.end
	movl	-20(%rbp), %eax
	addl	$1, %eax
	movl	%eax, -20(%rbp)
	movl	-16(%rbp), %eax
	addl	$1, %eax
	movl	%eax, -16(%rbp)
	movq	-32(%rbp), %rax
	movl	-20(%rbp), %ecx
	movb	(%rax,%rcx), %al
	movb	%al, -9(%rbp)
	movq	-32(%rbp), %rax
	movl	-16(%rbp), %ecx
	movb	(%rax,%rcx), %al
	movb	%al, -10(%rbp)
	movzbl	-9(%rbp), %eax
	movzbl	-10(%rbp), %ecx
	cmpl	%ecx, %eax
	je	.LBB17_4
# %bb.3:                                # %if.then19
	movzbl	-9(%rbp), %eax
	movzbl	-10(%rbp), %ecx
	cmpl	%ecx, %eax
	setg	%al
	andb	$1, %al
	movzbl	%al, %eax
	movb	%al, -11(%rbp)
	jmp	.LBB17_64
.LBB17_4:                               # %if.end25
	movl	-20(%rbp), %eax
	addl	$1, %eax
	movl	%eax, -20(%rbp)
	movl	-16(%rbp), %eax
	addl	$1, %eax
	movl	%eax, -16(%rbp)
	movq	-32(%rbp), %rax
	movl	-20(%rbp), %ecx
	movb	(%rax,%rcx), %al
	movb	%al, -9(%rbp)
	movq	-32(%rbp), %rax
	movl	-16(%rbp), %ecx
	movb	(%rax,%rcx), %al
	movb	%al, -10(%rbp)
	movzbl	-9(%rbp), %eax
	movzbl	-10(%rbp), %ecx
	cmpl	%ecx, %eax
	je	.LBB17_6
# %bb.5:                                # %if.then36
	movzbl	-9(%rbp), %eax
	movzbl	-10(%rbp), %ecx
	cmpl	%ecx, %eax
	setg	%al
	andb	$1, %al
	movzbl	%al, %eax
	movb	%al, -11(%rbp)
	jmp	.LBB17_64
.LBB17_6:                               # %if.end42
	movl	-20(%rbp), %eax
	addl	$1, %eax
	movl	%eax, -20(%rbp)
	movl	-16(%rbp), %eax
	addl	$1, %eax
	movl	%eax, -16(%rbp)
	movq	-32(%rbp), %rax
	movl	-20(%rbp), %ecx
	movb	(%rax,%rcx), %al
	movb	%al, -9(%rbp)
	movq	-32(%rbp), %rax
	movl	-16(%rbp), %ecx
	movb	(%rax,%rcx), %al
	movb	%al, -10(%rbp)
	movzbl	-9(%rbp), %eax
	movzbl	-10(%rbp), %ecx
	cmpl	%ecx, %eax
	je	.LBB17_8
# %bb.7:                                # %if.then53
	movzbl	-9(%rbp), %eax
	movzbl	-10(%rbp), %ecx
	cmpl	%ecx, %eax
	setg	%al
	andb	$1, %al
	movzbl	%al, %eax
	movb	%al, -11(%rbp)
	jmp	.LBB17_64
.LBB17_8:                               # %if.end59
	movl	-20(%rbp), %eax
	addl	$1, %eax
	movl	%eax, -20(%rbp)
	movl	-16(%rbp), %eax
	addl	$1, %eax
	movl	%eax, -16(%rbp)
	movq	-32(%rbp), %rax
	movl	-20(%rbp), %ecx
	movb	(%rax,%rcx), %al
	movb	%al, -9(%rbp)
	movq	-32(%rbp), %rax
	movl	-16(%rbp), %ecx
	movb	(%rax,%rcx), %al
	movb	%al, -10(%rbp)
	movzbl	-9(%rbp), %eax
	movzbl	-10(%rbp), %ecx
	cmpl	%ecx, %eax
	je	.LBB17_10
# %bb.9:                                # %if.then70
	movzbl	-9(%rbp), %eax
	movzbl	-10(%rbp), %ecx
	cmpl	%ecx, %eax
	setg	%al
	andb	$1, %al
	movzbl	%al, %eax
	movb	%al, -11(%rbp)
	jmp	.LBB17_64
.LBB17_10:                              # %if.end76
	movl	-20(%rbp), %eax
	addl	$1, %eax
	movl	%eax, -20(%rbp)
	movl	-16(%rbp), %eax
	addl	$1, %eax
	movl	%eax, -16(%rbp)
	movq	-32(%rbp), %rax
	movl	-20(%rbp), %ecx
	movb	(%rax,%rcx), %al
	movb	%al, -9(%rbp)
	movq	-32(%rbp), %rax
	movl	-16(%rbp), %ecx
	movb	(%rax,%rcx), %al
	movb	%al, -10(%rbp)
	movzbl	-9(%rbp), %eax
	movzbl	-10(%rbp), %ecx
	cmpl	%ecx, %eax
	je	.LBB17_12
# %bb.11:                               # %if.then87
	movzbl	-9(%rbp), %eax
	movzbl	-10(%rbp), %ecx
	cmpl	%ecx, %eax
	setg	%al
	andb	$1, %al
	movzbl	%al, %eax
	movb	%al, -11(%rbp)
	jmp	.LBB17_64
.LBB17_12:                              # %if.end93
	movl	-20(%rbp), %eax
	addl	$1, %eax
	movl	%eax, -20(%rbp)
	movl	-16(%rbp), %eax
	addl	$1, %eax
	movl	%eax, -16(%rbp)
	movq	-32(%rbp), %rax
	movl	-20(%rbp), %ecx
	movb	(%rax,%rcx), %al
	movb	%al, -9(%rbp)
	movq	-32(%rbp), %rax
	movl	-16(%rbp), %ecx
	movb	(%rax,%rcx), %al
	movb	%al, -10(%rbp)
	movzbl	-9(%rbp), %eax
	movzbl	-10(%rbp), %ecx
	cmpl	%ecx, %eax
	je	.LBB17_14
# %bb.13:                               # %if.then104
	movzbl	-9(%rbp), %eax
	movzbl	-10(%rbp), %ecx
	cmpl	%ecx, %eax
	setg	%al
	andb	$1, %al
	movzbl	%al, %eax
	movb	%al, -11(%rbp)
	jmp	.LBB17_64
.LBB17_14:                              # %if.end110
	movl	-20(%rbp), %eax
	addl	$1, %eax
	movl	%eax, -20(%rbp)
	movl	-16(%rbp), %eax
	addl	$1, %eax
	movl	%eax, -16(%rbp)
	movq	-32(%rbp), %rax
	movl	-20(%rbp), %ecx
	movb	(%rax,%rcx), %al
	movb	%al, -9(%rbp)
	movq	-32(%rbp), %rax
	movl	-16(%rbp), %ecx
	movb	(%rax,%rcx), %al
	movb	%al, -10(%rbp)
	movzbl	-9(%rbp), %eax
	movzbl	-10(%rbp), %ecx
	cmpl	%ecx, %eax
	je	.LBB17_16
# %bb.15:                               # %if.then121
	movzbl	-9(%rbp), %eax
	movzbl	-10(%rbp), %ecx
	cmpl	%ecx, %eax
	setg	%al
	andb	$1, %al
	movzbl	%al, %eax
	movb	%al, -11(%rbp)
	jmp	.LBB17_64
.LBB17_16:                              # %if.end127
	movl	-20(%rbp), %eax
	addl	$1, %eax
	movl	%eax, -20(%rbp)
	movl	-16(%rbp), %eax
	addl	$1, %eax
	movl	%eax, -16(%rbp)
	movq	-32(%rbp), %rax
	movl	-20(%rbp), %ecx
	movb	(%rax,%rcx), %al
	movb	%al, -9(%rbp)
	movq	-32(%rbp), %rax
	movl	-16(%rbp), %ecx
	movb	(%rax,%rcx), %al
	movb	%al, -10(%rbp)
	movzbl	-9(%rbp), %eax
	movzbl	-10(%rbp), %ecx
	cmpl	%ecx, %eax
	je	.LBB17_18
# %bb.17:                               # %if.then138
	movzbl	-9(%rbp), %eax
	movzbl	-10(%rbp), %ecx
	cmpl	%ecx, %eax
	setg	%al
	andb	$1, %al
	movzbl	%al, %eax
	movb	%al, -11(%rbp)
	jmp	.LBB17_64
.LBB17_18:                              # %if.end144
	movl	-20(%rbp), %eax
	addl	$1, %eax
	movl	%eax, -20(%rbp)
	movl	-16(%rbp), %eax
	addl	$1, %eax
	movl	%eax, -16(%rbp)
	movq	-32(%rbp), %rax
	movl	-20(%rbp), %ecx
	movb	(%rax,%rcx), %al
	movb	%al, -9(%rbp)
	movq	-32(%rbp), %rax
	movl	-16(%rbp), %ecx
	movb	(%rax,%rcx), %al
	movb	%al, -10(%rbp)
	movzbl	-9(%rbp), %eax
	movzbl	-10(%rbp), %ecx
	cmpl	%ecx, %eax
	je	.LBB17_20
# %bb.19:                               # %if.then155
	movzbl	-9(%rbp), %eax
	movzbl	-10(%rbp), %ecx
	cmpl	%ecx, %eax
	setg	%al
	andb	$1, %al
	movzbl	%al, %eax
	movb	%al, -11(%rbp)
	jmp	.LBB17_64
.LBB17_20:                              # %if.end161
	movl	-20(%rbp), %eax
	addl	$1, %eax
	movl	%eax, -20(%rbp)
	movl	-16(%rbp), %eax
	addl	$1, %eax
	movl	%eax, -16(%rbp)
	movq	-32(%rbp), %rax
	movl	-20(%rbp), %ecx
	movb	(%rax,%rcx), %al
	movb	%al, -9(%rbp)
	movq	-32(%rbp), %rax
	movl	-16(%rbp), %ecx
	movb	(%rax,%rcx), %al
	movb	%al, -10(%rbp)
	movzbl	-9(%rbp), %eax
	movzbl	-10(%rbp), %ecx
	cmpl	%ecx, %eax
	je	.LBB17_22
# %bb.21:                               # %if.then172
	movzbl	-9(%rbp), %eax
	movzbl	-10(%rbp), %ecx
	cmpl	%ecx, %eax
	setg	%al
	andb	$1, %al
	movzbl	%al, %eax
	movb	%al, -11(%rbp)
	jmp	.LBB17_64
.LBB17_22:                              # %if.end178
	movl	-20(%rbp), %eax
	addl	$1, %eax
	movl	%eax, -20(%rbp)
	movl	-16(%rbp), %eax
	addl	$1, %eax
	movl	%eax, -16(%rbp)
	movq	-32(%rbp), %rax
	movl	-20(%rbp), %ecx
	movb	(%rax,%rcx), %al
	movb	%al, -9(%rbp)
	movq	-32(%rbp), %rax
	movl	-16(%rbp), %ecx
	movb	(%rax,%rcx), %al
	movb	%al, -10(%rbp)
	movzbl	-9(%rbp), %eax
	movzbl	-10(%rbp), %ecx
	cmpl	%ecx, %eax
	je	.LBB17_24
# %bb.23:                               # %if.then189
	movzbl	-9(%rbp), %eax
	movzbl	-10(%rbp), %ecx
	cmpl	%ecx, %eax
	setg	%al
	andb	$1, %al
	movzbl	%al, %eax
	movb	%al, -11(%rbp)
	jmp	.LBB17_64
.LBB17_24:                              # %if.end195
	movl	-20(%rbp), %eax
	addl	$1, %eax
	movl	%eax, -20(%rbp)
	movl	-16(%rbp), %eax
	addl	$1, %eax
	movl	%eax, -16(%rbp)
	movl	-44(%rbp), %eax
	addl	$8, %eax
	movl	%eax, -48(%rbp)
.LBB17_25:                              # %do.body
                                        # =>This Inner Loop Header: Depth=1
	movq	-32(%rbp), %rax
	movl	-20(%rbp), %ecx
	movb	(%rax,%rcx), %al
	movb	%al, -9(%rbp)
	movq	-32(%rbp), %rax
	movl	-16(%rbp), %ecx
	movb	(%rax,%rcx), %al
	movb	%al, -10(%rbp)
	movzbl	-9(%rbp), %eax
	movzbl	-10(%rbp), %ecx
	cmpl	%ecx, %eax
	je	.LBB17_27
# %bb.26:                               # %if.then206
	movzbl	-9(%rbp), %eax
	movzbl	-10(%rbp), %ecx
	cmpl	%ecx, %eax
	setg	%al
	andb	$1, %al
	movzbl	%al, %eax
	movb	%al, -11(%rbp)
	jmp	.LBB17_64
.LBB17_27:                              # %if.end212
                                        #   in Loop: Header=BB17_25 Depth=1
	movq	-40(%rbp), %rax
	movl	-20(%rbp), %ecx
	movw	(%rax,%rcx,2), %ax
	movw	%ax, -24(%rbp)
	movq	-40(%rbp), %rax
	movl	-16(%rbp), %ecx
	movw	(%rax,%rcx,2), %ax
	movw	%ax, -22(%rbp)
	movzwl	-24(%rbp), %eax
	movzwl	-22(%rbp), %ecx
	cmpl	%ecx, %eax
	je	.LBB17_29
# %bb.28:                               # %if.then221
	movzwl	-24(%rbp), %eax
	movzwl	-22(%rbp), %ecx
	cmpl	%ecx, %eax
	setg	%al
	andb	$1, %al
	movzbl	%al, %eax
	movb	%al, -11(%rbp)
	jmp	.LBB17_64
.LBB17_29:                              # %if.end227
                                        #   in Loop: Header=BB17_25 Depth=1
	movl	-20(%rbp), %eax
	addl	$1, %eax
	movl	%eax, -20(%rbp)
	movl	-16(%rbp), %eax
	addl	$1, %eax
	movl	%eax, -16(%rbp)
	movq	-32(%rbp), %rax
	movl	-20(%rbp), %ecx
	movb	(%rax,%rcx), %al
	movb	%al, -9(%rbp)
	movq	-32(%rbp), %rax
	movl	-16(%rbp), %ecx
	movb	(%rax,%rcx), %al
	movb	%al, -10(%rbp)
	movzbl	-9(%rbp), %eax
	movzbl	-10(%rbp), %ecx
	cmpl	%ecx, %eax
	je	.LBB17_31
# %bb.30:                               # %if.then238
	movzbl	-9(%rbp), %eax
	movzbl	-10(%rbp), %ecx
	cmpl	%ecx, %eax
	setg	%al
	andb	$1, %al
	movzbl	%al, %eax
	movb	%al, -11(%rbp)
	jmp	.LBB17_64
.LBB17_31:                              # %if.end244
                                        #   in Loop: Header=BB17_25 Depth=1
	movq	-40(%rbp), %rax
	movl	-20(%rbp), %ecx
	movw	(%rax,%rcx,2), %ax
	movw	%ax, -24(%rbp)
	movq	-40(%rbp), %rax
	movl	-16(%rbp), %ecx
	movw	(%rax,%rcx,2), %ax
	movw	%ax, -22(%rbp)
	movzwl	-24(%rbp), %eax
	movzwl	-22(%rbp), %ecx
	cmpl	%ecx, %eax
	je	.LBB17_33
# %bb.32:                               # %if.then253
	movzwl	-24(%rbp), %eax
	movzwl	-22(%rbp), %ecx
	cmpl	%ecx, %eax
	setg	%al
	andb	$1, %al
	movzbl	%al, %eax
	movb	%al, -11(%rbp)
	jmp	.LBB17_64
.LBB17_33:                              # %if.end259
                                        #   in Loop: Header=BB17_25 Depth=1
	movl	-20(%rbp), %eax
	addl	$1, %eax
	movl	%eax, -20(%rbp)
	movl	-16(%rbp), %eax
	addl	$1, %eax
	movl	%eax, -16(%rbp)
	movq	-32(%rbp), %rax
	movl	-20(%rbp), %ecx
	movb	(%rax,%rcx), %al
	movb	%al, -9(%rbp)
	movq	-32(%rbp), %rax
	movl	-16(%rbp), %ecx
	movb	(%rax,%rcx), %al
	movb	%al, -10(%rbp)
	movzbl	-9(%rbp), %eax
	movzbl	-10(%rbp), %ecx
	cmpl	%ecx, %eax
	je	.LBB17_35
# %bb.34:                               # %if.then270
	movzbl	-9(%rbp), %eax
	movzbl	-10(%rbp), %ecx
	cmpl	%ecx, %eax
	setg	%al
	andb	$1, %al
	movzbl	%al, %eax
	movb	%al, -11(%rbp)
	jmp	.LBB17_64
.LBB17_35:                              # %if.end276
                                        #   in Loop: Header=BB17_25 Depth=1
	movq	-40(%rbp), %rax
	movl	-20(%rbp), %ecx
	movw	(%rax,%rcx,2), %ax
	movw	%ax, -24(%rbp)
	movq	-40(%rbp), %rax
	movl	-16(%rbp), %ecx
	movw	(%rax,%rcx,2), %ax
	movw	%ax, -22(%rbp)
	movzwl	-24(%rbp), %eax
	movzwl	-22(%rbp), %ecx
	cmpl	%ecx, %eax
	je	.LBB17_37
# %bb.36:                               # %if.then285
	movzwl	-24(%rbp), %eax
	movzwl	-22(%rbp), %ecx
	cmpl	%ecx, %eax
	setg	%al
	andb	$1, %al
	movzbl	%al, %eax
	movb	%al, -11(%rbp)
	jmp	.LBB17_64
.LBB17_37:                              # %if.end291
                                        #   in Loop: Header=BB17_25 Depth=1
	movl	-20(%rbp), %eax
	addl	$1, %eax
	movl	%eax, -20(%rbp)
	movl	-16(%rbp), %eax
	addl	$1, %eax
	movl	%eax, -16(%rbp)
	movq	-32(%rbp), %rax
	movl	-20(%rbp), %ecx
	movb	(%rax,%rcx), %al
	movb	%al, -9(%rbp)
	movq	-32(%rbp), %rax
	movl	-16(%rbp), %ecx
	movb	(%rax,%rcx), %al
	movb	%al, -10(%rbp)
	movzbl	-9(%rbp), %eax
	movzbl	-10(%rbp), %ecx
	cmpl	%ecx, %eax
	je	.LBB17_39
# %bb.38:                               # %if.then302
	movzbl	-9(%rbp), %eax
	movzbl	-10(%rbp), %ecx
	cmpl	%ecx, %eax
	setg	%al
	andb	$1, %al
	movzbl	%al, %eax
	movb	%al, -11(%rbp)
	jmp	.LBB17_64
.LBB17_39:                              # %if.end308
                                        #   in Loop: Header=BB17_25 Depth=1
	movq	-40(%rbp), %rax
	movl	-20(%rbp), %ecx
	movw	(%rax,%rcx,2), %ax
	movw	%ax, -24(%rbp)
	movq	-40(%rbp), %rax
	movl	-16(%rbp), %ecx
	movw	(%rax,%rcx,2), %ax
	movw	%ax, -22(%rbp)
	movzwl	-24(%rbp), %eax
	movzwl	-22(%rbp), %ecx
	cmpl	%ecx, %eax
	je	.LBB17_41
# %bb.40:                               # %if.then317
	movzwl	-24(%rbp), %eax
	movzwl	-22(%rbp), %ecx
	cmpl	%ecx, %eax
	setg	%al
	andb	$1, %al
	movzbl	%al, %eax
	movb	%al, -11(%rbp)
	jmp	.LBB17_64
.LBB17_41:                              # %if.end323
                                        #   in Loop: Header=BB17_25 Depth=1
	movl	-20(%rbp), %eax
	addl	$1, %eax
	movl	%eax, -20(%rbp)
	movl	-16(%rbp), %eax
	addl	$1, %eax
	movl	%eax, -16(%rbp)
	movq	-32(%rbp), %rax
	movl	-20(%rbp), %ecx
	movb	(%rax,%rcx), %al
	movb	%al, -9(%rbp)
	movq	-32(%rbp), %rax
	movl	-16(%rbp), %ecx
	movb	(%rax,%rcx), %al
	movb	%al, -10(%rbp)
	movzbl	-9(%rbp), %eax
	movzbl	-10(%rbp), %ecx
	cmpl	%ecx, %eax
	je	.LBB17_43
# %bb.42:                               # %if.then334
	movzbl	-9(%rbp), %eax
	movzbl	-10(%rbp), %ecx
	cmpl	%ecx, %eax
	setg	%al
	andb	$1, %al
	movzbl	%al, %eax
	movb	%al, -11(%rbp)
	jmp	.LBB17_64
.LBB17_43:                              # %if.end340
                                        #   in Loop: Header=BB17_25 Depth=1
	movq	-40(%rbp), %rax
	movl	-20(%rbp), %ecx
	movw	(%rax,%rcx,2), %ax
	movw	%ax, -24(%rbp)
	movq	-40(%rbp), %rax
	movl	-16(%rbp), %ecx
	movw	(%rax,%rcx,2), %ax
	movw	%ax, -22(%rbp)
	movzwl	-24(%rbp), %eax
	movzwl	-22(%rbp), %ecx
	cmpl	%ecx, %eax
	je	.LBB17_45
# %bb.44:                               # %if.then349
	movzwl	-24(%rbp), %eax
	movzwl	-22(%rbp), %ecx
	cmpl	%ecx, %eax
	setg	%al
	andb	$1, %al
	movzbl	%al, %eax
	movb	%al, -11(%rbp)
	jmp	.LBB17_64
.LBB17_45:                              # %if.end355
                                        #   in Loop: Header=BB17_25 Depth=1
	movl	-20(%rbp), %eax
	addl	$1, %eax
	movl	%eax, -20(%rbp)
	movl	-16(%rbp), %eax
	addl	$1, %eax
	movl	%eax, -16(%rbp)
	movq	-32(%rbp), %rax
	movl	-20(%rbp), %ecx
	movb	(%rax,%rcx), %al
	movb	%al, -9(%rbp)
	movq	-32(%rbp), %rax
	movl	-16(%rbp), %ecx
	movb	(%rax,%rcx), %al
	movb	%al, -10(%rbp)
	movzbl	-9(%rbp), %eax
	movzbl	-10(%rbp), %ecx
	cmpl	%ecx, %eax
	je	.LBB17_47
# %bb.46:                               # %if.then366
	movzbl	-9(%rbp), %eax
	movzbl	-10(%rbp), %ecx
	cmpl	%ecx, %eax
	setg	%al
	andb	$1, %al
	movzbl	%al, %eax
	movb	%al, -11(%rbp)
	jmp	.LBB17_64
.LBB17_47:                              # %if.end372
                                        #   in Loop: Header=BB17_25 Depth=1
	movq	-40(%rbp), %rax
	movl	-20(%rbp), %ecx
	movw	(%rax,%rcx,2), %ax
	movw	%ax, -24(%rbp)
	movq	-40(%rbp), %rax
	movl	-16(%rbp), %ecx
	movw	(%rax,%rcx,2), %ax
	movw	%ax, -22(%rbp)
	movzwl	-24(%rbp), %eax
	movzwl	-22(%rbp), %ecx
	cmpl	%ecx, %eax
	je	.LBB17_49
# %bb.48:                               # %if.then381
	movzwl	-24(%rbp), %eax
	movzwl	-22(%rbp), %ecx
	cmpl	%ecx, %eax
	setg	%al
	andb	$1, %al
	movzbl	%al, %eax
	movb	%al, -11(%rbp)
	jmp	.LBB17_64
.LBB17_49:                              # %if.end387
                                        #   in Loop: Header=BB17_25 Depth=1
	movl	-20(%rbp), %eax
	addl	$1, %eax
	movl	%eax, -20(%rbp)
	movl	-16(%rbp), %eax
	addl	$1, %eax
	movl	%eax, -16(%rbp)
	movq	-32(%rbp), %rax
	movl	-20(%rbp), %ecx
	movb	(%rax,%rcx), %al
	movb	%al, -9(%rbp)
	movq	-32(%rbp), %rax
	movl	-16(%rbp), %ecx
	movb	(%rax,%rcx), %al
	movb	%al, -10(%rbp)
	movzbl	-9(%rbp), %eax
	movzbl	-10(%rbp), %ecx
	cmpl	%ecx, %eax
	je	.LBB17_51
# %bb.50:                               # %if.then398
	movzbl	-9(%rbp), %eax
	movzbl	-10(%rbp), %ecx
	cmpl	%ecx, %eax
	setg	%al
	andb	$1, %al
	movzbl	%al, %eax
	movb	%al, -11(%rbp)
	jmp	.LBB17_64
.LBB17_51:                              # %if.end404
                                        #   in Loop: Header=BB17_25 Depth=1
	movq	-40(%rbp), %rax
	movl	-20(%rbp), %ecx
	movw	(%rax,%rcx,2), %ax
	movw	%ax, -24(%rbp)
	movq	-40(%rbp), %rax
	movl	-16(%rbp), %ecx
	movw	(%rax,%rcx,2), %ax
	movw	%ax, -22(%rbp)
	movzwl	-24(%rbp), %eax
	movzwl	-22(%rbp), %ecx
	cmpl	%ecx, %eax
	je	.LBB17_53
# %bb.52:                               # %if.then413
	movzwl	-24(%rbp), %eax
	movzwl	-22(%rbp), %ecx
	cmpl	%ecx, %eax
	setg	%al
	andb	$1, %al
	movzbl	%al, %eax
	movb	%al, -11(%rbp)
	jmp	.LBB17_64
.LBB17_53:                              # %if.end419
                                        #   in Loop: Header=BB17_25 Depth=1
	movl	-20(%rbp), %eax
	addl	$1, %eax
	movl	%eax, -20(%rbp)
	movl	-16(%rbp), %eax
	addl	$1, %eax
	movl	%eax, -16(%rbp)
	movq	-32(%rbp), %rax
	movl	-20(%rbp), %ecx
	movb	(%rax,%rcx), %al
	movb	%al, -9(%rbp)
	movq	-32(%rbp), %rax
	movl	-16(%rbp), %ecx
	movb	(%rax,%rcx), %al
	movb	%al, -10(%rbp)
	movzbl	-9(%rbp), %eax
	movzbl	-10(%rbp), %ecx
	cmpl	%ecx, %eax
	je	.LBB17_55
# %bb.54:                               # %if.then430
	movzbl	-9(%rbp), %eax
	movzbl	-10(%rbp), %ecx
	cmpl	%ecx, %eax
	setg	%al
	andb	$1, %al
	movzbl	%al, %eax
	movb	%al, -11(%rbp)
	jmp	.LBB17_64
.LBB17_55:                              # %if.end436
                                        #   in Loop: Header=BB17_25 Depth=1
	movq	-40(%rbp), %rax
	movl	-20(%rbp), %ecx
	movw	(%rax,%rcx,2), %ax
	movw	%ax, -24(%rbp)
	movq	-40(%rbp), %rax
	movl	-16(%rbp), %ecx
	movw	(%rax,%rcx,2), %ax
	movw	%ax, -22(%rbp)
	movzwl	-24(%rbp), %eax
	movzwl	-22(%rbp), %ecx
	cmpl	%ecx, %eax
	je	.LBB17_57
# %bb.56:                               # %if.then445
	movzwl	-24(%rbp), %eax
	movzwl	-22(%rbp), %ecx
	cmpl	%ecx, %eax
	setg	%al
	andb	$1, %al
	movzbl	%al, %eax
	movb	%al, -11(%rbp)
	jmp	.LBB17_64
.LBB17_57:                              # %if.end451
                                        #   in Loop: Header=BB17_25 Depth=1
	movl	-20(%rbp), %eax
	addl	$1, %eax
	movl	%eax, -20(%rbp)
	movl	-16(%rbp), %eax
	addl	$1, %eax
	movl	%eax, -16(%rbp)
	movl	-20(%rbp), %eax
	cmpl	-44(%rbp), %eax
	jb	.LBB17_59
# %bb.58:                               # %if.then456
                                        #   in Loop: Header=BB17_25 Depth=1
	movl	-44(%rbp), %eax
	movl	-20(%rbp), %ecx
	subl	%eax, %ecx
	movl	%ecx, -20(%rbp)
.LBB17_59:                              # %if.end457
                                        #   in Loop: Header=BB17_25 Depth=1
	movl	-16(%rbp), %eax
	cmpl	-44(%rbp), %eax
	jb	.LBB17_61
# %bb.60:                               # %if.then460
                                        #   in Loop: Header=BB17_25 Depth=1
	movl	-44(%rbp), %eax
	movl	-16(%rbp), %ecx
	subl	%eax, %ecx
	movl	%ecx, -16(%rbp)
.LBB17_61:                              # %if.end462
                                        #   in Loop: Header=BB17_25 Depth=1
	movl	-48(%rbp), %eax
	subl	$8, %eax
	movl	%eax, -48(%rbp)
	movq	-64(%rbp), %rax
	movl	(%rax), %ecx
	addl	$-1, %ecx
	movl	%ecx, (%rax)
# %bb.62:                               # %do.cond
                                        #   in Loop: Header=BB17_25 Depth=1
	cmpl	$0, -48(%rbp)
	jge	.LBB17_25
# %bb.63:                               # %do.end
	movb	$0, -11(%rbp)
.LBB17_64:                              # %return
	movb	-11(%rbp), %bl
	cmpl	$1933763554, -52(%rbp)  # imm = 0x7342E3E2
	jne	.LBB17_66
.LBB17_65:
	movzbl	%bl, %eax
	addq	$56, %rsp
	popq	%rbx
	popq	%rbp
	.cfi_def_cfa %rsp, 8
	retq
.LBB17_66:                              # %func_exit
	.cfi_def_cfa %rbp, 16
	callq	detect_breach
	jmp	.LBB17_65
.Lfunc_end17:
	.size	mainGtU.9, .Lfunc_end17-mainGtU.9
	.cfi_endproc
                                        # -- End function
	.p2align	4, 0x90         # -- Begin function mmed3.10
	.type	mmed3.10,@function
mmed3.10:                               # @mmed3.10
	.cfi_startproc
# %bb.0:                                # %entry
	pushq	%rbp
	.cfi_def_cfa_offset 16
	.cfi_offset %rbp, -16
	movq	%rsp, %rbp
	.cfi_def_cfa_register %rbp
	pushq	%rbx
	pushq	%rax
	.cfi_offset %rbx, -24
	movl	$1332018725, -16(%rbp)  # imm = 0x4F64FE25
	movb	%dil, -10(%rbp)
	movb	%sil, -9(%rbp)
	movb	%dl, -11(%rbp)
	movzbl	-10(%rbp), %eax
	movzbl	-9(%rbp), %ecx
	cmpl	%ecx, %eax
	jle	.LBB18_2
# %bb.1:                                # %if.then
	movb	-10(%rbp), %al
	movb	%al, -12(%rbp)
	movb	-9(%rbp), %al
	movb	%al, -10(%rbp)
	movb	-12(%rbp), %al
	movb	%al, -9(%rbp)
.LBB18_2:                               # %if.end
	movzbl	-9(%rbp), %eax
	movzbl	-11(%rbp), %ecx
	cmpl	%ecx, %eax
	jle	.LBB18_6
# %bb.3:                                # %if.then7
	movb	-11(%rbp), %al
	movb	%al, -9(%rbp)
	movzbl	-10(%rbp), %eax
	movzbl	-9(%rbp), %ecx
	cmpl	%ecx, %eax
	jle	.LBB18_5
# %bb.4:                                # %if.then12
	movb	-10(%rbp), %al
	movb	%al, -9(%rbp)
.LBB18_5:                               # %if.end13
	jmp	.LBB18_6
.LBB18_6:                               # %if.end14
	movb	-9(%rbp), %bl
	cmpl	$1332018725, -16(%rbp)  # imm = 0x4F64FE25
	jne	.LBB18_8
.LBB18_7:
	movzbl	%bl, %eax
	addq	$8, %rsp
	popq	%rbx
	popq	%rbp
	.cfi_def_cfa %rsp, 8
	retq
.LBB18_8:                               # %func_exit
	.cfi_def_cfa %rbp, 16
	callq	detect_breach
	jmp	.LBB18_7
.Lfunc_end18:
	.size	mmed3.10, .Lfunc_end18-mmed3.10
	.cfi_endproc
                                        # -- End function
	.p2align	4, 0x90         # -- Begin function fallbackSimpleSort.11
	.type	fallbackSimpleSort.11,@function
fallbackSimpleSort.11:                  # @fallbackSimpleSort.11
	.cfi_startproc
# %bb.0:                                # %entry
	pushq	%rbp
	.cfi_def_cfa_offset 16
	.cfi_offset %rbp, -16
	movq	%rsp, %rbp
	.cfi_def_cfa_register %rbp
	subq	$48, %rsp
	movl	$1769071324, -44(%rbp)  # imm = 0x6971E2DC
	movq	%rdi, -24(%rbp)
	movq	%rsi, -40(%rbp)
	movl	%edx, -28(%rbp)
	movl	%ecx, -12(%rbp)
	movl	-28(%rbp), %eax
	cmpl	-12(%rbp), %eax
	jne	.LBB19_2
# %bb.1:                                # %if.then
	jmp	.LBB19_25
.LBB19_2:                               # %if.end
	movl	-12(%rbp), %eax
	subl	-28(%rbp), %eax
	cmpl	$3, %eax
	jle	.LBB19_14
# %bb.3:                                # %if.then2
	movl	-12(%rbp), %eax
	subl	$4, %eax
	movl	%eax, -8(%rbp)
.LBB19_4:                               # %for.cond
                                        # =>This Loop Header: Depth=1
                                        #     Child Loop BB19_6 Depth 2
	movl	-8(%rbp), %eax
	cmpl	-28(%rbp), %eax
	jl	.LBB19_13
# %bb.5:                                # %for.body
                                        #   in Loop: Header=BB19_4 Depth=1
	movq	-24(%rbp), %rax
	movslq	-8(%rbp), %rcx
	movl	(%rax,%rcx,4), %eax
	movl	%eax, -16(%rbp)
	movq	-40(%rbp), %rax
	movslq	-16(%rbp), %rcx
	movl	(%rax,%rcx,4), %eax
	movl	%eax, -32(%rbp)
	movl	-8(%rbp), %eax
	addl	$4, %eax
	movl	%eax, -4(%rbp)
.LBB19_6:                               # %for.cond7
                                        #   Parent Loop BB19_4 Depth=1
                                        # =>  This Inner Loop Header: Depth=2
	xorl	%eax, %eax
	movl	-4(%rbp), %ecx
	cmpl	-12(%rbp), %ecx
	jg	.LBB19_8
# %bb.7:                                # %land.rhs
                                        #   in Loop: Header=BB19_6 Depth=2
	movl	-32(%rbp), %eax
	movq	-40(%rbp), %rcx
	movq	-24(%rbp), %rdx
	movslq	-4(%rbp), %rsi
	movl	(%rdx,%rsi,4), %edx
	cmpl	(%rcx,%rdx,4), %eax
	seta	%al
.LBB19_8:                               # %land.end
                                        #   in Loop: Header=BB19_6 Depth=2
	testb	$1, %al
	jne	.LBB19_9
	jmp	.LBB19_11
.LBB19_9:                               # %for.body14
                                        #   in Loop: Header=BB19_6 Depth=2
	movq	-24(%rbp), %rax
	movslq	-4(%rbp), %rcx
	movl	(%rax,%rcx,4), %eax
	movq	-24(%rbp), %rcx
	movl	-4(%rbp), %edx
	subl	$4, %edx
	movslq	%edx, %rdx
	movl	%eax, (%rcx,%rdx,4)
# %bb.10:                               # %for.inc
                                        #   in Loop: Header=BB19_6 Depth=2
	movl	-4(%rbp), %eax
	addl	$4, %eax
	movl	%eax, -4(%rbp)
	jmp	.LBB19_6
.LBB19_11:                              # %for.end
                                        #   in Loop: Header=BB19_4 Depth=1
	movl	-16(%rbp), %eax
	movq	-24(%rbp), %rcx
	movl	-4(%rbp), %edx
	subl	$4, %edx
	movslq	%edx, %rdx
	movl	%eax, (%rcx,%rdx,4)
# %bb.12:                               # %for.inc24
                                        #   in Loop: Header=BB19_4 Depth=1
	movl	-8(%rbp), %eax
	addl	$-1, %eax
	movl	%eax, -8(%rbp)
	jmp	.LBB19_4
.LBB19_13:                              # %for.end25
	jmp	.LBB19_14
.LBB19_14:                              # %if.end26
	movl	-12(%rbp), %eax
	subl	$1, %eax
	movl	%eax, -8(%rbp)
.LBB19_15:                              # %for.cond28
                                        # =>This Loop Header: Depth=1
                                        #     Child Loop BB19_17 Depth 2
	movl	-8(%rbp), %eax
	cmpl	-28(%rbp), %eax
	jl	.LBB19_24
# %bb.16:                               # %for.body30
                                        #   in Loop: Header=BB19_15 Depth=1
	movq	-24(%rbp), %rax
	movslq	-8(%rbp), %rcx
	movl	(%rax,%rcx,4), %eax
	movl	%eax, -16(%rbp)
	movq	-40(%rbp), %rax
	movslq	-16(%rbp), %rcx
	movl	(%rax,%rcx,4), %eax
	movl	%eax, -32(%rbp)
	movl	-8(%rbp), %eax
	addl	$1, %eax
	movl	%eax, -4(%rbp)
.LBB19_17:                              # %for.cond36
                                        #   Parent Loop BB19_15 Depth=1
                                        # =>  This Inner Loop Header: Depth=2
	xorl	%eax, %eax
	movl	-4(%rbp), %ecx
	cmpl	-12(%rbp), %ecx
	jg	.LBB19_19
# %bb.18:                               # %land.rhs38
                                        #   in Loop: Header=BB19_17 Depth=2
	movl	-32(%rbp), %eax
	movq	-40(%rbp), %rcx
	movq	-24(%rbp), %rdx
	movslq	-4(%rbp), %rsi
	movl	(%rdx,%rsi,4), %edx
	cmpl	(%rcx,%rdx,4), %eax
	seta	%al
.LBB19_19:                              # %land.end44
                                        #   in Loop: Header=BB19_17 Depth=2
	testb	$1, %al
	jne	.LBB19_20
	jmp	.LBB19_22
.LBB19_20:                              # %for.body45
                                        #   in Loop: Header=BB19_17 Depth=2
	movq	-24(%rbp), %rax
	movslq	-4(%rbp), %rcx
	movl	(%rax,%rcx,4), %eax
	movq	-24(%rbp), %rcx
	movl	-4(%rbp), %edx
	subl	$1, %edx
	movslq	%edx, %rdx
	movl	%eax, (%rcx,%rdx,4)
# %bb.21:                               # %for.inc51
                                        #   in Loop: Header=BB19_17 Depth=2
	movl	-4(%rbp), %eax
	addl	$1, %eax
	movl	%eax, -4(%rbp)
	jmp	.LBB19_17
.LBB19_22:                              # %for.end52
                                        #   in Loop: Header=BB19_15 Depth=1
	movl	-16(%rbp), %eax
	movq	-24(%rbp), %rcx
	movl	-4(%rbp), %edx
	subl	$1, %edx
	movslq	%edx, %rdx
	movl	%eax, (%rcx,%rdx,4)
# %bb.23:                               # %for.inc56
                                        #   in Loop: Header=BB19_15 Depth=1
	movl	-8(%rbp), %eax
	addl	$-1, %eax
	movl	%eax, -8(%rbp)
	jmp	.LBB19_15
.LBB19_24:                              # %for.end58.loopexit
	jmp	.LBB19_25
.LBB19_25:                              # %for.end58
	cmpl	$1769071324, -44(%rbp)  # imm = 0x6971E2DC
	jne	.LBB19_27
.LBB19_26:
	addq	$48, %rsp
	popq	%rbp
	.cfi_def_cfa %rsp, 8
	retq
.LBB19_27:                              # %func_exit
	.cfi_def_cfa %rbp, 16
	callq	detect_breach
	jmp	.LBB19_26
.Lfunc_end19:
	.size	fallbackSimpleSort.11, .Lfunc_end19-fallbackSimpleSort.11
	.cfi_endproc
                                        # -- End function
	.p2align	4, 0x90         # -- Begin function mainQSort3.12
	.type	mainQSort3.12,@function
mainQSort3.12:                          # @mainQSort3.12
	.cfi_startproc
# %bb.0:                                # %entry
	pushq	%rbp
	.cfi_def_cfa_offset 16
	.cfi_offset %rbp, -16
	movq	%rsp, %rbp
	.cfi_def_cfa_register %rbp
	subq	$1408, %rsp             # imm = 0x580
	movq	24(%rbp), %rax
	movl	16(%rbp), %eax
	movl	$2122468074, -172(%rbp) # imm = 0x7E824AEA
	movq	%rdi, -24(%rbp)
	movq	%rsi, -136(%rbp)
	movq	%rdx, -184(%rbp)
	movl	%ecx, -168(%rbp)
	movl	%r8d, -144(%rbp)
	movl	%r9d, -156(%rbp)
	movl	$0, -4(%rbp)
	movl	-144(%rbp), %eax
	movslq	-4(%rbp), %rcx
	movl	%eax, -992(%rbp,%rcx,4)
	movl	-156(%rbp), %eax
	movslq	-4(%rbp), %rcx
	movl	%eax, -592(%rbp,%rcx,4)
	movl	16(%rbp), %eax
	movslq	-4(%rbp), %rcx
	movl	%eax, -1392(%rbp,%rcx,4)
	movl	-4(%rbp), %eax
	addl	$1, %eax
	movl	%eax, -4(%rbp)
.LBB20_1:                               # %while.cond
                                        # =>This Loop Header: Depth=1
                                        #     Child Loop BB20_11 Depth 2
                                        #       Child Loop BB20_12 Depth 3
                                        #       Child Loop BB20_21 Depth 3
                                        #     Child Loop BB20_38 Depth 2
                                        #     Child Loop BB20_44 Depth 2
	cmpl	$0, -4(%rbp)
	jle	.LBB20_53
# %bb.2:                                # %while.body
                                        #   in Loop: Header=BB20_1 Depth=1
	cmpl	$100, -4(%rbp)
	jl	.LBB20_4
# %bb.3:                                # %if.then
                                        #   in Loop: Header=BB20_1 Depth=1
	movl	$1001, %edi             # imm = 0x3E9
	callq	BZ2_bz__AssertH__fail
.LBB20_4:                               # %if.end
                                        #   in Loop: Header=BB20_1 Depth=1
	movl	-4(%rbp), %eax
	addl	$-1, %eax
	movl	%eax, -4(%rbp)
	movslq	-4(%rbp), %rax
	movl	-992(%rbp,%rax,4), %eax
	movl	%eax, -40(%rbp)
	movslq	-4(%rbp), %rax
	movl	-592(%rbp,%rax,4), %eax
	movl	%eax, -32(%rbp)
	movslq	-4(%rbp), %rax
	movl	-1392(%rbp,%rax,4), %eax
	movl	%eax, -36(%rbp)
	movl	-32(%rbp), %eax
	subl	-40(%rbp), %eax
	cmpl	$20, %eax
	jl	.LBB20_6
# %bb.5:                                # %lor.lhs.false
                                        #   in Loop: Header=BB20_1 Depth=1
	cmpl	$14, -36(%rbp)
	jle	.LBB20_10
.LBB20_6:                               # %if.then14
                                        #   in Loop: Header=BB20_1 Depth=1
	movq	-24(%rbp), %rdi
	movq	-136(%rbp), %rsi
	movq	-184(%rbp), %rdx
	movl	-168(%rbp), %ecx
	movl	-40(%rbp), %r8d
	movl	-32(%rbp), %r9d
	movl	-36(%rbp), %eax
	movq	24(%rbp), %r10
	movl	%eax, (%rsp)
	movq	%r10, 8(%rsp)
	callq	mainSimpleSort
	movq	24(%rbp), %rax
	cmpl	$0, (%rax)
	jge	.LBB20_8
# %bb.7:                                # %if.then16
	jmp	.LBB20_54
.LBB20_8:                               # %if.end17
                                        #   in Loop: Header=BB20_1 Depth=1
	jmp	.LBB20_9
.LBB20_9:                               # %while.cond.backedge
                                        #   in Loop: Header=BB20_1 Depth=1
	jmp	.LBB20_1
.LBB20_10:                              # %if.end18
                                        #   in Loop: Header=BB20_1 Depth=1
	movq	-136(%rbp), %rax
	movq	-24(%rbp), %rcx
	movslq	-40(%rbp), %rdx
	movl	(%rcx,%rdx,4), %ecx
	addl	-36(%rbp), %ecx
	movl	%ecx, %ecx
	movb	(%rax,%rcx), %r8b
	movq	-136(%rbp), %rcx
	movq	-24(%rbp), %rdx
	movslq	-32(%rbp), %rsi
	movl	(%rdx,%rsi,4), %edx
	addl	-36(%rbp), %edx
	movl	%edx, %edx
	movb	(%rcx,%rdx), %cl
	movq	-136(%rbp), %rdx
	movq	-24(%rbp), %rsi
	movl	-40(%rbp), %edi
	addl	-32(%rbp), %edi
	sarl	$1, %edi
	movslq	%edi, %rdi
	movl	(%rsi,%rdi,4), %esi
	addl	-36(%rbp), %esi
	movl	%esi, %eax
	movzbl	%r8b, %edi
	movzbl	%cl, %esi
	movzbl	(%rdx,%rax), %edx
	callq	mmed3
	movzbl	%al, %eax
	movl	%eax, -140(%rbp)
	movl	-40(%rbp), %eax
	movl	%eax, -48(%rbp)
	movl	%eax, -8(%rbp)
	movl	-32(%rbp), %eax
	movl	%eax, -44(%rbp)
	movl	%eax, -12(%rbp)
.LBB20_11:                              # %while.body35
                                        #   Parent Loop BB20_1 Depth=1
                                        # =>  This Loop Header: Depth=2
                                        #       Child Loop BB20_12 Depth 3
                                        #       Child Loop BB20_21 Depth 3
	jmp	.LBB20_12
.LBB20_12:                              # %while.body37
                                        #   Parent Loop BB20_1 Depth=1
                                        #     Parent Loop BB20_11 Depth=2
                                        # =>    This Inner Loop Header: Depth=3
	movl	-8(%rbp), %eax
	cmpl	-12(%rbp), %eax
	jle	.LBB20_14
# %bb.13:                               # %if.then40
                                        #   in Loop: Header=BB20_11 Depth=2
	jmp	.LBB20_20
.LBB20_14:                              # %if.end41
                                        #   in Loop: Header=BB20_12 Depth=3
	movq	-136(%rbp), %rax
	movq	-24(%rbp), %rcx
	movslq	-8(%rbp), %rdx
	movl	(%rcx,%rdx,4), %ecx
	addl	-36(%rbp), %ecx
	movl	%ecx, %ecx
	movzbl	(%rax,%rcx), %eax
	subl	-140(%rbp), %eax
	movl	%eax, -28(%rbp)
	cmpl	$0, -28(%rbp)
	jne	.LBB20_17
# %bb.15:                               # %if.then51
                                        #   in Loop: Header=BB20_12 Depth=3
	movq	-24(%rbp), %rax
	movslq	-8(%rbp), %rcx
	movl	(%rax,%rcx,4), %eax
	movl	%eax, -176(%rbp)
	movq	-24(%rbp), %rax
	movslq	-48(%rbp), %rcx
	movl	(%rax,%rcx,4), %eax
	movq	-24(%rbp), %rcx
	movslq	-8(%rbp), %rdx
	movl	%eax, (%rcx,%rdx,4)
	movl	-176(%rbp), %eax
	movq	-24(%rbp), %rcx
	movslq	-48(%rbp), %rdx
	movl	%eax, (%rcx,%rdx,4)
	movl	-48(%rbp), %eax
	addl	$1, %eax
	movl	%eax, -48(%rbp)
	movl	-8(%rbp), %eax
	addl	$1, %eax
	movl	%eax, -8(%rbp)
.LBB20_16:                              # %while.body37.backedge
                                        #   in Loop: Header=BB20_12 Depth=3
	jmp	.LBB20_12
.LBB20_17:                              # %if.end62
                                        #   in Loop: Header=BB20_12 Depth=3
	cmpl	$0, -28(%rbp)
	jle	.LBB20_19
# %bb.18:                               # %if.then65
                                        #   in Loop: Header=BB20_11 Depth=2
	jmp	.LBB20_20
.LBB20_19:                              # %if.end66
                                        #   in Loop: Header=BB20_12 Depth=3
	movl	-8(%rbp), %eax
	addl	$1, %eax
	movl	%eax, -8(%rbp)
	jmp	.LBB20_16
.LBB20_20:                              # %while.end
                                        #   in Loop: Header=BB20_11 Depth=2
	jmp	.LBB20_21
.LBB20_21:                              # %while.body69
                                        #   Parent Loop BB20_1 Depth=1
                                        #     Parent Loop BB20_11 Depth=2
                                        # =>    This Inner Loop Header: Depth=3
	movl	-8(%rbp), %eax
	cmpl	-12(%rbp), %eax
	jle	.LBB20_23
# %bb.22:                               # %if.then72
                                        #   in Loop: Header=BB20_11 Depth=2
	jmp	.LBB20_29
.LBB20_23:                              # %if.end73
                                        #   in Loop: Header=BB20_21 Depth=3
	movq	-136(%rbp), %rax
	movq	-24(%rbp), %rcx
	movslq	-12(%rbp), %rdx
	movl	(%rcx,%rdx,4), %ecx
	addl	-36(%rbp), %ecx
	movl	%ecx, %ecx
	movzbl	(%rax,%rcx), %eax
	subl	-140(%rbp), %eax
	movl	%eax, -28(%rbp)
	cmpl	$0, -28(%rbp)
	jne	.LBB20_26
# %bb.24:                               # %if.then83
                                        #   in Loop: Header=BB20_21 Depth=3
	movq	-24(%rbp), %rax
	movslq	-12(%rbp), %rcx
	movl	(%rax,%rcx,4), %eax
	movl	%eax, -164(%rbp)
	movq	-24(%rbp), %rax
	movslq	-44(%rbp), %rcx
	movl	(%rax,%rcx,4), %eax
	movq	-24(%rbp), %rcx
	movslq	-12(%rbp), %rdx
	movl	%eax, (%rcx,%rdx,4)
	movl	-164(%rbp), %eax
	movq	-24(%rbp), %rcx
	movslq	-44(%rbp), %rdx
	movl	%eax, (%rcx,%rdx,4)
	movl	-44(%rbp), %eax
	addl	$-1, %eax
	movl	%eax, -44(%rbp)
	movl	-12(%rbp), %eax
	addl	$-1, %eax
	movl	%eax, -12(%rbp)
.LBB20_25:                              # %while.body69.backedge
                                        #   in Loop: Header=BB20_21 Depth=3
	jmp	.LBB20_21
.LBB20_26:                              # %if.end95
                                        #   in Loop: Header=BB20_21 Depth=3
	cmpl	$0, -28(%rbp)
	jge	.LBB20_28
# %bb.27:                               # %if.then98
                                        #   in Loop: Header=BB20_11 Depth=2
	jmp	.LBB20_29
.LBB20_28:                              # %if.end99
                                        #   in Loop: Header=BB20_21 Depth=3
	movl	-12(%rbp), %eax
	addl	$-1, %eax
	movl	%eax, -12(%rbp)
	jmp	.LBB20_25
.LBB20_29:                              # %while.end101
                                        #   in Loop: Header=BB20_11 Depth=2
	movl	-8(%rbp), %eax
	cmpl	-12(%rbp), %eax
	jle	.LBB20_31
# %bb.30:                               # %if.then104
                                        #   in Loop: Header=BB20_1 Depth=1
	jmp	.LBB20_32
.LBB20_31:                              # %if.end105
                                        #   in Loop: Header=BB20_11 Depth=2
	movq	-24(%rbp), %rax
	movslq	-8(%rbp), %rcx
	movl	(%rax,%rcx,4), %eax
	movl	%eax, -152(%rbp)
	movq	-24(%rbp), %rax
	movslq	-12(%rbp), %rcx
	movl	(%rax,%rcx,4), %eax
	movq	-24(%rbp), %rcx
	movslq	-8(%rbp), %rdx
	movl	%eax, (%rcx,%rdx,4)
	movl	-152(%rbp), %eax
	movq	-24(%rbp), %rcx
	movslq	-12(%rbp), %rdx
	movl	%eax, (%rcx,%rdx,4)
	movl	-8(%rbp), %eax
	addl	$1, %eax
	movl	%eax, -8(%rbp)
	movl	-12(%rbp), %eax
	addl	$-1, %eax
	movl	%eax, -12(%rbp)
	jmp	.LBB20_11
.LBB20_32:                              # %while.end117
                                        #   in Loop: Header=BB20_1 Depth=1
	movl	-44(%rbp), %eax
	cmpl	-48(%rbp), %eax
	jge	.LBB20_34
# %bb.33:                               # %if.then120
                                        #   in Loop: Header=BB20_1 Depth=1
	movl	-40(%rbp), %eax
	movslq	-4(%rbp), %rcx
	movl	%eax, -992(%rbp,%rcx,4)
	movl	-32(%rbp), %eax
	movslq	-4(%rbp), %rcx
	movl	%eax, -592(%rbp,%rcx,4)
	movl	-36(%rbp), %eax
	addl	$1, %eax
	movslq	-4(%rbp), %rcx
	movl	%eax, -1392(%rbp,%rcx,4)
	movl	-4(%rbp), %eax
	addl	$1, %eax
	movl	%eax, -4(%rbp)
	jmp	.LBB20_9
.LBB20_34:                              # %if.end129
                                        #   in Loop: Header=BB20_1 Depth=1
	movl	-48(%rbp), %eax
	subl	-40(%rbp), %eax
	movl	-8(%rbp), %ecx
	subl	-48(%rbp), %ecx
	cmpl	%ecx, %eax
	jge	.LBB20_36
# %bb.35:                               # %cond.true
                                        #   in Loop: Header=BB20_1 Depth=1
	movl	-48(%rbp), %eax
	subl	-40(%rbp), %eax
	jmp	.LBB20_37
.LBB20_36:                              # %cond.false
                                        #   in Loop: Header=BB20_1 Depth=1
	movl	-8(%rbp), %eax
	subl	-48(%rbp), %eax
.LBB20_37:                              # %cond.end
                                        #   in Loop: Header=BB20_1 Depth=1
	movl	%eax, -28(%rbp)
	movl	-40(%rbp), %eax
	movl	%eax, -112(%rbp)
	movl	-8(%rbp), %eax
	subl	-28(%rbp), %eax
	movl	%eax, -104(%rbp)
	movl	-28(%rbp), %eax
	movl	%eax, -120(%rbp)
.LBB20_38:                              # %while.cond137
                                        #   Parent Loop BB20_1 Depth=1
                                        # =>  This Inner Loop Header: Depth=2
	cmpl	$0, -120(%rbp)
	jle	.LBB20_40
# %bb.39:                               # %while.body140
                                        #   in Loop: Header=BB20_38 Depth=2
	movq	-24(%rbp), %rax
	movslq	-112(%rbp), %rcx
	movl	(%rax,%rcx,4), %eax
	movl	%eax, -148(%rbp)
	movq	-24(%rbp), %rax
	movslq	-104(%rbp), %rcx
	movl	(%rax,%rcx,4), %eax
	movq	-24(%rbp), %rcx
	movslq	-112(%rbp), %rdx
	movl	%eax, (%rcx,%rdx,4)
	movl	-148(%rbp), %eax
	movq	-24(%rbp), %rcx
	movslq	-104(%rbp), %rdx
	movl	%eax, (%rcx,%rdx,4)
	movl	-112(%rbp), %eax
	addl	$1, %eax
	movl	%eax, -112(%rbp)
	movl	-104(%rbp), %eax
	addl	$1, %eax
	movl	%eax, -104(%rbp)
	movl	-120(%rbp), %eax
	addl	$-1, %eax
	movl	%eax, -120(%rbp)
	jmp	.LBB20_38
.LBB20_40:                              # %while.end153
                                        #   in Loop: Header=BB20_1 Depth=1
	movl	-32(%rbp), %eax
	subl	-44(%rbp), %eax
	movl	-44(%rbp), %ecx
	subl	-12(%rbp), %ecx
	cmpl	%ecx, %eax
	jge	.LBB20_42
# %bb.41:                               # %cond.true158
                                        #   in Loop: Header=BB20_1 Depth=1
	movl	-32(%rbp), %eax
	subl	-44(%rbp), %eax
	jmp	.LBB20_43
.LBB20_42:                              # %cond.false160
                                        #   in Loop: Header=BB20_1 Depth=1
	movl	-44(%rbp), %eax
	subl	-12(%rbp), %eax
.LBB20_43:                              # %cond.end162
                                        #   in Loop: Header=BB20_1 Depth=1
	movl	%eax, -76(%rbp)
	movl	-8(%rbp), %eax
	movl	%eax, -116(%rbp)
	movl	-32(%rbp), %eax
	subl	-76(%rbp), %eax
	addl	$1, %eax
	movl	%eax, -108(%rbp)
	movl	-76(%rbp), %eax
	movl	%eax, -124(%rbp)
.LBB20_44:                              # %while.cond169
                                        #   Parent Loop BB20_1 Depth=1
                                        # =>  This Inner Loop Header: Depth=2
	cmpl	$0, -124(%rbp)
	jle	.LBB20_46
# %bb.45:                               # %while.body172
                                        #   in Loop: Header=BB20_44 Depth=2
	movq	-24(%rbp), %rax
	movslq	-116(%rbp), %rcx
	movl	(%rax,%rcx,4), %eax
	movl	%eax, -160(%rbp)
	movq	-24(%rbp), %rax
	movslq	-108(%rbp), %rcx
	movl	(%rax,%rcx,4), %eax
	movq	-24(%rbp), %rcx
	movslq	-116(%rbp), %rdx
	movl	%eax, (%rcx,%rdx,4)
	movl	-160(%rbp), %eax
	movq	-24(%rbp), %rcx
	movslq	-108(%rbp), %rdx
	movl	%eax, (%rcx,%rdx,4)
	movl	-116(%rbp), %eax
	addl	$1, %eax
	movl	%eax, -116(%rbp)
	movl	-108(%rbp), %eax
	addl	$1, %eax
	movl	%eax, -108(%rbp)
	movl	-124(%rbp), %eax
	addl	$-1, %eax
	movl	%eax, -124(%rbp)
	jmp	.LBB20_44
.LBB20_46:                              # %while.end185
                                        #   in Loop: Header=BB20_1 Depth=1
	movl	-40(%rbp), %eax
	addl	-8(%rbp), %eax
	subl	-48(%rbp), %eax
	subl	$1, %eax
	movl	%eax, -28(%rbp)
	movl	-32(%rbp), %eax
	movl	-44(%rbp), %ecx
	subl	-12(%rbp), %ecx
	subl	%ecx, %eax
	addl	$1, %eax
	movl	%eax, -76(%rbp)
	movl	-40(%rbp), %eax
	movl	%eax, -72(%rbp)
	movl	-28(%rbp), %eax
	movl	%eax, -60(%rbp)
	movl	-36(%rbp), %eax
	movl	%eax, -96(%rbp)
	movl	-76(%rbp), %eax
	movl	%eax, -68(%rbp)
	movl	-32(%rbp), %eax
	movl	%eax, -56(%rbp)
	movl	-36(%rbp), %eax
	movl	%eax, -92(%rbp)
	movl	-28(%rbp), %eax
	addl	$1, %eax
	movl	%eax, -64(%rbp)
	movl	-76(%rbp), %eax
	subl	$1, %eax
	movl	%eax, -52(%rbp)
	movl	-36(%rbp), %eax
	addl	$1, %eax
	movl	%eax, -88(%rbp)
	movl	-60(%rbp), %eax
	subl	-72(%rbp), %eax
	movl	-56(%rbp), %ecx
	subl	-68(%rbp), %ecx
	cmpl	%ecx, %eax
	jge	.LBB20_48
# %bb.47:                               # %if.then212
                                        #   in Loop: Header=BB20_1 Depth=1
	movl	-72(%rbp), %eax
	movl	%eax, -100(%rbp)
	movl	-68(%rbp), %eax
	movl	%eax, -72(%rbp)
	movl	-100(%rbp), %eax
	movl	%eax, -68(%rbp)
	movl	-60(%rbp), %eax
	movl	%eax, -100(%rbp)
	movl	-56(%rbp), %eax
	movl	%eax, -60(%rbp)
	movl	-100(%rbp), %eax
	movl	%eax, -56(%rbp)
	movl	-96(%rbp), %eax
	movl	%eax, -100(%rbp)
	movl	-92(%rbp), %eax
	movl	%eax, -96(%rbp)
	movl	-100(%rbp), %eax
	movl	%eax, -92(%rbp)
.LBB20_48:                              # %if.end225
                                        #   in Loop: Header=BB20_1 Depth=1
	movl	-56(%rbp), %eax
	subl	-68(%rbp), %eax
	movl	-52(%rbp), %ecx
	subl	-64(%rbp), %ecx
	cmpl	%ecx, %eax
	jge	.LBB20_50
# %bb.49:                               # %if.then234
                                        #   in Loop: Header=BB20_1 Depth=1
	movl	-68(%rbp), %eax
	movl	%eax, -84(%rbp)
	movl	-64(%rbp), %eax
	movl	%eax, -68(%rbp)
	movl	-84(%rbp), %eax
	movl	%eax, -64(%rbp)
	movl	-56(%rbp), %eax
	movl	%eax, -84(%rbp)
	movl	-52(%rbp), %eax
	movl	%eax, -56(%rbp)
	movl	-84(%rbp), %eax
	movl	%eax, -52(%rbp)
	movl	-92(%rbp), %eax
	movl	%eax, -84(%rbp)
	movl	-88(%rbp), %eax
	movl	%eax, -92(%rbp)
	movl	-84(%rbp), %eax
	movl	%eax, -88(%rbp)
.LBB20_50:                              # %if.end248
                                        #   in Loop: Header=BB20_1 Depth=1
	movl	-60(%rbp), %eax
	subl	-72(%rbp), %eax
	movl	-56(%rbp), %ecx
	subl	-68(%rbp), %ecx
	cmpl	%ecx, %eax
	jge	.LBB20_52
# %bb.51:                               # %if.then257
                                        #   in Loop: Header=BB20_1 Depth=1
	movl	-72(%rbp), %eax
	movl	%eax, -80(%rbp)
	movl	-68(%rbp), %eax
	movl	%eax, -72(%rbp)
	movl	-80(%rbp), %eax
	movl	%eax, -68(%rbp)
	movl	-60(%rbp), %eax
	movl	%eax, -80(%rbp)
	movl	-56(%rbp), %eax
	movl	%eax, -60(%rbp)
	movl	-80(%rbp), %eax
	movl	%eax, -56(%rbp)
	movl	-96(%rbp), %eax
	movl	%eax, -80(%rbp)
	movl	-92(%rbp), %eax
	movl	%eax, -96(%rbp)
	movl	-80(%rbp), %eax
	movl	%eax, -92(%rbp)
.LBB20_52:                              # %if.end271
                                        #   in Loop: Header=BB20_1 Depth=1
	movl	-72(%rbp), %eax
	movslq	-4(%rbp), %rcx
	movl	%eax, -992(%rbp,%rcx,4)
	movl	-60(%rbp), %eax
	movslq	-4(%rbp), %rcx
	movl	%eax, -592(%rbp,%rcx,4)
	movl	-96(%rbp), %eax
	movslq	-4(%rbp), %rcx
	movl	%eax, -1392(%rbp,%rcx,4)
	movl	-4(%rbp), %eax
	addl	$1, %eax
	movl	%eax, -4(%rbp)
	movl	-68(%rbp), %eax
	movslq	-4(%rbp), %rcx
	movl	%eax, -992(%rbp,%rcx,4)
	movl	-56(%rbp), %eax
	movslq	-4(%rbp), %rcx
	movl	%eax, -592(%rbp,%rcx,4)
	movl	-92(%rbp), %eax
	movslq	-4(%rbp), %rcx
	movl	%eax, -1392(%rbp,%rcx,4)
	movl	-4(%rbp), %eax
	addl	$1, %eax
	movl	%eax, -4(%rbp)
	movl	-64(%rbp), %eax
	movslq	-4(%rbp), %rcx
	movl	%eax, -992(%rbp,%rcx,4)
	movl	-52(%rbp), %eax
	movslq	-4(%rbp), %rcx
	movl	%eax, -592(%rbp,%rcx,4)
	movl	-88(%rbp), %eax
	movslq	-4(%rbp), %rcx
	movl	%eax, -1392(%rbp,%rcx,4)
	movl	-4(%rbp), %eax
	addl	$1, %eax
	movl	%eax, -4(%rbp)
	jmp	.LBB20_9
.LBB20_53:                              # %while.end302.loopexit
	jmp	.LBB20_54
.LBB20_54:                              # %while.end302
	cmpl	$2122468074, -172(%rbp) # imm = 0x7E824AEA
	jne	.LBB20_56
.LBB20_55:
	addq	$1408, %rsp             # imm = 0x580
	popq	%rbp
	.cfi_def_cfa %rsp, 8
	retq
.LBB20_56:                              # %func_exit
	.cfi_def_cfa %rbp, 16
	callq	detect_breach
	jmp	.LBB20_55
.Lfunc_end20:
	.size	mainQSort3.12, .Lfunc_end20-mainQSort3.12
	.cfi_endproc
                                        # -- End function
	.p2align	4, 0x90         # -- Begin function mmed3.13
	.type	mmed3.13,@function
mmed3.13:                               # @mmed3.13
	.cfi_startproc
# %bb.0:                                # %entry
	pushq	%rbp
	.cfi_def_cfa_offset 16
	.cfi_offset %rbp, -16
	movq	%rsp, %rbp
	.cfi_def_cfa_register %rbp
	pushq	%rbx
	pushq	%rax
	.cfi_offset %rbx, -24
	movl	$145209788, -16(%rbp)   # imm = 0x8A7B9BC
	movb	%dil, -10(%rbp)
	movb	%sil, -9(%rbp)
	movb	%dl, -11(%rbp)
	movzbl	-10(%rbp), %eax
	movzbl	-9(%rbp), %ecx
	cmpl	%ecx, %eax
	jle	.LBB21_2
# %bb.1:                                # %if.then
	movb	-10(%rbp), %al
	movb	%al, -12(%rbp)
	movb	-9(%rbp), %al
	movb	%al, -10(%rbp)
	movb	-12(%rbp), %al
	movb	%al, -9(%rbp)
.LBB21_2:                               # %if.end
	movzbl	-9(%rbp), %eax
	movzbl	-11(%rbp), %ecx
	cmpl	%ecx, %eax
	jle	.LBB21_6
# %bb.3:                                # %if.then7
	movb	-11(%rbp), %al
	movb	%al, -9(%rbp)
	movzbl	-10(%rbp), %eax
	movzbl	-9(%rbp), %ecx
	cmpl	%ecx, %eax
	jle	.LBB21_5
# %bb.4:                                # %if.then12
	movb	-10(%rbp), %al
	movb	%al, -9(%rbp)
.LBB21_5:                               # %if.end13
	jmp	.LBB21_6
.LBB21_6:                               # %if.end14
	movb	-9(%rbp), %bl
	cmpl	$145209788, -16(%rbp)   # imm = 0x8A7B9BC
	jne	.LBB21_8
.LBB21_7:
	movzbl	%bl, %eax
	addq	$8, %rsp
	popq	%rbx
	popq	%rbp
	.cfi_def_cfa %rsp, 8
	retq
.LBB21_8:                               # %func_exit
	.cfi_def_cfa %rbp, 16
	callq	detect_breach
	jmp	.LBB21_7
.Lfunc_end21:
	.size	mmed3.13, .Lfunc_end21-mmed3.13
	.cfi_endproc
                                        # -- End function
	.p2align	4, 0x90         # -- Begin function fallbackSimpleSort.14
	.type	fallbackSimpleSort.14,@function
fallbackSimpleSort.14:                  # @fallbackSimpleSort.14
	.cfi_startproc
# %bb.0:                                # %entry
	pushq	%rbp
	.cfi_def_cfa_offset 16
	.cfi_offset %rbp, -16
	movq	%rsp, %rbp
	.cfi_def_cfa_register %rbp
	subq	$48, %rsp
	movl	$127388649, -44(%rbp)   # imm = 0x797CBE9
	movq	%rdi, -24(%rbp)
	movq	%rsi, -40(%rbp)
	movl	%edx, -28(%rbp)
	movl	%ecx, -12(%rbp)
	movl	-28(%rbp), %eax
	cmpl	-12(%rbp), %eax
	jne	.LBB22_2
# %bb.1:                                # %if.then
	jmp	.LBB22_25
.LBB22_2:                               # %if.end
	movl	-12(%rbp), %eax
	subl	-28(%rbp), %eax
	cmpl	$3, %eax
	jle	.LBB22_14
# %bb.3:                                # %if.then2
	movl	-12(%rbp), %eax
	subl	$4, %eax
	movl	%eax, -8(%rbp)
.LBB22_4:                               # %for.cond
                                        # =>This Loop Header: Depth=1
                                        #     Child Loop BB22_6 Depth 2
	movl	-8(%rbp), %eax
	cmpl	-28(%rbp), %eax
	jl	.LBB22_13
# %bb.5:                                # %for.body
                                        #   in Loop: Header=BB22_4 Depth=1
	movq	-24(%rbp), %rax
	movslq	-8(%rbp), %rcx
	movl	(%rax,%rcx,4), %eax
	movl	%eax, -16(%rbp)
	movq	-40(%rbp), %rax
	movslq	-16(%rbp), %rcx
	movl	(%rax,%rcx,4), %eax
	movl	%eax, -32(%rbp)
	movl	-8(%rbp), %eax
	addl	$4, %eax
	movl	%eax, -4(%rbp)
.LBB22_6:                               # %for.cond7
                                        #   Parent Loop BB22_4 Depth=1
                                        # =>  This Inner Loop Header: Depth=2
	xorl	%eax, %eax
	movl	-4(%rbp), %ecx
	cmpl	-12(%rbp), %ecx
	jg	.LBB22_8
# %bb.7:                                # %land.rhs
                                        #   in Loop: Header=BB22_6 Depth=2
	movl	-32(%rbp), %eax
	movq	-40(%rbp), %rcx
	movq	-24(%rbp), %rdx
	movslq	-4(%rbp), %rsi
	movl	(%rdx,%rsi,4), %edx
	cmpl	(%rcx,%rdx,4), %eax
	seta	%al
.LBB22_8:                               # %land.end
                                        #   in Loop: Header=BB22_6 Depth=2
	testb	$1, %al
	jne	.LBB22_9
	jmp	.LBB22_11
.LBB22_9:                               # %for.body14
                                        #   in Loop: Header=BB22_6 Depth=2
	movq	-24(%rbp), %rax
	movslq	-4(%rbp), %rcx
	movl	(%rax,%rcx,4), %eax
	movq	-24(%rbp), %rcx
	movl	-4(%rbp), %edx
	subl	$4, %edx
	movslq	%edx, %rdx
	movl	%eax, (%rcx,%rdx,4)
# %bb.10:                               # %for.inc
                                        #   in Loop: Header=BB22_6 Depth=2
	movl	-4(%rbp), %eax
	addl	$4, %eax
	movl	%eax, -4(%rbp)
	jmp	.LBB22_6
.LBB22_11:                              # %for.end
                                        #   in Loop: Header=BB22_4 Depth=1
	movl	-16(%rbp), %eax
	movq	-24(%rbp), %rcx
	movl	-4(%rbp), %edx
	subl	$4, %edx
	movslq	%edx, %rdx
	movl	%eax, (%rcx,%rdx,4)
# %bb.12:                               # %for.inc24
                                        #   in Loop: Header=BB22_4 Depth=1
	movl	-8(%rbp), %eax
	addl	$-1, %eax
	movl	%eax, -8(%rbp)
	jmp	.LBB22_4
.LBB22_13:                              # %for.end25
	jmp	.LBB22_14
.LBB22_14:                              # %if.end26
	movl	-12(%rbp), %eax
	subl	$1, %eax
	movl	%eax, -8(%rbp)
.LBB22_15:                              # %for.cond28
                                        # =>This Loop Header: Depth=1
                                        #     Child Loop BB22_17 Depth 2
	movl	-8(%rbp), %eax
	cmpl	-28(%rbp), %eax
	jl	.LBB22_24
# %bb.16:                               # %for.body30
                                        #   in Loop: Header=BB22_15 Depth=1
	movq	-24(%rbp), %rax
	movslq	-8(%rbp), %rcx
	movl	(%rax,%rcx,4), %eax
	movl	%eax, -16(%rbp)
	movq	-40(%rbp), %rax
	movslq	-16(%rbp), %rcx
	movl	(%rax,%rcx,4), %eax
	movl	%eax, -32(%rbp)
	movl	-8(%rbp), %eax
	addl	$1, %eax
	movl	%eax, -4(%rbp)
.LBB22_17:                              # %for.cond36
                                        #   Parent Loop BB22_15 Depth=1
                                        # =>  This Inner Loop Header: Depth=2
	xorl	%eax, %eax
	movl	-4(%rbp), %ecx
	cmpl	-12(%rbp), %ecx
	jg	.LBB22_19
# %bb.18:                               # %land.rhs38
                                        #   in Loop: Header=BB22_17 Depth=2
	movl	-32(%rbp), %eax
	movq	-40(%rbp), %rcx
	movq	-24(%rbp), %rdx
	movslq	-4(%rbp), %rsi
	movl	(%rdx,%rsi,4), %edx
	cmpl	(%rcx,%rdx,4), %eax
	seta	%al
.LBB22_19:                              # %land.end44
                                        #   in Loop: Header=BB22_17 Depth=2
	testb	$1, %al
	jne	.LBB22_20
	jmp	.LBB22_22
.LBB22_20:                              # %for.body45
                                        #   in Loop: Header=BB22_17 Depth=2
	movq	-24(%rbp), %rax
	movslq	-4(%rbp), %rcx
	movl	(%rax,%rcx,4), %eax
	movq	-24(%rbp), %rcx
	movl	-4(%rbp), %edx
	subl	$1, %edx
	movslq	%edx, %rdx
	movl	%eax, (%rcx,%rdx,4)
# %bb.21:                               # %for.inc51
                                        #   in Loop: Header=BB22_17 Depth=2
	movl	-4(%rbp), %eax
	addl	$1, %eax
	movl	%eax, -4(%rbp)
	jmp	.LBB22_17
.LBB22_22:                              # %for.end52
                                        #   in Loop: Header=BB22_15 Depth=1
	movl	-16(%rbp), %eax
	movq	-24(%rbp), %rcx
	movl	-4(%rbp), %edx
	subl	$1, %edx
	movslq	%edx, %rdx
	movl	%eax, (%rcx,%rdx,4)
# %bb.23:                               # %for.inc56
                                        #   in Loop: Header=BB22_15 Depth=1
	movl	-8(%rbp), %eax
	addl	$-1, %eax
	movl	%eax, -8(%rbp)
	jmp	.LBB22_15
.LBB22_24:                              # %for.end58.loopexit
	jmp	.LBB22_25
.LBB22_25:                              # %for.end58
	cmpl	$127388649, -44(%rbp)   # imm = 0x797CBE9
	jne	.LBB22_27
.LBB22_26:
	addq	$48, %rsp
	popq	%rbp
	.cfi_def_cfa %rsp, 8
	retq
.LBB22_27:                              # %func_exit
	.cfi_def_cfa %rbp, 16
	callq	detect_breach
	jmp	.LBB22_26
.Lfunc_end22:
	.size	fallbackSimpleSort.14, .Lfunc_end22-fallbackSimpleSort.14
	.cfi_endproc
                                        # -- End function
	.p2align	4, 0x90         # -- Begin function mmed3.15
	.type	mmed3.15,@function
mmed3.15:                               # @mmed3.15
	.cfi_startproc
# %bb.0:                                # %entry
	pushq	%rbp
	.cfi_def_cfa_offset 16
	.cfi_offset %rbp, -16
	movq	%rsp, %rbp
	.cfi_def_cfa_register %rbp
	pushq	%rbx
	pushq	%rax
	.cfi_offset %rbx, -24
	movl	$318340680, -16(%rbp)   # imm = 0x12F97E48
	movb	%dil, -10(%rbp)
	movb	%sil, -9(%rbp)
	movb	%dl, -11(%rbp)
	movzbl	-10(%rbp), %eax
	movzbl	-9(%rbp), %ecx
	cmpl	%ecx, %eax
	jle	.LBB23_2
# %bb.1:                                # %if.then
	movb	-10(%rbp), %al
	movb	%al, -12(%rbp)
	movb	-9(%rbp), %al
	movb	%al, -10(%rbp)
	movb	-12(%rbp), %al
	movb	%al, -9(%rbp)
.LBB23_2:                               # %if.end
	movzbl	-9(%rbp), %eax
	movzbl	-11(%rbp), %ecx
	cmpl	%ecx, %eax
	jle	.LBB23_6
# %bb.3:                                # %if.then7
	movb	-11(%rbp), %al
	movb	%al, -9(%rbp)
	movzbl	-10(%rbp), %eax
	movzbl	-9(%rbp), %ecx
	cmpl	%ecx, %eax
	jle	.LBB23_5
# %bb.4:                                # %if.then12
	movb	-10(%rbp), %al
	movb	%al, -9(%rbp)
.LBB23_5:                               # %if.end13
	jmp	.LBB23_6
.LBB23_6:                               # %if.end14
	movb	-9(%rbp), %bl
	cmpl	$318340680, -16(%rbp)   # imm = 0x12F97E48
	jne	.LBB23_8
.LBB23_7:
	movzbl	%bl, %eax
	addq	$8, %rsp
	popq	%rbx
	popq	%rbp
	.cfi_def_cfa %rsp, 8
	retq
.LBB23_8:                               # %func_exit
	.cfi_def_cfa %rbp, 16
	callq	detect_breach
	jmp	.LBB23_7
.Lfunc_end23:
	.size	mmed3.15, .Lfunc_end23-mmed3.15
	.cfi_endproc
                                        # -- End function
	.p2align	4, 0x90         # -- Begin function fallbackQSort3.16
	.type	fallbackQSort3.16,@function
fallbackQSort3.16:                      # @fallbackQSort3.16
	.cfi_startproc
# %bb.0:                                # %entry
	pushq	%rbp
	.cfi_def_cfa_offset 16
	.cfi_offset %rbp, -16
	movq	%rsp, %rbp
	.cfi_def_cfa_register %rbp
	subq	$928, %rsp              # imm = 0x3A0
	movl	$1506002104, -108(%rbp) # imm = 0x59C3C4B8
	movq	%rdi, -24(%rbp)
	movq	%rsi, -88(%rbp)
	movl	%edx, -100(%rbp)
	movl	%ecx, -104(%rbp)
	movl	$0, -72(%rbp)
	movl	$0, -4(%rbp)
	movl	-100(%rbp), %eax
	movslq	-4(%rbp), %rcx
	movl	%eax, -928(%rbp,%rcx,4)
	movl	-104(%rbp), %eax
	movslq	-4(%rbp), %rcx
	movl	%eax, -528(%rbp,%rcx,4)
	movl	-4(%rbp), %eax
	addl	$1, %eax
	movl	%eax, -4(%rbp)
.LBB24_1:                               # %while.cond
                                        # =>This Loop Header: Depth=1
                                        #     Child Loop BB24_14 Depth 2
                                        #       Child Loop BB24_15 Depth 3
                                        #       Child Loop BB24_24 Depth 3
                                        #     Child Loop BB24_41 Depth 2
                                        #     Child Loop BB24_47 Depth 2
	cmpl	$0, -4(%rbp)
	jle	.LBB24_53
# %bb.2:                                # %while.body
                                        #   in Loop: Header=BB24_1 Depth=1
	cmpl	$100, -4(%rbp)
	jl	.LBB24_4
# %bb.3:                                # %if.then
                                        #   in Loop: Header=BB24_1 Depth=1
	movl	$1004, %edi             # imm = 0x3EC
	callq	BZ2_bz__AssertH__fail
.LBB24_4:                               # %if.end
                                        #   in Loop: Header=BB24_1 Depth=1
	movl	-4(%rbp), %eax
	addl	$-1, %eax
	movl	%eax, -4(%rbp)
	movslq	-4(%rbp), %rax
	movl	-928(%rbp,%rax,4), %eax
	movl	%eax, -32(%rbp)
	movslq	-4(%rbp), %rax
	movl	-528(%rbp,%rax,4), %eax
	movl	%eax, -36(%rbp)
	movl	-36(%rbp), %eax
	subl	-32(%rbp), %eax
	cmpl	$10, %eax
	jge	.LBB24_7
# %bb.5:                                # %if.then9
                                        #   in Loop: Header=BB24_1 Depth=1
	movq	-24(%rbp), %rdi
	movq	-88(%rbp), %rsi
	movl	-32(%rbp), %edx
	movl	-36(%rbp), %ecx
	callq	fallbackSimpleSort
.LBB24_6:                               # %while.cond.backedge
                                        #   in Loop: Header=BB24_1 Depth=1
	jmp	.LBB24_1
.LBB24_7:                               # %if.end10
                                        #   in Loop: Header=BB24_1 Depth=1
	imull	$7621, -72(%rbp), %eax  # imm = 0x1DC5
	addl	$1, %eax
	andl	$32767, %eax            # imm = 0x7FFF
	movl	%eax, -72(%rbp)
	movl	-72(%rbp), %eax
	xorl	%edx, %edx
	movl	$3, %ecx
	divl	%ecx
	movl	%edx, -92(%rbp)
	cmpl	$0, -92(%rbp)
	jne	.LBB24_9
# %bb.8:                                # %if.then13
                                        #   in Loop: Header=BB24_1 Depth=1
	movq	-88(%rbp), %rax
	movq	-24(%rbp), %rcx
	movslq	-32(%rbp), %rdx
	movl	(%rcx,%rdx,4), %ecx
	movl	(%rax,%rcx,4), %eax
	movl	%eax, -64(%rbp)
	jmp	.LBB24_13
.LBB24_9:                               # %if.else
                                        #   in Loop: Header=BB24_1 Depth=1
	cmpl	$1, -92(%rbp)
	jne	.LBB24_11
# %bb.10:                               # %if.then19
                                        #   in Loop: Header=BB24_1 Depth=1
	movq	-88(%rbp), %rax
	movq	-24(%rbp), %rcx
	movl	-32(%rbp), %edx
	addl	-36(%rbp), %edx
	sarl	$1, %edx
	movslq	%edx, %rdx
	movl	(%rcx,%rdx,4), %ecx
	movl	(%rax,%rcx,4), %eax
	movl	%eax, -64(%rbp)
	jmp	.LBB24_12
.LBB24_11:                              # %if.else25
                                        #   in Loop: Header=BB24_1 Depth=1
	movq	-88(%rbp), %rax
	movq	-24(%rbp), %rcx
	movslq	-36(%rbp), %rdx
	movl	(%rcx,%rdx,4), %ecx
	movl	(%rax,%rcx,4), %eax
	movl	%eax, -64(%rbp)
.LBB24_12:                              # %if.end30
                                        #   in Loop: Header=BB24_1 Depth=1
	jmp	.LBB24_13
.LBB24_13:                              # %if.end31
                                        #   in Loop: Header=BB24_1 Depth=1
	movl	-32(%rbp), %eax
	movl	%eax, -44(%rbp)
	movl	%eax, -8(%rbp)
	movl	-36(%rbp), %eax
	movl	%eax, -40(%rbp)
	movl	%eax, -12(%rbp)
.LBB24_14:                              # %while.body33
                                        #   Parent Loop BB24_1 Depth=1
                                        # =>  This Loop Header: Depth=2
                                        #       Child Loop BB24_15 Depth 3
                                        #       Child Loop BB24_24 Depth 3
	jmp	.LBB24_15
.LBB24_15:                              # %while.body35
                                        #   Parent Loop BB24_1 Depth=1
                                        #     Parent Loop BB24_14 Depth=2
                                        # =>    This Inner Loop Header: Depth=3
	movl	-8(%rbp), %eax
	cmpl	-12(%rbp), %eax
	jle	.LBB24_17
# %bb.16:                               # %if.then37
                                        #   in Loop: Header=BB24_14 Depth=2
	jmp	.LBB24_23
.LBB24_17:                              # %if.end38
                                        #   in Loop: Header=BB24_15 Depth=3
	movq	-88(%rbp), %rax
	movq	-24(%rbp), %rcx
	movslq	-8(%rbp), %rdx
	movl	(%rcx,%rdx,4), %ecx
	movl	(%rax,%rcx,4), %eax
	subl	-64(%rbp), %eax
	movl	%eax, -28(%rbp)
	cmpl	$0, -28(%rbp)
	jne	.LBB24_20
# %bb.18:                               # %if.then45
                                        #   in Loop: Header=BB24_15 Depth=3
	movq	-24(%rbp), %rax
	movslq	-8(%rbp), %rcx
	movl	(%rax,%rcx,4), %eax
	movl	%eax, -112(%rbp)
	movq	-24(%rbp), %rax
	movslq	-44(%rbp), %rcx
	movl	(%rax,%rcx,4), %eax
	movq	-24(%rbp), %rcx
	movslq	-8(%rbp), %rdx
	movl	%eax, (%rcx,%rdx,4)
	movl	-112(%rbp), %eax
	movq	-24(%rbp), %rcx
	movslq	-44(%rbp), %rdx
	movl	%eax, (%rcx,%rdx,4)
	movl	-44(%rbp), %eax
	addl	$1, %eax
	movl	%eax, -44(%rbp)
	movl	-8(%rbp), %eax
	addl	$1, %eax
	movl	%eax, -8(%rbp)
.LBB24_19:                              # %while.body35.backedge
                                        #   in Loop: Header=BB24_15 Depth=3
	jmp	.LBB24_15
.LBB24_20:                              # %if.end56
                                        #   in Loop: Header=BB24_15 Depth=3
	cmpl	$0, -28(%rbp)
	jle	.LBB24_22
# %bb.21:                               # %if.then58
                                        #   in Loop: Header=BB24_14 Depth=2
	jmp	.LBB24_23
.LBB24_22:                              # %if.end59
                                        #   in Loop: Header=BB24_15 Depth=3
	movl	-8(%rbp), %eax
	addl	$1, %eax
	movl	%eax, -8(%rbp)
	jmp	.LBB24_19
.LBB24_23:                              # %while.end
                                        #   in Loop: Header=BB24_14 Depth=2
	jmp	.LBB24_24
.LBB24_24:                              # %while.body62
                                        #   Parent Loop BB24_1 Depth=1
                                        #     Parent Loop BB24_14 Depth=2
                                        # =>    This Inner Loop Header: Depth=3
	movl	-8(%rbp), %eax
	cmpl	-12(%rbp), %eax
	jle	.LBB24_26
# %bb.25:                               # %if.then64
                                        #   in Loop: Header=BB24_14 Depth=2
	jmp	.LBB24_32
.LBB24_26:                              # %if.end65
                                        #   in Loop: Header=BB24_24 Depth=3
	movq	-88(%rbp), %rax
	movq	-24(%rbp), %rcx
	movslq	-12(%rbp), %rdx
	movl	(%rcx,%rdx,4), %ecx
	movl	(%rax,%rcx,4), %eax
	subl	-64(%rbp), %eax
	movl	%eax, -28(%rbp)
	cmpl	$0, -28(%rbp)
	jne	.LBB24_29
# %bb.27:                               # %if.then72
                                        #   in Loop: Header=BB24_24 Depth=3
	movq	-24(%rbp), %rax
	movslq	-12(%rbp), %rcx
	movl	(%rax,%rcx,4), %eax
	movl	%eax, -120(%rbp)
	movq	-24(%rbp), %rax
	movslq	-40(%rbp), %rcx
	movl	(%rax,%rcx,4), %eax
	movq	-24(%rbp), %rcx
	movslq	-12(%rbp), %rdx
	movl	%eax, (%rcx,%rdx,4)
	movl	-120(%rbp), %eax
	movq	-24(%rbp), %rcx
	movslq	-40(%rbp), %rdx
	movl	%eax, (%rcx,%rdx,4)
	movl	-40(%rbp), %eax
	addl	$-1, %eax
	movl	%eax, -40(%rbp)
	movl	-12(%rbp), %eax
	addl	$-1, %eax
	movl	%eax, -12(%rbp)
.LBB24_28:                              # %while.body62.backedge
                                        #   in Loop: Header=BB24_24 Depth=3
	jmp	.LBB24_24
.LBB24_29:                              # %if.end84
                                        #   in Loop: Header=BB24_24 Depth=3
	cmpl	$0, -28(%rbp)
	jge	.LBB24_31
# %bb.30:                               # %if.then86
                                        #   in Loop: Header=BB24_14 Depth=2
	jmp	.LBB24_32
.LBB24_31:                              # %if.end87
                                        #   in Loop: Header=BB24_24 Depth=3
	movl	-12(%rbp), %eax
	addl	$-1, %eax
	movl	%eax, -12(%rbp)
	jmp	.LBB24_28
.LBB24_32:                              # %while.end89
                                        #   in Loop: Header=BB24_14 Depth=2
	movl	-8(%rbp), %eax
	cmpl	-12(%rbp), %eax
	jle	.LBB24_34
# %bb.33:                               # %if.then91
                                        #   in Loop: Header=BB24_1 Depth=1
	jmp	.LBB24_35
.LBB24_34:                              # %if.end92
                                        #   in Loop: Header=BB24_14 Depth=2
	movq	-24(%rbp), %rax
	movslq	-8(%rbp), %rcx
	movl	(%rax,%rcx,4), %eax
	movl	%eax, -124(%rbp)
	movq	-24(%rbp), %rax
	movslq	-12(%rbp), %rcx
	movl	(%rax,%rcx,4), %eax
	movq	-24(%rbp), %rcx
	movslq	-8(%rbp), %rdx
	movl	%eax, (%rcx,%rdx,4)
	movl	-124(%rbp), %eax
	movq	-24(%rbp), %rcx
	movslq	-12(%rbp), %rdx
	movl	%eax, (%rcx,%rdx,4)
	movl	-8(%rbp), %eax
	addl	$1, %eax
	movl	%eax, -8(%rbp)
	movl	-12(%rbp), %eax
	addl	$-1, %eax
	movl	%eax, -12(%rbp)
	jmp	.LBB24_14
.LBB24_35:                              # %while.end104
                                        #   in Loop: Header=BB24_1 Depth=1
	movl	-40(%rbp), %eax
	cmpl	-44(%rbp), %eax
	jge	.LBB24_37
# %bb.36:                               # %if.then106
                                        #   in Loop: Header=BB24_1 Depth=1
	jmp	.LBB24_6
.LBB24_37:                              # %if.end107
                                        #   in Loop: Header=BB24_1 Depth=1
	movl	-44(%rbp), %eax
	subl	-32(%rbp), %eax
	movl	-8(%rbp), %ecx
	subl	-44(%rbp), %ecx
	cmpl	%ecx, %eax
	jge	.LBB24_39
# %bb.38:                               # %cond.true
                                        #   in Loop: Header=BB24_1 Depth=1
	movl	-44(%rbp), %eax
	subl	-32(%rbp), %eax
	jmp	.LBB24_40
.LBB24_39:                              # %cond.false
                                        #   in Loop: Header=BB24_1 Depth=1
	movl	-8(%rbp), %eax
	subl	-44(%rbp), %eax
.LBB24_40:                              # %cond.end
                                        #   in Loop: Header=BB24_1 Depth=1
	movl	%eax, -28(%rbp)
	movl	-32(%rbp), %eax
	movl	%eax, -68(%rbp)
	movl	-8(%rbp), %eax
	subl	-28(%rbp), %eax
	movl	%eax, -56(%rbp)
	movl	-28(%rbp), %eax
	movl	%eax, -76(%rbp)
.LBB24_41:                              # %while.cond114
                                        #   Parent Loop BB24_1 Depth=1
                                        # =>  This Inner Loop Header: Depth=2
	cmpl	$0, -76(%rbp)
	jle	.LBB24_43
# %bb.42:                               # %while.body116
                                        #   in Loop: Header=BB24_41 Depth=2
	movq	-24(%rbp), %rax
	movslq	-68(%rbp), %rcx
	movl	(%rax,%rcx,4), %eax
	movl	%eax, -116(%rbp)
	movq	-24(%rbp), %rax
	movslq	-56(%rbp), %rcx
	movl	(%rax,%rcx,4), %eax
	movq	-24(%rbp), %rcx
	movslq	-68(%rbp), %rdx
	movl	%eax, (%rcx,%rdx,4)
	movl	-116(%rbp), %eax
	movq	-24(%rbp), %rcx
	movslq	-56(%rbp), %rdx
	movl	%eax, (%rcx,%rdx,4)
	movl	-68(%rbp), %eax
	addl	$1, %eax
	movl	%eax, -68(%rbp)
	movl	-56(%rbp), %eax
	addl	$1, %eax
	movl	%eax, -56(%rbp)
	movl	-76(%rbp), %eax
	addl	$-1, %eax
	movl	%eax, -76(%rbp)
	jmp	.LBB24_41
.LBB24_43:                              # %while.end129
                                        #   in Loop: Header=BB24_1 Depth=1
	movl	-36(%rbp), %eax
	subl	-40(%rbp), %eax
	movl	-40(%rbp), %ecx
	subl	-12(%rbp), %ecx
	cmpl	%ecx, %eax
	jge	.LBB24_45
# %bb.44:                               # %cond.true133
                                        #   in Loop: Header=BB24_1 Depth=1
	movl	-36(%rbp), %eax
	subl	-40(%rbp), %eax
	jmp	.LBB24_46
.LBB24_45:                              # %cond.false135
                                        #   in Loop: Header=BB24_1 Depth=1
	movl	-40(%rbp), %eax
	subl	-12(%rbp), %eax
.LBB24_46:                              # %cond.end137
                                        #   in Loop: Header=BB24_1 Depth=1
	movl	%eax, -48(%rbp)
	movl	-8(%rbp), %eax
	movl	%eax, -52(%rbp)
	movl	-36(%rbp), %eax
	subl	-48(%rbp), %eax
	addl	$1, %eax
	movl	%eax, -60(%rbp)
	movl	-48(%rbp), %eax
	movl	%eax, -80(%rbp)
.LBB24_47:                              # %while.cond144
                                        #   Parent Loop BB24_1 Depth=1
                                        # =>  This Inner Loop Header: Depth=2
	cmpl	$0, -80(%rbp)
	jle	.LBB24_49
# %bb.48:                               # %while.body146
                                        #   in Loop: Header=BB24_47 Depth=2
	movq	-24(%rbp), %rax
	movslq	-52(%rbp), %rcx
	movl	(%rax,%rcx,4), %eax
	movl	%eax, -96(%rbp)
	movq	-24(%rbp), %rax
	movslq	-60(%rbp), %rcx
	movl	(%rax,%rcx,4), %eax
	movq	-24(%rbp), %rcx
	movslq	-52(%rbp), %rdx
	movl	%eax, (%rcx,%rdx,4)
	movl	-96(%rbp), %eax
	movq	-24(%rbp), %rcx
	movslq	-60(%rbp), %rdx
	movl	%eax, (%rcx,%rdx,4)
	movl	-52(%rbp), %eax
	addl	$1, %eax
	movl	%eax, -52(%rbp)
	movl	-60(%rbp), %eax
	addl	$1, %eax
	movl	%eax, -60(%rbp)
	movl	-80(%rbp), %eax
	addl	$-1, %eax
	movl	%eax, -80(%rbp)
	jmp	.LBB24_47
.LBB24_49:                              # %while.end159
                                        #   in Loop: Header=BB24_1 Depth=1
	movl	-32(%rbp), %eax
	addl	-8(%rbp), %eax
	subl	-44(%rbp), %eax
	subl	$1, %eax
	movl	%eax, -28(%rbp)
	movl	-36(%rbp), %eax
	movl	-40(%rbp), %ecx
	subl	-12(%rbp), %ecx
	subl	%ecx, %eax
	addl	$1, %eax
	movl	%eax, -48(%rbp)
	movl	-28(%rbp), %eax
	subl	-32(%rbp), %eax
	movl	-36(%rbp), %ecx
	subl	-48(%rbp), %ecx
	cmpl	%ecx, %eax
	jle	.LBB24_51
# %bb.50:                               # %if.then169
                                        #   in Loop: Header=BB24_1 Depth=1
	movl	-32(%rbp), %eax
	movslq	-4(%rbp), %rcx
	movl	%eax, -928(%rbp,%rcx,4)
	movl	-28(%rbp), %eax
	movslq	-4(%rbp), %rcx
	movl	%eax, -528(%rbp,%rcx,4)
	movl	-4(%rbp), %eax
	addl	$1, %eax
	movl	%eax, -4(%rbp)
	movl	-48(%rbp), %eax
	movslq	-4(%rbp), %rcx
	movl	%eax, -928(%rbp,%rcx,4)
	movl	-36(%rbp), %eax
	movslq	-4(%rbp), %rcx
	movl	%eax, -528(%rbp,%rcx,4)
	movl	-4(%rbp), %eax
	addl	$1, %eax
	movl	%eax, -4(%rbp)
	jmp	.LBB24_52
.LBB24_51:                              # %if.else180
                                        #   in Loop: Header=BB24_1 Depth=1
	movl	-48(%rbp), %eax
	movslq	-4(%rbp), %rcx
	movl	%eax, -928(%rbp,%rcx,4)
	movl	-36(%rbp), %eax
	movslq	-4(%rbp), %rcx
	movl	%eax, -528(%rbp,%rcx,4)
	movl	-4(%rbp), %eax
	addl	$1, %eax
	movl	%eax, -4(%rbp)
	movl	-32(%rbp), %eax
	movslq	-4(%rbp), %rcx
	movl	%eax, -928(%rbp,%rcx,4)
	movl	-28(%rbp), %eax
	movslq	-4(%rbp), %rcx
	movl	%eax, -528(%rbp,%rcx,4)
	movl	-4(%rbp), %eax
	addl	$1, %eax
	movl	%eax, -4(%rbp)
.LBB24_52:                              # %if.end191
                                        #   in Loop: Header=BB24_1 Depth=1
	jmp	.LBB24_6
.LBB24_53:                              # %while.end192
	cmpl	$1506002104, -108(%rbp) # imm = 0x59C3C4B8
	jne	.LBB24_55
.LBB24_54:
	addq	$928, %rsp              # imm = 0x3A0
	popq	%rbp
	.cfi_def_cfa %rsp, 8
	retq
.LBB24_55:                              # %func_exit
	.cfi_def_cfa %rbp, 16
	callq	detect_breach
	jmp	.LBB24_54
.Lfunc_end24:
	.size	fallbackQSort3.16, .Lfunc_end24-fallbackQSort3.16
	.cfi_endproc
                                        # -- End function
	.p2align	4, 0x90         # -- Begin function mainQSort3.17
	.type	mainQSort3.17,@function
mainQSort3.17:                          # @mainQSort3.17
	.cfi_startproc
# %bb.0:                                # %entry
	pushq	%rbp
	.cfi_def_cfa_offset 16
	.cfi_offset %rbp, -16
	movq	%rsp, %rbp
	.cfi_def_cfa_register %rbp
	subq	$1408, %rsp             # imm = 0x580
	movq	24(%rbp), %rax
	movl	16(%rbp), %eax
	movl	$155119764, -168(%rbp)  # imm = 0x93EF094
	movq	%rdi, -24(%rbp)
	movq	%rsi, -136(%rbp)
	movq	%rdx, -184(%rbp)
	movl	%ecx, -160(%rbp)
	movl	%r8d, -148(%rbp)
	movl	%r9d, -164(%rbp)
	movl	$0, -4(%rbp)
	movl	-148(%rbp), %eax
	movslq	-4(%rbp), %rcx
	movl	%eax, -592(%rbp,%rcx,4)
	movl	-164(%rbp), %eax
	movslq	-4(%rbp), %rcx
	movl	%eax, -992(%rbp,%rcx,4)
	movl	16(%rbp), %eax
	movslq	-4(%rbp), %rcx
	movl	%eax, -1392(%rbp,%rcx,4)
	movl	-4(%rbp), %eax
	addl	$1, %eax
	movl	%eax, -4(%rbp)
.LBB25_1:                               # %while.cond
                                        # =>This Loop Header: Depth=1
                                        #     Child Loop BB25_11 Depth 2
                                        #       Child Loop BB25_12 Depth 3
                                        #       Child Loop BB25_21 Depth 3
                                        #     Child Loop BB25_38 Depth 2
                                        #     Child Loop BB25_44 Depth 2
	cmpl	$0, -4(%rbp)
	jle	.LBB25_53
# %bb.2:                                # %while.body
                                        #   in Loop: Header=BB25_1 Depth=1
	cmpl	$100, -4(%rbp)
	jl	.LBB25_4
# %bb.3:                                # %if.then
                                        #   in Loop: Header=BB25_1 Depth=1
	movl	$1001, %edi             # imm = 0x3E9
	callq	BZ2_bz__AssertH__fail
.LBB25_4:                               # %if.end
                                        #   in Loop: Header=BB25_1 Depth=1
	movl	-4(%rbp), %eax
	addl	$-1, %eax
	movl	%eax, -4(%rbp)
	movslq	-4(%rbp), %rax
	movl	-592(%rbp,%rax,4), %eax
	movl	%eax, -36(%rbp)
	movslq	-4(%rbp), %rax
	movl	-992(%rbp,%rax,4), %eax
	movl	%eax, -40(%rbp)
	movslq	-4(%rbp), %rax
	movl	-1392(%rbp,%rax,4), %eax
	movl	%eax, -28(%rbp)
	movl	-40(%rbp), %eax
	subl	-36(%rbp), %eax
	cmpl	$20, %eax
	jl	.LBB25_6
# %bb.5:                                # %lor.lhs.false
                                        #   in Loop: Header=BB25_1 Depth=1
	cmpl	$14, -28(%rbp)
	jle	.LBB25_10
.LBB25_6:                               # %if.then14
                                        #   in Loop: Header=BB25_1 Depth=1
	movq	-24(%rbp), %rdi
	movq	-136(%rbp), %rsi
	movq	-184(%rbp), %rdx
	movl	-160(%rbp), %ecx
	movl	-36(%rbp), %r8d
	movl	-40(%rbp), %r9d
	movl	-28(%rbp), %eax
	movq	24(%rbp), %r10
	movl	%eax, (%rsp)
	movq	%r10, 8(%rsp)
	callq	mainSimpleSort
	movq	24(%rbp), %rax
	cmpl	$0, (%rax)
	jge	.LBB25_8
# %bb.7:                                # %if.then16
	jmp	.LBB25_54
.LBB25_8:                               # %if.end17
                                        #   in Loop: Header=BB25_1 Depth=1
	jmp	.LBB25_9
.LBB25_9:                               # %while.cond.backedge
                                        #   in Loop: Header=BB25_1 Depth=1
	jmp	.LBB25_1
.LBB25_10:                              # %if.end18
                                        #   in Loop: Header=BB25_1 Depth=1
	movq	-136(%rbp), %rax
	movq	-24(%rbp), %rcx
	movslq	-36(%rbp), %rdx
	movl	(%rcx,%rdx,4), %ecx
	addl	-28(%rbp), %ecx
	movl	%ecx, %ecx
	movb	(%rax,%rcx), %r8b
	movq	-136(%rbp), %rcx
	movq	-24(%rbp), %rdx
	movslq	-40(%rbp), %rsi
	movl	(%rdx,%rsi,4), %edx
	addl	-28(%rbp), %edx
	movl	%edx, %edx
	movb	(%rcx,%rdx), %cl
	movq	-136(%rbp), %rdx
	movq	-24(%rbp), %rsi
	movl	-36(%rbp), %edi
	addl	-40(%rbp), %edi
	sarl	$1, %edi
	movslq	%edi, %rdi
	movl	(%rsi,%rdi,4), %esi
	addl	-28(%rbp), %esi
	movl	%esi, %eax
	movzbl	%r8b, %edi
	movzbl	%cl, %esi
	movzbl	(%rdx,%rax), %edx
	callq	mmed3
	movzbl	%al, %eax
	movl	%eax, -140(%rbp)
	movl	-36(%rbp), %eax
	movl	%eax, -48(%rbp)
	movl	%eax, -8(%rbp)
	movl	-40(%rbp), %eax
	movl	%eax, -44(%rbp)
	movl	%eax, -12(%rbp)
.LBB25_11:                              # %while.body35
                                        #   Parent Loop BB25_1 Depth=1
                                        # =>  This Loop Header: Depth=2
                                        #       Child Loop BB25_12 Depth 3
                                        #       Child Loop BB25_21 Depth 3
	jmp	.LBB25_12
.LBB25_12:                              # %while.body37
                                        #   Parent Loop BB25_1 Depth=1
                                        #     Parent Loop BB25_11 Depth=2
                                        # =>    This Inner Loop Header: Depth=3
	movl	-8(%rbp), %eax
	cmpl	-12(%rbp), %eax
	jle	.LBB25_14
# %bb.13:                               # %if.then40
                                        #   in Loop: Header=BB25_11 Depth=2
	jmp	.LBB25_20
.LBB25_14:                              # %if.end41
                                        #   in Loop: Header=BB25_12 Depth=3
	movq	-136(%rbp), %rax
	movq	-24(%rbp), %rcx
	movslq	-8(%rbp), %rdx
	movl	(%rcx,%rdx,4), %ecx
	addl	-28(%rbp), %ecx
	movl	%ecx, %ecx
	movzbl	(%rax,%rcx), %eax
	subl	-140(%rbp), %eax
	movl	%eax, -32(%rbp)
	cmpl	$0, -32(%rbp)
	jne	.LBB25_17
# %bb.15:                               # %if.then51
                                        #   in Loop: Header=BB25_12 Depth=3
	movq	-24(%rbp), %rax
	movslq	-8(%rbp), %rcx
	movl	(%rax,%rcx,4), %eax
	movl	%eax, -176(%rbp)
	movq	-24(%rbp), %rax
	movslq	-48(%rbp), %rcx
	movl	(%rax,%rcx,4), %eax
	movq	-24(%rbp), %rcx
	movslq	-8(%rbp), %rdx
	movl	%eax, (%rcx,%rdx,4)
	movl	-176(%rbp), %eax
	movq	-24(%rbp), %rcx
	movslq	-48(%rbp), %rdx
	movl	%eax, (%rcx,%rdx,4)
	movl	-48(%rbp), %eax
	addl	$1, %eax
	movl	%eax, -48(%rbp)
	movl	-8(%rbp), %eax
	addl	$1, %eax
	movl	%eax, -8(%rbp)
.LBB25_16:                              # %while.body37.backedge
                                        #   in Loop: Header=BB25_12 Depth=3
	jmp	.LBB25_12
.LBB25_17:                              # %if.end62
                                        #   in Loop: Header=BB25_12 Depth=3
	cmpl	$0, -32(%rbp)
	jle	.LBB25_19
# %bb.18:                               # %if.then65
                                        #   in Loop: Header=BB25_11 Depth=2
	jmp	.LBB25_20
.LBB25_19:                              # %if.end66
                                        #   in Loop: Header=BB25_12 Depth=3
	movl	-8(%rbp), %eax
	addl	$1, %eax
	movl	%eax, -8(%rbp)
	jmp	.LBB25_16
.LBB25_20:                              # %while.end
                                        #   in Loop: Header=BB25_11 Depth=2
	jmp	.LBB25_21
.LBB25_21:                              # %while.body69
                                        #   Parent Loop BB25_1 Depth=1
                                        #     Parent Loop BB25_11 Depth=2
                                        # =>    This Inner Loop Header: Depth=3
	movl	-8(%rbp), %eax
	cmpl	-12(%rbp), %eax
	jle	.LBB25_23
# %bb.22:                               # %if.then72
                                        #   in Loop: Header=BB25_11 Depth=2
	jmp	.LBB25_29
.LBB25_23:                              # %if.end73
                                        #   in Loop: Header=BB25_21 Depth=3
	movq	-136(%rbp), %rax
	movq	-24(%rbp), %rcx
	movslq	-12(%rbp), %rdx
	movl	(%rcx,%rdx,4), %ecx
	addl	-28(%rbp), %ecx
	movl	%ecx, %ecx
	movzbl	(%rax,%rcx), %eax
	subl	-140(%rbp), %eax
	movl	%eax, -32(%rbp)
	cmpl	$0, -32(%rbp)
	jne	.LBB25_26
# %bb.24:                               # %if.then83
                                        #   in Loop: Header=BB25_21 Depth=3
	movq	-24(%rbp), %rax
	movslq	-12(%rbp), %rcx
	movl	(%rax,%rcx,4), %eax
	movl	%eax, -156(%rbp)
	movq	-24(%rbp), %rax
	movslq	-44(%rbp), %rcx
	movl	(%rax,%rcx,4), %eax
	movq	-24(%rbp), %rcx
	movslq	-12(%rbp), %rdx
	movl	%eax, (%rcx,%rdx,4)
	movl	-156(%rbp), %eax
	movq	-24(%rbp), %rcx
	movslq	-44(%rbp), %rdx
	movl	%eax, (%rcx,%rdx,4)
	movl	-44(%rbp), %eax
	addl	$-1, %eax
	movl	%eax, -44(%rbp)
	movl	-12(%rbp), %eax
	addl	$-1, %eax
	movl	%eax, -12(%rbp)
.LBB25_25:                              # %while.body69.backedge
                                        #   in Loop: Header=BB25_21 Depth=3
	jmp	.LBB25_21
.LBB25_26:                              # %if.end95
                                        #   in Loop: Header=BB25_21 Depth=3
	cmpl	$0, -32(%rbp)
	jge	.LBB25_28
# %bb.27:                               # %if.then98
                                        #   in Loop: Header=BB25_11 Depth=2
	jmp	.LBB25_29
.LBB25_28:                              # %if.end99
                                        #   in Loop: Header=BB25_21 Depth=3
	movl	-12(%rbp), %eax
	addl	$-1, %eax
	movl	%eax, -12(%rbp)
	jmp	.LBB25_25
.LBB25_29:                              # %while.end101
                                        #   in Loop: Header=BB25_11 Depth=2
	movl	-8(%rbp), %eax
	cmpl	-12(%rbp), %eax
	jle	.LBB25_31
# %bb.30:                               # %if.then104
                                        #   in Loop: Header=BB25_1 Depth=1
	jmp	.LBB25_32
.LBB25_31:                              # %if.end105
                                        #   in Loop: Header=BB25_11 Depth=2
	movq	-24(%rbp), %rax
	movslq	-8(%rbp), %rcx
	movl	(%rax,%rcx,4), %eax
	movl	%eax, -144(%rbp)
	movq	-24(%rbp), %rax
	movslq	-12(%rbp), %rcx
	movl	(%rax,%rcx,4), %eax
	movq	-24(%rbp), %rcx
	movslq	-8(%rbp), %rdx
	movl	%eax, (%rcx,%rdx,4)
	movl	-144(%rbp), %eax
	movq	-24(%rbp), %rcx
	movslq	-12(%rbp), %rdx
	movl	%eax, (%rcx,%rdx,4)
	movl	-8(%rbp), %eax
	addl	$1, %eax
	movl	%eax, -8(%rbp)
	movl	-12(%rbp), %eax
	addl	$-1, %eax
	movl	%eax, -12(%rbp)
	jmp	.LBB25_11
.LBB25_32:                              # %while.end117
                                        #   in Loop: Header=BB25_1 Depth=1
	movl	-44(%rbp), %eax
	cmpl	-48(%rbp), %eax
	jge	.LBB25_34
# %bb.33:                               # %if.then120
                                        #   in Loop: Header=BB25_1 Depth=1
	movl	-36(%rbp), %eax
	movslq	-4(%rbp), %rcx
	movl	%eax, -592(%rbp,%rcx,4)
	movl	-40(%rbp), %eax
	movslq	-4(%rbp), %rcx
	movl	%eax, -992(%rbp,%rcx,4)
	movl	-28(%rbp), %eax
	addl	$1, %eax
	movslq	-4(%rbp), %rcx
	movl	%eax, -1392(%rbp,%rcx,4)
	movl	-4(%rbp), %eax
	addl	$1, %eax
	movl	%eax, -4(%rbp)
	jmp	.LBB25_9
.LBB25_34:                              # %if.end129
                                        #   in Loop: Header=BB25_1 Depth=1
	movl	-48(%rbp), %eax
	subl	-36(%rbp), %eax
	movl	-8(%rbp), %ecx
	subl	-48(%rbp), %ecx
	cmpl	%ecx, %eax
	jge	.LBB25_36
# %bb.35:                               # %cond.true
                                        #   in Loop: Header=BB25_1 Depth=1
	movl	-48(%rbp), %eax
	subl	-36(%rbp), %eax
	jmp	.LBB25_37
.LBB25_36:                              # %cond.false
                                        #   in Loop: Header=BB25_1 Depth=1
	movl	-8(%rbp), %eax
	subl	-48(%rbp), %eax
.LBB25_37:                              # %cond.end
                                        #   in Loop: Header=BB25_1 Depth=1
	movl	%eax, -32(%rbp)
	movl	-36(%rbp), %eax
	movl	%eax, -116(%rbp)
	movl	-8(%rbp), %eax
	subl	-32(%rbp), %eax
	movl	%eax, -108(%rbp)
	movl	-32(%rbp), %eax
	movl	%eax, -124(%rbp)
.LBB25_38:                              # %while.cond137
                                        #   Parent Loop BB25_1 Depth=1
                                        # =>  This Inner Loop Header: Depth=2
	cmpl	$0, -124(%rbp)
	jle	.LBB25_40
# %bb.39:                               # %while.body140
                                        #   in Loop: Header=BB25_38 Depth=2
	movq	-24(%rbp), %rax
	movslq	-116(%rbp), %rcx
	movl	(%rax,%rcx,4), %eax
	movl	%eax, -172(%rbp)
	movq	-24(%rbp), %rax
	movslq	-108(%rbp), %rcx
	movl	(%rax,%rcx,4), %eax
	movq	-24(%rbp), %rcx
	movslq	-116(%rbp), %rdx
	movl	%eax, (%rcx,%rdx,4)
	movl	-172(%rbp), %eax
	movq	-24(%rbp), %rcx
	movslq	-108(%rbp), %rdx
	movl	%eax, (%rcx,%rdx,4)
	movl	-116(%rbp), %eax
	addl	$1, %eax
	movl	%eax, -116(%rbp)
	movl	-108(%rbp), %eax
	addl	$1, %eax
	movl	%eax, -108(%rbp)
	movl	-124(%rbp), %eax
	addl	$-1, %eax
	movl	%eax, -124(%rbp)
	jmp	.LBB25_38
.LBB25_40:                              # %while.end153
                                        #   in Loop: Header=BB25_1 Depth=1
	movl	-40(%rbp), %eax
	subl	-44(%rbp), %eax
	movl	-44(%rbp), %ecx
	subl	-12(%rbp), %ecx
	cmpl	%ecx, %eax
	jge	.LBB25_42
# %bb.41:                               # %cond.true158
                                        #   in Loop: Header=BB25_1 Depth=1
	movl	-40(%rbp), %eax
	subl	-44(%rbp), %eax
	jmp	.LBB25_43
.LBB25_42:                              # %cond.false160
                                        #   in Loop: Header=BB25_1 Depth=1
	movl	-44(%rbp), %eax
	subl	-12(%rbp), %eax
.LBB25_43:                              # %cond.end162
                                        #   in Loop: Header=BB25_1 Depth=1
	movl	%eax, -100(%rbp)
	movl	-8(%rbp), %eax
	movl	%eax, -104(%rbp)
	movl	-40(%rbp), %eax
	subl	-100(%rbp), %eax
	addl	$1, %eax
	movl	%eax, -112(%rbp)
	movl	-100(%rbp), %eax
	movl	%eax, -120(%rbp)
.LBB25_44:                              # %while.cond169
                                        #   Parent Loop BB25_1 Depth=1
                                        # =>  This Inner Loop Header: Depth=2
	cmpl	$0, -120(%rbp)
	jle	.LBB25_46
# %bb.45:                               # %while.body172
                                        #   in Loop: Header=BB25_44 Depth=2
	movq	-24(%rbp), %rax
	movslq	-104(%rbp), %rcx
	movl	(%rax,%rcx,4), %eax
	movl	%eax, -152(%rbp)
	movq	-24(%rbp), %rax
	movslq	-112(%rbp), %rcx
	movl	(%rax,%rcx,4), %eax
	movq	-24(%rbp), %rcx
	movslq	-104(%rbp), %rdx
	movl	%eax, (%rcx,%rdx,4)
	movl	-152(%rbp), %eax
	movq	-24(%rbp), %rcx
	movslq	-112(%rbp), %rdx
	movl	%eax, (%rcx,%rdx,4)
	movl	-104(%rbp), %eax
	addl	$1, %eax
	movl	%eax, -104(%rbp)
	movl	-112(%rbp), %eax
	addl	$1, %eax
	movl	%eax, -112(%rbp)
	movl	-120(%rbp), %eax
	addl	$-1, %eax
	movl	%eax, -120(%rbp)
	jmp	.LBB25_44
.LBB25_46:                              # %while.end185
                                        #   in Loop: Header=BB25_1 Depth=1
	movl	-36(%rbp), %eax
	addl	-8(%rbp), %eax
	subl	-48(%rbp), %eax
	subl	$1, %eax
	movl	%eax, -32(%rbp)
	movl	-40(%rbp), %eax
	movl	-44(%rbp), %ecx
	subl	-12(%rbp), %ecx
	subl	%ecx, %eax
	addl	$1, %eax
	movl	%eax, -100(%rbp)
	movl	-36(%rbp), %eax
	movl	%eax, -60(%rbp)
	movl	-32(%rbp), %eax
	movl	%eax, -72(%rbp)
	movl	-28(%rbp), %eax
	movl	%eax, -92(%rbp)
	movl	-100(%rbp), %eax
	movl	%eax, -56(%rbp)
	movl	-40(%rbp), %eax
	movl	%eax, -68(%rbp)
	movl	-28(%rbp), %eax
	movl	%eax, -88(%rbp)
	movl	-32(%rbp), %eax
	addl	$1, %eax
	movl	%eax, -52(%rbp)
	movl	-100(%rbp), %eax
	subl	$1, %eax
	movl	%eax, -64(%rbp)
	movl	-28(%rbp), %eax
	addl	$1, %eax
	movl	%eax, -84(%rbp)
	movl	-72(%rbp), %eax
	subl	-60(%rbp), %eax
	movl	-68(%rbp), %ecx
	subl	-56(%rbp), %ecx
	cmpl	%ecx, %eax
	jge	.LBB25_48
# %bb.47:                               # %if.then212
                                        #   in Loop: Header=BB25_1 Depth=1
	movl	-60(%rbp), %eax
	movl	%eax, -96(%rbp)
	movl	-56(%rbp), %eax
	movl	%eax, -60(%rbp)
	movl	-96(%rbp), %eax
	movl	%eax, -56(%rbp)
	movl	-72(%rbp), %eax
	movl	%eax, -96(%rbp)
	movl	-68(%rbp), %eax
	movl	%eax, -72(%rbp)
	movl	-96(%rbp), %eax
	movl	%eax, -68(%rbp)
	movl	-92(%rbp), %eax
	movl	%eax, -96(%rbp)
	movl	-88(%rbp), %eax
	movl	%eax, -92(%rbp)
	movl	-96(%rbp), %eax
	movl	%eax, -88(%rbp)
.LBB25_48:                              # %if.end225
                                        #   in Loop: Header=BB25_1 Depth=1
	movl	-68(%rbp), %eax
	subl	-56(%rbp), %eax
	movl	-64(%rbp), %ecx
	subl	-52(%rbp), %ecx
	cmpl	%ecx, %eax
	jge	.LBB25_50
# %bb.49:                               # %if.then234
                                        #   in Loop: Header=BB25_1 Depth=1
	movl	-56(%rbp), %eax
	movl	%eax, -76(%rbp)
	movl	-52(%rbp), %eax
	movl	%eax, -56(%rbp)
	movl	-76(%rbp), %eax
	movl	%eax, -52(%rbp)
	movl	-68(%rbp), %eax
	movl	%eax, -76(%rbp)
	movl	-64(%rbp), %eax
	movl	%eax, -68(%rbp)
	movl	-76(%rbp), %eax
	movl	%eax, -64(%rbp)
	movl	-88(%rbp), %eax
	movl	%eax, -76(%rbp)
	movl	-84(%rbp), %eax
	movl	%eax, -88(%rbp)
	movl	-76(%rbp), %eax
	movl	%eax, -84(%rbp)
.LBB25_50:                              # %if.end248
                                        #   in Loop: Header=BB25_1 Depth=1
	movl	-72(%rbp), %eax
	subl	-60(%rbp), %eax
	movl	-68(%rbp), %ecx
	subl	-56(%rbp), %ecx
	cmpl	%ecx, %eax
	jge	.LBB25_52
# %bb.51:                               # %if.then257
                                        #   in Loop: Header=BB25_1 Depth=1
	movl	-60(%rbp), %eax
	movl	%eax, -80(%rbp)
	movl	-56(%rbp), %eax
	movl	%eax, -60(%rbp)
	movl	-80(%rbp), %eax
	movl	%eax, -56(%rbp)
	movl	-72(%rbp), %eax
	movl	%eax, -80(%rbp)
	movl	-68(%rbp), %eax
	movl	%eax, -72(%rbp)
	movl	-80(%rbp), %eax
	movl	%eax, -68(%rbp)
	movl	-92(%rbp), %eax
	movl	%eax, -80(%rbp)
	movl	-88(%rbp), %eax
	movl	%eax, -92(%rbp)
	movl	-80(%rbp), %eax
	movl	%eax, -88(%rbp)
.LBB25_52:                              # %if.end271
                                        #   in Loop: Header=BB25_1 Depth=1
	movl	-60(%rbp), %eax
	movslq	-4(%rbp), %rcx
	movl	%eax, -592(%rbp,%rcx,4)
	movl	-72(%rbp), %eax
	movslq	-4(%rbp), %rcx
	movl	%eax, -992(%rbp,%rcx,4)
	movl	-92(%rbp), %eax
	movslq	-4(%rbp), %rcx
	movl	%eax, -1392(%rbp,%rcx,4)
	movl	-4(%rbp), %eax
	addl	$1, %eax
	movl	%eax, -4(%rbp)
	movl	-56(%rbp), %eax
	movslq	-4(%rbp), %rcx
	movl	%eax, -592(%rbp,%rcx,4)
	movl	-68(%rbp), %eax
	movslq	-4(%rbp), %rcx
	movl	%eax, -992(%rbp,%rcx,4)
	movl	-88(%rbp), %eax
	movslq	-4(%rbp), %rcx
	movl	%eax, -1392(%rbp,%rcx,4)
	movl	-4(%rbp), %eax
	addl	$1, %eax
	movl	%eax, -4(%rbp)
	movl	-52(%rbp), %eax
	movslq	-4(%rbp), %rcx
	movl	%eax, -592(%rbp,%rcx,4)
	movl	-64(%rbp), %eax
	movslq	-4(%rbp), %rcx
	movl	%eax, -992(%rbp,%rcx,4)
	movl	-84(%rbp), %eax
	movslq	-4(%rbp), %rcx
	movl	%eax, -1392(%rbp,%rcx,4)
	movl	-4(%rbp), %eax
	addl	$1, %eax
	movl	%eax, -4(%rbp)
	jmp	.LBB25_9
.LBB25_53:                              # %while.end302.loopexit
	jmp	.LBB25_54
.LBB25_54:                              # %while.end302
	cmpl	$155119764, -168(%rbp)  # imm = 0x93EF094
	jne	.LBB25_56
.LBB25_55:
	addq	$1408, %rsp             # imm = 0x580
	popq	%rbp
	.cfi_def_cfa %rsp, 8
	retq
.LBB25_56:                              # %func_exit
	.cfi_def_cfa %rbp, 16
	callq	detect_breach
	jmp	.LBB25_55
.Lfunc_end25:
	.size	mainQSort3.17, .Lfunc_end25-mainQSort3.17
	.cfi_endproc
                                        # -- End function
	.p2align	4, 0x90         # -- Begin function fallbackQSort3.18
	.type	fallbackQSort3.18,@function
fallbackQSort3.18:                      # @fallbackQSort3.18
	.cfi_startproc
# %bb.0:                                # %entry
	pushq	%rbp
	.cfi_def_cfa_offset 16
	.cfi_offset %rbp, -16
	movq	%rsp, %rbp
	.cfi_def_cfa_register %rbp
	subq	$928, %rsp              # imm = 0x3A0
	movl	$1303565028, -96(%rbp)  # imm = 0x4DB2D2E4
	movq	%rdi, -24(%rbp)
	movq	%rsi, -88(%rbp)
	movl	%edx, -100(%rbp)
	movl	%ecx, -112(%rbp)
	movl	$0, -76(%rbp)
	movl	$0, -4(%rbp)
	movl	-100(%rbp), %eax
	movslq	-4(%rbp), %rcx
	movl	%eax, -928(%rbp,%rcx,4)
	movl	-112(%rbp), %eax
	movslq	-4(%rbp), %rcx
	movl	%eax, -528(%rbp,%rcx,4)
	movl	-4(%rbp), %eax
	addl	$1, %eax
	movl	%eax, -4(%rbp)
.LBB26_1:                               # %while.cond
                                        # =>This Loop Header: Depth=1
                                        #     Child Loop BB26_14 Depth 2
                                        #       Child Loop BB26_15 Depth 3
                                        #       Child Loop BB26_24 Depth 3
                                        #     Child Loop BB26_41 Depth 2
                                        #     Child Loop BB26_47 Depth 2
	cmpl	$0, -4(%rbp)
	jle	.LBB26_53
# %bb.2:                                # %while.body
                                        #   in Loop: Header=BB26_1 Depth=1
	cmpl	$100, -4(%rbp)
	jl	.LBB26_4
# %bb.3:                                # %if.then
                                        #   in Loop: Header=BB26_1 Depth=1
	movl	$1004, %edi             # imm = 0x3EC
	callq	BZ2_bz__AssertH__fail
.LBB26_4:                               # %if.end
                                        #   in Loop: Header=BB26_1 Depth=1
	movl	-4(%rbp), %eax
	addl	$-1, %eax
	movl	%eax, -4(%rbp)
	movslq	-4(%rbp), %rax
	movl	-928(%rbp,%rax,4), %eax
	movl	%eax, -36(%rbp)
	movslq	-4(%rbp), %rax
	movl	-528(%rbp,%rax,4), %eax
	movl	%eax, -28(%rbp)
	movl	-28(%rbp), %eax
	subl	-36(%rbp), %eax
	cmpl	$10, %eax
	jge	.LBB26_7
# %bb.5:                                # %if.then9
                                        #   in Loop: Header=BB26_1 Depth=1
	movq	-24(%rbp), %rdi
	movq	-88(%rbp), %rsi
	movl	-36(%rbp), %edx
	movl	-28(%rbp), %ecx
	callq	fallbackSimpleSort
.LBB26_6:                               # %while.cond.backedge
                                        #   in Loop: Header=BB26_1 Depth=1
	jmp	.LBB26_1
.LBB26_7:                               # %if.end10
                                        #   in Loop: Header=BB26_1 Depth=1
	imull	$7621, -76(%rbp), %eax  # imm = 0x1DC5
	addl	$1, %eax
	andl	$32767, %eax            # imm = 0x7FFF
	movl	%eax, -76(%rbp)
	movl	-76(%rbp), %eax
	xorl	%edx, %edx
	movl	$3, %ecx
	divl	%ecx
	movl	%edx, -92(%rbp)
	cmpl	$0, -92(%rbp)
	jne	.LBB26_9
# %bb.8:                                # %if.then13
                                        #   in Loop: Header=BB26_1 Depth=1
	movq	-88(%rbp), %rax
	movq	-24(%rbp), %rcx
	movslq	-36(%rbp), %rdx
	movl	(%rcx,%rdx,4), %ecx
	movl	(%rax,%rcx,4), %eax
	movl	%eax, -68(%rbp)
	jmp	.LBB26_13
.LBB26_9:                               # %if.else
                                        #   in Loop: Header=BB26_1 Depth=1
	cmpl	$1, -92(%rbp)
	jne	.LBB26_11
# %bb.10:                               # %if.then19
                                        #   in Loop: Header=BB26_1 Depth=1
	movq	-88(%rbp), %rax
	movq	-24(%rbp), %rcx
	movl	-36(%rbp), %edx
	addl	-28(%rbp), %edx
	sarl	$1, %edx
	movslq	%edx, %rdx
	movl	(%rcx,%rdx,4), %ecx
	movl	(%rax,%rcx,4), %eax
	movl	%eax, -68(%rbp)
	jmp	.LBB26_12
.LBB26_11:                              # %if.else25
                                        #   in Loop: Header=BB26_1 Depth=1
	movq	-88(%rbp), %rax
	movq	-24(%rbp), %rcx
	movslq	-28(%rbp), %rdx
	movl	(%rcx,%rdx,4), %ecx
	movl	(%rax,%rcx,4), %eax
	movl	%eax, -68(%rbp)
.LBB26_12:                              # %if.end30
                                        #   in Loop: Header=BB26_1 Depth=1
	jmp	.LBB26_13
.LBB26_13:                              # %if.end31
                                        #   in Loop: Header=BB26_1 Depth=1
	movl	-36(%rbp), %eax
	movl	%eax, -44(%rbp)
	movl	%eax, -8(%rbp)
	movl	-28(%rbp), %eax
	movl	%eax, -40(%rbp)
	movl	%eax, -12(%rbp)
.LBB26_14:                              # %while.body33
                                        #   Parent Loop BB26_1 Depth=1
                                        # =>  This Loop Header: Depth=2
                                        #       Child Loop BB26_15 Depth 3
                                        #       Child Loop BB26_24 Depth 3
	jmp	.LBB26_15
.LBB26_15:                              # %while.body35
                                        #   Parent Loop BB26_1 Depth=1
                                        #     Parent Loop BB26_14 Depth=2
                                        # =>    This Inner Loop Header: Depth=3
	movl	-8(%rbp), %eax
	cmpl	-12(%rbp), %eax
	jle	.LBB26_17
# %bb.16:                               # %if.then37
                                        #   in Loop: Header=BB26_14 Depth=2
	jmp	.LBB26_23
.LBB26_17:                              # %if.end38
                                        #   in Loop: Header=BB26_15 Depth=3
	movq	-88(%rbp), %rax
	movq	-24(%rbp), %rcx
	movslq	-8(%rbp), %rdx
	movl	(%rcx,%rdx,4), %ecx
	movl	(%rax,%rcx,4), %eax
	subl	-68(%rbp), %eax
	movl	%eax, -32(%rbp)
	cmpl	$0, -32(%rbp)
	jne	.LBB26_20
# %bb.18:                               # %if.then45
                                        #   in Loop: Header=BB26_15 Depth=3
	movq	-24(%rbp), %rax
	movslq	-8(%rbp), %rcx
	movl	(%rax,%rcx,4), %eax
	movl	%eax, -116(%rbp)
	movq	-24(%rbp), %rax
	movslq	-44(%rbp), %rcx
	movl	(%rax,%rcx,4), %eax
	movq	-24(%rbp), %rcx
	movslq	-8(%rbp), %rdx
	movl	%eax, (%rcx,%rdx,4)
	movl	-116(%rbp), %eax
	movq	-24(%rbp), %rcx
	movslq	-44(%rbp), %rdx
	movl	%eax, (%rcx,%rdx,4)
	movl	-44(%rbp), %eax
	addl	$1, %eax
	movl	%eax, -44(%rbp)
	movl	-8(%rbp), %eax
	addl	$1, %eax
	movl	%eax, -8(%rbp)
.LBB26_19:                              # %while.body35.backedge
                                        #   in Loop: Header=BB26_15 Depth=3
	jmp	.LBB26_15
.LBB26_20:                              # %if.end56
                                        #   in Loop: Header=BB26_15 Depth=3
	cmpl	$0, -32(%rbp)
	jle	.LBB26_22
# %bb.21:                               # %if.then58
                                        #   in Loop: Header=BB26_14 Depth=2
	jmp	.LBB26_23
.LBB26_22:                              # %if.end59
                                        #   in Loop: Header=BB26_15 Depth=3
	movl	-8(%rbp), %eax
	addl	$1, %eax
	movl	%eax, -8(%rbp)
	jmp	.LBB26_19
.LBB26_23:                              # %while.end
                                        #   in Loop: Header=BB26_14 Depth=2
	jmp	.LBB26_24
.LBB26_24:                              # %while.body62
                                        #   Parent Loop BB26_1 Depth=1
                                        #     Parent Loop BB26_14 Depth=2
                                        # =>    This Inner Loop Header: Depth=3
	movl	-8(%rbp), %eax
	cmpl	-12(%rbp), %eax
	jle	.LBB26_26
# %bb.25:                               # %if.then64
                                        #   in Loop: Header=BB26_14 Depth=2
	jmp	.LBB26_32
.LBB26_26:                              # %if.end65
                                        #   in Loop: Header=BB26_24 Depth=3
	movq	-88(%rbp), %rax
	movq	-24(%rbp), %rcx
	movslq	-12(%rbp), %rdx
	movl	(%rcx,%rdx,4), %ecx
	movl	(%rax,%rcx,4), %eax
	subl	-68(%rbp), %eax
	movl	%eax, -32(%rbp)
	cmpl	$0, -32(%rbp)
	jne	.LBB26_29
# %bb.27:                               # %if.then72
                                        #   in Loop: Header=BB26_24 Depth=3
	movq	-24(%rbp), %rax
	movslq	-12(%rbp), %rcx
	movl	(%rax,%rcx,4), %eax
	movl	%eax, -108(%rbp)
	movq	-24(%rbp), %rax
	movslq	-40(%rbp), %rcx
	movl	(%rax,%rcx,4), %eax
	movq	-24(%rbp), %rcx
	movslq	-12(%rbp), %rdx
	movl	%eax, (%rcx,%rdx,4)
	movl	-108(%rbp), %eax
	movq	-24(%rbp), %rcx
	movslq	-40(%rbp), %rdx
	movl	%eax, (%rcx,%rdx,4)
	movl	-40(%rbp), %eax
	addl	$-1, %eax
	movl	%eax, -40(%rbp)
	movl	-12(%rbp), %eax
	addl	$-1, %eax
	movl	%eax, -12(%rbp)
.LBB26_28:                              # %while.body62.backedge
                                        #   in Loop: Header=BB26_24 Depth=3
	jmp	.LBB26_24
.LBB26_29:                              # %if.end84
                                        #   in Loop: Header=BB26_24 Depth=3
	cmpl	$0, -32(%rbp)
	jge	.LBB26_31
# %bb.30:                               # %if.then86
                                        #   in Loop: Header=BB26_14 Depth=2
	jmp	.LBB26_32
.LBB26_31:                              # %if.end87
                                        #   in Loop: Header=BB26_24 Depth=3
	movl	-12(%rbp), %eax
	addl	$-1, %eax
	movl	%eax, -12(%rbp)
	jmp	.LBB26_28
.LBB26_32:                              # %while.end89
                                        #   in Loop: Header=BB26_14 Depth=2
	movl	-8(%rbp), %eax
	cmpl	-12(%rbp), %eax
	jle	.LBB26_34
# %bb.33:                               # %if.then91
                                        #   in Loop: Header=BB26_1 Depth=1
	jmp	.LBB26_35
.LBB26_34:                              # %if.end92
                                        #   in Loop: Header=BB26_14 Depth=2
	movq	-24(%rbp), %rax
	movslq	-8(%rbp), %rcx
	movl	(%rax,%rcx,4), %eax
	movl	%eax, -124(%rbp)
	movq	-24(%rbp), %rax
	movslq	-12(%rbp), %rcx
	movl	(%rax,%rcx,4), %eax
	movq	-24(%rbp), %rcx
	movslq	-8(%rbp), %rdx
	movl	%eax, (%rcx,%rdx,4)
	movl	-124(%rbp), %eax
	movq	-24(%rbp), %rcx
	movslq	-12(%rbp), %rdx
	movl	%eax, (%rcx,%rdx,4)
	movl	-8(%rbp), %eax
	addl	$1, %eax
	movl	%eax, -8(%rbp)
	movl	-12(%rbp), %eax
	addl	$-1, %eax
	movl	%eax, -12(%rbp)
	jmp	.LBB26_14
.LBB26_35:                              # %while.end104
                                        #   in Loop: Header=BB26_1 Depth=1
	movl	-40(%rbp), %eax
	cmpl	-44(%rbp), %eax
	jge	.LBB26_37
# %bb.36:                               # %if.then106
                                        #   in Loop: Header=BB26_1 Depth=1
	jmp	.LBB26_6
.LBB26_37:                              # %if.end107
                                        #   in Loop: Header=BB26_1 Depth=1
	movl	-44(%rbp), %eax
	subl	-36(%rbp), %eax
	movl	-8(%rbp), %ecx
	subl	-44(%rbp), %ecx
	cmpl	%ecx, %eax
	jge	.LBB26_39
# %bb.38:                               # %cond.true
                                        #   in Loop: Header=BB26_1 Depth=1
	movl	-44(%rbp), %eax
	subl	-36(%rbp), %eax
	jmp	.LBB26_40
.LBB26_39:                              # %cond.false
                                        #   in Loop: Header=BB26_1 Depth=1
	movl	-8(%rbp), %eax
	subl	-44(%rbp), %eax
.LBB26_40:                              # %cond.end
                                        #   in Loop: Header=BB26_1 Depth=1
	movl	%eax, -32(%rbp)
	movl	-36(%rbp), %eax
	movl	%eax, -60(%rbp)
	movl	-8(%rbp), %eax
	subl	-32(%rbp), %eax
	movl	%eax, -56(%rbp)
	movl	-32(%rbp), %eax
	movl	%eax, -72(%rbp)
.LBB26_41:                              # %while.cond114
                                        #   Parent Loop BB26_1 Depth=1
                                        # =>  This Inner Loop Header: Depth=2
	cmpl	$0, -72(%rbp)
	jle	.LBB26_43
# %bb.42:                               # %while.body116
                                        #   in Loop: Header=BB26_41 Depth=2
	movq	-24(%rbp), %rax
	movslq	-60(%rbp), %rcx
	movl	(%rax,%rcx,4), %eax
	movl	%eax, -104(%rbp)
	movq	-24(%rbp), %rax
	movslq	-56(%rbp), %rcx
	movl	(%rax,%rcx,4), %eax
	movq	-24(%rbp), %rcx
	movslq	-60(%rbp), %rdx
	movl	%eax, (%rcx,%rdx,4)
	movl	-104(%rbp), %eax
	movq	-24(%rbp), %rcx
	movslq	-56(%rbp), %rdx
	movl	%eax, (%rcx,%rdx,4)
	movl	-60(%rbp), %eax
	addl	$1, %eax
	movl	%eax, -60(%rbp)
	movl	-56(%rbp), %eax
	addl	$1, %eax
	movl	%eax, -56(%rbp)
	movl	-72(%rbp), %eax
	addl	$-1, %eax
	movl	%eax, -72(%rbp)
	jmp	.LBB26_41
.LBB26_43:                              # %while.end129
                                        #   in Loop: Header=BB26_1 Depth=1
	movl	-28(%rbp), %eax
	subl	-40(%rbp), %eax
	movl	-40(%rbp), %ecx
	subl	-12(%rbp), %ecx
	cmpl	%ecx, %eax
	jge	.LBB26_45
# %bb.44:                               # %cond.true133
                                        #   in Loop: Header=BB26_1 Depth=1
	movl	-28(%rbp), %eax
	subl	-40(%rbp), %eax
	jmp	.LBB26_46
.LBB26_45:                              # %cond.false135
                                        #   in Loop: Header=BB26_1 Depth=1
	movl	-40(%rbp), %eax
	subl	-12(%rbp), %eax
.LBB26_46:                              # %cond.end137
                                        #   in Loop: Header=BB26_1 Depth=1
	movl	%eax, -48(%rbp)
	movl	-8(%rbp), %eax
	movl	%eax, -64(%rbp)
	movl	-28(%rbp), %eax
	subl	-48(%rbp), %eax
	addl	$1, %eax
	movl	%eax, -52(%rbp)
	movl	-48(%rbp), %eax
	movl	%eax, -80(%rbp)
.LBB26_47:                              # %while.cond144
                                        #   Parent Loop BB26_1 Depth=1
                                        # =>  This Inner Loop Header: Depth=2
	cmpl	$0, -80(%rbp)
	jle	.LBB26_49
# %bb.48:                               # %while.body146
                                        #   in Loop: Header=BB26_47 Depth=2
	movq	-24(%rbp), %rax
	movslq	-64(%rbp), %rcx
	movl	(%rax,%rcx,4), %eax
	movl	%eax, -120(%rbp)
	movq	-24(%rbp), %rax
	movslq	-52(%rbp), %rcx
	movl	(%rax,%rcx,4), %eax
	movq	-24(%rbp), %rcx
	movslq	-64(%rbp), %rdx
	movl	%eax, (%rcx,%rdx,4)
	movl	-120(%rbp), %eax
	movq	-24(%rbp), %rcx
	movslq	-52(%rbp), %rdx
	movl	%eax, (%rcx,%rdx,4)
	movl	-64(%rbp), %eax
	addl	$1, %eax
	movl	%eax, -64(%rbp)
	movl	-52(%rbp), %eax
	addl	$1, %eax
	movl	%eax, -52(%rbp)
	movl	-80(%rbp), %eax
	addl	$-1, %eax
	movl	%eax, -80(%rbp)
	jmp	.LBB26_47
.LBB26_49:                              # %while.end159
                                        #   in Loop: Header=BB26_1 Depth=1
	movl	-36(%rbp), %eax
	addl	-8(%rbp), %eax
	subl	-44(%rbp), %eax
	subl	$1, %eax
	movl	%eax, -32(%rbp)
	movl	-28(%rbp), %eax
	movl	-40(%rbp), %ecx
	subl	-12(%rbp), %ecx
	subl	%ecx, %eax
	addl	$1, %eax
	movl	%eax, -48(%rbp)
	movl	-32(%rbp), %eax
	subl	-36(%rbp), %eax
	movl	-28(%rbp), %ecx
	subl	-48(%rbp), %ecx
	cmpl	%ecx, %eax
	jle	.LBB26_51
# %bb.50:                               # %if.then169
                                        #   in Loop: Header=BB26_1 Depth=1
	movl	-36(%rbp), %eax
	movslq	-4(%rbp), %rcx
	movl	%eax, -928(%rbp,%rcx,4)
	movl	-32(%rbp), %eax
	movslq	-4(%rbp), %rcx
	movl	%eax, -528(%rbp,%rcx,4)
	movl	-4(%rbp), %eax
	addl	$1, %eax
	movl	%eax, -4(%rbp)
	movl	-48(%rbp), %eax
	movslq	-4(%rbp), %rcx
	movl	%eax, -928(%rbp,%rcx,4)
	movl	-28(%rbp), %eax
	movslq	-4(%rbp), %rcx
	movl	%eax, -528(%rbp,%rcx,4)
	movl	-4(%rbp), %eax
	addl	$1, %eax
	movl	%eax, -4(%rbp)
	jmp	.LBB26_52
.LBB26_51:                              # %if.else180
                                        #   in Loop: Header=BB26_1 Depth=1
	movl	-48(%rbp), %eax
	movslq	-4(%rbp), %rcx
	movl	%eax, -928(%rbp,%rcx,4)
	movl	-28(%rbp), %eax
	movslq	-4(%rbp), %rcx
	movl	%eax, -528(%rbp,%rcx,4)
	movl	-4(%rbp), %eax
	addl	$1, %eax
	movl	%eax, -4(%rbp)
	movl	-36(%rbp), %eax
	movslq	-4(%rbp), %rcx
	movl	%eax, -928(%rbp,%rcx,4)
	movl	-32(%rbp), %eax
	movslq	-4(%rbp), %rcx
	movl	%eax, -528(%rbp,%rcx,4)
	movl	-4(%rbp), %eax
	addl	$1, %eax
	movl	%eax, -4(%rbp)
.LBB26_52:                              # %if.end191
                                        #   in Loop: Header=BB26_1 Depth=1
	jmp	.LBB26_6
.LBB26_53:                              # %while.end192
	cmpl	$1303565028, -96(%rbp)  # imm = 0x4DB2D2E4
	jne	.LBB26_55
.LBB26_54:
	addq	$928, %rsp              # imm = 0x3A0
	popq	%rbp
	.cfi_def_cfa %rsp, 8
	retq
.LBB26_55:                              # %func_exit
	.cfi_def_cfa %rbp, 16
	callq	detect_breach
	jmp	.LBB26_54
.Lfunc_end26:
	.size	fallbackQSort3.18, .Lfunc_end26-fallbackQSort3.18
	.cfi_endproc
                                        # -- End function
	.p2align	4, 0x90         # -- Begin function mainSimpleSort.19
	.type	mainSimpleSort.19,@function
mainSimpleSort.19:                      # @mainSimpleSort.19
	.cfi_startproc
# %bb.0:                                # %entry
	pushq	%rbp
	.cfi_def_cfa_offset 16
	.cfi_offset %rbp, -16
	movq	%rsp, %rbp
	.cfi_def_cfa_register %rbp
	subq	$80, %rsp
	movq	24(%rbp), %rax
	movl	16(%rbp), %eax
	movl	$88249931, -68(%rbp)    # imm = 0x542964B
	movq	%rdi, -32(%rbp)
	movq	%rsi, -56(%rbp)
	movq	%rdx, -64(%rbp)
	movl	%ecx, -44(%rbp)
	movl	%r8d, -36(%rbp)
	movl	%r9d, -40(%rbp)
	movl	-40(%rbp), %eax
	subl	-36(%rbp), %eax
	addl	$1, %eax
	movl	%eax, -48(%rbp)
	cmpl	$2, -48(%rbp)
	jge	.LBB27_2
# %bb.1:                                # %if.then
	jmp	.LBB27_38
.LBB27_2:                               # %if.end
	movl	$0, -16(%rbp)
.LBB27_3:                               # %while.cond
                                        # =>This Inner Loop Header: Depth=1
	movslq	-16(%rbp), %rax
	movl	incs(,%rax,4), %eax
	cmpl	-48(%rbp), %eax
	jge	.LBB27_5
# %bb.4:                                # %while.body
                                        #   in Loop: Header=BB27_3 Depth=1
	movl	-16(%rbp), %eax
	addl	$1, %eax
	movl	%eax, -16(%rbp)
	jmp	.LBB27_3
.LBB27_5:                               # %while.end
	movl	-16(%rbp), %eax
	addl	$-1, %eax
	movl	%eax, -16(%rbp)
.LBB27_6:                               # %for.cond
                                        # =>This Loop Header: Depth=1
                                        #     Child Loop BB27_8 Depth 2
                                        #       Child Loop BB27_11 Depth 3
                                        #       Child Loop BB27_19 Depth 3
                                        #       Child Loop BB27_27 Depth 3
	cmpl	$0, -16(%rbp)
	jl	.LBB27_37
# %bb.7:                                # %for.body
                                        #   in Loop: Header=BB27_6 Depth=1
	movslq	-16(%rbp), %rax
	movl	incs(,%rax,4), %eax
	movl	%eax, -12(%rbp)
	movl	-36(%rbp), %eax
	addl	-12(%rbp), %eax
	movl	%eax, -8(%rbp)
.LBB27_8:                               # %while.body7
                                        #   Parent Loop BB27_6 Depth=1
                                        # =>  This Loop Header: Depth=2
                                        #       Child Loop BB27_11 Depth 3
                                        #       Child Loop BB27_19 Depth 3
                                        #       Child Loop BB27_27 Depth 3
	movl	-8(%rbp), %eax
	cmpl	-40(%rbp), %eax
	jle	.LBB27_10
# %bb.9:                                # %if.then9
                                        #   in Loop: Header=BB27_6 Depth=1
	jmp	.LBB27_35
.LBB27_10:                              # %if.end10
                                        #   in Loop: Header=BB27_8 Depth=2
	movq	-32(%rbp), %rax
	movslq	-8(%rbp), %rcx
	movl	(%rax,%rcx,4), %eax
	movl	%eax, -20(%rbp)
	movl	-8(%rbp), %eax
	movl	%eax, -4(%rbp)
.LBB27_11:                              # %while.cond13
                                        #   Parent Loop BB27_6 Depth=1
                                        #     Parent Loop BB27_8 Depth=2
                                        # =>    This Inner Loop Header: Depth=3
	movq	-32(%rbp), %rax
	movl	-4(%rbp), %ecx
	subl	-12(%rbp), %ecx
	movslq	%ecx, %rcx
	movl	(%rax,%rcx,4), %edi
	addl	16(%rbp), %edi
	movl	-20(%rbp), %esi
	addl	16(%rbp), %esi
	movq	-56(%rbp), %rdx
	movq	-64(%rbp), %rcx
	movl	-44(%rbp), %r8d
	movq	24(%rbp), %r9
	callq	mainGtU
	cmpb	$0, %al
	je	.LBB27_15
# %bb.12:                               # %while.body19
                                        #   in Loop: Header=BB27_11 Depth=3
	movq	-32(%rbp), %rax
	movl	-4(%rbp), %ecx
	subl	-12(%rbp), %ecx
	movslq	%ecx, %rcx
	movl	(%rax,%rcx,4), %eax
	movq	-32(%rbp), %rcx
	movslq	-4(%rbp), %rdx
	movl	%eax, (%rcx,%rdx,4)
	movl	-4(%rbp), %eax
	subl	-12(%rbp), %eax
	movl	%eax, -4(%rbp)
	movl	-4(%rbp), %eax
	movl	-36(%rbp), %ecx
	addl	-12(%rbp), %ecx
	subl	$1, %ecx
	cmpl	%ecx, %eax
	jg	.LBB27_14
# %bb.13:                               # %if.then29
                                        #   in Loop: Header=BB27_8 Depth=2
	jmp	.LBB27_16
.LBB27_14:                              # %if.end30
                                        #   in Loop: Header=BB27_11 Depth=3
	jmp	.LBB27_11
.LBB27_15:                              # %while.end31.loopexit
                                        #   in Loop: Header=BB27_8 Depth=2
	jmp	.LBB27_16
.LBB27_16:                              # %while.end31
                                        #   in Loop: Header=BB27_8 Depth=2
	movl	-20(%rbp), %eax
	movq	-32(%rbp), %rcx
	movslq	-4(%rbp), %rdx
	movl	%eax, (%rcx,%rdx,4)
	movl	-8(%rbp), %eax
	addl	$1, %eax
	movl	%eax, -8(%rbp)
	movl	-8(%rbp), %eax
	cmpl	-40(%rbp), %eax
	jle	.LBB27_18
# %bb.17:                               # %if.then36
                                        #   in Loop: Header=BB27_6 Depth=1
	jmp	.LBB27_35
.LBB27_18:                              # %if.end37
                                        #   in Loop: Header=BB27_8 Depth=2
	movq	-32(%rbp), %rax
	movslq	-8(%rbp), %rcx
	movl	(%rax,%rcx,4), %eax
	movl	%eax, -20(%rbp)
	movl	-8(%rbp), %eax
	movl	%eax, -4(%rbp)
.LBB27_19:                              # %while.cond40
                                        #   Parent Loop BB27_6 Depth=1
                                        #     Parent Loop BB27_8 Depth=2
                                        # =>    This Inner Loop Header: Depth=3
	movq	-32(%rbp), %rax
	movl	-4(%rbp), %ecx
	subl	-12(%rbp), %ecx
	movslq	%ecx, %rcx
	movl	(%rax,%rcx,4), %edi
	addl	16(%rbp), %edi
	movl	-20(%rbp), %esi
	addl	16(%rbp), %esi
	movq	-56(%rbp), %rdx
	movq	-64(%rbp), %rcx
	movl	-44(%rbp), %r8d
	movq	24(%rbp), %r9
	callq	mainGtU
	cmpb	$0, %al
	je	.LBB27_23
# %bb.20:                               # %while.body48
                                        #   in Loop: Header=BB27_19 Depth=3
	movq	-32(%rbp), %rax
	movl	-4(%rbp), %ecx
	subl	-12(%rbp), %ecx
	movslq	%ecx, %rcx
	movl	(%rax,%rcx,4), %eax
	movq	-32(%rbp), %rcx
	movslq	-4(%rbp), %rdx
	movl	%eax, (%rcx,%rdx,4)
	movl	-4(%rbp), %eax
	subl	-12(%rbp), %eax
	movl	%eax, -4(%rbp)
	movl	-4(%rbp), %eax
	movl	-36(%rbp), %ecx
	addl	-12(%rbp), %ecx
	subl	$1, %ecx
	cmpl	%ecx, %eax
	jg	.LBB27_22
# %bb.21:                               # %if.then58
                                        #   in Loop: Header=BB27_8 Depth=2
	jmp	.LBB27_24
.LBB27_22:                              # %if.end59
                                        #   in Loop: Header=BB27_19 Depth=3
	jmp	.LBB27_19
.LBB27_23:                              # %while.end60.loopexit
                                        #   in Loop: Header=BB27_8 Depth=2
	jmp	.LBB27_24
.LBB27_24:                              # %while.end60
                                        #   in Loop: Header=BB27_8 Depth=2
	movl	-20(%rbp), %eax
	movq	-32(%rbp), %rcx
	movslq	-4(%rbp), %rdx
	movl	%eax, (%rcx,%rdx,4)
	movl	-8(%rbp), %eax
	addl	$1, %eax
	movl	%eax, -8(%rbp)
	movl	-8(%rbp), %eax
	cmpl	-40(%rbp), %eax
	jle	.LBB27_26
# %bb.25:                               # %if.then65
                                        #   in Loop: Header=BB27_6 Depth=1
	jmp	.LBB27_35
.LBB27_26:                              # %if.end66
                                        #   in Loop: Header=BB27_8 Depth=2
	movq	-32(%rbp), %rax
	movslq	-8(%rbp), %rcx
	movl	(%rax,%rcx,4), %eax
	movl	%eax, -20(%rbp)
	movl	-8(%rbp), %eax
	movl	%eax, -4(%rbp)
.LBB27_27:                              # %while.cond69
                                        #   Parent Loop BB27_6 Depth=1
                                        #     Parent Loop BB27_8 Depth=2
                                        # =>    This Inner Loop Header: Depth=3
	movq	-32(%rbp), %rax
	movl	-4(%rbp), %ecx
	subl	-12(%rbp), %ecx
	movslq	%ecx, %rcx
	movl	(%rax,%rcx,4), %edi
	addl	16(%rbp), %edi
	movl	-20(%rbp), %esi
	addl	16(%rbp), %esi
	movq	-56(%rbp), %rdx
	movq	-64(%rbp), %rcx
	movl	-44(%rbp), %r8d
	movq	24(%rbp), %r9
	callq	mainGtU
	cmpb	$0, %al
	je	.LBB27_31
# %bb.28:                               # %while.body77
                                        #   in Loop: Header=BB27_27 Depth=3
	movq	-32(%rbp), %rax
	movl	-4(%rbp), %ecx
	subl	-12(%rbp), %ecx
	movslq	%ecx, %rcx
	movl	(%rax,%rcx,4), %eax
	movq	-32(%rbp), %rcx
	movslq	-4(%rbp), %rdx
	movl	%eax, (%rcx,%rdx,4)
	movl	-4(%rbp), %eax
	subl	-12(%rbp), %eax
	movl	%eax, -4(%rbp)
	movl	-4(%rbp), %eax
	movl	-36(%rbp), %ecx
	addl	-12(%rbp), %ecx
	subl	$1, %ecx
	cmpl	%ecx, %eax
	jg	.LBB27_30
# %bb.29:                               # %if.then87
                                        #   in Loop: Header=BB27_8 Depth=2
	jmp	.LBB27_32
.LBB27_30:                              # %if.end88
                                        #   in Loop: Header=BB27_27 Depth=3
	jmp	.LBB27_27
.LBB27_31:                              # %while.end89.loopexit
                                        #   in Loop: Header=BB27_8 Depth=2
	jmp	.LBB27_32
.LBB27_32:                              # %while.end89
                                        #   in Loop: Header=BB27_8 Depth=2
	movl	-20(%rbp), %eax
	movq	-32(%rbp), %rcx
	movslq	-4(%rbp), %rdx
	movl	%eax, (%rcx,%rdx,4)
	movl	-8(%rbp), %eax
	addl	$1, %eax
	movl	%eax, -8(%rbp)
	movq	24(%rbp), %rax
	cmpl	$0, (%rax)
	jge	.LBB27_34
# %bb.33:                               # %if.then94
	jmp	.LBB27_38
.LBB27_34:                              # %if.end95
                                        #   in Loop: Header=BB27_8 Depth=2
	jmp	.LBB27_8
.LBB27_35:                              # %while.end96
                                        #   in Loop: Header=BB27_6 Depth=1
	jmp	.LBB27_36
.LBB27_36:                              # %for.inc
                                        #   in Loop: Header=BB27_6 Depth=1
	movl	-16(%rbp), %eax
	addl	$-1, %eax
	movl	%eax, -16(%rbp)
	jmp	.LBB27_6
.LBB27_37:                              # %for.end.loopexit
	jmp	.LBB27_38
.LBB27_38:                              # %for.end
	cmpl	$88249931, -68(%rbp)    # imm = 0x542964B
	jne	.LBB27_40
.LBB27_39:
	addq	$80, %rsp
	popq	%rbp
	.cfi_def_cfa %rsp, 8
	retq
.LBB27_40:                              # %func_exit
	.cfi_def_cfa %rbp, 16
	callq	detect_breach
	jmp	.LBB27_39
.Lfunc_end27:
	.size	mainSimpleSort.19, .Lfunc_end27-mainSimpleSort.19
	.cfi_endproc
                                        # -- End function
	.p2align	4, 0x90         # -- Begin function mainQSort3.20
	.type	mainQSort3.20,@function
mainQSort3.20:                          # @mainQSort3.20
	.cfi_startproc
# %bb.0:                                # %entry
	pushq	%rbp
	.cfi_def_cfa_offset 16
	.cfi_offset %rbp, -16
	movq	%rsp, %rbp
	.cfi_def_cfa_register %rbp
	subq	$1408, %rsp             # imm = 0x580
	movq	24(%rbp), %rax
	movl	16(%rbp), %eax
	movl	$1264375478, -164(%rbp) # imm = 0x4B5CD6B6
	movq	%rdi, -24(%rbp)
	movq	%rsi, -136(%rbp)
	movq	%rdx, -184(%rbp)
	movl	%ecx, -176(%rbp)
	movl	%r8d, -148(%rbp)
	movl	%r9d, -152(%rbp)
	movl	$0, -4(%rbp)
	movl	-148(%rbp), %eax
	movslq	-4(%rbp), %rcx
	movl	%eax, -1392(%rbp,%rcx,4)
	movl	-152(%rbp), %eax
	movslq	-4(%rbp), %rcx
	movl	%eax, -592(%rbp,%rcx,4)
	movl	16(%rbp), %eax
	movslq	-4(%rbp), %rcx
	movl	%eax, -992(%rbp,%rcx,4)
	movl	-4(%rbp), %eax
	addl	$1, %eax
	movl	%eax, -4(%rbp)
.LBB28_1:                               # %while.cond
                                        # =>This Loop Header: Depth=1
                                        #     Child Loop BB28_11 Depth 2
                                        #       Child Loop BB28_12 Depth 3
                                        #       Child Loop BB28_21 Depth 3
                                        #     Child Loop BB28_38 Depth 2
                                        #     Child Loop BB28_44 Depth 2
	cmpl	$0, -4(%rbp)
	jle	.LBB28_53
# %bb.2:                                # %while.body
                                        #   in Loop: Header=BB28_1 Depth=1
	cmpl	$100, -4(%rbp)
	jl	.LBB28_4
# %bb.3:                                # %if.then
                                        #   in Loop: Header=BB28_1 Depth=1
	movl	$1001, %edi             # imm = 0x3E9
	callq	BZ2_bz__AssertH__fail
.LBB28_4:                               # %if.end
                                        #   in Loop: Header=BB28_1 Depth=1
	movl	-4(%rbp), %eax
	addl	$-1, %eax
	movl	%eax, -4(%rbp)
	movslq	-4(%rbp), %rax
	movl	-1392(%rbp,%rax,4), %eax
	movl	%eax, -40(%rbp)
	movslq	-4(%rbp), %rax
	movl	-592(%rbp,%rax,4), %eax
	movl	%eax, -32(%rbp)
	movslq	-4(%rbp), %rax
	movl	-992(%rbp,%rax,4), %eax
	movl	%eax, -36(%rbp)
	movl	-32(%rbp), %eax
	subl	-40(%rbp), %eax
	cmpl	$20, %eax
	jl	.LBB28_6
# %bb.5:                                # %lor.lhs.false
                                        #   in Loop: Header=BB28_1 Depth=1
	cmpl	$14, -36(%rbp)
	jle	.LBB28_10
.LBB28_6:                               # %if.then14
                                        #   in Loop: Header=BB28_1 Depth=1
	movq	-24(%rbp), %rdi
	movq	-136(%rbp), %rsi
	movq	-184(%rbp), %rdx
	movl	-176(%rbp), %ecx
	movl	-40(%rbp), %r8d
	movl	-32(%rbp), %r9d
	movl	-36(%rbp), %eax
	movq	24(%rbp), %r10
	movl	%eax, (%rsp)
	movq	%r10, 8(%rsp)
	callq	mainSimpleSort
	movq	24(%rbp), %rax
	cmpl	$0, (%rax)
	jge	.LBB28_8
# %bb.7:                                # %if.then16
	jmp	.LBB28_54
.LBB28_8:                               # %if.end17
                                        #   in Loop: Header=BB28_1 Depth=1
	jmp	.LBB28_9
.LBB28_9:                               # %while.cond.backedge
                                        #   in Loop: Header=BB28_1 Depth=1
	jmp	.LBB28_1
.LBB28_10:                              # %if.end18
                                        #   in Loop: Header=BB28_1 Depth=1
	movq	-136(%rbp), %rax
	movq	-24(%rbp), %rcx
	movslq	-40(%rbp), %rdx
	movl	(%rcx,%rdx,4), %ecx
	addl	-36(%rbp), %ecx
	movl	%ecx, %ecx
	movb	(%rax,%rcx), %r8b
	movq	-136(%rbp), %rcx
	movq	-24(%rbp), %rdx
	movslq	-32(%rbp), %rsi
	movl	(%rdx,%rsi,4), %edx
	addl	-36(%rbp), %edx
	movl	%edx, %edx
	movb	(%rcx,%rdx), %cl
	movq	-136(%rbp), %rdx
	movq	-24(%rbp), %rsi
	movl	-40(%rbp), %edi
	addl	-32(%rbp), %edi
	sarl	$1, %edi
	movslq	%edi, %rdi
	movl	(%rsi,%rdi,4), %esi
	addl	-36(%rbp), %esi
	movl	%esi, %eax
	movzbl	%r8b, %edi
	movzbl	%cl, %esi
	movzbl	(%rdx,%rax), %edx
	callq	mmed3
	movzbl	%al, %eax
	movl	%eax, -140(%rbp)
	movl	-40(%rbp), %eax
	movl	%eax, -44(%rbp)
	movl	%eax, -8(%rbp)
	movl	-32(%rbp), %eax
	movl	%eax, -48(%rbp)
	movl	%eax, -12(%rbp)
.LBB28_11:                              # %while.body35
                                        #   Parent Loop BB28_1 Depth=1
                                        # =>  This Loop Header: Depth=2
                                        #       Child Loop BB28_12 Depth 3
                                        #       Child Loop BB28_21 Depth 3
	jmp	.LBB28_12
.LBB28_12:                              # %while.body37
                                        #   Parent Loop BB28_1 Depth=1
                                        #     Parent Loop BB28_11 Depth=2
                                        # =>    This Inner Loop Header: Depth=3
	movl	-8(%rbp), %eax
	cmpl	-12(%rbp), %eax
	jle	.LBB28_14
# %bb.13:                               # %if.then40
                                        #   in Loop: Header=BB28_11 Depth=2
	jmp	.LBB28_20
.LBB28_14:                              # %if.end41
                                        #   in Loop: Header=BB28_12 Depth=3
	movq	-136(%rbp), %rax
	movq	-24(%rbp), %rcx
	movslq	-8(%rbp), %rdx
	movl	(%rcx,%rdx,4), %ecx
	addl	-36(%rbp), %ecx
	movl	%ecx, %ecx
	movzbl	(%rax,%rcx), %eax
	subl	-140(%rbp), %eax
	movl	%eax, -28(%rbp)
	cmpl	$0, -28(%rbp)
	jne	.LBB28_17
# %bb.15:                               # %if.then51
                                        #   in Loop: Header=BB28_12 Depth=3
	movq	-24(%rbp), %rax
	movslq	-8(%rbp), %rcx
	movl	(%rax,%rcx,4), %eax
	movl	%eax, -156(%rbp)
	movq	-24(%rbp), %rax
	movslq	-44(%rbp), %rcx
	movl	(%rax,%rcx,4), %eax
	movq	-24(%rbp), %rcx
	movslq	-8(%rbp), %rdx
	movl	%eax, (%rcx,%rdx,4)
	movl	-156(%rbp), %eax
	movq	-24(%rbp), %rcx
	movslq	-44(%rbp), %rdx
	movl	%eax, (%rcx,%rdx,4)
	movl	-44(%rbp), %eax
	addl	$1, %eax
	movl	%eax, -44(%rbp)
	movl	-8(%rbp), %eax
	addl	$1, %eax
	movl	%eax, -8(%rbp)
.LBB28_16:                              # %while.body37.backedge
                                        #   in Loop: Header=BB28_12 Depth=3
	jmp	.LBB28_12
.LBB28_17:                              # %if.end62
                                        #   in Loop: Header=BB28_12 Depth=3
	cmpl	$0, -28(%rbp)
	jle	.LBB28_19
# %bb.18:                               # %if.then65
                                        #   in Loop: Header=BB28_11 Depth=2
	jmp	.LBB28_20
.LBB28_19:                              # %if.end66
                                        #   in Loop: Header=BB28_12 Depth=3
	movl	-8(%rbp), %eax
	addl	$1, %eax
	movl	%eax, -8(%rbp)
	jmp	.LBB28_16
.LBB28_20:                              # %while.end
                                        #   in Loop: Header=BB28_11 Depth=2
	jmp	.LBB28_21
.LBB28_21:                              # %while.body69
                                        #   Parent Loop BB28_1 Depth=1
                                        #     Parent Loop BB28_11 Depth=2
                                        # =>    This Inner Loop Header: Depth=3
	movl	-8(%rbp), %eax
	cmpl	-12(%rbp), %eax
	jle	.LBB28_23
# %bb.22:                               # %if.then72
                                        #   in Loop: Header=BB28_11 Depth=2
	jmp	.LBB28_29
.LBB28_23:                              # %if.end73
                                        #   in Loop: Header=BB28_21 Depth=3
	movq	-136(%rbp), %rax
	movq	-24(%rbp), %rcx
	movslq	-12(%rbp), %rdx
	movl	(%rcx,%rdx,4), %ecx
	addl	-36(%rbp), %ecx
	movl	%ecx, %ecx
	movzbl	(%rax,%rcx), %eax
	subl	-140(%rbp), %eax
	movl	%eax, -28(%rbp)
	cmpl	$0, -28(%rbp)
	jne	.LBB28_26
# %bb.24:                               # %if.then83
                                        #   in Loop: Header=BB28_21 Depth=3
	movq	-24(%rbp), %rax
	movslq	-12(%rbp), %rcx
	movl	(%rax,%rcx,4), %eax
	movl	%eax, -144(%rbp)
	movq	-24(%rbp), %rax
	movslq	-48(%rbp), %rcx
	movl	(%rax,%rcx,4), %eax
	movq	-24(%rbp), %rcx
	movslq	-12(%rbp), %rdx
	movl	%eax, (%rcx,%rdx,4)
	movl	-144(%rbp), %eax
	movq	-24(%rbp), %rcx
	movslq	-48(%rbp), %rdx
	movl	%eax, (%rcx,%rdx,4)
	movl	-48(%rbp), %eax
	addl	$-1, %eax
	movl	%eax, -48(%rbp)
	movl	-12(%rbp), %eax
	addl	$-1, %eax
	movl	%eax, -12(%rbp)
.LBB28_25:                              # %while.body69.backedge
                                        #   in Loop: Header=BB28_21 Depth=3
	jmp	.LBB28_21
.LBB28_26:                              # %if.end95
                                        #   in Loop: Header=BB28_21 Depth=3
	cmpl	$0, -28(%rbp)
	jge	.LBB28_28
# %bb.27:                               # %if.then98
                                        #   in Loop: Header=BB28_11 Depth=2
	jmp	.LBB28_29
.LBB28_28:                              # %if.end99
                                        #   in Loop: Header=BB28_21 Depth=3
	movl	-12(%rbp), %eax
	addl	$-1, %eax
	movl	%eax, -12(%rbp)
	jmp	.LBB28_25
.LBB28_29:                              # %while.end101
                                        #   in Loop: Header=BB28_11 Depth=2
	movl	-8(%rbp), %eax
	cmpl	-12(%rbp), %eax
	jle	.LBB28_31
# %bb.30:                               # %if.then104
                                        #   in Loop: Header=BB28_1 Depth=1
	jmp	.LBB28_32
.LBB28_31:                              # %if.end105
                                        #   in Loop: Header=BB28_11 Depth=2
	movq	-24(%rbp), %rax
	movslq	-8(%rbp), %rcx
	movl	(%rax,%rcx,4), %eax
	movl	%eax, -172(%rbp)
	movq	-24(%rbp), %rax
	movslq	-12(%rbp), %rcx
	movl	(%rax,%rcx,4), %eax
	movq	-24(%rbp), %rcx
	movslq	-8(%rbp), %rdx
	movl	%eax, (%rcx,%rdx,4)
	movl	-172(%rbp), %eax
	movq	-24(%rbp), %rcx
	movslq	-12(%rbp), %rdx
	movl	%eax, (%rcx,%rdx,4)
	movl	-8(%rbp), %eax
	addl	$1, %eax
	movl	%eax, -8(%rbp)
	movl	-12(%rbp), %eax
	addl	$-1, %eax
	movl	%eax, -12(%rbp)
	jmp	.LBB28_11
.LBB28_32:                              # %while.end117
                                        #   in Loop: Header=BB28_1 Depth=1
	movl	-48(%rbp), %eax
	cmpl	-44(%rbp), %eax
	jge	.LBB28_34
# %bb.33:                               # %if.then120
                                        #   in Loop: Header=BB28_1 Depth=1
	movl	-40(%rbp), %eax
	movslq	-4(%rbp), %rcx
	movl	%eax, -1392(%rbp,%rcx,4)
	movl	-32(%rbp), %eax
	movslq	-4(%rbp), %rcx
	movl	%eax, -592(%rbp,%rcx,4)
	movl	-36(%rbp), %eax
	addl	$1, %eax
	movslq	-4(%rbp), %rcx
	movl	%eax, -992(%rbp,%rcx,4)
	movl	-4(%rbp), %eax
	addl	$1, %eax
	movl	%eax, -4(%rbp)
	jmp	.LBB28_9
.LBB28_34:                              # %if.end129
                                        #   in Loop: Header=BB28_1 Depth=1
	movl	-44(%rbp), %eax
	subl	-40(%rbp), %eax
	movl	-8(%rbp), %ecx
	subl	-44(%rbp), %ecx
	cmpl	%ecx, %eax
	jge	.LBB28_36
# %bb.35:                               # %cond.true
                                        #   in Loop: Header=BB28_1 Depth=1
	movl	-44(%rbp), %eax
	subl	-40(%rbp), %eax
	jmp	.LBB28_37
.LBB28_36:                              # %cond.false
                                        #   in Loop: Header=BB28_1 Depth=1
	movl	-8(%rbp), %eax
	subl	-44(%rbp), %eax
.LBB28_37:                              # %cond.end
                                        #   in Loop: Header=BB28_1 Depth=1
	movl	%eax, -28(%rbp)
	movl	-40(%rbp), %eax
	movl	%eax, -104(%rbp)
	movl	-8(%rbp), %eax
	subl	-28(%rbp), %eax
	movl	%eax, -108(%rbp)
	movl	-28(%rbp), %eax
	movl	%eax, -124(%rbp)
.LBB28_38:                              # %while.cond137
                                        #   Parent Loop BB28_1 Depth=1
                                        # =>  This Inner Loop Header: Depth=2
	cmpl	$0, -124(%rbp)
	jle	.LBB28_40
# %bb.39:                               # %while.body140
                                        #   in Loop: Header=BB28_38 Depth=2
	movq	-24(%rbp), %rax
	movslq	-104(%rbp), %rcx
	movl	(%rax,%rcx,4), %eax
	movl	%eax, -168(%rbp)
	movq	-24(%rbp), %rax
	movslq	-108(%rbp), %rcx
	movl	(%rax,%rcx,4), %eax
	movq	-24(%rbp), %rcx
	movslq	-104(%rbp), %rdx
	movl	%eax, (%rcx,%rdx,4)
	movl	-168(%rbp), %eax
	movq	-24(%rbp), %rcx
	movslq	-108(%rbp), %rdx
	movl	%eax, (%rcx,%rdx,4)
	movl	-104(%rbp), %eax
	addl	$1, %eax
	movl	%eax, -104(%rbp)
	movl	-108(%rbp), %eax
	addl	$1, %eax
	movl	%eax, -108(%rbp)
	movl	-124(%rbp), %eax
	addl	$-1, %eax
	movl	%eax, -124(%rbp)
	jmp	.LBB28_38
.LBB28_40:                              # %while.end153
                                        #   in Loop: Header=BB28_1 Depth=1
	movl	-32(%rbp), %eax
	subl	-48(%rbp), %eax
	movl	-48(%rbp), %ecx
	subl	-12(%rbp), %ecx
	cmpl	%ecx, %eax
	jge	.LBB28_42
# %bb.41:                               # %cond.true158
                                        #   in Loop: Header=BB28_1 Depth=1
	movl	-32(%rbp), %eax
	subl	-48(%rbp), %eax
	jmp	.LBB28_43
.LBB28_42:                              # %cond.false160
                                        #   in Loop: Header=BB28_1 Depth=1
	movl	-48(%rbp), %eax
	subl	-12(%rbp), %eax
.LBB28_43:                              # %cond.end162
                                        #   in Loop: Header=BB28_1 Depth=1
	movl	%eax, -84(%rbp)
	movl	-8(%rbp), %eax
	movl	%eax, -112(%rbp)
	movl	-32(%rbp), %eax
	subl	-84(%rbp), %eax
	addl	$1, %eax
	movl	%eax, -116(%rbp)
	movl	-84(%rbp), %eax
	movl	%eax, -120(%rbp)
.LBB28_44:                              # %while.cond169
                                        #   Parent Loop BB28_1 Depth=1
                                        # =>  This Inner Loop Header: Depth=2
	cmpl	$0, -120(%rbp)
	jle	.LBB28_46
# %bb.45:                               # %while.body172
                                        #   in Loop: Header=BB28_44 Depth=2
	movq	-24(%rbp), %rax
	movslq	-112(%rbp), %rcx
	movl	(%rax,%rcx,4), %eax
	movl	%eax, -160(%rbp)
	movq	-24(%rbp), %rax
	movslq	-116(%rbp), %rcx
	movl	(%rax,%rcx,4), %eax
	movq	-24(%rbp), %rcx
	movslq	-112(%rbp), %rdx
	movl	%eax, (%rcx,%rdx,4)
	movl	-160(%rbp), %eax
	movq	-24(%rbp), %rcx
	movslq	-116(%rbp), %rdx
	movl	%eax, (%rcx,%rdx,4)
	movl	-112(%rbp), %eax
	addl	$1, %eax
	movl	%eax, -112(%rbp)
	movl	-116(%rbp), %eax
	addl	$1, %eax
	movl	%eax, -116(%rbp)
	movl	-120(%rbp), %eax
	addl	$-1, %eax
	movl	%eax, -120(%rbp)
	jmp	.LBB28_44
.LBB28_46:                              # %while.end185
                                        #   in Loop: Header=BB28_1 Depth=1
	movl	-40(%rbp), %eax
	addl	-8(%rbp), %eax
	subl	-44(%rbp), %eax
	subl	$1, %eax
	movl	%eax, -28(%rbp)
	movl	-32(%rbp), %eax
	movl	-48(%rbp), %ecx
	subl	-12(%rbp), %ecx
	subl	%ecx, %eax
	addl	$1, %eax
	movl	%eax, -84(%rbp)
	movl	-40(%rbp), %eax
	movl	%eax, -72(%rbp)
	movl	-28(%rbp), %eax
	movl	%eax, -60(%rbp)
	movl	-36(%rbp), %eax
	movl	%eax, -96(%rbp)
	movl	-84(%rbp), %eax
	movl	%eax, -68(%rbp)
	movl	-32(%rbp), %eax
	movl	%eax, -56(%rbp)
	movl	-36(%rbp), %eax
	movl	%eax, -92(%rbp)
	movl	-28(%rbp), %eax
	addl	$1, %eax
	movl	%eax, -64(%rbp)
	movl	-84(%rbp), %eax
	subl	$1, %eax
	movl	%eax, -52(%rbp)
	movl	-36(%rbp), %eax
	addl	$1, %eax
	movl	%eax, -88(%rbp)
	movl	-60(%rbp), %eax
	subl	-72(%rbp), %eax
	movl	-56(%rbp), %ecx
	subl	-68(%rbp), %ecx
	cmpl	%ecx, %eax
	jge	.LBB28_48
# %bb.47:                               # %if.then212
                                        #   in Loop: Header=BB28_1 Depth=1
	movl	-72(%rbp), %eax
	movl	%eax, -80(%rbp)
	movl	-68(%rbp), %eax
	movl	%eax, -72(%rbp)
	movl	-80(%rbp), %eax
	movl	%eax, -68(%rbp)
	movl	-60(%rbp), %eax
	movl	%eax, -80(%rbp)
	movl	-56(%rbp), %eax
	movl	%eax, -60(%rbp)
	movl	-80(%rbp), %eax
	movl	%eax, -56(%rbp)
	movl	-96(%rbp), %eax
	movl	%eax, -80(%rbp)
	movl	-92(%rbp), %eax
	movl	%eax, -96(%rbp)
	movl	-80(%rbp), %eax
	movl	%eax, -92(%rbp)
.LBB28_48:                              # %if.end225
                                        #   in Loop: Header=BB28_1 Depth=1
	movl	-56(%rbp), %eax
	subl	-68(%rbp), %eax
	movl	-52(%rbp), %ecx
	subl	-64(%rbp), %ecx
	cmpl	%ecx, %eax
	jge	.LBB28_50
# %bb.49:                               # %if.then234
                                        #   in Loop: Header=BB28_1 Depth=1
	movl	-68(%rbp), %eax
	movl	%eax, -100(%rbp)
	movl	-64(%rbp), %eax
	movl	%eax, -68(%rbp)
	movl	-100(%rbp), %eax
	movl	%eax, -64(%rbp)
	movl	-56(%rbp), %eax
	movl	%eax, -100(%rbp)
	movl	-52(%rbp), %eax
	movl	%eax, -56(%rbp)
	movl	-100(%rbp), %eax
	movl	%eax, -52(%rbp)
	movl	-92(%rbp), %eax
	movl	%eax, -100(%rbp)
	movl	-88(%rbp), %eax
	movl	%eax, -92(%rbp)
	movl	-100(%rbp), %eax
	movl	%eax, -88(%rbp)
.LBB28_50:                              # %if.end248
                                        #   in Loop: Header=BB28_1 Depth=1
	movl	-60(%rbp), %eax
	subl	-72(%rbp), %eax
	movl	-56(%rbp), %ecx
	subl	-68(%rbp), %ecx
	cmpl	%ecx, %eax
	jge	.LBB28_52
# %bb.51:                               # %if.then257
                                        #   in Loop: Header=BB28_1 Depth=1
	movl	-72(%rbp), %eax
	movl	%eax, -76(%rbp)
	movl	-68(%rbp), %eax
	movl	%eax, -72(%rbp)
	movl	-76(%rbp), %eax
	movl	%eax, -68(%rbp)
	movl	-60(%rbp), %eax
	movl	%eax, -76(%rbp)
	movl	-56(%rbp), %eax
	movl	%eax, -60(%rbp)
	movl	-76(%rbp), %eax
	movl	%eax, -56(%rbp)
	movl	-96(%rbp), %eax
	movl	%eax, -76(%rbp)
	movl	-92(%rbp), %eax
	movl	%eax, -96(%rbp)
	movl	-76(%rbp), %eax
	movl	%eax, -92(%rbp)
.LBB28_52:                              # %if.end271
                                        #   in Loop: Header=BB28_1 Depth=1
	movl	-72(%rbp), %eax
	movslq	-4(%rbp), %rcx
	movl	%eax, -1392(%rbp,%rcx,4)
	movl	-60(%rbp), %eax
	movslq	-4(%rbp), %rcx
	movl	%eax, -592(%rbp,%rcx,4)
	movl	-96(%rbp), %eax
	movslq	-4(%rbp), %rcx
	movl	%eax, -992(%rbp,%rcx,4)
	movl	-4(%rbp), %eax
	addl	$1, %eax
	movl	%eax, -4(%rbp)
	movl	-68(%rbp), %eax
	movslq	-4(%rbp), %rcx
	movl	%eax, -1392(%rbp,%rcx,4)
	movl	-56(%rbp), %eax
	movslq	-4(%rbp), %rcx
	movl	%eax, -592(%rbp,%rcx,4)
	movl	-92(%rbp), %eax
	movslq	-4(%rbp), %rcx
	movl	%eax, -992(%rbp,%rcx,4)
	movl	-4(%rbp), %eax
	addl	$1, %eax
	movl	%eax, -4(%rbp)
	movl	-64(%rbp), %eax
	movslq	-4(%rbp), %rcx
	movl	%eax, -1392(%rbp,%rcx,4)
	movl	-52(%rbp), %eax
	movslq	-4(%rbp), %rcx
	movl	%eax, -592(%rbp,%rcx,4)
	movl	-88(%rbp), %eax
	movslq	-4(%rbp), %rcx
	movl	%eax, -992(%rbp,%rcx,4)
	movl	-4(%rbp), %eax
	addl	$1, %eax
	movl	%eax, -4(%rbp)
	jmp	.LBB28_9
.LBB28_53:                              # %while.end302.loopexit
	jmp	.LBB28_54
.LBB28_54:                              # %while.end302
	cmpl	$1264375478, -164(%rbp) # imm = 0x4B5CD6B6
	jne	.LBB28_56
.LBB28_55:
	addq	$1408, %rsp             # imm = 0x580
	popq	%rbp
	.cfi_def_cfa %rsp, 8
	retq
.LBB28_56:                              # %func_exit
	.cfi_def_cfa %rbp, 16
	callq	detect_breach
	jmp	.LBB28_55
.Lfunc_end28:
