	.text
	.file	"blocksort.c"
	.globl	BZ2_blockSort           # -- Begin function BZ2_blockSort
	.p2align	4, 0x90
	.type	BZ2_blockSort,@function
BZ2_blockSort:                          # @BZ2_blockSort
	.cfi_startproc
# %bb.0:                                # %rand_bb
	pushq	%rbp
	.cfi_def_cfa_offset 16
	.cfi_offset %rbp, -16
	movq	%rsp, %rbp
	.cfi_def_cfa_register %rbp
	pushq	%rbx
	pushq	%rax
	.cfi_offset %rbx, -24
	movq	%rdi, %rbx
	callq	get_rand
	cmpl	$0, %eax
	jne	.LBB0_17
# %bb.1:                                # %func_BZ2_blockSort.8
	movq	%rbx, %rdi
	callq	BZ2_blockSort.8
	addq	$8, %rsp
	popq	%rbx
	popq	%rbp
	.cfi_def_cfa %rsp, 8
	retq
.LBB0_2:                                # %func_BZ2_blockSort.29
	.cfi_def_cfa %rbp, 16
	movq	%rbx, %rdi
	callq	BZ2_blockSort.29
	addq	$8, %rsp
	popq	%rbx
	popq	%rbp
	.cfi_def_cfa %rsp, 8
	retq
.LBB0_3:                                # %func_BZ2_blockSort.33
	.cfi_def_cfa %rbp, 16
	movq	%rbx, %rdi
	callq	BZ2_blockSort.33
	addq	$8, %rsp
	popq	%rbx
	popq	%rbp
	.cfi_def_cfa %rsp, 8
	retq
.LBB0_4:                                # %func_BZ2_blockSort.57
	.cfi_def_cfa %rbp, 16
	movq	%rbx, %rdi
	callq	BZ2_blockSort.57
	addq	$8, %rsp
	popq	%rbx
	popq	%rbp
	.cfi_def_cfa %rsp, 8
	retq
.LBB0_5:                                # %func_BZ2_blockSort.72
	.cfi_def_cfa %rbp, 16
	movq	%rbx, %rdi
	callq	BZ2_blockSort.72
	addq	$8, %rsp
	popq	%rbx
	popq	%rbp
	.cfi_def_cfa %rsp, 8
	retq
.LBB0_6:                                # %func_BZ2_blockSort.73
	.cfi_def_cfa %rbp, 16
	movq	%rbx, %rdi
	callq	BZ2_blockSort.73
	addq	$8, %rsp
	popq	%rbx
	popq	%rbp
	.cfi_def_cfa %rsp, 8
	retq
.LBB0_7:                                # %func_BZ2_blockSort.96
	.cfi_def_cfa %rbp, 16
	movq	%rbx, %rdi
	callq	BZ2_blockSort.96
	addq	$8, %rsp
	popq	%rbx
	popq	%rbp
	.cfi_def_cfa %rsp, 8
	retq
.LBB0_8:                                # %func_BZ2_blockSort.105
	.cfi_def_cfa %rbp, 16
	movq	%rbx, %rdi
	callq	BZ2_blockSort.105
	addq	$8, %rsp
	popq	%rbx
	popq	%rbp
	.cfi_def_cfa %rsp, 8
	retq
.LBB0_9:                                # %func_BZ2_blockSort.108
	.cfi_def_cfa %rbp, 16
	movq	%rbx, %rdi
	callq	BZ2_blockSort.108
	addq	$8, %rsp
	popq	%rbx
	popq	%rbp
	.cfi_def_cfa %rsp, 8
	retq
.LBB0_10:                               # %func_BZ2_blockSort.111
	.cfi_def_cfa %rbp, 16
	movq	%rbx, %rdi
	callq	BZ2_blockSort.111
	addq	$8, %rsp
	popq	%rbx
	popq	%rbp
	.cfi_def_cfa %rsp, 8
	retq
.LBB0_11:                               # %func_BZ2_blockSort.127
	.cfi_def_cfa %rbp, 16
	movq	%rbx, %rdi
	callq	BZ2_blockSort.127
	addq	$8, %rsp
	popq	%rbx
	popq	%rbp
	.cfi_def_cfa %rsp, 8
	retq
.LBB0_12:                               # %func_BZ2_blockSort.133
	.cfi_def_cfa %rbp, 16
	movq	%rbx, %rdi
	callq	BZ2_blockSort.133
	addq	$8, %rsp
	popq	%rbx
	popq	%rbp
	.cfi_def_cfa %rsp, 8
	retq
.LBB0_13:                               # %func_BZ2_blockSort.138
	.cfi_def_cfa %rbp, 16
	movq	%rbx, %rdi
	callq	BZ2_blockSort.138
	addq	$8, %rsp
	popq	%rbx
	popq	%rbp
	.cfi_def_cfa %rsp, 8
	retq
.LBB0_14:                               # %func_BZ2_blockSort.142
	.cfi_def_cfa %rbp, 16
	movq	%rbx, %rdi
	callq	BZ2_blockSort.142
	addq	$8, %rsp
	popq	%rbx
	popq	%rbp
	.cfi_def_cfa %rsp, 8
	retq
.LBB0_15:                               # %func_BZ2_blockSort.143
	.cfi_def_cfa %rbp, 16
	movq	%rbx, %rdi
	callq	BZ2_blockSort.143
	addq	$8, %rsp
	popq	%rbx
	popq	%rbp
	.cfi_def_cfa %rsp, 8
	retq
.LBB0_16:                               # %func_BZ2_blockSort.144
	.cfi_def_cfa %rbp, 16
	movq	%rbx, %rdi
	callq	BZ2_blockSort.144
	addq	$8, %rsp
	popq	%rbx
	popq	%rbp
	.cfi_def_cfa %rsp, 8
	retq
.LBB0_17:                               # %ctrl0
	.cfi_def_cfa %rbp, 16
	cmpl	$1, %eax
	je	.LBB0_2
# %bb.18:                               # %ctrl1
	cmpl	$2, %eax
	je	.LBB0_3
# %bb.19:                               # %ctrl2
	cmpl	$3, %eax
	je	.LBB0_4
# %bb.20:                               # %ctrl3
	cmpl	$4, %eax
	je	.LBB0_5
# %bb.21:                               # %ctrl4
	cmpl	$5, %eax
	je	.LBB0_6
# %bb.22:                               # %ctrl5
	cmpl	$6, %eax
	je	.LBB0_7
# %bb.23:                               # %ctrl6
	cmpl	$7, %eax
	je	.LBB0_8
# %bb.24:                               # %ctrl7
	cmpl	$8, %eax
	je	.LBB0_9
# %bb.25:                               # %ctrl8
	cmpl	$9, %eax
	je	.LBB0_10
# %bb.26:                               # %ctrl9
	cmpl	$10, %eax
	je	.LBB0_11
# %bb.27:                               # %ctrl10
	cmpl	$11, %eax
	je	.LBB0_12
# %bb.28:                               # %ctrl11
	cmpl	$12, %eax
	je	.LBB0_13
# %bb.29:                               # %ctrl12
	cmpl	$13, %eax
	je	.LBB0_14
# %bb.30:                               # %ctrl13
	cmpl	$14, %eax
	je	.LBB0_15
	jmp	.LBB0_16
.Lfunc_end0:
	.size	BZ2_blockSort, .Lfunc_end0-BZ2_blockSort
	.cfi_endproc
                                        # -- End function
	.p2align	4, 0x90         # -- Begin function fallbackSort
	.type	fallbackSort,@function
fallbackSort:                           # @fallbackSort
	.cfi_startproc
# %bb.0:                                # %rand_bb
	pushq	%rbp
	.cfi_def_cfa_offset 16
	.cfi_offset %rbp, -16
	movq	%rsp, %rbp
	.cfi_def_cfa_register %rbp
	pushq	%r15
	pushq	%r14
	pushq	%r13
	pushq	%r12
	pushq	%rbx
	pushq	%rax
	.cfi_offset %rbx, -56
	.cfi_offset %r12, -48
	.cfi_offset %r13, -40
	.cfi_offset %r14, -32
	.cfi_offset %r15, -24
	movl	%r8d, %r14d
	movl	%ecx, %r15d
	movq	%rdx, %r12
	movq	%rsi, %r13
	movq	%rdi, %rbx
	callq	get_rand
	cmpl	$0, %eax
	jne	.LBB1_17
# %bb.1:                                # %func_fallbackSort.23
	movq	%rbx, %rdi
	movq	%r13, %rsi
	movq	%r12, %rdx
	movl	%r15d, %ecx
	movl	%r14d, %r8d
	callq	fallbackSort.23
	addq	$8, %rsp
	popq	%rbx
	popq	%r12
	popq	%r13
	popq	%r14
	popq	%r15
	popq	%rbp
	.cfi_def_cfa %rsp, 8
	retq
.LBB1_2:                                # %func_fallbackSort.34
	.cfi_def_cfa %rbp, 16
	movq	%rbx, %rdi
	movq	%r13, %rsi
	movq	%r12, %rdx
	movl	%r15d, %ecx
	movl	%r14d, %r8d
	callq	fallbackSort.34
	addq	$8, %rsp
	popq	%rbx
	popq	%r12
	popq	%r13
	popq	%r14
	popq	%r15
	popq	%rbp
	.cfi_def_cfa %rsp, 8
	retq
.LBB1_3:                                # %func_fallbackSort.60
	.cfi_def_cfa %rbp, 16
	movq	%rbx, %rdi
	movq	%r13, %rsi
	movq	%r12, %rdx
	movl	%r15d, %ecx
	movl	%r14d, %r8d
	callq	fallbackSort.60
	addq	$8, %rsp
	popq	%rbx
	popq	%r12
	popq	%r13
	popq	%r14
	popq	%r15
	popq	%rbp
	.cfi_def_cfa %rsp, 8
	retq
.LBB1_4:                                # %func_fallbackSort.67
	.cfi_def_cfa %rbp, 16
	movq	%rbx, %rdi
	movq	%r13, %rsi
	movq	%r12, %rdx
	movl	%r15d, %ecx
	movl	%r14d, %r8d
	callq	fallbackSort.67
	addq	$8, %rsp
	popq	%rbx
	popq	%r12
	popq	%r13
	popq	%r14
	popq	%r15
	popq	%rbp
	.cfi_def_cfa %rsp, 8
	retq
.LBB1_5:                                # %func_fallbackSort.83
	.cfi_def_cfa %rbp, 16
	movq	%rbx, %rdi
	movq	%r13, %rsi
	movq	%r12, %rdx
	movl	%r15d, %ecx
	movl	%r14d, %r8d
	callq	fallbackSort.83
	addq	$8, %rsp
	popq	%rbx
	popq	%r12
	popq	%r13
	popq	%r14
	popq	%r15
	popq	%rbp
	.cfi_def_cfa %rsp, 8
	retq
.LBB1_6:                                # %func_fallbackSort.100
	.cfi_def_cfa %rbp, 16
	movq	%rbx, %rdi
	movq	%r13, %rsi
	movq	%r12, %rdx
	movl	%r15d, %ecx
	movl	%r14d, %r8d
	callq	fallbackSort.100
	addq	$8, %rsp
	popq	%rbx
	popq	%r12
	popq	%r13
	popq	%r14
	popq	%r15
	popq	%rbp
	.cfi_def_cfa %rsp, 8
	retq
.LBB1_7:                                # %func_fallbackSort.102
	.cfi_def_cfa %rbp, 16
	movq	%rbx, %rdi
	movq	%r13, %rsi
	movq	%r12, %rdx
	movl	%r15d, %ecx
	movl	%r14d, %r8d
	callq	fallbackSort.102
	addq	$8, %rsp
	popq	%rbx
	popq	%r12
	popq	%r13
	popq	%r14
	popq	%r15
	popq	%rbp
	.cfi_def_cfa %rsp, 8
	retq
.LBB1_8:                                # %func_fallbackSort.103
	.cfi_def_cfa %rbp, 16
	movq	%rbx, %rdi
	movq	%r13, %rsi
	movq	%r12, %rdx
	movl	%r15d, %ecx
	movl	%r14d, %r8d
	callq	fallbackSort.103
	addq	$8, %rsp
	popq	%rbx
	popq	%r12
	popq	%r13
	popq	%r14
	popq	%r15
	popq	%rbp
	.cfi_def_cfa %rsp, 8
	retq
.LBB1_9:                                # %func_fallbackSort.107
	.cfi_def_cfa %rbp, 16
	movq	%rbx, %rdi
	movq	%r13, %rsi
	movq	%r12, %rdx
	movl	%r15d, %ecx
	movl	%r14d, %r8d
	callq	fallbackSort.107
	addq	$8, %rsp
	popq	%rbx
	popq	%r12
	popq	%r13
	popq	%r14
	popq	%r15
	popq	%rbp
	.cfi_def_cfa %rsp, 8
	retq
.LBB1_10:                               # %func_fallbackSort.114
	.cfi_def_cfa %rbp, 16
	movq	%rbx, %rdi
	movq	%r13, %rsi
	movq	%r12, %rdx
	movl	%r15d, %ecx
	movl	%r14d, %r8d
	callq	fallbackSort.114
	addq	$8, %rsp
	popq	%rbx
	popq	%r12
	popq	%r13
	popq	%r14
	popq	%r15
	popq	%rbp
	.cfi_def_cfa %rsp, 8
	retq
.LBB1_11:                               # %func_fallbackSort.116
	.cfi_def_cfa %rbp, 16
	movq	%rbx, %rdi
	movq	%r13, %rsi
	movq	%r12, %rdx
	movl	%r15d, %ecx
	movl	%r14d, %r8d
	callq	fallbackSort.116
	addq	$8, %rsp
	popq	%rbx
	popq	%r12
	popq	%r13
	popq	%r14
	popq	%r15
	popq	%rbp
	.cfi_def_cfa %rsp, 8
	retq
.LBB1_12:                               # %func_fallbackSort.128
	.cfi_def_cfa %rbp, 16
	movq	%rbx, %rdi
	movq	%r13, %rsi
	movq	%r12, %rdx
	movl	%r15d, %ecx
	movl	%r14d, %r8d
	callq	fallbackSort.128
	addq	$8, %rsp
	popq	%rbx
	popq	%r12
	popq	%r13
	popq	%r14
	popq	%r15
	popq	%rbp
	.cfi_def_cfa %rsp, 8
	retq
.LBB1_13:                               # %func_fallbackSort.130
	.cfi_def_cfa %rbp, 16
	movq	%rbx, %rdi
	movq	%r13, %rsi
	movq	%r12, %rdx
	movl	%r15d, %ecx
	movl	%r14d, %r8d
	callq	fallbackSort.130
	addq	$8, %rsp
	popq	%rbx
	popq	%r12
	popq	%r13
	popq	%r14
	popq	%r15
	popq	%rbp
	.cfi_def_cfa %rsp, 8
	retq
.LBB1_14:                               # %func_fallbackSort.136
	.cfi_def_cfa %rbp, 16
	movq	%rbx, %rdi
	movq	%r13, %rsi
	movq	%r12, %rdx
	movl	%r15d, %ecx
	movl	%r14d, %r8d
	callq	fallbackSort.136
	addq	$8, %rsp
	popq	%rbx
	popq	%r12
	popq	%r13
	popq	%r14
	popq	%r15
	popq	%rbp
	.cfi_def_cfa %rsp, 8
	retq
.LBB1_15:                               # %func_fallbackSort.137
	.cfi_def_cfa %rbp, 16
	movq	%rbx, %rdi
	movq	%r13, %rsi
	movq	%r12, %rdx
	movl	%r15d, %ecx
	movl	%r14d, %r8d
	callq	fallbackSort.137
	addq	$8, %rsp
	popq	%rbx
	popq	%r12
	popq	%r13
	popq	%r14
	popq	%r15
	popq	%rbp
	.cfi_def_cfa %rsp, 8
	retq
.LBB1_16:                               # %func_fallbackSort.139
	.cfi_def_cfa %rbp, 16
	movq	%rbx, %rdi
	movq	%r13, %rsi
	movq	%r12, %rdx
	movl	%r15d, %ecx
	movl	%r14d, %r8d
	callq	fallbackSort.139
	addq	$8, %rsp
	popq	%rbx
	popq	%r12
	popq	%r13
	popq	%r14
	popq	%r15
	popq	%rbp
	.cfi_def_cfa %rsp, 8
	retq
.LBB1_17:                               # %ctrl0
	.cfi_def_cfa %rbp, 16
	cmpl	$1, %eax
	je	.LBB1_2
# %bb.18:                               # %ctrl1
	cmpl	$2, %eax
	je	.LBB1_3
# %bb.19:                               # %ctrl2
	cmpl	$3, %eax
	je	.LBB1_4
# %bb.20:                               # %ctrl3
	cmpl	$4, %eax
	je	.LBB1_5
# %bb.21:                               # %ctrl4
	cmpl	$5, %eax
	je	.LBB1_6
# %bb.22:                               # %ctrl5
	cmpl	$6, %eax
	je	.LBB1_7
# %bb.23:                               # %ctrl6
	cmpl	$7, %eax
	je	.LBB1_8
# %bb.24:                               # %ctrl7
	cmpl	$8, %eax
	je	.LBB1_9
# %bb.25:                               # %ctrl8
	cmpl	$9, %eax
	je	.LBB1_10
# %bb.26:                               # %ctrl9
	cmpl	$10, %eax
	je	.LBB1_11
# %bb.27:                               # %ctrl10
	cmpl	$11, %eax
	je	.LBB1_12
# %bb.28:                               # %ctrl11
	cmpl	$12, %eax
	je	.LBB1_13
# %bb.29:                               # %ctrl12
	cmpl	$13, %eax
	je	.LBB1_14
# %bb.30:                               # %ctrl13
	cmpl	$14, %eax
	je	.LBB1_15
	jmp	.LBB1_16
.Lfunc_end1:
	.size	fallbackSort, .Lfunc_end1-fallbackSort
	.cfi_endproc
                                        # -- End function
	.p2align	4, 0x90         # -- Begin function mainSort
	.type	mainSort,@function
mainSort:                               # @mainSort
	.cfi_startproc
# %bb.0:                                # %rand_bb
	pushq	%rbp
	.cfi_def_cfa_offset 16
	.cfi_offset %rbp, -16
	movq	%rsp, %rbp
	.cfi_def_cfa_register %rbp
	pushq	%r15
	pushq	%r14
	pushq	%r13
	pushq	%r12
	pushq	%rbx
	subq	$24, %rsp
	.cfi_offset %rbx, -56
	.cfi_offset %r12, -48
	.cfi_offset %r13, -40
	.cfi_offset %r14, -32
	.cfi_offset %r15, -24
	movl	%r9d, -44(%rbp)         # 4-byte Spill
	movl	%r8d, %r13d
	movq	%rcx, %rbx
	movq	%rdx, %r14
	movq	%rsi, %r15
	movq	%rdi, %r12
	callq	get_rand
	cmpl	$0, %eax
	jne	.LBB2_17
# %bb.1:                                # %func_mainSort.3
	movq	%r12, %rdi
	movq	%r15, %rsi
	movq	%r14, %rdx
	movq	%rbx, %rcx
	movl	%r13d, %r8d
	movl	-44(%rbp), %r9d         # 4-byte Reload
	movq	16(%rbp), %rax
	movq	%rax, (%rsp)
	callq	mainSort.3
	addq	$24, %rsp
	popq	%rbx
	popq	%r12
	popq	%r13
	popq	%r14
	popq	%r15
	popq	%rbp
	.cfi_def_cfa %rsp, 8
	retq
.LBB2_2:                                # %func_mainSort.4
	.cfi_def_cfa %rbp, 16
	movq	%r15, %rsi
	movl	%r12d, %r9d
	movq	16(%rbp), %rax
	movq	%rax, (%rsp)
	callq	mainSort.4
	addq	$24, %rsp
	popq	%rbx
	popq	%r12
	popq	%r13
	popq	%r14
	popq	%r15
	popq	%rbp
	.cfi_def_cfa %rsp, 8
	retq
.LBB2_3:                                # %func_mainSort.20
	.cfi_def_cfa %rbp, 16
	movq	%r10, %rdi
	movq	%rbx, %rdx
	movq	%r14, %rcx
	movl	%r13d, %r8d
	movq	%r11, (%rsp)
	callq	mainSort.20
	addq	$24, %rsp
	popq	%rbx
	popq	%r12
	popq	%r13
	popq	%r14
	popq	%r15
	popq	%rbp
	.cfi_def_cfa %rsp, 8
	retq
.LBB2_4:                                # %func_mainSort.37
	.cfi_def_cfa %rbp, 16
	movq	%r10, %rdi
	movq	-56(%rbp), %rsi         # 8-byte Reload
	movq	%rbx, %rdx
	movq	%r14, %rcx
	movl	%r13d, %r8d
	movl	-44(%rbp), %r9d         # 4-byte Reload
	movq	%r11, (%rsp)
	callq	mainSort.37
	addq	$24, %rsp
	popq	%rbx
	popq	%r12
	popq	%r13
	popq	%r14
	popq	%r15
	popq	%rbp
	.cfi_def_cfa %rsp, 8
	retq
.LBB2_5:                                # %func_mainSort.38
	.cfi_def_cfa %rbp, 16
	movq	%r10, %rdi
	movq	-56(%rbp), %rsi         # 8-byte Reload
	movq	%rbx, %rdx
	movq	%r14, %rcx
	movl	%r9d, %r8d
	movl	-44(%rbp), %r9d         # 4-byte Reload
	movq	%r11, (%rsp)
	callq	mainSort.38
	addq	$24, %rsp
	popq	%rbx
	popq	%r12
	popq	%r13
	popq	%r14
	popq	%r15
	popq	%rbp
	.cfi_def_cfa %rsp, 8
	retq
.LBB2_6:                                # %func_mainSort.44
	.cfi_def_cfa %rbp, 16
	movq	%r10, %rdi
	movq	-56(%rbp), %rsi         # 8-byte Reload
	movq	%rbx, %rdx
	movq	%r13, %rcx
	movl	%r9d, %r8d
	movl	-44(%rbp), %r9d         # 4-byte Reload
	movq	%r11, (%rsp)
	callq	mainSort.44
	addq	$24, %rsp
	popq	%rbx
	popq	%r12
	popq	%r13
	popq	%r14
	popq	%r15
	popq	%rbp
	.cfi_def_cfa %rsp, 8
	retq
.LBB2_7:                                # %func_mainSort.48
	.cfi_def_cfa %rbp, 16
	movq	%r10, %rdi
	movq	-56(%rbp), %rsi         # 8-byte Reload
	movq	%r14, %rdx
	movq	%r13, %rcx
	movl	%r9d, %r8d
	movl	-44(%rbp), %r9d         # 4-byte Reload
	movq	%r11, (%rsp)
	callq	mainSort.48
	addq	$24, %rsp
	popq	%rbx
	popq	%r12
	popq	%r13
	popq	%r14
	popq	%r15
	popq	%rbp
	.cfi_def_cfa %rsp, 8
	retq
.LBB2_8:                                # %func_mainSort.50
	.cfi_def_cfa %rbp, 16
	movq	%r10, %rdi
	movq	%rbx, %rsi
	movq	%r14, %rdx
	movq	%r13, %rcx
	movl	%r9d, %r8d
	movl	-44(%rbp), %r9d         # 4-byte Reload
	movq	%r11, (%rsp)
	callq	mainSort.50
	addq	$24, %rsp
	popq	%rbx
	popq	%r12
	popq	%r13
	popq	%r14
	popq	%r15
	popq	%rbp
	.cfi_def_cfa %rsp, 8
	retq
.LBB2_9:                                # %func_mainSort.51
	.cfi_def_cfa %rbp, 16
	movq	%r10, %rdi
	movq	%rbx, %rsi
	movq	%r14, %rdx
	movq	%r13, %rcx
	movl	%r9d, %r8d
	movl	-44(%rbp), %r9d         # 4-byte Reload
	movq	%r11, (%rsp)
	callq	mainSort.51
	addq	$24, %rsp
	popq	%rbx
	popq	%r12
	popq	%r13
	popq	%r14
	popq	%r15
	popq	%rbp
	.cfi_def_cfa %rsp, 8
	retq
.LBB2_10:                               # %func_mainSort.64
	.cfi_def_cfa %rbp, 16
	movq	%r10, %rdi
	movq	%rbx, %rsi
	movq	%r14, %rdx
	movq	%r13, %rcx
	movl	%r9d, %r8d
	movl	-44(%rbp), %r9d         # 4-byte Reload
	movq	%r11, (%rsp)
	callq	mainSort.64
	addq	$24, %rsp
	popq	%rbx
	popq	%r12
	popq	%r13
	popq	%r14
	popq	%r15
	popq	%rbp
	.cfi_def_cfa %rsp, 8
	retq
.LBB2_11:                               # %func_mainSort.75
	.cfi_def_cfa %rbp, 16
	movq	%r10, %rdi
	movq	%rbx, %rsi
	movq	%r14, %rdx
	movq	%r13, %rcx
	movl	%r9d, %r8d
	movl	-44(%rbp), %r9d         # 4-byte Reload
	movq	%r11, (%rsp)
	callq	mainSort.75
	addq	$24, %rsp
	popq	%rbx
	popq	%r12
	popq	%r13
	popq	%r14
	popq	%r15
	popq	%rbp
	.cfi_def_cfa %rsp, 8
	retq
.LBB2_12:                               # %func_mainSort.85
	.cfi_def_cfa %rbp, 16
	movq	%r10, %rdi
	movq	%rbx, %rsi
	movq	%r14, %rdx
	movq	%r13, %rcx
	movl	%r9d, %r8d
	movl	-44(%rbp), %r9d         # 4-byte Reload
	movq	%r11, (%rsp)
	callq	mainSort.85
	addq	$24, %rsp
	popq	%rbx
	popq	%r12
	popq	%r13
	popq	%r14
	popq	%r15
	popq	%rbp
	.cfi_def_cfa %rsp, 8
	retq
.LBB2_13:                               # %func_mainSort.89
	.cfi_def_cfa %rbp, 16
	movq	%r10, %rdi
	movq	%rbx, %rsi
	movq	%r14, %rdx
	movq	%r13, %rcx
	movl	%r9d, %r8d
	movl	-44(%rbp), %r9d         # 4-byte Reload
	movq	%r11, (%rsp)
	callq	mainSort.89
	addq	$24, %rsp
	popq	%rbx
	popq	%r12
	popq	%r13
	popq	%r14
	popq	%r15
	popq	%rbp
	.cfi_def_cfa %rsp, 8
	retq
.LBB2_14:                               # %func_mainSort.91
	.cfi_def_cfa %rbp, 16
	movq	%r10, %rdi
	movq	%rbx, %rsi
	movq	%r14, %rdx
	movq	%r13, %rcx
	movl	%r9d, %r8d
	movl	-44(%rbp), %r9d         # 4-byte Reload
	movq	%r11, (%rsp)
	callq	mainSort.91
	addq	$24, %rsp
	popq	%rbx
	popq	%r12
	popq	%r13
	popq	%r14
	popq	%r15
	popq	%rbp
	.cfi_def_cfa %rsp, 8
	retq
.LBB2_15:                               # %func_mainSort.109
	.cfi_def_cfa %rbp, 16
	movq	%r15, %rsi
	movl	%r12d, %r9d
	movq	16(%rbp), %rax
	movq	%rax, (%rsp)
	callq	mainSort.109
	addq	$24, %rsp
	popq	%rbx
	popq	%r12
	popq	%r13
	popq	%r14
	popq	%r15
	popq	%rbp
	.cfi_def_cfa %rsp, 8
	retq
.LBB2_16:                               # %func_mainSort.115
	.cfi_def_cfa %rbp, 16
	movq	%r15, %rsi
	movl	%r12d, %r9d
	movq	16(%rbp), %rax
	movq	%rax, (%rsp)
	callq	mainSort.115
	addq	$24, %rsp
	popq	%rbx
	popq	%r12
	popq	%r13
	popq	%r14
	popq	%r15
	popq	%rbp
	.cfi_def_cfa %rsp, 8
	retq
.LBB2_17:                               # %ctrl0
	.cfi_def_cfa %rbp, 16
	movq	%r12, %rdi
	movq	%r14, %rdx
	movq	%rbx, %rcx
	movl	%r13d, %r8d
	movl	-44(%rbp), %r12d        # 4-byte Reload
	cmpl	$1, %eax
	je	.LBB2_2
# %bb.18:                               # %ctrl1
	cmpl	$2, %eax
	movq	16(%rbp), %r11
	movl	%r12d, %r9d
	movl	%r8d, %r13d
	movq	%rcx, %r14
	movq	%rdx, %rbx
	movq	%r15, %rsi
	movq	%rdi, %r10
	je	.LBB2_3
# %bb.19:                               # %ctrl2
	movq	%rsi, -56(%rbp)         # 8-byte Spill
	cmpl	$3, %eax
	je	.LBB2_4
# %bb.20:                               # %ctrl3
	cmpl	$4, %eax
	movl	%r13d, %r9d
	je	.LBB2_5
# %bb.21:                               # %ctrl4
	cmpl	$5, %eax
	movq	%r14, %r13
	je	.LBB2_6
# %bb.22:                               # %ctrl5
	cmpl	$6, %eax
	movq	%rbx, %r14
	je	.LBB2_7
# %bb.23:                               # %ctrl6
	cmpl	$7, %eax
	movq	-56(%rbp), %rbx         # 8-byte Reload
	je	.LBB2_8
# %bb.24:                               # %ctrl7
	cmpl	$8, %eax
	je	.LBB2_9
# %bb.25:                               # %ctrl8
	cmpl	$9, %eax
	je	.LBB2_10
# %bb.26:                               # %ctrl9
	cmpl	$10, %eax
	je	.LBB2_11
# %bb.27:                               # %ctrl10
	cmpl	$11, %eax
	je	.LBB2_12
# %bb.28:                               # %ctrl11
	cmpl	$12, %eax
	je	.LBB2_13
# %bb.29:                               # %ctrl12
	cmpl	$13, %eax
	je	.LBB2_14
# %bb.30:                               # %ctrl13
	cmpl	$14, %eax
	je	.LBB2_15
	jmp	.LBB2_16
.Lfunc_end2:
	.size	mainSort, .Lfunc_end2-mainSort
	.cfi_endproc
                                        # -- End function
	.p2align	4, 0x90         # -- Begin function fallbackQSort3
	.type	fallbackQSort3,@function
fallbackQSort3:                         # @fallbackQSort3
	.cfi_startproc
# %bb.0:                                # %rand_bb
	pushq	%rbp
	.cfi_def_cfa_offset 16
	.cfi_offset %rbp, -16
	movq	%rsp, %rbp
	.cfi_def_cfa_register %rbp
	pushq	%r15
	pushq	%r14
	pushq	%r12
	pushq	%rbx
	.cfi_offset %rbx, -48
	.cfi_offset %r12, -40
	.cfi_offset %r14, -32
	.cfi_offset %r15, -24
	movl	%ecx, %r14d
	movl	%edx, %r15d
	movq	%rsi, %r12
	movq	%rdi, %rbx
	callq	get_rand
	cmpl	$0, %eax
	jne	.LBB3_17
# %bb.1:                                # %func_fallbackQSort3.6
	movq	%rbx, %rdi
	movq	%r12, %rsi
	movl	%r15d, %edx
	movl	%r14d, %ecx
	callq	fallbackQSort3.6
	popq	%rbx
	popq	%r12
	popq	%r14
	popq	%r15
	popq	%rbp
	.cfi_def_cfa %rsp, 8
	retq
.LBB3_2:                                # %func_fallbackQSort3.14
	.cfi_def_cfa %rbp, 16
	movq	%rbx, %rdi
	movq	%r12, %rsi
	movl	%r15d, %edx
	movl	%r14d, %ecx
	callq	fallbackQSort3.14
	popq	%rbx
	popq	%r12
	popq	%r14
	popq	%r15
	popq	%rbp
	.cfi_def_cfa %rsp, 8
	retq
.LBB3_3:                                # %func_fallbackQSort3.16
	.cfi_def_cfa %rbp, 16
	movq	%rbx, %rdi
	movq	%r12, %rsi
	movl	%r15d, %edx
	movl	%r14d, %ecx
	callq	fallbackQSort3.16
	popq	%rbx
	popq	%r12
	popq	%r14
	popq	%r15
	popq	%rbp
	.cfi_def_cfa %rsp, 8
	retq
.LBB3_4:                                # %func_fallbackQSort3.21
	.cfi_def_cfa %rbp, 16
	movq	%rbx, %rdi
	movq	%r12, %rsi
	movl	%r15d, %edx
	movl	%r14d, %ecx
	callq	fallbackQSort3.21
	popq	%rbx
	popq	%r12
	popq	%r14
	popq	%r15
	popq	%rbp
	.cfi_def_cfa %rsp, 8
	retq
.LBB3_5:                                # %func_fallbackQSort3.42
	.cfi_def_cfa %rbp, 16
	movq	%rbx, %rdi
	movq	%r12, %rsi
	movl	%r15d, %edx
	movl	%r14d, %ecx
	callq	fallbackQSort3.42
	popq	%rbx
	popq	%r12
	popq	%r14
	popq	%r15
	popq	%rbp
	.cfi_def_cfa %rsp, 8
	retq
.LBB3_6:                                # %func_fallbackQSort3.43
	.cfi_def_cfa %rbp, 16
	movq	%rbx, %rdi
	movq	%r12, %rsi
	movl	%r15d, %edx
	movl	%r14d, %ecx
	callq	fallbackQSort3.43
	popq	%rbx
	popq	%r12
	popq	%r14
	popq	%r15
	popq	%rbp
	.cfi_def_cfa %rsp, 8
	retq
.LBB3_7:                                # %func_fallbackQSort3.54
	.cfi_def_cfa %rbp, 16
	movq	%rbx, %rdi
	movq	%r12, %rsi
	movl	%r15d, %edx
	movl	%r14d, %ecx
	callq	fallbackQSort3.54
	popq	%rbx
	popq	%r12
	popq	%r14
	popq	%r15
	popq	%rbp
	.cfi_def_cfa %rsp, 8
	retq
.LBB3_8:                                # %func_fallbackQSort3.55
	.cfi_def_cfa %rbp, 16
	movq	%rbx, %rdi
	movq	%r12, %rsi
	movl	%r15d, %edx
	movl	%r14d, %ecx
	callq	fallbackQSort3.55
	popq	%rbx
	popq	%r12
	popq	%r14
	popq	%r15
	popq	%rbp
	.cfi_def_cfa %rsp, 8
	retq
.LBB3_9:                                # %func_fallbackQSort3.56
	.cfi_def_cfa %rbp, 16
	movq	%rbx, %rdi
	movq	%r12, %rsi
	movl	%r15d, %edx
	movl	%r14d, %ecx
	callq	fallbackQSort3.56
	popq	%rbx
	popq	%r12
	popq	%r14
	popq	%r15
	popq	%rbp
	.cfi_def_cfa %rsp, 8
	retq
.LBB3_10:                               # %func_fallbackQSort3.66
	.cfi_def_cfa %rbp, 16
	movq	%rbx, %rdi
	movq	%r12, %rsi
	movl	%r15d, %edx
	movl	%r14d, %ecx
	callq	fallbackQSort3.66
	popq	%rbx
	popq	%r12
	popq	%r14
	popq	%r15
	popq	%rbp
	.cfi_def_cfa %rsp, 8
	retq
.LBB3_11:                               # %func_fallbackQSort3.69
	.cfi_def_cfa %rbp, 16
	movq	%rbx, %rdi
	movq	%r12, %rsi
	movl	%r15d, %edx
	movl	%r14d, %ecx
	callq	fallbackQSort3.69
	popq	%rbx
	popq	%r12
	popq	%r14
	popq	%r15
	popq	%rbp
	.cfi_def_cfa %rsp, 8
	retq
.LBB3_12:                               # %func_fallbackQSort3.76
	.cfi_def_cfa %rbp, 16
	movq	%rbx, %rdi
	movq	%r12, %rsi
	movl	%r15d, %edx
	movl	%r14d, %ecx
	callq	fallbackQSort3.76
	popq	%rbx
	popq	%r12
	popq	%r14
	popq	%r15
	popq	%rbp
	.cfi_def_cfa %rsp, 8
	retq
.LBB3_13:                               # %func_fallbackQSort3.80
	.cfi_def_cfa %rbp, 16
	movq	%rbx, %rdi
	movq	%r12, %rsi
	movl	%r15d, %edx
	movl	%r14d, %ecx
	callq	fallbackQSort3.80
	popq	%rbx
	popq	%r12
	popq	%r14
	popq	%r15
	popq	%rbp
	.cfi_def_cfa %rsp, 8
	retq
.LBB3_14:                               # %func_fallbackQSort3.88
	.cfi_def_cfa %rbp, 16
	movq	%rbx, %rdi
	movq	%r12, %rsi
	movl	%r15d, %edx
	movl	%r14d, %ecx
	callq	fallbackQSort3.88
	popq	%rbx
	popq	%r12
	popq	%r14
	popq	%r15
	popq	%rbp
	.cfi_def_cfa %rsp, 8
	retq
.LBB3_15:                               # %func_fallbackQSort3.93
	.cfi_def_cfa %rbp, 16
	movq	%rbx, %rdi
	movq	%r12, %rsi
	movl	%r15d, %edx
	movl	%r14d, %ecx
	callq	fallbackQSort3.93
	popq	%rbx
	popq	%r12
	popq	%r14
	popq	%r15
	popq	%rbp
	.cfi_def_cfa %rsp, 8
	retq
.LBB3_16:                               # %func_fallbackQSort3.101
	.cfi_def_cfa %rbp, 16
	movq	%rbx, %rdi
	movq	%r12, %rsi
	movl	%r15d, %edx
	movl	%r14d, %ecx
	callq	fallbackQSort3.101
	popq	%rbx
	popq	%r12
	popq	%r14
	popq	%r15
	popq	%rbp
	.cfi_def_cfa %rsp, 8
	retq
.LBB3_17:                               # %ctrl0
	.cfi_def_cfa %rbp, 16
	cmpl	$1, %eax
	je	.LBB3_2
# %bb.18:                               # %ctrl1
	cmpl	$2, %eax
	je	.LBB3_3
# %bb.19:                               # %ctrl2
	cmpl	$3, %eax
	je	.LBB3_4
# %bb.20:                               # %ctrl3
	cmpl	$4, %eax
	je	.LBB3_5
# %bb.21:                               # %ctrl4
	cmpl	$5, %eax
	je	.LBB3_6
# %bb.22:                               # %ctrl5
	cmpl	$6, %eax
	je	.LBB3_7
# %bb.23:                               # %ctrl6
	cmpl	$7, %eax
	je	.LBB3_8
# %bb.24:                               # %ctrl7
	cmpl	$8, %eax
	je	.LBB3_9
# %bb.25:                               # %ctrl8
	cmpl	$9, %eax
	je	.LBB3_10
# %bb.26:                               # %ctrl9
	cmpl	$10, %eax
	je	.LBB3_11
# %bb.27:                               # %ctrl10
	cmpl	$11, %eax
	je	.LBB3_12
# %bb.28:                               # %ctrl11
	cmpl	$12, %eax
	je	.LBB3_13
# %bb.29:                               # %ctrl12
	cmpl	$13, %eax
	je	.LBB3_14
# %bb.30:                               # %ctrl13
	cmpl	$14, %eax
	je	.LBB3_15
	jmp	.LBB3_16
.Lfunc_end3:
	.size	fallbackQSort3, .Lfunc_end3-fallbackQSort3
	.cfi_endproc
                                        # -- End function
	.p2align	4, 0x90         # -- Begin function fallbackSimpleSort
	.type	fallbackSimpleSort,@function
fallbackSimpleSort:                     # @fallbackSimpleSort
	.cfi_startproc
# %bb.0:                                # %rand_bb
	pushq	%rbp
	.cfi_def_cfa_offset 16
	.cfi_offset %rbp, -16
	movq	%rsp, %rbp
	.cfi_def_cfa_register %rbp
	pushq	%r15
	pushq	%r14
	pushq	%r12
	pushq	%rbx
	.cfi_offset %rbx, -48
	.cfi_offset %r12, -40
	.cfi_offset %r14, -32
	.cfi_offset %r15, -24
	movl	%ecx, %r14d
	movl	%edx, %r15d
	movq	%rsi, %r12
	movq	%rdi, %rbx
	callq	get_rand
	cmpl	$0, %eax
	jne	.LBB4_17
# %bb.1:                                # %func_fallbackSimpleSort.2
	movq	%rbx, %rdi
	movq	%r12, %rsi
	movl	%r15d, %edx
	movl	%r14d, %ecx
	callq	fallbackSimpleSort.2
	popq	%rbx
	popq	%r12
	popq	%r14
	popq	%r15
	popq	%rbp
	.cfi_def_cfa %rsp, 8
	retq
.LBB4_2:                                # %func_fallbackSimpleSort.25
	.cfi_def_cfa %rbp, 16
	movq	%rbx, %rdi
	movq	%r12, %rsi
	movl	%r15d, %edx
	movl	%r14d, %ecx
	callq	fallbackSimpleSort.25
	popq	%rbx
	popq	%r12
	popq	%r14
	popq	%r15
	popq	%rbp
	.cfi_def_cfa %rsp, 8
	retq
.LBB4_3:                                # %func_fallbackSimpleSort.30
	.cfi_def_cfa %rbp, 16
	movq	%rbx, %rdi
	movq	%r12, %rsi
	movl	%r15d, %edx
	movl	%r14d, %ecx
	callq	fallbackSimpleSort.30
	popq	%rbx
	popq	%r12
	popq	%r14
	popq	%r15
	popq	%rbp
	.cfi_def_cfa %rsp, 8
	retq
.LBB4_4:                                # %func_fallbackSimpleSort.45
	.cfi_def_cfa %rbp, 16
	movq	%rbx, %rdi
	movq	%r12, %rsi
	movl	%r15d, %edx
	movl	%r14d, %ecx
	callq	fallbackSimpleSort.45
	popq	%rbx
	popq	%r12
	popq	%r14
	popq	%r15
	popq	%rbp
	.cfi_def_cfa %rsp, 8
	retq
.LBB4_5:                                # %func_fallbackSimpleSort.61
	.cfi_def_cfa %rbp, 16
	movq	%rbx, %rdi
	movq	%r12, %rsi
	movl	%r15d, %edx
	movl	%r14d, %ecx
	callq	fallbackSimpleSort.61
	popq	%rbx
	popq	%r12
	popq	%r14
	popq	%r15
	popq	%rbp
	.cfi_def_cfa %rsp, 8
	retq
.LBB4_6:                                # %func_fallbackSimpleSort.92
	.cfi_def_cfa %rbp, 16
	movq	%rbx, %rdi
	movq	%r12, %rsi
	movl	%r15d, %edx
	movl	%r14d, %ecx
	callq	fallbackSimpleSort.92
	popq	%rbx
	popq	%r12
	popq	%r14
	popq	%r15
	popq	%rbp
	.cfi_def_cfa %rsp, 8
	retq
.LBB4_7:                                # %func_fallbackSimpleSort.119
	.cfi_def_cfa %rbp, 16
	movq	%rbx, %rdi
	movq	%r12, %rsi
	movl	%r15d, %edx
	movl	%r14d, %ecx
	callq	fallbackSimpleSort.119
	popq	%rbx
	popq	%r12
	popq	%r14
	popq	%r15
	popq	%rbp
	.cfi_def_cfa %rsp, 8
	retq
.LBB4_8:                                # %func_fallbackSimpleSort.121
	.cfi_def_cfa %rbp, 16
	movq	%rbx, %rdi
	movq	%r12, %rsi
	movl	%r15d, %edx
	movl	%r14d, %ecx
	callq	fallbackSimpleSort.121
	popq	%rbx
	popq	%r12
	popq	%r14
	popq	%r15
	popq	%rbp
	.cfi_def_cfa %rsp, 8
	retq
.LBB4_9:                                # %func_fallbackSimpleSort.124
	.cfi_def_cfa %rbp, 16
	movq	%rbx, %rdi
	movq	%r12, %rsi
	movl	%r15d, %edx
	movl	%r14d, %ecx
	callq	fallbackSimpleSort.124
	popq	%rbx
	popq	%r12
	popq	%r14
	popq	%r15
	popq	%rbp
	.cfi_def_cfa %rsp, 8
	retq
.LBB4_10:                               # %func_fallbackSimpleSort.125
	.cfi_def_cfa %rbp, 16
	movq	%rbx, %rdi
	movq	%r12, %rsi
	movl	%r15d, %edx
	movl	%r14d, %ecx
	callq	fallbackSimpleSort.125
	popq	%rbx
	popq	%r12
	popq	%r14
	popq	%r15
	popq	%rbp
	.cfi_def_cfa %rsp, 8
	retq
.LBB4_11:                               # %func_fallbackSimpleSort.126
	.cfi_def_cfa %rbp, 16
	movq	%rbx, %rdi
	movq	%r12, %rsi
	movl	%r15d, %edx
	movl	%r14d, %ecx
	callq	fallbackSimpleSort.126
	popq	%rbx
	popq	%r12
	popq	%r14
	popq	%r15
	popq	%rbp
	.cfi_def_cfa %rsp, 8
	retq
.LBB4_12:                               # %func_fallbackSimpleSort.132
	.cfi_def_cfa %rbp, 16
	movq	%rbx, %rdi
	movq	%r12, %rsi
	movl	%r15d, %edx
	movl	%r14d, %ecx
	callq	fallbackSimpleSort.132
	popq	%rbx
	popq	%r12
	popq	%r14
	popq	%r15
	popq	%rbp
	.cfi_def_cfa %rsp, 8
	retq
.LBB4_13:                               # %func_fallbackSimpleSort.134
	.cfi_def_cfa %rbp, 16
	movq	%rbx, %rdi
	movq	%r12, %rsi
	movl	%r15d, %edx
	movl	%r14d, %ecx
	callq	fallbackSimpleSort.134
	popq	%rbx
	popq	%r12
	popq	%r14
	popq	%r15
	popq	%rbp
	.cfi_def_cfa %rsp, 8
	retq
.LBB4_14:                               # %func_fallbackSimpleSort.135
	.cfi_def_cfa %rbp, 16
	movq	%rbx, %rdi
	movq	%r12, %rsi
	movl	%r15d, %edx
	movl	%r14d, %ecx
	callq	fallbackSimpleSort.135
	popq	%rbx
	popq	%r12
	popq	%r14
	popq	%r15
	popq	%rbp
	.cfi_def_cfa %rsp, 8
	retq
.LBB4_15:                               # %func_fallbackSimpleSort.140
	.cfi_def_cfa %rbp, 16
	movq	%rbx, %rdi
	movq	%r12, %rsi
	movl	%r15d, %edx
	movl	%r14d, %ecx
	callq	fallbackSimpleSort.140
	popq	%rbx
	popq	%r12
	popq	%r14
	popq	%r15
	popq	%rbp
	.cfi_def_cfa %rsp, 8
	retq
.LBB4_16:                               # %func_fallbackSimpleSort.141
	.cfi_def_cfa %rbp, 16
	movq	%rbx, %rdi
	movq	%r12, %rsi
	movl	%r15d, %edx
	movl	%r14d, %ecx
	callq	fallbackSimpleSort.141
	popq	%rbx
	popq	%r12
	popq	%r14
	popq	%r15
	popq	%rbp
	.cfi_def_cfa %rsp, 8
	retq
.LBB4_17:                               # %ctrl0
	.cfi_def_cfa %rbp, 16
	cmpl	$1, %eax
	je	.LBB4_2
# %bb.18:                               # %ctrl1
	cmpl	$2, %eax
	je	.LBB4_3
# %bb.19:                               # %ctrl2
	cmpl	$3, %eax
	je	.LBB4_4
# %bb.20:                               # %ctrl3
	cmpl	$4, %eax
	je	.LBB4_5
# %bb.21:                               # %ctrl4
	cmpl	$5, %eax
	je	.LBB4_6
# %bb.22:                               # %ctrl5
	cmpl	$6, %eax
	je	.LBB4_7
# %bb.23:                               # %ctrl6
	cmpl	$7, %eax
	je	.LBB4_8
# %bb.24:                               # %ctrl7
	cmpl	$8, %eax
	je	.LBB4_9
# %bb.25:                               # %ctrl8
	cmpl	$9, %eax
	je	.LBB4_10
# %bb.26:                               # %ctrl9
	cmpl	$10, %eax
	je	.LBB4_11
# %bb.27:                               # %ctrl10
	cmpl	$11, %eax
	je	.LBB4_12
# %bb.28:                               # %ctrl11
	cmpl	$12, %eax
	je	.LBB4_13
# %bb.29:                               # %ctrl12
	cmpl	$13, %eax
	je	.LBB4_14
# %bb.30:                               # %ctrl13
	cmpl	$14, %eax
	je	.LBB4_15
	jmp	.LBB4_16
.Lfunc_end4:
	.size	fallbackSimpleSort, .Lfunc_end4-fallbackSimpleSort
	.cfi_endproc
                                        # -- End function
	.p2align	4, 0x90         # -- Begin function mainQSort3
	.type	mainQSort3,@function
mainQSort3:                             # @mainQSort3
	.cfi_startproc
# %bb.0:                                # %rand_bb
	pushq	%rbp
	.cfi_def_cfa_offset 16
	.cfi_offset %rbp, -16
	movq	%rsp, %rbp
	.cfi_def_cfa_register %rbp
	pushq	%r15
	pushq	%r14
	pushq	%r13
	pushq	%r12
	pushq	%rbx
	subq	$24, %rsp
	.cfi_offset %rbx, -56
	.cfi_offset %r12, -48
	.cfi_offset %r13, -40
	.cfi_offset %r14, -32
	.cfi_offset %r15, -24
	movl	%r9d, -44(%rbp)         # 4-byte Spill
	movl	%r8d, %ebx
	movl	%ecx, %r14d
	movq	%rdx, %r15
	movq	%rsi, %r12
	movq	%rdi, %r13
	callq	get_rand
	cmpl	$0, %eax
	jne	.LBB5_17
# %bb.1:                                # %func_mainQSort3.7
	movq	%r13, %rdi
	movq	%r12, %rsi
	movq	%r15, %rdx
	movl	%r14d, %ecx
	movl	%ebx, %r8d
	movl	-44(%rbp), %r9d         # 4-byte Reload
	movl	16(%rbp), %eax
	movl	%eax, (%rsp)
	movq	24(%rbp), %rax
	movq	%rax, 8(%rsp)
	callq	mainQSort3.7
	addq	$24, %rsp
	popq	%rbx
	popq	%r12
	popq	%r13
	popq	%r14
	popq	%r15
	popq	%rbp
	.cfi_def_cfa %rsp, 8
	retq
.LBB5_2:                                # %func_mainQSort3.10
	.cfi_def_cfa %rbp, 16
	movl	%r13d, %r9d
	movl	%r15d, (%rsp)
	movq	24(%rbp), %rax
	movq	%rax, 8(%rsp)
	callq	mainQSort3.10
	addq	$24, %rsp
	popq	%rbx
	popq	%r12
	popq	%r13
	popq	%r14
	popq	%r15
	popq	%rbp
	.cfi_def_cfa %rsp, 8
	retq
.LBB5_3:                                # %func_mainQSort3.13
	.cfi_def_cfa %rbp, 16
	movq	%r12, %rdx
	movl	%r14d, %ecx
	movl	%ebx, %r8d
	movl	%r10d, (%rsp)
	movq	%r11, 8(%rsp)
	callq	mainQSort3.13
	addq	$24, %rsp
	popq	%rbx
	popq	%r12
	popq	%r13
	popq	%r14
	popq	%r15
	popq	%rbp
	.cfi_def_cfa %rsp, 8
	retq
.LBB5_4:                                # %func_mainQSort3.24
	.cfi_def_cfa %rbp, 16
	movq	%r12, %rdx
	movl	%r14d, %ecx
	movl	%ebx, %r8d
	movl	-44(%rbp), %r9d         # 4-byte Reload
	movl	%r10d, (%rsp)
	movq	%r11, 8(%rsp)
	callq	mainQSort3.24
	addq	$24, %rsp
	popq	%rbx
	popq	%r12
	popq	%r13
	popq	%r14
	popq	%r15
	popq	%rbp
	.cfi_def_cfa %rsp, 8
	retq
.LBB5_5:                                # %func_mainQSort3.27
	.cfi_def_cfa %rbp, 16
	movq	%r12, %rdx
	movl	%r14d, %ecx
	movl	%r9d, %r8d
	movl	-44(%rbp), %r9d         # 4-byte Reload
	movl	%r10d, (%rsp)
	movq	%r11, 8(%rsp)
	callq	mainQSort3.27
	addq	$24, %rsp
	popq	%rbx
	popq	%r12
	popq	%r13
	popq	%r14
	popq	%r15
	popq	%rbp
	.cfi_def_cfa %rsp, 8
	retq
.LBB5_6:                                # %func_mainQSort3.47
	.cfi_def_cfa %rbp, 16
	movq	%r12, %rdx
	movl	%ebx, %ecx
	movl	%r9d, %r8d
	movl	-44(%rbp), %r9d         # 4-byte Reload
	movl	%r10d, (%rsp)
	movq	%r11, 8(%rsp)
	callq	mainQSort3.47
	addq	$24, %rsp
	popq	%rbx
	popq	%r12
	popq	%r13
	popq	%r14
	popq	%r15
	popq	%rbp
	.cfi_def_cfa %rsp, 8
	retq
.LBB5_7:                                # %func_mainQSort3.63
	.cfi_def_cfa %rbp, 16
	movq	%r12, %rdx
	movl	%ebx, %ecx
	movl	%r9d, %r8d
	movl	-44(%rbp), %r9d         # 4-byte Reload
	movl	%r10d, (%rsp)
	movq	%r11, 8(%rsp)
	callq	mainQSort3.63
	addq	$24, %rsp
	popq	%rbx
	popq	%r12
	popq	%r13
	popq	%r14
	popq	%r15
	popq	%rbp
	.cfi_def_cfa %rsp, 8
	retq
.LBB5_8:                                # %func_mainQSort3.71
	.cfi_def_cfa %rbp, 16
	movq	%r12, %rdx
	movl	%ebx, %ecx
	movl	%r9d, %r8d
	movl	-44(%rbp), %r9d         # 4-byte Reload
	movl	%r10d, (%rsp)
	movq	%r11, 8(%rsp)
	callq	mainQSort3.71
	addq	$24, %rsp
	popq	%rbx
	popq	%r12
	popq	%r13
	popq	%r14
	popq	%r15
	popq	%rbp
	.cfi_def_cfa %rsp, 8
	retq
.LBB5_9:                                # %func_mainQSort3.78
	.cfi_def_cfa %rbp, 16
	movq	%r12, %rdx
	movl	%ebx, %ecx
	movl	%r9d, %r8d
	movl	-44(%rbp), %r9d         # 4-byte Reload
	movl	%r10d, (%rsp)
	movq	%r11, 8(%rsp)
	callq	mainQSort3.78
	addq	$24, %rsp
	popq	%rbx
	popq	%r12
	popq	%r13
	popq	%r14
	popq	%r15
	popq	%rbp
	.cfi_def_cfa %rsp, 8
	retq
.LBB5_10:                               # %func_mainQSort3.79
	.cfi_def_cfa %rbp, 16
	movq	%r12, %rdx
	movl	%ebx, %ecx
	movl	%r9d, %r8d
	movl	-44(%rbp), %r9d         # 4-byte Reload
	movl	%r10d, (%rsp)
	movq	%r11, 8(%rsp)
	callq	mainQSort3.79
	addq	$24, %rsp
	popq	%rbx
	popq	%r12
	popq	%r13
	popq	%r14
	popq	%r15
	popq	%rbp
	.cfi_def_cfa %rsp, 8
	retq
.LBB5_11:                               # %func_mainQSort3.84
	.cfi_def_cfa %rbp, 16
	movq	%r12, %rdx
	movl	%ebx, %ecx
	movl	%r9d, %r8d
	movl	-44(%rbp), %r9d         # 4-byte Reload
	movl	%r10d, (%rsp)
	movq	%r11, 8(%rsp)
	callq	mainQSort3.84
	addq	$24, %rsp
	popq	%rbx
	popq	%r12
	popq	%r13
	popq	%r14
	popq	%r15
	popq	%rbp
	.cfi_def_cfa %rsp, 8
	retq
.LBB5_12:                               # %func_mainQSort3.86
	.cfi_def_cfa %rbp, 16
	movq	%r12, %rdx
	movl	%ebx, %ecx
	movl	%r9d, %r8d
	movl	-44(%rbp), %r9d         # 4-byte Reload
	movl	%r10d, (%rsp)
	movq	%r11, 8(%rsp)
	callq	mainQSort3.86
	addq	$24, %rsp
	popq	%rbx
	popq	%r12
	popq	%r13
	popq	%r14
	popq	%r15
	popq	%rbp
	.cfi_def_cfa %rsp, 8
	retq
.LBB5_13:                               # %func_mainQSort3.94
	.cfi_def_cfa %rbp, 16
	movq	%r12, %rdx
	movl	%ebx, %ecx
	movl	%r9d, %r8d
	movl	-44(%rbp), %r9d         # 4-byte Reload
	movl	%r10d, (%rsp)
	movq	%r11, 8(%rsp)
	callq	mainQSort3.94
	addq	$24, %rsp
	popq	%rbx
	popq	%r12
	popq	%r13
	popq	%r14
	popq	%r15
	popq	%rbp
	.cfi_def_cfa %rsp, 8
	retq
.LBB5_14:                               # %func_mainQSort3.112
	.cfi_def_cfa %rbp, 16
	movq	%r12, %rdx
	movl	%ebx, %ecx
	movl	%r9d, %r8d
	movl	-44(%rbp), %r9d         # 4-byte Reload
	movl	%r10d, (%rsp)
	movq	24(%rbp), %rax
	movq	%rax, 8(%rsp)
	callq	mainQSort3.112
	addq	$24, %rsp
	popq	%rbx
	popq	%r12
	popq	%r13
	popq	%r14
	popq	%r15
	popq	%rbp
	.cfi_def_cfa %rsp, 8
	retq
.LBB5_15:                               # %func_mainQSort3.113
	.cfi_def_cfa %rbp, 16
	movl	%r13d, %r9d
	movl	%r15d, (%rsp)
	movq	24(%rbp), %rax
	movq	%rax, 8(%rsp)
	callq	mainQSort3.113
	addq	$24, %rsp
	popq	%rbx
	popq	%r12
	popq	%r13
	popq	%r14
	popq	%r15
	popq	%rbp
	.cfi_def_cfa %rsp, 8
	retq
.LBB5_16:                               # %func_mainQSort3.117
	.cfi_def_cfa %rbp, 16
	movl	%r13d, %r9d
	movl	%r15d, (%rsp)
	movq	24(%rbp), %rax
	movq	%rax, 8(%rsp)
	callq	mainQSort3.117
	addq	$24, %rsp
	popq	%rbx
	popq	%r12
	popq	%r13
	popq	%r14
	popq	%r15
	popq	%rbp
	.cfi_def_cfa %rsp, 8
	retq
.LBB5_17:                               # %ctrl0
	.cfi_def_cfa %rbp, 16
	movq	%r13, %rdi
	movq	%r12, %rsi
	movq	%r15, %rdx
	movl	%r14d, %ecx
	movl	%ebx, %r8d
	movl	-44(%rbp), %r13d        # 4-byte Reload
	movl	16(%rbp), %r15d
	cmpl	$1, %eax
	je	.LBB5_2
# %bb.18:                               # %ctrl1
	cmpl	$2, %eax
	movq	24(%rbp), %r11
	movl	%r15d, %r10d
	movl	%r13d, %r9d
	movl	%r8d, %ebx
	movl	%ecx, %r14d
	movq	%rdx, %r12
	je	.LBB5_3
# %bb.19:                               # %ctrl2
	cmpl	$3, %eax
	je	.LBB5_4
# %bb.20:                               # %ctrl3
	cmpl	$4, %eax
	movl	%ebx, %r9d
	je	.LBB5_5
# %bb.21:                               # %ctrl4
	cmpl	$5, %eax
	movl	%r14d, %ebx
	je	.LBB5_6
# %bb.22:                               # %ctrl5
	cmpl	$6, %eax
	je	.LBB5_7
# %bb.23:                               # %ctrl6
	cmpl	$7, %eax
	je	.LBB5_8
# %bb.24:                               # %ctrl7
	cmpl	$8, %eax
	je	.LBB5_9
# %bb.25:                               # %ctrl8
	cmpl	$9, %eax
	je	.LBB5_10
# %bb.26:                               # %ctrl9
	cmpl	$10, %eax
	je	.LBB5_11
# %bb.27:                               # %ctrl10
	cmpl	$11, %eax
	je	.LBB5_12
# %bb.28:                               # %ctrl11
	cmpl	$12, %eax
	je	.LBB5_13
# %bb.29:                               # %ctrl12
	cmpl	$13, %eax
	je	.LBB5_14
# %bb.30:                               # %ctrl13
	cmpl	$14, %eax
	je	.LBB5_15
	jmp	.LBB5_16
.Lfunc_end5:
	.size	mainQSort3, .Lfunc_end5-mainQSort3
	.cfi_endproc
                                        # -- End function
	.p2align	4, 0x90         # -- Begin function mainSimpleSort
	.type	mainSimpleSort,@function
mainSimpleSort:                         # @mainSimpleSort
	.cfi_startproc
# %bb.0:                                # %rand_bb
	pushq	%rbp
	.cfi_def_cfa_offset 16
	.cfi_offset %rbp, -16
	movq	%rsp, %rbp
	.cfi_def_cfa_register %rbp
	pushq	%r15
	pushq	%r14
	pushq	%r13
	pushq	%r12
	pushq	%rbx
	subq	$24, %rsp
	.cfi_offset %rbx, -56
	.cfi_offset %r12, -48
	.cfi_offset %r13, -40
	.cfi_offset %r14, -32
	.cfi_offset %r15, -24
	movl	%r9d, -44(%rbp)         # 4-byte Spill
	movl	%r8d, %ebx
	movl	%ecx, %r14d
	movq	%rdx, %r15
	movq	%rsi, %r12
	movq	%rdi, %r13
	callq	get_rand
	cmpl	$0, %eax
	jne	.LBB6_17
# %bb.1:                                # %func_mainSimpleSort.1
	movq	%r13, %rdi
	movq	%r12, %rsi
	movq	%r15, %rdx
	movl	%r14d, %ecx
	movl	%ebx, %r8d
	movl	-44(%rbp), %r9d         # 4-byte Reload
	movl	16(%rbp), %eax
	movl	%eax, (%rsp)
	movq	24(%rbp), %rax
	movq	%rax, 8(%rsp)
	callq	mainSimpleSort.1
	addq	$24, %rsp
	popq	%rbx
	popq	%r12
	popq	%r13
	popq	%r14
	popq	%r15
	popq	%rbp
	.cfi_def_cfa %rsp, 8
	retq
.LBB6_2:                                # %func_mainSimpleSort.11
	.cfi_def_cfa %rbp, 16
	movl	%r13d, %r9d
	movl	%r15d, (%rsp)
	movq	24(%rbp), %rax
	movq	%rax, 8(%rsp)
	callq	mainSimpleSort.11
	addq	$24, %rsp
	popq	%rbx
	popq	%r12
	popq	%r13
	popq	%r14
	popq	%r15
	popq	%rbp
	.cfi_def_cfa %rsp, 8
	retq
.LBB6_3:                                # %func_mainSimpleSort.12
	.cfi_def_cfa %rbp, 16
	movq	%r12, %rdx
	movl	%r14d, %ecx
	movl	%ebx, %r8d
	movl	%r10d, (%rsp)
	movq	%r11, 8(%rsp)
	callq	mainSimpleSort.12
	addq	$24, %rsp
	popq	%rbx
	popq	%r12
	popq	%r13
	popq	%r14
	popq	%r15
	popq	%rbp
	.cfi_def_cfa %rsp, 8
	retq
.LBB6_4:                                # %func_mainSimpleSort.18
	.cfi_def_cfa %rbp, 16
	movq	%r12, %rdx
	movl	%r14d, %ecx
	movl	%ebx, %r8d
	movl	-44(%rbp), %r9d         # 4-byte Reload
	movl	%r10d, (%rsp)
	movq	%r11, 8(%rsp)
	callq	mainSimpleSort.18
	addq	$24, %rsp
	popq	%rbx
	popq	%r12
	popq	%r13
	popq	%r14
	popq	%r15
	popq	%rbp
	.cfi_def_cfa %rsp, 8
	retq
.LBB6_5:                                # %func_mainSimpleSort.26
	.cfi_def_cfa %rbp, 16
	movq	%r12, %rdx
	movl	%r14d, %ecx
	movl	%r9d, %r8d
	movl	-44(%rbp), %r9d         # 4-byte Reload
	movl	%r10d, (%rsp)
	movq	%r11, 8(%rsp)
	callq	mainSimpleSort.26
	addq	$24, %rsp
	popq	%rbx
	popq	%r12
	popq	%r13
	popq	%r14
	popq	%r15
	popq	%rbp
	.cfi_def_cfa %rsp, 8
	retq
.LBB6_6:                                # %func_mainSimpleSort.32
	.cfi_def_cfa %rbp, 16
	movq	%r12, %rdx
	movl	%ebx, %ecx
	movl	%r9d, %r8d
	movl	-44(%rbp), %r9d         # 4-byte Reload
	movl	%r10d, (%rsp)
	movq	%r11, 8(%rsp)
	callq	mainSimpleSort.32
	addq	$24, %rsp
	popq	%rbx
	popq	%r12
	popq	%r13
	popq	%r14
	popq	%r15
	popq	%rbp
	.cfi_def_cfa %rsp, 8
	retq
.LBB6_7:                                # %func_mainSimpleSort.35
	.cfi_def_cfa %rbp, 16
	movq	%r12, %rdx
	movl	%ebx, %ecx
	movl	%r9d, %r8d
	movl	-44(%rbp), %r9d         # 4-byte Reload
	movl	%r10d, (%rsp)
	movq	%r11, 8(%rsp)
	callq	mainSimpleSort.35
	addq	$24, %rsp
	popq	%rbx
	popq	%r12
	popq	%r13
	popq	%r14
	popq	%r15
	popq	%rbp
	.cfi_def_cfa %rsp, 8
	retq
.LBB6_8:                                # %func_mainSimpleSort.39
	.cfi_def_cfa %rbp, 16
	movq	%r12, %rdx
	movl	%ebx, %ecx
	movl	%r9d, %r8d
	movl	-44(%rbp), %r9d         # 4-byte Reload
	movl	%r10d, (%rsp)
	movq	%r11, 8(%rsp)
	callq	mainSimpleSort.39
	addq	$24, %rsp
	popq	%rbx
	popq	%r12
	popq	%r13
	popq	%r14
	popq	%r15
	popq	%rbp
	.cfi_def_cfa %rsp, 8
	retq
.LBB6_9:                                # %func_mainSimpleSort.49
	.cfi_def_cfa %rbp, 16
	movq	%r12, %rdx
	movl	%ebx, %ecx
	movl	%r9d, %r8d
	movl	-44(%rbp), %r9d         # 4-byte Reload
	movl	%r10d, (%rsp)
	movq	%r11, 8(%rsp)
	callq	mainSimpleSort.49
	addq	$24, %rsp
	popq	%rbx
	popq	%r12
	popq	%r13
	popq	%r14
	popq	%r15
	popq	%rbp
	.cfi_def_cfa %rsp, 8
	retq
.LBB6_10:                               # %func_mainSimpleSort.65
	.cfi_def_cfa %rbp, 16
	movq	%r12, %rdx
	movl	%ebx, %ecx
	movl	%r9d, %r8d
	movl	-44(%rbp), %r9d         # 4-byte Reload
	movl	%r10d, (%rsp)
	movq	%r11, 8(%rsp)
	callq	mainSimpleSort.65
	addq	$24, %rsp
	popq	%rbx
	popq	%r12
	popq	%r13
	popq	%r14
	popq	%r15
	popq	%rbp
	.cfi_def_cfa %rsp, 8
	retq
.LBB6_11:                               # %func_mainSimpleSort.70
	.cfi_def_cfa %rbp, 16
	movq	%r12, %rdx
	movl	%ebx, %ecx
	movl	%r9d, %r8d
	movl	-44(%rbp), %r9d         # 4-byte Reload
	movl	%r10d, (%rsp)
	movq	%r11, 8(%rsp)
	callq	mainSimpleSort.70
	addq	$24, %rsp
	popq	%rbx
	popq	%r12
	popq	%r13
	popq	%r14
	popq	%r15
	popq	%rbp
	.cfi_def_cfa %rsp, 8
	retq
.LBB6_12:                               # %func_mainSimpleSort.95
	.cfi_def_cfa %rbp, 16
	movq	%r12, %rdx
	movl	%ebx, %ecx
	movl	%r9d, %r8d
	movl	-44(%rbp), %r9d         # 4-byte Reload
	movl	%r10d, (%rsp)
	movq	%r11, 8(%rsp)
	callq	mainSimpleSort.95
	addq	$24, %rsp
	popq	%rbx
	popq	%r12
	popq	%r13
	popq	%r14
	popq	%r15
	popq	%rbp
	.cfi_def_cfa %rsp, 8
	retq
.LBB6_13:                               # %func_mainSimpleSort.98
	.cfi_def_cfa %rbp, 16
	movq	%r12, %rdx
	movl	%ebx, %ecx
	movl	%r9d, %r8d
	movl	-44(%rbp), %r9d         # 4-byte Reload
	movl	%r10d, (%rsp)
	movq	%r11, 8(%rsp)
	callq	mainSimpleSort.98
	addq	$24, %rsp
	popq	%rbx
	popq	%r12
	popq	%r13
	popq	%r14
	popq	%r15
	popq	%rbp
	.cfi_def_cfa %rsp, 8
	retq
.LBB6_14:                               # %func_mainSimpleSort.104
	.cfi_def_cfa %rbp, 16
	movq	%r12, %rdx
	movl	%ebx, %ecx
	movl	%r9d, %r8d
	movl	-44(%rbp), %r9d         # 4-byte Reload
	movl	%r10d, (%rsp)
	movq	24(%rbp), %rax
	movq	%rax, 8(%rsp)
	callq	mainSimpleSort.104
	addq	$24, %rsp
	popq	%rbx
	popq	%r12
	popq	%r13
	popq	%r14
	popq	%r15
	popq	%rbp
	.cfi_def_cfa %rsp, 8
	retq
.LBB6_15:                               # %func_mainSimpleSort.106
	.cfi_def_cfa %rbp, 16
	movl	%r13d, %r9d
	movl	%r15d, (%rsp)
	movq	24(%rbp), %rax
	movq	%rax, 8(%rsp)
	callq	mainSimpleSort.106
	addq	$24, %rsp
	popq	%rbx
	popq	%r12
	popq	%r13
	popq	%r14
	popq	%r15
	popq	%rbp
	.cfi_def_cfa %rsp, 8
	retq
.LBB6_16:                               # %func_mainSimpleSort.120
	.cfi_def_cfa %rbp, 16
	movl	%r13d, %r9d
	movl	%r15d, (%rsp)
	movq	24(%rbp), %rax
	movq	%rax, 8(%rsp)
	callq	mainSimpleSort.120
	addq	$24, %rsp
	popq	%rbx
	popq	%r12
	popq	%r13
	popq	%r14
	popq	%r15
	popq	%rbp
	.cfi_def_cfa %rsp, 8
	retq
.LBB6_17:                               # %ctrl0
	.cfi_def_cfa %rbp, 16
	movq	%r13, %rdi
	movq	%r12, %rsi
	movq	%r15, %rdx
	movl	%r14d, %ecx
	movl	%ebx, %r8d
	movl	-44(%rbp), %r13d        # 4-byte Reload
	movl	16(%rbp), %r15d
	cmpl	$1, %eax
	je	.LBB6_2
# %bb.18:                               # %ctrl1
	cmpl	$2, %eax
	movq	24(%rbp), %r11
	movl	%r15d, %r10d
	movl	%r13d, %r9d
	movl	%r8d, %ebx
	movl	%ecx, %r14d
	movq	%rdx, %r12
	je	.LBB6_3
# %bb.19:                               # %ctrl2
	cmpl	$3, %eax
	je	.LBB6_4
# %bb.20:                               # %ctrl3
	cmpl	$4, %eax
	movl	%ebx, %r9d
	je	.LBB6_5
# %bb.21:                               # %ctrl4
	cmpl	$5, %eax
	movl	%r14d, %ebx
	je	.LBB6_6
# %bb.22:                               # %ctrl5
	cmpl	$6, %eax
	je	.LBB6_7
# %bb.23:                               # %ctrl6
	cmpl	$7, %eax
	je	.LBB6_8
# %bb.24:                               # %ctrl7
	cmpl	$8, %eax
	je	.LBB6_9
# %bb.25:                               # %ctrl8
	cmpl	$9, %eax
	je	.LBB6_10
# %bb.26:                               # %ctrl9
	cmpl	$10, %eax
	je	.LBB6_11
# %bb.27:                               # %ctrl10
	cmpl	$11, %eax
	je	.LBB6_12
# %bb.28:                               # %ctrl11
	cmpl	$12, %eax
	je	.LBB6_13
# %bb.29:                               # %ctrl12
	cmpl	$13, %eax
	je	.LBB6_14
# %bb.30:                               # %ctrl13
	cmpl	$14, %eax
	je	.LBB6_15
	jmp	.LBB6_16
.Lfunc_end6:
	.size	mainSimpleSort, .Lfunc_end6-mainSimpleSort
	.cfi_endproc
                                        # -- End function
	.p2align	4, 0x90         # -- Begin function mmed3
	.type	mmed3,@function
mmed3:                                  # @mmed3
	.cfi_startproc
# %bb.0:                                # %rand_bb
	pushq	%rbp
	.cfi_def_cfa_offset 16
	.cfi_offset %rbp, -16
	movq	%rsp, %rbp
	.cfi_def_cfa_register %rbp
	pushq	%r15
	pushq	%r14
	pushq	%rbx
	pushq	%rax
	.cfi_offset %rbx, -40
	.cfi_offset %r14, -32
	.cfi_offset %r15, -24
	movl	%edx, %r14d
	movl	%esi, %r15d
	movl	%edi, %ebx
	callq	get_rand
	cmpl	$0, %eax
	jne	.LBB7_17
# %bb.1:                                # %func_mmed3.9
	movzbl	%bl, %edi
	movzbl	%r15b, %esi
	movzbl	%r14b, %edx
	callq	mmed3.9
	movzbl	%al, %eax
	addq	$8, %rsp
	popq	%rbx
	popq	%r14
	popq	%r15
	popq	%rbp
	.cfi_def_cfa %rsp, 8
	retq
.LBB7_2:                                # %func_mmed3.15
	.cfi_def_cfa %rbp, 16
	movzbl	%bl, %edi
	movzbl	%r15b, %esi
	movzbl	%r14b, %edx
	callq	mmed3.15
	movzbl	%al, %eax
	addq	$8, %rsp
	popq	%rbx
	popq	%r14
	popq	%r15
	popq	%rbp
	.cfi_def_cfa %rsp, 8
	retq
.LBB7_3:                                # %func_mmed3.17
	.cfi_def_cfa %rbp, 16
	movzbl	%bl, %edi
	movzbl	%r15b, %esi
	movzbl	%r14b, %edx
	callq	mmed3.17
	movzbl	%al, %eax
	addq	$8, %rsp
	popq	%rbx
	popq	%r14
	popq	%r15
	popq	%rbp
	.cfi_def_cfa %rsp, 8
	retq
.LBB7_4:                                # %func_mmed3.22
	.cfi_def_cfa %rbp, 16
	movzbl	%bl, %edi
	movzbl	%r15b, %esi
	movzbl	%r14b, %edx
	callq	mmed3.22
	movzbl	%al, %eax
	addq	$8, %rsp
	popq	%rbx
	popq	%r14
	popq	%r15
	popq	%rbp
	.cfi_def_cfa %rsp, 8
	retq
.LBB7_5:                                # %func_mmed3.28
	.cfi_def_cfa %rbp, 16
	movzbl	%bl, %edi
	movzbl	%r15b, %esi
	movzbl	%r14b, %edx
	callq	mmed3.28
	movzbl	%al, %eax
	addq	$8, %rsp
	popq	%rbx
	popq	%r14
	popq	%r15
	popq	%rbp
	.cfi_def_cfa %rsp, 8
	retq
.LBB7_6:                                # %func_mmed3.31
	.cfi_def_cfa %rbp, 16
	movzbl	%bl, %edi
	movzbl	%r15b, %esi
	movzbl	%r14b, %edx
	callq	mmed3.31
	movzbl	%al, %eax
	addq	$8, %rsp
	popq	%rbx
	popq	%r14
	popq	%r15
	popq	%rbp
	.cfi_def_cfa %rsp, 8
	retq
.LBB7_7:                                # %func_mmed3.41
	.cfi_def_cfa %rbp, 16
	movzbl	%bl, %edi
	movzbl	%r15b, %esi
	movzbl	%r14b, %edx
	callq	mmed3.41
	movzbl	%al, %eax
	addq	$8, %rsp
	popq	%rbx
	popq	%r14
	popq	%r15
	popq	%rbp
	.cfi_def_cfa %rsp, 8
	retq
.LBB7_8:                                # %func_mmed3.52
	.cfi_def_cfa %rbp, 16
	movzbl	%bl, %edi
	movzbl	%r15b, %esi
	movzbl	%r14b, %edx
	callq	mmed3.52
	movzbl	%al, %eax
	addq	$8, %rsp
	popq	%rbx
	popq	%r14
	popq	%r15
	popq	%rbp
	.cfi_def_cfa %rsp, 8
	retq
.LBB7_9:                                # %func_mmed3.62
	.cfi_def_cfa %rbp, 16
	movzbl	%bl, %edi
	movzbl	%r15b, %esi
	movzbl	%r14b, %edx
	callq	mmed3.62
	movzbl	%al, %eax
	addq	$8, %rsp
	popq	%rbx
	popq	%r14
	popq	%r15
	popq	%rbp
	.cfi_def_cfa %rsp, 8
	retq
.LBB7_10:                               # %func_mmed3.90
	.cfi_def_cfa %rbp, 16
	movzbl	%bl, %edi
	movzbl	%r15b, %esi
	movzbl	%r14b, %edx
	callq	mmed3.90
	movzbl	%al, %eax
	addq	$8, %rsp
	popq	%rbx
	popq	%r14
	popq	%r15
	popq	%rbp
	.cfi_def_cfa %rsp, 8
	retq
.LBB7_11:                               # %func_mmed3.99
	.cfi_def_cfa %rbp, 16
	movzbl	%bl, %edi
	movzbl	%r15b, %esi
	movzbl	%r14b, %edx
	callq	mmed3.99
	movzbl	%al, %eax
	addq	$8, %rsp
	popq	%rbx
	popq	%r14
	popq	%r15
	popq	%rbp
	.cfi_def_cfa %rsp, 8
	retq
.LBB7_12:                               # %func_mmed3.118
	.cfi_def_cfa %rbp, 16
	movzbl	%bl, %edi
	movzbl	%r15b, %esi
	movzbl	%r14b, %edx
	callq	mmed3.118
	movzbl	%al, %eax
	addq	$8, %rsp
	popq	%rbx
	popq	%r14
	popq	%r15
	popq	%rbp
	.cfi_def_cfa %rsp, 8
	retq
.LBB7_13:                               # %func_mmed3.122
	.cfi_def_cfa %rbp, 16
	movzbl	%bl, %edi
	movzbl	%r15b, %esi
	movzbl	%r14b, %edx
	callq	mmed3.122
	movzbl	%al, %eax
	addq	$8, %rsp
	popq	%rbx
	popq	%r14
	popq	%r15
	popq	%rbp
	.cfi_def_cfa %rsp, 8
	retq
.LBB7_14:                               # %func_mmed3.123
	.cfi_def_cfa %rbp, 16
	movzbl	%bl, %edi
	movzbl	%r15b, %esi
	movzbl	%r14b, %edx
	callq	mmed3.123
	movzbl	%al, %eax
	addq	$8, %rsp
	popq	%rbx
	popq	%r14
	popq	%r15
	popq	%rbp
	.cfi_def_cfa %rsp, 8
	retq
.LBB7_15:                               # %func_mmed3.129
	.cfi_def_cfa %rbp, 16
	movzbl	%bl, %edi
	movzbl	%r15b, %esi
	movzbl	%r14b, %edx
	callq	mmed3.129
	movzbl	%al, %eax
	addq	$8, %rsp
	popq	%rbx
	popq	%r14
	popq	%r15
	popq	%rbp
	.cfi_def_cfa %rsp, 8
	retq
.LBB7_16:                               # %func_mmed3.131
	.cfi_def_cfa %rbp, 16
	movzbl	%bl, %edi
	movzbl	%r15b, %esi
	movzbl	%r14b, %edx
	callq	mmed3.131
	movzbl	%al, %eax
	addq	$8, %rsp
	popq	%rbx
	popq	%r14
	popq	%r15
	popq	%rbp
	.cfi_def_cfa %rsp, 8
	retq
.LBB7_17:                               # %ctrl0
	.cfi_def_cfa %rbp, 16
	cmpl	$1, %eax
	je	.LBB7_2
# %bb.18:                               # %ctrl1
	cmpl	$2, %eax
	je	.LBB7_3
# %bb.19:                               # %ctrl2
	cmpl	$3, %eax
	je	.LBB7_4
# %bb.20:                               # %ctrl3
	cmpl	$4, %eax
	je	.LBB7_5
# %bb.21:                               # %ctrl4
	cmpl	$5, %eax
	je	.LBB7_6
# %bb.22:                               # %ctrl5
	cmpl	$6, %eax
	je	.LBB7_7
# %bb.23:                               # %ctrl6
	cmpl	$7, %eax
	je	.LBB7_8
# %bb.24:                               # %ctrl7
	cmpl	$8, %eax
	je	.LBB7_9
# %bb.25:                               # %ctrl8
	cmpl	$9, %eax
	je	.LBB7_10
# %bb.26:                               # %ctrl9
	cmpl	$10, %eax
	je	.LBB7_11
# %bb.27:                               # %ctrl10
	cmpl	$11, %eax
	je	.LBB7_12
# %bb.28:                               # %ctrl11
	cmpl	$12, %eax
	je	.LBB7_13
# %bb.29:                               # %ctrl12
	cmpl	$13, %eax
	je	.LBB7_14
# %bb.30:                               # %ctrl13
	cmpl	$14, %eax
	je	.LBB7_15
	jmp	.LBB7_16
.Lfunc_end7:
	.size	mmed3, .Lfunc_end7-mmed3
	.cfi_endproc
                                        # -- End function
	.p2align	4, 0x90         # -- Begin function mainGtU
	.type	mainGtU,@function
mainGtU:                                # @mainGtU
	.cfi_startproc
# %bb.0:                                # %rand_bb
	pushq	%rbp
	.cfi_def_cfa_offset 16
	.cfi_offset %rbp, -16
	movq	%rsp, %rbp
	.cfi_def_cfa_register %rbp
	pushq	%r15
	pushq	%r14
	pushq	%r13
	pushq	%r12
	pushq	%rbx
	pushq	%rax
	.cfi_offset %rbx, -56
	.cfi_offset %r12, -48
	.cfi_offset %r13, -40
	.cfi_offset %r14, -32
	.cfi_offset %r15, -24
	movq	%r9, -48(%rbp)          # 8-byte Spill
	movl	%r8d, %r12d
	movq	%rcx, %r13
	movq	%rdx, %rbx
	movl	%esi, %r14d
	movl	%edi, %r15d
	callq	get_rand
	cmpl	$0, %eax
	jne	.LBB8_17
# %bb.1:                                # %func_mainGtU.5
	movl	%r15d, %edi
	movl	%r14d, %esi
	movq	%rbx, %rdx
	movq	%r13, %rcx
	movl	%r12d, %r8d
	movq	-48(%rbp), %r9          # 8-byte Reload
	callq	mainGtU.5
	movzbl	%al, %eax
	addq	$8, %rsp
	popq	%rbx
	popq	%r12
	popq	%r13
	popq	%r14
	popq	%r15
	popq	%rbp
	.cfi_def_cfa %rsp, 8
	retq
.LBB8_2:                                # %func_mainGtU.19
	.cfi_def_cfa %rbp, 16
	movq	%r13, %rcx
	movl	%r11d, %r8d
	movq	%r10, %r9
	callq	mainGtU.19
	movzbl	%al, %eax
	addq	$8, %rsp
	popq	%rbx
	popq	%r12
	popq	%r13
	popq	%r14
	popq	%r15
	popq	%rbp
	.cfi_def_cfa %rsp, 8
	retq
.LBB8_3:                                # %func_mainGtU.36
	.cfi_def_cfa %rbp, 16
	movl	%ebx, %edi
	movl	%r14d, %esi
	movq	%r12, %rdx
	movq	%r15, %rcx
	callq	mainGtU.36
	movzbl	%al, %eax
	addq	$8, %rsp
	popq	%rbx
	popq	%r12
	popq	%r13
	popq	%r14
	popq	%r15
	popq	%rbp
	.cfi_def_cfa %rsp, 8
	retq
.LBB8_4:                                # %func_mainGtU.40
	.cfi_def_cfa %rbp, 16
	movl	%ebx, %edi
	movl	%r14d, %esi
	movq	%r12, %rdx
	movq	%r15, %rcx
	callq	mainGtU.40
	movzbl	%al, %eax
	addq	$8, %rsp
	popq	%rbx
	popq	%r12
	popq	%r13
	popq	%r14
	popq	%r15
	popq	%rbp
	.cfi_def_cfa %rsp, 8
	retq
.LBB8_5:                                # %func_mainGtU.46
	.cfi_def_cfa %rbp, 16
	movl	%ebx, %edi
	movl	%r14d, %esi
	movq	%r12, %rdx
	movq	%r15, %rcx
	callq	mainGtU.46
	movzbl	%al, %eax
	addq	$8, %rsp
	popq	%rbx
	popq	%r12
	popq	%r13
	popq	%r14
	popq	%r15
	popq	%rbp
	.cfi_def_cfa %rsp, 8
	retq
.LBB8_6:                                # %func_mainGtU.53
	.cfi_def_cfa %rbp, 16
	movl	%ebx, %edi
	movl	%r14d, %esi
	movq	%r12, %rdx
	movq	%r15, %rcx
	callq	mainGtU.53
	movzbl	%al, %eax
	addq	$8, %rsp
	popq	%rbx
	popq	%r12
	popq	%r13
	popq	%r14
	popq	%r15
	popq	%rbp
	.cfi_def_cfa %rsp, 8
	retq
.LBB8_7:                                # %func_mainGtU.58
	.cfi_def_cfa %rbp, 16
	movl	%ebx, %edi
	movl	%r14d, %esi
	movq	%r12, %rdx
	movq	%r15, %rcx
	callq	mainGtU.58
	movzbl	%al, %eax
	addq	$8, %rsp
	popq	%rbx
	popq	%r12
	popq	%r13
	popq	%r14
	popq	%r15
	popq	%rbp
	.cfi_def_cfa %rsp, 8
	retq
.LBB8_8:                                # %func_mainGtU.59
	.cfi_def_cfa %rbp, 16
	movl	%ebx, %edi
	movl	%r14d, %esi
	movq	%r12, %rdx
	movq	%r15, %rcx
	callq	mainGtU.59
	movzbl	%al, %eax
	addq	$8, %rsp
	popq	%rbx
	popq	%r12
	popq	%r13
	popq	%r14
	popq	%r15
	popq	%rbp
	.cfi_def_cfa %rsp, 8
	retq
.LBB8_9:                                # %func_mainGtU.68
	.cfi_def_cfa %rbp, 16
	movl	%ebx, %edi
	movl	%r14d, %esi
	movq	%r12, %rdx
	movq	%r15, %rcx
	callq	mainGtU.68
	movzbl	%al, %eax
	addq	$8, %rsp
	popq	%rbx
	popq	%r12
	popq	%r13
	popq	%r14
	popq	%r15
	popq	%rbp
	.cfi_def_cfa %rsp, 8
	retq
.LBB8_10:                               # %func_mainGtU.74
	.cfi_def_cfa %rbp, 16
	movl	%ebx, %edi
	movl	%r14d, %esi
	movq	%r12, %rdx
	movq	%r15, %rcx
	callq	mainGtU.74
	movzbl	%al, %eax
	addq	$8, %rsp
	popq	%rbx
	popq	%r12
	popq	%r13
	popq	%r14
	popq	%r15
	popq	%rbp
	.cfi_def_cfa %rsp, 8
	retq
.LBB8_11:                               # %func_mainGtU.77
	.cfi_def_cfa %rbp, 16
	movl	%ebx, %edi
	movl	%r14d, %esi
	movq	%r12, %rdx
	movq	%r15, %rcx
	callq	mainGtU.77
	movzbl	%al, %eax
	addq	$8, %rsp
	popq	%rbx
	popq	%r12
	popq	%r13
	popq	%r14
	popq	%r15
	popq	%rbp
	.cfi_def_cfa %rsp, 8
	retq
.LBB8_12:                               # %func_mainGtU.81
	.cfi_def_cfa %rbp, 16
	movl	%ebx, %edi
	movl	%r14d, %esi
	movq	%r12, %rdx
	movq	%r15, %rcx
	callq	mainGtU.81
	movzbl	%al, %eax
	addq	$8, %rsp
	popq	%rbx
	popq	%r12
	popq	%r13
	popq	%r14
	popq	%r15
	popq	%rbp
	.cfi_def_cfa %rsp, 8
	retq
.LBB8_13:                               # %func_mainGtU.82
	.cfi_def_cfa %rbp, 16
	movl	%ebx, %edi
	movl	%r14d, %esi
	movq	%r12, %rdx
	movq	%r15, %rcx
	callq	mainGtU.82
	movzbl	%al, %eax
	addq	$8, %rsp
	popq	%rbx
	popq	%r12
	popq	%r13
	popq	%r14
	popq	%r15
	popq	%rbp
	.cfi_def_cfa %rsp, 8
	retq
.LBB8_14:                               # %func_mainGtU.87
	.cfi_def_cfa %rbp, 16
	movl	%ebx, %edi
	movl	%r14d, %esi
	movq	%r12, %rdx
	movq	%r15, %rcx
	callq	mainGtU.87
	movzbl	%al, %eax
	addq	$8, %rsp
	popq	%rbx
	popq	%r12
	popq	%r13
	popq	%r14
	popq	%r15
	popq	%rbp
	.cfi_def_cfa %rsp, 8
	retq
.LBB8_15:                               # %func_mainGtU.97
	.cfi_def_cfa %rbp, 16
	movq	%r13, %rcx
	movl	%r11d, %r8d
	movq	%r10, %r9
	callq	mainGtU.97
	movzbl	%al, %eax
	addq	$8, %rsp
	popq	%rbx
	popq	%r12
	popq	%r13
	popq	%r14
	popq	%r15
	popq	%rbp
	.cfi_def_cfa %rsp, 8
	retq
.LBB8_16:                               # %func_mainGtU.110
	.cfi_def_cfa %rbp, 16
	movq	%r13, %rcx
	movl	%r11d, %r8d
	movq	%r10, %r9
	callq	mainGtU.110
	movzbl	%al, %eax
	addq	$8, %rsp
	popq	%rbx
	popq	%r12
	popq	%r13
	popq	%r14
	popq	%r15
	popq	%rbp
	.cfi_def_cfa %rsp, 8
	retq
.LBB8_17:                               # %ctrl0
	.cfi_def_cfa %rbp, 16
	movl	%r15d, %edi
	movl	%r14d, %esi
	movq	%rbx, %rdx
	movl	%r12d, %r11d
	movq	-48(%rbp), %r10         # 8-byte Reload
	cmpl	$1, %eax
	je	.LBB8_2
# %bb.18:                               # %ctrl1
	cmpl	$2, %eax
	movq	%r10, %r9
	movl	%r11d, %r8d
	movq	%r13, %r15
	movq	%rdx, %r12
	movl	%esi, %r14d
	movl	%edi, %ebx
	je	.LBB8_3
# %bb.19:                               # %ctrl2
	cmpl	$3, %eax
	je	.LBB8_4
# %bb.20:                               # %ctrl3
	cmpl	$4, %eax
	je	.LBB8_5
# %bb.21:                               # %ctrl4
	cmpl	$5, %eax
	je	.LBB8_6
# %bb.22:                               # %ctrl5
	cmpl	$6, %eax
	je	.LBB8_7
# %bb.23:                               # %ctrl6
	cmpl	$7, %eax
	je	.LBB8_8
# %bb.24:                               # %ctrl7
	cmpl	$8, %eax
	je	.LBB8_9
# %bb.25:                               # %ctrl8
	cmpl	$9, %eax
	je	.LBB8_10
# %bb.26:                               # %ctrl9
	cmpl	$10, %eax
	je	.LBB8_11
# %bb.27:                               # %ctrl10
	cmpl	$11, %eax
	je	.LBB8_12
# %bb.28:                               # %ctrl11
	cmpl	$12, %eax
	je	.LBB8_13
# %bb.29:                               # %ctrl12
	cmpl	$13, %eax
	je	.LBB8_14
# %bb.30:                               # %ctrl13
	cmpl	$14, %eax
	je	.LBB8_15
	jmp	.LBB8_16
.Lfunc_end8:
	.size	mainGtU, .Lfunc_end8-mainGtU
	.cfi_endproc
                                        # -- End function
	.p2align	4, 0x90         # -- Begin function mainSimpleSort.1
	.type	mainSimpleSort.1,@function
mainSimpleSort.1:                       # @mainSimpleSort.1
	.cfi_startproc
# %bb.0:                                # %entry
	pushq	%rbp
	.cfi_def_cfa_offset 16
	.cfi_offset %rbp, -16
	movq	%rsp, %rbp
	.cfi_def_cfa_register %rbp
	subq	$80, %rsp
	movq	24(%rbp), %rax
	movl	16(%rbp), %eax
	movl	$1731125582, -68(%rbp)  # imm = 0x672EE14E
	movq	%rdi, -32(%rbp)
	movq	%rsi, -64(%rbp)
	movq	%rdx, -56(%rbp)
	movl	%ecx, -44(%rbp)
	movl	%r8d, -36(%rbp)
	movl	%r9d, -40(%rbp)
	movl	-40(%rbp), %eax
	subl	-36(%rbp), %eax
	addl	$1, %eax
	movl	%eax, -48(%rbp)
	cmpl	$2, -48(%rbp)
	jge	.LBB9_2
# %bb.1:                                # %if.then
	jmp	.LBB9_38
.LBB9_2:                                # %if.end
	movl	$0, -16(%rbp)
.LBB9_3:                                # %while.cond
                                        # =>This Inner Loop Header: Depth=1
	movslq	-16(%rbp), %rax
	movl	incs(,%rax,4), %eax
	cmpl	-48(%rbp), %eax
	jge	.LBB9_5
# %bb.4:                                # %while.body
                                        #   in Loop: Header=BB9_3 Depth=1
	movl	-16(%rbp), %eax
	addl	$1, %eax
	movl	%eax, -16(%rbp)
	jmp	.LBB9_3
.LBB9_5:                                # %while.end
	movl	-16(%rbp), %eax
	addl	$-1, %eax
	movl	%eax, -16(%rbp)
.LBB9_6:                                # %for.cond
                                        # =>This Loop Header: Depth=1
                                        #     Child Loop BB9_8 Depth 2
                                        #       Child Loop BB9_11 Depth 3
                                        #       Child Loop BB9_19 Depth 3
                                        #       Child Loop BB9_27 Depth 3
	cmpl	$0, -16(%rbp)
	jl	.LBB9_37
# %bb.7:                                # %for.body
                                        #   in Loop: Header=BB9_6 Depth=1
	movslq	-16(%rbp), %rax
	movl	incs(,%rax,4), %eax
	movl	%eax, -12(%rbp)
	movl	-36(%rbp), %eax
	addl	-12(%rbp), %eax
	movl	%eax, -8(%rbp)
.LBB9_8:                                # %while.body7
                                        #   Parent Loop BB9_6 Depth=1
                                        # =>  This Loop Header: Depth=2
                                        #       Child Loop BB9_11 Depth 3
                                        #       Child Loop BB9_19 Depth 3
                                        #       Child Loop BB9_27 Depth 3
	movl	-8(%rbp), %eax
	cmpl	-40(%rbp), %eax
	jle	.LBB9_10
# %bb.9:                                # %if.then9
                                        #   in Loop: Header=BB9_6 Depth=1
	jmp	.LBB9_35
.LBB9_10:                               # %if.end10
                                        #   in Loop: Header=BB9_8 Depth=2
	movq	-32(%rbp), %rax
	movslq	-8(%rbp), %rcx
	movl	(%rax,%rcx,4), %eax
	movl	%eax, -20(%rbp)
	movl	-8(%rbp), %eax
	movl	%eax, -4(%rbp)
.LBB9_11:                               # %while.cond13
                                        #   Parent Loop BB9_6 Depth=1
                                        #     Parent Loop BB9_8 Depth=2
                                        # =>    This Inner Loop Header: Depth=3
	movq	-32(%rbp), %rax
	movl	-4(%rbp), %ecx
	subl	-12(%rbp), %ecx
	movslq	%ecx, %rcx
	movl	(%rax,%rcx,4), %edi
	addl	16(%rbp), %edi
	movl	-20(%rbp), %esi
	addl	16(%rbp), %esi
	movq	-64(%rbp), %rdx
	movq	-56(%rbp), %rcx
	movl	-44(%rbp), %r8d
	movq	24(%rbp), %r9
	callq	mainGtU
	cmpb	$0, %al
	je	.LBB9_15
# %bb.12:                               # %while.body19
                                        #   in Loop: Header=BB9_11 Depth=3
	movq	-32(%rbp), %rax
	movl	-4(%rbp), %ecx
	subl	-12(%rbp), %ecx
	movslq	%ecx, %rcx
	movl	(%rax,%rcx,4), %eax
	movq	-32(%rbp), %rcx
	movslq	-4(%rbp), %rdx
	movl	%eax, (%rcx,%rdx,4)
	movl	-4(%rbp), %eax
	subl	-12(%rbp), %eax
	movl	%eax, -4(%rbp)
	movl	-4(%rbp), %eax
	movl	-36(%rbp), %ecx
	addl	-12(%rbp), %ecx
	subl	$1, %ecx
	cmpl	%ecx, %eax
	jg	.LBB9_14
# %bb.13:                               # %if.then29
                                        #   in Loop: Header=BB9_8 Depth=2
	jmp	.LBB9_16
.LBB9_14:                               # %if.end30
                                        #   in Loop: Header=BB9_11 Depth=3
	jmp	.LBB9_11
.LBB9_15:                               # %while.end31.loopexit
                                        #   in Loop: Header=BB9_8 Depth=2
	jmp	.LBB9_16
.LBB9_16:                               # %while.end31
                                        #   in Loop: Header=BB9_8 Depth=2
	movl	-20(%rbp), %eax
	movq	-32(%rbp), %rcx
	movslq	-4(%rbp), %rdx
	movl	%eax, (%rcx,%rdx,4)
	movl	-8(%rbp), %eax
	addl	$1, %eax
	movl	%eax, -8(%rbp)
	movl	-8(%rbp), %eax
	cmpl	-40(%rbp), %eax
	jle	.LBB9_18
# %bb.17:                               # %if.then36
                                        #   in Loop: Header=BB9_6 Depth=1
	jmp	.LBB9_35
.LBB9_18:                               # %if.end37
                                        #   in Loop: Header=BB9_8 Depth=2
	movq	-32(%rbp), %rax
	movslq	-8(%rbp), %rcx
	movl	(%rax,%rcx,4), %eax
	movl	%eax, -20(%rbp)
	movl	-8(%rbp), %eax
	movl	%eax, -4(%rbp)
.LBB9_19:                               # %while.cond40
                                        #   Parent Loop BB9_6 Depth=1
                                        #     Parent Loop BB9_8 Depth=2
                                        # =>    This Inner Loop Header: Depth=3
	movq	-32(%rbp), %rax
	movl	-4(%rbp), %ecx
	subl	-12(%rbp), %ecx
	movslq	%ecx, %rcx
	movl	(%rax,%rcx,4), %edi
	addl	16(%rbp), %edi
	movl	-20(%rbp), %esi
	addl	16(%rbp), %esi
	movq	-64(%rbp), %rdx
	movq	-56(%rbp), %rcx
	movl	-44(%rbp), %r8d
	movq	24(%rbp), %r9
	callq	mainGtU
	cmpb	$0, %al
	je	.LBB9_23
# %bb.20:                               # %while.body48
                                        #   in Loop: Header=BB9_19 Depth=3
	movq	-32(%rbp), %rax
	movl	-4(%rbp), %ecx
	subl	-12(%rbp), %ecx
	movslq	%ecx, %rcx
	movl	(%rax,%rcx,4), %eax
	movq	-32(%rbp), %rcx
	movslq	-4(%rbp), %rdx
	movl	%eax, (%rcx,%rdx,4)
	movl	-4(%rbp), %eax
	subl	-12(%rbp), %eax
	movl	%eax, -4(%rbp)
	movl	-4(%rbp), %eax
	movl	-36(%rbp), %ecx
	addl	-12(%rbp), %ecx
	subl	$1, %ecx
	cmpl	%ecx, %eax
	jg	.LBB9_22
# %bb.21:                               # %if.then58
                                        #   in Loop: Header=BB9_8 Depth=2
	jmp	.LBB9_24
.LBB9_22:                               # %if.end59
                                        #   in Loop: Header=BB9_19 Depth=3
	jmp	.LBB9_19
.LBB9_23:                               # %while.end60.loopexit
                                        #   in Loop: Header=BB9_8 Depth=2
	jmp	.LBB9_24
.LBB9_24:                               # %while.end60
                                        #   in Loop: Header=BB9_8 Depth=2
	movl	-20(%rbp), %eax
	movq	-32(%rbp), %rcx
	movslq	-4(%rbp), %rdx
	movl	%eax, (%rcx,%rdx,4)
	movl	-8(%rbp), %eax
	addl	$1, %eax
	movl	%eax, -8(%rbp)
	movl	-8(%rbp), %eax
	cmpl	-40(%rbp), %eax
	jle	.LBB9_26
# %bb.25:                               # %if.then65
                                        #   in Loop: Header=BB9_6 Depth=1
	jmp	.LBB9_35
.LBB9_26:                               # %if.end66
                                        #   in Loop: Header=BB9_8 Depth=2
	movq	-32(%rbp), %rax
	movslq	-8(%rbp), %rcx
	movl	(%rax,%rcx,4), %eax
	movl	%eax, -20(%rbp)
	movl	-8(%rbp), %eax
	movl	%eax, -4(%rbp)
.LBB9_27:                               # %while.cond69
                                        #   Parent Loop BB9_6 Depth=1
                                        #     Parent Loop BB9_8 Depth=2
                                        # =>    This Inner Loop Header: Depth=3
	movq	-32(%rbp), %rax
	movl	-4(%rbp), %ecx
	subl	-12(%rbp), %ecx
	movslq	%ecx, %rcx
	movl	(%rax,%rcx,4), %edi
	addl	16(%rbp), %edi
	movl	-20(%rbp), %esi
	addl	16(%rbp), %esi
	movq	-64(%rbp), %rdx
	movq	-56(%rbp), %rcx
	movl	-44(%rbp), %r8d
	movq	24(%rbp), %r9
	callq	mainGtU
	cmpb	$0, %al
	je	.LBB9_31
# %bb.28:                               # %while.body77
                                        #   in Loop: Header=BB9_27 Depth=3
	movq	-32(%rbp), %rax
	movl	-4(%rbp), %ecx
	subl	-12(%rbp), %ecx
	movslq	%ecx, %rcx
	movl	(%rax,%rcx,4), %eax
	movq	-32(%rbp), %rcx
	movslq	-4(%rbp), %rdx
	movl	%eax, (%rcx,%rdx,4)
	movl	-4(%rbp), %eax
	subl	-12(%rbp), %eax
	movl	%eax, -4(%rbp)
	movl	-4(%rbp), %eax
	movl	-36(%rbp), %ecx
	addl	-12(%rbp), %ecx
	subl	$1, %ecx
	cmpl	%ecx, %eax
	jg	.LBB9_30
# %bb.29:                               # %if.then87
                                        #   in Loop: Header=BB9_8 Depth=2
	jmp	.LBB9_32
.LBB9_30:                               # %if.end88
                                        #   in Loop: Header=BB9_27 Depth=3
	jmp	.LBB9_27
.LBB9_31:                               # %while.end89.loopexit
                                        #   in Loop: Header=BB9_8 Depth=2
	jmp	.LBB9_32
.LBB9_32:                               # %while.end89
                                        #   in Loop: Header=BB9_8 Depth=2
	movl	-20(%rbp), %eax
	movq	-32(%rbp), %rcx
	movslq	-4(%rbp), %rdx
	movl	%eax, (%rcx,%rdx,4)
	movl	-8(%rbp), %eax
	addl	$1, %eax
	movl	%eax, -8(%rbp)
	movq	24(%rbp), %rax
	cmpl	$0, (%rax)
	jge	.LBB9_34
# %bb.33:                               # %if.then94
	jmp	.LBB9_38
.LBB9_34:                               # %if.end95
                                        #   in Loop: Header=BB9_8 Depth=2
	jmp	.LBB9_8
.LBB9_35:                               # %while.end96
                                        #   in Loop: Header=BB9_6 Depth=1
	jmp	.LBB9_36
.LBB9_36:                               # %for.inc
                                        #   in Loop: Header=BB9_6 Depth=1
	movl	-16(%rbp), %eax
	addl	$-1, %eax
	movl	%eax, -16(%rbp)
	jmp	.LBB9_6
.LBB9_37:                               # %for.end.loopexit
	jmp	.LBB9_38
.LBB9_38:                               # %for.end
	cmpl	$1731125582, -68(%rbp)  # imm = 0x672EE14E
	jne	.LBB9_40
.LBB9_39:
	addq	$80, %rsp
	popq	%rbp
	.cfi_def_cfa %rsp, 8
	retq
.LBB9_40:                               # %func_exit
	.cfi_def_cfa %rbp, 16
	callq	detect_breach
	jmp	.LBB9_39
.Lfunc_end9:
	.size	mainSimpleSort.1, .Lfunc_end9-mainSimpleSort.1
	.cfi_endproc
                                        # -- End function
	.p2align	4, 0x90         # -- Begin function fallbackSimpleSort.2
	.type	fallbackSimpleSort.2,@function
fallbackSimpleSort.2:                   # @fallbackSimpleSort.2
	.cfi_startproc
# %bb.0:                                # %entry
	pushq	%rbp
	.cfi_def_cfa_offset 16
	.cfi_offset %rbp, -16
	movq	%rsp, %rbp
	.cfi_def_cfa_register %rbp
	subq	$48, %rsp
	movl	$1298616505, -44(%rbp)  # imm = 0x4D6750B9
	movq	%rdi, -24(%rbp)
	movq	%rsi, -40(%rbp)
	movl	%edx, -28(%rbp)
	movl	%ecx, -12(%rbp)
	movl	-28(%rbp), %eax
	cmpl	-12(%rbp), %eax
	jne	.LBB10_2
# %bb.1:                                # %if.then
	jmp	.LBB10_25
.LBB10_2:                               # %if.end
	movl	-12(%rbp), %eax
	subl	-28(%rbp), %eax
	cmpl	$3, %eax
	jle	.LBB10_14
# %bb.3:                                # %if.then2
	movl	-12(%rbp), %eax
	subl	$4, %eax
	movl	%eax, -8(%rbp)
.LBB10_4:                               # %for.cond
                                        # =>This Loop Header: Depth=1
                                        #     Child Loop BB10_6 Depth 2
	movl	-8(%rbp), %eax
	cmpl	-28(%rbp), %eax
	jl	.LBB10_13
# %bb.5:                                # %for.body
                                        #   in Loop: Header=BB10_4 Depth=1
	movq	-24(%rbp), %rax
	movslq	-8(%rbp), %rcx
	movl	(%rax,%rcx,4), %eax
	movl	%eax, -16(%rbp)
	movq	-40(%rbp), %rax
	movslq	-16(%rbp), %rcx
	movl	(%rax,%rcx,4), %eax
	movl	%eax, -32(%rbp)
	movl	-8(%rbp), %eax
	addl	$4, %eax
	movl	%eax, -4(%rbp)
.LBB10_6:                               # %for.cond7
                                        #   Parent Loop BB10_4 Depth=1
                                        # =>  This Inner Loop Header: Depth=2
	xorl	%eax, %eax
	movl	-4(%rbp), %ecx
	cmpl	-12(%rbp), %ecx
	jg	.LBB10_8
# %bb.7:                                # %land.rhs
                                        #   in Loop: Header=BB10_6 Depth=2
	movl	-32(%rbp), %eax
	movq	-40(%rbp), %rcx
	movq	-24(%rbp), %rdx
	movslq	-4(%rbp), %rsi
	movl	(%rdx,%rsi,4), %edx
	cmpl	(%rcx,%rdx,4), %eax
	seta	%al
.LBB10_8:                               # %land.end
                                        #   in Loop: Header=BB10_6 Depth=2
	testb	$1, %al
	jne	.LBB10_9
	jmp	.LBB10_11
.LBB10_9:                               # %for.body14
                                        #   in Loop: Header=BB10_6 Depth=2
	movq	-24(%rbp), %rax
	movslq	-4(%rbp), %rcx
	movl	(%rax,%rcx,4), %eax
	movq	-24(%rbp), %rcx
	movl	-4(%rbp), %edx
	subl	$4, %edx
	movslq	%edx, %rdx
	movl	%eax, (%rcx,%rdx,4)
# %bb.10:                               # %for.inc
                                        #   in Loop: Header=BB10_6 Depth=2
	movl	-4(%rbp), %eax
	addl	$4, %eax
	movl	%eax, -4(%rbp)
	jmp	.LBB10_6
.LBB10_11:                              # %for.end
                                        #   in Loop: Header=BB10_4 Depth=1
	movl	-16(%rbp), %eax
	movq	-24(%rbp), %rcx
	movl	-4(%rbp), %edx
	subl	$4, %edx
	movslq	%edx, %rdx
	movl	%eax, (%rcx,%rdx,4)
# %bb.12:                               # %for.inc24
                                        #   in Loop: Header=BB10_4 Depth=1
	movl	-8(%rbp), %eax
	addl	$-1, %eax
	movl	%eax, -8(%rbp)
	jmp	.LBB10_4
.LBB10_13:                              # %for.end25
	jmp	.LBB10_14
.LBB10_14:                              # %if.end26
	movl	-12(%rbp), %eax
	subl	$1, %eax
	movl	%eax, -8(%rbp)
.LBB10_15:                              # %for.cond28
                                        # =>This Loop Header: Depth=1
                                        #     Child Loop BB10_17 Depth 2
	movl	-8(%rbp), %eax
	cmpl	-28(%rbp), %eax
	jl	.LBB10_24
# %bb.16:                               # %for.body30
                                        #   in Loop: Header=BB10_15 Depth=1
	movq	-24(%rbp), %rax
	movslq	-8(%rbp), %rcx
	movl	(%rax,%rcx,4), %eax
	movl	%eax, -16(%rbp)
	movq	-40(%rbp), %rax
	movslq	-16(%rbp), %rcx
	movl	(%rax,%rcx,4), %eax
	movl	%eax, -32(%rbp)
	movl	-8(%rbp), %eax
	addl	$1, %eax
	movl	%eax, -4(%rbp)
.LBB10_17:                              # %for.cond36
                                        #   Parent Loop BB10_15 Depth=1
                                        # =>  This Inner Loop Header: Depth=2
	xorl	%eax, %eax
	movl	-4(%rbp), %ecx
	cmpl	-12(%rbp), %ecx
	jg	.LBB10_19
# %bb.18:                               # %land.rhs38
                                        #   in Loop: Header=BB10_17 Depth=2
	movl	-32(%rbp), %eax
	movq	-40(%rbp), %rcx
	movq	-24(%rbp), %rdx
	movslq	-4(%rbp), %rsi
	movl	(%rdx,%rsi,4), %edx
	cmpl	(%rcx,%rdx,4), %eax
	seta	%al
.LBB10_19:                              # %land.end44
                                        #   in Loop: Header=BB10_17 Depth=2
	testb	$1, %al
	jne	.LBB10_20
	jmp	.LBB10_22
.LBB10_20:                              # %for.body45
                                        #   in Loop: Header=BB10_17 Depth=2
	movq	-24(%rbp), %rax
	movslq	-4(%rbp), %rcx
	movl	(%rax,%rcx,4), %eax
	movq	-24(%rbp), %rcx
	movl	-4(%rbp), %edx
	subl	$1, %edx
	movslq	%edx, %rdx
	movl	%eax, (%rcx,%rdx,4)
# %bb.21:                               # %for.inc51
                                        #   in Loop: Header=BB10_17 Depth=2
	movl	-4(%rbp), %eax
	addl	$1, %eax
	movl	%eax, -4(%rbp)
	jmp	.LBB10_17
.LBB10_22:                              # %for.end52
                                        #   in Loop: Header=BB10_15 Depth=1
	movl	-16(%rbp), %eax
	movq	-24(%rbp), %rcx
	movl	-4(%rbp), %edx
	subl	$1, %edx
	movslq	%edx, %rdx
	movl	%eax, (%rcx,%rdx,4)
# %bb.23:                               # %for.inc56
                                        #   in Loop: Header=BB10_15 Depth=1
	movl	-8(%rbp), %eax
	addl	$-1, %eax
	movl	%eax, -8(%rbp)
	jmp	.LBB10_15
.LBB10_24:                              # %for.end58.loopexit
	jmp	.LBB10_25
.LBB10_25:                              # %for.end58
	cmpl	$1298616505, -44(%rbp)  # imm = 0x4D6750B9
	jne	.LBB10_27
.LBB10_26:
	addq	$48, %rsp
	popq	%rbp
	.cfi_def_cfa %rsp, 8
	retq
.LBB10_27:                              # %func_exit
	.cfi_def_cfa %rbp, 16
	callq	detect_breach
	jmp	.LBB10_26
.Lfunc_end10:
	.size	fallbackSimpleSort.2, .Lfunc_end10-fallbackSimpleSort.2
	.cfi_endproc
                                        # -- End function
	.p2align	4, 0x90         # -- Begin function mainSort.3
	.type	mainSort.3,@function
mainSort.3:                             # @mainSort.3
	.cfi_startproc
# %bb.0:                                # %entry
	pushq	%rbp
	.cfi_def_cfa_offset 16
	.cfi_offset %rbp, -16
	movq	%rsp, %rbp
	.cfi_def_cfa_register %rbp
	subq	$3472, %rsp             # imm = 0xD90
	movq	16(%rbp), %rax
	movl	$1858961589, -116(%rbp) # imm = 0x6ECD80B5
	movq	%rdi, -56(%rbp)
	movq	%rsi, -48(%rbp)
	movq	%rdx, -80(%rbp)
	movq	%rcx, -24(%rbp)
	movl	%r8d, -36(%rbp)
	movl	%r9d, -96(%rbp)
	cmpl	$4, -96(%rbp)
	jl	.LBB11_2
# %bb.1:                                # %if.then
	movq	stderr, %rdi
	movabsq	$.L.str.6, %rsi
	movb	$0, %al
	callq	fprintf
.LBB11_2:                               # %if.end
	movl	$65536, -8(%rbp)        # imm = 0x10000
.LBB11_3:                               # %for.cond
                                        # =>This Inner Loop Header: Depth=1
	cmpl	$0, -8(%rbp)
	jl	.LBB11_6
# %bb.4:                                # %for.body
                                        #   in Loop: Header=BB11_3 Depth=1
	movq	-24(%rbp), %rax
	movslq	-8(%rbp), %rcx
	movl	$0, (%rax,%rcx,4)
# %bb.5:                                # %for.inc
                                        #   in Loop: Header=BB11_3 Depth=1
	movl	-8(%rbp), %eax
	addl	$-1, %eax
	movl	%eax, -8(%rbp)
	jmp	.LBB11_3
.LBB11_6:                               # %for.end
	movq	-48(%rbp), %rax
	movzbl	(%rax), %eax
	shll	$8, %eax
	movl	%eax, -4(%rbp)
	movl	-36(%rbp), %eax
	subl	$1, %eax
	movl	%eax, -8(%rbp)
.LBB11_7:                               # %for.cond3
                                        # =>This Inner Loop Header: Depth=1
	cmpl	$3, -8(%rbp)
	jl	.LBB11_10
# %bb.8:                                # %for.body6
                                        #   in Loop: Header=BB11_7 Depth=1
	movq	-80(%rbp), %rax
	movslq	-8(%rbp), %rcx
	movw	$0, (%rax,%rcx,2)
	movl	-4(%rbp), %eax
	sarl	$8, %eax
	movq	-48(%rbp), %rcx
	movslq	-8(%rbp), %rdx
	movzbl	(%rcx,%rdx), %ecx
	movzwl	%cx, %ecx
	shll	$8, %ecx
	orl	%ecx, %eax
	movl	%eax, -4(%rbp)
	movq	-24(%rbp), %rax
	movslq	-4(%rbp), %rcx
	movl	(%rax,%rcx,4), %edx
	addl	$1, %edx
	movl	%edx, (%rax,%rcx,4)
	movq	-80(%rbp), %rax
	movl	-8(%rbp), %ecx
	subl	$1, %ecx
	movslq	%ecx, %rcx
	movw	$0, (%rax,%rcx,2)
	movl	-4(%rbp), %eax
	sarl	$8, %eax
	movq	-48(%rbp), %rcx
	movl	-8(%rbp), %edx
	subl	$1, %edx
	movslq	%edx, %rdx
	movzbl	(%rcx,%rdx), %ecx
	movzwl	%cx, %ecx
	shll	$8, %ecx
	orl	%ecx, %eax
	movl	%eax, -4(%rbp)
	movq	-24(%rbp), %rax
	movslq	-4(%rbp), %rcx
	movl	(%rax,%rcx,4), %edx
	addl	$1, %edx
	movl	%edx, (%rax,%rcx,4)
	movq	-80(%rbp), %rax
	movl	-8(%rbp), %ecx
	subl	$2, %ecx
	movslq	%ecx, %rcx
	movw	$0, (%rax,%rcx,2)
	movl	-4(%rbp), %eax
	sarl	$8, %eax
	movq	-48(%rbp), %rcx
	movl	-8(%rbp), %edx
	subl	$2, %edx
	movslq	%edx, %rdx
	movzbl	(%rcx,%rdx), %ecx
	movzwl	%cx, %ecx
	shll	$8, %ecx
	orl	%ecx, %eax
	movl	%eax, -4(%rbp)
	movq	-24(%rbp), %rax
	movslq	-4(%rbp), %rcx
	movl	(%rax,%rcx,4), %edx
	addl	$1, %edx
	movl	%edx, (%rax,%rcx,4)
	movq	-80(%rbp), %rax
	movl	-8(%rbp), %ecx
	subl	$3, %ecx
	movslq	%ecx, %rcx
	movw	$0, (%rax,%rcx,2)
	movl	-4(%rbp), %eax
	sarl	$8, %eax
	movq	-48(%rbp), %rcx
	movl	-8(%rbp), %edx
	subl	$3, %edx
	movslq	%edx, %rdx
	movzbl	(%rcx,%rdx), %ecx
	movzwl	%cx, %ecx
	shll	$8, %ecx
	orl	%ecx, %eax
	movl	%eax, -4(%rbp)
	movq	-24(%rbp), %rax
	movslq	-4(%rbp), %rcx
	movl	(%rax,%rcx,4), %edx
	addl	$1, %edx
	movl	%edx, (%rax,%rcx,4)
# %bb.9:                                # %for.inc58
                                        #   in Loop: Header=BB11_7 Depth=1
	movl	-8(%rbp), %eax
	subl	$4, %eax
	movl	%eax, -8(%rbp)
	jmp	.LBB11_7
.LBB11_10:                              # %for.end60
	jmp	.LBB11_11
.LBB11_11:                              # %for.cond61
                                        # =>This Inner Loop Header: Depth=1
	cmpl	$0, -8(%rbp)
	jl	.LBB11_14
# %bb.12:                               # %for.body64
                                        #   in Loop: Header=BB11_11 Depth=1
	movq	-80(%rbp), %rax
	movslq	-8(%rbp), %rcx
	movw	$0, (%rax,%rcx,2)
	movl	-4(%rbp), %eax
	sarl	$8, %eax
	movq	-48(%rbp), %rcx
	movslq	-8(%rbp), %rdx
	movzbl	(%rcx,%rdx), %ecx
	movzwl	%cx, %ecx
	shll	$8, %ecx
	orl	%ecx, %eax
	movl	%eax, -4(%rbp)
	movq	-24(%rbp), %rax
	movslq	-4(%rbp), %rcx
	movl	(%rax,%rcx,4), %edx
	addl	$1, %edx
	movl	%edx, (%rax,%rcx,4)
# %bb.13:                               # %for.inc77
                                        #   in Loop: Header=BB11_11 Depth=1
	movl	-8(%rbp), %eax
	addl	$-1, %eax
	movl	%eax, -8(%rbp)
	jmp	.LBB11_11
.LBB11_14:                              # %for.end79
	movl	$0, -8(%rbp)
.LBB11_15:                              # %for.cond80
                                        # =>This Inner Loop Header: Depth=1
	cmpl	$34, -8(%rbp)
	jge	.LBB11_18
# %bb.16:                               # %for.body83
                                        #   in Loop: Header=BB11_15 Depth=1
	movq	-48(%rbp), %rax
	movslq	-8(%rbp), %rcx
	movb	(%rax,%rcx), %al
	movq	-48(%rbp), %rcx
	movl	-36(%rbp), %edx
	addl	-8(%rbp), %edx
	movslq	%edx, %rdx
	movb	%al, (%rcx,%rdx)
	movq	-80(%rbp), %rax
	movl	-36(%rbp), %ecx
	addl	-8(%rbp), %ecx
	movslq	%ecx, %rcx
	movw	$0, (%rax,%rcx,2)
# %bb.17:                               # %for.inc91
                                        #   in Loop: Header=BB11_15 Depth=1
	movl	-8(%rbp), %eax
	addl	$1, %eax
	movl	%eax, -8(%rbp)
	jmp	.LBB11_15
.LBB11_18:                              # %for.end93
	cmpl	$4, -96(%rbp)
	jl	.LBB11_20
# %bb.19:                               # %if.then96
	movq	stderr, %rdi
	movabsq	$.L.str.2, %rsi
	movb	$0, %al
	callq	fprintf
.LBB11_20:                              # %if.end98
	movl	$1, -8(%rbp)
.LBB11_21:                              # %for.cond99
                                        # =>This Inner Loop Header: Depth=1
	cmpl	$65536, -8(%rbp)        # imm = 0x10000
	jg	.LBB11_24
# %bb.22:                               # %for.body102
                                        #   in Loop: Header=BB11_21 Depth=1
	movq	-24(%rbp), %rax
	movl	-8(%rbp), %ecx
	subl	$1, %ecx
	movslq	%ecx, %rcx
	movl	(%rax,%rcx,4), %eax
	movq	-24(%rbp), %rcx
	movslq	-8(%rbp), %rdx
	addl	(%rcx,%rdx,4), %eax
	movl	%eax, (%rcx,%rdx,4)
# %bb.23:                               # %for.inc109
                                        #   in Loop: Header=BB11_21 Depth=1
	movl	-8(%rbp), %eax
	addl	$1, %eax
	movl	%eax, -8(%rbp)
	jmp	.LBB11_21
.LBB11_24:                              # %for.end111
	movq	-48(%rbp), %rax
	movzbl	(%rax), %eax
	shll	$8, %eax
	movw	%ax, -10(%rbp)
	movl	-36(%rbp), %eax
	subl	$1, %eax
	movl	%eax, -8(%rbp)
.LBB11_25:                              # %for.cond117
                                        # =>This Inner Loop Header: Depth=1
	cmpl	$3, -8(%rbp)
	jl	.LBB11_28
# %bb.26:                               # %for.body120
                                        #   in Loop: Header=BB11_25 Depth=1
	movzwl	-10(%rbp), %eax
	sarl	$8, %eax
	movq	-48(%rbp), %rcx
	movslq	-8(%rbp), %rdx
	movzbl	(%rcx,%rdx), %ecx
	shll	$8, %ecx
	orl	%ecx, %eax
	movw	%ax, -10(%rbp)
	movq	-24(%rbp), %rax
	movzwl	-10(%rbp), %ecx
	movl	(%rax,%rcx,4), %eax
	subl	$1, %eax
	movl	%eax, -4(%rbp)
	movl	-4(%rbp), %eax
	movq	-24(%rbp), %rcx
	movzwl	-10(%rbp), %edx
	movl	%eax, (%rcx,%rdx,4)
	movl	-8(%rbp), %eax
	movq	-56(%rbp), %rcx
	movslq	-4(%rbp), %rdx
	movl	%eax, (%rcx,%rdx,4)
	movzwl	-10(%rbp), %eax
	sarl	$8, %eax
	movq	-48(%rbp), %rcx
	movl	-8(%rbp), %edx
	subl	$1, %edx
	movslq	%edx, %rdx
	movzbl	(%rcx,%rdx), %ecx
	shll	$8, %ecx
	orl	%ecx, %eax
	movw	%ax, -10(%rbp)
	movq	-24(%rbp), %rax
	movzwl	-10(%rbp), %ecx
	movl	(%rax,%rcx,4), %eax
	subl	$1, %eax
	movl	%eax, -4(%rbp)
	movl	-4(%rbp), %eax
	movq	-24(%rbp), %rcx
	movzwl	-10(%rbp), %edx
	movl	%eax, (%rcx,%rdx,4)
	movl	-8(%rbp), %eax
	subl	$1, %eax
	movq	-56(%rbp), %rcx
	movslq	-4(%rbp), %rdx
	movl	%eax, (%rcx,%rdx,4)
	movzwl	-10(%rbp), %eax
	sarl	$8, %eax
	movq	-48(%rbp), %rcx
	movl	-8(%rbp), %edx
	subl	$2, %edx
	movslq	%edx, %rdx
	movzbl	(%rcx,%rdx), %ecx
	shll	$8, %ecx
	orl	%ecx, %eax
	movw	%ax, -10(%rbp)
	movq	-24(%rbp), %rax
	movzwl	-10(%rbp), %ecx
	movl	(%rax,%rcx,4), %eax
	subl	$1, %eax
	movl	%eax, -4(%rbp)
	movl	-4(%rbp), %eax
	movq	-24(%rbp), %rcx
	movzwl	-10(%rbp), %edx
	movl	%eax, (%rcx,%rdx,4)
	movl	-8(%rbp), %eax
	subl	$2, %eax
	movq	-56(%rbp), %rcx
	movslq	-4(%rbp), %rdx
	movl	%eax, (%rcx,%rdx,4)
	movzwl	-10(%rbp), %eax
	sarl	$8, %eax
	movq	-48(%rbp), %rcx
	movl	-8(%rbp), %edx
	subl	$3, %edx
	movslq	%edx, %rdx
	movzbl	(%rcx,%rdx), %ecx
	shll	$8, %ecx
	orl	%ecx, %eax
	movw	%ax, -10(%rbp)
	movq	-24(%rbp), %rax
	movzwl	-10(%rbp), %ecx
	movl	(%rax,%rcx,4), %eax
	subl	$1, %eax
	movl	%eax, -4(%rbp)
	movl	-4(%rbp), %eax
	movq	-24(%rbp), %rcx
	movzwl	-10(%rbp), %edx
	movl	%eax, (%rcx,%rdx,4)
	movl	-8(%rbp), %eax
	subl	$3, %eax
	movq	-56(%rbp), %rcx
	movslq	-4(%rbp), %rdx
	movl	%eax, (%rcx,%rdx,4)
# %bb.27:                               # %for.inc187
                                        #   in Loop: Header=BB11_25 Depth=1
	movl	-8(%rbp), %eax
	subl	$4, %eax
	movl	%eax, -8(%rbp)
	jmp	.LBB11_25
.LBB11_28:                              # %for.end189
	jmp	.LBB11_29
.LBB11_29:                              # %for.cond190
                                        # =>This Inner Loop Header: Depth=1
	cmpl	$0, -8(%rbp)
	jl	.LBB11_32
# %bb.30:                               # %for.body193
                                        #   in Loop: Header=BB11_29 Depth=1
	movzwl	-10(%rbp), %eax
	sarl	$8, %eax
	movq	-48(%rbp), %rcx
	movslq	-8(%rbp), %rdx
	movzbl	(%rcx,%rdx), %ecx
	shll	$8, %ecx
	orl	%ecx, %eax
	movw	%ax, -10(%rbp)
	movq	-24(%rbp), %rax
	movzwl	-10(%rbp), %ecx
	movl	(%rax,%rcx,4), %eax
	subl	$1, %eax
	movl	%eax, -4(%rbp)
	movl	-4(%rbp), %eax
	movq	-24(%rbp), %rcx
	movzwl	-10(%rbp), %edx
	movl	%eax, (%rcx,%rdx,4)
	movl	-8(%rbp), %eax
	movq	-56(%rbp), %rcx
	movslq	-4(%rbp), %rdx
	movl	%eax, (%rcx,%rdx,4)
# %bb.31:                               # %for.inc209
                                        #   in Loop: Header=BB11_29 Depth=1
	movl	-8(%rbp), %eax
	addl	$-1, %eax
	movl	%eax, -8(%rbp)
	jmp	.LBB11_29
.LBB11_32:                              # %for.end211
	movl	$0, -8(%rbp)
.LBB11_33:                              # %for.cond212
                                        # =>This Inner Loop Header: Depth=1
	cmpl	$255, -8(%rbp)
	jg	.LBB11_36
# %bb.34:                               # %for.body215
                                        #   in Loop: Header=BB11_33 Depth=1
	movslq	-8(%rbp), %rax
	movb	$0, -384(%rbp,%rax)
	movl	-8(%rbp), %eax
	movslq	-8(%rbp), %rcx
	movl	%eax, -1408(%rbp,%rcx,4)
# %bb.35:                               # %for.inc220
                                        #   in Loop: Header=BB11_33 Depth=1
	movl	-8(%rbp), %eax
	addl	$1, %eax
	movl	%eax, -8(%rbp)
	jmp	.LBB11_33
.LBB11_36:                              # %for.end222
	movl	$1, -28(%rbp)
.LBB11_37:                              # %do.body
                                        # =>This Inner Loop Header: Depth=1
	imull	$3, -28(%rbp), %eax
	addl	$1, %eax
	movl	%eax, -28(%rbp)
# %bb.38:                               # %do.cond
                                        #   in Loop: Header=BB11_37 Depth=1
	cmpl	$256, -28(%rbp)         # imm = 0x100
	jle	.LBB11_37
# %bb.39:                               # %do.end
	jmp	.LBB11_40
.LBB11_40:                              # %do.body226
                                        # =>This Loop Header: Depth=1
                                        #     Child Loop BB11_41 Depth 2
                                        #       Child Loop BB11_43 Depth 3
	movl	-28(%rbp), %eax
	cltd
	movl	$3, %ecx
	idivl	%ecx
	movl	%eax, -28(%rbp)
	movl	-28(%rbp), %eax
	movl	%eax, -8(%rbp)
.LBB11_41:                              # %for.cond227
                                        #   Parent Loop BB11_40 Depth=1
                                        # =>  This Loop Header: Depth=2
                                        #       Child Loop BB11_43 Depth 3
	cmpl	$255, -8(%rbp)
	jg	.LBB11_50
# %bb.42:                               # %for.body230
                                        #   in Loop: Header=BB11_41 Depth=2
	movslq	-8(%rbp), %rax
	movl	-1408(%rbp,%rax,4), %eax
	movl	%eax, -104(%rbp)
	movl	-8(%rbp), %eax
	movl	%eax, -4(%rbp)
.LBB11_43:                              # %while.cond
                                        #   Parent Loop BB11_40 Depth=1
                                        #     Parent Loop BB11_41 Depth=2
                                        # =>    This Inner Loop Header: Depth=3
	movq	-24(%rbp), %rax
	movl	-4(%rbp), %ecx
	subl	-28(%rbp), %ecx
	movslq	%ecx, %rcx
	movl	-1408(%rbp,%rcx,4), %ecx
	addl	$1, %ecx
	shll	$8, %ecx
	movslq	%ecx, %rcx
	movl	(%rax,%rcx,4), %eax
	movq	-24(%rbp), %rcx
	movl	-4(%rbp), %edx
	subl	-28(%rbp), %edx
	movslq	%edx, %rdx
	movl	-1408(%rbp,%rdx,4), %edx
	shll	$8, %edx
	movslq	%edx, %rdx
	subl	(%rcx,%rdx,4), %eax
	movq	-24(%rbp), %rcx
	movl	-104(%rbp), %edx
	addl	$1, %edx
	shll	$8, %edx
	movslq	%edx, %rdx
	movl	(%rcx,%rdx,4), %ecx
	movq	-24(%rbp), %rdx
	movl	-104(%rbp), %esi
	shll	$8, %esi
	movslq	%esi, %rsi
	subl	(%rdx,%rsi,4), %ecx
	cmpl	%ecx, %eax
	jbe	.LBB11_47
# %bb.44:                               # %while.body
                                        #   in Loop: Header=BB11_43 Depth=3
	movl	-4(%rbp), %eax
	subl	-28(%rbp), %eax
	cltq
	movl	-1408(%rbp,%rax,4), %eax
	movslq	-4(%rbp), %rcx
	movl	%eax, -1408(%rbp,%rcx,4)
	movl	-4(%rbp), %eax
	subl	-28(%rbp), %eax
	movl	%eax, -4(%rbp)
	movl	-4(%rbp), %eax
	movl	-28(%rbp), %ecx
	subl	$1, %ecx
	cmpl	%ecx, %eax
	jg	.LBB11_46
# %bb.45:                               # %if.then266
                                        #   in Loop: Header=BB11_41 Depth=2
	jmp	.LBB11_48
.LBB11_46:                              # %if.end267
                                        #   in Loop: Header=BB11_43 Depth=3
	jmp	.LBB11_43
.LBB11_47:                              # %while.end
                                        #   in Loop: Header=BB11_41 Depth=2
	jmp	.LBB11_48
.LBB11_48:                              # %zero
                                        #   in Loop: Header=BB11_41 Depth=2
	movl	-104(%rbp), %eax
	movslq	-4(%rbp), %rcx
	movl	%eax, -1408(%rbp,%rcx,4)
# %bb.49:                               # %for.inc270
                                        #   in Loop: Header=BB11_41 Depth=2
	movl	-8(%rbp), %eax
	addl	$1, %eax
	movl	%eax, -8(%rbp)
	jmp	.LBB11_41
.LBB11_50:                              # %for.end272
                                        #   in Loop: Header=BB11_40 Depth=1
	jmp	.LBB11_51
.LBB11_51:                              # %do.cond273
                                        #   in Loop: Header=BB11_40 Depth=1
	cmpl	$1, -28(%rbp)
	jne	.LBB11_40
# %bb.52:                               # %do.end276
	movl	$0, -60(%rbp)
	movl	$0, -8(%rbp)
.LBB11_53:                              # %for.cond277
                                        # =>This Loop Header: Depth=1
                                        #     Child Loop BB11_55 Depth 2
                                        #     Child Loop BB11_71 Depth 2
                                        #     Child Loop BB11_75 Depth 2
                                        #     Child Loop BB11_83 Depth 2
                                        #     Child Loop BB11_95 Depth 2
                                        #     Child Loop BB11_100 Depth 2
                                        #     Child Loop BB11_103 Depth 2
	cmpl	$255, -8(%rbp)
	jg	.LBB11_113
# %bb.54:                               # %for.body280
                                        #   in Loop: Header=BB11_53 Depth=1
	movslq	-8(%rbp), %rax
	movl	-1408(%rbp,%rax,4), %eax
	movl	%eax, -16(%rbp)
	movl	$0, -4(%rbp)
.LBB11_55:                              # %for.cond283
                                        #   Parent Loop BB11_53 Depth=1
                                        # =>  This Inner Loop Header: Depth=2
	cmpl	$255, -4(%rbp)
	jg	.LBB11_68
# %bb.56:                               # %for.body286
                                        #   in Loop: Header=BB11_55 Depth=2
	movl	-4(%rbp), %eax
	cmpl	-16(%rbp), %eax
	je	.LBB11_66
# %bb.57:                               # %if.then289
                                        #   in Loop: Header=BB11_55 Depth=2
	movl	-16(%rbp), %eax
	shll	$8, %eax
	addl	-4(%rbp), %eax
	movl	%eax, -84(%rbp)
	movq	-24(%rbp), %rax
	movslq	-84(%rbp), %rcx
	movl	(%rax,%rcx,4), %eax
	andl	$2097152, %eax          # imm = 0x200000
	cmpl	$0, %eax
	jne	.LBB11_65
# %bb.58:                               # %if.then294
                                        #   in Loop: Header=BB11_55 Depth=2
	movq	-24(%rbp), %rax
	movslq	-84(%rbp), %rcx
	movl	(%rax,%rcx,4), %eax
	andl	$-2097153, %eax         # imm = 0xFFDFFFFF
	movl	%eax, -92(%rbp)
	movq	-24(%rbp), %rax
	movl	-84(%rbp), %ecx
	addl	$1, %ecx
	movslq	%ecx, %rcx
	movl	(%rax,%rcx,4), %eax
	andl	$-2097153, %eax         # imm = 0xFFDFFFFF
	subl	$1, %eax
	movl	%eax, -88(%rbp)
	movl	-88(%rbp), %eax
	cmpl	-92(%rbp), %eax
	jle	.LBB11_64
# %bb.59:                               # %if.then305
                                        #   in Loop: Header=BB11_55 Depth=2
	cmpl	$4, -96(%rbp)
	jl	.LBB11_61
# %bb.60:                               # %if.then308
                                        #   in Loop: Header=BB11_55 Depth=2
	movq	stderr, %rdi
	movl	-16(%rbp), %edx
	movl	-4(%rbp), %ecx
	movl	-60(%rbp), %r8d
	movl	-88(%rbp), %r9d
	subl	-92(%rbp), %r9d
	addl	$1, %r9d
	movabsq	$.L.str.7, %rsi
	movb	$0, %al
	callq	fprintf
.LBB11_61:                              # %if.end312
                                        #   in Loop: Header=BB11_55 Depth=2
	movq	-56(%rbp), %rdi
	movq	-48(%rbp), %rsi
	movq	-80(%rbp), %rdx
	movl	-36(%rbp), %ecx
	movl	-92(%rbp), %r8d
	movl	-88(%rbp), %r9d
	movq	16(%rbp), %rax
	movl	$2, (%rsp)
	movq	%rax, 8(%rsp)
	callq	mainQSort3
	movl	-88(%rbp), %eax
	subl	-92(%rbp), %eax
	addl	$1, %eax
	addl	-60(%rbp), %eax
	movl	%eax, -60(%rbp)
	movq	16(%rbp), %rax
	cmpl	$0, (%rax)
	jge	.LBB11_63
# %bb.62:                               # %if.then318
	jmp	.LBB11_115
.LBB11_63:                              # %if.end319
                                        #   in Loop: Header=BB11_55 Depth=2
	jmp	.LBB11_64
.LBB11_64:                              # %if.end320
                                        #   in Loop: Header=BB11_55 Depth=2
	jmp	.LBB11_65
.LBB11_65:                              # %if.end321
                                        #   in Loop: Header=BB11_55 Depth=2
	movq	-24(%rbp), %rax
	movslq	-84(%rbp), %rcx
	movl	(%rax,%rcx,4), %edx
	orl	$2097152, %edx          # imm = 0x200000
	movl	%edx, (%rax,%rcx,4)
.LBB11_66:                              # %if.end325
                                        #   in Loop: Header=BB11_55 Depth=2
	jmp	.LBB11_67
.LBB11_67:                              # %for.inc326
                                        #   in Loop: Header=BB11_55 Depth=2
	movl	-4(%rbp), %eax
	addl	$1, %eax
	movl	%eax, -4(%rbp)
	jmp	.LBB11_55
.LBB11_68:                              # %for.end328
                                        #   in Loop: Header=BB11_53 Depth=1
	movslq	-16(%rbp), %rax
	cmpb	$0, -384(%rbp,%rax)
	je	.LBB11_70
# %bb.69:                               # %if.then332
                                        #   in Loop: Header=BB11_53 Depth=1
	movl	$1006, %edi             # imm = 0x3EE
	callq	BZ2_bz__AssertH__fail
.LBB11_70:                              # %if.end333
                                        #   in Loop: Header=BB11_53 Depth=1
	movl	$0, -4(%rbp)
.LBB11_71:                              # %for.cond334
                                        #   Parent Loop BB11_53 Depth=1
                                        # =>  This Inner Loop Header: Depth=2
	cmpl	$255, -4(%rbp)
	jg	.LBB11_74
# %bb.72:                               # %for.body337
                                        #   in Loop: Header=BB11_71 Depth=2
	movq	-24(%rbp), %rax
	movl	-4(%rbp), %ecx
	shll	$8, %ecx
	addl	-16(%rbp), %ecx
	movslq	%ecx, %rcx
	movl	(%rax,%rcx,4), %eax
	andl	$-2097153, %eax         # imm = 0xFFDFFFFF
	movslq	-4(%rbp), %rcx
	movl	%eax, -3456(%rbp,%rcx,4)
	movq	-24(%rbp), %rax
	movl	-4(%rbp), %ecx
	shll	$8, %ecx
	addl	-16(%rbp), %ecx
	addl	$1, %ecx
	movslq	%ecx, %rcx
	movl	(%rax,%rcx,4), %eax
	andl	$-2097153, %eax         # imm = 0xFFDFFFFF
	subl	$1, %eax
	movslq	-4(%rbp), %rcx
	movl	%eax, -2432(%rbp,%rcx,4)
# %bb.73:                               # %for.inc354
                                        #   in Loop: Header=BB11_71 Depth=2
	movl	-4(%rbp), %eax
	addl	$1, %eax
	movl	%eax, -4(%rbp)
	jmp	.LBB11_71
.LBB11_74:                              # %for.end356
                                        #   in Loop: Header=BB11_53 Depth=1
	movq	-24(%rbp), %rax
	movl	-16(%rbp), %ecx
	shll	$8, %ecx
	movslq	%ecx, %rcx
	movl	(%rax,%rcx,4), %eax
	andl	$-2097153, %eax         # imm = 0xFFDFFFFF
	movl	%eax, -4(%rbp)
.LBB11_75:                              # %for.cond361
                                        #   Parent Loop BB11_53 Depth=1
                                        # =>  This Inner Loop Header: Depth=2
	movl	-4(%rbp), %eax
	movslq	-16(%rbp), %rcx
	cmpl	-3456(%rbp,%rcx,4), %eax
	jge	.LBB11_82
# %bb.76:                               # %for.body366
                                        #   in Loop: Header=BB11_75 Depth=2
	movq	-56(%rbp), %rax
	movslq	-4(%rbp), %rcx
	movl	(%rax,%rcx,4), %eax
	subl	$1, %eax
	movl	%eax, -32(%rbp)
	cmpl	$0, -32(%rbp)
	jge	.LBB11_78
# %bb.77:                               # %if.then372
                                        #   in Loop: Header=BB11_75 Depth=2
	movl	-36(%rbp), %eax
	addl	-32(%rbp), %eax
	movl	%eax, -32(%rbp)
.LBB11_78:                              # %if.end374
                                        #   in Loop: Header=BB11_75 Depth=2
	movq	-48(%rbp), %rax
	movslq	-32(%rbp), %rcx
	movb	(%rax,%rcx), %al
	movb	%al, -11(%rbp)
	movzbl	-11(%rbp), %eax
	cmpb	$0, -384(%rbp,%rax)
	jne	.LBB11_80
# %bb.79:                               # %if.then380
                                        #   in Loop: Header=BB11_75 Depth=2
	movl	-32(%rbp), %eax
	movq	-56(%rbp), %rcx
	movzbl	-11(%rbp), %edx
	movl	-3456(%rbp,%rdx,4), %esi
	movl	%esi, %edi
	addl	$1, %edi
	movl	%edi, -3456(%rbp,%rdx,4)
	movslq	%esi, %rdx
	movl	%eax, (%rcx,%rdx,4)
.LBB11_80:                              # %if.end386
                                        #   in Loop: Header=BB11_75 Depth=2
	jmp	.LBB11_81
.LBB11_81:                              # %for.inc387
                                        #   in Loop: Header=BB11_75 Depth=2
	movl	-4(%rbp), %eax
	addl	$1, %eax
	movl	%eax, -4(%rbp)
	jmp	.LBB11_75
.LBB11_82:                              # %for.end389
                                        #   in Loop: Header=BB11_53 Depth=1
	movq	-24(%rbp), %rax
	movl	-16(%rbp), %ecx
	addl	$1, %ecx
	shll	$8, %ecx
	movslq	%ecx, %rcx
	movl	(%rax,%rcx,4), %eax
	andl	$-2097153, %eax         # imm = 0xFFDFFFFF
	subl	$1, %eax
	movl	%eax, -4(%rbp)
.LBB11_83:                              # %for.cond396
                                        #   Parent Loop BB11_53 Depth=1
                                        # =>  This Inner Loop Header: Depth=2
	movl	-4(%rbp), %eax
	movslq	-16(%rbp), %rcx
	cmpl	-2432(%rbp,%rcx,4), %eax
	jle	.LBB11_90
# %bb.84:                               # %for.body401
                                        #   in Loop: Header=BB11_83 Depth=2
	movq	-56(%rbp), %rax
	movslq	-4(%rbp), %rcx
	movl	(%rax,%rcx,4), %eax
	subl	$1, %eax
	movl	%eax, -32(%rbp)
	cmpl	$0, -32(%rbp)
	jge	.LBB11_86
# %bb.85:                               # %if.then407
                                        #   in Loop: Header=BB11_83 Depth=2
	movl	-36(%rbp), %eax
	addl	-32(%rbp), %eax
	movl	%eax, -32(%rbp)
.LBB11_86:                              # %if.end409
                                        #   in Loop: Header=BB11_83 Depth=2
	movq	-48(%rbp), %rax
	movslq	-32(%rbp), %rcx
	movb	(%rax,%rcx), %al
	movb	%al, -11(%rbp)
	movzbl	-11(%rbp), %eax
	cmpb	$0, -384(%rbp,%rax)
	jne	.LBB11_88
# %bb.87:                               # %if.then415
                                        #   in Loop: Header=BB11_83 Depth=2
	movl	-32(%rbp), %eax
	movq	-56(%rbp), %rcx
	movzbl	-11(%rbp), %edx
	movl	-2432(%rbp,%rdx,4), %esi
	movl	%esi, %edi
	addl	$-1, %edi
	movl	%edi, -2432(%rbp,%rdx,4)
	movslq	%esi, %rdx
	movl	%eax, (%rcx,%rdx,4)
.LBB11_88:                              # %if.end421
                                        #   in Loop: Header=BB11_83 Depth=2
	jmp	.LBB11_89
.LBB11_89:                              # %for.inc422
                                        #   in Loop: Header=BB11_83 Depth=2
	movl	-4(%rbp), %eax
	addl	$-1, %eax
	movl	%eax, -4(%rbp)
	jmp	.LBB11_83
.LBB11_90:                              # %for.end424
                                        #   in Loop: Header=BB11_53 Depth=1
	movslq	-16(%rbp), %rax
	movl	-3456(%rbp,%rax,4), %eax
	subl	$1, %eax
	movslq	-16(%rbp), %rcx
	cmpl	-2432(%rbp,%rcx,4), %eax
	je	.LBB11_94
# %bb.91:                               # %lor.lhs.false
                                        #   in Loop: Header=BB11_53 Depth=1
	movslq	-16(%rbp), %rax
	cmpl	$0, -3456(%rbp,%rax,4)
	jne	.LBB11_93
# %bb.92:                               # %land.lhs.true
                                        #   in Loop: Header=BB11_53 Depth=1
	movslq	-16(%rbp), %rax
	movl	-2432(%rbp,%rax,4), %eax
	movl	-36(%rbp), %ecx
	subl	$1, %ecx
	cmpl	%ecx, %eax
	je	.LBB11_94
.LBB11_93:                              # %if.then441
                                        #   in Loop: Header=BB11_53 Depth=1
	movl	$1007, %edi             # imm = 0x3EF
	callq	BZ2_bz__AssertH__fail
.LBB11_94:                              # %if.end442
                                        #   in Loop: Header=BB11_53 Depth=1
	movl	$0, -4(%rbp)
.LBB11_95:                              # %for.cond443
                                        #   Parent Loop BB11_53 Depth=1
                                        # =>  This Inner Loop Header: Depth=2
	cmpl	$255, -4(%rbp)
	jg	.LBB11_98
# %bb.96:                               # %for.body446
                                        #   in Loop: Header=BB11_95 Depth=2
	movq	-24(%rbp), %rax
	movl	-4(%rbp), %ecx
	shll	$8, %ecx
	addl	-16(%rbp), %ecx
	movslq	%ecx, %rcx
	movl	(%rax,%rcx,4), %edx
	orl	$2097152, %edx          # imm = 0x200000
	movl	%edx, (%rax,%rcx,4)
# %bb.97:                               # %for.inc452
                                        #   in Loop: Header=BB11_95 Depth=2
	movl	-4(%rbp), %eax
	addl	$1, %eax
	movl	%eax, -4(%rbp)
	jmp	.LBB11_95
.LBB11_98:                              # %for.end454
                                        #   in Loop: Header=BB11_53 Depth=1
	movslq	-16(%rbp), %rax
	movb	$1, -384(%rbp,%rax)
	cmpl	$255, -8(%rbp)
	jge	.LBB11_111
# %bb.99:                               # %if.then459
                                        #   in Loop: Header=BB11_53 Depth=1
	movq	-24(%rbp), %rax
	movl	-16(%rbp), %ecx
	shll	$8, %ecx
	movslq	%ecx, %rcx
	movl	(%rax,%rcx,4), %eax
	andl	$-2097153, %eax         # imm = 0xFFDFFFFF
	movl	%eax, -112(%rbp)
	movq	-24(%rbp), %rax
	movl	-16(%rbp), %ecx
	addl	$1, %ecx
	shll	$8, %ecx
	movslq	%ecx, %rcx
	movl	(%rax,%rcx,4), %eax
	andl	$-2097153, %eax         # imm = 0xFFDFFFFF
	subl	-112(%rbp), %eax
	movl	%eax, -108(%rbp)
	movl	$0, -64(%rbp)
.LBB11_100:                             # %while.cond470
                                        #   Parent Loop BB11_53 Depth=1
                                        # =>  This Inner Loop Header: Depth=2
	movl	-108(%rbp), %eax
	movl	-64(%rbp), %ecx
                                        # kill: def $cl killed $ecx
	sarl	%cl, %eax
	cmpl	$65534, %eax            # imm = 0xFFFE
	jle	.LBB11_102
# %bb.101:                              # %while.body474
                                        #   in Loop: Header=BB11_100 Depth=2
	movl	-64(%rbp), %eax
	addl	$1, %eax
	movl	%eax, -64(%rbp)
	jmp	.LBB11_100
.LBB11_102:                             # %while.end476
                                        #   in Loop: Header=BB11_53 Depth=1
	movl	-108(%rbp), %eax
	subl	$1, %eax
	movl	%eax, -4(%rbp)
.LBB11_103:                             # %for.cond478
                                        #   Parent Loop BB11_53 Depth=1
                                        # =>  This Inner Loop Header: Depth=2
	cmpl	$0, -4(%rbp)
	jl	.LBB11_108
# %bb.104:                              # %for.body481
                                        #   in Loop: Header=BB11_103 Depth=2
	movq	-56(%rbp), %rax
	movl	-112(%rbp), %ecx
	addl	-4(%rbp), %ecx
	movslq	%ecx, %rcx
	movl	(%rax,%rcx,4), %eax
	movl	%eax, -100(%rbp)
	movl	-4(%rbp), %eax
	movl	-64(%rbp), %ecx
                                        # kill: def $cl killed $ecx
	sarl	%cl, %eax
	movw	%ax, -66(%rbp)
	movw	-66(%rbp), %ax
	movq	-80(%rbp), %rcx
	movslq	-100(%rbp), %rdx
	movw	%ax, (%rcx,%rdx,2)
	cmpl	$34, -100(%rbp)
	jge	.LBB11_106
# %bb.105:                              # %if.then491
                                        #   in Loop: Header=BB11_103 Depth=2
	movw	-66(%rbp), %ax
	movq	-80(%rbp), %rcx
	movl	-100(%rbp), %edx
	addl	-36(%rbp), %edx
	movslq	%edx, %rdx
	movw	%ax, (%rcx,%rdx,2)
.LBB11_106:                             # %if.end495
                                        #   in Loop: Header=BB11_103 Depth=2
	jmp	.LBB11_107
.LBB11_107:                             # %for.inc496
                                        #   in Loop: Header=BB11_103 Depth=2
	movl	-4(%rbp), %eax
	addl	$-1, %eax
	movl	%eax, -4(%rbp)
	jmp	.LBB11_103
.LBB11_108:                             # %for.end498
                                        #   in Loop: Header=BB11_53 Depth=1
	movl	-108(%rbp), %eax
	subl	$1, %eax
	movl	-64(%rbp), %ecx
                                        # kill: def $cl killed $ecx
	sarl	%cl, %eax
	cmpl	$65535, %eax            # imm = 0xFFFF
	jle	.LBB11_110
# %bb.109:                              # %if.then503
                                        #   in Loop: Header=BB11_53 Depth=1
	movl	$1002, %edi             # imm = 0x3EA
	callq	BZ2_bz__AssertH__fail
.LBB11_110:                             # %if.end504
                                        #   in Loop: Header=BB11_53 Depth=1
	jmp	.LBB11_111
.LBB11_111:                             # %if.end505
                                        #   in Loop: Header=BB11_53 Depth=1
	jmp	.LBB11_112
.LBB11_112:                             # %for.inc506
                                        #   in Loop: Header=BB11_53 Depth=1
	movl	-8(%rbp), %eax
	addl	$1, %eax
	movl	%eax, -8(%rbp)
	jmp	.LBB11_53
.LBB11_113:                             # %for.end508
	cmpl	$4, -96(%rbp)
	jl	.LBB11_115
# %bb.114:                              # %if.then511
	movq	stderr, %rdi
	movl	-36(%rbp), %edx
	movl	-60(%rbp), %ecx
	movl	-36(%rbp), %r8d
	subl	-60(%rbp), %r8d
	movabsq	$.L.str.8, %rsi
	movb	$0, %al
	callq	fprintf
.LBB11_115:                             # %if.end514
	cmpl	$1858961589, -116(%rbp) # imm = 0x6ECD80B5
	jne	.LBB11_117
.LBB11_116:
	addq	$3472, %rsp             # imm = 0xD90
	popq	%rbp
	.cfi_def_cfa %rsp, 8
	retq
.LBB11_117:                             # %func_exit
	.cfi_def_cfa %rbp, 16
	callq	detect_breach
	jmp	.LBB11_116
.Lfunc_end11:
	.size	mainSort.3, .Lfunc_end11-mainSort.3
	.cfi_endproc
                                        # -- End function
	.p2align	4, 0x90         # -- Begin function mainSort.4
	.type	mainSort.4,@function
mainSort.4:                             # @mainSort.4
	.cfi_startproc
# %bb.0:                                # %entry
	pushq	%rbp
	.cfi_def_cfa_offset 16
	.cfi_offset %rbp, -16
	movq	%rsp, %rbp
	.cfi_def_cfa_register %rbp
	subq	$3472, %rsp             # imm = 0xD90
	movq	16(%rbp), %rax
	movl	$997746540, -116(%rbp)  # imm = 0x3B78676C
	movq	%rdi, -56(%rbp)
	movq	%rsi, -48(%rbp)
	movq	%rdx, -80(%rbp)
	movq	%rcx, -24(%rbp)
	movl	%r8d, -32(%rbp)
	movl	%r9d, -96(%rbp)
	cmpl	$4, -96(%rbp)
	jl	.LBB12_2
# %bb.1:                                # %if.then
	movq	stderr, %rdi
	movabsq	$.L.str.6, %rsi
	movb	$0, %al
	callq	fprintf
.LBB12_2:                               # %if.end
	movl	$65536, -8(%rbp)        # imm = 0x10000
.LBB12_3:                               # %for.cond
                                        # =>This Inner Loop Header: Depth=1
	cmpl	$0, -8(%rbp)
	jl	.LBB12_6
# %bb.4:                                # %for.body
                                        #   in Loop: Header=BB12_3 Depth=1
	movq	-24(%rbp), %rax
	movslq	-8(%rbp), %rcx
	movl	$0, (%rax,%rcx,4)
# %bb.5:                                # %for.inc
                                        #   in Loop: Header=BB12_3 Depth=1
	movl	-8(%rbp), %eax
	addl	$-1, %eax
	movl	%eax, -8(%rbp)
	jmp	.LBB12_3
.LBB12_6:                               # %for.end
	movq	-48(%rbp), %rax
	movzbl	(%rax), %eax
	shll	$8, %eax
	movl	%eax, -4(%rbp)
	movl	-32(%rbp), %eax
	subl	$1, %eax
	movl	%eax, -8(%rbp)
.LBB12_7:                               # %for.cond3
                                        # =>This Inner Loop Header: Depth=1
	cmpl	$3, -8(%rbp)
	jl	.LBB12_10
# %bb.8:                                # %for.body6
                                        #   in Loop: Header=BB12_7 Depth=1
	movq	-80(%rbp), %rax
	movslq	-8(%rbp), %rcx
	movw	$0, (%rax,%rcx,2)
	movl	-4(%rbp), %eax
	sarl	$8, %eax
	movq	-48(%rbp), %rcx
	movslq	-8(%rbp), %rdx
	movzbl	(%rcx,%rdx), %ecx
	movzwl	%cx, %ecx
	shll	$8, %ecx
	orl	%ecx, %eax
	movl	%eax, -4(%rbp)
	movq	-24(%rbp), %rax
	movslq	-4(%rbp), %rcx
	movl	(%rax,%rcx,4), %edx
	addl	$1, %edx
	movl	%edx, (%rax,%rcx,4)
	movq	-80(%rbp), %rax
	movl	-8(%rbp), %ecx
	subl	$1, %ecx
	movslq	%ecx, %rcx
	movw	$0, (%rax,%rcx,2)
	movl	-4(%rbp), %eax
	sarl	$8, %eax
	movq	-48(%rbp), %rcx
	movl	-8(%rbp), %edx
	subl	$1, %edx
	movslq	%edx, %rdx
	movzbl	(%rcx,%rdx), %ecx
	movzwl	%cx, %ecx
	shll	$8, %ecx
	orl	%ecx, %eax
	movl	%eax, -4(%rbp)
	movq	-24(%rbp), %rax
	movslq	-4(%rbp), %rcx
	movl	(%rax,%rcx,4), %edx
	addl	$1, %edx
	movl	%edx, (%rax,%rcx,4)
	movq	-80(%rbp), %rax
	movl	-8(%rbp), %ecx
	subl	$2, %ecx
	movslq	%ecx, %rcx
	movw	$0, (%rax,%rcx,2)
	movl	-4(%rbp), %eax
	sarl	$8, %eax
	movq	-48(%rbp), %rcx
	movl	-8(%rbp), %edx
	subl	$2, %edx
	movslq	%edx, %rdx
	movzbl	(%rcx,%rdx), %ecx
	movzwl	%cx, %ecx
	shll	$8, %ecx
	orl	%ecx, %eax
	movl	%eax, -4(%rbp)
	movq	-24(%rbp), %rax
	movslq	-4(%rbp), %rcx
	movl	(%rax,%rcx,4), %edx
	addl	$1, %edx
	movl	%edx, (%rax,%rcx,4)
	movq	-80(%rbp), %rax
	movl	-8(%rbp), %ecx
	subl	$3, %ecx
	movslq	%ecx, %rcx
	movw	$0, (%rax,%rcx,2)
	movl	-4(%rbp), %eax
	sarl	$8, %eax
	movq	-48(%rbp), %rcx
	movl	-8(%rbp), %edx
	subl	$3, %edx
	movslq	%edx, %rdx
	movzbl	(%rcx,%rdx), %ecx
	movzwl	%cx, %ecx
	shll	$8, %ecx
	orl	%ecx, %eax
	movl	%eax, -4(%rbp)
	movq	-24(%rbp), %rax
	movslq	-4(%rbp), %rcx
	movl	(%rax,%rcx,4), %edx
	addl	$1, %edx
	movl	%edx, (%rax,%rcx,4)
# %bb.9:                                # %for.inc58
                                        #   in Loop: Header=BB12_7 Depth=1
	movl	-8(%rbp), %eax
	subl	$4, %eax
	movl	%eax, -8(%rbp)
	jmp	.LBB12_7
.LBB12_10:                              # %for.end60
	jmp	.LBB12_11
.LBB12_11:                              # %for.cond61
                                        # =>This Inner Loop Header: Depth=1
	cmpl	$0, -8(%rbp)
	jl	.LBB12_14
# %bb.12:                               # %for.body64
                                        #   in Loop: Header=BB12_11 Depth=1
	movq	-80(%rbp), %rax
	movslq	-8(%rbp), %rcx
	movw	$0, (%rax,%rcx,2)
	movl	-4(%rbp), %eax
	sarl	$8, %eax
	movq	-48(%rbp), %rcx
	movslq	-8(%rbp), %rdx
	movzbl	(%rcx,%rdx), %ecx
	movzwl	%cx, %ecx
	shll	$8, %ecx
	orl	%ecx, %eax
	movl	%eax, -4(%rbp)
	movq	-24(%rbp), %rax
	movslq	-4(%rbp), %rcx
	movl	(%rax,%rcx,4), %edx
	addl	$1, %edx
	movl	%edx, (%rax,%rcx,4)
# %bb.13:                               # %for.inc77
                                        #   in Loop: Header=BB12_11 Depth=1
	movl	-8(%rbp), %eax
	addl	$-1, %eax
	movl	%eax, -8(%rbp)
	jmp	.LBB12_11
.LBB12_14:                              # %for.end79
	movl	$0, -8(%rbp)
.LBB12_15:                              # %for.cond80
                                        # =>This Inner Loop Header: Depth=1
	cmpl	$34, -8(%rbp)
	jge	.LBB12_18
# %bb.16:                               # %for.body83
                                        #   in Loop: Header=BB12_15 Depth=1
	movq	-48(%rbp), %rax
	movslq	-8(%rbp), %rcx
	movb	(%rax,%rcx), %al
	movq	-48(%rbp), %rcx
	movl	-32(%rbp), %edx
	addl	-8(%rbp), %edx
	movslq	%edx, %rdx
	movb	%al, (%rcx,%rdx)
	movq	-80(%rbp), %rax
	movl	-32(%rbp), %ecx
	addl	-8(%rbp), %ecx
	movslq	%ecx, %rcx
	movw	$0, (%rax,%rcx,2)
# %bb.17:                               # %for.inc91
                                        #   in Loop: Header=BB12_15 Depth=1
	movl	-8(%rbp), %eax
	addl	$1, %eax
	movl	%eax, -8(%rbp)
	jmp	.LBB12_15
.LBB12_18:                              # %for.end93
	cmpl	$4, -96(%rbp)
	jl	.LBB12_20
# %bb.19:                               # %if.then96
	movq	stderr, %rdi
	movabsq	$.L.str.2, %rsi
	movb	$0, %al
	callq	fprintf
.LBB12_20:                              # %if.end98
	movl	$1, -8(%rbp)
.LBB12_21:                              # %for.cond99
                                        # =>This Inner Loop Header: Depth=1
	cmpl	$65536, -8(%rbp)        # imm = 0x10000
	jg	.LBB12_24
# %bb.22:                               # %for.body102
                                        #   in Loop: Header=BB12_21 Depth=1
	movq	-24(%rbp), %rax
	movl	-8(%rbp), %ecx
	subl	$1, %ecx
	movslq	%ecx, %rcx
	movl	(%rax,%rcx,4), %eax
	movq	-24(%rbp), %rcx
	movslq	-8(%rbp), %rdx
	addl	(%rcx,%rdx,4), %eax
	movl	%eax, (%rcx,%rdx,4)
# %bb.23:                               # %for.inc109
                                        #   in Loop: Header=BB12_21 Depth=1
	movl	-8(%rbp), %eax
	addl	$1, %eax
	movl	%eax, -8(%rbp)
	jmp	.LBB12_21
.LBB12_24:                              # %for.end111
	movq	-48(%rbp), %rax
	movzbl	(%rax), %eax
	shll	$8, %eax
	movw	%ax, -10(%rbp)
	movl	-32(%rbp), %eax
	subl	$1, %eax
	movl	%eax, -8(%rbp)
.LBB12_25:                              # %for.cond117
                                        # =>This Inner Loop Header: Depth=1
	cmpl	$3, -8(%rbp)
	jl	.LBB12_28
# %bb.26:                               # %for.body120
                                        #   in Loop: Header=BB12_25 Depth=1
	movzwl	-10(%rbp), %eax
	sarl	$8, %eax
	movq	-48(%rbp), %rcx
	movslq	-8(%rbp), %rdx
	movzbl	(%rcx,%rdx), %ecx
	shll	$8, %ecx
	orl	%ecx, %eax
	movw	%ax, -10(%rbp)
	movq	-24(%rbp), %rax
	movzwl	-10(%rbp), %ecx
	movl	(%rax,%rcx,4), %eax
	subl	$1, %eax
	movl	%eax, -4(%rbp)
	movl	-4(%rbp), %eax
	movq	-24(%rbp), %rcx
	movzwl	-10(%rbp), %edx
	movl	%eax, (%rcx,%rdx,4)
	movl	-8(%rbp), %eax
	movq	-56(%rbp), %rcx
	movslq	-4(%rbp), %rdx
	movl	%eax, (%rcx,%rdx,4)
	movzwl	-10(%rbp), %eax
	sarl	$8, %eax
	movq	-48(%rbp), %rcx
	movl	-8(%rbp), %edx
	subl	$1, %edx
	movslq	%edx, %rdx
	movzbl	(%rcx,%rdx), %ecx
	shll	$8, %ecx
	orl	%ecx, %eax
	movw	%ax, -10(%rbp)
	movq	-24(%rbp), %rax
	movzwl	-10(%rbp), %ecx
	movl	(%rax,%rcx,4), %eax
	subl	$1, %eax
	movl	%eax, -4(%rbp)
	movl	-4(%rbp), %eax
	movq	-24(%rbp), %rcx
	movzwl	-10(%rbp), %edx
	movl	%eax, (%rcx,%rdx,4)
	movl	-8(%rbp), %eax
	subl	$1, %eax
	movq	-56(%rbp), %rcx
	movslq	-4(%rbp), %rdx
	movl	%eax, (%rcx,%rdx,4)
	movzwl	-10(%rbp), %eax
	sarl	$8, %eax
	movq	-48(%rbp), %rcx
	movl	-8(%rbp), %edx
	subl	$2, %edx
	movslq	%edx, %rdx
	movzbl	(%rcx,%rdx), %ecx
	shll	$8, %ecx
	orl	%ecx, %eax
	movw	%ax, -10(%rbp)
	movq	-24(%rbp), %rax
	movzwl	-10(%rbp), %ecx
	movl	(%rax,%rcx,4), %eax
	subl	$1, %eax
	movl	%eax, -4(%rbp)
	movl	-4(%rbp), %eax
	movq	-24(%rbp), %rcx
	movzwl	-10(%rbp), %edx
	movl	%eax, (%rcx,%rdx,4)
	movl	-8(%rbp), %eax
	subl	$2, %eax
	movq	-56(%rbp), %rcx
	movslq	-4(%rbp), %rdx
	movl	%eax, (%rcx,%rdx,4)
	movzwl	-10(%rbp), %eax
	sarl	$8, %eax
	movq	-48(%rbp), %rcx
	movl	-8(%rbp), %edx
	subl	$3, %edx
	movslq	%edx, %rdx
	movzbl	(%rcx,%rdx), %ecx
	shll	$8, %ecx
	orl	%ecx, %eax
	movw	%ax, -10(%rbp)
	movq	-24(%rbp), %rax
	movzwl	-10(%rbp), %ecx
	movl	(%rax,%rcx,4), %eax
	subl	$1, %eax
	movl	%eax, -4(%rbp)
	movl	-4(%rbp), %eax
	movq	-24(%rbp), %rcx
	movzwl	-10(%rbp), %edx
	movl	%eax, (%rcx,%rdx,4)
	movl	-8(%rbp), %eax
	subl	$3, %eax
	movq	-56(%rbp), %rcx
	movslq	-4(%rbp), %rdx
	movl	%eax, (%rcx,%rdx,4)
# %bb.27:                               # %for.inc187
                                        #   in Loop: Header=BB12_25 Depth=1
	movl	-8(%rbp), %eax
	subl	$4, %eax
	movl	%eax, -8(%rbp)
	jmp	.LBB12_25
.LBB12_28:                              # %for.end189
	jmp	.LBB12_29
.LBB12_29:                              # %for.cond190
                                        # =>This Inner Loop Header: Depth=1
	cmpl	$0, -8(%rbp)
	jl	.LBB12_32
# %bb.30:                               # %for.body193
                                        #   in Loop: Header=BB12_29 Depth=1
	movzwl	-10(%rbp), %eax
	sarl	$8, %eax
	movq	-48(%rbp), %rcx
	movslq	-8(%rbp), %rdx
	movzbl	(%rcx,%rdx), %ecx
	shll	$8, %ecx
	orl	%ecx, %eax
	movw	%ax, -10(%rbp)
	movq	-24(%rbp), %rax
	movzwl	-10(%rbp), %ecx
	movl	(%rax,%rcx,4), %eax
	subl	$1, %eax
	movl	%eax, -4(%rbp)
	movl	-4(%rbp), %eax
	movq	-24(%rbp), %rcx
	movzwl	-10(%rbp), %edx
	movl	%eax, (%rcx,%rdx,4)
	movl	-8(%rbp), %eax
	movq	-56(%rbp), %rcx
	movslq	-4(%rbp), %rdx
	movl	%eax, (%rcx,%rdx,4)
# %bb.31:                               # %for.inc209
                                        #   in Loop: Header=BB12_29 Depth=1
	movl	-8(%rbp), %eax
	addl	$-1, %eax
	movl	%eax, -8(%rbp)
	jmp	.LBB12_29
.LBB12_32:                              # %for.end211
	movl	$0, -8(%rbp)
.LBB12_33:                              # %for.cond212
                                        # =>This Inner Loop Header: Depth=1
	cmpl	$255, -8(%rbp)
	jg	.LBB12_36
# %bb.34:                               # %for.body215
                                        #   in Loop: Header=BB12_33 Depth=1
	movslq	-8(%rbp), %rax
	movb	$0, -384(%rbp,%rax)
	movl	-8(%rbp), %eax
	movslq	-8(%rbp), %rcx
	movl	%eax, -1408(%rbp,%rcx,4)
# %bb.35:                               # %for.inc220
                                        #   in Loop: Header=BB12_33 Depth=1
	movl	-8(%rbp), %eax
	addl	$1, %eax
	movl	%eax, -8(%rbp)
	jmp	.LBB12_33
.LBB12_36:                              # %for.end222
	movl	$1, -28(%rbp)
.LBB12_37:                              # %do.body
                                        # =>This Inner Loop Header: Depth=1
	imull	$3, -28(%rbp), %eax
	addl	$1, %eax
	movl	%eax, -28(%rbp)
# %bb.38:                               # %do.cond
                                        #   in Loop: Header=BB12_37 Depth=1
	cmpl	$256, -28(%rbp)         # imm = 0x100
	jle	.LBB12_37
# %bb.39:                               # %do.end
	jmp	.LBB12_40
.LBB12_40:                              # %do.body226
                                        # =>This Loop Header: Depth=1
                                        #     Child Loop BB12_41 Depth 2
                                        #       Child Loop BB12_43 Depth 3
	movl	-28(%rbp), %eax
	cltd
	movl	$3, %ecx
	idivl	%ecx
	movl	%eax, -28(%rbp)
	movl	-28(%rbp), %eax
	movl	%eax, -8(%rbp)
.LBB12_41:                              # %for.cond227
                                        #   Parent Loop BB12_40 Depth=1
                                        # =>  This Loop Header: Depth=2
                                        #       Child Loop BB12_43 Depth 3
	cmpl	$255, -8(%rbp)
	jg	.LBB12_50
# %bb.42:                               # %for.body230
                                        #   in Loop: Header=BB12_41 Depth=2
	movslq	-8(%rbp), %rax
	movl	-1408(%rbp,%rax,4), %eax
	movl	%eax, -100(%rbp)
	movl	-8(%rbp), %eax
	movl	%eax, -4(%rbp)
.LBB12_43:                              # %while.cond
                                        #   Parent Loop BB12_40 Depth=1
                                        #     Parent Loop BB12_41 Depth=2
                                        # =>    This Inner Loop Header: Depth=3
	movq	-24(%rbp), %rax
	movl	-4(%rbp), %ecx
	subl	-28(%rbp), %ecx
	movslq	%ecx, %rcx
	movl	-1408(%rbp,%rcx,4), %ecx
	addl	$1, %ecx
	shll	$8, %ecx
	movslq	%ecx, %rcx
	movl	(%rax,%rcx,4), %eax
	movq	-24(%rbp), %rcx
	movl	-4(%rbp), %edx
	subl	-28(%rbp), %edx
	movslq	%edx, %rdx
	movl	-1408(%rbp,%rdx,4), %edx
	shll	$8, %edx
	movslq	%edx, %rdx
	subl	(%rcx,%rdx,4), %eax
	movq	-24(%rbp), %rcx
	movl	-100(%rbp), %edx
	addl	$1, %edx
	shll	$8, %edx
	movslq	%edx, %rdx
	movl	(%rcx,%rdx,4), %ecx
	movq	-24(%rbp), %rdx
	movl	-100(%rbp), %esi
	shll	$8, %esi
	movslq	%esi, %rsi
	subl	(%rdx,%rsi,4), %ecx
	cmpl	%ecx, %eax
	jbe	.LBB12_47
# %bb.44:                               # %while.body
                                        #   in Loop: Header=BB12_43 Depth=3
	movl	-4(%rbp), %eax
	subl	-28(%rbp), %eax
	cltq
	movl	-1408(%rbp,%rax,4), %eax
	movslq	-4(%rbp), %rcx
	movl	%eax, -1408(%rbp,%rcx,4)
	movl	-4(%rbp), %eax
	subl	-28(%rbp), %eax
	movl	%eax, -4(%rbp)
	movl	-4(%rbp), %eax
	movl	-28(%rbp), %ecx
	subl	$1, %ecx
	cmpl	%ecx, %eax
	jg	.LBB12_46
# %bb.45:                               # %if.then266
                                        #   in Loop: Header=BB12_41 Depth=2
	jmp	.LBB12_48
.LBB12_46:                              # %if.end267
                                        #   in Loop: Header=BB12_43 Depth=3
	jmp	.LBB12_43
.LBB12_47:                              # %while.end
                                        #   in Loop: Header=BB12_41 Depth=2
	jmp	.LBB12_48
.LBB12_48:                              # %zero
                                        #   in Loop: Header=BB12_41 Depth=2
	movl	-100(%rbp), %eax
	movslq	-4(%rbp), %rcx
	movl	%eax, -1408(%rbp,%rcx,4)
# %bb.49:                               # %for.inc270
                                        #   in Loop: Header=BB12_41 Depth=2
	movl	-8(%rbp), %eax
	addl	$1, %eax
	movl	%eax, -8(%rbp)
	jmp	.LBB12_41
.LBB12_50:                              # %for.end272
                                        #   in Loop: Header=BB12_40 Depth=1
	jmp	.LBB12_51
.LBB12_51:                              # %do.cond273
                                        #   in Loop: Header=BB12_40 Depth=1
	cmpl	$1, -28(%rbp)
	jne	.LBB12_40
# %bb.52:                               # %do.end276
	movl	$0, -60(%rbp)
	movl	$0, -8(%rbp)
.LBB12_53:                              # %for.cond277
                                        # =>This Loop Header: Depth=1
                                        #     Child Loop BB12_55 Depth 2
                                        #     Child Loop BB12_71 Depth 2
                                        #     Child Loop BB12_75 Depth 2
                                        #     Child Loop BB12_83 Depth 2
                                        #     Child Loop BB12_95 Depth 2
                                        #     Child Loop BB12_100 Depth 2
                                        #     Child Loop BB12_103 Depth 2
	cmpl	$255, -8(%rbp)
	jg	.LBB12_113
# %bb.54:                               # %for.body280
                                        #   in Loop: Header=BB12_53 Depth=1
	movslq	-8(%rbp), %rax
	movl	-1408(%rbp,%rax,4), %eax
	movl	%eax, -16(%rbp)
	movl	$0, -4(%rbp)
.LBB12_55:                              # %for.cond283
                                        #   Parent Loop BB12_53 Depth=1
                                        # =>  This Inner Loop Header: Depth=2
	cmpl	$255, -4(%rbp)
	jg	.LBB12_68
# %bb.56:                               # %for.body286
                                        #   in Loop: Header=BB12_55 Depth=2
	movl	-4(%rbp), %eax
	cmpl	-16(%rbp), %eax
	je	.LBB12_66
# %bb.57:                               # %if.then289
                                        #   in Loop: Header=BB12_55 Depth=2
	movl	-16(%rbp), %eax
	shll	$8, %eax
	addl	-4(%rbp), %eax
	movl	%eax, -88(%rbp)
	movq	-24(%rbp), %rax
	movslq	-88(%rbp), %rcx
	movl	(%rax,%rcx,4), %eax
	andl	$2097152, %eax          # imm = 0x200000
	cmpl	$0, %eax
	jne	.LBB12_65
# %bb.58:                               # %if.then294
                                        #   in Loop: Header=BB12_55 Depth=2
	movq	-24(%rbp), %rax
	movslq	-88(%rbp), %rcx
	movl	(%rax,%rcx,4), %eax
	andl	$-2097153, %eax         # imm = 0xFFDFFFFF
	movl	%eax, -92(%rbp)
	movq	-24(%rbp), %rax
	movl	-88(%rbp), %ecx
	addl	$1, %ecx
	movslq	%ecx, %rcx
	movl	(%rax,%rcx,4), %eax
	andl	$-2097153, %eax         # imm = 0xFFDFFFFF
	subl	$1, %eax
	movl	%eax, -84(%rbp)
	movl	-84(%rbp), %eax
	cmpl	-92(%rbp), %eax
	jle	.LBB12_64
# %bb.59:                               # %if.then305
                                        #   in Loop: Header=BB12_55 Depth=2
	cmpl	$4, -96(%rbp)
	jl	.LBB12_61
# %bb.60:                               # %if.then308
                                        #   in Loop: Header=BB12_55 Depth=2
	movq	stderr, %rdi
	movl	-16(%rbp), %edx
	movl	-4(%rbp), %ecx
	movl	-60(%rbp), %r8d
	movl	-84(%rbp), %r9d
	subl	-92(%rbp), %r9d
	addl	$1, %r9d
	movabsq	$.L.str.7, %rsi
	movb	$0, %al
	callq	fprintf
.LBB12_61:                              # %if.end312
                                        #   in Loop: Header=BB12_55 Depth=2
	movq	-56(%rbp), %rdi
	movq	-48(%rbp), %rsi
	movq	-80(%rbp), %rdx
	movl	-32(%rbp), %ecx
	movl	-92(%rbp), %r8d
	movl	-84(%rbp), %r9d
	movq	16(%rbp), %rax
	movl	$2, (%rsp)
	movq	%rax, 8(%rsp)
	callq	mainQSort3
	movl	-84(%rbp), %eax
	subl	-92(%rbp), %eax
	addl	$1, %eax
	addl	-60(%rbp), %eax
	movl	%eax, -60(%rbp)
	movq	16(%rbp), %rax
	cmpl	$0, (%rax)
	jge	.LBB12_63
# %bb.62:                               # %if.then318
	jmp	.LBB12_115
.LBB12_63:                              # %if.end319
                                        #   in Loop: Header=BB12_55 Depth=2
	jmp	.LBB12_64
.LBB12_64:                              # %if.end320
                                        #   in Loop: Header=BB12_55 Depth=2
	jmp	.LBB12_65
.LBB12_65:                              # %if.end321
                                        #   in Loop: Header=BB12_55 Depth=2
	movq	-24(%rbp), %rax
	movslq	-88(%rbp), %rcx
	movl	(%rax,%rcx,4), %edx
	orl	$2097152, %edx          # imm = 0x200000
	movl	%edx, (%rax,%rcx,4)
.LBB12_66:                              # %if.end325
                                        #   in Loop: Header=BB12_55 Depth=2
	jmp	.LBB12_67
.LBB12_67:                              # %for.inc326
                                        #   in Loop: Header=BB12_55 Depth=2
	movl	-4(%rbp), %eax
	addl	$1, %eax
	movl	%eax, -4(%rbp)
	jmp	.LBB12_55
.LBB12_68:                              # %for.end328
                                        #   in Loop: Header=BB12_53 Depth=1
	movslq	-16(%rbp), %rax
	cmpb	$0, -384(%rbp,%rax)
	je	.LBB12_70
# %bb.69:                               # %if.then332
                                        #   in Loop: Header=BB12_53 Depth=1
	movl	$1006, %edi             # imm = 0x3EE
	callq	BZ2_bz__AssertH__fail
.LBB12_70:                              # %if.end333
                                        #   in Loop: Header=BB12_53 Depth=1
	movl	$0, -4(%rbp)
.LBB12_71:                              # %for.cond334
                                        #   Parent Loop BB12_53 Depth=1
                                        # =>  This Inner Loop Header: Depth=2
	cmpl	$255, -4(%rbp)
	jg	.LBB12_74
# %bb.72:                               # %for.body337
                                        #   in Loop: Header=BB12_71 Depth=2
	movq	-24(%rbp), %rax
	movl	-4(%rbp), %ecx
	shll	$8, %ecx
	addl	-16(%rbp), %ecx
	movslq	%ecx, %rcx
	movl	(%rax,%rcx,4), %eax
	andl	$-2097153, %eax         # imm = 0xFFDFFFFF
	movslq	-4(%rbp), %rcx
	movl	%eax, -2432(%rbp,%rcx,4)
	movq	-24(%rbp), %rax
	movl	-4(%rbp), %ecx
	shll	$8, %ecx
	addl	-16(%rbp), %ecx
	addl	$1, %ecx
	movslq	%ecx, %rcx
	movl	(%rax,%rcx,4), %eax
	andl	$-2097153, %eax         # imm = 0xFFDFFFFF
	subl	$1, %eax
	movslq	-4(%rbp), %rcx
	movl	%eax, -3456(%rbp,%rcx,4)
# %bb.73:                               # %for.inc354
                                        #   in Loop: Header=BB12_71 Depth=2
	movl	-4(%rbp), %eax
	addl	$1, %eax
	movl	%eax, -4(%rbp)
	jmp	.LBB12_71
.LBB12_74:                              # %for.end356
                                        #   in Loop: Header=BB12_53 Depth=1
	movq	-24(%rbp), %rax
	movl	-16(%rbp), %ecx
	shll	$8, %ecx
	movslq	%ecx, %rcx
	movl	(%rax,%rcx,4), %eax
	andl	$-2097153, %eax         # imm = 0xFFDFFFFF
	movl	%eax, -4(%rbp)
.LBB12_75:                              # %for.cond361
                                        #   Parent Loop BB12_53 Depth=1
                                        # =>  This Inner Loop Header: Depth=2
	movl	-4(%rbp), %eax
	movslq	-16(%rbp), %rcx
	cmpl	-2432(%rbp,%rcx,4), %eax
	jge	.LBB12_82
# %bb.76:                               # %for.body366
                                        #   in Loop: Header=BB12_75 Depth=2
	movq	-56(%rbp), %rax
	movslq	-4(%rbp), %rcx
	movl	(%rax,%rcx,4), %eax
	subl	$1, %eax
	movl	%eax, -36(%rbp)
	cmpl	$0, -36(%rbp)
	jge	.LBB12_78
# %bb.77:                               # %if.then372
                                        #   in Loop: Header=BB12_75 Depth=2
	movl	-32(%rbp), %eax
	addl	-36(%rbp), %eax
	movl	%eax, -36(%rbp)
.LBB12_78:                              # %if.end374
                                        #   in Loop: Header=BB12_75 Depth=2
	movq	-48(%rbp), %rax
	movslq	-36(%rbp), %rcx
	movb	(%rax,%rcx), %al
	movb	%al, -11(%rbp)
	movzbl	-11(%rbp), %eax
	cmpb	$0, -384(%rbp,%rax)
	jne	.LBB12_80
# %bb.79:                               # %if.then380
                                        #   in Loop: Header=BB12_75 Depth=2
	movl	-36(%rbp), %eax
	movq	-56(%rbp), %rcx
	movzbl	-11(%rbp), %edx
	movl	-2432(%rbp,%rdx,4), %esi
	movl	%esi, %edi
	addl	$1, %edi
	movl	%edi, -2432(%rbp,%rdx,4)
	movslq	%esi, %rdx
	movl	%eax, (%rcx,%rdx,4)
.LBB12_80:                              # %if.end386
                                        #   in Loop: Header=BB12_75 Depth=2
	jmp	.LBB12_81
.LBB12_81:                              # %for.inc387
                                        #   in Loop: Header=BB12_75 Depth=2
	movl	-4(%rbp), %eax
	addl	$1, %eax
	movl	%eax, -4(%rbp)
	jmp	.LBB12_75
.LBB12_82:                              # %for.end389
                                        #   in Loop: Header=BB12_53 Depth=1
	movq	-24(%rbp), %rax
	movl	-16(%rbp), %ecx
	addl	$1, %ecx
	shll	$8, %ecx
	movslq	%ecx, %rcx
	movl	(%rax,%rcx,4), %eax
	andl	$-2097153, %eax         # imm = 0xFFDFFFFF
	subl	$1, %eax
	movl	%eax, -4(%rbp)
.LBB12_83:                              # %for.cond396
                                        #   Parent Loop BB12_53 Depth=1
                                        # =>  This Inner Loop Header: Depth=2
	movl	-4(%rbp), %eax
	movslq	-16(%rbp), %rcx
	cmpl	-3456(%rbp,%rcx,4), %eax
	jle	.LBB12_90
# %bb.84:                               # %for.body401
                                        #   in Loop: Header=BB12_83 Depth=2
	movq	-56(%rbp), %rax
	movslq	-4(%rbp), %rcx
	movl	(%rax,%rcx,4), %eax
	subl	$1, %eax
	movl	%eax, -36(%rbp)
	cmpl	$0, -36(%rbp)
	jge	.LBB12_86
# %bb.85:                               # %if.then407
                                        #   in Loop: Header=BB12_83 Depth=2
	movl	-32(%rbp), %eax
	addl	-36(%rbp), %eax
	movl	%eax, -36(%rbp)
.LBB12_86:                              # %if.end409
                                        #   in Loop: Header=BB12_83 Depth=2
	movq	-48(%rbp), %rax
	movslq	-36(%rbp), %rcx
	movb	(%rax,%rcx), %al
	movb	%al, -11(%rbp)
	movzbl	-11(%rbp), %eax
	cmpb	$0, -384(%rbp,%rax)
	jne	.LBB12_88
# %bb.87:                               # %if.then415
                                        #   in Loop: Header=BB12_83 Depth=2
	movl	-36(%rbp), %eax
	movq	-56(%rbp), %rcx
	movzbl	-11(%rbp), %edx
	movl	-3456(%rbp,%rdx,4), %esi
	movl	%esi, %edi
	addl	$-1, %edi
	movl	%edi, -3456(%rbp,%rdx,4)
	movslq	%esi, %rdx
	movl	%eax, (%rcx,%rdx,4)
.LBB12_88:                              # %if.end421
                                        #   in Loop: Header=BB12_83 Depth=2
	jmp	.LBB12_89
.LBB12_89:                              # %for.inc422
                                        #   in Loop: Header=BB12_83 Depth=2
	movl	-4(%rbp), %eax
	addl	$-1, %eax
	movl	%eax, -4(%rbp)
	jmp	.LBB12_83
.LBB12_90:                              # %for.end424
                                        #   in Loop: Header=BB12_53 Depth=1
	movslq	-16(%rbp), %rax
	movl	-2432(%rbp,%rax,4), %eax
	subl	$1, %eax
	movslq	-16(%rbp), %rcx
	cmpl	-3456(%rbp,%rcx,4), %eax
	je	.LBB12_94
# %bb.91:                               # %lor.lhs.false
                                        #   in Loop: Header=BB12_53 Depth=1
	movslq	-16(%rbp), %rax
	cmpl	$0, -2432(%rbp,%rax,4)
	jne	.LBB12_93
# %bb.92:                               # %land.lhs.true
                                        #   in Loop: Header=BB12_53 Depth=1
	movslq	-16(%rbp), %rax
	movl	-3456(%rbp,%rax,4), %eax
	movl	-32(%rbp), %ecx
	subl	$1, %ecx
	cmpl	%ecx, %eax
	je	.LBB12_94
.LBB12_93:                              # %if.then441
                                        #   in Loop: Header=BB12_53 Depth=1
	movl	$1007, %edi             # imm = 0x3EF
	callq	BZ2_bz__AssertH__fail
.LBB12_94:                              # %if.end442
                                        #   in Loop: Header=BB12_53 Depth=1
	movl	$0, -4(%rbp)
.LBB12_95:                              # %for.cond443
                                        #   Parent Loop BB12_53 Depth=1
                                        # =>  This Inner Loop Header: Depth=2
	cmpl	$255, -4(%rbp)
	jg	.LBB12_98
# %bb.96:                               # %for.body446
                                        #   in Loop: Header=BB12_95 Depth=2
	movq	-24(%rbp), %rax
	movl	-4(%rbp), %ecx
	shll	$8, %ecx
	addl	-16(%rbp), %ecx
	movslq	%ecx, %rcx
	movl	(%rax,%rcx,4), %edx
	orl	$2097152, %edx          # imm = 0x200000
	movl	%edx, (%rax,%rcx,4)
# %bb.97:                               # %for.inc452
                                        #   in Loop: Header=BB12_95 Depth=2
	movl	-4(%rbp), %eax
	addl	$1, %eax
	movl	%eax, -4(%rbp)
	jmp	.LBB12_95
.LBB12_98:                              # %for.end454
                                        #   in Loop: Header=BB12_53 Depth=1
	movslq	-16(%rbp), %rax
	movb	$1, -384(%rbp,%rax)
	cmpl	$255, -8(%rbp)
	jge	.LBB12_111
# %bb.99:                               # %if.then459
                                        #   in Loop: Header=BB12_53 Depth=1
	movq	-24(%rbp), %rax
	movl	-16(%rbp), %ecx
	shll	$8, %ecx
	movslq	%ecx, %rcx
	movl	(%rax,%rcx,4), %eax
	andl	$-2097153, %eax         # imm = 0xFFDFFFFF
	movl	%eax, -112(%rbp)
	movq	-24(%rbp), %rax
	movl	-16(%rbp), %ecx
	addl	$1, %ecx
	shll	$8, %ecx
	movslq	%ecx, %rcx
	movl	(%rax,%rcx,4), %eax
	andl	$-2097153, %eax         # imm = 0xFFDFFFFF
	subl	-112(%rbp), %eax
	movl	%eax, -108(%rbp)
	movl	$0, -64(%rbp)
.LBB12_100:                             # %while.cond470
                                        #   Parent Loop BB12_53 Depth=1
                                        # =>  This Inner Loop Header: Depth=2
	movl	-108(%rbp), %eax
	movl	-64(%rbp), %ecx
                                        # kill: def $cl killed $ecx
	sarl	%cl, %eax
	cmpl	$65534, %eax            # imm = 0xFFFE
	jle	.LBB12_102
# %bb.101:                              # %while.body474
                                        #   in Loop: Header=BB12_100 Depth=2
	movl	-64(%rbp), %eax
	addl	$1, %eax
	movl	%eax, -64(%rbp)
	jmp	.LBB12_100
.LBB12_102:                             # %while.end476
                                        #   in Loop: Header=BB12_53 Depth=1
	movl	-108(%rbp), %eax
	subl	$1, %eax
	movl	%eax, -4(%rbp)
.LBB12_103:                             # %for.cond478
                                        #   Parent Loop BB12_53 Depth=1
                                        # =>  This Inner Loop Header: Depth=2
	cmpl	$0, -4(%rbp)
	jl	.LBB12_108
# %bb.104:                              # %for.body481
                                        #   in Loop: Header=BB12_103 Depth=2
	movq	-56(%rbp), %rax
	movl	-112(%rbp), %ecx
	addl	-4(%rbp), %ecx
	movslq	%ecx, %rcx
	movl	(%rax,%rcx,4), %eax
	movl	%eax, -104(%rbp)
	movl	-4(%rbp), %eax
	movl	-64(%rbp), %ecx
                                        # kill: def $cl killed $ecx
	sarl	%cl, %eax
	movw	%ax, -66(%rbp)
	movw	-66(%rbp), %ax
	movq	-80(%rbp), %rcx
	movslq	-104(%rbp), %rdx
	movw	%ax, (%rcx,%rdx,2)
	cmpl	$34, -104(%rbp)
	jge	.LBB12_106
# %bb.105:                              # %if.then491
                                        #   in Loop: Header=BB12_103 Depth=2
	movw	-66(%rbp), %ax
	movq	-80(%rbp), %rcx
	movl	-104(%rbp), %edx
	addl	-32(%rbp), %edx
	movslq	%edx, %rdx
	movw	%ax, (%rcx,%rdx,2)
.LBB12_106:                             # %if.end495
                                        #   in Loop: Header=BB12_103 Depth=2
	jmp	.LBB12_107
.LBB12_107:                             # %for.inc496
                                        #   in Loop: Header=BB12_103 Depth=2
	movl	-4(%rbp), %eax
	addl	$-1, %eax
	movl	%eax, -4(%rbp)
	jmp	.LBB12_103
.LBB12_108:                             # %for.end498
                                        #   in Loop: Header=BB12_53 Depth=1
	movl	-108(%rbp), %eax
	subl	$1, %eax
	movl	-64(%rbp), %ecx
                                        # kill: def $cl killed $ecx
	sarl	%cl, %eax
	cmpl	$65535, %eax            # imm = 0xFFFF
	jle	.LBB12_110
# %bb.109:                              # %if.then503
                                        #   in Loop: Header=BB12_53 Depth=1
	movl	$1002, %edi             # imm = 0x3EA
	callq	BZ2_bz__AssertH__fail
.LBB12_110:                             # %if.end504
                                        #   in Loop: Header=BB12_53 Depth=1
	jmp	.LBB12_111
.LBB12_111:                             # %if.end505
                                        #   in Loop: Header=BB12_53 Depth=1
	jmp	.LBB12_112
.LBB12_112:                             # %for.inc506
                                        #   in Loop: Header=BB12_53 Depth=1
	movl	-8(%rbp), %eax
	addl	$1, %eax
	movl	%eax, -8(%rbp)
	jmp	.LBB12_53
.LBB12_113:                             # %for.end508
	cmpl	$4, -96(%rbp)
	jl	.LBB12_115
# %bb.114:                              # %if.then511
	movq	stderr, %rdi
	movl	-32(%rbp), %edx
	movl	-60(%rbp), %ecx
	movl	-32(%rbp), %r8d
	subl	-60(%rbp), %r8d
	movabsq	$.L.str.8, %rsi
	movb	$0, %al
	callq	fprintf
.LBB12_115:                             # %if.end514
	cmpl	$997746540, -116(%rbp)  # imm = 0x3B78676C
	jne	.LBB12_117
.LBB12_116:
	addq	$3472, %rsp             # imm = 0xD90
	popq	%rbp
	.cfi_def_cfa %rsp, 8
	retq
.LBB12_117:                             # %func_exit
	.cfi_def_cfa %rbp, 16
	callq	detect_breach
	jmp	.LBB12_116
.Lfunc_end12:
	.size	mainSort.4, .Lfunc_end12-mainSort.4
	.cfi_endproc
                                        # -- End function
	.p2align	4, 0x90         # -- Begin function mainGtU.5
	.type	mainGtU.5,@function
mainGtU.5:                              # @mainGtU.5
	.cfi_startproc
# %bb.0:                                # %entry
	pushq	%rbp
	.cfi_def_cfa_offset 16
	.cfi_offset %rbp, -16
	movq	%rsp, %rbp
	.cfi_def_cfa_register %rbp
	pushq	%rbx
	subq	$56, %rsp
	.cfi_offset %rbx, -24
	movl	$628410802, -52(%rbp)   # imm = 0x2574C9B2
	movl	%edi, -20(%rbp)
	movl	%esi, -16(%rbp)
	movq	%rdx, -32(%rbp)
	movq	%rcx, -40(%rbp)
	movl	%r8d, -44(%rbp)
	movq	%r9, -64(%rbp)
	movq	-32(%rbp), %rax
	movl	-20(%rbp), %ecx
	movb	(%rax,%rcx), %al
	movb	%al, -9(%rbp)
	movq	-32(%rbp), %rax
	movl	-16(%rbp), %ecx
	movb	(%rax,%rcx), %al
	movb	%al, -10(%rbp)
	movzbl	-9(%rbp), %eax
	movzbl	-10(%rbp), %ecx
	cmpl	%ecx, %eax
	je	.LBB13_2
# %bb.1:                                # %if.then
	movzbl	-9(%rbp), %eax
	movzbl	-10(%rbp), %ecx
	cmpl	%ecx, %eax
	setg	%al
	andb	$1, %al
	movzbl	%al, %eax
	movb	%al, -11(%rbp)
	jmp	.LBB13_64
.LBB13_2:                               # %if.end
	movl	-20(%rbp), %eax
	addl	$1, %eax
	movl	%eax, -20(%rbp)
	movl	-16(%rbp), %eax
	addl	$1, %eax
	movl	%eax, -16(%rbp)
	movq	-32(%rbp), %rax
	movl	-20(%rbp), %ecx
	movb	(%rax,%rcx), %al
	movb	%al, -9(%rbp)
	movq	-32(%rbp), %rax
	movl	-16(%rbp), %ecx
	movb	(%rax,%rcx), %al
	movb	%al, -10(%rbp)
	movzbl	-9(%rbp), %eax
	movzbl	-10(%rbp), %ecx
	cmpl	%ecx, %eax
	je	.LBB13_4
# %bb.3:                                # %if.then19
	movzbl	-9(%rbp), %eax
	movzbl	-10(%rbp), %ecx
	cmpl	%ecx, %eax
	setg	%al
	andb	$1, %al
	movzbl	%al, %eax
	movb	%al, -11(%rbp)
	jmp	.LBB13_64
.LBB13_4:                               # %if.end25
	movl	-20(%rbp), %eax
	addl	$1, %eax
	movl	%eax, -20(%rbp)
	movl	-16(%rbp), %eax
	addl	$1, %eax
	movl	%eax, -16(%rbp)
	movq	-32(%rbp), %rax
	movl	-20(%rbp), %ecx
	movb	(%rax,%rcx), %al
	movb	%al, -9(%rbp)
	movq	-32(%rbp), %rax
	movl	-16(%rbp), %ecx
	movb	(%rax,%rcx), %al
	movb	%al, -10(%rbp)
	movzbl	-9(%rbp), %eax
	movzbl	-10(%rbp), %ecx
	cmpl	%ecx, %eax
	je	.LBB13_6
# %bb.5:                                # %if.then36
	movzbl	-9(%rbp), %eax
	movzbl	-10(%rbp), %ecx
	cmpl	%ecx, %eax
	setg	%al
	andb	$1, %al
	movzbl	%al, %eax
	movb	%al, -11(%rbp)
	jmp	.LBB13_64
.LBB13_6:                               # %if.end42
	movl	-20(%rbp), %eax
	addl	$1, %eax
	movl	%eax, -20(%rbp)
	movl	-16(%rbp), %eax
	addl	$1, %eax
	movl	%eax, -16(%rbp)
	movq	-32(%rbp), %rax
	movl	-20(%rbp), %ecx
	movb	(%rax,%rcx), %al
	movb	%al, -9(%rbp)
	movq	-32(%rbp), %rax
	movl	-16(%rbp), %ecx
	movb	(%rax,%rcx), %al
	movb	%al, -10(%rbp)
	movzbl	-9(%rbp), %eax
	movzbl	-10(%rbp), %ecx
	cmpl	%ecx, %eax
	je	.LBB13_8
# %bb.7:                                # %if.then53
	movzbl	-9(%rbp), %eax
	movzbl	-10(%rbp), %ecx
	cmpl	%ecx, %eax
	setg	%al
	andb	$1, %al
	movzbl	%al, %eax
	movb	%al, -11(%rbp)
	jmp	.LBB13_64
.LBB13_8:                               # %if.end59
	movl	-20(%rbp), %eax
	addl	$1, %eax
	movl	%eax, -20(%rbp)
	movl	-16(%rbp), %eax
	addl	$1, %eax
	movl	%eax, -16(%rbp)
	movq	-32(%rbp), %rax
	movl	-20(%rbp), %ecx
	movb	(%rax,%rcx), %al
	movb	%al, -9(%rbp)
	movq	-32(%rbp), %rax
	movl	-16(%rbp), %ecx
	movb	(%rax,%rcx), %al
	movb	%al, -10(%rbp)
	movzbl	-9(%rbp), %eax
	movzbl	-10(%rbp), %ecx
	cmpl	%ecx, %eax
	je	.LBB13_10
# %bb.9:                                # %if.then70
	movzbl	-9(%rbp), %eax
	movzbl	-10(%rbp), %ecx
	cmpl	%ecx, %eax
	setg	%al
	andb	$1, %al
	movzbl	%al, %eax
	movb	%al, -11(%rbp)
	jmp	.LBB13_64
.LBB13_10:                              # %if.end76
	movl	-20(%rbp), %eax
	addl	$1, %eax
	movl	%eax, -20(%rbp)
	movl	-16(%rbp), %eax
	addl	$1, %eax
	movl	%eax, -16(%rbp)
	movq	-32(%rbp), %rax
	movl	-20(%rbp), %ecx
	movb	(%rax,%rcx), %al
	movb	%al, -9(%rbp)
	movq	-32(%rbp), %rax
	movl	-16(%rbp), %ecx
	movb	(%rax,%rcx), %al
	movb	%al, -10(%rbp)
	movzbl	-9(%rbp), %eax
	movzbl	-10(%rbp), %ecx
	cmpl	%ecx, %eax
	je	.LBB13_12
# %bb.11:                               # %if.then87
	movzbl	-9(%rbp), %eax
	movzbl	-10(%rbp), %ecx
	cmpl	%ecx, %eax
	setg	%al
	andb	$1, %al
	movzbl	%al, %eax
	movb	%al, -11(%rbp)
	jmp	.LBB13_64
.LBB13_12:                              # %if.end93
	movl	-20(%rbp), %eax
	addl	$1, %eax
	movl	%eax, -20(%rbp)
	movl	-16(%rbp), %eax
	addl	$1, %eax
	movl	%eax, -16(%rbp)
	movq	-32(%rbp), %rax
	movl	-20(%rbp), %ecx
	movb	(%rax,%rcx), %al
	movb	%al, -9(%rbp)
	movq	-32(%rbp), %rax
	movl	-16(%rbp), %ecx
	movb	(%rax,%rcx), %al
	movb	%al, -10(%rbp)
	movzbl	-9(%rbp), %eax
	movzbl	-10(%rbp), %ecx
	cmpl	%ecx, %eax
	je	.LBB13_14
# %bb.13:                               # %if.then104
	movzbl	-9(%rbp), %eax
	movzbl	-10(%rbp), %ecx
	cmpl	%ecx, %eax
	setg	%al
	andb	$1, %al
	movzbl	%al, %eax
	movb	%al, -11(%rbp)
	jmp	.LBB13_64
.LBB13_14:                              # %if.end110
	movl	-20(%rbp), %eax
	addl	$1, %eax
	movl	%eax, -20(%rbp)
	movl	-16(%rbp), %eax
	addl	$1, %eax
	movl	%eax, -16(%rbp)
	movq	-32(%rbp), %rax
	movl	-20(%rbp), %ecx
	movb	(%rax,%rcx), %al
	movb	%al, -9(%rbp)
	movq	-32(%rbp), %rax
	movl	-16(%rbp), %ecx
	movb	(%rax,%rcx), %al
	movb	%al, -10(%rbp)
	movzbl	-9(%rbp), %eax
	movzbl	-10(%rbp), %ecx
	cmpl	%ecx, %eax
	je	.LBB13_16
# %bb.15:                               # %if.then121
	movzbl	-9(%rbp), %eax
	movzbl	-10(%rbp), %ecx
	cmpl	%ecx, %eax
	setg	%al
	andb	$1, %al
	movzbl	%al, %eax
	movb	%al, -11(%rbp)
	jmp	.LBB13_64
.LBB13_16:                              # %if.end127
	movl	-20(%rbp), %eax
	addl	$1, %eax
	movl	%eax, -20(%rbp)
	movl	-16(%rbp), %eax
	addl	$1, %eax
	movl	%eax, -16(%rbp)
	movq	-32(%rbp), %rax
	movl	-20(%rbp), %ecx
	movb	(%rax,%rcx), %al
	movb	%al, -9(%rbp)
	movq	-32(%rbp), %rax
	movl	-16(%rbp), %ecx
	movb	(%rax,%rcx), %al
	movb	%al, -10(%rbp)
	movzbl	-9(%rbp), %eax
	movzbl	-10(%rbp), %ecx
	cmpl	%ecx, %eax
	je	.LBB13_18
# %bb.17:                               # %if.then138
	movzbl	-9(%rbp), %eax
	movzbl	-10(%rbp), %ecx
	cmpl	%ecx, %eax
	setg	%al
	andb	$1, %al
	movzbl	%al, %eax
	movb	%al, -11(%rbp)
	jmp	.LBB13_64
.LBB13_18:                              # %if.end144
	movl	-20(%rbp), %eax
	addl	$1, %eax
	movl	%eax, -20(%rbp)
	movl	-16(%rbp), %eax
	addl	$1, %eax
	movl	%eax, -16(%rbp)
	movq	-32(%rbp), %rax
	movl	-20(%rbp), %ecx
	movb	(%rax,%rcx), %al
	movb	%al, -9(%rbp)
	movq	-32(%rbp), %rax
	movl	-16(%rbp), %ecx
	movb	(%rax,%rcx), %al
	movb	%al, -10(%rbp)
	movzbl	-9(%rbp), %eax
	movzbl	-10(%rbp), %ecx
	cmpl	%ecx, %eax
	je	.LBB13_20
# %bb.19:                               # %if.then155
	movzbl	-9(%rbp), %eax
	movzbl	-10(%rbp), %ecx
	cmpl	%ecx, %eax
	setg	%al
	andb	$1, %al
	movzbl	%al, %eax
	movb	%al, -11(%rbp)
	jmp	.LBB13_64
.LBB13_20:                              # %if.end161
	movl	-20(%rbp), %eax
	addl	$1, %eax
	movl	%eax, -20(%rbp)
	movl	-16(%rbp), %eax
	addl	$1, %eax
	movl	%eax, -16(%rbp)
	movq	-32(%rbp), %rax
	movl	-20(%rbp), %ecx
	movb	(%rax,%rcx), %al
	movb	%al, -9(%rbp)
	movq	-32(%rbp), %rax
	movl	-16(%rbp), %ecx
	movb	(%rax,%rcx), %al
	movb	%al, -10(%rbp)
	movzbl	-9(%rbp), %eax
	movzbl	-10(%rbp), %ecx
	cmpl	%ecx, %eax
	je	.LBB13_22
# %bb.21:                               # %if.then172
	movzbl	-9(%rbp), %eax
	movzbl	-10(%rbp), %ecx
	cmpl	%ecx, %eax
	setg	%al
	andb	$1, %al
	movzbl	%al, %eax
	movb	%al, -11(%rbp)
	jmp	.LBB13_64
.LBB13_22:                              # %if.end178
	movl	-20(%rbp), %eax
	addl	$1, %eax
	movl	%eax, -20(%rbp)
	movl	-16(%rbp), %eax
	addl	$1, %eax
	movl	%eax, -16(%rbp)
	movq	-32(%rbp), %rax
	movl	-20(%rbp), %ecx
	movb	(%rax,%rcx), %al
	movb	%al, -9(%rbp)
	movq	-32(%rbp), %rax
	movl	-16(%rbp), %ecx
	movb	(%rax,%rcx), %al
	movb	%al, -10(%rbp)
	movzbl	-9(%rbp), %eax
	movzbl	-10(%rbp), %ecx
	cmpl	%ecx, %eax
	je	.LBB13_24
# %bb.23:                               # %if.then189
	movzbl	-9(%rbp), %eax
	movzbl	-10(%rbp), %ecx
	cmpl	%ecx, %eax
	setg	%al
	andb	$1, %al
	movzbl	%al, %eax
	movb	%al, -11(%rbp)
	jmp	.LBB13_64
.LBB13_24:                              # %if.end195
	movl	-20(%rbp), %eax
	addl	$1, %eax
	movl	%eax, -20(%rbp)
	movl	-16(%rbp), %eax
	addl	$1, %eax
	movl	%eax, -16(%rbp)
	movl	-44(%rbp), %eax
	addl	$8, %eax
	movl	%eax, -48(%rbp)
.LBB13_25:                              # %do.body
                                        # =>This Inner Loop Header: Depth=1
	movq	-32(%rbp), %rax
	movl	-20(%rbp), %ecx
	movb	(%rax,%rcx), %al
	movb	%al, -9(%rbp)
	movq	-32(%rbp), %rax
	movl	-16(%rbp), %ecx
	movb	(%rax,%rcx), %al
	movb	%al, -10(%rbp)
	movzbl	-9(%rbp), %eax
	movzbl	-10(%rbp), %ecx
	cmpl	%ecx, %eax
	je	.LBB13_27
# %bb.26:                               # %if.then206
	movzbl	-9(%rbp), %eax
	movzbl	-10(%rbp), %ecx
	cmpl	%ecx, %eax
	setg	%al
	andb	$1, %al
	movzbl	%al, %eax
	movb	%al, -11(%rbp)
	jmp	.LBB13_64
.LBB13_27:                              # %if.end212
                                        #   in Loop: Header=BB13_25 Depth=1
	movq	-40(%rbp), %rax
	movl	-20(%rbp), %ecx
	movw	(%rax,%rcx,2), %ax
	movw	%ax, -24(%rbp)
	movq	-40(%rbp), %rax
	movl	-16(%rbp), %ecx
	movw	(%rax,%rcx,2), %ax
	movw	%ax, -22(%rbp)
	movzwl	-24(%rbp), %eax
	movzwl	-22(%rbp), %ecx
	cmpl	%ecx, %eax
	je	.LBB13_29
# %bb.28:                               # %if.then221
	movzwl	-24(%rbp), %eax
	movzwl	-22(%rbp), %ecx
	cmpl	%ecx, %eax
	setg	%al
	andb	$1, %al
	movzbl	%al, %eax
	movb	%al, -11(%rbp)
	jmp	.LBB13_64
.LBB13_29:                              # %if.end227
                                        #   in Loop: Header=BB13_25 Depth=1
	movl	-20(%rbp), %eax
	addl	$1, %eax
	movl	%eax, -20(%rbp)
	movl	-16(%rbp), %eax
	addl	$1, %eax
	movl	%eax, -16(%rbp)
	movq	-32(%rbp), %rax
	movl	-20(%rbp), %ecx
	movb	(%rax,%rcx), %al
	movb	%al, -9(%rbp)
	movq	-32(%rbp), %rax
	movl	-16(%rbp), %ecx
	movb	(%rax,%rcx), %al
	movb	%al, -10(%rbp)
	movzbl	-9(%rbp), %eax
	movzbl	-10(%rbp), %ecx
	cmpl	%ecx, %eax
	je	.LBB13_31
# %bb.30:                               # %if.then238
	movzbl	-9(%rbp), %eax
	movzbl	-10(%rbp), %ecx
	cmpl	%ecx, %eax
	setg	%al
	andb	$1, %al
	movzbl	%al, %eax
	movb	%al, -11(%rbp)
	jmp	.LBB13_64
.LBB13_31:                              # %if.end244
                                        #   in Loop: Header=BB13_25 Depth=1
	movq	-40(%rbp), %rax
	movl	-20(%rbp), %ecx
	movw	(%rax,%rcx,2), %ax
	movw	%ax, -24(%rbp)
	movq	-40(%rbp), %rax
	movl	-16(%rbp), %ecx
	movw	(%rax,%rcx,2), %ax
	movw	%ax, -22(%rbp)
	movzwl	-24(%rbp), %eax
	movzwl	-22(%rbp), %ecx
	cmpl	%ecx, %eax
	je	.LBB13_33
# %bb.32:                               # %if.then253
	movzwl	-24(%rbp), %eax
	movzwl	-22(%rbp), %ecx
	cmpl	%ecx, %eax
	setg	%al
	andb	$1, %al
	movzbl	%al, %eax
	movb	%al, -11(%rbp)
	jmp	.LBB13_64
.LBB13_33:                              # %if.end259
                                        #   in Loop: Header=BB13_25 Depth=1
	movl	-20(%rbp), %eax
	addl	$1, %eax
	movl	%eax, -20(%rbp)
	movl	-16(%rbp), %eax
	addl	$1, %eax
	movl	%eax, -16(%rbp)
	movq	-32(%rbp), %rax
	movl	-20(%rbp), %ecx
	movb	(%rax,%rcx), %al
	movb	%al, -9(%rbp)
	movq	-32(%rbp), %rax
	movl	-16(%rbp), %ecx
	movb	(%rax,%rcx), %al
	movb	%al, -10(%rbp)
	movzbl	-9(%rbp), %eax
	movzbl	-10(%rbp), %ecx
	cmpl	%ecx, %eax
	je	.LBB13_35
# %bb.34:                               # %if.then270
	movzbl	-9(%rbp), %eax
	movzbl	-10(%rbp), %ecx
	cmpl	%ecx, %eax
	setg	%al
	andb	$1, %al
	movzbl	%al, %eax
	movb	%al, -11(%rbp)
	jmp	.LBB13_64
.LBB13_35:                              # %if.end276
                                        #   in Loop: Header=BB13_25 Depth=1
	movq	-40(%rbp), %rax
	movl	-20(%rbp), %ecx
	movw	(%rax,%rcx,2), %ax
	movw	%ax, -24(%rbp)
	movq	-40(%rbp), %rax
	movl	-16(%rbp), %ecx
	movw	(%rax,%rcx,2), %ax
	movw	%ax, -22(%rbp)
	movzwl	-24(%rbp), %eax
	movzwl	-22(%rbp), %ecx
	cmpl	%ecx, %eax
	je	.LBB13_37
# %bb.36:                               # %if.then285
	movzwl	-24(%rbp), %eax
	movzwl	-22(%rbp), %ecx
	cmpl	%ecx, %eax
	setg	%al
	andb	$1, %al
	movzbl	%al, %eax
	movb	%al, -11(%rbp)
	jmp	.LBB13_64
.LBB13_37:                              # %if.end291
                                        #   in Loop: Header=BB13_25 Depth=1
	movl	-20(%rbp), %eax
	addl	$1, %eax
	movl	%eax, -20(%rbp)
	movl	-16(%rbp), %eax
	addl	$1, %eax
	movl	%eax, -16(%rbp)
	movq	-32(%rbp), %rax
	movl	-20(%rbp), %ecx
	movb	(%rax,%rcx), %al
	movb	%al, -9(%rbp)
	movq	-32(%rbp), %rax
	movl	-16(%rbp), %ecx
	movb	(%rax,%rcx), %al
	movb	%al, -10(%rbp)
	movzbl	-9(%rbp), %eax
	movzbl	-10(%rbp), %ecx
	cmpl	%ecx, %eax
	je	.LBB13_39
# %bb.38:                               # %if.then302
	movzbl	-9(%rbp), %eax
	movzbl	-10(%rbp), %ecx
	cmpl	%ecx, %eax
	setg	%al
	andb	$1, %al
	movzbl	%al, %eax
	movb	%al, -11(%rbp)
	jmp	.LBB13_64
.LBB13_39:                              # %if.end308
                                        #   in Loop: Header=BB13_25 Depth=1
	movq	-40(%rbp), %rax
	movl	-20(%rbp), %ecx
	movw	(%rax,%rcx,2), %ax
	movw	%ax, -24(%rbp)
	movq	-40(%rbp), %rax
	movl	-16(%rbp), %ecx
	movw	(%rax,%rcx,2), %ax
	movw	%ax, -22(%rbp)
	movzwl	-24(%rbp), %eax
	movzwl	-22(%rbp), %ecx
	cmpl	%ecx, %eax
	je	.LBB13_41
# %bb.40:                               # %if.then317
	movzwl	-24(%rbp), %eax
	movzwl	-22(%rbp), %ecx
	cmpl	%ecx, %eax
	setg	%al
	andb	$1, %al
	movzbl	%al, %eax
	movb	%al, -11(%rbp)
	jmp	.LBB13_64
.LBB13_41:                              # %if.end323
                                        #   in Loop: Header=BB13_25 Depth=1
	movl	-20(%rbp), %eax
	addl	$1, %eax
	movl	%eax, -20(%rbp)
	movl	-16(%rbp), %eax
	addl	$1, %eax
	movl	%eax, -16(%rbp)
	movq	-32(%rbp), %rax
	movl	-20(%rbp), %ecx
	movb	(%rax,%rcx), %al
	movb	%al, -9(%rbp)
	movq	-32(%rbp), %rax
	movl	-16(%rbp), %ecx
	movb	(%rax,%rcx), %al
	movb	%al, -10(%rbp)
	movzbl	-9(%rbp), %eax
	movzbl	-10(%rbp), %ecx
	cmpl	%ecx, %eax
	je	.LBB13_43
# %bb.42:                               # %if.then334
	movzbl	-9(%rbp), %eax
	movzbl	-10(%rbp), %ecx
	cmpl	%ecx, %eax
	setg	%al
	andb	$1, %al
	movzbl	%al, %eax
	movb	%al, -11(%rbp)
	jmp	.LBB13_64
.LBB13_43:                              # %if.end340
                                        #   in Loop: Header=BB13_25 Depth=1
	movq	-40(%rbp), %rax
	movl	-20(%rbp), %ecx
	movw	(%rax,%rcx,2), %ax
	movw	%ax, -24(%rbp)
	movq	-40(%rbp), %rax
	movl	-16(%rbp), %ecx
	movw	(%rax,%rcx,2), %ax
	movw	%ax, -22(%rbp)
	movzwl	-24(%rbp), %eax
	movzwl	-22(%rbp), %ecx
	cmpl	%ecx, %eax
	je	.LBB13_45
# %bb.44:                               # %if.then349
	movzwl	-24(%rbp), %eax
	movzwl	-22(%rbp), %ecx
	cmpl	%ecx, %eax
	setg	%al
	andb	$1, %al
	movzbl	%al, %eax
	movb	%al, -11(%rbp)
	jmp	.LBB13_64
.LBB13_45:                              # %if.end355
                                        #   in Loop: Header=BB13_25 Depth=1
	movl	-20(%rbp), %eax
	addl	$1, %eax
	movl	%eax, -20(%rbp)
	movl	-16(%rbp), %eax
	addl	$1, %eax
	movl	%eax, -16(%rbp)
	movq	-32(%rbp), %rax
	movl	-20(%rbp), %ecx
	movb	(%rax,%rcx), %al
	movb	%al, -9(%rbp)
	movq	-32(%rbp), %rax
	movl	-16(%rbp), %ecx
	movb	(%rax,%rcx), %al
	movb	%al, -10(%rbp)
	movzbl	-9(%rbp), %eax
	movzbl	-10(%rbp), %ecx
	cmpl	%ecx, %eax
	je	.LBB13_47
# %bb.46:                               # %if.then366
	movzbl	-9(%rbp), %eax
	movzbl	-10(%rbp), %ecx
	cmpl	%ecx, %eax
	setg	%al
	andb	$1, %al
	movzbl	%al, %eax
	movb	%al, -11(%rbp)
	jmp	.LBB13_64
.LBB13_47:                              # %if.end372
                                        #   in Loop: Header=BB13_25 Depth=1
	movq	-40(%rbp), %rax
	movl	-20(%rbp), %ecx
	movw	(%rax,%rcx,2), %ax
	movw	%ax, -24(%rbp)
	movq	-40(%rbp), %rax
	movl	-16(%rbp), %ecx
	movw	(%rax,%rcx,2), %ax
	movw	%ax, -22(%rbp)
	movzwl	-24(%rbp), %eax
	movzwl	-22(%rbp), %ecx
	cmpl	%ecx, %eax
	je	.LBB13_49
# %bb.48:                               # %if.then381
	movzwl	-24(%rbp), %eax
	movzwl	-22(%rbp), %ecx
	cmpl	%ecx, %eax
	setg	%al
	andb	$1, %al
	movzbl	%al, %eax
	movb	%al, -11(%rbp)
	jmp	.LBB13_64
.LBB13_49:                              # %if.end387
                                        #   in Loop: Header=BB13_25 Depth=1
	movl	-20(%rbp), %eax
	addl	$1, %eax
	movl	%eax, -20(%rbp)
	movl	-16(%rbp), %eax
	addl	$1, %eax
	movl	%eax, -16(%rbp)
	movq	-32(%rbp), %rax
	movl	-20(%rbp), %ecx
	movb	(%rax,%rcx), %al
	movb	%al, -9(%rbp)
	movq	-32(%rbp), %rax
	movl	-16(%rbp), %ecx
	movb	(%rax,%rcx), %al
	movb	%al, -10(%rbp)
	movzbl	-9(%rbp), %eax
	movzbl	-10(%rbp), %ecx
	cmpl	%ecx, %eax
	je	.LBB13_51
# %bb.50:                               # %if.then398
	movzbl	-9(%rbp), %eax
	movzbl	-10(%rbp), %ecx
	cmpl	%ecx, %eax
	setg	%al
	andb	$1, %al
	movzbl	%al, %eax
	movb	%al, -11(%rbp)
	jmp	.LBB13_64
.LBB13_51:                              # %if.end404
                                        #   in Loop: Header=BB13_25 Depth=1
	movq	-40(%rbp), %rax
	movl	-20(%rbp), %ecx
	movw	(%rax,%rcx,2), %ax
	movw	%ax, -24(%rbp)
	movq	-40(%rbp), %rax
	movl	-16(%rbp), %ecx
	movw	(%rax,%rcx,2), %ax
	movw	%ax, -22(%rbp)
	movzwl	-24(%rbp), %eax
	movzwl	-22(%rbp), %ecx
	cmpl	%ecx, %eax
	je	.LBB13_53
# %bb.52:                               # %if.then413
	movzwl	-24(%rbp), %eax
	movzwl	-22(%rbp), %ecx
	cmpl	%ecx, %eax
	setg	%al
	andb	$1, %al
	movzbl	%al, %eax
	movb	%al, -11(%rbp)
	jmp	.LBB13_64
.LBB13_53:                              # %if.end419
                                        #   in Loop: Header=BB13_25 Depth=1
	movl	-20(%rbp), %eax
	addl	$1, %eax
	movl	%eax, -20(%rbp)
	movl	-16(%rbp), %eax
	addl	$1, %eax
	movl	%eax, -16(%rbp)
	movq	-32(%rbp), %rax
	movl	-20(%rbp), %ecx
	movb	(%rax,%rcx), %al
	movb	%al, -9(%rbp)
	movq	-32(%rbp), %rax
	movl	-16(%rbp), %ecx
	movb	(%rax,%rcx), %al
	movb	%al, -10(%rbp)
	movzbl	-9(%rbp), %eax
	movzbl	-10(%rbp), %ecx
	cmpl	%ecx, %eax
	je	.LBB13_55
# %bb.54:                               # %if.then430
	movzbl	-9(%rbp), %eax
	movzbl	-10(%rbp), %ecx
	cmpl	%ecx, %eax
	setg	%al
	andb	$1, %al
	movzbl	%al, %eax
	movb	%al, -11(%rbp)
	jmp	.LBB13_64
.LBB13_55:                              # %if.end436
                                        #   in Loop: Header=BB13_25 Depth=1
	movq	-40(%rbp), %rax
	movl	-20(%rbp), %ecx
	movw	(%rax,%rcx,2), %ax
	movw	%ax, -24(%rbp)
	movq	-40(%rbp), %rax
	movl	-16(%rbp), %ecx
	movw	(%rax,%rcx,2), %ax
	movw	%ax, -22(%rbp)
	movzwl	-24(%rbp), %eax
	movzwl	-22(%rbp), %ecx
	cmpl	%ecx, %eax
	je	.LBB13_57
# %bb.56:                               # %if.then445
	movzwl	-24(%rbp), %eax
	movzwl	-22(%rbp), %ecx
	cmpl	%ecx, %eax
	setg	%al
	andb	$1, %al
	movzbl	%al, %eax
	movb	%al, -11(%rbp)
	jmp	.LBB13_64
.LBB13_57:                              # %if.end451
                                        #   in Loop: Header=BB13_25 Depth=1
	movl	-20(%rbp), %eax
	addl	$1, %eax
	movl	%eax, -20(%rbp)
	movl	-16(%rbp), %eax
	addl	$1, %eax
	movl	%eax, -16(%rbp)
	movl	-20(%rbp), %eax
	cmpl	-44(%rbp), %eax
	jb	.LBB13_59
# %bb.58:                               # %if.then456
                                        #   in Loop: Header=BB13_25 Depth=1
	movl	-44(%rbp), %eax
	movl	-20(%rbp), %ecx
	subl	%eax, %ecx
	movl	%ecx, -20(%rbp)
.LBB13_59:                              # %if.end457
                                        #   in Loop: Header=BB13_25 Depth=1
	movl	-16(%rbp), %eax
	cmpl	-44(%rbp), %eax
	jb	.LBB13_61
# %bb.60:                               # %if.then460
                                        #   in Loop: Header=BB13_25 Depth=1
	movl	-44(%rbp), %eax
	movl	-16(%rbp), %ecx
	subl	%eax, %ecx
	movl	%ecx, -16(%rbp)
.LBB13_61:                              # %if.end462
                                        #   in Loop: Header=BB13_25 Depth=1
	movl	-48(%rbp), %eax
	subl	$8, %eax
	movl	%eax, -48(%rbp)
	movq	-64(%rbp), %rax
	movl	(%rax), %ecx
	addl	$-1, %ecx
	movl	%ecx, (%rax)
# %bb.62:                               # %do.cond
                                        #   in Loop: Header=BB13_25 Depth=1
	cmpl	$0, -48(%rbp)
	jge	.LBB13_25
# %bb.63:                               # %do.end
	movb	$0, -11(%rbp)
.LBB13_64:                              # %return
	movb	-11(%rbp), %bl
	cmpl	$628410802, -52(%rbp)   # imm = 0x2574C9B2
	jne	.LBB13_66
.LBB13_65:
	movzbl	%bl, %eax
	addq	$56, %rsp
	popq	%rbx
	popq	%rbp
	.cfi_def_cfa %rsp, 8
	retq
.LBB13_66:                              # %func_exit
	.cfi_def_cfa %rbp, 16
	callq	detect_breach
	jmp	.LBB13_65
.Lfunc_end13:
	.size	mainGtU.5, .Lfunc_end13-mainGtU.5
	.cfi_endproc
                                        # -- End function
	.p2align	4, 0x90         # -- Begin function fallbackQSort3.6
	.type	fallbackQSort3.6,@function
fallbackQSort3.6:                       # @fallbackQSort3.6
	.cfi_startproc
# %bb.0:                                # %entry
	pushq	%rbp
	.cfi_def_cfa_offset 16
	.cfi_offset %rbp, -16
	movq	%rsp, %rbp
	.cfi_def_cfa_register %rbp
	subq	$928, %rsp              # imm = 0x3A0
	movl	$1080733762, -108(%rbp) # imm = 0x406AB042
	movq	%rdi, -24(%rbp)
	movq	%rsi, -88(%rbp)
	movl	%edx, -112(%rbp)
	movl	%ecx, -124(%rbp)
	movl	$0, -76(%rbp)
	movl	$0, -4(%rbp)
	movl	-112(%rbp), %eax
	movslq	-4(%rbp), %rcx
	movl	%eax, -928(%rbp,%rcx,4)
	movl	-124(%rbp), %eax
	movslq	-4(%rbp), %rcx
	movl	%eax, -528(%rbp,%rcx,4)
	movl	-4(%rbp), %eax
	addl	$1, %eax
	movl	%eax, -4(%rbp)
.LBB14_1:                               # %while.cond
                                        # =>This Loop Header: Depth=1
                                        #     Child Loop BB14_14 Depth 2
                                        #       Child Loop BB14_15 Depth 3
                                        #       Child Loop BB14_24 Depth 3
                                        #     Child Loop BB14_41 Depth 2
                                        #     Child Loop BB14_47 Depth 2
	cmpl	$0, -4(%rbp)
	jle	.LBB14_53
# %bb.2:                                # %while.body
                                        #   in Loop: Header=BB14_1 Depth=1
	cmpl	$100, -4(%rbp)
	jl	.LBB14_4
# %bb.3:                                # %if.then
                                        #   in Loop: Header=BB14_1 Depth=1
	movl	$1004, %edi             # imm = 0x3EC
	callq	BZ2_bz__AssertH__fail
.LBB14_4:                               # %if.end
                                        #   in Loop: Header=BB14_1 Depth=1
	movl	-4(%rbp), %eax
	addl	$-1, %eax
	movl	%eax, -4(%rbp)
	movslq	-4(%rbp), %rax
	movl	-928(%rbp,%rax,4), %eax
	movl	%eax, -36(%rbp)
	movslq	-4(%rbp), %rax
	movl	-528(%rbp,%rax,4), %eax
	movl	%eax, -32(%rbp)
	movl	-32(%rbp), %eax
	subl	-36(%rbp), %eax
	cmpl	$10, %eax
	jge	.LBB14_7
# %bb.5:                                # %if.then9
                                        #   in Loop: Header=BB14_1 Depth=1
	movq	-24(%rbp), %rdi
	movq	-88(%rbp), %rsi
	movl	-36(%rbp), %edx
	movl	-32(%rbp), %ecx
	callq	fallbackSimpleSort
.LBB14_6:                               # %while.cond.backedge
                                        #   in Loop: Header=BB14_1 Depth=1
	jmp	.LBB14_1
.LBB14_7:                               # %if.end10
                                        #   in Loop: Header=BB14_1 Depth=1
	imull	$7621, -76(%rbp), %eax  # imm = 0x1DC5
	addl	$1, %eax
	andl	$32767, %eax            # imm = 0x7FFF
	movl	%eax, -76(%rbp)
	movl	-76(%rbp), %eax
	xorl	%edx, %edx
	movl	$3, %ecx
	divl	%ecx
	movl	%edx, -92(%rbp)
	cmpl	$0, -92(%rbp)
	jne	.LBB14_9
# %bb.8:                                # %if.then13
                                        #   in Loop: Header=BB14_1 Depth=1
	movq	-88(%rbp), %rax
	movq	-24(%rbp), %rcx
	movslq	-36(%rbp), %rdx
	movl	(%rcx,%rdx,4), %ecx
	movl	(%rax,%rcx,4), %eax
	movl	%eax, -60(%rbp)
	jmp	.LBB14_13
.LBB14_9:                               # %if.else
                                        #   in Loop: Header=BB14_1 Depth=1
	cmpl	$1, -92(%rbp)
	jne	.LBB14_11
# %bb.10:                               # %if.then19
                                        #   in Loop: Header=BB14_1 Depth=1
	movq	-88(%rbp), %rax
	movq	-24(%rbp), %rcx
	movl	-36(%rbp), %edx
	addl	-32(%rbp), %edx
	sarl	$1, %edx
	movslq	%edx, %rdx
	movl	(%rcx,%rdx,4), %ecx
	movl	(%rax,%rcx,4), %eax
	movl	%eax, -60(%rbp)
	jmp	.LBB14_12
.LBB14_11:                              # %if.else25
                                        #   in Loop: Header=BB14_1 Depth=1
	movq	-88(%rbp), %rax
	movq	-24(%rbp), %rcx
	movslq	-32(%rbp), %rdx
	movl	(%rcx,%rdx,4), %ecx
	movl	(%rax,%rcx,4), %eax
	movl	%eax, -60(%rbp)
.LBB14_12:                              # %if.end30
                                        #   in Loop: Header=BB14_1 Depth=1
	jmp	.LBB14_13
.LBB14_13:                              # %if.end31
                                        #   in Loop: Header=BB14_1 Depth=1
	movl	-36(%rbp), %eax
	movl	%eax, -44(%rbp)
	movl	%eax, -8(%rbp)
	movl	-32(%rbp), %eax
	movl	%eax, -40(%rbp)
	movl	%eax, -12(%rbp)
.LBB14_14:                              # %while.body33
                                        #   Parent Loop BB14_1 Depth=1
                                        # =>  This Loop Header: Depth=2
                                        #       Child Loop BB14_15 Depth 3
                                        #       Child Loop BB14_24 Depth 3
	jmp	.LBB14_15
.LBB14_15:                              # %while.body35
                                        #   Parent Loop BB14_1 Depth=1
                                        #     Parent Loop BB14_14 Depth=2
                                        # =>    This Inner Loop Header: Depth=3
	movl	-8(%rbp), %eax
	cmpl	-12(%rbp), %eax
	jle	.LBB14_17
# %bb.16:                               # %if.then37
                                        #   in Loop: Header=BB14_14 Depth=2
	jmp	.LBB14_23
.LBB14_17:                              # %if.end38
                                        #   in Loop: Header=BB14_15 Depth=3
	movq	-88(%rbp), %rax
	movq	-24(%rbp), %rcx
	movslq	-8(%rbp), %rdx
	movl	(%rcx,%rdx,4), %ecx
	movl	(%rax,%rcx,4), %eax
	subl	-60(%rbp), %eax
	movl	%eax, -28(%rbp)
	cmpl	$0, -28(%rbp)
	jne	.LBB14_20
# %bb.18:                               # %if.then45
                                        #   in Loop: Header=BB14_15 Depth=3
	movq	-24(%rbp), %rax
	movslq	-8(%rbp), %rcx
	movl	(%rax,%rcx,4), %eax
	movl	%eax, -120(%rbp)
	movq	-24(%rbp), %rax
	movslq	-44(%rbp), %rcx
	movl	(%rax,%rcx,4), %eax
	movq	-24(%rbp), %rcx
	movslq	-8(%rbp), %rdx
	movl	%eax, (%rcx,%rdx,4)
	movl	-120(%rbp), %eax
	movq	-24(%rbp), %rcx
	movslq	-44(%rbp), %rdx
	movl	%eax, (%rcx,%rdx,4)
	movl	-44(%rbp), %eax
	addl	$1, %eax
	movl	%eax, -44(%rbp)
	movl	-8(%rbp), %eax
	addl	$1, %eax
	movl	%eax, -8(%rbp)
.LBB14_19:                              # %while.body35.backedge
                                        #   in Loop: Header=BB14_15 Depth=3
	jmp	.LBB14_15
.LBB14_20:                              # %if.end56
                                        #   in Loop: Header=BB14_15 Depth=3
	cmpl	$0, -28(%rbp)
	jle	.LBB14_22
# %bb.21:                               # %if.then58
                                        #   in Loop: Header=BB14_14 Depth=2
	jmp	.LBB14_23
.LBB14_22:                              # %if.end59
                                        #   in Loop: Header=BB14_15 Depth=3
	movl	-8(%rbp), %eax
	addl	$1, %eax
	movl	%eax, -8(%rbp)
	jmp	.LBB14_19
.LBB14_23:                              # %while.end
                                        #   in Loop: Header=BB14_14 Depth=2
	jmp	.LBB14_24
.LBB14_24:                              # %while.body62
                                        #   Parent Loop BB14_1 Depth=1
                                        #     Parent Loop BB14_14 Depth=2
                                        # =>    This Inner Loop Header: Depth=3
	movl	-8(%rbp), %eax
	cmpl	-12(%rbp), %eax
	jle	.LBB14_26
# %bb.25:                               # %if.then64
                                        #   in Loop: Header=BB14_14 Depth=2
	jmp	.LBB14_32
.LBB14_26:                              # %if.end65
                                        #   in Loop: Header=BB14_24 Depth=3
	movq	-88(%rbp), %rax
	movq	-24(%rbp), %rcx
	movslq	-12(%rbp), %rdx
	movl	(%rcx,%rdx,4), %ecx
	movl	(%rax,%rcx,4), %eax
	subl	-60(%rbp), %eax
	movl	%eax, -28(%rbp)
	cmpl	$0, -28(%rbp)
	jne	.LBB14_29
# %bb.27:                               # %if.then72
                                        #   in Loop: Header=BB14_24 Depth=3
	movq	-24(%rbp), %rax
	movslq	-12(%rbp), %rcx
	movl	(%rax,%rcx,4), %eax
	movl	%eax, -96(%rbp)
	movq	-24(%rbp), %rax
	movslq	-40(%rbp), %rcx
	movl	(%rax,%rcx,4), %eax
	movq	-24(%rbp), %rcx
	movslq	-12(%rbp), %rdx
	movl	%eax, (%rcx,%rdx,4)
	movl	-96(%rbp), %eax
	movq	-24(%rbp), %rcx
	movslq	-40(%rbp), %rdx
	movl	%eax, (%rcx,%rdx,4)
	movl	-40(%rbp), %eax
	addl	$-1, %eax
	movl	%eax, -40(%rbp)
	movl	-12(%rbp), %eax
	addl	$-1, %eax
	movl	%eax, -12(%rbp)
.LBB14_28:                              # %while.body62.backedge
                                        #   in Loop: Header=BB14_24 Depth=3
	jmp	.LBB14_24
.LBB14_29:                              # %if.end84
                                        #   in Loop: Header=BB14_24 Depth=3
	cmpl	$0, -28(%rbp)
	jge	.LBB14_31
# %bb.30:                               # %if.then86
                                        #   in Loop: Header=BB14_14 Depth=2
	jmp	.LBB14_32
.LBB14_31:                              # %if.end87
                                        #   in Loop: Header=BB14_24 Depth=3
	movl	-12(%rbp), %eax
	addl	$-1, %eax
	movl	%eax, -12(%rbp)
	jmp	.LBB14_28
.LBB14_32:                              # %while.end89
                                        #   in Loop: Header=BB14_14 Depth=2
	movl	-8(%rbp), %eax
	cmpl	-12(%rbp), %eax
	jle	.LBB14_34
# %bb.33:                               # %if.then91
                                        #   in Loop: Header=BB14_1 Depth=1
	jmp	.LBB14_35
.LBB14_34:                              # %if.end92
                                        #   in Loop: Header=BB14_14 Depth=2
	movq	-24(%rbp), %rax
	movslq	-8(%rbp), %rcx
	movl	(%rax,%rcx,4), %eax
	movl	%eax, -100(%rbp)
	movq	-24(%rbp), %rax
	movslq	-12(%rbp), %rcx
	movl	(%rax,%rcx,4), %eax
	movq	-24(%rbp), %rcx
	movslq	-8(%rbp), %rdx
	movl	%eax, (%rcx,%rdx,4)
	movl	-100(%rbp), %eax
	movq	-24(%rbp), %rcx
	movslq	-12(%rbp), %rdx
	movl	%eax, (%rcx,%rdx,4)
	movl	-8(%rbp), %eax
	addl	$1, %eax
	movl	%eax, -8(%rbp)
	movl	-12(%rbp), %eax
	addl	$-1, %eax
	movl	%eax, -12(%rbp)
	jmp	.LBB14_14
.LBB14_35:                              # %while.end104
                                        #   in Loop: Header=BB14_1 Depth=1
	movl	-40(%rbp), %eax
	cmpl	-44(%rbp), %eax
	jge	.LBB14_37
# %bb.36:                               # %if.then106
                                        #   in Loop: Header=BB14_1 Depth=1
	jmp	.LBB14_6
.LBB14_37:                              # %if.end107
                                        #   in Loop: Header=BB14_1 Depth=1
	movl	-44(%rbp), %eax
	subl	-36(%rbp), %eax
	movl	-8(%rbp), %ecx
	subl	-44(%rbp), %ecx
	cmpl	%ecx, %eax
	jge	.LBB14_39
# %bb.38:                               # %cond.true
                                        #   in Loop: Header=BB14_1 Depth=1
	movl	-44(%rbp), %eax
	subl	-36(%rbp), %eax
	jmp	.LBB14_40
.LBB14_39:                              # %cond.false
                                        #   in Loop: Header=BB14_1 Depth=1
	movl	-8(%rbp), %eax
	subl	-44(%rbp), %eax
.LBB14_40:                              # %cond.end
                                        #   in Loop: Header=BB14_1 Depth=1
	movl	%eax, -28(%rbp)
	movl	-36(%rbp), %eax
	movl	%eax, -56(%rbp)
	movl	-8(%rbp), %eax
	subl	-28(%rbp), %eax
	movl	%eax, -64(%rbp)
	movl	-28(%rbp), %eax
	movl	%eax, -80(%rbp)
.LBB14_41:                              # %while.cond114
                                        #   Parent Loop BB14_1 Depth=1
                                        # =>  This Inner Loop Header: Depth=2
	cmpl	$0, -80(%rbp)
	jle	.LBB14_43
# %bb.42:                               # %while.body116
                                        #   in Loop: Header=BB14_41 Depth=2
	movq	-24(%rbp), %rax
	movslq	-56(%rbp), %rcx
	movl	(%rax,%rcx,4), %eax
	movl	%eax, -116(%rbp)
	movq	-24(%rbp), %rax
	movslq	-64(%rbp), %rcx
	movl	(%rax,%rcx,4), %eax
	movq	-24(%rbp), %rcx
	movslq	-56(%rbp), %rdx
	movl	%eax, (%rcx,%rdx,4)
	movl	-116(%rbp), %eax
	movq	-24(%rbp), %rcx
	movslq	-64(%rbp), %rdx
	movl	%eax, (%rcx,%rdx,4)
	movl	-56(%rbp), %eax
	addl	$1, %eax
	movl	%eax, -56(%rbp)
	movl	-64(%rbp), %eax
	addl	$1, %eax
	movl	%eax, -64(%rbp)
	movl	-80(%rbp), %eax
	addl	$-1, %eax
	movl	%eax, -80(%rbp)
	jmp	.LBB14_41
.LBB14_43:                              # %while.end129
                                        #   in Loop: Header=BB14_1 Depth=1
	movl	-32(%rbp), %eax
	subl	-40(%rbp), %eax
	movl	-40(%rbp), %ecx
	subl	-12(%rbp), %ecx
	cmpl	%ecx, %eax
	jge	.LBB14_45
# %bb.44:                               # %cond.true133
                                        #   in Loop: Header=BB14_1 Depth=1
	movl	-32(%rbp), %eax
	subl	-40(%rbp), %eax
	jmp	.LBB14_46
.LBB14_45:                              # %cond.false135
                                        #   in Loop: Header=BB14_1 Depth=1
	movl	-40(%rbp), %eax
	subl	-12(%rbp), %eax
.LBB14_46:                              # %cond.end137
                                        #   in Loop: Header=BB14_1 Depth=1
	movl	%eax, -48(%rbp)
	movl	-8(%rbp), %eax
	movl	%eax, -52(%rbp)
	movl	-32(%rbp), %eax
	subl	-48(%rbp), %eax
	addl	$1, %eax
	movl	%eax, -68(%rbp)
	movl	-48(%rbp), %eax
	movl	%eax, -72(%rbp)
.LBB14_47:                              # %while.cond144
                                        #   Parent Loop BB14_1 Depth=1
                                        # =>  This Inner Loop Header: Depth=2
	cmpl	$0, -72(%rbp)
	jle	.LBB14_49
# %bb.48:                               # %while.body146
                                        #   in Loop: Header=BB14_47 Depth=2
	movq	-24(%rbp), %rax
	movslq	-52(%rbp), %rcx
	movl	(%rax,%rcx,4), %eax
	movl	%eax, -104(%rbp)
	movq	-24(%rbp), %rax
	movslq	-68(%rbp), %rcx
	movl	(%rax,%rcx,4), %eax
	movq	-24(%rbp), %rcx
	movslq	-52(%rbp), %rdx
	movl	%eax, (%rcx,%rdx,4)
	movl	-104(%rbp), %eax
	movq	-24(%rbp), %rcx
	movslq	-68(%rbp), %rdx
	movl	%eax, (%rcx,%rdx,4)
	movl	-52(%rbp), %eax
	addl	$1, %eax
	movl	%eax, -52(%rbp)
	movl	-68(%rbp), %eax
	addl	$1, %eax
	movl	%eax, -68(%rbp)
	movl	-72(%rbp), %eax
	addl	$-1, %eax
	movl	%eax, -72(%rbp)
	jmp	.LBB14_47
.LBB14_49:                              # %while.end159
                                        #   in Loop: Header=BB14_1 Depth=1
	movl	-36(%rbp), %eax
	addl	-8(%rbp), %eax
	subl	-44(%rbp), %eax
	subl	$1, %eax
	movl	%eax, -28(%rbp)
	movl	-32(%rbp), %eax
	movl	-40(%rbp), %ecx
	subl	-12(%rbp), %ecx
	subl	%ecx, %eax
	addl	$1, %eax
	movl	%eax, -48(%rbp)
	movl	-28(%rbp), %eax
	subl	-36(%rbp), %eax
	movl	-32(%rbp), %ecx
	subl	-48(%rbp), %ecx
	cmpl	%ecx, %eax
	jle	.LBB14_51
# %bb.50:                               # %if.then169
                                        #   in Loop: Header=BB14_1 Depth=1
	movl	-36(%rbp), %eax
	movslq	-4(%rbp), %rcx
	movl	%eax, -928(%rbp,%rcx,4)
	movl	-28(%rbp), %eax
	movslq	-4(%rbp), %rcx
	movl	%eax, -528(%rbp,%rcx,4)
	movl	-4(%rbp), %eax
	addl	$1, %eax
	movl	%eax, -4(%rbp)
	movl	-48(%rbp), %eax
	movslq	-4(%rbp), %rcx
	movl	%eax, -928(%rbp,%rcx,4)
	movl	-32(%rbp), %eax
	movslq	-4(%rbp), %rcx
	movl	%eax, -528(%rbp,%rcx,4)
	movl	-4(%rbp), %eax
	addl	$1, %eax
	movl	%eax, -4(%rbp)
	jmp	.LBB14_52
.LBB14_51:                              # %if.else180
                                        #   in Loop: Header=BB14_1 Depth=1
	movl	-48(%rbp), %eax
	movslq	-4(%rbp), %rcx
	movl	%eax, -928(%rbp,%rcx,4)
	movl	-32(%rbp), %eax
	movslq	-4(%rbp), %rcx
	movl	%eax, -528(%rbp,%rcx,4)
	movl	-4(%rbp), %eax
	addl	$1, %eax
	movl	%eax, -4(%rbp)
	movl	-36(%rbp), %eax
	movslq	-4(%rbp), %rcx
	movl	%eax, -928(%rbp,%rcx,4)
	movl	-28(%rbp), %eax
	movslq	-4(%rbp), %rcx
	movl	%eax, -528(%rbp,%rcx,4)
	movl	-4(%rbp), %eax
	addl	$1, %eax
	movl	%eax, -4(%rbp)
.LBB14_52:                              # %if.end191
                                        #   in Loop: Header=BB14_1 Depth=1
	jmp	.LBB14_6
.LBB14_53:                              # %while.end192
	cmpl	$1080733762, -108(%rbp) # imm = 0x406AB042
	jne	.LBB14_55
.LBB14_54:
	addq	$928, %rsp              # imm = 0x3A0
	popq	%rbp
	.cfi_def_cfa %rsp, 8
	retq
.LBB14_55:                              # %func_exit
	.cfi_def_cfa %rbp, 16
	callq	detect_breach
	jmp	.LBB14_54
.Lfunc_end14:
	.size	fallbackQSort3.6, .Lfunc_end14-fallbackQSort3.6
	.cfi_endproc
                                        # -- End function
	.p2align	4, 0x90         # -- Begin function mainQSort3.7
	.type	mainQSort3.7,@function
mainQSort3.7:                           # @mainQSort3.7
	.cfi_startproc
# %bb.0:                                # %entry
	pushq	%rbp
	.cfi_def_cfa_offset 16
	.cfi_offset %rbp, -16
	movq	%rsp, %rbp
	.cfi_def_cfa_register %rbp
	subq	$1408, %rsp             # imm = 0x580
	movq	24(%rbp), %rax
	movl	16(%rbp), %eax
	movl	$2054675235, -160(%rbp) # imm = 0x7A77DB23
	movq	%rdi, -24(%rbp)
	movq	%rsi, -136(%rbp)
	movq	%rdx, -184(%rbp)
	movl	%ecx, -148(%rbp)
	movl	%r8d, -172(%rbp)
	movl	%r9d, -176(%rbp)
	movl	$0, -4(%rbp)
	movl	-172(%rbp), %eax
	movslq	-4(%rbp), %rcx
	movl	%eax, -1392(%rbp,%rcx,4)
	movl	-176(%rbp), %eax
	movslq	-4(%rbp), %rcx
	movl	%eax, -592(%rbp,%rcx,4)
	movl	16(%rbp), %eax
	movslq	-4(%rbp), %rcx
	movl	%eax, -992(%rbp,%rcx,4)
	movl	-4(%rbp), %eax
	addl	$1, %eax
	movl	%eax, -4(%rbp)
.LBB15_1:                               # %while.cond
                                        # =>This Loop Header: Depth=1
                                        #     Child Loop BB15_11 Depth 2
                                        #       Child Loop BB15_12 Depth 3
                                        #       Child Loop BB15_21 Depth 3
                                        #     Child Loop BB15_38 Depth 2
                                        #     Child Loop BB15_44 Depth 2
	cmpl	$0, -4(%rbp)
	jle	.LBB15_53
# %bb.2:                                # %while.body
                                        #   in Loop: Header=BB15_1 Depth=1
	cmpl	$100, -4(%rbp)
	jl	.LBB15_4
# %bb.3:                                # %if.then
                                        #   in Loop: Header=BB15_1 Depth=1
	movl	$1001, %edi             # imm = 0x3E9
	callq	BZ2_bz__AssertH__fail
.LBB15_4:                               # %if.end
                                        #   in Loop: Header=BB15_1 Depth=1
	movl	-4(%rbp), %eax
	addl	$-1, %eax
	movl	%eax, -4(%rbp)
	movslq	-4(%rbp), %rax
	movl	-1392(%rbp,%rax,4), %eax
	movl	%eax, -28(%rbp)
	movslq	-4(%rbp), %rax
	movl	-592(%rbp,%rax,4), %eax
	movl	%eax, -32(%rbp)
	movslq	-4(%rbp), %rax
	movl	-992(%rbp,%rax,4), %eax
	movl	%eax, -36(%rbp)
	movl	-32(%rbp), %eax
	subl	-28(%rbp), %eax
	cmpl	$20, %eax
	jl	.LBB15_6
# %bb.5:                                # %lor.lhs.false
                                        #   in Loop: Header=BB15_1 Depth=1
	cmpl	$14, -36(%rbp)
	jle	.LBB15_10
.LBB15_6:                               # %if.then14
                                        #   in Loop: Header=BB15_1 Depth=1
	movq	-24(%rbp), %rdi
	movq	-136(%rbp), %rsi
	movq	-184(%rbp), %rdx
	movl	-148(%rbp), %ecx
	movl	-28(%rbp), %r8d
	movl	-32(%rbp), %r9d
	movl	-36(%rbp), %eax
	movq	24(%rbp), %r10
	movl	%eax, (%rsp)
	movq	%r10, 8(%rsp)
	callq	mainSimpleSort
	movq	24(%rbp), %rax
	cmpl	$0, (%rax)
	jge	.LBB15_8
# %bb.7:                                # %if.then16
	jmp	.LBB15_54
.LBB15_8:                               # %if.end17
                                        #   in Loop: Header=BB15_1 Depth=1
	jmp	.LBB15_9
.LBB15_9:                               # %while.cond.backedge
                                        #   in Loop: Header=BB15_1 Depth=1
	jmp	.LBB15_1
.LBB15_10:                              # %if.end18
                                        #   in Loop: Header=BB15_1 Depth=1
	movq	-136(%rbp), %rax
	movq	-24(%rbp), %rcx
	movslq	-28(%rbp), %rdx
	movl	(%rcx,%rdx,4), %ecx
	addl	-36(%rbp), %ecx
	movl	%ecx, %ecx
	movb	(%rax,%rcx), %r8b
	movq	-136(%rbp), %rcx
	movq	-24(%rbp), %rdx
	movslq	-32(%rbp), %rsi
	movl	(%rdx,%rsi,4), %edx
	addl	-36(%rbp), %edx
	movl	%edx, %edx
	movb	(%rcx,%rdx), %cl
	movq	-136(%rbp), %rdx
	movq	-24(%rbp), %rsi
	movl	-28(%rbp), %edi
	addl	-32(%rbp), %edi
	sarl	$1, %edi
	movslq	%edi, %rdi
	movl	(%rsi,%rdi,4), %esi
	addl	-36(%rbp), %esi
	movl	%esi, %eax
	movzbl	%r8b, %edi
	movzbl	%cl, %esi
	movzbl	(%rdx,%rax), %edx
	callq	mmed3
	movzbl	%al, %eax
	movl	%eax, -140(%rbp)
	movl	-28(%rbp), %eax
	movl	%eax, -48(%rbp)
	movl	%eax, -8(%rbp)
	movl	-32(%rbp), %eax
	movl	%eax, -44(%rbp)
	movl	%eax, -12(%rbp)
.LBB15_11:                              # %while.body35
                                        #   Parent Loop BB15_1 Depth=1
                                        # =>  This Loop Header: Depth=2
                                        #       Child Loop BB15_12 Depth 3
                                        #       Child Loop BB15_21 Depth 3
	jmp	.LBB15_12
.LBB15_12:                              # %while.body37
                                        #   Parent Loop BB15_1 Depth=1
                                        #     Parent Loop BB15_11 Depth=2
                                        # =>    This Inner Loop Header: Depth=3
	movl	-8(%rbp), %eax
	cmpl	-12(%rbp), %eax
	jle	.LBB15_14
# %bb.13:                               # %if.then40
                                        #   in Loop: Header=BB15_11 Depth=2
	jmp	.LBB15_20
.LBB15_14:                              # %if.end41
                                        #   in Loop: Header=BB15_12 Depth=3
	movq	-136(%rbp), %rax
	movq	-24(%rbp), %rcx
	movslq	-8(%rbp), %rdx
	movl	(%rcx,%rdx,4), %ecx
	addl	-36(%rbp), %ecx
	movl	%ecx, %ecx
	movzbl	(%rax,%rcx), %eax
	subl	-140(%rbp), %eax
	movl	%eax, -40(%rbp)
	cmpl	$0, -40(%rbp)
	jne	.LBB15_17
# %bb.15:                               # %if.then51
                                        #   in Loop: Header=BB15_12 Depth=3
	movq	-24(%rbp), %rax
	movslq	-8(%rbp), %rcx
	movl	(%rax,%rcx,4), %eax
	movl	%eax, -152(%rbp)
	movq	-24(%rbp), %rax
	movslq	-48(%rbp), %rcx
	movl	(%rax,%rcx,4), %eax
	movq	-24(%rbp), %rcx
	movslq	-8(%rbp), %rdx
	movl	%eax, (%rcx,%rdx,4)
	movl	-152(%rbp), %eax
	movq	-24(%rbp), %rcx
	movslq	-48(%rbp), %rdx
	movl	%eax, (%rcx,%rdx,4)
	movl	-48(%rbp), %eax
	addl	$1, %eax
	movl	%eax, -48(%rbp)
	movl	-8(%rbp), %eax
	addl	$1, %eax
	movl	%eax, -8(%rbp)
.LBB15_16:                              # %while.body37.backedge
                                        #   in Loop: Header=BB15_12 Depth=3
	jmp	.LBB15_12
.LBB15_17:                              # %if.end62
                                        #   in Loop: Header=BB15_12 Depth=3
	cmpl	$0, -40(%rbp)
	jle	.LBB15_19
# %bb.18:                               # %if.then65
                                        #   in Loop: Header=BB15_11 Depth=2
	jmp	.LBB15_20
.LBB15_19:                              # %if.end66
                                        #   in Loop: Header=BB15_12 Depth=3
	movl	-8(%rbp), %eax
	addl	$1, %eax
	movl	%eax, -8(%rbp)
	jmp	.LBB15_16
.LBB15_20:                              # %while.end
                                        #   in Loop: Header=BB15_11 Depth=2
	jmp	.LBB15_21
.LBB15_21:                              # %while.body69
                                        #   Parent Loop BB15_1 Depth=1
                                        #     Parent Loop BB15_11 Depth=2
                                        # =>    This Inner Loop Header: Depth=3
	movl	-8(%rbp), %eax
	cmpl	-12(%rbp), %eax
	jle	.LBB15_23
# %bb.22:                               # %if.then72
                                        #   in Loop: Header=BB15_11 Depth=2
	jmp	.LBB15_29
.LBB15_23:                              # %if.end73
                                        #   in Loop: Header=BB15_21 Depth=3
	movq	-136(%rbp), %rax
	movq	-24(%rbp), %rcx
	movslq	-12(%rbp), %rdx
	movl	(%rcx,%rdx,4), %ecx
	addl	-36(%rbp), %ecx
	movl	%ecx, %ecx
	movzbl	(%rax,%rcx), %eax
	subl	-140(%rbp), %eax
	movl	%eax, -40(%rbp)
	cmpl	$0, -40(%rbp)
	jne	.LBB15_26
# %bb.24:                               # %if.then83
                                        #   in Loop: Header=BB15_21 Depth=3
	movq	-24(%rbp), %rax
	movslq	-12(%rbp), %rcx
	movl	(%rax,%rcx,4), %eax
	movl	%eax, -144(%rbp)
	movq	-24(%rbp), %rax
	movslq	-44(%rbp), %rcx
	movl	(%rax,%rcx,4), %eax
	movq	-24(%rbp), %rcx
	movslq	-12(%rbp), %rdx
	movl	%eax, (%rcx,%rdx,4)
	movl	-144(%rbp), %eax
	movq	-24(%rbp), %rcx
	movslq	-44(%rbp), %rdx
	movl	%eax, (%rcx,%rdx,4)
	movl	-44(%rbp), %eax
	addl	$-1, %eax
	movl	%eax, -44(%rbp)
	movl	-12(%rbp), %eax
	addl	$-1, %eax
	movl	%eax, -12(%rbp)
.LBB15_25:                              # %while.body69.backedge
                                        #   in Loop: Header=BB15_21 Depth=3
	jmp	.LBB15_21
.LBB15_26:                              # %if.end95
                                        #   in Loop: Header=BB15_21 Depth=3
	cmpl	$0, -40(%rbp)
	jge	.LBB15_28
# %bb.27:                               # %if.then98
                                        #   in Loop: Header=BB15_11 Depth=2
	jmp	.LBB15_29
.LBB15_28:                              # %if.end99
                                        #   in Loop: Header=BB15_21 Depth=3
	movl	-12(%rbp), %eax
	addl	$-1, %eax
	movl	%eax, -12(%rbp)
	jmp	.LBB15_25
.LBB15_29:                              # %while.end101
                                        #   in Loop: Header=BB15_11 Depth=2
	movl	-8(%rbp), %eax
	cmpl	-12(%rbp), %eax
	jle	.LBB15_31
# %bb.30:                               # %if.then104
                                        #   in Loop: Header=BB15_1 Depth=1
	jmp	.LBB15_32
.LBB15_31:                              # %if.end105
                                        #   in Loop: Header=BB15_11 Depth=2
	movq	-24(%rbp), %rax
	movslq	-8(%rbp), %rcx
	movl	(%rax,%rcx,4), %eax
	movl	%eax, -164(%rbp)
	movq	-24(%rbp), %rax
	movslq	-12(%rbp), %rcx
	movl	(%rax,%rcx,4), %eax
	movq	-24(%rbp), %rcx
	movslq	-8(%rbp), %rdx
	movl	%eax, (%rcx,%rdx,4)
	movl	-164(%rbp), %eax
	movq	-24(%rbp), %rcx
	movslq	-12(%rbp), %rdx
	movl	%eax, (%rcx,%rdx,4)
	movl	-8(%rbp), %eax
	addl	$1, %eax
	movl	%eax, -8(%rbp)
	movl	-12(%rbp), %eax
	addl	$-1, %eax
	movl	%eax, -12(%rbp)
	jmp	.LBB15_11
.LBB15_32:                              # %while.end117
                                        #   in Loop: Header=BB15_1 Depth=1
	movl	-44(%rbp), %eax
	cmpl	-48(%rbp), %eax
	jge	.LBB15_34
# %bb.33:                               # %if.then120
                                        #   in Loop: Header=BB15_1 Depth=1
	movl	-28(%rbp), %eax
	movslq	-4(%rbp), %rcx
	movl	%eax, -1392(%rbp,%rcx,4)
	movl	-32(%rbp), %eax
	movslq	-4(%rbp), %rcx
	movl	%eax, -592(%rbp,%rcx,4)
	movl	-36(%rbp), %eax
	addl	$1, %eax
	movslq	-4(%rbp), %rcx
	movl	%eax, -992(%rbp,%rcx,4)
	movl	-4(%rbp), %eax
	addl	$1, %eax
	movl	%eax, -4(%rbp)
	jmp	.LBB15_9
.LBB15_34:                              # %if.end129
                                        #   in Loop: Header=BB15_1 Depth=1
	movl	-48(%rbp), %eax
	subl	-28(%rbp), %eax
	movl	-8(%rbp), %ecx
	subl	-48(%rbp), %ecx
	cmpl	%ecx, %eax
	jge	.LBB15_36
# %bb.35:                               # %cond.true
                                        #   in Loop: Header=BB15_1 Depth=1
	movl	-48(%rbp), %eax
	subl	-28(%rbp), %eax
	jmp	.LBB15_37
.LBB15_36:                              # %cond.false
                                        #   in Loop: Header=BB15_1 Depth=1
	movl	-8(%rbp), %eax
	subl	-48(%rbp), %eax
.LBB15_37:                              # %cond.end
                                        #   in Loop: Header=BB15_1 Depth=1
	movl	%eax, -40(%rbp)
	movl	-28(%rbp), %eax
	movl	%eax, -104(%rbp)
	movl	-8(%rbp), %eax
	subl	-40(%rbp), %eax
	movl	%eax, -116(%rbp)
	movl	-40(%rbp), %eax
	movl	%eax, -120(%rbp)
.LBB15_38:                              # %while.cond137
                                        #   Parent Loop BB15_1 Depth=1
                                        # =>  This Inner Loop Header: Depth=2
	cmpl	$0, -120(%rbp)
	jle	.LBB15_40
# %bb.39:                               # %while.body140
                                        #   in Loop: Header=BB15_38 Depth=2
	movq	-24(%rbp), %rax
	movslq	-104(%rbp), %rcx
	movl	(%rax,%rcx,4), %eax
	movl	%eax, -168(%rbp)
	movq	-24(%rbp), %rax
	movslq	-116(%rbp), %rcx
	movl	(%rax,%rcx,4), %eax
	movq	-24(%rbp), %rcx
	movslq	-104(%rbp), %rdx
	movl	%eax, (%rcx,%rdx,4)
	movl	-168(%rbp), %eax
	movq	-24(%rbp), %rcx
	movslq	-116(%rbp), %rdx
	movl	%eax, (%rcx,%rdx,4)
	movl	-104(%rbp), %eax
	addl	$1, %eax
	movl	%eax, -104(%rbp)
	movl	-116(%rbp), %eax
	addl	$1, %eax
	movl	%eax, -116(%rbp)
	movl	-120(%rbp), %eax
	addl	$-1, %eax
	movl	%eax, -120(%rbp)
	jmp	.LBB15_38
.LBB15_40:                              # %while.end153
                                        #   in Loop: Header=BB15_1 Depth=1
	movl	-32(%rbp), %eax
	subl	-44(%rbp), %eax
	movl	-44(%rbp), %ecx
	subl	-12(%rbp), %ecx
	cmpl	%ecx, %eax
	jge	.LBB15_42
# %bb.41:                               # %cond.true158
                                        #   in Loop: Header=BB15_1 Depth=1
	movl	-32(%rbp), %eax
	subl	-44(%rbp), %eax
	jmp	.LBB15_43
.LBB15_42:                              # %cond.false160
                                        #   in Loop: Header=BB15_1 Depth=1
	movl	-44(%rbp), %eax
	subl	-12(%rbp), %eax
.LBB15_43:                              # %cond.end162
                                        #   in Loop: Header=BB15_1 Depth=1
	movl	%eax, -96(%rbp)
	movl	-8(%rbp), %eax
	movl	%eax, -108(%rbp)
	movl	-32(%rbp), %eax
	subl	-96(%rbp), %eax
	addl	$1, %eax
	movl	%eax, -112(%rbp)
	movl	-96(%rbp), %eax
	movl	%eax, -124(%rbp)
.LBB15_44:                              # %while.cond169
                                        #   Parent Loop BB15_1 Depth=1
                                        # =>  This Inner Loop Header: Depth=2
	cmpl	$0, -124(%rbp)
	jle	.LBB15_46
# %bb.45:                               # %while.body172
                                        #   in Loop: Header=BB15_44 Depth=2
	movq	-24(%rbp), %rax
	movslq	-108(%rbp), %rcx
	movl	(%rax,%rcx,4), %eax
	movl	%eax, -156(%rbp)
	movq	-24(%rbp), %rax
	movslq	-112(%rbp), %rcx
	movl	(%rax,%rcx,4), %eax
	movq	-24(%rbp), %rcx
	movslq	-108(%rbp), %rdx
	movl	%eax, (%rcx,%rdx,4)
	movl	-156(%rbp), %eax
	movq	-24(%rbp), %rcx
	movslq	-112(%rbp), %rdx
	movl	%eax, (%rcx,%rdx,4)
	movl	-108(%rbp), %eax
	addl	$1, %eax
	movl	%eax, -108(%rbp)
	movl	-112(%rbp), %eax
	addl	$1, %eax
	movl	%eax, -112(%rbp)
	movl	-124(%rbp), %eax
	addl	$-1, %eax
	movl	%eax, -124(%rbp)
	jmp	.LBB15_44
.LBB15_46:                              # %while.end185
                                        #   in Loop: Header=BB15_1 Depth=1
	movl	-28(%rbp), %eax
	addl	-8(%rbp), %eax
	subl	-48(%rbp), %eax
	subl	$1, %eax
	movl	%eax, -40(%rbp)
	movl	-32(%rbp), %eax
	movl	-44(%rbp), %ecx
	subl	-12(%rbp), %ecx
	subl	%ecx, %eax
	addl	$1, %eax
	movl	%eax, -96(%rbp)
	movl	-28(%rbp), %eax
	movl	%eax, -72(%rbp)
	movl	-40(%rbp), %eax
	movl	%eax, -60(%rbp)
	movl	-36(%rbp), %eax
	movl	%eax, -88(%rbp)
	movl	-96(%rbp), %eax
	movl	%eax, -68(%rbp)
	movl	-32(%rbp), %eax
	movl	%eax, -56(%rbp)
	movl	-36(%rbp), %eax
	movl	%eax, -84(%rbp)
	movl	-40(%rbp), %eax
	addl	$1, %eax
	movl	%eax, -64(%rbp)
	movl	-96(%rbp), %eax
	subl	$1, %eax
	movl	%eax, -52(%rbp)
	movl	-36(%rbp), %eax
	addl	$1, %eax
	movl	%eax, -80(%rbp)
	movl	-60(%rbp), %eax
	subl	-72(%rbp), %eax
	movl	-56(%rbp), %ecx
	subl	-68(%rbp), %ecx
	cmpl	%ecx, %eax
	jge	.LBB15_48
# %bb.47:                               # %if.then212
                                        #   in Loop: Header=BB15_1 Depth=1
	movl	-72(%rbp), %eax
	movl	%eax, -76(%rbp)
	movl	-68(%rbp), %eax
	movl	%eax, -72(%rbp)
	movl	-76(%rbp), %eax
	movl	%eax, -68(%rbp)
	movl	-60(%rbp), %eax
	movl	%eax, -76(%rbp)
	movl	-56(%rbp), %eax
	movl	%eax, -60(%rbp)
	movl	-76(%rbp), %eax
	movl	%eax, -56(%rbp)
	movl	-88(%rbp), %eax
	movl	%eax, -76(%rbp)
	movl	-84(%rbp), %eax
	movl	%eax, -88(%rbp)
	movl	-76(%rbp), %eax
	movl	%eax, -84(%rbp)
.LBB15_48:                              # %if.end225
                                        #   in Loop: Header=BB15_1 Depth=1
	movl	-56(%rbp), %eax
	subl	-68(%rbp), %eax
	movl	-52(%rbp), %ecx
	subl	-64(%rbp), %ecx
	cmpl	%ecx, %eax
	jge	.LBB15_50
# %bb.49:                               # %if.then234
                                        #   in Loop: Header=BB15_1 Depth=1
	movl	-68(%rbp), %eax
	movl	%eax, -92(%rbp)
	movl	-64(%rbp), %eax
	movl	%eax, -68(%rbp)
	movl	-92(%rbp), %eax
	movl	%eax, -64(%rbp)
	movl	-56(%rbp), %eax
	movl	%eax, -92(%rbp)
	movl	-52(%rbp), %eax
	movl	%eax, -56(%rbp)
	movl	-92(%rbp), %eax
	movl	%eax, -52(%rbp)
	movl	-84(%rbp), %eax
	movl	%eax, -92(%rbp)
	movl	-80(%rbp), %eax
	movl	%eax, -84(%rbp)
	movl	-92(%rbp), %eax
	movl	%eax, -80(%rbp)
.LBB15_50:                              # %if.end248
                                        #   in Loop: Header=BB15_1 Depth=1
	movl	-60(%rbp), %eax
	subl	-72(%rbp), %eax
	movl	-56(%rbp), %ecx
	subl	-68(%rbp), %ecx
	cmpl	%ecx, %eax
	jge	.LBB15_52
# %bb.51:                               # %if.then257
                                        #   in Loop: Header=BB15_1 Depth=1
	movl	-72(%rbp), %eax
	movl	%eax, -100(%rbp)
	movl	-68(%rbp), %eax
	movl	%eax, -72(%rbp)
	movl	-100(%rbp), %eax
	movl	%eax, -68(%rbp)
	movl	-60(%rbp), %eax
	movl	%eax, -100(%rbp)
	movl	-56(%rbp), %eax
	movl	%eax, -60(%rbp)
	movl	-100(%rbp), %eax
	movl	%eax, -56(%rbp)
	movl	-88(%rbp), %eax
	movl	%eax, -100(%rbp)
	movl	-84(%rbp), %eax
	movl	%eax, -88(%rbp)
	movl	-100(%rbp), %eax
	movl	%eax, -84(%rbp)
.LBB15_52:                              # %if.end271
                                        #   in Loop: Header=BB15_1 Depth=1
	movl	-72(%rbp), %eax
	movslq	-4(%rbp), %rcx
	movl	%eax, -1392(%rbp,%rcx,4)
	movl	-60(%rbp), %eax
	movslq	-4(%rbp), %rcx
	movl	%eax, -592(%rbp,%rcx,4)
	movl	-88(%rbp), %eax
	movslq	-4(%rbp), %rcx
	movl	%eax, -992(%rbp,%rcx,4)
	movl	-4(%rbp), %eax
	addl	$1, %eax
	movl	%eax, -4(%rbp)
	movl	-68(%rbp), %eax
	movslq	-4(%rbp), %rcx
	movl	%eax, -1392(%rbp,%rcx,4)
	movl	-56(%rbp), %eax
	movslq	-4(%rbp), %rcx
	movl	%eax, -592(%rbp,%rcx,4)
	movl	-84(%rbp), %eax
	movslq	-4(%rbp), %rcx
	movl	%eax, -992(%rbp,%rcx,4)
	movl	-4(%rbp), %eax
	addl	$1, %eax
	movl	%eax, -4(%rbp)
	movl	-64(%rbp), %eax
	movslq	-4(%rbp), %rcx
	movl	%eax, -1392(%rbp,%rcx,4)
	movl	-52(%rbp), %eax
	movslq	-4(%rbp), %rcx
	movl	%eax, -592(%rbp,%rcx,4)
	movl	-80(%rbp), %eax
	movslq	-4(%rbp), %rcx
	movl	%eax, -992(%rbp,%rcx,4)
	movl	-4(%rbp), %eax
	addl	$1, %eax
	movl	%eax, -4(%rbp)
	jmp	.LBB15_9
.LBB15_53:                              # %while.end302.loopexit
	jmp	.LBB15_54
.LBB15_54:                              # %while.end302
	cmpl	$2054675235, -160(%rbp) # imm = 0x7A77DB23
	jne	.LBB15_56
.LBB15_55:
	addq	$1408, %rsp             # imm = 0x580
	popq	%rbp
	.cfi_def_cfa %rsp, 8
	retq
.LBB15_56:                              # %func_exit
	.cfi_def_cfa %rbp, 16
	callq	detect_breach
	jmp	.LBB15_55
.Lfunc_end15:
	.size	mainQSort3.7, .Lfunc_end15-mainQSort3.7
	.cfi_endproc
                                        # -- End function
	.globl	BZ2_blockSort.8         # -- Begin function BZ2_blockSort.8
	.p2align	4, 0x90
	.type	BZ2_blockSort.8,@function
BZ2_blockSort.8:                        # @BZ2_blockSort.8
	.cfi_startproc
# %bb.0:                                # %entry
	pushq	%rbp
	.cfi_def_cfa_offset 16
	.cfi_offset %rbp, -16
	movq	%rsp, %rbp
	.cfi_def_cfa_register %rbp
	subq	$80, %rsp
	movl	$1688001897, -44(%rbp)  # imm = 0x649CDD69
	movq	%rdi, -16(%rbp)
	movq	-16(%rbp), %rax
	movq	56(%rax), %rax
	movq	%rax, -56(%rbp)
	movq	-16(%rbp), %rax
	movq	64(%rax), %rax
	movq	%rax, -64(%rbp)
	movq	-16(%rbp), %rax
	movq	40(%rax), %rax
	movq	%rax, -40(%rbp)
	movq	-16(%rbp), %rax
	movl	108(%rax), %eax
	movl	%eax, -8(%rbp)
	movq	-16(%rbp), %rax
	movl	656(%rax), %eax
	movl	%eax, -24(%rbp)
	movq	-16(%rbp), %rax
	movl	88(%rax), %eax
	movl	%eax, -20(%rbp)
	cmpl	$10000, -8(%rbp)        # imm = 0x2710
	jge	.LBB16_2
# %bb.1:                                # %if.then
	movq	-16(%rbp), %rax
	movq	24(%rax), %rdi
	movq	-16(%rbp), %rax
	movq	32(%rax), %rsi
	movq	-40(%rbp), %rdx
	movl	-8(%rbp), %ecx
	movl	-24(%rbp), %r8d
	callq	fallbackSort
	jmp	.LBB16_18
.LBB16_2:                               # %if.else
	movl	-8(%rbp), %eax
	addl	$34, %eax
	movl	%eax, -4(%rbp)
	movl	-4(%rbp), %eax
	andl	$1, %eax
	cmpl	$0, %eax
	je	.LBB16_4
# %bb.3:                                # %if.then5
	movl	-4(%rbp), %eax
	addl	$1, %eax
	movl	%eax, -4(%rbp)
.LBB16_4:                               # %if.end
	movq	-64(%rbp), %rax
	movslq	-4(%rbp), %rcx
	addq	%rcx, %rax
	movq	%rax, -72(%rbp)
	cmpl	$1, -20(%rbp)
	jge	.LBB16_6
# %bb.5:                                # %if.then7
	movl	$1, -20(%rbp)
.LBB16_6:                               # %if.end8
	cmpl	$100, -20(%rbp)
	jle	.LBB16_8
# %bb.7:                                # %if.then10
	movl	$100, -20(%rbp)
.LBB16_8:                               # %if.end11
	movl	-8(%rbp), %ecx
	movl	-20(%rbp), %eax
	subl	$1, %eax
	cltd
	movl	$3, %esi
	idivl	%esi
	imull	%eax, %ecx
	movl	%ecx, -32(%rbp)
	movl	-32(%rbp), %eax
	movl	%eax, -28(%rbp)
	movq	-56(%rbp), %rdi
	movq	-64(%rbp), %rsi
	movq	-72(%rbp), %rdx
	movq	-40(%rbp), %rcx
	movl	-8(%rbp), %r8d
	movl	-24(%rbp), %r9d
	leaq	-28(%rbp), %rax
	movq	%rax, (%rsp)
	callq	mainSort
	cmpl	$3, -24(%rbp)
	jl	.LBB16_13
# %bb.9:                                # %if.then13
	movq	stderr, %rdi
	movl	-32(%rbp), %edx
	subl	-28(%rbp), %edx
	movl	-8(%rbp), %ecx
	movl	-32(%rbp), %eax
	subl	-28(%rbp), %eax
	vcvtsi2ss	%eax, %xmm0, %xmm0
	cmpl	$0, -8(%rbp)
	jne	.LBB16_11
# %bb.10:                               # %cond.true
	movl	$1, %eax
	jmp	.LBB16_12
.LBB16_11:                              # %cond.false
	movl	-8(%rbp), %eax
.LBB16_12:                              # %cond.end
	vcvtsi2ss	%eax, %xmm0, %xmm1
	vdivss	%xmm1, %xmm0, %xmm0
	vcvtss2sd	%xmm0, %xmm0, %xmm0
	movabsq	$.L.str, %rsi
	movb	$1, %al
	callq	fprintf
.LBB16_13:                              # %if.end21
	cmpl	$0, -28(%rbp)
	jge	.LBB16_17
# %bb.14:                               # %if.then24
	cmpl	$2, -24(%rbp)
	jl	.LBB16_16
# %bb.15:                               # %if.then27
	movq	stderr, %rdi
	movabsq	$.L.str.1, %rsi
	movb	$0, %al
	callq	fprintf
.LBB16_16:                              # %if.end29
	movq	-16(%rbp), %rax
	movq	24(%rax), %rdi
	movq	-16(%rbp), %rax
	movq	32(%rax), %rsi
	movq	-40(%rbp), %rdx
	movl	-8(%rbp), %ecx
	movl	-24(%rbp), %r8d
	callq	fallbackSort
.LBB16_17:                              # %if.end32
	jmp	.LBB16_18
.LBB16_18:                              # %if.end33
	movq	-16(%rbp), %rax
	movl	$-1, 48(%rax)
	movl	$0, -4(%rbp)
.LBB16_19:                              # %for.cond
                                        # =>This Inner Loop Header: Depth=1
	movl	-4(%rbp), %eax
	movq	-16(%rbp), %rcx
	cmpl	108(%rcx), %eax
	jge	.LBB16_24
# %bb.20:                               # %for.body
                                        #   in Loop: Header=BB16_19 Depth=1
	movq	-56(%rbp), %rax
	movslq	-4(%rbp), %rcx
	cmpl	$0, (%rax,%rcx,4)
	jne	.LBB16_22
# %bb.21:                               # %if.then41
	movl	-4(%rbp), %eax
	movq	-16(%rbp), %rcx
	movl	%eax, 48(%rcx)
	jmp	.LBB16_25
.LBB16_22:                              # %if.end43
                                        #   in Loop: Header=BB16_19 Depth=1
	jmp	.LBB16_23
.LBB16_23:                              # %for.inc
                                        #   in Loop: Header=BB16_19 Depth=1
	movl	-4(%rbp), %eax
	addl	$1, %eax
	movl	%eax, -4(%rbp)
	jmp	.LBB16_19
.LBB16_24:                              # %for.end.loopexit
	jmp	.LBB16_25
.LBB16_25:                              # %for.end
	movq	-16(%rbp), %rax
	cmpl	$-1, 48(%rax)
	jne	.LBB16_27
# %bb.26:                               # %if.then48
	movl	$1003, %edi             # imm = 0x3EB
	callq	BZ2_bz__AssertH__fail
.LBB16_27:                              # %if.end49
	cmpl	$1688001897, -44(%rbp)  # imm = 0x649CDD69
	jne	.LBB16_29
.LBB16_28:
	addq	$80, %rsp
	popq	%rbp
	.cfi_def_cfa %rsp, 8
	retq
.LBB16_29:                              # %func_exit
	.cfi_def_cfa %rbp, 16
	callq	detect_breach
	jmp	.LBB16_28
.Lfunc_end16:
	.size	BZ2_blockSort.8, .Lfunc_end16-BZ2_blockSort.8
	.cfi_endproc
                                        # -- End function
	.p2align	4, 0x90         # -- Begin function mmed3.9
	.type	mmed3.9,@function
mmed3.9:                                # @mmed3.9
	.cfi_startproc
# %bb.0:                                # %entry
	pushq	%rbp
	.cfi_def_cfa_offset 16
	.cfi_offset %rbp, -16
	movq	%rsp, %rbp
	.cfi_def_cfa_register %rbp
	pushq	%rbx
	pushq	%rax
	.cfi_offset %rbx, -24
	movl	$1964284058, -16(%rbp)  # imm = 0x7514989A
	movb	%dil, -10(%rbp)
	movb	%sil, -9(%rbp)
	movb	%dl, -11(%rbp)
	movzbl	-10(%rbp), %eax
	movzbl	-9(%rbp), %ecx
	cmpl	%ecx, %eax
	jle	.LBB17_2
# %bb.1:                                # %if.then
	movb	-10(%rbp), %al
	movb	%al, -12(%rbp)
	movb	-9(%rbp), %al
	movb	%al, -10(%rbp)
	movb	-12(%rbp), %al
	movb	%al, -9(%rbp)
.LBB17_2:                               # %if.end
	movzbl	-9(%rbp), %eax
	movzbl	-11(%rbp), %ecx
	cmpl	%ecx, %eax
	jle	.LBB17_6
# %bb.3:                                # %if.then7
	movb	-11(%rbp), %al
	movb	%al, -9(%rbp)
	movzbl	-10(%rbp), %eax
	movzbl	-9(%rbp), %ecx
	cmpl	%ecx, %eax
	jle	.LBB17_5
# %bb.4:                                # %if.then12
	movb	-10(%rbp), %al
	movb	%al, -9(%rbp)
.LBB17_5:                               # %if.end13
	jmp	.LBB17_6
.LBB17_6:                               # %if.end14
	movb	-9(%rbp), %bl
	cmpl	$1964284058, -16(%rbp)  # imm = 0x7514989A
	jne	.LBB17_8
.LBB17_7:
	movzbl	%bl, %eax
	addq	$8, %rsp
	popq	%rbx
	popq	%rbp
	.cfi_def_cfa %rsp, 8
	retq
.LBB17_8:                               # %func_exit
	.cfi_def_cfa %rbp, 16
	callq	detect_breach
	jmp	.LBB17_7
.Lfunc_end17:
	.size	mmed3.9, .Lfunc_end17-mmed3.9
	.cfi_endproc
                                        # -- End function
	.p2align	4, 0x90         # -- Begin function mainQSort3.10
	.type	mainQSort3.10,@function
mainQSort3.10:                          # @mainQSort3.10
	.cfi_startproc
# %bb.0:                                # %entry
	pushq	%rbp
	.cfi_def_cfa_offset 16
	.cfi_offset %rbp, -16
	movq	%rsp, %rbp
	.cfi_def_cfa_register %rbp
	subq	$1408, %rsp             # imm = 0x580
	movq	24(%rbp), %rax
	movl	16(%rbp), %eax
	movl	$645660611, -152(%rbp)  # imm = 0x267BFFC3
	movq	%rdi, -24(%rbp)
	movq	%rsi, -136(%rbp)
	movq	%rdx, -184(%rbp)
	movl	%ecx, -160(%rbp)
	movl	%r8d, -148(%rbp)
	movl	%r9d, -168(%rbp)
	movl	$0, -4(%rbp)
	movl	-148(%rbp), %eax
	movslq	-4(%rbp), %rcx
	movl	%eax, -1392(%rbp,%rcx,4)
	movl	-168(%rbp), %eax
	movslq	-4(%rbp), %rcx
	movl	%eax, -592(%rbp,%rcx,4)
	movl	16(%rbp), %eax
	movslq	-4(%rbp), %rcx
	movl	%eax, -992(%rbp,%rcx,4)
	movl	-4(%rbp), %eax
	addl	$1, %eax
	movl	%eax, -4(%rbp)
.LBB18_1:                               # %while.cond
                                        # =>This Loop Header: Depth=1
                                        #     Child Loop BB18_11 Depth 2
                                        #       Child Loop BB18_12 Depth 3
                                        #       Child Loop BB18_21 Depth 3
                                        #     Child Loop BB18_38 Depth 2
                                        #     Child Loop BB18_44 Depth 2
	cmpl	$0, -4(%rbp)
	jle	.LBB18_53
# %bb.2:                                # %while.body
                                        #   in Loop: Header=BB18_1 Depth=1
	cmpl	$100, -4(%rbp)
	jl	.LBB18_4
# %bb.3:                                # %if.then
                                        #   in Loop: Header=BB18_1 Depth=1
	movl	$1001, %edi             # imm = 0x3E9
	callq	BZ2_bz__AssertH__fail
.LBB18_4:                               # %if.end
                                        #   in Loop: Header=BB18_1 Depth=1
	movl	-4(%rbp), %eax
	addl	$-1, %eax
	movl	%eax, -4(%rbp)
	movslq	-4(%rbp), %rax
	movl	-1392(%rbp,%rax,4), %eax
	movl	%eax, -40(%rbp)
	movslq	-4(%rbp), %rax
	movl	-592(%rbp,%rax,4), %eax
	movl	%eax, -32(%rbp)
	movslq	-4(%rbp), %rax
	movl	-992(%rbp,%rax,4), %eax
	movl	%eax, -28(%rbp)
	movl	-32(%rbp), %eax
	subl	-40(%rbp), %eax
	cmpl	$20, %eax
	jl	.LBB18_6
# %bb.5:                                # %lor.lhs.false
                                        #   in Loop: Header=BB18_1 Depth=1
	cmpl	$14, -28(%rbp)
	jle	.LBB18_10
.LBB18_6:                               # %if.then14
                                        #   in Loop: Header=BB18_1 Depth=1
	movq	-24(%rbp), %rdi
	movq	-136(%rbp), %rsi
	movq	-184(%rbp), %rdx
	movl	-160(%rbp), %ecx
	movl	-40(%rbp), %r8d
	movl	-32(%rbp), %r9d
	movl	-28(%rbp), %eax
	movq	24(%rbp), %r10
	movl	%eax, (%rsp)
	movq	%r10, 8(%rsp)
	callq	mainSimpleSort
	movq	24(%rbp), %rax
	cmpl	$0, (%rax)
	jge	.LBB18_8
# %bb.7:                                # %if.then16
	jmp	.LBB18_54
.LBB18_8:                               # %if.end17
                                        #   in Loop: Header=BB18_1 Depth=1
	jmp	.LBB18_9
.LBB18_9:                               # %while.cond.backedge
                                        #   in Loop: Header=BB18_1 Depth=1
	jmp	.LBB18_1
.LBB18_10:                              # %if.end18
                                        #   in Loop: Header=BB18_1 Depth=1
	movq	-136(%rbp), %rax
	movq	-24(%rbp), %rcx
	movslq	-40(%rbp), %rdx
	movl	(%rcx,%rdx,4), %ecx
	addl	-28(%rbp), %ecx
	movl	%ecx, %ecx
	movb	(%rax,%rcx), %r8b
	movq	-136(%rbp), %rcx
	movq	-24(%rbp), %rdx
	movslq	-32(%rbp), %rsi
	movl	(%rdx,%rsi,4), %edx
	addl	-28(%rbp), %edx
	movl	%edx, %edx
	movb	(%rcx,%rdx), %cl
	movq	-136(%rbp), %rdx
	movq	-24(%rbp), %rsi
	movl	-40(%rbp), %edi
	addl	-32(%rbp), %edi
	sarl	$1, %edi
	movslq	%edi, %rdi
	movl	(%rsi,%rdi,4), %esi
	addl	-28(%rbp), %esi
	movl	%esi, %eax
	movzbl	%r8b, %edi
	movzbl	%cl, %esi
	movzbl	(%rdx,%rax), %edx
	callq	mmed3
	movzbl	%al, %eax
	movl	%eax, -140(%rbp)
	movl	-40(%rbp), %eax
	movl	%eax, -48(%rbp)
	movl	%eax, -8(%rbp)
	movl	-32(%rbp), %eax
	movl	%eax, -44(%rbp)
	movl	%eax, -12(%rbp)
.LBB18_11:                              # %while.body35
                                        #   Parent Loop BB18_1 Depth=1
                                        # =>  This Loop Header: Depth=2
                                        #       Child Loop BB18_12 Depth 3
                                        #       Child Loop BB18_21 Depth 3
	jmp	.LBB18_12
.LBB18_12:                              # %while.body37
                                        #   Parent Loop BB18_1 Depth=1
                                        #     Parent Loop BB18_11 Depth=2
                                        # =>    This Inner Loop Header: Depth=3
	movl	-8(%rbp), %eax
	cmpl	-12(%rbp), %eax
	jle	.LBB18_14
# %bb.13:                               # %if.then40
                                        #   in Loop: Header=BB18_11 Depth=2
	jmp	.LBB18_20
.LBB18_14:                              # %if.end41
                                        #   in Loop: Header=BB18_12 Depth=3
	movq	-136(%rbp), %rax
	movq	-24(%rbp), %rcx
	movslq	-8(%rbp), %rdx
	movl	(%rcx,%rdx,4), %ecx
	addl	-28(%rbp), %ecx
	movl	%ecx, %ecx
	movzbl	(%rax,%rcx), %eax
	subl	-140(%rbp), %eax
	movl	%eax, -36(%rbp)
	cmpl	$0, -36(%rbp)
	jne	.LBB18_17
# %bb.15:                               # %if.then51
                                        #   in Loop: Header=BB18_12 Depth=3
	movq	-24(%rbp), %rax
	movslq	-8(%rbp), %rcx
	movl	(%rax,%rcx,4), %eax
	movl	%eax, -164(%rbp)
	movq	-24(%rbp), %rax
	movslq	-48(%rbp), %rcx
	movl	(%rax,%rcx,4), %eax
	movq	-24(%rbp), %rcx
	movslq	-8(%rbp), %rdx
	movl	%eax, (%rcx,%rdx,4)
	movl	-164(%rbp), %eax
	movq	-24(%rbp), %rcx
	movslq	-48(%rbp), %rdx
	movl	%eax, (%rcx,%rdx,4)
	movl	-48(%rbp), %eax
	addl	$1, %eax
	movl	%eax, -48(%rbp)
	movl	-8(%rbp), %eax
	addl	$1, %eax
	movl	%eax, -8(%rbp)
.LBB18_16:                              # %while.body37.backedge
                                        #   in Loop: Header=BB18_12 Depth=3
	jmp	.LBB18_12
.LBB18_17:                              # %if.end62
                                        #   in Loop: Header=BB18_12 Depth=3
	cmpl	$0, -36(%rbp)
	jle	.LBB18_19
# %bb.18:                               # %if.then65
                                        #   in Loop: Header=BB18_11 Depth=2
	jmp	.LBB18_20
.LBB18_19:                              # %if.end66
                                        #   in Loop: Header=BB18_12 Depth=3
	movl	-8(%rbp), %eax
	addl	$1, %eax
	movl	%eax, -8(%rbp)
	jmp	.LBB18_16
.LBB18_20:                              # %while.end
                                        #   in Loop: Header=BB18_11 Depth=2
	jmp	.LBB18_21
.LBB18_21:                              # %while.body69
                                        #   Parent Loop BB18_1 Depth=1
                                        #     Parent Loop BB18_11 Depth=2
                                        # =>    This Inner Loop Header: Depth=3
	movl	-8(%rbp), %eax
	cmpl	-12(%rbp), %eax
	jle	.LBB18_23
# %bb.22:                               # %if.then72
                                        #   in Loop: Header=BB18_11 Depth=2
	jmp	.LBB18_29
.LBB18_23:                              # %if.end73
                                        #   in Loop: Header=BB18_21 Depth=3
	movq	-136(%rbp), %rax
	movq	-24(%rbp), %rcx
	movslq	-12(%rbp), %rdx
	movl	(%rcx,%rdx,4), %ecx
	addl	-28(%rbp), %ecx
	movl	%ecx, %ecx
	movzbl	(%rax,%rcx), %eax
	subl	-140(%rbp), %eax
	movl	%eax, -36(%rbp)
	cmpl	$0, -36(%rbp)
	jne	.LBB18_26
# %bb.24:                               # %if.then83
                                        #   in Loop: Header=BB18_21 Depth=3
	movq	-24(%rbp), %rax
	movslq	-12(%rbp), %rcx
	movl	(%rax,%rcx,4), %eax
	movl	%eax, -176(%rbp)
	movq	-24(%rbp), %rax
	movslq	-44(%rbp), %rcx
	movl	(%rax,%rcx,4), %eax
	movq	-24(%rbp), %rcx
	movslq	-12(%rbp), %rdx
	movl	%eax, (%rcx,%rdx,4)
	movl	-176(%rbp), %eax
	movq	-24(%rbp), %rcx
	movslq	-44(%rbp), %rdx
	movl	%eax, (%rcx,%rdx,4)
	movl	-44(%rbp), %eax
	addl	$-1, %eax
	movl	%eax, -44(%rbp)
	movl	-12(%rbp), %eax
	addl	$-1, %eax
	movl	%eax, -12(%rbp)
.LBB18_25:                              # %while.body69.backedge
                                        #   in Loop: Header=BB18_21 Depth=3
	jmp	.LBB18_21
.LBB18_26:                              # %if.end95
                                        #   in Loop: Header=BB18_21 Depth=3
	cmpl	$0, -36(%rbp)
	jge	.LBB18_28
# %bb.27:                               # %if.then98
                                        #   in Loop: Header=BB18_11 Depth=2
	jmp	.LBB18_29
.LBB18_28:                              # %if.end99
                                        #   in Loop: Header=BB18_21 Depth=3
	movl	-12(%rbp), %eax
	addl	$-1, %eax
	movl	%eax, -12(%rbp)
	jmp	.LBB18_25
.LBB18_29:                              # %while.end101
                                        #   in Loop: Header=BB18_11 Depth=2
	movl	-8(%rbp), %eax
	cmpl	-12(%rbp), %eax
	jle	.LBB18_31
# %bb.30:                               # %if.then104
                                        #   in Loop: Header=BB18_1 Depth=1
	jmp	.LBB18_32
.LBB18_31:                              # %if.end105
                                        #   in Loop: Header=BB18_11 Depth=2
	movq	-24(%rbp), %rax
	movslq	-8(%rbp), %rcx
	movl	(%rax,%rcx,4), %eax
	movl	%eax, -156(%rbp)
	movq	-24(%rbp), %rax
	movslq	-12(%rbp), %rcx
	movl	(%rax,%rcx,4), %eax
	movq	-24(%rbp), %rcx
	movslq	-8(%rbp), %rdx
	movl	%eax, (%rcx,%rdx,4)
	movl	-156(%rbp), %eax
	movq	-24(%rbp), %rcx
	movslq	-12(%rbp), %rdx
	movl	%eax, (%rcx,%rdx,4)
	movl	-8(%rbp), %eax
	addl	$1, %eax
	movl	%eax, -8(%rbp)
	movl	-12(%rbp), %eax
	addl	$-1, %eax
	movl	%eax, -12(%rbp)
	jmp	.LBB18_11
.LBB18_32:                              # %while.end117
                                        #   in Loop: Header=BB18_1 Depth=1
	movl	-44(%rbp), %eax
	cmpl	-48(%rbp), %eax
	jge	.LBB18_34
# %bb.33:                               # %if.then120
                                        #   in Loop: Header=BB18_1 Depth=1
	movl	-40(%rbp), %eax
	movslq	-4(%rbp), %rcx
	movl	%eax, -1392(%rbp,%rcx,4)
	movl	-32(%rbp), %eax
	movslq	-4(%rbp), %rcx
	movl	%eax, -592(%rbp,%rcx,4)
	movl	-28(%rbp), %eax
	addl	$1, %eax
	movslq	-4(%rbp), %rcx
	movl	%eax, -992(%rbp,%rcx,4)
	movl	-4(%rbp), %eax
	addl	$1, %eax
	movl	%eax, -4(%rbp)
	jmp	.LBB18_9
.LBB18_34:                              # %if.end129
                                        #   in Loop: Header=BB18_1 Depth=1
	movl	-48(%rbp), %eax
	subl	-40(%rbp), %eax
	movl	-8(%rbp), %ecx
	subl	-48(%rbp), %ecx
	cmpl	%ecx, %eax
	jge	.LBB18_36
# %bb.35:                               # %cond.true
                                        #   in Loop: Header=BB18_1 Depth=1
	movl	-48(%rbp), %eax
	subl	-40(%rbp), %eax
	jmp	.LBB18_37
.LBB18_36:                              # %cond.false
                                        #   in Loop: Header=BB18_1 Depth=1
	movl	-8(%rbp), %eax
	subl	-48(%rbp), %eax
.LBB18_37:                              # %cond.end
                                        #   in Loop: Header=BB18_1 Depth=1
	movl	%eax, -36(%rbp)
	movl	-40(%rbp), %eax
	movl	%eax, -112(%rbp)
	movl	-8(%rbp), %eax
	subl	-36(%rbp), %eax
	movl	%eax, -116(%rbp)
	movl	-36(%rbp), %eax
	movl	%eax, -124(%rbp)
.LBB18_38:                              # %while.cond137
                                        #   Parent Loop BB18_1 Depth=1
                                        # =>  This Inner Loop Header: Depth=2
	cmpl	$0, -124(%rbp)
	jle	.LBB18_40
# %bb.39:                               # %while.body140
                                        #   in Loop: Header=BB18_38 Depth=2
	movq	-24(%rbp), %rax
	movslq	-112(%rbp), %rcx
	movl	(%rax,%rcx,4), %eax
	movl	%eax, -144(%rbp)
	movq	-24(%rbp), %rax
	movslq	-116(%rbp), %rcx
	movl	(%rax,%rcx,4), %eax
	movq	-24(%rbp), %rcx
	movslq	-112(%rbp), %rdx
	movl	%eax, (%rcx,%rdx,4)
	movl	-144(%rbp), %eax
	movq	-24(%rbp), %rcx
	movslq	-116(%rbp), %rdx
	movl	%eax, (%rcx,%rdx,4)
	movl	-112(%rbp), %eax
	addl	$1, %eax
	movl	%eax, -112(%rbp)
	movl	-116(%rbp), %eax
	addl	$1, %eax
	movl	%eax, -116(%rbp)
	movl	-124(%rbp), %eax
	addl	$-1, %eax
	movl	%eax, -124(%rbp)
	jmp	.LBB18_38
.LBB18_40:                              # %while.end153
                                        #   in Loop: Header=BB18_1 Depth=1
	movl	-32(%rbp), %eax
	subl	-44(%rbp), %eax
	movl	-44(%rbp), %ecx
	subl	-12(%rbp), %ecx
	cmpl	%ecx, %eax
	jge	.LBB18_42
# %bb.41:                               # %cond.true158
                                        #   in Loop: Header=BB18_1 Depth=1
	movl	-32(%rbp), %eax
	subl	-44(%rbp), %eax
	jmp	.LBB18_43
.LBB18_42:                              # %cond.false160
                                        #   in Loop: Header=BB18_1 Depth=1
	movl	-44(%rbp), %eax
	subl	-12(%rbp), %eax
.LBB18_43:                              # %cond.end162
                                        #   in Loop: Header=BB18_1 Depth=1
	movl	%eax, -100(%rbp)
	movl	-8(%rbp), %eax
	movl	%eax, -104(%rbp)
	movl	-32(%rbp), %eax
	subl	-100(%rbp), %eax
	addl	$1, %eax
	movl	%eax, -108(%rbp)
	movl	-100(%rbp), %eax
	movl	%eax, -120(%rbp)
.LBB18_44:                              # %while.cond169
                                        #   Parent Loop BB18_1 Depth=1
                                        # =>  This Inner Loop Header: Depth=2
	cmpl	$0, -120(%rbp)
	jle	.LBB18_46
# %bb.45:                               # %while.body172
                                        #   in Loop: Header=BB18_44 Depth=2
	movq	-24(%rbp), %rax
	movslq	-104(%rbp), %rcx
	movl	(%rax,%rcx,4), %eax
	movl	%eax, -172(%rbp)
	movq	-24(%rbp), %rax
	movslq	-108(%rbp), %rcx
	movl	(%rax,%rcx,4), %eax
	movq	-24(%rbp), %rcx
	movslq	-104(%rbp), %rdx
	movl	%eax, (%rcx,%rdx,4)
	movl	-172(%rbp), %eax
	movq	-24(%rbp), %rcx
	movslq	-108(%rbp), %rdx
	movl	%eax, (%rcx,%rdx,4)
	movl	-104(%rbp), %eax
	addl	$1, %eax
	movl	%eax, -104(%rbp)
	movl	-108(%rbp), %eax
	addl	$1, %eax
	movl	%eax, -108(%rbp)
	movl	-120(%rbp), %eax
	addl	$-1, %eax
	movl	%eax, -120(%rbp)
	jmp	.LBB18_44
.LBB18_46:                              # %while.end185
                                        #   in Loop: Header=BB18_1 Depth=1
	movl	-40(%rbp), %eax
	addl	-8(%rbp), %eax
	subl	-48(%rbp), %eax
	subl	$1, %eax
	movl	%eax, -36(%rbp)
	movl	-32(%rbp), %eax
	movl	-44(%rbp), %ecx
	subl	-12(%rbp), %ecx
	subl	%ecx, %eax
	addl	$1, %eax
	movl	%eax, -100(%rbp)
	movl	-40(%rbp), %eax
	movl	%eax, -72(%rbp)
	movl	-36(%rbp), %eax
	movl	%eax, -60(%rbp)
	movl	-28(%rbp), %eax
	movl	%eax, -92(%rbp)
	movl	-100(%rbp), %eax
	movl	%eax, -68(%rbp)
	movl	-32(%rbp), %eax
	movl	%eax, -56(%rbp)
	movl	-28(%rbp), %eax
	movl	%eax, -88(%rbp)
	movl	-36(%rbp), %eax
	addl	$1, %eax
	movl	%eax, -64(%rbp)
	movl	-100(%rbp), %eax
	subl	$1, %eax
	movl	%eax, -52(%rbp)
	movl	-28(%rbp), %eax
	addl	$1, %eax
	movl	%eax, -84(%rbp)
	movl	-60(%rbp), %eax
	subl	-72(%rbp), %eax
	movl	-56(%rbp), %ecx
	subl	-68(%rbp), %ecx
	cmpl	%ecx, %eax
	jge	.LBB18_48
# %bb.47:                               # %if.then212
                                        #   in Loop: Header=BB18_1 Depth=1
	movl	-72(%rbp), %eax
	movl	%eax, -76(%rbp)
	movl	-68(%rbp), %eax
	movl	%eax, -72(%rbp)
	movl	-76(%rbp), %eax
	movl	%eax, -68(%rbp)
	movl	-60(%rbp), %eax
	movl	%eax, -76(%rbp)
	movl	-56(%rbp), %eax
	movl	%eax, -60(%rbp)
	movl	-76(%rbp), %eax
	movl	%eax, -56(%rbp)
	movl	-92(%rbp), %eax
	movl	%eax, -76(%rbp)
	movl	-88(%rbp), %eax
	movl	%eax, -92(%rbp)
	movl	-76(%rbp), %eax
	movl	%eax, -88(%rbp)
.LBB18_48:                              # %if.end225
                                        #   in Loop: Header=BB18_1 Depth=1
	movl	-56(%rbp), %eax
	subl	-68(%rbp), %eax
	movl	-52(%rbp), %ecx
	subl	-64(%rbp), %ecx
	cmpl	%ecx, %eax
	jge	.LBB18_50
# %bb.49:                               # %if.then234
                                        #   in Loop: Header=BB18_1 Depth=1
	movl	-68(%rbp), %eax
	movl	%eax, -96(%rbp)
	movl	-64(%rbp), %eax
	movl	%eax, -68(%rbp)
	movl	-96(%rbp), %eax
	movl	%eax, -64(%rbp)
	movl	-56(%rbp), %eax
	movl	%eax, -96(%rbp)
	movl	-52(%rbp), %eax
	movl	%eax, -56(%rbp)
	movl	-96(%rbp), %eax
	movl	%eax, -52(%rbp)
	movl	-88(%rbp), %eax
	movl	%eax, -96(%rbp)
	movl	-84(%rbp), %eax
	movl	%eax, -88(%rbp)
	movl	-96(%rbp), %eax
	movl	%eax, -84(%rbp)
.LBB18_50:                              # %if.end248
                                        #   in Loop: Header=BB18_1 Depth=1
	movl	-60(%rbp), %eax
	subl	-72(%rbp), %eax
	movl	-56(%rbp), %ecx
	subl	-68(%rbp), %ecx
	cmpl	%ecx, %eax
	jge	.LBB18_52
# %bb.51:                               # %if.then257
                                        #   in Loop: Header=BB18_1 Depth=1
	movl	-72(%rbp), %eax
	movl	%eax, -80(%rbp)
	movl	-68(%rbp), %eax
	movl	%eax, -72(%rbp)
	movl	-80(%rbp), %eax
	movl	%eax, -68(%rbp)
	movl	-60(%rbp), %eax
	movl	%eax, -80(%rbp)
	movl	-56(%rbp), %eax
	movl	%eax, -60(%rbp)
	movl	-80(%rbp), %eax
	movl	%eax, -56(%rbp)
	movl	-92(%rbp), %eax
	movl	%eax, -80(%rbp)
	movl	-88(%rbp), %eax
	movl	%eax, -92(%rbp)
	movl	-80(%rbp), %eax
	movl	%eax, -88(%rbp)
.LBB18_52:                              # %if.end271
                                        #   in Loop: Header=BB18_1 Depth=1
	movl	-72(%rbp), %eax
	movslq	-4(%rbp), %rcx
	movl	%eax, -1392(%rbp,%rcx,4)
	movl	-60(%rbp), %eax
	movslq	-4(%rbp), %rcx
	movl	%eax, -592(%rbp,%rcx,4)
	movl	-92(%rbp), %eax
	movslq	-4(%rbp), %rcx
	movl	%eax, -992(%rbp,%rcx,4)
	movl	-4(%rbp), %eax
	addl	$1, %eax
	movl	%eax, -4(%rbp)
	movl	-68(%rbp), %eax
	movslq	-4(%rbp), %rcx
	movl	%eax, -1392(%rbp,%rcx,4)
	movl	-56(%rbp), %eax
	movslq	-4(%rbp), %rcx
	movl	%eax, -592(%rbp,%rcx,4)
	movl	-88(%rbp), %eax
	movslq	-4(%rbp), %rcx
	movl	%eax, -992(%rbp,%rcx,4)
	movl	-4(%rbp), %eax
	addl	$1, %eax
	movl	%eax, -4(%rbp)
	movl	-64(%rbp), %eax
	movslq	-4(%rbp), %rcx
	movl	%eax, -1392(%rbp,%rcx,4)
	movl	-52(%rbp), %eax
	movslq	-4(%rbp), %rcx
	movl	%eax, -592(%rbp,%rcx,4)
	movl	-84(%rbp), %eax
	movslq	-4(%rbp), %rcx
	movl	%eax, -992(%rbp,%rcx,4)
	movl	-4(%rbp), %eax
	addl	$1, %eax
	movl	%eax, -4(%rbp)
	jmp	.LBB18_9
.LBB18_53:                              # %while.end302.loopexit
	jmp	.LBB18_54
.LBB18_54:                              # %while.end302
	cmpl	$645660611, -152(%rbp)  # imm = 0x267BFFC3
	jne	.LBB18_56
.LBB18_55:
	addq	$1408, %rsp             # imm = 0x580
	popq	%rbp
	.cfi_def_cfa %rsp, 8
	retq
.LBB18_56:                              # %func_exit
	.cfi_def_cfa %rbp, 16
	callq	detect_breach
	jmp	.LBB18_55
.Lfunc_end18:
	.size	mainQSort3.10, .Lfunc_end18-mainQSort3.10
	.cfi_endproc
                                        # -- End function
	.p2align	4, 0x90         # -- Begin function mainSimpleSort.11
	.type	mainSimpleSort.11,@function
mainSimpleSort.11:                      # @mainSimpleSort.11
	.cfi_startproc
# %bb.0:                                # %entry
	pushq	%rbp
	.cfi_def_cfa_offset 16
	.cfi_offset %rbp, -16
	movq	%rsp, %rbp
	.cfi_def_cfa_register %rbp
	subq	$80, %rsp
	movq	24(%rbp), %rax
	movl	16(%rbp), %eax
	movl	$469082230, -68(%rbp)   # imm = 0x1BF5A076
	movq	%rdi, -32(%rbp)
	movq	%rsi, -64(%rbp)
	movq	%rdx, -56(%rbp)
	movl	%ecx, -44(%rbp)
	movl	%r8d, -36(%rbp)
	movl	%r9d, -40(%rbp)
	movl	-40(%rbp), %eax
	subl	-36(%rbp), %eax
	addl	$1, %eax
	movl	%eax, -48(%rbp)
	cmpl	$2, -48(%rbp)
	jge	.LBB19_2
# %bb.1:                                # %if.then
	jmp	.LBB19_38
.LBB19_2:                               # %if.end
	movl	$0, -16(%rbp)
.LBB19_3:                               # %while.cond
                                        # =>This Inner Loop Header: Depth=1
	movslq	-16(%rbp), %rax
	movl	incs(,%rax,4), %eax
	cmpl	-48(%rbp), %eax
	jge	.LBB19_5
# %bb.4:                                # %while.body
                                        #   in Loop: Header=BB19_3 Depth=1
	movl	-16(%rbp), %eax
	addl	$1, %eax
	movl	%eax, -16(%rbp)
	jmp	.LBB19_3
.LBB19_5:                               # %while.end
	movl	-16(%rbp), %eax
	addl	$-1, %eax
	movl	%eax, -16(%rbp)
.LBB19_6:                               # %for.cond
                                        # =>This Loop Header: Depth=1
                                        #     Child Loop BB19_8 Depth 2
                                        #       Child Loop BB19_11 Depth 3
                                        #       Child Loop BB19_19 Depth 3
                                        #       Child Loop BB19_27 Depth 3
	cmpl	$0, -16(%rbp)
	jl	.LBB19_37
# %bb.7:                                # %for.body
                                        #   in Loop: Header=BB19_6 Depth=1
	movslq	-16(%rbp), %rax
	movl	incs(,%rax,4), %eax
	movl	%eax, -12(%rbp)
	movl	-36(%rbp), %eax
	addl	-12(%rbp), %eax
	movl	%eax, -8(%rbp)
.LBB19_8:                               # %while.body7
                                        #   Parent Loop BB19_6 Depth=1
                                        # =>  This Loop Header: Depth=2
                                        #       Child Loop BB19_11 Depth 3
                                        #       Child Loop BB19_19 Depth 3
                                        #       Child Loop BB19_27 Depth 3
	movl	-8(%rbp), %eax
	cmpl	-40(%rbp), %eax
	jle	.LBB19_10
# %bb.9:                                # %if.then9
                                        #   in Loop: Header=BB19_6 Depth=1
	jmp	.LBB19_35
.LBB19_10:                              # %if.end10
                                        #   in Loop: Header=BB19_8 Depth=2
	movq	-32(%rbp), %rax
	movslq	-8(%rbp), %rcx
	movl	(%rax,%rcx,4), %eax
	movl	%eax, -20(%rbp)
	movl	-8(%rbp), %eax
	movl	%eax, -4(%rbp)
.LBB19_11:                              # %while.cond13
                                        #   Parent Loop BB19_6 Depth=1
                                        #     Parent Loop BB19_8 Depth=2
                                        # =>    This Inner Loop Header: Depth=3
	movq	-32(%rbp), %rax
	movl	-4(%rbp), %ecx
	subl	-12(%rbp), %ecx
	movslq	%ecx, %rcx
	movl	(%rax,%rcx,4), %edi
	addl	16(%rbp), %edi
	movl	-20(%rbp), %esi
	addl	16(%rbp), %esi
	movq	-64(%rbp), %rdx
	movq	-56(%rbp), %rcx
	movl	-44(%rbp), %r8d
	movq	24(%rbp), %r9
	callq	mainGtU
	cmpb	$0, %al
	je	.LBB19_15
# %bb.12:                               # %while.body19
                                        #   in Loop: Header=BB19_11 Depth=3
	movq	-32(%rbp), %rax
	movl	-4(%rbp), %ecx
	subl	-12(%rbp), %ecx
	movslq	%ecx, %rcx
	movl	(%rax,%rcx,4), %eax
	movq	-32(%rbp), %rcx
	movslq	-4(%rbp), %rdx
	movl	%eax, (%rcx,%rdx,4)
	movl	-4(%rbp), %eax
	subl	-12(%rbp), %eax
	movl	%eax, -4(%rbp)
	movl	-4(%rbp), %eax
	movl	-36(%rbp), %ecx
	addl	-12(%rbp), %ecx
	subl	$1, %ecx
	cmpl	%ecx, %eax
	jg	.LBB19_14
# %bb.13:                               # %if.then29
                                        #   in Loop: Header=BB19_8 Depth=2
	jmp	.LBB19_16
.LBB19_14:                              # %if.end30
                                        #   in Loop: Header=BB19_11 Depth=3
	jmp	.LBB19_11
.LBB19_15:                              # %while.end31.loopexit
                                        #   in Loop: Header=BB19_8 Depth=2
	jmp	.LBB19_16
.LBB19_16:                              # %while.end31
                                        #   in Loop: Header=BB19_8 Depth=2
	movl	-20(%rbp), %eax
	movq	-32(%rbp), %rcx
	movslq	-4(%rbp), %rdx
	movl	%eax, (%rcx,%rdx,4)
	movl	-8(%rbp), %eax
	addl	$1, %eax
	movl	%eax, -8(%rbp)
	movl	-8(%rbp), %eax
	cmpl	-40(%rbp), %eax
	jle	.LBB19_18
# %bb.17:                               # %if.then36
                                        #   in Loop: Header=BB19_6 Depth=1
	jmp	.LBB19_35
.LBB19_18:                              # %if.end37
                                        #   in Loop: Header=BB19_8 Depth=2
	movq	-32(%rbp), %rax
	movslq	-8(%rbp), %rcx
	movl	(%rax,%rcx,4), %eax
	movl	%eax, -20(%rbp)
	movl	-8(%rbp), %eax
	movl	%eax, -4(%rbp)
.LBB19_19:                              # %while.cond40
                                        #   Parent Loop BB19_6 Depth=1
                                        #     Parent Loop BB19_8 Depth=2
                                        # =>    This Inner Loop Header: Depth=3
	movq	-32(%rbp), %rax
	movl	-4(%rbp), %ecx
	subl	-12(%rbp), %ecx
	movslq	%ecx, %rcx
	movl	(%rax,%rcx,4), %edi
	addl	16(%rbp), %edi
	movl	-20(%rbp), %esi
	addl	16(%rbp), %esi
	movq	-64(%rbp), %rdx
	movq	-56(%rbp), %rcx
	movl	-44(%rbp), %r8d
	movq	24(%rbp), %r9
	callq	mainGtU
	cmpb	$0, %al
	je	.LBB19_23
# %bb.20:                               # %while.body48
                                        #   in Loop: Header=BB19_19 Depth=3
	movq	-32(%rbp), %rax
	movl	-4(%rbp), %ecx
	subl	-12(%rbp), %ecx
	movslq	%ecx, %rcx
	movl	(%rax,%rcx,4), %eax
	movq	-32(%rbp), %rcx
	movslq	-4(%rbp), %rdx
	movl	%eax, (%rcx,%rdx,4)
	movl	-4(%rbp), %eax
	subl	-12(%rbp), %eax
	movl	%eax, -4(%rbp)
	movl	-4(%rbp), %eax
	movl	-36(%rbp), %ecx
	addl	-12(%rbp), %ecx
	subl	$1, %ecx
	cmpl	%ecx, %eax
	jg	.LBB19_22
# %bb.21:                               # %if.then58
                                        #   in Loop: Header=BB19_8 Depth=2
	jmp	.LBB19_24
.LBB19_22:                              # %if.end59
                                        #   in Loop: Header=BB19_19 Depth=3
	jmp	.LBB19_19
.LBB19_23:                              # %while.end60.loopexit
                                        #   in Loop: Header=BB19_8 Depth=2
	jmp	.LBB19_24
.LBB19_24:                              # %while.end60
                                        #   in Loop: Header=BB19_8 Depth=2
	movl	-20(%rbp), %eax
	movq	-32(%rbp), %rcx
	movslq	-4(%rbp), %rdx
	movl	%eax, (%rcx,%rdx,4)
	movl	-8(%rbp), %eax
	addl	$1, %eax
	movl	%eax, -8(%rbp)
	movl	-8(%rbp), %eax
	cmpl	-40(%rbp), %eax
	jle	.LBB19_26
# %bb.25:                               # %if.then65
                                        #   in Loop: Header=BB19_6 Depth=1
	jmp	.LBB19_35
.LBB19_26:                              # %if.end66
                                        #   in Loop: Header=BB19_8 Depth=2
	movq	-32(%rbp), %rax
	movslq	-8(%rbp), %rcx
	movl	(%rax,%rcx,4), %eax
	movl	%eax, -20(%rbp)
	movl	-8(%rbp), %eax
	movl	%eax, -4(%rbp)
.LBB19_27:                              # %while.cond69
                                        #   Parent Loop BB19_6 Depth=1
                                        #     Parent Loop BB19_8 Depth=2
                                        # =>    This Inner Loop Header: Depth=3
	movq	-32(%rbp), %rax
	movl	-4(%rbp), %ecx
	subl	-12(%rbp), %ecx
	movslq	%ecx, %rcx
	movl	(%rax,%rcx,4), %edi
	addl	16(%rbp), %edi
	movl	-20(%rbp), %esi
	addl	16(%rbp), %esi
	movq	-64(%rbp), %rdx
	movq	-56(%rbp), %rcx
	movl	-44(%rbp), %r8d
	movq	24(%rbp), %r9
	callq	mainGtU
	cmpb	$0, %al
	je	.LBB19_31
# %bb.28:                               # %while.body77
                                        #   in Loop: Header=BB19_27 Depth=3
	movq	-32(%rbp), %rax
	movl	-4(%rbp), %ecx
	subl	-12(%rbp), %ecx
	movslq	%ecx, %rcx
	movl	(%rax,%rcx,4), %eax
	movq	-32(%rbp), %rcx
	movslq	-4(%rbp), %rdx
	movl	%eax, (%rcx,%rdx,4)
	movl	-4(%rbp), %eax
	subl	-12(%rbp), %eax
	movl	%eax, -4(%rbp)
	movl	-4(%rbp), %eax
	movl	-36(%rbp), %ecx
	addl	-12(%rbp), %ecx
	subl	$1, %ecx
	cmpl	%ecx, %eax
	jg	.LBB19_30
# %bb.29:                               # %if.then87
                                        #   in Loop: Header=BB19_8 Depth=2
	jmp	.LBB19_32
.LBB19_30:                              # %if.end88
                                        #   in Loop: Header=BB19_27 Depth=3
	jmp	.LBB19_27
.LBB19_31:                              # %while.end89.loopexit
                                        #   in Loop: Header=BB19_8 Depth=2
	jmp	.LBB19_32
.LBB19_32:                              # %while.end89
                                        #   in Loop: Header=BB19_8 Depth=2
	movl	-20(%rbp), %eax
	movq	-32(%rbp), %rcx
	movslq	-4(%rbp), %rdx
	movl	%eax, (%rcx,%rdx,4)
	movl	-8(%rbp), %eax
	addl	$1, %eax
	movl	%eax, -8(%rbp)
	movq	24(%rbp), %rax
	cmpl	$0, (%rax)
	jge	.LBB19_34
# %bb.33:                               # %if.then94
	jmp	.LBB19_38
.LBB19_34:                              # %if.end95
                                        #   in Loop: Header=BB19_8 Depth=2
	jmp	.LBB19_8
.LBB19_35:                              # %while.end96
                                        #   in Loop: Header=BB19_6 Depth=1
	jmp	.LBB19_36
.LBB19_36:                              # %for.inc
                                        #   in Loop: Header=BB19_6 Depth=1
	movl	-16(%rbp), %eax
	addl	$-1, %eax
	movl	%eax, -16(%rbp)
	jmp	.LBB19_6
.LBB19_37:                              # %for.end.loopexit
	jmp	.LBB19_38
.LBB19_38:                              # %for.end
	cmpl	$469082230, -68(%rbp)   # imm = 0x1BF5A076
	jne	.LBB19_40
.LBB19_39:
	addq	$80, %rsp
	popq	%rbp
	.cfi_def_cfa %rsp, 8
	retq
.LBB19_40:                              # %func_exit
	.cfi_def_cfa %rbp, 16
	callq	detect_breach
	jmp	.LBB19_39
.Lfunc_end19:
	.size	mainSimpleSort.11, .Lfunc_end19-mainSimpleSort.11
	.cfi_endproc
                                        # -- End function
	.p2align	4, 0x90         # -- Begin function mainSimpleSort.12
	.type	mainSimpleSort.12,@function
mainSimpleSort.12:                      # @mainSimpleSort.12
	.cfi_startproc
# %bb.0:                                # %entry
	pushq	%rbp
	.cfi_def_cfa_offset 16
	.cfi_offset %rbp, -16
	movq	%rsp, %rbp
	.cfi_def_cfa_register %rbp
	subq	$80, %rsp
	movq	24(%rbp), %rax
	movl	16(%rbp), %eax
	movl	$1379500577, -68(%rbp)  # imm = 0x52398221
	movq	%rdi, -32(%rbp)
	movq	%rsi, -56(%rbp)
	movq	%rdx, -64(%rbp)
	movl	%ecx, -44(%rbp)
	movl	%r8d, -36(%rbp)
	movl	%r9d, -40(%rbp)
	movl	-40(%rbp), %eax
	subl	-36(%rbp), %eax
	addl	$1, %eax
	movl	%eax, -48(%rbp)
	cmpl	$2, -48(%rbp)
	jge	.LBB20_2
# %bb.1:                                # %if.then
	jmp	.LBB20_38
.LBB20_2:                               # %if.end
	movl	$0, -16(%rbp)
.LBB20_3:                               # %while.cond
                                        # =>This Inner Loop Header: Depth=1
	movslq	-16(%rbp), %rax
	movl	incs(,%rax,4), %eax
	cmpl	-48(%rbp), %eax
	jge	.LBB20_5
# %bb.4:                                # %while.body
                                        #   in Loop: Header=BB20_3 Depth=1
	movl	-16(%rbp), %eax
	addl	$1, %eax
	movl	%eax, -16(%rbp)
	jmp	.LBB20_3
.LBB20_5:                               # %while.end
	movl	-16(%rbp), %eax
	addl	$-1, %eax
	movl	%eax, -16(%rbp)
.LBB20_6:                               # %for.cond
                                        # =>This Loop Header: Depth=1
                                        #     Child Loop BB20_8 Depth 2
                                        #       Child Loop BB20_11 Depth 3
                                        #       Child Loop BB20_19 Depth 3
                                        #       Child Loop BB20_27 Depth 3
	cmpl	$0, -16(%rbp)
	jl	.LBB20_37
# %bb.7:                                # %for.body
                                        #   in Loop: Header=BB20_6 Depth=1
	movslq	-16(%rbp), %rax
	movl	incs(,%rax,4), %eax
	movl	%eax, -12(%rbp)
	movl	-36(%rbp), %eax
	addl	-12(%rbp), %eax
	movl	%eax, -8(%rbp)
.LBB20_8:                               # %while.body7
                                        #   Parent Loop BB20_6 Depth=1
                                        # =>  This Loop Header: Depth=2
                                        #       Child Loop BB20_11 Depth 3
                                        #       Child Loop BB20_19 Depth 3
                                        #       Child Loop BB20_27 Depth 3
	movl	-8(%rbp), %eax
	cmpl	-40(%rbp), %eax
	jle	.LBB20_10
# %bb.9:                                # %if.then9
                                        #   in Loop: Header=BB20_6 Depth=1
	jmp	.LBB20_35
.LBB20_10:                              # %if.end10
                                        #   in Loop: Header=BB20_8 Depth=2
	movq	-32(%rbp), %rax
	movslq	-8(%rbp), %rcx
	movl	(%rax,%rcx,4), %eax
	movl	%eax, -20(%rbp)
	movl	-8(%rbp), %eax
	movl	%eax, -4(%rbp)
.LBB20_11:                              # %while.cond13
                                        #   Parent Loop BB20_6 Depth=1
                                        #     Parent Loop BB20_8 Depth=2
                                        # =>    This Inner Loop Header: Depth=3
	movq	-32(%rbp), %rax
	movl	-4(%rbp), %ecx
	subl	-12(%rbp), %ecx
	movslq	%ecx, %rcx
	movl	(%rax,%rcx,4), %edi
	addl	16(%rbp), %edi
	movl	-20(%rbp), %esi
	addl	16(%rbp), %esi
	movq	-56(%rbp), %rdx
	movq	-64(%rbp), %rcx
	movl	-44(%rbp), %r8d
	movq	24(%rbp), %r9
	callq	mainGtU
	cmpb	$0, %al
	je	.LBB20_15
# %bb.12:                               # %while.body19
                                        #   in Loop: Header=BB20_11 Depth=3
	movq	-32(%rbp), %rax
	movl	-4(%rbp), %ecx
	subl	-12(%rbp), %ecx
	movslq	%ecx, %rcx
	movl	(%rax,%rcx,4), %eax
	movq	-32(%rbp), %rcx
	movslq	-4(%rbp), %rdx
	movl	%eax, (%rcx,%rdx,4)
	movl	-4(%rbp), %eax
	subl	-12(%rbp), %eax
	movl	%eax, -4(%rbp)
	movl	-4(%rbp), %eax
	movl	-36(%rbp), %ecx
	addl	-12(%rbp), %ecx
	subl	$1, %ecx
	cmpl	%ecx, %eax
	jg	.LBB20_14
# %bb.13:                               # %if.then29
                                        #   in Loop: Header=BB20_8 Depth=2
	jmp	.LBB20_16
.LBB20_14:                              # %if.end30
                                        #   in Loop: Header=BB20_11 Depth=3
	jmp	.LBB20_11
.LBB20_15:                              # %while.end31.loopexit
                                        #   in Loop: Header=BB20_8 Depth=2
	jmp	.LBB20_16
.LBB20_16:                              # %while.end31
                                        #   in Loop: Header=BB20_8 Depth=2
	movl	-20(%rbp), %eax
	movq	-32(%rbp), %rcx
	movslq	-4(%rbp), %rdx
	movl	%eax, (%rcx,%rdx,4)
	movl	-8(%rbp), %eax
	addl	$1, %eax
	movl	%eax, -8(%rbp)
	movl	-8(%rbp), %eax
	cmpl	-40(%rbp), %eax
	jle	.LBB20_18
# %bb.17:                               # %if.then36
                                        #   in Loop: Header=BB20_6 Depth=1
	jmp	.LBB20_35
.LBB20_18:                              # %if.end37
                                        #   in Loop: Header=BB20_8 Depth=2
	movq	-32(%rbp), %rax
	movslq	-8(%rbp), %rcx
	movl	(%rax,%rcx,4), %eax
	movl	%eax, -20(%rbp)
	movl	-8(%rbp), %eax
	movl	%eax, -4(%rbp)
.LBB20_19:                              # %while.cond40
                                        #   Parent Loop BB20_6 Depth=1
                                        #     Parent Loop BB20_8 Depth=2
                                        # =>    This Inner Loop Header: Depth=3
	movq	-32(%rbp), %rax
	movl	-4(%rbp), %ecx
	subl	-12(%rbp), %ecx
	movslq	%ecx, %rcx
	movl	(%rax,%rcx,4), %edi
	addl	16(%rbp), %edi
	movl	-20(%rbp), %esi
	addl	16(%rbp), %esi
	movq	-56(%rbp), %rdx
	movq	-64(%rbp), %rcx
	movl	-44(%rbp), %r8d
	movq	24(%rbp), %r9
	callq	mainGtU
	cmpb	$0, %al
	je	.LBB20_23
# %bb.20:                               # %while.body48
                                        #   in Loop: Header=BB20_19 Depth=3
	movq	-32(%rbp), %rax
	movl	-4(%rbp), %ecx
	subl	-12(%rbp), %ecx
	movslq	%ecx, %rcx
	movl	(%rax,%rcx,4), %eax
	movq	-32(%rbp), %rcx
	movslq	-4(%rbp), %rdx
	movl	%eax, (%rcx,%rdx,4)
	movl	-4(%rbp), %eax
	subl	-12(%rbp), %eax
	movl	%eax, -4(%rbp)
	movl	-4(%rbp), %eax
	movl	-36(%rbp), %ecx
	addl	-12(%rbp), %ecx
	subl	$1, %ecx
	cmpl	%ecx, %eax
	jg	.LBB20_22
# %bb.21:                               # %if.then58
                                        #   in Loop: Header=BB20_8 Depth=2
	jmp	.LBB20_24
.LBB20_22:                              # %if.end59
                                        #   in Loop: Header=BB20_19 Depth=3
	jmp	.LBB20_19
.LBB20_23:                              # %while.end60.loopexit
                                        #   in Loop: Header=BB20_8 Depth=2
	jmp	.LBB20_24
.LBB20_24:                              # %while.end60
                                        #   in Loop: Header=BB20_8 Depth=2
	movl	-20(%rbp), %eax
	movq	-32(%rbp), %rcx
	movslq	-4(%rbp), %rdx
	movl	%eax, (%rcx,%rdx,4)
	movl	-8(%rbp), %eax
	addl	$1, %eax
	movl	%eax, -8(%rbp)
	movl	-8(%rbp), %eax
	cmpl	-40(%rbp), %eax
	jle	.LBB20_26
# %bb.25:                               # %if.then65
                                        #   in Loop: Header=BB20_6 Depth=1
	jmp	.LBB20_35
.LBB20_26:                              # %if.end66
                                        #   in Loop: Header=BB20_8 Depth=2
	movq	-32(%rbp), %rax
	movslq	-8(%rbp), %rcx
	movl	(%rax,%rcx,4), %eax
	movl	%eax, -20(%rbp)
	movl	-8(%rbp), %eax
	movl	%eax, -4(%rbp)
.LBB20_27:                              # %while.cond69
                                        #   Parent Loop BB20_6 Depth=1
                                        #     Parent Loop BB20_8 Depth=2
                                        # =>    This Inner Loop Header: Depth=3
	movq	-32(%rbp), %rax
	movl	-4(%rbp), %ecx
	subl	-12(%rbp), %ecx
	movslq	%ecx, %rcx
	movl	(%rax,%rcx,4), %edi
	addl	16(%rbp), %edi
	movl	-20(%rbp), %esi
	addl	16(%rbp), %esi
	movq	-56(%rbp), %rdx
	movq	-64(%rbp), %rcx
	movl	-44(%rbp), %r8d
	movq	24(%rbp), %r9
	callq	mainGtU
	cmpb	$0, %al
	je	.LBB20_31
# %bb.28:                               # %while.body77
                                        #   in Loop: Header=BB20_27 Depth=3
	movq	-32(%rbp), %rax
	movl	-4(%rbp), %ecx
	subl	-12(%rbp), %ecx
	movslq	%ecx, %rcx
	movl	(%rax,%rcx,4), %eax
	movq	-32(%rbp), %rcx
	movslq	-4(%rbp), %rdx
	movl	%eax, (%rcx,%rdx,4)
	movl	-4(%rbp), %eax
	subl	-12(%rbp), %eax
	movl	%eax, -4(%rbp)
	movl	-4(%rbp), %eax
	movl	-36(%rbp), %ecx
	addl	-12(%rbp), %ecx
	subl	$1, %ecx
	cmpl	%ecx, %eax
	jg	.LBB20_30
# %bb.29:                               # %if.then87
                                        #   in Loop: Header=BB20_8 Depth=2
	jmp	.LBB20_32
.LBB20_30:                              # %if.end88
                                        #   in Loop: Header=BB20_27 Depth=3
	jmp	.LBB20_27
.LBB20_31:                              # %while.end89.loopexit
                                        #   in Loop: Header=BB20_8 Depth=2
	jmp	.LBB20_32
.LBB20_32:                              # %while.end89
                                        #   in Loop: Header=BB20_8 Depth=2
	movl	-20(%rbp), %eax
	movq	-32(%rbp), %rcx
	movslq	-4(%rbp), %rdx
	movl	%eax, (%rcx,%rdx,4)
	movl	-8(%rbp), %eax
	addl	$1, %eax
	movl	%eax, -8(%rbp)
	movq	24(%rbp), %rax
	cmpl	$0, (%rax)
	jge	.LBB20_34
# %bb.33:                               # %if.then94
	jmp	.LBB20_38
.LBB20_34:                              # %if.end95
                                        #   in Loop: Header=BB20_8 Depth=2
	jmp	.LBB20_8
.LBB20_35:                              # %while.end96
                                        #   in Loop: Header=BB20_6 Depth=1
	jmp	.LBB20_36
.LBB20_36:                              # %for.inc
                                        #   in Loop: Header=BB20_6 Depth=1
	movl	-16(%rbp), %eax
	addl	$-1, %eax
	movl	%eax, -16(%rbp)
	jmp	.LBB20_6
.LBB20_37:                              # %for.end.loopexit
	jmp	.LBB20_38
.LBB20_38:                              # %for.end
	cmpl	$1379500577, -68(%rbp)  # imm = 0x52398221
	jne	.LBB20_40
.LBB20_39:
	addq	$80, %rsp
	popq	%rbp
	.cfi_def_cfa %rsp, 8
	retq
.LBB20_40:                              # %func_exit
	.cfi_def_cfa %rbp, 16
	callq	detect_breach
	jmp	.LBB20_39
.Lfunc_end20:
	.size	mainSimpleSort.12, .Lfunc_end20-mainSimpleSort.12
	.cfi_endproc
                                        # -- End function
	.p2align	4, 0x90         # -- Begin function mainQSort3.13
	.type	mainQSort3.13,@function
mainQSort3.13:                          # @mainQSort3.13
	.cfi_startproc
# %bb.0:                                # %entry
	pushq	%rbp
	.cfi_def_cfa_offset 16
	.cfi_offset %rbp, -16
	movq	%rsp, %rbp
	.cfi_def_cfa_register %rbp
	subq	$1408, %rsp             # imm = 0x580
	movq	24(%rbp), %rax
	movl	16(%rbp), %eax
	movl	$605095227, -160(%rbp)  # imm = 0x2411053B
	movq	%rdi, -24(%rbp)
	movq	%rsi, -136(%rbp)
	movq	%rdx, -184(%rbp)
	movl	%ecx, -144(%rbp)
	movl	%r8d, -172(%rbp)
	movl	%r9d, -168(%rbp)
	movl	$0, -4(%rbp)
	movl	-172(%rbp), %eax
	movslq	-4(%rbp), %rcx
	movl	%eax, -592(%rbp,%rcx,4)
	movl	-168(%rbp), %eax
	movslq	-4(%rbp), %rcx
	movl	%eax, -992(%rbp,%rcx,4)
	movl	16(%rbp), %eax
	movslq	-4(%rbp), %rcx
	movl	%eax, -1392(%rbp,%rcx,4)
	movl	-4(%rbp), %eax
	addl	$1, %eax
	movl	%eax, -4(%rbp)
.LBB21_1:                               # %while.cond
                                        # =>This Loop Header: Depth=1
                                        #     Child Loop BB21_11 Depth 2
                                        #       Child Loop BB21_12 Depth 3
                                        #       Child Loop BB21_21 Depth 3
                                        #     Child Loop BB21_38 Depth 2
                                        #     Child Loop BB21_44 Depth 2
	cmpl	$0, -4(%rbp)
	jle	.LBB21_53
# %bb.2:                                # %while.body
                                        #   in Loop: Header=BB21_1 Depth=1
	cmpl	$100, -4(%rbp)
	jl	.LBB21_4
# %bb.3:                                # %if.then
                                        #   in Loop: Header=BB21_1 Depth=1
	movl	$1001, %edi             # imm = 0x3E9
	callq	BZ2_bz__AssertH__fail
.LBB21_4:                               # %if.end
                                        #   in Loop: Header=BB21_1 Depth=1
	movl	-4(%rbp), %eax
	addl	$-1, %eax
	movl	%eax, -4(%rbp)
	movslq	-4(%rbp), %rax
	movl	-592(%rbp,%rax,4), %eax
	movl	%eax, -40(%rbp)
	movslq	-4(%rbp), %rax
	movl	-992(%rbp,%rax,4), %eax
	movl	%eax, -28(%rbp)
	movslq	-4(%rbp), %rax
	movl	-1392(%rbp,%rax,4), %eax
	movl	%eax, -32(%rbp)
	movl	-28(%rbp), %eax
	subl	-40(%rbp), %eax
	cmpl	$20, %eax
	jl	.LBB21_6
# %bb.5:                                # %lor.lhs.false
                                        #   in Loop: Header=BB21_1 Depth=1
	cmpl	$14, -32(%rbp)
	jle	.LBB21_10
.LBB21_6:                               # %if.then14
                                        #   in Loop: Header=BB21_1 Depth=1
	movq	-24(%rbp), %rdi
	movq	-136(%rbp), %rsi
	movq	-184(%rbp), %rdx
	movl	-144(%rbp), %ecx
	movl	-40(%rbp), %r8d
	movl	-28(%rbp), %r9d
	movl	-32(%rbp), %eax
	movq	24(%rbp), %r10
	movl	%eax, (%rsp)
	movq	%r10, 8(%rsp)
	callq	mainSimpleSort
	movq	24(%rbp), %rax
	cmpl	$0, (%rax)
	jge	.LBB21_8
# %bb.7:                                # %if.then16
	jmp	.LBB21_54
.LBB21_8:                               # %if.end17
                                        #   in Loop: Header=BB21_1 Depth=1
	jmp	.LBB21_9
.LBB21_9:                               # %while.cond.backedge
                                        #   in Loop: Header=BB21_1 Depth=1
	jmp	.LBB21_1
.LBB21_10:                              # %if.end18
                                        #   in Loop: Header=BB21_1 Depth=1
	movq	-136(%rbp), %rax
	movq	-24(%rbp), %rcx
	movslq	-40(%rbp), %rdx
	movl	(%rcx,%rdx,4), %ecx
	addl	-32(%rbp), %ecx
	movl	%ecx, %ecx
	movb	(%rax,%rcx), %r8b
	movq	-136(%rbp), %rcx
	movq	-24(%rbp), %rdx
	movslq	-28(%rbp), %rsi
	movl	(%rdx,%rsi,4), %edx
	addl	-32(%rbp), %edx
	movl	%edx, %edx
	movb	(%rcx,%rdx), %cl
	movq	-136(%rbp), %rdx
	movq	-24(%rbp), %rsi
	movl	-40(%rbp), %edi
	addl	-28(%rbp), %edi
	sarl	$1, %edi
	movslq	%edi, %rdi
	movl	(%rsi,%rdi,4), %esi
	addl	-32(%rbp), %esi
	movl	%esi, %eax
	movzbl	%r8b, %edi
	movzbl	%cl, %esi
	movzbl	(%rdx,%rax), %edx
	callq	mmed3
	movzbl	%al, %eax
	movl	%eax, -140(%rbp)
	movl	-40(%rbp), %eax
	movl	%eax, -48(%rbp)
	movl	%eax, -8(%rbp)
	movl	-28(%rbp), %eax
	movl	%eax, -44(%rbp)
	movl	%eax, -12(%rbp)
.LBB21_11:                              # %while.body35
                                        #   Parent Loop BB21_1 Depth=1
                                        # =>  This Loop Header: Depth=2
                                        #       Child Loop BB21_12 Depth 3
                                        #       Child Loop BB21_21 Depth 3
	jmp	.LBB21_12
.LBB21_12:                              # %while.body37
                                        #   Parent Loop BB21_1 Depth=1
                                        #     Parent Loop BB21_11 Depth=2
                                        # =>    This Inner Loop Header: Depth=3
	movl	-8(%rbp), %eax
	cmpl	-12(%rbp), %eax
	jle	.LBB21_14
# %bb.13:                               # %if.then40
                                        #   in Loop: Header=BB21_11 Depth=2
	jmp	.LBB21_20
.LBB21_14:                              # %if.end41
                                        #   in Loop: Header=BB21_12 Depth=3
	movq	-136(%rbp), %rax
	movq	-24(%rbp), %rcx
	movslq	-8(%rbp), %rdx
	movl	(%rcx,%rdx,4), %ecx
	addl	-32(%rbp), %ecx
	movl	%ecx, %ecx
	movzbl	(%rax,%rcx), %eax
	subl	-140(%rbp), %eax
	movl	%eax, -36(%rbp)
	cmpl	$0, -36(%rbp)
	jne	.LBB21_17
# %bb.15:                               # %if.then51
                                        #   in Loop: Header=BB21_12 Depth=3
	movq	-24(%rbp), %rax
	movslq	-8(%rbp), %rcx
	movl	(%rax,%rcx,4), %eax
	movl	%eax, -148(%rbp)
	movq	-24(%rbp), %rax
	movslq	-48(%rbp), %rcx
	movl	(%rax,%rcx,4), %eax
	movq	-24(%rbp), %rcx
	movslq	-8(%rbp), %rdx
	movl	%eax, (%rcx,%rdx,4)
	movl	-148(%rbp), %eax
	movq	-24(%rbp), %rcx
	movslq	-48(%rbp), %rdx
	movl	%eax, (%rcx,%rdx,4)
	movl	-48(%rbp), %eax
	addl	$1, %eax
	movl	%eax, -48(%rbp)
	movl	-8(%rbp), %eax
	addl	$1, %eax
	movl	%eax, -8(%rbp)
.LBB21_16:                              # %while.body37.backedge
                                        #   in Loop: Header=BB21_12 Depth=3
	jmp	.LBB21_12
.LBB21_17:                              # %if.end62
                                        #   in Loop: Header=BB21_12 Depth=3
	cmpl	$0, -36(%rbp)
	jle	.LBB21_19
# %bb.18:                               # %if.then65
                                        #   in Loop: Header=BB21_11 Depth=2
	jmp	.LBB21_20
.LBB21_19:                              # %if.end66
                                        #   in Loop: Header=BB21_12 Depth=3
	movl	-8(%rbp), %eax
	addl	$1, %eax
	movl	%eax, -8(%rbp)
	jmp	.LBB21_16
.LBB21_20:                              # %while.end
                                        #   in Loop: Header=BB21_11 Depth=2
	jmp	.LBB21_21
.LBB21_21:                              # %while.body69
                                        #   Parent Loop BB21_1 Depth=1
                                        #     Parent Loop BB21_11 Depth=2
                                        # =>    This Inner Loop Header: Depth=3
	movl	-8(%rbp), %eax
	cmpl	-12(%rbp), %eax
	jle	.LBB21_23
# %bb.22:                               # %if.then72
                                        #   in Loop: Header=BB21_11 Depth=2
	jmp	.LBB21_29
.LBB21_23:                              # %if.end73
                                        #   in Loop: Header=BB21_21 Depth=3
	movq	-136(%rbp), %rax
	movq	-24(%rbp), %rcx
	movslq	-12(%rbp), %rdx
	movl	(%rcx,%rdx,4), %ecx
	addl	-32(%rbp), %ecx
	movl	%ecx, %ecx
	movzbl	(%rax,%rcx), %eax
	subl	-140(%rbp), %eax
	movl	%eax, -36(%rbp)
	cmpl	$0, -36(%rbp)
	jne	.LBB21_26
# %bb.24:                               # %if.then83
                                        #   in Loop: Header=BB21_21 Depth=3
	movq	-24(%rbp), %rax
	movslq	-12(%rbp), %rcx
	movl	(%rax,%rcx,4), %eax
	movl	%eax, -176(%rbp)
	movq	-24(%rbp), %rax
	movslq	-44(%rbp), %rcx
	movl	(%rax,%rcx,4), %eax
	movq	-24(%rbp), %rcx
	movslq	-12(%rbp), %rdx
	movl	%eax, (%rcx,%rdx,4)
	movl	-176(%rbp), %eax
	movq	-24(%rbp), %rcx
	movslq	-44(%rbp), %rdx
	movl	%eax, (%rcx,%rdx,4)
	movl	-44(%rbp), %eax
	addl	$-1, %eax
	movl	%eax, -44(%rbp)
	movl	-12(%rbp), %eax
	addl	$-1, %eax
	movl	%eax, -12(%rbp)
.LBB21_25:                              # %while.body69.backedge
                                        #   in Loop: Header=BB21_21 Depth=3
	jmp	.LBB21_21
.LBB21_26:                              # %if.end95
                                        #   in Loop: Header=BB21_21 Depth=3
	cmpl	$0, -36(%rbp)
	jge	.LBB21_28
# %bb.27:                               # %if.then98
                                        #   in Loop: Header=BB21_11 Depth=2
	jmp	.LBB21_29
.LBB21_28:                              # %if.end99
                                        #   in Loop: Header=BB21_21 Depth=3
	movl	-12(%rbp), %eax
	addl	$-1, %eax
	movl	%eax, -12(%rbp)
	jmp	.LBB21_25
.LBB21_29:                              # %while.end101
                                        #   in Loop: Header=BB21_11 Depth=2
	movl	-8(%rbp), %eax
	cmpl	-12(%rbp), %eax
	jle	.LBB21_31
# %bb.30:                               # %if.then104
                                        #   in Loop: Header=BB21_1 Depth=1
	jmp	.LBB21_32
.LBB21_31:                              # %if.end105
                                        #   in Loop: Header=BB21_11 Depth=2
	movq	-24(%rbp), %rax
	movslq	-8(%rbp), %rcx
	movl	(%rax,%rcx,4), %eax
	movl	%eax, -156(%rbp)
	movq	-24(%rbp), %rax
	movslq	-12(%rbp), %rcx
	movl	(%rax,%rcx,4), %eax
	movq	-24(%rbp), %rcx
	movslq	-8(%rbp), %rdx
	movl	%eax, (%rcx,%rdx,4)
	movl	-156(%rbp), %eax
	movq	-24(%rbp), %rcx
	movslq	-12(%rbp), %rdx
	movl	%eax, (%rcx,%rdx,4)
	movl	-8(%rbp), %eax
	addl	$1, %eax
	movl	%eax, -8(%rbp)
	movl	-12(%rbp), %eax
	addl	$-1, %eax
	movl	%eax, -12(%rbp)
	jmp	.LBB21_11
.LBB21_32:                              # %while.end117
                                        #   in Loop: Header=BB21_1 Depth=1
	movl	-44(%rbp), %eax
	cmpl	-48(%rbp), %eax
	jge	.LBB21_34
# %bb.33:                               # %if.then120
                                        #   in Loop: Header=BB21_1 Depth=1
	movl	-40(%rbp), %eax
	movslq	-4(%rbp), %rcx
	movl	%eax, -592(%rbp,%rcx,4)
	movl	-28(%rbp), %eax
