	.text
	.file	"blocksort.c"
	.globl	BZ2_blockSort           # -- Begin function BZ2_blockSort
	.p2align	4, 0x90
	.type	BZ2_blockSort,@function
BZ2_blockSort:                          # @BZ2_blockSort
	.cfi_startproc
# %bb.0:                                # %rand_bb
	pushq	%rbp
	.cfi_def_cfa_offset 16
	.cfi_offset %rbp, -16
	movq	%rsp, %rbp
	.cfi_def_cfa_register %rbp
	pushq	%rbx
	pushq	%rax
	.cfi_offset %rbx, -24
	movq	%rdi, %rbx
	callq	get_rand
	cmpl	$0, %eax
	jne	.LBB0_9
# %bb.1:                                # %func_BZ2_blockSort.7
	movq	%rbx, %rdi
	callq	BZ2_blockSort.7
	addq	$8, %rsp
	popq	%rbx
	popq	%rbp
	.cfi_def_cfa %rsp, 8
	retq
.LBB0_2:                                # %func_BZ2_blockSort.14
	.cfi_def_cfa %rbp, 16
	movq	%rbx, %rdi
	callq	BZ2_blockSort.14
	addq	$8, %rsp
	popq	%rbx
	popq	%rbp
	.cfi_def_cfa %rsp, 8
	retq
.LBB0_3:                                # %func_BZ2_blockSort.19
	.cfi_def_cfa %rbp, 16
	movq	%rbx, %rdi
	callq	BZ2_blockSort.19
	addq	$8, %rsp
	popq	%rbx
	popq	%rbp
	.cfi_def_cfa %rsp, 8
	retq
.LBB0_4:                                # %func_BZ2_blockSort.21
	.cfi_def_cfa %rbp, 16
	movq	%rbx, %rdi
	callq	BZ2_blockSort.21
	addq	$8, %rsp
	popq	%rbx
	popq	%rbp
	.cfi_def_cfa %rsp, 8
	retq
.LBB0_5:                                # %func_BZ2_blockSort.26
	.cfi_def_cfa %rbp, 16
	movq	%rbx, %rdi
	callq	BZ2_blockSort.26
	addq	$8, %rsp
	popq	%rbx
	popq	%rbp
	.cfi_def_cfa %rsp, 8
	retq
.LBB0_6:                                # %func_BZ2_blockSort.37
	.cfi_def_cfa %rbp, 16
	movq	%rbx, %rdi
	callq	BZ2_blockSort.37
	addq	$8, %rsp
	popq	%rbx
	popq	%rbp
	.cfi_def_cfa %rsp, 8
	retq
.LBB0_7:                                # %func_BZ2_blockSort.43
	.cfi_def_cfa %rbp, 16
	movq	%rbx, %rdi
	callq	BZ2_blockSort.43
	addq	$8, %rsp
	popq	%rbx
	popq	%rbp
	.cfi_def_cfa %rsp, 8
	retq
.LBB0_8:                                # %func_BZ2_blockSort.48
	.cfi_def_cfa %rbp, 16
	movq	%rbx, %rdi
	callq	BZ2_blockSort.48
	addq	$8, %rsp
	popq	%rbx
	popq	%rbp
	.cfi_def_cfa %rsp, 8
	retq
.LBB0_9:                                # %ctrl0
	.cfi_def_cfa %rbp, 16
	cmpl	$1, %eax
	je	.LBB0_2
# %bb.10:                               # %ctrl1
	cmpl	$2, %eax
	je	.LBB0_3
# %bb.11:                               # %ctrl2
	cmpl	$3, %eax
	je	.LBB0_4
# %bb.12:                               # %ctrl3
	cmpl	$4, %eax
	je	.LBB0_5
# %bb.13:                               # %ctrl4
	cmpl	$5, %eax
	je	.LBB0_6
# %bb.14:                               # %ctrl5
	cmpl	$6, %eax
	je	.LBB0_7
	jmp	.LBB0_8
.Lfunc_end0:
	.size	BZ2_blockSort, .Lfunc_end0-BZ2_blockSort
	.cfi_endproc
                                        # -- End function
	.p2align	4, 0x90         # -- Begin function fallbackSort
	.type	fallbackSort,@function
fallbackSort:                           # @fallbackSort
	.cfi_startproc
# %bb.0:                                # %rand_bb
	pushq	%rbp
	.cfi_def_cfa_offset 16
	.cfi_offset %rbp, -16
	movq	%rsp, %rbp
	.cfi_def_cfa_register %rbp
	pushq	%r15
	pushq	%r14
	pushq	%r13
	pushq	%r12
	pushq	%rbx
	pushq	%rax
	.cfi_offset %rbx, -56
	.cfi_offset %r12, -48
	.cfi_offset %r13, -40
	.cfi_offset %r14, -32
	.cfi_offset %r15, -24
	movl	%r8d, %r14d
	movl	%ecx, %r15d
	movq	%rdx, %r12
	movq	%rsi, %r13
	movq	%rdi, %rbx
	callq	get_rand
	cmpl	$0, %eax
	jne	.LBB1_9
# %bb.1:                                # %func_fallbackSort.3
	movq	%rbx, %rdi
	movq	%r13, %rsi
	movq	%r12, %rdx
	movl	%r15d, %ecx
	movl	%r14d, %r8d
	callq	fallbackSort.3
	addq	$8, %rsp
	popq	%rbx
	popq	%r12
	popq	%r13
	popq	%r14
	popq	%r15
	popq	%rbp
	.cfi_def_cfa %rsp, 8
	retq
.LBB1_2:                                # %func_fallbackSort.4
	.cfi_def_cfa %rbp, 16
	movq	%rbx, %rdi
	movq	%r13, %rsi
	movq	%r12, %rdx
	movl	%r15d, %ecx
	movl	%r14d, %r8d
	callq	fallbackSort.4
	addq	$8, %rsp
	popq	%rbx
	popq	%r12
	popq	%r13
	popq	%r14
	popq	%r15
	popq	%rbp
	.cfi_def_cfa %rsp, 8
	retq
.LBB1_3:                                # %func_fallbackSort.20
	.cfi_def_cfa %rbp, 16
	movq	%rbx, %rdi
	movq	%r13, %rsi
	movq	%r12, %rdx
	movl	%r15d, %ecx
	movl	%r14d, %r8d
	callq	fallbackSort.20
	addq	$8, %rsp
	popq	%rbx
	popq	%r12
	popq	%r13
	popq	%r14
	popq	%r15
	popq	%rbp
	.cfi_def_cfa %rsp, 8
	retq
.LBB1_4:                                # %func_fallbackSort.28
	.cfi_def_cfa %rbp, 16
	movq	%rbx, %rdi
	movq	%r13, %rsi
	movq	%r12, %rdx
	movl	%r15d, %ecx
	movl	%r14d, %r8d
	callq	fallbackSort.28
	addq	$8, %rsp
	popq	%rbx
	popq	%r12
	popq	%r13
	popq	%r14
	popq	%r15
	popq	%rbp
	.cfi_def_cfa %rsp, 8
	retq
.LBB1_5:                                # %func_fallbackSort.42
	.cfi_def_cfa %rbp, 16
	movq	%rbx, %rdi
	movq	%r13, %rsi
	movq	%r12, %rdx
	movl	%r15d, %ecx
	movl	%r14d, %r8d
	callq	fallbackSort.42
	addq	$8, %rsp
	popq	%rbx
	popq	%r12
	popq	%r13
	popq	%r14
	popq	%r15
	popq	%rbp
	.cfi_def_cfa %rsp, 8
	retq
.LBB1_6:                                # %func_fallbackSort.51
	.cfi_def_cfa %rbp, 16
	movq	%rbx, %rdi
	movq	%r13, %rsi
	movq	%r12, %rdx
	movl	%r15d, %ecx
	movl	%r14d, %r8d
	callq	fallbackSort.51
	addq	$8, %rsp
	popq	%rbx
	popq	%r12
	popq	%r13
	popq	%r14
	popq	%r15
	popq	%rbp
	.cfi_def_cfa %rsp, 8
	retq
.LBB1_7:                                # %func_fallbackSort.57
	.cfi_def_cfa %rbp, 16
	movq	%rbx, %rdi
	movq	%r13, %rsi
	movq	%r12, %rdx
	movl	%r15d, %ecx
	movl	%r14d, %r8d
	callq	fallbackSort.57
	addq	$8, %rsp
	popq	%rbx
	popq	%r12
	popq	%r13
	popq	%r14
	popq	%r15
	popq	%rbp
	.cfi_def_cfa %rsp, 8
	retq
.LBB1_8:                                # %func_fallbackSort.62
	.cfi_def_cfa %rbp, 16
	movq	%rbx, %rdi
	movq	%r13, %rsi
	movq	%r12, %rdx
	movl	%r15d, %ecx
	movl	%r14d, %r8d
	callq	fallbackSort.62
	addq	$8, %rsp
	popq	%rbx
	popq	%r12
	popq	%r13
	popq	%r14
	popq	%r15
	popq	%rbp
	.cfi_def_cfa %rsp, 8
	retq
.LBB1_9:                                # %ctrl0
	.cfi_def_cfa %rbp, 16
	cmpl	$1, %eax
	je	.LBB1_2
# %bb.10:                               # %ctrl1
	cmpl	$2, %eax
	je	.LBB1_3
# %bb.11:                               # %ctrl2
	cmpl	$3, %eax
	je	.LBB1_4
# %bb.12:                               # %ctrl3
	cmpl	$4, %eax
	je	.LBB1_5
# %bb.13:                               # %ctrl4
	cmpl	$5, %eax
	je	.LBB1_6
# %bb.14:                               # %ctrl5
	cmpl	$6, %eax
	je	.LBB1_7
	jmp	.LBB1_8
.Lfunc_end1:
	.size	fallbackSort, .Lfunc_end1-fallbackSort
	.cfi_endproc
                                        # -- End function
	.p2align	4, 0x90         # -- Begin function mainSort
	.type	mainSort,@function
mainSort:                               # @mainSort
	.cfi_startproc
# %bb.0:                                # %rand_bb
	pushq	%rbp
	.cfi_def_cfa_offset 16
	.cfi_offset %rbp, -16
	movq	%rsp, %rbp
	.cfi_def_cfa_register %rbp
	pushq	%r15
	pushq	%r14
	pushq	%r13
	pushq	%r12
	pushq	%rbx
	subq	$24, %rsp
	.cfi_offset %rbx, -56
	.cfi_offset %r12, -48
	.cfi_offset %r13, -40
	.cfi_offset %r14, -32
	.cfi_offset %r15, -24
	movl	%r9d, -44(%rbp)         # 4-byte Spill
	movl	%r8d, %r13d
	movq	%rcx, %r15
	movq	%rdx, %rbx
	movq	%rsi, %r14
	movq	%rdi, %r12
	callq	get_rand
	cmpl	$0, %eax
	jne	.LBB2_9
# %bb.1:                                # %func_mainSort.17
	movq	%r12, %rdi
	movq	%r14, %rsi
	movq	%rbx, %rdx
	movq	%r15, %rcx
	movl	%r13d, %r8d
	movl	-44(%rbp), %r9d         # 4-byte Reload
	movq	16(%rbp), %rax
	movq	%rax, (%rsp)
	callq	mainSort.17
	addq	$24, %rsp
	popq	%rbx
	popq	%r12
	popq	%r13
	popq	%r14
	popq	%r15
	popq	%rbp
	.cfi_def_cfa %rsp, 8
	retq
.LBB2_2:                                # %func_mainSort.27
	.cfi_def_cfa %rbp, 16
	movq	%r12, %rdi
	movq	%r14, %rsi
	movq	%rbx, %rdx
	movq	%r15, %rcx
	movl	%r13d, %r8d
	movq	%r10, (%rsp)
	callq	mainSort.27
	addq	$24, %rsp
	popq	%rbx
	popq	%r12
	popq	%r13
	popq	%r14
	popq	%r15
	popq	%rbp
	.cfi_def_cfa %rsp, 8
	retq
.LBB2_3:                                # %func_mainSort.29
	.cfi_def_cfa %rbp, 16
	movq	%r12, %rdi
	movq	%r14, %rsi
	movq	%rbx, %rdx
	movq	%r15, %rcx
	movl	%r13d, %r8d
	movq	%r10, (%rsp)
	callq	mainSort.29
	addq	$24, %rsp
	popq	%rbx
	popq	%r12
	popq	%r13
	popq	%r14
	popq	%r15
	popq	%rbp
	.cfi_def_cfa %rsp, 8
	retq
.LBB2_4:                                # %func_mainSort.31
	.cfi_def_cfa %rbp, 16
	movq	%r12, %rdi
	movq	%r14, %rsi
	movq	%rbx, %rdx
	movq	%r15, %rcx
	movl	%r13d, %r8d
	movq	%r10, (%rsp)
	callq	mainSort.31
	addq	$24, %rsp
	popq	%rbx
	popq	%r12
	popq	%r13
	popq	%r14
	popq	%r15
	popq	%rbp
	.cfi_def_cfa %rsp, 8
	retq
.LBB2_5:                                # %func_mainSort.34
	.cfi_def_cfa %rbp, 16
	movq	%r12, %rdi
	movq	%r14, %rsi
	movq	%rbx, %rdx
	movq	%r15, %rcx
	movl	%r13d, %r8d
	movq	%r10, (%rsp)
	callq	mainSort.34
	addq	$24, %rsp
	popq	%rbx
	popq	%r12
	popq	%r13
	popq	%r14
	popq	%r15
	popq	%rbp
	.cfi_def_cfa %rsp, 8
	retq
.LBB2_6:                                # %func_mainSort.53
	.cfi_def_cfa %rbp, 16
	movq	%r12, %rdi
	movq	%r14, %rsi
	movq	%rbx, %rdx
	movq	%r15, %rcx
	movl	%r13d, %r8d
	movq	%r10, (%rsp)
	callq	mainSort.53
	addq	$24, %rsp
	popq	%rbx
	popq	%r12
	popq	%r13
	popq	%r14
	popq	%r15
	popq	%rbp
	.cfi_def_cfa %rsp, 8
	retq
.LBB2_7:                                # %func_mainSort.55
	.cfi_def_cfa %rbp, 16
	movq	%r10, (%rsp)
	callq	mainSort.55
	addq	$24, %rsp
	popq	%rbx
	popq	%r12
	popq	%r13
	popq	%r14
	popq	%r15
	popq	%rbp
	.cfi_def_cfa %rsp, 8
	retq
.LBB2_8:                                # %func_mainSort.60
	.cfi_def_cfa %rbp, 16
	movq	%r10, (%rsp)
	callq	mainSort.60
	addq	$24, %rsp
	popq	%rbx
	popq	%r12
	popq	%r13
	popq	%r14
	popq	%r15
	popq	%rbp
	.cfi_def_cfa %rsp, 8
	retq
.LBB2_9:                                # %ctrl0
	.cfi_def_cfa %rbp, 16
	movl	-44(%rbp), %r9d         # 4-byte Reload
	movq	16(%rbp), %r10
	cmpl	$1, %eax
	je	.LBB2_2
# %bb.10:                               # %ctrl1
	cmpl	$2, %eax
	je	.LBB2_3
# %bb.11:                               # %ctrl2
	cmpl	$3, %eax
	je	.LBB2_4
# %bb.12:                               # %ctrl3
	cmpl	$4, %eax
	je	.LBB2_5
# %bb.13:                               # %ctrl4
	cmpl	$5, %eax
	je	.LBB2_6
# %bb.14:                               # %ctrl5
	cmpl	$6, %eax
	movl	%r13d, %r8d
	movq	%r15, %rcx
	movq	%rbx, %rdx
	movq	%r14, %rsi
	movq	%r12, %rdi
	je	.LBB2_7
	jmp	.LBB2_8
.Lfunc_end2:
	.size	mainSort, .Lfunc_end2-mainSort
	.cfi_endproc
                                        # -- End function
	.p2align	4, 0x90         # -- Begin function fallbackQSort3
	.type	fallbackQSort3,@function
fallbackQSort3:                         # @fallbackQSort3
	.cfi_startproc
# %bb.0:                                # %rand_bb
	pushq	%rbp
	.cfi_def_cfa_offset 16
	.cfi_offset %rbp, -16
	movq	%rsp, %rbp
	.cfi_def_cfa_register %rbp
	pushq	%r15
	pushq	%r14
	pushq	%r12
	pushq	%rbx
	.cfi_offset %rbx, -48
	.cfi_offset %r12, -40
	.cfi_offset %r14, -32
	.cfi_offset %r15, -24
	movl	%ecx, %r14d
	movl	%edx, %r15d
	movq	%rsi, %r12
	movq	%rdi, %rbx
	callq	get_rand
	cmpl	$0, %eax
	jne	.LBB3_9
# %bb.1:                                # %func_fallbackQSort3.47
	movq	%rbx, %rdi
	movq	%r12, %rsi
	movl	%r15d, %edx
	movl	%r14d, %ecx
	callq	fallbackQSort3.47
	popq	%rbx
	popq	%r12
	popq	%r14
	popq	%r15
	popq	%rbp
	.cfi_def_cfa %rsp, 8
	retq
.LBB3_2:                                # %func_fallbackQSort3.49
	.cfi_def_cfa %rbp, 16
	movq	%rbx, %rdi
	movq	%r12, %rsi
	movl	%r15d, %edx
	movl	%r14d, %ecx
	callq	fallbackQSort3.49
	popq	%rbx
	popq	%r12
	popq	%r14
	popq	%r15
	popq	%rbp
	.cfi_def_cfa %rsp, 8
	retq
.LBB3_3:                                # %func_fallbackQSort3.63
	.cfi_def_cfa %rbp, 16
	movq	%rbx, %rdi
	movq	%r12, %rsi
	movl	%r15d, %edx
	movl	%r14d, %ecx
	callq	fallbackQSort3.63
	popq	%rbx
	popq	%r12
	popq	%r14
	popq	%r15
	popq	%rbp
	.cfi_def_cfa %rsp, 8
	retq
.LBB3_4:                                # %func_fallbackQSort3.64
	.cfi_def_cfa %rbp, 16
	movq	%rbx, %rdi
	movq	%r12, %rsi
	movl	%r15d, %edx
	movl	%r14d, %ecx
	callq	fallbackQSort3.64
	popq	%rbx
	popq	%r12
	popq	%r14
	popq	%r15
	popq	%rbp
	.cfi_def_cfa %rsp, 8
	retq
.LBB3_5:                                # %func_fallbackQSort3.66
	.cfi_def_cfa %rbp, 16
	movq	%rbx, %rdi
	movq	%r12, %rsi
	movl	%r15d, %edx
	movl	%r14d, %ecx
	callq	fallbackQSort3.66
	popq	%rbx
	popq	%r12
	popq	%r14
	popq	%r15
	popq	%rbp
	.cfi_def_cfa %rsp, 8
	retq
.LBB3_6:                                # %func_fallbackQSort3.67
	.cfi_def_cfa %rbp, 16
	movq	%rbx, %rdi
	movq	%r12, %rsi
	movl	%r15d, %edx
	movl	%r14d, %ecx
	callq	fallbackQSort3.67
	popq	%rbx
	popq	%r12
	popq	%r14
	popq	%r15
	popq	%rbp
	.cfi_def_cfa %rsp, 8
	retq
.LBB3_7:                                # %func_fallbackQSort3.71
	.cfi_def_cfa %rbp, 16
	movq	%rbx, %rdi
	movq	%r12, %rsi
	movl	%r15d, %edx
	movl	%r14d, %ecx
	callq	fallbackQSort3.71
	popq	%rbx
	popq	%r12
	popq	%r14
	popq	%r15
	popq	%rbp
	.cfi_def_cfa %rsp, 8
	retq
.LBB3_8:                                # %func_fallbackQSort3.72
	.cfi_def_cfa %rbp, 16
	movq	%rbx, %rdi
	movq	%r12, %rsi
	movl	%r15d, %edx
	movl	%r14d, %ecx
	callq	fallbackQSort3.72
	popq	%rbx
	popq	%r12
	popq	%r14
	popq	%r15
	popq	%rbp
	.cfi_def_cfa %rsp, 8
	retq
.LBB3_9:                                # %ctrl0
	.cfi_def_cfa %rbp, 16
	cmpl	$1, %eax
	je	.LBB3_2
# %bb.10:                               # %ctrl1
	cmpl	$2, %eax
	je	.LBB3_3
# %bb.11:                               # %ctrl2
	cmpl	$3, %eax
	je	.LBB3_4
# %bb.12:                               # %ctrl3
	cmpl	$4, %eax
	je	.LBB3_5
# %bb.13:                               # %ctrl4
	cmpl	$5, %eax
	je	.LBB3_6
# %bb.14:                               # %ctrl5
	cmpl	$6, %eax
	je	.LBB3_7
	jmp	.LBB3_8
.Lfunc_end3:
	.size	fallbackQSort3, .Lfunc_end3-fallbackQSort3
	.cfi_endproc
                                        # -- End function
	.p2align	4, 0x90         # -- Begin function fallbackSimpleSort
	.type	fallbackSimpleSort,@function
fallbackSimpleSort:                     # @fallbackSimpleSort
	.cfi_startproc
# %bb.0:                                # %rand_bb
	pushq	%rbp
	.cfi_def_cfa_offset 16
	.cfi_offset %rbp, -16
	movq	%rsp, %rbp
	.cfi_def_cfa_register %rbp
	pushq	%r15
	pushq	%r14
	pushq	%r12
	pushq	%rbx
	.cfi_offset %rbx, -48
	.cfi_offset %r12, -40
	.cfi_offset %r14, -32
	.cfi_offset %r15, -24
	movl	%ecx, %r14d
	movl	%edx, %r15d
	movq	%rsi, %r12
	movq	%rdi, %rbx
	callq	get_rand
	cmpl	$0, %eax
	jne	.LBB4_9
# %bb.1:                                # %func_fallbackSimpleSort.11
	movq	%rbx, %rdi
	movq	%r12, %rsi
	movl	%r15d, %edx
	movl	%r14d, %ecx
	callq	fallbackSimpleSort.11
	popq	%rbx
	popq	%r12
	popq	%r14
	popq	%r15
	popq	%rbp
	.cfi_def_cfa %rsp, 8
	retq
.LBB4_2:                                # %func_fallbackSimpleSort.13
	.cfi_def_cfa %rbp, 16
	movq	%rbx, %rdi
	movq	%r12, %rsi
	movl	%r15d, %edx
	movl	%r14d, %ecx
	callq	fallbackSimpleSort.13
	popq	%rbx
	popq	%r12
	popq	%r14
	popq	%r15
	popq	%rbp
	.cfi_def_cfa %rsp, 8
	retq
.LBB4_3:                                # %func_fallbackSimpleSort.30
	.cfi_def_cfa %rbp, 16
	movq	%rbx, %rdi
	movq	%r12, %rsi
	movl	%r15d, %edx
	movl	%r14d, %ecx
	callq	fallbackSimpleSort.30
	popq	%rbx
	popq	%r12
	popq	%r14
	popq	%r15
	popq	%rbp
	.cfi_def_cfa %rsp, 8
	retq
.LBB4_4:                                # %func_fallbackSimpleSort.41
	.cfi_def_cfa %rbp, 16
	movq	%rbx, %rdi
	movq	%r12, %rsi
	movl	%r15d, %edx
	movl	%r14d, %ecx
	callq	fallbackSimpleSort.41
	popq	%rbx
	popq	%r12
	popq	%r14
	popq	%r15
	popq	%rbp
	.cfi_def_cfa %rsp, 8
	retq
.LBB4_5:                                # %func_fallbackSimpleSort.50
	.cfi_def_cfa %rbp, 16
	movq	%rbx, %rdi
	movq	%r12, %rsi
	movl	%r15d, %edx
	movl	%r14d, %ecx
	callq	fallbackSimpleSort.50
	popq	%rbx
	popq	%r12
	popq	%r14
	popq	%r15
	popq	%rbp
	.cfi_def_cfa %rsp, 8
	retq
.LBB4_6:                                # %func_fallbackSimpleSort.52
	.cfi_def_cfa %rbp, 16
	movq	%rbx, %rdi
	movq	%r12, %rsi
	movl	%r15d, %edx
	movl	%r14d, %ecx
	callq	fallbackSimpleSort.52
	popq	%rbx
	popq	%r12
	popq	%r14
	popq	%r15
	popq	%rbp
	.cfi_def_cfa %rsp, 8
	retq
.LBB4_7:                                # %func_fallbackSimpleSort.58
	.cfi_def_cfa %rbp, 16
	movq	%rbx, %rdi
	movq	%r12, %rsi
	movl	%r15d, %edx
	movl	%r14d, %ecx
	callq	fallbackSimpleSort.58
	popq	%rbx
	popq	%r12
	popq	%r14
	popq	%r15
	popq	%rbp
	.cfi_def_cfa %rsp, 8
	retq
.LBB4_8:                                # %func_fallbackSimpleSort.61
	.cfi_def_cfa %rbp, 16
	movq	%rbx, %rdi
	movq	%r12, %rsi
	movl	%r15d, %edx
	movl	%r14d, %ecx
	callq	fallbackSimpleSort.61
	popq	%rbx
	popq	%r12
	popq	%r14
	popq	%r15
	popq	%rbp
	.cfi_def_cfa %rsp, 8
	retq
.LBB4_9:                                # %ctrl0
	.cfi_def_cfa %rbp, 16
	cmpl	$1, %eax
	je	.LBB4_2
# %bb.10:                               # %ctrl1
	cmpl	$2, %eax
	je	.LBB4_3
# %bb.11:                               # %ctrl2
	cmpl	$3, %eax
	je	.LBB4_4
# %bb.12:                               # %ctrl3
	cmpl	$4, %eax
	je	.LBB4_5
# %bb.13:                               # %ctrl4
	cmpl	$5, %eax
	je	.LBB4_6
# %bb.14:                               # %ctrl5
	cmpl	$6, %eax
	je	.LBB4_7
	jmp	.LBB4_8
.Lfunc_end4:
	.size	fallbackSimpleSort, .Lfunc_end4-fallbackSimpleSort
	.cfi_endproc
                                        # -- End function
	.p2align	4, 0x90         # -- Begin function mainQSort3
	.type	mainQSort3,@function
mainQSort3:                             # @mainQSort3
	.cfi_startproc
# %bb.0:                                # %rand_bb
	pushq	%rbp
	.cfi_def_cfa_offset 16
	.cfi_offset %rbp, -16
	movq	%rsp, %rbp
	.cfi_def_cfa_register %rbp
	pushq	%r15
	pushq	%r14
	pushq	%r13
	pushq	%r12
	pushq	%rbx
	subq	$24, %rsp
	.cfi_offset %rbx, -56
	.cfi_offset %r12, -48
	.cfi_offset %r13, -40
	.cfi_offset %r14, -32
	.cfi_offset %r15, -24
	movl	%r9d, -44(%rbp)         # 4-byte Spill
	movl	%r8d, %r15d
	movl	%ecx, %r12d
	movq	%rdx, %rbx
	movq	%rsi, %r14
	movq	%rdi, %r13
	callq	get_rand
	cmpl	$0, %eax
	jne	.LBB5_9
# %bb.1:                                # %func_mainQSort3.2
	movq	%r13, %rdi
	movq	%r14, %rsi
	movq	%rbx, %rdx
	movl	%r12d, %ecx
	movl	%r15d, %r8d
	movl	-44(%rbp), %r9d         # 4-byte Reload
	movl	16(%rbp), %eax
	movl	%eax, (%rsp)
	movq	24(%rbp), %rax
	movq	%rax, 8(%rsp)
	callq	mainQSort3.2
	addq	$24, %rsp
	popq	%rbx
	popq	%r12
	popq	%r13
	popq	%r14
	popq	%r15
	popq	%rbp
	.cfi_def_cfa %rsp, 8
	retq
.LBB5_2:                                # %func_mainQSort3.8
	.cfi_def_cfa %rbp, 16
	movq	%r13, %rdi
	movq	%r14, %rsi
	movq	%rbx, %rdx
	movl	%r12d, %ecx
	movl	%r15d, %r8d
	movl	%r11d, (%rsp)
	movq	%r10, 8(%rsp)
	callq	mainQSort3.8
	addq	$24, %rsp
	popq	%rbx
	popq	%r12
	popq	%r13
	popq	%r14
	popq	%r15
	popq	%rbp
	.cfi_def_cfa %rsp, 8
	retq
.LBB5_3:                                # %func_mainQSort3.9
	.cfi_def_cfa %rbp, 16
	movq	%r13, %rdi
	movq	%r14, %rsi
	movq	%rbx, %rdx
	movl	%r12d, %ecx
	movl	%r15d, %r8d
	movl	%r11d, (%rsp)
	movq	%r10, 8(%rsp)
	callq	mainQSort3.9
	addq	$24, %rsp
	popq	%rbx
	popq	%r12
	popq	%r13
	popq	%r14
	popq	%r15
	popq	%rbp
	.cfi_def_cfa %rsp, 8
	retq
.LBB5_4:                                # %func_mainQSort3.12
	.cfi_def_cfa %rbp, 16
	movq	%r13, %rdi
	movq	%r14, %rsi
	movq	%rbx, %rdx
	movl	%r12d, %ecx
	movl	%r15d, %r8d
	movl	%r11d, (%rsp)
	movq	%r10, 8(%rsp)
	callq	mainQSort3.12
	addq	$24, %rsp
	popq	%rbx
	popq	%r12
	popq	%r13
	popq	%r14
	popq	%r15
	popq	%rbp
	.cfi_def_cfa %rsp, 8
	retq
.LBB5_5:                                # %func_mainQSort3.22
	.cfi_def_cfa %rbp, 16
	movq	%r13, %rdi
	movq	%r14, %rsi
	movq	%rbx, %rdx
	movl	%r12d, %ecx
	movl	%r15d, %r8d
	movl	%r11d, (%rsp)
	movq	%r10, 8(%rsp)
	callq	mainQSort3.22
	addq	$24, %rsp
	popq	%rbx
	popq	%r12
	popq	%r13
	popq	%r14
	popq	%r15
	popq	%rbp
	.cfi_def_cfa %rsp, 8
	retq
.LBB5_6:                                # %func_mainQSort3.36
	.cfi_def_cfa %rbp, 16
	movq	%r13, %rdi
	movq	%r14, %rsi
	movq	%rbx, %rdx
	movl	%r12d, %ecx
	movl	%r15d, %r8d
	movl	%r11d, (%rsp)
	movq	%r10, 8(%rsp)
	callq	mainQSort3.36
	addq	$24, %rsp
	popq	%rbx
	popq	%r12
	popq	%r13
	popq	%r14
	popq	%r15
	popq	%rbp
	.cfi_def_cfa %rsp, 8
	retq
.LBB5_7:                                # %func_mainQSort3.54
	.cfi_def_cfa %rbp, 16
	movl	%r11d, (%rsp)
	movq	%r10, 8(%rsp)
	callq	mainQSort3.54
	addq	$24, %rsp
	popq	%rbx
	popq	%r12
	popq	%r13
	popq	%r14
	popq	%r15
	popq	%rbp
	.cfi_def_cfa %rsp, 8
	retq
.LBB5_8:                                # %func_mainQSort3.59
	.cfi_def_cfa %rbp, 16
	movl	%r11d, (%rsp)
	movq	%r10, 8(%rsp)
	callq	mainQSort3.59
	addq	$24, %rsp
	popq	%rbx
	popq	%r12
	popq	%r13
	popq	%r14
	popq	%r15
	popq	%rbp
	.cfi_def_cfa %rsp, 8
	retq
.LBB5_9:                                # %ctrl0
	.cfi_def_cfa %rbp, 16
	movl	-44(%rbp), %r9d         # 4-byte Reload
	movl	16(%rbp), %r11d
	movq	24(%rbp), %r10
	cmpl	$1, %eax
	je	.LBB5_2
# %bb.10:                               # %ctrl1
	cmpl	$2, %eax
	je	.LBB5_3
# %bb.11:                               # %ctrl2
	cmpl	$3, %eax
	je	.LBB5_4
# %bb.12:                               # %ctrl3
	cmpl	$4, %eax
	je	.LBB5_5
# %bb.13:                               # %ctrl4
	cmpl	$5, %eax
	je	.LBB5_6
# %bb.14:                               # %ctrl5
	cmpl	$6, %eax
	movl	%r15d, %r8d
	movl	%r12d, %ecx
	movq	%rbx, %rdx
	movq	%r14, %rsi
	movq	%r13, %rdi
	je	.LBB5_7
	jmp	.LBB5_8
.Lfunc_end5:
	.size	mainQSort3, .Lfunc_end5-mainQSort3
	.cfi_endproc
                                        # -- End function
	.p2align	4, 0x90         # -- Begin function mainSimpleSort
	.type	mainSimpleSort,@function
mainSimpleSort:                         # @mainSimpleSort
	.cfi_startproc
# %bb.0:                                # %rand_bb
	pushq	%rbp
	.cfi_def_cfa_offset 16
	.cfi_offset %rbp, -16
	movq	%rsp, %rbp
	.cfi_def_cfa_register %rbp
	pushq	%r15
	pushq	%r14
	pushq	%r13
	pushq	%r12
	pushq	%rbx
	subq	$24, %rsp
	.cfi_offset %rbx, -56
	.cfi_offset %r12, -48
	.cfi_offset %r13, -40
	.cfi_offset %r14, -32
	.cfi_offset %r15, -24
	movl	%r9d, -44(%rbp)         # 4-byte Spill
	movl	%r8d, %r15d
	movl	%ecx, %r12d
	movq	%rdx, %rbx
	movq	%rsi, %r14
	movq	%rdi, %r13
	callq	get_rand
	cmpl	$0, %eax
	jne	.LBB6_9
# %bb.1:                                # %func_mainSimpleSort.1
	movq	%r13, %rdi
	movq	%r14, %rsi
	movq	%rbx, %rdx
	movl	%r12d, %ecx
	movl	%r15d, %r8d
	movl	-44(%rbp), %r9d         # 4-byte Reload
	movl	16(%rbp), %eax
	movl	%eax, (%rsp)
	movq	24(%rbp), %rax
	movq	%rax, 8(%rsp)
	callq	mainSimpleSort.1
	addq	$24, %rsp
	popq	%rbx
	popq	%r12
	popq	%r13
	popq	%r14
	popq	%r15
	popq	%rbp
	.cfi_def_cfa %rsp, 8
	retq
.LBB6_2:                                # %func_mainSimpleSort.5
	.cfi_def_cfa %rbp, 16
	movq	%r13, %rdi
	movq	%r14, %rsi
	movq	%rbx, %rdx
	movl	%r12d, %ecx
	movl	%r15d, %r8d
	movl	%r11d, (%rsp)
	movq	%r10, 8(%rsp)
	callq	mainSimpleSort.5
	addq	$24, %rsp
	popq	%rbx
	popq	%r12
	popq	%r13
	popq	%r14
	popq	%r15
	popq	%rbp
	.cfi_def_cfa %rsp, 8
	retq
.LBB6_3:                                # %func_mainSimpleSort.32
	.cfi_def_cfa %rbp, 16
	movq	%r13, %rdi
	movq	%r14, %rsi
	movq	%rbx, %rdx
	movl	%r12d, %ecx
	movl	%r15d, %r8d
	movl	%r11d, (%rsp)
	movq	%r10, 8(%rsp)
	callq	mainSimpleSort.32
	addq	$24, %rsp
	popq	%rbx
	popq	%r12
	popq	%r13
	popq	%r14
	popq	%r15
	popq	%rbp
	.cfi_def_cfa %rsp, 8
	retq
.LBB6_4:                                # %func_mainSimpleSort.38
	.cfi_def_cfa %rbp, 16
	movq	%r13, %rdi
	movq	%r14, %rsi
	movq	%rbx, %rdx
	movl	%r12d, %ecx
	movl	%r15d, %r8d
	movl	%r11d, (%rsp)
	movq	%r10, 8(%rsp)
	callq	mainSimpleSort.38
	addq	$24, %rsp
	popq	%rbx
	popq	%r12
	popq	%r13
	popq	%r14
	popq	%r15
	popq	%rbp
	.cfi_def_cfa %rsp, 8
	retq
.LBB6_5:                                # %func_mainSimpleSort.40
	.cfi_def_cfa %rbp, 16
	movq	%r13, %rdi
	movq	%r14, %rsi
	movq	%rbx, %rdx
	movl	%r12d, %ecx
	movl	%r15d, %r8d
	movl	%r11d, (%rsp)
	movq	%r10, 8(%rsp)
	callq	mainSimpleSort.40
	addq	$24, %rsp
	popq	%rbx
	popq	%r12
	popq	%r13
	popq	%r14
	popq	%r15
	popq	%rbp
	.cfi_def_cfa %rsp, 8
	retq
.LBB6_6:                                # %func_mainSimpleSort.44
	.cfi_def_cfa %rbp, 16
	movq	%r13, %rdi
	movq	%r14, %rsi
	movq	%rbx, %rdx
	movl	%r12d, %ecx
	movl	%r15d, %r8d
	movl	%r11d, (%rsp)
	movq	%r10, 8(%rsp)
	callq	mainSimpleSort.44
	addq	$24, %rsp
	popq	%rbx
	popq	%r12
	popq	%r13
	popq	%r14
	popq	%r15
	popq	%rbp
	.cfi_def_cfa %rsp, 8
	retq
.LBB6_7:                                # %func_mainSimpleSort.56
	.cfi_def_cfa %rbp, 16
	movl	%r11d, (%rsp)
	movq	%r10, 8(%rsp)
	callq	mainSimpleSort.56
	addq	$24, %rsp
	popq	%rbx
	popq	%r12
	popq	%r13
	popq	%r14
	popq	%r15
	popq	%rbp
	.cfi_def_cfa %rsp, 8
	retq
.LBB6_8:                                # %func_mainSimpleSort.69
	.cfi_def_cfa %rbp, 16
	movl	%r11d, (%rsp)
	movq	%r10, 8(%rsp)
	callq	mainSimpleSort.69
	addq	$24, %rsp
	popq	%rbx
	popq	%r12
	popq	%r13
	popq	%r14
	popq	%r15
	popq	%rbp
	.cfi_def_cfa %rsp, 8
	retq
.LBB6_9:                                # %ctrl0
	.cfi_def_cfa %rbp, 16
	movl	-44(%rbp), %r9d         # 4-byte Reload
	movl	16(%rbp), %r11d
	movq	24(%rbp), %r10
	cmpl	$1, %eax
	je	.LBB6_2
# %bb.10:                               # %ctrl1
	cmpl	$2, %eax
	je	.LBB6_3
# %bb.11:                               # %ctrl2
	cmpl	$3, %eax
	je	.LBB6_4
# %bb.12:                               # %ctrl3
	cmpl	$4, %eax
	je	.LBB6_5
# %bb.13:                               # %ctrl4
	cmpl	$5, %eax
	je	.LBB6_6
# %bb.14:                               # %ctrl5
	cmpl	$6, %eax
	movl	%r15d, %r8d
	movl	%r12d, %ecx
	movq	%rbx, %rdx
	movq	%r14, %rsi
	movq	%r13, %rdi
	je	.LBB6_7
	jmp	.LBB6_8
.Lfunc_end6:
	.size	mainSimpleSort, .Lfunc_end6-mainSimpleSort
	.cfi_endproc
                                        # -- End function
	.p2align	4, 0x90         # -- Begin function mmed3
	.type	mmed3,@function
mmed3:                                  # @mmed3
	.cfi_startproc
# %bb.0:                                # %rand_bb
	pushq	%rbp
	.cfi_def_cfa_offset 16
	.cfi_offset %rbp, -16
	movq	%rsp, %rbp
	.cfi_def_cfa_register %rbp
	pushq	%r15
	pushq	%r14
	pushq	%rbx
	pushq	%rax
	.cfi_offset %rbx, -40
	.cfi_offset %r14, -32
	.cfi_offset %r15, -24
	movl	%edx, %r14d
	movl	%esi, %r15d
	movl	%edi, %ebx
	callq	get_rand
	cmpl	$0, %eax
	jne	.LBB7_9
# %bb.1:                                # %func_mmed3.6
	movzbl	%bl, %edi
	movzbl	%r15b, %esi
	movzbl	%r14b, %edx
	callq	mmed3.6
	movzbl	%al, %eax
	addq	$8, %rsp
	popq	%rbx
	popq	%r14
	popq	%r15
	popq	%rbp
	.cfi_def_cfa %rsp, 8
	retq
.LBB7_2:                                # %func_mmed3.10
	.cfi_def_cfa %rbp, 16
	movzbl	%bl, %edi
	movzbl	%r15b, %esi
	movzbl	%r14b, %edx
	callq	mmed3.10
	movzbl	%al, %eax
	addq	$8, %rsp
	popq	%rbx
	popq	%r14
	popq	%r15
	popq	%rbp
	.cfi_def_cfa %rsp, 8
	retq
.LBB7_3:                                # %func_mmed3.15
	.cfi_def_cfa %rbp, 16
	movzbl	%bl, %edi
	movzbl	%r15b, %esi
	movzbl	%r14b, %edx
	callq	mmed3.15
	movzbl	%al, %eax
	addq	$8, %rsp
	popq	%rbx
	popq	%r14
	popq	%r15
	popq	%rbp
	.cfi_def_cfa %rsp, 8
	retq
.LBB7_4:                                # %func_mmed3.18
	.cfi_def_cfa %rbp, 16
	movzbl	%bl, %edi
	movzbl	%r15b, %esi
	movzbl	%r14b, %edx
	callq	mmed3.18
	movzbl	%al, %eax
	addq	$8, %rsp
	popq	%rbx
	popq	%r14
	popq	%r15
	popq	%rbp
	.cfi_def_cfa %rsp, 8
	retq
.LBB7_5:                                # %func_mmed3.24
	.cfi_def_cfa %rbp, 16
	movzbl	%bl, %edi
	movzbl	%r15b, %esi
	movzbl	%r14b, %edx
	callq	mmed3.24
	movzbl	%al, %eax
	addq	$8, %rsp
	popq	%rbx
	popq	%r14
	popq	%r15
	popq	%rbp
	.cfi_def_cfa %rsp, 8
	retq
.LBB7_6:                                # %func_mmed3.33
	.cfi_def_cfa %rbp, 16
	movzbl	%bl, %edi
	movzbl	%r15b, %esi
	movzbl	%r14b, %edx
	callq	mmed3.33
	movzbl	%al, %eax
	addq	$8, %rsp
	popq	%rbx
	popq	%r14
	popq	%r15
	popq	%rbp
	.cfi_def_cfa %rsp, 8
	retq
.LBB7_7:                                # %func_mmed3.35
	.cfi_def_cfa %rbp, 16
	movzbl	%bl, %edi
	movzbl	%r15b, %esi
	movzbl	%r14b, %edx
	callq	mmed3.35
	movzbl	%al, %eax
	addq	$8, %rsp
	popq	%rbx
	popq	%r14
	popq	%r15
	popq	%rbp
	.cfi_def_cfa %rsp, 8
	retq
.LBB7_8:                                # %func_mmed3.46
	.cfi_def_cfa %rbp, 16
	movzbl	%bl, %edi
	movzbl	%r15b, %esi
	movzbl	%r14b, %edx
	callq	mmed3.46
	movzbl	%al, %eax
	addq	$8, %rsp
	popq	%rbx
	popq	%r14
	popq	%r15
	popq	%rbp
	.cfi_def_cfa %rsp, 8
	retq
.LBB7_9:                                # %ctrl0
	.cfi_def_cfa %rbp, 16
	cmpl	$1, %eax
	je	.LBB7_2
# %bb.10:                               # %ctrl1
	cmpl	$2, %eax
	je	.LBB7_3
# %bb.11:                               # %ctrl2
	cmpl	$3, %eax
	je	.LBB7_4
# %bb.12:                               # %ctrl3
	cmpl	$4, %eax
	je	.LBB7_5
# %bb.13:                               # %ctrl4
	cmpl	$5, %eax
	je	.LBB7_6
# %bb.14:                               # %ctrl5
	cmpl	$6, %eax
	je	.LBB7_7
	jmp	.LBB7_8
.Lfunc_end7:
	.size	mmed3, .Lfunc_end7-mmed3
	.cfi_endproc
                                        # -- End function
	.p2align	4, 0x90         # -- Begin function mainGtU
	.type	mainGtU,@function
mainGtU:                                # @mainGtU
	.cfi_startproc
# %bb.0:                                # %rand_bb
	pushq	%rbp
	.cfi_def_cfa_offset 16
	.cfi_offset %rbp, -16
	movq	%rsp, %rbp
	.cfi_def_cfa_register %rbp
	pushq	%r15
	pushq	%r14
	pushq	%r13
	pushq	%r12
	pushq	%rbx
	pushq	%rax
	.cfi_offset %rbx, -56
	.cfi_offset %r12, -48
	.cfi_offset %r13, -40
	.cfi_offset %r14, -32
	.cfi_offset %r15, -24
	movq	%r9, -48(%rbp)          # 8-byte Spill
	movl	%r8d, %r12d
	movq	%rcx, %r13
	movq	%rdx, %rbx
	movl	%esi, %r14d
	movl	%edi, %r15d
	callq	get_rand
	cmpl	$0, %eax
	jne	.LBB8_9
# %bb.1:                                # %func_mainGtU.16
	movl	%r15d, %edi
	movl	%r14d, %esi
	movq	%rbx, %rdx
	movq	%r13, %rcx
	movl	%r12d, %r8d
	movq	-48(%rbp), %r9          # 8-byte Reload
	callq	mainGtU.16
	movzbl	%al, %eax
	addq	$8, %rsp
	popq	%rbx
	popq	%r12
	popq	%r13
	popq	%r14
	popq	%r15
	popq	%rbp
	.cfi_def_cfa %rsp, 8
	retq
.LBB8_2:                                # %func_mainGtU.23
	.cfi_def_cfa %rbp, 16
	movl	%r15d, %edi
	movl	%r14d, %esi
	movq	%rbx, %rdx
	movq	%r13, %rcx
	movl	%r12d, %r8d
	callq	mainGtU.23
	movzbl	%al, %eax
	addq	$8, %rsp
	popq	%rbx
	popq	%r12
	popq	%r13
	popq	%r14
	popq	%r15
	popq	%rbp
	.cfi_def_cfa %rsp, 8
	retq
.LBB8_3:                                # %func_mainGtU.25
	.cfi_def_cfa %rbp, 16
	movl	%r15d, %edi
	movl	%r14d, %esi
	movq	%rbx, %rdx
	movq	%r13, %rcx
	movl	%r12d, %r8d
	callq	mainGtU.25
	movzbl	%al, %eax
	addq	$8, %rsp
	popq	%rbx
	popq	%r12
	popq	%r13
	popq	%r14
	popq	%r15
	popq	%rbp
	.cfi_def_cfa %rsp, 8
	retq
.LBB8_4:                                # %func_mainGtU.39
	.cfi_def_cfa %rbp, 16
	movl	%r15d, %edi
	movl	%r14d, %esi
	movq	%rbx, %rdx
	movq	%r13, %rcx
	movl	%r12d, %r8d
	callq	mainGtU.39
	movzbl	%al, %eax
	addq	$8, %rsp
	popq	%rbx
	popq	%r12
	popq	%r13
	popq	%r14
	popq	%r15
	popq	%rbp
	.cfi_def_cfa %rsp, 8
	retq
.LBB8_5:                                # %func_mainGtU.45
	.cfi_def_cfa %rbp, 16
	movl	%r15d, %edi
	movl	%r14d, %esi
	movq	%rbx, %rdx
	movq	%r13, %rcx
	movl	%r12d, %r8d
	callq	mainGtU.45
	movzbl	%al, %eax
	addq	$8, %rsp
	popq	%rbx
	popq	%r12
	popq	%r13
	popq	%r14
	popq	%r15
	popq	%rbp
	.cfi_def_cfa %rsp, 8
	retq
.LBB8_6:                                # %func_mainGtU.65
	.cfi_def_cfa %rbp, 16
	movl	%r15d, %edi
	movl	%r14d, %esi
	movq	%rbx, %rdx
	movq	%r13, %rcx
	movl	%r12d, %r8d
	callq	mainGtU.65
	movzbl	%al, %eax
	addq	$8, %rsp
	popq	%rbx
	popq	%r12
	popq	%r13
	popq	%r14
	popq	%r15
	popq	%rbp
	.cfi_def_cfa %rsp, 8
	retq
.LBB8_7:                                # %func_mainGtU.68
	.cfi_def_cfa %rbp, 16
	callq	mainGtU.68
	movzbl	%al, %eax
	addq	$8, %rsp
	popq	%rbx
	popq	%r12
	popq	%r13
	popq	%r14
	popq	%r15
	popq	%rbp
	.cfi_def_cfa %rsp, 8
	retq
.LBB8_8:                                # %func_mainGtU.70
	.cfi_def_cfa %rbp, 16
	callq	mainGtU.70
	movzbl	%al, %eax
	addq	$8, %rsp
	popq	%rbx
	popq	%r12
	popq	%r13
	popq	%r14
	popq	%r15
	popq	%rbp
	.cfi_def_cfa %rsp, 8
	retq
.LBB8_9:                                # %ctrl0
	.cfi_def_cfa %rbp, 16
	movq	-48(%rbp), %r9          # 8-byte Reload
	cmpl	$1, %eax
	je	.LBB8_2
# %bb.10:                               # %ctrl1
	cmpl	$2, %eax
	je	.LBB8_3
# %bb.11:                               # %ctrl2
	cmpl	$3, %eax
	je	.LBB8_4
# %bb.12:                               # %ctrl3
	cmpl	$4, %eax
	je	.LBB8_5
# %bb.13:                               # %ctrl4
	cmpl	$5, %eax
	je	.LBB8_6
# %bb.14:                               # %ctrl5
	cmpl	$6, %eax
	movl	%r12d, %r8d
	movq	%r13, %rcx
	movq	%rbx, %rdx
	movl	%r14d, %esi
	movl	%r15d, %edi
	je	.LBB8_7
	jmp	.LBB8_8
.Lfunc_end8:
	.size	mainGtU, .Lfunc_end8-mainGtU
	.cfi_endproc
                                        # -- End function
	.p2align	4, 0x90         # -- Begin function mainSimpleSort.1
	.type	mainSimpleSort.1,@function
mainSimpleSort.1:                       # @mainSimpleSort.1
	.cfi_startproc
# %bb.0:                                # %entry
	pushq	%rbp
	.cfi_def_cfa_offset 16
	.cfi_offset %rbp, -16
	movq	%rsp, %rbp
	.cfi_def_cfa_register %rbp
	subq	$80, %rsp
	movq	24(%rbp), %rax
	movl	16(%rbp), %eax
	movl	$1415792084, -68(%rbp)  # imm = 0x546345D4
	movq	%rdi, -32(%rbp)
	movq	%rsi, -64(%rbp)
	movq	%rdx, -56(%rbp)
	movl	%ecx, -44(%rbp)
	movl	%r8d, -36(%rbp)
	movl	%r9d, -40(%rbp)
	movl	-40(%rbp), %eax
	subl	-36(%rbp), %eax
	addl	$1, %eax
	movl	%eax, -48(%rbp)
	cmpl	$2, -48(%rbp)
	jge	.LBB9_2
# %bb.1:                                # %if.then
	jmp	.LBB9_38
.LBB9_2:                                # %if.end
	movl	$0, -16(%rbp)
.LBB9_3:                                # %while.cond
                                        # =>This Inner Loop Header: Depth=1
	movslq	-16(%rbp), %rax
	movl	incs(,%rax,4), %eax
	cmpl	-48(%rbp), %eax
	jge	.LBB9_5
# %bb.4:                                # %while.body
                                        #   in Loop: Header=BB9_3 Depth=1
	movl	-16(%rbp), %eax
	addl	$1, %eax
	movl	%eax, -16(%rbp)
	jmp	.LBB9_3
.LBB9_5:                                # %while.end
	movl	-16(%rbp), %eax
	addl	$-1, %eax
	movl	%eax, -16(%rbp)
.LBB9_6:                                # %for.cond
                                        # =>This Loop Header: Depth=1
                                        #     Child Loop BB9_8 Depth 2
                                        #       Child Loop BB9_11 Depth 3
                                        #       Child Loop BB9_19 Depth 3
                                        #       Child Loop BB9_27 Depth 3
	cmpl	$0, -16(%rbp)
	jl	.LBB9_37
# %bb.7:                                # %for.body
                                        #   in Loop: Header=BB9_6 Depth=1
	movslq	-16(%rbp), %rax
	movl	incs(,%rax,4), %eax
	movl	%eax, -12(%rbp)
	movl	-36(%rbp), %eax
	addl	-12(%rbp), %eax
	movl	%eax, -8(%rbp)
.LBB9_8:                                # %while.body7
                                        #   Parent Loop BB9_6 Depth=1
                                        # =>  This Loop Header: Depth=2
                                        #       Child Loop BB9_11 Depth 3
                                        #       Child Loop BB9_19 Depth 3
                                        #       Child Loop BB9_27 Depth 3
	movl	-8(%rbp), %eax
	cmpl	-40(%rbp), %eax
	jle	.LBB9_10
# %bb.9:                                # %if.then9
                                        #   in Loop: Header=BB9_6 Depth=1
	jmp	.LBB9_35
.LBB9_10:                               # %if.end10
                                        #   in Loop: Header=BB9_8 Depth=2
	movq	-32(%rbp), %rax
	movslq	-8(%rbp), %rcx
	movl	(%rax,%rcx,4), %eax
	movl	%eax, -20(%rbp)
	movl	-8(%rbp), %eax
	movl	%eax, -4(%rbp)
.LBB9_11:                               # %while.cond13
                                        #   Parent Loop BB9_6 Depth=1
                                        #     Parent Loop BB9_8 Depth=2
                                        # =>    This Inner Loop Header: Depth=3
	movq	-32(%rbp), %rax
	movl	-4(%rbp), %ecx
	subl	-12(%rbp), %ecx
	movslq	%ecx, %rcx
	movl	(%rax,%rcx,4), %edi
	addl	16(%rbp), %edi
	movl	-20(%rbp), %esi
	addl	16(%rbp), %esi
	movq	-64(%rbp), %rdx
	movq	-56(%rbp), %rcx
	movl	-44(%rbp), %r8d
	movq	24(%rbp), %r9
	callq	mainGtU
	cmpb	$0, %al
	je	.LBB9_15
# %bb.12:                               # %while.body19
                                        #   in Loop: Header=BB9_11 Depth=3
	movq	-32(%rbp), %rax
	movl	-4(%rbp), %ecx
	subl	-12(%rbp), %ecx
	movslq	%ecx, %rcx
	movl	(%rax,%rcx,4), %eax
	movq	-32(%rbp), %rcx
	movslq	-4(%rbp), %rdx
	movl	%eax, (%rcx,%rdx,4)
	movl	-4(%rbp), %eax
	subl	-12(%rbp), %eax
	movl	%eax, -4(%rbp)
	movl	-4(%rbp), %eax
	movl	-36(%rbp), %ecx
	addl	-12(%rbp), %ecx
	subl	$1, %ecx
	cmpl	%ecx, %eax
	jg	.LBB9_14
# %bb.13:                               # %if.then29
                                        #   in Loop: Header=BB9_8 Depth=2
	jmp	.LBB9_16
.LBB9_14:                               # %if.end30
                                        #   in Loop: Header=BB9_11 Depth=3
	jmp	.LBB9_11
.LBB9_15:                               # %while.end31.loopexit
                                        #   in Loop: Header=BB9_8 Depth=2
	jmp	.LBB9_16
.LBB9_16:                               # %while.end31
                                        #   in Loop: Header=BB9_8 Depth=2
	movl	-20(%rbp), %eax
	movq	-32(%rbp), %rcx
	movslq	-4(%rbp), %rdx
	movl	%eax, (%rcx,%rdx,4)
	movl	-8(%rbp), %eax
	addl	$1, %eax
	movl	%eax, -8(%rbp)
	movl	-8(%rbp), %eax
	cmpl	-40(%rbp), %eax
	jle	.LBB9_18
# %bb.17:                               # %if.then36
                                        #   in Loop: Header=BB9_6 Depth=1
	jmp	.LBB9_35
.LBB9_18:                               # %if.end37
                                        #   in Loop: Header=BB9_8 Depth=2
	movq	-32(%rbp), %rax
	movslq	-8(%rbp), %rcx
	movl	(%rax,%rcx,4), %eax
	movl	%eax, -20(%rbp)
	movl	-8(%rbp), %eax
	movl	%eax, -4(%rbp)
.LBB9_19:                               # %while.cond40
                                        #   Parent Loop BB9_6 Depth=1
                                        #     Parent Loop BB9_8 Depth=2
                                        # =>    This Inner Loop Header: Depth=3
	movq	-32(%rbp), %rax
	movl	-4(%rbp), %ecx
	subl	-12(%rbp), %ecx
	movslq	%ecx, %rcx
	movl	(%rax,%rcx,4), %edi
	addl	16(%rbp), %edi
	movl	-20(%rbp), %esi
	addl	16(%rbp), %esi
	movq	-64(%rbp), %rdx
	movq	-56(%rbp), %rcx
	movl	-44(%rbp), %r8d
	movq	24(%rbp), %r9
	callq	mainGtU
	cmpb	$0, %al
	je	.LBB9_23
# %bb.20:                               # %while.body48
                                        #   in Loop: Header=BB9_19 Depth=3
	movq	-32(%rbp), %rax
	movl	-4(%rbp), %ecx
	subl	-12(%rbp), %ecx
	movslq	%ecx, %rcx
	movl	(%rax,%rcx,4), %eax
	movq	-32(%rbp), %rcx
	movslq	-4(%rbp), %rdx
	movl	%eax, (%rcx,%rdx,4)
	movl	-4(%rbp), %eax
	subl	-12(%rbp), %eax
	movl	%eax, -4(%rbp)
	movl	-4(%rbp), %eax
	movl	-36(%rbp), %ecx
	addl	-12(%rbp), %ecx
	subl	$1, %ecx
	cmpl	%ecx, %eax
	jg	.LBB9_22
# %bb.21:                               # %if.then58
                                        #   in Loop: Header=BB9_8 Depth=2
	jmp	.LBB9_24
.LBB9_22:                               # %if.end59
                                        #   in Loop: Header=BB9_19 Depth=3
	jmp	.LBB9_19
.LBB9_23:                               # %while.end60.loopexit
                                        #   in Loop: Header=BB9_8 Depth=2
	jmp	.LBB9_24
.LBB9_24:                               # %while.end60
                                        #   in Loop: Header=BB9_8 Depth=2
	movl	-20(%rbp), %eax
	movq	-32(%rbp), %rcx
	movslq	-4(%rbp), %rdx
	movl	%eax, (%rcx,%rdx,4)
	movl	-8(%rbp), %eax
	addl	$1, %eax
	movl	%eax, -8(%rbp)
	movl	-8(%rbp), %eax
	cmpl	-40(%rbp), %eax
	jle	.LBB9_26
# %bb.25:                               # %if.then65
                                        #   in Loop: Header=BB9_6 Depth=1
	jmp	.LBB9_35
.LBB9_26:                               # %if.end66
                                        #   in Loop: Header=BB9_8 Depth=2
	movq	-32(%rbp), %rax
	movslq	-8(%rbp), %rcx
	movl	(%rax,%rcx,4), %eax
	movl	%eax, -20(%rbp)
	movl	-8(%rbp), %eax
	movl	%eax, -4(%rbp)
.LBB9_27:                               # %while.cond69
                                        #   Parent Loop BB9_6 Depth=1
                                        #     Parent Loop BB9_8 Depth=2
                                        # =>    This Inner Loop Header: Depth=3
	movq	-32(%rbp), %rax
	movl	-4(%rbp), %ecx
	subl	-12(%rbp), %ecx
	movslq	%ecx, %rcx
	movl	(%rax,%rcx,4), %edi
	addl	16(%rbp), %edi
	movl	-20(%rbp), %esi
	addl	16(%rbp), %esi
	movq	-64(%rbp), %rdx
	movq	-56(%rbp), %rcx
	movl	-44(%rbp), %r8d
	movq	24(%rbp), %r9
	callq	mainGtU
	cmpb	$0, %al
	je	.LBB9_31
# %bb.28:                               # %while.body77
                                        #   in Loop: Header=BB9_27 Depth=3
	movq	-32(%rbp), %rax
	movl	-4(%rbp), %ecx
	subl	-12(%rbp), %ecx
	movslq	%ecx, %rcx
	movl	(%rax,%rcx,4), %eax
	movq	-32(%rbp), %rcx
	movslq	-4(%rbp), %rdx
	movl	%eax, (%rcx,%rdx,4)
	movl	-4(%rbp), %eax
	subl	-12(%rbp), %eax
	movl	%eax, -4(%rbp)
	movl	-4(%rbp), %eax
	movl	-36(%rbp), %ecx
	addl	-12(%rbp), %ecx
	subl	$1, %ecx
	cmpl	%ecx, %eax
	jg	.LBB9_30
# %bb.29:                               # %if.then87
                                        #   in Loop: Header=BB9_8 Depth=2
	jmp	.LBB9_32
.LBB9_30:                               # %if.end88
                                        #   in Loop: Header=BB9_27 Depth=3
	jmp	.LBB9_27
.LBB9_31:                               # %while.end89.loopexit
                                        #   in Loop: Header=BB9_8 Depth=2
	jmp	.LBB9_32
.LBB9_32:                               # %while.end89
                                        #   in Loop: Header=BB9_8 Depth=2
	movl	-20(%rbp), %eax
	movq	-32(%rbp), %rcx
	movslq	-4(%rbp), %rdx
	movl	%eax, (%rcx,%rdx,4)
	movl	-8(%rbp), %eax
	addl	$1, %eax
	movl	%eax, -8(%rbp)
	movq	24(%rbp), %rax
	cmpl	$0, (%rax)
	jge	.LBB9_34
# %bb.33:                               # %if.then94
	jmp	.LBB9_38
.LBB9_34:                               # %if.end95
                                        #   in Loop: Header=BB9_8 Depth=2
	jmp	.LBB9_8
.LBB9_35:                               # %while.end96
                                        #   in Loop: Header=BB9_6 Depth=1
	jmp	.LBB9_36
.LBB9_36:                               # %for.inc
                                        #   in Loop: Header=BB9_6 Depth=1
	movl	-16(%rbp), %eax
	addl	$-1, %eax
	movl	%eax, -16(%rbp)
	jmp	.LBB9_6
.LBB9_37:                               # %for.end.loopexit
	jmp	.LBB9_38
.LBB9_38:                               # %for.end
	cmpl	$1415792084, -68(%rbp)  # imm = 0x546345D4
	jne	.LBB9_40
.LBB9_39:
	addq	$80, %rsp
	popq	%rbp
	.cfi_def_cfa %rsp, 8
	retq
.LBB9_40:                               # %func_exit
	.cfi_def_cfa %rbp, 16
	callq	detect_breach
	jmp	.LBB9_39
.Lfunc_end9:
	.size	mainSimpleSort.1, .Lfunc_end9-mainSimpleSort.1
	.cfi_endproc
                                        # -- End function
	.p2align	4, 0x90         # -- Begin function mainQSort3.2
	.type	mainQSort3.2,@function
mainQSort3.2:                           # @mainQSort3.2
	.cfi_startproc
# %bb.0:                                # %entry
	pushq	%rbp
	.cfi_def_cfa_offset 16
	.cfi_offset %rbp, -16
	movq	%rsp, %rbp
	.cfi_def_cfa_register %rbp
	subq	$1408, %rsp             # imm = 0x580
	movq	24(%rbp), %rax
	movl	16(%rbp), %eax
	movl	$1061181155, -164(%rbp) # imm = 0x3F4056E3
	movq	%rdi, -24(%rbp)
	movq	%rsi, -136(%rbp)
	movq	%rdx, -184(%rbp)
	movl	%ecx, -148(%rbp)
	movl	%r8d, -176(%rbp)
	movl	%r9d, -168(%rbp)
	movl	$0, -4(%rbp)
	movl	-176(%rbp), %eax
	movslq	-4(%rbp), %rcx
	movl	%eax, -992(%rbp,%rcx,4)
	movl	-168(%rbp), %eax
	movslq	-4(%rbp), %rcx
	movl	%eax, -592(%rbp,%rcx,4)
	movl	16(%rbp), %eax
	movslq	-4(%rbp), %rcx
	movl	%eax, -1392(%rbp,%rcx,4)
	movl	-4(%rbp), %eax
	addl	$1, %eax
	movl	%eax, -4(%rbp)
.LBB10_1:                               # %while.cond
                                        # =>This Loop Header: Depth=1
                                        #     Child Loop BB10_11 Depth 2
                                        #       Child Loop BB10_12 Depth 3
                                        #       Child Loop BB10_21 Depth 3
                                        #     Child Loop BB10_38 Depth 2
                                        #     Child Loop BB10_44 Depth 2
	cmpl	$0, -4(%rbp)
	jle	.LBB10_53
# %bb.2:                                # %while.body
                                        #   in Loop: Header=BB10_1 Depth=1
	cmpl	$100, -4(%rbp)
	jl	.LBB10_4
# %bb.3:                                # %if.then
                                        #   in Loop: Header=BB10_1 Depth=1
	movl	$1001, %edi             # imm = 0x3E9
	callq	BZ2_bz__AssertH__fail
.LBB10_4:                               # %if.end
                                        #   in Loop: Header=BB10_1 Depth=1
	movl	-4(%rbp), %eax
	addl	$-1, %eax
	movl	%eax, -4(%rbp)
	movslq	-4(%rbp), %rax
	movl	-992(%rbp,%rax,4), %eax
	movl	%eax, -36(%rbp)
	movslq	-4(%rbp), %rax
	movl	-592(%rbp,%rax,4), %eax
	movl	%eax, -28(%rbp)
	movslq	-4(%rbp), %rax
	movl	-1392(%rbp,%rax,4), %eax
	movl	%eax, -40(%rbp)
	movl	-28(%rbp), %eax
	subl	-36(%rbp), %eax
	cmpl	$20, %eax
	jl	.LBB10_6
# %bb.5:                                # %lor.lhs.false
                                        #   in Loop: Header=BB10_1 Depth=1
	cmpl	$14, -40(%rbp)
	jle	.LBB10_10
.LBB10_6:                               # %if.then14
                                        #   in Loop: Header=BB10_1 Depth=1
	movq	-24(%rbp), %rdi
	movq	-136(%rbp), %rsi
	movq	-184(%rbp), %rdx
	movl	-148(%rbp), %ecx
	movl	-36(%rbp), %r8d
	movl	-28(%rbp), %r9d
	movl	-40(%rbp), %eax
	movq	24(%rbp), %r10
	movl	%eax, (%rsp)
	movq	%r10, 8(%rsp)
	callq	mainSimpleSort
	movq	24(%rbp), %rax
	cmpl	$0, (%rax)
	jge	.LBB10_8
# %bb.7:                                # %if.then16
	jmp	.LBB10_54
.LBB10_8:                               # %if.end17
                                        #   in Loop: Header=BB10_1 Depth=1
	jmp	.LBB10_9
.LBB10_9:                               # %while.cond.backedge
                                        #   in Loop: Header=BB10_1 Depth=1
	jmp	.LBB10_1
.LBB10_10:                              # %if.end18
                                        #   in Loop: Header=BB10_1 Depth=1
	movq	-136(%rbp), %rax
	movq	-24(%rbp), %rcx
	movslq	-36(%rbp), %rdx
	movl	(%rcx,%rdx,4), %ecx
	addl	-40(%rbp), %ecx
	movl	%ecx, %ecx
	movb	(%rax,%rcx), %r8b
	movq	-136(%rbp), %rcx
	movq	-24(%rbp), %rdx
	movslq	-28(%rbp), %rsi
	movl	(%rdx,%rsi,4), %edx
	addl	-40(%rbp), %edx
	movl	%edx, %edx
	movb	(%rcx,%rdx), %cl
	movq	-136(%rbp), %rdx
	movq	-24(%rbp), %rsi
	movl	-36(%rbp), %edi
	addl	-28(%rbp), %edi
	sarl	$1, %edi
	movslq	%edi, %rdi
	movl	(%rsi,%rdi,4), %esi
	addl	-40(%rbp), %esi
	movl	%esi, %eax
	movzbl	%r8b, %edi
	movzbl	%cl, %esi
	movzbl	(%rdx,%rax), %edx
	callq	mmed3
	movzbl	%al, %eax
	movl	%eax, -140(%rbp)
	movl	-36(%rbp), %eax
	movl	%eax, -44(%rbp)
	movl	%eax, -8(%rbp)
	movl	-28(%rbp), %eax
	movl	%eax, -48(%rbp)
	movl	%eax, -12(%rbp)
.LBB10_11:                              # %while.body35
                                        #   Parent Loop BB10_1 Depth=1
                                        # =>  This Loop Header: Depth=2
                                        #       Child Loop BB10_12 Depth 3
                                        #       Child Loop BB10_21 Depth 3
	jmp	.LBB10_12
.LBB10_12:                              # %while.body37
                                        #   Parent Loop BB10_1 Depth=1
                                        #     Parent Loop BB10_11 Depth=2
                                        # =>    This Inner Loop Header: Depth=3
	movl	-8(%rbp), %eax
	cmpl	-12(%rbp), %eax
	jle	.LBB10_14
# %bb.13:                               # %if.then40
                                        #   in Loop: Header=BB10_11 Depth=2
	jmp	.LBB10_20
.LBB10_14:                              # %if.end41
                                        #   in Loop: Header=BB10_12 Depth=3
	movq	-136(%rbp), %rax
	movq	-24(%rbp), %rcx
	movslq	-8(%rbp), %rdx
	movl	(%rcx,%rdx,4), %ecx
	addl	-40(%rbp), %ecx
	movl	%ecx, %ecx
	movzbl	(%rax,%rcx), %eax
	subl	-140(%rbp), %eax
	movl	%eax, -32(%rbp)
	cmpl	$0, -32(%rbp)
	jne	.LBB10_17
# %bb.15:                               # %if.then51
                                        #   in Loop: Header=BB10_12 Depth=3
	movq	-24(%rbp), %rax
	movslq	-8(%rbp), %rcx
	movl	(%rax,%rcx,4), %eax
	movl	%eax, -156(%rbp)
	movq	-24(%rbp), %rax
	movslq	-44(%rbp), %rcx
	movl	(%rax,%rcx,4), %eax
	movq	-24(%rbp), %rcx
	movslq	-8(%rbp), %rdx
	movl	%eax, (%rcx,%rdx,4)
	movl	-156(%rbp), %eax
	movq	-24(%rbp), %rcx
	movslq	-44(%rbp), %rdx
	movl	%eax, (%rcx,%rdx,4)
	movl	-44(%rbp), %eax
	addl	$1, %eax
	movl	%eax, -44(%rbp)
	movl	-8(%rbp), %eax
	addl	$1, %eax
	movl	%eax, -8(%rbp)
.LBB10_16:                              # %while.body37.backedge
                                        #   in Loop: Header=BB10_12 Depth=3
	jmp	.LBB10_12
.LBB10_17:                              # %if.end62
                                        #   in Loop: Header=BB10_12 Depth=3
	cmpl	$0, -32(%rbp)
	jle	.LBB10_19
# %bb.18:                               # %if.then65
                                        #   in Loop: Header=BB10_11 Depth=2
	jmp	.LBB10_20
.LBB10_19:                              # %if.end66
                                        #   in Loop: Header=BB10_12 Depth=3
	movl	-8(%rbp), %eax
	addl	$1, %eax
	movl	%eax, -8(%rbp)
	jmp	.LBB10_16
.LBB10_20:                              # %while.end
                                        #   in Loop: Header=BB10_11 Depth=2
	jmp	.LBB10_21
.LBB10_21:                              # %while.body69
                                        #   Parent Loop BB10_1 Depth=1
                                        #     Parent Loop BB10_11 Depth=2
                                        # =>    This Inner Loop Header: Depth=3
	movl	-8(%rbp), %eax
	cmpl	-12(%rbp), %eax
	jle	.LBB10_23
# %bb.22:                               # %if.then72
                                        #   in Loop: Header=BB10_11 Depth=2
	jmp	.LBB10_29
.LBB10_23:                              # %if.end73
                                        #   in Loop: Header=BB10_21 Depth=3
	movq	-136(%rbp), %rax
	movq	-24(%rbp), %rcx
	movslq	-12(%rbp), %rdx
	movl	(%rcx,%rdx,4), %ecx
	addl	-40(%rbp), %ecx
	movl	%ecx, %ecx
	movzbl	(%rax,%rcx), %eax
	subl	-140(%rbp), %eax
	movl	%eax, -32(%rbp)
	cmpl	$0, -32(%rbp)
	jne	.LBB10_26
# %bb.24:                               # %if.then83
                                        #   in Loop: Header=BB10_21 Depth=3
	movq	-24(%rbp), %rax
	movslq	-12(%rbp), %rcx
	movl	(%rax,%rcx,4), %eax
	movl	%eax, -160(%rbp)
	movq	-24(%rbp), %rax
	movslq	-48(%rbp), %rcx
	movl	(%rax,%rcx,4), %eax
	movq	-24(%rbp), %rcx
	movslq	-12(%rbp), %rdx
	movl	%eax, (%rcx,%rdx,4)
	movl	-160(%rbp), %eax
	movq	-24(%rbp), %rcx
	movslq	-48(%rbp), %rdx
	movl	%eax, (%rcx,%rdx,4)
	movl	-48(%rbp), %eax
	addl	$-1, %eax
	movl	%eax, -48(%rbp)
	movl	-12(%rbp), %eax
	addl	$-1, %eax
	movl	%eax, -12(%rbp)
.LBB10_25:                              # %while.body69.backedge
                                        #   in Loop: Header=BB10_21 Depth=3
	jmp	.LBB10_21
.LBB10_26:                              # %if.end95
                                        #   in Loop: Header=BB10_21 Depth=3
	cmpl	$0, -32(%rbp)
	jge	.LBB10_28
# %bb.27:                               # %if.then98
                                        #   in Loop: Header=BB10_11 Depth=2
	jmp	.LBB10_29
.LBB10_28:                              # %if.end99
                                        #   in Loop: Header=BB10_21 Depth=3
	movl	-12(%rbp), %eax
	addl	$-1, %eax
	movl	%eax, -12(%rbp)
	jmp	.LBB10_25
.LBB10_29:                              # %while.end101
                                        #   in Loop: Header=BB10_11 Depth=2
	movl	-8(%rbp), %eax
	cmpl	-12(%rbp), %eax
	jle	.LBB10_31
# %bb.30:                               # %if.then104
                                        #   in Loop: Header=BB10_1 Depth=1
	jmp	.LBB10_32
.LBB10_31:                              # %if.end105
                                        #   in Loop: Header=BB10_11 Depth=2
	movq	-24(%rbp), %rax
	movslq	-8(%rbp), %rcx
	movl	(%rax,%rcx,4), %eax
	movl	%eax, -172(%rbp)
	movq	-24(%rbp), %rax
	movslq	-12(%rbp), %rcx
	movl	(%rax,%rcx,4), %eax
	movq	-24(%rbp), %rcx
	movslq	-8(%rbp), %rdx
	movl	%eax, (%rcx,%rdx,4)
	movl	-172(%rbp), %eax
	movq	-24(%rbp), %rcx
	movslq	-12(%rbp), %rdx
	movl	%eax, (%rcx,%rdx,4)
	movl	-8(%rbp), %eax
	addl	$1, %eax
	movl	%eax, -8(%rbp)
	movl	-12(%rbp), %eax
	addl	$-1, %eax
	movl	%eax, -12(%rbp)
	jmp	.LBB10_11
.LBB10_32:                              # %while.end117
                                        #   in Loop: Header=BB10_1 Depth=1
	movl	-48(%rbp), %eax
	cmpl	-44(%rbp), %eax
	jge	.LBB10_34
# %bb.33:                               # %if.then120
                                        #   in Loop: Header=BB10_1 Depth=1
	movl	-36(%rbp), %eax
	movslq	-4(%rbp), %rcx
	movl	%eax, -992(%rbp,%rcx,4)
	movl	-28(%rbp), %eax
	movslq	-4(%rbp), %rcx
	movl	%eax, -592(%rbp,%rcx,4)
	movl	-40(%rbp), %eax
	addl	$1, %eax
	movslq	-4(%rbp), %rcx
	movl	%eax, -1392(%rbp,%rcx,4)
	movl	-4(%rbp), %eax
	addl	$1, %eax
	movl	%eax, -4(%rbp)
	jmp	.LBB10_9
.LBB10_34:                              # %if.end129
                                        #   in Loop: Header=BB10_1 Depth=1
	movl	-44(%rbp), %eax
	subl	-36(%rbp), %eax
	movl	-8(%rbp), %ecx
	subl	-44(%rbp), %ecx
	cmpl	%ecx, %eax
	jge	.LBB10_36
# %bb.35:                               # %cond.true
                                        #   in Loop: Header=BB10_1 Depth=1
	movl	-44(%rbp), %eax
	subl	-36(%rbp), %eax
	jmp	.LBB10_37
.LBB10_36:                              # %cond.false
                                        #   in Loop: Header=BB10_1 Depth=1
	movl	-8(%rbp), %eax
	subl	-44(%rbp), %eax
.LBB10_37:                              # %cond.end
                                        #   in Loop: Header=BB10_1 Depth=1
	movl	%eax, -32(%rbp)
	movl	-36(%rbp), %eax
	movl	%eax, -104(%rbp)
	movl	-8(%rbp), %eax
	subl	-32(%rbp), %eax
	movl	%eax, -112(%rbp)
	movl	-32(%rbp), %eax
	movl	%eax, -124(%rbp)
.LBB10_38:                              # %while.cond137
                                        #   Parent Loop BB10_1 Depth=1
                                        # =>  This Inner Loop Header: Depth=2
	cmpl	$0, -124(%rbp)
	jle	.LBB10_40
# %bb.39:                               # %while.body140
                                        #   in Loop: Header=BB10_38 Depth=2
	movq	-24(%rbp), %rax
	movslq	-104(%rbp), %rcx
	movl	(%rax,%rcx,4), %eax
	movl	%eax, -152(%rbp)
	movq	-24(%rbp), %rax
	movslq	-112(%rbp), %rcx
	movl	(%rax,%rcx,4), %eax
	movq	-24(%rbp), %rcx
	movslq	-104(%rbp), %rdx
	movl	%eax, (%rcx,%rdx,4)
	movl	-152(%rbp), %eax
	movq	-24(%rbp), %rcx
	movslq	-112(%rbp), %rdx
	movl	%eax, (%rcx,%rdx,4)
	movl	-104(%rbp), %eax
	addl	$1, %eax
	movl	%eax, -104(%rbp)
	movl	-112(%rbp), %eax
	addl	$1, %eax
	movl	%eax, -112(%rbp)
	movl	-124(%rbp), %eax
	addl	$-1, %eax
	movl	%eax, -124(%rbp)
	jmp	.LBB10_38
.LBB10_40:                              # %while.end153
                                        #   in Loop: Header=BB10_1 Depth=1
	movl	-28(%rbp), %eax
	subl	-48(%rbp), %eax
	movl	-48(%rbp), %ecx
	subl	-12(%rbp), %ecx
	cmpl	%ecx, %eax
	jge	.LBB10_42
# %bb.41:                               # %cond.true158
                                        #   in Loop: Header=BB10_1 Depth=1
	movl	-28(%rbp), %eax
	subl	-48(%rbp), %eax
	jmp	.LBB10_43
.LBB10_42:                              # %cond.false160
                                        #   in Loop: Header=BB10_1 Depth=1
	movl	-48(%rbp), %eax
	subl	-12(%rbp), %eax
.LBB10_43:                              # %cond.end162
                                        #   in Loop: Header=BB10_1 Depth=1
	movl	%eax, -96(%rbp)
	movl	-8(%rbp), %eax
	movl	%eax, -108(%rbp)
	movl	-28(%rbp), %eax
	subl	-96(%rbp), %eax
	addl	$1, %eax
	movl	%eax, -116(%rbp)
	movl	-96(%rbp), %eax
	movl	%eax, -120(%rbp)
.LBB10_44:                              # %while.cond169
                                        #   Parent Loop BB10_1 Depth=1
                                        # =>  This Inner Loop Header: Depth=2
	cmpl	$0, -120(%rbp)
	jle	.LBB10_46
# %bb.45:                               # %while.body172
                                        #   in Loop: Header=BB10_44 Depth=2
	movq	-24(%rbp), %rax
	movslq	-108(%rbp), %rcx
	movl	(%rax,%rcx,4), %eax
	movl	%eax, -144(%rbp)
	movq	-24(%rbp), %rax
	movslq	-116(%rbp), %rcx
	movl	(%rax,%rcx,4), %eax
	movq	-24(%rbp), %rcx
	movslq	-108(%rbp), %rdx
	movl	%eax, (%rcx,%rdx,4)
	movl	-144(%rbp), %eax
	movq	-24(%rbp), %rcx
	movslq	-116(%rbp), %rdx
	movl	%eax, (%rcx,%rdx,4)
	movl	-108(%rbp), %eax
	addl	$1, %eax
	movl	%eax, -108(%rbp)
	movl	-116(%rbp), %eax
	addl	$1, %eax
	movl	%eax, -116(%rbp)
	movl	-120(%rbp), %eax
	addl	$-1, %eax
	movl	%eax, -120(%rbp)
	jmp	.LBB10_44
.LBB10_46:                              # %while.end185
                                        #   in Loop: Header=BB10_1 Depth=1
	movl	-36(%rbp), %eax
	addl	-8(%rbp), %eax
	subl	-44(%rbp), %eax
	subl	$1, %eax
	movl	%eax, -32(%rbp)
	movl	-28(%rbp), %eax
	movl	-48(%rbp), %ecx
	subl	-12(%rbp), %ecx
	subl	%ecx, %eax
	addl	$1, %eax
	movl	%eax, -96(%rbp)
	movl	-36(%rbp), %eax
	movl	%eax, -60(%rbp)
	movl	-32(%rbp), %eax
	movl	%eax, -72(%rbp)
	movl	-40(%rbp), %eax
	movl	%eax, -88(%rbp)
	movl	-96(%rbp), %eax
	movl	%eax, -56(%rbp)
	movl	-28(%rbp), %eax
	movl	%eax, -68(%rbp)
	movl	-40(%rbp), %eax
	movl	%eax, -84(%rbp)
	movl	-32(%rbp), %eax
	addl	$1, %eax
	movl	%eax, -52(%rbp)
	movl	-96(%rbp), %eax
	subl	$1, %eax
	movl	%eax, -64(%rbp)
	movl	-40(%rbp), %eax
	addl	$1, %eax
	movl	%eax, -80(%rbp)
	movl	-72(%rbp), %eax
	subl	-60(%rbp), %eax
	movl	-68(%rbp), %ecx
	subl	-56(%rbp), %ecx
	cmpl	%ecx, %eax
	jge	.LBB10_48
# %bb.47:                               # %if.then212
                                        #   in Loop: Header=BB10_1 Depth=1
	movl	-60(%rbp), %eax
	movl	%eax, -76(%rbp)
	movl	-56(%rbp), %eax
	movl	%eax, -60(%rbp)
	movl	-76(%rbp), %eax
	movl	%eax, -56(%rbp)
	movl	-72(%rbp), %eax
	movl	%eax, -76(%rbp)
	movl	-68(%rbp), %eax
	movl	%eax, -72(%rbp)
	movl	-76(%rbp), %eax
	movl	%eax, -68(%rbp)
	movl	-88(%rbp), %eax
	movl	%eax, -76(%rbp)
	movl	-84(%rbp), %eax
	movl	%eax, -88(%rbp)
	movl	-76(%rbp), %eax
	movl	%eax, -84(%rbp)
.LBB10_48:                              # %if.end225
                                        #   in Loop: Header=BB10_1 Depth=1
	movl	-68(%rbp), %eax
	subl	-56(%rbp), %eax
	movl	-64(%rbp), %ecx
	subl	-52(%rbp), %ecx
	cmpl	%ecx, %eax
	jge	.LBB10_50
# %bb.49:                               # %if.then234
                                        #   in Loop: Header=BB10_1 Depth=1
	movl	-56(%rbp), %eax
	movl	%eax, -92(%rbp)
	movl	-52(%rbp), %eax
	movl	%eax, -56(%rbp)
	movl	-92(%rbp), %eax
	movl	%eax, -52(%rbp)
	movl	-68(%rbp), %eax
	movl	%eax, -92(%rbp)
	movl	-64(%rbp), %eax
	movl	%eax, -68(%rbp)
	movl	-92(%rbp), %eax
	movl	%eax, -64(%rbp)
	movl	-84(%rbp), %eax
	movl	%eax, -92(%rbp)
	movl	-80(%rbp), %eax
	movl	%eax, -84(%rbp)
	movl	-92(%rbp), %eax
	movl	%eax, -80(%rbp)
.LBB10_50:                              # %if.end248
                                        #   in Loop: Header=BB10_1 Depth=1
	movl	-72(%rbp), %eax
	subl	-60(%rbp), %eax
	movl	-68(%rbp), %ecx
	subl	-56(%rbp), %ecx
	cmpl	%ecx, %eax
	jge	.LBB10_52
# %bb.51:                               # %if.then257
                                        #   in Loop: Header=BB10_1 Depth=1
	movl	-60(%rbp), %eax
	movl	%eax, -100(%rbp)
	movl	-56(%rbp), %eax
	movl	%eax, -60(%rbp)
	movl	-100(%rbp), %eax
	movl	%eax, -56(%rbp)
	movl	-72(%rbp), %eax
	movl	%eax, -100(%rbp)
	movl	-68(%rbp), %eax
	movl	%eax, -72(%rbp)
	movl	-100(%rbp), %eax
	movl	%eax, -68(%rbp)
	movl	-88(%rbp), %eax
	movl	%eax, -100(%rbp)
	movl	-84(%rbp), %eax
	movl	%eax, -88(%rbp)
	movl	-100(%rbp), %eax
	movl	%eax, -84(%rbp)
.LBB10_52:                              # %if.end271
                                        #   in Loop: Header=BB10_1 Depth=1
	movl	-60(%rbp), %eax
	movslq	-4(%rbp), %rcx
	movl	%eax, -992(%rbp,%rcx,4)
	movl	-72(%rbp), %eax
	movslq	-4(%rbp), %rcx
	movl	%eax, -592(%rbp,%rcx,4)
	movl	-88(%rbp), %eax
	movslq	-4(%rbp), %rcx
	movl	%eax, -1392(%rbp,%rcx,4)
	movl	-4(%rbp), %eax
	addl	$1, %eax
	movl	%eax, -4(%rbp)
	movl	-56(%rbp), %eax
	movslq	-4(%rbp), %rcx
	movl	%eax, -992(%rbp,%rcx,4)
	movl	-68(%rbp), %eax
	movslq	-4(%rbp), %rcx
	movl	%eax, -592(%rbp,%rcx,4)
	movl	-84(%rbp), %eax
	movslq	-4(%rbp), %rcx
	movl	%eax, -1392(%rbp,%rcx,4)
	movl	-4(%rbp), %eax
	addl	$1, %eax
	movl	%eax, -4(%rbp)
	movl	-52(%rbp), %eax
	movslq	-4(%rbp), %rcx
	movl	%eax, -992(%rbp,%rcx,4)
	movl	-64(%rbp), %eax
	movslq	-4(%rbp), %rcx
	movl	%eax, -592(%rbp,%rcx,4)
	movl	-80(%rbp), %eax
	movslq	-4(%rbp), %rcx
	movl	%eax, -1392(%rbp,%rcx,4)
	movl	-4(%rbp), %eax
	addl	$1, %eax
	movl	%eax, -4(%rbp)
	jmp	.LBB10_9
.LBB10_53:                              # %while.end302.loopexit
	jmp	.LBB10_54
.LBB10_54:                              # %while.end302
	cmpl	$1061181155, -164(%rbp) # imm = 0x3F4056E3
	jne	.LBB10_56
.LBB10_55:
	addq	$1408, %rsp             # imm = 0x580
	popq	%rbp
	.cfi_def_cfa %rsp, 8
	retq
.LBB10_56:                              # %func_exit
	.cfi_def_cfa %rbp, 16
	callq	detect_breach
	jmp	.LBB10_55
.Lfunc_end10:
	.size	mainQSort3.2, .Lfunc_end10-mainQSort3.2
	.cfi_endproc
                                        # -- End function
	.p2align	4, 0x90         # -- Begin function fallbackSort.3
	.type	fallbackSort.3,@function
fallbackSort.3:                         # @fallbackSort.3
	.cfi_startproc
# %bb.0:                                # %entry
	pushq	%rbp
	.cfi_def_cfa_offset 16
	.cfi_offset %rbp, -16
	movq	%rsp, %rbp
	.cfi_def_cfa_register %rbp
	subq	$2144, %rsp             # imm = 0x860
	movl	$886798665, -88(%rbp)   # imm = 0x34DB7949
	movq	%rdi, -56(%rbp)
	movq	%rsi, -72(%rbp)
	movq	%rdx, -32(%rbp)
	movl	%ecx, -12(%rbp)
	movl	%r8d, -44(%rbp)
	movq	-72(%rbp), %rax
	movq	%rax, -80(%rbp)
	cmpl	$4, -44(%rbp)
	jl	.LBB11_2
# %bb.1:                                # %if.then
	movq	stderr, %rdi
	movabsq	$.L.str.2, %rsi
	movb	$0, %al
	callq	fprintf
.LBB11_2:                               # %if.end
	movl	$0, -4(%rbp)
.LBB11_3:                               # %for.cond
                                        # =>This Inner Loop Header: Depth=1
	cmpl	$257, -4(%rbp)          # imm = 0x101
	jge	.LBB11_6
# %bb.4:                                # %for.body
                                        #   in Loop: Header=BB11_3 Depth=1
	movslq	-4(%rbp), %rax
	movl	$0, -1120(%rbp,%rax,4)
# %bb.5:                                # %for.inc
                                        #   in Loop: Header=BB11_3 Depth=1
	movl	-4(%rbp), %eax
	addl	$1, %eax
	movl	%eax, -4(%rbp)
	jmp	.LBB11_3
.LBB11_6:                               # %for.end
	movl	$0, -4(%rbp)
.LBB11_7:                               # %for.cond2
                                        # =>This Inner Loop Header: Depth=1
	movl	-4(%rbp), %eax
	cmpl	-12(%rbp), %eax
	jge	.LBB11_10
# %bb.8:                                # %for.body4
                                        #   in Loop: Header=BB11_7 Depth=1
	movq	-80(%rbp), %rax
	movslq	-4(%rbp), %rcx
	movzbl	(%rax,%rcx), %eax
	movl	-1120(%rbp,%rax,4), %ecx
	addl	$1, %ecx
	movl	%ecx, -1120(%rbp,%rax,4)
# %bb.9:                                # %for.inc10
                                        #   in Loop: Header=BB11_7 Depth=1
	movl	-4(%rbp), %eax
	addl	$1, %eax
	movl	%eax, -4(%rbp)
	jmp	.LBB11_7
.LBB11_10:                              # %for.end12
	movl	$0, -4(%rbp)
.LBB11_11:                              # %for.cond13
                                        # =>This Inner Loop Header: Depth=1
	cmpl	$256, -4(%rbp)          # imm = 0x100
	jge	.LBB11_14
# %bb.12:                               # %for.body15
                                        #   in Loop: Header=BB11_11 Depth=1
	movslq	-4(%rbp), %rax
	movl	-1120(%rbp,%rax,4), %eax
	movslq	-4(%rbp), %rcx
	movl	%eax, -2144(%rbp,%rcx,4)
# %bb.13:                               # %for.inc20
                                        #   in Loop: Header=BB11_11 Depth=1
	movl	-4(%rbp), %eax
	addl	$1, %eax
	movl	%eax, -4(%rbp)
	jmp	.LBB11_11
.LBB11_14:                              # %for.end22
	movl	$1, -4(%rbp)
.LBB11_15:                              # %for.cond23
                                        # =>This Inner Loop Header: Depth=1
	cmpl	$257, -4(%rbp)          # imm = 0x101
	jge	.LBB11_18
# %bb.16:                               # %for.body25
                                        #   in Loop: Header=BB11_15 Depth=1
	movl	-4(%rbp), %eax
	subl	$1, %eax
	cltq
	movl	-1120(%rbp,%rax,4), %eax
	movslq	-4(%rbp), %rcx
	addl	-1120(%rbp,%rcx,4), %eax
	movl	%eax, -1120(%rbp,%rcx,4)
# %bb.17:                               # %for.inc30
                                        #   in Loop: Header=BB11_15 Depth=1
	movl	-4(%rbp), %eax
	addl	$1, %eax
	movl	%eax, -4(%rbp)
	jmp	.LBB11_15
.LBB11_18:                              # %for.end32
	movl	$0, -4(%rbp)
.LBB11_19:                              # %for.cond33
                                        # =>This Inner Loop Header: Depth=1
	movl	-4(%rbp), %eax
	cmpl	-12(%rbp), %eax
	jge	.LBB11_22
# %bb.20:                               # %for.body35
                                        #   in Loop: Header=BB11_19 Depth=1
	movq	-80(%rbp), %rax
	movslq	-4(%rbp), %rcx
	movzbl	(%rax,%rcx), %eax
	movl	%eax, -16(%rbp)
	movslq	-16(%rbp), %rax
	movl	-1120(%rbp,%rax,4), %eax
	subl	$1, %eax
	movl	%eax, -8(%rbp)
	movl	-8(%rbp), %eax
	movslq	-16(%rbp), %rcx
	movl	%eax, -1120(%rbp,%rcx,4)
	movl	-4(%rbp), %eax
	movq	-56(%rbp), %rcx
	movslq	-8(%rbp), %rdx
	movl	%eax, (%rcx,%rdx,4)
# %bb.21:                               # %for.inc45
                                        #   in Loop: Header=BB11_19 Depth=1
	movl	-4(%rbp), %eax
	addl	$1, %eax
	movl	%eax, -4(%rbp)
	jmp	.LBB11_19
.LBB11_22:                              # %for.end47
	movl	-12(%rbp), %eax
	cltd
	movl	$32, %ecx
	idivl	%ecx
	addl	$2, %eax
	movl	%eax, -84(%rbp)
	movl	$0, -4(%rbp)
.LBB11_23:                              # %for.cond49
                                        # =>This Inner Loop Header: Depth=1
	movl	-4(%rbp), %eax
	cmpl	-84(%rbp), %eax
	jge	.LBB11_26
# %bb.24:                               # %for.body52
                                        #   in Loop: Header=BB11_23 Depth=1
	movq	-32(%rbp), %rax
	movslq	-4(%rbp), %rcx
	movl	$0, (%rax,%rcx,4)
# %bb.25:                               # %for.inc55
                                        #   in Loop: Header=BB11_23 Depth=1
	movl	-4(%rbp), %eax
	addl	$1, %eax
	movl	%eax, -4(%rbp)
	jmp	.LBB11_23
.LBB11_26:                              # %for.end57
	movl	$0, -4(%rbp)
.LBB11_27:                              # %for.cond58
                                        # =>This Inner Loop Header: Depth=1
	cmpl	$256, -4(%rbp)          # imm = 0x100
	jge	.LBB11_30
# %bb.28:                               # %for.body61
                                        #   in Loop: Header=BB11_27 Depth=1
	movslq	-4(%rbp), %rax
	movl	-1120(%rbp,%rax,4), %ecx
	andl	$31, %ecx
                                        # kill: def $cl killed $ecx
	movl	$1, %eax
	shll	%cl, %eax
	movq	-32(%rbp), %rcx
	movslq	-4(%rbp), %rdx
	movl	-1120(%rbp,%rdx,4), %edx
	sarl	$5, %edx
	movslq	%edx, %rdx
	orl	(%rcx,%rdx,4), %eax
	movl	%eax, (%rcx,%rdx,4)
# %bb.29:                               # %for.inc68
                                        #   in Loop: Header=BB11_27 Depth=1
	movl	-4(%rbp), %eax
	addl	$1, %eax
	movl	%eax, -4(%rbp)
	jmp	.LBB11_27
.LBB11_30:                              # %for.end70
	movl	$0, -4(%rbp)
.LBB11_31:                              # %for.cond71
                                        # =>This Inner Loop Header: Depth=1
	cmpl	$32, -4(%rbp)
	jge	.LBB11_34
# %bb.32:                               # %for.body74
                                        #   in Loop: Header=BB11_31 Depth=1
	movl	-12(%rbp), %ecx
	movl	-4(%rbp), %eax
	shll	$1, %eax
	addl	%eax, %ecx
	andl	$31, %ecx
                                        # kill: def $cl killed $ecx
	movl	$1, %eax
	movl	$1, %edx
	shll	%cl, %edx
	movq	-32(%rbp), %rcx
	movl	-12(%rbp), %esi
	movl	-4(%rbp), %edi
	shll	$1, %edi
	addl	%edi, %esi
	sarl	$5, %esi
	movslq	%esi, %rsi
	orl	(%rcx,%rsi,4), %edx
	movl	%edx, (%rcx,%rsi,4)
	movl	-12(%rbp), %ecx
	movl	-4(%rbp), %edx
	shll	$1, %edx
	addl	%edx, %ecx
	addl	$1, %ecx
	andl	$31, %ecx
                                        # kill: def $cl killed $ecx
	shll	%cl, %eax
	xorl	$-1, %eax
	movq	-32(%rbp), %rcx
	movl	-12(%rbp), %edx
	movl	-4(%rbp), %esi
	shll	$1, %esi
	addl	%esi, %edx
	addl	$1, %edx
	sarl	$5, %edx
	movslq	%edx, %rdx
	andl	(%rcx,%rdx,4), %eax
	movl	%eax, (%rcx,%rdx,4)
# %bb.33:                               # %for.inc96
                                        #   in Loop: Header=BB11_31 Depth=1
	movl	-4(%rbp), %eax
	addl	$1, %eax
	movl	%eax, -4(%rbp)
	jmp	.LBB11_31
.LBB11_34:                              # %for.end98
	movl	$1, -36(%rbp)
.LBB11_35:                              # %while.body
                                        # =>This Loop Header: Depth=1
                                        #     Child Loop BB11_38 Depth 2
                                        #     Child Loop BB11_46 Depth 2
                                        #       Child Loop BB11_47 Depth 3
                                        #       Child Loop BB11_53 Depth 3
                                        #       Child Loop BB11_56 Depth 3
                                        #       Child Loop BB11_62 Depth 3
                                        #       Child Loop BB11_68 Depth 3
                                        #       Child Loop BB11_71 Depth 3
                                        #       Child Loop BB11_78 Depth 3
	cmpl	$4, -44(%rbp)
	jl	.LBB11_37
# %bb.36:                               # %if.then101
                                        #   in Loop: Header=BB11_35 Depth=1
	movq	stderr, %rdi
	movl	-36(%rbp), %edx
	movabsq	$.L.str.3, %rsi
	movb	$0, %al
	callq	fprintf
.LBB11_37:                              # %if.end103
                                        #   in Loop: Header=BB11_35 Depth=1
	movl	$0, -16(%rbp)
	movl	$0, -4(%rbp)
.LBB11_38:                              # %for.cond104
                                        #   Parent Loop BB11_35 Depth=1
                                        # =>  This Inner Loop Header: Depth=2
	movl	-4(%rbp), %eax
	cmpl	-12(%rbp), %eax
	jge	.LBB11_45
# %bb.39:                               # %for.body107
                                        #   in Loop: Header=BB11_38 Depth=2
	movq	-32(%rbp), %rax
	movl	-4(%rbp), %ecx
	sarl	$5, %ecx
	movslq	%ecx, %rcx
	movl	(%rax,%rcx,4), %eax
	movl	-4(%rbp), %ecx
	andl	$31, %ecx
                                        # kill: def $cl killed $ecx
	movl	$1, %edx
	shll	%cl, %edx
	andl	%edx, %eax
	cmpl	$0, %eax
	je	.LBB11_41
# %bb.40:                               # %if.then114
                                        #   in Loop: Header=BB11_38 Depth=2
	movl	-4(%rbp), %eax
	movl	%eax, -16(%rbp)
.LBB11_41:                              # %if.end115
                                        #   in Loop: Header=BB11_38 Depth=2
	movq	-56(%rbp), %rax
	movslq	-4(%rbp), %rcx
	movl	(%rax,%rcx,4), %eax
	subl	-36(%rbp), %eax
	movl	%eax, -8(%rbp)
	cmpl	$0, -8(%rbp)
	jge	.LBB11_43
# %bb.42:                               # %if.then121
                                        #   in Loop: Header=BB11_38 Depth=2
	movl	-12(%rbp), %eax
	addl	-8(%rbp), %eax
	movl	%eax, -8(%rbp)
.LBB11_43:                              # %if.end123
                                        #   in Loop: Header=BB11_38 Depth=2
	movl	-16(%rbp), %eax
	movq	-72(%rbp), %rcx
	movslq	-8(%rbp), %rdx
	movl	%eax, (%rcx,%rdx,4)
# %bb.44:                               # %for.inc126
                                        #   in Loop: Header=BB11_38 Depth=2
	movl	-4(%rbp), %eax
	addl	$1, %eax
	movl	%eax, -4(%rbp)
	jmp	.LBB11_38
.LBB11_45:                              # %for.end128
                                        #   in Loop: Header=BB11_35 Depth=1
	movl	$0, -48(%rbp)
	movl	$-1, -20(%rbp)
.LBB11_46:                              # %while.body130
                                        #   Parent Loop BB11_35 Depth=1
                                        # =>  This Loop Header: Depth=2
                                        #       Child Loop BB11_47 Depth 3
                                        #       Child Loop BB11_53 Depth 3
                                        #       Child Loop BB11_56 Depth 3
                                        #       Child Loop BB11_62 Depth 3
                                        #       Child Loop BB11_68 Depth 3
                                        #       Child Loop BB11_71 Depth 3
                                        #       Child Loop BB11_78 Depth 3
	movl	-20(%rbp), %eax
	addl	$1, %eax
	movl	%eax, -8(%rbp)
.LBB11_47:                              # %while.cond132
                                        #   Parent Loop BB11_35 Depth=1
                                        #     Parent Loop BB11_46 Depth=2
                                        # =>    This Inner Loop Header: Depth=3
	xorl	%eax, %eax
	movq	-32(%rbp), %rcx
	movl	-8(%rbp), %edx
	sarl	$5, %edx
	movslq	%edx, %rdx
	movl	(%rcx,%rdx,4), %edx
	movl	-8(%rbp), %ecx
	andl	$31, %ecx
                                        # kill: def $cl killed $ecx
	movl	$1, %esi
	shll	%cl, %esi
	andl	%esi, %edx
	cmpl	$0, %edx
	je	.LBB11_49
# %bb.48:                               # %land.rhs
                                        #   in Loop: Header=BB11_47 Depth=3
	movl	-8(%rbp), %eax
	andl	$31, %eax
	cmpl	$0, %eax
	setne	%al
.LBB11_49:                              # %land.end
                                        #   in Loop: Header=BB11_47 Depth=3
	testb	$1, %al
	jne	.LBB11_50
	jmp	.LBB11_51
.LBB11_50:                              # %while.body142
                                        #   in Loop: Header=BB11_47 Depth=3
	movl	-8(%rbp), %eax
	addl	$1, %eax
	movl	%eax, -8(%rbp)
	jmp	.LBB11_47
.LBB11_51:                              # %while.end
                                        #   in Loop: Header=BB11_46 Depth=2
	movq	-32(%rbp), %rax
	movl	-8(%rbp), %ecx
	sarl	$5, %ecx
	movslq	%ecx, %rcx
	movl	(%rax,%rcx,4), %eax
	movl	-8(%rbp), %ecx
	andl	$31, %ecx
                                        # kill: def $cl killed $ecx
	movl	$1, %edx
	shll	%cl, %edx
	andl	%edx, %eax
	cmpl	$0, %eax
	je	.LBB11_59
# %bb.52:                               # %if.then151
                                        #   in Loop: Header=BB11_46 Depth=2
	jmp	.LBB11_53
.LBB11_53:                              # %while.cond152
                                        #   Parent Loop BB11_35 Depth=1
                                        #     Parent Loop BB11_46 Depth=2
                                        # =>    This Inner Loop Header: Depth=3
	movq	-32(%rbp), %rax
	movl	-8(%rbp), %ecx
	sarl	$5, %ecx
	movslq	%ecx, %rcx
	cmpl	$-1, (%rax,%rcx,4)
	jne	.LBB11_55
# %bb.54:                               # %while.body158
                                        #   in Loop: Header=BB11_53 Depth=3
	movl	-8(%rbp), %eax
	addl	$32, %eax
	movl	%eax, -8(%rbp)
	jmp	.LBB11_53
.LBB11_55:                              # %while.end160
                                        #   in Loop: Header=BB11_46 Depth=2
	jmp	.LBB11_56
.LBB11_56:                              # %while.cond161
                                        #   Parent Loop BB11_35 Depth=1
                                        #     Parent Loop BB11_46 Depth=2
                                        # =>    This Inner Loop Header: Depth=3
	movq	-32(%rbp), %rax
	movl	-8(%rbp), %ecx
	sarl	$5, %ecx
	movslq	%ecx, %rcx
	movl	(%rax,%rcx,4), %eax
	movl	-8(%rbp), %ecx
	andl	$31, %ecx
                                        # kill: def $cl killed $ecx
	movl	$1, %edx
	shll	%cl, %edx
	andl	%edx, %eax
	cmpl	$0, %eax
	je	.LBB11_58
# %bb.57:                               # %while.body169
                                        #   in Loop: Header=BB11_56 Depth=3
	movl	-8(%rbp), %eax
	addl	$1, %eax
	movl	%eax, -8(%rbp)
	jmp	.LBB11_56
.LBB11_58:                              # %while.end171
                                        #   in Loop: Header=BB11_46 Depth=2
	jmp	.LBB11_59
.LBB11_59:                              # %if.end172
                                        #   in Loop: Header=BB11_46 Depth=2
	movl	-8(%rbp), %eax
	subl	$1, %eax
	movl	%eax, -40(%rbp)
	movl	-40(%rbp), %eax
	cmpl	-12(%rbp), %eax
	jl	.LBB11_61
# %bb.60:                               # %if.then176
                                        #   in Loop: Header=BB11_35 Depth=1
	jmp	.LBB11_85
.LBB11_61:                              # %if.end177
                                        #   in Loop: Header=BB11_46 Depth=2
	jmp	.LBB11_62
.LBB11_62:                              # %while.cond178
                                        #   Parent Loop BB11_35 Depth=1
                                        #     Parent Loop BB11_46 Depth=2
                                        # =>    This Inner Loop Header: Depth=3
	xorl	%eax, %eax
	movq	-32(%rbp), %rcx
	movl	-8(%rbp), %edx
	sarl	$5, %edx
	movslq	%edx, %rdx
	movl	(%rcx,%rdx,4), %edx
	movl	-8(%rbp), %ecx
	andl	$31, %ecx
                                        # kill: def $cl killed $ecx
	movl	$1, %esi
	shll	%cl, %esi
	andl	%esi, %edx
	cmpl	$0, %edx
	jne	.LBB11_64
# %bb.63:                               # %land.rhs186
                                        #   in Loop: Header=BB11_62 Depth=3
	movl	-8(%rbp), %eax
	andl	$31, %eax
	cmpl	$0, %eax
	setne	%al
.LBB11_64:                              # %land.end189
                                        #   in Loop: Header=BB11_62 Depth=3
	testb	$1, %al
	jne	.LBB11_65
	jmp	.LBB11_66
.LBB11_65:                              # %while.body190
                                        #   in Loop: Header=BB11_62 Depth=3
	movl	-8(%rbp), %eax
	addl	$1, %eax
	movl	%eax, -8(%rbp)
	jmp	.LBB11_62
.LBB11_66:                              # %while.end192
                                        #   in Loop: Header=BB11_46 Depth=2
	movq	-32(%rbp), %rax
	movl	-8(%rbp), %ecx
	sarl	$5, %ecx
	movslq	%ecx, %rcx
	movl	(%rax,%rcx,4), %eax
	movl	-8(%rbp), %ecx
	andl	$31, %ecx
                                        # kill: def $cl killed $ecx
	movl	$1, %edx
	shll	%cl, %edx
	andl	%edx, %eax
	cmpl	$0, %eax
	jne	.LBB11_74
# %bb.67:                               # %if.then200
                                        #   in Loop: Header=BB11_46 Depth=2
	jmp	.LBB11_68
.LBB11_68:                              # %while.cond201
                                        #   Parent Loop BB11_35 Depth=1
                                        #     Parent Loop BB11_46 Depth=2
                                        # =>    This Inner Loop Header: Depth=3
	movq	-32(%rbp), %rax
	movl	-8(%rbp), %ecx
	sarl	$5, %ecx
	movslq	%ecx, %rcx
	cmpl	$0, (%rax,%rcx,4)
	jne	.LBB11_70
# %bb.69:                               # %while.body207
                                        #   in Loop: Header=BB11_68 Depth=3
	movl	-8(%rbp), %eax
	addl	$32, %eax
	movl	%eax, -8(%rbp)
	jmp	.LBB11_68
.LBB11_70:                              # %while.end209
                                        #   in Loop: Header=BB11_46 Depth=2
	jmp	.LBB11_71
.LBB11_71:                              # %while.cond210
                                        #   Parent Loop BB11_35 Depth=1
                                        #     Parent Loop BB11_46 Depth=2
                                        # =>    This Inner Loop Header: Depth=3
	movq	-32(%rbp), %rax
	movl	-8(%rbp), %ecx
	sarl	$5, %ecx
	movslq	%ecx, %rcx
	movl	(%rax,%rcx,4), %eax
	movl	-8(%rbp), %ecx
	andl	$31, %ecx
                                        # kill: def $cl killed $ecx
	movl	$1, %edx
	shll	%cl, %edx
	andl	%edx, %eax
	cmpl	$0, %eax
	setne	%al
	xorb	$-1, %al
	testb	$1, %al
	jne	.LBB11_72
	jmp	.LBB11_73
.LBB11_72:                              # %while.body218
                                        #   in Loop: Header=BB11_71 Depth=3
	movl	-8(%rbp), %eax
	addl	$1, %eax
	movl	%eax, -8(%rbp)
	jmp	.LBB11_71
.LBB11_73:                              # %while.end220
                                        #   in Loop: Header=BB11_46 Depth=2
	jmp	.LBB11_74
.LBB11_74:                              # %if.end221
                                        #   in Loop: Header=BB11_46 Depth=2
	movl	-8(%rbp), %eax
	subl	$1, %eax
	movl	%eax, -20(%rbp)
	movl	-20(%rbp), %eax
	cmpl	-12(%rbp), %eax
	jl	.LBB11_76
# %bb.75:                               # %if.then225
                                        #   in Loop: Header=BB11_35 Depth=1
	jmp	.LBB11_85
.LBB11_76:                              # %if.end226
                                        #   in Loop: Header=BB11_46 Depth=2
	movl	-20(%rbp), %eax
	cmpl	-40(%rbp), %eax
	jle	.LBB11_84
# %bb.77:                               # %if.then229
                                        #   in Loop: Header=BB11_46 Depth=2
	movl	-20(%rbp), %eax
	subl	-40(%rbp), %eax
	addl	$1, %eax
	addl	-48(%rbp), %eax
	movl	%eax, -48(%rbp)
	movq	-56(%rbp), %rdi
	movq	-72(%rbp), %rsi
	movl	-40(%rbp), %edx
	movl	-20(%rbp), %ecx
	callq	fallbackQSort3
	movl	$-1, -60(%rbp)
	movl	-40(%rbp), %eax
	movl	%eax, -4(%rbp)
.LBB11_78:                              # %for.cond233
                                        #   Parent Loop BB11_35 Depth=1
                                        #     Parent Loop BB11_46 Depth=2
                                        # =>    This Inner Loop Header: Depth=3
	movl	-4(%rbp), %eax
	cmpl	-20(%rbp), %eax
	jg	.LBB11_83
# %bb.79:                               # %for.body236
                                        #   in Loop: Header=BB11_78 Depth=3
	movq	-72(%rbp), %rax
	movq	-56(%rbp), %rcx
	movslq	-4(%rbp), %rdx
	movl	(%rcx,%rdx,4), %ecx
	movl	(%rax,%rcx,4), %eax
	movl	%eax, -64(%rbp)
	movl	-60(%rbp), %eax
	cmpl	-64(%rbp), %eax
	je	.LBB11_81
# %bb.80:                               # %if.then243
                                        #   in Loop: Header=BB11_78 Depth=3
	movl	-4(%rbp), %ecx
	andl	$31, %ecx
                                        # kill: def $cl killed $ecx
	movl	$1, %eax
	shll	%cl, %eax
	movq	-32(%rbp), %rcx
	movl	-4(%rbp), %edx
	sarl	$5, %edx
	movslq	%edx, %rdx
	orl	(%rcx,%rdx,4), %eax
	movl	%eax, (%rcx,%rdx,4)
	movl	-64(%rbp), %eax
	movl	%eax, -60(%rbp)
.LBB11_81:                              # %if.end250
                                        #   in Loop: Header=BB11_78 Depth=3
	jmp	.LBB11_82
.LBB11_82:                              # %for.inc251
                                        #   in Loop: Header=BB11_78 Depth=3
	movl	-4(%rbp), %eax
	addl	$1, %eax
	movl	%eax, -4(%rbp)
	jmp	.LBB11_78
.LBB11_83:                              # %for.end253
                                        #   in Loop: Header=BB11_46 Depth=2
	jmp	.LBB11_84
.LBB11_84:                              # %if.end254
                                        #   in Loop: Header=BB11_46 Depth=2
	jmp	.LBB11_46
.LBB11_85:                              # %while.end255
                                        #   in Loop: Header=BB11_35 Depth=1
	cmpl	$4, -44(%rbp)
	jl	.LBB11_87
# %bb.86:                               # %if.then258
                                        #   in Loop: Header=BB11_35 Depth=1
	movq	stderr, %rdi
	movl	-48(%rbp), %edx
	movabsq	$.L.str.4, %rsi
	movb	$0, %al
	callq	fprintf
.LBB11_87:                              # %if.end260
                                        #   in Loop: Header=BB11_35 Depth=1
	movl	-36(%rbp), %eax
	shll	$1, %eax
	movl	%eax, -36(%rbp)
	movl	-36(%rbp), %eax
	cmpl	-12(%rbp), %eax
	jg	.LBB11_89
# %bb.88:                               # %lor.lhs.false
                                        #   in Loop: Header=BB11_35 Depth=1
	cmpl	$0, -48(%rbp)
	jne	.LBB11_90
.LBB11_89:                              # %if.then266
	jmp	.LBB11_91
.LBB11_90:                              # %if.end267
                                        #   in Loop: Header=BB11_35 Depth=1
	jmp	.LBB11_35
.LBB11_91:                              # %while.end268
	cmpl	$4, -44(%rbp)
	jl	.LBB11_93
# %bb.92:                               # %if.then271
	movq	stderr, %rdi
	movabsq	$.L.str.5, %rsi
	movb	$0, %al
	callq	fprintf
.LBB11_93:                              # %if.end273
	movl	$0, -16(%rbp)
	movl	$0, -4(%rbp)
.LBB11_94:                              # %for.cond274
                                        # =>This Loop Header: Depth=1
                                        #     Child Loop BB11_96 Depth 2
	movl	-4(%rbp), %eax
	cmpl	-12(%rbp), %eax
	jge	.LBB11_100
# %bb.95:                               # %for.body277
                                        #   in Loop: Header=BB11_94 Depth=1
	jmp	.LBB11_96
.LBB11_96:                              # %while.cond
                                        #   Parent Loop BB11_94 Depth=1
                                        # =>  This Inner Loop Header: Depth=2
	movslq	-16(%rbp), %rax
	cmpl	$0, -2144(%rbp,%rax,4)
	jne	.LBB11_98
# %bb.97:                               # %while.body282
                                        #   in Loop: Header=BB11_96 Depth=2
	movl	-16(%rbp), %eax
	addl	$1, %eax
	movl	%eax, -16(%rbp)
	jmp	.LBB11_96
.LBB11_98:                              # %while.end284
                                        #   in Loop: Header=BB11_94 Depth=1
	movslq	-16(%rbp), %rax
	movl	-2144(%rbp,%rax,4), %ecx
	addl	$-1, %ecx
	movl	%ecx, -2144(%rbp,%rax,4)
	movl	-16(%rbp), %eax
	movq	-80(%rbp), %rcx
	movq	-56(%rbp), %rdx
	movslq	-4(%rbp), %rsi
	movl	(%rdx,%rsi,4), %edx
	movb	%al, (%rcx,%rdx)
# %bb.99:                               # %for.inc292
                                        #   in Loop: Header=BB11_94 Depth=1
	movl	-4(%rbp), %eax
	addl	$1, %eax
	movl	%eax, -4(%rbp)
	jmp	.LBB11_94
.LBB11_100:                             # %for.end294
	cmpl	$256, -16(%rbp)         # imm = 0x100
	jl	.LBB11_102
# %bb.101:                              # %if.then297
	movl	$1005, %edi             # imm = 0x3ED
	callq	BZ2_bz__AssertH__fail
.LBB11_102:                             # %if.end298
	cmpl	$886798665, -88(%rbp)   # imm = 0x34DB7949
	jne	.LBB11_104
.LBB11_103:
	addq	$2144, %rsp             # imm = 0x860
	popq	%rbp
	.cfi_def_cfa %rsp, 8
	retq
.LBB11_104:                             # %func_exit
	.cfi_def_cfa %rbp, 16
	callq	detect_breach
	jmp	.LBB11_103
.Lfunc_end11:
	.size	fallbackSort.3, .Lfunc_end11-fallbackSort.3
	.cfi_endproc
                                        # -- End function
	.p2align	4, 0x90         # -- Begin function fallbackSort.4
	.type	fallbackSort.4,@function
fallbackSort.4:                         # @fallbackSort.4
	.cfi_startproc
# %bb.0:                                # %entry
	pushq	%rbp
	.cfi_def_cfa_offset 16
	.cfi_offset %rbp, -16
	movq	%rsp, %rbp
	.cfi_def_cfa_register %rbp
	subq	$2144, %rsp             # imm = 0x860
	movl	$1576172717, -84(%rbp)  # imm = 0x5DF27CAD
	movq	%rdi, -56(%rbp)
	movq	%rsi, -72(%rbp)
	movq	%rdx, -32(%rbp)
	movl	%ecx, -12(%rbp)
	movl	%r8d, -44(%rbp)
	movq	-72(%rbp), %rax
	movq	%rax, -80(%rbp)
	cmpl	$4, -44(%rbp)
	jl	.LBB12_2
# %bb.1:                                # %if.then
	movq	stderr, %rdi
	movabsq	$.L.str.2, %rsi
	movb	$0, %al
	callq	fprintf
.LBB12_2:                               # %if.end
	movl	$0, -4(%rbp)
.LBB12_3:                               # %for.cond
                                        # =>This Inner Loop Header: Depth=1
	cmpl	$257, -4(%rbp)          # imm = 0x101
	jge	.LBB12_6
# %bb.4:                                # %for.body
                                        #   in Loop: Header=BB12_3 Depth=1
	movslq	-4(%rbp), %rax
	movl	$0, -1120(%rbp,%rax,4)
# %bb.5:                                # %for.inc
                                        #   in Loop: Header=BB12_3 Depth=1
	movl	-4(%rbp), %eax
	addl	$1, %eax
	movl	%eax, -4(%rbp)
	jmp	.LBB12_3
.LBB12_6:                               # %for.end
	movl	$0, -4(%rbp)
.LBB12_7:                               # %for.cond2
                                        # =>This Inner Loop Header: Depth=1
	movl	-4(%rbp), %eax
	cmpl	-12(%rbp), %eax
	jge	.LBB12_10
# %bb.8:                                # %for.body4
                                        #   in Loop: Header=BB12_7 Depth=1
	movq	-80(%rbp), %rax
	movslq	-4(%rbp), %rcx
	movzbl	(%rax,%rcx), %eax
	movl	-1120(%rbp,%rax,4), %ecx
	addl	$1, %ecx
	movl	%ecx, -1120(%rbp,%rax,4)
# %bb.9:                                # %for.inc10
                                        #   in Loop: Header=BB12_7 Depth=1
	movl	-4(%rbp), %eax
	addl	$1, %eax
	movl	%eax, -4(%rbp)
	jmp	.LBB12_7
.LBB12_10:                              # %for.end12
	movl	$0, -4(%rbp)
.LBB12_11:                              # %for.cond13
                                        # =>This Inner Loop Header: Depth=1
	cmpl	$256, -4(%rbp)          # imm = 0x100
	jge	.LBB12_14
# %bb.12:                               # %for.body15
                                        #   in Loop: Header=BB12_11 Depth=1
	movslq	-4(%rbp), %rax
	movl	-1120(%rbp,%rax,4), %eax
	movslq	-4(%rbp), %rcx
	movl	%eax, -2144(%rbp,%rcx,4)
# %bb.13:                               # %for.inc20
                                        #   in Loop: Header=BB12_11 Depth=1
	movl	-4(%rbp), %eax
	addl	$1, %eax
	movl	%eax, -4(%rbp)
	jmp	.LBB12_11
.LBB12_14:                              # %for.end22
	movl	$1, -4(%rbp)
.LBB12_15:                              # %for.cond23
                                        # =>This Inner Loop Header: Depth=1
	cmpl	$257, -4(%rbp)          # imm = 0x101
	jge	.LBB12_18
# %bb.16:                               # %for.body25
                                        #   in Loop: Header=BB12_15 Depth=1
	movl	-4(%rbp), %eax
	subl	$1, %eax
	cltq
	movl	-1120(%rbp,%rax,4), %eax
	movslq	-4(%rbp), %rcx
	addl	-1120(%rbp,%rcx,4), %eax
	movl	%eax, -1120(%rbp,%rcx,4)
# %bb.17:                               # %for.inc30
                                        #   in Loop: Header=BB12_15 Depth=1
	movl	-4(%rbp), %eax
	addl	$1, %eax
	movl	%eax, -4(%rbp)
	jmp	.LBB12_15
.LBB12_18:                              # %for.end32
	movl	$0, -4(%rbp)
.LBB12_19:                              # %for.cond33
                                        # =>This Inner Loop Header: Depth=1
	movl	-4(%rbp), %eax
	cmpl	-12(%rbp), %eax
	jge	.LBB12_22
# %bb.20:                               # %for.body35
                                        #   in Loop: Header=BB12_19 Depth=1
	movq	-80(%rbp), %rax
	movslq	-4(%rbp), %rcx
	movzbl	(%rax,%rcx), %eax
	movl	%eax, -16(%rbp)
	movslq	-16(%rbp), %rax
	movl	-1120(%rbp,%rax,4), %eax
	subl	$1, %eax
	movl	%eax, -8(%rbp)
	movl	-8(%rbp), %eax
	movslq	-16(%rbp), %rcx
	movl	%eax, -1120(%rbp,%rcx,4)
	movl	-4(%rbp), %eax
	movq	-56(%rbp), %rcx
	movslq	-8(%rbp), %rdx
	movl	%eax, (%rcx,%rdx,4)
# %bb.21:                               # %for.inc45
                                        #   in Loop: Header=BB12_19 Depth=1
	movl	-4(%rbp), %eax
	addl	$1, %eax
	movl	%eax, -4(%rbp)
	jmp	.LBB12_19
.LBB12_22:                              # %for.end47
	movl	-12(%rbp), %eax
	cltd
	movl	$32, %ecx
	idivl	%ecx
	addl	$2, %eax
	movl	%eax, -88(%rbp)
	movl	$0, -4(%rbp)
.LBB12_23:                              # %for.cond49
                                        # =>This Inner Loop Header: Depth=1
	movl	-4(%rbp), %eax
	cmpl	-88(%rbp), %eax
	jge	.LBB12_26
# %bb.24:                               # %for.body52
                                        #   in Loop: Header=BB12_23 Depth=1
	movq	-32(%rbp), %rax
	movslq	-4(%rbp), %rcx
	movl	$0, (%rax,%rcx,4)
# %bb.25:                               # %for.inc55
                                        #   in Loop: Header=BB12_23 Depth=1
	movl	-4(%rbp), %eax
	addl	$1, %eax
	movl	%eax, -4(%rbp)
	jmp	.LBB12_23
.LBB12_26:                              # %for.end57
	movl	$0, -4(%rbp)
.LBB12_27:                              # %for.cond58
                                        # =>This Inner Loop Header: Depth=1
	cmpl	$256, -4(%rbp)          # imm = 0x100
	jge	.LBB12_30
# %bb.28:                               # %for.body61
                                        #   in Loop: Header=BB12_27 Depth=1
	movslq	-4(%rbp), %rax
	movl	-1120(%rbp,%rax,4), %ecx
	andl	$31, %ecx
                                        # kill: def $cl killed $ecx
	movl	$1, %eax
	shll	%cl, %eax
	movq	-32(%rbp), %rcx
	movslq	-4(%rbp), %rdx
	movl	-1120(%rbp,%rdx,4), %edx
	sarl	$5, %edx
	movslq	%edx, %rdx
	orl	(%rcx,%rdx,4), %eax
	movl	%eax, (%rcx,%rdx,4)
# %bb.29:                               # %for.inc68
                                        #   in Loop: Header=BB12_27 Depth=1
	movl	-4(%rbp), %eax
	addl	$1, %eax
	movl	%eax, -4(%rbp)
	jmp	.LBB12_27
.LBB12_30:                              # %for.end70
	movl	$0, -4(%rbp)
.LBB12_31:                              # %for.cond71
                                        # =>This Inner Loop Header: Depth=1
	cmpl	$32, -4(%rbp)
	jge	.LBB12_34
# %bb.32:                               # %for.body74
                                        #   in Loop: Header=BB12_31 Depth=1
	movl	-12(%rbp), %ecx
	movl	-4(%rbp), %eax
	shll	$1, %eax
	addl	%eax, %ecx
	andl	$31, %ecx
                                        # kill: def $cl killed $ecx
	movl	$1, %eax
	movl	$1, %edx
	shll	%cl, %edx
	movq	-32(%rbp), %rcx
	movl	-12(%rbp), %esi
	movl	-4(%rbp), %edi
	shll	$1, %edi
	addl	%edi, %esi
	sarl	$5, %esi
	movslq	%esi, %rsi
	orl	(%rcx,%rsi,4), %edx
	movl	%edx, (%rcx,%rsi,4)
	movl	-12(%rbp), %ecx
	movl	-4(%rbp), %edx
	shll	$1, %edx
	addl	%edx, %ecx
	addl	$1, %ecx
	andl	$31, %ecx
                                        # kill: def $cl killed $ecx
	shll	%cl, %eax
	xorl	$-1, %eax
	movq	-32(%rbp), %rcx
	movl	-12(%rbp), %edx
	movl	-4(%rbp), %esi
	shll	$1, %esi
	addl	%esi, %edx
	addl	$1, %edx
	sarl	$5, %edx
	movslq	%edx, %rdx
	andl	(%rcx,%rdx,4), %eax
	movl	%eax, (%rcx,%rdx,4)
# %bb.33:                               # %for.inc96
                                        #   in Loop: Header=BB12_31 Depth=1
	movl	-4(%rbp), %eax
	addl	$1, %eax
	movl	%eax, -4(%rbp)
	jmp	.LBB12_31
.LBB12_34:                              # %for.end98
	movl	$1, -40(%rbp)
.LBB12_35:                              # %while.body
                                        # =>This Loop Header: Depth=1
                                        #     Child Loop BB12_38 Depth 2
                                        #     Child Loop BB12_46 Depth 2
                                        #       Child Loop BB12_47 Depth 3
                                        #       Child Loop BB12_53 Depth 3
                                        #       Child Loop BB12_56 Depth 3
                                        #       Child Loop BB12_62 Depth 3
                                        #       Child Loop BB12_68 Depth 3
                                        #       Child Loop BB12_71 Depth 3
                                        #       Child Loop BB12_78 Depth 3
	cmpl	$4, -44(%rbp)
	jl	.LBB12_37
# %bb.36:                               # %if.then101
                                        #   in Loop: Header=BB12_35 Depth=1
	movq	stderr, %rdi
	movl	-40(%rbp), %edx
	movabsq	$.L.str.3, %rsi
	movb	$0, %al
	callq	fprintf
.LBB12_37:                              # %if.end103
                                        #   in Loop: Header=BB12_35 Depth=1
	movl	$0, -16(%rbp)
	movl	$0, -4(%rbp)
.LBB12_38:                              # %for.cond104
                                        #   Parent Loop BB12_35 Depth=1
                                        # =>  This Inner Loop Header: Depth=2
	movl	-4(%rbp), %eax
	cmpl	-12(%rbp), %eax
	jge	.LBB12_45
# %bb.39:                               # %for.body107
                                        #   in Loop: Header=BB12_38 Depth=2
	movq	-32(%rbp), %rax
	movl	-4(%rbp), %ecx
	sarl	$5, %ecx
	movslq	%ecx, %rcx
	movl	(%rax,%rcx,4), %eax
	movl	-4(%rbp), %ecx
	andl	$31, %ecx
                                        # kill: def $cl killed $ecx
	movl	$1, %edx
	shll	%cl, %edx
	andl	%edx, %eax
	cmpl	$0, %eax
	je	.LBB12_41
# %bb.40:                               # %if.then114
                                        #   in Loop: Header=BB12_38 Depth=2
	movl	-4(%rbp), %eax
	movl	%eax, -16(%rbp)
.LBB12_41:                              # %if.end115
                                        #   in Loop: Header=BB12_38 Depth=2
	movq	-56(%rbp), %rax
	movslq	-4(%rbp), %rcx
	movl	(%rax,%rcx,4), %eax
	subl	-40(%rbp), %eax
	movl	%eax, -8(%rbp)
	cmpl	$0, -8(%rbp)
	jge	.LBB12_43
# %bb.42:                               # %if.then121
                                        #   in Loop: Header=BB12_38 Depth=2
	movl	-12(%rbp), %eax
	addl	-8(%rbp), %eax
	movl	%eax, -8(%rbp)
.LBB12_43:                              # %if.end123
                                        #   in Loop: Header=BB12_38 Depth=2
	movl	-16(%rbp), %eax
	movq	-72(%rbp), %rcx
	movslq	-8(%rbp), %rdx
	movl	%eax, (%rcx,%rdx,4)
# %bb.44:                               # %for.inc126
                                        #   in Loop: Header=BB12_38 Depth=2
	movl	-4(%rbp), %eax
	addl	$1, %eax
	movl	%eax, -4(%rbp)
	jmp	.LBB12_38
.LBB12_45:                              # %for.end128
                                        #   in Loop: Header=BB12_35 Depth=1
	movl	$0, -48(%rbp)
	movl	$-1, -20(%rbp)
.LBB12_46:                              # %while.body130
                                        #   Parent Loop BB12_35 Depth=1
                                        # =>  This Loop Header: Depth=2
                                        #       Child Loop BB12_47 Depth 3
                                        #       Child Loop BB12_53 Depth 3
                                        #       Child Loop BB12_56 Depth 3
                                        #       Child Loop BB12_62 Depth 3
                                        #       Child Loop BB12_68 Depth 3
                                        #       Child Loop BB12_71 Depth 3
                                        #       Child Loop BB12_78 Depth 3
	movl	-20(%rbp), %eax
	addl	$1, %eax
	movl	%eax, -8(%rbp)
.LBB12_47:                              # %while.cond132
                                        #   Parent Loop BB12_35 Depth=1
                                        #     Parent Loop BB12_46 Depth=2
                                        # =>    This Inner Loop Header: Depth=3
	xorl	%eax, %eax
	movq	-32(%rbp), %rcx
	movl	-8(%rbp), %edx
	sarl	$5, %edx
	movslq	%edx, %rdx
	movl	(%rcx,%rdx,4), %edx
	movl	-8(%rbp), %ecx
	andl	$31, %ecx
                                        # kill: def $cl killed $ecx
	movl	$1, %esi
	shll	%cl, %esi
	andl	%esi, %edx
	cmpl	$0, %edx
	je	.LBB12_49
# %bb.48:                               # %land.rhs
                                        #   in Loop: Header=BB12_47 Depth=3
	movl	-8(%rbp), %eax
	andl	$31, %eax
	cmpl	$0, %eax
	setne	%al
.LBB12_49:                              # %land.end
                                        #   in Loop: Header=BB12_47 Depth=3
	testb	$1, %al
	jne	.LBB12_50
	jmp	.LBB12_51
.LBB12_50:                              # %while.body142
                                        #   in Loop: Header=BB12_47 Depth=3
	movl	-8(%rbp), %eax
	addl	$1, %eax
	movl	%eax, -8(%rbp)
	jmp	.LBB12_47
.LBB12_51:                              # %while.end
                                        #   in Loop: Header=BB12_46 Depth=2
	movq	-32(%rbp), %rax
	movl	-8(%rbp), %ecx
	sarl	$5, %ecx
	movslq	%ecx, %rcx
	movl	(%rax,%rcx,4), %eax
	movl	-8(%rbp), %ecx
	andl	$31, %ecx
                                        # kill: def $cl killed $ecx
	movl	$1, %edx
	shll	%cl, %edx
	andl	%edx, %eax
	cmpl	$0, %eax
	je	.LBB12_59
# %bb.52:                               # %if.then151
                                        #   in Loop: Header=BB12_46 Depth=2
	jmp	.LBB12_53
.LBB12_53:                              # %while.cond152
                                        #   Parent Loop BB12_35 Depth=1
                                        #     Parent Loop BB12_46 Depth=2
                                        # =>    This Inner Loop Header: Depth=3
	movq	-32(%rbp), %rax
	movl	-8(%rbp), %ecx
	sarl	$5, %ecx
	movslq	%ecx, %rcx
	cmpl	$-1, (%rax,%rcx,4)
	jne	.LBB12_55
# %bb.54:                               # %while.body158
                                        #   in Loop: Header=BB12_53 Depth=3
	movl	-8(%rbp), %eax
	addl	$32, %eax
	movl	%eax, -8(%rbp)
	jmp	.LBB12_53
.LBB12_55:                              # %while.end160
                                        #   in Loop: Header=BB12_46 Depth=2
	jmp	.LBB12_56
.LBB12_56:                              # %while.cond161
                                        #   Parent Loop BB12_35 Depth=1
                                        #     Parent Loop BB12_46 Depth=2
                                        # =>    This Inner Loop Header: Depth=3
	movq	-32(%rbp), %rax
	movl	-8(%rbp), %ecx
	sarl	$5, %ecx
	movslq	%ecx, %rcx
	movl	(%rax,%rcx,4), %eax
	movl	-8(%rbp), %ecx
	andl	$31, %ecx
                                        # kill: def $cl killed $ecx
	movl	$1, %edx
	shll	%cl, %edx
	andl	%edx, %eax
	cmpl	$0, %eax
	je	.LBB12_58
# %bb.57:                               # %while.body169
                                        #   in Loop: Header=BB12_56 Depth=3
	movl	-8(%rbp), %eax
	addl	$1, %eax
	movl	%eax, -8(%rbp)
	jmp	.LBB12_56
.LBB12_58:                              # %while.end171
                                        #   in Loop: Header=BB12_46 Depth=2
	jmp	.LBB12_59
.LBB12_59:                              # %if.end172
                                        #   in Loop: Header=BB12_46 Depth=2
	movl	-8(%rbp), %eax
	subl	$1, %eax
	movl	%eax, -36(%rbp)
	movl	-36(%rbp), %eax
	cmpl	-12(%rbp), %eax
	jl	.LBB12_61
# %bb.60:                               # %if.then176
                                        #   in Loop: Header=BB12_35 Depth=1
	jmp	.LBB12_85
.LBB12_61:                              # %if.end177
                                        #   in Loop: Header=BB12_46 Depth=2
	jmp	.LBB12_62
.LBB12_62:                              # %while.cond178
                                        #   Parent Loop BB12_35 Depth=1
                                        #     Parent Loop BB12_46 Depth=2
                                        # =>    This Inner Loop Header: Depth=3
	xorl	%eax, %eax
	movq	-32(%rbp), %rcx
	movl	-8(%rbp), %edx
	sarl	$5, %edx
	movslq	%edx, %rdx
	movl	(%rcx,%rdx,4), %edx
	movl	-8(%rbp), %ecx
	andl	$31, %ecx
                                        # kill: def $cl killed $ecx
	movl	$1, %esi
	shll	%cl, %esi
	andl	%esi, %edx
	cmpl	$0, %edx
	jne	.LBB12_64
# %bb.63:                               # %land.rhs186
                                        #   in Loop: Header=BB12_62 Depth=3
	movl	-8(%rbp), %eax
	andl	$31, %eax
	cmpl	$0, %eax
	setne	%al
.LBB12_64:                              # %land.end189
                                        #   in Loop: Header=BB12_62 Depth=3
	testb	$1, %al
	jne	.LBB12_65
	jmp	.LBB12_66
.LBB12_65:                              # %while.body190
                                        #   in Loop: Header=BB12_62 Depth=3
	movl	-8(%rbp), %eax
	addl	$1, %eax
	movl	%eax, -8(%rbp)
	jmp	.LBB12_62
.LBB12_66:                              # %while.end192
                                        #   in Loop: Header=BB12_46 Depth=2
	movq	-32(%rbp), %rax
	movl	-8(%rbp), %ecx
	sarl	$5, %ecx
	movslq	%ecx, %rcx
	movl	(%rax,%rcx,4), %eax
	movl	-8(%rbp), %ecx
	andl	$31, %ecx
                                        # kill: def $cl killed $ecx
	movl	$1, %edx
	shll	%cl, %edx
	andl	%edx, %eax
	cmpl	$0, %eax
	jne	.LBB12_74
# %bb.67:                               # %if.then200
                                        #   in Loop: Header=BB12_46 Depth=2
	jmp	.LBB12_68
.LBB12_68:                              # %while.cond201
                                        #   Parent Loop BB12_35 Depth=1
                                        #     Parent Loop BB12_46 Depth=2
                                        # =>    This Inner Loop Header: Depth=3
	movq	-32(%rbp), %rax
	movl	-8(%rbp), %ecx
	sarl	$5, %ecx
	movslq	%ecx, %rcx
	cmpl	$0, (%rax,%rcx,4)
	jne	.LBB12_70
# %bb.69:                               # %while.body207
                                        #   in Loop: Header=BB12_68 Depth=3
	movl	-8(%rbp), %eax
	addl	$32, %eax
	movl	%eax, -8(%rbp)
	jmp	.LBB12_68
.LBB12_70:                              # %while.end209
                                        #   in Loop: Header=BB12_46 Depth=2
	jmp	.LBB12_71
.LBB12_71:                              # %while.cond210
                                        #   Parent Loop BB12_35 Depth=1
                                        #     Parent Loop BB12_46 Depth=2
                                        # =>    This Inner Loop Header: Depth=3
	movq	-32(%rbp), %rax
	movl	-8(%rbp), %ecx
	sarl	$5, %ecx
	movslq	%ecx, %rcx
	movl	(%rax,%rcx,4), %eax
	movl	-8(%rbp), %ecx
	andl	$31, %ecx
                                        # kill: def $cl killed $ecx
	movl	$1, %edx
	shll	%cl, %edx
	andl	%edx, %eax
	cmpl	$0, %eax
	setne	%al
	xorb	$-1, %al
	testb	$1, %al
	jne	.LBB12_72
	jmp	.LBB12_73
.LBB12_72:                              # %while.body218
                                        #   in Loop: Header=BB12_71 Depth=3
	movl	-8(%rbp), %eax
	addl	$1, %eax
	movl	%eax, -8(%rbp)
	jmp	.LBB12_71
.LBB12_73:                              # %while.end220
                                        #   in Loop: Header=BB12_46 Depth=2
	jmp	.LBB12_74
.LBB12_74:                              # %if.end221
                                        #   in Loop: Header=BB12_46 Depth=2
	movl	-8(%rbp), %eax
	subl	$1, %eax
	movl	%eax, -20(%rbp)
	movl	-20(%rbp), %eax
	cmpl	-12(%rbp), %eax
	jl	.LBB12_76
# %bb.75:                               # %if.then225
                                        #   in Loop: Header=BB12_35 Depth=1
	jmp	.LBB12_85
.LBB12_76:                              # %if.end226
                                        #   in Loop: Header=BB12_46 Depth=2
	movl	-20(%rbp), %eax
	cmpl	-36(%rbp), %eax
	jle	.LBB12_84
# %bb.77:                               # %if.then229
                                        #   in Loop: Header=BB12_46 Depth=2
	movl	-20(%rbp), %eax
	subl	-36(%rbp), %eax
	addl	$1, %eax
	addl	-48(%rbp), %eax
	movl	%eax, -48(%rbp)
	movq	-56(%rbp), %rdi
	movq	-72(%rbp), %rsi
	movl	-36(%rbp), %edx
	movl	-20(%rbp), %ecx
	callq	fallbackQSort3
	movl	$-1, -64(%rbp)
	movl	-36(%rbp), %eax
	movl	%eax, -4(%rbp)
.LBB12_78:                              # %for.cond233
                                        #   Parent Loop BB12_35 Depth=1
                                        #     Parent Loop BB12_46 Depth=2
                                        # =>    This Inner Loop Header: Depth=3
	movl	-4(%rbp), %eax
	cmpl	-20(%rbp), %eax
	jg	.LBB12_83
# %bb.79:                               # %for.body236
                                        #   in Loop: Header=BB12_78 Depth=3
	movq	-72(%rbp), %rax
	movq	-56(%rbp), %rcx
	movslq	-4(%rbp), %rdx
	movl	(%rcx,%rdx,4), %ecx
	movl	(%rax,%rcx,4), %eax
	movl	%eax, -60(%rbp)
	movl	-64(%rbp), %eax
	cmpl	-60(%rbp), %eax
	je	.LBB12_81
# %bb.80:                               # %if.then243
                                        #   in Loop: Header=BB12_78 Depth=3
	movl	-4(%rbp), %ecx
	andl	$31, %ecx
                                        # kill: def $cl killed $ecx
	movl	$1, %eax
	shll	%cl, %eax
	movq	-32(%rbp), %rcx
	movl	-4(%rbp), %edx
	sarl	$5, %edx
	movslq	%edx, %rdx
	orl	(%rcx,%rdx,4), %eax
	movl	%eax, (%rcx,%rdx,4)
	movl	-60(%rbp), %eax
	movl	%eax, -64(%rbp)
.LBB12_81:                              # %if.end250
                                        #   in Loop: Header=BB12_78 Depth=3
	jmp	.LBB12_82
.LBB12_82:                              # %for.inc251
                                        #   in Loop: Header=BB12_78 Depth=3
	movl	-4(%rbp), %eax
	addl	$1, %eax
	movl	%eax, -4(%rbp)
	jmp	.LBB12_78
.LBB12_83:                              # %for.end253
                                        #   in Loop: Header=BB12_46 Depth=2
	jmp	.LBB12_84
.LBB12_84:                              # %if.end254
                                        #   in Loop: Header=BB12_46 Depth=2
	jmp	.LBB12_46
.LBB12_85:                              # %while.end255
                                        #   in Loop: Header=BB12_35 Depth=1
	cmpl	$4, -44(%rbp)
	jl	.LBB12_87
# %bb.86:                               # %if.then258
                                        #   in Loop: Header=BB12_35 Depth=1
	movq	stderr, %rdi
	movl	-48(%rbp), %edx
	movabsq	$.L.str.4, %rsi
	movb	$0, %al
	callq	fprintf
.LBB12_87:                              # %if.end260
                                        #   in Loop: Header=BB12_35 Depth=1
	movl	-40(%rbp), %eax
	shll	$1, %eax
	movl	%eax, -40(%rbp)
	movl	-40(%rbp), %eax
	cmpl	-12(%rbp), %eax
	jg	.LBB12_89
# %bb.88:                               # %lor.lhs.false
                                        #   in Loop: Header=BB12_35 Depth=1
	cmpl	$0, -48(%rbp)
	jne	.LBB12_90
.LBB12_89:                              # %if.then266
	jmp	.LBB12_91
.LBB12_90:                              # %if.end267
                                        #   in Loop: Header=BB12_35 Depth=1
	jmp	.LBB12_35
.LBB12_91:                              # %while.end268
	cmpl	$4, -44(%rbp)
	jl	.LBB12_93
# %bb.92:                               # %if.then271
	movq	stderr, %rdi
	movabsq	$.L.str.5, %rsi
	movb	$0, %al
	callq	fprintf
.LBB12_93:                              # %if.end273
	movl	$0, -16(%rbp)
	movl	$0, -4(%rbp)
.LBB12_94:                              # %for.cond274
                                        # =>This Loop Header: Depth=1
                                        #     Child Loop BB12_96 Depth 2
	movl	-4(%rbp), %eax
	cmpl	-12(%rbp), %eax
	jge	.LBB12_100
# %bb.95:                               # %for.body277
                                        #   in Loop: Header=BB12_94 Depth=1
	jmp	.LBB12_96
.LBB12_96:                              # %while.cond
                                        #   Parent Loop BB12_94 Depth=1
                                        # =>  This Inner Loop Header: Depth=2
	movslq	-16(%rbp), %rax
	cmpl	$0, -2144(%rbp,%rax,4)
	jne	.LBB12_98
# %bb.97:                               # %while.body282
                                        #   in Loop: Header=BB12_96 Depth=2
	movl	-16(%rbp), %eax
	addl	$1, %eax
	movl	%eax, -16(%rbp)
	jmp	.LBB12_96
.LBB12_98:                              # %while.end284
                                        #   in Loop: Header=BB12_94 Depth=1
	movslq	-16(%rbp), %rax
	movl	-2144(%rbp,%rax,4), %ecx
	addl	$-1, %ecx
	movl	%ecx, -2144(%rbp,%rax,4)
	movl	-16(%rbp), %eax
	movq	-80(%rbp), %rcx
	movq	-56(%rbp), %rdx
	movslq	-4(%rbp), %rsi
	movl	(%rdx,%rsi,4), %edx
	movb	%al, (%rcx,%rdx)
# %bb.99:                               # %for.inc292
                                        #   in Loop: Header=BB12_94 Depth=1
	movl	-4(%rbp), %eax
	addl	$1, %eax
	movl	%eax, -4(%rbp)
	jmp	.LBB12_94
.LBB12_100:                             # %for.end294
	cmpl	$256, -16(%rbp)         # imm = 0x100
	jl	.LBB12_102
# %bb.101:                              # %if.then297
	movl	$1005, %edi             # imm = 0x3ED
	callq	BZ2_bz__AssertH__fail
.LBB12_102:                             # %if.end298
	cmpl	$1576172717, -84(%rbp)  # imm = 0x5DF27CAD
	jne	.LBB12_104
.LBB12_103:
	addq	$2144, %rsp             # imm = 0x860
	popq	%rbp
	.cfi_def_cfa %rsp, 8
	retq
.LBB12_104:                             # %func_exit
	.cfi_def_cfa %rbp, 16
	callq	detect_breach
	jmp	.LBB12_103
.Lfunc_end12:
	.size	fallbackSort.4, .Lfunc_end12-fallbackSort.4
	.cfi_endproc
                                        # -- End function
	.p2align	4, 0x90         # -- Begin function mainSimpleSort.5
	.type	mainSimpleSort.5,@function
mainSimpleSort.5:                       # @mainSimpleSort.5
	.cfi_startproc
# %bb.0:                                # %entry
	pushq	%rbp
	.cfi_def_cfa_offset 16
	.cfi_offset %rbp, -16
	movq	%rsp, %rbp
	.cfi_def_cfa_register %rbp
	subq	$80, %rsp
	movq	24(%rbp), %rax
	movl	16(%rbp), %eax
	movl	$174979631, -68(%rbp)   # imm = 0xA6DFA2F
	movq	%rdi, -32(%rbp)
	movq	%rsi, -56(%rbp)
	movq	%rdx, -64(%rbp)
	movl	%ecx, -44(%rbp)
	movl	%r8d, -36(%rbp)
	movl	%r9d, -40(%rbp)
	movl	-40(%rbp), %eax
	subl	-36(%rbp), %eax
	addl	$1, %eax
	movl	%eax, -48(%rbp)
	cmpl	$2, -48(%rbp)
	jge	.LBB13_2
# %bb.1:                                # %if.then
	jmp	.LBB13_38
.LBB13_2:                               # %if.end
	movl	$0, -16(%rbp)
.LBB13_3:                               # %while.cond
                                        # =>This Inner Loop Header: Depth=1
	movslq	-16(%rbp), %rax
	movl	incs(,%rax,4), %eax
	cmpl	-48(%rbp), %eax
	jge	.LBB13_5
# %bb.4:                                # %while.body
                                        #   in Loop: Header=BB13_3 Depth=1
	movl	-16(%rbp), %eax
	addl	$1, %eax
	movl	%eax, -16(%rbp)
	jmp	.LBB13_3
.LBB13_5:                               # %while.end
	movl	-16(%rbp), %eax
	addl	$-1, %eax
	movl	%eax, -16(%rbp)
.LBB13_6:                               # %for.cond
                                        # =>This Loop Header: Depth=1
                                        #     Child Loop BB13_8 Depth 2
                                        #       Child Loop BB13_11 Depth 3
                                        #       Child Loop BB13_19 Depth 3
                                        #       Child Loop BB13_27 Depth 3
	cmpl	$0, -16(%rbp)
	jl	.LBB13_37
# %bb.7:                                # %for.body
                                        #   in Loop: Header=BB13_6 Depth=1
	movslq	-16(%rbp), %rax
	movl	incs(,%rax,4), %eax
	movl	%eax, -12(%rbp)
	movl	-36(%rbp), %eax
	addl	-12(%rbp), %eax
	movl	%eax, -8(%rbp)
.LBB13_8:                               # %while.body7
                                        #   Parent Loop BB13_6 Depth=1
                                        # =>  This Loop Header: Depth=2
                                        #       Child Loop BB13_11 Depth 3
                                        #       Child Loop BB13_19 Depth 3
                                        #       Child Loop BB13_27 Depth 3
	movl	-8(%rbp), %eax
	cmpl	-40(%rbp), %eax
	jle	.LBB13_10
# %bb.9:                                # %if.then9
                                        #   in Loop: Header=BB13_6 Depth=1
	jmp	.LBB13_35
.LBB13_10:                              # %if.end10
                                        #   in Loop: Header=BB13_8 Depth=2
	movq	-32(%rbp), %rax
	movslq	-8(%rbp), %rcx
	movl	(%rax,%rcx,4), %eax
	movl	%eax, -20(%rbp)
	movl	-8(%rbp), %eax
	movl	%eax, -4(%rbp)
.LBB13_11:                              # %while.cond13
                                        #   Parent Loop BB13_6 Depth=1
                                        #     Parent Loop BB13_8 Depth=2
                                        # =>    This Inner Loop Header: Depth=3
	movq	-32(%rbp), %rax
	movl	-4(%rbp), %ecx
	subl	-12(%rbp), %ecx
	movslq	%ecx, %rcx
	movl	(%rax,%rcx,4), %edi
	addl	16(%rbp), %edi
	movl	-20(%rbp), %esi
	addl	16(%rbp), %esi
	movq	-56(%rbp), %rdx
	movq	-64(%rbp), %rcx
	movl	-44(%rbp), %r8d
	movq	24(%rbp), %r9
	callq	mainGtU
	cmpb	$0, %al
	je	.LBB13_15
# %bb.12:                               # %while.body19
                                        #   in Loop: Header=BB13_11 Depth=3
	movq	-32(%rbp), %rax
	movl	-4(%rbp), %ecx
	subl	-12(%rbp), %ecx
	movslq	%ecx, %rcx
	movl	(%rax,%rcx,4), %eax
	movq	-32(%rbp), %rcx
	movslq	-4(%rbp), %rdx
	movl	%eax, (%rcx,%rdx,4)
	movl	-4(%rbp), %eax
	subl	-12(%rbp), %eax
	movl	%eax, -4(%rbp)
	movl	-4(%rbp), %eax
	movl	-36(%rbp), %ecx
	addl	-12(%rbp), %ecx
	subl	$1, %ecx
	cmpl	%ecx, %eax
	jg	.LBB13_14
# %bb.13:                               # %if.then29
                                        #   in Loop: Header=BB13_8 Depth=2
	jmp	.LBB13_16
.LBB13_14:                              # %if.end30
                                        #   in Loop: Header=BB13_11 Depth=3
	jmp	.LBB13_11
.LBB13_15:                              # %while.end31.loopexit
                                        #   in Loop: Header=BB13_8 Depth=2
	jmp	.LBB13_16
.LBB13_16:                              # %while.end31
                                        #   in Loop: Header=BB13_8 Depth=2
	movl	-20(%rbp), %eax
	movq	-32(%rbp), %rcx
	movslq	-4(%rbp), %rdx
	movl	%eax, (%rcx,%rdx,4)
	movl	-8(%rbp), %eax
	addl	$1, %eax
	movl	%eax, -8(%rbp)
	movl	-8(%rbp), %eax
	cmpl	-40(%rbp), %eax
	jle	.LBB13_18
# %bb.17:                               # %if.then36
                                        #   in Loop: Header=BB13_6 Depth=1
	jmp	.LBB13_35
.LBB13_18:                              # %if.end37
                                        #   in Loop: Header=BB13_8 Depth=2
	movq	-32(%rbp), %rax
	movslq	-8(%rbp), %rcx
	movl	(%rax,%rcx,4), %eax
	movl	%eax, -20(%rbp)
	movl	-8(%rbp), %eax
	movl	%eax, -4(%rbp)
.LBB13_19:                              # %while.cond40
                                        #   Parent Loop BB13_6 Depth=1
                                        #     Parent Loop BB13_8 Depth=2
                                        # =>    This Inner Loop Header: Depth=3
	movq	-32(%rbp), %rax
	movl	-4(%rbp), %ecx
	subl	-12(%rbp), %ecx
	movslq	%ecx, %rcx
	movl	(%rax,%rcx,4), %edi
	addl	16(%rbp), %edi
	movl	-20(%rbp), %esi
	addl	16(%rbp), %esi
	movq	-56(%rbp), %rdx
	movq	-64(%rbp), %rcx
	movl	-44(%rbp), %r8d
	movq	24(%rbp), %r9
	callq	mainGtU
	cmpb	$0, %al
	je	.LBB13_23
# %bb.20:                               # %while.body48
                                        #   in Loop: Header=BB13_19 Depth=3
	movq	-32(%rbp), %rax
	movl	-4(%rbp), %ecx
	subl	-12(%rbp), %ecx
	movslq	%ecx, %rcx
	movl	(%rax,%rcx,4), %eax
	movq	-32(%rbp), %rcx
	movslq	-4(%rbp), %rdx
	movl	%eax, (%rcx,%rdx,4)
	movl	-4(%rbp), %eax
	subl	-12(%rbp), %eax
	movl	%eax, -4(%rbp)
	movl	-4(%rbp), %eax
	movl	-36(%rbp), %ecx
	addl	-12(%rbp), %ecx
	subl	$1, %ecx
	cmpl	%ecx, %eax
	jg	.LBB13_22
# %bb.21:                               # %if.then58
                                        #   in Loop: Header=BB13_8 Depth=2
	jmp	.LBB13_24
.LBB13_22:                              # %if.end59
                                        #   in Loop: Header=BB13_19 Depth=3
	jmp	.LBB13_19
.LBB13_23:                              # %while.end60.loopexit
                                        #   in Loop: Header=BB13_8 Depth=2
	jmp	.LBB13_24
.LBB13_24:                              # %while.end60
                                        #   in Loop: Header=BB13_8 Depth=2
	movl	-20(%rbp), %eax
	movq	-32(%rbp), %rcx
	movslq	-4(%rbp), %rdx
	movl	%eax, (%rcx,%rdx,4)
	movl	-8(%rbp), %eax
	addl	$1, %eax
	movl	%eax, -8(%rbp)
	movl	-8(%rbp), %eax
	cmpl	-40(%rbp), %eax
	jle	.LBB13_26
# %bb.25:                               # %if.then65
                                        #   in Loop: Header=BB13_6 Depth=1
	jmp	.LBB13_35
.LBB13_26:                              # %if.end66
                                        #   in Loop: Header=BB13_8 Depth=2
	movq	-32(%rbp), %rax
	movslq	-8(%rbp), %rcx
	movl	(%rax,%rcx,4), %eax
	movl	%eax, -20(%rbp)
	movl	-8(%rbp), %eax
	movl	%eax, -4(%rbp)
.LBB13_27:                              # %while.cond69
                                        #   Parent Loop BB13_6 Depth=1
                                        #     Parent Loop BB13_8 Depth=2
                                        # =>    This Inner Loop Header: Depth=3
	movq	-32(%rbp), %rax
	movl	-4(%rbp), %ecx
	subl	-12(%rbp), %ecx
	movslq	%ecx, %rcx
	movl	(%rax,%rcx,4), %edi
	addl	16(%rbp), %edi
	movl	-20(%rbp), %esi
	addl	16(%rbp), %esi
	movq	-56(%rbp), %rdx
	movq	-64(%rbp), %rcx
	movl	-44(%rbp), %r8d
	movq	24(%rbp), %r9
	callq	mainGtU
	cmpb	$0, %al
	je	.LBB13_31
# %bb.28:                               # %while.body77
                                        #   in Loop: Header=BB13_27 Depth=3
	movq	-32(%rbp), %rax
	movl	-4(%rbp), %ecx
	subl	-12(%rbp), %ecx
	movslq	%ecx, %rcx
	movl	(%rax,%rcx,4), %eax
	movq	-32(%rbp), %rcx
	movslq	-4(%rbp), %rdx
	movl	%eax, (%rcx,%rdx,4)
	movl	-4(%rbp), %eax
	subl	-12(%rbp), %eax
	movl	%eax, -4(%rbp)
	movl	-4(%rbp), %eax
	movl	-36(%rbp), %ecx
	addl	-12(%rbp), %ecx
	subl	$1, %ecx
	cmpl	%ecx, %eax
	jg	.LBB13_30
# %bb.29:                               # %if.then87
                                        #   in Loop: Header=BB13_8 Depth=2
	jmp	.LBB13_32
.LBB13_30:                              # %if.end88
                                        #   in Loop: Header=BB13_27 Depth=3
	jmp	.LBB13_27
.LBB13_31:                              # %while.end89.loopexit
                                        #   in Loop: Header=BB13_8 Depth=2
	jmp	.LBB13_32
.LBB13_32:                              # %while.end89
                                        #   in Loop: Header=BB13_8 Depth=2
	movl	-20(%rbp), %eax
	movq	-32(%rbp), %rcx
	movslq	-4(%rbp), %rdx
	movl	%eax, (%rcx,%rdx,4)
	movl	-8(%rbp), %eax
	addl	$1, %eax
	movl	%eax, -8(%rbp)
	movq	24(%rbp), %rax
	cmpl	$0, (%rax)
	jge	.LBB13_34
# %bb.33:                               # %if.then94
	jmp	.LBB13_38
.LBB13_34:                              # %if.end95
                                        #   in Loop: Header=BB13_8 Depth=2
	jmp	.LBB13_8
.LBB13_35:                              # %while.end96
                                        #   in Loop: Header=BB13_6 Depth=1
	jmp	.LBB13_36
.LBB13_36:                              # %for.inc
                                        #   in Loop: Header=BB13_6 Depth=1
	movl	-16(%rbp), %eax
	addl	$-1, %eax
	movl	%eax, -16(%rbp)
	jmp	.LBB13_6
.LBB13_37:                              # %for.end.loopexit
	jmp	.LBB13_38
.LBB13_38:                              # %for.end
	cmpl	$174979631, -68(%rbp)   # imm = 0xA6DFA2F
	jne	.LBB13_40
.LBB13_39:
	addq	$80, %rsp
	popq	%rbp
	.cfi_def_cfa %rsp, 8
	retq
.LBB13_40:                              # %func_exit
	.cfi_def_cfa %rbp, 16
	callq	detect_breach
	jmp	.LBB13_39
.Lfunc_end13:
	.size	mainSimpleSort.5, .Lfunc_end13-mainSimpleSort.5
	.cfi_endproc
                                        # -- End function
	.p2align	4, 0x90         # -- Begin function mmed3.6
	.type	mmed3.6,@function
mmed3.6:                                # @mmed3.6
	.cfi_startproc
# %bb.0:                                # %entry
	pushq	%rbp
	.cfi_def_cfa_offset 16
	.cfi_offset %rbp, -16
	movq	%rsp, %rbp
	.cfi_def_cfa_register %rbp
	pushq	%rbx
	pushq	%rax
	.cfi_offset %rbx, -24
	movl	$1357739878, -16(%rbp)  # imm = 0x50ED7766
	movb	%dil, -10(%rbp)
	movb	%sil, -9(%rbp)
	movb	%dl, -11(%rbp)
	movzbl	-10(%rbp), %eax
	movzbl	-9(%rbp), %ecx
	cmpl	%ecx, %eax
	jle	.LBB14_2
# %bb.1:                                # %if.then
	movb	-10(%rbp), %al
	movb	%al, -12(%rbp)
	movb	-9(%rbp), %al
	movb	%al, -10(%rbp)
	movb	-12(%rbp), %al
	movb	%al, -9(%rbp)
.LBB14_2:                               # %if.end
	movzbl	-9(%rbp), %eax
	movzbl	-11(%rbp), %ecx
	cmpl	%ecx, %eax
	jle	.LBB14_6
# %bb.3:                                # %if.then7
	movb	-11(%rbp), %al
	movb	%al, -9(%rbp)
	movzbl	-10(%rbp), %eax
	movzbl	-9(%rbp), %ecx
	cmpl	%ecx, %eax
	jle	.LBB14_5
# %bb.4:                                # %if.then12
	movb	-10(%rbp), %al
	movb	%al, -9(%rbp)
.LBB14_5:                               # %if.end13
	jmp	.LBB14_6
.LBB14_6:                               # %if.end14
	movb	-9(%rbp), %bl
	cmpl	$1357739878, -16(%rbp)  # imm = 0x50ED7766
	jne	.LBB14_8
.LBB14_7:
	movzbl	%bl, %eax
	addq	$8, %rsp
	popq	%rbx
	popq	%rbp
	.cfi_def_cfa %rsp, 8
	retq
.LBB14_8:                               # %func_exit
	.cfi_def_cfa %rbp, 16
	callq	detect_breach
	jmp	.LBB14_7
.Lfunc_end14:
	.size	mmed3.6, .Lfunc_end14-mmed3.6
	.cfi_endproc
                                        # -- End function
	.globl	BZ2_blockSort.7         # -- Begin function BZ2_blockSort.7
	.p2align	4, 0x90
	.type	BZ2_blockSort.7,@function
BZ2_blockSort.7:                        # @BZ2_blockSort.7
	.cfi_startproc
# %bb.0:                                # %entry
	pushq	%rbp
	.cfi_def_cfa_offset 16
	.cfi_offset %rbp, -16
	movq	%rsp, %rbp
	.cfi_def_cfa_register %rbp
	subq	$80, %rsp
	movl	$1521640056, -44(%rbp)  # imm = 0x5AB26278
	movq	%rdi, -16(%rbp)
	movq	-16(%rbp), %rax
	movq	56(%rax), %rax
	movq	%rax, -64(%rbp)
	movq	-16(%rbp), %rax
	movq	64(%rax), %rax
	movq	%rax, -56(%rbp)
	movq	-16(%rbp), %rax
	movq	40(%rax), %rax
	movq	%rax, -40(%rbp)
	movq	-16(%rbp), %rax
	movl	108(%rax), %eax
	movl	%eax, -8(%rbp)
	movq	-16(%rbp), %rax
	movl	656(%rax), %eax
	movl	%eax, -24(%rbp)
	movq	-16(%rbp), %rax
	movl	88(%rax), %eax
	movl	%eax, -20(%rbp)
	cmpl	$10000, -8(%rbp)        # imm = 0x2710
	jge	.LBB15_2
# %bb.1:                                # %if.then
	movq	-16(%rbp), %rax
	movq	24(%rax), %rdi
	movq	-16(%rbp), %rax
	movq	32(%rax), %rsi
	movq	-40(%rbp), %rdx
	movl	-8(%rbp), %ecx
	movl	-24(%rbp), %r8d
	callq	fallbackSort
	jmp	.LBB15_18
.LBB15_2:                               # %if.else
	movl	-8(%rbp), %eax
	addl	$34, %eax
	movl	%eax, -4(%rbp)
	movl	-4(%rbp), %eax
	andl	$1, %eax
	cmpl	$0, %eax
	je	.LBB15_4
# %bb.3:                                # %if.then5
	movl	-4(%rbp), %eax
	addl	$1, %eax
	movl	%eax, -4(%rbp)
.LBB15_4:                               # %if.end
	movq	-56(%rbp), %rax
	movslq	-4(%rbp), %rcx
	addq	%rcx, %rax
	movq	%rax, -72(%rbp)
	cmpl	$1, -20(%rbp)
	jge	.LBB15_6
# %bb.5:                                # %if.then7
	movl	$1, -20(%rbp)
.LBB15_6:                               # %if.end8
	cmpl	$100, -20(%rbp)
	jle	.LBB15_8
# %bb.7:                                # %if.then10
	movl	$100, -20(%rbp)
.LBB15_8:                               # %if.end11
	movl	-8(%rbp), %ecx
	movl	-20(%rbp), %eax
	subl	$1, %eax
	cltd
	movl	$3, %esi
	idivl	%esi
	imull	%eax, %ecx
	movl	%ecx, -32(%rbp)
	movl	-32(%rbp), %eax
	movl	%eax, -28(%rbp)
	movq	-64(%rbp), %rdi
	movq	-56(%rbp), %rsi
	movq	-72(%rbp), %rdx
	movq	-40(%rbp), %rcx
	movl	-8(%rbp), %r8d
	movl	-24(%rbp), %r9d
	leaq	-28(%rbp), %rax
	movq	%rax, (%rsp)
	callq	mainSort
	cmpl	$3, -24(%rbp)
	jl	.LBB15_13
# %bb.9:                                # %if.then13
	movq	stderr, %rdi
	movl	-32(%rbp), %edx
	subl	-28(%rbp), %edx
	movl	-8(%rbp), %ecx
	movl	-32(%rbp), %eax
	subl	-28(%rbp), %eax
	vcvtsi2ss	%eax, %xmm0, %xmm0
	cmpl	$0, -8(%rbp)
	jne	.LBB15_11
# %bb.10:                               # %cond.true
	movl	$1, %eax
	jmp	.LBB15_12
.LBB15_11:                              # %cond.false
	movl	-8(%rbp), %eax
.LBB15_12:                              # %cond.end
	vcvtsi2ss	%eax, %xmm0, %xmm1
	vdivss	%xmm1, %xmm0, %xmm0
	vcvtss2sd	%xmm0, %xmm0, %xmm0
	movabsq	$.L.str, %rsi
	movb	$1, %al
	callq	fprintf
.LBB15_13:                              # %if.end21
	cmpl	$0, -28(%rbp)
	jge	.LBB15_17
# %bb.14:                               # %if.then24
	cmpl	$2, -24(%rbp)
	jl	.LBB15_16
# %bb.15:                               # %if.then27
	movq	stderr, %rdi
	movabsq	$.L.str.1, %rsi
	movb	$0, %al
	callq	fprintf
.LBB15_16:                              # %if.end29
	movq	-16(%rbp), %rax
	movq	24(%rax), %rdi
	movq	-16(%rbp), %rax
	movq	32(%rax), %rsi
	movq	-40(%rbp), %rdx
	movl	-8(%rbp), %ecx
	movl	-24(%rbp), %r8d
	callq	fallbackSort
.LBB15_17:                              # %if.end32
	jmp	.LBB15_18
.LBB15_18:                              # %if.end33
	movq	-16(%rbp), %rax
	movl	$-1, 48(%rax)
	movl	$0, -4(%rbp)
.LBB15_19:                              # %for.cond
                                        # =>This Inner Loop Header: Depth=1
	movl	-4(%rbp), %eax
	movq	-16(%rbp), %rcx
	cmpl	108(%rcx), %eax
	jge	.LBB15_24
# %bb.20:                               # %for.body
                                        #   in Loop: Header=BB15_19 Depth=1
	movq	-64(%rbp), %rax
	movslq	-4(%rbp), %rcx
	cmpl	$0, (%rax,%rcx,4)
	jne	.LBB15_22
# %bb.21:                               # %if.then41
	movl	-4(%rbp), %eax
	movq	-16(%rbp), %rcx
	movl	%eax, 48(%rcx)
	jmp	.LBB15_25
.LBB15_22:                              # %if.end43
                                        #   in Loop: Header=BB15_19 Depth=1
	jmp	.LBB15_23
.LBB15_23:                              # %for.inc
                                        #   in Loop: Header=BB15_19 Depth=1
	movl	-4(%rbp), %eax
	addl	$1, %eax
	movl	%eax, -4(%rbp)
	jmp	.LBB15_19
.LBB15_24:                              # %for.end.loopexit
	jmp	.LBB15_25
.LBB15_25:                              # %for.end
	movq	-16(%rbp), %rax
	cmpl	$-1, 48(%rax)
	jne	.LBB15_27
# %bb.26:                               # %if.then48
	movl	$1003, %edi             # imm = 0x3EB
	callq	BZ2_bz__AssertH__fail
.LBB15_27:                              # %if.end49
	cmpl	$1521640056, -44(%rbp)  # imm = 0x5AB26278
	jne	.LBB15_29
.LBB15_28:
	addq	$80, %rsp
	popq	%rbp
	.cfi_def_cfa %rsp, 8
	retq
.LBB15_29:                              # %func_exit
	.cfi_def_cfa %rbp, 16
	callq	detect_breach
	jmp	.LBB15_28
.Lfunc_end15:
	.size	BZ2_blockSort.7, .Lfunc_end15-BZ2_blockSort.7
	.cfi_endproc
                                        # -- End function
	.p2align	4, 0x90         # -- Begin function mainQSort3.8
	.type	mainQSort3.8,@function
mainQSort3.8:                           # @mainQSort3.8
	.cfi_startproc
# %bb.0:                                # %entry
	pushq	%rbp
	.cfi_def_cfa_offset 16
	.cfi_offset %rbp, -16
	movq	%rsp, %rbp
	.cfi_def_cfa_register %rbp
	subq	$1408, %rsp             # imm = 0x580
	movq	24(%rbp), %rax
	movl	16(%rbp), %eax
	movl	$109284825, -164(%rbp)  # imm = 0x6838DD9
	movq	%rdi, -24(%rbp)
	movq	%rsi, -136(%rbp)
	movq	%rdx, -184(%rbp)
	movl	%ecx, -168(%rbp)
	movl	%r8d, -144(%rbp)
	movl	%r9d, -176(%rbp)
	movl	$0, -4(%rbp)
	movl	-144(%rbp), %eax
	movslq	-4(%rbp), %rcx
	movl	%eax, -992(%rbp,%rcx,4)
	movl	-176(%rbp), %eax
	movslq	-4(%rbp), %rcx
	movl	%eax, -592(%rbp,%rcx,4)
	movl	16(%rbp), %eax
	movslq	-4(%rbp), %rcx
	movl	%eax, -1392(%rbp,%rcx,4)
	movl	-4(%rbp), %eax
	addl	$1, %eax
	movl	%eax, -4(%rbp)
.LBB16_1:                               # %while.cond
                                        # =>This Loop Header: Depth=1
                                        #     Child Loop BB16_11 Depth 2
                                        #       Child Loop BB16_12 Depth 3
                                        #       Child Loop BB16_21 Depth 3
                                        #     Child Loop BB16_38 Depth 2
                                        #     Child Loop BB16_44 Depth 2
	cmpl	$0, -4(%rbp)
	jle	.LBB16_53
# %bb.2:                                # %while.body
                                        #   in Loop: Header=BB16_1 Depth=1
	cmpl	$100, -4(%rbp)
	jl	.LBB16_4
# %bb.3:                                # %if.then
                                        #   in Loop: Header=BB16_1 Depth=1
	movl	$1001, %edi             # imm = 0x3E9
	callq	BZ2_bz__AssertH__fail
.LBB16_4:                               # %if.end
                                        #   in Loop: Header=BB16_1 Depth=1
	movl	-4(%rbp), %eax
	addl	$-1, %eax
	movl	%eax, -4(%rbp)
	movslq	-4(%rbp), %rax
	movl	-992(%rbp,%rax,4), %eax
	movl	%eax, -36(%rbp)
	movslq	-4(%rbp), %rax
	movl	-592(%rbp,%rax,4), %eax
	movl	%eax, -40(%rbp)
	movslq	-4(%rbp), %rax
	movl	-1392(%rbp,%rax,4), %eax
	movl	%eax, -28(%rbp)
	movl	-40(%rbp), %eax
	subl	-36(%rbp), %eax
	cmpl	$20, %eax
	jl	.LBB16_6
# %bb.5:                                # %lor.lhs.false
                                        #   in Loop: Header=BB16_1 Depth=1
	cmpl	$14, -28(%rbp)
	jle	.LBB16_10
.LBB16_6:                               # %if.then14
                                        #   in Loop: Header=BB16_1 Depth=1
	movq	-24(%rbp), %rdi
	movq	-136(%rbp), %rsi
	movq	-184(%rbp), %rdx
	movl	-168(%rbp), %ecx
	movl	-36(%rbp), %r8d
	movl	-40(%rbp), %r9d
	movl	-28(%rbp), %eax
	movq	24(%rbp), %r10
	movl	%eax, (%rsp)
	movq	%r10, 8(%rsp)
	callq	mainSimpleSort
	movq	24(%rbp), %rax
	cmpl	$0, (%rax)
	jge	.LBB16_8
# %bb.7:                                # %if.then16
	jmp	.LBB16_54
.LBB16_8:                               # %if.end17
                                        #   in Loop: Header=BB16_1 Depth=1
	jmp	.LBB16_9
.LBB16_9:                               # %while.cond.backedge
                                        #   in Loop: Header=BB16_1 Depth=1
	jmp	.LBB16_1
.LBB16_10:                              # %if.end18
                                        #   in Loop: Header=BB16_1 Depth=1
	movq	-136(%rbp), %rax
	movq	-24(%rbp), %rcx
	movslq	-36(%rbp), %rdx
	movl	(%rcx,%rdx,4), %ecx
	addl	-28(%rbp), %ecx
	movl	%ecx, %ecx
	movb	(%rax,%rcx), %r8b
	movq	-136(%rbp), %rcx
	movq	-24(%rbp), %rdx
	movslq	-40(%rbp), %rsi
	movl	(%rdx,%rsi,4), %edx
	addl	-28(%rbp), %edx
	movl	%edx, %edx
	movb	(%rcx,%rdx), %cl
	movq	-136(%rbp), %rdx
	movq	-24(%rbp), %rsi
	movl	-36(%rbp), %edi
	addl	-40(%rbp), %edi
	sarl	$1, %edi
	movslq	%edi, %rdi
	movl	(%rsi,%rdi,4), %esi
	addl	-28(%rbp), %esi
	movl	%esi, %eax
	movzbl	%r8b, %edi
	movzbl	%cl, %esi
	movzbl	(%rdx,%rax), %edx
	callq	mmed3
	movzbl	%al, %eax
	movl	%eax, -140(%rbp)
	movl	-36(%rbp), %eax
	movl	%eax, -48(%rbp)
	movl	%eax, -8(%rbp)
	movl	-40(%rbp), %eax
	movl	%eax, -44(%rbp)
	movl	%eax, -12(%rbp)
.LBB16_11:                              # %while.body35
                                        #   Parent Loop BB16_1 Depth=1
                                        # =>  This Loop Header: Depth=2
                                        #       Child Loop BB16_12 Depth 3
                                        #       Child Loop BB16_21 Depth 3
	jmp	.LBB16_12
.LBB16_12:                              # %while.body37
                                        #   Parent Loop BB16_1 Depth=1
                                        #     Parent Loop BB16_11 Depth=2
                                        # =>    This Inner Loop Header: Depth=3
	movl	-8(%rbp), %eax
	cmpl	-12(%rbp), %eax
	jle	.LBB16_14
# %bb.13:                               # %if.then40
                                        #   in Loop: Header=BB16_11 Depth=2
	jmp	.LBB16_20
.LBB16_14:                              # %if.end41
                                        #   in Loop: Header=BB16_12 Depth=3
	movq	-136(%rbp), %rax
	movq	-24(%rbp), %rcx
	movslq	-8(%rbp), %rdx
	movl	(%rcx,%rdx,4), %ecx
	addl	-28(%rbp), %ecx
	movl	%ecx, %ecx
	movzbl	(%rax,%rcx), %eax
	subl	-140(%rbp), %eax
	movl	%eax, -32(%rbp)
	cmpl	$0, -32(%rbp)
	jne	.LBB16_17
# %bb.15:                               # %if.then51
                                        #   in Loop: Header=BB16_12 Depth=3
	movq	-24(%rbp), %rax
	movslq	-8(%rbp), %rcx
	movl	(%rax,%rcx,4), %eax
	movl	%eax, -156(%rbp)
	movq	-24(%rbp), %rax
	movslq	-48(%rbp), %rcx
	movl	(%rax,%rcx,4), %eax
	movq	-24(%rbp), %rcx
	movslq	-8(%rbp), %rdx
	movl	%eax, (%rcx,%rdx,4)
	movl	-156(%rbp), %eax
	movq	-24(%rbp), %rcx
	movslq	-48(%rbp), %rdx
	movl	%eax, (%rcx,%rdx,4)
	movl	-48(%rbp), %eax
	addl	$1, %eax
	movl	%eax, -48(%rbp)
	movl	-8(%rbp), %eax
	addl	$1, %eax
	movl	%eax, -8(%rbp)
.LBB16_16:                              # %while.body37.backedge
                                        #   in Loop: Header=BB16_12 Depth=3
	jmp	.LBB16_12
.LBB16_17:                              # %if.end62
                                        #   in Loop: Header=BB16_12 Depth=3
	cmpl	$0, -32(%rbp)
	jle	.LBB16_19
# %bb.18:                               # %if.then65
                                        #   in Loop: Header=BB16_11 Depth=2
	jmp	.LBB16_20
.LBB16_19:                              # %if.end66
                                        #   in Loop: Header=BB16_12 Depth=3
	movl	-8(%rbp), %eax
	addl	$1, %eax
	movl	%eax, -8(%rbp)
	jmp	.LBB16_16
.LBB16_20:                              # %while.end
                                        #   in Loop: Header=BB16_11 Depth=2
	jmp	.LBB16_21
.LBB16_21:                              # %while.body69
                                        #   Parent Loop BB16_1 Depth=1
                                        #     Parent Loop BB16_11 Depth=2
                                        # =>    This Inner Loop Header: Depth=3
	movl	-8(%rbp), %eax
	cmpl	-12(%rbp), %eax
	jle	.LBB16_23
# %bb.22:                               # %if.then72
                                        #   in Loop: Header=BB16_11 Depth=2
	jmp	.LBB16_29
.LBB16_23:                              # %if.end73
                                        #   in Loop: Header=BB16_21 Depth=3
	movq	-136(%rbp), %rax
	movq	-24(%rbp), %rcx
	movslq	-12(%rbp), %rdx
	movl	(%rcx,%rdx,4), %ecx
	addl	-28(%rbp), %ecx
	movl	%ecx, %ecx
	movzbl	(%rax,%rcx), %eax
	subl	-140(%rbp), %eax
	movl	%eax, -32(%rbp)
	cmpl	$0, -32(%rbp)
	jne	.LBB16_26
# %bb.24:                               # %if.then83
                                        #   in Loop: Header=BB16_21 Depth=3
	movq	-24(%rbp), %rax
	movslq	-12(%rbp), %rcx
	movl	(%rax,%rcx,4), %eax
	movl	%eax, -152(%rbp)
	movq	-24(%rbp), %rax
	movslq	-44(%rbp), %rcx
	movl	(%rax,%rcx,4), %eax
	movq	-24(%rbp), %rcx
	movslq	-12(%rbp), %rdx
	movl	%eax, (%rcx,%rdx,4)
	movl	-152(%rbp), %eax
	movq	-24(%rbp), %rcx
	movslq	-44(%rbp), %rdx
	movl	%eax, (%rcx,%rdx,4)
	movl	-44(%rbp), %eax
	addl	$-1, %eax
	movl	%eax, -44(%rbp)
	movl	-12(%rbp), %eax
	addl	$-1, %eax
	movl	%eax, -12(%rbp)
.LBB16_25:                              # %while.body69.backedge
                                        #   in Loop: Header=BB16_21 Depth=3
	jmp	.LBB16_21
.LBB16_26:                              # %if.end95
                                        #   in Loop: Header=BB16_21 Depth=3
	cmpl	$0, -32(%rbp)
	jge	.LBB16_28
# %bb.27:                               # %if.then98
                                        #   in Loop: Header=BB16_11 Depth=2
	jmp	.LBB16_29
.LBB16_28:                              # %if.end99
                                        #   in Loop: Header=BB16_21 Depth=3
	movl	-12(%rbp), %eax
	addl	$-1, %eax
	movl	%eax, -12(%rbp)
	jmp	.LBB16_25
.LBB16_29:                              # %while.end101
                                        #   in Loop: Header=BB16_11 Depth=2
	movl	-8(%rbp), %eax
	cmpl	-12(%rbp), %eax
	jle	.LBB16_31
# %bb.30:                               # %if.then104
                                        #   in Loop: Header=BB16_1 Depth=1
	jmp	.LBB16_32
.LBB16_31:                              # %if.end105
                                        #   in Loop: Header=BB16_11 Depth=2
	movq	-24(%rbp), %rax
	movslq	-8(%rbp), %rcx
	movl	(%rax,%rcx,4), %eax
	movl	%eax, -172(%rbp)
	movq	-24(%rbp), %rax
	movslq	-12(%rbp), %rcx
	movl	(%rax,%rcx,4), %eax
	movq	-24(%rbp), %rcx
	movslq	-8(%rbp), %rdx
	movl	%eax, (%rcx,%rdx,4)
	movl	-172(%rbp), %eax
	movq	-24(%rbp), %rcx
	movslq	-12(%rbp), %rdx
	movl	%eax, (%rcx,%rdx,4)
	movl	-8(%rbp), %eax
	addl	$1, %eax
	movl	%eax, -8(%rbp)
	movl	-12(%rbp), %eax
	addl	$-1, %eax
	movl	%eax, -12(%rbp)
	jmp	.LBB16_11
.LBB16_32:                              # %while.end117
                                        #   in Loop: Header=BB16_1 Depth=1
	movl	-44(%rbp), %eax
	cmpl	-48(%rbp), %eax
	jge	.LBB16_34
# %bb.33:                               # %if.then120
                                        #   in Loop: Header=BB16_1 Depth=1
	movl	-36(%rbp), %eax
	movslq	-4(%rbp), %rcx
	movl	%eax, -992(%rbp,%rcx,4)
	movl	-40(%rbp), %eax
	movslq	-4(%rbp), %rcx
	movl	%eax, -592(%rbp,%rcx,4)
	movl	-28(%rbp), %eax
	addl	$1, %eax
	movslq	-4(%rbp), %rcx
	movl	%eax, -1392(%rbp,%rcx,4)
	movl	-4(%rbp), %eax
	addl	$1, %eax
	movl	%eax, -4(%rbp)
	jmp	.LBB16_9
.LBB16_34:                              # %if.end129
                                        #   in Loop: Header=BB16_1 Depth=1
	movl	-48(%rbp), %eax
	subl	-36(%rbp), %eax
	movl	-8(%rbp), %ecx
	subl	-48(%rbp), %ecx
	cmpl	%ecx, %eax
	jge	.LBB16_36
# %bb.35:                               # %cond.true
                                        #   in Loop: Header=BB16_1 Depth=1
	movl	-48(%rbp), %eax
	subl	-36(%rbp), %eax
	jmp	.LBB16_37
.LBB16_36:                              # %cond.false
                                        #   in Loop: Header=BB16_1 Depth=1
	movl	-8(%rbp), %eax
	subl	-48(%rbp), %eax
.LBB16_37:                              # %cond.end
                                        #   in Loop: Header=BB16_1 Depth=1
	movl	%eax, -32(%rbp)
	movl	-36(%rbp), %eax
	movl	%eax, -108(%rbp)
	movl	-8(%rbp), %eax
	subl	-32(%rbp), %eax
	movl	%eax, -116(%rbp)
	movl	-32(%rbp), %eax
	movl	%eax, -124(%rbp)
.LBB16_38:                              # %while.cond137
                                        #   Parent Loop BB16_1 Depth=1
                                        # =>  This Inner Loop Header: Depth=2
	cmpl	$0, -124(%rbp)
	jle	.LBB16_40
# %bb.39:                               # %while.body140
                                        #   in Loop: Header=BB16_38 Depth=2
	movq	-24(%rbp), %rax
	movslq	-108(%rbp), %rcx
	movl	(%rax,%rcx,4), %eax
	movl	%eax, -148(%rbp)
	movq	-24(%rbp), %rax
	movslq	-116(%rbp), %rcx
	movl	(%rax,%rcx,4), %eax
	movq	-24(%rbp), %rcx
	movslq	-108(%rbp), %rdx
	movl	%eax, (%rcx,%rdx,4)
	movl	-148(%rbp), %eax
	movq	-24(%rbp), %rcx
	movslq	-116(%rbp), %rdx
	movl	%eax, (%rcx,%rdx,4)
	movl	-108(%rbp), %eax
	addl	$1, %eax
	movl	%eax, -108(%rbp)
	movl	-116(%rbp), %eax
	addl	$1, %eax
	movl	%eax, -116(%rbp)
	movl	-124(%rbp), %eax
	addl	$-1, %eax
	movl	%eax, -124(%rbp)
	jmp	.LBB16_38
.LBB16_40:                              # %while.end153
                                        #   in Loop: Header=BB16_1 Depth=1
	movl	-40(%rbp), %eax
	subl	-44(%rbp), %eax
	movl	-44(%rbp), %ecx
	subl	-12(%rbp), %ecx
	cmpl	%ecx, %eax
	jge	.LBB16_42
# %bb.41:                               # %cond.true158
                                        #   in Loop: Header=BB16_1 Depth=1
	movl	-40(%rbp), %eax
	subl	-44(%rbp), %eax
	jmp	.LBB16_43
.LBB16_42:                              # %cond.false160
                                        #   in Loop: Header=BB16_1 Depth=1
	movl	-44(%rbp), %eax
	subl	-12(%rbp), %eax
.LBB16_43:                              # %cond.end162
                                        #   in Loop: Header=BB16_1 Depth=1
	movl	%eax, -76(%rbp)
	movl	-8(%rbp), %eax
	movl	%eax, -104(%rbp)
	movl	-40(%rbp), %eax
	subl	-76(%rbp), %eax
	addl	$1, %eax
	movl	%eax, -112(%rbp)
	movl	-76(%rbp), %eax
	movl	%eax, -120(%rbp)
.LBB16_44:                              # %while.cond169
                                        #   Parent Loop BB16_1 Depth=1
                                        # =>  This Inner Loop Header: Depth=2
	cmpl	$0, -120(%rbp)
	jle	.LBB16_46
# %bb.45:                               # %while.body172
                                        #   in Loop: Header=BB16_44 Depth=2
	movq	-24(%rbp), %rax
	movslq	-104(%rbp), %rcx
	movl	(%rax,%rcx,4), %eax
	movl	%eax, -160(%rbp)
	movq	-24(%rbp), %rax
	movslq	-112(%rbp), %rcx
	movl	(%rax,%rcx,4), %eax
	movq	-24(%rbp), %rcx
	movslq	-104(%rbp), %rdx
	movl	%eax, (%rcx,%rdx,4)
	movl	-160(%rbp), %eax
	movq	-24(%rbp), %rcx
	movslq	-112(%rbp), %rdx
	movl	%eax, (%rcx,%rdx,4)
	movl	-104(%rbp), %eax
	addl	$1, %eax
	movl	%eax, -104(%rbp)
	movl	-112(%rbp), %eax
	addl	$1, %eax
	movl	%eax, -112(%rbp)
	movl	-120(%rbp), %eax
	addl	$-1, %eax
	movl	%eax, -120(%rbp)
	jmp	.LBB16_44
.LBB16_46:                              # %while.end185
                                        #   in Loop: Header=BB16_1 Depth=1
	movl	-36(%rbp), %eax
	addl	-8(%rbp), %eax
	subl	-48(%rbp), %eax
	subl	$1, %eax
	movl	%eax, -32(%rbp)
	movl	-40(%rbp), %eax
	movl	-44(%rbp), %ecx
	subl	-12(%rbp), %ecx
	subl	%ecx, %eax
	addl	$1, %eax
	movl	%eax, -76(%rbp)
	movl	-36(%rbp), %eax
	movl	%eax, -60(%rbp)
	movl	-32(%rbp), %eax
	movl	%eax, -72(%rbp)
	movl	-28(%rbp), %eax
	movl	%eax, -100(%rbp)
	movl	-76(%rbp), %eax
	movl	%eax, -56(%rbp)
	movl	-40(%rbp), %eax
	movl	%eax, -68(%rbp)
	movl	-28(%rbp), %eax
	movl	%eax, -96(%rbp)
	movl	-32(%rbp), %eax
	addl	$1, %eax
	movl	%eax, -52(%rbp)
	movl	-76(%rbp), %eax
	subl	$1, %eax
	movl	%eax, -64(%rbp)
	movl	-28(%rbp), %eax
	addl	$1, %eax
	movl	%eax, -92(%rbp)
	movl	-72(%rbp), %eax
	subl	-60(%rbp), %eax
	movl	-68(%rbp), %ecx
	subl	-56(%rbp), %ecx
	cmpl	%ecx, %eax
	jge	.LBB16_48
# %bb.47:                               # %if.then212
                                        #   in Loop: Header=BB16_1 Depth=1
	movl	-60(%rbp), %eax
	movl	%eax, -80(%rbp)
	movl	-56(%rbp), %eax
	movl	%eax, -60(%rbp)
	movl	-80(%rbp), %eax
	movl	%eax, -56(%rbp)
	movl	-72(%rbp), %eax
	movl	%eax, -80(%rbp)
	movl	-68(%rbp), %eax
	movl	%eax, -72(%rbp)
	movl	-80(%rbp), %eax
	movl	%eax, -68(%rbp)
	movl	-100(%rbp), %eax
	movl	%eax, -80(%rbp)
	movl	-96(%rbp), %eax
	movl	%eax, -100(%rbp)
	movl	-80(%rbp), %eax
	movl	%eax, -96(%rbp)
.LBB16_48:                              # %if.end225
                                        #   in Loop: Header=BB16_1 Depth=1
	movl	-68(%rbp), %eax
	subl	-56(%rbp), %eax
	movl	-64(%rbp), %ecx
	subl	-52(%rbp), %ecx
	cmpl	%ecx, %eax
	jge	.LBB16_50
# %bb.49:                               # %if.then234
                                        #   in Loop: Header=BB16_1 Depth=1
	movl	-56(%rbp), %eax
	movl	%eax, -88(%rbp)
	movl	-52(%rbp), %eax
	movl	%eax, -56(%rbp)
	movl	-88(%rbp), %eax
	movl	%eax, -52(%rbp)
	movl	-68(%rbp), %eax
	movl	%eax, -88(%rbp)
	movl	-64(%rbp), %eax
	movl	%eax, -68(%rbp)
	movl	-88(%rbp), %eax
	movl	%eax, -64(%rbp)
	movl	-96(%rbp), %eax
	movl	%eax, -88(%rbp)
	movl	-92(%rbp), %eax
	movl	%eax, -96(%rbp)
	movl	-88(%rbp), %eax
	movl	%eax, -92(%rbp)
.LBB16_50:                              # %if.end248
                                        #   in Loop: Header=BB16_1 Depth=1
	movl	-72(%rbp), %eax
	subl	-60(%rbp), %eax
	movl	-68(%rbp), %ecx
	subl	-56(%rbp), %ecx
	cmpl	%ecx, %eax
	jge	.LBB16_52
# %bb.51:                               # %if.then257
                                        #   in Loop: Header=BB16_1 Depth=1
	movl	-60(%rbp), %eax
	movl	%eax, -84(%rbp)
	movl	-56(%rbp), %eax
	movl	%eax, -60(%rbp)
	movl	-84(%rbp), %eax
	movl	%eax, -56(%rbp)
	movl	-72(%rbp), %eax
	movl	%eax, -84(%rbp)
	movl	-68(%rbp), %eax
	movl	%eax, -72(%rbp)
	movl	-84(%rbp), %eax
	movl	%eax, -68(%rbp)
	movl	-100(%rbp), %eax
	movl	%eax, -84(%rbp)
	movl	-96(%rbp), %eax
	movl	%eax, -100(%rbp)
	movl	-84(%rbp), %eax
	movl	%eax, -96(%rbp)
.LBB16_52:                              # %if.end271
                                        #   in Loop: Header=BB16_1 Depth=1
	movl	-60(%rbp), %eax
	movslq	-4(%rbp), %rcx
	movl	%eax, -992(%rbp,%rcx,4)
	movl	-72(%rbp), %eax
	movslq	-4(%rbp), %rcx
	movl	%eax, -592(%rbp,%rcx,4)
	movl	-100(%rbp), %eax
	movslq	-4(%rbp), %rcx
	movl	%eax, -1392(%rbp,%rcx,4)
	movl	-4(%rbp), %eax
	addl	$1, %eax
	movl	%eax, -4(%rbp)
	movl	-56(%rbp), %eax
	movslq	-4(%rbp), %rcx
	movl	%eax, -992(%rbp,%rcx,4)
	movl	-68(%rbp), %eax
	movslq	-4(%rbp), %rcx
	movl	%eax, -592(%rbp,%rcx,4)
	movl	-96(%rbp), %eax
	movslq	-4(%rbp), %rcx
	movl	%eax, -1392(%rbp,%rcx,4)
	movl	-4(%rbp), %eax
	addl	$1, %eax
	movl	%eax, -4(%rbp)
	movl	-52(%rbp), %eax
	movslq	-4(%rbp), %rcx
	movl	%eax, -992(%rbp,%rcx,4)
	movl	-64(%rbp), %eax
	movslq	-4(%rbp), %rcx
	movl	%eax, -592(%rbp,%rcx,4)
	movl	-92(%rbp), %eax
	movslq	-4(%rbp), %rcx
	movl	%eax, -1392(%rbp,%rcx,4)
	movl	-4(%rbp), %eax
	addl	$1, %eax
	movl	%eax, -4(%rbp)
	jmp	.LBB16_9
.LBB16_53:                              # %while.end302.loopexit
	jmp	.LBB16_54
.LBB16_54:                              # %while.end302
	cmpl	$109284825, -164(%rbp)  # imm = 0x6838DD9
	jne	.LBB16_56
.LBB16_55:
	addq	$1408, %rsp             # imm = 0x580
	popq	%rbp
	.cfi_def_cfa %rsp, 8
	retq
.LBB16_56:                              # %func_exit
	.cfi_def_cfa %rbp, 16
	callq	detect_breach
	jmp	.LBB16_55
.Lfunc_end16:
	.size	mainQSort3.8, .Lfunc_end16-mainQSort3.8
	.cfi_endproc
                                        # -- End function
	.p2align	4, 0x90         # -- Begin function mainQSort3.9
	.type	mainQSort3.9,@function
mainQSort3.9:                           # @mainQSort3.9
	.cfi_startproc
# %bb.0:                                # %entry
	pushq	%rbp
	.cfi_def_cfa_offset 16
	.cfi_offset %rbp, -16
	movq	%rsp, %rbp
	.cfi_def_cfa_register %rbp
	subq	$1408, %rsp             # imm = 0x580
	movq	24(%rbp), %rax
	movl	16(%rbp), %eax
	movl	$1549500310, -164(%rbp) # imm = 0x5C5B7F96
	movq	%rdi, -24(%rbp)
	movq	%rsi, -136(%rbp)
	movq	%rdx, -184(%rbp)
	movl	%ecx, -148(%rbp)
	movl	%r8d, -156(%rbp)
	movl	%r9d, -176(%rbp)
	movl	$0, -4(%rbp)
	movl	-156(%rbp), %eax
	movslq	-4(%rbp), %rcx
	movl	%eax, -1392(%rbp,%rcx,4)
	movl	-176(%rbp), %eax
	movslq	-4(%rbp), %rcx
	movl	%eax, -592(%rbp,%rcx,4)
	movl	16(%rbp), %eax
	movslq	-4(%rbp), %rcx
	movl	%eax, -992(%rbp,%rcx,4)
	movl	-4(%rbp), %eax
	addl	$1, %eax
	movl	%eax, -4(%rbp)
.LBB17_1:                               # %while.cond
                                        # =>This Loop Header: Depth=1
                                        #     Child Loop BB17_11 Depth 2
                                        #       Child Loop BB17_12 Depth 3
                                        #       Child Loop BB17_21 Depth 3
                                        #     Child Loop BB17_38 Depth 2
                                        #     Child Loop BB17_44 Depth 2
	cmpl	$0, -4(%rbp)
	jle	.LBB17_53
# %bb.2:                                # %while.body
                                        #   in Loop: Header=BB17_1 Depth=1
	cmpl	$100, -4(%rbp)
	jl	.LBB17_4
# %bb.3:                                # %if.then
                                        #   in Loop: Header=BB17_1 Depth=1
	movl	$1001, %edi             # imm = 0x3E9
	callq	BZ2_bz__AssertH__fail
.LBB17_4:                               # %if.end
                                        #   in Loop: Header=BB17_1 Depth=1
	movl	-4(%rbp), %eax
	addl	$-1, %eax
	movl	%eax, -4(%rbp)
	movslq	-4(%rbp), %rax
	movl	-1392(%rbp,%rax,4), %eax
	movl	%eax, -28(%rbp)
	movslq	-4(%rbp), %rax
	movl	-592(%rbp,%rax,4), %eax
	movl	%eax, -40(%rbp)
	movslq	-4(%rbp), %rax
	movl	-992(%rbp,%rax,4), %eax
	movl	%eax, -36(%rbp)
	movl	-40(%rbp), %eax
	subl	-28(%rbp), %eax
	cmpl	$20, %eax
	jl	.LBB17_6
# %bb.5:                                # %lor.lhs.false
                                        #   in Loop: Header=BB17_1 Depth=1
	cmpl	$14, -36(%rbp)
	jle	.LBB17_10
.LBB17_6:                               # %if.then14
                                        #   in Loop: Header=BB17_1 Depth=1
	movq	-24(%rbp), %rdi
	movq	-136(%rbp), %rsi
	movq	-184(%rbp), %rdx
	movl	-148(%rbp), %ecx
	movl	-28(%rbp), %r8d
	movl	-40(%rbp), %r9d
	movl	-36(%rbp), %eax
	movq	24(%rbp), %r10
	movl	%eax, (%rsp)
	movq	%r10, 8(%rsp)
	callq	mainSimpleSort
	movq	24(%rbp), %rax
	cmpl	$0, (%rax)
	jge	.LBB17_8
# %bb.7:                                # %if.then16
	jmp	.LBB17_54
.LBB17_8:                               # %if.end17
                                        #   in Loop: Header=BB17_1 Depth=1
	jmp	.LBB17_9
.LBB17_9:                               # %while.cond.backedge
                                        #   in Loop: Header=BB17_1 Depth=1
	jmp	.LBB17_1
.LBB17_10:                              # %if.end18
                                        #   in Loop: Header=BB17_1 Depth=1
	movq	-136(%rbp), %rax
	movq	-24(%rbp), %rcx
	movslq	-28(%rbp), %rdx
	movl	(%rcx,%rdx,4), %ecx
	addl	-36(%rbp), %ecx
	movl	%ecx, %ecx
	movb	(%rax,%rcx), %r8b
	movq	-136(%rbp), %rcx
	movq	-24(%rbp), %rdx
	movslq	-40(%rbp), %rsi
	movl	(%rdx,%rsi,4), %edx
	addl	-36(%rbp), %edx
	movl	%edx, %edx
	movb	(%rcx,%rdx), %cl
	movq	-136(%rbp), %rdx
	movq	-24(%rbp), %rsi
	movl	-28(%rbp), %edi
	addl	-40(%rbp), %edi
	sarl	$1, %edi
	movslq	%edi, %rdi
	movl	(%rsi,%rdi,4), %esi
	addl	-36(%rbp), %esi
	movl	%esi, %eax
	movzbl	%r8b, %edi
	movzbl	%cl, %esi
	movzbl	(%rdx,%rax), %edx
	callq	mmed3
	movzbl	%al, %eax
	movl	%eax, -140(%rbp)
	movl	-28(%rbp), %eax
	movl	%eax, -44(%rbp)
	movl	%eax, -8(%rbp)
	movl	-40(%rbp), %eax
	movl	%eax, -48(%rbp)
	movl	%eax, -12(%rbp)
.LBB17_11:                              # %while.body35
                                        #   Parent Loop BB17_1 Depth=1
                                        # =>  This Loop Header: Depth=2
                                        #       Child Loop BB17_12 Depth 3
                                        #       Child Loop BB17_21 Depth 3
	jmp	.LBB17_12
.LBB17_12:                              # %while.body37
                                        #   Parent Loop BB17_1 Depth=1
                                        #     Parent Loop BB17_11 Depth=2
                                        # =>    This Inner Loop Header: Depth=3
	movl	-8(%rbp), %eax
	cmpl	-12(%rbp), %eax
	jle	.LBB17_14
# %bb.13:                               # %if.then40
                                        #   in Loop: Header=BB17_11 Depth=2
	jmp	.LBB17_20
.LBB17_14:                              # %if.end41
                                        #   in Loop: Header=BB17_12 Depth=3
	movq	-136(%rbp), %rax
	movq	-24(%rbp), %rcx
	movslq	-8(%rbp), %rdx
	movl	(%rcx,%rdx,4), %ecx
	addl	-36(%rbp), %ecx
	movl	%ecx, %ecx
	movzbl	(%rax,%rcx), %eax
	subl	-140(%rbp), %eax
	movl	%eax, -32(%rbp)
	cmpl	$0, -32(%rbp)
	jne	.LBB17_17
# %bb.15:                               # %if.then51
                                        #   in Loop: Header=BB17_12 Depth=3
	movq	-24(%rbp), %rax
	movslq	-8(%rbp), %rcx
	movl	(%rax,%rcx,4), %eax
	movl	%eax, -144(%rbp)
	movq	-24(%rbp), %rax
	movslq	-44(%rbp), %rcx
	movl	(%rax,%rcx,4), %eax
	movq	-24(%rbp), %rcx
	movslq	-8(%rbp), %rdx
	movl	%eax, (%rcx,%rdx,4)
	movl	-144(%rbp), %eax
	movq	-24(%rbp), %rcx
	movslq	-44(%rbp), %rdx
	movl	%eax, (%rcx,%rdx,4)
	movl	-44(%rbp), %eax
	addl	$1, %eax
	movl	%eax, -44(%rbp)
	movl	-8(%rbp), %eax
	addl	$1, %eax
	movl	%eax, -8(%rbp)
.LBB17_16:                              # %while.body37.backedge
                                        #   in Loop: Header=BB17_12 Depth=3
	jmp	.LBB17_12
.LBB17_17:                              # %if.end62
                                        #   in Loop: Header=BB17_12 Depth=3
	cmpl	$0, -32(%rbp)
	jle	.LBB17_19
# %bb.18:                               # %if.then65
                                        #   in Loop: Header=BB17_11 Depth=2
	jmp	.LBB17_20
.LBB17_19:                              # %if.end66
                                        #   in Loop: Header=BB17_12 Depth=3
	movl	-8(%rbp), %eax
	addl	$1, %eax
	movl	%eax, -8(%rbp)
	jmp	.LBB17_16
.LBB17_20:                              # %while.end
                                        #   in Loop: Header=BB17_11 Depth=2
	jmp	.LBB17_21
.LBB17_21:                              # %while.body69
                                        #   Parent Loop BB17_1 Depth=1
                                        #     Parent Loop BB17_11 Depth=2
                                        # =>    This Inner Loop Header: Depth=3
	movl	-8(%rbp), %eax
	cmpl	-12(%rbp), %eax
	jle	.LBB17_23
# %bb.22:                               # %if.then72
                                        #   in Loop: Header=BB17_11 Depth=2
	jmp	.LBB17_29
.LBB17_23:                              # %if.end73
                                        #   in Loop: Header=BB17_21 Depth=3
	movq	-136(%rbp), %rax
	movq	-24(%rbp), %rcx
	movslq	-12(%rbp), %rdx
	movl	(%rcx,%rdx,4), %ecx
	addl	-36(%rbp), %ecx
	movl	%ecx, %ecx
	movzbl	(%rax,%rcx), %eax
	subl	-140(%rbp), %eax
	movl	%eax, -32(%rbp)
	cmpl	$0, -32(%rbp)
	jne	.LBB17_26
# %bb.24:                               # %if.then83
                                        #   in Loop: Header=BB17_21 Depth=3
	movq	-24(%rbp), %rax
	movslq	-12(%rbp), %rcx
	movl	(%rax,%rcx,4), %eax
	movl	%eax, -160(%rbp)
	movq	-24(%rbp), %rax
	movslq	-48(%rbp), %rcx
	movl	(%rax,%rcx,4), %eax
	movq	-24(%rbp), %rcx
	movslq	-12(%rbp), %rdx
	movl	%eax, (%rcx,%rdx,4)
	movl	-160(%rbp), %eax
	movq	-24(%rbp), %rcx
	movslq	-48(%rbp), %rdx
	movl	%eax, (%rcx,%rdx,4)
	movl	-48(%rbp), %eax
	addl	$-1, %eax
	movl	%eax, -48(%rbp)
	movl	-12(%rbp), %eax
	addl	$-1, %eax
	movl	%eax, -12(%rbp)
.LBB17_25:                              # %while.body69.backedge
                                        #   in Loop: Header=BB17_21 Depth=3
	jmp	.LBB17_21
.LBB17_26:                              # %if.end95
                                        #   in Loop: Header=BB17_21 Depth=3
	cmpl	$0, -32(%rbp)
	jge	.LBB17_28
# %bb.27:                               # %if.then98
                                        #   in Loop: Header=BB17_11 Depth=2
	jmp	.LBB17_29
.LBB17_28:                              # %if.end99
                                        #   in Loop: Header=BB17_21 Depth=3
	movl	-12(%rbp), %eax
	addl	$-1, %eax
	movl	%eax, -12(%rbp)
	jmp	.LBB17_25
.LBB17_29:                              # %while.end101
                                        #   in Loop: Header=BB17_11 Depth=2
	movl	-8(%rbp), %eax
	cmpl	-12(%rbp), %eax
	jle	.LBB17_31
# %bb.30:                               # %if.then104
                                        #   in Loop: Header=BB17_1 Depth=1
	jmp	.LBB17_32
.LBB17_31:                              # %if.end105
                                        #   in Loop: Header=BB17_11 Depth=2
	movq	-24(%rbp), %rax
	movslq	-8(%rbp), %rcx
	movl	(%rax,%rcx,4), %eax
	movl	%eax, -168(%rbp)
	movq	-24(%rbp), %rax
	movslq	-12(%rbp), %rcx
	movl	(%rax,%rcx,4), %eax
	movq	-24(%rbp), %rcx
	movslq	-8(%rbp), %rdx
	movl	%eax, (%rcx,%rdx,4)
	movl	-168(%rbp), %eax
	movq	-24(%rbp), %rcx
	movslq	-12(%rbp), %rdx
	movl	%eax, (%rcx,%rdx,4)
	movl	-8(%rbp), %eax
	addl	$1, %eax
	movl	%eax, -8(%rbp)
	movl	-12(%rbp), %eax
	addl	$-1, %eax
	movl	%eax, -12(%rbp)
	jmp	.LBB17_11
.LBB17_32:                              # %while.end117
                                        #   in Loop: Header=BB17_1 Depth=1
	movl	-48(%rbp), %eax
	cmpl	-44(%rbp), %eax
	jge	.LBB17_34
# %bb.33:                               # %if.then120
                                        #   in Loop: Header=BB17_1 Depth=1
	movl	-28(%rbp), %eax
	movslq	-4(%rbp), %rcx
	movl	%eax, -1392(%rbp,%rcx,4)
	movl	-40(%rbp), %eax
	movslq	-4(%rbp), %rcx
	movl	%eax, -592(%rbp,%rcx,4)
	movl	-36(%rbp), %eax
	addl	$1, %eax
	movslq	-4(%rbp), %rcx
	movl	%eax, -992(%rbp,%rcx,4)
	movl	-4(%rbp), %eax
	addl	$1, %eax
	movl	%eax, -4(%rbp)
	jmp	.LBB17_9
.LBB17_34:                              # %if.end129
                                        #   in Loop: Header=BB17_1 Depth=1
	movl	-44(%rbp), %eax
	subl	-28(%rbp), %eax
	movl	-8(%rbp), %ecx
	subl	-44(%rbp), %ecx
	cmpl	%ecx, %eax
	jge	.LBB17_36
# %bb.35:                               # %cond.true
                                        #   in Loop: Header=BB17_1 Depth=1
	movl	-44(%rbp), %eax
	subl	-28(%rbp), %eax
	jmp	.LBB17_37
.LBB17_36:                              # %cond.false
                                        #   in Loop: Header=BB17_1 Depth=1
	movl	-8(%rbp), %eax
	subl	-44(%rbp), %eax
.LBB17_37:                              # %cond.end
                                        #   in Loop: Header=BB17_1 Depth=1
	movl	%eax, -32(%rbp)
	movl	-28(%rbp), %eax
	movl	%eax, -108(%rbp)
	movl	-8(%rbp), %eax
	subl	-32(%rbp), %eax
	movl	%eax, -116(%rbp)
	movl	-32(%rbp), %eax
	movl	%eax, -120(%rbp)
.LBB17_38:                              # %while.cond137
                                        #   Parent Loop BB17_1 Depth=1
                                        # =>  This Inner Loop Header: Depth=2
	cmpl	$0, -120(%rbp)
	jle	.LBB17_40
# %bb.39:                               # %while.body140
                                        #   in Loop: Header=BB17_38 Depth=2
	movq	-24(%rbp), %rax
	movslq	-108(%rbp), %rcx
	movl	(%rax,%rcx,4), %eax
	movl	%eax, -152(%rbp)
	movq	-24(%rbp), %rax
	movslq	-116(%rbp), %rcx
	movl	(%rax,%rcx,4), %eax
	movq	-24(%rbp), %rcx
	movslq	-108(%rbp), %rdx
	movl	%eax, (%rcx,%rdx,4)
	movl	-152(%rbp), %eax
	movq	-24(%rbp), %rcx
	movslq	-116(%rbp), %rdx
	movl	%eax, (%rcx,%rdx,4)
	movl	-108(%rbp), %eax
	addl	$1, %eax
	movl	%eax, -108(%rbp)
	movl	-116(%rbp), %eax
	addl	$1, %eax
	movl	%eax, -116(%rbp)
	movl	-120(%rbp), %eax
	addl	$-1, %eax
	movl	%eax, -120(%rbp)
	jmp	.LBB17_38
.LBB17_40:                              # %while.end153
                                        #   in Loop: Header=BB17_1 Depth=1
	movl	-40(%rbp), %eax
	subl	-48(%rbp), %eax
	movl	-48(%rbp), %ecx
	subl	-12(%rbp), %ecx
	cmpl	%ecx, %eax
	jge	.LBB17_42
# %bb.41:                               # %cond.true158
                                        #   in Loop: Header=BB17_1 Depth=1
	movl	-40(%rbp), %eax
	subl	-48(%rbp), %eax
	jmp	.LBB17_43
.LBB17_42:                              # %cond.false160
                                        #   in Loop: Header=BB17_1 Depth=1
	movl	-48(%rbp), %eax
	subl	-12(%rbp), %eax
.LBB17_43:                              # %cond.end162
                                        #   in Loop: Header=BB17_1 Depth=1
	movl	%eax, -76(%rbp)
	movl	-8(%rbp), %eax
	movl	%eax, -112(%rbp)
	movl	-40(%rbp), %eax
	subl	-76(%rbp), %eax
	addl	$1, %eax
	movl	%eax, -104(%rbp)
	movl	-76(%rbp), %eax
	movl	%eax, -124(%rbp)
.LBB17_44:                              # %while.cond169
                                        #   Parent Loop BB17_1 Depth=1
                                        # =>  This Inner Loop Header: Depth=2
	cmpl	$0, -124(%rbp)
	jle	.LBB17_46
# %bb.45:                               # %while.body172
                                        #   in Loop: Header=BB17_44 Depth=2
	movq	-24(%rbp), %rax
	movslq	-112(%rbp), %rcx
	movl	(%rax,%rcx,4), %eax
	movl	%eax, -172(%rbp)
	movq	-24(%rbp), %rax
	movslq	-104(%rbp), %rcx
	movl	(%rax,%rcx,4), %eax
	movq	-24(%rbp), %rcx
	movslq	-112(%rbp), %rdx
	movl	%eax, (%rcx,%rdx,4)
	movl	-172(%rbp), %eax
	movq	-24(%rbp), %rcx
	movslq	-104(%rbp), %rdx
	movl	%eax, (%rcx,%rdx,4)
	movl	-112(%rbp), %eax
	addl	$1, %eax
	movl	%eax, -112(%rbp)
	movl	-104(%rbp), %eax
	addl	$1, %eax
	movl	%eax, -104(%rbp)
	movl	-124(%rbp), %eax
	addl	$-1, %eax
	movl	%eax, -124(%rbp)
	jmp	.LBB17_44
.LBB17_46:                              # %while.end185
                                        #   in Loop: Header=BB17_1 Depth=1
	movl	-28(%rbp), %eax
	addl	-8(%rbp), %eax
	subl	-44(%rbp), %eax
	subl	$1, %eax
	movl	%eax, -32(%rbp)
	movl	-40(%rbp), %eax
	movl	-48(%rbp), %ecx
	subl	-12(%rbp), %ecx
	subl	%ecx, %eax
	addl	$1, %eax
	movl	%eax, -76(%rbp)
	movl	-28(%rbp), %eax
	movl	%eax, -72(%rbp)
	movl	-32(%rbp), %eax
	movl	%eax, -60(%rbp)
	movl	-36(%rbp), %eax
	movl	%eax, -92(%rbp)
	movl	-76(%rbp), %eax
	movl	%eax, -68(%rbp)
	movl	-40(%rbp), %eax
	movl	%eax, -56(%rbp)
	movl	-36(%rbp), %eax
	movl	%eax, -88(%rbp)
	movl	-32(%rbp), %eax
	addl	$1, %eax
	movl	%eax, -64(%rbp)
	movl	-76(%rbp), %eax
	subl	$1, %eax
	movl	%eax, -52(%rbp)
	movl	-36(%rbp), %eax
	addl	$1, %eax
	movl	%eax, -84(%rbp)
	movl	-60(%rbp), %eax
	subl	-72(%rbp), %eax
	movl	-56(%rbp), %ecx
	subl	-68(%rbp), %ecx
	cmpl	%ecx, %eax
	jge	.LBB17_48
# %bb.47:                               # %if.then212
                                        #   in Loop: Header=BB17_1 Depth=1
	movl	-72(%rbp), %eax
	movl	%eax, -96(%rbp)
	movl	-68(%rbp), %eax
	movl	%eax, -72(%rbp)
	movl	-96(%rbp), %eax
	movl	%eax, -68(%rbp)
	movl	-60(%rbp), %eax
	movl	%eax, -96(%rbp)
	movl	-56(%rbp), %eax
	movl	%eax, -60(%rbp)
	movl	-96(%rbp), %eax
	movl	%eax, -56(%rbp)
	movl	-92(%rbp), %eax
	movl	%eax, -96(%rbp)
	movl	-88(%rbp), %eax
	movl	%eax, -92(%rbp)
	movl	-96(%rbp), %eax
	movl	%eax, -88(%rbp)
.LBB17_48:                              # %if.end225
                                        #   in Loop: Header=BB17_1 Depth=1
	movl	-56(%rbp), %eax
	subl	-68(%rbp), %eax
	movl	-52(%rbp), %ecx
	subl	-64(%rbp), %ecx
	cmpl	%ecx, %eax
	jge	.LBB17_50
# %bb.49:                               # %if.then234
                                        #   in Loop: Header=BB17_1 Depth=1
	movl	-68(%rbp), %eax
	movl	%eax, -80(%rbp)
	movl	-64(%rbp), %eax
	movl	%eax, -68(%rbp)
	movl	-80(%rbp), %eax
	movl	%eax, -64(%rbp)
	movl	-56(%rbp), %eax
	movl	%eax, -80(%rbp)
	movl	-52(%rbp), %eax
	movl	%eax, -56(%rbp)
	movl	-80(%rbp), %eax
	movl	%eax, -52(%rbp)
	movl	-88(%rbp), %eax
	movl	%eax, -80(%rbp)
	movl	-84(%rbp), %eax
	movl	%eax, -88(%rbp)
	movl	-80(%rbp), %eax
	movl	%eax, -84(%rbp)
.LBB17_50:                              # %if.end248
                                        #   in Loop: Header=BB17_1 Depth=1
	movl	-60(%rbp), %eax
	subl	-72(%rbp), %eax
	movl	-56(%rbp), %ecx
	subl	-68(%rbp), %ecx
	cmpl	%ecx, %eax
	jge	.LBB17_52
# %bb.51:                               # %if.then257
                                        #   in Loop: Header=BB17_1 Depth=1
	movl	-72(%rbp), %eax
	movl	%eax, -100(%rbp)
	movl	-68(%rbp), %eax
	movl	%eax, -72(%rbp)
	movl	-100(%rbp), %eax
	movl	%eax, -68(%rbp)
	movl	-60(%rbp), %eax
	movl	%eax, -100(%rbp)
	movl	-56(%rbp), %eax
	movl	%eax, -60(%rbp)
	movl	-100(%rbp), %eax
	movl	%eax, -56(%rbp)
	movl	-92(%rbp), %eax
	movl	%eax, -100(%rbp)
	movl	-88(%rbp), %eax
	movl	%eax, -92(%rbp)
	movl	-100(%rbp), %eax
	movl	%eax, -88(%rbp)
.LBB17_52:                              # %if.end271
                                        #   in Loop: Header=BB17_1 Depth=1
	movl	-72(%rbp), %eax
	movslq	-4(%rbp), %rcx
	movl	%eax, -1392(%rbp,%rcx,4)
	movl	-60(%rbp), %eax
	movslq	-4(%rbp), %rcx
	movl	%eax, -592(%rbp,%rcx,4)
	movl	-92(%rbp), %eax
	movslq	-4(%rbp), %rcx
	movl	%eax, -992(%rbp,%rcx,4)
	movl	-4(%rbp), %eax
	addl	$1, %eax
	movl	%eax, -4(%rbp)
	movl	-68(%rbp), %eax
	movslq	-4(%rbp), %rcx
	movl	%eax, -1392(%rbp,%rcx,4)
	movl	-56(%rbp), %eax
	movslq	-4(%rbp), %rcx
	movl	%eax, -592(%rbp,%rcx,4)
	movl	-88(%rbp), %eax
	movslq	-4(%rbp), %rcx
	movl	%eax, -992(%rbp,%rcx,4)
	movl	-4(%rbp), %eax
	addl	$1, %eax
	movl	%eax, -4(%rbp)
	movl	-64(%rbp), %eax
	movslq	-4(%rbp), %rcx
	movl	%eax, -1392(%rbp,%rcx,4)
	movl	-52(%rbp), %eax
	movslq	-4(%rbp), %rcx
	movl	%eax, -592(%rbp,%rcx,4)
	movl	-84(%rbp), %eax
	movslq	-4(%rbp), %rcx
	movl	%eax, -992(%rbp,%rcx,4)
	movl	-4(%rbp), %eax
	addl	$1, %eax
	movl	%eax, -4(%rbp)
	jmp	.LBB17_9
.LBB17_53:                              # %while.end302.loopexit
	jmp	.LBB17_54
.LBB17_54:                              # %while.end302
	cmpl	$1549500310, -164(%rbp) # imm = 0x5C5B7F96
	jne	.LBB17_56
.LBB17_55:
	addq	$1408, %rsp             # imm = 0x580
	popq	%rbp
	.cfi_def_cfa %rsp, 8
	retq
.LBB17_56:                              # %func_exit
	.cfi_def_cfa %rbp, 16
	callq	detect_breach
	jmp	.LBB17_55
.Lfunc_end17:
	.size	mainQSort3.9, .Lfunc_end17-mainQSort3.9
	.cfi_endproc
                                        # -- End function
	.p2align	4, 0x90         # -- Begin function mmed3.10
	.type	mmed3.10,@function
mmed3.10:                               # @mmed3.10
	.cfi_startproc
# %bb.0:                                # %entry
	pushq	%rbp
	.cfi_def_cfa_offset 16
	.cfi_offset %rbp, -16
	movq	%rsp, %rbp
	.cfi_def_cfa_register %rbp
	pushq	%rbx
	pushq	%rax
	.cfi_offset %rbx, -24
	movl	$694167095, -16(%rbp)   # imm = 0x29602637
	movb	%dil, -10(%rbp)
	movb	%sil, -9(%rbp)
	movb	%dl, -11(%rbp)
	movzbl	-10(%rbp), %eax
	movzbl	-9(%rbp), %ecx
	cmpl	%ecx, %eax
	jle	.LBB18_2
# %bb.1:                                # %if.then
	movb	-10(%rbp), %al
	movb	%al, -12(%rbp)
	movb	-9(%rbp), %al
	movb	%al, -10(%rbp)
	movb	-12(%rbp), %al
	movb	%al, -9(%rbp)
.LBB18_2:                               # %if.end
	movzbl	-9(%rbp), %eax
	movzbl	-11(%rbp), %ecx
	cmpl	%ecx, %eax
	jle	.LBB18_6
# %bb.3:                                # %if.then7
	movb	-11(%rbp), %al
	movb	%al, -9(%rbp)
	movzbl	-10(%rbp), %eax
	movzbl	-9(%rbp), %ecx
	cmpl	%ecx, %eax
	jle	.LBB18_5
# %bb.4:                                # %if.then12
	movb	-10(%rbp), %al
	movb	%al, -9(%rbp)
.LBB18_5:                               # %if.end13
	jmp	.LBB18_6
.LBB18_6:                               # %if.end14
	movb	-9(%rbp), %bl
	cmpl	$694167095, -16(%rbp)   # imm = 0x29602637
	jne	.LBB18_8
.LBB18_7:
	movzbl	%bl, %eax
	addq	$8, %rsp
	popq	%rbx
	popq	%rbp
	.cfi_def_cfa %rsp, 8
	retq
.LBB18_8:                               # %func_exit
	.cfi_def_cfa %rbp, 16
	callq	detect_breach
	jmp	.LBB18_7
.Lfunc_end18:
	.size	mmed3.10, .Lfunc_end18-mmed3.10
	.cfi_endproc
                                        # -- End function
	.p2align	4, 0x90         # -- Begin function fallbackSimpleSort.11
	.type	fallbackSimpleSort.11,@function
fallbackSimpleSort.11:                  # @fallbackSimpleSort.11
	.cfi_startproc
# %bb.0:                                # %entry
	pushq	%rbp
	.cfi_def_cfa_offset 16
	.cfi_offset %rbp, -16
	movq	%rsp, %rbp
	.cfi_def_cfa_register %rbp
	subq	$48, %rsp
	movl	$1790291227, -44(%rbp)  # imm = 0x6AB5AD1B
	movq	%rdi, -24(%rbp)
	movq	%rsi, -40(%rbp)
	movl	%edx, -28(%rbp)
	movl	%ecx, -12(%rbp)
	movl	-28(%rbp), %eax
	cmpl	-12(%rbp), %eax
	jne	.LBB19_2
# %bb.1:                                # %if.then
	jmp	.LBB19_25
.LBB19_2:                               # %if.end
	movl	-12(%rbp), %eax
	subl	-28(%rbp), %eax
	cmpl	$3, %eax
	jle	.LBB19_14
# %bb.3:                                # %if.then2
	movl	-12(%rbp), %eax
	subl	$4, %eax
	movl	%eax, -8(%rbp)
.LBB19_4:                               # %for.cond
                                        # =>This Loop Header: Depth=1
                                        #     Child Loop BB19_6 Depth 2
	movl	-8(%rbp), %eax
	cmpl	-28(%rbp), %eax
	jl	.LBB19_13
# %bb.5:                                # %for.body
                                        #   in Loop: Header=BB19_4 Depth=1
	movq	-24(%rbp), %rax
	movslq	-8(%rbp), %rcx
	movl	(%rax,%rcx,4), %eax
	movl	%eax, -16(%rbp)
	movq	-40(%rbp), %rax
	movslq	-16(%rbp), %rcx
	movl	(%rax,%rcx,4), %eax
	movl	%eax, -32(%rbp)
	movl	-8(%rbp), %eax
	addl	$4, %eax
	movl	%eax, -4(%rbp)
.LBB19_6:                               # %for.cond7
                                        #   Parent Loop BB19_4 Depth=1
                                        # =>  This Inner Loop Header: Depth=2
	xorl	%eax, %eax
	movl	-4(%rbp), %ecx
	cmpl	-12(%rbp), %ecx
	jg	.LBB19_8
# %bb.7:                                # %land.rhs
                                        #   in Loop: Header=BB19_6 Depth=2
	movl	-32(%rbp), %eax
	movq	-40(%rbp), %rcx
	movq	-24(%rbp), %rdx
	movslq	-4(%rbp), %rsi
	movl	(%rdx,%rsi,4), %edx
	cmpl	(%rcx,%rdx,4), %eax
	seta	%al
.LBB19_8:                               # %land.end
                                        #   in Loop: Header=BB19_6 Depth=2
	testb	$1, %al
	jne	.LBB19_9
	jmp	.LBB19_11
.LBB19_9:                               # %for.body14
                                        #   in Loop: Header=BB19_6 Depth=2
	movq	-24(%rbp), %rax
	movslq	-4(%rbp), %rcx
	movl	(%rax,%rcx,4), %eax
	movq	-24(%rbp), %rcx
	movl	-4(%rbp), %edx
	subl	$4, %edx
	movslq	%edx, %rdx
	movl	%eax, (%rcx,%rdx,4)
# %bb.10:                               # %for.inc
                                        #   in Loop: Header=BB19_6 Depth=2
	movl	-4(%rbp), %eax
	addl	$4, %eax
	movl	%eax, -4(%rbp)
	jmp	.LBB19_6
.LBB19_11:                              # %for.end
                                        #   in Loop: Header=BB19_4 Depth=1
	movl	-16(%rbp), %eax
	movq	-24(%rbp), %rcx
	movl	-4(%rbp), %edx
	subl	$4, %edx
	movslq	%edx, %rdx
	movl	%eax, (%rcx,%rdx,4)
# %bb.12:                               # %for.inc24
                                        #   in Loop: Header=BB19_4 Depth=1
	movl	-8(%rbp), %eax
	addl	$-1, %eax
	movl	%eax, -8(%rbp)
	jmp	.LBB19_4
.LBB19_13:                              # %for.end25
	jmp	.LBB19_14
.LBB19_14:                              # %if.end26
	movl	-12(%rbp), %eax
	subl	$1, %eax
	movl	%eax, -8(%rbp)
.LBB19_15:                              # %for.cond28
                                        # =>This Loop Header: Depth=1
                                        #     Child Loop BB19_17 Depth 2
	movl	-8(%rbp), %eax
	cmpl	-28(%rbp), %eax
	jl	.LBB19_24
# %bb.16:                               # %for.body30
                                        #   in Loop: Header=BB19_15 Depth=1
	movq	-24(%rbp), %rax
	movslq	-8(%rbp), %rcx
	movl	(%rax,%rcx,4), %eax
	movl	%eax, -16(%rbp)
	movq	-40(%rbp), %rax
	movslq	-16(%rbp), %rcx
	movl	(%rax,%rcx,4), %eax
	movl	%eax, -32(%rbp)
	movl	-8(%rbp), %eax
	addl	$1, %eax
	movl	%eax, -4(%rbp)
.LBB19_17:                              # %for.cond36
                                        #   Parent Loop BB19_15 Depth=1
                                        # =>  This Inner Loop Header: Depth=2
	xorl	%eax, %eax
	movl	-4(%rbp), %ecx
	cmpl	-12(%rbp), %ecx
	jg	.LBB19_19
# %bb.18:                               # %land.rhs38
                                        #   in Loop: Header=BB19_17 Depth=2
	movl	-32(%rbp), %eax
	movq	-40(%rbp), %rcx
	movq	-24(%rbp), %rdx
	movslq	-4(%rbp), %rsi
	movl	(%rdx,%rsi,4), %edx
	cmpl	(%rcx,%rdx,4), %eax
	seta	%al
.LBB19_19:                              # %land.end44
                                        #   in Loop: Header=BB19_17 Depth=2
	testb	$1, %al
	jne	.LBB19_20
	jmp	.LBB19_22
.LBB19_20:                              # %for.body45
                                        #   in Loop: Header=BB19_17 Depth=2
	movq	-24(%rbp), %rax
	movslq	-4(%rbp), %rcx
	movl	(%rax,%rcx,4), %eax
	movq	-24(%rbp), %rcx
	movl	-4(%rbp), %edx
	subl	$1, %edx
	movslq	%edx, %rdx
	movl	%eax, (%rcx,%rdx,4)
# %bb.21:                               # %for.inc51
                                        #   in Loop: Header=BB19_17 Depth=2
	movl	-4(%rbp), %eax
	addl	$1, %eax
	movl	%eax, -4(%rbp)
	jmp	.LBB19_17
.LBB19_22:                              # %for.end52
                                        #   in Loop: Header=BB19_15 Depth=1
	movl	-16(%rbp), %eax
	movq	-24(%rbp), %rcx
	movl	-4(%rbp), %edx
	subl	$1, %edx
	movslq	%edx, %rdx
	movl	%eax, (%rcx,%rdx,4)
# %bb.23:                               # %for.inc56
                                        #   in Loop: Header=BB19_15 Depth=1
	movl	-8(%rbp), %eax
	addl	$-1, %eax
	movl	%eax, -8(%rbp)
	jmp	.LBB19_15
.LBB19_24:                              # %for.end58.loopexit
	jmp	.LBB19_25
.LBB19_25:                              # %for.end58
	cmpl	$1790291227, -44(%rbp)  # imm = 0x6AB5AD1B
	jne	.LBB19_27
.LBB19_26:
	addq	$48, %rsp
	popq	%rbp
	.cfi_def_cfa %rsp, 8
	retq
.LBB19_27:                              # %func_exit
	.cfi_def_cfa %rbp, 16
	callq	detect_breach
	jmp	.LBB19_26
.Lfunc_end19:
	.size	fallbackSimpleSort.11, .Lfunc_end19-fallbackSimpleSort.11
	.cfi_endproc
                                        # -- End function
	.p2align	4, 0x90         # -- Begin function mainQSort3.12
	.type	mainQSort3.12,@function
mainQSort3.12:                          # @mainQSort3.12
	.cfi_startproc
# %bb.0:                                # %entry
	pushq	%rbp
	.cfi_def_cfa_offset 16
	.cfi_offset %rbp, -16
	movq	%rsp, %rbp
	.cfi_def_cfa_register %rbp
	subq	$1408, %rsp             # imm = 0x580
	movq	24(%rbp), %rax
	movl	16(%rbp), %eax
	movl	$1412247120, -164(%rbp) # imm = 0x542D2E50
	movq	%rdi, -24(%rbp)
	movq	%rsi, -136(%rbp)
	movq	%rdx, -184(%rbp)
	movl	%ecx, -152(%rbp)
	movl	%r8d, -168(%rbp)
	movl	%r9d, -176(%rbp)
	movl	$0, -4(%rbp)
	movl	-168(%rbp), %eax
	movslq	-4(%rbp), %rcx
	movl	%eax, -992(%rbp,%rcx,4)
	movl	-176(%rbp), %eax
	movslq	-4(%rbp), %rcx
	movl	%eax, -1392(%rbp,%rcx,4)
	movl	16(%rbp), %eax
	movslq	-4(%rbp), %rcx
	movl	%eax, -592(%rbp,%rcx,4)
	movl	-4(%rbp), %eax
	addl	$1, %eax
	movl	%eax, -4(%rbp)
.LBB20_1:                               # %while.cond
                                        # =>This Loop Header: Depth=1
                                        #     Child Loop BB20_11 Depth 2
                                        #       Child Loop BB20_12 Depth 3
                                        #       Child Loop BB20_21 Depth 3
                                        #     Child Loop BB20_38 Depth 2
                                        #     Child Loop BB20_44 Depth 2
	cmpl	$0, -4(%rbp)
	jle	.LBB20_53
# %bb.2:                                # %while.body
                                        #   in Loop: Header=BB20_1 Depth=1
	cmpl	$100, -4(%rbp)
	jl	.LBB20_4
# %bb.3:                                # %if.then
                                        #   in Loop: Header=BB20_1 Depth=1
	movl	$1001, %edi             # imm = 0x3E9
	callq	BZ2_bz__AssertH__fail
.LBB20_4:                               # %if.end
                                        #   in Loop: Header=BB20_1 Depth=1
	movl	-4(%rbp), %eax
	addl	$-1, %eax
	movl	%eax, -4(%rbp)
	movslq	-4(%rbp), %rax
	movl	-992(%rbp,%rax,4), %eax
	movl	%eax, -36(%rbp)
	movslq	-4(%rbp), %rax
	movl	-1392(%rbp,%rax,4), %eax
	movl	%eax, -40(%rbp)
	movslq	-4(%rbp), %rax
	movl	-592(%rbp,%rax,4), %eax
	movl	%eax, -28(%rbp)
	movl	-40(%rbp), %eax
	subl	-36(%rbp), %eax
	cmpl	$20, %eax
	jl	.LBB20_6
# %bb.5:                                # %lor.lhs.false
                                        #   in Loop: Header=BB20_1 Depth=1
	cmpl	$14, -28(%rbp)
	jle	.LBB20_10
.LBB20_6:                               # %if.then14
                                        #   in Loop: Header=BB20_1 Depth=1
	movq	-24(%rbp), %rdi
	movq	-136(%rbp), %rsi
	movq	-184(%rbp), %rdx
	movl	-152(%rbp), %ecx
	movl	-36(%rbp), %r8d
	movl	-40(%rbp), %r9d
	movl	-28(%rbp), %eax
	movq	24(%rbp), %r10
	movl	%eax, (%rsp)
	movq	%r10, 8(%rsp)
	callq	mainSimpleSort
	movq	24(%rbp), %rax
	cmpl	$0, (%rax)
	jge	.LBB20_8
# %bb.7:                                # %if.then16
	jmp	.LBB20_54
.LBB20_8:                               # %if.end17
                                        #   in Loop: Header=BB20_1 Depth=1
	jmp	.LBB20_9
.LBB20_9:                               # %while.cond.backedge
                                        #   in Loop: Header=BB20_1 Depth=1
	jmp	.LBB20_1
.LBB20_10:                              # %if.end18
                                        #   in Loop: Header=BB20_1 Depth=1
	movq	-136(%rbp), %rax
	movq	-24(%rbp), %rcx
	movslq	-36(%rbp), %rdx
	movl	(%rcx,%rdx,4), %ecx
	addl	-28(%rbp), %ecx
	movl	%ecx, %ecx
	movb	(%rax,%rcx), %r8b
	movq	-136(%rbp), %rcx
	movq	-24(%rbp), %rdx
	movslq	-40(%rbp), %rsi
	movl	(%rdx,%rsi,4), %edx
	addl	-28(%rbp), %edx
	movl	%edx, %edx
	movb	(%rcx,%rdx), %cl
	movq	-136(%rbp), %rdx
	movq	-24(%rbp), %rsi
	movl	-36(%rbp), %edi
	addl	-40(%rbp), %edi
	sarl	$1, %edi
	movslq	%edi, %rdi
	movl	(%rsi,%rdi,4), %esi
	addl	-28(%rbp), %esi
	movl	%esi, %eax
	movzbl	%r8b, %edi
	movzbl	%cl, %esi
	movzbl	(%rdx,%rax), %edx
	callq	mmed3
	movzbl	%al, %eax
	movl	%eax, -140(%rbp)
	movl	-36(%rbp), %eax
	movl	%eax, -48(%rbp)
	movl	%eax, -8(%rbp)
	movl	-40(%rbp), %eax
	movl	%eax, -44(%rbp)
	movl	%eax, -12(%rbp)
.LBB20_11:                              # %while.body35
                                        #   Parent Loop BB20_1 Depth=1
                                        # =>  This Loop Header: Depth=2
                                        #       Child Loop BB20_12 Depth 3
                                        #       Child Loop BB20_21 Depth 3
	jmp	.LBB20_12
.LBB20_12:                              # %while.body37
                                        #   Parent Loop BB20_1 Depth=1
                                        #     Parent Loop BB20_11 Depth=2
                                        # =>    This Inner Loop Header: Depth=3
	movl	-8(%rbp), %eax
	cmpl	-12(%rbp), %eax
	jle	.LBB20_14
# %bb.13:                               # %if.then40
                                        #   in Loop: Header=BB20_11 Depth=2
	jmp	.LBB20_20
.LBB20_14:                              # %if.end41
                                        #   in Loop: Header=BB20_12 Depth=3
	movq	-136(%rbp), %rax
	movq	-24(%rbp), %rcx
	movslq	-8(%rbp), %rdx
	movl	(%rcx,%rdx,4), %ecx
	addl	-28(%rbp), %ecx
	movl	%ecx, %ecx
	movzbl	(%rax,%rcx), %eax
	subl	-140(%rbp), %eax
	movl	%eax, -32(%rbp)
	cmpl	$0, -32(%rbp)
	jne	.LBB20_17
# %bb.15:                               # %if.then51
                                        #   in Loop: Header=BB20_12 Depth=3
	movq	-24(%rbp), %rax
	movslq	-8(%rbp), %rcx
	movl	(%rax,%rcx,4), %eax
	movl	%eax, -148(%rbp)
	movq	-24(%rbp), %rax
	movslq	-48(%rbp), %rcx
	movl	(%rax,%rcx,4), %eax
	movq	-24(%rbp), %rcx
	movslq	-8(%rbp), %rdx
	movl	%eax, (%rcx,%rdx,4)
	movl	-148(%rbp), %eax
	movq	-24(%rbp), %rcx
	movslq	-48(%rbp), %rdx
	movl	%eax, (%rcx,%rdx,4)
	movl	-48(%rbp), %eax
	addl	$1, %eax
	movl	%eax, -48(%rbp)
	movl	-8(%rbp), %eax
	addl	$1, %eax
	movl	%eax, -8(%rbp)
.LBB20_16:                              # %while.body37.backedge
                                        #   in Loop: Header=BB20_12 Depth=3
	jmp	.LBB20_12
.LBB20_17:                              # %if.end62
                                        #   in Loop: Header=BB20_12 Depth=3
	cmpl	$0, -32(%rbp)
	jle	.LBB20_19
# %bb.18:                               # %if.then65
                                        #   in Loop: Header=BB20_11 Depth=2
	jmp	.LBB20_20
.LBB20_19:                              # %if.end66
                                        #   in Loop: Header=BB20_12 Depth=3
	movl	-8(%rbp), %eax
	addl	$1, %eax
	movl	%eax, -8(%rbp)
	jmp	.LBB20_16
.LBB20_20:                              # %while.end
                                        #   in Loop: Header=BB20_11 Depth=2
	jmp	.LBB20_21
.LBB20_21:                              # %while.body69
                                        #   Parent Loop BB20_1 Depth=1
                                        #     Parent Loop BB20_11 Depth=2
                                        # =>    This Inner Loop Header: Depth=3
	movl	-8(%rbp), %eax
	cmpl	-12(%rbp), %eax
	jle	.LBB20_23
# %bb.22:                               # %if.then72
                                        #   in Loop: Header=BB20_11 Depth=2
	jmp	.LBB20_29
.LBB20_23:                              # %if.end73
                                        #   in Loop: Header=BB20_21 Depth=3
	movq	-136(%rbp), %rax
	movq	-24(%rbp), %rcx
	movslq	-12(%rbp), %rdx
	movl	(%rcx,%rdx,4), %ecx
	addl	-28(%rbp), %ecx
	movl	%ecx, %ecx
	movzbl	(%rax,%rcx), %eax
	subl	-140(%rbp), %eax
	movl	%eax, -32(%rbp)
	cmpl	$0, -32(%rbp)
	jne	.LBB20_26
# %bb.24:                               # %if.then83
                                        #   in Loop: Header=BB20_21 Depth=3
	movq	-24(%rbp), %rax
	movslq	-12(%rbp), %rcx
	movl	(%rax,%rcx,4), %eax
	movl	%eax, -160(%rbp)
	movq	-24(%rbp), %rax
	movslq	-44(%rbp), %rcx
	movl	(%rax,%rcx,4), %eax
	movq	-24(%rbp), %rcx
	movslq	-12(%rbp), %rdx
	movl	%eax, (%rcx,%rdx,4)
	movl	-160(%rbp), %eax
	movq	-24(%rbp), %rcx
	movslq	-44(%rbp), %rdx
	movl	%eax, (%rcx,%rdx,4)
	movl	-44(%rbp), %eax
	addl	$-1, %eax
	movl	%eax, -44(%rbp)
	movl	-12(%rbp), %eax
	addl	$-1, %eax
	movl	%eax, -12(%rbp)
.LBB20_25:                              # %while.body69.backedge
                                        #   in Loop: Header=BB20_21 Depth=3
	jmp	.LBB20_21
.LBB20_26:                              # %if.end95
                                        #   in Loop: Header=BB20_21 Depth=3
	cmpl	$0, -32(%rbp)
	jge	.LBB20_28
# %bb.27:                               # %if.then98
                                        #   in Loop: Header=BB20_11 Depth=2
	jmp	.LBB20_29
.LBB20_28:                              # %if.end99
                                        #   in Loop: Header=BB20_21 Depth=3
	movl	-12(%rbp), %eax
	addl	$-1, %eax
	movl	%eax, -12(%rbp)
	jmp	.LBB20_25
.LBB20_29:                              # %while.end101
                                        #   in Loop: Header=BB20_11 Depth=2
	movl	-8(%rbp), %eax
	cmpl	-12(%rbp), %eax
	jle	.LBB20_31
# %bb.30:                               # %if.then104
                                        #   in Loop: Header=BB20_1 Depth=1
	jmp	.LBB20_32
.LBB20_31:                              # %if.end105
                                        #   in Loop: Header=BB20_11 Depth=2
	movq	-24(%rbp), %rax
	movslq	-8(%rbp), %rcx
	movl	(%rax,%rcx,4), %eax
	movl	%eax, -144(%rbp)
	movq	-24(%rbp), %rax
	movslq	-12(%rbp), %rcx
	movl	(%rax,%rcx,4), %eax
	movq	-24(%rbp), %rcx
	movslq	-8(%rbp), %rdx
	movl	%eax, (%rcx,%rdx,4)
	movl	-144(%rbp), %eax
	movq	-24(%rbp), %rcx
	movslq	-12(%rbp), %rdx
	movl	%eax, (%rcx,%rdx,4)
	movl	-8(%rbp), %eax
	addl	$1, %eax
	movl	%eax, -8(%rbp)
	movl	-12(%rbp), %eax
	addl	$-1, %eax
	movl	%eax, -12(%rbp)
	jmp	.LBB20_11
.LBB20_32:                              # %while.end117
                                        #   in Loop: Header=BB20_1 Depth=1
	movl	-44(%rbp), %eax
	cmpl	-48(%rbp), %eax
	jge	.LBB20_34
# %bb.33:                               # %if.then120
                                        #   in Loop: Header=BB20_1 Depth=1
	movl	-36(%rbp), %eax
	movslq	-4(%rbp), %rcx
	movl	%eax, -992(%rbp,%rcx,4)
	movl	-40(%rbp), %eax
	movslq	-4(%rbp), %rcx
	movl	%eax, -1392(%rbp,%rcx,4)
	movl	-28(%rbp), %eax
	addl	$1, %eax
	movslq	-4(%rbp), %rcx
	movl	%eax, -592(%rbp,%rcx,4)
	movl	-4(%rbp), %eax
	addl	$1, %eax
	movl	%eax, -4(%rbp)
	jmp	.LBB20_9
.LBB20_34:                              # %if.end129
                                        #   in Loop: Header=BB20_1 Depth=1
	movl	-48(%rbp), %eax
	subl	-36(%rbp), %eax
	movl	-8(%rbp), %ecx
	subl	-48(%rbp), %ecx
	cmpl	%ecx, %eax
	jge	.LBB20_36
# %bb.35:                               # %cond.true
                                        #   in Loop: Header=BB20_1 Depth=1
	movl	-48(%rbp), %eax
	subl	-36(%rbp), %eax
	jmp	.LBB20_37
.LBB20_36:                              # %cond.false
                                        #   in Loop: Header=BB20_1 Depth=1
	movl	-8(%rbp), %eax
	subl	-48(%rbp), %eax
.LBB20_37:                              # %cond.end
                                        #   in Loop: Header=BB20_1 Depth=1
	movl	%eax, -32(%rbp)
	movl	-36(%rbp), %eax
	movl	%eax, -108(%rbp)
	movl	-8(%rbp), %eax
	subl	-32(%rbp), %eax
	movl	%eax, -112(%rbp)
	movl	-32(%rbp), %eax
	movl	%eax, -124(%rbp)
.LBB20_38:                              # %while.cond137
                                        #   Parent Loop BB20_1 Depth=1
                                        # =>  This Inner Loop Header: Depth=2
	cmpl	$0, -124(%rbp)
	jle	.LBB20_40
# %bb.39:                               # %while.body140
                                        #   in Loop: Header=BB20_38 Depth=2
	movq	-24(%rbp), %rax
	movslq	-108(%rbp), %rcx
	movl	(%rax,%rcx,4), %eax
	movl	%eax, -172(%rbp)
	movq	-24(%rbp), %rax
	movslq	-112(%rbp), %rcx
	movl	(%rax,%rcx,4), %eax
	movq	-24(%rbp), %rcx
	movslq	-108(%rbp), %rdx
	movl	%eax, (%rcx,%rdx,4)
	movl	-172(%rbp), %eax
	movq	-24(%rbp), %rcx
	movslq	-112(%rbp), %rdx
	movl	%eax, (%rcx,%rdx,4)
	movl	-108(%rbp), %eax
	addl	$1, %eax
	movl	%eax, -108(%rbp)
	movl	-112(%rbp), %eax
	addl	$1, %eax
	movl	%eax, -112(%rbp)
	movl	-124(%rbp), %eax
	addl	$-1, %eax
	movl	%eax, -124(%rbp)
	jmp	.LBB20_38
.LBB20_40:                              # %while.end153
                                        #   in Loop: Header=BB20_1 Depth=1
	movl	-40(%rbp), %eax
	subl	-44(%rbp), %eax
	movl	-44(%rbp), %ecx
	subl	-12(%rbp), %ecx
	cmpl	%ecx, %eax
	jge	.LBB20_42
# %bb.41:                               # %cond.true158
                                        #   in Loop: Header=BB20_1 Depth=1
	movl	-40(%rbp), %eax
	subl	-44(%rbp), %eax
	jmp	.LBB20_43
.LBB20_42:                              # %cond.false160
                                        #   in Loop: Header=BB20_1 Depth=1
	movl	-44(%rbp), %eax
	subl	-12(%rbp), %eax
.LBB20_43:                              # %cond.end162
                                        #   in Loop: Header=BB20_1 Depth=1
	movl	%eax, -100(%rbp)
	movl	-8(%rbp), %eax
	movl	%eax, -116(%rbp)
	movl	-40(%rbp), %eax
	subl	-100(%rbp), %eax
	addl	$1, %eax
	movl	%eax, -104(%rbp)
	movl	-100(%rbp), %eax
	movl	%eax, -120(%rbp)
.LBB20_44:                              # %while.cond169
                                        #   Parent Loop BB20_1 Depth=1
                                        # =>  This Inner Loop Header: Depth=2
	cmpl	$0, -120(%rbp)
	jle	.LBB20_46
# %bb.45:                               # %while.body172
                                        #   in Loop: Header=BB20_44 Depth=2
	movq	-24(%rbp), %rax
	movslq	-116(%rbp), %rcx
	movl	(%rax,%rcx,4), %eax
	movl	%eax, -156(%rbp)
	movq	-24(%rbp), %rax
	movslq	-104(%rbp), %rcx
	movl	(%rax,%rcx,4), %eax
	movq	-24(%rbp), %rcx
	movslq	-116(%rbp), %rdx
	movl	%eax, (%rcx,%rdx,4)
	movl	-156(%rbp), %eax
	movq	-24(%rbp), %rcx
	movslq	-104(%rbp), %rdx
	movl	%eax, (%rcx,%rdx,4)
	movl	-116(%rbp), %eax
	addl	$1, %eax
	movl	%eax, -116(%rbp)
	movl	-104(%rbp), %eax
	addl	$1, %eax
	movl	%eax, -104(%rbp)
	movl	-120(%rbp), %eax
	addl	$-1, %eax
	movl	%eax, -120(%rbp)
	jmp	.LBB20_44
.LBB20_46:                              # %while.end185
                                        #   in Loop: Header=BB20_1 Depth=1
	movl	-36(%rbp), %eax
	addl	-8(%rbp), %eax
	subl	-48(%rbp), %eax
	subl	$1, %eax
	movl	%eax, -32(%rbp)
	movl	-40(%rbp), %eax
	movl	-44(%rbp), %ecx
	subl	-12(%rbp), %ecx
	subl	%ecx, %eax
	addl	$1, %eax
	movl	%eax, -100(%rbp)
	movl	-36(%rbp), %eax
	movl	%eax, -60(%rbp)
	movl	-32(%rbp), %eax
	movl	%eax, -72(%rbp)
	movl	-28(%rbp), %eax
	movl	%eax, -92(%rbp)
	movl	-100(%rbp), %eax
	movl	%eax, -56(%rbp)
	movl	-40(%rbp), %eax
	movl	%eax, -68(%rbp)
	movl	-28(%rbp), %eax
	movl	%eax, -88(%rbp)
	movl	-32(%rbp), %eax
	addl	$1, %eax
	movl	%eax, -52(%rbp)
	movl	-100(%rbp), %eax
	subl	$1, %eax
	movl	%eax, -64(%rbp)
	movl	-28(%rbp), %eax
	addl	$1, %eax
	movl	%eax, -84(%rbp)
	movl	-72(%rbp), %eax
	subl	-60(%rbp), %eax
	movl	-68(%rbp), %ecx
	subl	-56(%rbp), %ecx
	cmpl	%ecx, %eax
	jge	.LBB20_48
# %bb.47:                               # %if.then212
                                        #   in Loop: Header=BB20_1 Depth=1
	movl	-60(%rbp), %eax
	movl	%eax, -76(%rbp)
	movl	-56(%rbp), %eax
	movl	%eax, -60(%rbp)
	movl	-76(%rbp), %eax
	movl	%eax, -56(%rbp)
	movl	-72(%rbp), %eax
	movl	%eax, -76(%rbp)
	movl	-68(%rbp), %eax
	movl	%eax, -72(%rbp)
	movl	-76(%rbp), %eax
	movl	%eax, -68(%rbp)
	movl	-92(%rbp), %eax
	movl	%eax, -76(%rbp)
	movl	-88(%rbp), %eax
	movl	%eax, -92(%rbp)
	movl	-76(%rbp), %eax
	movl	%eax, -88(%rbp)
.LBB20_48:                              # %if.end225
                                        #   in Loop: Header=BB20_1 Depth=1
	movl	-68(%rbp), %eax
	subl	-56(%rbp), %eax
	movl	-64(%rbp), %ecx
	subl	-52(%rbp), %ecx
	cmpl	%ecx, %eax
	jge	.LBB20_50
# %bb.49:                               # %if.then234
                                        #   in Loop: Header=BB20_1 Depth=1
	movl	-56(%rbp), %eax
	movl	%eax, -80(%rbp)
	movl	-52(%rbp), %eax
	movl	%eax, -56(%rbp)
	movl	-80(%rbp), %eax
	movl	%eax, -52(%rbp)
	movl	-68(%rbp), %eax
	movl	%eax, -80(%rbp)
	movl	-64(%rbp), %eax
	movl	%eax, -68(%rbp)
	movl	-80(%rbp), %eax
	movl	%eax, -64(%rbp)
	movl	-88(%rbp), %eax
	movl	%eax, -80(%rbp)
	movl	-84(%rbp), %eax
	movl	%eax, -88(%rbp)
	movl	-80(%rbp), %eax
	movl	%eax, -84(%rbp)
.LBB20_50:                              # %if.end248
                                        #   in Loop: Header=BB20_1 Depth=1
	movl	-72(%rbp), %eax
	subl	-60(%rbp), %eax
	movl	-68(%rbp), %ecx
	subl	-56(%rbp), %ecx
	cmpl	%ecx, %eax
	jge	.LBB20_52
# %bb.51:                               # %if.then257
                                        #   in Loop: Header=BB20_1 Depth=1
	movl	-60(%rbp), %eax
	movl	%eax, -96(%rbp)
	movl	-56(%rbp), %eax
	movl	%eax, -60(%rbp)
	movl	-96(%rbp), %eax
	movl	%eax, -56(%rbp)
	movl	-72(%rbp), %eax
	movl	%eax, -96(%rbp)
	movl	-68(%rbp), %eax
	movl	%eax, -72(%rbp)
	movl	-96(%rbp), %eax
	movl	%eax, -68(%rbp)
	movl	-92(%rbp), %eax
	movl	%eax, -96(%rbp)
	movl	-88(%rbp), %eax
	movl	%eax, -92(%rbp)
	movl	-96(%rbp), %eax
	movl	%eax, -88(%rbp)
.LBB20_52:                              # %if.end271
                                        #   in Loop: Header=BB20_1 Depth=1
	movl	-60(%rbp), %eax
	movslq	-4(%rbp), %rcx
	movl	%eax, -992(%rbp,%rcx,4)
	movl	-72(%rbp), %eax
	movslq	-4(%rbp), %rcx
	movl	%eax, -1392(%rbp,%rcx,4)
	movl	-92(%rbp), %eax
	movslq	-4(%rbp), %rcx
	movl	%eax, -592(%rbp,%rcx,4)
	movl	-4(%rbp), %eax
	addl	$1, %eax
	movl	%eax, -4(%rbp)
	movl	-56(%rbp), %eax
	movslq	-4(%rbp), %rcx
	movl	%eax, -992(%rbp,%rcx,4)
	movl	-68(%rbp), %eax
	movslq	-4(%rbp), %rcx
	movl	%eax, -1392(%rbp,%rcx,4)
	movl	-88(%rbp), %eax
	movslq	-4(%rbp), %rcx
	movl	%eax, -592(%rbp,%rcx,4)
	movl	-4(%rbp), %eax
	addl	$1, %eax
	movl	%eax, -4(%rbp)
	movl	-52(%rbp), %eax
	movslq	-4(%rbp), %rcx
	movl	%eax, -992(%rbp,%rcx,4)
	movl	-64(%rbp), %eax
	movslq	-4(%rbp), %rcx
	movl	%eax, -1392(%rbp,%rcx,4)
	movl	-84(%rbp), %eax
	movslq	-4(%rbp), %rcx
	movl	%eax, -592(%rbp,%rcx,4)
	movl	-4(%rbp), %eax
	addl	$1, %eax
	movl	%eax, -4(%rbp)
	jmp	.LBB20_9
.LBB20_53:                              # %while.end302.loopexit
	jmp	.LBB20_54
.LBB20_54:                              # %while.end302
	cmpl	$1412247120, -164(%rbp) # imm = 0x542D2E50
	jne	.LBB20_56
.LBB20_55:
	addq	$1408, %rsp             # imm = 0x580
	popq	%rbp
	.cfi_def_cfa %rsp, 8
	retq
.LBB20_56:                              # %func_exit
	.cfi_def_cfa %rbp, 16
	callq	detect_breach
	jmp	.LBB20_55
.Lfunc_end20:
	.size	mainQSort3.12, .Lfunc_end20-mainQSort3.12
	.cfi_endproc
                                        # -- End function
	.p2align	4, 0x90         # -- Begin function fallbackSimpleSort.13
	.type	fallbackSimpleSort.13,@function
fallbackSimpleSort.13:                  # @fallbackSimpleSort.13
	.cfi_startproc
# %bb.0:                                # %entry
	pushq	%rbp
	.cfi_def_cfa_offset 16
	.cfi_offset %rbp, -16
	movq	%rsp, %rbp
	.cfi_def_cfa_register %rbp
	subq	$48, %rsp
	movl	$1002244724, -44(%rbp)  # imm = 0x3BBD0A74
	movq	%rdi, -24(%rbp)
	movq	%rsi, -40(%rbp)
	movl	%edx, -28(%rbp)
	movl	%ecx, -12(%rbp)
	movl	-28(%rbp), %eax
	cmpl	-12(%rbp), %eax
	jne	.LBB21_2
# %bb.1:                                # %if.then
	jmp	.LBB21_25
.LBB21_2:                               # %if.end
	movl	-12(%rbp), %eax
	subl	-28(%rbp), %eax
	cmpl	$3, %eax
	jle	.LBB21_14
# %bb.3:                                # %if.then2
	movl	-12(%rbp), %eax
	subl	$4, %eax
	movl	%eax, -8(%rbp)
.LBB21_4:                               # %for.cond
                                        # =>This Loop Header: Depth=1
                                        #     Child Loop BB21_6 Depth 2
	movl	-8(%rbp), %eax
	cmpl	-28(%rbp), %eax
	jl	.LBB21_13
# %bb.5:                                # %for.body
                                        #   in Loop: Header=BB21_4 Depth=1
	movq	-24(%rbp), %rax
	movslq	-8(%rbp), %rcx
	movl	(%rax,%rcx,4), %eax
	movl	%eax, -16(%rbp)
	movq	-40(%rbp), %rax
	movslq	-16(%rbp), %rcx
	movl	(%rax,%rcx,4), %eax
	movl	%eax, -32(%rbp)
	movl	-8(%rbp), %eax
	addl	$4, %eax
	movl	%eax, -4(%rbp)
.LBB21_6:                               # %for.cond7
                                        #   Parent Loop BB21_4 Depth=1
                                        # =>  This Inner Loop Header: Depth=2
	xorl	%eax, %eax
	movl	-4(%rbp), %ecx
	cmpl	-12(%rbp), %ecx
	jg	.LBB21_8
# %bb.7:                                # %land.rhs
                                        #   in Loop: Header=BB21_6 Depth=2
	movl	-32(%rbp), %eax
	movq	-40(%rbp), %rcx
	movq	-24(%rbp), %rdx
	movslq	-4(%rbp), %rsi
	movl	(%rdx,%rsi,4), %edx
	cmpl	(%rcx,%rdx,4), %eax
	seta	%al
.LBB21_8:                               # %land.end
                                        #   in Loop: Header=BB21_6 Depth=2
	testb	$1, %al
	jne	.LBB21_9
	jmp	.LBB21_11
.LBB21_9:                               # %for.body14
                                        #   in Loop: Header=BB21_6 Depth=2
	movq	-24(%rbp), %rax
	movslq	-4(%rbp), %rcx
	movl	(%rax,%rcx,4), %eax
	movq	-24(%rbp), %rcx
	movl	-4(%rbp), %edx
	subl	$4, %edx
	movslq	%edx, %rdx
	movl	%eax, (%rcx,%rdx,4)
# %bb.10:                               # %for.inc
                                        #   in Loop: Header=BB21_6 Depth=2
	movl	-4(%rbp), %eax
	addl	$4, %eax
	movl	%eax, -4(%rbp)
	jmp	.LBB21_6
.LBB21_11:                              # %for.end
                                        #   in Loop: Header=BB21_4 Depth=1
	movl	-16(%rbp), %eax
	movq	-24(%rbp), %rcx
	movl	-4(%rbp), %edx
	subl	$4, %edx
	movslq	%edx, %rdx
	movl	%eax, (%rcx,%rdx,4)
# %bb.12:                               # %for.inc24
                                        #   in Loop: Header=BB21_4 Depth=1
	movl	-8(%rbp), %eax
	addl	$-1, %eax
	movl	%eax, -8(%rbp)
	jmp	.LBB21_4
.LBB21_13:                              # %for.end25
	jmp	.LBB21_14
.LBB21_14:                              # %if.end26
	movl	-12(%rbp), %eax
	subl	$1, %eax
	movl	%eax, -8(%rbp)
.LBB21_15:                              # %for.cond28
                                        # =>This Loop Header: Depth=1
                                        #     Child Loop BB21_17 Depth 2
	movl	-8(%rbp), %eax
	cmpl	-28(%rbp), %eax
	jl	.LBB21_24
# %bb.16:                               # %for.body30
                                        #   in Loop: Header=BB21_15 Depth=1
	movq	-24(%rbp), %rax
	movslq	-8(%rbp), %rcx
	movl	(%rax,%rcx,4), %eax
	movl	%eax, -16(%rbp)
	movq	-40(%rbp), %rax
	movslq	-16(%rbp), %rcx
	movl	(%rax,%rcx,4), %eax
	movl	%eax, -32(%rbp)
	movl	-8(%rbp), %eax
	addl	$1, %eax
	movl	%eax, -4(%rbp)
.LBB21_17:                              # %for.cond36
                                        #   Parent Loop BB21_15 Depth=1
                                        # =>  This Inner Loop Header: Depth=2
	xorl	%eax, %eax
	movl	-4(%rbp), %ecx
	cmpl	-12(%rbp), %ecx
	jg	.LBB21_19
# %bb.18:                               # %land.rhs38
                                        #   in Loop: Header=BB21_17 Depth=2
	movl	-32(%rbp), %eax
	movq	-40(%rbp), %rcx
	movq	-24(%rbp), %rdx
	movslq	-4(%rbp), %rsi
	movl	(%rdx,%rsi,4), %edx
	cmpl	(%rcx,%rdx,4), %eax
	seta	%al
.LBB21_19:                              # %land.end44
                                        #   in Loop: Header=BB21_17 Depth=2
	testb	$1, %al
	jne	.LBB21_20
	jmp	.LBB21_22
.LBB21_20:                              # %for.body45
                                        #   in Loop: Header=BB21_17 Depth=2
	movq	-24(%rbp), %rax
	movslq	-4(%rbp), %rcx
	movl	(%rax,%rcx,4), %eax
	movq	-24(%rbp), %rcx
	movl	-4(%rbp), %edx
	subl	$1, %edx
	movslq	%edx, %rdx
	movl	%eax, (%rcx,%rdx,4)
# %bb.21:                               # %for.inc51
                                        #   in Loop: Header=BB21_17 Depth=2
	movl	-4(%rbp), %eax
	addl	$1, %eax
	movl	%eax, -4(%rbp)
	jmp	.LBB21_17
.LBB21_22:                              # %for.end52
                                        #   in Loop: Header=BB21_15 Depth=1
	movl	-16(%rbp), %eax
	movq	-24(%rbp), %rcx
	movl	-4(%rbp), %edx
	subl	$1, %edx
	movslq	%edx, %rdx
	movl	%eax, (%rcx,%rdx,4)
# %bb.23:                               # %for.inc56
                                        #   in Loop: Header=BB21_15 Depth=1
	movl	-8(%rbp), %eax
	addl	$-1, %eax
	movl	%eax, -8(%rbp)
	jmp	.LBB21_15
.LBB21_24:                              # %for.end58.loopexit
	jmp	.LBB21_25
.LBB21_25:                              # %for.end58
	cmpl	$1002244724, -44(%rbp)  # imm = 0x3BBD0A74
	jne	.LBB21_27
.LBB21_26:
	addq	$48, %rsp
	popq	%rbp
	.cfi_def_cfa %rsp, 8
	retq
.LBB21_27:                              # %func_exit
	.cfi_def_cfa %rbp, 16
	callq	detect_breach
	jmp	.LBB21_26
.Lfunc_end21:
	.size	fallbackSimpleSort.13, .Lfunc_end21-fallbackSimpleSort.13
	.cfi_endproc
                                        # -- End function
	.globl	BZ2_blockSort.14        # -- Begin function BZ2_blockSort.14
	.p2align	4, 0x90
	.type	BZ2_blockSort.14,@function
BZ2_blockSort.14:                       # @BZ2_blockSort.14
	.cfi_startproc
# %bb.0:                                # %entry
	pushq	%rbp
	.cfi_def_cfa_offset 16
	.cfi_offset %rbp, -16
	movq	%rsp, %rbp
	.cfi_def_cfa_register %rbp
	subq	$80, %rsp
	movl	$902175542, -44(%rbp)   # imm = 0x35C61B36
	movq	%rdi, -16(%rbp)
	movq	-16(%rbp), %rax
	movq	56(%rax), %rax
	movq	%rax, -56(%rbp)
	movq	-16(%rbp), %rax
	movq	64(%rax), %rax
	movq	%rax, -64(%rbp)
	movq	-16(%rbp), %rax
	movq	40(%rax), %rax
	movq	%rax, -40(%rbp)
	movq	-16(%rbp), %rax
	movl	108(%rax), %eax
	movl	%eax, -8(%rbp)
	movq	-16(%rbp), %rax
	movl	656(%rax), %eax
	movl	%eax, -20(%rbp)
	movq	-16(%rbp), %rax
	movl	88(%rax), %eax
	movl	%eax, -24(%rbp)
	cmpl	$10000, -8(%rbp)        # imm = 0x2710
	jge	.LBB22_2
# %bb.1:                                # %if.then
	movq	-16(%rbp), %rax
	movq	24(%rax), %rdi
	movq	-16(%rbp), %rax
	movq	32(%rax), %rsi
	movq	-40(%rbp), %rdx
	movl	-8(%rbp), %ecx
	movl	-20(%rbp), %r8d
	callq	fallbackSort
	jmp	.LBB22_18
.LBB22_2:                               # %if.else
	movl	-8(%rbp), %eax
	addl	$34, %eax
	movl	%eax, -4(%rbp)
	movl	-4(%rbp), %eax
	andl	$1, %eax
	cmpl	$0, %eax
	je	.LBB22_4
# %bb.3:                                # %if.then5
	movl	-4(%rbp), %eax
	addl	$1, %eax
	movl	%eax, -4(%rbp)
.LBB22_4:                               # %if.end
	movq	-64(%rbp), %rax
	movslq	-4(%rbp), %rcx
	addq	%rcx, %rax
	movq	%rax, -72(%rbp)
	cmpl	$1, -24(%rbp)
	jge	.LBB22_6
# %bb.5:                                # %if.then7
	movl	$1, -24(%rbp)
.LBB22_6:                               # %if.end8
	cmpl	$100, -24(%rbp)
	jle	.LBB22_8
# %bb.7:                                # %if.then10
	movl	$100, -24(%rbp)
.LBB22_8:                               # %if.end11
	movl	-8(%rbp), %ecx
	movl	-24(%rbp), %eax
	subl	$1, %eax
	cltd
	movl	$3, %esi
	idivl	%esi
	imull	%eax, %ecx
	movl	%ecx, -32(%rbp)
	movl	-32(%rbp), %eax
	movl	%eax, -28(%rbp)
	movq	-56(%rbp), %rdi
	movq	-64(%rbp), %rsi
	movq	-72(%rbp), %rdx
	movq	-40(%rbp), %rcx
	movl	-8(%rbp), %r8d
	movl	-20(%rbp), %r9d
	leaq	-28(%rbp), %rax
	movq	%rax, (%rsp)
	callq	mainSort
	cmpl	$3, -20(%rbp)
	jl	.LBB22_13
# %bb.9:                                # %if.then13
	movq	stderr, %rdi
	movl	-32(%rbp), %edx
	subl	-28(%rbp), %edx
	movl	-8(%rbp), %ecx
	movl	-32(%rbp), %eax
	subl	-28(%rbp), %eax
	vcvtsi2ss	%eax, %xmm0, %xmm0
	cmpl	$0, -8(%rbp)
	jne	.LBB22_11
# %bb.10:                               # %cond.true
	movl	$1, %eax
	jmp	.LBB22_12
.LBB22_11:                              # %cond.false
	movl	-8(%rbp), %eax
.LBB22_12:                              # %cond.end
	vcvtsi2ss	%eax, %xmm0, %xmm1
	vdivss	%xmm1, %xmm0, %xmm0
	vcvtss2sd	%xmm0, %xmm0, %xmm0
	movabsq	$.L.str, %rsi
	movb	$1, %al
	callq	fprintf
.LBB22_13:                              # %if.end21
	cmpl	$0, -28(%rbp)
	jge	.LBB22_17
# %bb.14:                               # %if.then24
	cmpl	$2, -20(%rbp)
	jl	.LBB22_16
# %bb.15:                               # %if.then27
	movq	stderr, %rdi
	movabsq	$.L.str.1, %rsi
	movb	$0, %al
	callq	fprintf
.LBB22_16:                              # %if.end29
	movq	-16(%rbp), %rax
	movq	24(%rax), %rdi
	movq	-16(%rbp), %rax
	movq	32(%rax), %rsi
	movq	-40(%rbp), %rdx
	movl	-8(%rbp), %ecx
	movl	-20(%rbp), %r8d
	callq	fallbackSort
.LBB22_17:                              # %if.end32
	jmp	.LBB22_18
.LBB22_18:                              # %if.end33
	movq	-16(%rbp), %rax
	movl	$-1, 48(%rax)
	movl	$0, -4(%rbp)
.LBB22_19:                              # %for.cond
                                        # =>This Inner Loop Header: Depth=1
	movl	-4(%rbp), %eax
	movq	-16(%rbp), %rcx
	cmpl	108(%rcx), %eax
	jge	.LBB22_24
# %bb.20:                               # %for.body
                                        #   in Loop: Header=BB22_19 Depth=1
	movq	-56(%rbp), %rax
	movslq	-4(%rbp), %rcx
	cmpl	$0, (%rax,%rcx,4)
	jne	.LBB22_22
# %bb.21:                               # %if.then41
	movl	-4(%rbp), %eax
	movq	-16(%rbp), %rcx
	movl	%eax, 48(%rcx)
	jmp	.LBB22_25
.LBB22_22:                              # %if.end43
                                        #   in Loop: Header=BB22_19 Depth=1
	jmp	.LBB22_23
.LBB22_23:                              # %for.inc
                                        #   in Loop: Header=BB22_19 Depth=1
	movl	-4(%rbp), %eax
	addl	$1, %eax
	movl	%eax, -4(%rbp)
	jmp	.LBB22_19
.LBB22_24:                              # %for.end.loopexit
	jmp	.LBB22_25
.LBB22_25:                              # %for.end
	movq	-16(%rbp), %rax
	cmpl	$-1, 48(%rax)
	jne	.LBB22_27
# %bb.26:                               # %if.then48
	movl	$1003, %edi             # imm = 0x3EB
	callq	BZ2_bz__AssertH__fail
.LBB22_27:                              # %if.end49
	cmpl	$902175542, -44(%rbp)   # imm = 0x35C61B36
	jne	.LBB22_29
.LBB22_28:
	addq	$80, %rsp
	popq	%rbp
	.cfi_def_cfa %rsp, 8
	retq
.LBB22_29:                              # %func_exit
	.cfi_def_cfa %rbp, 16
	callq	detect_breach
	jmp	.LBB22_28
.Lfunc_end22:
	.size	BZ2_blockSort.14, .Lfunc_end22-BZ2_blockSort.14
	.cfi_endproc
                                        # -- End function
	.p2align	4, 0x90         # -- Begin function mmed3.15
	.type	mmed3.15,@function
mmed3.15:                               # @mmed3.15
	.cfi_startproc
# %bb.0:                                # %entry
	pushq	%rbp
	.cfi_def_cfa_offset 16
	.cfi_offset %rbp, -16
	movq	%rsp, %rbp
	.cfi_def_cfa_register %rbp
	pushq	%rbx
	pushq	%rax
	.cfi_offset %rbx, -24
	movl	$2033776404, -16(%rbp)  # imm = 0x7938F714
	movb	%dil, -10(%rbp)
	movb	%sil, -9(%rbp)
	movb	%dl, -11(%rbp)
	movzbl	-10(%rbp), %eax
	movzbl	-9(%rbp), %ecx
	cmpl	%ecx, %eax
	jle	.LBB23_2
# %bb.1:                                # %if.then
	movb	-10(%rbp), %al
	movb	%al, -12(%rbp)
	movb	-9(%rbp), %al
	movb	%al, -10(%rbp)
	movb	-12(%rbp), %al
	movb	%al, -9(%rbp)
.LBB23_2:                               # %if.end
	movzbl	-9(%rbp), %eax
	movzbl	-11(%rbp), %ecx
	cmpl	%ecx, %eax
	jle	.LBB23_6
# %bb.3:                                # %if.then7
	movb	-11(%rbp), %al
	movb	%al, -9(%rbp)
	movzbl	-10(%rbp), %eax
	movzbl	-9(%rbp), %ecx
	cmpl	%ecx, %eax
	jle	.LBB23_5
# %bb.4:                                # %if.then12
	movb	-10(%rbp), %al
	movb	%al, -9(%rbp)
.LBB23_5:                               # %if.end13
	jmp	.LBB23_6
.LBB23_6:                               # %if.end14
	movb	-9(%rbp), %bl
	cmpl	$2033776404, -16(%rbp)  # imm = 0x7938F714
	jne	.LBB23_8
.LBB23_7:
	movzbl	%bl, %eax
	addq	$8, %rsp
	popq	%rbx
	popq	%rbp
	.cfi_def_cfa %rsp, 8
	retq
.LBB23_8:                               # %func_exit
	.cfi_def_cfa %rbp, 16
	callq	detect_breach
	jmp	.LBB23_7
.Lfunc_end23:
	.size	mmed3.15, .Lfunc_end23-mmed3.15
	.cfi_endproc
                                        # -- End function
	.p2align	4, 0x90         # -- Begin function mainGtU.16
	.type	mainGtU.16,@function
mainGtU.16:                             # @mainGtU.16
	.cfi_startproc
# %bb.0:                                # %entry
	pushq	%rbp
	.cfi_def_cfa_offset 16
	.cfi_offset %rbp, -16
	movq	%rsp, %rbp
	.cfi_def_cfa_register %rbp
	pushq	%rbx
	subq	$56, %rsp
	.cfi_offset %rbx, -24
	movl	$1731301608, -52(%rbp)  # imm = 0x673190E8
	movl	%edi, -20(%rbp)
	movl	%esi, -16(%rbp)
	movq	%rdx, -32(%rbp)
	movq	%rcx, -40(%rbp)
	movl	%r8d, -44(%rbp)
	movq	%r9, -64(%rbp)
	movq	-32(%rbp), %rax
	movl	-20(%rbp), %ecx
	movb	(%rax,%rcx), %al
	movb	%al, -10(%rbp)
	movq	-32(%rbp), %rax
	movl	-16(%rbp), %ecx
	movb	(%rax,%rcx), %al
	movb	%al, -9(%rbp)
	movzbl	-10(%rbp), %eax
	movzbl	-9(%rbp), %ecx
	cmpl	%ecx, %eax
	je	.LBB24_2
# %bb.1:                                # %if.then
	movzbl	-10(%rbp), %eax
	movzbl	-9(%rbp), %ecx
	cmpl	%ecx, %eax
	setg	%al
	andb	$1, %al
	movzbl	%al, %eax
	movb	%al, -11(%rbp)
	jmp	.LBB24_64
.LBB24_2:                               # %if.end
	movl	-20(%rbp), %eax
	addl	$1, %eax
	movl	%eax, -20(%rbp)
	movl	-16(%rbp), %eax
	addl	$1, %eax
	movl	%eax, -16(%rbp)
	movq	-32(%rbp), %rax
	movl	-20(%rbp), %ecx
	movb	(%rax,%rcx), %al
	movb	%al, -10(%rbp)
	movq	-32(%rbp), %rax
	movl	-16(%rbp), %ecx
	movb	(%rax,%rcx), %al
	movb	%al, -9(%rbp)
	movzbl	-10(%rbp), %eax
	movzbl	-9(%rbp), %ecx
	cmpl	%ecx, %eax
	je	.LBB24_4
# %bb.3:                                # %if.then19
	movzbl	-10(%rbp), %eax
	movzbl	-9(%rbp), %ecx
	cmpl	%ecx, %eax
	setg	%al
	andb	$1, %al
	movzbl	%al, %eax
	movb	%al, -11(%rbp)
	jmp	.LBB24_64
.LBB24_4:                               # %if.end25
	movl	-20(%rbp), %eax
	addl	$1, %eax
	movl	%eax, -20(%rbp)
	movl	-16(%rbp), %eax
	addl	$1, %eax
	movl	%eax, -16(%rbp)
	movq	-32(%rbp), %rax
	movl	-20(%rbp), %ecx
	movb	(%rax,%rcx), %al
	movb	%al, -10(%rbp)
	movq	-32(%rbp), %rax
	movl	-16(%rbp), %ecx
	movb	(%rax,%rcx), %al
	movb	%al, -9(%rbp)
	movzbl	-10(%rbp), %eax
	movzbl	-9(%rbp), %ecx
	cmpl	%ecx, %eax
	je	.LBB24_6
# %bb.5:                                # %if.then36
	movzbl	-10(%rbp), %eax
	movzbl	-9(%rbp), %ecx
	cmpl	%ecx, %eax
	setg	%al
	andb	$1, %al
	movzbl	%al, %eax
	movb	%al, -11(%rbp)
	jmp	.LBB24_64
.LBB24_6:                               # %if.end42
	movl	-20(%rbp), %eax
	addl	$1, %eax
	movl	%eax, -20(%rbp)
	movl	-16(%rbp), %eax
	addl	$1, %eax
	movl	%eax, -16(%rbp)
	movq	-32(%rbp), %rax
	movl	-20(%rbp), %ecx
	movb	(%rax,%rcx), %al
	movb	%al, -10(%rbp)
	movq	-32(%rbp), %rax
	movl	-16(%rbp), %ecx
	movb	(%rax,%rcx), %al
	movb	%al, -9(%rbp)
	movzbl	-10(%rbp), %eax
	movzbl	-9(%rbp), %ecx
	cmpl	%ecx, %eax
	je	.LBB24_8
# %bb.7:                                # %if.then53
	movzbl	-10(%rbp), %eax
	movzbl	-9(%rbp), %ecx
	cmpl	%ecx, %eax
	setg	%al
	andb	$1, %al
	movzbl	%al, %eax
	movb	%al, -11(%rbp)
	jmp	.LBB24_64
.LBB24_8:                               # %if.end59
	movl	-20(%rbp), %eax
	addl	$1, %eax
	movl	%eax, -20(%rbp)
	movl	-16(%rbp), %eax
	addl	$1, %eax
	movl	%eax, -16(%rbp)
	movq	-32(%rbp), %rax
	movl	-20(%rbp), %ecx
	movb	(%rax,%rcx), %al
	movb	%al, -10(%rbp)
	movq	-32(%rbp), %rax
	movl	-16(%rbp), %ecx
	movb	(%rax,%rcx), %al
	movb	%al, -9(%rbp)
	movzbl	-10(%rbp), %eax
	movzbl	-9(%rbp), %ecx
	cmpl	%ecx, %eax
	je	.LBB24_10
# %bb.9:                                # %if.then70
	movzbl	-10(%rbp), %eax
	movzbl	-9(%rbp), %ecx
	cmpl	%ecx, %eax
	setg	%al
	andb	$1, %al
	movzbl	%al, %eax
	movb	%al, -11(%rbp)
	jmp	.LBB24_64
.LBB24_10:                              # %if.end76
	movl	-20(%rbp), %eax
	addl	$1, %eax
	movl	%eax, -20(%rbp)
	movl	-16(%rbp), %eax
	addl	$1, %eax
	movl	%eax, -16(%rbp)
	movq	-32(%rbp), %rax
	movl	-20(%rbp), %ecx
	movb	(%rax,%rcx), %al
	movb	%al, -10(%rbp)
	movq	-32(%rbp), %rax
	movl	-16(%rbp), %ecx
	movb	(%rax,%rcx), %al
	movb	%al, -9(%rbp)
	movzbl	-10(%rbp), %eax
	movzbl	-9(%rbp), %ecx
	cmpl	%ecx, %eax
	je	.LBB24_12
# %bb.11:                               # %if.then87
	movzbl	-10(%rbp), %eax
	movzbl	-9(%rbp), %ecx
	cmpl	%ecx, %eax
	setg	%al
	andb	$1, %al
	movzbl	%al, %eax
	movb	%al, -11(%rbp)
	jmp	.LBB24_64
.LBB24_12:                              # %if.end93
	movl	-20(%rbp), %eax
	addl	$1, %eax
	movl	%eax, -20(%rbp)
	movl	-16(%rbp), %eax
	addl	$1, %eax
	movl	%eax, -16(%rbp)
	movq	-32(%rbp), %rax
	movl	-20(%rbp), %ecx
	movb	(%rax,%rcx), %al
	movb	%al, -10(%rbp)
	movq	-32(%rbp), %rax
	movl	-16(%rbp), %ecx
	movb	(%rax,%rcx), %al
	movb	%al, -9(%rbp)
	movzbl	-10(%rbp), %eax
	movzbl	-9(%rbp), %ecx
	cmpl	%ecx, %eax
	je	.LBB24_14
# %bb.13:                               # %if.then104
	movzbl	-10(%rbp), %eax
	movzbl	-9(%rbp), %ecx
	cmpl	%ecx, %eax
	setg	%al
	andb	$1, %al
	movzbl	%al, %eax
	movb	%al, -11(%rbp)
	jmp	.LBB24_64
.LBB24_14:                              # %if.end110
	movl	-20(%rbp), %eax
	addl	$1, %eax
	movl	%eax, -20(%rbp)
	movl	-16(%rbp), %eax
	addl	$1, %eax
	movl	%eax, -16(%rbp)
	movq	-32(%rbp), %rax
	movl	-20(%rbp), %ecx
	movb	(%rax,%rcx), %al
	movb	%al, -10(%rbp)
	movq	-32(%rbp), %rax
	movl	-16(%rbp), %ecx
	movb	(%rax,%rcx), %al
	movb	%al, -9(%rbp)
	movzbl	-10(%rbp), %eax
	movzbl	-9(%rbp), %ecx
	cmpl	%ecx, %eax
	je	.LBB24_16
# %bb.15:                               # %if.then121
	movzbl	-10(%rbp), %eax
	movzbl	-9(%rbp), %ecx
	cmpl	%ecx, %eax
	setg	%al
	andb	$1, %al
	movzbl	%al, %eax
	movb	%al, -11(%rbp)
	jmp	.LBB24_64
.LBB24_16:                              # %if.end127
	movl	-20(%rbp), %eax
	addl	$1, %eax
	movl	%eax, -20(%rbp)
	movl	-16(%rbp), %eax
	addl	$1, %eax
	movl	%eax, -16(%rbp)
	movq	-32(%rbp), %rax
	movl	-20(%rbp), %ecx
	movb	(%rax,%rcx), %al
	movb	%al, -10(%rbp)
	movq	-32(%rbp), %rax
	movl	-16(%rbp), %ecx
	movb	(%rax,%rcx), %al
	movb	%al, -9(%rbp)
	movzbl	-10(%rbp), %eax
	movzbl	-9(%rbp), %ecx
	cmpl	%ecx, %eax
	je	.LBB24_18
# %bb.17:                               # %if.then138
	movzbl	-10(%rbp), %eax
	movzbl	-9(%rbp), %ecx
	cmpl	%ecx, %eax
	setg	%al
	andb	$1, %al
	movzbl	%al, %eax
	movb	%al, -11(%rbp)
	jmp	.LBB24_64
.LBB24_18:                              # %if.end144
	movl	-20(%rbp), %eax
	addl	$1, %eax
	movl	%eax, -20(%rbp)
	movl	-16(%rbp), %eax
	addl	$1, %eax
	movl	%eax, -16(%rbp)
	movq	-32(%rbp), %rax
	movl	-20(%rbp), %ecx
	movb	(%rax,%rcx), %al
	movb	%al, -10(%rbp)
	movq	-32(%rbp), %rax
	movl	-16(%rbp), %ecx
	movb	(%rax,%rcx), %al
	movb	%al, -9(%rbp)
	movzbl	-10(%rbp), %eax
	movzbl	-9(%rbp), %ecx
	cmpl	%ecx, %eax
	je	.LBB24_20
# %bb.19:                               # %if.then155
	movzbl	-10(%rbp), %eax
	movzbl	-9(%rbp), %ecx
	cmpl	%ecx, %eax
	setg	%al
	andb	$1, %al
	movzbl	%al, %eax
	movb	%al, -11(%rbp)
	jmp	.LBB24_64
.LBB24_20:                              # %if.end161
	movl	-20(%rbp), %eax
	addl	$1, %eax
	movl	%eax, -20(%rbp)
	movl	-16(%rbp), %eax
	addl	$1, %eax
	movl	%eax, -16(%rbp)
	movq	-32(%rbp), %rax
	movl	-20(%rbp), %ecx
	movb	(%rax,%rcx), %al
	movb	%al, -10(%rbp)
	movq	-32(%rbp), %rax
	movl	-16(%rbp), %ecx
	movb	(%rax,%rcx), %al
	movb	%al, -9(%rbp)
	movzbl	-10(%rbp), %eax
	movzbl	-9(%rbp), %ecx
	cmpl	%ecx, %eax
	je	.LBB24_22
# %bb.21:                               # %if.then172
	movzbl	-10(%rbp), %eax
	movzbl	-9(%rbp), %ecx
	cmpl	%ecx, %eax
	setg	%al
	andb	$1, %al
	movzbl	%al, %eax
	movb	%al, -11(%rbp)
	jmp	.LBB24_64
.LBB24_22:                              # %if.end178
	movl	-20(%rbp), %eax
	addl	$1, %eax
	movl	%eax, -20(%rbp)
	movl	-16(%rbp), %eax
	addl	$1, %eax
	movl	%eax, -16(%rbp)
	movq	-32(%rbp), %rax
	movl	-20(%rbp), %ecx
	movb	(%rax,%rcx), %al
	movb	%al, -10(%rbp)
	movq	-32(%rbp), %rax
	movl	-16(%rbp), %ecx
	movb	(%rax,%rcx), %al
	movb	%al, -9(%rbp)
	movzbl	-10(%rbp), %eax
	movzbl	-9(%rbp), %ecx
	cmpl	%ecx, %eax
	je	.LBB24_24
# %bb.23:                               # %if.then189
	movzbl	-10(%rbp), %eax
	movzbl	-9(%rbp), %ecx
	cmpl	%ecx, %eax
	setg	%al
	andb	$1, %al
	movzbl	%al, %eax
	movb	%al, -11(%rbp)
	jmp	.LBB24_64
.LBB24_24:                              # %if.end195
	movl	-20(%rbp), %eax
	addl	$1, %eax
	movl	%eax, -20(%rbp)
	movl	-16(%rbp), %eax
	addl	$1, %eax
	movl	%eax, -16(%rbp)
	movl	-44(%rbp), %eax
	addl	$8, %eax
	movl	%eax, -48(%rbp)
.LBB24_25:                              # %do.body
                                        # =>This Inner Loop Header: Depth=1
	movq	-32(%rbp), %rax
	movl	-20(%rbp), %ecx
	movb	(%rax,%rcx), %al
	movb	%al, -10(%rbp)
	movq	-32(%rbp), %rax
	movl	-16(%rbp), %ecx
	movb	(%rax,%rcx), %al
	movb	%al, -9(%rbp)
	movzbl	-10(%rbp), %eax
	movzbl	-9(%rbp), %ecx
	cmpl	%ecx, %eax
	je	.LBB24_27
# %bb.26:                               # %if.then206
	movzbl	-10(%rbp), %eax
	movzbl	-9(%rbp), %ecx
	cmpl	%ecx, %eax
	setg	%al
	andb	$1, %al
	movzbl	%al, %eax
	movb	%al, -11(%rbp)
	jmp	.LBB24_64
.LBB24_27:                              # %if.end212
                                        #   in Loop: Header=BB24_25 Depth=1
	movq	-40(%rbp), %rax
	movl	-20(%rbp), %ecx
	movw	(%rax,%rcx,2), %ax
	movw	%ax, -22(%rbp)
	movq	-40(%rbp), %rax
	movl	-16(%rbp), %ecx
	movw	(%rax,%rcx,2), %ax
	movw	%ax, -24(%rbp)
	movzwl	-22(%rbp), %eax
	movzwl	-24(%rbp), %ecx
	cmpl	%ecx, %eax
	je	.LBB24_29
# %bb.28:                               # %if.then221
	movzwl	-22(%rbp), %eax
	movzwl	-24(%rbp), %ecx
	cmpl	%ecx, %eax
	setg	%al
	andb	$1, %al
	movzbl	%al, %eax
	movb	%al, -11(%rbp)
	jmp	.LBB24_64
.LBB24_29:                              # %if.end227
                                        #   in Loop: Header=BB24_25 Depth=1
	movl	-20(%rbp), %eax
	addl	$1, %eax
	movl	%eax, -20(%rbp)
	movl	-16(%rbp), %eax
	addl	$1, %eax
	movl	%eax, -16(%rbp)
	movq	-32(%rbp), %rax
	movl	-20(%rbp), %ecx
	movb	(%rax,%rcx), %al
	movb	%al, -10(%rbp)
	movq	-32(%rbp), %rax
	movl	-16(%rbp), %ecx
	movb	(%rax,%rcx), %al
	movb	%al, -9(%rbp)
	movzbl	-10(%rbp), %eax
	movzbl	-9(%rbp), %ecx
	cmpl	%ecx, %eax
	je	.LBB24_31
# %bb.30:                               # %if.then238
	movzbl	-10(%rbp), %eax
	movzbl	-9(%rbp), %ecx
	cmpl	%ecx, %eax
	setg	%al
	andb	$1, %al
	movzbl	%al, %eax
	movb	%al, -11(%rbp)
	jmp	.LBB24_64
.LBB24_31:                              # %if.end244
                                        #   in Loop: Header=BB24_25 Depth=1
	movq	-40(%rbp), %rax
	movl	-20(%rbp), %ecx
	movw	(%rax,%rcx,2), %ax
	movw	%ax, -22(%rbp)
	movq	-40(%rbp), %rax
	movl	-16(%rbp), %ecx
	movw	(%rax,%rcx,2), %ax
	movw	%ax, -24(%rbp)
	movzwl	-22(%rbp), %eax
	movzwl	-24(%rbp), %ecx
	cmpl	%ecx, %eax
	je	.LBB24_33
# %bb.32:                               # %if.then253
	movzwl	-22(%rbp), %eax
	movzwl	-24(%rbp), %ecx
	cmpl	%ecx, %eax
	setg	%al
	andb	$1, %al
	movzbl	%al, %eax
	movb	%al, -11(%rbp)
	jmp	.LBB24_64
.LBB24_33:                              # %if.end259
                                        #   in Loop: Header=BB24_25 Depth=1
	movl	-20(%rbp), %eax
	addl	$1, %eax
	movl	%eax, -20(%rbp)
	movl	-16(%rbp), %eax
	addl	$1, %eax
	movl	%eax, -16(%rbp)
	movq	-32(%rbp), %rax
	movl	-20(%rbp), %ecx
	movb	(%rax,%rcx), %al
	movb	%al, -10(%rbp)
	movq	-32(%rbp), %rax
	movl	-16(%rbp), %ecx
	movb	(%rax,%rcx), %al
	movb	%al, -9(%rbp)
	movzbl	-10(%rbp), %eax
	movzbl	-9(%rbp), %ecx
	cmpl	%ecx, %eax
	je	.LBB24_35
# %bb.34:                               # %if.then270
	movzbl	-10(%rbp), %eax
	movzbl	-9(%rbp), %ecx
	cmpl	%ecx, %eax
	setg	%al
	andb	$1, %al
	movzbl	%al, %eax
	movb	%al, -11(%rbp)
	jmp	.LBB24_64
.LBB24_35:                              # %if.end276
                                        #   in Loop: Header=BB24_25 Depth=1
	movq	-40(%rbp), %rax
	movl	-20(%rbp), %ecx
	movw	(%rax,%rcx,2), %ax
	movw	%ax, -22(%rbp)
	movq	-40(%rbp), %rax
	movl	-16(%rbp), %ecx
	movw	(%rax,%rcx,2), %ax
	movw	%ax, -24(%rbp)
	movzwl	-22(%rbp), %eax
	movzwl	-24(%rbp), %ecx
	cmpl	%ecx, %eax
	je	.LBB24_37
# %bb.36:                               # %if.then285
	movzwl	-22(%rbp), %eax
	movzwl	-24(%rbp), %ecx
	cmpl	%ecx, %eax
	setg	%al
	andb	$1, %al
	movzbl	%al, %eax
	movb	%al, -11(%rbp)
	jmp	.LBB24_64
.LBB24_37:                              # %if.end291
                                        #   in Loop: Header=BB24_25 Depth=1
	movl	-20(%rbp), %eax
	addl	$1, %eax
	movl	%eax, -20(%rbp)
	movl	-16(%rbp), %eax
	addl	$1, %eax
	movl	%eax, -16(%rbp)
	movq	-32(%rbp), %rax
	movl	-20(%rbp), %ecx
	movb	(%rax,%rcx), %al
	movb	%al, -10(%rbp)
	movq	-32(%rbp), %rax
	movl	-16(%rbp), %ecx
	movb	(%rax,%rcx), %al
	movb	%al, -9(%rbp)
	movzbl	-10(%rbp), %eax
	movzbl	-9(%rbp), %ecx
	cmpl	%ecx, %eax
	je	.LBB24_39
# %bb.38:                               # %if.then302
	movzbl	-10(%rbp), %eax
	movzbl	-9(%rbp), %ecx
	cmpl	%ecx, %eax
	setg	%al
	andb	$1, %al
	movzbl	%al, %eax
	movb	%al, -11(%rbp)
	jmp	.LBB24_64
.LBB24_39:                              # %if.end308
                                        #   in Loop: Header=BB24_25 Depth=1
	movq	-40(%rbp), %rax
	movl	-20(%rbp), %ecx
	movw	(%rax,%rcx,2), %ax
	movw	%ax, -22(%rbp)
	movq	-40(%rbp), %rax
	movl	-16(%rbp), %ecx
	movw	(%rax,%rcx,2), %ax
	movw	%ax, -24(%rbp)
	movzwl	-22(%rbp), %eax
	movzwl	-24(%rbp), %ecx
	cmpl	%ecx, %eax
	je	.LBB24_41
# %bb.40:                               # %if.then317
	movzwl	-22(%rbp), %eax
	movzwl	-24(%rbp), %ecx
	cmpl	%ecx, %eax
	setg	%al
	andb	$1, %al
	movzbl	%al, %eax
	movb	%al, -11(%rbp)
	jmp	.LBB24_64
.LBB24_41:                              # %if.end323
                                        #   in Loop: Header=BB24_25 Depth=1
	movl	-20(%rbp), %eax
	addl	$1, %eax
	movl	%eax, -20(%rbp)
	movl	-16(%rbp), %eax
	addl	$1, %eax
	movl	%eax, -16(%rbp)
	movq	-32(%rbp), %rax
	movl	-20(%rbp), %ecx
	movb	(%rax,%rcx), %al
	movb	%al, -10(%rbp)
	movq	-32(%rbp), %rax
	movl	-16(%rbp), %ecx
	movb	(%rax,%rcx), %al
	movb	%al, -9(%rbp)
	movzbl	-10(%rbp), %eax
	movzbl	-9(%rbp), %ecx
	cmpl	%ecx, %eax
	je	.LBB24_43
# %bb.42:                               # %if.then334
	movzbl	-10(%rbp), %eax
	movzbl	-9(%rbp), %ecx
	cmpl	%ecx, %eax
	setg	%al
	andb	$1, %al
	movzbl	%al, %eax
	movb	%al, -11(%rbp)
	jmp	.LBB24_64
.LBB24_43:                              # %if.end340
                                        #   in Loop: Header=BB24_25 Depth=1
	movq	-40(%rbp), %rax
	movl	-20(%rbp), %ecx
	movw	(%rax,%rcx,2), %ax
	movw	%ax, -22(%rbp)
	movq	-40(%rbp), %rax
	movl	-16(%rbp), %ecx
	movw	(%rax,%rcx,2), %ax
	movw	%ax, -24(%rbp)
	movzwl	-22(%rbp), %eax
	movzwl	-24(%rbp), %ecx
	cmpl	%ecx, %eax
	je	.LBB24_45
# %bb.44:                               # %if.then349
	movzwl	-22(%rbp), %eax
	movzwl	-24(%rbp), %ecx
	cmpl	%ecx, %eax
	setg	%al
	andb	$1, %al
	movzbl	%al, %eax
	movb	%al, -11(%rbp)
	jmp	.LBB24_64
.LBB24_45:                              # %if.end355
                                        #   in Loop: Header=BB24_25 Depth=1
	movl	-20(%rbp), %eax
	addl	$1, %eax
	movl	%eax, -20(%rbp)
	movl	-16(%rbp), %eax
	addl	$1, %eax
	movl	%eax, -16(%rbp)
	movq	-32(%rbp), %rax
	movl	-20(%rbp), %ecx
	movb	(%rax,%rcx), %al
	movb	%al, -10(%rbp)
	movq	-32(%rbp), %rax
	movl	-16(%rbp), %ecx
	movb	(%rax,%rcx), %al
	movb	%al, -9(%rbp)
	movzbl	-10(%rbp), %eax
	movzbl	-9(%rbp), %ecx
	cmpl	%ecx, %eax
	je	.LBB24_47
# %bb.46:                               # %if.then366
	movzbl	-10(%rbp), %eax
	movzbl	-9(%rbp), %ecx
	cmpl	%ecx, %eax
	setg	%al
	andb	$1, %al
	movzbl	%al, %eax
	movb	%al, -11(%rbp)
	jmp	.LBB24_64
.LBB24_47:                              # %if.end372
                                        #   in Loop: Header=BB24_25 Depth=1
	movq	-40(%rbp), %rax
	movl	-20(%rbp), %ecx
	movw	(%rax,%rcx,2), %ax
	movw	%ax, -22(%rbp)
	movq	-40(%rbp), %rax
	movl	-16(%rbp), %ecx
	movw	(%rax,%rcx,2), %ax
	movw	%ax, -24(%rbp)
	movzwl	-22(%rbp), %eax
	movzwl	-24(%rbp), %ecx
	cmpl	%ecx, %eax
	je	.LBB24_49
# %bb.48:                               # %if.then381
	movzwl	-22(%rbp), %eax
	movzwl	-24(%rbp), %ecx
	cmpl	%ecx, %eax
	setg	%al
	andb	$1, %al
	movzbl	%al, %eax
	movb	%al, -11(%rbp)
	jmp	.LBB24_64
.LBB24_49:                              # %if.end387
                                        #   in Loop: Header=BB24_25 Depth=1
	movl	-20(%rbp), %eax
	addl	$1, %eax
	movl	%eax, -20(%rbp)
	movl	-16(%rbp), %eax
	addl	$1, %eax
	movl	%eax, -16(%rbp)
	movq	-32(%rbp), %rax
	movl	-20(%rbp), %ecx
	movb	(%rax,%rcx), %al
	movb	%al, -10(%rbp)
	movq	-32(%rbp), %rax
	movl	-16(%rbp), %ecx
	movb	(%rax,%rcx), %al
	movb	%al, -9(%rbp)
	movzbl	-10(%rbp), %eax
	movzbl	-9(%rbp), %ecx
	cmpl	%ecx, %eax
	je	.LBB24_51
# %bb.50:                               # %if.then398
	movzbl	-10(%rbp), %eax
	movzbl	-9(%rbp), %ecx
	cmpl	%ecx, %eax
	setg	%al
	andb	$1, %al
	movzbl	%al, %eax
	movb	%al, -11(%rbp)
	jmp	.LBB24_64
.LBB24_51:                              # %if.end404
                                        #   in Loop: Header=BB24_25 Depth=1
	movq	-40(%rbp), %rax
	movl	-20(%rbp), %ecx
	movw	(%rax,%rcx,2), %ax
	movw	%ax, -22(%rbp)
	movq	-40(%rbp), %rax
	movl	-16(%rbp), %ecx
	movw	(%rax,%rcx,2), %ax
	movw	%ax, -24(%rbp)
	movzwl	-22(%rbp), %eax
	movzwl	-24(%rbp), %ecx
	cmpl	%ecx, %eax
	je	.LBB24_53
# %bb.52:                               # %if.then413
	movzwl	-22(%rbp), %eax
	movzwl	-24(%rbp), %ecx
	cmpl	%ecx, %eax
	setg	%al
	andb	$1, %al
	movzbl	%al, %eax
	movb	%al, -11(%rbp)
	jmp	.LBB24_64
.LBB24_53:                              # %if.end419
                                        #   in Loop: Header=BB24_25 Depth=1
	movl	-20(%rbp), %eax
	addl	$1, %eax
	movl	%eax, -20(%rbp)
	movl	-16(%rbp), %eax
	addl	$1, %eax
	movl	%eax, -16(%rbp)
	movq	-32(%rbp), %rax
	movl	-20(%rbp), %ecx
	movb	(%rax,%rcx), %al
	movb	%al, -10(%rbp)
	movq	-32(%rbp), %rax
	movl	-16(%rbp), %ecx
	movb	(%rax,%rcx), %al
	movb	%al, -9(%rbp)
	movzbl	-10(%rbp), %eax
	movzbl	-9(%rbp), %ecx
	cmpl	%ecx, %eax
	je	.LBB24_55
# %bb.54:                               # %if.then430
	movzbl	-10(%rbp), %eax
	movzbl	-9(%rbp), %ecx
	cmpl	%ecx, %eax
	setg	%al
	andb	$1, %al
	movzbl	%al, %eax
	movb	%al, -11(%rbp)
	jmp	.LBB24_64
.LBB24_55:                              # %if.end436
                                        #   in Loop: Header=BB24_25 Depth=1
	movq	-40(%rbp), %rax
	movl	-20(%rbp), %ecx
	movw	(%rax,%rcx,2), %ax
	movw	%ax, -22(%rbp)
	movq	-40(%rbp), %rax
	movl	-16(%rbp), %ecx
	movw	(%rax,%rcx,2), %ax
	movw	%ax, -24(%rbp)
	movzwl	-22(%rbp), %eax
	movzwl	-24(%rbp), %ecx
	cmpl	%ecx, %eax
	je	.LBB24_57
# %bb.56:                               # %if.then445
	movzwl	-22(%rbp), %eax
	movzwl	-24(%rbp), %ecx
	cmpl	%ecx, %eax
	setg	%al
	andb	$1, %al
	movzbl	%al, %eax
	movb	%al, -11(%rbp)
	jmp	.LBB24_64
.LBB24_57:                              # %if.end451
                                        #   in Loop: Header=BB24_25 Depth=1
	movl	-20(%rbp), %eax
	addl	$1, %eax
	movl	%eax, -20(%rbp)
	movl	-16(%rbp), %eax
	addl	$1, %eax
	movl	%eax, -16(%rbp)
	movl	-20(%rbp), %eax
	cmpl	-44(%rbp), %eax
	jb	.LBB24_59
# %bb.58:                               # %if.then456
                                        #   in Loop: Header=BB24_25 Depth=1
	movl	-44(%rbp), %eax
	movl	-20(%rbp), %ecx
	subl	%eax, %ecx
	movl	%ecx, -20(%rbp)
.LBB24_59:                              # %if.end457
                                        #   in Loop: Header=BB24_25 Depth=1
	movl	-16(%rbp), %eax
	cmpl	-44(%rbp), %eax
	jb	.LBB24_61
# %bb.60:                               # %if.then460
                                        #   in Loop: Header=BB24_25 Depth=1
	movl	-44(%rbp), %eax
	movl	-16(%rbp), %ecx
	subl	%eax, %ecx
	movl	%ecx, -16(%rbp)
.LBB24_61:                              # %if.end462
                                        #   in Loop: Header=BB24_25 Depth=1
	movl	-48(%rbp), %eax
	subl	$8, %eax
	movl	%eax, -48(%rbp)
	movq	-64(%rbp), %rax
	movl	(%rax), %ecx
	addl	$-1, %ecx
	movl	%ecx, (%rax)
# %bb.62:                               # %do.cond
                                        #   in Loop: Header=BB24_25 Depth=1
	cmpl	$0, -48(%rbp)
	jge	.LBB24_25
# %bb.63:                               # %do.end
	movb	$0, -11(%rbp)
.LBB24_64:                              # %return
	movb	-11(%rbp), %bl
	cmpl	$1731301608, -52(%rbp)  # imm = 0x673190E8
	jne	.LBB24_66
.LBB24_65:
	movzbl	%bl, %eax
	addq	$56, %rsp
	popq	%rbx
	popq	%rbp
	.cfi_def_cfa %rsp, 8
	retq
.LBB24_66:                              # %func_exit
	.cfi_def_cfa %rbp, 16
	callq	detect_breach
	jmp	.LBB24_65
.Lfunc_end24:
	.size	mainGtU.16, .Lfunc_end24-mainGtU.16
	.cfi_endproc
                                        # -- End function
	.p2align	4, 0x90         # -- Begin function mainSort.17
	.type	mainSort.17,@function
mainSort.17:                            # @mainSort.17
	.cfi_startproc
# %bb.0:                                # %entry
	pushq	%rbp
	.cfi_def_cfa_offset 16
	.cfi_offset %rbp, -16
	movq	%rsp, %rbp
	.cfi_def_cfa_register %rbp
	subq	$3472, %rsp             # imm = 0xD90
	movq	16(%rbp), %rax
	movl	$623826085, -116(%rbp)  # imm = 0x252ED4A5
	movq	%rdi, -56(%rbp)
	movq	%rsi, -48(%rbp)
	movq	%rdx, -80(%rbp)
	movq	%rcx, -24(%rbp)
	movl	%r8d, -36(%rbp)
	movl	%r9d, -88(%rbp)
	cmpl	$4, -88(%rbp)
	jl	.LBB25_2
# %bb.1:                                # %if.then
	movq	stderr, %rdi
	movabsq	$.L.str.6, %rsi
	movb	$0, %al
	callq	fprintf
.LBB25_2:                               # %if.end
	movl	$65536, -8(%rbp)        # imm = 0x10000
.LBB25_3:                               # %for.cond
                                        # =>This Inner Loop Header: Depth=1
	cmpl	$0, -8(%rbp)
	jl	.LBB25_6
# %bb.4:                                # %for.body
                                        #   in Loop: Header=BB25_3 Depth=1
	movq	-24(%rbp), %rax
	movslq	-8(%rbp), %rcx
	movl	$0, (%rax,%rcx,4)
# %bb.5:                                # %for.inc
                                        #   in Loop: Header=BB25_3 Depth=1
	movl	-8(%rbp), %eax
	addl	$-1, %eax
	movl	%eax, -8(%rbp)
	jmp	.LBB25_3
.LBB25_6:                               # %for.end
	movq	-48(%rbp), %rax
	movzbl	(%rax), %eax
	shll	$8, %eax
	movl	%eax, -4(%rbp)
	movl	-36(%rbp), %eax
	subl	$1, %eax
	movl	%eax, -8(%rbp)
.LBB25_7:                               # %for.cond3
                                        # =>This Inner Loop Header: Depth=1
	cmpl	$3, -8(%rbp)
	jl	.LBB25_10
# %bb.8:                                # %for.body6
                                        #   in Loop: Header=BB25_7 Depth=1
	movq	-80(%rbp), %rax
	movslq	-8(%rbp), %rcx
	movw	$0, (%rax,%rcx,2)
	movl	-4(%rbp), %eax
	sarl	$8, %eax
	movq	-48(%rbp), %rcx
	movslq	-8(%rbp), %rdx
	movzbl	(%rcx,%rdx), %ecx
	movzwl	%cx, %ecx
	shll	$8, %ecx
	orl	%ecx, %eax
	movl	%eax, -4(%rbp)
	movq	-24(%rbp), %rax
	movslq	-4(%rbp), %rcx
	movl	(%rax,%rcx,4), %edx
	addl	$1, %edx
	movl	%edx, (%rax,%rcx,4)
	movq	-80(%rbp), %rax
	movl	-8(%rbp), %ecx
	subl	$1, %ecx
	movslq	%ecx, %rcx
	movw	$0, (%rax,%rcx,2)
	movl	-4(%rbp), %eax
	sarl	$8, %eax
	movq	-48(%rbp), %rcx
	movl	-8(%rbp), %edx
	subl	$1, %edx
	movslq	%edx, %rdx
	movzbl	(%rcx,%rdx), %ecx
	movzwl	%cx, %ecx
	shll	$8, %ecx
	orl	%ecx, %eax
	movl	%eax, -4(%rbp)
	movq	-24(%rbp), %rax
	movslq	-4(%rbp), %rcx
	movl	(%rax,%rcx,4), %edx
	addl	$1, %edx
	movl	%edx, (%rax,%rcx,4)
	movq	-80(%rbp), %rax
	movl	-8(%rbp), %ecx
	subl	$2, %ecx
	movslq	%ecx, %rcx
	movw	$0, (%rax,%rcx,2)
	movl	-4(%rbp), %eax
	sarl	$8, %eax
	movq	-48(%rbp), %rcx
	movl	-8(%rbp), %edx
	subl	$2, %edx
	movslq	%edx, %rdx
	movzbl	(%rcx,%rdx), %ecx
	movzwl	%cx, %ecx
	shll	$8, %ecx
	orl	%ecx, %eax
	movl	%eax, -4(%rbp)
	movq	-24(%rbp), %rax
	movslq	-4(%rbp), %rcx
	movl	(%rax,%rcx,4), %edx
	addl	$1, %edx
	movl	%edx, (%rax,%rcx,4)
	movq	-80(%rbp), %rax
	movl	-8(%rbp), %ecx
	subl	$3, %ecx
	movslq	%ecx, %rcx
	movw	$0, (%rax,%rcx,2)
	movl	-4(%rbp), %eax
	sarl	$8, %eax
	movq	-48(%rbp), %rcx
	movl	-8(%rbp), %edx
	subl	$3, %edx
	movslq	%edx, %rdx
	movzbl	(%rcx,%rdx), %ecx
	movzwl	%cx, %ecx
	shll	$8, %ecx
	orl	%ecx, %eax
	movl	%eax, -4(%rbp)
	movq	-24(%rbp), %rax
	movslq	-4(%rbp), %rcx
	movl	(%rax,%rcx,4), %edx
	addl	$1, %edx
	movl	%edx, (%rax,%rcx,4)
# %bb.9:                                # %for.inc58
                                        #   in Loop: Header=BB25_7 Depth=1
	movl	-8(%rbp), %eax
	subl	$4, %eax
	movl	%eax, -8(%rbp)
	jmp	.LBB25_7
.LBB25_10:                              # %for.end60
	jmp	.LBB25_11
.LBB25_11:                              # %for.cond61
                                        # =>This Inner Loop Header: Depth=1
	cmpl	$0, -8(%rbp)
	jl	.LBB25_14
# %bb.12:                               # %for.body64
                                        #   in Loop: Header=BB25_11 Depth=1
	movq	-80(%rbp), %rax
	movslq	-8(%rbp), %rcx
	movw	$0, (%rax,%rcx,2)
	movl	-4(%rbp), %eax
	sarl	$8, %eax
	movq	-48(%rbp), %rcx
	movslq	-8(%rbp), %rdx
	movzbl	(%rcx,%rdx), %ecx
	movzwl	%cx, %ecx
	shll	$8, %ecx
	orl	%ecx, %eax
	movl	%eax, -4(%rbp)
	movq	-24(%rbp), %rax
	movslq	-4(%rbp), %rcx
	movl	(%rax,%rcx,4), %edx
	addl	$1, %edx
	movl	%edx, (%rax,%rcx,4)
# %bb.13:                               # %for.inc77
                                        #   in Loop: Header=BB25_11 Depth=1
	movl	-8(%rbp), %eax
	addl	$-1, %eax
	movl	%eax, -8(%rbp)
	jmp	.LBB25_11
.LBB25_14:                              # %for.end79
	movl	$0, -8(%rbp)
.LBB25_15:                              # %for.cond80
                                        # =>This Inner Loop Header: Depth=1
	cmpl	$34, -8(%rbp)
	jge	.LBB25_18
# %bb.16:                               # %for.body83
                                        #   in Loop: Header=BB25_15 Depth=1
	movq	-48(%rbp), %rax
	movslq	-8(%rbp), %rcx
	movb	(%rax,%rcx), %al
	movq	-48(%rbp), %rcx
	movl	-36(%rbp), %edx
	addl	-8(%rbp), %edx
	movslq	%edx, %rdx
	movb	%al, (%rcx,%rdx)
	movq	-80(%rbp), %rax
	movl	-36(%rbp), %ecx
	addl	-8(%rbp), %ecx
	movslq	%ecx, %rcx
	movw	$0, (%rax,%rcx,2)
# %bb.17:                               # %for.inc91
                                        #   in Loop: Header=BB25_15 Depth=1
	movl	-8(%rbp), %eax
	addl	$1, %eax
	movl	%eax, -8(%rbp)
	jmp	.LBB25_15
.LBB25_18:                              # %for.end93
	cmpl	$4, -88(%rbp)
	jl	.LBB25_20
# %bb.19:                               # %if.then96
	movq	stderr, %rdi
	movabsq	$.L.str.2, %rsi
	movb	$0, %al
	callq	fprintf
.LBB25_20:                              # %if.end98
	movl	$1, -8(%rbp)
.LBB25_21:                              # %for.cond99
                                        # =>This Inner Loop Header: Depth=1
	cmpl	$65536, -8(%rbp)        # imm = 0x10000
	jg	.LBB25_24
# %bb.22:                               # %for.body102
                                        #   in Loop: Header=BB25_21 Depth=1
	movq	-24(%rbp), %rax
	movl	-8(%rbp), %ecx
	subl	$1, %ecx
	movslq	%ecx, %rcx
	movl	(%rax,%rcx,4), %eax
	movq	-24(%rbp), %rcx
	movslq	-8(%rbp), %rdx
	addl	(%rcx,%rdx,4), %eax
	movl	%eax, (%rcx,%rdx,4)
# %bb.23:                               # %for.inc109
                                        #   in Loop: Header=BB25_21 Depth=1
	movl	-8(%rbp), %eax
	addl	$1, %eax
	movl	%eax, -8(%rbp)
	jmp	.LBB25_21
.LBB25_24:                              # %for.end111
	movq	-48(%rbp), %rax
	movzbl	(%rax), %eax
	shll	$8, %eax
	movw	%ax, -10(%rbp)
	movl	-36(%rbp), %eax
	subl	$1, %eax
	movl	%eax, -8(%rbp)
.LBB25_25:                              # %for.cond117
                                        # =>This Inner Loop Header: Depth=1
	cmpl	$3, -8(%rbp)
	jl	.LBB25_28
# %bb.26:                               # %for.body120
                                        #   in Loop: Header=BB25_25 Depth=1
	movzwl	-10(%rbp), %eax
	sarl	$8, %eax
	movq	-48(%rbp), %rcx
	movslq	-8(%rbp), %rdx
	movzbl	(%rcx,%rdx), %ecx
	shll	$8, %ecx
	orl	%ecx, %eax
	movw	%ax, -10(%rbp)
	movq	-24(%rbp), %rax
	movzwl	-10(%rbp), %ecx
	movl	(%rax,%rcx,4), %eax
	subl	$1, %eax
	movl	%eax, -4(%rbp)
	movl	-4(%rbp), %eax
	movq	-24(%rbp), %rcx
	movzwl	-10(%rbp), %edx
	movl	%eax, (%rcx,%rdx,4)
	movl	-8(%rbp), %eax
	movq	-56(%rbp), %rcx
	movslq	-4(%rbp), %rdx
	movl	%eax, (%rcx,%rdx,4)
	movzwl	-10(%rbp), %eax
	sarl	$8, %eax
	movq	-48(%rbp), %rcx
	movl	-8(%rbp), %edx
	subl	$1, %edx
	movslq	%edx, %rdx
	movzbl	(%rcx,%rdx), %ecx
	shll	$8, %ecx
	orl	%ecx, %eax
	movw	%ax, -10(%rbp)
	movq	-24(%rbp), %rax
	movzwl	-10(%rbp), %ecx
	movl	(%rax,%rcx,4), %eax
	subl	$1, %eax
	movl	%eax, -4(%rbp)
	movl	-4(%rbp), %eax
	movq	-24(%rbp), %rcx
	movzwl	-10(%rbp), %edx
	movl	%eax, (%rcx,%rdx,4)
	movl	-8(%rbp), %eax
	subl	$1, %eax
	movq	-56(%rbp), %rcx
	movslq	-4(%rbp), %rdx
	movl	%eax, (%rcx,%rdx,4)
	movzwl	-10(%rbp), %eax
	sarl	$8, %eax
	movq	-48(%rbp), %rcx
	movl	-8(%rbp), %edx
	subl	$2, %edx
	movslq	%edx, %rdx
	movzbl	(%rcx,%rdx), %ecx
	shll	$8, %ecx
	orl	%ecx, %eax
	movw	%ax, -10(%rbp)
	movq	-24(%rbp), %rax
	movzwl	-10(%rbp), %ecx
	movl	(%rax,%rcx,4), %eax
	subl	$1, %eax
	movl	%eax, -4(%rbp)
	movl	-4(%rbp), %eax
	movq	-24(%rbp), %rcx
	movzwl	-10(%rbp), %edx
	movl	%eax, (%rcx,%rdx,4)
	movl	-8(%rbp), %eax
	subl	$2, %eax
	movq	-56(%rbp), %rcx
	movslq	-4(%rbp), %rdx
	movl	%eax, (%rcx,%rdx,4)
	movzwl	-10(%rbp), %eax
	sarl	$8, %eax
	movq	-48(%rbp), %rcx
	movl	-8(%rbp), %edx
	subl	$3, %edx
	movslq	%edx, %rdx
	movzbl	(%rcx,%rdx), %ecx
	shll	$8, %ecx
	orl	%ecx, %eax
	movw	%ax, -10(%rbp)
	movq	-24(%rbp), %rax
	movzwl	-10(%rbp), %ecx
	movl	(%rax,%rcx,4), %eax
	subl	$1, %eax
	movl	%eax, -4(%rbp)
	movl	-4(%rbp), %eax
	movq	-24(%rbp), %rcx
	movzwl	-10(%rbp), %edx
	movl	%eax, (%rcx,%rdx,4)
	movl	-8(%rbp), %eax
	subl	$3, %eax
	movq	-56(%rbp), %rcx
	movslq	-4(%rbp), %rdx
	movl	%eax, (%rcx,%rdx,4)
# %bb.27:                               # %for.inc187
                                        #   in Loop: Header=BB25_25 Depth=1
	movl	-8(%rbp), %eax
	subl	$4, %eax
	movl	%eax, -8(%rbp)
	jmp	.LBB25_25
.LBB25_28:                              # %for.end189
	jmp	.LBB25_29
.LBB25_29:                              # %for.cond190
                                        # =>This Inner Loop Header: Depth=1
	cmpl	$0, -8(%rbp)
	jl	.LBB25_32
# %bb.30:                               # %for.body193
                                        #   in Loop: Header=BB25_29 Depth=1
	movzwl	-10(%rbp), %eax
	sarl	$8, %eax
	movq	-48(%rbp), %rcx
	movslq	-8(%rbp), %rdx
	movzbl	(%rcx,%rdx), %ecx
	shll	$8, %ecx
	orl	%ecx, %eax
	movw	%ax, -10(%rbp)
	movq	-24(%rbp), %rax
	movzwl	-10(%rbp), %ecx
	movl	(%rax,%rcx,4), %eax
	subl	$1, %eax
	movl	%eax, -4(%rbp)
	movl	-4(%rbp), %eax
	movq	-24(%rbp), %rcx
	movzwl	-10(%rbp), %edx
	movl	%eax, (%rcx,%rdx,4)
	movl	-8(%rbp), %eax
	movq	-56(%rbp), %rcx
	movslq	-4(%rbp), %rdx
	movl	%eax, (%rcx,%rdx,4)
# %bb.31:                               # %for.inc209
                                        #   in Loop: Header=BB25_29 Depth=1
	movl	-8(%rbp), %eax
	addl	$-1, %eax
	movl	%eax, -8(%rbp)
	jmp	.LBB25_29
.LBB25_32:                              # %for.end211
	movl	$0, -8(%rbp)
.LBB25_33:                              # %for.cond212
                                        # =>This Inner Loop Header: Depth=1
	cmpl	$255, -8(%rbp)
	jg	.LBB25_36
# %bb.34:                               # %for.body215
                                        #   in Loop: Header=BB25_33 Depth=1
	movslq	-8(%rbp), %rax
	movb	$0, -384(%rbp,%rax)
	movl	-8(%rbp), %eax
	movslq	-8(%rbp), %rcx
	movl	%eax, -1408(%rbp,%rcx,4)
# %bb.35:                               # %for.inc220
                                        #   in Loop: Header=BB25_33 Depth=1
	movl	-8(%rbp), %eax
	addl	$1, %eax
	movl	%eax, -8(%rbp)
	jmp	.LBB25_33
.LBB25_36:                              # %for.end222
	movl	$1, -28(%rbp)
.LBB25_37:                              # %do.body
                                        # =>This Inner Loop Header: Depth=1
	imull	$3, -28(%rbp), %eax
	addl	$1, %eax
	movl	%eax, -28(%rbp)
# %bb.38:                               # %do.cond
                                        #   in Loop: Header=BB25_37 Depth=1
	cmpl	$256, -28(%rbp)         # imm = 0x100
	jle	.LBB25_37
# %bb.39:                               # %do.end
	jmp	.LBB25_40
.LBB25_40:                              # %do.body226
                                        # =>This Loop Header: Depth=1
                                        #     Child Loop BB25_41 Depth 2
                                        #       Child Loop BB25_43 Depth 3
	movl	-28(%rbp), %eax
	cltd
	movl	$3, %ecx
	idivl	%ecx
	movl	%eax, -28(%rbp)
	movl	-28(%rbp), %eax
	movl	%eax, -8(%rbp)
.LBB25_41:                              # %for.cond227
                                        #   Parent Loop BB25_40 Depth=1
                                        # =>  This Loop Header: Depth=2
                                        #       Child Loop BB25_43 Depth 3
	cmpl	$255, -8(%rbp)
	jg	.LBB25_50
# %bb.42:                               # %for.body230
                                        #   in Loop: Header=BB25_41 Depth=2
	movslq	-8(%rbp), %rax
	movl	-1408(%rbp,%rax,4), %eax
	movl	%eax, -104(%rbp)
	movl	-8(%rbp), %eax
	movl	%eax, -4(%rbp)
.LBB25_43:                              # %while.cond
                                        #   Parent Loop BB25_40 Depth=1
                                        #     Parent Loop BB25_41 Depth=2
                                        # =>    This Inner Loop Header: Depth=3
	movq	-24(%rbp), %rax
	movl	-4(%rbp), %ecx
	subl	-28(%rbp), %ecx
	movslq	%ecx, %rcx
	movl	-1408(%rbp,%rcx,4), %ecx
	addl	$1, %ecx
	shll	$8, %ecx
	movslq	%ecx, %rcx
	movl	(%rax,%rcx,4), %eax
	movq	-24(%rbp), %rcx
	movl	-4(%rbp), %edx
	subl	-28(%rbp), %edx
	movslq	%edx, %rdx
	movl	-1408(%rbp,%rdx,4), %edx
	shll	$8, %edx
	movslq	%edx, %rdx
	subl	(%rcx,%rdx,4), %eax
	movq	-24(%rbp), %rcx
	movl	-104(%rbp), %edx
	addl	$1, %edx
	shll	$8, %edx
	movslq	%edx, %rdx
	movl	(%rcx,%rdx,4), %ecx
	movq	-24(%rbp), %rdx
	movl	-104(%rbp), %esi
	shll	$8, %esi
	movslq	%esi, %rsi
	subl	(%rdx,%rsi,4), %ecx
	cmpl	%ecx, %eax
	jbe	.LBB25_47
# %bb.44:                               # %while.body
                                        #   in Loop: Header=BB25_43 Depth=3
	movl	-4(%rbp), %eax
	subl	-28(%rbp), %eax
	cltq
	movl	-1408(%rbp,%rax,4), %eax
	movslq	-4(%rbp), %rcx
	movl	%eax, -1408(%rbp,%rcx,4)
	movl	-4(%rbp), %eax
	subl	-28(%rbp), %eax
	movl	%eax, -4(%rbp)
	movl	-4(%rbp), %eax
	movl	-28(%rbp), %ecx
	subl	$1, %ecx
	cmpl	%ecx, %eax
	jg	.LBB25_46
# %bb.45:                               # %if.then266
                                        #   in Loop: Header=BB25_41 Depth=2
	jmp	.LBB25_48
.LBB25_46:                              # %if.end267
                                        #   in Loop: Header=BB25_43 Depth=3
	jmp	.LBB25_43
.LBB25_47:                              # %while.end
                                        #   in Loop: Header=BB25_41 Depth=2
	jmp	.LBB25_48
.LBB25_48:                              # %zero
                                        #   in Loop: Header=BB25_41 Depth=2
	movl	-104(%rbp), %eax
	movslq	-4(%rbp), %rcx
	movl	%eax, -1408(%rbp,%rcx,4)
# %bb.49:                               # %for.inc270
                                        #   in Loop: Header=BB25_41 Depth=2
	movl	-8(%rbp), %eax
	addl	$1, %eax
	movl	%eax, -8(%rbp)
	jmp	.LBB25_41
.LBB25_50:                              # %for.end272
                                        #   in Loop: Header=BB25_40 Depth=1
	jmp	.LBB25_51
.LBB25_51:                              # %do.cond273
                                        #   in Loop: Header=BB25_40 Depth=1
	cmpl	$1, -28(%rbp)
	jne	.LBB25_40
# %bb.52:                               # %do.end276
	movl	$0, -64(%rbp)
	movl	$0, -8(%rbp)
.LBB25_53:                              # %for.cond277
                                        # =>This Loop Header: Depth=1
                                        #     Child Loop BB25_55 Depth 2
                                        #     Child Loop BB25_71 Depth 2
                                        #     Child Loop BB25_75 Depth 2
                                        #     Child Loop BB25_83 Depth 2
                                        #     Child Loop BB25_95 Depth 2
                                        #     Child Loop BB25_100 Depth 2
                                        #     Child Loop BB25_103 Depth 2
	cmpl	$255, -8(%rbp)
	jg	.LBB25_113
# %bb.54:                               # %for.body280
                                        #   in Loop: Header=BB25_53 Depth=1
	movslq	-8(%rbp), %rax
	movl	-1408(%rbp,%rax,4), %eax
	movl	%eax, -16(%rbp)
	movl	$0, -4(%rbp)
.LBB25_55:                              # %for.cond283
                                        #   Parent Loop BB25_53 Depth=1
                                        # =>  This Inner Loop Header: Depth=2
	cmpl	$255, -4(%rbp)
	jg	.LBB25_68
# %bb.56:                               # %for.body286
                                        #   in Loop: Header=BB25_55 Depth=2
	movl	-4(%rbp), %eax
	cmpl	-16(%rbp), %eax
	je	.LBB25_66
# %bb.57:                               # %if.then289
                                        #   in Loop: Header=BB25_55 Depth=2
	movl	-16(%rbp), %eax
	shll	$8, %eax
	addl	-4(%rbp), %eax
	movl	%eax, -84(%rbp)
	movq	-24(%rbp), %rax
	movslq	-84(%rbp), %rcx
	movl	(%rax,%rcx,4), %eax
	andl	$2097152, %eax          # imm = 0x200000
	cmpl	$0, %eax
	jne	.LBB25_65
# %bb.58:                               # %if.then294
                                        #   in Loop: Header=BB25_55 Depth=2
	movq	-24(%rbp), %rax
	movslq	-84(%rbp), %rcx
	movl	(%rax,%rcx,4), %eax
	andl	$-2097153, %eax         # imm = 0xFFDFFFFF
	movl	%eax, -96(%rbp)
	movq	-24(%rbp), %rax
	movl	-84(%rbp), %ecx
	addl	$1, %ecx
	movslq	%ecx, %rcx
	movl	(%rax,%rcx,4), %eax
	andl	$-2097153, %eax         # imm = 0xFFDFFFFF
	subl	$1, %eax
	movl	%eax, -92(%rbp)
	movl	-92(%rbp), %eax
	cmpl	-96(%rbp), %eax
	jle	.LBB25_64
# %bb.59:                               # %if.then305
                                        #   in Loop: Header=BB25_55 Depth=2
	cmpl	$4, -88(%rbp)
	jl	.LBB25_61
# %bb.60:                               # %if.then308
                                        #   in Loop: Header=BB25_55 Depth=2
	movq	stderr, %rdi
	movl	-16(%rbp), %edx
	movl	-4(%rbp), %ecx
	movl	-64(%rbp), %r8d
	movl	-92(%rbp), %r9d
	subl	-96(%rbp), %r9d
	addl	$1, %r9d
	movabsq	$.L.str.7, %rsi
	movb	$0, %al
	callq	fprintf
.LBB25_61:                              # %if.end312
                                        #   in Loop: Header=BB25_55 Depth=2
	movq	-56(%rbp), %rdi
	movq	-48(%rbp), %rsi
	movq	-80(%rbp), %rdx
	movl	-36(%rbp), %ecx
	movl	-96(%rbp), %r8d
	movl	-92(%rbp), %r9d
	movq	16(%rbp), %rax
	movl	$2, (%rsp)
	movq	%rax, 8(%rsp)
	callq	mainQSort3
	movl	-92(%rbp), %eax
	subl	-96(%rbp), %eax
	addl	$1, %eax
	addl	-64(%rbp), %eax
	movl	%eax, -64(%rbp)
	movq	16(%rbp), %rax
	cmpl	$0, (%rax)
	jge	.LBB25_63
# %bb.62:                               # %if.then318
	jmp	.LBB25_115
.LBB25_63:                              # %if.end319
                                        #   in Loop: Header=BB25_55 Depth=2
	jmp	.LBB25_64
.LBB25_64:                              # %if.end320
                                        #   in Loop: Header=BB25_55 Depth=2
	jmp	.LBB25_65
.LBB25_65:                              # %if.end321
                                        #   in Loop: Header=BB25_55 Depth=2
	movq	-24(%rbp), %rax
	movslq	-84(%rbp), %rcx
	movl	(%rax,%rcx,4), %edx
	orl	$2097152, %edx          # imm = 0x200000
	movl	%edx, (%rax,%rcx,4)
.LBB25_66:                              # %if.end325
                                        #   in Loop: Header=BB25_55 Depth=2
	jmp	.LBB25_67
.LBB25_67:                              # %for.inc326
                                        #   in Loop: Header=BB25_55 Depth=2
	movl	-4(%rbp), %eax
	addl	$1, %eax
	movl	%eax, -4(%rbp)
	jmp	.LBB25_55
.LBB25_68:                              # %for.end328
                                        #   in Loop: Header=BB25_53 Depth=1
	movslq	-16(%rbp), %rax
	cmpb	$0, -384(%rbp,%rax)
	je	.LBB25_70
# %bb.69:                               # %if.then332
                                        #   in Loop: Header=BB25_53 Depth=1
	movl	$1006, %edi             # imm = 0x3EE
	callq	BZ2_bz__AssertH__fail
.LBB25_70:                              # %if.end333
                                        #   in Loop: Header=BB25_53 Depth=1
	movl	$0, -4(%rbp)
.LBB25_71:                              # %for.cond334
                                        #   Parent Loop BB25_53 Depth=1
                                        # =>  This Inner Loop Header: Depth=2
	cmpl	$255, -4(%rbp)
	jg	.LBB25_74
# %bb.72:                               # %for.body337
                                        #   in Loop: Header=BB25_71 Depth=2
	movq	-24(%rbp), %rax
	movl	-4(%rbp), %ecx
	shll	$8, %ecx
	addl	-16(%rbp), %ecx
	movslq	%ecx, %rcx
	movl	(%rax,%rcx,4), %eax
	andl	$-2097153, %eax         # imm = 0xFFDFFFFF
	movslq	-4(%rbp), %rcx
	movl	%eax, -2432(%rbp,%rcx,4)
	movq	-24(%rbp), %rax
	movl	-4(%rbp), %ecx
	shll	$8, %ecx
	addl	-16(%rbp), %ecx
	addl	$1, %ecx
	movslq	%ecx, %rcx
	movl	(%rax,%rcx,4), %eax
	andl	$-2097153, %eax         # imm = 0xFFDFFFFF
	subl	$1, %eax
	movslq	-4(%rbp), %rcx
	movl	%eax, -3456(%rbp,%rcx,4)
# %bb.73:                               # %for.inc354
                                        #   in Loop: Header=BB25_71 Depth=2
	movl	-4(%rbp), %eax
	addl	$1, %eax
	movl	%eax, -4(%rbp)
	jmp	.LBB25_71
.LBB25_74:                              # %for.end356
                                        #   in Loop: Header=BB25_53 Depth=1
	movq	-24(%rbp), %rax
	movl	-16(%rbp), %ecx
	shll	$8, %ecx
	movslq	%ecx, %rcx
	movl	(%rax,%rcx,4), %eax
	andl	$-2097153, %eax         # imm = 0xFFDFFFFF
	movl	%eax, -4(%rbp)
.LBB25_75:                              # %for.cond361
                                        #   Parent Loop BB25_53 Depth=1
                                        # =>  This Inner Loop Header: Depth=2
	movl	-4(%rbp), %eax
	movslq	-16(%rbp), %rcx
	cmpl	-2432(%rbp,%rcx,4), %eax
	jge	.LBB25_82
# %bb.76:                               # %for.body366
                                        #   in Loop: Header=BB25_75 Depth=2
	movq	-56(%rbp), %rax
	movslq	-4(%rbp), %rcx
	movl	(%rax,%rcx,4), %eax
	subl	$1, %eax
	movl	%eax, -32(%rbp)
	cmpl	$0, -32(%rbp)
	jge	.LBB25_78
# %bb.77:                               # %if.then372
                                        #   in Loop: Header=BB25_75 Depth=2
	movl	-36(%rbp), %eax
	addl	-32(%rbp), %eax
	movl	%eax, -32(%rbp)
.LBB25_78:                              # %if.end374
                                        #   in Loop: Header=BB25_75 Depth=2
	movq	-48(%rbp), %rax
	movslq	-32(%rbp), %rcx
	movb	(%rax,%rcx), %al
	movb	%al, -11(%rbp)
	movzbl	-11(%rbp), %eax
	cmpb	$0, -384(%rbp,%rax)
	jne	.LBB25_80
# %bb.79:                               # %if.then380
                                        #   in Loop: Header=BB25_75 Depth=2
	movl	-32(%rbp), %eax
	movq	-56(%rbp), %rcx
	movzbl	-11(%rbp), %edx
	movl	-2432(%rbp,%rdx,4), %esi
	movl	%esi, %edi
	addl	$1, %edi
	movl	%edi, -2432(%rbp,%rdx,4)
	movslq	%esi, %rdx
	movl	%eax, (%rcx,%rdx,4)
.LBB25_80:                              # %if.end386
                                        #   in Loop: Header=BB25_75 Depth=2
	jmp	.LBB25_81
.LBB25_81:                              # %for.inc387
                                        #   in Loop: Header=BB25_75 Depth=2
	movl	-4(%rbp), %eax
	addl	$1, %eax
	movl	%eax, -4(%rbp)
	jmp	.LBB25_75
.LBB25_82:                              # %for.end389
                                        #   in Loop: Header=BB25_53 Depth=1
	movq	-24(%rbp), %rax
	movl	-16(%rbp), %ecx
	addl	$1, %ecx
	shll	$8, %ecx
	movslq	%ecx, %rcx
	movl	(%rax,%rcx,4), %eax
	andl	$-2097153, %eax         # imm = 0xFFDFFFFF
	subl	$1, %eax
	movl	%eax, -4(%rbp)
.LBB25_83:                              # %for.cond396
                                        #   Parent Loop BB25_53 Depth=1
                                        # =>  This Inner Loop Header: Depth=2
	movl	-4(%rbp), %eax
	movslq	-16(%rbp), %rcx
	cmpl	-3456(%rbp,%rcx,4), %eax
	jle	.LBB25_90
# %bb.84:                               # %for.body401
                                        #   in Loop: Header=BB25_83 Depth=2
	movq	-56(%rbp), %rax
	movslq	-4(%rbp), %rcx
	movl	(%rax,%rcx,4), %eax
	subl	$1, %eax
	movl	%eax, -32(%rbp)
	cmpl	$0, -32(%rbp)
	jge	.LBB25_86
# %bb.85:                               # %if.then407
                                        #   in Loop: Header=BB25_83 Depth=2
	movl	-36(%rbp), %eax
	addl	-32(%rbp), %eax
	movl	%eax, -32(%rbp)
.LBB25_86:                              # %if.end409
                                        #   in Loop: Header=BB25_83 Depth=2
	movq	-48(%rbp), %rax
	movslq	-32(%rbp), %rcx
	movb	(%rax,%rcx), %al
	movb	%al, -11(%rbp)
	movzbl	-11(%rbp), %eax
	cmpb	$0, -384(%rbp,%rax)
	jne	.LBB25_88
# %bb.87:                               # %if.then415
                                        #   in Loop: Header=BB25_83 Depth=2
	movl	-32(%rbp), %eax
	movq	-56(%rbp), %rcx
	movzbl	-11(%rbp), %edx
	movl	-3456(%rbp,%rdx,4), %esi
	movl	%esi, %edi
	addl	$-1, %edi
	movl	%edi, -3456(%rbp,%rdx,4)
	movslq	%esi, %rdx
	movl	%eax, (%rcx,%rdx,4)
.LBB25_88:                              # %if.end421
                                        #   in Loop: Header=BB25_83 Depth=2
	jmp	.LBB25_89
.LBB25_89:                              # %for.inc422
                                        #   in Loop: Header=BB25_83 Depth=2
	movl	-4(%rbp), %eax
	addl	$-1, %eax
	movl	%eax, -4(%rbp)
	jmp	.LBB25_83
.LBB25_90:                              # %for.end424
                                        #   in Loop: Header=BB25_53 Depth=1
	movslq	-16(%rbp), %rax
	movl	-2432(%rbp,%rax,4), %eax
	subl	$1, %eax
	movslq	-16(%rbp), %rcx
	cmpl	-3456(%rbp,%rcx,4), %eax
	je	.LBB25_94
# %bb.91:                               # %lor.lhs.false
                                        #   in Loop: Header=BB25_53 Depth=1
	movslq	-16(%rbp), %rax
	cmpl	$0, -2432(%rbp,%rax,4)
	jne	.LBB25_93
