	.text
	.file	"blocksort.c"
	.globl	BZ2_blockSort           # -- Begin function BZ2_blockSort
	.p2align	4, 0x90
	.type	BZ2_blockSort,@function
BZ2_blockSort:                          # @BZ2_blockSort
	.cfi_startproc
# %bb.0:                                # %rand_bb
	pushq	%rbp
	.cfi_def_cfa_offset 16
	.cfi_offset %rbp, -16
	movq	%rsp, %rbp
	.cfi_def_cfa_register %rbp
	pushq	%rbx
	pushq	%rax
	.cfi_offset %rbx, -24
	movq	%rdi, %rbx
	callq	get_urand
	cmpl	$0, %eax
	jne	.LBB0_17
# %bb.1:                                # %func_BZ2_blockSort.2
	movq	%rbx, %rdi
	callq	BZ2_blockSort.2
	addq	$8, %rsp
	popq	%rbx
	popq	%rbp
	.cfi_def_cfa %rsp, 8
	retq
.LBB0_2:                                # %func_BZ2_blockSort.3
	.cfi_def_cfa %rbp, 16
	movq	%rbx, %rdi
	callq	BZ2_blockSort.3
	addq	$8, %rsp
	popq	%rbx
	popq	%rbp
	.cfi_def_cfa %rsp, 8
	retq
.LBB0_3:                                # %func_BZ2_blockSort.6
	.cfi_def_cfa %rbp, 16
	movq	%rbx, %rdi
	callq	BZ2_blockSort.6
	addq	$8, %rsp
	popq	%rbx
	popq	%rbp
	.cfi_def_cfa %rsp, 8
	retq
.LBB0_4:                                # %func_BZ2_blockSort.42
	.cfi_def_cfa %rbp, 16
	movq	%rbx, %rdi
	callq	BZ2_blockSort.42
	addq	$8, %rsp
	popq	%rbx
	popq	%rbp
	.cfi_def_cfa %rsp, 8
	retq
.LBB0_5:                                # %func_BZ2_blockSort.48
	.cfi_def_cfa %rbp, 16
	movq	%rbx, %rdi
	callq	BZ2_blockSort.48
	addq	$8, %rsp
	popq	%rbx
	popq	%rbp
	.cfi_def_cfa %rsp, 8
	retq
.LBB0_6:                                # %func_BZ2_blockSort.66
	.cfi_def_cfa %rbp, 16
	movq	%rbx, %rdi
	callq	BZ2_blockSort.66
	addq	$8, %rsp
	popq	%rbx
	popq	%rbp
	.cfi_def_cfa %rsp, 8
	retq
.LBB0_7:                                # %func_BZ2_blockSort.75
	.cfi_def_cfa %rbp, 16
	movq	%rbx, %rdi
	callq	BZ2_blockSort.75
	addq	$8, %rsp
	popq	%rbx
	popq	%rbp
	.cfi_def_cfa %rsp, 8
	retq
.LBB0_8:                                # %func_BZ2_blockSort.92
	.cfi_def_cfa %rbp, 16
	movq	%rbx, %rdi
	callq	BZ2_blockSort.92
	addq	$8, %rsp
	popq	%rbx
	popq	%rbp
	.cfi_def_cfa %rsp, 8
	retq
.LBB0_9:                                # %func_BZ2_blockSort.96
	.cfi_def_cfa %rbp, 16
	movq	%rbx, %rdi
	callq	BZ2_blockSort.96
	addq	$8, %rsp
	popq	%rbx
	popq	%rbp
	.cfi_def_cfa %rsp, 8
	retq
.LBB0_10:                               # %func_BZ2_blockSort.97
	.cfi_def_cfa %rbp, 16
	movq	%rbx, %rdi
	callq	BZ2_blockSort.97
	addq	$8, %rsp
	popq	%rbx
	popq	%rbp
	.cfi_def_cfa %rsp, 8
	retq
.LBB0_11:                               # %func_BZ2_blockSort.109
	.cfi_def_cfa %rbp, 16
	movq	%rbx, %rdi
	callq	BZ2_blockSort.109
	addq	$8, %rsp
	popq	%rbx
	popq	%rbp
	.cfi_def_cfa %rsp, 8
	retq
.LBB0_12:                               # %func_BZ2_blockSort.113
	.cfi_def_cfa %rbp, 16
	movq	%rbx, %rdi
	callq	BZ2_blockSort.113
	addq	$8, %rsp
	popq	%rbx
	popq	%rbp
	.cfi_def_cfa %rsp, 8
	retq
.LBB0_13:                               # %func_BZ2_blockSort.114
	.cfi_def_cfa %rbp, 16
	movq	%rbx, %rdi
	callq	BZ2_blockSort.114
	addq	$8, %rsp
	popq	%rbx
	popq	%rbp
	.cfi_def_cfa %rsp, 8
	retq
.LBB0_14:                               # %func_BZ2_blockSort.136
	.cfi_def_cfa %rbp, 16
	movq	%rbx, %rdi
	callq	BZ2_blockSort.136
	addq	$8, %rsp
	popq	%rbx
	popq	%rbp
	.cfi_def_cfa %rsp, 8
	retq
.LBB0_15:                               # %func_BZ2_blockSort.137
	.cfi_def_cfa %rbp, 16
	movq	%rbx, %rdi
	callq	BZ2_blockSort.137
	addq	$8, %rsp
	popq	%rbx
	popq	%rbp
	.cfi_def_cfa %rsp, 8
	retq
.LBB0_16:                               # %func_BZ2_blockSort.144
	.cfi_def_cfa %rbp, 16
	movq	%rbx, %rdi
	callq	BZ2_blockSort.144
	addq	$8, %rsp
	popq	%rbx
	popq	%rbp
	.cfi_def_cfa %rsp, 8
	retq
.LBB0_17:                               # %ctrl0
	.cfi_def_cfa %rbp, 16
	cmpl	$1, %eax
	je	.LBB0_2
# %bb.18:                               # %ctrl1
	cmpl	$2, %eax
	je	.LBB0_3
# %bb.19:                               # %ctrl2
	cmpl	$3, %eax
	je	.LBB0_4
# %bb.20:                               # %ctrl3
	cmpl	$4, %eax
	je	.LBB0_5
# %bb.21:                               # %ctrl4
	cmpl	$5, %eax
	je	.LBB0_6
# %bb.22:                               # %ctrl5
	cmpl	$6, %eax
	je	.LBB0_7
# %bb.23:                               # %ctrl6
	cmpl	$7, %eax
	je	.LBB0_8
# %bb.24:                               # %ctrl7
	cmpl	$8, %eax
	je	.LBB0_9
# %bb.25:                               # %ctrl8
	cmpl	$9, %eax
	je	.LBB0_10
# %bb.26:                               # %ctrl9
	cmpl	$10, %eax
	je	.LBB0_11
# %bb.27:                               # %ctrl10
	cmpl	$11, %eax
	je	.LBB0_12
# %bb.28:                               # %ctrl11
	cmpl	$12, %eax
	je	.LBB0_13
# %bb.29:                               # %ctrl12
	cmpl	$13, %eax
	je	.LBB0_14
# %bb.30:                               # %ctrl13
	cmpl	$14, %eax
	je	.LBB0_15
	jmp	.LBB0_16
.Lfunc_end0:
	.size	BZ2_blockSort, .Lfunc_end0-BZ2_blockSort
	.cfi_endproc
                                        # -- End function
	.p2align	4, 0x90         # -- Begin function fallbackSort
	.type	fallbackSort,@function
fallbackSort:                           # @fallbackSort
	.cfi_startproc
# %bb.0:                                # %rand_bb
	pushq	%rbp
	.cfi_def_cfa_offset 16
	.cfi_offset %rbp, -16
	movq	%rsp, %rbp
	.cfi_def_cfa_register %rbp
	pushq	%r15
	pushq	%r14
	pushq	%r13
	pushq	%r12
	pushq	%rbx
	pushq	%rax
	.cfi_offset %rbx, -56
	.cfi_offset %r12, -48
	.cfi_offset %r13, -40
	.cfi_offset %r14, -32
	.cfi_offset %r15, -24
	movl	%r8d, %r14d
	movl	%ecx, %r15d
	movq	%rdx, %r12
	movq	%rsi, %r13
	movq	%rdi, %rbx
	callq	get_urand
	cmpl	$0, %eax
	jne	.LBB1_17
# %bb.1:                                # %func_fallbackSort.1
	movq	%rbx, %rdi
	movq	%r13, %rsi
	movq	%r12, %rdx
	movl	%r15d, %ecx
	movl	%r14d, %r8d
	callq	fallbackSort.1
	addq	$8, %rsp
	popq	%rbx
	popq	%r12
	popq	%r13
	popq	%r14
	popq	%r15
	popq	%rbp
	.cfi_def_cfa %rsp, 8
	retq
.LBB1_2:                                # %func_fallbackSort.10
	.cfi_def_cfa %rbp, 16
	movq	%rbx, %rdi
	movq	%r13, %rsi
	movq	%r12, %rdx
	movl	%r15d, %ecx
	movl	%r14d, %r8d
	callq	fallbackSort.10
	addq	$8, %rsp
	popq	%rbx
	popq	%r12
	popq	%r13
	popq	%r14
	popq	%r15
	popq	%rbp
	.cfi_def_cfa %rsp, 8
	retq
.LBB1_3:                                # %func_fallbackSort.15
	.cfi_def_cfa %rbp, 16
	movq	%rbx, %rdi
	movq	%r13, %rsi
	movq	%r12, %rdx
	movl	%r15d, %ecx
	movl	%r14d, %r8d
	callq	fallbackSort.15
	addq	$8, %rsp
	popq	%rbx
	popq	%r12
	popq	%r13
	popq	%r14
	popq	%r15
	popq	%rbp
	.cfi_def_cfa %rsp, 8
	retq
.LBB1_4:                                # %func_fallbackSort.19
	.cfi_def_cfa %rbp, 16
	movq	%rbx, %rdi
	movq	%r13, %rsi
	movq	%r12, %rdx
	movl	%r15d, %ecx
	movl	%r14d, %r8d
	callq	fallbackSort.19
	addq	$8, %rsp
	popq	%rbx
	popq	%r12
	popq	%r13
	popq	%r14
	popq	%r15
	popq	%rbp
	.cfi_def_cfa %rsp, 8
	retq
.LBB1_5:                                # %func_fallbackSort.21
	.cfi_def_cfa %rbp, 16
	movq	%rbx, %rdi
	movq	%r13, %rsi
	movq	%r12, %rdx
	movl	%r15d, %ecx
	movl	%r14d, %r8d
	callq	fallbackSort.21
	addq	$8, %rsp
	popq	%rbx
	popq	%r12
	popq	%r13
	popq	%r14
	popq	%r15
	popq	%rbp
	.cfi_def_cfa %rsp, 8
	retq
.LBB1_6:                                # %func_fallbackSort.22
	.cfi_def_cfa %rbp, 16
	movq	%rbx, %rdi
	movq	%r13, %rsi
	movq	%r12, %rdx
	movl	%r15d, %ecx
	movl	%r14d, %r8d
	callq	fallbackSort.22
	addq	$8, %rsp
	popq	%rbx
	popq	%r12
	popq	%r13
	popq	%r14
	popq	%r15
	popq	%rbp
	.cfi_def_cfa %rsp, 8
	retq
.LBB1_7:                                # %func_fallbackSort.40
	.cfi_def_cfa %rbp, 16
	movq	%rbx, %rdi
	movq	%r13, %rsi
	movq	%r12, %rdx
	movl	%r15d, %ecx
	movl	%r14d, %r8d
	callq	fallbackSort.40
	addq	$8, %rsp
	popq	%rbx
	popq	%r12
	popq	%r13
	popq	%r14
	popq	%r15
	popq	%rbp
	.cfi_def_cfa %rsp, 8
	retq
.LBB1_8:                                # %func_fallbackSort.56
	.cfi_def_cfa %rbp, 16
	movq	%rbx, %rdi
	movq	%r13, %rsi
	movq	%r12, %rdx
	movl	%r15d, %ecx
	movl	%r14d, %r8d
	callq	fallbackSort.56
	addq	$8, %rsp
	popq	%rbx
	popq	%r12
	popq	%r13
	popq	%r14
	popq	%r15
	popq	%rbp
	.cfi_def_cfa %rsp, 8
	retq
.LBB1_9:                                # %func_fallbackSort.63
	.cfi_def_cfa %rbp, 16
	movq	%rbx, %rdi
	movq	%r13, %rsi
	movq	%r12, %rdx
	movl	%r15d, %ecx
	movl	%r14d, %r8d
	callq	fallbackSort.63
	addq	$8, %rsp
	popq	%rbx
	popq	%r12
	popq	%r13
	popq	%r14
	popq	%r15
	popq	%rbp
	.cfi_def_cfa %rsp, 8
	retq
.LBB1_10:                               # %func_fallbackSort.67
	.cfi_def_cfa %rbp, 16
	movq	%rbx, %rdi
	movq	%r13, %rsi
	movq	%r12, %rdx
	movl	%r15d, %ecx
	movl	%r14d, %r8d
	callq	fallbackSort.67
	addq	$8, %rsp
	popq	%rbx
	popq	%r12
	popq	%r13
	popq	%r14
	popq	%r15
	popq	%rbp
	.cfi_def_cfa %rsp, 8
	retq
.LBB1_11:                               # %func_fallbackSort.68
	.cfi_def_cfa %rbp, 16
	movq	%rbx, %rdi
	movq	%r13, %rsi
	movq	%r12, %rdx
	movl	%r15d, %ecx
	movl	%r14d, %r8d
	callq	fallbackSort.68
	addq	$8, %rsp
	popq	%rbx
	popq	%r12
	popq	%r13
	popq	%r14
	popq	%r15
	popq	%rbp
	.cfi_def_cfa %rsp, 8
	retq
.LBB1_12:                               # %func_fallbackSort.76
	.cfi_def_cfa %rbp, 16
	movq	%rbx, %rdi
	movq	%r13, %rsi
	movq	%r12, %rdx
	movl	%r15d, %ecx
	movl	%r14d, %r8d
	callq	fallbackSort.76
	addq	$8, %rsp
	popq	%rbx
	popq	%r12
	popq	%r13
	popq	%r14
	popq	%r15
	popq	%rbp
	.cfi_def_cfa %rsp, 8
	retq
.LBB1_13:                               # %func_fallbackSort.79
	.cfi_def_cfa %rbp, 16
	movq	%rbx, %rdi
	movq	%r13, %rsi
	movq	%r12, %rdx
	movl	%r15d, %ecx
	movl	%r14d, %r8d
	callq	fallbackSort.79
	addq	$8, %rsp
	popq	%rbx
	popq	%r12
	popq	%r13
	popq	%r14
	popq	%r15
	popq	%rbp
	.cfi_def_cfa %rsp, 8
	retq
.LBB1_14:                               # %func_fallbackSort.85
	.cfi_def_cfa %rbp, 16
	movq	%rbx, %rdi
	movq	%r13, %rsi
	movq	%r12, %rdx
	movl	%r15d, %ecx
	movl	%r14d, %r8d
	callq	fallbackSort.85
	addq	$8, %rsp
	popq	%rbx
	popq	%r12
	popq	%r13
	popq	%r14
	popq	%r15
	popq	%rbp
	.cfi_def_cfa %rsp, 8
	retq
.LBB1_15:                               # %func_fallbackSort.90
	.cfi_def_cfa %rbp, 16
	movq	%rbx, %rdi
	movq	%r13, %rsi
	movq	%r12, %rdx
	movl	%r15d, %ecx
	movl	%r14d, %r8d
	callq	fallbackSort.90
	addq	$8, %rsp
	popq	%rbx
	popq	%r12
	popq	%r13
	popq	%r14
	popq	%r15
	popq	%rbp
	.cfi_def_cfa %rsp, 8
	retq
.LBB1_16:                               # %func_fallbackSort.91
	.cfi_def_cfa %rbp, 16
	movq	%rbx, %rdi
	movq	%r13, %rsi
	movq	%r12, %rdx
	movl	%r15d, %ecx
	movl	%r14d, %r8d
	callq	fallbackSort.91
	addq	$8, %rsp
	popq	%rbx
	popq	%r12
	popq	%r13
	popq	%r14
	popq	%r15
	popq	%rbp
	.cfi_def_cfa %rsp, 8
	retq
.LBB1_17:                               # %ctrl0
	.cfi_def_cfa %rbp, 16
	cmpl	$1, %eax
	je	.LBB1_2
# %bb.18:                               # %ctrl1
	cmpl	$2, %eax
	je	.LBB1_3
# %bb.19:                               # %ctrl2
	cmpl	$3, %eax
	je	.LBB1_4
# %bb.20:                               # %ctrl3
	cmpl	$4, %eax
	je	.LBB1_5
# %bb.21:                               # %ctrl4
	cmpl	$5, %eax
	je	.LBB1_6
# %bb.22:                               # %ctrl5
	cmpl	$6, %eax
	je	.LBB1_7
# %bb.23:                               # %ctrl6
	cmpl	$7, %eax
	je	.LBB1_8
# %bb.24:                               # %ctrl7
	cmpl	$8, %eax
	je	.LBB1_9
# %bb.25:                               # %ctrl8
	cmpl	$9, %eax
	je	.LBB1_10
# %bb.26:                               # %ctrl9
	cmpl	$10, %eax
	je	.LBB1_11
# %bb.27:                               # %ctrl10
	cmpl	$11, %eax
	je	.LBB1_12
# %bb.28:                               # %ctrl11
	cmpl	$12, %eax
	je	.LBB1_13
# %bb.29:                               # %ctrl12
	cmpl	$13, %eax
	je	.LBB1_14
# %bb.30:                               # %ctrl13
	cmpl	$14, %eax
	je	.LBB1_15
	jmp	.LBB1_16
.Lfunc_end1:
	.size	fallbackSort, .Lfunc_end1-fallbackSort
	.cfi_endproc
                                        # -- End function
	.p2align	4, 0x90         # -- Begin function mainSort
	.type	mainSort,@function
mainSort:                               # @mainSort
	.cfi_startproc
# %bb.0:                                # %rand_bb
	pushq	%rbp
	.cfi_def_cfa_offset 16
	.cfi_offset %rbp, -16
	movq	%rsp, %rbp
	.cfi_def_cfa_register %rbp
	pushq	%r15
	pushq	%r14
	pushq	%r13
	pushq	%r12
	pushq	%rbx
	subq	$24, %rsp
	.cfi_offset %rbx, -56
	.cfi_offset %r12, -48
	.cfi_offset %r13, -40
	.cfi_offset %r14, -32
	.cfi_offset %r15, -24
	movl	%r9d, -44(%rbp)         # 4-byte Spill
	movl	%r8d, %r13d
	movq	%rcx, %rbx
	movq	%rdx, %r14
	movq	%rsi, %r15
	movq	%rdi, %r12
	callq	get_urand
	cmpl	$0, %eax
	jne	.LBB2_17
# %bb.1:                                # %func_mainSort.5
	movq	%r12, %rdi
	movq	%r15, %rsi
	movq	%r14, %rdx
	movq	%rbx, %rcx
	movl	%r13d, %r8d
	movl	-44(%rbp), %r9d         # 4-byte Reload
	movq	16(%rbp), %rax
	movq	%rax, (%rsp)
	callq	mainSort.5
	addq	$24, %rsp
	popq	%rbx
	popq	%r12
	popq	%r13
	popq	%r14
	popq	%r15
	popq	%rbp
	.cfi_def_cfa %rsp, 8
	retq
.LBB2_2:                                # %func_mainSort.7
	.cfi_def_cfa %rbp, 16
	movq	%r15, %rsi
	movl	%r12d, %r9d
	movq	16(%rbp), %rax
	movq	%rax, (%rsp)
	callq	mainSort.7
	addq	$24, %rsp
	popq	%rbx
	popq	%r12
	popq	%r13
	popq	%r14
	popq	%r15
	popq	%rbp
	.cfi_def_cfa %rsp, 8
	retq
.LBB2_3:                                # %func_mainSort.24
	.cfi_def_cfa %rbp, 16
	movq	%r10, %rdi
	movq	%rbx, %rdx
	movq	%r14, %rcx
	movl	%r13d, %r8d
	movq	%r11, (%rsp)
	callq	mainSort.24
	addq	$24, %rsp
	popq	%rbx
	popq	%r12
	popq	%r13
	popq	%r14
	popq	%r15
	popq	%rbp
	.cfi_def_cfa %rsp, 8
	retq
.LBB2_4:                                # %func_mainSort.58
	.cfi_def_cfa %rbp, 16
	movq	%r10, %rdi
	movq	-56(%rbp), %rsi         # 8-byte Reload
	movq	%rbx, %rdx
	movq	%r14, %rcx
	movl	%r13d, %r8d
	movl	-44(%rbp), %r9d         # 4-byte Reload
	movq	%r11, (%rsp)
	callq	mainSort.58
	addq	$24, %rsp
	popq	%rbx
	popq	%r12
	popq	%r13
	popq	%r14
	popq	%r15
	popq	%rbp
	.cfi_def_cfa %rsp, 8
	retq
.LBB2_5:                                # %func_mainSort.64
	.cfi_def_cfa %rbp, 16
	movq	%r10, %rdi
	movq	-56(%rbp), %rsi         # 8-byte Reload
	movq	%rbx, %rdx
	movq	%r14, %rcx
	movl	%r9d, %r8d
	movl	-44(%rbp), %r9d         # 4-byte Reload
	movq	%r11, (%rsp)
	callq	mainSort.64
	addq	$24, %rsp
	popq	%rbx
	popq	%r12
	popq	%r13
	popq	%r14
	popq	%r15
	popq	%rbp
	.cfi_def_cfa %rsp, 8
	retq
.LBB2_6:                                # %func_mainSort.71
	.cfi_def_cfa %rbp, 16
	movq	%r10, %rdi
	movq	-56(%rbp), %rsi         # 8-byte Reload
	movq	%rbx, %rdx
	movq	%r13, %rcx
	movl	%r9d, %r8d
	movl	-44(%rbp), %r9d         # 4-byte Reload
	movq	%r11, (%rsp)
	callq	mainSort.71
	addq	$24, %rsp
	popq	%rbx
	popq	%r12
	popq	%r13
	popq	%r14
	popq	%r15
	popq	%rbp
	.cfi_def_cfa %rsp, 8
	retq
.LBB2_7:                                # %func_mainSort.77
	.cfi_def_cfa %rbp, 16
	movq	%r10, %rdi
	movq	-56(%rbp), %rsi         # 8-byte Reload
	movq	%r14, %rdx
	movq	%r13, %rcx
	movl	%r9d, %r8d
	movl	-44(%rbp), %r9d         # 4-byte Reload
	movq	%r11, (%rsp)
	callq	mainSort.77
	addq	$24, %rsp
	popq	%rbx
	popq	%r12
	popq	%r13
	popq	%r14
	popq	%r15
	popq	%rbp
	.cfi_def_cfa %rsp, 8
	retq
.LBB2_8:                                # %func_mainSort.82
	.cfi_def_cfa %rbp, 16
	movq	%r10, %rdi
	movq	%rbx, %rsi
	movq	%r14, %rdx
	movq	%r13, %rcx
	movl	%r9d, %r8d
	movl	-44(%rbp), %r9d         # 4-byte Reload
	movq	%r11, (%rsp)
	callq	mainSort.82
	addq	$24, %rsp
	popq	%rbx
	popq	%r12
	popq	%r13
	popq	%r14
	popq	%r15
	popq	%rbp
	.cfi_def_cfa %rsp, 8
	retq
.LBB2_9:                                # %func_mainSort.94
	.cfi_def_cfa %rbp, 16
	movq	%r10, %rdi
	movq	%rbx, %rsi
	movq	%r14, %rdx
	movq	%r13, %rcx
	movl	%r9d, %r8d
	movl	-44(%rbp), %r9d         # 4-byte Reload
	movq	%r11, (%rsp)
	callq	mainSort.94
	addq	$24, %rsp
	popq	%rbx
	popq	%r12
	popq	%r13
	popq	%r14
	popq	%r15
	popq	%rbp
	.cfi_def_cfa %rsp, 8
	retq
.LBB2_10:                               # %func_mainSort.99
	.cfi_def_cfa %rbp, 16
	movq	%r10, %rdi
	movq	%rbx, %rsi
	movq	%r14, %rdx
	movq	%r13, %rcx
	movl	%r9d, %r8d
	movl	-44(%rbp), %r9d         # 4-byte Reload
	movq	%r11, (%rsp)
	callq	mainSort.99
	addq	$24, %rsp
	popq	%rbx
	popq	%r12
	popq	%r13
	popq	%r14
	popq	%r15
	popq	%rbp
	.cfi_def_cfa %rsp, 8
	retq
.LBB2_11:                               # %func_mainSort.102
	.cfi_def_cfa %rbp, 16
	movq	%r10, %rdi
	movq	%rbx, %rsi
	movq	%r14, %rdx
	movq	%r13, %rcx
	movl	%r9d, %r8d
	movl	-44(%rbp), %r9d         # 4-byte Reload
	movq	%r11, (%rsp)
	callq	mainSort.102
	addq	$24, %rsp
	popq	%rbx
	popq	%r12
	popq	%r13
	popq	%r14
	popq	%r15
	popq	%rbp
	.cfi_def_cfa %rsp, 8
	retq
.LBB2_12:                               # %func_mainSort.104
	.cfi_def_cfa %rbp, 16
	movq	%r10, %rdi
	movq	%rbx, %rsi
	movq	%r14, %rdx
	movq	%r13, %rcx
	movl	%r9d, %r8d
	movl	-44(%rbp), %r9d         # 4-byte Reload
	movq	%r11, (%rsp)
	callq	mainSort.104
	addq	$24, %rsp
	popq	%rbx
	popq	%r12
	popq	%r13
	popq	%r14
	popq	%r15
	popq	%rbp
	.cfi_def_cfa %rsp, 8
	retq
.LBB2_13:                               # %func_mainSort.118
	.cfi_def_cfa %rbp, 16
	movq	%r10, %rdi
	movq	%rbx, %rsi
	movq	%r14, %rdx
	movq	%r13, %rcx
	movl	%r9d, %r8d
	movl	-44(%rbp), %r9d         # 4-byte Reload
	movq	%r11, (%rsp)
	callq	mainSort.118
	addq	$24, %rsp
	popq	%rbx
	popq	%r12
	popq	%r13
	popq	%r14
	popq	%r15
	popq	%rbp
	.cfi_def_cfa %rsp, 8
	retq
.LBB2_14:                               # %func_mainSort.132
	.cfi_def_cfa %rbp, 16
	movq	%r10, %rdi
	movq	%rbx, %rsi
	movq	%r14, %rdx
	movq	%r13, %rcx
	movl	%r9d, %r8d
	movl	-44(%rbp), %r9d         # 4-byte Reload
	movq	%r11, (%rsp)
	callq	mainSort.132
	addq	$24, %rsp
	popq	%rbx
	popq	%r12
	popq	%r13
	popq	%r14
	popq	%r15
	popq	%rbp
	.cfi_def_cfa %rsp, 8
	retq
.LBB2_15:                               # %func_mainSort.133
	.cfi_def_cfa %rbp, 16
	movq	%r15, %rsi
	movl	%r12d, %r9d
	movq	16(%rbp), %rax
	movq	%rax, (%rsp)
	callq	mainSort.133
	addq	$24, %rsp
	popq	%rbx
	popq	%r12
	popq	%r13
	popq	%r14
	popq	%r15
	popq	%rbp
	.cfi_def_cfa %rsp, 8
	retq
.LBB2_16:                               # %func_mainSort.143
	.cfi_def_cfa %rbp, 16
	movq	%r15, %rsi
	movl	%r12d, %r9d
	movq	16(%rbp), %rax
	movq	%rax, (%rsp)
	callq	mainSort.143
	addq	$24, %rsp
	popq	%rbx
	popq	%r12
	popq	%r13
	popq	%r14
	popq	%r15
	popq	%rbp
	.cfi_def_cfa %rsp, 8
	retq
.LBB2_17:                               # %ctrl0
	.cfi_def_cfa %rbp, 16
	movq	%r12, %rdi
	movq	%r14, %rdx
	movq	%rbx, %rcx
	movl	%r13d, %r8d
	movl	-44(%rbp), %r12d        # 4-byte Reload
	cmpl	$1, %eax
	je	.LBB2_2
# %bb.18:                               # %ctrl1
	cmpl	$2, %eax
	movq	16(%rbp), %r11
	movl	%r12d, %r9d
	movl	%r8d, %r13d
	movq	%rcx, %r14
	movq	%rdx, %rbx
	movq	%r15, %rsi
	movq	%rdi, %r10
	je	.LBB2_3
# %bb.19:                               # %ctrl2
	movq	%rsi, -56(%rbp)         # 8-byte Spill
	cmpl	$3, %eax
	je	.LBB2_4
# %bb.20:                               # %ctrl3
	cmpl	$4, %eax
	movl	%r13d, %r9d
	je	.LBB2_5
# %bb.21:                               # %ctrl4
	cmpl	$5, %eax
	movq	%r14, %r13
	je	.LBB2_6
# %bb.22:                               # %ctrl5
	cmpl	$6, %eax
	movq	%rbx, %r14
	je	.LBB2_7
# %bb.23:                               # %ctrl6
	cmpl	$7, %eax
	movq	-56(%rbp), %rbx         # 8-byte Reload
	je	.LBB2_8
# %bb.24:                               # %ctrl7
	cmpl	$8, %eax
	je	.LBB2_9
# %bb.25:                               # %ctrl8
	cmpl	$9, %eax
	je	.LBB2_10
# %bb.26:                               # %ctrl9
	cmpl	$10, %eax
	je	.LBB2_11
# %bb.27:                               # %ctrl10
	cmpl	$11, %eax
	je	.LBB2_12
# %bb.28:                               # %ctrl11
	cmpl	$12, %eax
	je	.LBB2_13
# %bb.29:                               # %ctrl12
	cmpl	$13, %eax
	je	.LBB2_14
# %bb.30:                               # %ctrl13
	cmpl	$14, %eax
	je	.LBB2_15
	jmp	.LBB2_16
.Lfunc_end2:
	.size	mainSort, .Lfunc_end2-mainSort
	.cfi_endproc
                                        # -- End function
	.p2align	4, 0x90         # -- Begin function fallbackQSort3
	.type	fallbackQSort3,@function
fallbackQSort3:                         # @fallbackQSort3
	.cfi_startproc
# %bb.0:                                # %rand_bb
	pushq	%rbp
	.cfi_def_cfa_offset 16
	.cfi_offset %rbp, -16
	movq	%rsp, %rbp
	.cfi_def_cfa_register %rbp
	pushq	%r15
	pushq	%r14
	pushq	%r12
	pushq	%rbx
	.cfi_offset %rbx, -48
	.cfi_offset %r12, -40
	.cfi_offset %r14, -32
	.cfi_offset %r15, -24
	movl	%ecx, %r14d
	movl	%edx, %r15d
	movq	%rsi, %r12
	movq	%rdi, %rbx
	callq	get_urand
	cmpl	$0, %eax
	jne	.LBB3_17
# %bb.1:                                # %func_fallbackQSort3.4
	movq	%rbx, %rdi
	movq	%r12, %rsi
	movl	%r15d, %edx
	movl	%r14d, %ecx
	callq	fallbackQSort3.4
	popq	%rbx
	popq	%r12
	popq	%r14
	popq	%r15
	popq	%rbp
	.cfi_def_cfa %rsp, 8
	retq
.LBB3_2:                                # %func_fallbackQSort3.9
	.cfi_def_cfa %rbp, 16
	movq	%rbx, %rdi
	movq	%r12, %rsi
	movl	%r15d, %edx
	movl	%r14d, %ecx
	callq	fallbackQSort3.9
	popq	%rbx
	popq	%r12
	popq	%r14
	popq	%r15
	popq	%rbp
	.cfi_def_cfa %rsp, 8
	retq
.LBB3_3:                                # %func_fallbackQSort3.16
	.cfi_def_cfa %rbp, 16
	movq	%rbx, %rdi
	movq	%r12, %rsi
	movl	%r15d, %edx
	movl	%r14d, %ecx
	callq	fallbackQSort3.16
	popq	%rbx
	popq	%r12
	popq	%r14
	popq	%r15
	popq	%rbp
	.cfi_def_cfa %rsp, 8
	retq
.LBB3_4:                                # %func_fallbackQSort3.29
	.cfi_def_cfa %rbp, 16
	movq	%rbx, %rdi
	movq	%r12, %rsi
	movl	%r15d, %edx
	movl	%r14d, %ecx
	callq	fallbackQSort3.29
	popq	%rbx
	popq	%r12
	popq	%r14
	popq	%r15
	popq	%rbp
	.cfi_def_cfa %rsp, 8
	retq
.LBB3_5:                                # %func_fallbackQSort3.43
	.cfi_def_cfa %rbp, 16
	movq	%rbx, %rdi
	movq	%r12, %rsi
	movl	%r15d, %edx
	movl	%r14d, %ecx
	callq	fallbackQSort3.43
	popq	%rbx
	popq	%r12
	popq	%r14
	popq	%r15
	popq	%rbp
	.cfi_def_cfa %rsp, 8
	retq
.LBB3_6:                                # %func_fallbackQSort3.51
	.cfi_def_cfa %rbp, 16
	movq	%rbx, %rdi
	movq	%r12, %rsi
	movl	%r15d, %edx
	movl	%r14d, %ecx
	callq	fallbackQSort3.51
	popq	%rbx
	popq	%r12
	popq	%r14
	popq	%r15
	popq	%rbp
	.cfi_def_cfa %rsp, 8
	retq
.LBB3_7:                                # %func_fallbackQSort3.52
	.cfi_def_cfa %rbp, 16
	movq	%rbx, %rdi
	movq	%r12, %rsi
	movl	%r15d, %edx
	movl	%r14d, %ecx
	callq	fallbackQSort3.52
	popq	%rbx
	popq	%r12
	popq	%r14
	popq	%r15
	popq	%rbp
	.cfi_def_cfa %rsp, 8
	retq
.LBB3_8:                                # %func_fallbackQSort3.57
	.cfi_def_cfa %rbp, 16
	movq	%rbx, %rdi
	movq	%r12, %rsi
	movl	%r15d, %edx
	movl	%r14d, %ecx
	callq	fallbackQSort3.57
	popq	%rbx
	popq	%r12
	popq	%r14
	popq	%r15
	popq	%rbp
	.cfi_def_cfa %rsp, 8
	retq
.LBB3_9:                                # %func_fallbackQSort3.84
	.cfi_def_cfa %rbp, 16
	movq	%rbx, %rdi
	movq	%r12, %rsi
	movl	%r15d, %edx
	movl	%r14d, %ecx
	callq	fallbackQSort3.84
	popq	%rbx
	popq	%r12
	popq	%r14
	popq	%r15
	popq	%rbp
	.cfi_def_cfa %rsp, 8
	retq
.LBB3_10:                               # %func_fallbackQSort3.86
	.cfi_def_cfa %rbp, 16
	movq	%rbx, %rdi
	movq	%r12, %rsi
	movl	%r15d, %edx
	movl	%r14d, %ecx
	callq	fallbackQSort3.86
	popq	%rbx
	popq	%r12
	popq	%r14
	popq	%r15
	popq	%rbp
	.cfi_def_cfa %rsp, 8
	retq
.LBB3_11:                               # %func_fallbackQSort3.88
	.cfi_def_cfa %rbp, 16
	movq	%rbx, %rdi
	movq	%r12, %rsi
	movl	%r15d, %edx
	movl	%r14d, %ecx
	callq	fallbackQSort3.88
	popq	%rbx
	popq	%r12
	popq	%r14
	popq	%r15
	popq	%rbp
	.cfi_def_cfa %rsp, 8
	retq
.LBB3_12:                               # %func_fallbackQSort3.95
	.cfi_def_cfa %rbp, 16
	movq	%rbx, %rdi
	movq	%r12, %rsi
	movl	%r15d, %edx
	movl	%r14d, %ecx
	callq	fallbackQSort3.95
	popq	%rbx
	popq	%r12
	popq	%r14
	popq	%r15
	popq	%rbp
	.cfi_def_cfa %rsp, 8
	retq
.LBB3_13:                               # %func_fallbackQSort3.106
	.cfi_def_cfa %rbp, 16
	movq	%rbx, %rdi
	movq	%r12, %rsi
	movl	%r15d, %edx
	movl	%r14d, %ecx
	callq	fallbackQSort3.106
	popq	%rbx
	popq	%r12
	popq	%r14
	popq	%r15
	popq	%rbp
	.cfi_def_cfa %rsp, 8
	retq
.LBB3_14:                               # %func_fallbackQSort3.111
	.cfi_def_cfa %rbp, 16
	movq	%rbx, %rdi
	movq	%r12, %rsi
	movl	%r15d, %edx
	movl	%r14d, %ecx
	callq	fallbackQSort3.111
	popq	%rbx
	popq	%r12
	popq	%r14
	popq	%r15
	popq	%rbp
	.cfi_def_cfa %rsp, 8
	retq
.LBB3_15:                               # %func_fallbackQSort3.115
	.cfi_def_cfa %rbp, 16
	movq	%rbx, %rdi
	movq	%r12, %rsi
	movl	%r15d, %edx
	movl	%r14d, %ecx
	callq	fallbackQSort3.115
	popq	%rbx
	popq	%r12
	popq	%r14
	popq	%r15
	popq	%rbp
	.cfi_def_cfa %rsp, 8
	retq
.LBB3_16:                               # %func_fallbackQSort3.117
	.cfi_def_cfa %rbp, 16
	movq	%rbx, %rdi
	movq	%r12, %rsi
	movl	%r15d, %edx
	movl	%r14d, %ecx
	callq	fallbackQSort3.117
	popq	%rbx
	popq	%r12
	popq	%r14
	popq	%r15
	popq	%rbp
	.cfi_def_cfa %rsp, 8
	retq
.LBB3_17:                               # %ctrl0
	.cfi_def_cfa %rbp, 16
	cmpl	$1, %eax
	je	.LBB3_2
# %bb.18:                               # %ctrl1
	cmpl	$2, %eax
	je	.LBB3_3
# %bb.19:                               # %ctrl2
	cmpl	$3, %eax
	je	.LBB3_4
# %bb.20:                               # %ctrl3
	cmpl	$4, %eax
	je	.LBB3_5
# %bb.21:                               # %ctrl4
	cmpl	$5, %eax
	je	.LBB3_6
# %bb.22:                               # %ctrl5
	cmpl	$6, %eax
	je	.LBB3_7
# %bb.23:                               # %ctrl6
	cmpl	$7, %eax
	je	.LBB3_8
# %bb.24:                               # %ctrl7
	cmpl	$8, %eax
	je	.LBB3_9
# %bb.25:                               # %ctrl8
	cmpl	$9, %eax
	je	.LBB3_10
# %bb.26:                               # %ctrl9
	cmpl	$10, %eax
	je	.LBB3_11
# %bb.27:                               # %ctrl10
	cmpl	$11, %eax
	je	.LBB3_12
# %bb.28:                               # %ctrl11
	cmpl	$12, %eax
	je	.LBB3_13
# %bb.29:                               # %ctrl12
	cmpl	$13, %eax
	je	.LBB3_14
# %bb.30:                               # %ctrl13
	cmpl	$14, %eax
	je	.LBB3_15
	jmp	.LBB3_16
.Lfunc_end3:
	.size	fallbackQSort3, .Lfunc_end3-fallbackQSort3
	.cfi_endproc
                                        # -- End function
	.p2align	4, 0x90         # -- Begin function fallbackSimpleSort
	.type	fallbackSimpleSort,@function
fallbackSimpleSort:                     # @fallbackSimpleSort
	.cfi_startproc
# %bb.0:                                # %rand_bb
	pushq	%rbp
	.cfi_def_cfa_offset 16
	.cfi_offset %rbp, -16
	movq	%rsp, %rbp
	.cfi_def_cfa_register %rbp
	pushq	%r15
	pushq	%r14
	pushq	%r12
	pushq	%rbx
	.cfi_offset %rbx, -48
	.cfi_offset %r12, -40
	.cfi_offset %r14, -32
	.cfi_offset %r15, -24
	movl	%ecx, %r14d
	movl	%edx, %r15d
	movq	%rsi, %r12
	movq	%rdi, %rbx
	callq	get_urand
	cmpl	$0, %eax
	jne	.LBB4_17
# %bb.1:                                # %func_fallbackSimpleSort.11
	movq	%rbx, %rdi
	movq	%r12, %rsi
	movl	%r15d, %edx
	movl	%r14d, %ecx
	callq	fallbackSimpleSort.11
	popq	%rbx
	popq	%r12
	popq	%r14
	popq	%r15
	popq	%rbp
	.cfi_def_cfa %rsp, 8
	retq
.LBB4_2:                                # %func_fallbackSimpleSort.12
	.cfi_def_cfa %rbp, 16
	movq	%rbx, %rdi
	movq	%r12, %rsi
	movl	%r15d, %edx
	movl	%r14d, %ecx
	callq	fallbackSimpleSort.12
	popq	%rbx
	popq	%r12
	popq	%r14
	popq	%r15
	popq	%rbp
	.cfi_def_cfa %rsp, 8
	retq
.LBB4_3:                                # %func_fallbackSimpleSort.17
	.cfi_def_cfa %rbp, 16
	movq	%rbx, %rdi
	movq	%r12, %rsi
	movl	%r15d, %edx
	movl	%r14d, %ecx
	callq	fallbackSimpleSort.17
	popq	%rbx
	popq	%r12
	popq	%r14
	popq	%r15
	popq	%rbp
	.cfi_def_cfa %rsp, 8
	retq
.LBB4_4:                                # %func_fallbackSimpleSort.20
	.cfi_def_cfa %rbp, 16
	movq	%rbx, %rdi
	movq	%r12, %rsi
	movl	%r15d, %edx
	movl	%r14d, %ecx
	callq	fallbackSimpleSort.20
	popq	%rbx
	popq	%r12
	popq	%r14
	popq	%r15
	popq	%rbp
	.cfi_def_cfa %rsp, 8
	retq
.LBB4_5:                                # %func_fallbackSimpleSort.26
	.cfi_def_cfa %rbp, 16
	movq	%rbx, %rdi
	movq	%r12, %rsi
	movl	%r15d, %edx
	movl	%r14d, %ecx
	callq	fallbackSimpleSort.26
	popq	%rbx
	popq	%r12
	popq	%r14
	popq	%r15
	popq	%rbp
	.cfi_def_cfa %rsp, 8
	retq
.LBB4_6:                                # %func_fallbackSimpleSort.44
	.cfi_def_cfa %rbp, 16
	movq	%rbx, %rdi
	movq	%r12, %rsi
	movl	%r15d, %edx
	movl	%r14d, %ecx
	callq	fallbackSimpleSort.44
	popq	%rbx
	popq	%r12
	popq	%r14
	popq	%r15
	popq	%rbp
	.cfi_def_cfa %rsp, 8
	retq
.LBB4_7:                                # %func_fallbackSimpleSort.49
	.cfi_def_cfa %rbp, 16
	movq	%rbx, %rdi
	movq	%r12, %rsi
	movl	%r15d, %edx
	movl	%r14d, %ecx
	callq	fallbackSimpleSort.49
	popq	%rbx
	popq	%r12
	popq	%r14
	popq	%r15
	popq	%rbp
	.cfi_def_cfa %rsp, 8
	retq
.LBB4_8:                                # %func_fallbackSimpleSort.50
	.cfi_def_cfa %rbp, 16
	movq	%rbx, %rdi
	movq	%r12, %rsi
	movl	%r15d, %edx
	movl	%r14d, %ecx
	callq	fallbackSimpleSort.50
	popq	%rbx
	popq	%r12
	popq	%r14
	popq	%r15
	popq	%rbp
	.cfi_def_cfa %rsp, 8
	retq
.LBB4_9:                                # %func_fallbackSimpleSort.65
	.cfi_def_cfa %rbp, 16
	movq	%rbx, %rdi
	movq	%r12, %rsi
	movl	%r15d, %edx
	movl	%r14d, %ecx
	callq	fallbackSimpleSort.65
	popq	%rbx
	popq	%r12
	popq	%r14
	popq	%r15
	popq	%rbp
	.cfi_def_cfa %rsp, 8
	retq
.LBB4_10:                               # %func_fallbackSimpleSort.80
	.cfi_def_cfa %rbp, 16
	movq	%rbx, %rdi
	movq	%r12, %rsi
	movl	%r15d, %edx
	movl	%r14d, %ecx
	callq	fallbackSimpleSort.80
	popq	%rbx
	popq	%r12
	popq	%r14
	popq	%r15
	popq	%rbp
	.cfi_def_cfa %rsp, 8
	retq
.LBB4_11:                               # %func_fallbackSimpleSort.98
	.cfi_def_cfa %rbp, 16
	movq	%rbx, %rdi
	movq	%r12, %rsi
	movl	%r15d, %edx
	movl	%r14d, %ecx
	callq	fallbackSimpleSort.98
	popq	%rbx
	popq	%r12
	popq	%r14
	popq	%r15
	popq	%rbp
	.cfi_def_cfa %rsp, 8
	retq
.LBB4_12:                               # %func_fallbackSimpleSort.122
	.cfi_def_cfa %rbp, 16
	movq	%rbx, %rdi
	movq	%r12, %rsi
	movl	%r15d, %edx
	movl	%r14d, %ecx
	callq	fallbackSimpleSort.122
	popq	%rbx
	popq	%r12
	popq	%r14
	popq	%r15
	popq	%rbp
	.cfi_def_cfa %rsp, 8
	retq
.LBB4_13:                               # %func_fallbackSimpleSort.127
	.cfi_def_cfa %rbp, 16
	movq	%rbx, %rdi
	movq	%r12, %rsi
	movl	%r15d, %edx
	movl	%r14d, %ecx
	callq	fallbackSimpleSort.127
	popq	%rbx
	popq	%r12
	popq	%r14
	popq	%r15
	popq	%rbp
	.cfi_def_cfa %rsp, 8
	retq
.LBB4_14:                               # %func_fallbackSimpleSort.138
	.cfi_def_cfa %rbp, 16
	movq	%rbx, %rdi
	movq	%r12, %rsi
	movl	%r15d, %edx
	movl	%r14d, %ecx
	callq	fallbackSimpleSort.138
	popq	%rbx
	popq	%r12
	popq	%r14
	popq	%r15
	popq	%rbp
	.cfi_def_cfa %rsp, 8
	retq
.LBB4_15:                               # %func_fallbackSimpleSort.139
	.cfi_def_cfa %rbp, 16
	movq	%rbx, %rdi
	movq	%r12, %rsi
	movl	%r15d, %edx
	movl	%r14d, %ecx
	callq	fallbackSimpleSort.139
	popq	%rbx
	popq	%r12
	popq	%r14
	popq	%r15
	popq	%rbp
	.cfi_def_cfa %rsp, 8
	retq
.LBB4_16:                               # %func_fallbackSimpleSort.140
	.cfi_def_cfa %rbp, 16
	movq	%rbx, %rdi
	movq	%r12, %rsi
	movl	%r15d, %edx
	movl	%r14d, %ecx
	callq	fallbackSimpleSort.140
	popq	%rbx
	popq	%r12
	popq	%r14
	popq	%r15
	popq	%rbp
	.cfi_def_cfa %rsp, 8
	retq
.LBB4_17:                               # %ctrl0
	.cfi_def_cfa %rbp, 16
	cmpl	$1, %eax
	je	.LBB4_2
# %bb.18:                               # %ctrl1
	cmpl	$2, %eax
	je	.LBB4_3
# %bb.19:                               # %ctrl2
	cmpl	$3, %eax
	je	.LBB4_4
# %bb.20:                               # %ctrl3
	cmpl	$4, %eax
	je	.LBB4_5
# %bb.21:                               # %ctrl4
	cmpl	$5, %eax
	je	.LBB4_6
# %bb.22:                               # %ctrl5
	cmpl	$6, %eax
	je	.LBB4_7
# %bb.23:                               # %ctrl6
	cmpl	$7, %eax
	je	.LBB4_8
# %bb.24:                               # %ctrl7
	cmpl	$8, %eax
	je	.LBB4_9
# %bb.25:                               # %ctrl8
	cmpl	$9, %eax
	je	.LBB4_10
# %bb.26:                               # %ctrl9
	cmpl	$10, %eax
	je	.LBB4_11
# %bb.27:                               # %ctrl10
	cmpl	$11, %eax
	je	.LBB4_12
# %bb.28:                               # %ctrl11
	cmpl	$12, %eax
	je	.LBB4_13
# %bb.29:                               # %ctrl12
	cmpl	$13, %eax
	je	.LBB4_14
# %bb.30:                               # %ctrl13
	cmpl	$14, %eax
	je	.LBB4_15
	jmp	.LBB4_16
.Lfunc_end4:
	.size	fallbackSimpleSort, .Lfunc_end4-fallbackSimpleSort
	.cfi_endproc
                                        # -- End function
	.p2align	4, 0x90         # -- Begin function mainQSort3
	.type	mainQSort3,@function
mainQSort3:                             # @mainQSort3
	.cfi_startproc
# %bb.0:                                # %rand_bb
	pushq	%rbp
	.cfi_def_cfa_offset 16
	.cfi_offset %rbp, -16
	movq	%rsp, %rbp
	.cfi_def_cfa_register %rbp
	pushq	%r15
	pushq	%r14
	pushq	%r13
	pushq	%r12
	pushq	%rbx
	subq	$24, %rsp
	.cfi_offset %rbx, -56
	.cfi_offset %r12, -48
	.cfi_offset %r13, -40
	.cfi_offset %r14, -32
	.cfi_offset %r15, -24
	movl	%r9d, -44(%rbp)         # 4-byte Spill
	movl	%r8d, %ebx
	movl	%ecx, %r14d
	movq	%rdx, %r15
	movq	%rsi, %r12
	movq	%rdi, %r13
	callq	get_urand
	cmpl	$0, %eax
	jne	.LBB5_17
# %bb.1:                                # %func_mainQSort3.13
	movq	%r13, %rdi
	movq	%r12, %rsi
	movq	%r15, %rdx
	movl	%r14d, %ecx
	movl	%ebx, %r8d
	movl	-44(%rbp), %r9d         # 4-byte Reload
	movl	16(%rbp), %eax
	movl	%eax, (%rsp)
	movq	24(%rbp), %rax
	movq	%rax, 8(%rsp)
	callq	mainQSort3.13
	addq	$24, %rsp
	popq	%rbx
	popq	%r12
	popq	%r13
	popq	%r14
	popq	%r15
	popq	%rbp
	.cfi_def_cfa %rsp, 8
	retq
.LBB5_2:                                # %func_mainQSort3.23
	.cfi_def_cfa %rbp, 16
	movl	%r13d, %r9d
	movl	%r15d, (%rsp)
	movq	24(%rbp), %rax
	movq	%rax, 8(%rsp)
	callq	mainQSort3.23
	addq	$24, %rsp
	popq	%rbx
	popq	%r12
	popq	%r13
	popq	%r14
	popq	%r15
	popq	%rbp
	.cfi_def_cfa %rsp, 8
	retq
.LBB5_3:                                # %func_mainQSort3.28
	.cfi_def_cfa %rbp, 16
	movq	%r12, %rdx
	movl	%r14d, %ecx
	movl	%ebx, %r8d
	movl	%r10d, (%rsp)
	movq	%r11, 8(%rsp)
	callq	mainQSort3.28
	addq	$24, %rsp
	popq	%rbx
	popq	%r12
	popq	%r13
	popq	%r14
	popq	%r15
	popq	%rbp
	.cfi_def_cfa %rsp, 8
	retq
.LBB5_4:                                # %func_mainQSort3.32
	.cfi_def_cfa %rbp, 16
	movq	%r12, %rdx
	movl	%r14d, %ecx
	movl	%ebx, %r8d
	movl	-44(%rbp), %r9d         # 4-byte Reload
	movl	%r10d, (%rsp)
	movq	%r11, 8(%rsp)
	callq	mainQSort3.32
	addq	$24, %rsp
	popq	%rbx
	popq	%r12
	popq	%r13
	popq	%r14
	popq	%r15
	popq	%rbp
	.cfi_def_cfa %rsp, 8
	retq
.LBB5_5:                                # %func_mainQSort3.33
	.cfi_def_cfa %rbp, 16
	movq	%r12, %rdx
	movl	%r14d, %ecx
	movl	%r9d, %r8d
	movl	-44(%rbp), %r9d         # 4-byte Reload
	movl	%r10d, (%rsp)
	movq	%r11, 8(%rsp)
	callq	mainQSort3.33
	addq	$24, %rsp
	popq	%rbx
	popq	%r12
	popq	%r13
	popq	%r14
	popq	%r15
	popq	%rbp
	.cfi_def_cfa %rsp, 8
	retq
.LBB5_6:                                # %func_mainQSort3.39
	.cfi_def_cfa %rbp, 16
	movq	%r12, %rdx
	movl	%ebx, %ecx
	movl	%r9d, %r8d
	movl	-44(%rbp), %r9d         # 4-byte Reload
	movl	%r10d, (%rsp)
	movq	%r11, 8(%rsp)
	callq	mainQSort3.39
	addq	$24, %rsp
	popq	%rbx
	popq	%r12
	popq	%r13
	popq	%r14
	popq	%r15
	popq	%rbp
	.cfi_def_cfa %rsp, 8
	retq
.LBB5_7:                                # %func_mainQSort3.46
	.cfi_def_cfa %rbp, 16
	movq	%r12, %rdx
	movl	%ebx, %ecx
	movl	%r9d, %r8d
	movl	-44(%rbp), %r9d         # 4-byte Reload
	movl	%r10d, (%rsp)
	movq	%r11, 8(%rsp)
	callq	mainQSort3.46
	addq	$24, %rsp
	popq	%rbx
	popq	%r12
	popq	%r13
	popq	%r14
	popq	%r15
	popq	%rbp
	.cfi_def_cfa %rsp, 8
	retq
.LBB5_8:                                # %func_mainQSort3.47
	.cfi_def_cfa %rbp, 16
	movq	%r12, %rdx
	movl	%ebx, %ecx
	movl	%r9d, %r8d
	movl	-44(%rbp), %r9d         # 4-byte Reload
	movl	%r10d, (%rsp)
	movq	%r11, 8(%rsp)
	callq	mainQSort3.47
	addq	$24, %rsp
	popq	%rbx
	popq	%r12
	popq	%r13
	popq	%r14
	popq	%r15
	popq	%rbp
	.cfi_def_cfa %rsp, 8
	retq
.LBB5_9:                                # %func_mainQSort3.53
	.cfi_def_cfa %rbp, 16
	movq	%r12, %rdx
	movl	%ebx, %ecx
	movl	%r9d, %r8d
	movl	-44(%rbp), %r9d         # 4-byte Reload
	movl	%r10d, (%rsp)
	movq	%r11, 8(%rsp)
	callq	mainQSort3.53
	addq	$24, %rsp
	popq	%rbx
	popq	%r12
	popq	%r13
	popq	%r14
	popq	%r15
	popq	%rbp
	.cfi_def_cfa %rsp, 8
	retq
.LBB5_10:                               # %func_mainQSort3.73
	.cfi_def_cfa %rbp, 16
	movq	%r12, %rdx
	movl	%ebx, %ecx
	movl	%r9d, %r8d
	movl	-44(%rbp), %r9d         # 4-byte Reload
	movl	%r10d, (%rsp)
	movq	%r11, 8(%rsp)
	callq	mainQSort3.73
	addq	$24, %rsp
	popq	%rbx
	popq	%r12
	popq	%r13
	popq	%r14
	popq	%r15
	popq	%rbp
	.cfi_def_cfa %rsp, 8
	retq
.LBB5_11:                               # %func_mainQSort3.78
	.cfi_def_cfa %rbp, 16
	movq	%r12, %rdx
	movl	%ebx, %ecx
	movl	%r9d, %r8d
	movl	-44(%rbp), %r9d         # 4-byte Reload
	movl	%r10d, (%rsp)
	movq	%r11, 8(%rsp)
	callq	mainQSort3.78
	addq	$24, %rsp
	popq	%rbx
	popq	%r12
	popq	%r13
	popq	%r14
	popq	%r15
	popq	%rbp
	.cfi_def_cfa %rsp, 8
	retq
.LBB5_12:                               # %func_mainQSort3.87
	.cfi_def_cfa %rbp, 16
	movq	%r12, %rdx
	movl	%ebx, %ecx
	movl	%r9d, %r8d
	movl	-44(%rbp), %r9d         # 4-byte Reload
	movl	%r10d, (%rsp)
	movq	%r11, 8(%rsp)
	callq	mainQSort3.87
	addq	$24, %rsp
	popq	%rbx
	popq	%r12
	popq	%r13
	popq	%r14
	popq	%r15
	popq	%rbp
	.cfi_def_cfa %rsp, 8
	retq
.LBB5_13:                               # %func_mainQSort3.89
	.cfi_def_cfa %rbp, 16
	movq	%r12, %rdx
	movl	%ebx, %ecx
	movl	%r9d, %r8d
	movl	-44(%rbp), %r9d         # 4-byte Reload
	movl	%r10d, (%rsp)
	movq	%r11, 8(%rsp)
	callq	mainQSort3.89
	addq	$24, %rsp
	popq	%rbx
	popq	%r12
	popq	%r13
	popq	%r14
	popq	%r15
	popq	%rbp
	.cfi_def_cfa %rsp, 8
	retq
.LBB5_14:                               # %func_mainQSort3.93
	.cfi_def_cfa %rbp, 16
	movq	%r12, %rdx
	movl	%ebx, %ecx
	movl	%r9d, %r8d
	movl	-44(%rbp), %r9d         # 4-byte Reload
	movl	%r10d, (%rsp)
	movq	24(%rbp), %rax
	movq	%rax, 8(%rsp)
	callq	mainQSort3.93
	addq	$24, %rsp
	popq	%rbx
	popq	%r12
	popq	%r13
	popq	%r14
	popq	%r15
	popq	%rbp
	.cfi_def_cfa %rsp, 8
	retq
.LBB5_15:                               # %func_mainQSort3.103
	.cfi_def_cfa %rbp, 16
	movl	%r13d, %r9d
	movl	%r15d, (%rsp)
	movq	24(%rbp), %rax
	movq	%rax, 8(%rsp)
	callq	mainQSort3.103
	addq	$24, %rsp
	popq	%rbx
	popq	%r12
	popq	%r13
	popq	%r14
	popq	%r15
	popq	%rbp
	.cfi_def_cfa %rsp, 8
	retq
.LBB5_16:                               # %func_mainQSort3.110
	.cfi_def_cfa %rbp, 16
	movl	%r13d, %r9d
	movl	%r15d, (%rsp)
	movq	24(%rbp), %rax
	movq	%rax, 8(%rsp)
	callq	mainQSort3.110
	addq	$24, %rsp
	popq	%rbx
	popq	%r12
	popq	%r13
	popq	%r14
	popq	%r15
	popq	%rbp
	.cfi_def_cfa %rsp, 8
	retq
.LBB5_17:                               # %ctrl0
	.cfi_def_cfa %rbp, 16
	movq	%r13, %rdi
	movq	%r12, %rsi
	movq	%r15, %rdx
	movl	%r14d, %ecx
	movl	%ebx, %r8d
	movl	-44(%rbp), %r13d        # 4-byte Reload
	movl	16(%rbp), %r15d
	cmpl	$1, %eax
	je	.LBB5_2
# %bb.18:                               # %ctrl1
	cmpl	$2, %eax
	movq	24(%rbp), %r11
	movl	%r15d, %r10d
	movl	%r13d, %r9d
	movl	%r8d, %ebx
	movl	%ecx, %r14d
	movq	%rdx, %r12
	je	.LBB5_3
# %bb.19:                               # %ctrl2
	cmpl	$3, %eax
	je	.LBB5_4
# %bb.20:                               # %ctrl3
	cmpl	$4, %eax
	movl	%ebx, %r9d
	je	.LBB5_5
# %bb.21:                               # %ctrl4
	cmpl	$5, %eax
	movl	%r14d, %ebx
	je	.LBB5_6
# %bb.22:                               # %ctrl5
	cmpl	$6, %eax
	je	.LBB5_7
# %bb.23:                               # %ctrl6
	cmpl	$7, %eax
	je	.LBB5_8
# %bb.24:                               # %ctrl7
	cmpl	$8, %eax
	je	.LBB5_9
# %bb.25:                               # %ctrl8
	cmpl	$9, %eax
	je	.LBB5_10
# %bb.26:                               # %ctrl9
	cmpl	$10, %eax
	je	.LBB5_11
# %bb.27:                               # %ctrl10
	cmpl	$11, %eax
	je	.LBB5_12
# %bb.28:                               # %ctrl11
	cmpl	$12, %eax
	je	.LBB5_13
# %bb.29:                               # %ctrl12
	cmpl	$13, %eax
	je	.LBB5_14
# %bb.30:                               # %ctrl13
	cmpl	$14, %eax
	je	.LBB5_15
	jmp	.LBB5_16
.Lfunc_end5:
	.size	mainQSort3, .Lfunc_end5-mainQSort3
	.cfi_endproc
                                        # -- End function
	.p2align	4, 0x90         # -- Begin function mainSimpleSort
	.type	mainSimpleSort,@function
mainSimpleSort:                         # @mainSimpleSort
	.cfi_startproc
# %bb.0:                                # %rand_bb
	pushq	%rbp
	.cfi_def_cfa_offset 16
	.cfi_offset %rbp, -16
	movq	%rsp, %rbp
	.cfi_def_cfa_register %rbp
	pushq	%r15
	pushq	%r14
	pushq	%r13
	pushq	%r12
	pushq	%rbx
	subq	$24, %rsp
	.cfi_offset %rbx, -56
	.cfi_offset %r12, -48
	.cfi_offset %r13, -40
	.cfi_offset %r14, -32
	.cfi_offset %r15, -24
	movl	%r9d, -44(%rbp)         # 4-byte Spill
	movl	%r8d, %ebx
	movl	%ecx, %r14d
	movq	%rdx, %r15
	movq	%rsi, %r12
	movq	%rdi, %r13
	callq	get_urand
	cmpl	$0, %eax
	jne	.LBB6_17
# %bb.1:                                # %func_mainSimpleSort.30
	movq	%r13, %rdi
	movq	%r12, %rsi
	movq	%r15, %rdx
	movl	%r14d, %ecx
	movl	%ebx, %r8d
	movl	-44(%rbp), %r9d         # 4-byte Reload
	movl	16(%rbp), %eax
	movl	%eax, (%rsp)
	movq	24(%rbp), %rax
	movq	%rax, 8(%rsp)
	callq	mainSimpleSort.30
	addq	$24, %rsp
	popq	%rbx
	popq	%r12
	popq	%r13
	popq	%r14
	popq	%r15
	popq	%rbp
	.cfi_def_cfa %rsp, 8
	retq
.LBB6_2:                                # %func_mainSimpleSort.37
	.cfi_def_cfa %rbp, 16
	movl	%r13d, %r9d
	movl	%r15d, (%rsp)
	movq	24(%rbp), %rax
	movq	%rax, 8(%rsp)
	callq	mainSimpleSort.37
	addq	$24, %rsp
	popq	%rbx
	popq	%r12
	popq	%r13
	popq	%r14
	popq	%r15
	popq	%rbp
	.cfi_def_cfa %rsp, 8
	retq
.LBB6_3:                                # %func_mainSimpleSort.55
	.cfi_def_cfa %rbp, 16
	movq	%r12, %rdx
	movl	%r14d, %ecx
	movl	%ebx, %r8d
	movl	%r10d, (%rsp)
	movq	%r11, 8(%rsp)
	callq	mainSimpleSort.55
	addq	$24, %rsp
	popq	%rbx
	popq	%r12
	popq	%r13
	popq	%r14
	popq	%r15
	popq	%rbp
	.cfi_def_cfa %rsp, 8
	retq
.LBB6_4:                                # %func_mainSimpleSort.61
	.cfi_def_cfa %rbp, 16
	movq	%r12, %rdx
	movl	%r14d, %ecx
	movl	%ebx, %r8d
	movl	-44(%rbp), %r9d         # 4-byte Reload
	movl	%r10d, (%rsp)
	movq	%r11, 8(%rsp)
	callq	mainSimpleSort.61
	addq	$24, %rsp
	popq	%rbx
	popq	%r12
	popq	%r13
	popq	%r14
	popq	%r15
	popq	%rbp
	.cfi_def_cfa %rsp, 8
	retq
.LBB6_5:                                # %func_mainSimpleSort.62
	.cfi_def_cfa %rbp, 16
	movq	%r12, %rdx
	movl	%r14d, %ecx
	movl	%r9d, %r8d
	movl	-44(%rbp), %r9d         # 4-byte Reload
	movl	%r10d, (%rsp)
	movq	%r11, 8(%rsp)
	callq	mainSimpleSort.62
	addq	$24, %rsp
	popq	%rbx
	popq	%r12
	popq	%r13
	popq	%r14
	popq	%r15
	popq	%rbp
	.cfi_def_cfa %rsp, 8
	retq
.LBB6_6:                                # %func_mainSimpleSort.70
	.cfi_def_cfa %rbp, 16
	movq	%r12, %rdx
	movl	%ebx, %ecx
	movl	%r9d, %r8d
	movl	-44(%rbp), %r9d         # 4-byte Reload
	movl	%r10d, (%rsp)
	movq	%r11, 8(%rsp)
	callq	mainSimpleSort.70
	addq	$24, %rsp
	popq	%rbx
	popq	%r12
	popq	%r13
	popq	%r14
	popq	%r15
	popq	%rbp
	.cfi_def_cfa %rsp, 8
	retq
.LBB6_7:                                # %func_mainSimpleSort.74
	.cfi_def_cfa %rbp, 16
	movq	%r12, %rdx
	movl	%ebx, %ecx
	movl	%r9d, %r8d
	movl	-44(%rbp), %r9d         # 4-byte Reload
	movl	%r10d, (%rsp)
	movq	%r11, 8(%rsp)
	callq	mainSimpleSort.74
	addq	$24, %rsp
	popq	%rbx
	popq	%r12
	popq	%r13
	popq	%r14
	popq	%r15
	popq	%rbp
	.cfi_def_cfa %rsp, 8
	retq
.LBB6_8:                                # %func_mainSimpleSort.100
	.cfi_def_cfa %rbp, 16
	movq	%r12, %rdx
	movl	%ebx, %ecx
	movl	%r9d, %r8d
	movl	-44(%rbp), %r9d         # 4-byte Reload
	movl	%r10d, (%rsp)
	movq	%r11, 8(%rsp)
	callq	mainSimpleSort.100
	addq	$24, %rsp
	popq	%rbx
	popq	%r12
	popq	%r13
	popq	%r14
	popq	%r15
	popq	%rbp
	.cfi_def_cfa %rsp, 8
	retq
.LBB6_9:                                # %func_mainSimpleSort.105
	.cfi_def_cfa %rbp, 16
	movq	%r12, %rdx
	movl	%ebx, %ecx
	movl	%r9d, %r8d
	movl	-44(%rbp), %r9d         # 4-byte Reload
	movl	%r10d, (%rsp)
	movq	%r11, 8(%rsp)
	callq	mainSimpleSort.105
	addq	$24, %rsp
	popq	%rbx
	popq	%r12
	popq	%r13
	popq	%r14
	popq	%r15
	popq	%rbp
	.cfi_def_cfa %rsp, 8
	retq
.LBB6_10:                               # %func_mainSimpleSort.107
	.cfi_def_cfa %rbp, 16
	movq	%r12, %rdx
	movl	%ebx, %ecx
	movl	%r9d, %r8d
	movl	-44(%rbp), %r9d         # 4-byte Reload
	movl	%r10d, (%rsp)
	movq	%r11, 8(%rsp)
	callq	mainSimpleSort.107
	addq	$24, %rsp
	popq	%rbx
	popq	%r12
	popq	%r13
	popq	%r14
	popq	%r15
	popq	%rbp
	.cfi_def_cfa %rsp, 8
	retq
.LBB6_11:                               # %func_mainSimpleSort.112
	.cfi_def_cfa %rbp, 16
	movq	%r12, %rdx
	movl	%ebx, %ecx
	movl	%r9d, %r8d
	movl	-44(%rbp), %r9d         # 4-byte Reload
	movl	%r10d, (%rsp)
	movq	%r11, 8(%rsp)
	callq	mainSimpleSort.112
	addq	$24, %rsp
	popq	%rbx
	popq	%r12
	popq	%r13
	popq	%r14
	popq	%r15
	popq	%rbp
	.cfi_def_cfa %rsp, 8
	retq
.LBB6_12:                               # %func_mainSimpleSort.123
	.cfi_def_cfa %rbp, 16
	movq	%r12, %rdx
	movl	%ebx, %ecx
	movl	%r9d, %r8d
	movl	-44(%rbp), %r9d         # 4-byte Reload
	movl	%r10d, (%rsp)
	movq	%r11, 8(%rsp)
	callq	mainSimpleSort.123
	addq	$24, %rsp
	popq	%rbx
	popq	%r12
	popq	%r13
	popq	%r14
	popq	%r15
	popq	%rbp
	.cfi_def_cfa %rsp, 8
	retq
.LBB6_13:                               # %func_mainSimpleSort.126
	.cfi_def_cfa %rbp, 16
	movq	%r12, %rdx
	movl	%ebx, %ecx
	movl	%r9d, %r8d
	movl	-44(%rbp), %r9d         # 4-byte Reload
	movl	%r10d, (%rsp)
	movq	%r11, 8(%rsp)
	callq	mainSimpleSort.126
	addq	$24, %rsp
	popq	%rbx
	popq	%r12
	popq	%r13
	popq	%r14
	popq	%r15
	popq	%rbp
	.cfi_def_cfa %rsp, 8
	retq
.LBB6_14:                               # %func_mainSimpleSort.128
	.cfi_def_cfa %rbp, 16
	movq	%r12, %rdx
	movl	%ebx, %ecx
	movl	%r9d, %r8d
	movl	-44(%rbp), %r9d         # 4-byte Reload
	movl	%r10d, (%rsp)
	movq	24(%rbp), %rax
	movq	%rax, 8(%rsp)
	callq	mainSimpleSort.128
	addq	$24, %rsp
	popq	%rbx
	popq	%r12
	popq	%r13
	popq	%r14
	popq	%r15
	popq	%rbp
	.cfi_def_cfa %rsp, 8
	retq
.LBB6_15:                               # %func_mainSimpleSort.129
	.cfi_def_cfa %rbp, 16
	movl	%r13d, %r9d
	movl	%r15d, (%rsp)
	movq	24(%rbp), %rax
	movq	%rax, 8(%rsp)
	callq	mainSimpleSort.129
	addq	$24, %rsp
	popq	%rbx
	popq	%r12
	popq	%r13
	popq	%r14
	popq	%r15
	popq	%rbp
	.cfi_def_cfa %rsp, 8
	retq
.LBB6_16:                               # %func_mainSimpleSort.131
	.cfi_def_cfa %rbp, 16
	movl	%r13d, %r9d
	movl	%r15d, (%rsp)
	movq	24(%rbp), %rax
	movq	%rax, 8(%rsp)
	callq	mainSimpleSort.131
	addq	$24, %rsp
	popq	%rbx
	popq	%r12
	popq	%r13
	popq	%r14
	popq	%r15
	popq	%rbp
	.cfi_def_cfa %rsp, 8
	retq
.LBB6_17:                               # %ctrl0
	.cfi_def_cfa %rbp, 16
	movq	%r13, %rdi
	movq	%r12, %rsi
	movq	%r15, %rdx
	movl	%r14d, %ecx
	movl	%ebx, %r8d
	movl	-44(%rbp), %r13d        # 4-byte Reload
	movl	16(%rbp), %r15d
	cmpl	$1, %eax
	je	.LBB6_2
# %bb.18:                               # %ctrl1
	cmpl	$2, %eax
	movq	24(%rbp), %r11
	movl	%r15d, %r10d
	movl	%r13d, %r9d
	movl	%r8d, %ebx
	movl	%ecx, %r14d
	movq	%rdx, %r12
	je	.LBB6_3
# %bb.19:                               # %ctrl2
	cmpl	$3, %eax
	je	.LBB6_4
# %bb.20:                               # %ctrl3
	cmpl	$4, %eax
	movl	%ebx, %r9d
	je	.LBB6_5
# %bb.21:                               # %ctrl4
	cmpl	$5, %eax
	movl	%r14d, %ebx
	je	.LBB6_6
# %bb.22:                               # %ctrl5
	cmpl	$6, %eax
	je	.LBB6_7
# %bb.23:                               # %ctrl6
	cmpl	$7, %eax
	je	.LBB6_8
# %bb.24:                               # %ctrl7
	cmpl	$8, %eax
	je	.LBB6_9
# %bb.25:                               # %ctrl8
	cmpl	$9, %eax
	je	.LBB6_10
# %bb.26:                               # %ctrl9
	cmpl	$10, %eax
	je	.LBB6_11
# %bb.27:                               # %ctrl10
	cmpl	$11, %eax
	je	.LBB6_12
# %bb.28:                               # %ctrl11
	cmpl	$12, %eax
	je	.LBB6_13
# %bb.29:                               # %ctrl12
	cmpl	$13, %eax
	je	.LBB6_14
# %bb.30:                               # %ctrl13
	cmpl	$14, %eax
	je	.LBB6_15
	jmp	.LBB6_16
.Lfunc_end6:
	.size	mainSimpleSort, .Lfunc_end6-mainSimpleSort
	.cfi_endproc
                                        # -- End function
	.p2align	4, 0x90         # -- Begin function mmed3
	.type	mmed3,@function
mmed3:                                  # @mmed3
	.cfi_startproc
# %bb.0:                                # %rand_bb
	pushq	%rbp
	.cfi_def_cfa_offset 16
	.cfi_offset %rbp, -16
	movq	%rsp, %rbp
	.cfi_def_cfa_register %rbp
	pushq	%r15
	pushq	%r14
	pushq	%rbx
	pushq	%rax
	.cfi_offset %rbx, -40
	.cfi_offset %r14, -32
	.cfi_offset %r15, -24
	movl	%edx, %r14d
	movl	%esi, %r15d
	movl	%edi, %ebx
	callq	get_urand
	cmpl	$0, %eax
	jne	.LBB7_17
# %bb.1:                                # %func_mmed3.8
	movzbl	%bl, %edi
	movzbl	%r15b, %esi
	movzbl	%r14b, %edx
	callq	mmed3.8
	movzbl	%al, %eax
	addq	$8, %rsp
	popq	%rbx
	popq	%r14
	popq	%r15
	popq	%rbp
	.cfi_def_cfa %rsp, 8
	retq
.LBB7_2:                                # %func_mmed3.25
	.cfi_def_cfa %rbp, 16
	movzbl	%bl, %edi
	movzbl	%r15b, %esi
	movzbl	%r14b, %edx
	callq	mmed3.25
	movzbl	%al, %eax
	addq	$8, %rsp
	popq	%rbx
	popq	%r14
	popq	%r15
	popq	%rbp
	.cfi_def_cfa %rsp, 8
	retq
.LBB7_3:                                # %func_mmed3.27
	.cfi_def_cfa %rbp, 16
	movzbl	%bl, %edi
	movzbl	%r15b, %esi
	movzbl	%r14b, %edx
	callq	mmed3.27
	movzbl	%al, %eax
	addq	$8, %rsp
	popq	%rbx
	popq	%r14
	popq	%r15
	popq	%rbp
	.cfi_def_cfa %rsp, 8
	retq
.LBB7_4:                                # %func_mmed3.36
	.cfi_def_cfa %rbp, 16
	movzbl	%bl, %edi
	movzbl	%r15b, %esi
	movzbl	%r14b, %edx
	callq	mmed3.36
	movzbl	%al, %eax
	addq	$8, %rsp
	popq	%rbx
	popq	%r14
	popq	%r15
	popq	%rbp
	.cfi_def_cfa %rsp, 8
	retq
.LBB7_5:                                # %func_mmed3.45
	.cfi_def_cfa %rbp, 16
	movzbl	%bl, %edi
	movzbl	%r15b, %esi
	movzbl	%r14b, %edx
	callq	mmed3.45
	movzbl	%al, %eax
	addq	$8, %rsp
	popq	%rbx
	popq	%r14
	popq	%r15
	popq	%rbp
	.cfi_def_cfa %rsp, 8
	retq
.LBB7_6:                                # %func_mmed3.59
	.cfi_def_cfa %rbp, 16
	movzbl	%bl, %edi
	movzbl	%r15b, %esi
	movzbl	%r14b, %edx
	callq	mmed3.59
	movzbl	%al, %eax
	addq	$8, %rsp
	popq	%rbx
	popq	%r14
	popq	%r15
	popq	%rbp
	.cfi_def_cfa %rsp, 8
	retq
.LBB7_7:                                # %func_mmed3.60
	.cfi_def_cfa %rbp, 16
	movzbl	%bl, %edi
	movzbl	%r15b, %esi
	movzbl	%r14b, %edx
	callq	mmed3.60
	movzbl	%al, %eax
	addq	$8, %rsp
	popq	%rbx
	popq	%r14
	popq	%r15
	popq	%rbp
	.cfi_def_cfa %rsp, 8
	retq
.LBB7_8:                                # %func_mmed3.72
	.cfi_def_cfa %rbp, 16
	movzbl	%bl, %edi
	movzbl	%r15b, %esi
	movzbl	%r14b, %edx
	callq	mmed3.72
	movzbl	%al, %eax
	addq	$8, %rsp
	popq	%rbx
	popq	%r14
	popq	%r15
	popq	%rbp
	.cfi_def_cfa %rsp, 8
	retq
.LBB7_9:                                # %func_mmed3.81
	.cfi_def_cfa %rbp, 16
	movzbl	%bl, %edi
	movzbl	%r15b, %esi
	movzbl	%r14b, %edx
	callq	mmed3.81
	movzbl	%al, %eax
	addq	$8, %rsp
	popq	%rbx
	popq	%r14
	popq	%r15
	popq	%rbp
	.cfi_def_cfa %rsp, 8
	retq
.LBB7_10:                               # %func_mmed3.108
	.cfi_def_cfa %rbp, 16
	movzbl	%bl, %edi
	movzbl	%r15b, %esi
	movzbl	%r14b, %edx
	callq	mmed3.108
	movzbl	%al, %eax
	addq	$8, %rsp
	popq	%rbx
	popq	%r14
	popq	%r15
	popq	%rbp
	.cfi_def_cfa %rsp, 8
	retq
.LBB7_11:                               # %func_mmed3.119
	.cfi_def_cfa %rbp, 16
	movzbl	%bl, %edi
	movzbl	%r15b, %esi
	movzbl	%r14b, %edx
	callq	mmed3.119
	movzbl	%al, %eax
	addq	$8, %rsp
	popq	%rbx
	popq	%r14
	popq	%r15
	popq	%rbp
	.cfi_def_cfa %rsp, 8
	retq
.LBB7_12:                               # %func_mmed3.120
	.cfi_def_cfa %rbp, 16
	movzbl	%bl, %edi
	movzbl	%r15b, %esi
	movzbl	%r14b, %edx
	callq	mmed3.120
	movzbl	%al, %eax
	addq	$8, %rsp
	popq	%rbx
	popq	%r14
	popq	%r15
	popq	%rbp
	.cfi_def_cfa %rsp, 8
	retq
.LBB7_13:                               # %func_mmed3.121
	.cfi_def_cfa %rbp, 16
	movzbl	%bl, %edi
	movzbl	%r15b, %esi
	movzbl	%r14b, %edx
	callq	mmed3.121
	movzbl	%al, %eax
	addq	$8, %rsp
	popq	%rbx
	popq	%r14
	popq	%r15
	popq	%rbp
	.cfi_def_cfa %rsp, 8
	retq
.LBB7_14:                               # %func_mmed3.124
	.cfi_def_cfa %rbp, 16
	movzbl	%bl, %edi
	movzbl	%r15b, %esi
	movzbl	%r14b, %edx
	callq	mmed3.124
	movzbl	%al, %eax
	addq	$8, %rsp
	popq	%rbx
	popq	%r14
	popq	%r15
	popq	%rbp
	.cfi_def_cfa %rsp, 8
	retq
.LBB7_15:                               # %func_mmed3.130
	.cfi_def_cfa %rbp, 16
	movzbl	%bl, %edi
	movzbl	%r15b, %esi
	movzbl	%r14b, %edx
	callq	mmed3.130
	movzbl	%al, %eax
	addq	$8, %rsp
	popq	%rbx
	popq	%r14
	popq	%r15
	popq	%rbp
	.cfi_def_cfa %rsp, 8
	retq
.LBB7_16:                               # %func_mmed3.141
	.cfi_def_cfa %rbp, 16
	movzbl	%bl, %edi
	movzbl	%r15b, %esi
	movzbl	%r14b, %edx
	callq	mmed3.141
	movzbl	%al, %eax
	addq	$8, %rsp
	popq	%rbx
	popq	%r14
	popq	%r15
	popq	%rbp
	.cfi_def_cfa %rsp, 8
	retq
.LBB7_17:                               # %ctrl0
	.cfi_def_cfa %rbp, 16
	cmpl	$1, %eax
	je	.LBB7_2
# %bb.18:                               # %ctrl1
	cmpl	$2, %eax
	je	.LBB7_3
# %bb.19:                               # %ctrl2
	cmpl	$3, %eax
	je	.LBB7_4
# %bb.20:                               # %ctrl3
	cmpl	$4, %eax
	je	.LBB7_5
# %bb.21:                               # %ctrl4
	cmpl	$5, %eax
	je	.LBB7_6
# %bb.22:                               # %ctrl5
	cmpl	$6, %eax
	je	.LBB7_7
# %bb.23:                               # %ctrl6
	cmpl	$7, %eax
	je	.LBB7_8
# %bb.24:                               # %ctrl7
	cmpl	$8, %eax
	je	.LBB7_9
# %bb.25:                               # %ctrl8
	cmpl	$9, %eax
	je	.LBB7_10
# %bb.26:                               # %ctrl9
	cmpl	$10, %eax
	je	.LBB7_11
# %bb.27:                               # %ctrl10
	cmpl	$11, %eax
	je	.LBB7_12
# %bb.28:                               # %ctrl11
	cmpl	$12, %eax
	je	.LBB7_13
# %bb.29:                               # %ctrl12
	cmpl	$13, %eax
	je	.LBB7_14
# %bb.30:                               # %ctrl13
	cmpl	$14, %eax
	je	.LBB7_15
	jmp	.LBB7_16
.Lfunc_end7:
	.size	mmed3, .Lfunc_end7-mmed3
	.cfi_endproc
                                        # -- End function
	.p2align	4, 0x90         # -- Begin function mainGtU
	.type	mainGtU,@function
mainGtU:                                # @mainGtU
	.cfi_startproc
# %bb.0:                                # %rand_bb
	pushq	%rbp
	.cfi_def_cfa_offset 16
	.cfi_offset %rbp, -16
	movq	%rsp, %rbp
	.cfi_def_cfa_register %rbp
	pushq	%r15
	pushq	%r14
	pushq	%r13
	pushq	%r12
	pushq	%rbx
	pushq	%rax
	.cfi_offset %rbx, -56
	.cfi_offset %r12, -48
	.cfi_offset %r13, -40
	.cfi_offset %r14, -32
	.cfi_offset %r15, -24
	movq	%r9, -48(%rbp)          # 8-byte Spill
	movl	%r8d, %r12d
	movq	%rcx, %r13
	movq	%rdx, %rbx
	movl	%esi, %r14d
	movl	%edi, %r15d
	callq	get_urand
	cmpl	$0, %eax
	jne	.LBB8_17
# %bb.1:                                # %func_mainGtU.14
	movl	%r15d, %edi
	movl	%r14d, %esi
	movq	%rbx, %rdx
	movq	%r13, %rcx
	movl	%r12d, %r8d
	movq	-48(%rbp), %r9          # 8-byte Reload
	callq	mainGtU.14
	movzbl	%al, %eax
	addq	$8, %rsp
	popq	%rbx
	popq	%r12
	popq	%r13
	popq	%r14
	popq	%r15
	popq	%rbp
	.cfi_def_cfa %rsp, 8
	retq
.LBB8_2:                                # %func_mainGtU.18
	.cfi_def_cfa %rbp, 16
	movq	%r13, %rcx
	movl	%r11d, %r8d
	movq	%r10, %r9
	callq	mainGtU.18
	movzbl	%al, %eax
	addq	$8, %rsp
	popq	%rbx
	popq	%r12
	popq	%r13
	popq	%r14
	popq	%r15
	popq	%rbp
	.cfi_def_cfa %rsp, 8
	retq
.LBB8_3:                                # %func_mainGtU.31
	.cfi_def_cfa %rbp, 16
	movl	%ebx, %edi
	movl	%r14d, %esi
	movq	%r12, %rdx
	movq	%r15, %rcx
	callq	mainGtU.31
	movzbl	%al, %eax
	addq	$8, %rsp
	popq	%rbx
	popq	%r12
	popq	%r13
	popq	%r14
	popq	%r15
	popq	%rbp
	.cfi_def_cfa %rsp, 8
	retq
.LBB8_4:                                # %func_mainGtU.34
	.cfi_def_cfa %rbp, 16
	movl	%ebx, %edi
	movl	%r14d, %esi
	movq	%r12, %rdx
	movq	%r15, %rcx
	callq	mainGtU.34
	movzbl	%al, %eax
	addq	$8, %rsp
	popq	%rbx
	popq	%r12
	popq	%r13
	popq	%r14
	popq	%r15
	popq	%rbp
	.cfi_def_cfa %rsp, 8
	retq
.LBB8_5:                                # %func_mainGtU.35
	.cfi_def_cfa %rbp, 16
	movl	%ebx, %edi
	movl	%r14d, %esi
	movq	%r12, %rdx
	movq	%r15, %rcx
	callq	mainGtU.35
	movzbl	%al, %eax
	addq	$8, %rsp
	popq	%rbx
	popq	%r12
	popq	%r13
	popq	%r14
	popq	%r15
	popq	%rbp
	.cfi_def_cfa %rsp, 8
	retq
.LBB8_6:                                # %func_mainGtU.38
	.cfi_def_cfa %rbp, 16
	movl	%ebx, %edi
	movl	%r14d, %esi
	movq	%r12, %rdx
	movq	%r15, %rcx
	callq	mainGtU.38
	movzbl	%al, %eax
	addq	$8, %rsp
	popq	%rbx
	popq	%r12
	popq	%r13
	popq	%r14
	popq	%r15
	popq	%rbp
	.cfi_def_cfa %rsp, 8
	retq
.LBB8_7:                                # %func_mainGtU.41
	.cfi_def_cfa %rbp, 16
	movl	%ebx, %edi
	movl	%r14d, %esi
	movq	%r12, %rdx
	movq	%r15, %rcx
	callq	mainGtU.41
	movzbl	%al, %eax
	addq	$8, %rsp
	popq	%rbx
	popq	%r12
	popq	%r13
	popq	%r14
	popq	%r15
	popq	%rbp
	.cfi_def_cfa %rsp, 8
	retq
.LBB8_8:                                # %func_mainGtU.54
	.cfi_def_cfa %rbp, 16
	movl	%ebx, %edi
	movl	%r14d, %esi
	movq	%r12, %rdx
	movq	%r15, %rcx
	callq	mainGtU.54
	movzbl	%al, %eax
	addq	$8, %rsp
	popq	%rbx
	popq	%r12
	popq	%r13
	popq	%r14
	popq	%r15
	popq	%rbp
	.cfi_def_cfa %rsp, 8
	retq
.LBB8_9:                                # %func_mainGtU.69
	.cfi_def_cfa %rbp, 16
	movl	%ebx, %edi
	movl	%r14d, %esi
	movq	%r12, %rdx
	movq	%r15, %rcx
	callq	mainGtU.69
	movzbl	%al, %eax
	addq	$8, %rsp
	popq	%rbx
	popq	%r12
	popq	%r13
	popq	%r14
	popq	%r15
	popq	%rbp
	.cfi_def_cfa %rsp, 8
	retq
.LBB8_10:                               # %func_mainGtU.83
	.cfi_def_cfa %rbp, 16
	movl	%ebx, %edi
	movl	%r14d, %esi
	movq	%r12, %rdx
	movq	%r15, %rcx
	callq	mainGtU.83
	movzbl	%al, %eax
	addq	$8, %rsp
	popq	%rbx
	popq	%r12
	popq	%r13
	popq	%r14
	popq	%r15
	popq	%rbp
	.cfi_def_cfa %rsp, 8
	retq
.LBB8_11:                               # %func_mainGtU.101
	.cfi_def_cfa %rbp, 16
	movl	%ebx, %edi
	movl	%r14d, %esi
	movq	%r12, %rdx
	movq	%r15, %rcx
	callq	mainGtU.101
	movzbl	%al, %eax
	addq	$8, %rsp
	popq	%rbx
	popq	%r12
	popq	%r13
	popq	%r14
	popq	%r15
	popq	%rbp
	.cfi_def_cfa %rsp, 8
	retq
.LBB8_12:                               # %func_mainGtU.116
	.cfi_def_cfa %rbp, 16
	movl	%ebx, %edi
	movl	%r14d, %esi
	movq	%r12, %rdx
	movq	%r15, %rcx
	callq	mainGtU.116
	movzbl	%al, %eax
	addq	$8, %rsp
	popq	%rbx
	popq	%r12
	popq	%r13
	popq	%r14
	popq	%r15
	popq	%rbp
	.cfi_def_cfa %rsp, 8
	retq
.LBB8_13:                               # %func_mainGtU.125
	.cfi_def_cfa %rbp, 16
	movl	%ebx, %edi
	movl	%r14d, %esi
	movq	%r12, %rdx
	movq	%r15, %rcx
	callq	mainGtU.125
	movzbl	%al, %eax
	addq	$8, %rsp
	popq	%rbx
	popq	%r12
	popq	%r13
	popq	%r14
	popq	%r15
	popq	%rbp
	.cfi_def_cfa %rsp, 8
	retq
.LBB8_14:                               # %func_mainGtU.134
	.cfi_def_cfa %rbp, 16
	movl	%ebx, %edi
	movl	%r14d, %esi
	movq	%r12, %rdx
	movq	%r15, %rcx
	callq	mainGtU.134
	movzbl	%al, %eax
	addq	$8, %rsp
	popq	%rbx
	popq	%r12
	popq	%r13
	popq	%r14
	popq	%r15
	popq	%rbp
	.cfi_def_cfa %rsp, 8
	retq
.LBB8_15:                               # %func_mainGtU.135
	.cfi_def_cfa %rbp, 16
	movq	%r13, %rcx
	movl	%r11d, %r8d
	movq	%r10, %r9
	callq	mainGtU.135
	movzbl	%al, %eax
	addq	$8, %rsp
	popq	%rbx
	popq	%r12
	popq	%r13
	popq	%r14
	popq	%r15
	popq	%rbp
	.cfi_def_cfa %rsp, 8
	retq
.LBB8_16:                               # %func_mainGtU.142
	.cfi_def_cfa %rbp, 16
	movq	%r13, %rcx
	movl	%r11d, %r8d
	movq	%r10, %r9
	callq	mainGtU.142
	movzbl	%al, %eax
	addq	$8, %rsp
	popq	%rbx
	popq	%r12
	popq	%r13
	popq	%r14
	popq	%r15
	popq	%rbp
	.cfi_def_cfa %rsp, 8
	retq
.LBB8_17:                               # %ctrl0
	.cfi_def_cfa %rbp, 16
	movl	%r15d, %edi
	movl	%r14d, %esi
	movq	%rbx, %rdx
	movl	%r12d, %r11d
	movq	-48(%rbp), %r10         # 8-byte Reload
	cmpl	$1, %eax
	je	.LBB8_2
# %bb.18:                               # %ctrl1
	cmpl	$2, %eax
	movq	%r10, %r9
	movl	%r11d, %r8d
	movq	%r13, %r15
	movq	%rdx, %r12
	movl	%esi, %r14d
	movl	%edi, %ebx
	je	.LBB8_3
# %bb.19:                               # %ctrl2
	cmpl	$3, %eax
	je	.LBB8_4
# %bb.20:                               # %ctrl3
	cmpl	$4, %eax
	je	.LBB8_5
# %bb.21:                               # %ctrl4
	cmpl	$5, %eax
	je	.LBB8_6
# %bb.22:                               # %ctrl5
	cmpl	$6, %eax
	je	.LBB8_7
# %bb.23:                               # %ctrl6
	cmpl	$7, %eax
	je	.LBB8_8
# %bb.24:                               # %ctrl7
	cmpl	$8, %eax
	je	.LBB8_9
# %bb.25:                               # %ctrl8
	cmpl	$9, %eax
	je	.LBB8_10
# %bb.26:                               # %ctrl9
	cmpl	$10, %eax
	je	.LBB8_11
# %bb.27:                               # %ctrl10
	cmpl	$11, %eax
	je	.LBB8_12
# %bb.28:                               # %ctrl11
	cmpl	$12, %eax
	je	.LBB8_13
# %bb.29:                               # %ctrl12
	cmpl	$13, %eax
	je	.LBB8_14
# %bb.30:                               # %ctrl13
	cmpl	$14, %eax
	je	.LBB8_15
	jmp	.LBB8_16
.Lfunc_end8:
	.size	mainGtU, .Lfunc_end8-mainGtU
	.cfi_endproc
                                        # -- End function
	.p2align	4, 0x90         # -- Begin function fallbackSort.1
	.type	fallbackSort.1,@function
fallbackSort.1:                         # @fallbackSort.1
	.cfi_startproc
# %bb.0:                                # %entry
	pushq	%rbp
	.cfi_def_cfa_offset 16
	.cfi_offset %rbp, -16
	movq	%rsp, %rbp
	.cfi_def_cfa_register %rbp
	subq	$2144, %rsp             # imm = 0x860
	movl	$80434496, -88(%rbp)    # imm = 0x4CB5540
	movq	%rdi, -56(%rbp)
	movq	%rsi, -72(%rbp)
	movq	%rdx, -32(%rbp)
	movl	%ecx, -12(%rbp)
	movl	%r8d, -44(%rbp)
	movq	-72(%rbp), %rax
	movq	%rax, -80(%rbp)
	cmpl	$4, -44(%rbp)
	jl	.LBB9_2
# %bb.1:                                # %if.then
	movq	stderr, %rdi
	movabsq	$.L.str.2, %rsi
	movb	$0, %al
	callq	fprintf
.LBB9_2:                                # %if.end
	movl	$0, -4(%rbp)
.LBB9_3:                                # %for.cond
                                        # =>This Inner Loop Header: Depth=1
	cmpl	$257, -4(%rbp)          # imm = 0x101
	jge	.LBB9_6
# %bb.4:                                # %for.body
                                        #   in Loop: Header=BB9_3 Depth=1
	movslq	-4(%rbp), %rax
	movl	$0, -1120(%rbp,%rax,4)
# %bb.5:                                # %for.inc
                                        #   in Loop: Header=BB9_3 Depth=1
	movl	-4(%rbp), %eax
	addl	$1, %eax
	movl	%eax, -4(%rbp)
	jmp	.LBB9_3
.LBB9_6:                                # %for.end
	movl	$0, -4(%rbp)
.LBB9_7:                                # %for.cond2
                                        # =>This Inner Loop Header: Depth=1
	movl	-4(%rbp), %eax
	cmpl	-12(%rbp), %eax
	jge	.LBB9_10
# %bb.8:                                # %for.body4
                                        #   in Loop: Header=BB9_7 Depth=1
	movq	-80(%rbp), %rax
	movslq	-4(%rbp), %rcx
	movzbl	(%rax,%rcx), %eax
	movl	-1120(%rbp,%rax,4), %ecx
	addl	$1, %ecx
	movl	%ecx, -1120(%rbp,%rax,4)
# %bb.9:                                # %for.inc10
                                        #   in Loop: Header=BB9_7 Depth=1
	movl	-4(%rbp), %eax
	addl	$1, %eax
	movl	%eax, -4(%rbp)
	jmp	.LBB9_7
.LBB9_10:                               # %for.end12
	movl	$0, -4(%rbp)
.LBB9_11:                               # %for.cond13
                                        # =>This Inner Loop Header: Depth=1
	cmpl	$256, -4(%rbp)          # imm = 0x100
	jge	.LBB9_14
# %bb.12:                               # %for.body15
                                        #   in Loop: Header=BB9_11 Depth=1
	movslq	-4(%rbp), %rax
	movl	-1120(%rbp,%rax,4), %eax
	movslq	-4(%rbp), %rcx
	movl	%eax, -2144(%rbp,%rcx,4)
# %bb.13:                               # %for.inc20
                                        #   in Loop: Header=BB9_11 Depth=1
	movl	-4(%rbp), %eax
	addl	$1, %eax
	movl	%eax, -4(%rbp)
	jmp	.LBB9_11
.LBB9_14:                               # %for.end22
	movl	$1, -4(%rbp)
.LBB9_15:                               # %for.cond23
                                        # =>This Inner Loop Header: Depth=1
	cmpl	$257, -4(%rbp)          # imm = 0x101
	jge	.LBB9_18
# %bb.16:                               # %for.body25
                                        #   in Loop: Header=BB9_15 Depth=1
	movl	-4(%rbp), %eax
	subl	$1, %eax
	cltq
	movl	-1120(%rbp,%rax,4), %eax
	movslq	-4(%rbp), %rcx
	addl	-1120(%rbp,%rcx,4), %eax
	movl	%eax, -1120(%rbp,%rcx,4)
# %bb.17:                               # %for.inc30
                                        #   in Loop: Header=BB9_15 Depth=1
	movl	-4(%rbp), %eax
	addl	$1, %eax
	movl	%eax, -4(%rbp)
	jmp	.LBB9_15
.LBB9_18:                               # %for.end32
	movl	$0, -4(%rbp)
.LBB9_19:                               # %for.cond33
                                        # =>This Inner Loop Header: Depth=1
	movl	-4(%rbp), %eax
	cmpl	-12(%rbp), %eax
	jge	.LBB9_22
# %bb.20:                               # %for.body35
                                        #   in Loop: Header=BB9_19 Depth=1
	movq	-80(%rbp), %rax
	movslq	-4(%rbp), %rcx
	movzbl	(%rax,%rcx), %eax
	movl	%eax, -16(%rbp)
	movslq	-16(%rbp), %rax
	movl	-1120(%rbp,%rax,4), %eax
	subl	$1, %eax
	movl	%eax, -8(%rbp)
	movl	-8(%rbp), %eax
	movslq	-16(%rbp), %rcx
	movl	%eax, -1120(%rbp,%rcx,4)
	movl	-4(%rbp), %eax
	movq	-56(%rbp), %rcx
	movslq	-8(%rbp), %rdx
	movl	%eax, (%rcx,%rdx,4)
# %bb.21:                               # %for.inc45
                                        #   in Loop: Header=BB9_19 Depth=1
	movl	-4(%rbp), %eax
	addl	$1, %eax
	movl	%eax, -4(%rbp)
	jmp	.LBB9_19
.LBB9_22:                               # %for.end47
	movl	-12(%rbp), %eax
	cltd
	movl	$32, %ecx
	idivl	%ecx
	addl	$2, %eax
	movl	%eax, -84(%rbp)
	movl	$0, -4(%rbp)
.LBB9_23:                               # %for.cond49
                                        # =>This Inner Loop Header: Depth=1
	movl	-4(%rbp), %eax
	cmpl	-84(%rbp), %eax
	jge	.LBB9_26
# %bb.24:                               # %for.body52
                                        #   in Loop: Header=BB9_23 Depth=1
	movq	-32(%rbp), %rax
	movslq	-4(%rbp), %rcx
	movl	$0, (%rax,%rcx,4)
# %bb.25:                               # %for.inc55
                                        #   in Loop: Header=BB9_23 Depth=1
	movl	-4(%rbp), %eax
	addl	$1, %eax
	movl	%eax, -4(%rbp)
	jmp	.LBB9_23
.LBB9_26:                               # %for.end57
	movl	$0, -4(%rbp)
.LBB9_27:                               # %for.cond58
                                        # =>This Inner Loop Header: Depth=1
	cmpl	$256, -4(%rbp)          # imm = 0x100
	jge	.LBB9_30
# %bb.28:                               # %for.body61
                                        #   in Loop: Header=BB9_27 Depth=1
	movslq	-4(%rbp), %rax
	movl	-1120(%rbp,%rax,4), %ecx
	andl	$31, %ecx
                                        # kill: def $cl killed $ecx
	movl	$1, %eax
	shll	%cl, %eax
	movq	-32(%rbp), %rcx
	movslq	-4(%rbp), %rdx
	movl	-1120(%rbp,%rdx,4), %edx
	sarl	$5, %edx
	movslq	%edx, %rdx
	orl	(%rcx,%rdx,4), %eax
	movl	%eax, (%rcx,%rdx,4)
# %bb.29:                               # %for.inc68
                                        #   in Loop: Header=BB9_27 Depth=1
	movl	-4(%rbp), %eax
	addl	$1, %eax
	movl	%eax, -4(%rbp)
	jmp	.LBB9_27
.LBB9_30:                               # %for.end70
	movl	$0, -4(%rbp)
.LBB9_31:                               # %for.cond71
                                        # =>This Inner Loop Header: Depth=1
	cmpl	$32, -4(%rbp)
	jge	.LBB9_34
# %bb.32:                               # %for.body74
                                        #   in Loop: Header=BB9_31 Depth=1
	movl	-12(%rbp), %ecx
	movl	-4(%rbp), %eax
	shll	$1, %eax
	addl	%eax, %ecx
	andl	$31, %ecx
                                        # kill: def $cl killed $ecx
	movl	$1, %eax
	movl	$1, %edx
	shll	%cl, %edx
	movq	-32(%rbp), %rcx
	movl	-12(%rbp), %esi
	movl	-4(%rbp), %edi
	shll	$1, %edi
	addl	%edi, %esi
	sarl	$5, %esi
	movslq	%esi, %rsi
	orl	(%rcx,%rsi,4), %edx
	movl	%edx, (%rcx,%rsi,4)
	movl	-12(%rbp), %ecx
	movl	-4(%rbp), %edx
	shll	$1, %edx
	addl	%edx, %ecx
	addl	$1, %ecx
	andl	$31, %ecx
                                        # kill: def $cl killed $ecx
	shll	%cl, %eax
	xorl	$-1, %eax
	movq	-32(%rbp), %rcx
	movl	-12(%rbp), %edx
	movl	-4(%rbp), %esi
	shll	$1, %esi
	addl	%esi, %edx
	addl	$1, %edx
	sarl	$5, %edx
	movslq	%edx, %rdx
	andl	(%rcx,%rdx,4), %eax
	movl	%eax, (%rcx,%rdx,4)
# %bb.33:                               # %for.inc96
                                        #   in Loop: Header=BB9_31 Depth=1
	movl	-4(%rbp), %eax
	addl	$1, %eax
	movl	%eax, -4(%rbp)
	jmp	.LBB9_31
.LBB9_34:                               # %for.end98
	movl	$1, -36(%rbp)
.LBB9_35:                               # %while.body
                                        # =>This Loop Header: Depth=1
                                        #     Child Loop BB9_38 Depth 2
                                        #     Child Loop BB9_46 Depth 2
                                        #       Child Loop BB9_47 Depth 3
                                        #       Child Loop BB9_53 Depth 3
                                        #       Child Loop BB9_56 Depth 3
                                        #       Child Loop BB9_62 Depth 3
                                        #       Child Loop BB9_68 Depth 3
                                        #       Child Loop BB9_71 Depth 3
                                        #       Child Loop BB9_78 Depth 3
	cmpl	$4, -44(%rbp)
	jl	.LBB9_37
# %bb.36:                               # %if.then101
                                        #   in Loop: Header=BB9_35 Depth=1
	movq	stderr, %rdi
	movl	-36(%rbp), %edx
	movabsq	$.L.str.3, %rsi
	movb	$0, %al
	callq	fprintf
.LBB9_37:                               # %if.end103
                                        #   in Loop: Header=BB9_35 Depth=1
	movl	$0, -16(%rbp)
	movl	$0, -4(%rbp)
.LBB9_38:                               # %for.cond104
                                        #   Parent Loop BB9_35 Depth=1
                                        # =>  This Inner Loop Header: Depth=2
	movl	-4(%rbp), %eax
	cmpl	-12(%rbp), %eax
	jge	.LBB9_45
# %bb.39:                               # %for.body107
                                        #   in Loop: Header=BB9_38 Depth=2
	movq	-32(%rbp), %rax
	movl	-4(%rbp), %ecx
	sarl	$5, %ecx
	movslq	%ecx, %rcx
	movl	(%rax,%rcx,4), %eax
	movl	-4(%rbp), %ecx
	andl	$31, %ecx
                                        # kill: def $cl killed $ecx
	movl	$1, %edx
	shll	%cl, %edx
	andl	%edx, %eax
	cmpl	$0, %eax
	je	.LBB9_41
# %bb.40:                               # %if.then114
                                        #   in Loop: Header=BB9_38 Depth=2
	movl	-4(%rbp), %eax
	movl	%eax, -16(%rbp)
.LBB9_41:                               # %if.end115
                                        #   in Loop: Header=BB9_38 Depth=2
	movq	-56(%rbp), %rax
	movslq	-4(%rbp), %rcx
	movl	(%rax,%rcx,4), %eax
	subl	-36(%rbp), %eax
	movl	%eax, -8(%rbp)
	cmpl	$0, -8(%rbp)
	jge	.LBB9_43
# %bb.42:                               # %if.then121
                                        #   in Loop: Header=BB9_38 Depth=2
	movl	-12(%rbp), %eax
	addl	-8(%rbp), %eax
	movl	%eax, -8(%rbp)
.LBB9_43:                               # %if.end123
                                        #   in Loop: Header=BB9_38 Depth=2
	movl	-16(%rbp), %eax
	movq	-72(%rbp), %rcx
	movslq	-8(%rbp), %rdx
	movl	%eax, (%rcx,%rdx,4)
# %bb.44:                               # %for.inc126
                                        #   in Loop: Header=BB9_38 Depth=2
	movl	-4(%rbp), %eax
	addl	$1, %eax
	movl	%eax, -4(%rbp)
	jmp	.LBB9_38
.LBB9_45:                               # %for.end128
                                        #   in Loop: Header=BB9_35 Depth=1
	movl	$0, -48(%rbp)
	movl	$-1, -20(%rbp)
.LBB9_46:                               # %while.body130
                                        #   Parent Loop BB9_35 Depth=1
                                        # =>  This Loop Header: Depth=2
                                        #       Child Loop BB9_47 Depth 3
                                        #       Child Loop BB9_53 Depth 3
                                        #       Child Loop BB9_56 Depth 3
                                        #       Child Loop BB9_62 Depth 3
                                        #       Child Loop BB9_68 Depth 3
                                        #       Child Loop BB9_71 Depth 3
                                        #       Child Loop BB9_78 Depth 3
	movl	-20(%rbp), %eax
	addl	$1, %eax
	movl	%eax, -8(%rbp)
.LBB9_47:                               # %while.cond132
                                        #   Parent Loop BB9_35 Depth=1
                                        #     Parent Loop BB9_46 Depth=2
                                        # =>    This Inner Loop Header: Depth=3
	xorl	%eax, %eax
	movq	-32(%rbp), %rcx
	movl	-8(%rbp), %edx
	sarl	$5, %edx
	movslq	%edx, %rdx
	movl	(%rcx,%rdx,4), %edx
	movl	-8(%rbp), %ecx
	andl	$31, %ecx
                                        # kill: def $cl killed $ecx
	movl	$1, %esi
	shll	%cl, %esi
	andl	%esi, %edx
	cmpl	$0, %edx
	je	.LBB9_49
# %bb.48:                               # %land.rhs
                                        #   in Loop: Header=BB9_47 Depth=3
	movl	-8(%rbp), %eax
	andl	$31, %eax
	cmpl	$0, %eax
	setne	%al
.LBB9_49:                               # %land.end
                                        #   in Loop: Header=BB9_47 Depth=3
	testb	$1, %al
	jne	.LBB9_50
	jmp	.LBB9_51
.LBB9_50:                               # %while.body142
                                        #   in Loop: Header=BB9_47 Depth=3
	movl	-8(%rbp), %eax
	addl	$1, %eax
	movl	%eax, -8(%rbp)
	jmp	.LBB9_47
.LBB9_51:                               # %while.end
                                        #   in Loop: Header=BB9_46 Depth=2
	movq	-32(%rbp), %rax
	movl	-8(%rbp), %ecx
	sarl	$5, %ecx
	movslq	%ecx, %rcx
	movl	(%rax,%rcx,4), %eax
	movl	-8(%rbp), %ecx
	andl	$31, %ecx
                                        # kill: def $cl killed $ecx
	movl	$1, %edx
	shll	%cl, %edx
	andl	%edx, %eax
	cmpl	$0, %eax
	je	.LBB9_59
# %bb.52:                               # %if.then151
                                        #   in Loop: Header=BB9_46 Depth=2
	jmp	.LBB9_53
.LBB9_53:                               # %while.cond152
                                        #   Parent Loop BB9_35 Depth=1
                                        #     Parent Loop BB9_46 Depth=2
                                        # =>    This Inner Loop Header: Depth=3
	movq	-32(%rbp), %rax
	movl	-8(%rbp), %ecx
	sarl	$5, %ecx
	movslq	%ecx, %rcx
	cmpl	$-1, (%rax,%rcx,4)
	jne	.LBB9_55
# %bb.54:                               # %while.body158
                                        #   in Loop: Header=BB9_53 Depth=3
	movl	-8(%rbp), %eax
	addl	$32, %eax
	movl	%eax, -8(%rbp)
	jmp	.LBB9_53
.LBB9_55:                               # %while.end160
                                        #   in Loop: Header=BB9_46 Depth=2
	jmp	.LBB9_56
.LBB9_56:                               # %while.cond161
                                        #   Parent Loop BB9_35 Depth=1
                                        #     Parent Loop BB9_46 Depth=2
                                        # =>    This Inner Loop Header: Depth=3
	movq	-32(%rbp), %rax
	movl	-8(%rbp), %ecx
	sarl	$5, %ecx
	movslq	%ecx, %rcx
	movl	(%rax,%rcx,4), %eax
	movl	-8(%rbp), %ecx
	andl	$31, %ecx
                                        # kill: def $cl killed $ecx
	movl	$1, %edx
	shll	%cl, %edx
	andl	%edx, %eax
	cmpl	$0, %eax
	je	.LBB9_58
# %bb.57:                               # %while.body169
                                        #   in Loop: Header=BB9_56 Depth=3
	movl	-8(%rbp), %eax
	addl	$1, %eax
	movl	%eax, -8(%rbp)
	jmp	.LBB9_56
.LBB9_58:                               # %while.end171
                                        #   in Loop: Header=BB9_46 Depth=2
	jmp	.LBB9_59
.LBB9_59:                               # %if.end172
                                        #   in Loop: Header=BB9_46 Depth=2
	movl	-8(%rbp), %eax
	subl	$1, %eax
	movl	%eax, -40(%rbp)
	movl	-40(%rbp), %eax
	cmpl	-12(%rbp), %eax
	jl	.LBB9_61
# %bb.60:                               # %if.then176
                                        #   in Loop: Header=BB9_35 Depth=1
	jmp	.LBB9_85
.LBB9_61:                               # %if.end177
                                        #   in Loop: Header=BB9_46 Depth=2
	jmp	.LBB9_62
.LBB9_62:                               # %while.cond178
                                        #   Parent Loop BB9_35 Depth=1
                                        #     Parent Loop BB9_46 Depth=2
                                        # =>    This Inner Loop Header: Depth=3
	xorl	%eax, %eax
	movq	-32(%rbp), %rcx
	movl	-8(%rbp), %edx
	sarl	$5, %edx
	movslq	%edx, %rdx
	movl	(%rcx,%rdx,4), %edx
	movl	-8(%rbp), %ecx
	andl	$31, %ecx
                                        # kill: def $cl killed $ecx
	movl	$1, %esi
	shll	%cl, %esi
	andl	%esi, %edx
	cmpl	$0, %edx
	jne	.LBB9_64
# %bb.63:                               # %land.rhs186
                                        #   in Loop: Header=BB9_62 Depth=3
	movl	-8(%rbp), %eax
	andl	$31, %eax
	cmpl	$0, %eax
	setne	%al
.LBB9_64:                               # %land.end189
                                        #   in Loop: Header=BB9_62 Depth=3
	testb	$1, %al
	jne	.LBB9_65
	jmp	.LBB9_66
.LBB9_65:                               # %while.body190
                                        #   in Loop: Header=BB9_62 Depth=3
	movl	-8(%rbp), %eax
	addl	$1, %eax
	movl	%eax, -8(%rbp)
	jmp	.LBB9_62
.LBB9_66:                               # %while.end192
                                        #   in Loop: Header=BB9_46 Depth=2
	movq	-32(%rbp), %rax
	movl	-8(%rbp), %ecx
	sarl	$5, %ecx
	movslq	%ecx, %rcx
	movl	(%rax,%rcx,4), %eax
	movl	-8(%rbp), %ecx
	andl	$31, %ecx
                                        # kill: def $cl killed $ecx
	movl	$1, %edx
	shll	%cl, %edx
	andl	%edx, %eax
	cmpl	$0, %eax
	jne	.LBB9_74
# %bb.67:                               # %if.then200
                                        #   in Loop: Header=BB9_46 Depth=2
	jmp	.LBB9_68
.LBB9_68:                               # %while.cond201
                                        #   Parent Loop BB9_35 Depth=1
                                        #     Parent Loop BB9_46 Depth=2
                                        # =>    This Inner Loop Header: Depth=3
	movq	-32(%rbp), %rax
	movl	-8(%rbp), %ecx
	sarl	$5, %ecx
	movslq	%ecx, %rcx
	cmpl	$0, (%rax,%rcx,4)
	jne	.LBB9_70
# %bb.69:                               # %while.body207
                                        #   in Loop: Header=BB9_68 Depth=3
	movl	-8(%rbp), %eax
	addl	$32, %eax
	movl	%eax, -8(%rbp)
	jmp	.LBB9_68
.LBB9_70:                               # %while.end209
                                        #   in Loop: Header=BB9_46 Depth=2
	jmp	.LBB9_71
.LBB9_71:                               # %while.cond210
                                        #   Parent Loop BB9_35 Depth=1
                                        #     Parent Loop BB9_46 Depth=2
                                        # =>    This Inner Loop Header: Depth=3
	movq	-32(%rbp), %rax
	movl	-8(%rbp), %ecx
	sarl	$5, %ecx
	movslq	%ecx, %rcx
	movl	(%rax,%rcx,4), %eax
	movl	-8(%rbp), %ecx
	andl	$31, %ecx
                                        # kill: def $cl killed $ecx
	movl	$1, %edx
	shll	%cl, %edx
	andl	%edx, %eax
	cmpl	$0, %eax
	setne	%al
	xorb	$-1, %al
	testb	$1, %al
	jne	.LBB9_72
	jmp	.LBB9_73
.LBB9_72:                               # %while.body218
                                        #   in Loop: Header=BB9_71 Depth=3
	movl	-8(%rbp), %eax
	addl	$1, %eax
	movl	%eax, -8(%rbp)
	jmp	.LBB9_71
.LBB9_73:                               # %while.end220
                                        #   in Loop: Header=BB9_46 Depth=2
	jmp	.LBB9_74
.LBB9_74:                               # %if.end221
                                        #   in Loop: Header=BB9_46 Depth=2
	movl	-8(%rbp), %eax
	subl	$1, %eax
	movl	%eax, -20(%rbp)
	movl	-20(%rbp), %eax
	cmpl	-12(%rbp), %eax
	jl	.LBB9_76
# %bb.75:                               # %if.then225
                                        #   in Loop: Header=BB9_35 Depth=1
	jmp	.LBB9_85
.LBB9_76:                               # %if.end226
                                        #   in Loop: Header=BB9_46 Depth=2
	movl	-20(%rbp), %eax
	cmpl	-40(%rbp), %eax
	jle	.LBB9_84
# %bb.77:                               # %if.then229
                                        #   in Loop: Header=BB9_46 Depth=2
	movl	-20(%rbp), %eax
	subl	-40(%rbp), %eax
	addl	$1, %eax
	addl	-48(%rbp), %eax
	movl	%eax, -48(%rbp)
	movq	-56(%rbp), %rdi
	movq	-72(%rbp), %rsi
	movl	-40(%rbp), %edx
	movl	-20(%rbp), %ecx
	callq	fallbackQSort3
	movl	$-1, -64(%rbp)
	movl	-40(%rbp), %eax
	movl	%eax, -4(%rbp)
.LBB9_78:                               # %for.cond233
                                        #   Parent Loop BB9_35 Depth=1
                                        #     Parent Loop BB9_46 Depth=2
                                        # =>    This Inner Loop Header: Depth=3
	movl	-4(%rbp), %eax
	cmpl	-20(%rbp), %eax
	jg	.LBB9_83
# %bb.79:                               # %for.body236
                                        #   in Loop: Header=BB9_78 Depth=3
	movq	-72(%rbp), %rax
	movq	-56(%rbp), %rcx
	movslq	-4(%rbp), %rdx
	movl	(%rcx,%rdx,4), %ecx
	movl	(%rax,%rcx,4), %eax
	movl	%eax, -60(%rbp)
	movl	-64(%rbp), %eax
	cmpl	-60(%rbp), %eax
	je	.LBB9_81
# %bb.80:                               # %if.then243
                                        #   in Loop: Header=BB9_78 Depth=3
	movl	-4(%rbp), %ecx
	andl	$31, %ecx
                                        # kill: def $cl killed $ecx
	movl	$1, %eax
	shll	%cl, %eax
	movq	-32(%rbp), %rcx
	movl	-4(%rbp), %edx
	sarl	$5, %edx
	movslq	%edx, %rdx
	orl	(%rcx,%rdx,4), %eax
	movl	%eax, (%rcx,%rdx,4)
	movl	-60(%rbp), %eax
	movl	%eax, -64(%rbp)
.LBB9_81:                               # %if.end250
                                        #   in Loop: Header=BB9_78 Depth=3
	jmp	.LBB9_82
.LBB9_82:                               # %for.inc251
                                        #   in Loop: Header=BB9_78 Depth=3
	movl	-4(%rbp), %eax
	addl	$1, %eax
	movl	%eax, -4(%rbp)
	jmp	.LBB9_78
.LBB9_83:                               # %for.end253
                                        #   in Loop: Header=BB9_46 Depth=2
	jmp	.LBB9_84
.LBB9_84:                               # %if.end254
                                        #   in Loop: Header=BB9_46 Depth=2
	jmp	.LBB9_46
.LBB9_85:                               # %while.end255
                                        #   in Loop: Header=BB9_35 Depth=1
	cmpl	$4, -44(%rbp)
	jl	.LBB9_87
# %bb.86:                               # %if.then258
                                        #   in Loop: Header=BB9_35 Depth=1
	movq	stderr, %rdi
	movl	-48(%rbp), %edx
	movabsq	$.L.str.4, %rsi
	movb	$0, %al
	callq	fprintf
.LBB9_87:                               # %if.end260
                                        #   in Loop: Header=BB9_35 Depth=1
	movl	-36(%rbp), %eax
	shll	$1, %eax
	movl	%eax, -36(%rbp)
	movl	-36(%rbp), %eax
	cmpl	-12(%rbp), %eax
	jg	.LBB9_89
# %bb.88:                               # %lor.lhs.false
                                        #   in Loop: Header=BB9_35 Depth=1
	cmpl	$0, -48(%rbp)
	jne	.LBB9_90
.LBB9_89:                               # %if.then266
	jmp	.LBB9_91
.LBB9_90:                               # %if.end267
                                        #   in Loop: Header=BB9_35 Depth=1
	jmp	.LBB9_35
.LBB9_91:                               # %while.end268
	cmpl	$4, -44(%rbp)
	jl	.LBB9_93
# %bb.92:                               # %if.then271
	movq	stderr, %rdi
	movabsq	$.L.str.5, %rsi
	movb	$0, %al
	callq	fprintf
.LBB9_93:                               # %if.end273
	movl	$0, -16(%rbp)
	movl	$0, -4(%rbp)
.LBB9_94:                               # %for.cond274
                                        # =>This Loop Header: Depth=1
                                        #     Child Loop BB9_96 Depth 2
	movl	-4(%rbp), %eax
	cmpl	-12(%rbp), %eax
	jge	.LBB9_100
# %bb.95:                               # %for.body277
                                        #   in Loop: Header=BB9_94 Depth=1
	jmp	.LBB9_96
.LBB9_96:                               # %while.cond
                                        #   Parent Loop BB9_94 Depth=1
                                        # =>  This Inner Loop Header: Depth=2
	movslq	-16(%rbp), %rax
	cmpl	$0, -2144(%rbp,%rax,4)
	jne	.LBB9_98
# %bb.97:                               # %while.body282
                                        #   in Loop: Header=BB9_96 Depth=2
	movl	-16(%rbp), %eax
	addl	$1, %eax
	movl	%eax, -16(%rbp)
	jmp	.LBB9_96
.LBB9_98:                               # %while.end284
                                        #   in Loop: Header=BB9_94 Depth=1
	movslq	-16(%rbp), %rax
	movl	-2144(%rbp,%rax,4), %ecx
	addl	$-1, %ecx
	movl	%ecx, -2144(%rbp,%rax,4)
	movl	-16(%rbp), %eax
	movq	-80(%rbp), %rcx
	movq	-56(%rbp), %rdx
	movslq	-4(%rbp), %rsi
	movl	(%rdx,%rsi,4), %edx
	movb	%al, (%rcx,%rdx)
# %bb.99:                               # %for.inc292
                                        #   in Loop: Header=BB9_94 Depth=1
	movl	-4(%rbp), %eax
	addl	$1, %eax
	movl	%eax, -4(%rbp)
	jmp	.LBB9_94
.LBB9_100:                              # %for.end294
	cmpl	$256, -16(%rbp)         # imm = 0x100
	jl	.LBB9_102
# %bb.101:                              # %if.then297
	movl	$1005, %edi             # imm = 0x3ED
	callq	BZ2_bz__AssertH__fail
.LBB9_102:                              # %if.end298
	cmpl	$80434496, -88(%rbp)    # imm = 0x4CB5540
	jne	.LBB9_104
.LBB9_103:
	addq	$2144, %rsp             # imm = 0x860
	popq	%rbp
	.cfi_def_cfa %rsp, 8
	retq
.LBB9_104:                              # %func_exit
	.cfi_def_cfa %rbp, 16
	callq	detect_breach
	jmp	.LBB9_103
.Lfunc_end9:
	.size	fallbackSort.1, .Lfunc_end9-fallbackSort.1
	.cfi_endproc
                                        # -- End function
	.globl	BZ2_blockSort.2         # -- Begin function BZ2_blockSort.2
	.p2align	4, 0x90
	.type	BZ2_blockSort.2,@function
BZ2_blockSort.2:                        # @BZ2_blockSort.2
	.cfi_startproc
# %bb.0:                                # %entry
	pushq	%rbp
	.cfi_def_cfa_offset 16
	.cfi_offset %rbp, -16
	movq	%rsp, %rbp
	.cfi_def_cfa_register %rbp
	subq	$80, %rsp
	movl	$350382887, -44(%rbp)   # imm = 0x14E26B27
	movq	%rdi, -16(%rbp)
	movq	-16(%rbp), %rax
	movq	56(%rax), %rax
	movq	%rax, -64(%rbp)
	movq	-16(%rbp), %rax
	movq	64(%rax), %rax
	movq	%rax, -56(%rbp)
	movq	-16(%rbp), %rax
	movq	40(%rax), %rax
	movq	%rax, -40(%rbp)
	movq	-16(%rbp), %rax
	movl	108(%rax), %eax
	movl	%eax, -8(%rbp)
	movq	-16(%rbp), %rax
	movl	656(%rax), %eax
	movl	%eax, -24(%rbp)
	movq	-16(%rbp), %rax
	movl	88(%rax), %eax
	movl	%eax, -20(%rbp)
	cmpl	$10000, -8(%rbp)        # imm = 0x2710
	jge	.LBB10_2
# %bb.1:                                # %if.then
	movq	-16(%rbp), %rax
	movq	24(%rax), %rdi
	movq	-16(%rbp), %rax
	movq	32(%rax), %rsi
	movq	-40(%rbp), %rdx
	movl	-8(%rbp), %ecx
	movl	-24(%rbp), %r8d
	callq	fallbackSort
	jmp	.LBB10_18
.LBB10_2:                               # %if.else
	movl	-8(%rbp), %eax
	addl	$34, %eax
	movl	%eax, -4(%rbp)
	movl	-4(%rbp), %eax
	andl	$1, %eax
	cmpl	$0, %eax
	je	.LBB10_4
# %bb.3:                                # %if.then5
	movl	-4(%rbp), %eax
	addl	$1, %eax
	movl	%eax, -4(%rbp)
.LBB10_4:                               # %if.end
	movq	-56(%rbp), %rax
	movslq	-4(%rbp), %rcx
	addq	%rcx, %rax
	movq	%rax, -72(%rbp)
	cmpl	$1, -20(%rbp)
	jge	.LBB10_6
# %bb.5:                                # %if.then7
	movl	$1, -20(%rbp)
.LBB10_6:                               # %if.end8
	cmpl	$100, -20(%rbp)
	jle	.LBB10_8
# %bb.7:                                # %if.then10
	movl	$100, -20(%rbp)
.LBB10_8:                               # %if.end11
	movl	-8(%rbp), %ecx
	movl	-20(%rbp), %eax
	subl	$1, %eax
	cltd
	movl	$3, %esi
	idivl	%esi
	imull	%eax, %ecx
	movl	%ecx, -32(%rbp)
	movl	-32(%rbp), %eax
	movl	%eax, -28(%rbp)
	movq	-64(%rbp), %rdi
	movq	-56(%rbp), %rsi
	movq	-72(%rbp), %rdx
	movq	-40(%rbp), %rcx
	movl	-8(%rbp), %r8d
	movl	-24(%rbp), %r9d
	leaq	-28(%rbp), %rax
	movq	%rax, (%rsp)
	callq	mainSort
	cmpl	$3, -24(%rbp)
	jl	.LBB10_13
# %bb.9:                                # %if.then13
	movq	stderr, %rdi
	movl	-32(%rbp), %edx
	subl	-28(%rbp), %edx
	movl	-8(%rbp), %ecx
	movl	-32(%rbp), %eax
	subl	-28(%rbp), %eax
	vcvtsi2ss	%eax, %xmm0, %xmm0
	cmpl	$0, -8(%rbp)
	jne	.LBB10_11
# %bb.10:                               # %cond.true
	movl	$1, %eax
	jmp	.LBB10_12
.LBB10_11:                              # %cond.false
	movl	-8(%rbp), %eax
.LBB10_12:                              # %cond.end
	vcvtsi2ss	%eax, %xmm0, %xmm1
	vdivss	%xmm1, %xmm0, %xmm0
	vcvtss2sd	%xmm0, %xmm0, %xmm0
	movabsq	$.L.str, %rsi
	movb	$1, %al
	callq	fprintf
.LBB10_13:                              # %if.end21
	cmpl	$0, -28(%rbp)
	jge	.LBB10_17
# %bb.14:                               # %if.then24
	cmpl	$2, -24(%rbp)
	jl	.LBB10_16
# %bb.15:                               # %if.then27
	movq	stderr, %rdi
	movabsq	$.L.str.1, %rsi
	movb	$0, %al
	callq	fprintf
.LBB10_16:                              # %if.end29
	movq	-16(%rbp), %rax
	movq	24(%rax), %rdi
	movq	-16(%rbp), %rax
	movq	32(%rax), %rsi
	movq	-40(%rbp), %rdx
	movl	-8(%rbp), %ecx
	movl	-24(%rbp), %r8d
	callq	fallbackSort
.LBB10_17:                              # %if.end32
	jmp	.LBB10_18
.LBB10_18:                              # %if.end33
	movq	-16(%rbp), %rax
	movl	$-1, 48(%rax)
	movl	$0, -4(%rbp)
.LBB10_19:                              # %for.cond
                                        # =>This Inner Loop Header: Depth=1
	movl	-4(%rbp), %eax
	movq	-16(%rbp), %rcx
	cmpl	108(%rcx), %eax
	jge	.LBB10_24
# %bb.20:                               # %for.body
                                        #   in Loop: Header=BB10_19 Depth=1
	movq	-64(%rbp), %rax
	movslq	-4(%rbp), %rcx
	cmpl	$0, (%rax,%rcx,4)
	jne	.LBB10_22
# %bb.21:                               # %if.then41
	movl	-4(%rbp), %eax
	movq	-16(%rbp), %rcx
	movl	%eax, 48(%rcx)
	jmp	.LBB10_25
.LBB10_22:                              # %if.end43
                                        #   in Loop: Header=BB10_19 Depth=1
	jmp	.LBB10_23
.LBB10_23:                              # %for.inc
                                        #   in Loop: Header=BB10_19 Depth=1
	movl	-4(%rbp), %eax
	addl	$1, %eax
	movl	%eax, -4(%rbp)
	jmp	.LBB10_19
.LBB10_24:                              # %for.end.loopexit
	jmp	.LBB10_25
.LBB10_25:                              # %for.end
	movq	-16(%rbp), %rax
	cmpl	$-1, 48(%rax)
	jne	.LBB10_27
# %bb.26:                               # %if.then48
	movl	$1003, %edi             # imm = 0x3EB
	callq	BZ2_bz__AssertH__fail
.LBB10_27:                              # %if.end49
	cmpl	$350382887, -44(%rbp)   # imm = 0x14E26B27
	jne	.LBB10_29
.LBB10_28:
	addq	$80, %rsp
	popq	%rbp
	.cfi_def_cfa %rsp, 8
	retq
.LBB10_29:                              # %func_exit
	.cfi_def_cfa %rbp, 16
	callq	detect_breach
	jmp	.LBB10_28
.Lfunc_end10:
	.size	BZ2_blockSort.2, .Lfunc_end10-BZ2_blockSort.2
	.cfi_endproc
                                        # -- End function
	.globl	BZ2_blockSort.3         # -- Begin function BZ2_blockSort.3
	.p2align	4, 0x90
	.type	BZ2_blockSort.3,@function
BZ2_blockSort.3:                        # @BZ2_blockSort.3
	.cfi_startproc
# %bb.0:                                # %entry
	pushq	%rbp
	.cfi_def_cfa_offset 16
	.cfi_offset %rbp, -16
	movq	%rsp, %rbp
	.cfi_def_cfa_register %rbp
	subq	$80, %rsp
	movl	$1584703928, -44(%rbp)  # imm = 0x5E74A9B8
	movq	%rdi, -16(%rbp)
	movq	-16(%rbp), %rax
	movq	56(%rax), %rax
	movq	%rax, -56(%rbp)
	movq	-16(%rbp), %rax
	movq	64(%rax), %rax
	movq	%rax, -64(%rbp)
	movq	-16(%rbp), %rax
	movq	40(%rax), %rax
	movq	%rax, -40(%rbp)
	movq	-16(%rbp), %rax
	movl	108(%rax), %eax
	movl	%eax, -8(%rbp)
	movq	-16(%rbp), %rax
	movl	656(%rax), %eax
	movl	%eax, -20(%rbp)
	movq	-16(%rbp), %rax
	movl	88(%rax), %eax
	movl	%eax, -24(%rbp)
	cmpl	$10000, -8(%rbp)        # imm = 0x2710
	jge	.LBB11_2
# %bb.1:                                # %if.then
	movq	-16(%rbp), %rax
	movq	24(%rax), %rdi
	movq	-16(%rbp), %rax
	movq	32(%rax), %rsi
	movq	-40(%rbp), %rdx
	movl	-8(%rbp), %ecx
	movl	-20(%rbp), %r8d
	callq	fallbackSort
	jmp	.LBB11_18
.LBB11_2:                               # %if.else
	movl	-8(%rbp), %eax
	addl	$34, %eax
	movl	%eax, -4(%rbp)
	movl	-4(%rbp), %eax
	andl	$1, %eax
	cmpl	$0, %eax
	je	.LBB11_4
# %bb.3:                                # %if.then5
	movl	-4(%rbp), %eax
	addl	$1, %eax
	movl	%eax, -4(%rbp)
.LBB11_4:                               # %if.end
	movq	-64(%rbp), %rax
	movslq	-4(%rbp), %rcx
	addq	%rcx, %rax
	movq	%rax, -72(%rbp)
	cmpl	$1, -24(%rbp)
	jge	.LBB11_6
# %bb.5:                                # %if.then7
	movl	$1, -24(%rbp)
.LBB11_6:                               # %if.end8
	cmpl	$100, -24(%rbp)
	jle	.LBB11_8
# %bb.7:                                # %if.then10
	movl	$100, -24(%rbp)
.LBB11_8:                               # %if.end11
	movl	-8(%rbp), %ecx
	movl	-24(%rbp), %eax
	subl	$1, %eax
	cltd
	movl	$3, %esi
	idivl	%esi
	imull	%eax, %ecx
	movl	%ecx, -32(%rbp)
	movl	-32(%rbp), %eax
	movl	%eax, -28(%rbp)
	movq	-56(%rbp), %rdi
	movq	-64(%rbp), %rsi
	movq	-72(%rbp), %rdx
	movq	-40(%rbp), %rcx
	movl	-8(%rbp), %r8d
	movl	-20(%rbp), %r9d
	leaq	-28(%rbp), %rax
	movq	%rax, (%rsp)
	callq	mainSort
	cmpl	$3, -20(%rbp)
	jl	.LBB11_13
# %bb.9:                                # %if.then13
	movq	stderr, %rdi
	movl	-32(%rbp), %edx
	subl	-28(%rbp), %edx
	movl	-8(%rbp), %ecx
	movl	-32(%rbp), %eax
	subl	-28(%rbp), %eax
	vcvtsi2ss	%eax, %xmm0, %xmm0
	cmpl	$0, -8(%rbp)
	jne	.LBB11_11
# %bb.10:                               # %cond.true
	movl	$1, %eax
	jmp	.LBB11_12
.LBB11_11:                              # %cond.false
	movl	-8(%rbp), %eax
.LBB11_12:                              # %cond.end
	vcvtsi2ss	%eax, %xmm0, %xmm1
	vdivss	%xmm1, %xmm0, %xmm0
	vcvtss2sd	%xmm0, %xmm0, %xmm0
	movabsq	$.L.str, %rsi
	movb	$1, %al
	callq	fprintf
.LBB11_13:                              # %if.end21
	cmpl	$0, -28(%rbp)
	jge	.LBB11_17
# %bb.14:                               # %if.then24
	cmpl	$2, -20(%rbp)
	jl	.LBB11_16
# %bb.15:                               # %if.then27
	movq	stderr, %rdi
	movabsq	$.L.str.1, %rsi
	movb	$0, %al
	callq	fprintf
.LBB11_16:                              # %if.end29
	movq	-16(%rbp), %rax
	movq	24(%rax), %rdi
	movq	-16(%rbp), %rax
	movq	32(%rax), %rsi
	movq	-40(%rbp), %rdx
	movl	-8(%rbp), %ecx
	movl	-20(%rbp), %r8d
	callq	fallbackSort
.LBB11_17:                              # %if.end32
	jmp	.LBB11_18
.LBB11_18:                              # %if.end33
	movq	-16(%rbp), %rax
	movl	$-1, 48(%rax)
	movl	$0, -4(%rbp)
.LBB11_19:                              # %for.cond
                                        # =>This Inner Loop Header: Depth=1
	movl	-4(%rbp), %eax
	movq	-16(%rbp), %rcx
	cmpl	108(%rcx), %eax
	jge	.LBB11_24
# %bb.20:                               # %for.body
                                        #   in Loop: Header=BB11_19 Depth=1
	movq	-56(%rbp), %rax
	movslq	-4(%rbp), %rcx
	cmpl	$0, (%rax,%rcx,4)
	jne	.LBB11_22
# %bb.21:                               # %if.then41
	movl	-4(%rbp), %eax
	movq	-16(%rbp), %rcx
	movl	%eax, 48(%rcx)
	jmp	.LBB11_25
.LBB11_22:                              # %if.end43
                                        #   in Loop: Header=BB11_19 Depth=1
	jmp	.LBB11_23
.LBB11_23:                              # %for.inc
                                        #   in Loop: Header=BB11_19 Depth=1
	movl	-4(%rbp), %eax
	addl	$1, %eax
	movl	%eax, -4(%rbp)
	jmp	.LBB11_19
.LBB11_24:                              # %for.end.loopexit
	jmp	.LBB11_25
.LBB11_25:                              # %for.end
	movq	-16(%rbp), %rax
	cmpl	$-1, 48(%rax)
	jne	.LBB11_27
# %bb.26:                               # %if.then48
	movl	$1003, %edi             # imm = 0x3EB
	callq	BZ2_bz__AssertH__fail
.LBB11_27:                              # %if.end49
	cmpl	$1584703928, -44(%rbp)  # imm = 0x5E74A9B8
	jne	.LBB11_29
.LBB11_28:
	addq	$80, %rsp
	popq	%rbp
	.cfi_def_cfa %rsp, 8
	retq
.LBB11_29:                              # %func_exit
	.cfi_def_cfa %rbp, 16
	callq	detect_breach
	jmp	.LBB11_28
.Lfunc_end11:
	.size	BZ2_blockSort.3, .Lfunc_end11-BZ2_blockSort.3
	.cfi_endproc
                                        # -- End function
	.p2align	4, 0x90         # -- Begin function fallbackQSort3.4
	.type	fallbackQSort3.4,@function
fallbackQSort3.4:                       # @fallbackQSort3.4
	.cfi_startproc
# %bb.0:                                # %entry
	pushq	%rbp
	.cfi_def_cfa_offset 16
	.cfi_offset %rbp, -16
	movq	%rsp, %rbp
	.cfi_def_cfa_register %rbp
	subq	$928, %rsp              # imm = 0x3A0
	movl	$85185119, -104(%rbp)   # imm = 0x513D25F
	movq	%rdi, -24(%rbp)
	movq	%rsi, -88(%rbp)
	movl	%edx, -100(%rbp)
	movl	%ecx, -120(%rbp)
	movl	$0, -80(%rbp)
	movl	$0, -4(%rbp)
	movl	-100(%rbp), %eax
	movslq	-4(%rbp), %rcx
	movl	%eax, -528(%rbp,%rcx,4)
	movl	-120(%rbp), %eax
	movslq	-4(%rbp), %rcx
	movl	%eax, -928(%rbp,%rcx,4)
	movl	-4(%rbp), %eax
	addl	$1, %eax
	movl	%eax, -4(%rbp)
.LBB12_1:                               # %while.cond
                                        # =>This Loop Header: Depth=1
                                        #     Child Loop BB12_14 Depth 2
                                        #       Child Loop BB12_15 Depth 3
                                        #       Child Loop BB12_24 Depth 3
                                        #     Child Loop BB12_41 Depth 2
                                        #     Child Loop BB12_47 Depth 2
	cmpl	$0, -4(%rbp)
	jle	.LBB12_53
# %bb.2:                                # %while.body
                                        #   in Loop: Header=BB12_1 Depth=1
	cmpl	$100, -4(%rbp)
	jl	.LBB12_4
# %bb.3:                                # %if.then
                                        #   in Loop: Header=BB12_1 Depth=1
	movl	$1004, %edi             # imm = 0x3EC
	callq	BZ2_bz__AssertH__fail
.LBB12_4:                               # %if.end
                                        #   in Loop: Header=BB12_1 Depth=1
	movl	-4(%rbp), %eax
	addl	$-1, %eax
	movl	%eax, -4(%rbp)
	movslq	-4(%rbp), %rax
	movl	-528(%rbp,%rax,4), %eax
	movl	%eax, -28(%rbp)
	movslq	-4(%rbp), %rax
	movl	-928(%rbp,%rax,4), %eax
	movl	%eax, -32(%rbp)
	movl	-32(%rbp), %eax
	subl	-28(%rbp), %eax
	cmpl	$10, %eax
	jge	.LBB12_7
# %bb.5:                                # %if.then9
                                        #   in Loop: Header=BB12_1 Depth=1
	movq	-24(%rbp), %rdi
	movq	-88(%rbp), %rsi
	movl	-28(%rbp), %edx
	movl	-32(%rbp), %ecx
	callq	fallbackSimpleSort
.LBB12_6:                               # %while.cond.backedge
                                        #   in Loop: Header=BB12_1 Depth=1
	jmp	.LBB12_1
.LBB12_7:                               # %if.end10
                                        #   in Loop: Header=BB12_1 Depth=1
	imull	$7621, -80(%rbp), %eax  # imm = 0x1DC5
	addl	$1, %eax
	andl	$32767, %eax            # imm = 0x7FFF
	movl	%eax, -80(%rbp)
	movl	-80(%rbp), %eax
	xorl	%edx, %edx
	movl	$3, %ecx
	divl	%ecx
	movl	%edx, -92(%rbp)
	cmpl	$0, -92(%rbp)
	jne	.LBB12_9
# %bb.8:                                # %if.then13
                                        #   in Loop: Header=BB12_1 Depth=1
	movq	-88(%rbp), %rax
	movq	-24(%rbp), %rcx
	movslq	-28(%rbp), %rdx
	movl	(%rcx,%rdx,4), %ecx
	movl	(%rax,%rcx,4), %eax
	movl	%eax, -68(%rbp)
	jmp	.LBB12_13
.LBB12_9:                               # %if.else
                                        #   in Loop: Header=BB12_1 Depth=1
	cmpl	$1, -92(%rbp)
	jne	.LBB12_11
# %bb.10:                               # %if.then19
                                        #   in Loop: Header=BB12_1 Depth=1
	movq	-88(%rbp), %rax
	movq	-24(%rbp), %rcx
	movl	-28(%rbp), %edx
	addl	-32(%rbp), %edx
	sarl	$1, %edx
	movslq	%edx, %rdx
	movl	(%rcx,%rdx,4), %ecx
	movl	(%rax,%rcx,4), %eax
	movl	%eax, -68(%rbp)
	jmp	.LBB12_12
.LBB12_11:                              # %if.else25
                                        #   in Loop: Header=BB12_1 Depth=1
	movq	-88(%rbp), %rax
	movq	-24(%rbp), %rcx
	movslq	-32(%rbp), %rdx
	movl	(%rcx,%rdx,4), %ecx
	movl	(%rax,%rcx,4), %eax
	movl	%eax, -68(%rbp)
.LBB12_12:                              # %if.end30
                                        #   in Loop: Header=BB12_1 Depth=1
	jmp	.LBB12_13
.LBB12_13:                              # %if.end31
                                        #   in Loop: Header=BB12_1 Depth=1
	movl	-28(%rbp), %eax
	movl	%eax, -40(%rbp)
	movl	%eax, -8(%rbp)
	movl	-32(%rbp), %eax
	movl	%eax, -44(%rbp)
	movl	%eax, -12(%rbp)
.LBB12_14:                              # %while.body33
                                        #   Parent Loop BB12_1 Depth=1
                                        # =>  This Loop Header: Depth=2
                                        #       Child Loop BB12_15 Depth 3
                                        #       Child Loop BB12_24 Depth 3
	jmp	.LBB12_15
.LBB12_15:                              # %while.body35
                                        #   Parent Loop BB12_1 Depth=1
                                        #     Parent Loop BB12_14 Depth=2
                                        # =>    This Inner Loop Header: Depth=3
	movl	-8(%rbp), %eax
	cmpl	-12(%rbp), %eax
	jle	.LBB12_17
# %bb.16:                               # %if.then37
                                        #   in Loop: Header=BB12_14 Depth=2
	jmp	.LBB12_23
.LBB12_17:                              # %if.end38
                                        #   in Loop: Header=BB12_15 Depth=3
	movq	-88(%rbp), %rax
	movq	-24(%rbp), %rcx
	movslq	-8(%rbp), %rdx
	movl	(%rcx,%rdx,4), %ecx
	movl	(%rax,%rcx,4), %eax
	subl	-68(%rbp), %eax
	movl	%eax, -36(%rbp)
	cmpl	$0, -36(%rbp)
	jne	.LBB12_20
# %bb.18:                               # %if.then45
                                        #   in Loop: Header=BB12_15 Depth=3
	movq	-24(%rbp), %rax
	movslq	-8(%rbp), %rcx
	movl	(%rax,%rcx,4), %eax
	movl	%eax, -96(%rbp)
	movq	-24(%rbp), %rax
	movslq	-40(%rbp), %rcx
	movl	(%rax,%rcx,4), %eax
	movq	-24(%rbp), %rcx
	movslq	-8(%rbp), %rdx
	movl	%eax, (%rcx,%rdx,4)
	movl	-96(%rbp), %eax
	movq	-24(%rbp), %rcx
	movslq	-40(%rbp), %rdx
	movl	%eax, (%rcx,%rdx,4)
	movl	-40(%rbp), %eax
	addl	$1, %eax
	movl	%eax, -40(%rbp)
	movl	-8(%rbp), %eax
	addl	$1, %eax
	movl	%eax, -8(%rbp)
.LBB12_19:                              # %while.body35.backedge
                                        #   in Loop: Header=BB12_15 Depth=3
	jmp	.LBB12_15
.LBB12_20:                              # %if.end56
                                        #   in Loop: Header=BB12_15 Depth=3
	cmpl	$0, -36(%rbp)
	jle	.LBB12_22
# %bb.21:                               # %if.then58
                                        #   in Loop: Header=BB12_14 Depth=2
	jmp	.LBB12_23
.LBB12_22:                              # %if.end59
                                        #   in Loop: Header=BB12_15 Depth=3
	movl	-8(%rbp), %eax
	addl	$1, %eax
	movl	%eax, -8(%rbp)
	jmp	.LBB12_19
.LBB12_23:                              # %while.end
                                        #   in Loop: Header=BB12_14 Depth=2
	jmp	.LBB12_24
.LBB12_24:                              # %while.body62
                                        #   Parent Loop BB12_1 Depth=1
                                        #     Parent Loop BB12_14 Depth=2
                                        # =>    This Inner Loop Header: Depth=3
	movl	-8(%rbp), %eax
	cmpl	-12(%rbp), %eax
	jle	.LBB12_26
# %bb.25:                               # %if.then64
                                        #   in Loop: Header=BB12_14 Depth=2
	jmp	.LBB12_32
.LBB12_26:                              # %if.end65
                                        #   in Loop: Header=BB12_24 Depth=3
	movq	-88(%rbp), %rax
	movq	-24(%rbp), %rcx
	movslq	-12(%rbp), %rdx
	movl	(%rcx,%rdx,4), %ecx
	movl	(%rax,%rcx,4), %eax
	subl	-68(%rbp), %eax
	movl	%eax, -36(%rbp)
	cmpl	$0, -36(%rbp)
	jne	.LBB12_29
# %bb.27:                               # %if.then72
                                        #   in Loop: Header=BB12_24 Depth=3
	movq	-24(%rbp), %rax
	movslq	-12(%rbp), %rcx
	movl	(%rax,%rcx,4), %eax
	movl	%eax, -116(%rbp)
	movq	-24(%rbp), %rax
	movslq	-44(%rbp), %rcx
	movl	(%rax,%rcx,4), %eax
	movq	-24(%rbp), %rcx
	movslq	-12(%rbp), %rdx
	movl	%eax, (%rcx,%rdx,4)
	movl	-116(%rbp), %eax
	movq	-24(%rbp), %rcx
	movslq	-44(%rbp), %rdx
	movl	%eax, (%rcx,%rdx,4)
	movl	-44(%rbp), %eax
	addl	$-1, %eax
	movl	%eax, -44(%rbp)
	movl	-12(%rbp), %eax
	addl	$-1, %eax
	movl	%eax, -12(%rbp)
.LBB12_28:                              # %while.body62.backedge
                                        #   in Loop: Header=BB12_24 Depth=3
	jmp	.LBB12_24
.LBB12_29:                              # %if.end84
                                        #   in Loop: Header=BB12_24 Depth=3
	cmpl	$0, -36(%rbp)
	jge	.LBB12_31
# %bb.30:                               # %if.then86
                                        #   in Loop: Header=BB12_14 Depth=2
	jmp	.LBB12_32
.LBB12_31:                              # %if.end87
                                        #   in Loop: Header=BB12_24 Depth=3
	movl	-12(%rbp), %eax
	addl	$-1, %eax
	movl	%eax, -12(%rbp)
	jmp	.LBB12_28
.LBB12_32:                              # %while.end89
                                        #   in Loop: Header=BB12_14 Depth=2
	movl	-8(%rbp), %eax
	cmpl	-12(%rbp), %eax
	jle	.LBB12_34
# %bb.33:                               # %if.then91
                                        #   in Loop: Header=BB12_1 Depth=1
	jmp	.LBB12_35
.LBB12_34:                              # %if.end92
                                        #   in Loop: Header=BB12_14 Depth=2
	movq	-24(%rbp), %rax
	movslq	-8(%rbp), %rcx
	movl	(%rax,%rcx,4), %eax
	movl	%eax, -108(%rbp)
	movq	-24(%rbp), %rax
	movslq	-12(%rbp), %rcx
	movl	(%rax,%rcx,4), %eax
	movq	-24(%rbp), %rcx
	movslq	-8(%rbp), %rdx
	movl	%eax, (%rcx,%rdx,4)
	movl	-108(%rbp), %eax
	movq	-24(%rbp), %rcx
	movslq	-12(%rbp), %rdx
	movl	%eax, (%rcx,%rdx,4)
	movl	-8(%rbp), %eax
	addl	$1, %eax
	movl	%eax, -8(%rbp)
	movl	-12(%rbp), %eax
	addl	$-1, %eax
	movl	%eax, -12(%rbp)
	jmp	.LBB12_14
.LBB12_35:                              # %while.end104
                                        #   in Loop: Header=BB12_1 Depth=1
	movl	-44(%rbp), %eax
	cmpl	-40(%rbp), %eax
	jge	.LBB12_37
# %bb.36:                               # %if.then106
                                        #   in Loop: Header=BB12_1 Depth=1
	jmp	.LBB12_6
.LBB12_37:                              # %if.end107
                                        #   in Loop: Header=BB12_1 Depth=1
	movl	-40(%rbp), %eax
	subl	-28(%rbp), %eax
	movl	-8(%rbp), %ecx
	subl	-40(%rbp), %ecx
	cmpl	%ecx, %eax
	jge	.LBB12_39
# %bb.38:                               # %cond.true
                                        #   in Loop: Header=BB12_1 Depth=1
	movl	-40(%rbp), %eax
	subl	-28(%rbp), %eax
	jmp	.LBB12_40
.LBB12_39:                              # %cond.false
                                        #   in Loop: Header=BB12_1 Depth=1
	movl	-8(%rbp), %eax
	subl	-40(%rbp), %eax
.LBB12_40:                              # %cond.end
                                        #   in Loop: Header=BB12_1 Depth=1
	movl	%eax, -36(%rbp)
	movl	-28(%rbp), %eax
	movl	%eax, -60(%rbp)
	movl	-8(%rbp), %eax
	subl	-36(%rbp), %eax
	movl	%eax, -64(%rbp)
	movl	-36(%rbp), %eax
	movl	%eax, -72(%rbp)
.LBB12_41:                              # %while.cond114
                                        #   Parent Loop BB12_1 Depth=1
                                        # =>  This Inner Loop Header: Depth=2
	cmpl	$0, -72(%rbp)
	jle	.LBB12_43
# %bb.42:                               # %while.body116
                                        #   in Loop: Header=BB12_41 Depth=2
	movq	-24(%rbp), %rax
	movslq	-60(%rbp), %rcx
	movl	(%rax,%rcx,4), %eax
	movl	%eax, -124(%rbp)
	movq	-24(%rbp), %rax
	movslq	-64(%rbp), %rcx
	movl	(%rax,%rcx,4), %eax
	movq	-24(%rbp), %rcx
	movslq	-60(%rbp), %rdx
	movl	%eax, (%rcx,%rdx,4)
	movl	-124(%rbp), %eax
	movq	-24(%rbp), %rcx
	movslq	-64(%rbp), %rdx
	movl	%eax, (%rcx,%rdx,4)
	movl	-60(%rbp), %eax
	addl	$1, %eax
	movl	%eax, -60(%rbp)
	movl	-64(%rbp), %eax
	addl	$1, %eax
	movl	%eax, -64(%rbp)
	movl	-72(%rbp), %eax
	addl	$-1, %eax
	movl	%eax, -72(%rbp)
	jmp	.LBB12_41
.LBB12_43:                              # %while.end129
                                        #   in Loop: Header=BB12_1 Depth=1
	movl	-32(%rbp), %eax
	subl	-44(%rbp), %eax
	movl	-44(%rbp), %ecx
	subl	-12(%rbp), %ecx
	cmpl	%ecx, %eax
	jge	.LBB12_45
# %bb.44:                               # %cond.true133
                                        #   in Loop: Header=BB12_1 Depth=1
	movl	-32(%rbp), %eax
	subl	-44(%rbp), %eax
	jmp	.LBB12_46
.LBB12_45:                              # %cond.false135
                                        #   in Loop: Header=BB12_1 Depth=1
	movl	-44(%rbp), %eax
	subl	-12(%rbp), %eax
.LBB12_46:                              # %cond.end137
                                        #   in Loop: Header=BB12_1 Depth=1
	movl	%eax, -48(%rbp)
	movl	-8(%rbp), %eax
	movl	%eax, -52(%rbp)
	movl	-32(%rbp), %eax
	subl	-48(%rbp), %eax
	addl	$1, %eax
	movl	%eax, -56(%rbp)
	movl	-48(%rbp), %eax
	movl	%eax, -76(%rbp)
.LBB12_47:                              # %while.cond144
                                        #   Parent Loop BB12_1 Depth=1
                                        # =>  This Inner Loop Header: Depth=2
	cmpl	$0, -76(%rbp)
	jle	.LBB12_49
# %bb.48:                               # %while.body146
                                        #   in Loop: Header=BB12_47 Depth=2
	movq	-24(%rbp), %rax
	movslq	-52(%rbp), %rcx
	movl	(%rax,%rcx,4), %eax
	movl	%eax, -112(%rbp)
	movq	-24(%rbp), %rax
	movslq	-56(%rbp), %rcx
	movl	(%rax,%rcx,4), %eax
	movq	-24(%rbp), %rcx
	movslq	-52(%rbp), %rdx
	movl	%eax, (%rcx,%rdx,4)
	movl	-112(%rbp), %eax
	movq	-24(%rbp), %rcx
	movslq	-56(%rbp), %rdx
	movl	%eax, (%rcx,%rdx,4)
	movl	-52(%rbp), %eax
	addl	$1, %eax
	movl	%eax, -52(%rbp)
	movl	-56(%rbp), %eax
	addl	$1, %eax
	movl	%eax, -56(%rbp)
	movl	-76(%rbp), %eax
	addl	$-1, %eax
	movl	%eax, -76(%rbp)
	jmp	.LBB12_47
.LBB12_49:                              # %while.end159
                                        #   in Loop: Header=BB12_1 Depth=1
	movl	-28(%rbp), %eax
	addl	-8(%rbp), %eax
	subl	-40(%rbp), %eax
	subl	$1, %eax
	movl	%eax, -36(%rbp)
	movl	-32(%rbp), %eax
	movl	-44(%rbp), %ecx
	subl	-12(%rbp), %ecx
	subl	%ecx, %eax
	addl	$1, %eax
	movl	%eax, -48(%rbp)
	movl	-36(%rbp), %eax
	subl	-28(%rbp), %eax
	movl	-32(%rbp), %ecx
	subl	-48(%rbp), %ecx
	cmpl	%ecx, %eax
	jle	.LBB12_51
# %bb.50:                               # %if.then169
                                        #   in Loop: Header=BB12_1 Depth=1
	movl	-28(%rbp), %eax
	movslq	-4(%rbp), %rcx
	movl	%eax, -528(%rbp,%rcx,4)
	movl	-36(%rbp), %eax
	movslq	-4(%rbp), %rcx
	movl	%eax, -928(%rbp,%rcx,4)
	movl	-4(%rbp), %eax
	addl	$1, %eax
	movl	%eax, -4(%rbp)
	movl	-48(%rbp), %eax
	movslq	-4(%rbp), %rcx
	movl	%eax, -528(%rbp,%rcx,4)
	movl	-32(%rbp), %eax
	movslq	-4(%rbp), %rcx
	movl	%eax, -928(%rbp,%rcx,4)
	movl	-4(%rbp), %eax
	addl	$1, %eax
	movl	%eax, -4(%rbp)
	jmp	.LBB12_52
.LBB12_51:                              # %if.else180
                                        #   in Loop: Header=BB12_1 Depth=1
	movl	-48(%rbp), %eax
	movslq	-4(%rbp), %rcx
	movl	%eax, -528(%rbp,%rcx,4)
	movl	-32(%rbp), %eax
	movslq	-4(%rbp), %rcx
	movl	%eax, -928(%rbp,%rcx,4)
	movl	-4(%rbp), %eax
	addl	$1, %eax
	movl	%eax, -4(%rbp)
	movl	-28(%rbp), %eax
	movslq	-4(%rbp), %rcx
	movl	%eax, -528(%rbp,%rcx,4)
	movl	-36(%rbp), %eax
	movslq	-4(%rbp), %rcx
	movl	%eax, -928(%rbp,%rcx,4)
	movl	-4(%rbp), %eax
	addl	$1, %eax
	movl	%eax, -4(%rbp)
.LBB12_52:                              # %if.end191
                                        #   in Loop: Header=BB12_1 Depth=1
	jmp	.LBB12_6
.LBB12_53:                              # %while.end192
	cmpl	$85185119, -104(%rbp)   # imm = 0x513D25F
	jne	.LBB12_55
.LBB12_54:
	addq	$928, %rsp              # imm = 0x3A0
	popq	%rbp
	.cfi_def_cfa %rsp, 8
	retq
.LBB12_55:                              # %func_exit
	.cfi_def_cfa %rbp, 16
	callq	detect_breach
	jmp	.LBB12_54
.Lfunc_end12:
	.size	fallbackQSort3.4, .Lfunc_end12-fallbackQSort3.4
	.cfi_endproc
                                        # -- End function
	.p2align	4, 0x90         # -- Begin function mainSort.5
	.type	mainSort.5,@function
mainSort.5:                             # @mainSort.5
	.cfi_startproc
# %bb.0:                                # %entry
	pushq	%rbp
	.cfi_def_cfa_offset 16
	.cfi_offset %rbp, -16
	movq	%rsp, %rbp
	.cfi_def_cfa_register %rbp
	subq	$3472, %rsp             # imm = 0xD90
	movq	16(%rbp), %rax
	movl	$2121151255, -116(%rbp) # imm = 0x7E6E3317
	movq	%rdi, -56(%rbp)
	movq	%rsi, -48(%rbp)
	movq	%rdx, -80(%rbp)
	movq	%rcx, -24(%rbp)
	movl	%r8d, -32(%rbp)
	movl	%r9d, -88(%rbp)
	cmpl	$4, -88(%rbp)
	jl	.LBB13_2
# %bb.1:                                # %if.then
	movq	stderr, %rdi
	movabsq	$.L.str.6, %rsi
	movb	$0, %al
	callq	fprintf
.LBB13_2:                               # %if.end
	movl	$65536, -8(%rbp)        # imm = 0x10000
.LBB13_3:                               # %for.cond
                                        # =>This Inner Loop Header: Depth=1
	cmpl	$0, -8(%rbp)
	jl	.LBB13_6
# %bb.4:                                # %for.body
                                        #   in Loop: Header=BB13_3 Depth=1
	movq	-24(%rbp), %rax
	movslq	-8(%rbp), %rcx
	movl	$0, (%rax,%rcx,4)
# %bb.5:                                # %for.inc
                                        #   in Loop: Header=BB13_3 Depth=1
	movl	-8(%rbp), %eax
	addl	$-1, %eax
	movl	%eax, -8(%rbp)
	jmp	.LBB13_3
.LBB13_6:                               # %for.end
	movq	-48(%rbp), %rax
	movzbl	(%rax), %eax
	shll	$8, %eax
	movl	%eax, -4(%rbp)
	movl	-32(%rbp), %eax
	subl	$1, %eax
	movl	%eax, -8(%rbp)
.LBB13_7:                               # %for.cond3
                                        # =>This Inner Loop Header: Depth=1
	cmpl	$3, -8(%rbp)
	jl	.LBB13_10
# %bb.8:                                # %for.body6
                                        #   in Loop: Header=BB13_7 Depth=1
	movq	-80(%rbp), %rax
	movslq	-8(%rbp), %rcx
	movw	$0, (%rax,%rcx,2)
	movl	-4(%rbp), %eax
	sarl	$8, %eax
	movq	-48(%rbp), %rcx
	movslq	-8(%rbp), %rdx
	movzbl	(%rcx,%rdx), %ecx
	movzwl	%cx, %ecx
	shll	$8, %ecx
	orl	%ecx, %eax
	movl	%eax, -4(%rbp)
	movq	-24(%rbp), %rax
	movslq	-4(%rbp), %rcx
	movl	(%rax,%rcx,4), %edx
	addl	$1, %edx
	movl	%edx, (%rax,%rcx,4)
	movq	-80(%rbp), %rax
	movl	-8(%rbp), %ecx
	subl	$1, %ecx
	movslq	%ecx, %rcx
	movw	$0, (%rax,%rcx,2)
	movl	-4(%rbp), %eax
	sarl	$8, %eax
	movq	-48(%rbp), %rcx
	movl	-8(%rbp), %edx
	subl	$1, %edx
	movslq	%edx, %rdx
	movzbl	(%rcx,%rdx), %ecx
	movzwl	%cx, %ecx
	shll	$8, %ecx
	orl	%ecx, %eax
	movl	%eax, -4(%rbp)
	movq	-24(%rbp), %rax
	movslq	-4(%rbp), %rcx
	movl	(%rax,%rcx,4), %edx
	addl	$1, %edx
	movl	%edx, (%rax,%rcx,4)
	movq	-80(%rbp), %rax
	movl	-8(%rbp), %ecx
	subl	$2, %ecx
	movslq	%ecx, %rcx
	movw	$0, (%rax,%rcx,2)
	movl	-4(%rbp), %eax
	sarl	$8, %eax
	movq	-48(%rbp), %rcx
	movl	-8(%rbp), %edx
	subl	$2, %edx
	movslq	%edx, %rdx
	movzbl	(%rcx,%rdx), %ecx
	movzwl	%cx, %ecx
	shll	$8, %ecx
	orl	%ecx, %eax
	movl	%eax, -4(%rbp)
	movq	-24(%rbp), %rax
	movslq	-4(%rbp), %rcx
	movl	(%rax,%rcx,4), %edx
	addl	$1, %edx
	movl	%edx, (%rax,%rcx,4)
	movq	-80(%rbp), %rax
	movl	-8(%rbp), %ecx
	subl	$3, %ecx
	movslq	%ecx, %rcx
	movw	$0, (%rax,%rcx,2)
	movl	-4(%rbp), %eax
	sarl	$8, %eax
	movq	-48(%rbp), %rcx
	movl	-8(%rbp), %edx
	subl	$3, %edx
	movslq	%edx, %rdx
	movzbl	(%rcx,%rdx), %ecx
	movzwl	%cx, %ecx
	shll	$8, %ecx
	orl	%ecx, %eax
	movl	%eax, -4(%rbp)
	movq	-24(%rbp), %rax
	movslq	-4(%rbp), %rcx
	movl	(%rax,%rcx,4), %edx
	addl	$1, %edx
	movl	%edx, (%rax,%rcx,4)
# %bb.9:                                # %for.inc58
                                        #   in Loop: Header=BB13_7 Depth=1
	movl	-8(%rbp), %eax
	subl	$4, %eax
	movl	%eax, -8(%rbp)
	jmp	.LBB13_7
.LBB13_10:                              # %for.end60
	jmp	.LBB13_11
.LBB13_11:                              # %for.cond61
                                        # =>This Inner Loop Header: Depth=1
	cmpl	$0, -8(%rbp)
	jl	.LBB13_14
# %bb.12:                               # %for.body64
                                        #   in Loop: Header=BB13_11 Depth=1
	movq	-80(%rbp), %rax
	movslq	-8(%rbp), %rcx
	movw	$0, (%rax,%rcx,2)
	movl	-4(%rbp), %eax
	sarl	$8, %eax
	movq	-48(%rbp), %rcx
	movslq	-8(%rbp), %rdx
	movzbl	(%rcx,%rdx), %ecx
	movzwl	%cx, %ecx
	shll	$8, %ecx
	orl	%ecx, %eax
	movl	%eax, -4(%rbp)
	movq	-24(%rbp), %rax
	movslq	-4(%rbp), %rcx
	movl	(%rax,%rcx,4), %edx
	addl	$1, %edx
	movl	%edx, (%rax,%rcx,4)
# %bb.13:                               # %for.inc77
                                        #   in Loop: Header=BB13_11 Depth=1
	movl	-8(%rbp), %eax
	addl	$-1, %eax
	movl	%eax, -8(%rbp)
	jmp	.LBB13_11
.LBB13_14:                              # %for.end79
	movl	$0, -8(%rbp)
.LBB13_15:                              # %for.cond80
                                        # =>This Inner Loop Header: Depth=1
	cmpl	$34, -8(%rbp)
	jge	.LBB13_18
# %bb.16:                               # %for.body83
                                        #   in Loop: Header=BB13_15 Depth=1
	movq	-48(%rbp), %rax
	movslq	-8(%rbp), %rcx
	movb	(%rax,%rcx), %al
	movq	-48(%rbp), %rcx
	movl	-32(%rbp), %edx
	addl	-8(%rbp), %edx
	movslq	%edx, %rdx
	movb	%al, (%rcx,%rdx)
	movq	-80(%rbp), %rax
	movl	-32(%rbp), %ecx
	addl	-8(%rbp), %ecx
	movslq	%ecx, %rcx
	movw	$0, (%rax,%rcx,2)
# %bb.17:                               # %for.inc91
                                        #   in Loop: Header=BB13_15 Depth=1
	movl	-8(%rbp), %eax
	addl	$1, %eax
	movl	%eax, -8(%rbp)
	jmp	.LBB13_15
.LBB13_18:                              # %for.end93
	cmpl	$4, -88(%rbp)
	jl	.LBB13_20
# %bb.19:                               # %if.then96
	movq	stderr, %rdi
	movabsq	$.L.str.2, %rsi
	movb	$0, %al
	callq	fprintf
.LBB13_20:                              # %if.end98
	movl	$1, -8(%rbp)
.LBB13_21:                              # %for.cond99
                                        # =>This Inner Loop Header: Depth=1
	cmpl	$65536, -8(%rbp)        # imm = 0x10000
	jg	.LBB13_24
# %bb.22:                               # %for.body102
                                        #   in Loop: Header=BB13_21 Depth=1
	movq	-24(%rbp), %rax
	movl	-8(%rbp), %ecx
	subl	$1, %ecx
	movslq	%ecx, %rcx
	movl	(%rax,%rcx,4), %eax
	movq	-24(%rbp), %rcx
	movslq	-8(%rbp), %rdx
	addl	(%rcx,%rdx,4), %eax
	movl	%eax, (%rcx,%rdx,4)
# %bb.23:                               # %for.inc109
                                        #   in Loop: Header=BB13_21 Depth=1
	movl	-8(%rbp), %eax
	addl	$1, %eax
	movl	%eax, -8(%rbp)
	jmp	.LBB13_21
.LBB13_24:                              # %for.end111
	movq	-48(%rbp), %rax
	movzbl	(%rax), %eax
	shll	$8, %eax
	movw	%ax, -10(%rbp)
	movl	-32(%rbp), %eax
	subl	$1, %eax
	movl	%eax, -8(%rbp)
.LBB13_25:                              # %for.cond117
                                        # =>This Inner Loop Header: Depth=1
	cmpl	$3, -8(%rbp)
	jl	.LBB13_28
# %bb.26:                               # %for.body120
                                        #   in Loop: Header=BB13_25 Depth=1
	movzwl	-10(%rbp), %eax
	sarl	$8, %eax
	movq	-48(%rbp), %rcx
	movslq	-8(%rbp), %rdx
	movzbl	(%rcx,%rdx), %ecx
	shll	$8, %ecx
	orl	%ecx, %eax
	movw	%ax, -10(%rbp)
	movq	-24(%rbp), %rax
	movzwl	-10(%rbp), %ecx
	movl	(%rax,%rcx,4), %eax
	subl	$1, %eax
	movl	%eax, -4(%rbp)
	movl	-4(%rbp), %eax
	movq	-24(%rbp), %rcx
	movzwl	-10(%rbp), %edx
	movl	%eax, (%rcx,%rdx,4)
	movl	-8(%rbp), %eax
	movq	-56(%rbp), %rcx
	movslq	-4(%rbp), %rdx
	movl	%eax, (%rcx,%rdx,4)
	movzwl	-10(%rbp), %eax
	sarl	$8, %eax
	movq	-48(%rbp), %rcx
	movl	-8(%rbp), %edx
	subl	$1, %edx
	movslq	%edx, %rdx
	movzbl	(%rcx,%rdx), %ecx
	shll	$8, %ecx
	orl	%ecx, %eax
	movw	%ax, -10(%rbp)
	movq	-24(%rbp), %rax
	movzwl	-10(%rbp), %ecx
	movl	(%rax,%rcx,4), %eax
	subl	$1, %eax
	movl	%eax, -4(%rbp)
	movl	-4(%rbp), %eax
	movq	-24(%rbp), %rcx
	movzwl	-10(%rbp), %edx
	movl	%eax, (%rcx,%rdx,4)
	movl	-8(%rbp), %eax
	subl	$1, %eax
	movq	-56(%rbp), %rcx
	movslq	-4(%rbp), %rdx
	movl	%eax, (%rcx,%rdx,4)
	movzwl	-10(%rbp), %eax
	sarl	$8, %eax
	movq	-48(%rbp), %rcx
	movl	-8(%rbp), %edx
	subl	$2, %edx
	movslq	%edx, %rdx
	movzbl	(%rcx,%rdx), %ecx
	shll	$8, %ecx
	orl	%ecx, %eax
	movw	%ax, -10(%rbp)
	movq	-24(%rbp), %rax
	movzwl	-10(%rbp), %ecx
	movl	(%rax,%rcx,4), %eax
	subl	$1, %eax
	movl	%eax, -4(%rbp)
	movl	-4(%rbp), %eax
	movq	-24(%rbp), %rcx
	movzwl	-10(%rbp), %edx
	movl	%eax, (%rcx,%rdx,4)
	movl	-8(%rbp), %eax
	subl	$2, %eax
	movq	-56(%rbp), %rcx
	movslq	-4(%rbp), %rdx
	movl	%eax, (%rcx,%rdx,4)
	movzwl	-10(%rbp), %eax
	sarl	$8, %eax
	movq	-48(%rbp), %rcx
	movl	-8(%rbp), %edx
	subl	$3, %edx
	movslq	%edx, %rdx
	movzbl	(%rcx,%rdx), %ecx
	shll	$8, %ecx
	orl	%ecx, %eax
	movw	%ax, -10(%rbp)
	movq	-24(%rbp), %rax
	movzwl	-10(%rbp), %ecx
	movl	(%rax,%rcx,4), %eax
	subl	$1, %eax
	movl	%eax, -4(%rbp)
	movl	-4(%rbp), %eax
	movq	-24(%rbp), %rcx
	movzwl	-10(%rbp), %edx
	movl	%eax, (%rcx,%rdx,4)
	movl	-8(%rbp), %eax
	subl	$3, %eax
	movq	-56(%rbp), %rcx
	movslq	-4(%rbp), %rdx
	movl	%eax, (%rcx,%rdx,4)
# %bb.27:                               # %for.inc187
                                        #   in Loop: Header=BB13_25 Depth=1
	movl	-8(%rbp), %eax
	subl	$4, %eax
	movl	%eax, -8(%rbp)
	jmp	.LBB13_25
.LBB13_28:                              # %for.end189
	jmp	.LBB13_29
.LBB13_29:                              # %for.cond190
                                        # =>This Inner Loop Header: Depth=1
	cmpl	$0, -8(%rbp)
	jl	.LBB13_32
# %bb.30:                               # %for.body193
                                        #   in Loop: Header=BB13_29 Depth=1
	movzwl	-10(%rbp), %eax
	sarl	$8, %eax
	movq	-48(%rbp), %rcx
	movslq	-8(%rbp), %rdx
	movzbl	(%rcx,%rdx), %ecx
	shll	$8, %ecx
	orl	%ecx, %eax
	movw	%ax, -10(%rbp)
	movq	-24(%rbp), %rax
	movzwl	-10(%rbp), %ecx
	movl	(%rax,%rcx,4), %eax
	subl	$1, %eax
	movl	%eax, -4(%rbp)
	movl	-4(%rbp), %eax
	movq	-24(%rbp), %rcx
	movzwl	-10(%rbp), %edx
	movl	%eax, (%rcx,%rdx,4)
	movl	-8(%rbp), %eax
	movq	-56(%rbp), %rcx
	movslq	-4(%rbp), %rdx
	movl	%eax, (%rcx,%rdx,4)
# %bb.31:                               # %for.inc209
                                        #   in Loop: Header=BB13_29 Depth=1
	movl	-8(%rbp), %eax
	addl	$-1, %eax
	movl	%eax, -8(%rbp)
	jmp	.LBB13_29
.LBB13_32:                              # %for.end211
	movl	$0, -8(%rbp)
.LBB13_33:                              # %for.cond212
                                        # =>This Inner Loop Header: Depth=1
	cmpl	$255, -8(%rbp)
	jg	.LBB13_36
# %bb.34:                               # %for.body215
                                        #   in Loop: Header=BB13_33 Depth=1
	movslq	-8(%rbp), %rax
	movb	$0, -384(%rbp,%rax)
	movl	-8(%rbp), %eax
	movslq	-8(%rbp), %rcx
	movl	%eax, -1408(%rbp,%rcx,4)
# %bb.35:                               # %for.inc220
                                        #   in Loop: Header=BB13_33 Depth=1
	movl	-8(%rbp), %eax
	addl	$1, %eax
	movl	%eax, -8(%rbp)
	jmp	.LBB13_33
.LBB13_36:                              # %for.end222
	movl	$1, -28(%rbp)
.LBB13_37:                              # %do.body
                                        # =>This Inner Loop Header: Depth=1
	imull	$3, -28(%rbp), %eax
	addl	$1, %eax
	movl	%eax, -28(%rbp)
# %bb.38:                               # %do.cond
                                        #   in Loop: Header=BB13_37 Depth=1
	cmpl	$256, -28(%rbp)         # imm = 0x100
	jle	.LBB13_37
# %bb.39:                               # %do.end
	jmp	.LBB13_40
.LBB13_40:                              # %do.body226
                                        # =>This Loop Header: Depth=1
                                        #     Child Loop BB13_41 Depth 2
                                        #       Child Loop BB13_43 Depth 3
	movl	-28(%rbp), %eax
	cltd
	movl	$3, %ecx
	idivl	%ecx
	movl	%eax, -28(%rbp)
	movl	-28(%rbp), %eax
	movl	%eax, -8(%rbp)
.LBB13_41:                              # %for.cond227
                                        #   Parent Loop BB13_40 Depth=1
                                        # =>  This Loop Header: Depth=2
                                        #       Child Loop BB13_43 Depth 3
	cmpl	$255, -8(%rbp)
	jg	.LBB13_50
# %bb.42:                               # %for.body230
                                        #   in Loop: Header=BB13_41 Depth=2
	movslq	-8(%rbp), %rax
	movl	-1408(%rbp,%rax,4), %eax
	movl	%eax, -108(%rbp)
	movl	-8(%rbp), %eax
	movl	%eax, -4(%rbp)
.LBB13_43:                              # %while.cond
                                        #   Parent Loop BB13_40 Depth=1
                                        #     Parent Loop BB13_41 Depth=2
                                        # =>    This Inner Loop Header: Depth=3
	movq	-24(%rbp), %rax
	movl	-4(%rbp), %ecx
	subl	-28(%rbp), %ecx
	movslq	%ecx, %rcx
	movl	-1408(%rbp,%rcx,4), %ecx
	addl	$1, %ecx
	shll	$8, %ecx
	movslq	%ecx, %rcx
	movl	(%rax,%rcx,4), %eax
	movq	-24(%rbp), %rcx
	movl	-4(%rbp), %edx
	subl	-28(%rbp), %edx
	movslq	%edx, %rdx
	movl	-1408(%rbp,%rdx,4), %edx
	shll	$8, %edx
	movslq	%edx, %rdx
	subl	(%rcx,%rdx,4), %eax
	movq	-24(%rbp), %rcx
	movl	-108(%rbp), %edx
	addl	$1, %edx
	shll	$8, %edx
	movslq	%edx, %rdx
	movl	(%rcx,%rdx,4), %ecx
	movq	-24(%rbp), %rdx
	movl	-108(%rbp), %esi
	shll	$8, %esi
	movslq	%esi, %rsi
	subl	(%rdx,%rsi,4), %ecx
	cmpl	%ecx, %eax
	jbe	.LBB13_47
# %bb.44:                               # %while.body
                                        #   in Loop: Header=BB13_43 Depth=3
	movl	-4(%rbp), %eax
	subl	-28(%rbp), %eax
	cltq
	movl	-1408(%rbp,%rax,4), %eax
	movslq	-4(%rbp), %rcx
	movl	%eax, -1408(%rbp,%rcx,4)
	movl	-4(%rbp), %eax
	subl	-28(%rbp), %eax
	movl	%eax, -4(%rbp)
	movl	-4(%rbp), %eax
	movl	-28(%rbp), %ecx
	subl	$1, %ecx
	cmpl	%ecx, %eax
	jg	.LBB13_46
# %bb.45:                               # %if.then266
                                        #   in Loop: Header=BB13_41 Depth=2
	jmp	.LBB13_48
.LBB13_46:                              # %if.end267
                                        #   in Loop: Header=BB13_43 Depth=3
	jmp	.LBB13_43
.LBB13_47:                              # %while.end
                                        #   in Loop: Header=BB13_41 Depth=2
	jmp	.LBB13_48
.LBB13_48:                              # %zero
                                        #   in Loop: Header=BB13_41 Depth=2
	movl	-108(%rbp), %eax
	movslq	-4(%rbp), %rcx
	movl	%eax, -1408(%rbp,%rcx,4)
# %bb.49:                               # %for.inc270
                                        #   in Loop: Header=BB13_41 Depth=2
	movl	-8(%rbp), %eax
	addl	$1, %eax
	movl	%eax, -8(%rbp)
	jmp	.LBB13_41
.LBB13_50:                              # %for.end272
                                        #   in Loop: Header=BB13_40 Depth=1
	jmp	.LBB13_51
.LBB13_51:                              # %do.cond273
                                        #   in Loop: Header=BB13_40 Depth=1
	cmpl	$1, -28(%rbp)
	jne	.LBB13_40
# %bb.52:                               # %do.end276
	movl	$0, -60(%rbp)
	movl	$0, -8(%rbp)
.LBB13_53:                              # %for.cond277
                                        # =>This Loop Header: Depth=1
                                        #     Child Loop BB13_55 Depth 2
                                        #     Child Loop BB13_71 Depth 2
                                        #     Child Loop BB13_75 Depth 2
                                        #     Child Loop BB13_83 Depth 2
                                        #     Child Loop BB13_95 Depth 2
                                        #     Child Loop BB13_100 Depth 2
                                        #     Child Loop BB13_103 Depth 2
	cmpl	$255, -8(%rbp)
	jg	.LBB13_113
# %bb.54:                               # %for.body280
                                        #   in Loop: Header=BB13_53 Depth=1
	movslq	-8(%rbp), %rax
	movl	-1408(%rbp,%rax,4), %eax
	movl	%eax, -16(%rbp)
	movl	$0, -4(%rbp)
.LBB13_55:                              # %for.cond283
                                        #   Parent Loop BB13_53 Depth=1
                                        # =>  This Inner Loop Header: Depth=2
	cmpl	$255, -4(%rbp)
	jg	.LBB13_68
# %bb.56:                               # %for.body286
                                        #   in Loop: Header=BB13_55 Depth=2
	movl	-4(%rbp), %eax
	cmpl	-16(%rbp), %eax
	je	.LBB13_66
# %bb.57:                               # %if.then289
                                        #   in Loop: Header=BB13_55 Depth=2
	movl	-16(%rbp), %eax
	shll	$8, %eax
	addl	-4(%rbp), %eax
	movl	%eax, -84(%rbp)
	movq	-24(%rbp), %rax
	movslq	-84(%rbp), %rcx
	movl	(%rax,%rcx,4), %eax
	andl	$2097152, %eax          # imm = 0x200000
	cmpl	$0, %eax
	jne	.LBB13_65
# %bb.58:                               # %if.then294
                                        #   in Loop: Header=BB13_55 Depth=2
	movq	-24(%rbp), %rax
	movslq	-84(%rbp), %rcx
	movl	(%rax,%rcx,4), %eax
	andl	$-2097153, %eax         # imm = 0xFFDFFFFF
	movl	%eax, -92(%rbp)
	movq	-24(%rbp), %rax
	movl	-84(%rbp), %ecx
	addl	$1, %ecx
	movslq	%ecx, %rcx
	movl	(%rax,%rcx,4), %eax
	andl	$-2097153, %eax         # imm = 0xFFDFFFFF
	subl	$1, %eax
	movl	%eax, -96(%rbp)
	movl	-96(%rbp), %eax
	cmpl	-92(%rbp), %eax
	jle	.LBB13_64
# %bb.59:                               # %if.then305
                                        #   in Loop: Header=BB13_55 Depth=2
	cmpl	$4, -88(%rbp)
	jl	.LBB13_61
# %bb.60:                               # %if.then308
                                        #   in Loop: Header=BB13_55 Depth=2
	movq	stderr, %rdi
	movl	-16(%rbp), %edx
	movl	-4(%rbp), %ecx
	movl	-60(%rbp), %r8d
	movl	-96(%rbp), %r9d
	subl	-92(%rbp), %r9d
	addl	$1, %r9d
	movabsq	$.L.str.7, %rsi
	movb	$0, %al
	callq	fprintf
.LBB13_61:                              # %if.end312
                                        #   in Loop: Header=BB13_55 Depth=2
	movq	-56(%rbp), %rdi
	movq	-48(%rbp), %rsi
	movq	-80(%rbp), %rdx
	movl	-32(%rbp), %ecx
	movl	-92(%rbp), %r8d
	movl	-96(%rbp), %r9d
	movq	16(%rbp), %rax
	movl	$2, (%rsp)
	movq	%rax, 8(%rsp)
	callq	mainQSort3
	movl	-96(%rbp), %eax
	subl	-92(%rbp), %eax
	addl	$1, %eax
	addl	-60(%rbp), %eax
	movl	%eax, -60(%rbp)
	movq	16(%rbp), %rax
	cmpl	$0, (%rax)
	jge	.LBB13_63
# %bb.62:                               # %if.then318
	jmp	.LBB13_115
.LBB13_63:                              # %if.end319
                                        #   in Loop: Header=BB13_55 Depth=2
	jmp	.LBB13_64
.LBB13_64:                              # %if.end320
                                        #   in Loop: Header=BB13_55 Depth=2
	jmp	.LBB13_65
.LBB13_65:                              # %if.end321
                                        #   in Loop: Header=BB13_55 Depth=2
	movq	-24(%rbp), %rax
	movslq	-84(%rbp), %rcx
	movl	(%rax,%rcx,4), %edx
	orl	$2097152, %edx          # imm = 0x200000
	movl	%edx, (%rax,%rcx,4)
.LBB13_66:                              # %if.end325
                                        #   in Loop: Header=BB13_55 Depth=2
	jmp	.LBB13_67
.LBB13_67:                              # %for.inc326
                                        #   in Loop: Header=BB13_55 Depth=2
	movl	-4(%rbp), %eax
	addl	$1, %eax
	movl	%eax, -4(%rbp)
	jmp	.LBB13_55
.LBB13_68:                              # %for.end328
                                        #   in Loop: Header=BB13_53 Depth=1
	movslq	-16(%rbp), %rax
	cmpb	$0, -384(%rbp,%rax)
	je	.LBB13_70
# %bb.69:                               # %if.then332
                                        #   in Loop: Header=BB13_53 Depth=1
	movl	$1006, %edi             # imm = 0x3EE
	callq	BZ2_bz__AssertH__fail
.LBB13_70:                              # %if.end333
                                        #   in Loop: Header=BB13_53 Depth=1
	movl	$0, -4(%rbp)
.LBB13_71:                              # %for.cond334
                                        #   Parent Loop BB13_53 Depth=1
                                        # =>  This Inner Loop Header: Depth=2
	cmpl	$255, -4(%rbp)
	jg	.LBB13_74
# %bb.72:                               # %for.body337
                                        #   in Loop: Header=BB13_71 Depth=2
	movq	-24(%rbp), %rax
	movl	-4(%rbp), %ecx
	shll	$8, %ecx
	addl	-16(%rbp), %ecx
	movslq	%ecx, %rcx
	movl	(%rax,%rcx,4), %eax
	andl	$-2097153, %eax         # imm = 0xFFDFFFFF
	movslq	-4(%rbp), %rcx
	movl	%eax, -3456(%rbp,%rcx,4)
	movq	-24(%rbp), %rax
	movl	-4(%rbp), %ecx
	shll	$8, %ecx
	addl	-16(%rbp), %ecx
	addl	$1, %ecx
	movslq	%ecx, %rcx
	movl	(%rax,%rcx,4), %eax
	andl	$-2097153, %eax         # imm = 0xFFDFFFFF
	subl	$1, %eax
	movslq	-4(%rbp), %rcx
	movl	%eax, -2432(%rbp,%rcx,4)
# %bb.73:                               # %for.inc354
                                        #   in Loop: Header=BB13_71 Depth=2
	movl	-4(%rbp), %eax
	addl	$1, %eax
	movl	%eax, -4(%rbp)
	jmp	.LBB13_71
.LBB13_74:                              # %for.end356
                                        #   in Loop: Header=BB13_53 Depth=1
	movq	-24(%rbp), %rax
	movl	-16(%rbp), %ecx
	shll	$8, %ecx
	movslq	%ecx, %rcx
	movl	(%rax,%rcx,4), %eax
	andl	$-2097153, %eax         # imm = 0xFFDFFFFF
	movl	%eax, -4(%rbp)
.LBB13_75:                              # %for.cond361
                                        #   Parent Loop BB13_53 Depth=1
                                        # =>  This Inner Loop Header: Depth=2
	movl	-4(%rbp), %eax
	movslq	-16(%rbp), %rcx
	cmpl	-3456(%rbp,%rcx,4), %eax
	jge	.LBB13_82
# %bb.76:                               # %for.body366
                                        #   in Loop: Header=BB13_75 Depth=2
	movq	-56(%rbp), %rax
	movslq	-4(%rbp), %rcx
	movl	(%rax,%rcx,4), %eax
	subl	$1, %eax
	movl	%eax, -36(%rbp)
	cmpl	$0, -36(%rbp)
	jge	.LBB13_78
# %bb.77:                               # %if.then372
                                        #   in Loop: Header=BB13_75 Depth=2
	movl	-32(%rbp), %eax
	addl	-36(%rbp), %eax
	movl	%eax, -36(%rbp)
.LBB13_78:                              # %if.end374
                                        #   in Loop: Header=BB13_75 Depth=2
	movq	-48(%rbp), %rax
	movslq	-36(%rbp), %rcx
	movb	(%rax,%rcx), %al
	movb	%al, -11(%rbp)
	movzbl	-11(%rbp), %eax
	cmpb	$0, -384(%rbp,%rax)
	jne	.LBB13_80
# %bb.79:                               # %if.then380
                                        #   in Loop: Header=BB13_75 Depth=2
	movl	-36(%rbp), %eax
	movq	-56(%rbp), %rcx
	movzbl	-11(%rbp), %edx
	movl	-3456(%rbp,%rdx,4), %esi
	movl	%esi, %edi
	addl	$1, %edi
	movl	%edi, -3456(%rbp,%rdx,4)
	movslq	%esi, %rdx
	movl	%eax, (%rcx,%rdx,4)
.LBB13_80:                              # %if.end386
                                        #   in Loop: Header=BB13_75 Depth=2
	jmp	.LBB13_81
.LBB13_81:                              # %for.inc387
                                        #   in Loop: Header=BB13_75 Depth=2
	movl	-4(%rbp), %eax
	addl	$1, %eax
	movl	%eax, -4(%rbp)
	jmp	.LBB13_75
.LBB13_82:                              # %for.end389
                                        #   in Loop: Header=BB13_53 Depth=1
	movq	-24(%rbp), %rax
	movl	-16(%rbp), %ecx
	addl	$1, %ecx
	shll	$8, %ecx
	movslq	%ecx, %rcx
	movl	(%rax,%rcx,4), %eax
	andl	$-2097153, %eax         # imm = 0xFFDFFFFF
	subl	$1, %eax
	movl	%eax, -4(%rbp)
.LBB13_83:                              # %for.cond396
                                        #   Parent Loop BB13_53 Depth=1
                                        # =>  This Inner Loop Header: Depth=2
	movl	-4(%rbp), %eax
	movslq	-16(%rbp), %rcx
	cmpl	-2432(%rbp,%rcx,4), %eax
	jle	.LBB13_90
# %bb.84:                               # %for.body401
                                        #   in Loop: Header=BB13_83 Depth=2
	movq	-56(%rbp), %rax
	movslq	-4(%rbp), %rcx
	movl	(%rax,%rcx,4), %eax
	subl	$1, %eax
	movl	%eax, -36(%rbp)
	cmpl	$0, -36(%rbp)
	jge	.LBB13_86
# %bb.85:                               # %if.then407
                                        #   in Loop: Header=BB13_83 Depth=2
	movl	-32(%rbp), %eax
	addl	-36(%rbp), %eax
	movl	%eax, -36(%rbp)
.LBB13_86:                              # %if.end409
                                        #   in Loop: Header=BB13_83 Depth=2
	movq	-48(%rbp), %rax
	movslq	-36(%rbp), %rcx
	movb	(%rax,%rcx), %al
	movb	%al, -11(%rbp)
	movzbl	-11(%rbp), %eax
	cmpb	$0, -384(%rbp,%rax)
	jne	.LBB13_88
# %bb.87:                               # %if.then415
                                        #   in Loop: Header=BB13_83 Depth=2
	movl	-36(%rbp), %eax
	movq	-56(%rbp), %rcx
	movzbl	-11(%rbp), %edx
	movl	-2432(%rbp,%rdx,4), %esi
	movl	%esi, %edi
	addl	$-1, %edi
	movl	%edi, -2432(%rbp,%rdx,4)
	movslq	%esi, %rdx
	movl	%eax, (%rcx,%rdx,4)
.LBB13_88:                              # %if.end421
                                        #   in Loop: Header=BB13_83 Depth=2
	jmp	.LBB13_89
.LBB13_89:                              # %for.inc422
                                        #   in Loop: Header=BB13_83 Depth=2
	movl	-4(%rbp), %eax
	addl	$-1, %eax
	movl	%eax, -4(%rbp)
	jmp	.LBB13_83
.LBB13_90:                              # %for.end424
                                        #   in Loop: Header=BB13_53 Depth=1
	movslq	-16(%rbp), %rax
	movl	-3456(%rbp,%rax,4), %eax
	subl	$1, %eax
	movslq	-16(%rbp), %rcx
	cmpl	-2432(%rbp,%rcx,4), %eax
	je	.LBB13_94
# %bb.91:                               # %lor.lhs.false
                                        #   in Loop: Header=BB13_53 Depth=1
	movslq	-16(%rbp), %rax
	cmpl	$0, -3456(%rbp,%rax,4)
	jne	.LBB13_93
# %bb.92:                               # %land.lhs.true
                                        #   in Loop: Header=BB13_53 Depth=1
	movslq	-16(%rbp), %rax
	movl	-2432(%rbp,%rax,4), %eax
	movl	-32(%rbp), %ecx
	subl	$1, %ecx
	cmpl	%ecx, %eax
	je	.LBB13_94
.LBB13_93:                              # %if.then441
                                        #   in Loop: Header=BB13_53 Depth=1
	movl	$1007, %edi             # imm = 0x3EF
	callq	BZ2_bz__AssertH__fail
.LBB13_94:                              # %if.end442
                                        #   in Loop: Header=BB13_53 Depth=1
	movl	$0, -4(%rbp)
.LBB13_95:                              # %for.cond443
                                        #   Parent Loop BB13_53 Depth=1
                                        # =>  This Inner Loop Header: Depth=2
	cmpl	$255, -4(%rbp)
	jg	.LBB13_98
# %bb.96:                               # %for.body446
                                        #   in Loop: Header=BB13_95 Depth=2
	movq	-24(%rbp), %rax
	movl	-4(%rbp), %ecx
	shll	$8, %ecx
	addl	-16(%rbp), %ecx
	movslq	%ecx, %rcx
	movl	(%rax,%rcx,4), %edx
	orl	$2097152, %edx          # imm = 0x200000
	movl	%edx, (%rax,%rcx,4)
# %bb.97:                               # %for.inc452
                                        #   in Loop: Header=BB13_95 Depth=2
	movl	-4(%rbp), %eax
	addl	$1, %eax
	movl	%eax, -4(%rbp)
	jmp	.LBB13_95
.LBB13_98:                              # %for.end454
                                        #   in Loop: Header=BB13_53 Depth=1
	movslq	-16(%rbp), %rax
	movb	$1, -384(%rbp,%rax)
	cmpl	$255, -8(%rbp)
	jge	.LBB13_111
# %bb.99:                               # %if.then459
                                        #   in Loop: Header=BB13_53 Depth=1
	movq	-24(%rbp), %rax
	movl	-16(%rbp), %ecx
	shll	$8, %ecx
	movslq	%ecx, %rcx
	movl	(%rax,%rcx,4), %eax
	andl	$-2097153, %eax         # imm = 0xFFDFFFFF
	movl	%eax, -112(%rbp)
	movq	-24(%rbp), %rax
	movl	-16(%rbp), %ecx
	addl	$1, %ecx
	shll	$8, %ecx
	movslq	%ecx, %rcx
	movl	(%rax,%rcx,4), %eax
	andl	$-2097153, %eax         # imm = 0xFFDFFFFF
	subl	-112(%rbp), %eax
	movl	%eax, -104(%rbp)
	movl	$0, -64(%rbp)
.LBB13_100:                             # %while.cond470
                                        #   Parent Loop BB13_53 Depth=1
                                        # =>  This Inner Loop Header: Depth=2
	movl	-104(%rbp), %eax
	movl	-64(%rbp), %ecx
                                        # kill: def $cl killed $ecx
	sarl	%cl, %eax
	cmpl	$65534, %eax            # imm = 0xFFFE
	jle	.LBB13_102
# %bb.101:                              # %while.body474
                                        #   in Loop: Header=BB13_100 Depth=2
	movl	-64(%rbp), %eax
	addl	$1, %eax
	movl	%eax, -64(%rbp)
	jmp	.LBB13_100
.LBB13_102:                             # %while.end476
                                        #   in Loop: Header=BB13_53 Depth=1
	movl	-104(%rbp), %eax
	subl	$1, %eax
	movl	%eax, -4(%rbp)
.LBB13_103:                             # %for.cond478
                                        #   Parent Loop BB13_53 Depth=1
                                        # =>  This Inner Loop Header: Depth=2
	cmpl	$0, -4(%rbp)
	jl	.LBB13_108
# %bb.104:                              # %for.body481
                                        #   in Loop: Header=BB13_103 Depth=2
	movq	-56(%rbp), %rax
	movl	-112(%rbp), %ecx
	addl	-4(%rbp), %ecx
	movslq	%ecx, %rcx
	movl	(%rax,%rcx,4), %eax
	movl	%eax, -100(%rbp)
	movl	-4(%rbp), %eax
	movl	-64(%rbp), %ecx
                                        # kill: def $cl killed $ecx
	sarl	%cl, %eax
	movw	%ax, -66(%rbp)
	movw	-66(%rbp), %ax
	movq	-80(%rbp), %rcx
	movslq	-100(%rbp), %rdx
	movw	%ax, (%rcx,%rdx,2)
	cmpl	$34, -100(%rbp)
	jge	.LBB13_106
# %bb.105:                              # %if.then491
                                        #   in Loop: Header=BB13_103 Depth=2
	movw	-66(%rbp), %ax
	movq	-80(%rbp), %rcx
	movl	-100(%rbp), %edx
	addl	-32(%rbp), %edx
	movslq	%edx, %rdx
	movw	%ax, (%rcx,%rdx,2)
.LBB13_106:                             # %if.end495
                                        #   in Loop: Header=BB13_103 Depth=2
	jmp	.LBB13_107
.LBB13_107:                             # %for.inc496
                                        #   in Loop: Header=BB13_103 Depth=2
	movl	-4(%rbp), %eax
	addl	$-1, %eax
	movl	%eax, -4(%rbp)
	jmp	.LBB13_103
.LBB13_108:                             # %for.end498
                                        #   in Loop: Header=BB13_53 Depth=1
	movl	-104(%rbp), %eax
	subl	$1, %eax
	movl	-64(%rbp), %ecx
                                        # kill: def $cl killed $ecx
	sarl	%cl, %eax
	cmpl	$65535, %eax            # imm = 0xFFFF
	jle	.LBB13_110
# %bb.109:                              # %if.then503
                                        #   in Loop: Header=BB13_53 Depth=1
	movl	$1002, %edi             # imm = 0x3EA
	callq	BZ2_bz__AssertH__fail
.LBB13_110:                             # %if.end504
                                        #   in Loop: Header=BB13_53 Depth=1
	jmp	.LBB13_111
.LBB13_111:                             # %if.end505
                                        #   in Loop: Header=BB13_53 Depth=1
	jmp	.LBB13_112
.LBB13_112:                             # %for.inc506
                                        #   in Loop: Header=BB13_53 Depth=1
	movl	-8(%rbp), %eax
	addl	$1, %eax
	movl	%eax, -8(%rbp)
	jmp	.LBB13_53
.LBB13_113:                             # %for.end508
	cmpl	$4, -88(%rbp)
	jl	.LBB13_115
# %bb.114:                              # %if.then511
	movq	stderr, %rdi
	movl	-32(%rbp), %edx
	movl	-60(%rbp), %ecx
	movl	-32(%rbp), %r8d
	subl	-60(%rbp), %r8d
	movabsq	$.L.str.8, %rsi
	movb	$0, %al
	callq	fprintf
.LBB13_115:                             # %if.end514
	cmpl	$2121151255, -116(%rbp) # imm = 0x7E6E3317
	jne	.LBB13_117
.LBB13_116:
	addq	$3472, %rsp             # imm = 0xD90
	popq	%rbp
	.cfi_def_cfa %rsp, 8
	retq
.LBB13_117:                             # %func_exit
	.cfi_def_cfa %rbp, 16
	callq	detect_breach
	jmp	.LBB13_116
.Lfunc_end13:
	.size	mainSort.5, .Lfunc_end13-mainSort.5
	.cfi_endproc
                                        # -- End function
	.globl	BZ2_blockSort.6         # -- Begin function BZ2_blockSort.6
	.p2align	4, 0x90
	.type	BZ2_blockSort.6,@function
BZ2_blockSort.6:                        # @BZ2_blockSort.6
	.cfi_startproc
# %bb.0:                                # %entry
	pushq	%rbp
	.cfi_def_cfa_offset 16
	.cfi_offset %rbp, -16
	movq	%rsp, %rbp
	.cfi_def_cfa_register %rbp
	subq	$80, %rsp
	movl	$1963052386, -44(%rbp)  # imm = 0x7501CD62
	movq	%rdi, -16(%rbp)
	movq	-16(%rbp), %rax
	movq	56(%rax), %rax
	movq	%rax, -56(%rbp)
	movq	-16(%rbp), %rax
	movq	64(%rax), %rax
	movq	%rax, -64(%rbp)
	movq	-16(%rbp), %rax
	movq	40(%rax), %rax
	movq	%rax, -40(%rbp)
	movq	-16(%rbp), %rax
	movl	108(%rax), %eax
	movl	%eax, -8(%rbp)
	movq	-16(%rbp), %rax
	movl	656(%rax), %eax
	movl	%eax, -20(%rbp)
	movq	-16(%rbp), %rax
	movl	88(%rax), %eax
	movl	%eax, -24(%rbp)
	cmpl	$10000, -8(%rbp)        # imm = 0x2710
	jge	.LBB14_2
# %bb.1:                                # %if.then
	movq	-16(%rbp), %rax
	movq	24(%rax), %rdi
	movq	-16(%rbp), %rax
	movq	32(%rax), %rsi
	movq	-40(%rbp), %rdx
	movl	-8(%rbp), %ecx
	movl	-20(%rbp), %r8d
	callq	fallbackSort
	jmp	.LBB14_18
.LBB14_2:                               # %if.else
	movl	-8(%rbp), %eax
	addl	$34, %eax
	movl	%eax, -4(%rbp)
	movl	-4(%rbp), %eax
	andl	$1, %eax
	cmpl	$0, %eax
	je	.LBB14_4
# %bb.3:                                # %if.then5
	movl	-4(%rbp), %eax
	addl	$1, %eax
	movl	%eax, -4(%rbp)
.LBB14_4:                               # %if.end
	movq	-64(%rbp), %rax
	movslq	-4(%rbp), %rcx
	addq	%rcx, %rax
	movq	%rax, -72(%rbp)
	cmpl	$1, -24(%rbp)
	jge	.LBB14_6
# %bb.5:                                # %if.then7
	movl	$1, -24(%rbp)
.LBB14_6:                               # %if.end8
	cmpl	$100, -24(%rbp)
	jle	.LBB14_8
# %bb.7:                                # %if.then10
	movl	$100, -24(%rbp)
.LBB14_8:                               # %if.end11
	movl	-8(%rbp), %ecx
	movl	-24(%rbp), %eax
	subl	$1, %eax
	cltd
	movl	$3, %esi
	idivl	%esi
	imull	%eax, %ecx
	movl	%ecx, -32(%rbp)
	movl	-32(%rbp), %eax
	movl	%eax, -28(%rbp)
	movq	-56(%rbp), %rdi
	movq	-64(%rbp), %rsi
	movq	-72(%rbp), %rdx
	movq	-40(%rbp), %rcx
	movl	-8(%rbp), %r8d
	movl	-20(%rbp), %r9d
	leaq	-28(%rbp), %rax
	movq	%rax, (%rsp)
	callq	mainSort
	cmpl	$3, -20(%rbp)
	jl	.LBB14_13
# %bb.9:                                # %if.then13
	movq	stderr, %rdi
	movl	-32(%rbp), %edx
	subl	-28(%rbp), %edx
	movl	-8(%rbp), %ecx
	movl	-32(%rbp), %eax
	subl	-28(%rbp), %eax
	vcvtsi2ss	%eax, %xmm0, %xmm0
	cmpl	$0, -8(%rbp)
	jne	.LBB14_11
# %bb.10:                               # %cond.true
	movl	$1, %eax
	jmp	.LBB14_12
.LBB14_11:                              # %cond.false
	movl	-8(%rbp), %eax
.LBB14_12:                              # %cond.end
	vcvtsi2ss	%eax, %xmm0, %xmm1
	vdivss	%xmm1, %xmm0, %xmm0
	vcvtss2sd	%xmm0, %xmm0, %xmm0
	movabsq	$.L.str, %rsi
	movb	$1, %al
	callq	fprintf
.LBB14_13:                              # %if.end21
	cmpl	$0, -28(%rbp)
	jge	.LBB14_17
# %bb.14:                               # %if.then24
	cmpl	$2, -20(%rbp)
	jl	.LBB14_16
# %bb.15:                               # %if.then27
	movq	stderr, %rdi
	movabsq	$.L.str.1, %rsi
	movb	$0, %al
	callq	fprintf
.LBB14_16:                              # %if.end29
	movq	-16(%rbp), %rax
	movq	24(%rax), %rdi
	movq	-16(%rbp), %rax
	movq	32(%rax), %rsi
	movq	-40(%rbp), %rdx
	movl	-8(%rbp), %ecx
	movl	-20(%rbp), %r8d
	callq	fallbackSort
.LBB14_17:                              # %if.end32
	jmp	.LBB14_18
.LBB14_18:                              # %if.end33
	movq	-16(%rbp), %rax
	movl	$-1, 48(%rax)
	movl	$0, -4(%rbp)
.LBB14_19:                              # %for.cond
                                        # =>This Inner Loop Header: Depth=1
	movl	-4(%rbp), %eax
	movq	-16(%rbp), %rcx
	cmpl	108(%rcx), %eax
	jge	.LBB14_24
# %bb.20:                               # %for.body
                                        #   in Loop: Header=BB14_19 Depth=1
	movq	-56(%rbp), %rax
	movslq	-4(%rbp), %rcx
	cmpl	$0, (%rax,%rcx,4)
	jne	.LBB14_22
# %bb.21:                               # %if.then41
	movl	-4(%rbp), %eax
	movq	-16(%rbp), %rcx
	movl	%eax, 48(%rcx)
	jmp	.LBB14_25
.LBB14_22:                              # %if.end43
                                        #   in Loop: Header=BB14_19 Depth=1
	jmp	.LBB14_23
.LBB14_23:                              # %for.inc
                                        #   in Loop: Header=BB14_19 Depth=1
	movl	-4(%rbp), %eax
	addl	$1, %eax
	movl	%eax, -4(%rbp)
	jmp	.LBB14_19
.LBB14_24:                              # %for.end.loopexit
	jmp	.LBB14_25
.LBB14_25:                              # %for.end
	movq	-16(%rbp), %rax
	cmpl	$-1, 48(%rax)
	jne	.LBB14_27
# %bb.26:                               # %if.then48
	movl	$1003, %edi             # imm = 0x3EB
	callq	BZ2_bz__AssertH__fail
.LBB14_27:                              # %if.end49
	cmpl	$1963052386, -44(%rbp)  # imm = 0x7501CD62
	jne	.LBB14_29
.LBB14_28:
	addq	$80, %rsp
	popq	%rbp
	.cfi_def_cfa %rsp, 8
	retq
.LBB14_29:                              # %func_exit
	.cfi_def_cfa %rbp, 16
	callq	detect_breach
	jmp	.LBB14_28
.Lfunc_end14:
	.size	BZ2_blockSort.6, .Lfunc_end14-BZ2_blockSort.6
	.cfi_endproc
                                        # -- End function
	.p2align	4, 0x90         # -- Begin function mainSort.7
	.type	mainSort.7,@function
mainSort.7:                             # @mainSort.7
	.cfi_startproc
# %bb.0:                                # %entry
	pushq	%rbp
	.cfi_def_cfa_offset 16
	.cfi_offset %rbp, -16
	movq	%rsp, %rbp
	.cfi_def_cfa_register %rbp
	subq	$3472, %rsp             # imm = 0xD90
	movq	16(%rbp), %rax
	movl	$365613627, -116(%rbp)  # imm = 0x15CAD23B
	movq	%rdi, -56(%rbp)
	movq	%rsi, -48(%rbp)
	movq	%rdx, -80(%rbp)
	movq	%rcx, -24(%rbp)
	movl	%r8d, -32(%rbp)
	movl	%r9d, -92(%rbp)
	cmpl	$4, -92(%rbp)
	jl	.LBB15_2
# %bb.1:                                # %if.then
	movq	stderr, %rdi
	movabsq	$.L.str.6, %rsi
	movb	$0, %al
	callq	fprintf
.LBB15_2:                               # %if.end
	movl	$65536, -8(%rbp)        # imm = 0x10000
.LBB15_3:                               # %for.cond
                                        # =>This Inner Loop Header: Depth=1
	cmpl	$0, -8(%rbp)
	jl	.LBB15_6
# %bb.4:                                # %for.body
                                        #   in Loop: Header=BB15_3 Depth=1
	movq	-24(%rbp), %rax
	movslq	-8(%rbp), %rcx
	movl	$0, (%rax,%rcx,4)
# %bb.5:                                # %for.inc
                                        #   in Loop: Header=BB15_3 Depth=1
	movl	-8(%rbp), %eax
	addl	$-1, %eax
	movl	%eax, -8(%rbp)
	jmp	.LBB15_3
.LBB15_6:                               # %for.end
	movq	-48(%rbp), %rax
	movzbl	(%rax), %eax
	shll	$8, %eax
	movl	%eax, -4(%rbp)
	movl	-32(%rbp), %eax
	subl	$1, %eax
	movl	%eax, -8(%rbp)
.LBB15_7:                               # %for.cond3
                                        # =>This Inner Loop Header: Depth=1
	cmpl	$3, -8(%rbp)
	jl	.LBB15_10
# %bb.8:                                # %for.body6
                                        #   in Loop: Header=BB15_7 Depth=1
	movq	-80(%rbp), %rax
	movslq	-8(%rbp), %rcx
	movw	$0, (%rax,%rcx,2)
	movl	-4(%rbp), %eax
	sarl	$8, %eax
	movq	-48(%rbp), %rcx
	movslq	-8(%rbp), %rdx
	movzbl	(%rcx,%rdx), %ecx
	movzwl	%cx, %ecx
	shll	$8, %ecx
	orl	%ecx, %eax
	movl	%eax, -4(%rbp)
	movq	-24(%rbp), %rax
	movslq	-4(%rbp), %rcx
	movl	(%rax,%rcx,4), %edx
	addl	$1, %edx
	movl	%edx, (%rax,%rcx,4)
	movq	-80(%rbp), %rax
	movl	-8(%rbp), %ecx
	subl	$1, %ecx
	movslq	%ecx, %rcx
	movw	$0, (%rax,%rcx,2)
	movl	-4(%rbp), %eax
	sarl	$8, %eax
	movq	-48(%rbp), %rcx
	movl	-8(%rbp), %edx
	subl	$1, %edx
	movslq	%edx, %rdx
	movzbl	(%rcx,%rdx), %ecx
	movzwl	%cx, %ecx
	shll	$8, %ecx
	orl	%ecx, %eax
	movl	%eax, -4(%rbp)
	movq	-24(%rbp), %rax
	movslq	-4(%rbp), %rcx
	movl	(%rax,%rcx,4), %edx
	addl	$1, %edx
	movl	%edx, (%rax,%rcx,4)
	movq	-80(%rbp), %rax
	movl	-8(%rbp), %ecx
	subl	$2, %ecx
	movslq	%ecx, %rcx
	movw	$0, (%rax,%rcx,2)
	movl	-4(%rbp), %eax
	sarl	$8, %eax
	movq	-48(%rbp), %rcx
	movl	-8(%rbp), %edx
	subl	$2, %edx
	movslq	%edx, %rdx
	movzbl	(%rcx,%rdx), %ecx
	movzwl	%cx, %ecx
	shll	$8, %ecx
	orl	%ecx, %eax
	movl	%eax, -4(%rbp)
	movq	-24(%rbp), %rax
	movslq	-4(%rbp), %rcx
	movl	(%rax,%rcx,4), %edx
	addl	$1, %edx
	movl	%edx, (%rax,%rcx,4)
	movq	-80(%rbp), %rax
	movl	-8(%rbp), %ecx
	subl	$3, %ecx
	movslq	%ecx, %rcx
	movw	$0, (%rax,%rcx,2)
	movl	-4(%rbp), %eax
	sarl	$8, %eax
	movq	-48(%rbp), %rcx
	movl	-8(%rbp), %edx
	subl	$3, %edx
	movslq	%edx, %rdx
	movzbl	(%rcx,%rdx), %ecx
	movzwl	%cx, %ecx
	shll	$8, %ecx
	orl	%ecx, %eax
	movl	%eax, -4(%rbp)
	movq	-24(%rbp), %rax
	movslq	-4(%rbp), %rcx
	movl	(%rax,%rcx,4), %edx
	addl	$1, %edx
	movl	%edx, (%rax,%rcx,4)
# %bb.9:                                # %for.inc58
                                        #   in Loop: Header=BB15_7 Depth=1
	movl	-8(%rbp), %eax
	subl	$4, %eax
	movl	%eax, -8(%rbp)
	jmp	.LBB15_7
.LBB15_10:                              # %for.end60
	jmp	.LBB15_11
.LBB15_11:                              # %for.cond61
                                        # =>This Inner Loop Header: Depth=1
	cmpl	$0, -8(%rbp)
	jl	.LBB15_14
# %bb.12:                               # %for.body64
                                        #   in Loop: Header=BB15_11 Depth=1
	movq	-80(%rbp), %rax
	movslq	-8(%rbp), %rcx
	movw	$0, (%rax,%rcx,2)
	movl	-4(%rbp), %eax
	sarl	$8, %eax
	movq	-48(%rbp), %rcx
	movslq	-8(%rbp), %rdx
	movzbl	(%rcx,%rdx), %ecx
	movzwl	%cx, %ecx
	shll	$8, %ecx
	orl	%ecx, %eax
	movl	%eax, -4(%rbp)
	movq	-24(%rbp), %rax
	movslq	-4(%rbp), %rcx
	movl	(%rax,%rcx,4), %edx
	addl	$1, %edx
	movl	%edx, (%rax,%rcx,4)
# %bb.13:                               # %for.inc77
                                        #   in Loop: Header=BB15_11 Depth=1
	movl	-8(%rbp), %eax
	addl	$-1, %eax
	movl	%eax, -8(%rbp)
	jmp	.LBB15_11
.LBB15_14:                              # %for.end79
	movl	$0, -8(%rbp)
.LBB15_15:                              # %for.cond80
                                        # =>This Inner Loop Header: Depth=1
	cmpl	$34, -8(%rbp)
	jge	.LBB15_18
# %bb.16:                               # %for.body83
                                        #   in Loop: Header=BB15_15 Depth=1
	movq	-48(%rbp), %rax
	movslq	-8(%rbp), %rcx
	movb	(%rax,%rcx), %al
	movq	-48(%rbp), %rcx
	movl	-32(%rbp), %edx
	addl	-8(%rbp), %edx
	movslq	%edx, %rdx
	movb	%al, (%rcx,%rdx)
	movq	-80(%rbp), %rax
	movl	-32(%rbp), %ecx
	addl	-8(%rbp), %ecx
	movslq	%ecx, %rcx
	movw	$0, (%rax,%rcx,2)
# %bb.17:                               # %for.inc91
                                        #   in Loop: Header=BB15_15 Depth=1
	movl	-8(%rbp), %eax
	addl	$1, %eax
	movl	%eax, -8(%rbp)
	jmp	.LBB15_15
.LBB15_18:                              # %for.end93
	cmpl	$4, -92(%rbp)
	jl	.LBB15_20
# %bb.19:                               # %if.then96
	movq	stderr, %rdi
	movabsq	$.L.str.2, %rsi
	movb	$0, %al
	callq	fprintf
.LBB15_20:                              # %if.end98
	movl	$1, -8(%rbp)
.LBB15_21:                              # %for.cond99
                                        # =>This Inner Loop Header: Depth=1
	cmpl	$65536, -8(%rbp)        # imm = 0x10000
	jg	.LBB15_24
# %bb.22:                               # %for.body102
                                        #   in Loop: Header=BB15_21 Depth=1
	movq	-24(%rbp), %rax
	movl	-8(%rbp), %ecx
	subl	$1, %ecx
	movslq	%ecx, %rcx
	movl	(%rax,%rcx,4), %eax
	movq	-24(%rbp), %rcx
	movslq	-8(%rbp), %rdx
	addl	(%rcx,%rdx,4), %eax
	movl	%eax, (%rcx,%rdx,4)
# %bb.23:                               # %for.inc109
                                        #   in Loop: Header=BB15_21 Depth=1
	movl	-8(%rbp), %eax
	addl	$1, %eax
	movl	%eax, -8(%rbp)
	jmp	.LBB15_21
.LBB15_24:                              # %for.end111
	movq	-48(%rbp), %rax
	movzbl	(%rax), %eax
	shll	$8, %eax
	movw	%ax, -10(%rbp)
	movl	-32(%rbp), %eax
	subl	$1, %eax
	movl	%eax, -8(%rbp)
.LBB15_25:                              # %for.cond117
                                        # =>This Inner Loop Header: Depth=1
	cmpl	$3, -8(%rbp)
	jl	.LBB15_28
# %bb.26:                               # %for.body120
                                        #   in Loop: Header=BB15_25 Depth=1
	movzwl	-10(%rbp), %eax
	sarl	$8, %eax
	movq	-48(%rbp), %rcx
	movslq	-8(%rbp), %rdx
	movzbl	(%rcx,%rdx), %ecx
	shll	$8, %ecx
	orl	%ecx, %eax
	movw	%ax, -10(%rbp)
	movq	-24(%rbp), %rax
	movzwl	-10(%rbp), %ecx
	movl	(%rax,%rcx,4), %eax
	subl	$1, %eax
	movl	%eax, -4(%rbp)
	movl	-4(%rbp), %eax
	movq	-24(%rbp), %rcx
	movzwl	-10(%rbp), %edx
	movl	%eax, (%rcx,%rdx,4)
	movl	-8(%rbp), %eax
	movq	-56(%rbp), %rcx
	movslq	-4(%rbp), %rdx
	movl	%eax, (%rcx,%rdx,4)
	movzwl	-10(%rbp), %eax
	sarl	$8, %eax
	movq	-48(%rbp), %rcx
	movl	-8(%rbp), %edx
	subl	$1, %edx
	movslq	%edx, %rdx
	movzbl	(%rcx,%rdx), %ecx
	shll	$8, %ecx
	orl	%ecx, %eax
	movw	%ax, -10(%rbp)
	movq	-24(%rbp), %rax
	movzwl	-10(%rbp), %ecx
	movl	(%rax,%rcx,4), %eax
	subl	$1, %eax
	movl	%eax, -4(%rbp)
	movl	-4(%rbp), %eax
	movq	-24(%rbp), %rcx
	movzwl	-10(%rbp), %edx
	movl	%eax, (%rcx,%rdx,4)
	movl	-8(%rbp), %eax
	subl	$1, %eax
	movq	-56(%rbp), %rcx
	movslq	-4(%rbp), %rdx
	movl	%eax, (%rcx,%rdx,4)
	movzwl	-10(%rbp), %eax
	sarl	$8, %eax
	movq	-48(%rbp), %rcx
	movl	-8(%rbp), %edx
	subl	$2, %edx
	movslq	%edx, %rdx
	movzbl	(%rcx,%rdx), %ecx
	shll	$8, %ecx
	orl	%ecx, %eax
	movw	%ax, -10(%rbp)
	movq	-24(%rbp), %rax
	movzwl	-10(%rbp), %ecx
	movl	(%rax,%rcx,4), %eax
	subl	$1, %eax
	movl	%eax, -4(%rbp)
	movl	-4(%rbp), %eax
	movq	-24(%rbp), %rcx
	movzwl	-10(%rbp), %edx
	movl	%eax, (%rcx,%rdx,4)
	movl	-8(%rbp), %eax
	subl	$2, %eax
	movq	-56(%rbp), %rcx
	movslq	-4(%rbp), %rdx
	movl	%eax, (%rcx,%rdx,4)
	movzwl	-10(%rbp), %eax
	sarl	$8, %eax
	movq	-48(%rbp), %rcx
	movl	-8(%rbp), %edx
	subl	$3, %edx
	movslq	%edx, %rdx
	movzbl	(%rcx,%rdx), %ecx
	shll	$8, %ecx
	orl	%ecx, %eax
	movw	%ax, -10(%rbp)
	movq	-24(%rbp), %rax
	movzwl	-10(%rbp), %ecx
	movl	(%rax,%rcx,4), %eax
	subl	$1, %eax
	movl	%eax, -4(%rbp)
	movl	-4(%rbp), %eax
	movq	-24(%rbp), %rcx
	movzwl	-10(%rbp), %edx
	movl	%eax, (%rcx,%rdx,4)
	movl	-8(%rbp), %eax
	subl	$3, %eax
	movq	-56(%rbp), %rcx
	movslq	-4(%rbp), %rdx
	movl	%eax, (%rcx,%rdx,4)
# %bb.27:                               # %for.inc187
                                        #   in Loop: Header=BB15_25 Depth=1
	movl	-8(%rbp), %eax
	subl	$4, %eax
	movl	%eax, -8(%rbp)
	jmp	.LBB15_25
.LBB15_28:                              # %for.end189
	jmp	.LBB15_29
.LBB15_29:                              # %for.cond190
                                        # =>This Inner Loop Header: Depth=1
	cmpl	$0, -8(%rbp)
	jl	.LBB15_32
# %bb.30:                               # %for.body193
                                        #   in Loop: Header=BB15_29 Depth=1
	movzwl	-10(%rbp), %eax
	sarl	$8, %eax
	movq	-48(%rbp), %rcx
	movslq	-8(%rbp), %rdx
	movzbl	(%rcx,%rdx), %ecx
	shll	$8, %ecx
	orl	%ecx, %eax
	movw	%ax, -10(%rbp)
	movq	-24(%rbp), %rax
	movzwl	-10(%rbp), %ecx
	movl	(%rax,%rcx,4), %eax
	subl	$1, %eax
	movl	%eax, -4(%rbp)
	movl	-4(%rbp), %eax
	movq	-24(%rbp), %rcx
	movzwl	-10(%rbp), %edx
	movl	%eax, (%rcx,%rdx,4)
	movl	-8(%rbp), %eax
	movq	-56(%rbp), %rcx
	movslq	-4(%rbp), %rdx
	movl	%eax, (%rcx,%rdx,4)
# %bb.31:                               # %for.inc209
                                        #   in Loop: Header=BB15_29 Depth=1
	movl	-8(%rbp), %eax
	addl	$-1, %eax
	movl	%eax, -8(%rbp)
	jmp	.LBB15_29
.LBB15_32:                              # %for.end211
	movl	$0, -8(%rbp)
.LBB15_33:                              # %for.cond212
                                        # =>This Inner Loop Header: Depth=1
	cmpl	$255, -8(%rbp)
	jg	.LBB15_36
# %bb.34:                               # %for.body215
                                        #   in Loop: Header=BB15_33 Depth=1
	movslq	-8(%rbp), %rax
	movb	$0, -384(%rbp,%rax)
	movl	-8(%rbp), %eax
	movslq	-8(%rbp), %rcx
	movl	%eax, -1408(%rbp,%rcx,4)
# %bb.35:                               # %for.inc220
                                        #   in Loop: Header=BB15_33 Depth=1
	movl	-8(%rbp), %eax
	addl	$1, %eax
	movl	%eax, -8(%rbp)
	jmp	.LBB15_33
.LBB15_36:                              # %for.end222
	movl	$1, -28(%rbp)
.LBB15_37:                              # %do.body
                                        # =>This Inner Loop Header: Depth=1
	imull	$3, -28(%rbp), %eax
	addl	$1, %eax
	movl	%eax, -28(%rbp)
# %bb.38:                               # %do.cond
                                        #   in Loop: Header=BB15_37 Depth=1
	cmpl	$256, -28(%rbp)         # imm = 0x100
	jle	.LBB15_37
# %bb.39:                               # %do.end
	jmp	.LBB15_40
.LBB15_40:                              # %do.body226
                                        # =>This Loop Header: Depth=1
                                        #     Child Loop BB15_41 Depth 2
                                        #       Child Loop BB15_43 Depth 3
	movl	-28(%rbp), %eax
	cltd
	movl	$3, %ecx
	idivl	%ecx
	movl	%eax, -28(%rbp)
	movl	-28(%rbp), %eax
	movl	%eax, -8(%rbp)
.LBB15_41:                              # %for.cond227
                                        #   Parent Loop BB15_40 Depth=1
                                        # =>  This Loop Header: Depth=2
                                        #       Child Loop BB15_43 Depth 3
	cmpl	$255, -8(%rbp)
	jg	.LBB15_50
# %bb.42:                               # %for.body230
                                        #   in Loop: Header=BB15_41 Depth=2
	movslq	-8(%rbp), %rax
	movl	-1408(%rbp,%rax,4), %eax
	movl	%eax, -104(%rbp)
	movl	-8(%rbp), %eax
	movl	%eax, -4(%rbp)
.LBB15_43:                              # %while.cond
                                        #   Parent Loop BB15_40 Depth=1
                                        #     Parent Loop BB15_41 Depth=2
                                        # =>    This Inner Loop Header: Depth=3
	movq	-24(%rbp), %rax
	movl	-4(%rbp), %ecx
	subl	-28(%rbp), %ecx
	movslq	%ecx, %rcx
	movl	-1408(%rbp,%rcx,4), %ecx
	addl	$1, %ecx
	shll	$8, %ecx
	movslq	%ecx, %rcx
	movl	(%rax,%rcx,4), %eax
	movq	-24(%rbp), %rcx
	movl	-4(%rbp), %edx
	subl	-28(%rbp), %edx
	movslq	%edx, %rdx
	movl	-1408(%rbp,%rdx,4), %edx
	shll	$8, %edx
	movslq	%edx, %rdx
	subl	(%rcx,%rdx,4), %eax
	movq	-24(%rbp), %rcx
	movl	-104(%rbp), %edx
	addl	$1, %edx
	shll	$8, %edx
	movslq	%edx, %rdx
	movl	(%rcx,%rdx,4), %ecx
	movq	-24(%rbp), %rdx
	movl	-104(%rbp), %esi
	shll	$8, %esi
	movslq	%esi, %rsi
	subl	(%rdx,%rsi,4), %ecx
	cmpl	%ecx, %eax
	jbe	.LBB15_47
# %bb.44:                               # %while.body
                                        #   in Loop: Header=BB15_43 Depth=3
	movl	-4(%rbp), %eax
	subl	-28(%rbp), %eax
	cltq
	movl	-1408(%rbp,%rax,4), %eax
	movslq	-4(%rbp), %rcx
	movl	%eax, -1408(%rbp,%rcx,4)
	movl	-4(%rbp), %eax
	subl	-28(%rbp), %eax
	movl	%eax, -4(%rbp)
	movl	-4(%rbp), %eax
	movl	-28(%rbp), %ecx
	subl	$1, %ecx
	cmpl	%ecx, %eax
	jg	.LBB15_46
# %bb.45:                               # %if.then266
                                        #   in Loop: Header=BB15_41 Depth=2
	jmp	.LBB15_48
.LBB15_46:                              # %if.end267
                                        #   in Loop: Header=BB15_43 Depth=3
	jmp	.LBB15_43
.LBB15_47:                              # %while.end
                                        #   in Loop: Header=BB15_41 Depth=2
	jmp	.LBB15_48
.LBB15_48:                              # %zero
                                        #   in Loop: Header=BB15_41 Depth=2
	movl	-104(%rbp), %eax
	movslq	-4(%rbp), %rcx
	movl	%eax, -1408(%rbp,%rcx,4)
# %bb.49:                               # %for.inc270
                                        #   in Loop: Header=BB15_41 Depth=2
	movl	-8(%rbp), %eax
	addl	$1, %eax
	movl	%eax, -8(%rbp)
	jmp	.LBB15_41
.LBB15_50:                              # %for.end272
                                        #   in Loop: Header=BB15_40 Depth=1
	jmp	.LBB15_51
.LBB15_51:                              # %do.cond273
                                        #   in Loop: Header=BB15_40 Depth=1
	cmpl	$1, -28(%rbp)
	jne	.LBB15_40
# %bb.52:                               # %do.end276
	movl	$0, -64(%rbp)
	movl	$0, -8(%rbp)
.LBB15_53:                              # %for.cond277
                                        # =>This Loop Header: Depth=1
                                        #     Child Loop BB15_55 Depth 2
                                        #     Child Loop BB15_71 Depth 2
                                        #     Child Loop BB15_75 Depth 2
                                        #     Child Loop BB15_83 Depth 2
                                        #     Child Loop BB15_95 Depth 2
                                        #     Child Loop BB15_100 Depth 2
                                        #     Child Loop BB15_103 Depth 2
	cmpl	$255, -8(%rbp)
	jg	.LBB15_113
# %bb.54:                               # %for.body280
                                        #   in Loop: Header=BB15_53 Depth=1
	movslq	-8(%rbp), %rax
	movl	-1408(%rbp,%rax,4), %eax
	movl	%eax, -16(%rbp)
	movl	$0, -4(%rbp)
.LBB15_55:                              # %for.cond283
                                        #   Parent Loop BB15_53 Depth=1
                                        # =>  This Inner Loop Header: Depth=2
	cmpl	$255, -4(%rbp)
	jg	.LBB15_68
# %bb.56:                               # %for.body286
                                        #   in Loop: Header=BB15_55 Depth=2
	movl	-4(%rbp), %eax
	cmpl	-16(%rbp), %eax
	je	.LBB15_66
# %bb.57:                               # %if.then289
                                        #   in Loop: Header=BB15_55 Depth=2
	movl	-16(%rbp), %eax
	shll	$8, %eax
	addl	-4(%rbp), %eax
	movl	%eax, -88(%rbp)
	movq	-24(%rbp), %rax
	movslq	-88(%rbp), %rcx
	movl	(%rax,%rcx,4), %eax
	andl	$2097152, %eax          # imm = 0x200000
	cmpl	$0, %eax
	jne	.LBB15_65
# %bb.58:                               # %if.then294
                                        #   in Loop: Header=BB15_55 Depth=2
	movq	-24(%rbp), %rax
	movslq	-88(%rbp), %rcx
	movl	(%rax,%rcx,4), %eax
	andl	$-2097153, %eax         # imm = 0xFFDFFFFF
	movl	%eax, -96(%rbp)
	movq	-24(%rbp), %rax
	movl	-88(%rbp), %ecx
	addl	$1, %ecx
	movslq	%ecx, %rcx
	movl	(%rax,%rcx,4), %eax
	andl	$-2097153, %eax         # imm = 0xFFDFFFFF
	subl	$1, %eax
	movl	%eax, -84(%rbp)
	movl	-84(%rbp), %eax
	cmpl	-96(%rbp), %eax
	jle	.LBB15_64
# %bb.59:                               # %if.then305
                                        #   in Loop: Header=BB15_55 Depth=2
	cmpl	$4, -92(%rbp)
	jl	.LBB15_61
# %bb.60:                               # %if.then308
                                        #   in Loop: Header=BB15_55 Depth=2
	movq	stderr, %rdi
	movl	-16(%rbp), %edx
	movl	-4(%rbp), %ecx
	movl	-64(%rbp), %r8d
	movl	-84(%rbp), %r9d
	subl	-96(%rbp), %r9d
	addl	$1, %r9d
	movabsq	$.L.str.7, %rsi
	movb	$0, %al
	callq	fprintf
.LBB15_61:                              # %if.end312
                                        #   in Loop: Header=BB15_55 Depth=2
	movq	-56(%rbp), %rdi
	movq	-48(%rbp), %rsi
	movq	-80(%rbp), %rdx
	movl	-32(%rbp), %ecx
	movl	-96(%rbp), %r8d
	movl	-84(%rbp), %r9d
	movq	16(%rbp), %rax
	movl	$2, (%rsp)
	movq	%rax, 8(%rsp)
	callq	mainQSort3
	movl	-84(%rbp), %eax
	subl	-96(%rbp), %eax
	addl	$1, %eax
	addl	-64(%rbp), %eax
	movl	%eax, -64(%rbp)
	movq	16(%rbp), %rax
	cmpl	$0, (%rax)
	jge	.LBB15_63
# %bb.62:                               # %if.then318
	jmp	.LBB15_115
.LBB15_63:                              # %if.end319
                                        #   in Loop: Header=BB15_55 Depth=2
	jmp	.LBB15_64
.LBB15_64:                              # %if.end320
                                        #   in Loop: Header=BB15_55 Depth=2
	jmp	.LBB15_65
.LBB15_65:                              # %if.end321
                                        #   in Loop: Header=BB15_55 Depth=2
	movq	-24(%rbp), %rax
	movslq	-88(%rbp), %rcx
	movl	(%rax,%rcx,4), %edx
	orl	$2097152, %edx          # imm = 0x200000
	movl	%edx, (%rax,%rcx,4)
.LBB15_66:                              # %if.end325
                                        #   in Loop: Header=BB15_55 Depth=2
	jmp	.LBB15_67
.LBB15_67:                              # %for.inc326
                                        #   in Loop: Header=BB15_55 Depth=2
	movl	-4(%rbp), %eax
	addl	$1, %eax
	movl	%eax, -4(%rbp)
	jmp	.LBB15_55
.LBB15_68:                              # %for.end328
                                        #   in Loop: Header=BB15_53 Depth=1
	movslq	-16(%rbp), %rax
	cmpb	$0, -384(%rbp,%rax)
	je	.LBB15_70
# %bb.69:                               # %if.then332
                                        #   in Loop: Header=BB15_53 Depth=1
	movl	$1006, %edi             # imm = 0x3EE
	callq	BZ2_bz__AssertH__fail
.LBB15_70:                              # %if.end333
                                        #   in Loop: Header=BB15_53 Depth=1
	movl	$0, -4(%rbp)
.LBB15_71:                              # %for.cond334
                                        #   Parent Loop BB15_53 Depth=1
                                        # =>  This Inner Loop Header: Depth=2
	cmpl	$255, -4(%rbp)
	jg	.LBB15_74
# %bb.72:                               # %for.body337
                                        #   in Loop: Header=BB15_71 Depth=2
	movq	-24(%rbp), %rax
	movl	-4(%rbp), %ecx
	shll	$8, %ecx
	addl	-16(%rbp), %ecx
	movslq	%ecx, %rcx
	movl	(%rax,%rcx,4), %eax
	andl	$-2097153, %eax         # imm = 0xFFDFFFFF
	movslq	-4(%rbp), %rcx
	movl	%eax, -2432(%rbp,%rcx,4)
	movq	-24(%rbp), %rax
	movl	-4(%rbp), %ecx
	shll	$8, %ecx
	addl	-16(%rbp), %ecx
	addl	$1, %ecx
	movslq	%ecx, %rcx
	movl	(%rax,%rcx,4), %eax
	andl	$-2097153, %eax         # imm = 0xFFDFFFFF
	subl	$1, %eax
	movslq	-4(%rbp), %rcx
	movl	%eax, -3456(%rbp,%rcx,4)
# %bb.73:                               # %for.inc354
                                        #   in Loop: Header=BB15_71 Depth=2
	movl	-4(%rbp), %eax
	addl	$1, %eax
	movl	%eax, -4(%rbp)
	jmp	.LBB15_71
.LBB15_74:                              # %for.end356
                                        #   in Loop: Header=BB15_53 Depth=1
	movq	-24(%rbp), %rax
	movl	-16(%rbp), %ecx
	shll	$8, %ecx
	movslq	%ecx, %rcx
	movl	(%rax,%rcx,4), %eax
	andl	$-2097153, %eax         # imm = 0xFFDFFFFF
	movl	%eax, -4(%rbp)
.LBB15_75:                              # %for.cond361
                                        #   Parent Loop BB15_53 Depth=1
                                        # =>  This Inner Loop Header: Depth=2
	movl	-4(%rbp), %eax
	movslq	-16(%rbp), %rcx
	cmpl	-2432(%rbp,%rcx,4), %eax
	jge	.LBB15_82
# %bb.76:                               # %for.body366
                                        #   in Loop: Header=BB15_75 Depth=2
	movq	-56(%rbp), %rax
	movslq	-4(%rbp), %rcx
	movl	(%rax,%rcx,4), %eax
	subl	$1, %eax
	movl	%eax, -36(%rbp)
	cmpl	$0, -36(%rbp)
	jge	.LBB15_78
# %bb.77:                               # %if.then372
                                        #   in Loop: Header=BB15_75 Depth=2
	movl	-32(%rbp), %eax
	addl	-36(%rbp), %eax
	movl	%eax, -36(%rbp)
.LBB15_78:                              # %if.end374
                                        #   in Loop: Header=BB15_75 Depth=2
	movq	-48(%rbp), %rax
	movslq	-36(%rbp), %rcx
	movb	(%rax,%rcx), %al
	movb	%al, -11(%rbp)
	movzbl	-11(%rbp), %eax
	cmpb	$0, -384(%rbp,%rax)
	jne	.LBB15_80
# %bb.79:                               # %if.then380
                                        #   in Loop: Header=BB15_75 Depth=2
	movl	-36(%rbp), %eax
	movq	-56(%rbp), %rcx
	movzbl	-11(%rbp), %edx
	movl	-2432(%rbp,%rdx,4), %esi
	movl	%esi, %edi
	addl	$1, %edi
	movl	%edi, -2432(%rbp,%rdx,4)
	movslq	%esi, %rdx
	movl	%eax, (%rcx,%rdx,4)
.LBB15_80:                              # %if.end386
                                        #   in Loop: Header=BB15_75 Depth=2
	jmp	.LBB15_81
.LBB15_81:                              # %for.inc387
                                        #   in Loop: Header=BB15_75 Depth=2
	movl	-4(%rbp), %eax
	addl	$1, %eax
	movl	%eax, -4(%rbp)
	jmp	.LBB15_75
.LBB15_82:                              # %for.end389
                                        #   in Loop: Header=BB15_53 Depth=1
	movq	-24(%rbp), %rax
	movl	-16(%rbp), %ecx
	addl	$1, %ecx
	shll	$8, %ecx
	movslq	%ecx, %rcx
	movl	(%rax,%rcx,4), %eax
	andl	$-2097153, %eax         # imm = 0xFFDFFFFF
	subl	$1, %eax
	movl	%eax, -4(%rbp)
.LBB15_83:                              # %for.cond396
                                        #   Parent Loop BB15_53 Depth=1
                                        # =>  This Inner Loop Header: Depth=2
	movl	-4(%rbp), %eax
	movslq	-16(%rbp), %rcx
	cmpl	-3456(%rbp,%rcx,4), %eax
	jle	.LBB15_90
# %bb.84:                               # %for.body401
                                        #   in Loop: Header=BB15_83 Depth=2
	movq	-56(%rbp), %rax
	movslq	-4(%rbp), %rcx
	movl	(%rax,%rcx,4), %eax
	subl	$1, %eax
	movl	%eax, -36(%rbp)
	cmpl	$0, -36(%rbp)
	jge	.LBB15_86
# %bb.85:                               # %if.then407
                                        #   in Loop: Header=BB15_83 Depth=2
	movl	-32(%rbp), %eax
	addl	-36(%rbp), %eax
	movl	%eax, -36(%rbp)
.LBB15_86:                              # %if.end409
                                        #   in Loop: Header=BB15_83 Depth=2
	movq	-48(%rbp), %rax
	movslq	-36(%rbp), %rcx
	movb	(%rax,%rcx), %al
	movb	%al, -11(%rbp)
	movzbl	-11(%rbp), %eax
	cmpb	$0, -384(%rbp,%rax)
	jne	.LBB15_88
# %bb.87:                               # %if.then415
                                        #   in Loop: Header=BB15_83 Depth=2
	movl	-36(%rbp), %eax
	movq	-56(%rbp), %rcx
	movzbl	-11(%rbp), %edx
	movl	-3456(%rbp,%rdx,4), %esi
	movl	%esi, %edi
	addl	$-1, %edi
	movl	%edi, -3456(%rbp,%rdx,4)
	movslq	%esi, %rdx
	movl	%eax, (%rcx,%rdx,4)
.LBB15_88:                              # %if.end421
                                        #   in Loop: Header=BB15_83 Depth=2
	jmp	.LBB15_89
.LBB15_89:                              # %for.inc422
                                        #   in Loop: Header=BB15_83 Depth=2
	movl	-4(%rbp), %eax
	addl	$-1, %eax
	movl	%eax, -4(%rbp)
	jmp	.LBB15_83
.LBB15_90:                              # %for.end424
                                        #   in Loop: Header=BB15_53 Depth=1
	movslq	-16(%rbp), %rax
	movl	-2432(%rbp,%rax,4), %eax
	subl	$1, %eax
	movslq	-16(%rbp), %rcx
	cmpl	-3456(%rbp,%rcx,4), %eax
	je	.LBB15_94
# %bb.91:                               # %lor.lhs.false
                                        #   in Loop: Header=BB15_53 Depth=1
	movslq	-16(%rbp), %rax
	cmpl	$0, -2432(%rbp,%rax,4)
	jne	.LBB15_93
# %bb.92:                               # %land.lhs.true
                                        #   in Loop: Header=BB15_53 Depth=1
	movslq	-16(%rbp), %rax
	movl	-3456(%rbp,%rax,4), %eax
	movl	-32(%rbp), %ecx
	subl	$1, %ecx
	cmpl	%ecx, %eax
	je	.LBB15_94
.LBB15_93:                              # %if.then441
                                        #   in Loop: Header=BB15_53 Depth=1
	movl	$1007, %edi             # imm = 0x3EF
	callq	BZ2_bz__AssertH__fail
.LBB15_94:                              # %if.end442
                                        #   in Loop: Header=BB15_53 Depth=1
	movl	$0, -4(%rbp)
.LBB15_95:                              # %for.cond443
                                        #   Parent Loop BB15_53 Depth=1
                                        # =>  This Inner Loop Header: Depth=2
	cmpl	$255, -4(%rbp)
	jg	.LBB15_98
# %bb.96:                               # %for.body446
                                        #   in Loop: Header=BB15_95 Depth=2
	movq	-24(%rbp), %rax
	movl	-4(%rbp), %ecx
	shll	$8, %ecx
	addl	-16(%rbp), %ecx
	movslq	%ecx, %rcx
	movl	(%rax,%rcx,4), %edx
	orl	$2097152, %edx          # imm = 0x200000
	movl	%edx, (%rax,%rcx,4)
# %bb.97:                               # %for.inc452
                                        #   in Loop: Header=BB15_95 Depth=2
	movl	-4(%rbp), %eax
	addl	$1, %eax
	movl	%eax, -4(%rbp)
	jmp	.LBB15_95
.LBB15_98:                              # %for.end454
                                        #   in Loop: Header=BB15_53 Depth=1
	movslq	-16(%rbp), %rax
	movb	$1, -384(%rbp,%rax)
	cmpl	$255, -8(%rbp)
	jge	.LBB15_111
# %bb.99:                               # %if.then459
                                        #   in Loop: Header=BB15_53 Depth=1
	movq	-24(%rbp), %rax
	movl	-16(%rbp), %ecx
	shll	$8, %ecx
	movslq	%ecx, %rcx
	movl	(%rax,%rcx,4), %eax
	andl	$-2097153, %eax         # imm = 0xFFDFFFFF
	movl	%eax, -112(%rbp)
	movq	-24(%rbp), %rax
	movl	-16(%rbp), %ecx
	addl	$1, %ecx
	shll	$8, %ecx
	movslq	%ecx, %rcx
	movl	(%rax,%rcx,4), %eax
	andl	$-2097153, %eax         # imm = 0xFFDFFFFF
	subl	-112(%rbp), %eax
	movl	%eax, -108(%rbp)
	movl	$0, -60(%rbp)
.LBB15_100:                             # %while.cond470
                                        #   Parent Loop BB15_53 Depth=1
                                        # =>  This Inner Loop Header: Depth=2
	movl	-108(%rbp), %eax
	movl	-60(%rbp), %ecx
                                        # kill: def $cl killed $ecx
	sarl	%cl, %eax
	cmpl	$65534, %eax            # imm = 0xFFFE
	jle	.LBB15_102
# %bb.101:                              # %while.body474
                                        #   in Loop: Header=BB15_100 Depth=2
	movl	-60(%rbp), %eax
	addl	$1, %eax
	movl	%eax, -60(%rbp)
	jmp	.LBB15_100
.LBB15_102:                             # %while.end476
                                        #   in Loop: Header=BB15_53 Depth=1
	movl	-108(%rbp), %eax
	subl	$1, %eax
	movl	%eax, -4(%rbp)
.LBB15_103:                             # %for.cond478
                                        #   Parent Loop BB15_53 Depth=1
                                        # =>  This Inner Loop Header: Depth=2
	cmpl	$0, -4(%rbp)
	jl	.LBB15_108
# %bb.104:                              # %for.body481
                                        #   in Loop: Header=BB15_103 Depth=2
	movq	-56(%rbp), %rax
	movl	-112(%rbp), %ecx
	addl	-4(%rbp), %ecx
	movslq	%ecx, %rcx
	movl	(%rax,%rcx,4), %eax
	movl	%eax, -100(%rbp)
	movl	-4(%rbp), %eax
	movl	-60(%rbp), %ecx
                                        # kill: def $cl killed $ecx
	sarl	%cl, %eax
	movw	%ax, -66(%rbp)
	movw	-66(%rbp), %ax
	movq	-80(%rbp), %rcx
	movslq	-100(%rbp), %rdx
	movw	%ax, (%rcx,%rdx,2)
	cmpl	$34, -100(%rbp)
	jge	.LBB15_106
# %bb.105:                              # %if.then491
                                        #   in Loop: Header=BB15_103 Depth=2
	movw	-66(%rbp), %ax
	movq	-80(%rbp), %rcx
	movl	-100(%rbp), %edx
	addl	-32(%rbp), %edx
	movslq	%edx, %rdx
	movw	%ax, (%rcx,%rdx,2)
.LBB15_106:                             # %if.end495
                                        #   in Loop: Header=BB15_103 Depth=2
	jmp	.LBB15_107
.LBB15_107:                             # %for.inc496
                                        #   in Loop: Header=BB15_103 Depth=2
	movl	-4(%rbp), %eax
	addl	$-1, %eax
	movl	%eax, -4(%rbp)
	jmp	.LBB15_103
.LBB15_108:                             # %for.end498
                                        #   in Loop: Header=BB15_53 Depth=1
	movl	-108(%rbp), %eax
	subl	$1, %eax
	movl	-60(%rbp), %ecx
                                        # kill: def $cl killed $ecx
	sarl	%cl, %eax
	cmpl	$65535, %eax            # imm = 0xFFFF
	jle	.LBB15_110
# %bb.109:                              # %if.then503
                                        #   in Loop: Header=BB15_53 Depth=1
	movl	$1002, %edi             # imm = 0x3EA
	callq	BZ2_bz__AssertH__fail
.LBB15_110:                             # %if.end504
                                        #   in Loop: Header=BB15_53 Depth=1
	jmp	.LBB15_111
.LBB15_111:                             # %if.end505
                                        #   in Loop: Header=BB15_53 Depth=1
	jmp	.LBB15_112
.LBB15_112:                             # %for.inc506
                                        #   in Loop: Header=BB15_53 Depth=1
	movl	-8(%rbp), %eax
	addl	$1, %eax
	movl	%eax, -8(%rbp)
	jmp	.LBB15_53
.LBB15_113:                             # %for.end508
	cmpl	$4, -92(%rbp)
	jl	.LBB15_115
# %bb.114:                              # %if.then511
	movq	stderr, %rdi
	movl	-32(%rbp), %edx
	movl	-64(%rbp), %ecx
	movl	-32(%rbp), %r8d
	subl	-64(%rbp), %r8d
	movabsq	$.L.str.8, %rsi
	movb	$0, %al
	callq	fprintf
.LBB15_115:                             # %if.end514
	cmpl	$365613627, -116(%rbp)  # imm = 0x15CAD23B
	jne	.LBB15_117
.LBB15_116:
	addq	$3472, %rsp             # imm = 0xD90
	popq	%rbp
	.cfi_def_cfa %rsp, 8
	retq
.LBB15_117:                             # %func_exit
	.cfi_def_cfa %rbp, 16
	callq	detect_breach
	jmp	.LBB15_116
.Lfunc_end15:
	.size	mainSort.7, .Lfunc_end15-mainSort.7
	.cfi_endproc
                                        # -- End function
	.p2align	4, 0x90         # -- Begin function mmed3.8
	.type	mmed3.8,@function
mmed3.8:                                # @mmed3.8
	.cfi_startproc
# %bb.0:                                # %entry
	pushq	%rbp
	.cfi_def_cfa_offset 16
	.cfi_offset %rbp, -16
	movq	%rsp, %rbp
	.cfi_def_cfa_register %rbp
	pushq	%rbx
	pushq	%rax
	.cfi_offset %rbx, -24
	movl	$780213663, -16(%rbp)   # imm = 0x2E811D9F
	movb	%dil, -10(%rbp)
	movb	%sil, -9(%rbp)
	movb	%dl, -11(%rbp)
	movzbl	-10(%rbp), %eax
	movzbl	-9(%rbp), %ecx
	cmpl	%ecx, %eax
	jle	.LBB16_2
# %bb.1:                                # %if.then
	movb	-10(%rbp), %al
	movb	%al, -12(%rbp)
	movb	-9(%rbp), %al
	movb	%al, -10(%rbp)
	movb	-12(%rbp), %al
	movb	%al, -9(%rbp)
.LBB16_2:                               # %if.end
	movzbl	-9(%rbp), %eax
	movzbl	-11(%rbp), %ecx
	cmpl	%ecx, %eax
	jle	.LBB16_6
# %bb.3:                                # %if.then7
	movb	-11(%rbp), %al
	movb	%al, -9(%rbp)
	movzbl	-10(%rbp), %eax
	movzbl	-9(%rbp), %ecx
	cmpl	%ecx, %eax
	jle	.LBB16_5
# %bb.4:                                # %if.then12
	movb	-10(%rbp), %al
	movb	%al, -9(%rbp)
.LBB16_5:                               # %if.end13
	jmp	.LBB16_6
.LBB16_6:                               # %if.end14
	movb	-9(%rbp), %bl
	cmpl	$780213663, -16(%rbp)   # imm = 0x2E811D9F
	jne	.LBB16_8
.LBB16_7:
	movzbl	%bl, %eax
	addq	$8, %rsp
	popq	%rbx
	popq	%rbp
	.cfi_def_cfa %rsp, 8
	retq
.LBB16_8:                               # %func_exit
	.cfi_def_cfa %rbp, 16
	callq	detect_breach
	jmp	.LBB16_7
.Lfunc_end16:
	.size	mmed3.8, .Lfunc_end16-mmed3.8
	.cfi_endproc
                                        # -- End function
	.p2align	4, 0x90         # -- Begin function fallbackQSort3.9
	.type	fallbackQSort3.9,@function
fallbackQSort3.9:                       # @fallbackQSort3.9
	.cfi_startproc
# %bb.0:                                # %entry
	pushq	%rbp
	.cfi_def_cfa_offset 16
	.cfi_offset %rbp, -16
	movq	%rsp, %rbp
	.cfi_def_cfa_register %rbp
	subq	$928, %rsp              # imm = 0x3A0
	movl	$1922387175, -104(%rbp) # imm = 0x72954CE7
	movq	%rdi, -24(%rbp)
	movq	%rsi, -88(%rbp)
	movl	%edx, -96(%rbp)
	movl	%ecx, -100(%rbp)
	movl	$0, -72(%rbp)
	movl	$0, -4(%rbp)
	movl	-96(%rbp), %eax
	movslq	-4(%rbp), %rcx
	movl	%eax, -928(%rbp,%rcx,4)
	movl	-100(%rbp), %eax
	movslq	-4(%rbp), %rcx
	movl	%eax, -528(%rbp,%rcx,4)
	movl	-4(%rbp), %eax
	addl	$1, %eax
	movl	%eax, -4(%rbp)
.LBB17_1:                               # %while.cond
                                        # =>This Loop Header: Depth=1
                                        #     Child Loop BB17_14 Depth 2
                                        #       Child Loop BB17_15 Depth 3
                                        #       Child Loop BB17_24 Depth 3
                                        #     Child Loop BB17_41 Depth 2
                                        #     Child Loop BB17_47 Depth 2
	cmpl	$0, -4(%rbp)
	jle	.LBB17_53
# %bb.2:                                # %while.body
                                        #   in Loop: Header=BB17_1 Depth=1
	cmpl	$100, -4(%rbp)
	jl	.LBB17_4
# %bb.3:                                # %if.then
                                        #   in Loop: Header=BB17_1 Depth=1
	movl	$1004, %edi             # imm = 0x3EC
	callq	BZ2_bz__AssertH__fail
.LBB17_4:                               # %if.end
                                        #   in Loop: Header=BB17_1 Depth=1
	movl	-4(%rbp), %eax
	addl	$-1, %eax
	movl	%eax, -4(%rbp)
	movslq	-4(%rbp), %rax
	movl	-928(%rbp,%rax,4), %eax
	movl	%eax, -32(%rbp)
	movslq	-4(%rbp), %rax
	movl	-528(%rbp,%rax,4), %eax
	movl	%eax, -28(%rbp)
	movl	-28(%rbp), %eax
	subl	-32(%rbp), %eax
	cmpl	$10, %eax
	jge	.LBB17_7
# %bb.5:                                # %if.then9
                                        #   in Loop: Header=BB17_1 Depth=1
	movq	-24(%rbp), %rdi
	movq	-88(%rbp), %rsi
	movl	-32(%rbp), %edx
	movl	-28(%rbp), %ecx
	callq	fallbackSimpleSort
.LBB17_6:                               # %while.cond.backedge
                                        #   in Loop: Header=BB17_1 Depth=1
	jmp	.LBB17_1
.LBB17_7:                               # %if.end10
                                        #   in Loop: Header=BB17_1 Depth=1
	imull	$7621, -72(%rbp), %eax  # imm = 0x1DC5
	addl	$1, %eax
	andl	$32767, %eax            # imm = 0x7FFF
	movl	%eax, -72(%rbp)
	movl	-72(%rbp), %eax
	xorl	%edx, %edx
	movl	$3, %ecx
	divl	%ecx
	movl	%edx, -92(%rbp)
	cmpl	$0, -92(%rbp)
	jne	.LBB17_9
# %bb.8:                                # %if.then13
                                        #   in Loop: Header=BB17_1 Depth=1
	movq	-88(%rbp), %rax
	movq	-24(%rbp), %rcx
	movslq	-32(%rbp), %rdx
	movl	(%rcx,%rdx,4), %ecx
	movl	(%rax,%rcx,4), %eax
	movl	%eax, -64(%rbp)
	jmp	.LBB17_13
.LBB17_9:                               # %if.else
                                        #   in Loop: Header=BB17_1 Depth=1
	cmpl	$1, -92(%rbp)
	jne	.LBB17_11
# %bb.10:                               # %if.then19
                                        #   in Loop: Header=BB17_1 Depth=1
	movq	-88(%rbp), %rax
	movq	-24(%rbp), %rcx
	movl	-32(%rbp), %edx
	addl	-28(%rbp), %edx
	sarl	$1, %edx
	movslq	%edx, %rdx
	movl	(%rcx,%rdx,4), %ecx
	movl	(%rax,%rcx,4), %eax
	movl	%eax, -64(%rbp)
	jmp	.LBB17_12
.LBB17_11:                              # %if.else25
                                        #   in Loop: Header=BB17_1 Depth=1
	movq	-88(%rbp), %rax
	movq	-24(%rbp), %rcx
	movslq	-28(%rbp), %rdx
	movl	(%rcx,%rdx,4), %ecx
	movl	(%rax,%rcx,4), %eax
	movl	%eax, -64(%rbp)
.LBB17_12:                              # %if.end30
                                        #   in Loop: Header=BB17_1 Depth=1
	jmp	.LBB17_13
.LBB17_13:                              # %if.end31
                                        #   in Loop: Header=BB17_1 Depth=1
	movl	-32(%rbp), %eax
	movl	%eax, -40(%rbp)
	movl	%eax, -8(%rbp)
	movl	-28(%rbp), %eax
	movl	%eax, -44(%rbp)
	movl	%eax, -12(%rbp)
.LBB17_14:                              # %while.body33
                                        #   Parent Loop BB17_1 Depth=1
                                        # =>  This Loop Header: Depth=2
                                        #       Child Loop BB17_15 Depth 3
                                        #       Child Loop BB17_24 Depth 3
	jmp	.LBB17_15
.LBB17_15:                              # %while.body35
                                        #   Parent Loop BB17_1 Depth=1
                                        #     Parent Loop BB17_14 Depth=2
                                        # =>    This Inner Loop Header: Depth=3
	movl	-8(%rbp), %eax
	cmpl	-12(%rbp), %eax
	jle	.LBB17_17
# %bb.16:                               # %if.then37
                                        #   in Loop: Header=BB17_14 Depth=2
	jmp	.LBB17_23
.LBB17_17:                              # %if.end38
                                        #   in Loop: Header=BB17_15 Depth=3
	movq	-88(%rbp), %rax
	movq	-24(%rbp), %rcx
	movslq	-8(%rbp), %rdx
	movl	(%rcx,%rdx,4), %ecx
	movl	(%rax,%rcx,4), %eax
	subl	-64(%rbp), %eax
	movl	%eax, -36(%rbp)
	cmpl	$0, -36(%rbp)
	jne	.LBB17_20
# %bb.18:                               # %if.then45
                                        #   in Loop: Header=BB17_15 Depth=3
	movq	-24(%rbp), %rax
	movslq	-8(%rbp), %rcx
	movl	(%rax,%rcx,4), %eax
	movl	%eax, -108(%rbp)
	movq	-24(%rbp), %rax
	movslq	-40(%rbp), %rcx
	movl	(%rax,%rcx,4), %eax
	movq	-24(%rbp), %rcx
	movslq	-8(%rbp), %rdx
	movl	%eax, (%rcx,%rdx,4)
	movl	-108(%rbp), %eax
	movq	-24(%rbp), %rcx
	movslq	-40(%rbp), %rdx
	movl	%eax, (%rcx,%rdx,4)
	movl	-40(%rbp), %eax
	addl	$1, %eax
	movl	%eax, -40(%rbp)
	movl	-8(%rbp), %eax
	addl	$1, %eax
	movl	%eax, -8(%rbp)
.LBB17_19:                              # %while.body35.backedge
                                        #   in Loop: Header=BB17_15 Depth=3
	jmp	.LBB17_15
.LBB17_20:                              # %if.end56
                                        #   in Loop: Header=BB17_15 Depth=3
	cmpl	$0, -36(%rbp)
	jle	.LBB17_22
# %bb.21:                               # %if.then58
                                        #   in Loop: Header=BB17_14 Depth=2
	jmp	.LBB17_23
.LBB17_22:                              # %if.end59
                                        #   in Loop: Header=BB17_15 Depth=3
	movl	-8(%rbp), %eax
	addl	$1, %eax
	movl	%eax, -8(%rbp)
	jmp	.LBB17_19
.LBB17_23:                              # %while.end
                                        #   in Loop: Header=BB17_14 Depth=2
	jmp	.LBB17_24
.LBB17_24:                              # %while.body62
                                        #   Parent Loop BB17_1 Depth=1
                                        #     Parent Loop BB17_14 Depth=2
                                        # =>    This Inner Loop Header: Depth=3
	movl	-8(%rbp), %eax
	cmpl	-12(%rbp), %eax
	jle	.LBB17_26
# %bb.25:                               # %if.then64
                                        #   in Loop: Header=BB17_14 Depth=2
	jmp	.LBB17_32
.LBB17_26:                              # %if.end65
                                        #   in Loop: Header=BB17_24 Depth=3
	movq	-88(%rbp), %rax
	movq	-24(%rbp), %rcx
	movslq	-12(%rbp), %rdx
	movl	(%rcx,%rdx,4), %ecx
	movl	(%rax,%rcx,4), %eax
	subl	-64(%rbp), %eax
	movl	%eax, -36(%rbp)
	cmpl	$0, -36(%rbp)
	jne	.LBB17_29
# %bb.27:                               # %if.then72
                                        #   in Loop: Header=BB17_24 Depth=3
	movq	-24(%rbp), %rax
	movslq	-12(%rbp), %rcx
	movl	(%rax,%rcx,4), %eax
	movl	%eax, -124(%rbp)
	movq	-24(%rbp), %rax
	movslq	-44(%rbp), %rcx
	movl	(%rax,%rcx,4), %eax
	movq	-24(%rbp), %rcx
	movslq	-12(%rbp), %rdx
	movl	%eax, (%rcx,%rdx,4)
	movl	-124(%rbp), %eax
	movq	-24(%rbp), %rcx
	movslq	-44(%rbp), %rdx
	movl	%eax, (%rcx,%rdx,4)
	movl	-44(%rbp), %eax
	addl	$-1, %eax
	movl	%eax, -44(%rbp)
	movl	-12(%rbp), %eax
	addl	$-1, %eax
	movl	%eax, -12(%rbp)
.LBB17_28:                              # %while.body62.backedge
                                        #   in Loop: Header=BB17_24 Depth=3
	jmp	.LBB17_24
.LBB17_29:                              # %if.end84
                                        #   in Loop: Header=BB17_24 Depth=3
	cmpl	$0, -36(%rbp)
	jge	.LBB17_31
# %bb.30:                               # %if.then86
                                        #   in Loop: Header=BB17_14 Depth=2
	jmp	.LBB17_32
.LBB17_31:                              # %if.end87
                                        #   in Loop: Header=BB17_24 Depth=3
	movl	-12(%rbp), %eax
	addl	$-1, %eax
	movl	%eax, -12(%rbp)
	jmp	.LBB17_28
.LBB17_32:                              # %while.end89
                                        #   in Loop: Header=BB17_14 Depth=2
	movl	-8(%rbp), %eax
	cmpl	-12(%rbp), %eax
	jle	.LBB17_34
# %bb.33:                               # %if.then91
                                        #   in Loop: Header=BB17_1 Depth=1
	jmp	.LBB17_35
.LBB17_34:                              # %if.end92
                                        #   in Loop: Header=BB17_14 Depth=2
	movq	-24(%rbp), %rax
	movslq	-8(%rbp), %rcx
	movl	(%rax,%rcx,4), %eax
	movl	%eax, -116(%rbp)
	movq	-24(%rbp), %rax
	movslq	-12(%rbp), %rcx
	movl	(%rax,%rcx,4), %eax
	movq	-24(%rbp), %rcx
	movslq	-8(%rbp), %rdx
	movl	%eax, (%rcx,%rdx,4)
	movl	-116(%rbp), %eax
	movq	-24(%rbp), %rcx
	movslq	-12(%rbp), %rdx
	movl	%eax, (%rcx,%rdx,4)
	movl	-8(%rbp), %eax
	addl	$1, %eax
	movl	%eax, -8(%rbp)
	movl	-12(%rbp), %eax
	addl	$-1, %eax
	movl	%eax, -12(%rbp)
	jmp	.LBB17_14
.LBB17_35:                              # %while.end104
                                        #   in Loop: Header=BB17_1 Depth=1
	movl	-44(%rbp), %eax
	cmpl	-40(%rbp), %eax
	jge	.LBB17_37
# %bb.36:                               # %if.then106
                                        #   in Loop: Header=BB17_1 Depth=1
	jmp	.LBB17_6
.LBB17_37:                              # %if.end107
                                        #   in Loop: Header=BB17_1 Depth=1
	movl	-40(%rbp), %eax
	subl	-32(%rbp), %eax
	movl	-8(%rbp), %ecx
	subl	-40(%rbp), %ecx
	cmpl	%ecx, %eax
	jge	.LBB17_39
# %bb.38:                               # %cond.true
                                        #   in Loop: Header=BB17_1 Depth=1
	movl	-40(%rbp), %eax
	subl	-32(%rbp), %eax
	jmp	.LBB17_40
.LBB17_39:                              # %cond.false
                                        #   in Loop: Header=BB17_1 Depth=1
	movl	-8(%rbp), %eax
	subl	-40(%rbp), %eax
.LBB17_40:                              # %cond.end
                                        #   in Loop: Header=BB17_1 Depth=1
	movl	%eax, -36(%rbp)
	movl	-32(%rbp), %eax
	movl	%eax, -52(%rbp)
	movl	-8(%rbp), %eax
	subl	-36(%rbp), %eax
	movl	%eax, -68(%rbp)
	movl	-36(%rbp), %eax
	movl	%eax, -76(%rbp)
.LBB17_41:                              # %while.cond114
                                        #   Parent Loop BB17_1 Depth=1
                                        # =>  This Inner Loop Header: Depth=2
	cmpl	$0, -76(%rbp)
	jle	.LBB17_43
# %bb.42:                               # %while.body116
                                        #   in Loop: Header=BB17_41 Depth=2
	movq	-24(%rbp), %rax
	movslq	-52(%rbp), %rcx
	movl	(%rax,%rcx,4), %eax
	movl	%eax, -112(%rbp)
	movq	-24(%rbp), %rax
	movslq	-68(%rbp), %rcx
	movl	(%rax,%rcx,4), %eax
	movq	-24(%rbp), %rcx
	movslq	-52(%rbp), %rdx
	movl	%eax, (%rcx,%rdx,4)
	movl	-112(%rbp), %eax
	movq	-24(%rbp), %rcx
	movslq	-68(%rbp), %rdx
	movl	%eax, (%rcx,%rdx,4)
	movl	-52(%rbp), %eax
	addl	$1, %eax
	movl	%eax, -52(%rbp)
	movl	-68(%rbp), %eax
	addl	$1, %eax
	movl	%eax, -68(%rbp)
	movl	-76(%rbp), %eax
	addl	$-1, %eax
	movl	%eax, -76(%rbp)
	jmp	.LBB17_41
.LBB17_43:                              # %while.end129
                                        #   in Loop: Header=BB17_1 Depth=1
	movl	-28(%rbp), %eax
	subl	-44(%rbp), %eax
	movl	-44(%rbp), %ecx
	subl	-12(%rbp), %ecx
	cmpl	%ecx, %eax
	jge	.LBB17_45
# %bb.44:                               # %cond.true133
                                        #   in Loop: Header=BB17_1 Depth=1
	movl	-28(%rbp), %eax
	subl	-44(%rbp), %eax
	jmp	.LBB17_46
.LBB17_45:                              # %cond.false135
                                        #   in Loop: Header=BB17_1 Depth=1
	movl	-44(%rbp), %eax
	subl	-12(%rbp), %eax
.LBB17_46:                              # %cond.end137
                                        #   in Loop: Header=BB17_1 Depth=1
	movl	%eax, -48(%rbp)
	movl	-8(%rbp), %eax
	movl	%eax, -60(%rbp)
	movl	-28(%rbp), %eax
	subl	-48(%rbp), %eax
	addl	$1, %eax
	movl	%eax, -56(%rbp)
	movl	-48(%rbp), %eax
	movl	%eax, -80(%rbp)
.LBB17_47:                              # %while.cond144
                                        #   Parent Loop BB17_1 Depth=1
                                        # =>  This Inner Loop Header: Depth=2
	cmpl	$0, -80(%rbp)
	jle	.LBB17_49
# %bb.48:                               # %while.body146
                                        #   in Loop: Header=BB17_47 Depth=2
	movq	-24(%rbp), %rax
	movslq	-60(%rbp), %rcx
	movl	(%rax,%rcx,4), %eax
	movl	%eax, -120(%rbp)
	movq	-24(%rbp), %rax
	movslq	-56(%rbp), %rcx
	movl	(%rax,%rcx,4), %eax
	movq	-24(%rbp), %rcx
	movslq	-60(%rbp), %rdx
	movl	%eax, (%rcx,%rdx,4)
	movl	-120(%rbp), %eax
	movq	-24(%rbp), %rcx
	movslq	-56(%rbp), %rdx
	movl	%eax, (%rcx,%rdx,4)
	movl	-60(%rbp), %eax
	addl	$1, %eax
	movl	%eax, -60(%rbp)
	movl	-56(%rbp), %eax
	addl	$1, %eax
	movl	%eax, -56(%rbp)
	movl	-80(%rbp), %eax
	addl	$-1, %eax
	movl	%eax, -80(%rbp)
	jmp	.LBB17_47
.LBB17_49:                              # %while.end159
                                        #   in Loop: Header=BB17_1 Depth=1
	movl	-32(%rbp), %eax
	addl	-8(%rbp), %eax
	subl	-40(%rbp), %eax
	subl	$1, %eax
	movl	%eax, -36(%rbp)
	movl	-28(%rbp), %eax
	movl	-44(%rbp), %ecx
	subl	-12(%rbp), %ecx
	subl	%ecx, %eax
	addl	$1, %eax
	movl	%eax, -48(%rbp)
	movl	-36(%rbp), %eax
	subl	-32(%rbp), %eax
	movl	-28(%rbp), %ecx
	subl	-48(%rbp), %ecx
	cmpl	%ecx, %eax
	jle	.LBB17_51
# %bb.50:                               # %if.then169
                                        #   in Loop: Header=BB17_1 Depth=1
	movl	-32(%rbp), %eax
	movslq	-4(%rbp), %rcx
	movl	%eax, -928(%rbp,%rcx,4)
	movl	-36(%rbp), %eax
	movslq	-4(%rbp), %rcx
	movl	%eax, -528(%rbp,%rcx,4)
	movl	-4(%rbp), %eax
	addl	$1, %eax
	movl	%eax, -4(%rbp)
	movl	-48(%rbp), %eax
	movslq	-4(%rbp), %rcx
	movl	%eax, -928(%rbp,%rcx,4)
	movl	-28(%rbp), %eax
	movslq	-4(%rbp), %rcx
	movl	%eax, -528(%rbp,%rcx,4)
	movl	-4(%rbp), %eax
	addl	$1, %eax
	movl	%eax, -4(%rbp)
	jmp	.LBB17_52
.LBB17_51:                              # %if.else180
                                        #   in Loop: Header=BB17_1 Depth=1
	movl	-48(%rbp), %eax
	movslq	-4(%rbp), %rcx
	movl	%eax, -928(%rbp,%rcx,4)
	movl	-28(%rbp), %eax
	movslq	-4(%rbp), %rcx
	movl	%eax, -528(%rbp,%rcx,4)
	movl	-4(%rbp), %eax
	addl	$1, %eax
	movl	%eax, -4(%rbp)
	movl	-32(%rbp), %eax
	movslq	-4(%rbp), %rcx
	movl	%eax, -928(%rbp,%rcx,4)
	movl	-36(%rbp), %eax
	movslq	-4(%rbp), %rcx
	movl	%eax, -528(%rbp,%rcx,4)
	movl	-4(%rbp), %eax
	addl	$1, %eax
	movl	%eax, -4(%rbp)
.LBB17_52:                              # %if.end191
                                        #   in Loop: Header=BB17_1 Depth=1
	jmp	.LBB17_6
.LBB17_53:                              # %while.end192
	cmpl	$1922387175, -104(%rbp) # imm = 0x72954CE7
	jne	.LBB17_55
.LBB17_54:
	addq	$928, %rsp              # imm = 0x3A0
	popq	%rbp
	.cfi_def_cfa %rsp, 8
	retq
.LBB17_55:                              # %func_exit
	.cfi_def_cfa %rbp, 16
	callq	detect_breach
	jmp	.LBB17_54
.Lfunc_end17:
	.size	fallbackQSort3.9, .Lfunc_end17-fallbackQSort3.9
	.cfi_endproc
                                        # -- End function
	.p2align	4, 0x90         # -- Begin function fallbackSort.10
	.type	fallbackSort.10,@function
fallbackSort.10:                        # @fallbackSort.10
	.cfi_startproc
# %bb.0:                                # %entry
	pushq	%rbp
	.cfi_def_cfa_offset 16
	.cfi_offset %rbp, -16
	movq	%rsp, %rbp
	.cfi_def_cfa_register %rbp
	subq	$2144, %rsp             # imm = 0x860
	movl	$1333128493, -88(%rbp)  # imm = 0x4F75ED2D
	movq	%rdi, -56(%rbp)
	movq	%rsi, -72(%rbp)
	movq	%rdx, -32(%rbp)
	movl	%ecx, -12(%rbp)
	movl	%r8d, -44(%rbp)
	movq	-72(%rbp), %rax
	movq	%rax, -80(%rbp)
	cmpl	$4, -44(%rbp)
	jl	.LBB18_2
# %bb.1:                                # %if.then
	movq	stderr, %rdi
	movabsq	$.L.str.2, %rsi
	movb	$0, %al
	callq	fprintf
.LBB18_2:                               # %if.end
	movl	$0, -4(%rbp)
.LBB18_3:                               # %for.cond
                                        # =>This Inner Loop Header: Depth=1
	cmpl	$257, -4(%rbp)          # imm = 0x101
	jge	.LBB18_6
# %bb.4:                                # %for.body
                                        #   in Loop: Header=BB18_3 Depth=1
	movslq	-4(%rbp), %rax
	movl	$0, -1120(%rbp,%rax,4)
# %bb.5:                                # %for.inc
                                        #   in Loop: Header=BB18_3 Depth=1
	movl	-4(%rbp), %eax
	addl	$1, %eax
	movl	%eax, -4(%rbp)
	jmp	.LBB18_3
.LBB18_6:                               # %for.end
	movl	$0, -4(%rbp)
.LBB18_7:                               # %for.cond2
                                        # =>This Inner Loop Header: Depth=1
	movl	-4(%rbp), %eax
	cmpl	-12(%rbp), %eax
	jge	.LBB18_10
# %bb.8:                                # %for.body4
                                        #   in Loop: Header=BB18_7 Depth=1
	movq	-80(%rbp), %rax
	movslq	-4(%rbp), %rcx
	movzbl	(%rax,%rcx), %eax
	movl	-1120(%rbp,%rax,4), %ecx
	addl	$1, %ecx
	movl	%ecx, -1120(%rbp,%rax,4)
# %bb.9:                                # %for.inc10
                                        #   in Loop: Header=BB18_7 Depth=1
	movl	-4(%rbp), %eax
	addl	$1, %eax
	movl	%eax, -4(%rbp)
	jmp	.LBB18_7
.LBB18_10:                              # %for.end12
	movl	$0, -4(%rbp)
.LBB18_11:                              # %for.cond13
                                        # =>This Inner Loop Header: Depth=1
	cmpl	$256, -4(%rbp)          # imm = 0x100
	jge	.LBB18_14
# %bb.12:                               # %for.body15
                                        #   in Loop: Header=BB18_11 Depth=1
	movslq	-4(%rbp), %rax
	movl	-1120(%rbp,%rax,4), %eax
	movslq	-4(%rbp), %rcx
	movl	%eax, -2144(%rbp,%rcx,4)
# %bb.13:                               # %for.inc20
                                        #   in Loop: Header=BB18_11 Depth=1
	movl	-4(%rbp), %eax
	addl	$1, %eax
	movl	%eax, -4(%rbp)
	jmp	.LBB18_11
.LBB18_14:                              # %for.end22
	movl	$1, -4(%rbp)
.LBB18_15:                              # %for.cond23
                                        # =>This Inner Loop Header: Depth=1
	cmpl	$257, -4(%rbp)          # imm = 0x101
	jge	.LBB18_18
# %bb.16:                               # %for.body25
                                        #   in Loop: Header=BB18_15 Depth=1
	movl	-4(%rbp), %eax
	subl	$1, %eax
	cltq
	movl	-1120(%rbp,%rax,4), %eax
	movslq	-4(%rbp), %rcx
	addl	-1120(%rbp,%rcx,4), %eax
	movl	%eax, -1120(%rbp,%rcx,4)
# %bb.17:                               # %for.inc30
                                        #   in Loop: Header=BB18_15 Depth=1
	movl	-4(%rbp), %eax
	addl	$1, %eax
	movl	%eax, -4(%rbp)
	jmp	.LBB18_15
.LBB18_18:                              # %for.end32
	movl	$0, -4(%rbp)
.LBB18_19:                              # %for.cond33
                                        # =>This Inner Loop Header: Depth=1
	movl	-4(%rbp), %eax
	cmpl	-12(%rbp), %eax
	jge	.LBB18_22
# %bb.20:                               # %for.body35
                                        #   in Loop: Header=BB18_19 Depth=1
	movq	-80(%rbp), %rax
	movslq	-4(%rbp), %rcx
	movzbl	(%rax,%rcx), %eax
	movl	%eax, -16(%rbp)
	movslq	-16(%rbp), %rax
	movl	-1120(%rbp,%rax,4), %eax
	subl	$1, %eax
	movl	%eax, -8(%rbp)
	movl	-8(%rbp), %eax
	movslq	-16(%rbp), %rcx
	movl	%eax, -1120(%rbp,%rcx,4)
	movl	-4(%rbp), %eax
	movq	-56(%rbp), %rcx
	movslq	-8(%rbp), %rdx
	movl	%eax, (%rcx,%rdx,4)
# %bb.21:                               # %for.inc45
                                        #   in Loop: Header=BB18_19 Depth=1
	movl	-4(%rbp), %eax
	addl	$1, %eax
	movl	%eax, -4(%rbp)
	jmp	.LBB18_19
.LBB18_22:                              # %for.end47
	movl	-12(%rbp), %eax
	cltd
	movl	$32, %ecx
	idivl	%ecx
	addl	$2, %eax
	movl	%eax, -84(%rbp)
	movl	$0, -4(%rbp)
.LBB18_23:                              # %for.cond49
                                        # =>This Inner Loop Header: Depth=1
	movl	-4(%rbp), %eax
	cmpl	-84(%rbp), %eax
	jge	.LBB18_26
# %bb.24:                               # %for.body52
                                        #   in Loop: Header=BB18_23 Depth=1
	movq	-32(%rbp), %rax
	movslq	-4(%rbp), %rcx
	movl	$0, (%rax,%rcx,4)
# %bb.25:                               # %for.inc55
                                        #   in Loop: Header=BB18_23 Depth=1
	movl	-4(%rbp), %eax
	addl	$1, %eax
	movl	%eax, -4(%rbp)
	jmp	.LBB18_23
.LBB18_26:                              # %for.end57
	movl	$0, -4(%rbp)
.LBB18_27:                              # %for.cond58
                                        # =>This Inner Loop Header: Depth=1
	cmpl	$256, -4(%rbp)          # imm = 0x100
	jge	.LBB18_30
# %bb.28:                               # %for.body61
                                        #   in Loop: Header=BB18_27 Depth=1
	movslq	-4(%rbp), %rax
	movl	-1120(%rbp,%rax,4), %ecx
	andl	$31, %ecx
                                        # kill: def $cl killed $ecx
	movl	$1, %eax
	shll	%cl, %eax
	movq	-32(%rbp), %rcx
	movslq	-4(%rbp), %rdx
	movl	-1120(%rbp,%rdx,4), %edx
	sarl	$5, %edx
	movslq	%edx, %rdx
	orl	(%rcx,%rdx,4), %eax
	movl	%eax, (%rcx,%rdx,4)
# %bb.29:                               # %for.inc68
                                        #   in Loop: Header=BB18_27 Depth=1
	movl	-4(%rbp), %eax
	addl	$1, %eax
	movl	%eax, -4(%rbp)
	jmp	.LBB18_27
.LBB18_30:                              # %for.end70
	movl	$0, -4(%rbp)
.LBB18_31:                              # %for.cond71
                                        # =>This Inner Loop Header: Depth=1
	cmpl	$32, -4(%rbp)
	jge	.LBB18_34
# %bb.32:                               # %for.body74
                                        #   in Loop: Header=BB18_31 Depth=1
	movl	-12(%rbp), %ecx
	movl	-4(%rbp), %eax
	shll	$1, %eax
	addl	%eax, %ecx
	andl	$31, %ecx
                                        # kill: def $cl killed $ecx
	movl	$1, %eax
	movl	$1, %edx
	shll	%cl, %edx
	movq	-32(%rbp), %rcx
	movl	-12(%rbp), %esi
	movl	-4(%rbp), %edi
	shll	$1, %edi
	addl	%edi, %esi
	sarl	$5, %esi
	movslq	%esi, %rsi
	orl	(%rcx,%rsi,4), %edx
	movl	%edx, (%rcx,%rsi,4)
	movl	-12(%rbp), %ecx
	movl	-4(%rbp), %edx
	shll	$1, %edx
	addl	%edx, %ecx
	addl	$1, %ecx
	andl	$31, %ecx
                                        # kill: def $cl killed $ecx
	shll	%cl, %eax
	xorl	$-1, %eax
	movq	-32(%rbp), %rcx
	movl	-12(%rbp), %edx
	movl	-4(%rbp), %esi
	shll	$1, %esi
	addl	%esi, %edx
	addl	$1, %edx
	sarl	$5, %edx
	movslq	%edx, %rdx
	andl	(%rcx,%rdx,4), %eax
	movl	%eax, (%rcx,%rdx,4)
# %bb.33:                               # %for.inc96
                                        #   in Loop: Header=BB18_31 Depth=1
	movl	-4(%rbp), %eax
	addl	$1, %eax
	movl	%eax, -4(%rbp)
	jmp	.LBB18_31
.LBB18_34:                              # %for.end98
	movl	$1, -36(%rbp)
.LBB18_35:                              # %while.body
                                        # =>This Loop Header: Depth=1
                                        #     Child Loop BB18_38 Depth 2
                                        #     Child Loop BB18_46 Depth 2
                                        #       Child Loop BB18_47 Depth 3
                                        #       Child Loop BB18_53 Depth 3
                                        #       Child Loop BB18_56 Depth 3
                                        #       Child Loop BB18_62 Depth 3
                                        #       Child Loop BB18_68 Depth 3
                                        #       Child Loop BB18_71 Depth 3
                                        #       Child Loop BB18_78 Depth 3
	cmpl	$4, -44(%rbp)
	jl	.LBB18_37
# %bb.36:                               # %if.then101
                                        #   in Loop: Header=BB18_35 Depth=1
	movq	stderr, %rdi
	movl	-36(%rbp), %edx
	movabsq	$.L.str.3, %rsi
	movb	$0, %al
	callq	fprintf
.LBB18_37:                              # %if.end103
                                        #   in Loop: Header=BB18_35 Depth=1
	movl	$0, -16(%rbp)
	movl	$0, -4(%rbp)
.LBB18_38:                              # %for.cond104
                                        #   Parent Loop BB18_35 Depth=1
                                        # =>  This Inner Loop Header: Depth=2
	movl	-4(%rbp), %eax
	cmpl	-12(%rbp), %eax
	jge	.LBB18_45
# %bb.39:                               # %for.body107
                                        #   in Loop: Header=BB18_38 Depth=2
	movq	-32(%rbp), %rax
	movl	-4(%rbp), %ecx
	sarl	$5, %ecx
	movslq	%ecx, %rcx
	movl	(%rax,%rcx,4), %eax
	movl	-4(%rbp), %ecx
	andl	$31, %ecx
                                        # kill: def $cl killed $ecx
	movl	$1, %edx
	shll	%cl, %edx
	andl	%edx, %eax
	cmpl	$0, %eax
	je	.LBB18_41
# %bb.40:                               # %if.then114
                                        #   in Loop: Header=BB18_38 Depth=2
	movl	-4(%rbp), %eax
	movl	%eax, -16(%rbp)
.LBB18_41:                              # %if.end115
                                        #   in Loop: Header=BB18_38 Depth=2
	movq	-56(%rbp), %rax
	movslq	-4(%rbp), %rcx
	movl	(%rax,%rcx,4), %eax
	subl	-36(%rbp), %eax
	movl	%eax, -8(%rbp)
	cmpl	$0, -8(%rbp)
	jge	.LBB18_43
# %bb.42:                               # %if.then121
                                        #   in Loop: Header=BB18_38 Depth=2
	movl	-12(%rbp), %eax
	addl	-8(%rbp), %eax
	movl	%eax, -8(%rbp)
.LBB18_43:                              # %if.end123
                                        #   in Loop: Header=BB18_38 Depth=2
	movl	-16(%rbp), %eax
	movq	-72(%rbp), %rcx
	movslq	-8(%rbp), %rdx
	movl	%eax, (%rcx,%rdx,4)
# %bb.44:                               # %for.inc126
                                        #   in Loop: Header=BB18_38 Depth=2
	movl	-4(%rbp), %eax
	addl	$1, %eax
	movl	%eax, -4(%rbp)
	jmp	.LBB18_38
.LBB18_45:                              # %for.end128
                                        #   in Loop: Header=BB18_35 Depth=1
	movl	$0, -48(%rbp)
	movl	$-1, -20(%rbp)
.LBB18_46:                              # %while.body130
                                        #   Parent Loop BB18_35 Depth=1
                                        # =>  This Loop Header: Depth=2
                                        #       Child Loop BB18_47 Depth 3
                                        #       Child Loop BB18_53 Depth 3
                                        #       Child Loop BB18_56 Depth 3
                                        #       Child Loop BB18_62 Depth 3
                                        #       Child Loop BB18_68 Depth 3
                                        #       Child Loop BB18_71 Depth 3
                                        #       Child Loop BB18_78 Depth 3
	movl	-20(%rbp), %eax
	addl	$1, %eax
	movl	%eax, -8(%rbp)
.LBB18_47:                              # %while.cond132
                                        #   Parent Loop BB18_35 Depth=1
                                        #     Parent Loop BB18_46 Depth=2
                                        # =>    This Inner Loop Header: Depth=3
	xorl	%eax, %eax
	movq	-32(%rbp), %rcx
	movl	-8(%rbp), %edx
	sarl	$5, %edx
	movslq	%edx, %rdx
	movl	(%rcx,%rdx,4), %edx
	movl	-8(%rbp), %ecx
	andl	$31, %ecx
                                        # kill: def $cl killed $ecx
	movl	$1, %esi
	shll	%cl, %esi
	andl	%esi, %edx
	cmpl	$0, %edx
	je	.LBB18_49
# %bb.48:                               # %land.rhs
                                        #   in Loop: Header=BB18_47 Depth=3
	movl	-8(%rbp), %eax
	andl	$31, %eax
	cmpl	$0, %eax
	setne	%al
.LBB18_49:                              # %land.end
                                        #   in Loop: Header=BB18_47 Depth=3
	testb	$1, %al
	jne	.LBB18_50
	jmp	.LBB18_51
.LBB18_50:                              # %while.body142
                                        #   in Loop: Header=BB18_47 Depth=3
	movl	-8(%rbp), %eax
	addl	$1, %eax
	movl	%eax, -8(%rbp)
	jmp	.LBB18_47
.LBB18_51:                              # %while.end
                                        #   in Loop: Header=BB18_46 Depth=2
	movq	-32(%rbp), %rax
	movl	-8(%rbp), %ecx
	sarl	$5, %ecx
	movslq	%ecx, %rcx
	movl	(%rax,%rcx,4), %eax
	movl	-8(%rbp), %ecx
	andl	$31, %ecx
                                        # kill: def $cl killed $ecx
	movl	$1, %edx
	shll	%cl, %edx
	andl	%edx, %eax
	cmpl	$0, %eax
	je	.LBB18_59
# %bb.52:                               # %if.then151
                                        #   in Loop: Header=BB18_46 Depth=2
	jmp	.LBB18_53
.LBB18_53:                              # %while.cond152
                                        #   Parent Loop BB18_35 Depth=1
                                        #     Parent Loop BB18_46 Depth=2
                                        # =>    This Inner Loop Header: Depth=3
	movq	-32(%rbp), %rax
	movl	-8(%rbp), %ecx
	sarl	$5, %ecx
	movslq	%ecx, %rcx
	cmpl	$-1, (%rax,%rcx,4)
	jne	.LBB18_55
# %bb.54:                               # %while.body158
                                        #   in Loop: Header=BB18_53 Depth=3
	movl	-8(%rbp), %eax
	addl	$32, %eax
	movl	%eax, -8(%rbp)
	jmp	.LBB18_53
.LBB18_55:                              # %while.end160
                                        #   in Loop: Header=BB18_46 Depth=2
	jmp	.LBB18_56
.LBB18_56:                              # %while.cond161
                                        #   Parent Loop BB18_35 Depth=1
                                        #     Parent Loop BB18_46 Depth=2
                                        # =>    This Inner Loop Header: Depth=3
	movq	-32(%rbp), %rax
	movl	-8(%rbp), %ecx
	sarl	$5, %ecx
	movslq	%ecx, %rcx
	movl	(%rax,%rcx,4), %eax
	movl	-8(%rbp), %ecx
	andl	$31, %ecx
                                        # kill: def $cl killed $ecx
	movl	$1, %edx
	shll	%cl, %edx
	andl	%edx, %eax
	cmpl	$0, %eax
	je	.LBB18_58
# %bb.57:                               # %while.body169
                                        #   in Loop: Header=BB18_56 Depth=3
	movl	-8(%rbp), %eax
	addl	$1, %eax
	movl	%eax, -8(%rbp)
	jmp	.LBB18_56
.LBB18_58:                              # %while.end171
                                        #   in Loop: Header=BB18_46 Depth=2
	jmp	.LBB18_59
.LBB18_59:                              # %if.end172
                                        #   in Loop: Header=BB18_46 Depth=2
	movl	-8(%rbp), %eax
	subl	$1, %eax
	movl	%eax, -40(%rbp)
	movl	-40(%rbp), %eax
	cmpl	-12(%rbp), %eax
	jl	.LBB18_61
# %bb.60:                               # %if.then176
                                        #   in Loop: Header=BB18_35 Depth=1
	jmp	.LBB18_85
.LBB18_61:                              # %if.end177
                                        #   in Loop: Header=BB18_46 Depth=2
	jmp	.LBB18_62
.LBB18_62:                              # %while.cond178
                                        #   Parent Loop BB18_35 Depth=1
                                        #     Parent Loop BB18_46 Depth=2
                                        # =>    This Inner Loop Header: Depth=3
	xorl	%eax, %eax
	movq	-32(%rbp), %rcx
	movl	-8(%rbp), %edx
	sarl	$5, %edx
	movslq	%edx, %rdx
	movl	(%rcx,%rdx,4), %edx
	movl	-8(%rbp), %ecx
	andl	$31, %ecx
                                        # kill: def $cl killed $ecx
	movl	$1, %esi
	shll	%cl, %esi
	andl	%esi, %edx
	cmpl	$0, %edx
	jne	.LBB18_64
# %bb.63:                               # %land.rhs186
                                        #   in Loop: Header=BB18_62 Depth=3
	movl	-8(%rbp), %eax
	andl	$31, %eax
	cmpl	$0, %eax
	setne	%al
.LBB18_64:                              # %land.end189
                                        #   in Loop: Header=BB18_62 Depth=3
	testb	$1, %al
	jne	.LBB18_65
	jmp	.LBB18_66
.LBB18_65:                              # %while.body190
                                        #   in Loop: Header=BB18_62 Depth=3
	movl	-8(%rbp), %eax
	addl	$1, %eax
	movl	%eax, -8(%rbp)
	jmp	.LBB18_62
.LBB18_66:                              # %while.end192
                                        #   in Loop: Header=BB18_46 Depth=2
	movq	-32(%rbp), %rax
	movl	-8(%rbp), %ecx
	sarl	$5, %ecx
	movslq	%ecx, %rcx
	movl	(%rax,%rcx,4), %eax
	movl	-8(%rbp), %ecx
	andl	$31, %ecx
                                        # kill: def $cl killed $ecx
	movl	$1, %edx
	shll	%cl, %edx
	andl	%edx, %eax
	cmpl	$0, %eax
	jne	.LBB18_74
# %bb.67:                               # %if.then200
                                        #   in Loop: Header=BB18_46 Depth=2
	jmp	.LBB18_68
.LBB18_68:                              # %while.cond201
                                        #   Parent Loop BB18_35 Depth=1
                                        #     Parent Loop BB18_46 Depth=2
                                        # =>    This Inner Loop Header: Depth=3
	movq	-32(%rbp), %rax
	movl	-8(%rbp), %ecx
	sarl	$5, %ecx
	movslq	%ecx, %rcx
	cmpl	$0, (%rax,%rcx,4)
	jne	.LBB18_70
# %bb.69:                               # %while.body207
                                        #   in Loop: Header=BB18_68 Depth=3
	movl	-8(%rbp), %eax
	addl	$32, %eax
	movl	%eax, -8(%rbp)
	jmp	.LBB18_68
.LBB18_70:                              # %while.end209
                                        #   in Loop: Header=BB18_46 Depth=2
	jmp	.LBB18_71
.LBB18_71:                              # %while.cond210
                                        #   Parent Loop BB18_35 Depth=1
                                        #     Parent Loop BB18_46 Depth=2
                                        # =>    This Inner Loop Header: Depth=3
	movq	-32(%rbp), %rax
	movl	-8(%rbp), %ecx
	sarl	$5, %ecx
	movslq	%ecx, %rcx
	movl	(%rax,%rcx,4), %eax
	movl	-8(%rbp), %ecx
	andl	$31, %ecx
                                        # kill: def $cl killed $ecx
	movl	$1, %edx
	shll	%cl, %edx
	andl	%edx, %eax
	cmpl	$0, %eax
	setne	%al
	xorb	$-1, %al
	testb	$1, %al
	jne	.LBB18_72
	jmp	.LBB18_73
.LBB18_72:                              # %while.body218
                                        #   in Loop: Header=BB18_71 Depth=3
	movl	-8(%rbp), %eax
	addl	$1, %eax
	movl	%eax, -8(%rbp)
	jmp	.LBB18_71
.LBB18_73:                              # %while.end220
                                        #   in Loop: Header=BB18_46 Depth=2
	jmp	.LBB18_74
.LBB18_74:                              # %if.end221
                                        #   in Loop: Header=BB18_46 Depth=2
	movl	-8(%rbp), %eax
	subl	$1, %eax
	movl	%eax, -20(%rbp)
	movl	-20(%rbp), %eax
	cmpl	-12(%rbp), %eax
	jl	.LBB18_76
# %bb.75:                               # %if.then225
                                        #   in Loop: Header=BB18_35 Depth=1
	jmp	.LBB18_85
.LBB18_76:                              # %if.end226
                                        #   in Loop: Header=BB18_46 Depth=2
	movl	-20(%rbp), %eax
	cmpl	-40(%rbp), %eax
	jle	.LBB18_84
# %bb.77:                               # %if.then229
                                        #   in Loop: Header=BB18_46 Depth=2
	movl	-20(%rbp), %eax
	subl	-40(%rbp), %eax
	addl	$1, %eax
	addl	-48(%rbp), %eax
	movl	%eax, -48(%rbp)
	movq	-56(%rbp), %rdi
	movq	-72(%rbp), %rsi
	movl	-40(%rbp), %edx
	movl	-20(%rbp), %ecx
	callq	fallbackQSort3
	movl	$-1, -64(%rbp)
	movl	-40(%rbp), %eax
	movl	%eax, -4(%rbp)
.LBB18_78:                              # %for.cond233
                                        #   Parent Loop BB18_35 Depth=1
                                        #     Parent Loop BB18_46 Depth=2
                                        # =>    This Inner Loop Header: Depth=3
	movl	-4(%rbp), %eax
	cmpl	-20(%rbp), %eax
	jg	.LBB18_83
# %bb.79:                               # %for.body236
                                        #   in Loop: Header=BB18_78 Depth=3
	movq	-72(%rbp), %rax
	movq	-56(%rbp), %rcx
	movslq	-4(%rbp), %rdx
	movl	(%rcx,%rdx,4), %ecx
	movl	(%rax,%rcx,4), %eax
	movl	%eax, -60(%rbp)
	movl	-64(%rbp), %eax
	cmpl	-60(%rbp), %eax
	je	.LBB18_81
# %bb.80:                               # %if.then243
                                        #   in Loop: Header=BB18_78 Depth=3
	movl	-4(%rbp), %ecx
	andl	$31, %ecx
                                        # kill: def $cl killed $ecx
	movl	$1, %eax
	shll	%cl, %eax
	movq	-32(%rbp), %rcx
	movl	-4(%rbp), %edx
	sarl	$5, %edx
	movslq	%edx, %rdx
	orl	(%rcx,%rdx,4), %eax
	movl	%eax, (%rcx,%rdx,4)
	movl	-60(%rbp), %eax
	movl	%eax, -64(%rbp)
.LBB18_81:                              # %if.end250
                                        #   in Loop: Header=BB18_78 Depth=3
	jmp	.LBB18_82
.LBB18_82:                              # %for.inc251
                                        #   in Loop: Header=BB18_78 Depth=3
	movl	-4(%rbp), %eax
	addl	$1, %eax
	movl	%eax, -4(%rbp)
	jmp	.LBB18_78
.LBB18_83:                              # %for.end253
                                        #   in Loop: Header=BB18_46 Depth=2
	jmp	.LBB18_84
.LBB18_84:                              # %if.end254
                                        #   in Loop: Header=BB18_46 Depth=2
	jmp	.LBB18_46
.LBB18_85:                              # %while.end255
                                        #   in Loop: Header=BB18_35 Depth=1
	cmpl	$4, -44(%rbp)
	jl	.LBB18_87
# %bb.86:                               # %if.then258
                                        #   in Loop: Header=BB18_35 Depth=1
	movq	stderr, %rdi
	movl	-48(%rbp), %edx
	movabsq	$.L.str.4, %rsi
	movb	$0, %al
	callq	fprintf
.LBB18_87:                              # %if.end260
                                        #   in Loop: Header=BB18_35 Depth=1
	movl	-36(%rbp), %eax
	shll	$1, %eax
	movl	%eax, -36(%rbp)
	movl	-36(%rbp), %eax
	cmpl	-12(%rbp), %eax
	jg	.LBB18_89
# %bb.88:                               # %lor.lhs.false
                                        #   in Loop: Header=BB18_35 Depth=1
	cmpl	$0, -48(%rbp)
	jne	.LBB18_90
.LBB18_89:                              # %if.then266
	jmp	.LBB18_91
.LBB18_90:                              # %if.end267
                                        #   in Loop: Header=BB18_35 Depth=1
	jmp	.LBB18_35
.LBB18_91:                              # %while.end268
	cmpl	$4, -44(%rbp)
	jl	.LBB18_93
# %bb.92:                               # %if.then271
	movq	stderr, %rdi
	movabsq	$.L.str.5, %rsi
	movb	$0, %al
	callq	fprintf
.LBB18_93:                              # %if.end273
	movl	$0, -16(%rbp)
	movl	$0, -4(%rbp)
.LBB18_94:                              # %for.cond274
                                        # =>This Loop Header: Depth=1
                                        #     Child Loop BB18_96 Depth 2
	movl	-4(%rbp), %eax
	cmpl	-12(%rbp), %eax
	jge	.LBB18_100
# %bb.95:                               # %for.body277
                                        #   in Loop: Header=BB18_94 Depth=1
	jmp	.LBB18_96
.LBB18_96:                              # %while.cond
                                        #   Parent Loop BB18_94 Depth=1
                                        # =>  This Inner Loop Header: Depth=2
	movslq	-16(%rbp), %rax
	cmpl	$0, -2144(%rbp,%rax,4)
	jne	.LBB18_98
# %bb.97:                               # %while.body282
                                        #   in Loop: Header=BB18_96 Depth=2
	movl	-16(%rbp), %eax
	addl	$1, %eax
	movl	%eax, -16(%rbp)
	jmp	.LBB18_96
.LBB18_98:                              # %while.end284
                                        #   in Loop: Header=BB18_94 Depth=1
	movslq	-16(%rbp), %rax
	movl	-2144(%rbp,%rax,4), %ecx
	addl	$-1, %ecx
	movl	%ecx, -2144(%rbp,%rax,4)
	movl	-16(%rbp), %eax
	movq	-80(%rbp), %rcx
	movq	-56(%rbp), %rdx
	movslq	-4(%rbp), %rsi
	movl	(%rdx,%rsi,4), %edx
	movb	%al, (%rcx,%rdx)
# %bb.99:                               # %for.inc292
                                        #   in Loop: Header=BB18_94 Depth=1
	movl	-4(%rbp), %eax
	addl	$1, %eax
	movl	%eax, -4(%rbp)
	jmp	.LBB18_94
.LBB18_100:                             # %for.end294
	cmpl	$256, -16(%rbp)         # imm = 0x100
	jl	.LBB18_102
# %bb.101:                              # %if.then297
	movl	$1005, %edi             # imm = 0x3ED
	callq	BZ2_bz__AssertH__fail
.LBB18_102:                             # %if.end298
	cmpl	$1333128493, -88(%rbp)  # imm = 0x4F75ED2D
	jne	.LBB18_104
.LBB18_103:
	addq	$2144, %rsp             # imm = 0x860
	popq	%rbp
	.cfi_def_cfa %rsp, 8
	retq
.LBB18_104:                             # %func_exit
	.cfi_def_cfa %rbp, 16
	callq	detect_breach
	jmp	.LBB18_103
.Lfunc_end18:
	.size	fallbackSort.10, .Lfunc_end18-fallbackSort.10
	.cfi_endproc
                                        # -- End function
	.p2align	4, 0x90         # -- Begin function fallbackSimpleSort.11
	.type	fallbackSimpleSort.11,@function
fallbackSimpleSort.11:                  # @fallbackSimpleSort.11
	.cfi_startproc
# %bb.0:                                # %entry
	pushq	%rbp
	.cfi_def_cfa_offset 16
	.cfi_offset %rbp, -16
	movq	%rsp, %rbp
	.cfi_def_cfa_register %rbp
	subq	$48, %rsp
	movl	$696956886, -44(%rbp)   # imm = 0x298AB7D6
	movq	%rdi, -24(%rbp)
	movq	%rsi, -40(%rbp)
	movl	%edx, -28(%rbp)
	movl	%ecx, -12(%rbp)
	movl	-28(%rbp), %eax
	cmpl	-12(%rbp), %eax
	jne	.LBB19_2
# %bb.1:                                # %if.then
	jmp	.LBB19_25
.LBB19_2:                               # %if.end
	movl	-12(%rbp), %eax
	subl	-28(%rbp), %eax
	cmpl	$3, %eax
	jle	.LBB19_14
# %bb.3:                                # %if.then2
	movl	-12(%rbp), %eax
	subl	$4, %eax
	movl	%eax, -8(%rbp)
.LBB19_4:                               # %for.cond
                                        # =>This Loop Header: Depth=1
                                        #     Child Loop BB19_6 Depth 2
	movl	-8(%rbp), %eax
	cmpl	-28(%rbp), %eax
	jl	.LBB19_13
# %bb.5:                                # %for.body
                                        #   in Loop: Header=BB19_4 Depth=1
	movq	-24(%rbp), %rax
	movslq	-8(%rbp), %rcx
	movl	(%rax,%rcx,4), %eax
	movl	%eax, -16(%rbp)
	movq	-40(%rbp), %rax
	movslq	-16(%rbp), %rcx
	movl	(%rax,%rcx,4), %eax
	movl	%eax, -32(%rbp)
	movl	-8(%rbp), %eax
	addl	$4, %eax
	movl	%eax, -4(%rbp)
.LBB19_6:                               # %for.cond7
                                        #   Parent Loop BB19_4 Depth=1
                                        # =>  This Inner Loop Header: Depth=2
	xorl	%eax, %eax
	movl	-4(%rbp), %ecx
	cmpl	-12(%rbp), %ecx
	jg	.LBB19_8
# %bb.7:                                # %land.rhs
                                        #   in Loop: Header=BB19_6 Depth=2
	movl	-32(%rbp), %eax
	movq	-40(%rbp), %rcx
	movq	-24(%rbp), %rdx
	movslq	-4(%rbp), %rsi
	movl	(%rdx,%rsi,4), %edx
	cmpl	(%rcx,%rdx,4), %eax
	seta	%al
.LBB19_8:                               # %land.end
                                        #   in Loop: Header=BB19_6 Depth=2
	testb	$1, %al
	jne	.LBB19_9
	jmp	.LBB19_11
.LBB19_9:                               # %for.body14
                                        #   in Loop: Header=BB19_6 Depth=2
	movq	-24(%rbp), %rax
	movslq	-4(%rbp), %rcx
	movl	(%rax,%rcx,4), %eax
	movq	-24(%rbp), %rcx
	movl	-4(%rbp), %edx
	subl	$4, %edx
	movslq	%edx, %rdx
	movl	%eax, (%rcx,%rdx,4)
# %bb.10:                               # %for.inc
                                        #   in Loop: Header=BB19_6 Depth=2
	movl	-4(%rbp), %eax
	addl	$4, %eax
	movl	%eax, -4(%rbp)
	jmp	.LBB19_6
.LBB19_11:                              # %for.end
                                        #   in Loop: Header=BB19_4 Depth=1
	movl	-16(%rbp), %eax
	movq	-24(%rbp), %rcx
	movl	-4(%rbp), %edx
	subl	$4, %edx
	movslq	%edx, %rdx
	movl	%eax, (%rcx,%rdx,4)
# %bb.12:                               # %for.inc24
                                        #   in Loop: Header=BB19_4 Depth=1
	movl	-8(%rbp), %eax
	addl	$-1, %eax
	movl	%eax, -8(%rbp)
	jmp	.LBB19_4
.LBB19_13:                              # %for.end25
	jmp	.LBB19_14
.LBB19_14:                              # %if.end26
	movl	-12(%rbp), %eax
	subl	$1, %eax
	movl	%eax, -8(%rbp)
.LBB19_15:                              # %for.cond28
                                        # =>This Loop Header: Depth=1
                                        #     Child Loop BB19_17 Depth 2
	movl	-8(%rbp), %eax
	cmpl	-28(%rbp), %eax
	jl	.LBB19_24
# %bb.16:                               # %for.body30
                                        #   in Loop: Header=BB19_15 Depth=1
	movq	-24(%rbp), %rax
	movslq	-8(%rbp), %rcx
	movl	(%rax,%rcx,4), %eax
	movl	%eax, -16(%rbp)
	movq	-40(%rbp), %rax
	movslq	-16(%rbp), %rcx
	movl	(%rax,%rcx,4), %eax
	movl	%eax, -32(%rbp)
	movl	-8(%rbp), %eax
	addl	$1, %eax
	movl	%eax, -4(%rbp)
.LBB19_17:                              # %for.cond36
                                        #   Parent Loop BB19_15 Depth=1
                                        # =>  This Inner Loop Header: Depth=2
	xorl	%eax, %eax
	movl	-4(%rbp), %ecx
	cmpl	-12(%rbp), %ecx
	jg	.LBB19_19
# %bb.18:                               # %land.rhs38
                                        #   in Loop: Header=BB19_17 Depth=2
	movl	-32(%rbp), %eax
	movq	-40(%rbp), %rcx
	movq	-24(%rbp), %rdx
	movslq	-4(%rbp), %rsi
	movl	(%rdx,%rsi,4), %edx
	cmpl	(%rcx,%rdx,4), %eax
	seta	%al
.LBB19_19:                              # %land.end44
                                        #   in Loop: Header=BB19_17 Depth=2
	testb	$1, %al
	jne	.LBB19_20
	jmp	.LBB19_22
.LBB19_20:                              # %for.body45
                                        #   in Loop: Header=BB19_17 Depth=2
	movq	-24(%rbp), %rax
	movslq	-4(%rbp), %rcx
	movl	(%rax,%rcx,4), %eax
	movq	-24(%rbp), %rcx
	movl	-4(%rbp), %edx
	subl	$1, %edx
	movslq	%edx, %rdx
	movl	%eax, (%rcx,%rdx,4)
# %bb.21:                               # %for.inc51
                                        #   in Loop: Header=BB19_17 Depth=2
	movl	-4(%rbp), %eax
	addl	$1, %eax
	movl	%eax, -4(%rbp)
	jmp	.LBB19_17
.LBB19_22:                              # %for.end52
                                        #   in Loop: Header=BB19_15 Depth=1
	movl	-16(%rbp), %eax
	movq	-24(%rbp), %rcx
	movl	-4(%rbp), %edx
	subl	$1, %edx
	movslq	%edx, %rdx
	movl	%eax, (%rcx,%rdx,4)
# %bb.23:                               # %for.inc56
                                        #   in Loop: Header=BB19_15 Depth=1
	movl	-8(%rbp), %eax
	addl	$-1, %eax
	movl	%eax, -8(%rbp)
	jmp	.LBB19_15
.LBB19_24:                              # %for.end58.loopexit
	jmp	.LBB19_25
.LBB19_25:                              # %for.end58
	cmpl	$696956886, -44(%rbp)   # imm = 0x298AB7D6
	jne	.LBB19_27
.LBB19_26:
	addq	$48, %rsp
	popq	%rbp
	.cfi_def_cfa %rsp, 8
	retq
.LBB19_27:                              # %func_exit
	.cfi_def_cfa %rbp, 16
	callq	detect_breach
	jmp	.LBB19_26
.Lfunc_end19:
	.size	fallbackSimpleSort.11, .Lfunc_end19-fallbackSimpleSort.11
	.cfi_endproc
                                        # -- End function
	.p2align	4, 0x90         # -- Begin function fallbackSimpleSort.12
	.type	fallbackSimpleSort.12,@function
fallbackSimpleSort.12:                  # @fallbackSimpleSort.12
	.cfi_startproc
# %bb.0:                                # %entry
	pushq	%rbp
	.cfi_def_cfa_offset 16
	.cfi_offset %rbp, -16
	movq	%rsp, %rbp
	.cfi_def_cfa_register %rbp
	subq	$48, %rsp
	movl	$466638756, -44(%rbp)   # imm = 0x1BD057A4
	movq	%rdi, -24(%rbp)
	movq	%rsi, -40(%rbp)
	movl	%edx, -28(%rbp)
	movl	%ecx, -12(%rbp)
	movl	-28(%rbp), %eax
	cmpl	-12(%rbp), %eax
	jne	.LBB20_2
# %bb.1:                                # %if.then
	jmp	.LBB20_25
.LBB20_2:                               # %if.end
	movl	-12(%rbp), %eax
	subl	-28(%rbp), %eax
	cmpl	$3, %eax
	jle	.LBB20_14
# %bb.3:                                # %if.then2
	movl	-12(%rbp), %eax
	subl	$4, %eax
	movl	%eax, -8(%rbp)
.LBB20_4:                               # %for.cond
                                        # =>This Loop Header: Depth=1
                                        #     Child Loop BB20_6 Depth 2
	movl	-8(%rbp), %eax
	cmpl	-28(%rbp), %eax
	jl	.LBB20_13
# %bb.5:                                # %for.body
                                        #   in Loop: Header=BB20_4 Depth=1
	movq	-24(%rbp), %rax
	movslq	-8(%rbp), %rcx
	movl	(%rax,%rcx,4), %eax
	movl	%eax, -16(%rbp)
	movq	-40(%rbp), %rax
	movslq	-16(%rbp), %rcx
	movl	(%rax,%rcx,4), %eax
	movl	%eax, -32(%rbp)
	movl	-8(%rbp), %eax
	addl	$4, %eax
	movl	%eax, -4(%rbp)
.LBB20_6:                               # %for.cond7
                                        #   Parent Loop BB20_4 Depth=1
                                        # =>  This Inner Loop Header: Depth=2
	xorl	%eax, %eax
	movl	-4(%rbp), %ecx
	cmpl	-12(%rbp), %ecx
	jg	.LBB20_8
# %bb.7:                                # %land.rhs
                                        #   in Loop: Header=BB20_6 Depth=2
	movl	-32(%rbp), %eax
	movq	-40(%rbp), %rcx
	movq	-24(%rbp), %rdx
	movslq	-4(%rbp), %rsi
	movl	(%rdx,%rsi,4), %edx
	cmpl	(%rcx,%rdx,4), %eax
	seta	%al
.LBB20_8:                               # %land.end
                                        #   in Loop: Header=BB20_6 Depth=2
	testb	$1, %al
	jne	.LBB20_9
	jmp	.LBB20_11
.LBB20_9:                               # %for.body14
                                        #   in Loop: Header=BB20_6 Depth=2
	movq	-24(%rbp), %rax
	movslq	-4(%rbp), %rcx
	movl	(%rax,%rcx,4), %eax
	movq	-24(%rbp), %rcx
	movl	-4(%rbp), %edx
	subl	$4, %edx
	movslq	%edx, %rdx
	movl	%eax, (%rcx,%rdx,4)
# %bb.10:                               # %for.inc
                                        #   in Loop: Header=BB20_6 Depth=2
	movl	-4(%rbp), %eax
	addl	$4, %eax
	movl	%eax, -4(%rbp)
	jmp	.LBB20_6
.LBB20_11:                              # %for.end
                                        #   in Loop: Header=BB20_4 Depth=1
	movl	-16(%rbp), %eax
	movq	-24(%rbp), %rcx
	movl	-4(%rbp), %edx
	subl	$4, %edx
	movslq	%edx, %rdx
	movl	%eax, (%rcx,%rdx,4)
# %bb.12:                               # %for.inc24
                                        #   in Loop: Header=BB20_4 Depth=1
	movl	-8(%rbp), %eax
	addl	$-1, %eax
	movl	%eax, -8(%rbp)
	jmp	.LBB20_4
.LBB20_13:                              # %for.end25
	jmp	.LBB20_14
.LBB20_14:                              # %if.end26
	movl	-12(%rbp), %eax
	subl	$1, %eax
	movl	%eax, -8(%rbp)
.LBB20_15:                              # %for.cond28
                                        # =>This Loop Header: Depth=1
                                        #     Child Loop BB20_17 Depth 2
	movl	-8(%rbp), %eax
	cmpl	-28(%rbp), %eax
	jl	.LBB20_24
# %bb.16:                               # %for.body30
                                        #   in Loop: Header=BB20_15 Depth=1
	movq	-24(%rbp), %rax
	movslq	-8(%rbp), %rcx
	movl	(%rax,%rcx,4), %eax
	movl	%eax, -16(%rbp)
	movq	-40(%rbp), %rax
	movslq	-16(%rbp), %rcx
	movl	(%rax,%rcx,4), %eax
	movl	%eax, -32(%rbp)
	movl	-8(%rbp), %eax
	addl	$1, %eax
	movl	%eax, -4(%rbp)
.LBB20_17:                              # %for.cond36
                                        #   Parent Loop BB20_15 Depth=1
                                        # =>  This Inner Loop Header: Depth=2
	xorl	%eax, %eax
	movl	-4(%rbp), %ecx
	cmpl	-12(%rbp), %ecx
	jg	.LBB20_19
# %bb.18:                               # %land.rhs38
                                        #   in Loop: Header=BB20_17 Depth=2
	movl	-32(%rbp), %eax
	movq	-40(%rbp), %rcx
	movq	-24(%rbp), %rdx
	movslq	-4(%rbp), %rsi
	movl	(%rdx,%rsi,4), %edx
	cmpl	(%rcx,%rdx,4), %eax
	seta	%al
.LBB20_19:                              # %land.end44
                                        #   in Loop: Header=BB20_17 Depth=2
	testb	$1, %al
	jne	.LBB20_20
	jmp	.LBB20_22
.LBB20_20:                              # %for.body45
                                        #   in Loop: Header=BB20_17 Depth=2
	movq	-24(%rbp), %rax
	movslq	-4(%rbp), %rcx
	movl	(%rax,%rcx,4), %eax
	movq	-24(%rbp), %rcx
	movl	-4(%rbp), %edx
	subl	$1, %edx
	movslq	%edx, %rdx
	movl	%eax, (%rcx,%rdx,4)
# %bb.21:                               # %for.inc51
                                        #   in Loop: Header=BB20_17 Depth=2
	movl	-4(%rbp), %eax
	addl	$1, %eax
	movl	%eax, -4(%rbp)
	jmp	.LBB20_17
.LBB20_22:                              # %for.end52
                                        #   in Loop: Header=BB20_15 Depth=1
	movl	-16(%rbp), %eax
	movq	-24(%rbp), %rcx
	movl	-4(%rbp), %edx
	subl	$1, %edx
	movslq	%edx, %rdx
	movl	%eax, (%rcx,%rdx,4)
# %bb.23:                               # %for.inc56
                                        #   in Loop: Header=BB20_15 Depth=1
	movl	-8(%rbp), %eax
	addl	$-1, %eax
	movl	%eax, -8(%rbp)
	jmp	.LBB20_15
.LBB20_24:                              # %for.end58.loopexit
	jmp	.LBB20_25
.LBB20_25:                              # %for.end58
	cmpl	$466638756, -44(%rbp)   # imm = 0x1BD057A4
	jne	.LBB20_27
.LBB20_26:
	addq	$48, %rsp
	popq	%rbp
	.cfi_def_cfa %rsp, 8
	retq
.LBB20_27:                              # %func_exit
	.cfi_def_cfa %rbp, 16
	callq	detect_breach
	jmp	.LBB20_26
.Lfunc_end20:
	.size	fallbackSimpleSort.12, .Lfunc_end20-fallbackSimpleSort.12
	.cfi_endproc
                                        # -- End function
	.p2align	4, 0x90         # -- Begin function mainQSort3.13
	.type	mainQSort3.13,@function
mainQSort3.13:                          # @mainQSort3.13
	.cfi_startproc
# %bb.0:                                # %entry
	pushq	%rbp
	.cfi_def_cfa_offset 16
	.cfi_offset %rbp, -16
	movq	%rsp, %rbp
	.cfi_def_cfa_register %rbp
	subq	$1408, %rsp             # imm = 0x580
	movq	24(%rbp), %rax
	movl	16(%rbp), %eax
	movl	$2011523832, -148(%rbp) # imm = 0x77E56AF8
	movq	%rdi, -24(%rbp)
	movq	%rsi, -136(%rbp)
	movq	%rdx, -184(%rbp)
	movl	%ecx, -172(%rbp)
	movl	%r8d, -164(%rbp)
	movl	%r9d, -152(%rbp)
	movl	$0, -4(%rbp)
	movl	-164(%rbp), %eax
	movslq	-4(%rbp), %rcx
	movl	%eax, -1392(%rbp,%rcx,4)
	movl	-152(%rbp), %eax
	movslq	-4(%rbp), %rcx
	movl	%eax, -592(%rbp,%rcx,4)
	movl	16(%rbp), %eax
	movslq	-4(%rbp), %rcx
	movl	%eax, -992(%rbp,%rcx,4)
	movl	-4(%rbp), %eax
	addl	$1, %eax
	movl	%eax, -4(%rbp)
.LBB21_1:                               # %while.cond
                                        # =>This Loop Header: Depth=1
                                        #     Child Loop BB21_11 Depth 2
                                        #       Child Loop BB21_12 Depth 3
                                        #       Child Loop BB21_21 Depth 3
                                        #     Child Loop BB21_38 Depth 2
                                        #     Child Loop BB21_44 Depth 2
	cmpl	$0, -4(%rbp)
	jle	.LBB21_53
# %bb.2:                                # %while.body
                                        #   in Loop: Header=BB21_1 Depth=1
	cmpl	$100, -4(%rbp)
	jl	.LBB21_4
# %bb.3:                                # %if.then
                                        #   in Loop: Header=BB21_1 Depth=1
	movl	$1001, %edi             # imm = 0x3E9
	callq	BZ2_bz__AssertH__fail
.LBB21_4:                               # %if.end
                                        #   in Loop: Header=BB21_1 Depth=1
	movl	-4(%rbp), %eax
	addl	$-1, %eax
	movl	%eax, -4(%rbp)
	movslq	-4(%rbp), %rax
	movl	-1392(%rbp,%rax,4), %eax
	movl	%eax, -32(%rbp)
	movslq	-4(%rbp), %rax
	movl	-592(%rbp,%rax,4), %eax
	movl	%eax, -28(%rbp)
	movslq	-4(%rbp), %rax
	movl	-992(%rbp,%rax,4), %eax
	movl	%eax, -36(%rbp)
	movl	-28(%rbp), %eax
	subl	-32(%rbp), %eax
	cmpl	$20, %eax
	jl	.LBB21_6
# %bb.5:                                # %lor.lhs.false
                                        #   in Loop: Header=BB21_1 Depth=1
	cmpl	$14, -36(%rbp)
	jle	.LBB21_10
.LBB21_6:                               # %if.then14
                                        #   in Loop: Header=BB21_1 Depth=1
	movq	-24(%rbp), %rdi
	movq	-136(%rbp), %rsi
	movq	-184(%rbp), %rdx
	movl	-172(%rbp), %ecx
	movl	-32(%rbp), %r8d
	movl	-28(%rbp), %r9d
	movl	-36(%rbp), %eax
	movq	24(%rbp), %r10
	movl	%eax, (%rsp)
	movq	%r10, 8(%rsp)
	callq	mainSimpleSort
	movq	24(%rbp), %rax
	cmpl	$0, (%rax)
	jge	.LBB21_8
# %bb.7:                                # %if.then16
	jmp	.LBB21_54
.LBB21_8:                               # %if.end17
                                        #   in Loop: Header=BB21_1 Depth=1
	jmp	.LBB21_9
.LBB21_9:                               # %while.cond.backedge
                                        #   in Loop: Header=BB21_1 Depth=1
	jmp	.LBB21_1
.LBB21_10:                              # %if.end18
                                        #   in Loop: Header=BB21_1 Depth=1
	movq	-136(%rbp), %rax
	movq	-24(%rbp), %rcx
	movslq	-32(%rbp), %rdx
	movl	(%rcx,%rdx,4), %ecx
	addl	-36(%rbp), %ecx
	movl	%ecx, %ecx
	movb	(%rax,%rcx), %r8b
	movq	-136(%rbp), %rcx
	movq	-24(%rbp), %rdx
	movslq	-28(%rbp), %rsi
	movl	(%rdx,%rsi,4), %edx
	addl	-36(%rbp), %edx
	movl	%edx, %edx
	movb	(%rcx,%rdx), %cl
	movq	-136(%rbp), %rdx
	movq	-24(%rbp), %rsi
	movl	-32(%rbp), %edi
	addl	-28(%rbp), %edi
	sarl	$1, %edi
	movslq	%edi, %rdi
	movl	(%rsi,%rdi,4), %esi
	addl	-36(%rbp), %esi
	movl	%esi, %eax
	movzbl	%r8b, %edi
	movzbl	%cl, %esi
	movzbl	(%rdx,%rax), %edx
	callq	mmed3
	movzbl	%al, %eax
	movl	%eax, -140(%rbp)
	movl	-32(%rbp), %eax
	movl	%eax, -44(%rbp)
	movl	%eax, -8(%rbp)
	movl	-28(%rbp), %eax
	movl	%eax, -48(%rbp)
	movl	%eax, -12(%rbp)
.LBB21_11:                              # %while.body35
                                        #   Parent Loop BB21_1 Depth=1
                                        # =>  This Loop Header: Depth=2
                                        #       Child Loop BB21_12 Depth 3
                                        #       Child Loop BB21_21 Depth 3
	jmp	.LBB21_12
.LBB21_12:                              # %while.body37
                                        #   Parent Loop BB21_1 Depth=1
                                        #     Parent Loop BB21_11 Depth=2
                                        # =>    This Inner Loop Header: Depth=3
	movl	-8(%rbp), %eax
	cmpl	-12(%rbp), %eax
	jle	.LBB21_14
# %bb.13:                               # %if.then40
                                        #   in Loop: Header=BB21_11 Depth=2
	jmp	.LBB21_20
.LBB21_14:                              # %if.end41
                                        #   in Loop: Header=BB21_12 Depth=3
	movq	-136(%rbp), %rax
	movq	-24(%rbp), %rcx
	movslq	-8(%rbp), %rdx
	movl	(%rcx,%rdx,4), %ecx
	addl	-36(%rbp), %ecx
	movl	%ecx, %ecx
	movzbl	(%rax,%rcx), %eax
	subl	-140(%rbp), %eax
	movl	%eax, -40(%rbp)
	cmpl	$0, -40(%rbp)
	jne	.LBB21_17
# %bb.15:                               # %if.then51
                                        #   in Loop: Header=BB21_12 Depth=3
	movq	-24(%rbp), %rax
	movslq	-8(%rbp), %rcx
	movl	(%rax,%rcx,4), %eax
	movl	%eax, -144(%rbp)
	movq	-24(%rbp), %rax
	movslq	-44(%rbp), %rcx
	movl	(%rax,%rcx,4), %eax
	movq	-24(%rbp), %rcx
	movslq	-8(%rbp), %rdx
	movl	%eax, (%rcx,%rdx,4)
	movl	-144(%rbp), %eax
	movq	-24(%rbp), %rcx
	movslq	-44(%rbp), %rdx
	movl	%eax, (%rcx,%rdx,4)
	movl	-44(%rbp), %eax
	addl	$1, %eax
	movl	%eax, -44(%rbp)
	movl	-8(%rbp), %eax
	addl	$1, %eax
	movl	%eax, -8(%rbp)
.LBB21_16:                              # %while.body37.backedge
                                        #   in Loop: Header=BB21_12 Depth=3
	jmp	.LBB21_12
.LBB21_17:                              # %if.end62
                                        #   in Loop: Header=BB21_12 Depth=3
	cmpl	$0, -40(%rbp)
	jle	.LBB21_19
# %bb.18:                               # %if.then65
                                        #   in Loop: Header=BB21_11 Depth=2
	jmp	.LBB21_20
.LBB21_19:                              # %if.end66
                                        #   in Loop: Header=BB21_12 Depth=3
	movl	-8(%rbp), %eax
	addl	$1, %eax
	movl	%eax, -8(%rbp)
	jmp	.LBB21_16
.LBB21_20:                              # %while.end
                                        #   in Loop: Header=BB21_11 Depth=2
	jmp	.LBB21_21
.LBB21_21:                              # %while.body69
                                        #   Parent Loop BB21_1 Depth=1
                                        #     Parent Loop BB21_11 Depth=2
                                        # =>    This Inner Loop Header: Depth=3
	movl	-8(%rbp), %eax
	cmpl	-12(%rbp), %eax
	jle	.LBB21_23
# %bb.22:                               # %if.then72
                                        #   in Loop: Header=BB21_11 Depth=2
	jmp	.LBB21_29
.LBB21_23:                              # %if.end73
                                        #   in Loop: Header=BB21_21 Depth=3
	movq	-136(%rbp), %rax
	movq	-24(%rbp), %rcx
	movslq	-12(%rbp), %rdx
	movl	(%rcx,%rdx,4), %ecx
	addl	-36(%rbp), %ecx
	movl	%ecx, %ecx
	movzbl	(%rax,%rcx), %eax
	subl	-140(%rbp), %eax
	movl	%eax, -40(%rbp)
	cmpl	$0, -40(%rbp)
	jne	.LBB21_26
# %bb.24:                               # %if.then83
                                        #   in Loop: Header=BB21_21 Depth=3
	movq	-24(%rbp), %rax
	movslq	-12(%rbp), %rcx
	movl	(%rax,%rcx,4), %eax
	movl	%eax, -168(%rbp)
	movq	-24(%rbp), %rax
	movslq	-48(%rbp), %rcx
	movl	(%rax,%rcx,4), %eax
	movq	-24(%rbp), %rcx
	movslq	-12(%rbp), %rdx
	movl	%eax, (%rcx,%rdx,4)
	movl	-168(%rbp), %eax
	movq	-24(%rbp), %rcx
	movslq	-48(%rbp), %rdx
	movl	%eax, (%rcx,%rdx,4)
	movl	-48(%rbp), %eax
	addl	$-1, %eax
	movl	%eax, -48(%rbp)
	movl	-12(%rbp), %eax
	addl	$-1, %eax
	movl	%eax, -12(%rbp)
.LBB21_25:                              # %while.body69.backedge
                                        #   in Loop: Header=BB21_21 Depth=3
	jmp	.LBB21_21
.LBB21_26:                              # %if.end95
                                        #   in Loop: Header=BB21_21 Depth=3
	cmpl	$0, -40(%rbp)
	jge	.LBB21_28
# %bb.27:                               # %if.then98
                                        #   in Loop: Header=BB21_11 Depth=2
	jmp	.LBB21_29
.LBB21_28:                              # %if.end99
                                        #   in Loop: Header=BB21_21 Depth=3
	movl	-12(%rbp), %eax
	addl	$-1, %eax
	movl	%eax, -12(%rbp)
	jmp	.LBB21_25
.LBB21_29:                              # %while.end101
                                        #   in Loop: Header=BB21_11 Depth=2
	movl	-8(%rbp), %eax
	cmpl	-12(%rbp), %eax
	jle	.LBB21_31
# %bb.30:                               # %if.then104
                                        #   in Loop: Header=BB21_1 Depth=1
	jmp	.LBB21_32
.LBB21_31:                              # %if.end105
                                        #   in Loop: Header=BB21_11 Depth=2
	movq	-24(%rbp), %rax
	movslq	-8(%rbp), %rcx
	movl	(%rax,%rcx,4), %eax
	movl	%eax, -156(%rbp)
	movq	-24(%rbp), %rax
	movslq	-12(%rbp), %rcx
	movl	(%rax,%rcx,4), %eax
	movq	-24(%rbp), %rcx
	movslq	-8(%rbp), %rdx
	movl	%eax, (%rcx,%rdx,4)
	movl	-156(%rbp), %eax
	movq	-24(%rbp), %rcx
	movslq	-12(%rbp), %rdx
	movl	%eax, (%rcx,%rdx,4)
	movl	-8(%rbp), %eax
	addl	$1, %eax
	movl	%eax, -8(%rbp)
	movl	-12(%rbp), %eax
	addl	$-1, %eax
	movl	%eax, -12(%rbp)
	jmp	.LBB21_11
.LBB21_32:                              # %while.end117
                                        #   in Loop: Header=BB21_1 Depth=1
	movl	-48(%rbp), %eax
	cmpl	-44(%rbp), %eax
	jge	.LBB21_34
# %bb.33:                               # %if.then120
                                        #   in Loop: Header=BB21_1 Depth=1
	movl	-32(%rbp), %eax
	movslq	-4(%rbp), %rcx
	movl	%eax, -1392(%rbp,%rcx,4)
	movl	-28(%rbp), %eax
	movslq	-4(%rbp), %rcx
	movl	%eax, -592(%rbp,%rcx,4)
	movl	-36(%rbp), %eax
	addl	$1, %eax
	movslq	-4(%rbp), %rcx
	movl	%eax, -992(%rbp,%rcx,4)
	movl	-4(%rbp), %eax
	addl	$1, %eax
	movl	%eax, -4(%rbp)
	jmp	.LBB21_9
.LBB21_34:                              # %if.end129
                                        #   in Loop: Header=BB21_1 Depth=1
	movl	-44(%rbp), %eax
	subl	-32(%rbp), %eax
	movl	-8(%rbp), %ecx
	subl	-44(%rbp), %ecx
	cmpl	%ecx, %eax
	jge	.LBB21_36
# %bb.35:                               # %cond.true
                                        #   in Loop: Header=BB21_1 Depth=1
	movl	-44(%rbp), %eax
	subl	-32(%rbp), %eax
	jmp	.LBB21_37
.LBB21_36:                              # %cond.false
                                        #   in Loop: Header=BB21_1 Depth=1
	movl	-8(%rbp), %eax
	subl	-44(%rbp), %eax
.LBB21_37:                              # %cond.end
                                        #   in Loop: Header=BB21_1 Depth=1
	movl	%eax, -40(%rbp)
	movl	-32(%rbp), %eax
	movl	%eax, -116(%rbp)
	movl	-8(%rbp), %eax
	subl	-40(%rbp), %eax
	movl	%eax, -108(%rbp)
	movl	-40(%rbp), %eax
	movl	%eax, -124(%rbp)
.LBB21_38:                              # %while.cond137
                                        #   Parent Loop BB21_1 Depth=1
                                        # =>  This Inner Loop Header: Depth=2
	cmpl	$0, -124(%rbp)
	jle	.LBB21_40
# %bb.39:                               # %while.body140
                                        #   in Loop: Header=BB21_38 Depth=2
	movq	-24(%rbp), %rax
	movslq	-116(%rbp), %rcx
	movl	(%rax,%rcx,4), %eax
	movl	%eax, -160(%rbp)
	movq	-24(%rbp), %rax
	movslq	-108(%rbp), %rcx
	movl	(%rax,%rcx,4), %eax
	movq	-24(%rbp), %rcx
	movslq	-116(%rbp), %rdx
	movl	%eax, (%rcx,%rdx,4)
	movl	-160(%rbp), %eax
	movq	-24(%rbp), %rcx
	movslq	-108(%rbp), %rdx
	movl	%eax, (%rcx,%rdx,4)
	movl	-116(%rbp), %eax
	addl	$1, %eax
	movl	%eax, -116(%rbp)
	movl	-108(%rbp), %eax
	addl	$1, %eax
	movl	%eax, -108(%rbp)
	movl	-124(%rbp), %eax
	addl	$-1, %eax
	movl	%eax, -124(%rbp)
	jmp	.LBB21_38
.LBB21_40:                              # %while.end153
                                        #   in Loop: Header=BB21_1 Depth=1
	movl	-28(%rbp), %eax
	subl	-48(%rbp), %eax
	movl	-48(%rbp), %ecx
	subl	-12(%rbp), %ecx
	cmpl	%ecx, %eax
	jge	.LBB21_42
# %bb.41:                               # %cond.true158
                                        #   in Loop: Header=BB21_1 Depth=1
	movl	-28(%rbp), %eax
	subl	-48(%rbp), %eax
	jmp	.LBB21_43
.LBB21_42:                              # %cond.false160
                                        #   in Loop: Header=BB21_1 Depth=1
	movl	-48(%rbp), %eax
	subl	-12(%rbp), %eax
.LBB21_43:                              # %cond.end162
                                        #   in Loop: Header=BB21_1 Depth=1
	movl	%eax, -88(%rbp)
	movl	-8(%rbp), %eax
	movl	%eax, -112(%rbp)
	movl	-28(%rbp), %eax
	subl	-88(%rbp), %eax
	addl	$1, %eax
	movl	%eax, -104(%rbp)
	movl	-88(%rbp), %eax
	movl	%eax, -120(%rbp)
.LBB21_44:                              # %while.cond169
                                        #   Parent Loop BB21_1 Depth=1
                                        # =>  This Inner Loop Header: Depth=2
	cmpl	$0, -120(%rbp)
	jle	.LBB21_46
# %bb.45:                               # %while.body172
                                        #   in Loop: Header=BB21_44 Depth=2
	movq	-24(%rbp), %rax
	movslq	-112(%rbp), %rcx
	movl	(%rax,%rcx,4), %eax
	movl	%eax, -176(%rbp)
	movq	-24(%rbp), %rax
	movslq	-104(%rbp), %rcx
	movl	(%rax,%rcx,4), %eax
	movq	-24(%rbp), %rcx
	movslq	-112(%rbp), %rdx
	movl	%eax, (%rcx,%rdx,4)
	movl	-176(%rbp), %eax
	movq	-24(%rbp), %rcx
	movslq	-104(%rbp), %rdx
	movl	%eax, (%rcx,%rdx,4)
	movl	-112(%rbp), %eax
	addl	$1, %eax
	movl	%eax, -112(%rbp)
	movl	-104(%rbp), %eax
	addl	$1, %eax
	movl	%eax, -104(%rbp)
	movl	-120(%rbp), %eax
	addl	$-1, %eax
	movl	%eax, -120(%rbp)
	jmp	.LBB21_44
.LBB21_46:                              # %while.end185
                                        #   in Loop: Header=BB21_1 Depth=1
	movl	-32(%rbp), %eax
	addl	-8(%rbp), %eax
	subl	-44(%rbp), %eax
	subl	$1, %eax
	movl	%eax, -40(%rbp)
	movl	-28(%rbp), %eax
	movl	-48(%rbp), %ecx
	subl	-12(%rbp), %ecx
	subl	%ecx, %eax
	addl	$1, %eax
	movl	%eax, -88(%rbp)
	movl	-32(%rbp), %eax
	movl	%eax, -72(%rbp)
	movl	-40(%rbp), %eax
	movl	%eax, -60(%rbp)
	movl	-36(%rbp), %eax
	movl	%eax, -100(%rbp)
	movl	-88(%rbp), %eax
	movl	%eax, -68(%rbp)
	movl	-28(%rbp), %eax
	movl	%eax, -56(%rbp)
	movl	-36(%rbp), %eax
	movl	%eax, -96(%rbp)
	movl	-40(%rbp), %eax
	addl	$1, %eax
	movl	%eax, -64(%rbp)
	movl	-88(%rbp), %eax
	subl	$1, %eax
	movl	%eax, -52(%rbp)
	movl	-36(%rbp), %eax
	addl	$1, %eax
	movl	%eax, -92(%rbp)
	movl	-60(%rbp), %eax
	subl	-72(%rbp), %eax
	movl	-56(%rbp), %ecx
	subl	-68(%rbp), %ecx
	cmpl	%ecx, %eax
	jge	.LBB21_48
# %bb.47:                               # %if.then212
                                        #   in Loop: Header=BB21_1 Depth=1
	movl	-72(%rbp), %eax
	movl	%eax, -84(%rbp)
	movl	-68(%rbp), %eax
	movl	%eax, -72(%rbp)
	movl	-84(%rbp), %eax
	movl	%eax, -68(%rbp)
	movl	-60(%rbp), %eax
	movl	%eax, -84(%rbp)
	movl	-56(%rbp), %eax
	movl	%eax, -60(%rbp)
	movl	-84(%rbp), %eax
	movl	%eax, -56(%rbp)
	movl	-100(%rbp), %eax
	movl	%eax, -84(%rbp)
	movl	-96(%rbp), %eax
	movl	%eax, -100(%rbp)
	movl	-84(%rbp), %eax
	movl	%eax, -96(%rbp)
.LBB21_48:                              # %if.end225
                                        #   in Loop: Header=BB21_1 Depth=1
	movl	-56(%rbp), %eax
	subl	-68(%rbp), %eax
	movl	-52(%rbp), %ecx
	subl	-64(%rbp), %ecx
	cmpl	%ecx, %eax
	jge	.LBB21_50
