	.text
	.file	"bzip2.c"
	.globl	fopen_output_safely     # -- Begin function fopen_output_safely
	.p2align	4, 0x90
	.type	fopen_output_safely,@function
fopen_output_safely:                    # @fopen_output_safely
	.cfi_startproc
# %bb.0:                                # %rand_bb
	pushq	%rbp
	.cfi_def_cfa_offset 16
	.cfi_offset %rbp, -16
	movq	%rsp, %rbp
	.cfi_def_cfa_register %rbp
	pushq	%r14
	pushq	%rbx
	.cfi_offset %rbx, -32
	.cfi_offset %r14, -24
	movq	%rsi, %r14
	movq	%rdi, %rbx
	callq	get_rand
	cmpl	$0, %eax
	jne	.LBB0_5
# %bb.1:                                # %func_fopen_output_safely.21
	movq	%rbx, %rdi
	movq	%r14, %rsi
	callq	fopen_output_safely.21
	popq	%rbx
	popq	%r14
	popq	%rbp
	.cfi_def_cfa %rsp, 8
	retq
.LBB0_2:                                # %func_fopen_output_safely.69
	.cfi_def_cfa %rbp, 16
	movq	%rbx, %rdi
	movq	%r14, %rsi
	callq	fopen_output_safely.69
	popq	%rbx
	popq	%r14
	popq	%rbp
	.cfi_def_cfa %rsp, 8
	retq
.LBB0_3:                                # %func_fopen_output_safely.89
	.cfi_def_cfa %rbp, 16
	movq	%rbx, %rdi
	movq	%r14, %rsi
	callq	fopen_output_safely.89
	popq	%rbx
	popq	%r14
	popq	%rbp
	.cfi_def_cfa %rsp, 8
	retq
.LBB0_4:                                # %func_fopen_output_safely.90
	.cfi_def_cfa %rbp, 16
	movq	%rbx, %rdi
	movq	%r14, %rsi
	callq	fopen_output_safely.90
	popq	%rbx
	popq	%r14
	popq	%rbp
	.cfi_def_cfa %rsp, 8
	retq
.LBB0_5:                                # %ctrl0
	.cfi_def_cfa %rbp, 16
	cmpl	$1, %eax
	je	.LBB0_2
# %bb.6:                                # %ctrl1
	cmpl	$2, %eax
	je	.LBB0_3
	jmp	.LBB0_4
.Lfunc_end0:
	.size	fopen_output_safely, .Lfunc_end0-fopen_output_safely
	.cfi_endproc
                                        # -- End function
	.globl	main                    # -- Begin function main
	.p2align	4, 0x90
	.type	main,@function
main:                                   # @main
	.cfi_startproc
# %bb.0:                                # %entry
	pushq	%rbp
	.cfi_def_cfa_offset 16
	.cfi_offset %rbp, -16
	movq	%rsp, %rbp
	.cfi_def_cfa_register %rbp
	pushq	%rbx
	subq	$72, %rsp
	.cfi_offset %rbx, -24
	movl	$0, -76(%rbp)
	movl	%edi, -52(%rbp)
	movq	%rsi, -64(%rbp)
	movq	$0, outputHandleJustInCase
	movb	$0, smallMode
	movb	$0, keepInputFiles
	movb	$0, forceOverwrite
	movb	$1, noisy
	movl	$0, verbosity
	movl	$9, blockSize100k
	movb	$0, testFailsExist
	movb	$0, unzFailsExist
	movl	$0, numFileNames
	movl	$0, numFilesProcessed
	movl	$30, workFactor
	movb	$0, deleteOutputOnInterrupt
	movl	$0, exitValue
	movl	$0, -36(%rbp)
	movl	$0, -40(%rbp)
	movl	$11, %edi
	movabsq	$mySIGSEGVorSIGBUScatcher, %rsi
	callq	signal
	movl	$7, %edi
	movabsq	$mySIGSEGVorSIGBUScatcher, %rsi
	callq	signal
	movabsq	$inName, %rdi
	movabsq	$.L.str, %rsi
	callq	copyFileName
	movabsq	$outName, %rdi
	movabsq	$.L.str, %rsi
	callq	copyFileName
	movq	-64(%rbp), %rax
	movq	(%rax), %rsi
	movabsq	$progNameReally, %rdi
	callq	copyFileName
	movabsq	$progNameReally, %rax
	movq	%rax, progName
	movq	%rax, -48(%rbp)
.LBB1_1:                                # %for.cond
                                        # =>This Inner Loop Header: Depth=1
	movq	-48(%rbp), %rax
	movsbl	(%rax), %eax
	cmpl	$0, %eax
	je	.LBB1_6
# %bb.2:                                # %for.body
                                        #   in Loop: Header=BB1_1 Depth=1
	movq	-48(%rbp), %rax
	movsbl	(%rax), %eax
	cmpl	$47, %eax
	jne	.LBB1_4
# %bb.3:                                # %if.then
                                        #   in Loop: Header=BB1_1 Depth=1
	movq	-48(%rbp), %rax
	addq	$1, %rax
	movq	%rax, progName
.LBB1_4:                                # %if.end
                                        #   in Loop: Header=BB1_1 Depth=1
	jmp	.LBB1_5
.LBB1_5:                                # %for.inc
                                        #   in Loop: Header=BB1_1 Depth=1
	movq	-48(%rbp), %rax
	addq	$1, %rax
	movq	%rax, -48(%rbp)
	jmp	.LBB1_1
.LBB1_6:                                # %for.end
	movq	$0, -32(%rbp)
	leaq	-32(%rbp), %rdi
	movabsq	$.L.str.1, %rsi
	callq	addFlagsFromEnvVar
	leaq	-32(%rbp), %rdi
	movabsq	$.L.str.2, %rsi
	callq	addFlagsFromEnvVar
	movl	$1, -40(%rbp)
.LBB1_7:                                # %for.cond6
                                        # =>This Inner Loop Header: Depth=1
	movl	-40(%rbp), %eax
	movl	-52(%rbp), %ecx
	subl	$1, %ecx
	cmpl	%ecx, %eax
	jg	.LBB1_10
# %bb.8:                                # %for.body9
                                        #   in Loop: Header=BB1_7 Depth=1
	movq	-32(%rbp), %rdi
	movq	-64(%rbp), %rax
	movslq	-40(%rbp), %rcx
	movq	(%rax,%rcx,8), %rsi
	callq	snocString
	movq	%rax, -32(%rbp)
# %bb.9:                                # %for.inc12
                                        #   in Loop: Header=BB1_7 Depth=1
	movl	-40(%rbp), %eax
	addl	$1, %eax
	movl	%eax, -40(%rbp)
	jmp	.LBB1_7
.LBB1_10:                               # %for.end13
	movl	$7, longestFileName
	movl	$0, numFileNames
	movb	$1, -9(%rbp)
	movq	-32(%rbp), %rax
	movq	%rax, -24(%rbp)
.LBB1_11:                               # %for.cond14
                                        # =>This Inner Loop Header: Depth=1
	cmpq	$0, -24(%rbp)
	je	.LBB1_21
# %bb.12:                               # %for.body17
                                        #   in Loop: Header=BB1_11 Depth=1
	movq	-24(%rbp), %rax
	movq	(%rax), %rdi
	movl	$.L.str.3, %esi
	callq	strcmp
	cmpl	$0, %eax
	jne	.LBB1_14
# %bb.13:                               # %if.then21
                                        #   in Loop: Header=BB1_11 Depth=1
	movb	$0, -9(%rbp)
	jmp	.LBB1_20
.LBB1_14:                               # %if.end22
                                        #   in Loop: Header=BB1_11 Depth=1
	movq	-24(%rbp), %rax
	movq	(%rax), %rax
	movsbl	(%rax), %eax
	cmpl	$45, %eax
	jne	.LBB1_17
# %bb.15:                               # %land.lhs.true
                                        #   in Loop: Header=BB1_11 Depth=1
	movzbl	-9(%rbp), %eax
	cmpl	$0, %eax
	je	.LBB1_17
# %bb.16:                               # %if.then29
                                        #   in Loop: Header=BB1_11 Depth=1
	jmp	.LBB1_20
.LBB1_17:                               # %if.end30
                                        #   in Loop: Header=BB1_11 Depth=1
	movl	numFileNames, %eax
	addl	$1, %eax
	movl	%eax, numFileNames
	movl	longestFileName, %ebx
	movq	-24(%rbp), %rax
	movq	(%rax), %rdi
	callq	strlen
	cmpl	%eax, %ebx
	jge	.LBB1_19
# %bb.18:                               # %if.then37
                                        #   in Loop: Header=BB1_11 Depth=1
	movq	-24(%rbp), %rax
	movq	(%rax), %rdi
	callq	strlen
	movl	%eax, longestFileName
.LBB1_19:                               # %if.end41
                                        #   in Loop: Header=BB1_11 Depth=1
	jmp	.LBB1_20
.LBB1_20:                               # %for.inc42
                                        #   in Loop: Header=BB1_11 Depth=1
	movq	-24(%rbp), %rax
	movq	8(%rax), %rax
	movq	%rax, -24(%rbp)
	jmp	.LBB1_11
.LBB1_21:                               # %for.end43
	cmpl	$0, numFileNames
	jne	.LBB1_23
# %bb.22:                               # %if.then46
	movl	$1, srcMode
	jmp	.LBB1_24
.LBB1_23:                               # %if.else
	movl	$3, srcMode
.LBB1_24:                               # %if.end47
	movl	$1, opMode
	movq	progName, %rdi
	movabsq	$.L.str.4, %rsi
	callq	strstr
	cmpq	$0, %rax
	jne	.LBB1_26
# %bb.25:                               # %lor.lhs.false
	movq	progName, %rdi
	movabsq	$.L.str.5, %rsi
	callq	strstr
	cmpq	$0, %rax
	je	.LBB1_27
.LBB1_26:                               # %if.then54
	movl	$2, opMode
.LBB1_27:                               # %if.end55
	movq	progName, %rdi
	movabsq	$.L.str.6, %rsi
	callq	strstr
	cmpq	$0, %rax
	jne	.LBB1_31
# %bb.28:                               # %lor.lhs.false59
	movq	progName, %rdi
	movabsq	$.L.str.7, %rsi
	callq	strstr
	cmpq	$0, %rax
	jne	.LBB1_31
# %bb.29:                               # %lor.lhs.false63
	movq	progName, %rdi
	movabsq	$.L.str.8, %rsi
	callq	strstr
	cmpq	$0, %rax
	jne	.LBB1_31
# %bb.30:                               # %lor.lhs.false67
	movq	progName, %rdi
	movabsq	$.L.str.9, %rsi
	callq	strstr
	cmpq	$0, %rax
	je	.LBB1_32
.LBB1_31:                               # %if.then71
	movl	$2, opMode
	movl	numFileNames, %eax
	cmpl	$0, %eax
	movl	$1, %eax
	movl	$2, %ecx
	cmovel	%eax, %ecx
	movl	%ecx, srcMode
.LBB1_32:                               # %if.end74
	movq	-32(%rbp), %rax
	movq	%rax, -24(%rbp)
.LBB1_33:                               # %for.cond75
                                        # =>This Loop Header: Depth=1
                                        #     Child Loop BB1_39 Depth 2
	cmpq	$0, -24(%rbp)
	je	.LBB1_68
# %bb.34:                               # %for.body78
                                        #   in Loop: Header=BB1_33 Depth=1
	movq	-24(%rbp), %rax
	movq	(%rax), %rdi
	movl	$.L.str.3, %esi
	callq	strcmp
	cmpl	$0, %eax
	jne	.LBB1_36
# %bb.35:                               # %if.then83
	jmp	.LBB1_69
.LBB1_36:                               # %if.end84
                                        #   in Loop: Header=BB1_33 Depth=1
	movq	-24(%rbp), %rax
	movq	(%rax), %rax
	movsbl	(%rax), %eax
	cmpl	$45, %eax
	jne	.LBB1_66
# %bb.37:                               # %land.lhs.true90
                                        #   in Loop: Header=BB1_33 Depth=1
	movq	-24(%rbp), %rax
	movq	(%rax), %rax
	movsbl	1(%rax), %eax
	cmpl	$45, %eax
	je	.LBB1_66
# %bb.38:                               # %if.then96
                                        #   in Loop: Header=BB1_33 Depth=1
	movl	$1, -36(%rbp)
.LBB1_39:                               # %for.cond97
                                        #   Parent Loop BB1_33 Depth=1
                                        # =>  This Inner Loop Header: Depth=2
	movq	-24(%rbp), %rax
	movq	(%rax), %rax
	movslq	-36(%rbp), %rcx
	movsbl	(%rax,%rcx), %eax
	cmpl	$0, %eax
	je	.LBB1_65
# %bb.40:                               # %for.body104
                                        #   in Loop: Header=BB1_39 Depth=2
	movq	-24(%rbp), %rax
	movq	(%rax), %rax
	movslq	-36(%rbp), %rcx
	movsbl	(%rax,%rcx), %eax
	addl	$-49, %eax
	movl	%eax, %ecx
	subl	$73, %ecx
	ja	.LBB1_62
# %bb.41:                               # %for.body104
                                        #   in Loop: Header=BB1_39 Depth=2
	movq	.LJTI1_0(,%rax,8), %rax
	jmpq	*%rax
.LBB1_42:                               # %sw.bb
                                        #   in Loop: Header=BB1_39 Depth=2
	movl	$2, srcMode
	jmp	.LBB1_63
.LBB1_43:                               # %sw.bb109
                                        #   in Loop: Header=BB1_39 Depth=2
	movl	$2, opMode
	jmp	.LBB1_63
.LBB1_44:                               # %sw.bb110
                                        #   in Loop: Header=BB1_39 Depth=2
	movl	$1, opMode
	jmp	.LBB1_63
.LBB1_45:                               # %sw.bb111
                                        #   in Loop: Header=BB1_39 Depth=2
	movb	$1, forceOverwrite
	jmp	.LBB1_63
.LBB1_46:                               # %sw.bb112
                                        #   in Loop: Header=BB1_39 Depth=2
	movl	$3, opMode
	jmp	.LBB1_63
.LBB1_47:                               # %sw.bb113
                                        #   in Loop: Header=BB1_39 Depth=2
	movb	$1, keepInputFiles
	jmp	.LBB1_63
.LBB1_48:                               # %sw.bb114
                                        #   in Loop: Header=BB1_39 Depth=2
	movb	$1, smallMode
	jmp	.LBB1_63
.LBB1_49:                               # %sw.bb115
                                        #   in Loop: Header=BB1_39 Depth=2
	movb	$0, noisy
	jmp	.LBB1_63
.LBB1_50:                               # %sw.bb116
                                        #   in Loop: Header=BB1_39 Depth=2
	movl	$1, blockSize100k
	jmp	.LBB1_63
.LBB1_51:                               # %sw.bb117
                                        #   in Loop: Header=BB1_39 Depth=2
	movl	$2, blockSize100k
	jmp	.LBB1_63
.LBB1_52:                               # %sw.bb118
                                        #   in Loop: Header=BB1_39 Depth=2
	movl	$3, blockSize100k
	jmp	.LBB1_63
.LBB1_53:                               # %sw.bb119
                                        #   in Loop: Header=BB1_39 Depth=2
	movl	$4, blockSize100k
	jmp	.LBB1_63
.LBB1_54:                               # %sw.bb120
                                        #   in Loop: Header=BB1_39 Depth=2
	movl	$5, blockSize100k
	jmp	.LBB1_63
.LBB1_55:                               # %sw.bb121
                                        #   in Loop: Header=BB1_39 Depth=2
	movl	$6, blockSize100k
	jmp	.LBB1_63
.LBB1_56:                               # %sw.bb122
                                        #   in Loop: Header=BB1_39 Depth=2
	movl	$7, blockSize100k
	jmp	.LBB1_63
.LBB1_57:                               # %sw.bb123
                                        #   in Loop: Header=BB1_39 Depth=2
	movl	$8, blockSize100k
	jmp	.LBB1_63
.LBB1_58:                               # %sw.bb124
                                        #   in Loop: Header=BB1_39 Depth=2
	movl	$9, blockSize100k
	jmp	.LBB1_63
.LBB1_59:                               # %sw.bb125
                                        #   in Loop: Header=BB1_39 Depth=2
	callq	license
	jmp	.LBB1_63
.LBB1_60:                               # %sw.bb126
                                        #   in Loop: Header=BB1_39 Depth=2
	movl	verbosity, %eax
	addl	$1, %eax
	movl	%eax, verbosity
	jmp	.LBB1_63
.LBB1_61:                               # %sw.bb128
	movq	progName, %rdi
	callq	usage
	xorl	%edi, %edi
	callq	exit
.LBB1_62:                               # %sw.default
	movq	stderr, %rdi
	movq	progName, %rdx
	movq	-24(%rbp), %rax
	movq	(%rax), %rcx
	movabsq	$.L.str.10, %rsi
	movb	$0, %al
	callq	fprintf
	movq	progName, %rdi
	callq	usage
	movl	$1, %edi
	callq	exit
.LBB1_63:                               # %sw.epilog
                                        #   in Loop: Header=BB1_39 Depth=2
	jmp	.LBB1_64
.LBB1_64:                               # %for.inc131
                                        #   in Loop: Header=BB1_39 Depth=2
	movl	-36(%rbp), %eax
	addl	$1, %eax
	movl	%eax, -36(%rbp)
	jmp	.LBB1_39
.LBB1_65:                               # %for.end133
                                        #   in Loop: Header=BB1_33 Depth=1
	jmp	.LBB1_66
.LBB1_66:                               # %if.end134
                                        #   in Loop: Header=BB1_33 Depth=1
	jmp	.LBB1_67
.LBB1_67:                               # %for.inc135
                                        #   in Loop: Header=BB1_33 Depth=1
	movq	-24(%rbp), %rax
	movq	8(%rax), %rax
	movq	%rax, -24(%rbp)
	jmp	.LBB1_33
.LBB1_68:                               # %for.end137.loopexit
	jmp	.LBB1_69
.LBB1_69:                               # %for.end137
	movq	-32(%rbp), %rax
	movq	%rax, -24(%rbp)
.LBB1_70:                               # %for.cond138
                                        # =>This Inner Loop Header: Depth=1
	cmpq	$0, -24(%rbp)
	je	.LBB1_128
# %bb.71:                               # %for.body141
                                        #   in Loop: Header=BB1_70 Depth=1
	movq	-24(%rbp), %rax
	movq	(%rax), %rdi
	movl	$.L.str.3, %esi
	callq	strcmp
	cmpl	$0, %eax
	jne	.LBB1_73
# %bb.72:                               # %if.then146
	jmp	.LBB1_129
.LBB1_73:                               # %if.end147
                                        #   in Loop: Header=BB1_70 Depth=1
	movq	-24(%rbp), %rax
	movq	(%rax), %rdi
	movl	$.L.str.11, %esi
	callq	strcmp
	cmpl	$0, %eax
	jne	.LBB1_75
# %bb.74:                               # %if.then152
                                        #   in Loop: Header=BB1_70 Depth=1
	movl	$2, srcMode
	jmp	.LBB1_126
.LBB1_75:                               # %if.else153
                                        #   in Loop: Header=BB1_70 Depth=1
	movq	-24(%rbp), %rax
	movq	(%rax), %rdi
	movl	$.L.str.12, %esi
	callq	strcmp
	cmpl	$0, %eax
	jne	.LBB1_77
# %bb.76:                               # %if.then158
                                        #   in Loop: Header=BB1_70 Depth=1
	movl	$2, opMode
	jmp	.LBB1_125
.LBB1_77:                               # %if.else159
                                        #   in Loop: Header=BB1_70 Depth=1
	movq	-24(%rbp), %rax
	movq	(%rax), %rdi
	movl	$.L.str.13, %esi
	callq	strcmp
	cmpl	$0, %eax
	jne	.LBB1_79
# %bb.78:                               # %if.then164
                                        #   in Loop: Header=BB1_70 Depth=1
	movl	$1, opMode
	jmp	.LBB1_124
.LBB1_79:                               # %if.else165
                                        #   in Loop: Header=BB1_70 Depth=1
	movq	-24(%rbp), %rax
	movq	(%rax), %rdi
	movl	$.L.str.14, %esi
	callq	strcmp
	cmpl	$0, %eax
	jne	.LBB1_81
# %bb.80:                               # %if.then170
                                        #   in Loop: Header=BB1_70 Depth=1
	movb	$1, forceOverwrite
	jmp	.LBB1_123
.LBB1_81:                               # %if.else171
                                        #   in Loop: Header=BB1_70 Depth=1
	movq	-24(%rbp), %rax
	movq	(%rax), %rdi
	movl	$.L.str.15, %esi
	callq	strcmp
	cmpl	$0, %eax
	jne	.LBB1_83
# %bb.82:                               # %if.then176
                                        #   in Loop: Header=BB1_70 Depth=1
	movl	$3, opMode
	jmp	.LBB1_122
.LBB1_83:                               # %if.else177
                                        #   in Loop: Header=BB1_70 Depth=1
	movq	-24(%rbp), %rax
	movq	(%rax), %rdi
	movl	$.L.str.16, %esi
	callq	strcmp
	cmpl	$0, %eax
	jne	.LBB1_85
# %bb.84:                               # %if.then182
                                        #   in Loop: Header=BB1_70 Depth=1
	movb	$1, keepInputFiles
	jmp	.LBB1_121
.LBB1_85:                               # %if.else183
                                        #   in Loop: Header=BB1_70 Depth=1
	movq	-24(%rbp), %rax
	movq	(%rax), %rdi
	movl	$.L.str.17, %esi
	callq	strcmp
	cmpl	$0, %eax
	jne	.LBB1_87
# %bb.86:                               # %if.then188
                                        #   in Loop: Header=BB1_70 Depth=1
	movb	$1, smallMode
	jmp	.LBB1_120
.LBB1_87:                               # %if.else189
                                        #   in Loop: Header=BB1_70 Depth=1
	movq	-24(%rbp), %rax
	movq	(%rax), %rdi
	movl	$.L.str.18, %esi
	callq	strcmp
	cmpl	$0, %eax
	jne	.LBB1_89
# %bb.88:                               # %if.then194
                                        #   in Loop: Header=BB1_70 Depth=1
	movb	$0, noisy
	jmp	.LBB1_119
.LBB1_89:                               # %if.else195
                                        #   in Loop: Header=BB1_70 Depth=1
	movq	-24(%rbp), %rax
	movq	(%rax), %rdi
	movl	$.L.str.19, %esi
	callq	strcmp
	cmpl	$0, %eax
	jne	.LBB1_91
# %bb.90:                               # %if.then200
                                        #   in Loop: Header=BB1_70 Depth=1
	callq	license
	jmp	.LBB1_118
.LBB1_91:                               # %if.else201
                                        #   in Loop: Header=BB1_70 Depth=1
	movq	-24(%rbp), %rax
	movq	(%rax), %rdi
	movl	$.L.str.20, %esi
	callq	strcmp
	cmpl	$0, %eax
	jne	.LBB1_93
# %bb.92:                               # %if.then206
                                        #   in Loop: Header=BB1_70 Depth=1
	callq	license
	jmp	.LBB1_117
.LBB1_93:                               # %if.else207
                                        #   in Loop: Header=BB1_70 Depth=1
	movq	-24(%rbp), %rax
	movq	(%rax), %rdi
	movl	$.L.str.21, %esi
	callq	strcmp
	cmpl	$0, %eax
	jne	.LBB1_95
# %bb.94:                               # %if.then212
                                        #   in Loop: Header=BB1_70 Depth=1
	movl	$1, workFactor
	jmp	.LBB1_116
.LBB1_95:                               # %if.else213
                                        #   in Loop: Header=BB1_70 Depth=1
	movq	-24(%rbp), %rax
	movq	(%rax), %rdi
	movl	$.L.str.22, %esi
	callq	strcmp
	cmpl	$0, %eax
	jne	.LBB1_97
# %bb.96:                               # %if.then218
                                        #   in Loop: Header=BB1_70 Depth=1
	movq	-24(%rbp), %rax
	movq	(%rax), %rdi
	callq	redundant
	jmp	.LBB1_115
.LBB1_97:                               # %if.else220
                                        #   in Loop: Header=BB1_70 Depth=1
	movq	-24(%rbp), %rax
	movq	(%rax), %rdi
	movl	$.L.str.23, %esi
	callq	strcmp
	cmpl	$0, %eax
	jne	.LBB1_99
# %bb.98:                               # %if.then225
                                        #   in Loop: Header=BB1_70 Depth=1
	movq	-24(%rbp), %rax
	movq	(%rax), %rdi
	callq	redundant
	jmp	.LBB1_114
.LBB1_99:                               # %if.else227
                                        #   in Loop: Header=BB1_70 Depth=1
	movq	-24(%rbp), %rax
	movq	(%rax), %rdi
	movl	$.L.str.24, %esi
	callq	strcmp
	cmpl	$0, %eax
	jne	.LBB1_101
# %bb.100:                              # %if.then232
                                        #   in Loop: Header=BB1_70 Depth=1
	movl	$1, blockSize100k
	jmp	.LBB1_113
.LBB1_101:                              # %if.else233
                                        #   in Loop: Header=BB1_70 Depth=1
	movq	-24(%rbp), %rax
	movq	(%rax), %rdi
	movl	$.L.str.25, %esi
	callq	strcmp
	cmpl	$0, %eax
	jne	.LBB1_103
# %bb.102:                              # %if.then238
                                        #   in Loop: Header=BB1_70 Depth=1
	movl	$9, blockSize100k
	jmp	.LBB1_112
.LBB1_103:                              # %if.else239
                                        #   in Loop: Header=BB1_70 Depth=1
	movq	-24(%rbp), %rax
	movq	(%rax), %rdi
	movl	$.L.str.26, %esi
	callq	strcmp
	cmpl	$0, %eax
	jne	.LBB1_105
# %bb.104:                              # %if.then244
                                        #   in Loop: Header=BB1_70 Depth=1
	movl	verbosity, %eax
	addl	$1, %eax
	movl	%eax, verbosity
	jmp	.LBB1_111
.LBB1_105:                              # %if.else246
                                        #   in Loop: Header=BB1_70 Depth=1
	movq	-24(%rbp), %rax
	movq	(%rax), %rdi
	movl	$.L.str.27, %esi
	callq	strcmp
	cmpl	$0, %eax
	jne	.LBB1_107
# %bb.106:                              # %if.then251
	movq	progName, %rdi
	callq	usage
	xorl	%edi, %edi
	callq	exit
.LBB1_107:                              # %if.else252
                                        #   in Loop: Header=BB1_70 Depth=1
	movq	-24(%rbp), %rax
	movq	(%rax), %rdi
	movabsq	$.L.str.3, %rsi
	movl	$2, %edx
	callq	strncmp
	cmpl	$0, %eax
	jne	.LBB1_109
# %bb.108:                              # %if.then257
	movq	stderr, %rdi
	movq	progName, %rdx
	movq	-24(%rbp), %rax
	movq	(%rax), %rcx
	movabsq	$.L.str.10, %rsi
	movb	$0, %al
	callq	fprintf
	movq	progName, %rdi
	callq	usage
	movl	$1, %edi
	callq	exit
.LBB1_109:                              # %if.end260
                                        #   in Loop: Header=BB1_70 Depth=1
	jmp	.LBB1_110
.LBB1_110:                              # %if.end261
                                        #   in Loop: Header=BB1_70 Depth=1
	jmp	.LBB1_111
.LBB1_111:                              # %if.end262
                                        #   in Loop: Header=BB1_70 Depth=1
	jmp	.LBB1_112
.LBB1_112:                              # %if.end263
                                        #   in Loop: Header=BB1_70 Depth=1
	jmp	.LBB1_113
.LBB1_113:                              # %if.end264
                                        #   in Loop: Header=BB1_70 Depth=1
	jmp	.LBB1_114
.LBB1_114:                              # %if.end265
                                        #   in Loop: Header=BB1_70 Depth=1
	jmp	.LBB1_115
.LBB1_115:                              # %if.end266
                                        #   in Loop: Header=BB1_70 Depth=1
	jmp	.LBB1_116
.LBB1_116:                              # %if.end267
                                        #   in Loop: Header=BB1_70 Depth=1
	jmp	.LBB1_117
.LBB1_117:                              # %if.end268
                                        #   in Loop: Header=BB1_70 Depth=1
	jmp	.LBB1_118
.LBB1_118:                              # %if.end269
                                        #   in Loop: Header=BB1_70 Depth=1
	jmp	.LBB1_119
.LBB1_119:                              # %if.end270
                                        #   in Loop: Header=BB1_70 Depth=1
	jmp	.LBB1_120
.LBB1_120:                              # %if.end271
                                        #   in Loop: Header=BB1_70 Depth=1
	jmp	.LBB1_121
.LBB1_121:                              # %if.end272
                                        #   in Loop: Header=BB1_70 Depth=1
	jmp	.LBB1_122
.LBB1_122:                              # %if.end273
                                        #   in Loop: Header=BB1_70 Depth=1
	jmp	.LBB1_123
.LBB1_123:                              # %if.end274
                                        #   in Loop: Header=BB1_70 Depth=1
	jmp	.LBB1_124
.LBB1_124:                              # %if.end275
                                        #   in Loop: Header=BB1_70 Depth=1
	jmp	.LBB1_125
.LBB1_125:                              # %if.end276
                                        #   in Loop: Header=BB1_70 Depth=1
	jmp	.LBB1_126
.LBB1_126:                              # %if.end277
                                        #   in Loop: Header=BB1_70 Depth=1
	jmp	.LBB1_127
.LBB1_127:                              # %for.inc278
                                        #   in Loop: Header=BB1_70 Depth=1
	movq	-24(%rbp), %rax
	movq	8(%rax), %rax
	movq	%rax, -24(%rbp)
	jmp	.LBB1_70
.LBB1_128:                              # %for.end280.loopexit
	jmp	.LBB1_129
.LBB1_129:                              # %for.end280
	cmpl	$4, verbosity
	jle	.LBB1_131
# %bb.130:                              # %if.then283
	movl	$4, verbosity
.LBB1_131:                              # %if.end284
	cmpl	$1, opMode
	jne	.LBB1_135
# %bb.132:                              # %land.lhs.true287
	movzbl	smallMode, %eax
	cmpl	$0, %eax
	je	.LBB1_135
# %bb.133:                              # %land.lhs.true290
	cmpl	$2, blockSize100k
	jle	.LBB1_135
# %bb.134:                              # %if.then293
	movl	$2, blockSize100k
.LBB1_135:                              # %if.end294
	cmpl	$3, opMode
	jne	.LBB1_138
# %bb.136:                              # %land.lhs.true297
	cmpl	$2, srcMode
	jne	.LBB1_138
# %bb.137:                              # %if.then300
	movq	stderr, %rdi
	movq	progName, %rdx
	movabsq	$.L.str.28, %rsi
	movb	$0, %al
	callq	fprintf
	movl	$1, %edi
	callq	exit
.LBB1_138:                              # %if.end302
	cmpl	$2, srcMode
	jne	.LBB1_141
# %bb.139:                              # %land.lhs.true305
	cmpl	$0, numFileNames
	jne	.LBB1_141
# %bb.140:                              # %if.then308
	movl	$1, srcMode
.LBB1_141:                              # %if.end309
	cmpl	$1, opMode
	je	.LBB1_143
# %bb.142:                              # %if.then312
	movl	$0, blockSize100k
.LBB1_143:                              # %if.end313
	cmpl	$3, srcMode
	jne	.LBB1_145
# %bb.144:                              # %if.then316
	movl	$2, %edi
	movabsq	$mySignalCatcher, %rsi
	callq	signal
	movl	$15, %edi
	movabsq	$mySignalCatcher, %rsi
	callq	signal
	movl	$1, %edi
	movabsq	$mySignalCatcher, %rsi
	callq	signal
.LBB1_145:                              # %if.end320
	cmpl	$1, opMode
	jne	.LBB1_159
# %bb.146:                              # %if.then323
	cmpl	$1, srcMode
	jne	.LBB1_148
# %bb.147:                              # %if.then326
	xorl	%edi, %edi
	callq	compress
	jmp	.LBB1_158
.LBB1_148:                              # %if.else327
	movb	$1, -9(%rbp)
	movq	-32(%rbp), %rax
	movq	%rax, -24(%rbp)
.LBB1_149:                              # %for.cond328
                                        # =>This Inner Loop Header: Depth=1
	cmpq	$0, -24(%rbp)
	je	.LBB1_157
# %bb.150:                              # %for.body331
                                        #   in Loop: Header=BB1_149 Depth=1
	movq	-24(%rbp), %rax
	movq	(%rax), %rdi
	movl	$.L.str.3, %esi
	callq	strcmp
	cmpl	$0, %eax
	jne	.LBB1_152
# %bb.151:                              # %if.then336
                                        #   in Loop: Header=BB1_149 Depth=1
	movb	$0, -9(%rbp)
	jmp	.LBB1_156
.LBB1_152:                              # %if.end337
                                        #   in Loop: Header=BB1_149 Depth=1
	movq	-24(%rbp), %rax
	movq	(%rax), %rax
	movsbl	(%rax), %eax
	cmpl	$45, %eax
	jne	.LBB1_155
# %bb.153:                              # %land.lhs.true343
                                        #   in Loop: Header=BB1_149 Depth=1
	movzbl	-9(%rbp), %eax
	cmpl	$0, %eax
	je	.LBB1_155
# %bb.154:                              # %if.then346
                                        #   in Loop: Header=BB1_149 Depth=1
	jmp	.LBB1_156
.LBB1_155:                              # %if.end347
                                        #   in Loop: Header=BB1_149 Depth=1
	movl	numFilesProcessed, %eax
	addl	$1, %eax
	movl	%eax, numFilesProcessed
	movq	-24(%rbp), %rax
	movq	(%rax), %rdi
	callq	compress
.LBB1_156:                              # %for.inc350
                                        #   in Loop: Header=BB1_149 Depth=1
	movq	-24(%rbp), %rax
	movq	8(%rax), %rax
	movq	%rax, -24(%rbp)
	jmp	.LBB1_149
.LBB1_157:                              # %for.end352
	jmp	.LBB1_158
.LBB1_158:                              # %if.end353
	jmp	.LBB1_192
.LBB1_159:                              # %if.else354
	cmpl	$2, opMode
	jne	.LBB1_175
# %bb.160:                              # %if.then357
	movb	$0, unzFailsExist
	cmpl	$1, srcMode
	jne	.LBB1_162
# %bb.161:                              # %if.then360
	xorl	%edi, %edi
	callq	uncompress
	jmp	.LBB1_172
.LBB1_162:                              # %if.else361
	movb	$1, -9(%rbp)
	movq	-32(%rbp), %rax
	movq	%rax, -24(%rbp)
.LBB1_163:                              # %for.cond362
                                        # =>This Inner Loop Header: Depth=1
	cmpq	$0, -24(%rbp)
	je	.LBB1_171
# %bb.164:                              # %for.body365
                                        #   in Loop: Header=BB1_163 Depth=1
	movq	-24(%rbp), %rax
	movq	(%rax), %rdi
	movl	$.L.str.3, %esi
	callq	strcmp
	cmpl	$0, %eax
	jne	.LBB1_166
# %bb.165:                              # %if.then370
                                        #   in Loop: Header=BB1_163 Depth=1
	movb	$0, -9(%rbp)
	jmp	.LBB1_170
.LBB1_166:                              # %if.end371
                                        #   in Loop: Header=BB1_163 Depth=1
	movq	-24(%rbp), %rax
	movq	(%rax), %rax
	movsbl	(%rax), %eax
	cmpl	$45, %eax
	jne	.LBB1_169
# %bb.167:                              # %land.lhs.true377
                                        #   in Loop: Header=BB1_163 Depth=1
	movzbl	-9(%rbp), %eax
	cmpl	$0, %eax
	je	.LBB1_169
# %bb.168:                              # %if.then380
                                        #   in Loop: Header=BB1_163 Depth=1
	jmp	.LBB1_170
.LBB1_169:                              # %if.end381
                                        #   in Loop: Header=BB1_163 Depth=1
	movl	numFilesProcessed, %eax
	addl	$1, %eax
	movl	%eax, numFilesProcessed
	movq	-24(%rbp), %rax
	movq	(%rax), %rdi
	callq	uncompress
.LBB1_170:                              # %for.inc384
                                        #   in Loop: Header=BB1_163 Depth=1
	movq	-24(%rbp), %rax
	movq	8(%rax), %rax
	movq	%rax, -24(%rbp)
	jmp	.LBB1_163
.LBB1_171:                              # %for.end386
	jmp	.LBB1_172
.LBB1_172:                              # %if.end387
	cmpb	$0, unzFailsExist
	je	.LBB1_174
# %bb.173:                              # %if.then389
	movl	$2, %edi
	callq	setExit
	movl	exitValue, %edi
	callq	exit
.LBB1_174:                              # %if.end390
	jmp	.LBB1_191
.LBB1_175:                              # %if.else391
	movb	$0, testFailsExist
	cmpl	$1, srcMode
	jne	.LBB1_177
# %bb.176:                              # %if.then394
	xorl	%edi, %edi
	callq	testf
	jmp	.LBB1_187
.LBB1_177:                              # %if.else395
	movb	$1, -9(%rbp)
	movq	-32(%rbp), %rax
	movq	%rax, -24(%rbp)
.LBB1_178:                              # %for.cond396
                                        # =>This Inner Loop Header: Depth=1
	cmpq	$0, -24(%rbp)
	je	.LBB1_186
# %bb.179:                              # %for.body399
                                        #   in Loop: Header=BB1_178 Depth=1
	movq	-24(%rbp), %rax
	movq	(%rax), %rdi
	movl	$.L.str.3, %esi
	callq	strcmp
	cmpl	$0, %eax
	jne	.LBB1_181
# %bb.180:                              # %if.then404
                                        #   in Loop: Header=BB1_178 Depth=1
	movb	$0, -9(%rbp)
	jmp	.LBB1_185
.LBB1_181:                              # %if.end405
                                        #   in Loop: Header=BB1_178 Depth=1
	movq	-24(%rbp), %rax
	movq	(%rax), %rax
	movsbl	(%rax), %eax
	cmpl	$45, %eax
	jne	.LBB1_184
# %bb.182:                              # %land.lhs.true411
                                        #   in Loop: Header=BB1_178 Depth=1
	movzbl	-9(%rbp), %eax
	cmpl	$0, %eax
	je	.LBB1_184
# %bb.183:                              # %if.then414
                                        #   in Loop: Header=BB1_178 Depth=1
	jmp	.LBB1_185
.LBB1_184:                              # %if.end415
                                        #   in Loop: Header=BB1_178 Depth=1
	movl	numFilesProcessed, %eax
	addl	$1, %eax
	movl	%eax, numFilesProcessed
	movq	-24(%rbp), %rax
	movq	(%rax), %rdi
	callq	testf
.LBB1_185:                              # %for.inc418
                                        #   in Loop: Header=BB1_178 Depth=1
	movq	-24(%rbp), %rax
	movq	8(%rax), %rax
	movq	%rax, -24(%rbp)
	jmp	.LBB1_178
.LBB1_186:                              # %for.end420
	jmp	.LBB1_187
.LBB1_187:                              # %if.end421
	movzbl	testFailsExist, %eax
	cmpl	$0, %eax
	je	.LBB1_190
# %bb.188:                              # %land.lhs.true424
	movzbl	noisy, %eax
	cmpl	$0, %eax
	je	.LBB1_190
# %bb.189:                              # %if.then427
	movq	stderr, %rdi
	movabsq	$.L.str.29, %rsi
	movb	$0, %al
	callq	fprintf
	movl	$2, %edi
	callq	setExit
	movl	exitValue, %edi
	callq	exit
.LBB1_190:                              # %if.end429
	jmp	.LBB1_191
.LBB1_191:                              # %if.end430
	jmp	.LBB1_192
.LBB1_192:                              # %if.end431
	movq	-32(%rbp), %rax
	movq	%rax, -24(%rbp)
.LBB1_193:                              # %while.cond
                                        # =>This Inner Loop Header: Depth=1
	cmpq	$0, -24(%rbp)
	je	.LBB1_197
# %bb.194:                              # %while.body
                                        #   in Loop: Header=BB1_193 Depth=1
	movq	-24(%rbp), %rax
	movq	8(%rax), %rax
	movq	%rax, -72(%rbp)
	movq	-24(%rbp), %rax
	cmpq	$0, (%rax)
	je	.LBB1_196
# %bb.195:                              # %if.then438
                                        #   in Loop: Header=BB1_193 Depth=1
	movq	-24(%rbp), %rax
	movq	(%rax), %rdi
	callq	free
.LBB1_196:                              # %if.end440
                                        #   in Loop: Header=BB1_193 Depth=1
	movq	-24(%rbp), %rdi
	callq	free
	movq	-72(%rbp), %rax
	movq	%rax, -24(%rbp)
	jmp	.LBB1_193
.LBB1_197:                              # %while.end
	movl	exitValue, %eax
	addq	$72, %rsp
	popq	%rbx
	popq	%rbp
	.cfi_def_cfa %rsp, 8
	retq
.Lfunc_end1:
	.size	main, .Lfunc_end1-main
	.cfi_endproc
	.section	.rodata,"a",@progbits
	.p2align	3
.LJTI1_0:
	.quad	.LBB1_50
	.quad	.LBB1_51
	.quad	.LBB1_52
	.quad	.LBB1_53
	.quad	.LBB1_54
	.quad	.LBB1_55
	.quad	.LBB1_56
	.quad	.LBB1_57
	.quad	.LBB1_58
	.quad	.LBB1_62
	.quad	.LBB1_62
	.quad	.LBB1_62
	.quad	.LBB1_62
	.quad	.LBB1_62
	.quad	.LBB1_62
	.quad	.LBB1_62
	.quad	.LBB1_62
	.quad	.LBB1_62
	.quad	.LBB1_62
	.quad	.LBB1_62
	.quad	.LBB1_62
	.quad	.LBB1_62
	.quad	.LBB1_62
	.quad	.LBB1_62
	.quad	.LBB1_62
	.quad	.LBB1_62
	.quad	.LBB1_62
	.quad	.LBB1_59
	.quad	.LBB1_62
	.quad	.LBB1_62
	.quad	.LBB1_62
	.quad	.LBB1_62
	.quad	.LBB1_62
	.quad	.LBB1_62
	.quad	.LBB1_62
	.quad	.LBB1_62
	.quad	.LBB1_62
	.quad	.LBB1_59
	.quad	.LBB1_62
	.quad	.LBB1_62
	.quad	.LBB1_62
	.quad	.LBB1_62
	.quad	.LBB1_62
	.quad	.LBB1_62
	.quad	.LBB1_62
	.quad	.LBB1_62
	.quad	.LBB1_62
	.quad	.LBB1_62
	.quad	.LBB1_62
	.quad	.LBB1_62
	.quad	.LBB1_42
	.quad	.LBB1_43
	.quad	.LBB1_62
	.quad	.LBB1_45
	.quad	.LBB1_62
	.quad	.LBB1_61
	.quad	.LBB1_62
	.quad	.LBB1_62
	.quad	.LBB1_47
	.quad	.LBB1_62
	.quad	.LBB1_62
	.quad	.LBB1_62
	.quad	.LBB1_62
	.quad	.LBB1_62
	.quad	.LBB1_49
	.quad	.LBB1_62
	.quad	.LBB1_48
	.quad	.LBB1_46
	.quad	.LBB1_62
	.quad	.LBB1_60
	.quad	.LBB1_62
	.quad	.LBB1_62
	.quad	.LBB1_62
	.quad	.LBB1_44
                                        # -- End function
	.text
	.p2align	4, 0x90         # -- Begin function mySIGSEGVorSIGBUScatcher
	.type	mySIGSEGVorSIGBUScatcher,@function
mySIGSEGVorSIGBUScatcher:               # @mySIGSEGVorSIGBUScatcher
	.cfi_startproc
# %bb.0:                                # %entry
	pushq	%rbp
	.cfi_def_cfa_offset 16
	.cfi_offset %rbp, -16
	movq	%rsp, %rbp
	.cfi_def_cfa_register %rbp
	subq	$16, %rsp
	movl	%edi, -4(%rbp)
	cmpl	$1, opMode
	jne	.LBB2_2
# %bb.1:                                # %if.then
	movq	stderr, %rdi
	movq	progName, %rdx
	movabsq	$.L.str.36, %rsi
	movb	$0, %al
	callq	fprintf
	jmp	.LBB2_3
.LBB2_2:                                # %if.else
	movq	stderr, %rdi
	movq	progName, %rdx
	movabsq	$.L.str.37, %rsi
	movb	$0, %al
	callq	fprintf
.LBB2_3:                                # %if.end
	callq	showFileNames
	cmpl	$1, opMode
	jne	.LBB2_5
# %bb.4:                                # %if.then3
	movl	$3, %edi
	callq	cleanUpAndFail
.LBB2_5:                                # %if.else4
	callq	cadvise
	movl	$2, %edi
	callq	cleanUpAndFail
.Lfunc_end2:
	.size	mySIGSEGVorSIGBUScatcher, .Lfunc_end2-mySIGSEGVorSIGBUScatcher
	.cfi_endproc
                                        # -- End function
	.p2align	4, 0x90         # -- Begin function copyFileName
	.type	copyFileName,@function
copyFileName:                           # @copyFileName
	.cfi_startproc
# %bb.0:                                # %rand_bb
	pushq	%rbp
	.cfi_def_cfa_offset 16
	.cfi_offset %rbp, -16
	movq	%rsp, %rbp
	.cfi_def_cfa_register %rbp
	pushq	%r14
	pushq	%rbx
	.cfi_offset %rbx, -32
	.cfi_offset %r14, -24
	movq	%rsi, %r14
	movq	%rdi, %rbx
	callq	get_rand
	cmpl	$0, %eax
	jne	.LBB3_2
# %bb.1:                                # %func_copyFileName.5
	movq	%rbx, %rdi
	movq	%r14, %rsi
	callq	copyFileName.5
	popq	%rbx
	popq	%r14
	popq	%rbp
	.cfi_def_cfa %rsp, 8
	retq
.LBB3_2:                                # %func_copyFileName.38
	.cfi_def_cfa %rbp, 16
	movq	%rbx, %rdi
	movq	%r14, %rsi
	callq	copyFileName.38
	popq	%rbx
	popq	%r14
	popq	%rbp
	.cfi_def_cfa %rsp, 8
	retq
.Lfunc_end3:
	.size	copyFileName, .Lfunc_end3-copyFileName
	.cfi_endproc
                                        # -- End function
	.p2align	4, 0x90         # -- Begin function addFlagsFromEnvVar
	.type	addFlagsFromEnvVar,@function
addFlagsFromEnvVar:                     # @addFlagsFromEnvVar
	.cfi_startproc
# %bb.0:                                # %rand_bb
	pushq	%rbp
	.cfi_def_cfa_offset 16
	.cfi_offset %rbp, -16
	movq	%rsp, %rbp
	.cfi_def_cfa_register %rbp
	pushq	%r14
	pushq	%rbx
	.cfi_offset %rbx, -32
	.cfi_offset %r14, -24
	movq	%rsi, %r14
	movq	%rdi, %rbx
	callq	get_rand
	cmpl	$0, %eax
	jne	.LBB4_5
# %bb.1:                                # %func_addFlagsFromEnvVar.29
	movq	%rbx, %rdi
	movq	%r14, %rsi
	callq	addFlagsFromEnvVar.29
	popq	%rbx
	popq	%r14
	popq	%rbp
	.cfi_def_cfa %rsp, 8
	retq
.LBB4_2:                                # %func_addFlagsFromEnvVar.68
	.cfi_def_cfa %rbp, 16
	movq	%rbx, %rdi
	movq	%r14, %rsi
	callq	addFlagsFromEnvVar.68
	popq	%rbx
	popq	%r14
	popq	%rbp
	.cfi_def_cfa %rsp, 8
	retq
.LBB4_3:                                # %func_addFlagsFromEnvVar.86
	.cfi_def_cfa %rbp, 16
	movq	%rbx, %rdi
	movq	%r14, %rsi
	callq	addFlagsFromEnvVar.86
	popq	%rbx
	popq	%r14
	popq	%rbp
	.cfi_def_cfa %rsp, 8
	retq
.LBB4_4:                                # %func_addFlagsFromEnvVar.88
	.cfi_def_cfa %rbp, 16
	movq	%rbx, %rdi
	movq	%r14, %rsi
	callq	addFlagsFromEnvVar.88
	popq	%rbx
	popq	%r14
	popq	%rbp
	.cfi_def_cfa %rsp, 8
	retq
.LBB4_5:                                # %ctrl0
	.cfi_def_cfa %rbp, 16
	cmpl	$1, %eax
	je	.LBB4_2
# %bb.6:                                # %ctrl1
	cmpl	$2, %eax
	je	.LBB4_3
	jmp	.LBB4_4
.Lfunc_end4:
	.size	addFlagsFromEnvVar, .Lfunc_end4-addFlagsFromEnvVar
	.cfi_endproc
                                        # -- End function
	.p2align	4, 0x90         # -- Begin function snocString
	.type	snocString,@function
snocString:                             # @snocString
	.cfi_startproc
# %bb.0:                                # %rand_bb
	pushq	%rbp
	.cfi_def_cfa_offset 16
	.cfi_offset %rbp, -16
	movq	%rsp, %rbp
	.cfi_def_cfa_register %rbp
	pushq	%r14
	pushq	%rbx
	.cfi_offset %rbx, -32
	.cfi_offset %r14, -24
	movq	%rsi, %r14
	movq	%rdi, %rbx
	callq	get_rand
	cmpl	$0, %eax
	jne	.LBB5_5
# %bb.1:                                # %func_snocString.12
	movq	%rbx, %rdi
	movq	%r14, %rsi
	callq	snocString.12
	popq	%rbx
	popq	%r14
	popq	%rbp
	.cfi_def_cfa %rsp, 8
	retq
.LBB5_2:                                # %func_snocString.39
	.cfi_def_cfa %rbp, 16
	movq	%rbx, %rdi
	movq	%r14, %rsi
	callq	snocString.39
	popq	%rbx
	popq	%r14
	popq	%rbp
	.cfi_def_cfa %rsp, 8
	retq
.LBB5_3:                                # %func_snocString.61
	.cfi_def_cfa %rbp, 16
	movq	%rbx, %rdi
	movq	%r14, %rsi
	callq	snocString.61
	popq	%rbx
	popq	%r14
	popq	%rbp
	.cfi_def_cfa %rsp, 8
	retq
.LBB5_4:                                # %func_snocString.95
	.cfi_def_cfa %rbp, 16
	movq	%rbx, %rdi
	movq	%r14, %rsi
	callq	snocString.95
	popq	%rbx
	popq	%r14
	popq	%rbp
	.cfi_def_cfa %rsp, 8
	retq
.LBB5_5:                                # %ctrl0
	.cfi_def_cfa %rbp, 16
	cmpl	$1, %eax
	je	.LBB5_2
# %bb.6:                                # %ctrl1
	cmpl	$2, %eax
	je	.LBB5_3
	jmp	.LBB5_4
.Lfunc_end5:
	.size	snocString, .Lfunc_end5-snocString
	.cfi_endproc
                                        # -- End function
	.p2align	4, 0x90         # -- Begin function license
	.type	license,@function
license:                                # @license
	.cfi_startproc
# %bb.0:                                # %entry
	pushq	%rbp
	.cfi_def_cfa_offset 16
	.cfi_offset %rbp, -16
	movq	%rsp, %rbp
	.cfi_def_cfa_register %rbp
	pushq	%rbx
	pushq	%rax
	.cfi_offset %rbx, -24
	movq	stderr, %rbx
	callq	BZ2_bzlibVersion
	movq	%rbx, %rdi
	movabsq	$.L.str.49, %rsi
	movq	%rax, %rdx
	movb	$0, %al
	callq	fprintf
	addq	$8, %rsp
	popq	%rbx
	popq	%rbp
	.cfi_def_cfa %rsp, 8
	retq
.Lfunc_end6:
	.size	license, .Lfunc_end6-license
	.cfi_endproc
                                        # -- End function
	.p2align	4, 0x90         # -- Begin function usage
	.type	usage,@function
usage:                                  # @usage
	.cfi_startproc
# %bb.0:                                # %entry
	pushq	%rbp
	.cfi_def_cfa_offset 16
	.cfi_offset %rbp, -16
	movq	%rsp, %rbp
	.cfi_def_cfa_register %rbp
	pushq	%rbx
	pushq	%rax
	.cfi_offset %rbx, -24
	movq	%rdi, -16(%rbp)
	movq	stderr, %rbx
	callq	BZ2_bzlibVersion
	movq	-16(%rbp), %rcx
	movq	%rbx, %rdi
	movabsq	$.L.str.50, %rsi
	movq	%rax, %rdx
	movb	$0, %al
	callq	fprintf
	addq	$8, %rsp
	popq	%rbx
	popq	%rbp
	.cfi_def_cfa %rsp, 8
	retq
.Lfunc_end7:
	.size	usage, .Lfunc_end7-usage
	.cfi_endproc
                                        # -- End function
	.p2align	4, 0x90         # -- Begin function redundant
	.type	redundant,@function
redundant:                              # @redundant
	.cfi_startproc
# %bb.0:                                # %entry
	pushq	%rbp
	.cfi_def_cfa_offset 16
	.cfi_offset %rbp, -16
	movq	%rsp, %rbp
	.cfi_def_cfa_register %rbp
	subq	$16, %rsp
	movq	%rdi, -8(%rbp)
	movq	stderr, %rdi
	movq	progName, %rdx
	movq	-8(%rbp), %rcx
	movabsq	$.L.str.51, %rsi
	movb	$0, %al
	callq	fprintf
	addq	$16, %rsp
	popq	%rbp
	.cfi_def_cfa %rsp, 8
	retq
.Lfunc_end8:
	.size	redundant, .Lfunc_end8-redundant
	.cfi_endproc
                                        # -- End function
	.p2align	4, 0x90         # -- Begin function mySignalCatcher
	.type	mySignalCatcher,@function
mySignalCatcher:                        # @mySignalCatcher
	.cfi_startproc
# %bb.0:                                # %entry
	pushq	%rbp
	.cfi_def_cfa_offset 16
	.cfi_offset %rbp, -16
	movq	%rsp, %rbp
	.cfi_def_cfa_register %rbp
	subq	$16, %rsp
	movl	%edi, -4(%rbp)
	movq	stderr, %rdi
	movq	progName, %rdx
	movabsq	$.L.str.52, %rsi
	movb	$0, %al
	callq	fprintf
	movl	$1, %edi
	callq	cleanUpAndFail
.Lfunc_end9:
	.size	mySignalCatcher, .Lfunc_end9-mySignalCatcher
	.cfi_endproc
                                        # -- End function
	.p2align	4, 0x90         # -- Begin function compress
	.type	compress,@function
compress:                               # @compress
	.cfi_startproc
# %bb.0:                                # %rand_bb
	pushq	%rbp
	.cfi_def_cfa_offset 16
	.cfi_offset %rbp, -16
	movq	%rsp, %rbp
	.cfi_def_cfa_register %rbp
	pushq	%rbx
	pushq	%rax
	.cfi_offset %rbx, -24
	movq	%rdi, %rbx
	callq	get_rand
	cmpl	$0, %eax
	jne	.LBB10_5
# %bb.1:                                # %func_compress.4
	movq	%rbx, %rdi
	callq	compress.4
	addq	$8, %rsp
	popq	%rbx
	popq	%rbp
	.cfi_def_cfa %rsp, 8
	retq
.LBB10_2:                               # %func_compress.6
	.cfi_def_cfa %rbp, 16
	movq	%rbx, %rdi
	callq	compress.6
	addq	$8, %rsp
	popq	%rbx
	popq	%rbp
	.cfi_def_cfa %rsp, 8
	retq
.LBB10_3:                               # %func_compress.16
	.cfi_def_cfa %rbp, 16
	movq	%rbx, %rdi
	callq	compress.16
	addq	$8, %rsp
	popq	%rbx
	popq	%rbp
	.cfi_def_cfa %rsp, 8
	retq
.LBB10_4:                               # %func_compress.22
	.cfi_def_cfa %rbp, 16
	movq	%rbx, %rdi
	callq	compress.22
	addq	$8, %rsp
	popq	%rbx
	popq	%rbp
	.cfi_def_cfa %rsp, 8
	retq
.LBB10_5:                               # %ctrl0
	.cfi_def_cfa %rbp, 16
	cmpl	$1, %eax
	je	.LBB10_2
# %bb.6:                                # %ctrl1
	cmpl	$2, %eax
	je	.LBB10_3
	jmp	.LBB10_4
.Lfunc_end10:
	.size	compress, .Lfunc_end10-compress
	.cfi_endproc
                                        # -- End function
	.p2align	4, 0x90         # -- Begin function uncompress
	.type	uncompress,@function
uncompress:                             # @uncompress
	.cfi_startproc
# %bb.0:                                # %rand_bb
	pushq	%rbp
	.cfi_def_cfa_offset 16
	.cfi_offset %rbp, -16
	movq	%rsp, %rbp
	.cfi_def_cfa_register %rbp
	pushq	%rbx
	pushq	%rax
	.cfi_offset %rbx, -24
	movq	%rdi, %rbx
	callq	get_rand
	cmpl	$0, %eax
	jne	.LBB11_5
# %bb.1:                                # %func_uncompress.11
	movq	%rbx, %rdi
	callq	uncompress.11
	addq	$8, %rsp
	popq	%rbx
	popq	%rbp
	.cfi_def_cfa %rsp, 8
	retq
.LBB11_2:                               # %func_uncompress.15
	.cfi_def_cfa %rbp, 16
	movq	%rbx, %rdi
	callq	uncompress.15
	addq	$8, %rsp
	popq	%rbx
	popq	%rbp
	.cfi_def_cfa %rsp, 8
	retq
.LBB11_3:                               # %func_uncompress.19
	.cfi_def_cfa %rbp, 16
	movq	%rbx, %rdi
	callq	uncompress.19
	addq	$8, %rsp
	popq	%rbx
	popq	%rbp
	.cfi_def_cfa %rsp, 8
	retq
.LBB11_4:                               # %func_uncompress.77
	.cfi_def_cfa %rbp, 16
	movq	%rbx, %rdi
	callq	uncompress.77
	addq	$8, %rsp
	popq	%rbx
	popq	%rbp
	.cfi_def_cfa %rsp, 8
	retq
.LBB11_5:                               # %ctrl0
	.cfi_def_cfa %rbp, 16
	cmpl	$1, %eax
	je	.LBB11_2
# %bb.6:                                # %ctrl1
	cmpl	$2, %eax
	je	.LBB11_3
	jmp	.LBB11_4
.Lfunc_end11:
	.size	uncompress, .Lfunc_end11-uncompress
	.cfi_endproc
                                        # -- End function
	.p2align	4, 0x90         # -- Begin function setExit
	.type	setExit,@function
setExit:                                # @setExit
	.cfi_startproc
# %bb.0:                                # %entry
	pushq	%rbp
	.cfi_def_cfa_offset 16
	.cfi_offset %rbp, -16
	movq	%rsp, %rbp
	.cfi_def_cfa_register %rbp
	movl	%edi, -4(%rbp)
	movl	-4(%rbp), %eax
	cmpl	exitValue, %eax
	jle	.LBB12_2
# %bb.1:                                # %if.then
	movl	-4(%rbp), %eax
	movl	%eax, exitValue
.LBB12_2:                               # %if.end
	popq	%rbp
	.cfi_def_cfa %rsp, 8
	retq
.Lfunc_end12:
	.size	setExit, .Lfunc_end12-setExit
	.cfi_endproc
                                        # -- End function
	.p2align	4, 0x90         # -- Begin function testf
	.type	testf,@function
testf:                                  # @testf
	.cfi_startproc
# %bb.0:                                # %rand_bb
	pushq	%rbp
	.cfi_def_cfa_offset 16
	.cfi_offset %rbp, -16
	movq	%rsp, %rbp
	.cfi_def_cfa_register %rbp
	pushq	%rbx
	pushq	%rax
	.cfi_offset %rbx, -24
	movq	%rdi, %rbx
	callq	get_rand
	cmpl	$0, %eax
	jne	.LBB13_5
# %bb.1:                                # %func_testf.10
	movq	%rbx, %rdi
	callq	testf.10
	addq	$8, %rsp
	popq	%rbx
	popq	%rbp
	.cfi_def_cfa %rsp, 8
	retq
.LBB13_2:                               # %func_testf.40
	.cfi_def_cfa %rbp, 16
	movq	%rbx, %rdi
	callq	testf.40
	addq	$8, %rsp
	popq	%rbx
	popq	%rbp
	.cfi_def_cfa %rsp, 8
	retq
.LBB13_3:                               # %func_testf.46
	.cfi_def_cfa %rbp, 16
	movq	%rbx, %rdi
	callq	testf.46
	addq	$8, %rsp
	popq	%rbx
	popq	%rbp
	.cfi_def_cfa %rsp, 8
	retq
.LBB13_4:                               # %func_testf.49
	.cfi_def_cfa %rbp, 16
	movq	%rbx, %rdi
	callq	testf.49
	addq	$8, %rsp
	popq	%rbx
	popq	%rbp
	.cfi_def_cfa %rsp, 8
	retq
.LBB13_5:                               # %ctrl0
	.cfi_def_cfa %rbp, 16
	cmpl	$1, %eax
	je	.LBB13_2
# %bb.6:                                # %ctrl1
	cmpl	$2, %eax
	je	.LBB13_3
	jmp	.LBB13_4
.Lfunc_end13:
	.size	testf, .Lfunc_end13-testf
	.cfi_endproc
                                        # -- End function
	.p2align	4, 0x90         # -- Begin function showFileNames
	.type	showFileNames,@function
showFileNames:                          # @showFileNames
	.cfi_startproc
# %bb.0:                                # %entry
	pushq	%rbp
	.cfi_def_cfa_offset 16
	.cfi_offset %rbp, -16
	movq	%rsp, %rbp
	.cfi_def_cfa_register %rbp
	cmpb	$0, noisy
	je	.LBB14_2
# %bb.1:                                # %if.then
	movq	stderr, %rdi
	movabsq	$.L.str.38, %rsi
	movabsq	$inName, %rdx
	movabsq	$outName, %rcx
	movb	$0, %al
	callq	fprintf
.LBB14_2:                               # %if.end
	popq	%rbp
	.cfi_def_cfa %rsp, 8
	retq
.Lfunc_end14:
	.size	showFileNames, .Lfunc_end14-showFileNames
	.cfi_endproc
                                        # -- End function
	.p2align	4, 0x90         # -- Begin function cleanUpAndFail
	.type	cleanUpAndFail,@function
cleanUpAndFail:                         # @cleanUpAndFail
	.cfi_startproc
# %bb.0:                                # %rand_bb
	pushq	%rbp
	.cfi_def_cfa_offset 16
	.cfi_offset %rbp, -16
	movq	%rsp, %rbp
	.cfi_def_cfa_register %rbp
	pushq	%rbx
	pushq	%rax
	.cfi_offset %rbx, -24
	movl	%edi, %ebx
	callq	get_rand
	cmpl	$0, %eax
	jne	.LBB15_5
# %bb.1:                                # %func_cleanUpAndFail.55
	movl	%ebx, %edi
	callq	cleanUpAndFail.55
	addq	$8, %rsp
	popq	%rbx
	popq	%rbp
	.cfi_def_cfa %rsp, 8
	retq
.LBB15_2:                               # %func_cleanUpAndFail.72
	.cfi_def_cfa %rbp, 16
	movl	%ebx, %edi
	callq	cleanUpAndFail.72
	addq	$8, %rsp
	popq	%rbx
	popq	%rbp
	.cfi_def_cfa %rsp, 8
	retq
.LBB15_3:                               # %func_cleanUpAndFail.79
	.cfi_def_cfa %rbp, 16
	movl	%ebx, %edi
	callq	cleanUpAndFail.79
	addq	$8, %rsp
	popq	%rbx
	popq	%rbp
	.cfi_def_cfa %rsp, 8
	retq
.LBB15_4:                               # %func_cleanUpAndFail.91
	.cfi_def_cfa %rbp, 16
	movl	%ebx, %edi
	callq	cleanUpAndFail.91
	addq	$8, %rsp
	popq	%rbx
	popq	%rbp
	.cfi_def_cfa %rsp, 8
	retq
.LBB15_5:                               # %ctrl0
	.cfi_def_cfa %rbp, 16
	cmpl	$1, %eax
	je	.LBB15_2
# %bb.6:                                # %ctrl1
	cmpl	$2, %eax
	je	.LBB15_3
	jmp	.LBB15_4
.Lfunc_end15:
	.size	cleanUpAndFail, .Lfunc_end15-cleanUpAndFail
	.cfi_endproc
                                        # -- End function
	.p2align	4, 0x90         # -- Begin function cadvise
	.type	cadvise,@function
cadvise:                                # @cadvise
	.cfi_startproc
# %bb.0:                                # %entry
	pushq	%rbp
	.cfi_def_cfa_offset 16
	.cfi_offset %rbp, -16
	movq	%rsp, %rbp
	.cfi_def_cfa_register %rbp
	cmpb	$0, noisy
	je	.LBB16_2
# %bb.1:                                # %if.then
	movq	stderr, %rdi
	movabsq	$.L.str.46, %rsi
	movb	$0, %al
	callq	fprintf
.LBB16_2:                               # %if.end
	popq	%rbp
	.cfi_def_cfa %rsp, 8
	retq
.Lfunc_end16:
	.size	cadvise, .Lfunc_end16-cadvise
	.cfi_endproc
                                        # -- End function
	.p2align	4, 0x90         # -- Begin function mkCell
	.type	mkCell,@function
mkCell:                                 # @mkCell
	.cfi_startproc
# %bb.0:                                # %entry
	pushq	%rbp
	.cfi_def_cfa_offset 16
	.cfi_offset %rbp, -16
	movq	%rsp, %rbp
	.cfi_def_cfa_register %rbp
	subq	$16, %rsp
	movl	$16, %edi
	callq	myMalloc
	movq	%rax, -8(%rbp)
	movq	-8(%rbp), %rax
	movq	$0, (%rax)
	movq	-8(%rbp), %rax
	movq	$0, 8(%rax)
	movq	-8(%rbp), %rax
	addq	$16, %rsp
	popq	%rbp
	.cfi_def_cfa %rsp, 8
	retq
.Lfunc_end17:
	.size	mkCell, .Lfunc_end17-mkCell
	.cfi_endproc
                                        # -- End function
	.p2align	4, 0x90         # -- Begin function myMalloc
	.type	myMalloc,@function
myMalloc:                               # @myMalloc
	.cfi_startproc
# %bb.0:                                # %rand_bb
	pushq	%rbp
	.cfi_def_cfa_offset 16
	.cfi_offset %rbp, -16
	movq	%rsp, %rbp
	.cfi_def_cfa_register %rbp
	pushq	%rbx
	pushq	%rax
	.cfi_offset %rbx, -24
	movl	%edi, %ebx
	callq	get_rand
	cmpl	$0, %eax
	jne	.LBB18_2
# %bb.1:                                # %func_myMalloc.7
	movl	%ebx, %edi
	callq	myMalloc.7
	addq	$8, %rsp
	popq	%rbx
	popq	%rbp
	.cfi_def_cfa %rsp, 8
	retq
.LBB18_2:                               # %func_myMalloc.9
	.cfi_def_cfa %rbp, 16
	movl	%ebx, %edi
	callq	myMalloc.9
	addq	$8, %rsp
	popq	%rbx
	popq	%rbp
	.cfi_def_cfa %rsp, 8
	retq
.Lfunc_end18:
	.size	myMalloc, .Lfunc_end18-myMalloc
	.cfi_endproc
                                        # -- End function
	.p2align	4, 0x90         # -- Begin function outOfMemory
	.type	outOfMemory,@function
outOfMemory:                            # @outOfMemory
	.cfi_startproc
# %bb.0:                                # %entry
	pushq	%rbp
	.cfi_def_cfa_offset 16
	.cfi_offset %rbp, -16
	movq	%rsp, %rbp
	.cfi_def_cfa_register %rbp
	movq	stderr, %rdi
	movq	progName, %rdx
	movabsq	$.L.str.48, %rsi
	movb	$0, %al
	callq	fprintf
	callq	showFileNames
	movl	$1, %edi
	callq	cleanUpAndFail
.Lfunc_end19:
	.size	outOfMemory, .Lfunc_end19-outOfMemory
	.cfi_endproc
                                        # -- End function
	.p2align	4, 0x90         # -- Begin function panic
	.type	panic,@function
panic:                                  # @panic
	.cfi_startproc
# %bb.0:                                # %entry
	pushq	%rbp
	.cfi_def_cfa_offset 16
	.cfi_offset %rbp, -16
	movq	%rsp, %rbp
	.cfi_def_cfa_register %rbp
	subq	$16, %rsp
	movq	%rdi, -8(%rbp)
	movq	stderr, %rdi
	movq	progName, %rdx
	movq	-8(%rbp), %rcx
	movabsq	$.L.str.71, %rsi
	movb	$0, %al
	callq	fprintf
	callq	showFileNames
	movl	$3, %edi
	callq	cleanUpAndFail
.Lfunc_end20:
	.size	panic, .Lfunc_end20-panic
	.cfi_endproc
                                        # -- End function
	.p2align	4, 0x90         # -- Begin function containsDubiousChars
	.type	containsDubiousChars,@function
containsDubiousChars:                   # @containsDubiousChars
	.cfi_startproc
# %bb.0:                                # %entry
	pushq	%rbp
	.cfi_def_cfa_offset 16
	.cfi_offset %rbp, -16
	movq	%rsp, %rbp
	.cfi_def_cfa_register %rbp
	xorl	%eax, %eax
	movq	%rdi, -8(%rbp)
	movzbl	%al, %eax
	popq	%rbp
	.cfi_def_cfa %rsp, 8
	retq
.Lfunc_end21:
	.size	containsDubiousChars, .Lfunc_end21-containsDubiousChars
	.cfi_endproc
                                        # -- End function
	.p2align	4, 0x90         # -- Begin function fileExists
	.type	fileExists,@function
fileExists:                             # @fileExists
	.cfi_startproc
# %bb.0:                                # %rand_bb
	pushq	%rbp
	.cfi_def_cfa_offset 16
	.cfi_offset %rbp, -16
	movq	%rsp, %rbp
	.cfi_def_cfa_register %rbp
	pushq	%rbx
	pushq	%rax
	.cfi_offset %rbx, -24
	movq	%rdi, %rbx
	callq	get_rand
	cmpl	$0, %eax
	jne	.LBB22_5
# %bb.1:                                # %func_fileExists.41
	movq	%rbx, %rdi
	callq	fileExists.41
	movzbl	%al, %eax
	addq	$8, %rsp
	popq	%rbx
	popq	%rbp
	.cfi_def_cfa %rsp, 8
	retq
.LBB22_2:                               # %func_fileExists.73
	.cfi_def_cfa %rbp, 16
	movq	%rbx, %rdi
	callq	fileExists.73
	movzbl	%al, %eax
	addq	$8, %rsp
	popq	%rbx
	popq	%rbp
	.cfi_def_cfa %rsp, 8
	retq
.LBB22_3:                               # %func_fileExists.76
	.cfi_def_cfa %rbp, 16
	movq	%rbx, %rdi
	callq	fileExists.76
	movzbl	%al, %eax
	addq	$8, %rsp
	popq	%rbx
	popq	%rbp
	.cfi_def_cfa %rsp, 8
	retq
.LBB22_4:                               # %func_fileExists.80
	.cfi_def_cfa %rbp, 16
	movq	%rbx, %rdi
	callq	fileExists.80
	movzbl	%al, %eax
	addq	$8, %rsp
	popq	%rbx
	popq	%rbp
	.cfi_def_cfa %rsp, 8
	retq
.LBB22_5:                               # %ctrl0
	.cfi_def_cfa %rbp, 16
	cmpl	$1, %eax
	je	.LBB22_2
# %bb.6:                                # %ctrl1
	cmpl	$2, %eax
	je	.LBB22_3
	jmp	.LBB22_4
.Lfunc_end22:
	.size	fileExists, .Lfunc_end22-fileExists
	.cfi_endproc
                                        # -- End function
	.p2align	4, 0x90         # -- Begin function hasSuffix
	.type	hasSuffix,@function
hasSuffix:                              # @hasSuffix
	.cfi_startproc
# %bb.0:                                # %rand_bb
	pushq	%rbp
	.cfi_def_cfa_offset 16
	.cfi_offset %rbp, -16
	movq	%rsp, %rbp
	.cfi_def_cfa_register %rbp
	pushq	%r14
	pushq	%rbx
	.cfi_offset %rbx, -32
	.cfi_offset %r14, -24
	movq	%rsi, %r14
	movq	%rdi, %rbx
	callq	get_rand
	cmpl	$0, %eax
	jne	.LBB23_5
# %bb.1:                                # %func_hasSuffix.56
	movq	%rbx, %rdi
	movq	%r14, %rsi
	callq	hasSuffix.56
	movzbl	%al, %eax
	popq	%rbx
	popq	%r14
	popq	%rbp
	.cfi_def_cfa %rsp, 8
	retq
.LBB23_2:                               # %func_hasSuffix.65
	.cfi_def_cfa %rbp, 16
	movq	%rbx, %rdi
	movq	%r14, %rsi
	callq	hasSuffix.65
	movzbl	%al, %eax
	popq	%rbx
	popq	%r14
	popq	%rbp
	.cfi_def_cfa %rsp, 8
	retq
.LBB23_3:                               # %func_hasSuffix.71
	.cfi_def_cfa %rbp, 16
	movq	%rbx, %rdi
	movq	%r14, %rsi
	callq	hasSuffix.71
	movzbl	%al, %eax
	popq	%rbx
	popq	%r14
	popq	%rbp
	.cfi_def_cfa %rsp, 8
	retq
.LBB23_4:                               # %func_hasSuffix.74
	.cfi_def_cfa %rbp, 16
	movq	%rbx, %rdi
	movq	%r14, %rsi
	callq	hasSuffix.74
	movzbl	%al, %eax
	popq	%rbx
	popq	%r14
	popq	%rbp
	.cfi_def_cfa %rsp, 8
	retq
.LBB23_5:                               # %ctrl0
	.cfi_def_cfa %rbp, 16
	cmpl	$1, %eax
	je	.LBB23_2
# %bb.6:                                # %ctrl1
	cmpl	$2, %eax
	je	.LBB23_3
	jmp	.LBB23_4
.Lfunc_end23:
	.size	hasSuffix, .Lfunc_end23-hasSuffix
	.cfi_endproc
                                        # -- End function
	.p2align	4, 0x90         # -- Begin function notAStandardFile
	.type	notAStandardFile,@function
notAStandardFile:                       # @notAStandardFile
	.cfi_startproc
# %bb.0:                                # %rand_bb
	pushq	%rbp
	.cfi_def_cfa_offset 16
	.cfi_offset %rbp, -16
	movq	%rsp, %rbp
	.cfi_def_cfa_register %rbp
	pushq	%rbx
	pushq	%rax
	.cfi_offset %rbx, -24
	movq	%rdi, %rbx
	callq	get_rand
	cmpl	$0, %eax
	jne	.LBB24_5
# %bb.1:                                # %func_notAStandardFile.13
	movq	%rbx, %rdi
	callq	notAStandardFile.13
	movzbl	%al, %eax
	addq	$8, %rsp
	popq	%rbx
	popq	%rbp
	.cfi_def_cfa %rsp, 8
	retq
.LBB24_2:                               # %func_notAStandardFile.52
	.cfi_def_cfa %rbp, 16
	movq	%rbx, %rdi
	callq	notAStandardFile.52
	movzbl	%al, %eax
	addq	$8, %rsp
	popq	%rbx
	popq	%rbp
	.cfi_def_cfa %rsp, 8
	retq
.LBB24_3:                               # %func_notAStandardFile.53
	.cfi_def_cfa %rbp, 16
	movq	%rbx, %rdi
	callq	notAStandardFile.53
	movzbl	%al, %eax
	addq	$8, %rsp
	popq	%rbx
	popq	%rbp
	.cfi_def_cfa %rsp, 8
	retq
.LBB24_4:                               # %func_notAStandardFile.57
	.cfi_def_cfa %rbp, 16
	movq	%rbx, %rdi
	callq	notAStandardFile.57
	movzbl	%al, %eax
	addq	$8, %rsp
	popq	%rbx
	popq	%rbp
	.cfi_def_cfa %rsp, 8
	retq
.LBB24_5:                               # %ctrl0
	.cfi_def_cfa %rbp, 16
	cmpl	$1, %eax
	je	.LBB24_2
# %bb.6:                                # %ctrl1
	cmpl	$2, %eax
	je	.LBB24_3
	jmp	.LBB24_4
.Lfunc_end24:
	.size	notAStandardFile, .Lfunc_end24-notAStandardFile
	.cfi_endproc
                                        # -- End function
	.p2align	4, 0x90         # -- Begin function countHardLinks
	.type	countHardLinks,@function
countHardLinks:                         # @countHardLinks
	.cfi_startproc
# %bb.0:                                # %rand_bb
	pushq	%rbp
	.cfi_def_cfa_offset 16
	.cfi_offset %rbp, -16
	movq	%rsp, %rbp
	.cfi_def_cfa_register %rbp
	pushq	%rbx
	pushq	%rax
	.cfi_offset %rbx, -24
	movq	%rdi, %rbx
	callq	get_rand
	cmpl	$0, %eax
	jne	.LBB25_5
# %bb.1:                                # %func_countHardLinks.32
	movq	%rbx, %rdi
	callq	countHardLinks.32
	addq	$8, %rsp
	popq	%rbx
	popq	%rbp
	.cfi_def_cfa %rsp, 8
	retq
.LBB25_2:                               # %func_countHardLinks.59
	.cfi_def_cfa %rbp, 16
	movq	%rbx, %rdi
	callq	countHardLinks.59
	addq	$8, %rsp
	popq	%rbx
	popq	%rbp
	.cfi_def_cfa %rsp, 8
	retq
.LBB25_3:                               # %func_countHardLinks.70
	.cfi_def_cfa %rbp, 16
	movq	%rbx, %rdi
	callq	countHardLinks.70
	addq	$8, %rsp
	popq	%rbx
	popq	%rbp
	.cfi_def_cfa %rsp, 8
	retq
.LBB25_4:                               # %func_countHardLinks.84
	.cfi_def_cfa %rbp, 16
	movq	%rbx, %rdi
	callq	countHardLinks.84
	addq	$8, %rsp
	popq	%rbx
	popq	%rbp
	.cfi_def_cfa %rsp, 8
	retq
.LBB25_5:                               # %ctrl0
	.cfi_def_cfa %rbp, 16
	cmpl	$1, %eax
	je	.LBB25_2
# %bb.6:                                # %ctrl1
	cmpl	$2, %eax
	je	.LBB25_3
	jmp	.LBB25_4
.Lfunc_end25:
	.size	countHardLinks, .Lfunc_end25-countHardLinks
	.cfi_endproc
                                        # -- End function
	.p2align	4, 0x90         # -- Begin function saveInputFileMetaInfo
	.type	saveInputFileMetaInfo,@function
saveInputFileMetaInfo:                  # @saveInputFileMetaInfo
	.cfi_startproc
# %bb.0:                                # %rand_bb
	pushq	%rbp
	.cfi_def_cfa_offset 16
	.cfi_offset %rbp, -16
	movq	%rsp, %rbp
	.cfi_def_cfa_register %rbp
	pushq	%rbx
	pushq	%rax
	.cfi_offset %rbx, -24
	movq	%rdi, %rbx
	callq	get_rand
	cmpl	$0, %eax
	jne	.LBB26_2
# %bb.1:                                # %func_saveInputFileMetaInfo.1
	movq	%rbx, %rdi
	callq	saveInputFileMetaInfo.1
	addq	$8, %rsp
	popq	%rbx
	popq	%rbp
	.cfi_def_cfa %rsp, 8
	retq
.LBB26_2:                               # %func_saveInputFileMetaInfo.27
	.cfi_def_cfa %rbp, 16
	movq	%rbx, %rdi
	callq	saveInputFileMetaInfo.27
	addq	$8, %rsp
	popq	%rbx
	popq	%rbp
	.cfi_def_cfa %rsp, 8
	retq
.Lfunc_end26:
	.size	saveInputFileMetaInfo, .Lfunc_end26-saveInputFileMetaInfo
	.cfi_endproc
                                        # -- End function
	.p2align	4, 0x90         # -- Begin function pad
	.type	pad,@function
pad:                                    # @pad
	.cfi_startproc
# %bb.0:                                # %rand_bb
	pushq	%rbp
	.cfi_def_cfa_offset 16
	.cfi_offset %rbp, -16
	movq	%rsp, %rbp
	.cfi_def_cfa_register %rbp
	pushq	%rbx
	pushq	%rax
	.cfi_offset %rbx, -24
	movq	%rdi, %rbx
	callq	get_rand
	cmpl	$0, %eax
	jne	.LBB27_2
# %bb.1:                                # %func_pad.33
	movq	%rbx, %rdi
	callq	pad.33
	addq	$8, %rsp
	popq	%rbx
	popq	%rbp
	.cfi_def_cfa %rsp, 8
	retq
.LBB27_2:                               # %func_pad.42
	.cfi_def_cfa %rbp, 16
	movq	%rbx, %rdi
	callq	pad.42
	addq	$8, %rsp
	popq	%rbx
	popq	%rbp
	.cfi_def_cfa %rsp, 8
	retq
.Lfunc_end27:
	.size	pad, .Lfunc_end27-pad
	.cfi_endproc
                                        # -- End function
	.p2align	4, 0x90         # -- Begin function compressStream
	.type	compressStream,@function
compressStream:                         # @compressStream
	.cfi_startproc
# %bb.0:                                # %rand_bb
	pushq	%rbp
	.cfi_def_cfa_offset 16
	.cfi_offset %rbp, -16
	movq	%rsp, %rbp
	.cfi_def_cfa_register %rbp
	pushq	%r14
	pushq	%rbx
	.cfi_offset %rbx, -32
	.cfi_offset %r14, -24
	movq	%rsi, %r14
	movq	%rdi, %rbx
	callq	get_rand
	cmpl	$0, %eax
	jne	.LBB28_5
# %bb.1:                                # %func_compressStream.3
	movq	%rbx, %rdi
	movq	%r14, %rsi
	callq	compressStream.3
	popq	%rbx
	popq	%r14
	popq	%rbp
	.cfi_def_cfa %rsp, 8
	retq
.LBB28_2:                               # %func_compressStream.24
	.cfi_def_cfa %rbp, 16
	movq	%rbx, %rdi
	movq	%r14, %rsi
	callq	compressStream.24
	popq	%rbx
	popq	%r14
	popq	%rbp
	.cfi_def_cfa %rsp, 8
	retq
.LBB28_3:                               # %func_compressStream.43
	.cfi_def_cfa %rbp, 16
	movq	%rbx, %rdi
	movq	%r14, %rsi
	callq	compressStream.43
	popq	%rbx
	popq	%r14
	popq	%rbp
	.cfi_def_cfa %rsp, 8
	retq
.LBB28_4:                               # %func_compressStream.75
	.cfi_def_cfa %rbp, 16
	movq	%rbx, %rdi
	movq	%r14, %rsi
	callq	compressStream.75
	popq	%rbx
	popq	%r14
	popq	%rbp
	.cfi_def_cfa %rsp, 8
	retq
.LBB28_5:                               # %ctrl0
	.cfi_def_cfa %rbp, 16
	cmpl	$1, %eax
	je	.LBB28_2
# %bb.6:                                # %ctrl1
	cmpl	$2, %eax
	je	.LBB28_3
	jmp	.LBB28_4
.Lfunc_end28:
	.size	compressStream, .Lfunc_end28-compressStream
	.cfi_endproc
                                        # -- End function
	.p2align	4, 0x90         # -- Begin function applySavedMetaInfoToOutputFile
	.type	applySavedMetaInfoToOutputFile,@function
applySavedMetaInfoToOutputFile:         # @applySavedMetaInfoToOutputFile
	.cfi_startproc
# %bb.0:                                # %rand_bb
	pushq	%rbp
	.cfi_def_cfa_offset 16
	.cfi_offset %rbp, -16
	movq	%rsp, %rbp
	.cfi_def_cfa_register %rbp
	pushq	%rbx
	pushq	%rax
	.cfi_offset %rbx, -24
	movq	%rdi, %rbx
	callq	get_rand
	cmpl	$0, %eax
	jne	.LBB29_5
# %bb.1:                                # %func_applySavedMetaInfoToOutputFile.78
	movq	%rbx, %rdi
	callq	applySavedMetaInfoToOutputFile.78
	addq	$8, %rsp
	popq	%rbx
	popq	%rbp
	.cfi_def_cfa %rsp, 8
	retq
.LBB29_2:                               # %func_applySavedMetaInfoToOutputFile.87
	.cfi_def_cfa %rbp, 16
	movq	%rbx, %rdi
	callq	applySavedMetaInfoToOutputFile.87
	addq	$8, %rsp
	popq	%rbx
	popq	%rbp
	.cfi_def_cfa %rsp, 8
	retq
.LBB29_3:                               # %func_applySavedMetaInfoToOutputFile.92
	.cfi_def_cfa %rbp, 16
	movq	%rbx, %rdi
	callq	applySavedMetaInfoToOutputFile.92
	addq	$8, %rsp
	popq	%rbx
	popq	%rbp
	.cfi_def_cfa %rsp, 8
	retq
.LBB29_4:                               # %func_applySavedMetaInfoToOutputFile.93
	.cfi_def_cfa %rbp, 16
	movq	%rbx, %rdi
	callq	applySavedMetaInfoToOutputFile.93
	addq	$8, %rsp
	popq	%rbx
	popq	%rbp
	.cfi_def_cfa %rsp, 8
	retq
.LBB29_5:                               # %ctrl0
	.cfi_def_cfa %rbp, 16
	cmpl	$1, %eax
	je	.LBB29_2
# %bb.6:                                # %ctrl1
	cmpl	$2, %eax
	je	.LBB29_3
	jmp	.LBB29_4
.Lfunc_end29:
	.size	applySavedMetaInfoToOutputFile, .Lfunc_end29-applySavedMetaInfoToOutputFile
	.cfi_endproc
                                        # -- End function
	.p2align	4, 0x90         # -- Begin function ioError
	.type	ioError,@function
ioError:                                # @ioError
	.cfi_startproc
# %bb.0:                                # %entry
	pushq	%rbp
	.cfi_def_cfa_offset 16
	.cfi_offset %rbp, -16
	movq	%rsp, %rbp
	.cfi_def_cfa_register %rbp
	movq	stderr, %rdi
	movq	progName, %rdx
	movabsq	$.L.str.78, %rsi
	movb	$0, %al
	callq	fprintf
	movq	progName, %rdi
	callq	perror
	callq	showFileNames
	movl	$1, %edi
	callq	cleanUpAndFail
.Lfunc_end30:
	.size	ioError, .Lfunc_end30-ioError
	.cfi_endproc
                                        # -- End function
	.p2align	4, 0x90         # -- Begin function myfeof
	.type	myfeof,@function
myfeof:                                 # @myfeof
	.cfi_startproc
# %bb.0:                                # %rand_bb
	pushq	%rbp
	.cfi_def_cfa_offset 16
	.cfi_offset %rbp, -16
	movq	%rsp, %rbp
	.cfi_def_cfa_register %rbp
	pushq	%rbx
	pushq	%rax
	.cfi_offset %rbx, -24
	movq	%rdi, %rbx
	callq	get_rand
	cmpl	$0, %eax
	jne	.LBB31_5
# %bb.1:                                # %func_myfeof.18
	movq	%rbx, %rdi
	callq	myfeof.18
	movzbl	%al, %eax
	addq	$8, %rsp
	popq	%rbx
	popq	%rbp
	.cfi_def_cfa %rsp, 8
	retq
.LBB31_2:                               # %func_myfeof.26
	.cfi_def_cfa %rbp, 16
	movq	%rbx, %rdi
	callq	myfeof.26
	movzbl	%al, %eax
	addq	$8, %rsp
	popq	%rbx
	popq	%rbp
	.cfi_def_cfa %rsp, 8
	retq
.LBB31_3:                               # %func_myfeof.35
	.cfi_def_cfa %rbp, 16
	movq	%rbx, %rdi
	callq	myfeof.35
	movzbl	%al, %eax
	addq	$8, %rsp
	popq	%rbx
	popq	%rbp
	.cfi_def_cfa %rsp, 8
	retq
.LBB31_4:                               # %func_myfeof.64
	.cfi_def_cfa %rbp, 16
	movq	%rbx, %rdi
	callq	myfeof.64
	movzbl	%al, %eax
	addq	$8, %rsp
	popq	%rbx
	popq	%rbp
	.cfi_def_cfa %rsp, 8
	retq
.LBB31_5:                               # %ctrl0
	.cfi_def_cfa %rbp, 16
	cmpl	$1, %eax
	je	.LBB31_2
# %bb.6:                                # %ctrl1
	cmpl	$2, %eax
	je	.LBB31_3
	jmp	.LBB31_4
.Lfunc_end31:
	.size	myfeof, .Lfunc_end31-myfeof
	.cfi_endproc
                                        # -- End function
	.p2align	4, 0x90         # -- Begin function uInt64_from_UInt32s
	.type	uInt64_from_UInt32s,@function
uInt64_from_UInt32s:                    # @uInt64_from_UInt32s
	.cfi_startproc
# %bb.0:                                # %rand_bb
	pushq	%rbp
	.cfi_def_cfa_offset 16
	.cfi_offset %rbp, -16
	movq	%rsp, %rbp
	.cfi_def_cfa_register %rbp
	pushq	%r15
	pushq	%r14
	pushq	%rbx
	pushq	%rax
	.cfi_offset %rbx, -40
	.cfi_offset %r14, -32
	.cfi_offset %r15, -24
	movl	%edx, %r14d
	movl	%esi, %r15d
	movq	%rdi, %rbx
	callq	get_rand
	cmpl	$0, %eax
	jne	.LBB32_5
# %bb.1:                                # %func_uInt64_from_UInt32s.44
	movq	%rbx, %rdi
	movl	%r15d, %esi
	movl	%r14d, %edx
	callq	uInt64_from_UInt32s.44
	addq	$8, %rsp
	popq	%rbx
	popq	%r14
	popq	%r15
	popq	%rbp
	.cfi_def_cfa %rsp, 8
	retq
.LBB32_2:                               # %func_uInt64_from_UInt32s.50
	.cfi_def_cfa %rbp, 16
	movq	%rbx, %rdi
	movl	%r15d, %esi
	movl	%r14d, %edx
	callq	uInt64_from_UInt32s.50
	addq	$8, %rsp
	popq	%rbx
	popq	%r14
	popq	%r15
	popq	%rbp
	.cfi_def_cfa %rsp, 8
	retq
.LBB32_3:                               # %func_uInt64_from_UInt32s.85
	.cfi_def_cfa %rbp, 16
	movq	%rbx, %rdi
	movl	%r15d, %esi
	movl	%r14d, %edx
	callq	uInt64_from_UInt32s.85
	addq	$8, %rsp
	popq	%rbx
	popq	%r14
	popq	%r15
	popq	%rbp
	.cfi_def_cfa %rsp, 8
	retq
.LBB32_4:                               # %func_uInt64_from_UInt32s.96
	.cfi_def_cfa %rbp, 16
	movq	%rbx, %rdi
	movl	%r15d, %esi
	movl	%r14d, %edx
	callq	uInt64_from_UInt32s.96
	addq	$8, %rsp
	popq	%rbx
	popq	%r14
	popq	%r15
	popq	%rbp
	.cfi_def_cfa %rsp, 8
	retq
.LBB32_5:                               # %ctrl0
	.cfi_def_cfa %rbp, 16
	cmpl	$1, %eax
	je	.LBB32_2
# %bb.6:                                # %ctrl1
	cmpl	$2, %eax
	je	.LBB32_3
	jmp	.LBB32_4
.Lfunc_end32:
	.size	uInt64_from_UInt32s, .Lfunc_end32-uInt64_from_UInt32s
	.cfi_endproc
                                        # -- End function
	.p2align	4, 0x90         # -- Begin function uInt64_to_double
	.type	uInt64_to_double,@function
uInt64_to_double:                       # @uInt64_to_double
	.cfi_startproc
# %bb.0:                                # %rand_bb
	pushq	%rbp
	.cfi_def_cfa_offset 16
	.cfi_offset %rbp, -16
	movq	%rsp, %rbp
	.cfi_def_cfa_register %rbp
	pushq	%rbx
	pushq	%rax
	.cfi_offset %rbx, -24
	movq	%rdi, %rbx
	callq	get_rand
	cmpl	$0, %eax
	jne	.LBB33_5
# %bb.1:                                # %func_uInt64_to_double.14
	movq	%rbx, %rdi
	callq	uInt64_to_double.14
	addq	$8, %rsp
	popq	%rbx
	popq	%rbp
	.cfi_def_cfa %rsp, 8
	retq
.LBB33_2:                               # %func_uInt64_to_double.37
	.cfi_def_cfa %rbp, 16
	movq	%rbx, %rdi
	callq	uInt64_to_double.37
	addq	$8, %rsp
	popq	%rbx
	popq	%rbp
	.cfi_def_cfa %rsp, 8
	retq
.LBB33_3:                               # %func_uInt64_to_double.48
	.cfi_def_cfa %rbp, 16
	movq	%rbx, %rdi
	callq	uInt64_to_double.48
	addq	$8, %rsp
	popq	%rbx
	popq	%rbp
	.cfi_def_cfa %rsp, 8
	retq
.LBB33_4:                               # %func_uInt64_to_double.58
	.cfi_def_cfa %rbp, 16
	movq	%rbx, %rdi
	callq	uInt64_to_double.58
	addq	$8, %rsp
	popq	%rbx
	popq	%rbp
	.cfi_def_cfa %rsp, 8
	retq
.LBB33_5:                               # %ctrl0
	.cfi_def_cfa %rbp, 16
	cmpl	$1, %eax
	je	.LBB33_2
# %bb.6:                                # %ctrl1
	cmpl	$2, %eax
	je	.LBB33_3
	jmp	.LBB33_4
.Lfunc_end33:
	.size	uInt64_to_double, .Lfunc_end33-uInt64_to_double
	.cfi_endproc
                                        # -- End function
	.p2align	4, 0x90         # -- Begin function uInt64_toAscii
	.type	uInt64_toAscii,@function
uInt64_toAscii:                         # @uInt64_toAscii
	.cfi_startproc
# %bb.0:                                # %rand_bb
	pushq	%rbp
	.cfi_def_cfa_offset 16
	.cfi_offset %rbp, -16
	movq	%rsp, %rbp
	.cfi_def_cfa_register %rbp
	pushq	%r14
	pushq	%rbx
	.cfi_offset %rbx, -32
	.cfi_offset %r14, -24
	movq	%rsi, %r14
	movq	%rdi, %rbx
	callq	get_rand
	cmpl	$0, %eax
	jne	.LBB34_5
# %bb.1:                                # %func_uInt64_toAscii.2
	movq	%rbx, %rdi
	movq	%r14, %rsi
	callq	uInt64_toAscii.2
	popq	%rbx
	popq	%r14
	popq	%rbp
	.cfi_def_cfa %rsp, 8
	retq
.LBB34_2:                               # %func_uInt64_toAscii.8
	.cfi_def_cfa %rbp, 16
	movq	%rbx, %rdi
	movq	%r14, %rsi
	callq	uInt64_toAscii.8
	popq	%rbx
	popq	%r14
	popq	%rbp
	.cfi_def_cfa %rsp, 8
	retq
.LBB34_3:                               # %func_uInt64_toAscii.82
	.cfi_def_cfa %rbp, 16
	movq	%rbx, %rdi
	movq	%r14, %rsi
	callq	uInt64_toAscii.82
	popq	%rbx
	popq	%r14
	popq	%rbp
	.cfi_def_cfa %rsp, 8
	retq
.LBB34_4:                               # %func_uInt64_toAscii.94
	.cfi_def_cfa %rbp, 16
	movq	%rbx, %rdi
	movq	%r14, %rsi
	callq	uInt64_toAscii.94
	popq	%rbx
	popq	%r14
	popq	%rbp
	.cfi_def_cfa %rsp, 8
	retq
.LBB34_5:                               # %ctrl0
	.cfi_def_cfa %rbp, 16
	cmpl	$1, %eax
	je	.LBB34_2
# %bb.6:                                # %ctrl1
	cmpl	$2, %eax
	je	.LBB34_3
	jmp	.LBB34_4
.Lfunc_end34:
	.size	uInt64_toAscii, .Lfunc_end34-uInt64_toAscii
	.cfi_endproc
                                        # -- End function
	.p2align	4, 0x90         # -- Begin function configError
	.type	configError,@function
configError:                            # @configError
	.cfi_startproc
# %bb.0:                                # %entry
	pushq	%rbp
	.cfi_def_cfa_offset 16
	.cfi_offset %rbp, -16
	movq	%rsp, %rbp
	.cfi_def_cfa_register %rbp
	movq	stderr, %rdi
	movabsq	$.L.str.77, %rsi
	movb	$0, %al
	callq	fprintf
	movl	$3, %edi
	callq	setExit
	movl	exitValue, %edi
	callq	exit
.Lfunc_end35:
	.size	configError, .Lfunc_end35-configError
	.cfi_endproc
                                        # -- End function
	.p2align	4, 0x90         # -- Begin function uInt64_qrm10
	.type	uInt64_qrm10,@function
uInt64_qrm10:                           # @uInt64_qrm10
	.cfi_startproc
# %bb.0:                                # %rand_bb
	pushq	%rbp
	.cfi_def_cfa_offset 16
	.cfi_offset %rbp, -16
	movq	%rsp, %rbp
	.cfi_def_cfa_register %rbp
	pushq	%rbx
	pushq	%rax
	.cfi_offset %rbx, -24
	movq	%rdi, %rbx
	callq	get_rand
	cmpl	$0, %eax
	jne	.LBB36_5
# %bb.1:                                # %func_uInt64_qrm10.17
	movq	%rbx, %rdi
	callq	uInt64_qrm10.17
	addq	$8, %rsp
	popq	%rbx
	popq	%rbp
	.cfi_def_cfa %rsp, 8
	retq
.LBB36_2:                               # %func_uInt64_qrm10.20
	.cfi_def_cfa %rbp, 16
	movq	%rbx, %rdi
	callq	uInt64_qrm10.20
	addq	$8, %rsp
	popq	%rbx
	popq	%rbp
	.cfi_def_cfa %rsp, 8
	retq
.LBB36_3:                               # %func_uInt64_qrm10.28
	.cfi_def_cfa %rbp, 16
	movq	%rbx, %rdi
	callq	uInt64_qrm10.28
	addq	$8, %rsp
	popq	%rbx
	popq	%rbp
	.cfi_def_cfa %rsp, 8
	retq
.LBB36_4:                               # %func_uInt64_qrm10.30
	.cfi_def_cfa %rbp, 16
	movq	%rbx, %rdi
	callq	uInt64_qrm10.30
	addq	$8, %rsp
	popq	%rbx
	popq	%rbp
	.cfi_def_cfa %rsp, 8
	retq
.LBB36_5:                               # %ctrl0
	.cfi_def_cfa %rbp, 16
	cmpl	$1, %eax
	je	.LBB36_2
# %bb.6:                                # %ctrl1
	cmpl	$2, %eax
	je	.LBB36_3
	jmp	.LBB36_4
.Lfunc_end36:
	.size	uInt64_qrm10, .Lfunc_end36-uInt64_qrm10
	.cfi_endproc
                                        # -- End function
	.p2align	4, 0x90         # -- Begin function uInt64_isZero
	.type	uInt64_isZero,@function
uInt64_isZero:                          # @uInt64_isZero
	.cfi_startproc
# %bb.0:                                # %rand_bb
	pushq	%rbp
	.cfi_def_cfa_offset 16
	.cfi_offset %rbp, -16
	movq	%rsp, %rbp
	.cfi_def_cfa_register %rbp
	pushq	%rbx
	pushq	%rax
	.cfi_offset %rbx, -24
	movq	%rdi, %rbx
	callq	get_rand
	cmpl	$0, %eax
	jne	.LBB37_5
# %bb.1:                                # %func_uInt64_isZero.23
	movq	%rbx, %rdi
	callq	uInt64_isZero.23
	movzbl	%al, %eax
	addq	$8, %rsp
	popq	%rbx
	popq	%rbp
	.cfi_def_cfa %rsp, 8
	retq
.LBB37_2:                               # %func_uInt64_isZero.31
	.cfi_def_cfa %rbp, 16
	movq	%rbx, %rdi
	callq	uInt64_isZero.31
	movzbl	%al, %eax
	addq	$8, %rsp
	popq	%rbx
	popq	%rbp
	.cfi_def_cfa %rsp, 8
	retq
.LBB37_3:                               # %func_uInt64_isZero.51
	.cfi_def_cfa %rbp, 16
	movq	%rbx, %rdi
	callq	uInt64_isZero.51
	movzbl	%al, %eax
	addq	$8, %rsp
	popq	%rbx
	popq	%rbp
	.cfi_def_cfa %rsp, 8
	retq
.LBB37_4:                               # %func_uInt64_isZero.62
	.cfi_def_cfa %rbp, 16
	movq	%rbx, %rdi
	callq	uInt64_isZero.62
	movzbl	%al, %eax
	addq	$8, %rsp
	popq	%rbx
	popq	%rbp
	.cfi_def_cfa %rsp, 8
	retq
.LBB37_5:                               # %ctrl0
	.cfi_def_cfa %rbp, 16
	cmpl	$1, %eax
	je	.LBB37_2
# %bb.6:                                # %ctrl1
	cmpl	$2, %eax
	je	.LBB37_3
	jmp	.LBB37_4
.Lfunc_end37:
	.size	uInt64_isZero, .Lfunc_end37-uInt64_isZero
	.cfi_endproc
                                        # -- End function
	.p2align	4, 0x90         # -- Begin function mapSuffix
	.type	mapSuffix,@function
mapSuffix:                              # @mapSuffix
	.cfi_startproc
# %bb.0:                                # %rand_bb
	pushq	%rbp
	.cfi_def_cfa_offset 16
	.cfi_offset %rbp, -16
	movq	%rsp, %rbp
	.cfi_def_cfa_register %rbp
	pushq	%r15
	pushq	%r14
	pushq	%rbx
	pushq	%rax
	.cfi_offset %rbx, -40
	.cfi_offset %r14, -32
	.cfi_offset %r15, -24
	movq	%rdx, %r14
	movq	%rsi, %r15
	movq	%rdi, %rbx
	callq	get_rand
	cmpl	$0, %eax
	jne	.LBB38_5
# %bb.1:                                # %func_mapSuffix.66
	movq	%rbx, %rdi
	movq	%r15, %rsi
	movq	%r14, %rdx
	callq	mapSuffix.66
	movzbl	%al, %eax
	addq	$8, %rsp
	popq	%rbx
	popq	%r14
	popq	%r15
	popq	%rbp
	.cfi_def_cfa %rsp, 8
	retq
.LBB38_2:                               # %func_mapSuffix.67
	.cfi_def_cfa %rbp, 16
	movq	%rbx, %rdi
	movq	%r15, %rsi
	movq	%r14, %rdx
	callq	mapSuffix.67
	movzbl	%al, %eax
	addq	$8, %rsp
	popq	%rbx
	popq	%r14
	popq	%r15
	popq	%rbp
	.cfi_def_cfa %rsp, 8
	retq
.LBB38_3:                               # %func_mapSuffix.81
	.cfi_def_cfa %rbp, 16
	movq	%rbx, %rdi
	movq	%r15, %rsi
	movq	%r14, %rdx
	callq	mapSuffix.81
	movzbl	%al, %eax
	addq	$8, %rsp
	popq	%rbx
	popq	%r14
	popq	%r15
	popq	%rbp
	.cfi_def_cfa %rsp, 8
	retq
.LBB38_4:                               # %func_mapSuffix.83
	.cfi_def_cfa %rbp, 16
	movq	%rbx, %rdi
	movq	%r15, %rsi
	movq	%r14, %rdx
	callq	mapSuffix.83
	movzbl	%al, %eax
	addq	$8, %rsp
	popq	%rbx
	popq	%r14
	popq	%r15
	popq	%rbp
	.cfi_def_cfa %rsp, 8
	retq
.LBB38_5:                               # %ctrl0
	.cfi_def_cfa %rbp, 16
	cmpl	$1, %eax
	je	.LBB38_2
# %bb.6:                                # %ctrl1
	cmpl	$2, %eax
	je	.LBB38_3
	jmp	.LBB38_4
.Lfunc_end38:
	.size	mapSuffix, .Lfunc_end38-mapSuffix
	.cfi_endproc
                                        # -- End function
	.p2align	4, 0x90         # -- Begin function uncompressStream
	.type	uncompressStream,@function
uncompressStream:                       # @uncompressStream
	.cfi_startproc
# %bb.0:                                # %rand_bb
	pushq	%rbp
	.cfi_def_cfa_offset 16
	.cfi_offset %rbp, -16
	movq	%rsp, %rbp
	.cfi_def_cfa_register %rbp
	pushq	%r14
	pushq	%rbx
	.cfi_offset %rbx, -32
	.cfi_offset %r14, -24
	movq	%rsi, %r14
	movq	%rdi, %rbx
	callq	get_rand
	cmpl	$0, %eax
	jne	.LBB39_5
# %bb.1:                                # %func_uncompressStream.25
	movq	%rbx, %rdi
	movq	%r14, %rsi
	callq	uncompressStream.25
	movzbl	%al, %eax
	popq	%rbx
	popq	%r14
	popq	%rbp
	.cfi_def_cfa %rsp, 8
	retq
.LBB39_2:                               # %func_uncompressStream.36
	.cfi_def_cfa %rbp, 16
	movq	%rbx, %rdi
	movq	%r14, %rsi
	callq	uncompressStream.36
	movzbl	%al, %eax
	popq	%rbx
	popq	%r14
	popq	%rbp
	.cfi_def_cfa %rsp, 8
	retq
.LBB39_3:                               # %func_uncompressStream.45
	.cfi_def_cfa %rbp, 16
	movq	%rbx, %rdi
	movq	%r14, %rsi
	callq	uncompressStream.45
	movzbl	%al, %eax
	popq	%rbx
	popq	%r14
	popq	%rbp
	.cfi_def_cfa %rsp, 8
	retq
.LBB39_4:                               # %func_uncompressStream.47
	.cfi_def_cfa %rbp, 16
	movq	%rbx, %rdi
	movq	%r14, %rsi
	callq	uncompressStream.47
	movzbl	%al, %eax
	popq	%rbx
	popq	%r14
	popq	%rbp
	.cfi_def_cfa %rsp, 8
	retq
.LBB39_5:                               # %ctrl0
	.cfi_def_cfa %rbp, 16
	cmpl	$1, %eax
	je	.LBB39_2
# %bb.6:                                # %ctrl1
	cmpl	$2, %eax
	je	.LBB39_3
	jmp	.LBB39_4
.Lfunc_end39:
	.size	uncompressStream, .Lfunc_end39-uncompressStream
	.cfi_endproc
                                        # -- End function
	.p2align	4, 0x90         # -- Begin function crcError
	.type	crcError,@function
crcError:                               # @crcError
	.cfi_startproc
# %bb.0:                                # %entry
	pushq	%rbp
	.cfi_def_cfa_offset 16
	.cfi_offset %rbp, -16
	movq	%rsp, %rbp
	.cfi_def_cfa_register %rbp
	movq	stderr, %rdi
	movq	progName, %rdx
	movabsq	$.L.str.92, %rsi
	movb	$0, %al
	callq	fprintf
	callq	showFileNames
	callq	cadvise
	movl	$2, %edi
	callq	cleanUpAndFail
.Lfunc_end40:
	.size	crcError, .Lfunc_end40-crcError
	.cfi_endproc
                                        # -- End function
	.p2align	4, 0x90         # -- Begin function compressedStreamEOF
	.type	compressedStreamEOF,@function
compressedStreamEOF:                    # @compressedStreamEOF
	.cfi_startproc
# %bb.0:                                # %entry
	pushq	%rbp
	.cfi_def_cfa_offset 16
	.cfi_offset %rbp, -16
	movq	%rsp, %rbp
	.cfi_def_cfa_register %rbp
	cmpb	$0, noisy
	je	.LBB41_2
# %bb.1:                                # %if.then
	movq	stderr, %rdi
	movq	progName, %rdx
	movabsq	$.L.str.93, %rsi
	movb	$0, %al
	callq	fprintf
	movq	progName, %rdi
	callq	perror
	callq	showFileNames
	callq	cadvise
.LBB41_2:                               # %if.end
	movl	$2, %edi
	callq	cleanUpAndFail
.Lfunc_end41:
	.size	compressedStreamEOF, .Lfunc_end41-compressedStreamEOF
	.cfi_endproc
                                        # -- End function
	.p2align	4, 0x90         # -- Begin function testStream
	.type	testStream,@function
testStream:                             # @testStream
	.cfi_startproc
# %bb.0:                                # %rand_bb
	pushq	%rbp
	.cfi_def_cfa_offset 16
	.cfi_offset %rbp, -16
	movq	%rsp, %rbp
	.cfi_def_cfa_register %rbp
	pushq	%rbx
	pushq	%rax
	.cfi_offset %rbx, -24
	movq	%rdi, %rbx
	callq	get_rand
	cmpl	$0, %eax
	jne	.LBB42_5
# %bb.1:                                # %func_testStream.34
	movq	%rbx, %rdi
	callq	testStream.34
	movzbl	%al, %eax
	addq	$8, %rsp
	popq	%rbx
	popq	%rbp
	.cfi_def_cfa %rsp, 8
	retq
.LBB42_2:                               # %func_testStream.54
	.cfi_def_cfa %rbp, 16
	movq	%rbx, %rdi
	callq	testStream.54
	movzbl	%al, %eax
	addq	$8, %rsp
	popq	%rbx
	popq	%rbp
	.cfi_def_cfa %rsp, 8
	retq
.LBB42_3:                               # %func_testStream.60
	.cfi_def_cfa %rbp, 16
	movq	%rbx, %rdi
	callq	testStream.60
	movzbl	%al, %eax
	addq	$8, %rsp
	popq	%rbx
	popq	%rbp
	.cfi_def_cfa %rsp, 8
	retq
.LBB42_4:                               # %func_testStream.63
	.cfi_def_cfa %rbp, 16
	movq	%rbx, %rdi
	callq	testStream.63
	movzbl	%al, %eax
	addq	$8, %rsp
	popq	%rbx
	popq	%rbp
	.cfi_def_cfa %rsp, 8
	retq
.LBB42_5:                               # %ctrl0
	.cfi_def_cfa %rbp, 16
	cmpl	$1, %eax
	je	.LBB42_2
# %bb.6:                                # %ctrl1
	cmpl	$2, %eax
	je	.LBB42_3
	jmp	.LBB42_4
.Lfunc_end42:
	.size	testStream, .Lfunc_end42-testStream
	.cfi_endproc
                                        # -- End function
	.p2align	4, 0x90         # -- Begin function saveInputFileMetaInfo.1
	.type	saveInputFileMetaInfo.1,@function
saveInputFileMetaInfo.1:                # @saveInputFileMetaInfo.1
	.cfi_startproc
# %bb.0:                                # %entry
	pushq	%rbp
	.cfi_def_cfa_offset 16
	.cfi_offset %rbp, -16
	movq	%rsp, %rbp
	.cfi_def_cfa_register %rbp
	subq	$16, %rsp
	movl	$1818793432, -8(%rbp)   # imm = 0x6C6895D8
	movq	%rdi, -16(%rbp)
	movq	-16(%rbp), %rdi
	movabsq	$fileMetaInfo, %rsi
	callq	stat
	movl	%eax, -4(%rbp)
	cmpl	$0, -4(%rbp)
	je	.LBB43_2
# %bb.1:                                # %if.then
	callq	ioError
.LBB43_2:                               # %if.end
	cmpl	$1818793432, -8(%rbp)   # imm = 0x6C6895D8
	jne	.LBB43_4
.LBB43_3:
	addq	$16, %rsp
	popq	%rbp
	.cfi_def_cfa %rsp, 8
	retq
.LBB43_4:                               # %func_exit
	.cfi_def_cfa %rbp, 16
	callq	detect_breach
	jmp	.LBB43_3
.Lfunc_end43:
	.size	saveInputFileMetaInfo.1, .Lfunc_end43-saveInputFileMetaInfo.1
	.cfi_endproc
                                        # -- End function
	.p2align	4, 0x90         # -- Begin function uInt64_toAscii.2
	.type	uInt64_toAscii.2,@function
uInt64_toAscii.2:                       # @uInt64_toAscii.2
	.cfi_startproc
# %bb.0:                                # %entry
	pushq	%rbp
	.cfi_def_cfa_offset 16
	.cfi_offset %rbp, -16
	movq	%rsp, %rbp
	.cfi_def_cfa_register %rbp
	subq	$80, %rsp
	movl	$1671127786, -16(%rbp)  # imm = 0x639B62EA
	movq	%rdi, -24(%rbp)
	movq	%rsi, -40(%rbp)
	movl	$0, -4(%rbp)
	movq	-40(%rbp), %rax
	movq	(%rax), %rax
	movq	%rax, -32(%rbp)
.LBB44_1:                               # %do.body
                                        # =>This Inner Loop Header: Depth=1
	leaq	-32(%rbp), %rdi
	callq	uInt64_qrm10
	movl	%eax, -12(%rbp)
	movl	-12(%rbp), %eax
	addl	$48, %eax
	movslq	-4(%rbp), %rcx
	movb	%al, -80(%rbp,%rcx)
	movl	-4(%rbp), %eax
	addl	$1, %eax
	movl	%eax, -4(%rbp)
# %bb.2:                                # %do.cond
                                        #   in Loop: Header=BB44_1 Depth=1
	leaq	-32(%rbp), %rdi
	callq	uInt64_isZero
	cmpb	$0, %al
	setne	%al
	xorb	$-1, %al
	testb	$1, %al
	jne	.LBB44_1
# %bb.3:                                # %do.end
	movq	-24(%rbp), %rax
	movslq	-4(%rbp), %rcx
	movb	$0, (%rax,%rcx)
	movl	$0, -8(%rbp)
.LBB44_4:                               # %for.cond
                                        # =>This Inner Loop Header: Depth=1
	movl	-8(%rbp), %eax
	cmpl	-4(%rbp), %eax
	jge	.LBB44_7
# %bb.5:                                # %for.body
                                        #   in Loop: Header=BB44_4 Depth=1
	movl	-4(%rbp), %eax
	subl	-8(%rbp), %eax
	subl	$1, %eax
	cltq
	movb	-80(%rbp,%rax), %al
	movq	-24(%rbp), %rcx
	movslq	-8(%rbp), %rdx
	movb	%al, (%rcx,%rdx)
# %bb.6:                                # %for.inc
                                        #   in Loop: Header=BB44_4 Depth=1
	movl	-8(%rbp), %eax
	addl	$1, %eax
	movl	%eax, -8(%rbp)
	jmp	.LBB44_4
.LBB44_7:                               # %for.end
	cmpl	$1671127786, -16(%rbp)  # imm = 0x639B62EA
	jne	.LBB44_9
.LBB44_8:
	addq	$80, %rsp
	popq	%rbp
	.cfi_def_cfa %rsp, 8
	retq
.LBB44_9:                               # %func_exit
	.cfi_def_cfa %rbp, 16
	callq	detect_breach
	jmp	.LBB44_8
.Lfunc_end44:
	.size	uInt64_toAscii.2, .Lfunc_end44-uInt64_toAscii.2
	.cfi_endproc
                                        # -- End function
	.section	.rodata.cst8,"aM",@progbits,8
	.p2align	3               # -- Begin function compressStream.3
.LCPI45_0:
	.quad	4636737291354636288     # double 100
.LCPI45_1:
	.quad	4607182418800017408     # double 1
.LCPI45_2:
	.quad	4620693217682128896     # double 8
	.text
	.p2align	4, 0x90
	.type	compressStream.3,@function
compressStream.3:                       # @compressStream.3
	.cfi_startproc
# %bb.0:                                # %entry
	pushq	%rbp
	.cfi_def_cfa_offset 16
	.cfi_offset %rbp, -16
	movq	%rsp, %rbp
	.cfi_def_cfa_register %rbp
	subq	$5200, %rsp             # imm = 0x1450
	movl	$893962675, -76(%rbp)   # imm = 0x3548C9B3
	movq	%rdi, -32(%rbp)
	movq	%rsi, -24(%rbp)
	movq	$0, -56(%rbp)
	movq	-32(%rbp), %rdi
	callq	ferror
	cmpl	$0, %eax
	je	.LBB45_2
# %bb.1:                                # %if.then
	jmp	.LBB45_46
.LBB45_2:                               # %if.end
	movq	-24(%rbp), %rdi
	callq	ferror
	cmpl	$0, %eax
	je	.LBB45_4
# %bb.3:                                # %if.then3
	jmp	.LBB45_46
.LBB45_4:                               # %if.end4
	movq	-24(%rbp), %rsi
	movl	blockSize100k, %edx
	movl	verbosity, %ecx
	movl	workFactor, %r8d
	leaq	-4(%rbp), %rdi
	callq	BZ2_bzWriteOpen
	movq	%rax, -56(%rbp)
	cmpl	$0, -4(%rbp)
	je	.LBB45_6
# %bb.5:                                # %if.then6
	jmp	.LBB45_40
.LBB45_6:                               # %if.end7
	cmpl	$2, verbosity
	jl	.LBB45_8
# %bb.7:                                # %if.then9
	movq	stderr, %rdi
	movabsq	$.L.str.73, %rsi
	movb	$0, %al
	callq	fprintf
.LBB45_8:                               # %if.end11
	jmp	.LBB45_9
.LBB45_9:                               # %while.body
                                        # =>This Inner Loop Header: Depth=1
	movq	-32(%rbp), %rdi
	callq	myfeof
	cmpb	$0, %al
	je	.LBB45_11
# %bb.10:                               # %if.then14
	jmp	.LBB45_18
.LBB45_11:                              # %if.end15
                                        #   in Loop: Header=BB45_9 Depth=1
	leaq	-5184(%rbp), %rdi
	movq	-32(%rbp), %rcx
	movl	$1, %esi
	movl	$5000, %edx             # imm = 0x1388
	callq	fread
	movl	%eax, -44(%rbp)
	movq	-32(%rbp), %rdi
	callq	ferror
	cmpl	$0, %eax
	je	.LBB45_13
# %bb.12:                               # %if.then19
	jmp	.LBB45_46
.LBB45_13:                              # %if.end20
                                        #   in Loop: Header=BB45_9 Depth=1
	cmpl	$0, -44(%rbp)
	jle	.LBB45_15
# %bb.14:                               # %if.then23
                                        #   in Loop: Header=BB45_9 Depth=1
	leaq	-5184(%rbp), %rdx
	movq	-56(%rbp), %rsi
	movl	-44(%rbp), %ecx
	leaq	-4(%rbp), %rdi
	callq	BZ2_bzWrite
.LBB45_15:                              # %if.end25
                                        #   in Loop: Header=BB45_9 Depth=1
	cmpl	$0, -4(%rbp)
	je	.LBB45_17
# %bb.16:                               # %if.then28
	jmp	.LBB45_40
.LBB45_17:                              # %if.end29
                                        #   in Loop: Header=BB45_9 Depth=1
	jmp	.LBB45_9
.LBB45_18:                              # %while.end
	movq	-56(%rbp), %rsi
	leaq	-4(%rbp), %rdi
	movl	$0, %edx
	leaq	-12(%rbp), %rcx
	leaq	-16(%rbp), %r8
	leaq	-40(%rbp), %r9
	leaq	-36(%rbp), %rax
	movq	%rax, (%rsp)
	callq	BZ2_bzWriteClose64
	cmpl	$0, -4(%rbp)
	je	.LBB45_20
# %bb.19:                               # %if.then32
	jmp	.LBB45_40
.LBB45_20:                              # %if.end33
	movq	-24(%rbp), %rdi
	callq	ferror
	cmpl	$0, %eax
	je	.LBB45_22
# %bb.21:                               # %if.then36
	jmp	.LBB45_46
.LBB45_22:                              # %if.end37
	movq	-24(%rbp), %rdi
	callq	fflush
	movl	%eax, -8(%rbp)
	cmpl	$-1, -8(%rbp)
	jne	.LBB45_24
# %bb.23:                               # %if.then41
	jmp	.LBB45_46
.LBB45_24:                              # %if.end42
	movq	-24(%rbp), %rax
	cmpq	stdout, %rax
	je	.LBB45_28
# %bb.25:                               # %if.then45
	movq	-24(%rbp), %rdi
	callq	fclose
	movl	%eax, -8(%rbp)
	movq	$0, outputHandleJustInCase
	cmpl	$-1, -8(%rbp)
	jne	.LBB45_27
# %bb.26:                               # %if.then49
	jmp	.LBB45_46
.LBB45_27:                              # %if.end50
	jmp	.LBB45_28
.LBB45_28:                              # %if.end51
	movq	$0, outputHandleJustInCase
	movq	-32(%rbp), %rdi
	callq	ferror
	cmpl	$0, %eax
	je	.LBB45_30
# %bb.29:                               # %if.then54
	jmp	.LBB45_46
.LBB45_30:                              # %if.end55
	movq	-32(%rbp), %rdi
	callq	fclose
	movl	%eax, -8(%rbp)
	cmpl	$-1, -8(%rbp)
	jne	.LBB45_32
# %bb.31:                               # %if.then59
	jmp	.LBB45_46
.LBB45_32:                              # %if.end60
	cmpl	$1, verbosity
	jl	.LBB45_38
# %bb.33:                               # %if.then63
	cmpl	$0, -12(%rbp)
	jne	.LBB45_36
# %bb.34:                               # %land.lhs.true
	cmpl	$0, -16(%rbp)
	jne	.LBB45_36
# %bb.35:                               # %if.then68
	movq	stderr, %rdi
	movabsq	$.L.str.74, %rsi
	movb	$0, %al
	callq	fprintf
	jmp	.LBB45_37
.LBB45_36:                              # %if.else
	movl	-12(%rbp), %esi
	movl	-16(%rbp), %edx
	leaq	-96(%rbp), %rdi
	callq	uInt64_from_UInt32s
	movl	-40(%rbp), %esi
	movl	-36(%rbp), %edx
	leaq	-88(%rbp), %rdi
	callq	uInt64_from_UInt32s
	leaq	-96(%rbp), %rdi
	callq	uInt64_to_double
	vmovsd	%xmm0, -72(%rbp)
	leaq	-88(%rbp), %rdi
	callq	uInt64_to_double
	leaq	-144(%rbp), %rdi
	vmovsd	%xmm0, -64(%rbp)
	leaq	-96(%rbp), %rsi
	callq	uInt64_toAscii
	leaq	-176(%rbp), %rdi
	leaq	-88(%rbp), %rsi
	callq	uInt64_toAscii
	leaq	-176(%rbp), %rcx
	leaq	-144(%rbp), %rdx
	vmovsd	.LCPI45_0(%rip), %xmm2  # xmm2 = mem[0],zero
	vmovsd	.LCPI45_1(%rip), %xmm3  # xmm3 = mem[0],zero
	vmovsd	.LCPI45_2(%rip), %xmm1  # xmm1 = mem[0],zero
	movq	stderr, %rdi
	vmovsd	-72(%rbp), %xmm0        # xmm0 = mem[0],zero
	vdivsd	-64(%rbp), %xmm0, %xmm0
	vmulsd	-64(%rbp), %xmm1, %xmm1
	vdivsd	-72(%rbp), %xmm1, %xmm1
	vmovsd	-64(%rbp), %xmm4        # xmm4 = mem[0],zero
	vdivsd	-72(%rbp), %xmm4, %xmm4
	vsubsd	%xmm4, %xmm3, %xmm3
	vmulsd	%xmm3, %xmm2, %xmm2
	movabsq	$.L.str.75, %rsi
	movb	$3, %al
	callq	fprintf
.LBB45_37:                              # %if.end80
	jmp	.LBB45_38
.LBB45_38:                              # %if.end81
	cmpl	$893962675, -76(%rbp)   # imm = 0x3548C9B3
	jne	.LBB45_48
.LBB45_39:
	addq	$5200, %rsp             # imm = 0x1450
	popq	%rbp
	.cfi_def_cfa %rsp, 8
	retq
.LBB45_40:                              # %errhandler
	.cfi_def_cfa %rbp, 16
	movq	-56(%rbp), %rsi
	leaq	-36(%rbp), %rax
	movq	%rax, (%rsp)
	leaq	-100(%rbp), %rdi
	leaq	-12(%rbp), %rcx
	leaq	-16(%rbp), %r8
	leaq	-40(%rbp), %r9
	movl	$1, %edx
	callq	BZ2_bzWriteClose64
	movl	-4(%rbp), %eax
	movl	%eax, %ecx
	subl	$-9, %ecx
	je	.LBB45_43
	jmp	.LBB45_41
.LBB45_41:                              # %errhandler
	movl	%eax, %ecx
	subl	$-6, %ecx
	je	.LBB45_45
	jmp	.LBB45_42
.LBB45_42:                              # %errhandler
	subl	$-3, %eax
	je	.LBB45_44
	jmp	.LBB45_47
.LBB45_43:                              # %sw.bb
	callq	configError
.LBB45_44:                              # %sw.bb82
	callq	outOfMemory
.LBB45_45:                              # %sw.bb83
	jmp	.LBB45_46
.LBB45_46:                              # %errhandler_io
	callq	ioError
.LBB45_47:                              # %sw.default
	movabsq	$.L.str.76, %rdi
	callq	panic
.LBB45_48:                              # %func_exit
	callq	detect_breach
	jmp	.LBB45_39
.Lfunc_end45:
	.size	compressStream.3, .Lfunc_end45-compressStream.3
	.cfi_endproc
                                        # -- End function
	.p2align	4, 0x90         # -- Begin function compress.4
	.type	compress.4,@function
compress.4:                             # @compress.4
	.cfi_startproc
# %bb.0:                                # %entry
	pushq	%rbp
	.cfi_def_cfa_offset 16
	.cfi_offset %rbp, -16
	movq	%rsp, %rbp
	.cfi_def_cfa_register %rbp
	pushq	%r14
	pushq	%rbx
	subq	$192, %rsp
	.cfi_offset %rbx, -32
	.cfi_offset %r14, -24
	movl	$779672116, -64(%rbp)   # imm = 0x2E78DA34
	movq	%rdi, -56(%rbp)
	movb	$0, deleteOutputOnInterrupt
	cmpq	$0, -56(%rbp)
	jne	.LBB46_3
# %bb.1:                                # %land.lhs.true
	cmpl	$1, srcMode
	je	.LBB46_3
# %bb.2:                                # %if.then
	movabsq	$.L.str.53, %rdi
	callq	panic
.LBB46_3:                               # %if.end
	movl	srcMode(%rip), %eax
	movl	%eax, %ecx
	subl	$1, %ecx
	je	.LBB46_6
	jmp	.LBB46_4
.LBB46_4:                               # %if.end
	movl	%eax, %ecx
	subl	$2, %ecx
	je	.LBB46_8
	jmp	.LBB46_5
.LBB46_5:                               # %if.end
	subl	$3, %eax
	je	.LBB46_7
	jmp	.LBB46_9
.LBB46_6:                               # %sw.bb
	movabsq	$inName, %rdi
	movabsq	$.L.str.54, %rsi
	callq	copyFileName
	movabsq	$outName, %rdi
	movabsq	$.L.str.55, %rsi
	callq	copyFileName
	jmp	.LBB46_9
.LBB46_7:                               # %sw.bb2
	movq	-56(%rbp), %rsi
	movabsq	$inName, %rdi
	callq	copyFileName
	movq	-56(%rbp), %rsi
	movabsq	$outName, %rdi
	callq	copyFileName
	movabsq	$outName, %rdi
	movabsq	$.L.str.30, %rsi
	callq	strcat
	jmp	.LBB46_9
.LBB46_8:                               # %sw.bb3
	movq	-56(%rbp), %rsi
	movabsq	$inName, %rdi
	callq	copyFileName
	movabsq	$outName, %rdi
	movabsq	$.L.str.55, %rsi
	callq	copyFileName
.LBB46_9:                               # %sw.epilog
	cmpl	$1, srcMode
	je	.LBB46_14
# %bb.10:                               # %land.lhs.true5
	movabsq	$inName, %rdi
	callq	containsDubiousChars
	movzbl	%al, %eax
	cmpl	$0, %eax
	je	.LBB46_14
# %bb.11:                               # %if.then7
	cmpb	$0, noisy
	je	.LBB46_13
# %bb.12:                               # %if.then9
	movq	stderr, %rdi
	movq	progName, %rdx
	movabsq	$.L.str.56, %rsi
	movabsq	$inName, %rcx
	movb	$0, %al
	callq	fprintf
.LBB46_13:                              # %if.end11
	movl	$1, %edi
	callq	setExit
	jmp	.LBB46_80
.LBB46_14:                              # %if.end12
	cmpl	$1, srcMode
	je	.LBB46_17
# %bb.15:                               # %land.lhs.true15
	movabsq	$inName, %rdi
	callq	fileExists
	cmpb	$0, %al
	jne	.LBB46_17
# %bb.16:                               # %if.then18
	movq	stderr, %rbx
	movq	progName, %r14
	callq	__errno_location
	movl	(%rax), %edi
	callq	strerror
	movq	%rbx, %rdi
	movabsq	$.L.str.57, %rsi
	movq	%r14, %rdx
	movabsq	$inName, %rcx
	movq	%rax, %r8
	movb	$0, %al
	callq	fprintf
	movl	$1, %edi
	callq	setExit
	jmp	.LBB46_80
.LBB46_17:                              # %if.end22
	movl	$0, -20(%rbp)
.LBB46_18:                              # %for.cond
                                        # =>This Inner Loop Header: Depth=1
	cmpl	$4, -20(%rbp)
	jge	.LBB46_25
# %bb.19:                               # %for.body
                                        #   in Loop: Header=BB46_18 Depth=1
	movslq	-20(%rbp), %rax
	movq	zSuffix(,%rax,8), %rsi
	movabsq	$inName, %rdi
	callq	hasSuffix
	cmpb	$0, %al
	je	.LBB46_23
# %bb.20:                               # %if.then27
	cmpb	$0, noisy
	je	.LBB46_22
# %bb.21:                               # %if.then29
	movq	stderr, %rdi
	movq	progName, %rdx
	movslq	-20(%rbp), %rax
	movq	zSuffix(,%rax,8), %r8
	movabsq	$.L.str.58, %rsi
	movabsq	$inName, %rcx
	movb	$0, %al
	callq	fprintf
.LBB46_22:                              # %if.end33
	movl	$1, %edi
	callq	setExit
	jmp	.LBB46_80
.LBB46_23:                              # %if.end34
                                        #   in Loop: Header=BB46_18 Depth=1
	jmp	.LBB46_24
.LBB46_24:                              # %for.inc
                                        #   in Loop: Header=BB46_18 Depth=1
	movl	-20(%rbp), %eax
	addl	$1, %eax
	movl	%eax, -20(%rbp)
	jmp	.LBB46_18
.LBB46_25:                              # %for.end
	cmpl	$3, srcMode
	je	.LBB46_27
# %bb.26:                               # %lor.lhs.false
	cmpl	$2, srcMode
	jne	.LBB46_30
.LBB46_27:                              # %if.then39
	movabsq	$inName, %rdi
	leaq	-208(%rbp), %rsi
	callq	stat
	movl	-184(%rbp), %eax
	andl	$61440, %eax            # imm = 0xF000
	cmpl	$16384, %eax            # imm = 0x4000
	jne	.LBB46_29
# %bb.28:                               # %if.then43
	movq	stderr, %rdi
	movq	progName, %rdx
	movabsq	$.L.str.59, %rsi
	movabsq	$inName, %rcx
	movb	$0, %al
	callq	fprintf
	movl	$1, %edi
	callq	setExit
	jmp	.LBB46_80
.LBB46_29:                              # %if.end45
	jmp	.LBB46_30
.LBB46_30:                              # %if.end46
	cmpl	$3, srcMode
	jne	.LBB46_36
# %bb.31:                               # %land.lhs.true49
	cmpb	$0, forceOverwrite
	jne	.LBB46_36
# %bb.32:                               # %land.lhs.true51
	movabsq	$inName, %rdi
	callq	notAStandardFile
	movzbl	%al, %eax
	cmpl	$0, %eax
	je	.LBB46_36
# %bb.33:                               # %if.then55
	cmpb	$0, noisy
	je	.LBB46_35
# %bb.34:                               # %if.then57
	movq	stderr, %rdi
	movq	progName, %rdx
	movabsq	$.L.str.60, %rsi
	movabsq	$inName, %rcx
	movb	$0, %al
	callq	fprintf
.LBB46_35:                              # %if.end59
	movl	$1, %edi
	callq	setExit
	jmp	.LBB46_80
.LBB46_36:                              # %if.end60
	cmpl	$3, srcMode
	jne	.LBB46_42
# %bb.37:                               # %land.lhs.true63
	movabsq	$outName, %rdi
	callq	fileExists
	movzbl	%al, %eax
	cmpl	$0, %eax
	je	.LBB46_42
# %bb.38:                               # %if.then67
	cmpb	$0, forceOverwrite
	je	.LBB46_40
# %bb.39:                               # %if.then69
	movabsq	$outName, %rdi
	callq	remove
	jmp	.LBB46_41
.LBB46_40:                              # %if.else
	movq	stderr, %rdi
	movq	progName, %rdx
	movabsq	$.L.str.61, %rsi
	movabsq	$outName, %rcx
	movb	$0, %al
	callq	fprintf
	movl	$1, %edi
	callq	setExit
	jmp	.LBB46_80
.LBB46_41:                              # %if.end72
	jmp	.LBB46_42
.LBB46_42:                              # %if.end73
	cmpl	$3, srcMode
	jne	.LBB46_46
# %bb.43:                               # %land.lhs.true76
	cmpb	$0, forceOverwrite
	jne	.LBB46_46
# %bb.44:                               # %land.lhs.true78
	movabsq	$inName, %rdi
	callq	countHardLinks
	movl	%eax, -44(%rbp)
	cmpl	$0, %eax
	jle	.LBB46_46
# %bb.45:                               # %if.then82
	movq	stderr, %rdi
	movq	progName, %rdx
	movl	-44(%rbp), %r8d
	movl	-44(%rbp), %eax
	cmpl	$1, %eax
	movabsq	$.L.str.63, %rax
	movabsq	$.L.str.34, %r9
	cmovgq	%rax, %r9
	movabsq	$.L.str.62, %rsi
	movabsq	$inName, %rcx
	movb	$0, %al
	callq	fprintf
	movl	$1, %edi
	callq	setExit
	jmp	.LBB46_80
.LBB46_46:                              # %if.end86
	cmpl	$3, srcMode
	jne	.LBB46_48
# %bb.47:                               # %if.then89
	movabsq	$inName, %rdi
	callq	saveInputFileMetaInfo
.LBB46_48:                              # %if.end90
	movl	srcMode(%rip), %eax
	movl	%eax, %ecx
	subl	$1, %ecx
	je	.LBB46_51
	jmp	.LBB46_49
.LBB46_49:                              # %if.end90
	movl	%eax, %ecx
	subl	$2, %ecx
	je	.LBB46_54
	jmp	.LBB46_50
.LBB46_50:                              # %if.end90
	subl	$3, %eax
	je	.LBB46_61
	jmp	.LBB46_70
.LBB46_51:                              # %sw.bb91
	movq	stdin, %rax
	movq	%rax, -32(%rbp)
	movq	stdout, %rax
	movq	%rax, -40(%rbp)
	movq	stdout, %rdi
	callq	fileno
	movl	%eax, %edi
	callq	isatty
	cmpl	$0, %eax
	je	.LBB46_53
# %bb.52:                               # %if.then95
	movq	stderr, %rdi
	movq	progName, %rdx
	movabsq	$.L.str.64, %rsi
	movb	$0, %al
	callq	fprintf
	movq	stderr, %rdi
	movq	progName, %rdx
	movq	progName, %rcx
	movabsq	$.L.str.65, %rsi
	movb	$0, %al
	callq	fprintf
	movl	$1, %edi
	callq	setExit
	jmp	.LBB46_80
.LBB46_53:                              # %if.end98
	jmp	.LBB46_71
.LBB46_54:                              # %sw.bb99
	movabsq	$inName, %rdi
	movabsq	$.L.str.66, %rsi
	callq	fopen
	movq	%rax, -32(%rbp)
	movq	stdout, %rax
	movq	%rax, -40(%rbp)
	movq	stdout, %rdi
	callq	fileno
	movl	%eax, %edi
	callq	isatty
	cmpl	$0, %eax
	je	.LBB46_58
# %bb.55:                               # %if.then104
	movq	stderr, %rdi
	movq	progName, %rdx
	movabsq	$.L.str.64, %rsi
	movb	$0, %al
	callq	fprintf
	movq	stderr, %rdi
	movq	progName, %rdx
	movq	progName, %rcx
	movabsq	$.L.str.65, %rsi
	movb	$0, %al
	callq	fprintf
	cmpq	$0, -32(%rbp)
	je	.LBB46_57
# %bb.56:                               # %if.then109
	movq	-32(%rbp), %rdi
	callq	fclose
.LBB46_57:                              # %if.end111
	movl	$1, %edi
	callq	setExit
	jmp	.LBB46_80
.LBB46_58:                              # %if.end112
	cmpq	$0, -32(%rbp)
	jne	.LBB46_60
# %bb.59:                               # %if.then115
	movq	stderr, %rbx
	movq	progName, %r14
	callq	__errno_location
	movl	(%rax), %edi
	callq	strerror
	movq	%rbx, %rdi
	movabsq	$.L.str.57, %rsi
	movq	%r14, %rdx
	movabsq	$inName, %rcx
	movq	%rax, %r8
	movb	$0, %al
	callq	fprintf
	movl	$1, %edi
	callq	setExit
	jmp	.LBB46_80
.LBB46_60:                              # %if.end119
	jmp	.LBB46_71
.LBB46_61:                              # %sw.bb120
	movabsq	$inName, %rdi
	movabsq	$.L.str.66, %rsi
	callq	fopen
	movq	%rax, -32(%rbp)
	movabsq	$outName, %rdi
	movabsq	$.L.str.67, %rsi
	callq	fopen_output_safely
	movq	%rax, -40(%rbp)
	cmpq	$0, -40(%rbp)
	jne	.LBB46_65
# %bb.62:                               # %if.then125
	movq	stderr, %rbx
	movq	progName, %r14
	callq	__errno_location
	movl	(%rax), %edi
	callq	strerror
	movq	%rbx, %rdi
	movabsq	$.L.str.68, %rsi
	movq	%r14, %rdx
	movabsq	$outName, %rcx
	movq	%rax, %r8
	movb	$0, %al
	callq	fprintf
	cmpq	$0, -32(%rbp)
	je	.LBB46_64
# %bb.63:                               # %if.then131
	movq	-32(%rbp), %rdi
	callq	fclose
.LBB46_64:                              # %if.end133
	movl	$1, %edi
	callq	setExit
	jmp	.LBB46_80
.LBB46_65:                              # %if.end134
	cmpq	$0, -32(%rbp)
	jne	.LBB46_69
# %bb.66:                               # %if.then137
	movq	stderr, %rbx
	movq	progName, %r14
	callq	__errno_location
	movl	(%rax), %edi
	callq	strerror
	movq	%rbx, %rdi
	movabsq	$.L.str.57, %rsi
	movq	%r14, %rdx
	movabsq	$inName, %rcx
	movq	%rax, %r8
	movb	$0, %al
	callq	fprintf
	cmpq	$0, -40(%rbp)
	je	.LBB46_68
# %bb.67:                               # %if.then143
	movq	-40(%rbp), %rdi
	callq	fclose
.LBB46_68:                              # %if.end145
	movl	$1, %edi
	callq	setExit
	jmp	.LBB46_80
.LBB46_69:                              # %if.end146
	jmp	.LBB46_71
.LBB46_70:                              # %sw.default
	movabsq	$.L.str.69, %rdi
	callq	panic
.LBB46_71:                              # %sw.epilog147
	cmpl	$1, verbosity
	jl	.LBB46_73
# %bb.72:                               # %if.then150
	movq	stderr, %rdi
	movabsq	$.L.str.70, %rsi
	movabsq	$inName, %rdx
	movb	$0, %al
	callq	fprintf
	movabsq	$inName, %rdi
	callq	pad
	movq	stderr, %rdi
	callq	fflush
.LBB46_73:                              # %if.end153
	movq	-40(%rbp), %rax
	movq	%rax, outputHandleJustInCase
	movb	$1, deleteOutputOnInterrupt
	movq	-32(%rbp), %rdi
	movq	-40(%rbp), %rsi
	callq	compressStream
	movq	$0, outputHandleJustInCase
	cmpl	$3, srcMode
	jne	.LBB46_79
# %bb.74:                               # %if.then156
	movabsq	$outName, %rdi
	callq	applySavedMetaInfoToOutputFile
	movb	$0, deleteOutputOnInterrupt
	cmpb	$0, keepInputFiles
	jne	.LBB46_78
# %bb.75:                               # %if.then158
	movabsq	$inName, %rdi
	callq	remove
	movl	%eax, -60(%rbp)
	cmpl	$0, -60(%rbp)
	je	.LBB46_77
# %bb.76:                               # %if.then162
	callq	ioError
.LBB46_77:                              # %if.end163
	jmp	.LBB46_78
.LBB46_78:                              # %if.end164
	jmp	.LBB46_79
.LBB46_79:                              # %if.end165
	movb	$0, deleteOutputOnInterrupt
.LBB46_80:                              # %return
	cmpl	$779672116, -64(%rbp)   # imm = 0x2E78DA34
	jne	.LBB46_82
.LBB46_81:
	addq	$192, %rsp
	popq	%rbx
	popq	%r14
	popq	%rbp
	.cfi_def_cfa %rsp, 8
	retq
.LBB46_82:                              # %func_exit
	.cfi_def_cfa %rbp, 16
	callq	detect_breach
	jmp	.LBB46_81
.Lfunc_end46:
	.size	compress.4, .Lfunc_end46-compress.4
	.cfi_endproc
                                        # -- End function
	.p2align	4, 0x90         # -- Begin function copyFileName.5
	.type	copyFileName.5,@function
copyFileName.5:                         # @copyFileName.5
	.cfi_startproc
# %bb.0:                                # %entry
	pushq	%rbp
	.cfi_def_cfa_offset 16
	.cfi_offset %rbp, -16
	movq	%rsp, %rbp
	.cfi_def_cfa_register %rbp
	subq	$32, %rsp
	movl	$1853011895, -12(%rbp)  # imm = 0x6E72B7B7
	movq	%rdi, -24(%rbp)
	movq	%rsi, -8(%rbp)
	movq	-8(%rbp), %rdi
	callq	strlen
	cmpq	$1024, %rax             # imm = 0x400
	jbe	.LBB47_2
# %bb.1:                                # %if.then
	movq	stderr, %rdi
	movq	-8(%rbp), %rdx
	movabsq	$.L.str.47, %rsi
	movl	$1024, %ecx             # imm = 0x400
	movb	$0, %al
	callq	fprintf
	movl	$1, %edi
	callq	setExit
	movl	exitValue, %edi
	callq	exit
.LBB47_2:                               # %if.end
	movq	-24(%rbp), %rdi
	movq	-8(%rbp), %rsi
	movl	$1024, %edx             # imm = 0x400
	callq	strncpy
	movq	-24(%rbp), %rax
	movb	$0, 1024(%rax)
	cmpl	$1853011895, -12(%rbp)  # imm = 0x6E72B7B7
	jne	.LBB47_4
.LBB47_3:
	addq	$32, %rsp
	popq	%rbp
	.cfi_def_cfa %rsp, 8
	retq
.LBB47_4:                               # %func_exit
	.cfi_def_cfa %rbp, 16
	callq	detect_breach
	jmp	.LBB47_3
.Lfunc_end47:
	.size	copyFileName.5, .Lfunc_end47-copyFileName.5
	.cfi_endproc
                                        # -- End function
	.p2align	4, 0x90         # -- Begin function compress.6
	.type	compress.6,@function
compress.6:                             # @compress.6
	.cfi_startproc
# %bb.0:                                # %entry
	pushq	%rbp
	.cfi_def_cfa_offset 16
	.cfi_offset %rbp, -16
	movq	%rsp, %rbp
	.cfi_def_cfa_register %rbp
	pushq	%r14
	pushq	%rbx
	subq	$192, %rsp
	.cfi_offset %rbx, -32
	.cfi_offset %r14, -24
	movl	$943116810, -64(%rbp)   # imm = 0x3836D20A
	movq	%rdi, -56(%rbp)
	movb	$0, deleteOutputOnInterrupt
	cmpq	$0, -56(%rbp)
	jne	.LBB48_3
# %bb.1:                                # %land.lhs.true
	cmpl	$1, srcMode
	je	.LBB48_3
# %bb.2:                                # %if.then
	movabsq	$.L.str.53, %rdi
	callq	panic
.LBB48_3:                               # %if.end
	movl	srcMode(%rip), %eax
	movl	%eax, %ecx
	subl	$1, %ecx
	je	.LBB48_6
	jmp	.LBB48_4
.LBB48_4:                               # %if.end
	movl	%eax, %ecx
	subl	$2, %ecx
	je	.LBB48_8
	jmp	.LBB48_5
.LBB48_5:                               # %if.end
	subl	$3, %eax
	je	.LBB48_7
	jmp	.LBB48_9
.LBB48_6:                               # %sw.bb
	movabsq	$inName, %rdi
	movabsq	$.L.str.54, %rsi
	callq	copyFileName
	movabsq	$outName, %rdi
	movabsq	$.L.str.55, %rsi
	callq	copyFileName
	jmp	.LBB48_9
.LBB48_7:                               # %sw.bb2
	movq	-56(%rbp), %rsi
	movabsq	$inName, %rdi
	callq	copyFileName
	movq	-56(%rbp), %rsi
	movabsq	$outName, %rdi
	callq	copyFileName
	movabsq	$outName, %rdi
	movabsq	$.L.str.30, %rsi
	callq	strcat
	jmp	.LBB48_9
.LBB48_8:                               # %sw.bb3
	movq	-56(%rbp), %rsi
	movabsq	$inName, %rdi
	callq	copyFileName
	movabsq	$outName, %rdi
	movabsq	$.L.str.55, %rsi
	callq	copyFileName
.LBB48_9:                               # %sw.epilog
	cmpl	$1, srcMode
	je	.LBB48_14
# %bb.10:                               # %land.lhs.true5
	movabsq	$inName, %rdi
	callq	containsDubiousChars
	movzbl	%al, %eax
	cmpl	$0, %eax
	je	.LBB48_14
# %bb.11:                               # %if.then7
	cmpb	$0, noisy
	je	.LBB48_13
# %bb.12:                               # %if.then9
	movq	stderr, %rdi
	movq	progName, %rdx
	movabsq	$.L.str.56, %rsi
	movabsq	$inName, %rcx
	movb	$0, %al
	callq	fprintf
.LBB48_13:                              # %if.end11
	movl	$1, %edi
	callq	setExit
	jmp	.LBB48_80
.LBB48_14:                              # %if.end12
	cmpl	$1, srcMode
	je	.LBB48_17
# %bb.15:                               # %land.lhs.true15
	movabsq	$inName, %rdi
	callq	fileExists
	cmpb	$0, %al
	jne	.LBB48_17
# %bb.16:                               # %if.then18
	movq	stderr, %rbx
	movq	progName, %r14
	callq	__errno_location
	movl	(%rax), %edi
	callq	strerror
	movq	%rbx, %rdi
	movabsq	$.L.str.57, %rsi
	movq	%r14, %rdx
	movabsq	$inName, %rcx
	movq	%rax, %r8
	movb	$0, %al
	callq	fprintf
	movl	$1, %edi
	callq	setExit
	jmp	.LBB48_80
.LBB48_17:                              # %if.end22
	movl	$0, -20(%rbp)
.LBB48_18:                              # %for.cond
                                        # =>This Inner Loop Header: Depth=1
	cmpl	$4, -20(%rbp)
	jge	.LBB48_25
# %bb.19:                               # %for.body
                                        #   in Loop: Header=BB48_18 Depth=1
	movslq	-20(%rbp), %rax
	movq	zSuffix(,%rax,8), %rsi
	movabsq	$inName, %rdi
	callq	hasSuffix
	cmpb	$0, %al
	je	.LBB48_23
# %bb.20:                               # %if.then27
	cmpb	$0, noisy
	je	.LBB48_22
# %bb.21:                               # %if.then29
	movq	stderr, %rdi
	movq	progName, %rdx
	movslq	-20(%rbp), %rax
	movq	zSuffix(,%rax,8), %r8
	movabsq	$.L.str.58, %rsi
	movabsq	$inName, %rcx
	movb	$0, %al
	callq	fprintf
.LBB48_22:                              # %if.end33
	movl	$1, %edi
	callq	setExit
	jmp	.LBB48_80
.LBB48_23:                              # %if.end34
                                        #   in Loop: Header=BB48_18 Depth=1
	jmp	.LBB48_24
.LBB48_24:                              # %for.inc
                                        #   in Loop: Header=BB48_18 Depth=1
	movl	-20(%rbp), %eax
	addl	$1, %eax
	movl	%eax, -20(%rbp)
	jmp	.LBB48_18
.LBB48_25:                              # %for.end
	cmpl	$3, srcMode
	je	.LBB48_27
# %bb.26:                               # %lor.lhs.false
	cmpl	$2, srcMode
	jne	.LBB48_30
.LBB48_27:                              # %if.then39
	movabsq	$inName, %rdi
	leaq	-208(%rbp), %rsi
	callq	stat
	movl	-184(%rbp), %eax
	andl	$61440, %eax            # imm = 0xF000
	cmpl	$16384, %eax            # imm = 0x4000
	jne	.LBB48_29
# %bb.28:                               # %if.then43
	movq	stderr, %rdi
	movq	progName, %rdx
	movabsq	$.L.str.59, %rsi
	movabsq	$inName, %rcx
	movb	$0, %al
	callq	fprintf
	movl	$1, %edi
	callq	setExit
	jmp	.LBB48_80
.LBB48_29:                              # %if.end45
	jmp	.LBB48_30
.LBB48_30:                              # %if.end46
	cmpl	$3, srcMode
	jne	.LBB48_36
# %bb.31:                               # %land.lhs.true49
	cmpb	$0, forceOverwrite
	jne	.LBB48_36
# %bb.32:                               # %land.lhs.true51
	movabsq	$inName, %rdi
	callq	notAStandardFile
	movzbl	%al, %eax
	cmpl	$0, %eax
	je	.LBB48_36
# %bb.33:                               # %if.then55
	cmpb	$0, noisy
	je	.LBB48_35
# %bb.34:                               # %if.then57
	movq	stderr, %rdi
	movq	progName, %rdx
	movabsq	$.L.str.60, %rsi
	movabsq	$inName, %rcx
	movb	$0, %al
	callq	fprintf
.LBB48_35:                              # %if.end59
	movl	$1, %edi
	callq	setExit
	jmp	.LBB48_80
.LBB48_36:                              # %if.end60
	cmpl	$3, srcMode
	jne	.LBB48_42
# %bb.37:                               # %land.lhs.true63
	movabsq	$outName, %rdi
	callq	fileExists
	movzbl	%al, %eax
	cmpl	$0, %eax
	je	.LBB48_42
# %bb.38:                               # %if.then67
	cmpb	$0, forceOverwrite
	je	.LBB48_40
# %bb.39:                               # %if.then69
	movabsq	$outName, %rdi
	callq	remove
	jmp	.LBB48_41
.LBB48_40:                              # %if.else
	movq	stderr, %rdi
	movq	progName, %rdx
	movabsq	$.L.str.61, %rsi
	movabsq	$outName, %rcx
	movb	$0, %al
	callq	fprintf
	movl	$1, %edi
	callq	setExit
	jmp	.LBB48_80
.LBB48_41:                              # %if.end72
	jmp	.LBB48_42
.LBB48_42:                              # %if.end73
	cmpl	$3, srcMode
	jne	.LBB48_46
# %bb.43:                               # %land.lhs.true76
	cmpb	$0, forceOverwrite
	jne	.LBB48_46
# %bb.44:                               # %land.lhs.true78
	movabsq	$inName, %rdi
	callq	countHardLinks
	movl	%eax, -44(%rbp)
	cmpl	$0, %eax
	jle	.LBB48_46
# %bb.45:                               # %if.then82
	movq	stderr, %rdi
	movq	progName, %rdx
	movl	-44(%rbp), %r8d
	movl	-44(%rbp), %eax
	cmpl	$1, %eax
	movabsq	$.L.str.63, %rax
	movabsq	$.L.str.34, %r9
	cmovgq	%rax, %r9
	movabsq	$.L.str.62, %rsi
	movabsq	$inName, %rcx
	movb	$0, %al
	callq	fprintf
	movl	$1, %edi
	callq	setExit
	jmp	.LBB48_80
.LBB48_46:                              # %if.end86
	cmpl	$3, srcMode
	jne	.LBB48_48
# %bb.47:                               # %if.then89
	movabsq	$inName, %rdi
	callq	saveInputFileMetaInfo
.LBB48_48:                              # %if.end90
	movl	srcMode(%rip), %eax
	movl	%eax, %ecx
	subl	$1, %ecx
	je	.LBB48_51
	jmp	.LBB48_49
.LBB48_49:                              # %if.end90
	movl	%eax, %ecx
	subl	$2, %ecx
	je	.LBB48_54
	jmp	.LBB48_50
.LBB48_50:                              # %if.end90
	subl	$3, %eax
	je	.LBB48_61
	jmp	.LBB48_70
.LBB48_51:                              # %sw.bb91
	movq	stdin, %rax
	movq	%rax, -32(%rbp)
	movq	stdout, %rax
	movq	%rax, -40(%rbp)
	movq	stdout, %rdi
	callq	fileno
	movl	%eax, %edi
	callq	isatty
	cmpl	$0, %eax
	je	.LBB48_53
# %bb.52:                               # %if.then95
	movq	stderr, %rdi
	movq	progName, %rdx
	movabsq	$.L.str.64, %rsi
	movb	$0, %al
	callq	fprintf
	movq	stderr, %rdi
	movq	progName, %rdx
	movq	progName, %rcx
	movabsq	$.L.str.65, %rsi
	movb	$0, %al
	callq	fprintf
	movl	$1, %edi
	callq	setExit
	jmp	.LBB48_80
.LBB48_53:                              # %if.end98
	jmp	.LBB48_71
.LBB48_54:                              # %sw.bb99
	movabsq	$inName, %rdi
	movabsq	$.L.str.66, %rsi
	callq	fopen
	movq	%rax, -32(%rbp)
	movq	stdout, %rax
	movq	%rax, -40(%rbp)
	movq	stdout, %rdi
	callq	fileno
	movl	%eax, %edi
	callq	isatty
	cmpl	$0, %eax
	je	.LBB48_58
# %bb.55:                               # %if.then104
	movq	stderr, %rdi
	movq	progName, %rdx
	movabsq	$.L.str.64, %rsi
	movb	$0, %al
	callq	fprintf
	movq	stderr, %rdi
	movq	progName, %rdx
	movq	progName, %rcx
	movabsq	$.L.str.65, %rsi
	movb	$0, %al
	callq	fprintf
	cmpq	$0, -32(%rbp)
	je	.LBB48_57
# %bb.56:                               # %if.then109
	movq	-32(%rbp), %rdi
	callq	fclose
.LBB48_57:                              # %if.end111
	movl	$1, %edi
	callq	setExit
	jmp	.LBB48_80
.LBB48_58:                              # %if.end112
	cmpq	$0, -32(%rbp)
	jne	.LBB48_60
# %bb.59:                               # %if.then115
	movq	stderr, %rbx
	movq	progName, %r14
	callq	__errno_location
	movl	(%rax), %edi
	callq	strerror
	movq	%rbx, %rdi
	movabsq	$.L.str.57, %rsi
	movq	%r14, %rdx
	movabsq	$inName, %rcx
	movq	%rax, %r8
	movb	$0, %al
	callq	fprintf
	movl	$1, %edi
	callq	setExit
	jmp	.LBB48_80
.LBB48_60:                              # %if.end119
	jmp	.LBB48_71
.LBB48_61:                              # %sw.bb120
	movabsq	$inName, %rdi
	movabsq	$.L.str.66, %rsi
	callq	fopen
	movq	%rax, -32(%rbp)
	movabsq	$outName, %rdi
	movabsq	$.L.str.67, %rsi
	callq	fopen_output_safely
	movq	%rax, -40(%rbp)
	cmpq	$0, -40(%rbp)
	jne	.LBB48_65
# %bb.62:                               # %if.then125
	movq	stderr, %rbx
	movq	progName, %r14
	callq	__errno_location
	movl	(%rax), %edi
	callq	strerror
	movq	%rbx, %rdi
	movabsq	$.L.str.68, %rsi
	movq	%r14, %rdx
	movabsq	$outName, %rcx
	movq	%rax, %r8
	movb	$0, %al
	callq	fprintf
	cmpq	$0, -32(%rbp)
	je	.LBB48_64
# %bb.63:                               # %if.then131
	movq	-32(%rbp), %rdi
	callq	fclose
.LBB48_64:                              # %if.end133
	movl	$1, %edi
	callq	setExit
	jmp	.LBB48_80
.LBB48_65:                              # %if.end134
	cmpq	$0, -32(%rbp)
	jne	.LBB48_69
# %bb.66:                               # %if.then137
	movq	stderr, %rbx
	movq	progName, %r14
	callq	__errno_location
	movl	(%rax), %edi
	callq	strerror
	movq	%rbx, %rdi
	movabsq	$.L.str.57, %rsi
	movq	%r14, %rdx
	movabsq	$inName, %rcx
	movq	%rax, %r8
	movb	$0, %al
	callq	fprintf
	cmpq	$0, -40(%rbp)
	je	.LBB48_68
# %bb.67:                               # %if.then143
	movq	-40(%rbp), %rdi
	callq	fclose
.LBB48_68:                              # %if.end145
	movl	$1, %edi
	callq	setExit
	jmp	.LBB48_80
.LBB48_69:                              # %if.end146
	jmp	.LBB48_71
.LBB48_70:                              # %sw.default
	movabsq	$.L.str.69, %rdi
	callq	panic
.LBB48_71:                              # %sw.epilog147
	cmpl	$1, verbosity
	jl	.LBB48_73
# %bb.72:                               # %if.then150
	movq	stderr, %rdi
	movabsq	$.L.str.70, %rsi
	movabsq	$inName, %rdx
	movb	$0, %al
	callq	fprintf
	movabsq	$inName, %rdi
	callq	pad
	movq	stderr, %rdi
	callq	fflush
.LBB48_73:                              # %if.end153
	movq	-40(%rbp), %rax
	movq	%rax, outputHandleJustInCase
	movb	$1, deleteOutputOnInterrupt
	movq	-32(%rbp), %rdi
	movq	-40(%rbp), %rsi
	callq	compressStream
	movq	$0, outputHandleJustInCase
	cmpl	$3, srcMode
	jne	.LBB48_79
# %bb.74:                               # %if.then156
	movabsq	$outName, %rdi
	callq	applySavedMetaInfoToOutputFile
	movb	$0, deleteOutputOnInterrupt
	cmpb	$0, keepInputFiles
	jne	.LBB48_78
# %bb.75:                               # %if.then158
	movabsq	$inName, %rdi
	callq	remove
	movl	%eax, -60(%rbp)
	cmpl	$0, -60(%rbp)
	je	.LBB48_77
# %bb.76:                               # %if.then162
	callq	ioError
.LBB48_77:                              # %if.end163
	jmp	.LBB48_78
.LBB48_78:                              # %if.end164
	jmp	.LBB48_79
.LBB48_79:                              # %if.end165
	movb	$0, deleteOutputOnInterrupt
.LBB48_80:                              # %return
	cmpl	$943116810, -64(%rbp)   # imm = 0x3836D20A
	jne	.LBB48_82
.LBB48_81:
	addq	$192, %rsp
	popq	%rbx
	popq	%r14
	popq	%rbp
	.cfi_def_cfa %rsp, 8
	retq
.LBB48_82:                              # %func_exit
	.cfi_def_cfa %rbp, 16
	callq	detect_breach
	jmp	.LBB48_81
.Lfunc_end48:
	.size	compress.6, .Lfunc_end48-compress.6
	.cfi_endproc
                                        # -- End function
	.p2align	4, 0x90         # -- Begin function myMalloc.7
	.type	myMalloc.7,@function
myMalloc.7:                             # @myMalloc.7
	.cfi_startproc
# %bb.0:                                # %entry
	pushq	%rbp
	.cfi_def_cfa_offset 16
	.cfi_offset %rbp, -16
	movq	%rsp, %rbp
	.cfi_def_cfa_register %rbp
	pushq	%rbx
	subq	$24, %rsp
	.cfi_offset %rbx, -24
	movl	$274994023, -16(%rbp)   # imm = 0x10641367
	movl	%edi, -12(%rbp)
	movslq	-12(%rbp), %rdi
	callq	malloc
	movq	%rax, -24(%rbp)
	cmpq	$0, -24(%rbp)
	jne	.LBB49_2
# %bb.1:                                # %if.then
	callq	outOfMemory
.LBB49_2:                               # %if.end
	movq	-24(%rbp), %rbx
	cmpl	$274994023, -16(%rbp)   # imm = 0x10641367
	jne	.LBB49_4
.LBB49_3:
	movq	%rbx, %rax
	addq	$24, %rsp
	popq	%rbx
	popq	%rbp
	.cfi_def_cfa %rsp, 8
	retq
.LBB49_4:                               # %func_exit
	.cfi_def_cfa %rbp, 16
	callq	detect_breach
	jmp	.LBB49_3
.Lfunc_end49:
	.size	myMalloc.7, .Lfunc_end49-myMalloc.7
	.cfi_endproc
                                        # -- End function
	.p2align	4, 0x90         # -- Begin function uInt64_toAscii.8
	.type	uInt64_toAscii.8,@function
uInt64_toAscii.8:                       # @uInt64_toAscii.8
	.cfi_startproc
# %bb.0:                                # %entry
	pushq	%rbp
	.cfi_def_cfa_offset 16
	.cfi_offset %rbp, -16
	movq	%rsp, %rbp
	.cfi_def_cfa_register %rbp
	subq	$80, %rsp
	movl	$1988802452, -12(%rbp)  # imm = 0x768AB794
	movq	%rdi, -32(%rbp)
	movq	%rsi, -40(%rbp)
	movl	$0, -4(%rbp)
	movq	-40(%rbp), %rax
	movq	(%rax), %rax
	movq	%rax, -24(%rbp)
.LBB50_1:                               # %do.body
                                        # =>This Inner Loop Header: Depth=1
	leaq	-24(%rbp), %rdi
	callq	uInt64_qrm10
	movl	%eax, -16(%rbp)
	movl	-16(%rbp), %eax
	addl	$48, %eax
	movslq	-4(%rbp), %rcx
	movb	%al, -80(%rbp,%rcx)
	movl	-4(%rbp), %eax
	addl	$1, %eax
	movl	%eax, -4(%rbp)
# %bb.2:                                # %do.cond
                                        #   in Loop: Header=BB50_1 Depth=1
	leaq	-24(%rbp), %rdi
	callq	uInt64_isZero
	cmpb	$0, %al
	setne	%al
	xorb	$-1, %al
	testb	$1, %al
	jne	.LBB50_1
# %bb.3:                                # %do.end
	movq	-32(%rbp), %rax
	movslq	-4(%rbp), %rcx
	movb	$0, (%rax,%rcx)
	movl	$0, -8(%rbp)
.LBB50_4:                               # %for.cond
                                        # =>This Inner Loop Header: Depth=1
	movl	-8(%rbp), %eax
	cmpl	-4(%rbp), %eax
	jge	.LBB50_7
# %bb.5:                                # %for.body
                                        #   in Loop: Header=BB50_4 Depth=1
	movl	-4(%rbp), %eax
	subl	-8(%rbp), %eax
	subl	$1, %eax
	cltq
	movb	-80(%rbp,%rax), %al
	movq	-32(%rbp), %rcx
	movslq	-8(%rbp), %rdx
	movb	%al, (%rcx,%rdx)
# %bb.6:                                # %for.inc
                                        #   in Loop: Header=BB50_4 Depth=1
	movl	-8(%rbp), %eax
	addl	$1, %eax
	movl	%eax, -8(%rbp)
	jmp	.LBB50_4
.LBB50_7:                               # %for.end
	cmpl	$1988802452, -12(%rbp)  # imm = 0x768AB794
	jne	.LBB50_9
.LBB50_8:
	addq	$80, %rsp
	popq	%rbp
	.cfi_def_cfa %rsp, 8
	retq
.LBB50_9:                               # %func_exit
	.cfi_def_cfa %rbp, 16
	callq	detect_breach
	jmp	.LBB50_8
.Lfunc_end50:
	.size	uInt64_toAscii.8, .Lfunc_end50-uInt64_toAscii.8
	.cfi_endproc
                                        # -- End function
	.p2align	4, 0x90         # -- Begin function myMalloc.9
	.type	myMalloc.9,@function
myMalloc.9:                             # @myMalloc.9
	.cfi_startproc
# %bb.0:                                # %entry
	pushq	%rbp
	.cfi_def_cfa_offset 16
	.cfi_offset %rbp, -16
	movq	%rsp, %rbp
	.cfi_def_cfa_register %rbp
	pushq	%rbx
	subq	$24, %rsp
	.cfi_offset %rbx, -24
	movl	$1003056492, -12(%rbp)  # imm = 0x3BC96D6C
	movl	%edi, -16(%rbp)
	movslq	-16(%rbp), %rdi
	callq	malloc
	movq	%rax, -24(%rbp)
	cmpq	$0, -24(%rbp)
	jne	.LBB51_2
# %bb.1:                                # %if.then
	callq	outOfMemory
.LBB51_2:                               # %if.end
	movq	-24(%rbp), %rbx
	cmpl	$1003056492, -12(%rbp)  # imm = 0x3BC96D6C
	jne	.LBB51_4
.LBB51_3:
	movq	%rbx, %rax
	addq	$24, %rsp
	popq	%rbx
	popq	%rbp
	.cfi_def_cfa %rsp, 8
	retq
.LBB51_4:                               # %func_exit
	.cfi_def_cfa %rbp, 16
	callq	detect_breach
	jmp	.LBB51_3
.Lfunc_end51:
	.size	myMalloc.9, .Lfunc_end51-myMalloc.9
	.cfi_endproc
                                        # -- End function
	.p2align	4, 0x90         # -- Begin function testf.10
	.type	testf.10,@function
testf.10:                               # @testf.10
	.cfi_startproc
# %bb.0:                                # %entry
	pushq	%rbp
	.cfi_def_cfa_offset 16
	.cfi_offset %rbp, -16
	movq	%rsp, %rbp
	.cfi_def_cfa_register %rbp
	pushq	%r14
	pushq	%rbx
	subq	$176, %rsp
	.cfi_offset %rbx, -32
	.cfi_offset %r14, -24
	movl	$808285335, -44(%rbp)   # imm = 0x302D7497
	movq	%rdi, -40(%rbp)
	movb	$0, deleteOutputOnInterrupt
	cmpq	$0, -40(%rbp)
	jne	.LBB52_3
# %bb.1:                                # %land.lhs.true
	cmpl	$1, srcMode
	je	.LBB52_3
# %bb.2:                                # %if.then
	movabsq	$.L.str.94, %rdi
	callq	panic
.LBB52_3:                               # %if.end
	movl	$outName, %edi
	movl	$.L.str, %esi
	callq	copyFileName
	movl	srcMode(%rip), %eax
	movl	%eax, %ecx
	subl	$1, %ecx
	je	.LBB52_6
	jmp	.LBB52_4
.LBB52_4:                               # %if.end
	movl	%eax, %ecx
	subl	$2, %ecx
	je	.LBB52_8
	jmp	.LBB52_5
.LBB52_5:                               # %if.end
	subl	$3, %eax
	je	.LBB52_7
	jmp	.LBB52_9
.LBB52_6:                               # %sw.bb
	movabsq	$inName, %rdi
	movabsq	$.L.str.54, %rsi
	callq	copyFileName
	jmp	.LBB52_9
.LBB52_7:                               # %sw.bb2
	movq	-40(%rbp), %rsi
	movabsq	$inName, %rdi
	callq	copyFileName
	jmp	.LBB52_9
.LBB52_8:                               # %sw.bb3
	movq	-40(%rbp), %rsi
	movabsq	$inName, %rdi
	callq	copyFileName
.LBB52_9:                               # %sw.epilog
	cmpl	$1, srcMode
	je	.LBB52_14
# %bb.10:                               # %land.lhs.true5
	movabsq	$inName, %rdi
	callq	containsDubiousChars
	movzbl	%al, %eax
	cmpl	$0, %eax
	je	.LBB52_14
# %bb.11:                               # %if.then6
	cmpb	$0, noisy
	je	.LBB52_13
# %bb.12:                               # %if.then8
	movq	stderr, %rdi
	movq	progName, %rdx
	movabsq	$.L.str.56, %rsi
	movabsq	$inName, %rcx
	movb	$0, %al
	callq	fprintf
.LBB52_13:                              # %if.end10
	movl	$1, %edi
	callq	setExit
	jmp	.LBB52_37
.LBB52_14:                              # %if.end11
	cmpl	$1, srcMode
	je	.LBB52_17
# %bb.15:                               # %land.lhs.true14
	movabsq	$inName, %rdi
	callq	fileExists
	cmpb	$0, %al
	jne	.LBB52_17
# %bb.16:                               # %if.then17
	movq	stderr, %rbx
	movq	progName, %r14
	callq	__errno_location
	movl	(%rax), %edi
	callq	strerror
	movq	%rbx, %rdi
	movabsq	$.L.str.95, %rsi
	movq	%r14, %rdx
	movabsq	$inName, %rcx
	movq	%rax, %r8
	movb	$0, %al
	callq	fprintf
	movl	$1, %edi
	callq	setExit
	jmp	.LBB52_37
.LBB52_17:                              # %if.end21
	cmpl	$1, srcMode
	je	.LBB52_21
# %bb.18:                               # %if.then24
	movabsq	$inName, %rdi
	leaq	-192(%rbp), %rsi
	callq	stat
	movl	-168(%rbp), %eax
	andl	$61440, %eax            # imm = 0xF000
	cmpl	$16384, %eax            # imm = 0x4000
	jne	.LBB52_20
# %bb.19:                               # %if.then28
	movq	stderr, %rdi
	movq	progName, %rdx
	movabsq	$.L.str.59, %rsi
	movabsq	$inName, %rcx
	movb	$0, %al
	callq	fprintf
	movl	$1, %edi
	callq	setExit
	jmp	.LBB52_37
.LBB52_20:                              # %if.end30
	jmp	.LBB52_21
.LBB52_21:                              # %if.end31
	movl	srcMode(%rip), %eax
	movl	%eax, %ecx
	subl	$1, %ecx
	je	.LBB52_23
	jmp	.LBB52_22
.LBB52_22:                              # %if.end31
	addl	$-2, %eax
	subl	$2, %eax
	jb	.LBB52_26
	jmp	.LBB52_29
.LBB52_23:                              # %sw.bb32
	movq	stdin, %rdi
	callq	fileno
	movl	%eax, %edi
	callq	isatty
	cmpl	$0, %eax
	je	.LBB52_25
# %bb.24:                               # %if.then36
	movq	stderr, %rdi
	movq	progName, %rdx
	movabsq	$.L.str.82, %rsi
	movb	$0, %al
	callq	fprintf
	movq	stderr, %rdi
	movq	progName, %rdx
	movq	progName, %rcx
	movabsq	$.L.str.65, %rsi
	movb	$0, %al
	callq	fprintf
	movl	$1, %edi
	callq	setExit
	jmp	.LBB52_37
.LBB52_25:                              # %if.end39
	movq	stdin, %rax
	movq	%rax, -32(%rbp)
	jmp	.LBB52_30
.LBB52_26:                              # %sw.bb40
	movabsq	$inName, %rdi
	movabsq	$.L.str.66, %rsi
	callq	fopen
	movq	%rax, -32(%rbp)
	cmpq	$0, -32(%rbp)
	jne	.LBB52_28
# %bb.27:                               # %if.then44
	movq	stderr, %rbx
	movq	progName, %r14
	callq	__errno_location
	movl	(%rax), %edi
	callq	strerror
	movq	%rbx, %rdi
	movabsq	$.L.str.83, %rsi
	movq	%r14, %rdx
	movabsq	$inName, %rcx
	movq	%rax, %r8
	movb	$0, %al
	callq	fprintf
	movl	$1, %edi
	callq	setExit
	jmp	.LBB52_37
.LBB52_28:                              # %if.end48
	jmp	.LBB52_30
.LBB52_29:                              # %sw.default
	movabsq	$.L.str.96, %rdi
	callq	panic
.LBB52_30:                              # %sw.epilog49
	cmpl	$1, verbosity
	jl	.LBB52_32
# %bb.31:                               # %if.then52
	movq	stderr, %rdi
	movabsq	$.L.str.70, %rsi
	movabsq	$inName, %rdx
	movb	$0, %al
	callq	fprintf
	movabsq	$inName, %rdi
	callq	pad
	movq	stderr, %rdi
	callq	fflush
.LBB52_32:                              # %if.end55
	movq	$0, outputHandleJustInCase
	movq	-32(%rbp), %rdi
	callq	testStream
	movb	%al, -17(%rbp)
	movzbl	-17(%rbp), %eax
	cmpl	$0, %eax
	je	.LBB52_35
# %bb.33:                               # %land.lhs.true59
	cmpl	$1, verbosity
	jl	.LBB52_35
# %bb.34:                               # %if.then62
	movq	stderr, %rdi
	movabsq	$.L.str.97, %rsi
	movb	$0, %al
	callq	fprintf
.LBB52_35:                              # %if.end64
	cmpb	$0, -17(%rbp)
	jne	.LBB52_37
# %bb.36:                               # %if.then66
	movb	$1, testFailsExist
.LBB52_37:                              # %if.end67
	cmpl	$808285335, -44(%rbp)   # imm = 0x302D7497
	jne	.LBB52_39
.LBB52_38:
	addq	$176, %rsp
	popq	%rbx
	popq	%r14
	popq	%rbp
	.cfi_def_cfa %rsp, 8
	retq
.LBB52_39:                              # %func_exit
	.cfi_def_cfa %rbp, 16
	callq	detect_breach
	jmp	.LBB52_38
.Lfunc_end52:
	.size	testf.10, .Lfunc_end52-testf.10
	.cfi_endproc
                                        # -- End function
	.p2align	4, 0x90         # -- Begin function uncompress.11
	.type	uncompress.11,@function
uncompress.11:                          # @uncompress.11
	.cfi_startproc
# %bb.0:                                # %entry
	pushq	%rbp
	.cfi_def_cfa_offset 16
	.cfi_offset %rbp, -16
	movq	%rsp, %rbp
	.cfi_def_cfa_register %rbp
	pushq	%r14
	pushq	%rbx
	subq	$208, %rsp
	.cfi_offset %rbx, -32
	.cfi_offset %r14, -24
	movl	$1024569677, -64(%rbp)  # imm = 0x3D11B14D
	movq	%rdi, -56(%rbp)
	movb	$0, deleteOutputOnInterrupt
	cmpq	$0, -56(%rbp)
	jne	.LBB53_3
# %bb.1:                                # %land.lhs.true
	cmpl	$1, srcMode
	je	.LBB53_3
# %bb.2:                                # %if.then
	movabsq	$.L.str.79, %rdi
	callq	panic
.LBB53_3:                               # %if.end
	movb	$0, -17(%rbp)
	movl	srcMode(%rip), %eax
	movl	%eax, %ecx
	subl	$1, %ecx
	je	.LBB53_6
	jmp	.LBB53_4
.LBB53_4:                               # %if.end
	movl	%eax, %ecx
	subl	$2, %ecx
	je	.LBB53_14
	jmp	.LBB53_5
.LBB53_5:                               # %if.end
	subl	$3, %eax
	je	.LBB53_7
	jmp	.LBB53_15
.LBB53_6:                               # %sw.bb
	movabsq	$inName, %rdi
	movabsq	$.L.str.54, %rsi
	callq	copyFileName
	movabsq	$outName, %rdi
	movabsq	$.L.str.55, %rsi
	callq	copyFileName
	jmp	.LBB53_15
.LBB53_7:                               # %sw.bb2
	movq	-56(%rbp), %rsi
	movabsq	$inName, %rdi
	callq	copyFileName
	movq	-56(%rbp), %rsi
	movabsq	$outName, %rdi
	callq	copyFileName
	movl	$0, -24(%rbp)
.LBB53_8:                               # %for.cond
                                        # =>This Inner Loop Header: Depth=1
	cmpl	$4, -24(%rbp)
	jge	.LBB53_13
# %bb.9:                                # %for.body
                                        #   in Loop: Header=BB53_8 Depth=1
	movslq	-24(%rbp), %rax
	movq	zSuffix(,%rax,8), %rsi
	movslq	-24(%rbp), %rax
	movq	unzSuffix(,%rax,8), %rdx
	movabsq	$outName, %rdi
	callq	mapSuffix
	cmpb	$0, %al
	je	.LBB53_11
# %bb.10:                               # %if.then6
	jmp	.LBB53_16
.LBB53_11:                              # %if.end7
                                        #   in Loop: Header=BB53_8 Depth=1
	jmp	.LBB53_12
.LBB53_12:                              # %for.inc
                                        #   in Loop: Header=BB53_8 Depth=1
	movl	-24(%rbp), %eax
	addl	$1, %eax
	movl	%eax, -24(%rbp)
	jmp	.LBB53_8
.LBB53_13:                              # %for.end
	movb	$1, -17(%rbp)
	movabsq	$outName, %rdi
	movabsq	$.L.str.80, %rsi
	callq	strcat
	jmp	.LBB53_15
.LBB53_14:                              # %sw.bb9
	movq	-56(%rbp), %rsi
	movabsq	$inName, %rdi
	callq	copyFileName
	movabsq	$outName, %rdi
	movabsq	$.L.str.55, %rsi
	callq	copyFileName
.LBB53_15:                              # %sw.epilog
	jmp	.LBB53_16
.LBB53_16:                              # %zzz
	cmpl	$1, srcMode
	je	.LBB53_21
# %bb.17:                               # %land.lhs.true11
	movabsq	$inName, %rdi
	callq	containsDubiousChars
	movzbl	%al, %eax
	cmpl	$0, %eax
	je	.LBB53_21
# %bb.18:                               # %if.then14
	cmpb	$0, noisy
	je	.LBB53_20
# %bb.19:                               # %if.then16
	movq	stderr, %rdi
	movq	progName, %rdx
	movabsq	$.L.str.56, %rsi
	movabsq	$inName, %rcx
	movb	$0, %al
	callq	fprintf
.LBB53_20:                              # %if.end18
	movl	$1, %edi
	callq	setExit
	jmp	.LBB53_95
.LBB53_21:                              # %if.end19
	cmpl	$1, srcMode
	je	.LBB53_24
# %bb.22:                               # %land.lhs.true22
	movabsq	$inName, %rdi
	callq	fileExists
	cmpb	$0, %al
	jne	.LBB53_24
# %bb.23:                               # %if.then25
	movq	stderr, %rbx
	movq	progName, %r14
	callq	__errno_location
	movl	(%rax), %edi
	callq	strerror
	movq	%rbx, %rdi
	movabsq	$.L.str.57, %rsi
	movq	%r14, %rdx
	movabsq	$inName, %rcx
	movq	%rax, %r8
	movb	$0, %al
	callq	fprintf
	movl	$1, %edi
	callq	setExit
	jmp	.LBB53_95
.LBB53_24:                              # %if.end29
	cmpl	$3, srcMode
	je	.LBB53_26
# %bb.25:                               # %lor.lhs.false
	cmpl	$2, srcMode
	jne	.LBB53_29
.LBB53_26:                              # %if.then34
	movabsq	$inName, %rdi
	leaq	-216(%rbp), %rsi
	callq	stat
	movl	-192(%rbp), %eax
	andl	$61440, %eax            # imm = 0xF000
	cmpl	$16384, %eax            # imm = 0x4000
	jne	.LBB53_28
# %bb.27:                               # %if.then38
	movq	stderr, %rdi
	movq	progName, %rdx
	movabsq	$.L.str.59, %rsi
	movabsq	$inName, %rcx
	movb	$0, %al
	callq	fprintf
	movl	$1, %edi
	callq	setExit
	jmp	.LBB53_95
.LBB53_28:                              # %if.end40
	jmp	.LBB53_29
.LBB53_29:                              # %if.end41
	cmpl	$3, srcMode
	jne	.LBB53_35
# %bb.30:                               # %land.lhs.true44
	cmpb	$0, forceOverwrite
	jne	.LBB53_35
# %bb.31:                               # %land.lhs.true46
	movabsq	$inName, %rdi
	callq	notAStandardFile
	movzbl	%al, %eax
	cmpl	$0, %eax
	je	.LBB53_35
# %bb.32:                               # %if.then50
	cmpb	$0, noisy
	je	.LBB53_34
# %bb.33:                               # %if.then52
	movq	stderr, %rdi
	movq	progName, %rdx
	movabsq	$.L.str.60, %rsi
	movabsq	$inName, %rcx
	movb	$0, %al
	callq	fprintf
.LBB53_34:                              # %if.end54
	movl	$1, %edi
	callq	setExit
	jmp	.LBB53_95
.LBB53_35:                              # %if.end55
	cmpb	$0, -17(%rbp)
	je	.LBB53_39
# %bb.36:                               # %if.then57
	cmpb	$0, noisy
	je	.LBB53_38
# %bb.37:                               # %if.then59
	movq	stderr, %rdi
	movq	progName, %rdx
	movabsq	$.L.str.81, %rsi
	movabsq	$inName, %rcx
	movabsq	$outName, %r8
	movb	$0, %al
	callq	fprintf
.LBB53_38:                              # %if.end61
	jmp	.LBB53_39
.LBB53_39:                              # %if.end62
	cmpl	$3, srcMode
	jne	.LBB53_45
# %bb.40:                               # %land.lhs.true65
	movabsq	$outName, %rdi
	callq	fileExists
	movzbl	%al, %eax
	cmpl	$0, %eax
	je	.LBB53_45
# %bb.41:                               # %if.then69
	cmpb	$0, forceOverwrite
	je	.LBB53_43
# %bb.42:                               # %if.then71
	movabsq	$outName, %rdi
	callq	remove
	jmp	.LBB53_44
.LBB53_43:                              # %if.else
	movq	stderr, %rdi
	movq	progName, %rdx
	movabsq	$.L.str.61, %rsi
	movabsq	$outName, %rcx
	movb	$0, %al
	callq	fprintf
	movl	$1, %edi
	callq	setExit
	jmp	.LBB53_95
.LBB53_44:                              # %if.end74
	jmp	.LBB53_45
.LBB53_45:                              # %if.end75
	cmpl	$3, srcMode
	jne	.LBB53_49
# %bb.46:                               # %land.lhs.true78
	cmpb	$0, forceOverwrite
	jne	.LBB53_49
# %bb.47:                               # %land.lhs.true80
	movabsq	$inName, %rdi
	callq	countHardLinks
	movl	%eax, -44(%rbp)
	cmpl	$0, %eax
	jle	.LBB53_49
# %bb.48:                               # %if.then84
	movq	stderr, %rdi
	movq	progName, %rdx
	movl	-44(%rbp), %r8d
	movl	-44(%rbp), %eax
	cmpl	$1, %eax
	movabsq	$.L.str.63, %rax
	movabsq	$.L.str.34, %r9
	cmovgq	%rax, %r9
	movabsq	$.L.str.62, %rsi
	movabsq	$inName, %rcx
	movb	$0, %al
	callq	fprintf
	movl	$1, %edi
	callq	setExit
	jmp	.LBB53_95
.LBB53_49:                              # %if.end88
	cmpl	$3, srcMode
	jne	.LBB53_51
# %bb.50:                               # %if.then91
	movabsq	$inName, %rdi
	callq	saveInputFileMetaInfo
.LBB53_51:                              # %if.end92
	movl	srcMode(%rip), %eax
	movl	%eax, %ecx
	subl	$1, %ecx
	je	.LBB53_54
	jmp	.LBB53_52
.LBB53_52:                              # %if.end92
	movl	%eax, %ecx
	subl	$2, %ecx
	je	.LBB53_57
	jmp	.LBB53_53
.LBB53_53:                              # %if.end92
	subl	$3, %eax
	je	.LBB53_62
	jmp	.LBB53_71
.LBB53_54:                              # %sw.bb93
	movq	stdin, %rax
	movq	%rax, -32(%rbp)
	movq	stdout, %rax
	movq	%rax, -40(%rbp)
	movq	stdin, %rdi
	callq	fileno
	movl	%eax, %edi
	callq	isatty
	cmpl	$0, %eax
	je	.LBB53_56
# %bb.55:                               # %if.then97
	movq	stderr, %rdi
	movq	progName, %rdx
	movabsq	$.L.str.82, %rsi
	movb	$0, %al
	callq	fprintf
	movq	stderr, %rdi
	movq	progName, %rdx
	movq	progName, %rcx
	movabsq	$.L.str.65, %rsi
	movb	$0, %al
	callq	fprintf
	movl	$1, %edi
	callq	setExit
	jmp	.LBB53_95
.LBB53_56:                              # %if.end100
	jmp	.LBB53_72
.LBB53_57:                              # %sw.bb101
	movabsq	$inName, %rdi
	movabsq	$.L.str.66, %rsi
	callq	fopen
	movq	%rax, -32(%rbp)
	movq	stdout, %rax
	movq	%rax, -40(%rbp)
	cmpq	$0, -32(%rbp)
	jne	.LBB53_61
# %bb.58:                               # %if.then105
	movq	stderr, %rbx
	movq	progName, %r14
	callq	__errno_location
	movl	(%rax), %edi
	callq	strerror
	movq	%rbx, %rdi
	movabsq	$.L.str.83, %rsi
	movq	%r14, %rdx
	movabsq	$inName, %rcx
	movq	%rax, %r8
	movb	$0, %al
	callq	fprintf
	cmpq	$0, -32(%rbp)
	je	.LBB53_60
# %bb.59:                               # %if.then111
	movq	-32(%rbp), %rdi
	callq	fclose
.LBB53_60:                              # %if.end113
	movl	$1, %edi
	callq	setExit
	jmp	.LBB53_95
.LBB53_61:                              # %if.end114
	jmp	.LBB53_72
.LBB53_62:                              # %sw.bb115
	movabsq	$inName, %rdi
	movabsq	$.L.str.66, %rsi
	callq	fopen
	movq	%rax, -32(%rbp)
	movabsq	$outName, %rdi
	movabsq	$.L.str.67, %rsi
	callq	fopen_output_safely
	movq	%rax, -40(%rbp)
	cmpq	$0, -40(%rbp)
	jne	.LBB53_66
# %bb.63:                               # %if.then120
	movq	stderr, %rbx
	movq	progName, %r14
	callq	__errno_location
	movl	(%rax), %edi
	callq	strerror
	movq	%rbx, %rdi
	movabsq	$.L.str.68, %rsi
	movq	%r14, %rdx
	movabsq	$outName, %rcx
	movq	%rax, %r8
	movb	$0, %al
	callq	fprintf
	cmpq	$0, -32(%rbp)
	je	.LBB53_65
# %bb.64:                               # %if.then126
	movq	-32(%rbp), %rdi
	callq	fclose
.LBB53_65:                              # %if.end128
	movl	$1, %edi
	callq	setExit
	jmp	.LBB53_95
.LBB53_66:                              # %if.end129
	cmpq	$0, -32(%rbp)
	jne	.LBB53_70
# %bb.67:                               # %if.then132
	movq	stderr, %rbx
	movq	progName, %r14
	callq	__errno_location
	movl	(%rax), %edi
	callq	strerror
	movq	%rbx, %rdi
	movabsq	$.L.str.57, %rsi
	movq	%r14, %rdx
	movabsq	$inName, %rcx
	movq	%rax, %r8
	movb	$0, %al
	callq	fprintf
	cmpq	$0, -40(%rbp)
	je	.LBB53_69
# %bb.68:                               # %if.then138
	movq	-40(%rbp), %rdi
	callq	fclose
.LBB53_69:                              # %if.end140
	movl	$1, %edi
	callq	setExit
	jmp	.LBB53_95
.LBB53_70:                              # %if.end141
	jmp	.LBB53_72
.LBB53_71:                              # %sw.default
	movabsq	$.L.str.84, %rdi
	callq	panic
.LBB53_72:                              # %sw.epilog142
	cmpl	$1, verbosity
	jl	.LBB53_74
# %bb.73:                               # %if.then145
	movq	stderr, %rdi
	movabsq	$.L.str.70, %rsi
	movabsq	$inName, %rdx
	movb	$0, %al
	callq	fprintf
	movabsq	$inName, %rdi
	callq	pad
	movq	stderr, %rdi
	callq	fflush
.LBB53_74:                              # %if.end148
	movq	-40(%rbp), %rax
	movq	%rax, outputHandleJustInCase
	movb	$1, deleteOutputOnInterrupt
	movq	-32(%rbp), %rdi
	movq	-40(%rbp), %rsi
	callq	uncompressStream
	movb	%al, -18(%rbp)
	movq	$0, outputHandleJustInCase
	cmpb	$0, -18(%rbp)
	je	.LBB53_82
# %bb.75:                               # %if.then151
	cmpl	$3, srcMode
	jne	.LBB53_81
# %bb.76:                               # %if.then154
	movabsq	$outName, %rdi
	callq	applySavedMetaInfoToOutputFile
	movb	$0, deleteOutputOnInterrupt
	cmpb	$0, keepInputFiles
	jne	.LBB53_80
# %bb.77:                               # %if.then156
	movabsq	$inName, %rdi
	callq	remove
	movl	%eax, -68(%rbp)
	cmpl	$0, -68(%rbp)
	je	.LBB53_79
# %bb.78:                               # %if.then160
	callq	ioError
.LBB53_79:                              # %if.end161
	jmp	.LBB53_80
.LBB53_80:                              # %if.end162
	jmp	.LBB53_81
.LBB53_81:                              # %if.end163
	jmp	.LBB53_87
.LBB53_82:                              # %if.else164
	movb	$1, unzFailsExist
	movb	$0, deleteOutputOnInterrupt
	cmpl	$3, srcMode
	jne	.LBB53_86
# %bb.83:                               # %if.then167
	movabsq	$outName, %rdi
	callq	remove
	movl	%eax, -60(%rbp)
	cmpl	$0, -60(%rbp)
	je	.LBB53_85
# %bb.84:                               # %if.then172
	callq	ioError
.LBB53_85:                              # %if.end173
	jmp	.LBB53_86
.LBB53_86:                              # %if.end174
	jmp	.LBB53_87
.LBB53_87:                              # %if.end175
	movb	$0, deleteOutputOnInterrupt
	cmpb	$0, -18(%rbp)
	je	.LBB53_91
# %bb.88:                               # %if.then177
	cmpl	$1, verbosity
	jl	.LBB53_90
# %bb.89:                               # %if.then180
	movq	stderr, %rdi
	movabsq	$.L.str.85, %rsi
	movb	$0, %al
	callq	fprintf
.LBB53_90:                              # %if.end182
	jmp	.LBB53_95
.LBB53_91:                              # %if.else183
	movl	$2, %edi
	callq	setExit
	cmpl	$1, verbosity
	jl	.LBB53_93
# %bb.92:                               # %if.then186
	movq	stderr, %rdi
	movabsq	$.L.str.86, %rsi
	movb	$0, %al
	callq	fprintf
	jmp	.LBB53_94
.LBB53_93:                              # %if.else188
	movq	stderr, %rdi
	movq	progName, %rdx
	movabsq	$.L.str.87, %rsi
	movabsq	$inName, %rcx
	movb	$0, %al
	callq	fprintf
.LBB53_94:                              # %if.end190
	jmp	.LBB53_95
.LBB53_95:                              # %if.end191
	cmpl	$1024569677, -64(%rbp)  # imm = 0x3D11B14D
	jne	.LBB53_97
.LBB53_96:
	addq	$208, %rsp
	popq	%rbx
	popq	%r14
	popq	%rbp
	.cfi_def_cfa %rsp, 8
	retq
.LBB53_97:                              # %func_exit
	.cfi_def_cfa %rbp, 16
	callq	detect_breach
	jmp	.LBB53_96
.Lfunc_end53:
	.size	uncompress.11, .Lfunc_end53-uncompress.11
	.cfi_endproc
                                        # -- End function
	.p2align	4, 0x90         # -- Begin function snocString.12
	.type	snocString.12,@function
snocString.12:                          # @snocString.12
	.cfi_startproc
# %bb.0:                                # %entry
	pushq	%rbp
	.cfi_def_cfa_offset 16
	.cfi_offset %rbp, -16
	movq	%rsp, %rbp
	.cfi_def_cfa_register %rbp
	pushq	%rbx
	subq	$56, %rsp
	.cfi_offset %rbx, -24
	movl	$1693303693, -44(%rbp)  # imm = 0x64EDC38D
	movq	%rdi, -32(%rbp)
	movq	%rsi, -24(%rbp)
	cmpq	$0, -32(%rbp)
	jne	.LBB54_2
# %bb.1:                                # %if.then
	callq	mkCell
	movq	%rax, -40(%rbp)
	movq	-24(%rbp), %rdi
	callq	strlen
	addq	$5, %rax
	movl	%eax, %edi
	callq	myMalloc
	movq	-40(%rbp), %rcx
	movq	%rax, (%rcx)
	movq	-40(%rbp), %rax
	movq	(%rax), %rdi
	movq	-24(%rbp), %rsi
	callq	strcpy
	movq	-40(%rbp), %rax
	movq	%rax, -56(%rbp)
	jmp	.LBB54_6
.LBB54_2:                               # %if.else
	movq	-32(%rbp), %rax
	movq	%rax, -16(%rbp)
.LBB54_3:                               # %while.cond
                                        # =>This Inner Loop Header: Depth=1
	movq	-16(%rbp), %rax
	cmpq	$0, 8(%rax)
	je	.LBB54_5
# %bb.4:                                # %while.body
                                        #   in Loop: Header=BB54_3 Depth=1
	movq	-16(%rbp), %rax
	movq	8(%rax), %rax
	movq	%rax, -16(%rbp)
	jmp	.LBB54_3
.LBB54_5:                               # %while.end
	movq	-16(%rbp), %rax
	movq	8(%rax), %rdi
	movq	-24(%rbp), %rsi
	callq	snocString
	movq	-16(%rbp), %rcx
	movq	%rax, 8(%rcx)
	movq	-32(%rbp), %rax
	movq	%rax, -56(%rbp)
.LBB54_6:                               # %return
	movq	-56(%rbp), %rbx
	cmpl	$1693303693, -44(%rbp)  # imm = 0x64EDC38D
	jne	.LBB54_8
.LBB54_7:
	movq	%rbx, %rax
	addq	$56, %rsp
	popq	%rbx
	popq	%rbp
	.cfi_def_cfa %rsp, 8
	retq
.LBB54_8:                               # %func_exit
	.cfi_def_cfa %rbp, 16
	callq	detect_breach
	jmp	.LBB54_7
.Lfunc_end54:
	.size	snocString.12, .Lfunc_end54-snocString.12
	.cfi_endproc
                                        # -- End function
	.p2align	4, 0x90         # -- Begin function notAStandardFile.13
	.type	notAStandardFile.13,@function
notAStandardFile.13:                    # @notAStandardFile.13
	.cfi_startproc
# %bb.0:                                # %entry
	pushq	%rbp
	.cfi_def_cfa_offset 16
	.cfi_offset %rbp, -16
	movq	%rsp, %rbp
	.cfi_def_cfa_register %rbp
	pushq	%rbx
	subq	$168, %rsp
	.cfi_offset %rbx, -24
	movl	$324342713, -20(%rbp)   # imm = 0x135513B9
	movq	%rdi, -32(%rbp)
	movq	-32(%rbp), %rdi
	leaq	-176(%rbp), %rsi
	callq	lstat
	movl	%eax, -16(%rbp)
	cmpl	$0, -16(%rbp)
	je	.LBB55_2
# %bb.1:                                # %if.then
	movb	$1, -9(%rbp)
	jmp	.LBB55_5
.LBB55_2:                               # %if.end
	movl	-152(%rbp), %eax
	andl	$61440, %eax            # imm = 0xF000
	cmpl	$32768, %eax            # imm = 0x8000
	jne	.LBB55_4
# %bb.3:                                # %if.then2
	movb	$0, -9(%rbp)
	jmp	.LBB55_5
.LBB55_4:                               # %if.end3
	movb	$1, -9(%rbp)
.LBB55_5:                               # %return
	movb	-9(%rbp), %bl
	cmpl	$324342713, -20(%rbp)   # imm = 0x135513B9
	jne	.LBB55_7
.LBB55_6:
	movzbl	%bl, %eax
	addq	$168, %rsp
	popq	%rbx
	popq	%rbp
	.cfi_def_cfa %rsp, 8
	retq
.LBB55_7:                               # %func_exit
	.cfi_def_cfa %rbp, 16
	callq	detect_breach
	jmp	.LBB55_6
.Lfunc_end55:
	.size	notAStandardFile.13, .Lfunc_end55-notAStandardFile.13
	.cfi_endproc
                                        # -- End function
	.section	.rodata.cst8,"aM",@progbits,8
	.p2align	3               # -- Begin function uInt64_to_double.14
.LCPI56_0:
	.quad	4607182418800017408     # double 1
.LCPI56_1:
	.quad	4643211215818981376     # double 256
	.text
	.p2align	4, 0x90
	.type	uInt64_to_double.14,@function
uInt64_to_double.14:                    # @uInt64_to_double.14
	.cfi_startproc
# %bb.0:                                # %entry
	pushq	%rbp
	.cfi_def_cfa_offset 16
	.cfi_offset %rbp, -16
	movq	%rsp, %rbp
	.cfi_def_cfa_register %rbp
	subq	$48, %rsp
	vmovsd	.LCPI56_0(%rip), %xmm0  # xmm0 = mem[0],zero
	movl	$229634170, -28(%rbp)   # imm = 0xDAFF07A
	movq	%rdi, -48(%rbp)
	vmovsd	%xmm0, -16(%rbp)
	vxorps	%xmm0, %xmm0, %xmm0
	vmovsd	%xmm0, -24(%rbp)
	movl	$0, -4(%rbp)
.LBB56_1:                               # %for.cond
                                        # =>This Inner Loop Header: Depth=1
	cmpl	$8, -4(%rbp)
	jge	.LBB56_4
# %bb.2:                                # %for.body
                                        #   in Loop: Header=BB56_1 Depth=1
	vmovsd	.LCPI56_1(%rip), %xmm0  # xmm0 = mem[0],zero
	vmovsd	-16(%rbp), %xmm1        # xmm1 = mem[0],zero
	movq	-48(%rbp), %rax
	movslq	-4(%rbp), %rcx
	movzbl	(%rax,%rcx), %eax
	vcvtsi2sd	%eax, %xmm0, %xmm2
	vmulsd	%xmm2, %xmm1, %xmm1
	vaddsd	-24(%rbp), %xmm1, %xmm1
	vmovsd	%xmm1, -24(%rbp)
	vmulsd	-16(%rbp), %xmm0, %xmm0
	vmovsd	%xmm0, -16(%rbp)
# %bb.3:                                # %for.inc
                                        #   in Loop: Header=BB56_1 Depth=1
	movl	-4(%rbp), %eax
	addl	$1, %eax
	movl	%eax, -4(%rbp)
	jmp	.LBB56_1
.LBB56_4:                               # %for.end
	vmovsd	-24(%rbp), %xmm0        # xmm0 = mem[0],zero
	cmpl	$229634170, -28(%rbp)   # imm = 0xDAFF07A
	jne	.LBB56_6
.LBB56_5:
	addq	$48, %rsp
	popq	%rbp
	.cfi_def_cfa %rsp, 8
	retq
.LBB56_6:                               # %func_exit
	.cfi_def_cfa %rbp, 16
	vmovsd	%xmm0, -40(%rbp)        # 8-byte Spill
	callq	detect_breach
	vmovsd	-40(%rbp), %xmm0        # 8-byte Reload
                                        # xmm0 = mem[0],zero
	jmp	.LBB56_5
.Lfunc_end56:
	.size	uInt64_to_double.14, .Lfunc_end56-uInt64_to_double.14
	.cfi_endproc
                                        # -- End function
	.p2align	4, 0x90         # -- Begin function uncompress.15
	.type	uncompress.15,@function
uncompress.15:                          # @uncompress.15
	.cfi_startproc
# %bb.0:                                # %entry
	pushq	%rbp
	.cfi_def_cfa_offset 16
	.cfi_offset %rbp, -16
	movq	%rsp, %rbp
	.cfi_def_cfa_register %rbp
	pushq	%r14
	pushq	%rbx
	subq	$208, %rsp
	.cfi_offset %rbx, -32
	.cfi_offset %r14, -24
	movl	$1023779827, -68(%rbp)  # imm = 0x3D05A3F3
	movq	%rdi, -56(%rbp)
	movb	$0, deleteOutputOnInterrupt
	cmpq	$0, -56(%rbp)
	jne	.LBB57_3
# %bb.1:                                # %land.lhs.true
	cmpl	$1, srcMode
	je	.LBB57_3
# %bb.2:                                # %if.then
	movabsq	$.L.str.79, %rdi
	callq	panic
.LBB57_3:                               # %if.end
	movb	$0, -17(%rbp)
	movl	srcMode(%rip), %eax
	movl	%eax, %ecx
	subl	$1, %ecx
	je	.LBB57_6
	jmp	.LBB57_4
.LBB57_4:                               # %if.end
	movl	%eax, %ecx
	subl	$2, %ecx
	je	.LBB57_14
	jmp	.LBB57_5
.LBB57_5:                               # %if.end
	subl	$3, %eax
	je	.LBB57_7
	jmp	.LBB57_15
.LBB57_6:                               # %sw.bb
	movabsq	$inName, %rdi
	movabsq	$.L.str.54, %rsi
	callq	copyFileName
	movabsq	$outName, %rdi
	movabsq	$.L.str.55, %rsi
	callq	copyFileName
	jmp	.LBB57_15
.LBB57_7:                               # %sw.bb2
	movq	-56(%rbp), %rsi
	movabsq	$inName, %rdi
	callq	copyFileName
	movq	-56(%rbp), %rsi
	movabsq	$outName, %rdi
	callq	copyFileName
	movl	$0, -24(%rbp)
.LBB57_8:                               # %for.cond
                                        # =>This Inner Loop Header: Depth=1
	cmpl	$4, -24(%rbp)
	jge	.LBB57_13
# %bb.9:                                # %for.body
                                        #   in Loop: Header=BB57_8 Depth=1
	movslq	-24(%rbp), %rax
	movq	zSuffix(,%rax,8), %rsi
	movslq	-24(%rbp), %rax
	movq	unzSuffix(,%rax,8), %rdx
	movabsq	$outName, %rdi
	callq	mapSuffix
	cmpb	$0, %al
	je	.LBB57_11
# %bb.10:                               # %if.then6
	jmp	.LBB57_16
.LBB57_11:                              # %if.end7
                                        #   in Loop: Header=BB57_8 Depth=1
	jmp	.LBB57_12
.LBB57_12:                              # %for.inc
                                        #   in Loop: Header=BB57_8 Depth=1
	movl	-24(%rbp), %eax
	addl	$1, %eax
	movl	%eax, -24(%rbp)
	jmp	.LBB57_8
.LBB57_13:                              # %for.end
	movb	$1, -17(%rbp)
	movabsq	$outName, %rdi
	movabsq	$.L.str.80, %rsi
	callq	strcat
	jmp	.LBB57_15
.LBB57_14:                              # %sw.bb9
	movq	-56(%rbp), %rsi
	movabsq	$inName, %rdi
	callq	copyFileName
	movabsq	$outName, %rdi
	movabsq	$.L.str.55, %rsi
	callq	copyFileName
.LBB57_15:                              # %sw.epilog
	jmp	.LBB57_16
.LBB57_16:                              # %zzz
	cmpl	$1, srcMode
	je	.LBB57_21
# %bb.17:                               # %land.lhs.true11
	movabsq	$inName, %rdi
	callq	containsDubiousChars
	movzbl	%al, %eax
	cmpl	$0, %eax
	je	.LBB57_21
# %bb.18:                               # %if.then14
	cmpb	$0, noisy
	je	.LBB57_20
# %bb.19:                               # %if.then16
	movq	stderr, %rdi
	movq	progName, %rdx
	movabsq	$.L.str.56, %rsi
	movabsq	$inName, %rcx
	movb	$0, %al
	callq	fprintf
.LBB57_20:                              # %if.end18
	movl	$1, %edi
	callq	setExit
	jmp	.LBB57_95
.LBB57_21:                              # %if.end19
	cmpl	$1, srcMode
	je	.LBB57_24
# %bb.22:                               # %land.lhs.true22
	movabsq	$inName, %rdi
	callq	fileExists
	cmpb	$0, %al
	jne	.LBB57_24
# %bb.23:                               # %if.then25
	movq	stderr, %rbx
	movq	progName, %r14
	callq	__errno_location
	movl	(%rax), %edi
	callq	strerror
	movq	%rbx, %rdi
	movabsq	$.L.str.57, %rsi
	movq	%r14, %rdx
	movabsq	$inName, %rcx
	movq	%rax, %r8
	movb	$0, %al
	callq	fprintf
	movl	$1, %edi
	callq	setExit
	jmp	.LBB57_95
.LBB57_24:                              # %if.end29
	cmpl	$3, srcMode
	je	.LBB57_26
# %bb.25:                               # %lor.lhs.false
	cmpl	$2, srcMode
	jne	.LBB57_29
.LBB57_26:                              # %if.then34
	movabsq	$inName, %rdi
	leaq	-216(%rbp), %rsi
	callq	stat
	movl	-192(%rbp), %eax
	andl	$61440, %eax            # imm = 0xF000
	cmpl	$16384, %eax            # imm = 0x4000
	jne	.LBB57_28
# %bb.27:                               # %if.then38
	movq	stderr, %rdi
	movq	progName, %rdx
	movabsq	$.L.str.59, %rsi
	movabsq	$inName, %rcx
	movb	$0, %al
	callq	fprintf
	movl	$1, %edi
	callq	setExit
	jmp	.LBB57_95
.LBB57_28:                              # %if.end40
	jmp	.LBB57_29
.LBB57_29:                              # %if.end41
	cmpl	$3, srcMode
	jne	.LBB57_35
# %bb.30:                               # %land.lhs.true44
	cmpb	$0, forceOverwrite
	jne	.LBB57_35
# %bb.31:                               # %land.lhs.true46
	movabsq	$inName, %rdi
	callq	notAStandardFile
	movzbl	%al, %eax
	cmpl	$0, %eax
	je	.LBB57_35
# %bb.32:                               # %if.then50
	cmpb	$0, noisy
	je	.LBB57_34
# %bb.33:                               # %if.then52
	movq	stderr, %rdi
	movq	progName, %rdx
	movabsq	$.L.str.60, %rsi
	movabsq	$inName, %rcx
	movb	$0, %al
	callq	fprintf
.LBB57_34:                              # %if.end54
	movl	$1, %edi
	callq	setExit
	jmp	.LBB57_95
.LBB57_35:                              # %if.end55
	cmpb	$0, -17(%rbp)
	je	.LBB57_39
# %bb.36:                               # %if.then57
	cmpb	$0, noisy
	je	.LBB57_38
# %bb.37:                               # %if.then59
	movq	stderr, %rdi
	movq	progName, %rdx
	movabsq	$.L.str.81, %rsi
	movabsq	$inName, %rcx
	movabsq	$outName, %r8
	movb	$0, %al
	callq	fprintf
.LBB57_38:                              # %if.end61
	jmp	.LBB57_39
.LBB57_39:                              # %if.end62
	cmpl	$3, srcMode
	jne	.LBB57_45
# %bb.40:                               # %land.lhs.true65
	movabsq	$outName, %rdi
	callq	fileExists
	movzbl	%al, %eax
	cmpl	$0, %eax
	je	.LBB57_45
# %bb.41:                               # %if.then69
	cmpb	$0, forceOverwrite
	je	.LBB57_43
# %bb.42:                               # %if.then71
	movabsq	$outName, %rdi
	callq	remove
	jmp	.LBB57_44
.LBB57_43:                              # %if.else
	movq	stderr, %rdi
	movq	progName, %rdx
	movabsq	$.L.str.61, %rsi
	movabsq	$outName, %rcx
	movb	$0, %al
	callq	fprintf
	movl	$1, %edi
	callq	setExit
	jmp	.LBB57_95
.LBB57_44:                              # %if.end74
	jmp	.LBB57_45
.LBB57_45:                              # %if.end75
	cmpl	$3, srcMode
	jne	.LBB57_49
# %bb.46:                               # %land.lhs.true78
	cmpb	$0, forceOverwrite
	jne	.LBB57_49
# %bb.47:                               # %land.lhs.true80
	movabsq	$inName, %rdi
	callq	countHardLinks
	movl	%eax, -44(%rbp)
	cmpl	$0, %eax
	jle	.LBB57_49
# %bb.48:                               # %if.then84
	movq	stderr, %rdi
	movq	progName, %rdx
	movl	-44(%rbp), %r8d
	movl	-44(%rbp), %eax
	cmpl	$1, %eax
	movabsq	$.L.str.63, %rax
	movabsq	$.L.str.34, %r9
	cmovgq	%rax, %r9
	movabsq	$.L.str.62, %rsi
	movabsq	$inName, %rcx
	movb	$0, %al
	callq	fprintf
	movl	$1, %edi
	callq	setExit
	jmp	.LBB57_95
.LBB57_49:                              # %if.end88
	cmpl	$3, srcMode
	jne	.LBB57_51
# %bb.50:                               # %if.then91
	movabsq	$inName, %rdi
	callq	saveInputFileMetaInfo
.LBB57_51:                              # %if.end92
	movl	srcMode(%rip), %eax
	movl	%eax, %ecx
	subl	$1, %ecx
	je	.LBB57_54
	jmp	.LBB57_52
.LBB57_52:                              # %if.end92
	movl	%eax, %ecx
	subl	$2, %ecx
	je	.LBB57_57
	jmp	.LBB57_53
.LBB57_53:                              # %if.end92
	subl	$3, %eax
	je	.LBB57_62
	jmp	.LBB57_71
.LBB57_54:                              # %sw.bb93
	movq	stdin, %rax
	movq	%rax, -32(%rbp)
	movq	stdout, %rax
	movq	%rax, -40(%rbp)
	movq	stdin, %rdi
	callq	fileno
	movl	%eax, %edi
	callq	isatty
	cmpl	$0, %eax
	je	.LBB57_56
# %bb.55:                               # %if.then97
	movq	stderr, %rdi
	movq	progName, %rdx
	movabsq	$.L.str.82, %rsi
	movb	$0, %al
	callq	fprintf
	movq	stderr, %rdi
	movq	progName, %rdx
	movq	progName, %rcx
	movabsq	$.L.str.65, %rsi
	movb	$0, %al
	callq	fprintf
	movl	$1, %edi
	callq	setExit
	jmp	.LBB57_95
.LBB57_56:                              # %if.end100
	jmp	.LBB57_72
.LBB57_57:                              # %sw.bb101
	movabsq	$inName, %rdi
	movabsq	$.L.str.66, %rsi
	callq	fopen
	movq	%rax, -32(%rbp)
	movq	stdout, %rax
	movq	%rax, -40(%rbp)
	cmpq	$0, -32(%rbp)
	jne	.LBB57_61
# %bb.58:                               # %if.then105
	movq	stderr, %rbx
	movq	progName, %r14
	callq	__errno_location
	movl	(%rax), %edi
	callq	strerror
	movq	%rbx, %rdi
	movabsq	$.L.str.83, %rsi
	movq	%r14, %rdx
	movabsq	$inName, %rcx
	movq	%rax, %r8
	movb	$0, %al
	callq	fprintf
	cmpq	$0, -32(%rbp)
	je	.LBB57_60
# %bb.59:                               # %if.then111
	movq	-32(%rbp), %rdi
	callq	fclose
.LBB57_60:                              # %if.end113
	movl	$1, %edi
	callq	setExit
	jmp	.LBB57_95
.LBB57_61:                              # %if.end114
	jmp	.LBB57_72
.LBB57_62:                              # %sw.bb115
	movabsq	$inName, %rdi
	movabsq	$.L.str.66, %rsi
	callq	fopen
	movq	%rax, -32(%rbp)
	movabsq	$outName, %rdi
	movabsq	$.L.str.67, %rsi
	callq	fopen_output_safely
	movq	%rax, -40(%rbp)
	cmpq	$0, -40(%rbp)
	jne	.LBB57_66
# %bb.63:                               # %if.then120
	movq	stderr, %rbx
	movq	progName, %r14
	callq	__errno_location
	movl	(%rax), %edi
	callq	strerror
	movq	%rbx, %rdi
	movabsq	$.L.str.68, %rsi
	movq	%r14, %rdx
	movabsq	$outName, %rcx
	movq	%rax, %r8
	movb	$0, %al
	callq	fprintf
	cmpq	$0, -32(%rbp)
	je	.LBB57_65
# %bb.64:                               # %if.then126
	movq	-32(%rbp), %rdi
	callq	fclose
.LBB57_65:                              # %if.end128
	movl	$1, %edi
	callq	setExit
	jmp	.LBB57_95
.LBB57_66:                              # %if.end129
	cmpq	$0, -32(%rbp)
	jne	.LBB57_70
# %bb.67:                               # %if.then132
	movq	stderr, %rbx
	movq	progName, %r14
	callq	__errno_location
	movl	(%rax), %edi
	callq	strerror
	movq	%rbx, %rdi
	movabsq	$.L.str.57, %rsi
	movq	%r14, %rdx
	movabsq	$inName, %rcx
	movq	%rax, %r8
	movb	$0, %al
	callq	fprintf
	cmpq	$0, -40(%rbp)
	je	.LBB57_69
# %bb.68:                               # %if.then138
	movq	-40(%rbp), %rdi
	callq	fclose
.LBB57_69:                              # %if.end140
	movl	$1, %edi
	callq	setExit
	jmp	.LBB57_95
.LBB57_70:                              # %if.end141
	jmp	.LBB57_72
.LBB57_71:                              # %sw.default
	movabsq	$.L.str.84, %rdi
	callq	panic
.LBB57_72:                              # %sw.epilog142
	cmpl	$1, verbosity
	jl	.LBB57_74
# %bb.73:                               # %if.then145
	movq	stderr, %rdi
	movabsq	$.L.str.70, %rsi
	movabsq	$inName, %rdx
	movb	$0, %al
	callq	fprintf
	movabsq	$inName, %rdi
	callq	pad
	movq	stderr, %rdi
	callq	fflush
.LBB57_74:                              # %if.end148
	movq	-40(%rbp), %rax
	movq	%rax, outputHandleJustInCase
	movb	$1, deleteOutputOnInterrupt
	movq	-32(%rbp), %rdi
	movq	-40(%rbp), %rsi
	callq	uncompressStream
	movb	%al, -18(%rbp)
	movq	$0, outputHandleJustInCase
	cmpb	$0, -18(%rbp)
	je	.LBB57_82
# %bb.75:                               # %if.then151
	cmpl	$3, srcMode
	jne	.LBB57_81
# %bb.76:                               # %if.then154
	movabsq	$outName, %rdi
	callq	applySavedMetaInfoToOutputFile
	movb	$0, deleteOutputOnInterrupt
	cmpb	$0, keepInputFiles
	jne	.LBB57_80
# %bb.77:                               # %if.then156
	movabsq	$inName, %rdi
	callq	remove
	movl	%eax, -60(%rbp)
	cmpl	$0, -60(%rbp)
	je	.LBB57_79
# %bb.78:                               # %if.then160
	callq	ioError
.LBB57_79:                              # %if.end161
	jmp	.LBB57_80
.LBB57_80:                              # %if.end162
	jmp	.LBB57_81
.LBB57_81:                              # %if.end163
	jmp	.LBB57_87
.LBB57_82:                              # %if.else164
	movb	$1, unzFailsExist
	movb	$0, deleteOutputOnInterrupt
	cmpl	$3, srcMode
	jne	.LBB57_86
# %bb.83:                               # %if.then167
	movabsq	$outName, %rdi
	callq	remove
	movl	%eax, -64(%rbp)
	cmpl	$0, -64(%rbp)
	je	.LBB57_85
# %bb.84:                               # %if.then172
	callq	ioError
.LBB57_85:                              # %if.end173
	jmp	.LBB57_86
.LBB57_86:                              # %if.end174
	jmp	.LBB57_87
.LBB57_87:                              # %if.end175
	movb	$0, deleteOutputOnInterrupt
	cmpb	$0, -18(%rbp)
	je	.LBB57_91
# %bb.88:                               # %if.then177
	cmpl	$1, verbosity
	jl	.LBB57_90
# %bb.89:                               # %if.then180
	movq	stderr, %rdi
	movabsq	$.L.str.85, %rsi
	movb	$0, %al
	callq	fprintf
.LBB57_90:                              # %if.end182
	jmp	.LBB57_95
.LBB57_91:                              # %if.else183
	movl	$2, %edi
	callq	setExit
	cmpl	$1, verbosity
	jl	.LBB57_93
# %bb.92:                               # %if.then186
	movq	stderr, %rdi
	movabsq	$.L.str.86, %rsi
	movb	$0, %al
	callq	fprintf
	jmp	.LBB57_94
.LBB57_93:                              # %if.else188
	movq	stderr, %rdi
	movq	progName, %rdx
	movabsq	$.L.str.87, %rsi
	movabsq	$inName, %rcx
	movb	$0, %al
	callq	fprintf
.LBB57_94:                              # %if.end190
	jmp	.LBB57_95
.LBB57_95:                              # %if.end191
	cmpl	$1023779827, -68(%rbp)  # imm = 0x3D05A3F3
	jne	.LBB57_97
.LBB57_96:
	addq	$208, %rsp
	popq	%rbx
	popq	%r14
	popq	%rbp
	.cfi_def_cfa %rsp, 8
	retq
.LBB57_97:                              # %func_exit
	.cfi_def_cfa %rbp, 16
	callq	detect_breach
	jmp	.LBB57_96
.Lfunc_end57:
	.size	uncompress.15, .Lfunc_end57-uncompress.15
	.cfi_endproc
                                        # -- End function
	.p2align	4, 0x90         # -- Begin function compress.16
	.type	compress.16,@function
compress.16:                            # @compress.16
	.cfi_startproc
# %bb.0:                                # %entry
	pushq	%rbp
	.cfi_def_cfa_offset 16
	.cfi_offset %rbp, -16
	movq	%rsp, %rbp
	.cfi_def_cfa_register %rbp
	pushq	%r14
	pushq	%rbx
	subq	$192, %rsp
	.cfi_offset %rbx, -32
	.cfi_offset %r14, -24
	movl	$2126613263, -64(%rbp)  # imm = 0x7EC18B0F
	movq	%rdi, -56(%rbp)
	movb	$0, deleteOutputOnInterrupt
	cmpq	$0, -56(%rbp)
	jne	.LBB58_3
# %bb.1:                                # %land.lhs.true
	cmpl	$1, srcMode
	je	.LBB58_3
# %bb.2:                                # %if.then
	movabsq	$.L.str.53, %rdi
	callq	panic
.LBB58_3:                               # %if.end
	movl	srcMode(%rip), %eax
	movl	%eax, %ecx
	subl	$1, %ecx
	je	.LBB58_6
	jmp	.LBB58_4
.LBB58_4:                               # %if.end
	movl	%eax, %ecx
	subl	$2, %ecx
	je	.LBB58_8
	jmp	.LBB58_5
.LBB58_5:                               # %if.end
	subl	$3, %eax
	je	.LBB58_7
	jmp	.LBB58_9
.LBB58_6:                               # %sw.bb
	movabsq	$inName, %rdi
	movabsq	$.L.str.54, %rsi
	callq	copyFileName
	movabsq	$outName, %rdi
	movabsq	$.L.str.55, %rsi
	callq	copyFileName
	jmp	.LBB58_9
.LBB58_7:                               # %sw.bb2
	movq	-56(%rbp), %rsi
	movabsq	$inName, %rdi
	callq	copyFileName
	movq	-56(%rbp), %rsi
	movabsq	$outName, %rdi
	callq	copyFileName
	movabsq	$outName, %rdi
	movabsq	$.L.str.30, %rsi
	callq	strcat
	jmp	.LBB58_9
.LBB58_8:                               # %sw.bb3
	movq	-56(%rbp), %rsi
	movabsq	$inName, %rdi
	callq	copyFileName
	movabsq	$outName, %rdi
	movabsq	$.L.str.55, %rsi
	callq	copyFileName
.LBB58_9:                               # %sw.epilog
	cmpl	$1, srcMode
	je	.LBB58_14
# %bb.10:                               # %land.lhs.true5
	movabsq	$inName, %rdi
	callq	containsDubiousChars
	movzbl	%al, %eax
	cmpl	$0, %eax
	je	.LBB58_14
# %bb.11:                               # %if.then7
	cmpb	$0, noisy
	je	.LBB58_13
# %bb.12:                               # %if.then9
	movq	stderr, %rdi
	movq	progName, %rdx
	movabsq	$.L.str.56, %rsi
	movabsq	$inName, %rcx
	movb	$0, %al
	callq	fprintf
.LBB58_13:                              # %if.end11
	movl	$1, %edi
	callq	setExit
	jmp	.LBB58_80
.LBB58_14:                              # %if.end12
	cmpl	$1, srcMode
	je	.LBB58_17
# %bb.15:                               # %land.lhs.true15
	movabsq	$inName, %rdi
	callq	fileExists
	cmpb	$0, %al
	jne	.LBB58_17
# %bb.16:                               # %if.then18
	movq	stderr, %rbx
	movq	progName, %r14
	callq	__errno_location
	movl	(%rax), %edi
	callq	strerror
	movq	%rbx, %rdi
	movabsq	$.L.str.57, %rsi
	movq	%r14, %rdx
	movabsq	$inName, %rcx
	movq	%rax, %r8
	movb	$0, %al
	callq	fprintf
	movl	$1, %edi
	callq	setExit
	jmp	.LBB58_80
.LBB58_17:                              # %if.end22
	movl	$0, -20(%rbp)
.LBB58_18:                              # %for.cond
                                        # =>This Inner Loop Header: Depth=1
	cmpl	$4, -20(%rbp)
	jge	.LBB58_25
# %bb.19:                               # %for.body
                                        #   in Loop: Header=BB58_18 Depth=1
	movslq	-20(%rbp), %rax
	movq	zSuffix(,%rax,8), %rsi
	movabsq	$inName, %rdi
	callq	hasSuffix
	cmpb	$0, %al
	je	.LBB58_23
# %bb.20:                               # %if.then27
	cmpb	$0, noisy
	je	.LBB58_22
# %bb.21:                               # %if.then29
	movq	stderr, %rdi
	movq	progName, %rdx
	movslq	-20(%rbp), %rax
	movq	zSuffix(,%rax,8), %r8
	movabsq	$.L.str.58, %rsi
	movabsq	$inName, %rcx
	movb	$0, %al
	callq	fprintf
.LBB58_22:                              # %if.end33
	movl	$1, %edi
	callq	setExit
	jmp	.LBB58_80
.LBB58_23:                              # %if.end34
                                        #   in Loop: Header=BB58_18 Depth=1
	jmp	.LBB58_24
.LBB58_24:                              # %for.inc
                                        #   in Loop: Header=BB58_18 Depth=1
	movl	-20(%rbp), %eax
	addl	$1, %eax
	movl	%eax, -20(%rbp)
	jmp	.LBB58_18
.LBB58_25:                              # %for.end
	cmpl	$3, srcMode
	je	.LBB58_27
# %bb.26:                               # %lor.lhs.false
	cmpl	$2, srcMode
	jne	.LBB58_30
.LBB58_27:                              # %if.then39
	movabsq	$inName, %rdi
	leaq	-208(%rbp), %rsi
	callq	stat
	movl	-184(%rbp), %eax
	andl	$61440, %eax            # imm = 0xF000
	cmpl	$16384, %eax            # imm = 0x4000
	jne	.LBB58_29
# %bb.28:                               # %if.then43
	movq	stderr, %rdi
	movq	progName, %rdx
	movabsq	$.L.str.59, %rsi
	movabsq	$inName, %rcx
	movb	$0, %al
	callq	fprintf
	movl	$1, %edi
	callq	setExit
	jmp	.LBB58_80
.LBB58_29:                              # %if.end45
	jmp	.LBB58_30
.LBB58_30:                              # %if.end46
	cmpl	$3, srcMode
	jne	.LBB58_36
# %bb.31:                               # %land.lhs.true49
	cmpb	$0, forceOverwrite
	jne	.LBB58_36
# %bb.32:                               # %land.lhs.true51
	movabsq	$inName, %rdi
	callq	notAStandardFile
	movzbl	%al, %eax
	cmpl	$0, %eax
	je	.LBB58_36
# %bb.33:                               # %if.then55
	cmpb	$0, noisy
	je	.LBB58_35
# %bb.34:                               # %if.then57
	movq	stderr, %rdi
	movq	progName, %rdx
	movabsq	$.L.str.60, %rsi
	movabsq	$inName, %rcx
	movb	$0, %al
	callq	fprintf
.LBB58_35:                              # %if.end59
	movl	$1, %edi
	callq	setExit
	jmp	.LBB58_80
.LBB58_36:                              # %if.end60
	cmpl	$3, srcMode
	jne	.LBB58_42
# %bb.37:                               # %land.lhs.true63
	movabsq	$outName, %rdi
	callq	fileExists
	movzbl	%al, %eax
	cmpl	$0, %eax
	je	.LBB58_42
# %bb.38:                               # %if.then67
	cmpb	$0, forceOverwrite
	je	.LBB58_40
# %bb.39:                               # %if.then69
	movabsq	$outName, %rdi
	callq	remove
	jmp	.LBB58_41
.LBB58_40:                              # %if.else
	movq	stderr, %rdi
	movq	progName, %rdx
	movabsq	$.L.str.61, %rsi
	movabsq	$outName, %rcx
	movb	$0, %al
	callq	fprintf
	movl	$1, %edi
	callq	setExit
	jmp	.LBB58_80
.LBB58_41:                              # %if.end72
	jmp	.LBB58_42
.LBB58_42:                              # %if.end73
	cmpl	$3, srcMode
	jne	.LBB58_46
# %bb.43:                               # %land.lhs.true76
	cmpb	$0, forceOverwrite
	jne	.LBB58_46
# %bb.44:                               # %land.lhs.true78
	movabsq	$inName, %rdi
	callq	countHardLinks
	movl	%eax, -44(%rbp)
	cmpl	$0, %eax
	jle	.LBB58_46
# %bb.45:                               # %if.then82
	movq	stderr, %rdi
	movq	progName, %rdx
	movl	-44(%rbp), %r8d
	movl	-44(%rbp), %eax
	cmpl	$1, %eax
	movabsq	$.L.str.63, %rax
	movabsq	$.L.str.34, %r9
	cmovgq	%rax, %r9
	movabsq	$.L.str.62, %rsi
	movabsq	$inName, %rcx
	movb	$0, %al
	callq	fprintf
	movl	$1, %edi
	callq	setExit
	jmp	.LBB58_80
.LBB58_46:                              # %if.end86
	cmpl	$3, srcMode
	jne	.LBB58_48
# %bb.47:                               # %if.then89
	movabsq	$inName, %rdi
	callq	saveInputFileMetaInfo
.LBB58_48:                              # %if.end90
	movl	srcMode(%rip), %eax
	movl	%eax, %ecx
	subl	$1, %ecx
	je	.LBB58_51
	jmp	.LBB58_49
.LBB58_49:                              # %if.end90
	movl	%eax, %ecx
	subl	$2, %ecx
	je	.LBB58_54
	jmp	.LBB58_50
.LBB58_50:                              # %if.end90
	subl	$3, %eax
	je	.LBB58_61
	jmp	.LBB58_70
.LBB58_51:                              # %sw.bb91
	movq	stdin, %rax
	movq	%rax, -32(%rbp)
	movq	stdout, %rax
	movq	%rax, -40(%rbp)
	movq	stdout, %rdi
	callq	fileno
	movl	%eax, %edi
	callq	isatty
	cmpl	$0, %eax
	je	.LBB58_53
# %bb.52:                               # %if.then95
	movq	stderr, %rdi
	movq	progName, %rdx
	movabsq	$.L.str.64, %rsi
	movb	$0, %al
	callq	fprintf
	movq	stderr, %rdi
	movq	progName, %rdx
	movq	progName, %rcx
	movabsq	$.L.str.65, %rsi
	movb	$0, %al
	callq	fprintf
	movl	$1, %edi
	callq	setExit
	jmp	.LBB58_80
.LBB58_53:                              # %if.end98
	jmp	.LBB58_71
.LBB58_54:                              # %sw.bb99
	movabsq	$inName, %rdi
	movabsq	$.L.str.66, %rsi
	callq	fopen
	movq	%rax, -32(%rbp)
	movq	stdout, %rax
	movq	%rax, -40(%rbp)
	movq	stdout, %rdi
	callq	fileno
	movl	%eax, %edi
	callq	isatty
	cmpl	$0, %eax
	je	.LBB58_58
# %bb.55:                               # %if.then104
	movq	stderr, %rdi
	movq	progName, %rdx
	movabsq	$.L.str.64, %rsi
	movb	$0, %al
	callq	fprintf
	movq	stderr, %rdi
	movq	progName, %rdx
	movq	progName, %rcx
	movabsq	$.L.str.65, %rsi
	movb	$0, %al
	callq	fprintf
	cmpq	$0, -32(%rbp)
	je	.LBB58_57
# %bb.56:                               # %if.then109
	movq	-32(%rbp), %rdi
	callq	fclose
.LBB58_57:                              # %if.end111
	movl	$1, %edi
	callq	setExit
	jmp	.LBB58_80
.LBB58_58:                              # %if.end112
	cmpq	$0, -32(%rbp)
	jne	.LBB58_60
# %bb.59:                               # %if.then115
	movq	stderr, %rbx
	movq	progName, %r14
	callq	__errno_location
	movl	(%rax), %edi
	callq	strerror
	movq	%rbx, %rdi
	movabsq	$.L.str.57, %rsi
	movq	%r14, %rdx
	movabsq	$inName, %rcx
	movq	%rax, %r8
	movb	$0, %al
	callq	fprintf
	movl	$1, %edi
	callq	setExit
	jmp	.LBB58_80
.LBB58_60:                              # %if.end119
	jmp	.LBB58_71
.LBB58_61:                              # %sw.bb120
	movabsq	$inName, %rdi
	movabsq	$.L.str.66, %rsi
	callq	fopen
	movq	%rax, -32(%rbp)
	movabsq	$outName, %rdi
	movabsq	$.L.str.67, %rsi
	callq	fopen_output_safely
	movq	%rax, -40(%rbp)
	cmpq	$0, -40(%rbp)
	jne	.LBB58_65
# %bb.62:                               # %if.then125
	movq	stderr, %rbx
	movq	progName, %r14
	callq	__errno_location
	movl	(%rax), %edi
	callq	strerror
	movq	%rbx, %rdi
	movabsq	$.L.str.68, %rsi
	movq	%r14, %rdx
	movabsq	$outName, %rcx
	movq	%rax, %r8
	movb	$0, %al
	callq	fprintf
	cmpq	$0, -32(%rbp)
	je	.LBB58_64
# %bb.63:                               # %if.then131
	movq	-32(%rbp), %rdi
	callq	fclose
.LBB58_64:                              # %if.end133
	movl	$1, %edi
	callq	setExit
	jmp	.LBB58_80
.LBB58_65:                              # %if.end134
	cmpq	$0, -32(%rbp)
	jne	.LBB58_69
# %bb.66:                               # %if.then137
	movq	stderr, %rbx
	movq	progName, %r14
	callq	__errno_location
	movl	(%rax), %edi
	callq	strerror
	movq	%rbx, %rdi
	movabsq	$.L.str.57, %rsi
	movq	%r14, %rdx
	movabsq	$inName, %rcx
	movq	%rax, %r8
	movb	$0, %al
	callq	fprintf
	cmpq	$0, -40(%rbp)
	je	.LBB58_68
# %bb.67:                               # %if.then143
	movq	-40(%rbp), %rdi
	callq	fclose
.LBB58_68:                              # %if.end145
	movl	$1, %edi
	callq	setExit
	jmp	.LBB58_80
.LBB58_69:                              # %if.end146
	jmp	.LBB58_71
.LBB58_70:                              # %sw.default
	movabsq	$.L.str.69, %rdi
	callq	panic
.LBB58_71:                              # %sw.epilog147
	cmpl	$1, verbosity
	jl	.LBB58_73
# %bb.72:                               # %if.then150
	movq	stderr, %rdi
	movabsq	$.L.str.70, %rsi
	movabsq	$inName, %rdx
	movb	$0, %al
	callq	fprintf
	movabsq	$inName, %rdi
	callq	pad
	movq	stderr, %rdi
	callq	fflush
.LBB58_73:                              # %if.end153
	movq	-40(%rbp), %rax
	movq	%rax, outputHandleJustInCase
	movb	$1, deleteOutputOnInterrupt
	movq	-32(%rbp), %rdi
	movq	-40(%rbp), %rsi
	callq	compressStream
	movq	$0, outputHandleJustInCase
	cmpl	$3, srcMode
	jne	.LBB58_79
# %bb.74:                               # %if.then156
	movabsq	$outName, %rdi
	callq	applySavedMetaInfoToOutputFile
	movb	$0, deleteOutputOnInterrupt
	cmpb	$0, keepInputFiles
	jne	.LBB58_78
# %bb.75:                               # %if.then158
	movabsq	$inName, %rdi
	callq	remove
	movl	%eax, -60(%rbp)
	cmpl	$0, -60(%rbp)
	je	.LBB58_77
# %bb.76:                               # %if.then162
	callq	ioError
.LBB58_77:                              # %if.end163
	jmp	.LBB58_78
.LBB58_78:                              # %if.end164
	jmp	.LBB58_79
.LBB58_79:                              # %if.end165
	movb	$0, deleteOutputOnInterrupt
.LBB58_80:                              # %return
	cmpl	$2126613263, -64(%rbp)  # imm = 0x7EC18B0F
	jne	.LBB58_82
.LBB58_81:
	addq	$192, %rsp
	popq	%rbx
	popq	%r14
	popq	%rbp
	.cfi_def_cfa %rsp, 8
	retq
.LBB58_82:                              # %func_exit
	.cfi_def_cfa %rbp, 16
	callq	detect_breach
	jmp	.LBB58_81
.Lfunc_end58:
	.size	compress.16, .Lfunc_end58-compress.16
	.cfi_endproc
                                        # -- End function
	.p2align	4, 0x90         # -- Begin function uInt64_qrm10.17
	.type	uInt64_qrm10.17,@function
uInt64_qrm10.17:                        # @uInt64_qrm10.17
	.cfi_startproc
# %bb.0:                                # %entry
	pushq	%rbp
	.cfi_def_cfa_offset 16
	.cfi_offset %rbp, -16
	movq	%rsp, %rbp
	.cfi_def_cfa_register %rbp
	pushq	%rbx
	subq	$24, %rsp
	.cfi_offset %rbx, -24
	movl	$1834161978, -24(%rbp)  # imm = 0x6D53173A
	movq	%rdi, -32(%rbp)
	movl	$0, -16(%rbp)
	movl	$7, -12(%rbp)
.LBB59_1:                               # %for.cond
                                        # =>This Inner Loop Header: Depth=1
	cmpl	$0, -12(%rbp)
	jl	.LBB59_4
# %bb.2:                                # %for.body
                                        #   in Loop: Header=BB59_1 Depth=1
	movl	-16(%rbp), %eax
	shll	$8, %eax
	movq	-32(%rbp), %rcx
	movslq	-12(%rbp), %rdx
	movzbl	(%rcx,%rdx), %ecx
	addl	%ecx, %eax
	movl	%eax, -20(%rbp)
	movl	-20(%rbp), %eax
	xorl	%edx, %edx
	movl	$10, %ecx
	divl	%ecx
	movq	-32(%rbp), %rdx
	movslq	-12(%rbp), %rsi
	movb	%al, (%rdx,%rsi)
	movl	-20(%rbp), %eax
	xorl	%edx, %edx
	divl	%ecx
	movl	%edx, -16(%rbp)
# %bb.3:                                # %for.inc
                                        #   in Loop: Header=BB59_1 Depth=1
	movl	-12(%rbp), %eax
	addl	$-1, %eax
	movl	%eax, -12(%rbp)
	jmp	.LBB59_1
.LBB59_4:                               # %for.end
	movl	-16(%rbp), %ebx
	cmpl	$1834161978, -24(%rbp)  # imm = 0x6D53173A
	jne	.LBB59_6
.LBB59_5:
	movl	%ebx, %eax
	addq	$24, %rsp
	popq	%rbx
	popq	%rbp
	.cfi_def_cfa %rsp, 8
	retq
.LBB59_6:                               # %func_exit
	.cfi_def_cfa %rbp, 16
	callq	detect_breach
	jmp	.LBB59_5
.Lfunc_end59:
	.size	uInt64_qrm10.17, .Lfunc_end59-uInt64_qrm10.17
	.cfi_endproc
                                        # -- End function
	.p2align	4, 0x90         # -- Begin function myfeof.18
	.type	myfeof.18,@function
myfeof.18:                              # @myfeof.18
	.cfi_startproc
# %bb.0:                                # %entry
	pushq	%rbp
	.cfi_def_cfa_offset 16
	.cfi_offset %rbp, -16
	movq	%rsp, %rbp
	.cfi_def_cfa_register %rbp
	pushq	%rbx
	subq	$24, %rsp
	.cfi_offset %rbx, -24
	movl	$2055486157, -20(%rbp)  # imm = 0x7A843ACD
	movq	%rdi, -32(%rbp)
	movq	-32(%rbp), %rdi
	callq	fgetc
	movl	%eax, -16(%rbp)
	cmpl	$-1, -16(%rbp)
	jne	.LBB60_2
# %bb.1:                                # %if.then
	movb	$1, -9(%rbp)
	jmp	.LBB60_3
.LBB60_2:                               # %if.end
	movl	-16(%rbp), %edi
	movq	-32(%rbp), %rsi
	callq	ungetc
	movb	$0, -9(%rbp)
.LBB60_3:                               # %return
	movb	-9(%rbp), %bl
	cmpl	$2055486157, -20(%rbp)  # imm = 0x7A843ACD
	jne	.LBB60_5
.LBB60_4:
	movzbl	%bl, %eax
	addq	$24, %rsp
	popq	%rbx
	popq	%rbp
	.cfi_def_cfa %rsp, 8
	retq
.LBB60_5:                               # %func_exit
	.cfi_def_cfa %rbp, 16
	callq	detect_breach
	jmp	.LBB60_4
.Lfunc_end60:
	.size	myfeof.18, .Lfunc_end60-myfeof.18
	.cfi_endproc
                                        # -- End function
	.p2align	4, 0x90         # -- Begin function uncompress.19
	.type	uncompress.19,@function
uncompress.19:                          # @uncompress.19
	.cfi_startproc
# %bb.0:                                # %entry
	pushq	%rbp
	.cfi_def_cfa_offset 16
	.cfi_offset %rbp, -16
	movq	%rsp, %rbp
	.cfi_def_cfa_register %rbp
	pushq	%r14
	pushq	%rbx
	subq	$208, %rsp
	.cfi_offset %rbx, -32
	.cfi_offset %r14, -24
	movl	$1378766046, -60(%rbp)  # imm = 0x522E4CDE
	movq	%rdi, -56(%rbp)
	movb	$0, deleteOutputOnInterrupt
	cmpq	$0, -56(%rbp)
	jne	.LBB61_3
# %bb.1:                                # %land.lhs.true
	cmpl	$1, srcMode
	je	.LBB61_3
# %bb.2:                                # %if.then
	movabsq	$.L.str.79, %rdi
	callq	panic
.LBB61_3:                               # %if.end
	movb	$0, -17(%rbp)
	movl	srcMode(%rip), %eax
	movl	%eax, %ecx
	subl	$1, %ecx
	je	.LBB61_6
	jmp	.LBB61_4
.LBB61_4:                               # %if.end
	movl	%eax, %ecx
	subl	$2, %ecx
	je	.LBB61_14
	jmp	.LBB61_5
.LBB61_5:                               # %if.end
	subl	$3, %eax
	je	.LBB61_7
	jmp	.LBB61_15
.LBB61_6:                               # %sw.bb
	movabsq	$inName, %rdi
	movabsq	$.L.str.54, %rsi
	callq	copyFileName
	movabsq	$outName, %rdi
	movabsq	$.L.str.55, %rsi
	callq	copyFileName
	jmp	.LBB61_15
.LBB61_7:                               # %sw.bb2
	movq	-56(%rbp), %rsi
	movabsq	$inName, %rdi
	callq	copyFileName
	movq	-56(%rbp), %rsi
	movabsq	$outName, %rdi
	callq	copyFileName
	movl	$0, -24(%rbp)
.LBB61_8:                               # %for.cond
                                        # =>This Inner Loop Header: Depth=1
	cmpl	$4, -24(%rbp)
	jge	.LBB61_13
# %bb.9:                                # %for.body
                                        #   in Loop: Header=BB61_8 Depth=1
	movslq	-24(%rbp), %rax
	movq	zSuffix(,%rax,8), %rsi
	movslq	-24(%rbp), %rax
	movq	unzSuffix(,%rax,8), %rdx
	movabsq	$outName, %rdi
	callq	mapSuffix
	cmpb	$0, %al
	je	.LBB61_11
# %bb.10:                               # %if.then6
	jmp	.LBB61_16
.LBB61_11:                              # %if.end7
                                        #   in Loop: Header=BB61_8 Depth=1
	jmp	.LBB61_12
.LBB61_12:                              # %for.inc
                                        #   in Loop: Header=BB61_8 Depth=1
	movl	-24(%rbp), %eax
	addl	$1, %eax
	movl	%eax, -24(%rbp)
	jmp	.LBB61_8
.LBB61_13:                              # %for.end
	movb	$1, -17(%rbp)
	movabsq	$outName, %rdi
	movabsq	$.L.str.80, %rsi
	callq	strcat
	jmp	.LBB61_15
.LBB61_14:                              # %sw.bb9
	movq	-56(%rbp), %rsi
	movabsq	$inName, %rdi
	callq	copyFileName
	movabsq	$outName, %rdi
	movabsq	$.L.str.55, %rsi
	callq	copyFileName
.LBB61_15:                              # %sw.epilog
	jmp	.LBB61_16
.LBB61_16:                              # %zzz
	cmpl	$1, srcMode
	je	.LBB61_21
# %bb.17:                               # %land.lhs.true11
	movabsq	$inName, %rdi
	callq	containsDubiousChars
	movzbl	%al, %eax
	cmpl	$0, %eax
	je	.LBB61_21
# %bb.18:                               # %if.then14
	cmpb	$0, noisy
	je	.LBB61_20
# %bb.19:                               # %if.then16
	movq	stderr, %rdi
	movq	progName, %rdx
	movabsq	$.L.str.56, %rsi
	movabsq	$inName, %rcx
	movb	$0, %al
	callq	fprintf
.LBB61_20:                              # %if.end18
	movl	$1, %edi
	callq	setExit
	jmp	.LBB61_95
.LBB61_21:                              # %if.end19
	cmpl	$1, srcMode
	je	.LBB61_24
# %bb.22:                               # %land.lhs.true22
	movabsq	$inName, %rdi
	callq	fileExists
	cmpb	$0, %al
	jne	.LBB61_24
# %bb.23:                               # %if.then25
	movq	stderr, %rbx
	movq	progName, %r14
	callq	__errno_location
	movl	(%rax), %edi
	callq	strerror
	movq	%rbx, %rdi
	movabsq	$.L.str.57, %rsi
	movq	%r14, %rdx
	movabsq	$inName, %rcx
	movq	%rax, %r8
	movb	$0, %al
	callq	fprintf
	movl	$1, %edi
	callq	setExit
	jmp	.LBB61_95
.LBB61_24:                              # %if.end29
	cmpl	$3, srcMode
	je	.LBB61_26
# %bb.25:                               # %lor.lhs.false
	cmpl	$2, srcMode
	jne	.LBB61_29
.LBB61_26:                              # %if.then34
	movabsq	$inName, %rdi
	leaq	-216(%rbp), %rsi
	callq	stat
	movl	-192(%rbp), %eax
	andl	$61440, %eax            # imm = 0xF000
	cmpl	$16384, %eax            # imm = 0x4000
	jne	.LBB61_28
# %bb.27:                               # %if.then38
	movq	stderr, %rdi
	movq	progName, %rdx
	movabsq	$.L.str.59, %rsi
	movabsq	$inName, %rcx
	movb	$0, %al
	callq	fprintf
	movl	$1, %edi
	callq	setExit
	jmp	.LBB61_95
.LBB61_28:                              # %if.end40
	jmp	.LBB61_29
.LBB61_29:                              # %if.end41
	cmpl	$3, srcMode
	jne	.LBB61_35
# %bb.30:                               # %land.lhs.true44
	cmpb	$0, forceOverwrite
	jne	.LBB61_35
# %bb.31:                               # %land.lhs.true46
	movabsq	$inName, %rdi
	callq	notAStandardFile
	movzbl	%al, %eax
	cmpl	$0, %eax
	je	.LBB61_35
# %bb.32:                               # %if.then50
	cmpb	$0, noisy
	je	.LBB61_34
# %bb.33:                               # %if.then52
	movq	stderr, %rdi
	movq	progName, %rdx
	movabsq	$.L.str.60, %rsi
	movabsq	$inName, %rcx
	movb	$0, %al
	callq	fprintf
.LBB61_34:                              # %if.end54
	movl	$1, %edi
	callq	setExit
	jmp	.LBB61_95
.LBB61_35:                              # %if.end55
	cmpb	$0, -17(%rbp)
	je	.LBB61_39
# %bb.36:                               # %if.then57
	cmpb	$0, noisy
	je	.LBB61_38
# %bb.37:                               # %if.then59
	movq	stderr, %rdi
	movq	progName, %rdx
	movabsq	$.L.str.81, %rsi
	movabsq	$inName, %rcx
	movabsq	$outName, %r8
	movb	$0, %al
	callq	fprintf
.LBB61_38:                              # %if.end61
	jmp	.LBB61_39
.LBB61_39:                              # %if.end62
	cmpl	$3, srcMode
	jne	.LBB61_45
# %bb.40:                               # %land.lhs.true65
	movabsq	$outName, %rdi
	callq	fileExists
	movzbl	%al, %eax
	cmpl	$0, %eax
	je	.LBB61_45
# %bb.41:                               # %if.then69
	cmpb	$0, forceOverwrite
	je	.LBB61_43
# %bb.42:                               # %if.then71
	movabsq	$outName, %rdi
	callq	remove
	jmp	.LBB61_44
.LBB61_43:                              # %if.else
	movq	stderr, %rdi
	movq	progName, %rdx
	movabsq	$.L.str.61, %rsi
	movabsq	$outName, %rcx
	movb	$0, %al
	callq	fprintf
	movl	$1, %edi
	callq	setExit
	jmp	.LBB61_95
.LBB61_44:                              # %if.end74
	jmp	.LBB61_45
.LBB61_45:                              # %if.end75
	cmpl	$3, srcMode
	jne	.LBB61_49
# %bb.46:                               # %land.lhs.true78
	cmpb	$0, forceOverwrite
	jne	.LBB61_49
# %bb.47:                               # %land.lhs.true80
	movabsq	$inName, %rdi
	callq	countHardLinks
	movl	%eax, -44(%rbp)
	cmpl	$0, %eax
	jle	.LBB61_49
# %bb.48:                               # %if.then84
	movq	stderr, %rdi
	movq	progName, %rdx
	movl	-44(%rbp), %r8d
	movl	-44(%rbp), %eax
	cmpl	$1, %eax
	movabsq	$.L.str.63, %rax
	movabsq	$.L.str.34, %r9
	cmovgq	%rax, %r9
	movabsq	$.L.str.62, %rsi
	movabsq	$inName, %rcx
	movb	$0, %al
	callq	fprintf
	movl	$1, %edi
	callq	setExit
	jmp	.LBB61_95
.LBB61_49:                              # %if.end88
	cmpl	$3, srcMode
	jne	.LBB61_51
# %bb.50:                               # %if.then91
	movabsq	$inName, %rdi
	callq	saveInputFileMetaInfo
.LBB61_51:                              # %if.end92
	movl	srcMode(%rip), %eax
	movl	%eax, %ecx
	subl	$1, %ecx
	je	.LBB61_54
	jmp	.LBB61_52
.LBB61_52:                              # %if.end92
	movl	%eax, %ecx
	subl	$2, %ecx
	je	.LBB61_57
	jmp	.LBB61_53
.LBB61_53:                              # %if.end92
	subl	$3, %eax
	je	.LBB61_62
	jmp	.LBB61_71
.LBB61_54:                              # %sw.bb93
	movq	stdin, %rax
	movq	%rax, -32(%rbp)
	movq	stdout, %rax
	movq	%rax, -40(%rbp)
	movq	stdin, %rdi
	callq	fileno
	movl	%eax, %edi
	callq	isatty
	cmpl	$0, %eax
	je	.LBB61_56
# %bb.55:                               # %if.then97
	movq	stderr, %rdi
	movq	progName, %rdx
	movabsq	$.L.str.82, %rsi
	movb	$0, %al
	callq	fprintf
	movq	stderr, %rdi
	movq	progName, %rdx
	movq	progName, %rcx
	movabsq	$.L.str.65, %rsi
	movb	$0, %al
	callq	fprintf
	movl	$1, %edi
	callq	setExit
	jmp	.LBB61_95
.LBB61_56:                              # %if.end100
	jmp	.LBB61_72
.LBB61_57:                              # %sw.bb101
	movabsq	$inName, %rdi
	movabsq	$.L.str.66, %rsi
	callq	fopen
	movq	%rax, -32(%rbp)
	movq	stdout, %rax
	movq	%rax, -40(%rbp)
	cmpq	$0, -32(%rbp)
	jne	.LBB61_61
# %bb.58:                               # %if.then105
	movq	stderr, %rbx
	movq	progName, %r14
	callq	__errno_location
	movl	(%rax), %edi
	callq	strerror
	movq	%rbx, %rdi
	movabsq	$.L.str.83, %rsi
	movq	%r14, %rdx
	movabsq	$inName, %rcx
	movq	%rax, %r8
	movb	$0, %al
	callq	fprintf
	cmpq	$0, -32(%rbp)
	je	.LBB61_60
# %bb.59:                               # %if.then111
	movq	-32(%rbp), %rdi
	callq	fclose
.LBB61_60:                              # %if.end113
	movl	$1, %edi
	callq	setExit
	jmp	.LBB61_95
.LBB61_61:                              # %if.end114
	jmp	.LBB61_72
.LBB61_62:                              # %sw.bb115
	movabsq	$inName, %rdi
	movabsq	$.L.str.66, %rsi
	callq	fopen
	movq	%rax, -32(%rbp)
	movabsq	$outName, %rdi
	movabsq	$.L.str.67, %rsi
	callq	fopen_output_safely
	movq	%rax, -40(%rbp)
	cmpq	$0, -40(%rbp)
	jne	.LBB61_66
# %bb.63:                               # %if.then120
	movq	stderr, %rbx
	movq	progName, %r14
	callq	__errno_location
	movl	(%rax), %edi
	callq	strerror
	movq	%rbx, %rdi
	movabsq	$.L.str.68, %rsi
	movq	%r14, %rdx
	movabsq	$outName, %rcx
	movq	%rax, %r8
	movb	$0, %al
	callq	fprintf
	cmpq	$0, -32(%rbp)
	je	.LBB61_65
# %bb.64:                               # %if.then126
	movq	-32(%rbp), %rdi
	callq	fclose
.LBB61_65:                              # %if.end128
	movl	$1, %edi
	callq	setExit
	jmp	.LBB61_95
.LBB61_66:                              # %if.end129
	cmpq	$0, -32(%rbp)
	jne	.LBB61_70
# %bb.67:                               # %if.then132
	movq	stderr, %rbx
	movq	progName, %r14
	callq	__errno_location
	movl	(%rax), %edi
	callq	strerror
	movq	%rbx, %rdi
	movabsq	$.L.str.57, %rsi
	movq	%r14, %rdx
	movabsq	$inName, %rcx
	movq	%rax, %r8
	movb	$0, %al
	callq	fprintf
	cmpq	$0, -40(%rbp)
	je	.LBB61_69
# %bb.68:                               # %if.then138
	movq	-40(%rbp), %rdi
	callq	fclose
.LBB61_69:                              # %if.end140
	movl	$1, %edi
	callq	setExit
	jmp	.LBB61_95
.LBB61_70:                              # %if.end141
	jmp	.LBB61_72
.LBB61_71:                              # %sw.default
	movabsq	$.L.str.84, %rdi
	callq	panic
.LBB61_72:                              # %sw.epilog142
	cmpl	$1, verbosity
	jl	.LBB61_74
# %bb.73:                               # %if.then145
	movq	stderr, %rdi
	movabsq	$.L.str.70, %rsi
	movabsq	$inName, %rdx
	movb	$0, %al
	callq	fprintf
	movabsq	$inName, %rdi
	callq	pad
	movq	stderr, %rdi
	callq	fflush
.LBB61_74:                              # %if.end148
	movq	-40(%rbp), %rax
	movq	%rax, outputHandleJustInCase
	movb	$1, deleteOutputOnInterrupt
	movq	-32(%rbp), %rdi
	movq	-40(%rbp), %rsi
	callq	uncompressStream
	movb	%al, -18(%rbp)
	movq	$0, outputHandleJustInCase
	cmpb	$0, -18(%rbp)
	je	.LBB61_82
# %bb.75:                               # %if.then151
	cmpl	$3, srcMode
	jne	.LBB61_81
# %bb.76:                               # %if.then154
	movabsq	$outName, %rdi
	callq	applySavedMetaInfoToOutputFile
	movb	$0, deleteOutputOnInterrupt
	cmpb	$0, keepInputFiles
	jne	.LBB61_80
# %bb.77:                               # %if.then156
	movabsq	$inName, %rdi
	callq	remove
	movl	%eax, -68(%rbp)
	cmpl	$0, -68(%rbp)
	je	.LBB61_79
# %bb.78:                               # %if.then160
	callq	ioError
.LBB61_79:                              # %if.end161
	jmp	.LBB61_80
.LBB61_80:                              # %if.end162
	jmp	.LBB61_81
.LBB61_81:                              # %if.end163
	jmp	.LBB61_87
.LBB61_82:                              # %if.else164
	movb	$1, unzFailsExist
	movb	$0, deleteOutputOnInterrupt
	cmpl	$3, srcMode
	jne	.LBB61_86
# %bb.83:                               # %if.then167
	movabsq	$outName, %rdi
	callq	remove
	movl	%eax, -64(%rbp)
	cmpl	$0, -64(%rbp)
	je	.LBB61_85
# %bb.84:                               # %if.then172
	callq	ioError
.LBB61_85:                              # %if.end173
	jmp	.LBB61_86
.LBB61_86:                              # %if.end174
	jmp	.LBB61_87
.LBB61_87:                              # %if.end175
	movb	$0, deleteOutputOnInterrupt
	cmpb	$0, -18(%rbp)
	je	.LBB61_91
# %bb.88:                               # %if.then177
	cmpl	$1, verbosity
	jl	.LBB61_90
# %bb.89:                               # %if.then180
	movq	stderr, %rdi
	movabsq	$.L.str.85, %rsi
	movb	$0, %al
	callq	fprintf
.LBB61_90:                              # %if.end182
	jmp	.LBB61_95
.LBB61_91:                              # %if.else183
	movl	$2, %edi
	callq	setExit
	cmpl	$1, verbosity
	jl	.LBB61_93
# %bb.92:                               # %if.then186
	movq	stderr, %rdi
	movabsq	$.L.str.86, %rsi
	movb	$0, %al
	callq	fprintf
	jmp	.LBB61_94
.LBB61_93:                              # %if.else188
	movq	stderr, %rdi
	movq	progName, %rdx
	movabsq	$.L.str.87, %rsi
	movabsq	$inName, %rcx
	movb	$0, %al
	callq	fprintf
.LBB61_94:                              # %if.end190
	jmp	.LBB61_95
.LBB61_95:                              # %if.end191
	cmpl	$1378766046, -60(%rbp)  # imm = 0x522E4CDE
	jne	.LBB61_97
.LBB61_96:
	addq	$208, %rsp
	popq	%rbx
	popq	%r14
	popq	%rbp
	.cfi_def_cfa %rsp, 8
	retq
.LBB61_97:                              # %func_exit
	.cfi_def_cfa %rbp, 16
	callq	detect_breach
	jmp	.LBB61_96
.Lfunc_end61:
	.size	uncompress.19, .Lfunc_end61-uncompress.19
	.cfi_endproc
                                        # -- End function
	.p2align	4, 0x90         # -- Begin function uInt64_qrm10.20
	.type	uInt64_qrm10.20,@function
uInt64_qrm10.20:                        # @uInt64_qrm10.20
	.cfi_startproc
# %bb.0:                                # %entry
	pushq	%rbp
	.cfi_def_cfa_offset 16
	.cfi_offset %rbp, -16
	movq	%rsp, %rbp
	.cfi_def_cfa_register %rbp
	pushq	%rbx
	subq	$24, %rsp
	.cfi_offset %rbx, -24
	movl	$1957113823, -24(%rbp)  # imm = 0x74A72FDF
	movq	%rdi, -32(%rbp)
	movl	$0, -16(%rbp)
	movl	$7, -12(%rbp)
.LBB62_1:                               # %for.cond
                                        # =>This Inner Loop Header: Depth=1
	cmpl	$0, -12(%rbp)
	jl	.LBB62_4
# %bb.2:                                # %for.body
                                        #   in Loop: Header=BB62_1 Depth=1
	movl	-16(%rbp), %eax
	shll	$8, %eax
	movq	-32(%rbp), %rcx
	movslq	-12(%rbp), %rdx
	movzbl	(%rcx,%rdx), %ecx
	addl	%ecx, %eax
	movl	%eax, -20(%rbp)
	movl	-20(%rbp), %eax
	xorl	%edx, %edx
	movl	$10, %ecx
	divl	%ecx
	movq	-32(%rbp), %rdx
	movslq	-12(%rbp), %rsi
	movb	%al, (%rdx,%rsi)
	movl	-20(%rbp), %eax
	xorl	%edx, %edx
	divl	%ecx
	movl	%edx, -16(%rbp)
# %bb.3:                                # %for.inc
                                        #   in Loop: Header=BB62_1 Depth=1
	movl	-12(%rbp), %eax
	addl	$-1, %eax
	movl	%eax, -12(%rbp)
	jmp	.LBB62_1
.LBB62_4:                               # %for.end
	movl	-16(%rbp), %ebx
	cmpl	$1957113823, -24(%rbp)  # imm = 0x74A72FDF
	jne	.LBB62_6
.LBB62_5:
	movl	%ebx, %eax
	addq	$24, %rsp
	popq	%rbx
	popq	%rbp
	.cfi_def_cfa %rsp, 8
	retq
.LBB62_6:                               # %func_exit
	.cfi_def_cfa %rbp, 16
	callq	detect_breach
	jmp	.LBB62_5
.Lfunc_end62:
	.size	uInt64_qrm10.20, .Lfunc_end62-uInt64_qrm10.20
	.cfi_endproc
                                        # -- End function
	.globl	fopen_output_safely.21  # -- Begin function fopen_output_safely.21
	.p2align	4, 0x90
	.type	fopen_output_safely.21,@function
fopen_output_safely.21:                 # @fopen_output_safely.21
	.cfi_startproc
# %bb.0:                                # %entry
	pushq	%rbp
	.cfi_def_cfa_offset 16
	.cfi_offset %rbp, -16
	movq	%rsp, %rbp
	.cfi_def_cfa_register %rbp
	pushq	%rbx
	subq	$40, %rsp
	.cfi_offset %rbx, -24
	movl	$1996008279, -16(%rbp)  # imm = 0x76F8AB57
	movq	%rdi, -48(%rbp)
	movq	%rsi, -40(%rbp)
	movq	-48(%rbp), %rdi
	movl	$193, %esi
	movl	$384, %edx              # imm = 0x180
	movb	$0, %al
	callq	open
	movl	%eax, -12(%rbp)
	cmpl	$-1, -12(%rbp)
	jne	.LBB63_2
# %bb.1:                                # %if.then
	movq	$0, -32(%rbp)
	jmp	.LBB63_5
.LBB63_2:                               # %if.end
	movl	-12(%rbp), %edi
	movq	-40(%rbp), %rsi
	callq	fdopen
	movq	%rax, -24(%rbp)
	cmpq	$0, -24(%rbp)
	jne	.LBB63_4
# %bb.3:                                # %if.then3
	movl	-12(%rbp), %edi
	callq	close
.LBB63_4:                               # %if.end5
	movq	-24(%rbp), %rax
	movq	%rax, -32(%rbp)
.LBB63_5:                               # %return
	movq	-32(%rbp), %rbx
	cmpl	$1996008279, -16(%rbp)  # imm = 0x76F8AB57
	jne	.LBB63_7
.LBB63_6:
	movq	%rbx, %rax
	addq	$40, %rsp
	popq	%rbx
	popq	%rbp
	.cfi_def_cfa %rsp, 8
	retq
.LBB63_7:                               # %func_exit
	.cfi_def_cfa %rbp, 16
	callq	detect_breach
	jmp	.LBB63_6
.Lfunc_end63:
	.size	fopen_output_safely.21, .Lfunc_end63-fopen_output_safely.21
	.cfi_endproc
                                        # -- End function
	.p2align	4, 0x90         # -- Begin function compress.22
	.type	compress.22,@function
compress.22:                            # @compress.22
	.cfi_startproc
# %bb.0:                                # %entry
	pushq	%rbp
	.cfi_def_cfa_offset 16
	.cfi_offset %rbp, -16
	movq	%rsp, %rbp
	.cfi_def_cfa_register %rbp
	pushq	%r14
	pushq	%rbx
	subq	$192, %rsp
	.cfi_offset %rbx, -32
	.cfi_offset %r14, -24
	movl	$1826860867, -60(%rbp)  # imm = 0x6CE3AF43
	movq	%rdi, -56(%rbp)
	movb	$0, deleteOutputOnInterrupt
	cmpq	$0, -56(%rbp)
	jne	.LBB64_3
# %bb.1:                                # %land.lhs.true
	cmpl	$1, srcMode
	je	.LBB64_3
# %bb.2:                                # %if.then
	movabsq	$.L.str.53, %rdi
	callq	panic
.LBB64_3:                               # %if.end
	movl	srcMode(%rip), %eax
	movl	%eax, %ecx
	subl	$1, %ecx
	je	.LBB64_6
	jmp	.LBB64_4
.LBB64_4:                               # %if.end
	movl	%eax, %ecx
	subl	$2, %ecx
	je	.LBB64_8
	jmp	.LBB64_5
.LBB64_5:                               # %if.end
	subl	$3, %eax
	je	.LBB64_7
	jmp	.LBB64_9
.LBB64_6:                               # %sw.bb
	movabsq	$inName, %rdi
	movabsq	$.L.str.54, %rsi
	callq	copyFileName
	movabsq	$outName, %rdi
	movabsq	$.L.str.55, %rsi
	callq	copyFileName
	jmp	.LBB64_9
.LBB64_7:                               # %sw.bb2
	movq	-56(%rbp), %rsi
	movabsq	$inName, %rdi
	callq	copyFileName
	movq	-56(%rbp), %rsi
	movabsq	$outName, %rdi
	callq	copyFileName
	movabsq	$outName, %rdi
	movabsq	$.L.str.30, %rsi
	callq	strcat
	jmp	.LBB64_9
.LBB64_8:                               # %sw.bb3
	movq	-56(%rbp), %rsi
	movabsq	$inName, %rdi
	callq	copyFileName
	movabsq	$outName, %rdi
	movabsq	$.L.str.55, %rsi
	callq	copyFileName
.LBB64_9:                               # %sw.epilog
	cmpl	$1, srcMode
	je	.LBB64_14
# %bb.10:                               # %land.lhs.true5
	movabsq	$inName, %rdi
	callq	containsDubiousChars
	movzbl	%al, %eax
	cmpl	$0, %eax
	je	.LBB64_14
# %bb.11:                               # %if.then7
	cmpb	$0, noisy
	je	.LBB64_13
# %bb.12:                               # %if.then9
	movq	stderr, %rdi
	movq	progName, %rdx
	movabsq	$.L.str.56, %rsi
	movabsq	$inName, %rcx
	movb	$0, %al
	callq	fprintf
.LBB64_13:                              # %if.end11
	movl	$1, %edi
	callq	setExit
	jmp	.LBB64_80
.LBB64_14:                              # %if.end12
	cmpl	$1, srcMode
	je	.LBB64_17
# %bb.15:                               # %land.lhs.true15
	movabsq	$inName, %rdi
	callq	fileExists
	cmpb	$0, %al
	jne	.LBB64_17
# %bb.16:                               # %if.then18
	movq	stderr, %rbx
	movq	progName, %r14
	callq	__errno_location
	movl	(%rax), %edi
	callq	strerror
	movq	%rbx, %rdi
	movabsq	$.L.str.57, %rsi
	movq	%r14, %rdx
	movabsq	$inName, %rcx
	movq	%rax, %r8
	movb	$0, %al
	callq	fprintf
	movl	$1, %edi
	callq	setExit
	jmp	.LBB64_80
.LBB64_17:                              # %if.end22
	movl	$0, -20(%rbp)
.LBB64_18:                              # %for.cond
                                        # =>This Inner Loop Header: Depth=1
	cmpl	$4, -20(%rbp)
	jge	.LBB64_25
# %bb.19:                               # %for.body
                                        #   in Loop: Header=BB64_18 Depth=1
	movslq	-20(%rbp), %rax
	movq	zSuffix(,%rax,8), %rsi
	movabsq	$inName, %rdi
	callq	hasSuffix
	cmpb	$0, %al
	je	.LBB64_23
# %bb.20:                               # %if.then27
	cmpb	$0, noisy
	je	.LBB64_22
# %bb.21:                               # %if.then29
	movq	stderr, %rdi
	movq	progName, %rdx
	movslq	-20(%rbp), %rax
	movq	zSuffix(,%rax,8), %r8
	movabsq	$.L.str.58, %rsi
	movabsq	$inName, %rcx
	movb	$0, %al
	callq	fprintf
.LBB64_22:                              # %if.end33
	movl	$1, %edi
	callq	setExit
	jmp	.LBB64_80
.LBB64_23:                              # %if.end34
                                        #   in Loop: Header=BB64_18 Depth=1
	jmp	.LBB64_24
.LBB64_24:                              # %for.inc
                                        #   in Loop: Header=BB64_18 Depth=1
	movl	-20(%rbp), %eax
	addl	$1, %eax
	movl	%eax, -20(%rbp)
	jmp	.LBB64_18
.LBB64_25:                              # %for.end
	cmpl	$3, srcMode
	je	.LBB64_27
# %bb.26:                               # %lor.lhs.false
	cmpl	$2, srcMode
	jne	.LBB64_30
.LBB64_27:                              # %if.then39
	movabsq	$inName, %rdi
	leaq	-208(%rbp), %rsi
	callq	stat
	movl	-184(%rbp), %eax
	andl	$61440, %eax            # imm = 0xF000
	cmpl	$16384, %eax            # imm = 0x4000
	jne	.LBB64_29
# %bb.28:                               # %if.then43
	movq	stderr, %rdi
	movq	progName, %rdx
	movabsq	$.L.str.59, %rsi
	movabsq	$inName, %rcx
	movb	$0, %al
	callq	fprintf
	movl	$1, %edi
	callq	setExit
	jmp	.LBB64_80
.LBB64_29:                              # %if.end45
	jmp	.LBB64_30
.LBB64_30:                              # %if.end46
	cmpl	$3, srcMode
	jne	.LBB64_36
# %bb.31:                               # %land.lhs.true49
	cmpb	$0, forceOverwrite
	jne	.LBB64_36
# %bb.32:                               # %land.lhs.true51
	movabsq	$inName, %rdi
	callq	notAStandardFile
	movzbl	%al, %eax
	cmpl	$0, %eax
	je	.LBB64_36
# %bb.33:                               # %if.then55
	cmpb	$0, noisy
	je	.LBB64_35
# %bb.34:                               # %if.then57
	movq	stderr, %rdi
	movq	progName, %rdx
	movabsq	$.L.str.60, %rsi
	movabsq	$inName, %rcx
	movb	$0, %al
	callq	fprintf
.LBB64_35:                              # %if.end59
	movl	$1, %edi
	callq	setExit
	jmp	.LBB64_80
.LBB64_36:                              # %if.end60
	cmpl	$3, srcMode
	jne	.LBB64_42
# %bb.37:                               # %land.lhs.true63
	movabsq	$outName, %rdi
	callq	fileExists
	movzbl	%al, %eax
	cmpl	$0, %eax
	je	.LBB64_42
# %bb.38:                               # %if.then67
	cmpb	$0, forceOverwrite
	je	.LBB64_40
# %bb.39:                               # %if.then69
	movabsq	$outName, %rdi
	callq	remove
	jmp	.LBB64_41
.LBB64_40:                              # %if.else
	movq	stderr, %rdi
	movq	progName, %rdx
	movabsq	$.L.str.61, %rsi
	movabsq	$outName, %rcx
	movb	$0, %al
	callq	fprintf
	movl	$1, %edi
	callq	setExit
	jmp	.LBB64_80
.LBB64_41:                              # %if.end72
	jmp	.LBB64_42
.LBB64_42:                              # %if.end73
	cmpl	$3, srcMode
	jne	.LBB64_46
# %bb.43:                               # %land.lhs.true76
	cmpb	$0, forceOverwrite
	jne	.LBB64_46
# %bb.44:                               # %land.lhs.true78
	movabsq	$inName, %rdi
	callq	countHardLinks
	movl	%eax, -44(%rbp)
	cmpl	$0, %eax
	jle	.LBB64_46
# %bb.45:                               # %if.then82
	movq	stderr, %rdi
	movq	progName, %rdx
	movl	-44(%rbp), %r8d
	movl	-44(%rbp), %eax
	cmpl	$1, %eax
	movabsq	$.L.str.63, %rax
	movabsq	$.L.str.34, %r9
	cmovgq	%rax, %r9
	movabsq	$.L.str.62, %rsi
	movabsq	$inName, %rcx
	movb	$0, %al
	callq	fprintf
	movl	$1, %edi
	callq	setExit
	jmp	.LBB64_80
.LBB64_46:                              # %if.end86
	cmpl	$3, srcMode
	jne	.LBB64_48
# %bb.47:                               # %if.then89
	movabsq	$inName, %rdi
	callq	saveInputFileMetaInfo
.LBB64_48:                              # %if.end90
	movl	srcMode(%rip), %eax
	movl	%eax, %ecx
	subl	$1, %ecx
	je	.LBB64_51
	jmp	.LBB64_49
.LBB64_49:                              # %if.end90
	movl	%eax, %ecx
	subl	$2, %ecx
	je	.LBB64_54
	jmp	.LBB64_50
.LBB64_50:                              # %if.end90
	subl	$3, %eax
	je	.LBB64_61
	jmp	.LBB64_70
.LBB64_51:                              # %sw.bb91
	movq	stdin, %rax
	movq	%rax, -32(%rbp)
	movq	stdout, %rax
	movq	%rax, -40(%rbp)
	movq	stdout, %rdi
	callq	fileno
	movl	%eax, %edi
	callq	isatty
	cmpl	$0, %eax
	je	.LBB64_53
# %bb.52:                               # %if.then95
	movq	stderr, %rdi
	movq	progName, %rdx
	movabsq	$.L.str.64, %rsi
	movb	$0, %al
	callq	fprintf
	movq	stderr, %rdi
	movq	progName, %rdx
	movq	progName, %rcx
	movabsq	$.L.str.65, %rsi
	movb	$0, %al
	callq	fprintf
	movl	$1, %edi
	callq	setExit
	jmp	.LBB64_80
.LBB64_53:                              # %if.end98
	jmp	.LBB64_71
.LBB64_54:                              # %sw.bb99
	movabsq	$inName, %rdi
	movabsq	$.L.str.66, %rsi
	callq	fopen
	movq	%rax, -32(%rbp)
	movq	stdout, %rax
	movq	%rax, -40(%rbp)
	movq	stdout, %rdi
	callq	fileno
	movl	%eax, %edi
	callq	isatty
	cmpl	$0, %eax
	je	.LBB64_58
# %bb.55:                               # %if.then104
	movq	stderr, %rdi
	movq	progName, %rdx
	movabsq	$.L.str.64, %rsi
	movb	$0, %al
	callq	fprintf
	movq	stderr, %rdi
	movq	progName, %rdx
	movq	progName, %rcx
	movabsq	$.L.str.65, %rsi
	movb	$0, %al
	callq	fprintf
	cmpq	$0, -32(%rbp)
	je	.LBB64_57
# %bb.56:                               # %if.then109
	movq	-32(%rbp), %rdi
	callq	fclose
.LBB64_57:                              # %if.end111
	movl	$1, %edi
	callq	setExit
	jmp	.LBB64_80
.LBB64_58:                              # %if.end112
	cmpq	$0, -32(%rbp)
	jne	.LBB64_60
# %bb.59:                               # %if.then115
	movq	stderr, %rbx
	movq	progName, %r14
	callq	__errno_location
	movl	(%rax), %edi
	callq	strerror
	movq	%rbx, %rdi
	movabsq	$.L.str.57, %rsi
	movq	%r14, %rdx
	movabsq	$inName, %rcx
	movq	%rax, %r8
	movb	$0, %al
	callq	fprintf
	movl	$1, %edi
	callq	setExit
	jmp	.LBB64_80
.LBB64_60:                              # %if.end119
	jmp	.LBB64_71
.LBB64_61:                              # %sw.bb120
	movabsq	$inName, %rdi
	movabsq	$.L.str.66, %rsi
	callq	fopen
	movq	%rax, -32(%rbp)
	movabsq	$outName, %rdi
	movabsq	$.L.str.67, %rsi
	callq	fopen_output_safely
	movq	%rax, -40(%rbp)
	cmpq	$0, -40(%rbp)
	jne	.LBB64_65
# %bb.62:                               # %if.then125
	movq	stderr, %rbx
	movq	progName, %r14
	callq	__errno_location
	movl	(%rax), %edi
	callq	strerror
	movq	%rbx, %rdi
	movabsq	$.L.str.68, %rsi
	movq	%r14, %rdx
	movabsq	$outName, %rcx
	movq	%rax, %r8
	movb	$0, %al
	callq	fprintf
	cmpq	$0, -32(%rbp)
	je	.LBB64_64
# %bb.63:                               # %if.then131
	movq	-32(%rbp), %rdi
	callq	fclose
.LBB64_64:                              # %if.end133
	movl	$1, %edi
	callq	setExit
	jmp	.LBB64_80
.LBB64_65:                              # %if.end134
	cmpq	$0, -32(%rbp)
	jne	.LBB64_69
# %bb.66:                               # %if.then137
	movq	stderr, %rbx
	movq	progName, %r14
	callq	__errno_location
	movl	(%rax), %edi
	callq	strerror
	movq	%rbx, %rdi
	movabsq	$.L.str.57, %rsi
	movq	%r14, %rdx
	movabsq	$inName, %rcx
	movq	%rax, %r8
	movb	$0, %al
	callq	fprintf
	cmpq	$0, -40(%rbp)
	je	.LBB64_68
# %bb.67:                               # %if.then143
	movq	-40(%rbp), %rdi
	callq	fclose
.LBB64_68:                              # %if.end145
	movl	$1, %edi
	callq	setExit
	jmp	.LBB64_80
.LBB64_69:                              # %if.end146
	jmp	.LBB64_71
.LBB64_70:                              # %sw.default
	movabsq	$.L.str.69, %rdi
	callq	panic
.LBB64_71:                              # %sw.epilog147
	cmpl	$1, verbosity
	jl	.LBB64_73
# %bb.72:                               # %if.then150
	movq	stderr, %rdi
	movabsq	$.L.str.70, %rsi
	movabsq	$inName, %rdx
	movb	$0, %al
	callq	fprintf
	movabsq	$inName, %rdi
	callq	pad
	movq	stderr, %rdi
	callq	fflush
.LBB64_73:                              # %if.end153
	movq	-40(%rbp), %rax
	movq	%rax, outputHandleJustInCase
	movb	$1, deleteOutputOnInterrupt
	movq	-32(%rbp), %rdi
	movq	-40(%rbp), %rsi
	callq	compressStream
	movq	$0, outputHandleJustInCase
	cmpl	$3, srcMode
	jne	.LBB64_79
# %bb.74:                               # %if.then156
	movabsq	$outName, %rdi
	callq	applySavedMetaInfoToOutputFile
	movb	$0, deleteOutputOnInterrupt
	cmpb	$0, keepInputFiles
	jne	.LBB64_78
# %bb.75:                               # %if.then158
	movabsq	$inName, %rdi
	callq	remove
	movl	%eax, -64(%rbp)
	cmpl	$0, -64(%rbp)
	je	.LBB64_77
# %bb.76:                               # %if.then162
	callq	ioError
.LBB64_77:                              # %if.end163
	jmp	.LBB64_78
.LBB64_78:                              # %if.end164
	jmp	.LBB64_79
.LBB64_79:                              # %if.end165
	movb	$0, deleteOutputOnInterrupt
.LBB64_80:                              # %return
	cmpl	$1826860867, -60(%rbp)  # imm = 0x6CE3AF43
	jne	.LBB64_82
.LBB64_81:
	addq	$192, %rsp
	popq	%rbx
	popq	%r14
	popq	%rbp
	.cfi_def_cfa %rsp, 8
	retq
.LBB64_82:                              # %func_exit
	.cfi_def_cfa %rbp, 16
	callq	detect_breach
	jmp	.LBB64_81
.Lfunc_end64:
	.size	compress.22, .Lfunc_end64-compress.22
	.cfi_endproc
                                        # -- End function
	.p2align	4, 0x90         # -- Begin function uInt64_isZero.23
	.type	uInt64_isZero.23,@function
uInt64_isZero.23:                       # @uInt64_isZero.23
	.cfi_startproc
# %bb.0:                                # %entry
	pushq	%rbp
	.cfi_def_cfa_offset 16
	.cfi_offset %rbp, -16
	movq	%rsp, %rbp
	.cfi_def_cfa_register %rbp
	pushq	%rbx
	subq	$24, %rsp
	.cfi_offset %rbx, -24
	movl	$657495193, -20(%rbp)   # imm = 0x27309499
	movq	%rdi, -32(%rbp)
	movl	$0, -16(%rbp)
.LBB65_1:                               # %for.cond
                                        # =>This Inner Loop Header: Depth=1
	cmpl	$8, -16(%rbp)
	jge	.LBB65_6
# %bb.2:                                # %for.body
                                        #   in Loop: Header=BB65_1 Depth=1
	movq	-32(%rbp), %rax
	movslq	-16(%rbp), %rcx
	movzbl	(%rax,%rcx), %eax
	cmpl	$0, %eax
	je	.LBB65_4
# %bb.3:                                # %if.then
	movb	$0, -9(%rbp)
	jmp	.LBB65_7
.LBB65_4:                               # %if.end
                                        #   in Loop: Header=BB65_1 Depth=1
	jmp	.LBB65_5
.LBB65_5:                               # %for.inc
                                        #   in Loop: Header=BB65_1 Depth=1
	movl	-16(%rbp), %eax
	addl	$1, %eax
	movl	%eax, -16(%rbp)
	jmp	.LBB65_1
.LBB65_6:                               # %for.end
	movb	$1, -9(%rbp)
.LBB65_7:                               # %return
	movb	-9(%rbp), %bl
	cmpl	$657495193, -20(%rbp)   # imm = 0x27309499
	jne	.LBB65_9
.LBB65_8:
	movzbl	%bl, %eax
	addq	$24, %rsp
	popq	%rbx
	popq	%rbp
	.cfi_def_cfa %rsp, 8
	retq
.LBB65_9:                               # %func_exit
	.cfi_def_cfa %rbp, 16
	callq	detect_breach
	jmp	.LBB65_8
.Lfunc_end65:
	.size	uInt64_isZero.23, .Lfunc_end65-uInt64_isZero.23
	.cfi_endproc
                                        # -- End function
	.section	.rodata.cst8,"aM",@progbits,8
	.p2align	3               # -- Begin function compressStream.24
.LCPI66_0:
	.quad	4636737291354636288     # double 100
.LCPI66_1:
	.quad	4607182418800017408     # double 1
.LCPI66_2:
	.quad	4620693217682128896     # double 8
	.text
	.p2align	4, 0x90
	.type	compressStream.24,@function
compressStream.24:                      # @compressStream.24
	.cfi_startproc
# %bb.0:                                # %entry
	pushq	%rbp
	.cfi_def_cfa_offset 16
	.cfi_offset %rbp, -16
	movq	%rsp, %rbp
	.cfi_def_cfa_register %rbp
	subq	$5200, %rsp             # imm = 0x1450
	movl	$1058302993, -76(%rbp)  # imm = 0x3F146C11
	movq	%rdi, -32(%rbp)
	movq	%rsi, -24(%rbp)
	movq	$0, -56(%rbp)
	movq	-32(%rbp), %rdi
	callq	ferror
	cmpl	$0, %eax
	je	.LBB66_2
# %bb.1:                                # %if.then
	jmp	.LBB66_46
.LBB66_2:                               # %if.end
	movq	-24(%rbp), %rdi
	callq	ferror
	cmpl	$0, %eax
	je	.LBB66_4
# %bb.3:                                # %if.then3
	jmp	.LBB66_46
.LBB66_4:                               # %if.end4
	movq	-24(%rbp), %rsi
	movl	blockSize100k, %edx
	movl	verbosity, %ecx
	movl	workFactor, %r8d
	leaq	-4(%rbp), %rdi
	callq	BZ2_bzWriteOpen
	movq	%rax, -56(%rbp)
	cmpl	$0, -4(%rbp)
	je	.LBB66_6
# %bb.5:                                # %if.then6
	jmp	.LBB66_40
.LBB66_6:                               # %if.end7
	cmpl	$2, verbosity
	jl	.LBB66_8
# %bb.7:                                # %if.then9
	movq	stderr, %rdi
	movabsq	$.L.str.73, %rsi
	movb	$0, %al
	callq	fprintf
.LBB66_8:                               # %if.end11
	jmp	.LBB66_9
.LBB66_9:                               # %while.body
                                        # =>This Inner Loop Header: Depth=1
	movq	-32(%rbp), %rdi
	callq	myfeof
	cmpb	$0, %al
	je	.LBB66_11
# %bb.10:                               # %if.then14
	jmp	.LBB66_18
.LBB66_11:                              # %if.end15
                                        #   in Loop: Header=BB66_9 Depth=1
	leaq	-5184(%rbp), %rdi
	movq	-32(%rbp), %rcx
	movl	$1, %esi
	movl	$5000, %edx             # imm = 0x1388
	callq	fread
	movl	%eax, -36(%rbp)
	movq	-32(%rbp), %rdi
	callq	ferror
	cmpl	$0, %eax
	je	.LBB66_13
# %bb.12:                               # %if.then19
	jmp	.LBB66_46
.LBB66_13:                              # %if.end20
                                        #   in Loop: Header=BB66_9 Depth=1
	cmpl	$0, -36(%rbp)
	jle	.LBB66_15
# %bb.14:                               # %if.then23
                                        #   in Loop: Header=BB66_9 Depth=1
	leaq	-5184(%rbp), %rdx
	movq	-56(%rbp), %rsi
	movl	-36(%rbp), %ecx
	leaq	-4(%rbp), %rdi
	callq	BZ2_bzWrite
.LBB66_15:                              # %if.end25
                                        #   in Loop: Header=BB66_9 Depth=1
	cmpl	$0, -4(%rbp)
	je	.LBB66_17
# %bb.16:                               # %if.then28
	jmp	.LBB66_40
.LBB66_17:                              # %if.end29
                                        #   in Loop: Header=BB66_9 Depth=1
	jmp	.LBB66_9
.LBB66_18:                              # %while.end
	movq	-56(%rbp), %rsi
	leaq	-4(%rbp), %rdi
	movl	$0, %edx
	leaq	-16(%rbp), %rcx
	leaq	-12(%rbp), %r8
	leaq	-40(%rbp), %r9
	leaq	-44(%rbp), %rax
	movq	%rax, (%rsp)
	callq	BZ2_bzWriteClose64
	cmpl	$0, -4(%rbp)
	je	.LBB66_20
# %bb.19:                               # %if.then32
	jmp	.LBB66_40
.LBB66_20:                              # %if.end33
	movq	-24(%rbp), %rdi
	callq	ferror
	cmpl	$0, %eax
	je	.LBB66_22
# %bb.21:                               # %if.then36
	jmp	.LBB66_46
.LBB66_22:                              # %if.end37
	movq	-24(%rbp), %rdi
	callq	fflush
	movl	%eax, -8(%rbp)
	cmpl	$-1, -8(%rbp)
	jne	.LBB66_24
# %bb.23:                               # %if.then41
	jmp	.LBB66_46
.LBB66_24:                              # %if.end42
	movq	-24(%rbp), %rax
	cmpq	stdout, %rax
	je	.LBB66_28
# %bb.25:                               # %if.then45
	movq	-24(%rbp), %rdi
	callq	fclose
	movl	%eax, -8(%rbp)
	movq	$0, outputHandleJustInCase
	cmpl	$-1, -8(%rbp)
	jne	.LBB66_27
# %bb.26:                               # %if.then49
	jmp	.LBB66_46
.LBB66_27:                              # %if.end50
	jmp	.LBB66_28
.LBB66_28:                              # %if.end51
	movq	$0, outputHandleJustInCase
	movq	-32(%rbp), %rdi
	callq	ferror
	cmpl	$0, %eax
	je	.LBB66_30
# %bb.29:                               # %if.then54
	jmp	.LBB66_46
.LBB66_30:                              # %if.end55
	movq	-32(%rbp), %rdi
	callq	fclose
	movl	%eax, -8(%rbp)
	cmpl	$-1, -8(%rbp)
	jne	.LBB66_32
# %bb.31:                               # %if.then59
	jmp	.LBB66_46
.LBB66_32:                              # %if.end60
	cmpl	$1, verbosity
	jl	.LBB66_38
# %bb.33:                               # %if.then63
	cmpl	$0, -16(%rbp)
	jne	.LBB66_36
# %bb.34:                               # %land.lhs.true
	cmpl	$0, -12(%rbp)
	jne	.LBB66_36
# %bb.35:                               # %if.then68
	movq	stderr, %rdi
	movabsq	$.L.str.74, %rsi
	movb	$0, %al
	callq	fprintf
	jmp	.LBB66_37
.LBB66_36:                              # %if.else
	movl	-16(%rbp), %esi
	movl	-12(%rbp), %edx
	leaq	-88(%rbp), %rdi
	callq	uInt64_from_UInt32s
	movl	-40(%rbp), %esi
	movl	-44(%rbp), %edx
	leaq	-96(%rbp), %rdi
	callq	uInt64_from_UInt32s
	leaq	-88(%rbp), %rdi
	callq	uInt64_to_double
	vmovsd	%xmm0, -64(%rbp)
	leaq	-96(%rbp), %rdi
	callq	uInt64_to_double
	leaq	-144(%rbp), %rdi
	vmovsd	%xmm0, -72(%rbp)
	leaq	-88(%rbp), %rsi
	callq	uInt64_toAscii
	leaq	-176(%rbp), %rdi
	leaq	-96(%rbp), %rsi
	callq	uInt64_toAscii
	leaq	-176(%rbp), %rcx
	leaq	-144(%rbp), %rdx
	vmovsd	.LCPI66_0(%rip), %xmm2  # xmm2 = mem[0],zero
	vmovsd	.LCPI66_1(%rip), %xmm3  # xmm3 = mem[0],zero
	vmovsd	.LCPI66_2(%rip), %xmm1  # xmm1 = mem[0],zero
	movq	stderr, %rdi
	vmovsd	-64(%rbp), %xmm0        # xmm0 = mem[0],zero
	vdivsd	-72(%rbp), %xmm0, %xmm0
	vmulsd	-72(%rbp), %xmm1, %xmm1
	vdivsd	-64(%rbp), %xmm1, %xmm1
	vmovsd	-72(%rbp), %xmm4        # xmm4 = mem[0],zero
	vdivsd	-64(%rbp), %xmm4, %xmm4
	vsubsd	%xmm4, %xmm3, %xmm3
	vmulsd	%xmm3, %xmm2, %xmm2
	movabsq	$.L.str.75, %rsi
	movb	$3, %al
	callq	fprintf
.LBB66_37:                              # %if.end80
	jmp	.LBB66_38
.LBB66_38:                              # %if.end81
	cmpl	$1058302993, -76(%rbp)  # imm = 0x3F146C11
	jne	.LBB66_48
.LBB66_39:
	addq	$5200, %rsp             # imm = 0x1450
	popq	%rbp
	.cfi_def_cfa %rsp, 8
	retq
.LBB66_40:                              # %errhandler
	.cfi_def_cfa %rbp, 16
	movq	-56(%rbp), %rsi
	leaq	-44(%rbp), %rax
	movq	%rax, (%rsp)
	leaq	-100(%rbp), %rdi
	leaq	-16(%rbp), %rcx
	leaq	-12(%rbp), %r8
	leaq	-40(%rbp), %r9
	movl	$1, %edx
	callq	BZ2_bzWriteClose64
	movl	-4(%rbp), %eax
	movl	%eax, %ecx
	subl	$-9, %ecx
	je	.LBB66_43
	jmp	.LBB66_41
.LBB66_41:                              # %errhandler
	movl	%eax, %ecx
	subl	$-6, %ecx
	je	.LBB66_45
	jmp	.LBB66_42
.LBB66_42:                              # %errhandler
	subl	$-3, %eax
	je	.LBB66_44
	jmp	.LBB66_47
.LBB66_43:                              # %sw.bb
	callq	configError
.LBB66_44:                              # %sw.bb82
	callq	outOfMemory
.LBB66_45:                              # %sw.bb83
	jmp	.LBB66_46
.LBB66_46:                              # %errhandler_io
	callq	ioError
.LBB66_47:                              # %sw.default
	movabsq	$.L.str.76, %rdi
	callq	panic
.LBB66_48:                              # %func_exit
	callq	detect_breach
	jmp	.LBB66_39
.Lfunc_end66:
	.size	compressStream.24, .Lfunc_end66-compressStream.24
	.cfi_endproc
                                        # -- End function
	.p2align	4, 0x90         # -- Begin function uncompressStream.25
	.type	uncompressStream.25,@function
uncompressStream.25:                    # @uncompressStream.25
	.cfi_startproc
# %bb.0:                                # %entry
	pushq	%rbp
	.cfi_def_cfa_offset 16
	.cfi_offset %rbp, -16
	movq	%rsp, %rbp
	.cfi_def_cfa_register %rbp
	pushq	%rbx
	subq	$10104, %rsp            # imm = 0x2778
	.cfi_offset %rbx, -24
	movl	$1346611842, -68(%rbp)  # imm = 0x5043AA82
	movq	%rdi, -32(%rbp)
	movq	%rsi, -24(%rbp)
	movq	$0, -64(%rbp)
	movl	$0, -48(%rbp)
	movl	$0, -52(%rbp)
	movq	-24(%rbp), %rdi
	callq	ferror
	cmpl	$0, %eax
	je	.LBB67_2
# %bb.1:                                # %if.then
	jmp	.LBB67_66
.LBB67_2:                               # %if.end
	movq	-32(%rbp), %rdi
	callq	ferror
	cmpl	$0, %eax
	je	.LBB67_4
# %bb.3:                                # %if.then3
	jmp	.LBB67_66
.LBB67_4:                               # %if.end4
	jmp	.LBB67_5
.LBB67_5:                               # %while.body
                                        # =>This Loop Header: Depth=1
                                        #     Child Loop BB67_9 Depth 2
                                        #     Child Loop BB67_24 Depth 2
	leaq	-10112(%rbp), %r8
	movq	-32(%rbp), %rsi
	movl	verbosity, %edx
	movzbl	smallMode, %ecx
	movl	-48(%rbp), %r9d
	leaq	-16(%rbp), %rdi
	callq	BZ2_bzReadOpen
	movq	%rax, -64(%rbp)
	cmpq	$0, -64(%rbp)
	je	.LBB67_7
# %bb.6:                                # %lor.lhs.false
                                        #   in Loop: Header=BB67_5 Depth=1
	cmpl	$0, -16(%rbp)
	je	.LBB67_8
.LBB67_7:                               # %if.then9
	jmp	.LBB67_62
.LBB67_8:                               # %if.end10
                                        #   in Loop: Header=BB67_5 Depth=1
	movl	-52(%rbp), %eax
	addl	$1, %eax
	movl	%eax, -52(%rbp)
.LBB67_9:                               # %while.cond11
                                        #   Parent Loop BB67_5 Depth=1
                                        # =>  This Inner Loop Header: Depth=2
	cmpl	$0, -16(%rbp)
	jne	.LBB67_19
# %bb.10:                               # %while.body14
                                        #   in Loop: Header=BB67_9 Depth=2
	leaq	-5104(%rbp), %rdx
	movq	-64(%rbp), %rsi
	leaq	-16(%rbp), %rdi
	movl	$5000, %ecx             # imm = 0x1388
	callq	BZ2_bzRead
	movl	%eax, -40(%rbp)
	cmpl	$-5, -16(%rbp)
	jne	.LBB67_12
# %bb.11:                               # %if.then19
	jmp	.LBB67_49
.LBB67_12:                              # %if.end20
                                        #   in Loop: Header=BB67_9 Depth=2
	cmpl	$0, -16(%rbp)
	je	.LBB67_14
# %bb.13:                               # %lor.lhs.false23
                                        #   in Loop: Header=BB67_9 Depth=2
	cmpl	$4, -16(%rbp)
	jne	.LBB67_16
.LBB67_14:                              # %land.lhs.true
                                        #   in Loop: Header=BB67_9 Depth=2
	cmpl	$0, -40(%rbp)
	jle	.LBB67_16
# %bb.15:                               # %if.then28
                                        #   in Loop: Header=BB67_9 Depth=2
	leaq	-5104(%rbp), %rdi
	movslq	-40(%rbp), %rdx
	movq	-24(%rbp), %rcx
	movl	$1, %esi
	callq	fwrite
.LBB67_16:                              # %if.end32
                                        #   in Loop: Header=BB67_9 Depth=2
	movq	-24(%rbp), %rdi
	callq	ferror
	cmpl	$0, %eax
	je	.LBB67_18
# %bb.17:                               # %if.then35
	jmp	.LBB67_66
.LBB67_18:                              # %if.end36
                                        #   in Loop: Header=BB67_9 Depth=2
	jmp	.LBB67_9
.LBB67_19:                              # %while.end
                                        #   in Loop: Header=BB67_5 Depth=1
	cmpl	$4, -16(%rbp)
	je	.LBB67_21
# %bb.20:                               # %if.then39
	jmp	.LBB67_62
.LBB67_21:                              # %if.end40
                                        #   in Loop: Header=BB67_5 Depth=1
	movq	-64(%rbp), %rsi
	leaq	-16(%rbp), %rdi
	leaq	-88(%rbp), %rdx
	leaq	-48(%rbp), %rcx
	callq	BZ2_bzReadGetUnused
	cmpl	$0, -16(%rbp)
	je	.LBB67_23
# %bb.22:                               # %if.then43
	movabsq	$.L.str.88, %rdi
	callq	panic
.LBB67_23:                              # %if.end44
                                        #   in Loop: Header=BB67_5 Depth=1
	movq	-88(%rbp), %rax
	movq	%rax, -80(%rbp)
	movl	$0, -44(%rbp)
.LBB67_24:                              # %for.cond
                                        #   Parent Loop BB67_5 Depth=1
                                        # =>  This Inner Loop Header: Depth=2
	movl	-44(%rbp), %eax
	cmpl	-48(%rbp), %eax
	jge	.LBB67_27
# %bb.25:                               # %for.body
                                        #   in Loop: Header=BB67_24 Depth=2
	movq	-80(%rbp), %rax
	movslq	-44(%rbp), %rcx
	movb	(%rax,%rcx), %al
	movslq	-44(%rbp), %rcx
	movb	%al, -10112(%rbp,%rcx)
# %bb.26:                               # %for.inc
                                        #   in Loop: Header=BB67_24 Depth=2
	movl	-44(%rbp), %eax
	addl	$1, %eax
	movl	%eax, -44(%rbp)
	jmp	.LBB67_24
.LBB67_27:                              # %for.end
                                        #   in Loop: Header=BB67_5 Depth=1
	movq	-64(%rbp), %rsi
	leaq	-16(%rbp), %rdi
	callq	BZ2_bzReadClose
	cmpl	$0, -16(%rbp)
	je	.LBB67_29
# %bb.28:                               # %if.then52
	movabsq	$.L.str.88, %rdi
	callq	panic
.LBB67_29:                              # %if.end53
                                        #   in Loop: Header=BB67_5 Depth=1
	cmpl	$0, -48(%rbp)
	jne	.LBB67_32
# %bb.30:                               # %land.lhs.true56
                                        #   in Loop: Header=BB67_5 Depth=1
	movq	-32(%rbp), %rdi
	callq	myfeof
	movzbl	%al, %eax
	cmpl	$0, %eax
	je	.LBB67_32
# %bb.31:                               # %if.then60
	jmp	.LBB67_33
.LBB67_32:                              # %if.end61
                                        #   in Loop: Header=BB67_5 Depth=1
	jmp	.LBB67_5
.LBB67_33:                              # %while.end62
	jmp	.LBB67_34
.LBB67_34:                              # %closeok
	movq	-32(%rbp), %rdi
	callq	ferror
	cmpl	$0, %eax
	je	.LBB67_36
# %bb.35:                               # %if.then65
	jmp	.LBB67_66
.LBB67_36:                              # %if.end66
	movq	-32(%rbp), %rdi
	callq	fclose
	movl	%eax, -36(%rbp)
	cmpl	$-1, -36(%rbp)
	jne	.LBB67_38
# %bb.37:                               # %if.then70
	jmp	.LBB67_66
.LBB67_38:                              # %if.end71
	movq	-24(%rbp), %rdi
	callq	ferror
	cmpl	$0, %eax
	je	.LBB67_40
# %bb.39:                               # %if.then74
	jmp	.LBB67_66
.LBB67_40:                              # %if.end75
	movq	-24(%rbp), %rdi
	callq	fflush
	movl	%eax, -36(%rbp)
	cmpl	$0, -36(%rbp)
	je	.LBB67_42
# %bb.41:                               # %if.then79
	jmp	.LBB67_66
.LBB67_42:                              # %if.end80
	movq	-24(%rbp), %rax
	cmpq	stdout, %rax
	je	.LBB67_46
# %bb.43:                               # %if.then83
	movq	-24(%rbp), %rdi
	callq	fclose
	movl	%eax, -36(%rbp)
	movq	$0, outputHandleJustInCase
	cmpl	$-1, -36(%rbp)
	jne	.LBB67_45
# %bb.44:                               # %if.then87
	jmp	.LBB67_66
.LBB67_45:                              # %if.end88
	jmp	.LBB67_46
.LBB67_46:                              # %if.end89
	movq	$0, outputHandleJustInCase
	cmpl	$2, verbosity
	jl	.LBB67_48
# %bb.47:                               # %if.then92
	movq	stderr, %rdi
	movabsq	$.L.str.89, %rsi
	movb	$0, %al
	callq	fprintf
.LBB67_48:                              # %if.end94
	movb	$1, -9(%rbp)
	jmp	.LBB67_80
.LBB67_49:                              # %trycat
	cmpb	$0, forceOverwrite
	je	.LBB67_61
# %bb.50:                               # %if.then96
	movq	-32(%rbp), %rdi
	callq	rewind
.LBB67_51:                              # %while.body97
                                        # =>This Inner Loop Header: Depth=1
	movq	-32(%rbp), %rdi
	callq	myfeof
	cmpb	$0, %al
	je	.LBB67_53
# %bb.52:                               # %if.then100
	jmp	.LBB67_60
.LBB67_53:                              # %if.end101
                                        #   in Loop: Header=BB67_51 Depth=1
	leaq	-5104(%rbp), %rdi
	movq	-32(%rbp), %rcx
	movl	$1, %esi
	movl	$5000, %edx             # imm = 0x1388
	callq	fread
	movl	%eax, -40(%rbp)
	movq	-32(%rbp), %rdi
	callq	ferror
	cmpl	$0, %eax
	je	.LBB67_55
# %bb.54:                               # %if.then107
	jmp	.LBB67_66
.LBB67_55:                              # %if.end108
                                        #   in Loop: Header=BB67_51 Depth=1
	cmpl	$0, -40(%rbp)
	jle	.LBB67_57
# %bb.56:                               # %if.then111
                                        #   in Loop: Header=BB67_51 Depth=1
	leaq	-5104(%rbp), %rdi
	movslq	-40(%rbp), %rdx
	movq	-24(%rbp), %rcx
	movl	$1, %esi
	callq	fwrite
.LBB67_57:                              # %if.end115
                                        #   in Loop: Header=BB67_51 Depth=1
	movq	-24(%rbp), %rdi
	callq	ferror
	cmpl	$0, %eax
	je	.LBB67_59
# %bb.58:                               # %if.then118
	jmp	.LBB67_66
.LBB67_59:                              # %if.end119
                                        #   in Loop: Header=BB67_51 Depth=1
	jmp	.LBB67_51
.LBB67_60:                              # %while.end120
	jmp	.LBB67_34
.LBB67_61:                              # %if.end121
	jmp	.LBB67_62
.LBB67_62:                              # %errhandler
	movq	-64(%rbp), %rsi
	leaq	-92(%rbp), %rdi
	callq	BZ2_bzReadClose
	movl	-16(%rbp), %eax
	addl	$9, %eax
	movl	%eax, %ecx
	subl	$6, %ecx
	ja	.LBB67_79
# %bb.63:                               # %errhandler
	movq	.LJTI67_0(,%rax,8), %rax
	jmpq	*%rax
.LBB67_64:                              # %sw.bb
	callq	configError
.LBB67_65:                              # %sw.bb122
	jmp	.LBB67_66
.LBB67_66:                              # %errhandler_io
	callq	ioError
.LBB67_67:                              # %sw.bb123
	callq	crcError
.LBB67_68:                              # %sw.bb124
	callq	outOfMemory
.LBB67_69:                              # %sw.bb125
	callq	compressedStreamEOF
.LBB67_70:                              # %sw.bb126
	movq	-32(%rbp), %rax
	cmpq	stdin, %rax
	je	.LBB67_72
# %bb.71:                               # %if.then129
	movq	-32(%rbp), %rdi
	callq	fclose
.LBB67_72:                              # %if.end131
	movq	-24(%rbp), %rax
	cmpq	stdout, %rax
	je	.LBB67_74
# %bb.73:                               # %if.then134
	movq	-24(%rbp), %rdi
	callq	fclose
.LBB67_74:                              # %if.end136
	cmpl	$1, -52(%rbp)
	jne	.LBB67_76
# %bb.75:                               # %if.then139
	movb	$0, -9(%rbp)
	jmp	.LBB67_80
.LBB67_76:                              # %if.else
	cmpb	$0, noisy
	je	.LBB67_78
# %bb.77:                               # %if.then141
	movq	stderr, %rdi
	movq	progName, %rdx
	movabsq	$.L.str.90, %rsi
	movabsq	$inName, %rcx
	movb	$0, %al
	callq	fprintf
.LBB67_78:                              # %if.end143
	movb	$1, -9(%rbp)
	jmp	.LBB67_80
.LBB67_79:                              # %sw.default
	movabsq	$.L.str.91, %rdi
	callq	panic
.LBB67_80:                              # %return
	movb	-9(%rbp), %bl
	cmpl	$1346611842, -68(%rbp)  # imm = 0x5043AA82
	jne	.LBB67_82
.LBB67_81:
	movzbl	%bl, %eax
	addq	$10104, %rsp            # imm = 0x2778
	popq	%rbx
	popq	%rbp
	.cfi_def_cfa %rsp, 8
	retq
.LBB67_82:                              # %func_exit
	.cfi_def_cfa %rbp, 16
	callq	detect_breach
	jmp	.LBB67_81
.Lfunc_end67:
	.size	uncompressStream.25, .Lfunc_end67-uncompressStream.25
	.cfi_endproc
	.section	.rodata,"a",@progbits
	.p2align	3
.LJTI67_0:
	.quad	.LBB67_64
	.quad	.LBB67_79
	.quad	.LBB67_69
	.quad	.LBB67_65
	.quad	.LBB67_70
	.quad	.LBB67_67
	.quad	.LBB67_68
                                        # -- End function
	.text
	.p2align	4, 0x90         # -- Begin function myfeof.26
	.type	myfeof.26,@function
myfeof.26:                              # @myfeof.26
	.cfi_startproc
# %bb.0:                                # %entry
	pushq	%rbp
	.cfi_def_cfa_offset 16
	.cfi_offset %rbp, -16
	movq	%rsp, %rbp
	.cfi_def_cfa_register %rbp
	pushq	%rbx
	subq	$24, %rsp
	.cfi_offset %rbx, -24
	movl	$952954634, -20(%rbp)   # imm = 0x38CCEF0A
	movq	%rdi, -32(%rbp)
	movq	-32(%rbp), %rdi
	callq	fgetc
	movl	%eax, -16(%rbp)
	cmpl	$-1, -16(%rbp)
	jne	.LBB68_2
# %bb.1:                                # %if.then
	movb	$1, -9(%rbp)
	jmp	.LBB68_3
.LBB68_2:                               # %if.end
	movl	-16(%rbp), %edi
	movq	-32(%rbp), %rsi
	callq	ungetc
	movb	$0, -9(%rbp)
.LBB68_3:                               # %return
	movb	-9(%rbp), %bl
	cmpl	$952954634, -20(%rbp)   # imm = 0x38CCEF0A
	jne	.LBB68_5
.LBB68_4:
	movzbl	%bl, %eax
	addq	$24, %rsp
	popq	%rbx
	popq	%rbp
	.cfi_def_cfa %rsp, 8
	retq
.LBB68_5:                               # %func_exit
	.cfi_def_cfa %rbp, 16
	callq	detect_breach
	jmp	.LBB68_4
.Lfunc_end68:
	.size	myfeof.26, .Lfunc_end68-myfeof.26
	.cfi_endproc
                                        # -- End function
	.p2align	4, 0x90         # -- Begin function saveInputFileMetaInfo.27
	.type	saveInputFileMetaInfo.27,@function
saveInputFileMetaInfo.27:               # @saveInputFileMetaInfo.27
	.cfi_startproc
# %bb.0:                                # %entry
	pushq	%rbp
	.cfi_def_cfa_offset 16
	.cfi_offset %rbp, -16
	movq	%rsp, %rbp
	.cfi_def_cfa_register %rbp
	subq	$16, %rsp
	movl	$597004765, -8(%rbp)    # imm = 0x239591DD
	movq	%rdi, -16(%rbp)
	movq	-16(%rbp), %rdi
	movabsq	$fileMetaInfo, %rsi
	callq	stat
	movl	%eax, -4(%rbp)
	cmpl	$0, -4(%rbp)
	je	.LBB69_2
# %bb.1:                                # %if.then
	callq	ioError
.LBB69_2:                               # %if.end
	cmpl	$597004765, -8(%rbp)    # imm = 0x239591DD
	jne	.LBB69_4
.LBB69_3:
	addq	$16, %rsp
	popq	%rbp
	.cfi_def_cfa %rsp, 8
	retq
.LBB69_4:                               # %func_exit
	.cfi_def_cfa %rbp, 16
	callq	detect_breach
	jmp	.LBB69_3
.Lfunc_end69:
	.size	saveInputFileMetaInfo.27, .Lfunc_end69-saveInputFileMetaInfo.27
	.cfi_endproc
                                        # -- End function
	.p2align	4, 0x90         # -- Begin function uInt64_qrm10.28
	.type	uInt64_qrm10.28,@function
uInt64_qrm10.28:                        # @uInt64_qrm10.28
	.cfi_startproc
# %bb.0:                                # %entry
	pushq	%rbp
	.cfi_def_cfa_offset 16
	.cfi_offset %rbp, -16
	movq	%rsp, %rbp
	.cfi_def_cfa_register %rbp
	pushq	%rbx
	subq	$24, %rsp
	.cfi_offset %rbx, -24
	movl	$809469077, -24(%rbp)   # imm = 0x303F8495
	movq	%rdi, -32(%rbp)
	movl	$0, -16(%rbp)
	movl	$7, -12(%rbp)
.LBB70_1:                               # %for.cond
                                        # =>This Inner Loop Header: Depth=1
	cmpl	$0, -12(%rbp)
	jl	.LBB70_4
# %bb.2:                                # %for.body
                                        #   in Loop: Header=BB70_1 Depth=1
	movl	-16(%rbp), %eax
	shll	$8, %eax
	movq	-32(%rbp), %rcx
	movslq	-12(%rbp), %rdx
	movzbl	(%rcx,%rdx), %ecx
	addl	%ecx, %eax
	movl	%eax, -20(%rbp)
	movl	-20(%rbp), %eax
	xorl	%edx, %edx
	movl	$10, %ecx
	divl	%ecx
	movq	-32(%rbp), %rdx
	movslq	-12(%rbp), %rsi
	movb	%al, (%rdx,%rsi)
	movl	-20(%rbp), %eax
	xorl	%edx, %edx
	divl	%ecx
	movl	%edx, -16(%rbp)
# %bb.3:                                # %for.inc
                                        #   in Loop: Header=BB70_1 Depth=1
	movl	-12(%rbp), %eax
	addl	$-1, %eax
	movl	%eax, -12(%rbp)
	jmp	.LBB70_1
.LBB70_4:                               # %for.end
	movl	-16(%rbp), %ebx
	cmpl	$809469077, -24(%rbp)   # imm = 0x303F8495
	jne	.LBB70_6
.LBB70_5:
	movl	%ebx, %eax
	addq	$24, %rsp
	popq	%rbx
	popq	%rbp
	.cfi_def_cfa %rsp, 8
	retq
.LBB70_6:                               # %func_exit
	.cfi_def_cfa %rbp, 16
	callq	detect_breach
	jmp	.LBB70_5
.Lfunc_end70:
	.size	uInt64_qrm10.28, .Lfunc_end70-uInt64_qrm10.28
	.cfi_endproc
                                        # -- End function
	.p2align	4, 0x90         # -- Begin function addFlagsFromEnvVar.29
	.type	addFlagsFromEnvVar.29,@function
addFlagsFromEnvVar.29:                  # @addFlagsFromEnvVar.29
	.cfi_startproc
# %bb.0:                                # %entry
	pushq	%rbp
	.cfi_def_cfa_offset 16
	.cfi_offset %rbp, -16
	movq	%rsp, %rbp
	.cfi_def_cfa_register %rbp
	subq	$48, %rsp
	movl	$919613593, -24(%rbp)   # imm = 0x36D03099
	movq	%rdi, -40(%rbp)
	movq	%rsi, -48(%rbp)
	movq	-48(%rbp), %rdi
	callq	getenv
	movq	%rax, -32(%rbp)
	cmpq	$0, -32(%rbp)
	je	.LBB71_22
# %bb.1:                                # %if.then
	movq	-32(%rbp), %rax
	movq	%rax, -16(%rbp)
	movl	$0, -4(%rbp)
.LBB71_2:                               # %while.body
                                        # =>This Loop Header: Depth=1
                                        #     Child Loop BB71_5 Depth 2
                                        #     Child Loop BB71_8 Depth 2
                                        #     Child Loop BB71_16 Depth 2
	movq	-16(%rbp), %rax
	movslq	-4(%rbp), %rcx
	movsbl	(%rax,%rcx), %eax
	cmpl	$0, %eax
	jne	.LBB71_4
# %bb.3:                                # %if.then3
	jmp	.LBB71_21
.LBB71_4:                               # %if.end
                                        #   in Loop: Header=BB71_2 Depth=1
	movl	-4(%rbp), %eax
	movq	-16(%rbp), %rcx
	cltq
	addq	%rax, %rcx
	movq	%rcx, -16(%rbp)
	movl	$0, -4(%rbp)
.LBB71_5:                               # %while.cond4
                                        #   Parent Loop BB71_2 Depth=1
                                        # =>  This Inner Loop Header: Depth=2
	callq	__ctype_b_loc
	movq	(%rax), %rax
	movq	-16(%rbp), %rcx
	movsbl	(%rcx), %ecx
	movslq	%ecx, %rcx
	movzwl	(%rax,%rcx,2), %eax
	andl	$8192, %eax             # imm = 0x2000
	cmpl	$0, %eax
	je	.LBB71_7
# %bb.6:                                # %while.body11
                                        #   in Loop: Header=BB71_5 Depth=2
	movq	-16(%rbp), %rax
	addq	$1, %rax
	movq	%rax, -16(%rbp)
	jmp	.LBB71_5
.LBB71_7:                               # %while.end
                                        #   in Loop: Header=BB71_2 Depth=1
	jmp	.LBB71_8
.LBB71_8:                               # %while.cond12
                                        #   Parent Loop BB71_2 Depth=1
                                        # =>  This Inner Loop Header: Depth=2
	xorl	%eax, %eax
	movq	-16(%rbp), %rcx
	movslq	-4(%rbp), %rdx
	movsbl	(%rcx,%rdx), %ecx
	cmpl	$0, %ecx
	je	.LBB71_10
# %bb.9:                                # %land.rhs
                                        #   in Loop: Header=BB71_8 Depth=2
	callq	__ctype_b_loc
	movq	(%rax), %rax
	movq	-16(%rbp), %rcx
	movslq	-4(%rbp), %rdx
	movsbl	(%rcx,%rdx), %ecx
	movslq	%ecx, %rcx
	movzwl	(%rax,%rcx,2), %eax
	andl	$8192, %eax             # imm = 0x2000
	cmpl	$0, %eax
	setne	%al
	xorb	$-1, %al
.LBB71_10:                              # %land.end
                                        #   in Loop: Header=BB71_8 Depth=2
	testb	$1, %al
	jne	.LBB71_11
	jmp	.LBB71_12
.LBB71_11:                              # %while.body27
                                        #   in Loop: Header=BB71_8 Depth=2
	movl	-4(%rbp), %eax
	addl	$1, %eax
	movl	%eax, -4(%rbp)
	jmp	.LBB71_8
.LBB71_12:                              # %while.end28
                                        #   in Loop: Header=BB71_2 Depth=1
	cmpl	$0, -4(%rbp)
	jle	.LBB71_20
# %bb.13:                               # %if.then31
                                        #   in Loop: Header=BB71_2 Depth=1
	movl	-4(%rbp), %eax
	movl	%eax, -20(%rbp)
	cmpl	$1024, -20(%rbp)        # imm = 0x400
	jle	.LBB71_15
# %bb.14:                               # %if.then34
                                        #   in Loop: Header=BB71_2 Depth=1
	movl	$1024, -20(%rbp)        # imm = 0x400
.LBB71_15:                              # %if.end35
                                        #   in Loop: Header=BB71_2 Depth=1
	movl	$0, -8(%rbp)
.LBB71_16:                              # %for.cond
                                        #   Parent Loop BB71_2 Depth=1
                                        # =>  This Inner Loop Header: Depth=2
	movl	-8(%rbp), %eax
	cmpl	-20(%rbp), %eax
	jge	.LBB71_19
# %bb.17:                               # %for.body
                                        #   in Loop: Header=BB71_16 Depth=2
	movq	-16(%rbp), %rax
	movslq	-8(%rbp), %rcx
	movb	(%rax,%rcx), %al
	movslq	-8(%rbp), %rcx
	movb	%al, tmpName(,%rcx)
# %bb.18:                               # %for.inc
                                        #   in Loop: Header=BB71_16 Depth=2
	movl	-8(%rbp), %eax
	addl	$1, %eax
	movl	%eax, -8(%rbp)
	jmp	.LBB71_16
.LBB71_19:                              # %for.end
                                        #   in Loop: Header=BB71_2 Depth=1
	movslq	-20(%rbp), %rax
	movb	$0, tmpName(,%rax)
	movq	-40(%rbp), %rax
	movq	(%rax), %rdi
	movabsq	$tmpName, %rsi
	callq	snocString
	movq	-40(%rbp), %rcx
	movq	%rax, (%rcx)
.LBB71_20:                              # %if.end46
                                        #   in Loop: Header=BB71_2 Depth=1
	jmp	.LBB71_2
.LBB71_21:                              # %while.end47
	jmp	.LBB71_22
.LBB71_22:                              # %if.end48
	cmpl	$919613593, -24(%rbp)   # imm = 0x36D03099
	jne	.LBB71_24
.LBB71_23:
	addq	$48, %rsp
	popq	%rbp
	.cfi_def_cfa %rsp, 8
	retq
.LBB71_24:                              # %func_exit
	.cfi_def_cfa %rbp, 16
	callq	detect_breach
	jmp	.LBB71_23
.Lfunc_end71:
	.size	addFlagsFromEnvVar.29, .Lfunc_end71-addFlagsFromEnvVar.29
	.cfi_endproc
                                        # -- End function
	.p2align	4, 0x90         # -- Begin function uInt64_qrm10.30
	.type	uInt64_qrm10.30,@function
uInt64_qrm10.30:                        # @uInt64_qrm10.30
	.cfi_startproc
# %bb.0:                                # %entry
	pushq	%rbp
	.cfi_def_cfa_offset 16
	.cfi_offset %rbp, -16
	movq	%rsp, %rbp
	.cfi_def_cfa_register %rbp
	pushq	%rbx
	subq	$24, %rsp
	.cfi_offset %rbx, -24
	movl	$818985026, -24(%rbp)   # imm = 0x30D0B842
	movq	%rdi, -32(%rbp)
	movl	$0, -16(%rbp)
	movl	$7, -12(%rbp)
.LBB72_1:                               # %for.cond
                                        # =>This Inner Loop Header: Depth=1
	cmpl	$0, -12(%rbp)
	jl	.LBB72_4
# %bb.2:                                # %for.body
                                        #   in Loop: Header=BB72_1 Depth=1
	movl	-16(%rbp), %eax
	shll	$8, %eax
	movq	-32(%rbp), %rcx
	movslq	-12(%rbp), %rdx
	movzbl	(%rcx,%rdx), %ecx
	addl	%ecx, %eax
	movl	%eax, -20(%rbp)
	movl	-20(%rbp), %eax
	xorl	%edx, %edx
	movl	$10, %ecx
	divl	%ecx
	movq	-32(%rbp), %rdx
	movslq	-12(%rbp), %rsi
	movb	%al, (%rdx,%rsi)
	movl	-20(%rbp), %eax
	xorl	%edx, %edx
	divl	%ecx
	movl	%edx, -16(%rbp)
# %bb.3:                                # %for.inc
                                        #   in Loop: Header=BB72_1 Depth=1
	movl	-12(%rbp), %eax
	addl	$-1, %eax
	movl	%eax, -12(%rbp)
	jmp	.LBB72_1
.LBB72_4:                               # %for.end
	movl	-16(%rbp), %ebx
	cmpl	$818985026, -24(%rbp)   # imm = 0x30D0B842
	jne	.LBB72_6
.LBB72_5:
	movl	%ebx, %eax
	addq	$24, %rsp
	popq	%rbx
	popq	%rbp
	.cfi_def_cfa %rsp, 8
	retq
.LBB72_6:                               # %func_exit
	.cfi_def_cfa %rbp, 16
	callq	detect_breach
	jmp	.LBB72_5
.Lfunc_end72:
	.size	uInt64_qrm10.30, .Lfunc_end72-uInt64_qrm10.30
	.cfi_endproc
                                        # -- End function
	.p2align	4, 0x90         # -- Begin function uInt64_isZero.31
	.type	uInt64_isZero.31,@function
uInt64_isZero.31:                       # @uInt64_isZero.31
	.cfi_startproc
# %bb.0:                                # %entry
	pushq	%rbp
	.cfi_def_cfa_offset 16
	.cfi_offset %rbp, -16
	movq	%rsp, %rbp
	.cfi_def_cfa_register %rbp
	pushq	%rbx
	subq	$24, %rsp
	.cfi_offset %rbx, -24
	movl	$1395374751, -20(%rbp)  # imm = 0x532BBA9F
	movq	%rdi, -32(%rbp)
	movl	$0, -16(%rbp)
.LBB73_1:                               # %for.cond
                                        # =>This Inner Loop Header: Depth=1
	cmpl	$8, -16(%rbp)
	jge	.LBB73_6
# %bb.2:                                # %for.body
                                        #   in Loop: Header=BB73_1 Depth=1
	movq	-32(%rbp), %rax
	movslq	-16(%rbp), %rcx
	movzbl	(%rax,%rcx), %eax
	cmpl	$0, %eax
	je	.LBB73_4
# %bb.3:                                # %if.then
	movb	$0, -9(%rbp)
	jmp	.LBB73_7
.LBB73_4:                               # %if.end
                                        #   in Loop: Header=BB73_1 Depth=1
	jmp	.LBB73_5
.LBB73_5:                               # %for.inc
                                        #   in Loop: Header=BB73_1 Depth=1
	movl	-16(%rbp), %eax
	addl	$1, %eax
	movl	%eax, -16(%rbp)
	jmp	.LBB73_1
.LBB73_6:                               # %for.end
	movb	$1, -9(%rbp)
.LBB73_7:                               # %return
	movb	-9(%rbp), %bl
	cmpl	$1395374751, -20(%rbp)  # imm = 0x532BBA9F
	jne	.LBB73_9
.LBB73_8:
	movzbl	%bl, %eax
	addq	$24, %rsp
	popq	%rbx
	popq	%rbp
	.cfi_def_cfa %rsp, 8
	retq
.LBB73_9:                               # %func_exit
	.cfi_def_cfa %rbp, 16
	callq	detect_breach
	jmp	.LBB73_8
.Lfunc_end73:
	.size	uInt64_isZero.31, .Lfunc_end73-uInt64_isZero.31
	.cfi_endproc
                                        # -- End function
	.p2align	4, 0x90         # -- Begin function countHardLinks.32
	.type	countHardLinks.32,@function
countHardLinks.32:                      # @countHardLinks.32
	.cfi_startproc
# %bb.0:                                # %entry
	pushq	%rbp
	.cfi_def_cfa_offset 16
	.cfi_offset %rbp, -16
	movq	%rsp, %rbp
	.cfi_def_cfa_register %rbp
	pushq	%rbx
	subq	$168, %rsp
	.cfi_offset %rbx, -24
	movl	$425530863, -20(%rbp)   # imm = 0x195D15EF
	movq	%rdi, -32(%rbp)
	movq	-32(%rbp), %rdi
	leaq	-176(%rbp), %rsi
	callq	lstat
	movl	%eax, -16(%rbp)
	cmpl	$0, -16(%rbp)
	je	.LBB74_2
# %bb.1:                                # %if.then
	movl	$0, -12(%rbp)
	jmp	.LBB74_3
.LBB74_2:                               # %if.end
	movq	-160(%rbp), %rax
	subq	$1, %rax
	movl	%eax, -12(%rbp)
.LBB74_3:                               # %return
	movl	-12(%rbp), %ebx
	cmpl	$425530863, -20(%rbp)   # imm = 0x195D15EF
	jne	.LBB74_5
.LBB74_4:
	movl	%ebx, %eax
	addq	$168, %rsp
	popq	%rbx
	popq	%rbp
	.cfi_def_cfa %rsp, 8
	retq
.LBB74_5:                               # %func_exit
	.cfi_def_cfa %rbp, 16
	callq	detect_breach
	jmp	.LBB74_4
.Lfunc_end74:
	.size	countHardLinks.32, .Lfunc_end74-countHardLinks.32
	.cfi_endproc
                                        # -- End function
	.p2align	4, 0x90         # -- Begin function pad.33
	.type	pad.33,@function
pad.33:                                 # @pad.33
	.cfi_startproc
# %bb.0:                                # %entry
	pushq	%rbp
	.cfi_def_cfa_offset 16
	.cfi_offset %rbp, -16
	movq	%rsp, %rbp
	.cfi_def_cfa_register %rbp
	pushq	%r14
	pushq	%rbx
	subq	$16, %rsp
	.cfi_offset %rbx, -32
	.cfi_offset %r14, -24
	movl	$297623039, -24(%rbp)   # imm = 0x11BD5DFF
	movq	%rdi, -32(%rbp)
	movq	-32(%rbp), %rdi
	callq	strlen
	cmpl	longestFileName, %eax
	jl	.LBB75_2
# %bb.1:                                # %if.then
	jmp	.LBB75_7
.LBB75_2:                               # %if.end
	movl	$1, -20(%rbp)
.LBB75_3:                               # %for.cond
                                        # =>This Inner Loop Header: Depth=1
	movl	-20(%rbp), %r14d
	movl	longestFileName, %ebx
	movq	-32(%rbp), %rdi
	callq	strlen
	subl	%eax, %ebx
	cmpl	%ebx, %r14d
	jg	.LBB75_6
# %bb.4:                                # %for.body
                                        #   in Loop: Header=BB75_3 Depth=1
	movq	stderr, %rdi
	movabsq	$.L.str.72, %rsi
	movb	$0, %al
	callq	fprintf
# %bb.5:                                # %for.inc
                                        #   in Loop: Header=BB75_3 Depth=1
	movl	-20(%rbp), %eax
	addl	$1, %eax
	movl	%eax, -20(%rbp)
	jmp	.LBB75_3
.LBB75_6:                               # %for.end.loopexit
	jmp	.LBB75_7
.LBB75_7:                               # %for.end
	cmpl	$297623039, -24(%rbp)   # imm = 0x11BD5DFF
	jne	.LBB75_9
.LBB75_8:
	addq	$16, %rsp
	popq	%rbx
	popq	%r14
	popq	%rbp
	.cfi_def_cfa %rsp, 8
	retq
.LBB75_9:                               # %func_exit
	.cfi_def_cfa %rbp, 16
	callq	detect_breach
	jmp	.LBB75_8
.Lfunc_end75:
	.size	pad.33, .Lfunc_end75-pad.33
	.cfi_endproc
                                        # -- End function
	.p2align	4, 0x90         # -- Begin function testStream.34
	.type	testStream.34,@function
testStream.34:                          # @testStream.34
	.cfi_startproc
# %bb.0:                                # %entry
	pushq	%rbp
	.cfi_def_cfa_offset 16
	.cfi_offset %rbp, -16
	movq	%rsp, %rbp
	.cfi_def_cfa_register %rbp
	pushq	%rbx
	subq	$10088, %rsp            # imm = 0x2768
	.cfi_offset %rbx, -24
	movl	$1740366797, -56(%rbp)  # imm = 0x67BBE3CD
	movq	%rdi, -32(%rbp)
	movq	$0, -48(%rbp)
	movl	$0, -24(%rbp)
	movl	$0, -36(%rbp)
	movq	-32(%rbp), %rdi
	callq	ferror
	cmpl	$0, %eax
	je	.LBB76_2
# %bb.1:                                # %if.then
	jmp	.LBB76_38
.LBB76_2:                               # %if.end
	jmp	.LBB76_3
.LBB76_3:                               # %while.body
                                        # =>This Loop Header: Depth=1
                                        #     Child Loop BB76_7 Depth 2
                                        #     Child Loop BB76_16 Depth 2
	leaq	-5088(%rbp), %r8
	movq	-32(%rbp), %rsi
	movl	verbosity, %edx
	movzbl	smallMode, %ecx
	movl	-24(%rbp), %r9d
	leaq	-16(%rbp), %rdi
	callq	BZ2_bzReadOpen
	movq	%rax, -48(%rbp)
	cmpq	$0, -48(%rbp)
	je	.LBB76_5
# %bb.4:                                # %lor.lhs.false
                                        #   in Loop: Header=BB76_3 Depth=1
	cmpl	$0, -16(%rbp)
	je	.LBB76_6
.LBB76_5:                               # %if.then5
	jmp	.LBB76_32
.LBB76_6:                               # %if.end6
                                        #   in Loop: Header=BB76_3 Depth=1
	movl	-36(%rbp), %eax
	addl	$1, %eax
	movl	%eax, -36(%rbp)
.LBB76_7:                               # %while.cond7
                                        #   Parent Loop BB76_3 Depth=1
                                        # =>  This Inner Loop Header: Depth=2
	cmpl	$0, -16(%rbp)
	jne	.LBB76_11
# %bb.8:                                # %while.body10
                                        #   in Loop: Header=BB76_7 Depth=2
	leaq	-10096(%rbp), %rdx
	movq	-48(%rbp), %rsi
	leaq	-16(%rbp), %rdi
	movl	$5000, %ecx             # imm = 0x1388
	callq	BZ2_bzRead
	movl	%eax, -80(%rbp)
	cmpl	$-5, -16(%rbp)
	jne	.LBB76_10
