	.text
	.file	"bzip2.c"
	.globl	fopen_output_safely     # -- Begin function fopen_output_safely
	.p2align	4, 0x90
	.type	fopen_output_safely,@function
fopen_output_safely:                    # @fopen_output_safely
	.cfi_startproc
# %bb.0:                                # %rand_bb
	pushq	%rbp
	.cfi_def_cfa_offset 16
	.cfi_offset %rbp, -16
	movq	%rsp, %rbp
	.cfi_def_cfa_register %rbp
	pushq	%r14
	pushq	%rbx
	.cfi_offset %rbx, -32
	.cfi_offset %r14, -24
	movq	%rsi, %r14
	movq	%rdi, %rbx
	callq	get_rand
	cmpl	$0, %eax
	jne	.LBB0_5
# %bb.1:                                # %func_fopen_output_safely.58
	movq	%rbx, %rdi
	movq	%r14, %rsi
	callq	fopen_output_safely.58
	popq	%rbx
	popq	%r14
	popq	%rbp
	.cfi_def_cfa %rsp, 8
	retq
.LBB0_2:                                # %func_fopen_output_safely.62
	.cfi_def_cfa %rbp, 16
	movq	%rbx, %rdi
	movq	%r14, %rsi
	callq	fopen_output_safely.62
	popq	%rbx
	popq	%r14
	popq	%rbp
	.cfi_def_cfa %rsp, 8
	retq
.LBB0_3:                                # %func_fopen_output_safely.66
	.cfi_def_cfa %rbp, 16
	movq	%rbx, %rdi
	movq	%r14, %rsi
	callq	fopen_output_safely.66
	popq	%rbx
	popq	%r14
	popq	%rbp
	.cfi_def_cfa %rsp, 8
	retq
.LBB0_4:                                # %func_fopen_output_safely.76
	.cfi_def_cfa %rbp, 16
	movq	%rbx, %rdi
	movq	%r14, %rsi
	callq	fopen_output_safely.76
	popq	%rbx
	popq	%r14
	popq	%rbp
	.cfi_def_cfa %rsp, 8
	retq
.LBB0_5:                                # %ctrl0
	.cfi_def_cfa %rbp, 16
	cmpl	$1, %eax
	je	.LBB0_2
# %bb.6:                                # %ctrl1
	cmpl	$2, %eax
	je	.LBB0_3
	jmp	.LBB0_4
.Lfunc_end0:
	.size	fopen_output_safely, .Lfunc_end0-fopen_output_safely
	.cfi_endproc
                                        # -- End function
	.globl	main                    # -- Begin function main
	.p2align	4, 0x90
	.type	main,@function
main:                                   # @main
	.cfi_startproc
# %bb.0:                                # %entry
	pushq	%rbp
	.cfi_def_cfa_offset 16
	.cfi_offset %rbp, -16
	movq	%rsp, %rbp
	.cfi_def_cfa_register %rbp
	pushq	%rbx
	subq	$72, %rsp
	.cfi_offset %rbx, -24
	movl	$0, -76(%rbp)
	movl	%edi, -52(%rbp)
	movq	%rsi, -64(%rbp)
	movq	$0, outputHandleJustInCase
	movb	$0, smallMode
	movb	$0, keepInputFiles
	movb	$0, forceOverwrite
	movb	$1, noisy
	movl	$0, verbosity
	movl	$9, blockSize100k
	movb	$0, testFailsExist
	movb	$0, unzFailsExist
	movl	$0, numFileNames
	movl	$0, numFilesProcessed
	movl	$30, workFactor
	movb	$0, deleteOutputOnInterrupt
	movl	$0, exitValue
	movl	$0, -36(%rbp)
	movl	$0, -40(%rbp)
	movl	$11, %edi
	movabsq	$mySIGSEGVorSIGBUScatcher, %rsi
	callq	signal
	movl	$7, %edi
	movabsq	$mySIGSEGVorSIGBUScatcher, %rsi
	callq	signal
	movabsq	$inName, %rdi
	movabsq	$.L.str, %rsi
	callq	copyFileName
	movabsq	$outName, %rdi
	movabsq	$.L.str, %rsi
	callq	copyFileName
	movq	-64(%rbp), %rax
	movq	(%rax), %rsi
	movabsq	$progNameReally, %rdi
	callq	copyFileName
	movabsq	$progNameReally, %rax
	movq	%rax, progName
	movq	%rax, -48(%rbp)
.LBB1_1:                                # %for.cond
                                        # =>This Inner Loop Header: Depth=1
	movq	-48(%rbp), %rax
	movsbl	(%rax), %eax
	cmpl	$0, %eax
	je	.LBB1_6
# %bb.2:                                # %for.body
                                        #   in Loop: Header=BB1_1 Depth=1
	movq	-48(%rbp), %rax
	movsbl	(%rax), %eax
	cmpl	$47, %eax
	jne	.LBB1_4
# %bb.3:                                # %if.then
                                        #   in Loop: Header=BB1_1 Depth=1
	movq	-48(%rbp), %rax
	addq	$1, %rax
	movq	%rax, progName
.LBB1_4:                                # %if.end
                                        #   in Loop: Header=BB1_1 Depth=1
	jmp	.LBB1_5
.LBB1_5:                                # %for.inc
                                        #   in Loop: Header=BB1_1 Depth=1
	movq	-48(%rbp), %rax
	addq	$1, %rax
	movq	%rax, -48(%rbp)
	jmp	.LBB1_1
.LBB1_6:                                # %for.end
	movq	$0, -32(%rbp)
	leaq	-32(%rbp), %rdi
	movabsq	$.L.str.1, %rsi
	callq	addFlagsFromEnvVar
	leaq	-32(%rbp), %rdi
	movabsq	$.L.str.2, %rsi
	callq	addFlagsFromEnvVar
	movl	$1, -40(%rbp)
.LBB1_7:                                # %for.cond6
                                        # =>This Inner Loop Header: Depth=1
	movl	-40(%rbp), %eax
	movl	-52(%rbp), %ecx
	subl	$1, %ecx
	cmpl	%ecx, %eax
	jg	.LBB1_10
# %bb.8:                                # %for.body9
                                        #   in Loop: Header=BB1_7 Depth=1
	movq	-32(%rbp), %rdi
	movq	-64(%rbp), %rax
	movslq	-40(%rbp), %rcx
	movq	(%rax,%rcx,8), %rsi
	callq	snocString
	movq	%rax, -32(%rbp)
# %bb.9:                                # %for.inc12
                                        #   in Loop: Header=BB1_7 Depth=1
	movl	-40(%rbp), %eax
	addl	$1, %eax
	movl	%eax, -40(%rbp)
	jmp	.LBB1_7
.LBB1_10:                               # %for.end13
	movl	$7, longestFileName
	movl	$0, numFileNames
	movb	$1, -9(%rbp)
	movq	-32(%rbp), %rax
	movq	%rax, -24(%rbp)
.LBB1_11:                               # %for.cond14
                                        # =>This Inner Loop Header: Depth=1
	cmpq	$0, -24(%rbp)
	je	.LBB1_21
# %bb.12:                               # %for.body17
                                        #   in Loop: Header=BB1_11 Depth=1
	movq	-24(%rbp), %rax
	movq	(%rax), %rdi
	movl	$.L.str.3, %esi
	callq	strcmp
	cmpl	$0, %eax
	jne	.LBB1_14
# %bb.13:                               # %if.then21
                                        #   in Loop: Header=BB1_11 Depth=1
	movb	$0, -9(%rbp)
	jmp	.LBB1_20
.LBB1_14:                               # %if.end22
                                        #   in Loop: Header=BB1_11 Depth=1
	movq	-24(%rbp), %rax
	movq	(%rax), %rax
	movsbl	(%rax), %eax
	cmpl	$45, %eax
	jne	.LBB1_17
# %bb.15:                               # %land.lhs.true
                                        #   in Loop: Header=BB1_11 Depth=1
	movzbl	-9(%rbp), %eax
	cmpl	$0, %eax
	je	.LBB1_17
# %bb.16:                               # %if.then29
                                        #   in Loop: Header=BB1_11 Depth=1
	jmp	.LBB1_20
.LBB1_17:                               # %if.end30
                                        #   in Loop: Header=BB1_11 Depth=1
	movl	numFileNames, %eax
	addl	$1, %eax
	movl	%eax, numFileNames
	movl	longestFileName, %ebx
	movq	-24(%rbp), %rax
	movq	(%rax), %rdi
	callq	strlen
	cmpl	%eax, %ebx
	jge	.LBB1_19
# %bb.18:                               # %if.then37
                                        #   in Loop: Header=BB1_11 Depth=1
	movq	-24(%rbp), %rax
	movq	(%rax), %rdi
	callq	strlen
	movl	%eax, longestFileName
.LBB1_19:                               # %if.end41
                                        #   in Loop: Header=BB1_11 Depth=1
	jmp	.LBB1_20
.LBB1_20:                               # %for.inc42
                                        #   in Loop: Header=BB1_11 Depth=1
	movq	-24(%rbp), %rax
	movq	8(%rax), %rax
	movq	%rax, -24(%rbp)
	jmp	.LBB1_11
.LBB1_21:                               # %for.end43
	cmpl	$0, numFileNames
	jne	.LBB1_23
# %bb.22:                               # %if.then46
	movl	$1, srcMode
	jmp	.LBB1_24
.LBB1_23:                               # %if.else
	movl	$3, srcMode
.LBB1_24:                               # %if.end47
	movl	$1, opMode
	movq	progName, %rdi
	movabsq	$.L.str.4, %rsi
	callq	strstr
	cmpq	$0, %rax
	jne	.LBB1_26
# %bb.25:                               # %lor.lhs.false
	movq	progName, %rdi
	movabsq	$.L.str.5, %rsi
	callq	strstr
	cmpq	$0, %rax
	je	.LBB1_27
.LBB1_26:                               # %if.then54
	movl	$2, opMode
.LBB1_27:                               # %if.end55
	movq	progName, %rdi
	movabsq	$.L.str.6, %rsi
	callq	strstr
	cmpq	$0, %rax
	jne	.LBB1_31
# %bb.28:                               # %lor.lhs.false59
	movq	progName, %rdi
	movabsq	$.L.str.7, %rsi
	callq	strstr
	cmpq	$0, %rax
	jne	.LBB1_31
# %bb.29:                               # %lor.lhs.false63
	movq	progName, %rdi
	movabsq	$.L.str.8, %rsi
	callq	strstr
	cmpq	$0, %rax
	jne	.LBB1_31
# %bb.30:                               # %lor.lhs.false67
	movq	progName, %rdi
	movabsq	$.L.str.9, %rsi
	callq	strstr
	cmpq	$0, %rax
	je	.LBB1_32
.LBB1_31:                               # %if.then71
	movl	$2, opMode
	movl	numFileNames, %eax
	cmpl	$0, %eax
	movl	$1, %eax
	movl	$2, %ecx
	cmovel	%eax, %ecx
	movl	%ecx, srcMode
.LBB1_32:                               # %if.end74
	movq	-32(%rbp), %rax
	movq	%rax, -24(%rbp)
.LBB1_33:                               # %for.cond75
                                        # =>This Loop Header: Depth=1
                                        #     Child Loop BB1_39 Depth 2
	cmpq	$0, -24(%rbp)
	je	.LBB1_68
# %bb.34:                               # %for.body78
                                        #   in Loop: Header=BB1_33 Depth=1
	movq	-24(%rbp), %rax
	movq	(%rax), %rdi
	movl	$.L.str.3, %esi
	callq	strcmp
	cmpl	$0, %eax
	jne	.LBB1_36
# %bb.35:                               # %if.then83
	jmp	.LBB1_69
.LBB1_36:                               # %if.end84
                                        #   in Loop: Header=BB1_33 Depth=1
	movq	-24(%rbp), %rax
	movq	(%rax), %rax
	movsbl	(%rax), %eax
	cmpl	$45, %eax
	jne	.LBB1_66
# %bb.37:                               # %land.lhs.true90
                                        #   in Loop: Header=BB1_33 Depth=1
	movq	-24(%rbp), %rax
	movq	(%rax), %rax
	movsbl	1(%rax), %eax
	cmpl	$45, %eax
	je	.LBB1_66
# %bb.38:                               # %if.then96
                                        #   in Loop: Header=BB1_33 Depth=1
	movl	$1, -36(%rbp)
.LBB1_39:                               # %for.cond97
                                        #   Parent Loop BB1_33 Depth=1
                                        # =>  This Inner Loop Header: Depth=2
	movq	-24(%rbp), %rax
	movq	(%rax), %rax
	movslq	-36(%rbp), %rcx
	movsbl	(%rax,%rcx), %eax
	cmpl	$0, %eax
	je	.LBB1_65
# %bb.40:                               # %for.body104
                                        #   in Loop: Header=BB1_39 Depth=2
	movq	-24(%rbp), %rax
	movq	(%rax), %rax
	movslq	-36(%rbp), %rcx
	movsbl	(%rax,%rcx), %eax
	addl	$-49, %eax
	movl	%eax, %ecx
	subl	$73, %ecx
	ja	.LBB1_62
# %bb.41:                               # %for.body104
                                        #   in Loop: Header=BB1_39 Depth=2
	movq	.LJTI1_0(,%rax,8), %rax
	jmpq	*%rax
.LBB1_42:                               # %sw.bb
                                        #   in Loop: Header=BB1_39 Depth=2
	movl	$2, srcMode
	jmp	.LBB1_63
.LBB1_43:                               # %sw.bb109
                                        #   in Loop: Header=BB1_39 Depth=2
	movl	$2, opMode
	jmp	.LBB1_63
.LBB1_44:                               # %sw.bb110
                                        #   in Loop: Header=BB1_39 Depth=2
	movl	$1, opMode
	jmp	.LBB1_63
.LBB1_45:                               # %sw.bb111
                                        #   in Loop: Header=BB1_39 Depth=2
	movb	$1, forceOverwrite
	jmp	.LBB1_63
.LBB1_46:                               # %sw.bb112
                                        #   in Loop: Header=BB1_39 Depth=2
	movl	$3, opMode
	jmp	.LBB1_63
.LBB1_47:                               # %sw.bb113
                                        #   in Loop: Header=BB1_39 Depth=2
	movb	$1, keepInputFiles
	jmp	.LBB1_63
.LBB1_48:                               # %sw.bb114
                                        #   in Loop: Header=BB1_39 Depth=2
	movb	$1, smallMode
	jmp	.LBB1_63
.LBB1_49:                               # %sw.bb115
                                        #   in Loop: Header=BB1_39 Depth=2
	movb	$0, noisy
	jmp	.LBB1_63
.LBB1_50:                               # %sw.bb116
                                        #   in Loop: Header=BB1_39 Depth=2
	movl	$1, blockSize100k
	jmp	.LBB1_63
.LBB1_51:                               # %sw.bb117
                                        #   in Loop: Header=BB1_39 Depth=2
	movl	$2, blockSize100k
	jmp	.LBB1_63
.LBB1_52:                               # %sw.bb118
                                        #   in Loop: Header=BB1_39 Depth=2
	movl	$3, blockSize100k
	jmp	.LBB1_63
.LBB1_53:                               # %sw.bb119
                                        #   in Loop: Header=BB1_39 Depth=2
	movl	$4, blockSize100k
	jmp	.LBB1_63
.LBB1_54:                               # %sw.bb120
                                        #   in Loop: Header=BB1_39 Depth=2
	movl	$5, blockSize100k
	jmp	.LBB1_63
.LBB1_55:                               # %sw.bb121
                                        #   in Loop: Header=BB1_39 Depth=2
	movl	$6, blockSize100k
	jmp	.LBB1_63
.LBB1_56:                               # %sw.bb122
                                        #   in Loop: Header=BB1_39 Depth=2
	movl	$7, blockSize100k
	jmp	.LBB1_63
.LBB1_57:                               # %sw.bb123
                                        #   in Loop: Header=BB1_39 Depth=2
	movl	$8, blockSize100k
	jmp	.LBB1_63
.LBB1_58:                               # %sw.bb124
                                        #   in Loop: Header=BB1_39 Depth=2
	movl	$9, blockSize100k
	jmp	.LBB1_63
.LBB1_59:                               # %sw.bb125
                                        #   in Loop: Header=BB1_39 Depth=2
	callq	license
	jmp	.LBB1_63
.LBB1_60:                               # %sw.bb126
                                        #   in Loop: Header=BB1_39 Depth=2
	movl	verbosity, %eax
	addl	$1, %eax
	movl	%eax, verbosity
	jmp	.LBB1_63
.LBB1_61:                               # %sw.bb128
	movq	progName, %rdi
	callq	usage
	xorl	%edi, %edi
	callq	exit
.LBB1_62:                               # %sw.default
	movq	stderr, %rdi
	movq	progName, %rdx
	movq	-24(%rbp), %rax
	movq	(%rax), %rcx
	movabsq	$.L.str.10, %rsi
	movb	$0, %al
	callq	fprintf
	movq	progName, %rdi
	callq	usage
	movl	$1, %edi
	callq	exit
.LBB1_63:                               # %sw.epilog
                                        #   in Loop: Header=BB1_39 Depth=2
	jmp	.LBB1_64
.LBB1_64:                               # %for.inc131
                                        #   in Loop: Header=BB1_39 Depth=2
	movl	-36(%rbp), %eax
	addl	$1, %eax
	movl	%eax, -36(%rbp)
	jmp	.LBB1_39
.LBB1_65:                               # %for.end133
                                        #   in Loop: Header=BB1_33 Depth=1
	jmp	.LBB1_66
.LBB1_66:                               # %if.end134
                                        #   in Loop: Header=BB1_33 Depth=1
	jmp	.LBB1_67
.LBB1_67:                               # %for.inc135
                                        #   in Loop: Header=BB1_33 Depth=1
	movq	-24(%rbp), %rax
	movq	8(%rax), %rax
	movq	%rax, -24(%rbp)
	jmp	.LBB1_33
.LBB1_68:                               # %for.end137.loopexit
	jmp	.LBB1_69
.LBB1_69:                               # %for.end137
	movq	-32(%rbp), %rax
	movq	%rax, -24(%rbp)
.LBB1_70:                               # %for.cond138
                                        # =>This Inner Loop Header: Depth=1
	cmpq	$0, -24(%rbp)
	je	.LBB1_128
# %bb.71:                               # %for.body141
                                        #   in Loop: Header=BB1_70 Depth=1
	movq	-24(%rbp), %rax
	movq	(%rax), %rdi
	movl	$.L.str.3, %esi
	callq	strcmp
	cmpl	$0, %eax
	jne	.LBB1_73
# %bb.72:                               # %if.then146
	jmp	.LBB1_129
.LBB1_73:                               # %if.end147
                                        #   in Loop: Header=BB1_70 Depth=1
	movq	-24(%rbp), %rax
	movq	(%rax), %rdi
	movl	$.L.str.11, %esi
	callq	strcmp
	cmpl	$0, %eax
	jne	.LBB1_75
# %bb.74:                               # %if.then152
                                        #   in Loop: Header=BB1_70 Depth=1
	movl	$2, srcMode
	jmp	.LBB1_126
.LBB1_75:                               # %if.else153
                                        #   in Loop: Header=BB1_70 Depth=1
	movq	-24(%rbp), %rax
	movq	(%rax), %rdi
	movl	$.L.str.12, %esi
	callq	strcmp
	cmpl	$0, %eax
	jne	.LBB1_77
# %bb.76:                               # %if.then158
                                        #   in Loop: Header=BB1_70 Depth=1
	movl	$2, opMode
	jmp	.LBB1_125
.LBB1_77:                               # %if.else159
                                        #   in Loop: Header=BB1_70 Depth=1
	movq	-24(%rbp), %rax
	movq	(%rax), %rdi
	movl	$.L.str.13, %esi
	callq	strcmp
	cmpl	$0, %eax
	jne	.LBB1_79
# %bb.78:                               # %if.then164
                                        #   in Loop: Header=BB1_70 Depth=1
	movl	$1, opMode
	jmp	.LBB1_124
.LBB1_79:                               # %if.else165
                                        #   in Loop: Header=BB1_70 Depth=1
	movq	-24(%rbp), %rax
	movq	(%rax), %rdi
	movl	$.L.str.14, %esi
	callq	strcmp
	cmpl	$0, %eax
	jne	.LBB1_81
# %bb.80:                               # %if.then170
                                        #   in Loop: Header=BB1_70 Depth=1
	movb	$1, forceOverwrite
	jmp	.LBB1_123
.LBB1_81:                               # %if.else171
                                        #   in Loop: Header=BB1_70 Depth=1
	movq	-24(%rbp), %rax
	movq	(%rax), %rdi
	movl	$.L.str.15, %esi
	callq	strcmp
	cmpl	$0, %eax
	jne	.LBB1_83
# %bb.82:                               # %if.then176
                                        #   in Loop: Header=BB1_70 Depth=1
	movl	$3, opMode
	jmp	.LBB1_122
.LBB1_83:                               # %if.else177
                                        #   in Loop: Header=BB1_70 Depth=1
	movq	-24(%rbp), %rax
	movq	(%rax), %rdi
	movl	$.L.str.16, %esi
	callq	strcmp
	cmpl	$0, %eax
	jne	.LBB1_85
# %bb.84:                               # %if.then182
                                        #   in Loop: Header=BB1_70 Depth=1
	movb	$1, keepInputFiles
	jmp	.LBB1_121
.LBB1_85:                               # %if.else183
                                        #   in Loop: Header=BB1_70 Depth=1
	movq	-24(%rbp), %rax
	movq	(%rax), %rdi
	movl	$.L.str.17, %esi
	callq	strcmp
	cmpl	$0, %eax
	jne	.LBB1_87
# %bb.86:                               # %if.then188
                                        #   in Loop: Header=BB1_70 Depth=1
	movb	$1, smallMode
	jmp	.LBB1_120
.LBB1_87:                               # %if.else189
                                        #   in Loop: Header=BB1_70 Depth=1
	movq	-24(%rbp), %rax
	movq	(%rax), %rdi
	movl	$.L.str.18, %esi
	callq	strcmp
	cmpl	$0, %eax
	jne	.LBB1_89
# %bb.88:                               # %if.then194
                                        #   in Loop: Header=BB1_70 Depth=1
	movb	$0, noisy
	jmp	.LBB1_119
.LBB1_89:                               # %if.else195
                                        #   in Loop: Header=BB1_70 Depth=1
	movq	-24(%rbp), %rax
	movq	(%rax), %rdi
	movl	$.L.str.19, %esi
	callq	strcmp
	cmpl	$0, %eax
	jne	.LBB1_91
# %bb.90:                               # %if.then200
                                        #   in Loop: Header=BB1_70 Depth=1
	callq	license
	jmp	.LBB1_118
.LBB1_91:                               # %if.else201
                                        #   in Loop: Header=BB1_70 Depth=1
	movq	-24(%rbp), %rax
	movq	(%rax), %rdi
	movl	$.L.str.20, %esi
	callq	strcmp
	cmpl	$0, %eax
	jne	.LBB1_93
# %bb.92:                               # %if.then206
                                        #   in Loop: Header=BB1_70 Depth=1
	callq	license
	jmp	.LBB1_117
.LBB1_93:                               # %if.else207
                                        #   in Loop: Header=BB1_70 Depth=1
	movq	-24(%rbp), %rax
	movq	(%rax), %rdi
	movl	$.L.str.21, %esi
	callq	strcmp
	cmpl	$0, %eax
	jne	.LBB1_95
# %bb.94:                               # %if.then212
                                        #   in Loop: Header=BB1_70 Depth=1
	movl	$1, workFactor
	jmp	.LBB1_116
.LBB1_95:                               # %if.else213
                                        #   in Loop: Header=BB1_70 Depth=1
	movq	-24(%rbp), %rax
	movq	(%rax), %rdi
	movl	$.L.str.22, %esi
	callq	strcmp
	cmpl	$0, %eax
	jne	.LBB1_97
# %bb.96:                               # %if.then218
                                        #   in Loop: Header=BB1_70 Depth=1
	movq	-24(%rbp), %rax
	movq	(%rax), %rdi
	callq	redundant
	jmp	.LBB1_115
.LBB1_97:                               # %if.else220
                                        #   in Loop: Header=BB1_70 Depth=1
	movq	-24(%rbp), %rax
	movq	(%rax), %rdi
	movl	$.L.str.23, %esi
	callq	strcmp
	cmpl	$0, %eax
	jne	.LBB1_99
# %bb.98:                               # %if.then225
                                        #   in Loop: Header=BB1_70 Depth=1
	movq	-24(%rbp), %rax
	movq	(%rax), %rdi
	callq	redundant
	jmp	.LBB1_114
.LBB1_99:                               # %if.else227
                                        #   in Loop: Header=BB1_70 Depth=1
	movq	-24(%rbp), %rax
	movq	(%rax), %rdi
	movl	$.L.str.24, %esi
	callq	strcmp
	cmpl	$0, %eax
	jne	.LBB1_101
# %bb.100:                              # %if.then232
                                        #   in Loop: Header=BB1_70 Depth=1
	movl	$1, blockSize100k
	jmp	.LBB1_113
.LBB1_101:                              # %if.else233
                                        #   in Loop: Header=BB1_70 Depth=1
	movq	-24(%rbp), %rax
	movq	(%rax), %rdi
	movl	$.L.str.25, %esi
	callq	strcmp
	cmpl	$0, %eax
	jne	.LBB1_103
# %bb.102:                              # %if.then238
                                        #   in Loop: Header=BB1_70 Depth=1
	movl	$9, blockSize100k
	jmp	.LBB1_112
.LBB1_103:                              # %if.else239
                                        #   in Loop: Header=BB1_70 Depth=1
	movq	-24(%rbp), %rax
	movq	(%rax), %rdi
	movl	$.L.str.26, %esi
	callq	strcmp
	cmpl	$0, %eax
	jne	.LBB1_105
# %bb.104:                              # %if.then244
                                        #   in Loop: Header=BB1_70 Depth=1
	movl	verbosity, %eax
	addl	$1, %eax
	movl	%eax, verbosity
	jmp	.LBB1_111
.LBB1_105:                              # %if.else246
                                        #   in Loop: Header=BB1_70 Depth=1
	movq	-24(%rbp), %rax
	movq	(%rax), %rdi
	movl	$.L.str.27, %esi
	callq	strcmp
	cmpl	$0, %eax
	jne	.LBB1_107
# %bb.106:                              # %if.then251
	movq	progName, %rdi
	callq	usage
	xorl	%edi, %edi
	callq	exit
.LBB1_107:                              # %if.else252
                                        #   in Loop: Header=BB1_70 Depth=1
	movq	-24(%rbp), %rax
	movq	(%rax), %rdi
	movabsq	$.L.str.3, %rsi
	movl	$2, %edx
	callq	strncmp
	cmpl	$0, %eax
	jne	.LBB1_109
# %bb.108:                              # %if.then257
	movq	stderr, %rdi
	movq	progName, %rdx
	movq	-24(%rbp), %rax
	movq	(%rax), %rcx
	movabsq	$.L.str.10, %rsi
	movb	$0, %al
	callq	fprintf
	movq	progName, %rdi
	callq	usage
	movl	$1, %edi
	callq	exit
.LBB1_109:                              # %if.end260
                                        #   in Loop: Header=BB1_70 Depth=1
	jmp	.LBB1_110
.LBB1_110:                              # %if.end261
                                        #   in Loop: Header=BB1_70 Depth=1
	jmp	.LBB1_111
.LBB1_111:                              # %if.end262
                                        #   in Loop: Header=BB1_70 Depth=1
	jmp	.LBB1_112
.LBB1_112:                              # %if.end263
                                        #   in Loop: Header=BB1_70 Depth=1
	jmp	.LBB1_113
.LBB1_113:                              # %if.end264
                                        #   in Loop: Header=BB1_70 Depth=1
	jmp	.LBB1_114
.LBB1_114:                              # %if.end265
                                        #   in Loop: Header=BB1_70 Depth=1
	jmp	.LBB1_115
.LBB1_115:                              # %if.end266
                                        #   in Loop: Header=BB1_70 Depth=1
	jmp	.LBB1_116
.LBB1_116:                              # %if.end267
                                        #   in Loop: Header=BB1_70 Depth=1
	jmp	.LBB1_117
.LBB1_117:                              # %if.end268
                                        #   in Loop: Header=BB1_70 Depth=1
	jmp	.LBB1_118
.LBB1_118:                              # %if.end269
                                        #   in Loop: Header=BB1_70 Depth=1
	jmp	.LBB1_119
.LBB1_119:                              # %if.end270
                                        #   in Loop: Header=BB1_70 Depth=1
	jmp	.LBB1_120
.LBB1_120:                              # %if.end271
                                        #   in Loop: Header=BB1_70 Depth=1
	jmp	.LBB1_121
.LBB1_121:                              # %if.end272
                                        #   in Loop: Header=BB1_70 Depth=1
	jmp	.LBB1_122
.LBB1_122:                              # %if.end273
                                        #   in Loop: Header=BB1_70 Depth=1
	jmp	.LBB1_123
.LBB1_123:                              # %if.end274
                                        #   in Loop: Header=BB1_70 Depth=1
	jmp	.LBB1_124
.LBB1_124:                              # %if.end275
                                        #   in Loop: Header=BB1_70 Depth=1
	jmp	.LBB1_125
.LBB1_125:                              # %if.end276
                                        #   in Loop: Header=BB1_70 Depth=1
	jmp	.LBB1_126
.LBB1_126:                              # %if.end277
                                        #   in Loop: Header=BB1_70 Depth=1
	jmp	.LBB1_127
.LBB1_127:                              # %for.inc278
                                        #   in Loop: Header=BB1_70 Depth=1
	movq	-24(%rbp), %rax
	movq	8(%rax), %rax
	movq	%rax, -24(%rbp)
	jmp	.LBB1_70
.LBB1_128:                              # %for.end280.loopexit
	jmp	.LBB1_129
.LBB1_129:                              # %for.end280
	cmpl	$4, verbosity
	jle	.LBB1_131
# %bb.130:                              # %if.then283
	movl	$4, verbosity
.LBB1_131:                              # %if.end284
	cmpl	$1, opMode
	jne	.LBB1_135
# %bb.132:                              # %land.lhs.true287
	movzbl	smallMode, %eax
	cmpl	$0, %eax
	je	.LBB1_135
# %bb.133:                              # %land.lhs.true290
	cmpl	$2, blockSize100k
	jle	.LBB1_135
# %bb.134:                              # %if.then293
	movl	$2, blockSize100k
.LBB1_135:                              # %if.end294
	cmpl	$3, opMode
	jne	.LBB1_138
# %bb.136:                              # %land.lhs.true297
	cmpl	$2, srcMode
	jne	.LBB1_138
# %bb.137:                              # %if.then300
	movq	stderr, %rdi
	movq	progName, %rdx
	movabsq	$.L.str.28, %rsi
	movb	$0, %al
	callq	fprintf
	movl	$1, %edi
	callq	exit
.LBB1_138:                              # %if.end302
	cmpl	$2, srcMode
	jne	.LBB1_141
# %bb.139:                              # %land.lhs.true305
	cmpl	$0, numFileNames
	jne	.LBB1_141
# %bb.140:                              # %if.then308
	movl	$1, srcMode
.LBB1_141:                              # %if.end309
	cmpl	$1, opMode
	je	.LBB1_143
# %bb.142:                              # %if.then312
	movl	$0, blockSize100k
.LBB1_143:                              # %if.end313
	cmpl	$3, srcMode
	jne	.LBB1_145
# %bb.144:                              # %if.then316
	movl	$2, %edi
	movabsq	$mySignalCatcher, %rsi
	callq	signal
	movl	$15, %edi
	movabsq	$mySignalCatcher, %rsi
	callq	signal
	movl	$1, %edi
	movabsq	$mySignalCatcher, %rsi
	callq	signal
.LBB1_145:                              # %if.end320
	cmpl	$1, opMode
	jne	.LBB1_159
# %bb.146:                              # %if.then323
	cmpl	$1, srcMode
	jne	.LBB1_148
# %bb.147:                              # %if.then326
	xorl	%edi, %edi
	callq	compress
	jmp	.LBB1_158
.LBB1_148:                              # %if.else327
	movb	$1, -9(%rbp)
	movq	-32(%rbp), %rax
	movq	%rax, -24(%rbp)
.LBB1_149:                              # %for.cond328
                                        # =>This Inner Loop Header: Depth=1
	cmpq	$0, -24(%rbp)
	je	.LBB1_157
# %bb.150:                              # %for.body331
                                        #   in Loop: Header=BB1_149 Depth=1
	movq	-24(%rbp), %rax
	movq	(%rax), %rdi
	movl	$.L.str.3, %esi
	callq	strcmp
	cmpl	$0, %eax
	jne	.LBB1_152
# %bb.151:                              # %if.then336
                                        #   in Loop: Header=BB1_149 Depth=1
	movb	$0, -9(%rbp)
	jmp	.LBB1_156
.LBB1_152:                              # %if.end337
                                        #   in Loop: Header=BB1_149 Depth=1
	movq	-24(%rbp), %rax
	movq	(%rax), %rax
	movsbl	(%rax), %eax
	cmpl	$45, %eax
	jne	.LBB1_155
# %bb.153:                              # %land.lhs.true343
                                        #   in Loop: Header=BB1_149 Depth=1
	movzbl	-9(%rbp), %eax
	cmpl	$0, %eax
	je	.LBB1_155
# %bb.154:                              # %if.then346
                                        #   in Loop: Header=BB1_149 Depth=1
	jmp	.LBB1_156
.LBB1_155:                              # %if.end347
                                        #   in Loop: Header=BB1_149 Depth=1
	movl	numFilesProcessed, %eax
	addl	$1, %eax
	movl	%eax, numFilesProcessed
	movq	-24(%rbp), %rax
	movq	(%rax), %rdi
	callq	compress
.LBB1_156:                              # %for.inc350
                                        #   in Loop: Header=BB1_149 Depth=1
	movq	-24(%rbp), %rax
	movq	8(%rax), %rax
	movq	%rax, -24(%rbp)
	jmp	.LBB1_149
.LBB1_157:                              # %for.end352
	jmp	.LBB1_158
.LBB1_158:                              # %if.end353
	jmp	.LBB1_192
.LBB1_159:                              # %if.else354
	cmpl	$2, opMode
	jne	.LBB1_175
# %bb.160:                              # %if.then357
	movb	$0, unzFailsExist
	cmpl	$1, srcMode
	jne	.LBB1_162
# %bb.161:                              # %if.then360
	xorl	%edi, %edi
	callq	uncompress
	jmp	.LBB1_172
.LBB1_162:                              # %if.else361
	movb	$1, -9(%rbp)
	movq	-32(%rbp), %rax
	movq	%rax, -24(%rbp)
.LBB1_163:                              # %for.cond362
                                        # =>This Inner Loop Header: Depth=1
	cmpq	$0, -24(%rbp)
	je	.LBB1_171
# %bb.164:                              # %for.body365
                                        #   in Loop: Header=BB1_163 Depth=1
	movq	-24(%rbp), %rax
	movq	(%rax), %rdi
	movl	$.L.str.3, %esi
	callq	strcmp
	cmpl	$0, %eax
	jne	.LBB1_166
# %bb.165:                              # %if.then370
                                        #   in Loop: Header=BB1_163 Depth=1
	movb	$0, -9(%rbp)
	jmp	.LBB1_170
.LBB1_166:                              # %if.end371
                                        #   in Loop: Header=BB1_163 Depth=1
	movq	-24(%rbp), %rax
	movq	(%rax), %rax
	movsbl	(%rax), %eax
	cmpl	$45, %eax
	jne	.LBB1_169
# %bb.167:                              # %land.lhs.true377
                                        #   in Loop: Header=BB1_163 Depth=1
	movzbl	-9(%rbp), %eax
	cmpl	$0, %eax
	je	.LBB1_169
# %bb.168:                              # %if.then380
                                        #   in Loop: Header=BB1_163 Depth=1
	jmp	.LBB1_170
.LBB1_169:                              # %if.end381
                                        #   in Loop: Header=BB1_163 Depth=1
	movl	numFilesProcessed, %eax
	addl	$1, %eax
	movl	%eax, numFilesProcessed
	movq	-24(%rbp), %rax
	movq	(%rax), %rdi
	callq	uncompress
.LBB1_170:                              # %for.inc384
                                        #   in Loop: Header=BB1_163 Depth=1
	movq	-24(%rbp), %rax
	movq	8(%rax), %rax
	movq	%rax, -24(%rbp)
	jmp	.LBB1_163
.LBB1_171:                              # %for.end386
	jmp	.LBB1_172
.LBB1_172:                              # %if.end387
	cmpb	$0, unzFailsExist
	je	.LBB1_174
# %bb.173:                              # %if.then389
	movl	$2, %edi
	callq	setExit
	movl	exitValue, %edi
	callq	exit
.LBB1_174:                              # %if.end390
	jmp	.LBB1_191
.LBB1_175:                              # %if.else391
	movb	$0, testFailsExist
	cmpl	$1, srcMode
	jne	.LBB1_177
# %bb.176:                              # %if.then394
	xorl	%edi, %edi
	callq	testf
	jmp	.LBB1_187
.LBB1_177:                              # %if.else395
	movb	$1, -9(%rbp)
	movq	-32(%rbp), %rax
	movq	%rax, -24(%rbp)
.LBB1_178:                              # %for.cond396
                                        # =>This Inner Loop Header: Depth=1
	cmpq	$0, -24(%rbp)
	je	.LBB1_186
# %bb.179:                              # %for.body399
                                        #   in Loop: Header=BB1_178 Depth=1
	movq	-24(%rbp), %rax
	movq	(%rax), %rdi
	movl	$.L.str.3, %esi
	callq	strcmp
	cmpl	$0, %eax
	jne	.LBB1_181
# %bb.180:                              # %if.then404
                                        #   in Loop: Header=BB1_178 Depth=1
	movb	$0, -9(%rbp)
	jmp	.LBB1_185
.LBB1_181:                              # %if.end405
                                        #   in Loop: Header=BB1_178 Depth=1
	movq	-24(%rbp), %rax
	movq	(%rax), %rax
	movsbl	(%rax), %eax
	cmpl	$45, %eax
	jne	.LBB1_184
# %bb.182:                              # %land.lhs.true411
                                        #   in Loop: Header=BB1_178 Depth=1
	movzbl	-9(%rbp), %eax
	cmpl	$0, %eax
	je	.LBB1_184
# %bb.183:                              # %if.then414
                                        #   in Loop: Header=BB1_178 Depth=1
	jmp	.LBB1_185
.LBB1_184:                              # %if.end415
                                        #   in Loop: Header=BB1_178 Depth=1
	movl	numFilesProcessed, %eax
	addl	$1, %eax
	movl	%eax, numFilesProcessed
	movq	-24(%rbp), %rax
	movq	(%rax), %rdi
	callq	testf
.LBB1_185:                              # %for.inc418
                                        #   in Loop: Header=BB1_178 Depth=1
	movq	-24(%rbp), %rax
	movq	8(%rax), %rax
	movq	%rax, -24(%rbp)
	jmp	.LBB1_178
.LBB1_186:                              # %for.end420
	jmp	.LBB1_187
.LBB1_187:                              # %if.end421
	movzbl	testFailsExist, %eax
	cmpl	$0, %eax
	je	.LBB1_190
# %bb.188:                              # %land.lhs.true424
	movzbl	noisy, %eax
	cmpl	$0, %eax
	je	.LBB1_190
# %bb.189:                              # %if.then427
	movq	stderr, %rdi
	movabsq	$.L.str.29, %rsi
	movb	$0, %al
	callq	fprintf
	movl	$2, %edi
	callq	setExit
	movl	exitValue, %edi
	callq	exit
.LBB1_190:                              # %if.end429
	jmp	.LBB1_191
.LBB1_191:                              # %if.end430
	jmp	.LBB1_192
.LBB1_192:                              # %if.end431
	movq	-32(%rbp), %rax
	movq	%rax, -24(%rbp)
.LBB1_193:                              # %while.cond
                                        # =>This Inner Loop Header: Depth=1
	cmpq	$0, -24(%rbp)
	je	.LBB1_197
# %bb.194:                              # %while.body
                                        #   in Loop: Header=BB1_193 Depth=1
	movq	-24(%rbp), %rax
	movq	8(%rax), %rax
	movq	%rax, -72(%rbp)
	movq	-24(%rbp), %rax
	cmpq	$0, (%rax)
	je	.LBB1_196
# %bb.195:                              # %if.then438
                                        #   in Loop: Header=BB1_193 Depth=1
	movq	-24(%rbp), %rax
	movq	(%rax), %rdi
	callq	free
.LBB1_196:                              # %if.end440
                                        #   in Loop: Header=BB1_193 Depth=1
	movq	-24(%rbp), %rdi
	callq	free
	movq	-72(%rbp), %rax
	movq	%rax, -24(%rbp)
	jmp	.LBB1_193
.LBB1_197:                              # %while.end
	movl	exitValue, %eax
	addq	$72, %rsp
	popq	%rbx
	popq	%rbp
	.cfi_def_cfa %rsp, 8
	retq
.Lfunc_end1:
	.size	main, .Lfunc_end1-main
	.cfi_endproc
	.section	.rodata,"a",@progbits
	.p2align	3
.LJTI1_0:
	.quad	.LBB1_50
	.quad	.LBB1_51
	.quad	.LBB1_52
	.quad	.LBB1_53
	.quad	.LBB1_54
	.quad	.LBB1_55
	.quad	.LBB1_56
	.quad	.LBB1_57
	.quad	.LBB1_58
	.quad	.LBB1_62
	.quad	.LBB1_62
	.quad	.LBB1_62
	.quad	.LBB1_62
	.quad	.LBB1_62
	.quad	.LBB1_62
	.quad	.LBB1_62
	.quad	.LBB1_62
	.quad	.LBB1_62
	.quad	.LBB1_62
	.quad	.LBB1_62
	.quad	.LBB1_62
	.quad	.LBB1_62
	.quad	.LBB1_62
	.quad	.LBB1_62
	.quad	.LBB1_62
	.quad	.LBB1_62
	.quad	.LBB1_62
	.quad	.LBB1_59
	.quad	.LBB1_62
	.quad	.LBB1_62
	.quad	.LBB1_62
	.quad	.LBB1_62
	.quad	.LBB1_62
	.quad	.LBB1_62
	.quad	.LBB1_62
	.quad	.LBB1_62
	.quad	.LBB1_62
	.quad	.LBB1_59
	.quad	.LBB1_62
	.quad	.LBB1_62
	.quad	.LBB1_62
	.quad	.LBB1_62
	.quad	.LBB1_62
	.quad	.LBB1_62
	.quad	.LBB1_62
	.quad	.LBB1_62
	.quad	.LBB1_62
	.quad	.LBB1_62
	.quad	.LBB1_62
	.quad	.LBB1_62
	.quad	.LBB1_42
	.quad	.LBB1_43
	.quad	.LBB1_62
	.quad	.LBB1_45
	.quad	.LBB1_62
	.quad	.LBB1_61
	.quad	.LBB1_62
	.quad	.LBB1_62
	.quad	.LBB1_47
	.quad	.LBB1_62
	.quad	.LBB1_62
	.quad	.LBB1_62
	.quad	.LBB1_62
	.quad	.LBB1_62
	.quad	.LBB1_49
	.quad	.LBB1_62
	.quad	.LBB1_48
	.quad	.LBB1_46
	.quad	.LBB1_62
	.quad	.LBB1_60
	.quad	.LBB1_62
	.quad	.LBB1_62
	.quad	.LBB1_62
	.quad	.LBB1_44
                                        # -- End function
	.text
	.p2align	4, 0x90         # -- Begin function mySIGSEGVorSIGBUScatcher
	.type	mySIGSEGVorSIGBUScatcher,@function
mySIGSEGVorSIGBUScatcher:               # @mySIGSEGVorSIGBUScatcher
	.cfi_startproc
# %bb.0:                                # %entry
	pushq	%rbp
	.cfi_def_cfa_offset 16
	.cfi_offset %rbp, -16
	movq	%rsp, %rbp
	.cfi_def_cfa_register %rbp
	subq	$16, %rsp
	movl	%edi, -4(%rbp)
	cmpl	$1, opMode
	jne	.LBB2_2
# %bb.1:                                # %if.then
	movq	stderr, %rdi
	movq	progName, %rdx
	movabsq	$.L.str.36, %rsi
	movb	$0, %al
	callq	fprintf
	jmp	.LBB2_3
.LBB2_2:                                # %if.else
	movq	stderr, %rdi
	movq	progName, %rdx
	movabsq	$.L.str.37, %rsi
	movb	$0, %al
	callq	fprintf
.LBB2_3:                                # %if.end
	callq	showFileNames
	cmpl	$1, opMode
	jne	.LBB2_5
# %bb.4:                                # %if.then3
	movl	$3, %edi
	callq	cleanUpAndFail
.LBB2_5:                                # %if.else4
	callq	cadvise
	movl	$2, %edi
	callq	cleanUpAndFail
.Lfunc_end2:
	.size	mySIGSEGVorSIGBUScatcher, .Lfunc_end2-mySIGSEGVorSIGBUScatcher
	.cfi_endproc
                                        # -- End function
	.p2align	4, 0x90         # -- Begin function copyFileName
	.type	copyFileName,@function
copyFileName:                           # @copyFileName
	.cfi_startproc
# %bb.0:                                # %rand_bb
	pushq	%rbp
	.cfi_def_cfa_offset 16
	.cfi_offset %rbp, -16
	movq	%rsp, %rbp
	.cfi_def_cfa_register %rbp
	pushq	%r14
	pushq	%rbx
	.cfi_offset %rbx, -32
	.cfi_offset %r14, -24
	movq	%rsi, %r14
	movq	%rdi, %rbx
	callq	get_rand
	cmpl	$0, %eax
	jne	.LBB3_2
# %bb.1:                                # %func_copyFileName.2
	movq	%rbx, %rdi
	movq	%r14, %rsi
	callq	copyFileName.2
	popq	%rbx
	popq	%r14
	popq	%rbp
	.cfi_def_cfa %rsp, 8
	retq
.LBB3_2:                                # %func_copyFileName.35
	.cfi_def_cfa %rbp, 16
	movq	%rbx, %rdi
	movq	%r14, %rsi
	callq	copyFileName.35
	popq	%rbx
	popq	%r14
	popq	%rbp
	.cfi_def_cfa %rsp, 8
	retq
.Lfunc_end3:
	.size	copyFileName, .Lfunc_end3-copyFileName
	.cfi_endproc
                                        # -- End function
	.p2align	4, 0x90         # -- Begin function addFlagsFromEnvVar
	.type	addFlagsFromEnvVar,@function
addFlagsFromEnvVar:                     # @addFlagsFromEnvVar
	.cfi_startproc
# %bb.0:                                # %rand_bb
	pushq	%rbp
	.cfi_def_cfa_offset 16
	.cfi_offset %rbp, -16
	movq	%rsp, %rbp
	.cfi_def_cfa_register %rbp
	pushq	%r14
	pushq	%rbx
	.cfi_offset %rbx, -32
	.cfi_offset %r14, -24
	movq	%rsi, %r14
	movq	%rdi, %rbx
	callq	get_rand
	cmpl	$0, %eax
	jne	.LBB4_5
# %bb.1:                                # %func_addFlagsFromEnvVar.49
	movq	%rbx, %rdi
	movq	%r14, %rsi
	callq	addFlagsFromEnvVar.49
	popq	%rbx
	popq	%r14
	popq	%rbp
	.cfi_def_cfa %rsp, 8
	retq
.LBB4_2:                                # %func_addFlagsFromEnvVar.80
	.cfi_def_cfa %rbp, 16
	movq	%rbx, %rdi
	movq	%r14, %rsi
	callq	addFlagsFromEnvVar.80
	popq	%rbx
	popq	%r14
	popq	%rbp
	.cfi_def_cfa %rsp, 8
	retq
.LBB4_3:                                # %func_addFlagsFromEnvVar.84
	.cfi_def_cfa %rbp, 16
	movq	%rbx, %rdi
	movq	%r14, %rsi
	callq	addFlagsFromEnvVar.84
	popq	%rbx
	popq	%r14
	popq	%rbp
	.cfi_def_cfa %rsp, 8
	retq
.LBB4_4:                                # %func_addFlagsFromEnvVar.91
	.cfi_def_cfa %rbp, 16
	movq	%rbx, %rdi
	movq	%r14, %rsi
	callq	addFlagsFromEnvVar.91
	popq	%rbx
	popq	%r14
	popq	%rbp
	.cfi_def_cfa %rsp, 8
	retq
.LBB4_5:                                # %ctrl0
	.cfi_def_cfa %rbp, 16
	cmpl	$1, %eax
	je	.LBB4_2
# %bb.6:                                # %ctrl1
	cmpl	$2, %eax
	je	.LBB4_3
	jmp	.LBB4_4
.Lfunc_end4:
	.size	addFlagsFromEnvVar, .Lfunc_end4-addFlagsFromEnvVar
	.cfi_endproc
                                        # -- End function
	.p2align	4, 0x90         # -- Begin function snocString
	.type	snocString,@function
snocString:                             # @snocString
	.cfi_startproc
# %bb.0:                                # %rand_bb
	pushq	%rbp
	.cfi_def_cfa_offset 16
	.cfi_offset %rbp, -16
	movq	%rsp, %rbp
	.cfi_def_cfa_register %rbp
	pushq	%r14
	pushq	%rbx
	.cfi_offset %rbx, -32
	.cfi_offset %r14, -24
	movq	%rsi, %r14
	movq	%rdi, %rbx
	callq	get_rand
	cmpl	$0, %eax
	jne	.LBB5_5
# %bb.1:                                # %func_snocString.9
	movq	%rbx, %rdi
	movq	%r14, %rsi
	callq	snocString.9
	popq	%rbx
	popq	%r14
	popq	%rbp
	.cfi_def_cfa %rsp, 8
	retq
.LBB5_2:                                # %func_snocString.24
	.cfi_def_cfa %rbp, 16
	movq	%rbx, %rdi
	movq	%r14, %rsi
	callq	snocString.24
	popq	%rbx
	popq	%r14
	popq	%rbp
	.cfi_def_cfa %rsp, 8
	retq
.LBB5_3:                                # %func_snocString.29
	.cfi_def_cfa %rbp, 16
	movq	%rbx, %rdi
	movq	%r14, %rsi
	callq	snocString.29
	popq	%rbx
	popq	%r14
	popq	%rbp
	.cfi_def_cfa %rsp, 8
	retq
.LBB5_4:                                # %func_snocString.54
	.cfi_def_cfa %rbp, 16
	movq	%rbx, %rdi
	movq	%r14, %rsi
	callq	snocString.54
	popq	%rbx
	popq	%r14
	popq	%rbp
	.cfi_def_cfa %rsp, 8
	retq
.LBB5_5:                                # %ctrl0
	.cfi_def_cfa %rbp, 16
	cmpl	$1, %eax
	je	.LBB5_2
# %bb.6:                                # %ctrl1
	cmpl	$2, %eax
	je	.LBB5_3
	jmp	.LBB5_4
.Lfunc_end5:
	.size	snocString, .Lfunc_end5-snocString
	.cfi_endproc
                                        # -- End function
	.p2align	4, 0x90         # -- Begin function license
	.type	license,@function
license:                                # @license
	.cfi_startproc
# %bb.0:                                # %entry
	pushq	%rbp
	.cfi_def_cfa_offset 16
	.cfi_offset %rbp, -16
	movq	%rsp, %rbp
	.cfi_def_cfa_register %rbp
	pushq	%rbx
	pushq	%rax
	.cfi_offset %rbx, -24
	movq	stderr, %rbx
	callq	BZ2_bzlibVersion
	movq	%rbx, %rdi
	movabsq	$.L.str.49, %rsi
	movq	%rax, %rdx
	movb	$0, %al
	callq	fprintf
	addq	$8, %rsp
	popq	%rbx
	popq	%rbp
	.cfi_def_cfa %rsp, 8
	retq
.Lfunc_end6:
	.size	license, .Lfunc_end6-license
	.cfi_endproc
                                        # -- End function
	.p2align	4, 0x90         # -- Begin function usage
	.type	usage,@function
usage:                                  # @usage
	.cfi_startproc
# %bb.0:                                # %entry
	pushq	%rbp
	.cfi_def_cfa_offset 16
	.cfi_offset %rbp, -16
	movq	%rsp, %rbp
	.cfi_def_cfa_register %rbp
	pushq	%rbx
	pushq	%rax
	.cfi_offset %rbx, -24
	movq	%rdi, -16(%rbp)
	movq	stderr, %rbx
	callq	BZ2_bzlibVersion
	movq	-16(%rbp), %rcx
	movq	%rbx, %rdi
	movabsq	$.L.str.50, %rsi
	movq	%rax, %rdx
	movb	$0, %al
	callq	fprintf
	addq	$8, %rsp
	popq	%rbx
	popq	%rbp
	.cfi_def_cfa %rsp, 8
	retq
.Lfunc_end7:
	.size	usage, .Lfunc_end7-usage
	.cfi_endproc
                                        # -- End function
	.p2align	4, 0x90         # -- Begin function redundant
	.type	redundant,@function
redundant:                              # @redundant
	.cfi_startproc
# %bb.0:                                # %entry
	pushq	%rbp
	.cfi_def_cfa_offset 16
	.cfi_offset %rbp, -16
	movq	%rsp, %rbp
	.cfi_def_cfa_register %rbp
	subq	$16, %rsp
	movq	%rdi, -8(%rbp)
	movq	stderr, %rdi
	movq	progName, %rdx
	movq	-8(%rbp), %rcx
	movabsq	$.L.str.51, %rsi
	movb	$0, %al
	callq	fprintf
	addq	$16, %rsp
	popq	%rbp
	.cfi_def_cfa %rsp, 8
	retq
.Lfunc_end8:
	.size	redundant, .Lfunc_end8-redundant
	.cfi_endproc
                                        # -- End function
	.p2align	4, 0x90         # -- Begin function mySignalCatcher
	.type	mySignalCatcher,@function
mySignalCatcher:                        # @mySignalCatcher
	.cfi_startproc
# %bb.0:                                # %entry
	pushq	%rbp
	.cfi_def_cfa_offset 16
	.cfi_offset %rbp, -16
	movq	%rsp, %rbp
	.cfi_def_cfa_register %rbp
	subq	$16, %rsp
	movl	%edi, -4(%rbp)
	movq	stderr, %rdi
	movq	progName, %rdx
	movabsq	$.L.str.52, %rsi
	movb	$0, %al
	callq	fprintf
	movl	$1, %edi
	callq	cleanUpAndFail
.Lfunc_end9:
	.size	mySignalCatcher, .Lfunc_end9-mySignalCatcher
	.cfi_endproc
                                        # -- End function
	.p2align	4, 0x90         # -- Begin function compress
	.type	compress,@function
compress:                               # @compress
	.cfi_startproc
# %bb.0:                                # %rand_bb
	pushq	%rbp
	.cfi_def_cfa_offset 16
	.cfi_offset %rbp, -16
	movq	%rsp, %rbp
	.cfi_def_cfa_register %rbp
	pushq	%rbx
	pushq	%rax
	.cfi_offset %rbx, -24
	movq	%rdi, %rbx
	callq	get_rand
	cmpl	$0, %eax
	jne	.LBB10_5
# %bb.1:                                # %func_compress.13
	movq	%rbx, %rdi
	callq	compress.13
	addq	$8, %rsp
	popq	%rbx
	popq	%rbp
	.cfi_def_cfa %rsp, 8
	retq
.LBB10_2:                               # %func_compress.20
	.cfi_def_cfa %rbp, 16
	movq	%rbx, %rdi
	callq	compress.20
	addq	$8, %rsp
	popq	%rbx
	popq	%rbp
	.cfi_def_cfa %rsp, 8
	retq
.LBB10_3:                               # %func_compress.27
	.cfi_def_cfa %rbp, 16
	movq	%rbx, %rdi
	callq	compress.27
	addq	$8, %rsp
	popq	%rbx
	popq	%rbp
	.cfi_def_cfa %rsp, 8
	retq
.LBB10_4:                               # %func_compress.32
	.cfi_def_cfa %rbp, 16
	movq	%rbx, %rdi
	callq	compress.32
	addq	$8, %rsp
	popq	%rbx
	popq	%rbp
	.cfi_def_cfa %rsp, 8
	retq
.LBB10_5:                               # %ctrl0
	.cfi_def_cfa %rbp, 16
	cmpl	$1, %eax
	je	.LBB10_2
# %bb.6:                                # %ctrl1
	cmpl	$2, %eax
	je	.LBB10_3
	jmp	.LBB10_4
.Lfunc_end10:
	.size	compress, .Lfunc_end10-compress
	.cfi_endproc
                                        # -- End function
	.p2align	4, 0x90         # -- Begin function uncompress
	.type	uncompress,@function
uncompress:                             # @uncompress
	.cfi_startproc
# %bb.0:                                # %rand_bb
	pushq	%rbp
	.cfi_def_cfa_offset 16
	.cfi_offset %rbp, -16
	movq	%rsp, %rbp
	.cfi_def_cfa_register %rbp
	pushq	%rbx
	pushq	%rax
	.cfi_offset %rbx, -24
	movq	%rdi, %rbx
	callq	get_rand
	cmpl	$0, %eax
	jne	.LBB11_5
# %bb.1:                                # %func_uncompress.3
	movq	%rbx, %rdi
	callq	uncompress.3
	addq	$8, %rsp
	popq	%rbx
	popq	%rbp
	.cfi_def_cfa %rsp, 8
	retq
.LBB11_2:                               # %func_uncompress.12
	.cfi_def_cfa %rbp, 16
	movq	%rbx, %rdi
	callq	uncompress.12
	addq	$8, %rsp
	popq	%rbx
	popq	%rbp
	.cfi_def_cfa %rsp, 8
	retq
.LBB11_3:                               # %func_uncompress.22
	.cfi_def_cfa %rbp, 16
	movq	%rbx, %rdi
	callq	uncompress.22
	addq	$8, %rsp
	popq	%rbx
	popq	%rbp
	.cfi_def_cfa %rsp, 8
	retq
.LBB11_4:                               # %func_uncompress.70
	.cfi_def_cfa %rbp, 16
	movq	%rbx, %rdi
	callq	uncompress.70
	addq	$8, %rsp
	popq	%rbx
	popq	%rbp
	.cfi_def_cfa %rsp, 8
	retq
.LBB11_5:                               # %ctrl0
	.cfi_def_cfa %rbp, 16
	cmpl	$1, %eax
	je	.LBB11_2
# %bb.6:                                # %ctrl1
	cmpl	$2, %eax
	je	.LBB11_3
	jmp	.LBB11_4
.Lfunc_end11:
	.size	uncompress, .Lfunc_end11-uncompress
	.cfi_endproc
                                        # -- End function
	.p2align	4, 0x90         # -- Begin function setExit
	.type	setExit,@function
setExit:                                # @setExit
	.cfi_startproc
# %bb.0:                                # %entry
	pushq	%rbp
	.cfi_def_cfa_offset 16
	.cfi_offset %rbp, -16
	movq	%rsp, %rbp
	.cfi_def_cfa_register %rbp
	movl	%edi, -4(%rbp)
	movl	-4(%rbp), %eax
	cmpl	exitValue, %eax
	jle	.LBB12_2
# %bb.1:                                # %if.then
	movl	-4(%rbp), %eax
	movl	%eax, exitValue
.LBB12_2:                               # %if.end
	popq	%rbp
	.cfi_def_cfa %rsp, 8
	retq
.Lfunc_end12:
	.size	setExit, .Lfunc_end12-setExit
	.cfi_endproc
                                        # -- End function
	.p2align	4, 0x90         # -- Begin function testf
	.type	testf,@function
testf:                                  # @testf
	.cfi_startproc
# %bb.0:                                # %rand_bb
	pushq	%rbp
	.cfi_def_cfa_offset 16
	.cfi_offset %rbp, -16
	movq	%rsp, %rbp
	.cfi_def_cfa_register %rbp
	pushq	%rbx
	pushq	%rax
	.cfi_offset %rbx, -24
	movq	%rdi, %rbx
	callq	get_rand
	cmpl	$0, %eax
	jne	.LBB13_5
# %bb.1:                                # %func_testf.14
	movq	%rbx, %rdi
	callq	testf.14
	addq	$8, %rsp
	popq	%rbx
	popq	%rbp
	.cfi_def_cfa %rsp, 8
	retq
.LBB13_2:                               # %func_testf.47
	.cfi_def_cfa %rbp, 16
	movq	%rbx, %rdi
	callq	testf.47
	addq	$8, %rsp
	popq	%rbx
	popq	%rbp
	.cfi_def_cfa %rsp, 8
	retq
.LBB13_3:                               # %func_testf.57
	.cfi_def_cfa %rbp, 16
	movq	%rbx, %rdi
	callq	testf.57
	addq	$8, %rsp
	popq	%rbx
	popq	%rbp
	.cfi_def_cfa %rsp, 8
	retq
.LBB13_4:                               # %func_testf.74
	.cfi_def_cfa %rbp, 16
	movq	%rbx, %rdi
	callq	testf.74
	addq	$8, %rsp
	popq	%rbx
	popq	%rbp
	.cfi_def_cfa %rsp, 8
	retq
.LBB13_5:                               # %ctrl0
	.cfi_def_cfa %rbp, 16
	cmpl	$1, %eax
	je	.LBB13_2
# %bb.6:                                # %ctrl1
	cmpl	$2, %eax
	je	.LBB13_3
	jmp	.LBB13_4
.Lfunc_end13:
	.size	testf, .Lfunc_end13-testf
	.cfi_endproc
                                        # -- End function
	.p2align	4, 0x90         # -- Begin function showFileNames
	.type	showFileNames,@function
showFileNames:                          # @showFileNames
	.cfi_startproc
# %bb.0:                                # %entry
	pushq	%rbp
	.cfi_def_cfa_offset 16
	.cfi_offset %rbp, -16
	movq	%rsp, %rbp
	.cfi_def_cfa_register %rbp
	cmpb	$0, noisy
	je	.LBB14_2
# %bb.1:                                # %if.then
	movq	stderr, %rdi
	movabsq	$.L.str.38, %rsi
	movabsq	$inName, %rdx
	movabsq	$outName, %rcx
	movb	$0, %al
	callq	fprintf
.LBB14_2:                               # %if.end
	popq	%rbp
	.cfi_def_cfa %rsp, 8
	retq
.Lfunc_end14:
	.size	showFileNames, .Lfunc_end14-showFileNames
	.cfi_endproc
                                        # -- End function
	.p2align	4, 0x90         # -- Begin function cleanUpAndFail
	.type	cleanUpAndFail,@function
cleanUpAndFail:                         # @cleanUpAndFail
	.cfi_startproc
# %bb.0:                                # %rand_bb
	pushq	%rbp
	.cfi_def_cfa_offset 16
	.cfi_offset %rbp, -16
	movq	%rsp, %rbp
	.cfi_def_cfa_register %rbp
	pushq	%rbx
	pushq	%rax
	.cfi_offset %rbx, -24
	movl	%edi, %ebx
	callq	get_rand
	cmpl	$0, %eax
	jne	.LBB15_5
# %bb.1:                                # %func_cleanUpAndFail.67
	movl	%ebx, %edi
	callq	cleanUpAndFail.67
	addq	$8, %rsp
	popq	%rbx
	popq	%rbp
	.cfi_def_cfa %rsp, 8
	retq
.LBB15_2:                               # %func_cleanUpAndFail.72
	.cfi_def_cfa %rbp, 16
	movl	%ebx, %edi
	callq	cleanUpAndFail.72
	addq	$8, %rsp
	popq	%rbx
	popq	%rbp
	.cfi_def_cfa %rsp, 8
	retq
.LBB15_3:                               # %func_cleanUpAndFail.88
	.cfi_def_cfa %rbp, 16
	movl	%ebx, %edi
	callq	cleanUpAndFail.88
	addq	$8, %rsp
	popq	%rbx
	popq	%rbp
	.cfi_def_cfa %rsp, 8
	retq
.LBB15_4:                               # %func_cleanUpAndFail.89
	.cfi_def_cfa %rbp, 16
	movl	%ebx, %edi
	callq	cleanUpAndFail.89
	addq	$8, %rsp
	popq	%rbx
	popq	%rbp
	.cfi_def_cfa %rsp, 8
	retq
.LBB15_5:                               # %ctrl0
	.cfi_def_cfa %rbp, 16
	cmpl	$1, %eax
	je	.LBB15_2
# %bb.6:                                # %ctrl1
	cmpl	$2, %eax
	je	.LBB15_3
	jmp	.LBB15_4
.Lfunc_end15:
	.size	cleanUpAndFail, .Lfunc_end15-cleanUpAndFail
	.cfi_endproc
                                        # -- End function
	.p2align	4, 0x90         # -- Begin function cadvise
	.type	cadvise,@function
cadvise:                                # @cadvise
	.cfi_startproc
# %bb.0:                                # %entry
	pushq	%rbp
	.cfi_def_cfa_offset 16
	.cfi_offset %rbp, -16
	movq	%rsp, %rbp
	.cfi_def_cfa_register %rbp
	cmpb	$0, noisy
	je	.LBB16_2
# %bb.1:                                # %if.then
	movq	stderr, %rdi
	movabsq	$.L.str.46, %rsi
	movb	$0, %al
	callq	fprintf
.LBB16_2:                               # %if.end
	popq	%rbp
	.cfi_def_cfa %rsp, 8
	retq
.Lfunc_end16:
	.size	cadvise, .Lfunc_end16-cadvise
	.cfi_endproc
                                        # -- End function
	.p2align	4, 0x90         # -- Begin function mkCell
	.type	mkCell,@function
mkCell:                                 # @mkCell
	.cfi_startproc
# %bb.0:                                # %entry
	pushq	%rbp
	.cfi_def_cfa_offset 16
	.cfi_offset %rbp, -16
	movq	%rsp, %rbp
	.cfi_def_cfa_register %rbp
	subq	$16, %rsp
	movl	$16, %edi
	callq	myMalloc
	movq	%rax, -8(%rbp)
	movq	-8(%rbp), %rax
	movq	$0, (%rax)
	movq	-8(%rbp), %rax
	movq	$0, 8(%rax)
	movq	-8(%rbp), %rax
	addq	$16, %rsp
	popq	%rbp
	.cfi_def_cfa %rsp, 8
	retq
.Lfunc_end17:
	.size	mkCell, .Lfunc_end17-mkCell
	.cfi_endproc
                                        # -- End function
	.p2align	4, 0x90         # -- Begin function myMalloc
	.type	myMalloc,@function
myMalloc:                               # @myMalloc
	.cfi_startproc
# %bb.0:                                # %rand_bb
	pushq	%rbp
	.cfi_def_cfa_offset 16
	.cfi_offset %rbp, -16
	movq	%rsp, %rbp
	.cfi_def_cfa_register %rbp
	pushq	%rbx
	pushq	%rax
	.cfi_offset %rbx, -24
	movl	%edi, %ebx
	callq	get_rand
	cmpl	$0, %eax
	jne	.LBB18_2
# %bb.1:                                # %func_myMalloc.1
	movl	%ebx, %edi
	callq	myMalloc.1
	addq	$8, %rsp
	popq	%rbx
	popq	%rbp
	.cfi_def_cfa %rsp, 8
	retq
.LBB18_2:                               # %func_myMalloc.25
	.cfi_def_cfa %rbp, 16
	movl	%ebx, %edi
	callq	myMalloc.25
	addq	$8, %rsp
	popq	%rbx
	popq	%rbp
	.cfi_def_cfa %rsp, 8
	retq
.Lfunc_end18:
	.size	myMalloc, .Lfunc_end18-myMalloc
	.cfi_endproc
                                        # -- End function
	.p2align	4, 0x90         # -- Begin function outOfMemory
	.type	outOfMemory,@function
outOfMemory:                            # @outOfMemory
	.cfi_startproc
# %bb.0:                                # %entry
	pushq	%rbp
	.cfi_def_cfa_offset 16
	.cfi_offset %rbp, -16
	movq	%rsp, %rbp
	.cfi_def_cfa_register %rbp
	movq	stderr, %rdi
	movq	progName, %rdx
	movabsq	$.L.str.48, %rsi
	movb	$0, %al
	callq	fprintf
	callq	showFileNames
	movl	$1, %edi
	callq	cleanUpAndFail
.Lfunc_end19:
	.size	outOfMemory, .Lfunc_end19-outOfMemory
	.cfi_endproc
                                        # -- End function
	.p2align	4, 0x90         # -- Begin function panic
	.type	panic,@function
panic:                                  # @panic
	.cfi_startproc
# %bb.0:                                # %entry
	pushq	%rbp
	.cfi_def_cfa_offset 16
	.cfi_offset %rbp, -16
	movq	%rsp, %rbp
	.cfi_def_cfa_register %rbp
	subq	$16, %rsp
	movq	%rdi, -8(%rbp)
	movq	stderr, %rdi
	movq	progName, %rdx
	movq	-8(%rbp), %rcx
	movabsq	$.L.str.71, %rsi
	movb	$0, %al
	callq	fprintf
	callq	showFileNames
	movl	$3, %edi
	callq	cleanUpAndFail
.Lfunc_end20:
	.size	panic, .Lfunc_end20-panic
	.cfi_endproc
                                        # -- End function
	.p2align	4, 0x90         # -- Begin function containsDubiousChars
	.type	containsDubiousChars,@function
containsDubiousChars:                   # @containsDubiousChars
	.cfi_startproc
# %bb.0:                                # %entry
	pushq	%rbp
	.cfi_def_cfa_offset 16
	.cfi_offset %rbp, -16
	movq	%rsp, %rbp
	.cfi_def_cfa_register %rbp
	xorl	%eax, %eax
	movq	%rdi, -8(%rbp)
	movzbl	%al, %eax
	popq	%rbp
	.cfi_def_cfa %rsp, 8
	retq
.Lfunc_end21:
	.size	containsDubiousChars, .Lfunc_end21-containsDubiousChars
	.cfi_endproc
                                        # -- End function
	.p2align	4, 0x90         # -- Begin function fileExists
	.type	fileExists,@function
fileExists:                             # @fileExists
	.cfi_startproc
# %bb.0:                                # %rand_bb
	pushq	%rbp
	.cfi_def_cfa_offset 16
	.cfi_offset %rbp, -16
	movq	%rsp, %rbp
	.cfi_def_cfa_register %rbp
	pushq	%rbx
	pushq	%rax
	.cfi_offset %rbx, -24
	movq	%rdi, %rbx
	callq	get_rand
	cmpl	$0, %eax
	jne	.LBB22_5
# %bb.1:                                # %func_fileExists.44
	movq	%rbx, %rdi
	callq	fileExists.44
	movzbl	%al, %eax
	addq	$8, %rsp
	popq	%rbx
	popq	%rbp
	.cfi_def_cfa %rsp, 8
	retq
.LBB22_2:                               # %func_fileExists.75
	.cfi_def_cfa %rbp, 16
	movq	%rbx, %rdi
	callq	fileExists.75
	movzbl	%al, %eax
	addq	$8, %rsp
	popq	%rbx
	popq	%rbp
	.cfi_def_cfa %rsp, 8
	retq
.LBB22_3:                               # %func_fileExists.78
	.cfi_def_cfa %rbp, 16
	movq	%rbx, %rdi
	callq	fileExists.78
	movzbl	%al, %eax
	addq	$8, %rsp
	popq	%rbx
	popq	%rbp
	.cfi_def_cfa %rsp, 8
	retq
.LBB22_4:                               # %func_fileExists.79
	.cfi_def_cfa %rbp, 16
	movq	%rbx, %rdi
	callq	fileExists.79
	movzbl	%al, %eax
	addq	$8, %rsp
	popq	%rbx
	popq	%rbp
	.cfi_def_cfa %rsp, 8
	retq
.LBB22_5:                               # %ctrl0
	.cfi_def_cfa %rbp, 16
	cmpl	$1, %eax
	je	.LBB22_2
# %bb.6:                                # %ctrl1
	cmpl	$2, %eax
	je	.LBB22_3
	jmp	.LBB22_4
.Lfunc_end22:
	.size	fileExists, .Lfunc_end22-fileExists
	.cfi_endproc
                                        # -- End function
	.p2align	4, 0x90         # -- Begin function hasSuffix
	.type	hasSuffix,@function
hasSuffix:                              # @hasSuffix
	.cfi_startproc
# %bb.0:                                # %rand_bb
	pushq	%rbp
	.cfi_def_cfa_offset 16
	.cfi_offset %rbp, -16
	movq	%rsp, %rbp
	.cfi_def_cfa_register %rbp
	pushq	%r14
	pushq	%rbx
	.cfi_offset %rbx, -32
	.cfi_offset %r14, -24
	movq	%rsi, %r14
	movq	%rdi, %rbx
	callq	get_rand
	cmpl	$0, %eax
	jne	.LBB23_5
# %bb.1:                                # %func_hasSuffix.45
	movq	%rbx, %rdi
	movq	%r14, %rsi
	callq	hasSuffix.45
	movzbl	%al, %eax
	popq	%rbx
	popq	%r14
	popq	%rbp
	.cfi_def_cfa %rsp, 8
	retq
.LBB23_2:                               # %func_hasSuffix.55
	.cfi_def_cfa %rbp, 16
	movq	%rbx, %rdi
	movq	%r14, %rsi
	callq	hasSuffix.55
	movzbl	%al, %eax
	popq	%rbx
	popq	%r14
	popq	%rbp
	.cfi_def_cfa %rsp, 8
	retq
.LBB23_3:                               # %func_hasSuffix.63
	.cfi_def_cfa %rbp, 16
	movq	%rbx, %rdi
	movq	%r14, %rsi
	callq	hasSuffix.63
	movzbl	%al, %eax
	popq	%rbx
	popq	%r14
	popq	%rbp
	.cfi_def_cfa %rsp, 8
	retq
.LBB23_4:                               # %func_hasSuffix.73
	.cfi_def_cfa %rbp, 16
	movq	%rbx, %rdi
	movq	%r14, %rsi
	callq	hasSuffix.73
	movzbl	%al, %eax
	popq	%rbx
	popq	%r14
	popq	%rbp
	.cfi_def_cfa %rsp, 8
	retq
.LBB23_5:                               # %ctrl0
	.cfi_def_cfa %rbp, 16
	cmpl	$1, %eax
	je	.LBB23_2
# %bb.6:                                # %ctrl1
	cmpl	$2, %eax
	je	.LBB23_3
	jmp	.LBB23_4
.Lfunc_end23:
	.size	hasSuffix, .Lfunc_end23-hasSuffix
	.cfi_endproc
                                        # -- End function
	.p2align	4, 0x90         # -- Begin function notAStandardFile
	.type	notAStandardFile,@function
notAStandardFile:                       # @notAStandardFile
	.cfi_startproc
# %bb.0:                                # %rand_bb
	pushq	%rbp
	.cfi_def_cfa_offset 16
	.cfi_offset %rbp, -16
	movq	%rsp, %rbp
	.cfi_def_cfa_register %rbp
	pushq	%rbx
	pushq	%rax
	.cfi_offset %rbx, -24
	movq	%rdi, %rbx
	callq	get_rand
	cmpl	$0, %eax
	jne	.LBB24_5
# %bb.1:                                # %func_notAStandardFile.40
	movq	%rbx, %rdi
	callq	notAStandardFile.40
	movzbl	%al, %eax
	addq	$8, %rsp
	popq	%rbx
	popq	%rbp
	.cfi_def_cfa %rsp, 8
	retq
.LBB24_2:                               # %func_notAStandardFile.56
	.cfi_def_cfa %rbp, 16
	movq	%rbx, %rdi
	callq	notAStandardFile.56
	movzbl	%al, %eax
	addq	$8, %rsp
	popq	%rbx
	popq	%rbp
	.cfi_def_cfa %rsp, 8
	retq
.LBB24_3:                               # %func_notAStandardFile.60
	.cfi_def_cfa %rbp, 16
	movq	%rbx, %rdi
	callq	notAStandardFile.60
	movzbl	%al, %eax
	addq	$8, %rsp
	popq	%rbx
	popq	%rbp
	.cfi_def_cfa %rsp, 8
	retq
.LBB24_4:                               # %func_notAStandardFile.86
	.cfi_def_cfa %rbp, 16
	movq	%rbx, %rdi
	callq	notAStandardFile.86
	movzbl	%al, %eax
	addq	$8, %rsp
	popq	%rbx
	popq	%rbp
	.cfi_def_cfa %rsp, 8
	retq
.LBB24_5:                               # %ctrl0
	.cfi_def_cfa %rbp, 16
	cmpl	$1, %eax
	je	.LBB24_2
# %bb.6:                                # %ctrl1
	cmpl	$2, %eax
	je	.LBB24_3
	jmp	.LBB24_4
.Lfunc_end24:
	.size	notAStandardFile, .Lfunc_end24-notAStandardFile
	.cfi_endproc
                                        # -- End function
	.p2align	4, 0x90         # -- Begin function countHardLinks
	.type	countHardLinks,@function
countHardLinks:                         # @countHardLinks
	.cfi_startproc
# %bb.0:                                # %rand_bb
	pushq	%rbp
	.cfi_def_cfa_offset 16
	.cfi_offset %rbp, -16
	movq	%rsp, %rbp
	.cfi_def_cfa_register %rbp
	pushq	%rbx
	pushq	%rax
	.cfi_offset %rbx, -24
	movq	%rdi, %rbx
	callq	get_rand
	cmpl	$0, %eax
	jne	.LBB25_5
# %bb.1:                                # %func_countHardLinks.37
	movq	%rbx, %rdi
	callq	countHardLinks.37
	addq	$8, %rsp
	popq	%rbx
	popq	%rbp
	.cfi_def_cfa %rsp, 8
	retq
.LBB25_2:                               # %func_countHardLinks.68
	.cfi_def_cfa %rbp, 16
	movq	%rbx, %rdi
	callq	countHardLinks.68
	addq	$8, %rsp
	popq	%rbx
	popq	%rbp
	.cfi_def_cfa %rsp, 8
	retq
.LBB25_3:                               # %func_countHardLinks.95
	.cfi_def_cfa %rbp, 16
	movq	%rbx, %rdi
	callq	countHardLinks.95
	addq	$8, %rsp
	popq	%rbx
	popq	%rbp
	.cfi_def_cfa %rsp, 8
	retq
.LBB25_4:                               # %func_countHardLinks.96
	.cfi_def_cfa %rbp, 16
	movq	%rbx, %rdi
	callq	countHardLinks.96
	addq	$8, %rsp
	popq	%rbx
	popq	%rbp
	.cfi_def_cfa %rsp, 8
	retq
.LBB25_5:                               # %ctrl0
	.cfi_def_cfa %rbp, 16
	cmpl	$1, %eax
	je	.LBB25_2
# %bb.6:                                # %ctrl1
	cmpl	$2, %eax
	je	.LBB25_3
	jmp	.LBB25_4
.Lfunc_end25:
	.size	countHardLinks, .Lfunc_end25-countHardLinks
	.cfi_endproc
                                        # -- End function
	.p2align	4, 0x90         # -- Begin function saveInputFileMetaInfo
	.type	saveInputFileMetaInfo,@function
saveInputFileMetaInfo:                  # @saveInputFileMetaInfo
	.cfi_startproc
# %bb.0:                                # %rand_bb
	pushq	%rbp
	.cfi_def_cfa_offset 16
	.cfi_offset %rbp, -16
	movq	%rsp, %rbp
	.cfi_def_cfa_register %rbp
	pushq	%rbx
	pushq	%rax
	.cfi_offset %rbx, -24
	movq	%rdi, %rbx
	callq	get_rand
	cmpl	$0, %eax
	jne	.LBB26_2
# %bb.1:                                # %func_saveInputFileMetaInfo.28
	movq	%rbx, %rdi
	callq	saveInputFileMetaInfo.28
	addq	$8, %rsp
	popq	%rbx
	popq	%rbp
	.cfi_def_cfa %rsp, 8
	retq
.LBB26_2:                               # %func_saveInputFileMetaInfo.30
	.cfi_def_cfa %rbp, 16
	movq	%rbx, %rdi
	callq	saveInputFileMetaInfo.30
	addq	$8, %rsp
	popq	%rbx
	popq	%rbp
	.cfi_def_cfa %rsp, 8
	retq
.Lfunc_end26:
	.size	saveInputFileMetaInfo, .Lfunc_end26-saveInputFileMetaInfo
	.cfi_endproc
                                        # -- End function
	.p2align	4, 0x90         # -- Begin function pad
	.type	pad,@function
pad:                                    # @pad
	.cfi_startproc
# %bb.0:                                # %rand_bb
	pushq	%rbp
	.cfi_def_cfa_offset 16
	.cfi_offset %rbp, -16
	movq	%rsp, %rbp
	.cfi_def_cfa_register %rbp
	pushq	%rbx
	pushq	%rax
	.cfi_offset %rbx, -24
	movq	%rdi, %rbx
	callq	get_rand
	cmpl	$0, %eax
	jne	.LBB27_2
# %bb.1:                                # %func_pad.43
	movq	%rbx, %rdi
	callq	pad.43
	addq	$8, %rsp
	popq	%rbx
	popq	%rbp
	.cfi_def_cfa %rsp, 8
	retq
.LBB27_2:                               # %func_pad.61
	.cfi_def_cfa %rbp, 16
	movq	%rbx, %rdi
	callq	pad.61
	addq	$8, %rsp
	popq	%rbx
	popq	%rbp
	.cfi_def_cfa %rsp, 8
	retq
.Lfunc_end27:
	.size	pad, .Lfunc_end27-pad
	.cfi_endproc
                                        # -- End function
	.p2align	4, 0x90         # -- Begin function compressStream
	.type	compressStream,@function
compressStream:                         # @compressStream
	.cfi_startproc
# %bb.0:                                # %rand_bb
	pushq	%rbp
	.cfi_def_cfa_offset 16
	.cfi_offset %rbp, -16
	movq	%rsp, %rbp
	.cfi_def_cfa_register %rbp
	pushq	%r14
	pushq	%rbx
	.cfi_offset %rbx, -32
	.cfi_offset %r14, -24
	movq	%rsi, %r14
	movq	%rdi, %rbx
	callq	get_rand
	cmpl	$0, %eax
	jne	.LBB28_5
# %bb.1:                                # %func_compressStream.18
	movq	%rbx, %rdi
	movq	%r14, %rsi
	callq	compressStream.18
	popq	%rbx
	popq	%r14
	popq	%rbp
	.cfi_def_cfa %rsp, 8
	retq
.LBB28_2:                               # %func_compressStream.23
	.cfi_def_cfa %rbp, 16
	movq	%rbx, %rdi
	movq	%r14, %rsi
	callq	compressStream.23
	popq	%rbx
	popq	%r14
	popq	%rbp
	.cfi_def_cfa %rsp, 8
	retq
.LBB28_3:                               # %func_compressStream.52
	.cfi_def_cfa %rbp, 16
	movq	%rbx, %rdi
	movq	%r14, %rsi
	callq	compressStream.52
	popq	%rbx
	popq	%r14
	popq	%rbp
	.cfi_def_cfa %rsp, 8
	retq
.LBB28_4:                               # %func_compressStream.85
	.cfi_def_cfa %rbp, 16
	movq	%rbx, %rdi
	movq	%r14, %rsi
	callq	compressStream.85
	popq	%rbx
	popq	%r14
	popq	%rbp
	.cfi_def_cfa %rsp, 8
	retq
.LBB28_5:                               # %ctrl0
	.cfi_def_cfa %rbp, 16
	cmpl	$1, %eax
	je	.LBB28_2
# %bb.6:                                # %ctrl1
	cmpl	$2, %eax
	je	.LBB28_3
	jmp	.LBB28_4
.Lfunc_end28:
	.size	compressStream, .Lfunc_end28-compressStream
	.cfi_endproc
                                        # -- End function
	.p2align	4, 0x90         # -- Begin function applySavedMetaInfoToOutputFile
	.type	applySavedMetaInfoToOutputFile,@function
applySavedMetaInfoToOutputFile:         # @applySavedMetaInfoToOutputFile
	.cfi_startproc
# %bb.0:                                # %rand_bb
	pushq	%rbp
	.cfi_def_cfa_offset 16
	.cfi_offset %rbp, -16
	movq	%rsp, %rbp
	.cfi_def_cfa_register %rbp
	pushq	%rbx
	pushq	%rax
	.cfi_offset %rbx, -24
	movq	%rdi, %rbx
	callq	get_rand
	cmpl	$0, %eax
	jne	.LBB29_5
# %bb.1:                                # %func_applySavedMetaInfoToOutputFile.46
	movq	%rbx, %rdi
	callq	applySavedMetaInfoToOutputFile.46
	addq	$8, %rsp
	popq	%rbx
	popq	%rbp
	.cfi_def_cfa %rsp, 8
	retq
.LBB29_2:                               # %func_applySavedMetaInfoToOutputFile.71
	.cfi_def_cfa %rbp, 16
	movq	%rbx, %rdi
	callq	applySavedMetaInfoToOutputFile.71
	addq	$8, %rsp
	popq	%rbx
	popq	%rbp
	.cfi_def_cfa %rsp, 8
	retq
.LBB29_3:                               # %func_applySavedMetaInfoToOutputFile.81
	.cfi_def_cfa %rbp, 16
	movq	%rbx, %rdi
	callq	applySavedMetaInfoToOutputFile.81
	addq	$8, %rsp
	popq	%rbx
	popq	%rbp
	.cfi_def_cfa %rsp, 8
	retq
.LBB29_4:                               # %func_applySavedMetaInfoToOutputFile.87
	.cfi_def_cfa %rbp, 16
	movq	%rbx, %rdi
	callq	applySavedMetaInfoToOutputFile.87
	addq	$8, %rsp
	popq	%rbx
	popq	%rbp
	.cfi_def_cfa %rsp, 8
	retq
.LBB29_5:                               # %ctrl0
	.cfi_def_cfa %rbp, 16
	cmpl	$1, %eax
	je	.LBB29_2
# %bb.6:                                # %ctrl1
	cmpl	$2, %eax
	je	.LBB29_3
	jmp	.LBB29_4
.Lfunc_end29:
	.size	applySavedMetaInfoToOutputFile, .Lfunc_end29-applySavedMetaInfoToOutputFile
	.cfi_endproc
                                        # -- End function
	.p2align	4, 0x90         # -- Begin function ioError
	.type	ioError,@function
ioError:                                # @ioError
	.cfi_startproc
# %bb.0:                                # %entry
	pushq	%rbp
	.cfi_def_cfa_offset 16
	.cfi_offset %rbp, -16
	movq	%rsp, %rbp
	.cfi_def_cfa_register %rbp
	movq	stderr, %rdi
	movq	progName, %rdx
	movabsq	$.L.str.78, %rsi
	movb	$0, %al
	callq	fprintf
	movq	progName, %rdi
	callq	perror
	callq	showFileNames
	movl	$1, %edi
	callq	cleanUpAndFail
.Lfunc_end30:
	.size	ioError, .Lfunc_end30-ioError
	.cfi_endproc
                                        # -- End function
	.p2align	4, 0x90         # -- Begin function myfeof
	.type	myfeof,@function
myfeof:                                 # @myfeof
	.cfi_startproc
# %bb.0:                                # %rand_bb
	pushq	%rbp
	.cfi_def_cfa_offset 16
	.cfi_offset %rbp, -16
	movq	%rsp, %rbp
	.cfi_def_cfa_register %rbp
	pushq	%rbx
	pushq	%rax
	.cfi_offset %rbx, -24
	movq	%rdi, %rbx
	callq	get_rand
	cmpl	$0, %eax
	jne	.LBB31_5
# %bb.1:                                # %func_myfeof.19
	movq	%rbx, %rdi
	callq	myfeof.19
	movzbl	%al, %eax
	addq	$8, %rsp
	popq	%rbx
	popq	%rbp
	.cfi_def_cfa %rsp, 8
	retq
.LBB31_2:                               # %func_myfeof.53
	.cfi_def_cfa %rbp, 16
	movq	%rbx, %rdi
	callq	myfeof.53
	movzbl	%al, %eax
	addq	$8, %rsp
	popq	%rbx
	popq	%rbp
	.cfi_def_cfa %rsp, 8
	retq
.LBB31_3:                               # %func_myfeof.69
	.cfi_def_cfa %rbp, 16
	movq	%rbx, %rdi
	callq	myfeof.69
	movzbl	%al, %eax
	addq	$8, %rsp
	popq	%rbx
	popq	%rbp
	.cfi_def_cfa %rsp, 8
	retq
.LBB31_4:                               # %func_myfeof.92
	.cfi_def_cfa %rbp, 16
	movq	%rbx, %rdi
	callq	myfeof.92
	movzbl	%al, %eax
	addq	$8, %rsp
	popq	%rbx
	popq	%rbp
	.cfi_def_cfa %rsp, 8
	retq
.LBB31_5:                               # %ctrl0
	.cfi_def_cfa %rbp, 16
	cmpl	$1, %eax
	je	.LBB31_2
# %bb.6:                                # %ctrl1
	cmpl	$2, %eax
	je	.LBB31_3
	jmp	.LBB31_4
.Lfunc_end31:
	.size	myfeof, .Lfunc_end31-myfeof
	.cfi_endproc
                                        # -- End function
	.p2align	4, 0x90         # -- Begin function uInt64_from_UInt32s
	.type	uInt64_from_UInt32s,@function
uInt64_from_UInt32s:                    # @uInt64_from_UInt32s
	.cfi_startproc
# %bb.0:                                # %rand_bb
	pushq	%rbp
	.cfi_def_cfa_offset 16
	.cfi_offset %rbp, -16
	movq	%rsp, %rbp
	.cfi_def_cfa_register %rbp
	pushq	%r15
	pushq	%r14
	pushq	%rbx
	pushq	%rax
	.cfi_offset %rbx, -40
	.cfi_offset %r14, -32
	.cfi_offset %r15, -24
	movl	%edx, %r14d
	movl	%esi, %r15d
	movq	%rdi, %rbx
	callq	get_rand
	cmpl	$0, %eax
	jne	.LBB32_5
# %bb.1:                                # %func_uInt64_from_UInt32s.8
	movq	%rbx, %rdi
	movl	%r15d, %esi
	movl	%r14d, %edx
	callq	uInt64_from_UInt32s.8
	addq	$8, %rsp
	popq	%rbx
	popq	%r14
	popq	%r15
	popq	%rbp
	.cfi_def_cfa %rsp, 8
	retq
.LBB32_2:                               # %func_uInt64_from_UInt32s.11
	.cfi_def_cfa %rbp, 16
	movq	%rbx, %rdi
	movl	%r15d, %esi
	movl	%r14d, %edx
	callq	uInt64_from_UInt32s.11
	addq	$8, %rsp
	popq	%rbx
	popq	%r14
	popq	%r15
	popq	%rbp
	.cfi_def_cfa %rsp, 8
	retq
.LBB32_3:                               # %func_uInt64_from_UInt32s.34
	.cfi_def_cfa %rbp, 16
	movq	%rbx, %rdi
	movl	%r15d, %esi
	movl	%r14d, %edx
	callq	uInt64_from_UInt32s.34
	addq	$8, %rsp
	popq	%rbx
	popq	%r14
	popq	%r15
	popq	%rbp
	.cfi_def_cfa %rsp, 8
	retq
.LBB32_4:                               # %func_uInt64_from_UInt32s.36
	.cfi_def_cfa %rbp, 16
	movq	%rbx, %rdi
	movl	%r15d, %esi
	movl	%r14d, %edx
	callq	uInt64_from_UInt32s.36
	addq	$8, %rsp
	popq	%rbx
	popq	%r14
	popq	%r15
	popq	%rbp
	.cfi_def_cfa %rsp, 8
	retq
.LBB32_5:                               # %ctrl0
	.cfi_def_cfa %rbp, 16
	cmpl	$1, %eax
	je	.LBB32_2
# %bb.6:                                # %ctrl1
	cmpl	$2, %eax
	je	.LBB32_3
	jmp	.LBB32_4
.Lfunc_end32:
	.size	uInt64_from_UInt32s, .Lfunc_end32-uInt64_from_UInt32s
	.cfi_endproc
                                        # -- End function
	.p2align	4, 0x90         # -- Begin function uInt64_to_double
	.type	uInt64_to_double,@function
uInt64_to_double:                       # @uInt64_to_double
	.cfi_startproc
# %bb.0:                                # %rand_bb
	pushq	%rbp
	.cfi_def_cfa_offset 16
	.cfi_offset %rbp, -16
	movq	%rsp, %rbp
	.cfi_def_cfa_register %rbp
	pushq	%rbx
	pushq	%rax
	.cfi_offset %rbx, -24
	movq	%rdi, %rbx
	callq	get_rand
	cmpl	$0, %eax
	jne	.LBB33_5
# %bb.1:                                # %func_uInt64_to_double.17
	movq	%rbx, %rdi
	callq	uInt64_to_double.17
	addq	$8, %rsp
	popq	%rbx
	popq	%rbp
	.cfi_def_cfa %rsp, 8
	retq
.LBB33_2:                               # %func_uInt64_to_double.33
	.cfi_def_cfa %rbp, 16
	movq	%rbx, %rdi
	callq	uInt64_to_double.33
	addq	$8, %rsp
	popq	%rbx
	popq	%rbp
	.cfi_def_cfa %rsp, 8
	retq
.LBB33_3:                               # %func_uInt64_to_double.38
	.cfi_def_cfa %rbp, 16
	movq	%rbx, %rdi
	callq	uInt64_to_double.38
	addq	$8, %rsp
	popq	%rbx
	popq	%rbp
	.cfi_def_cfa %rsp, 8
	retq
.LBB33_4:                               # %func_uInt64_to_double.41
	.cfi_def_cfa %rbp, 16
	movq	%rbx, %rdi
	callq	uInt64_to_double.41
	addq	$8, %rsp
	popq	%rbx
	popq	%rbp
	.cfi_def_cfa %rsp, 8
	retq
.LBB33_5:                               # %ctrl0
	.cfi_def_cfa %rbp, 16
	cmpl	$1, %eax
	je	.LBB33_2
# %bb.6:                                # %ctrl1
	cmpl	$2, %eax
	je	.LBB33_3
	jmp	.LBB33_4
.Lfunc_end33:
	.size	uInt64_to_double, .Lfunc_end33-uInt64_to_double
	.cfi_endproc
                                        # -- End function
	.p2align	4, 0x90         # -- Begin function uInt64_toAscii
	.type	uInt64_toAscii,@function
uInt64_toAscii:                         # @uInt64_toAscii
	.cfi_startproc
# %bb.0:                                # %rand_bb
	pushq	%rbp
	.cfi_def_cfa_offset 16
	.cfi_offset %rbp, -16
	movq	%rsp, %rbp
	.cfi_def_cfa_register %rbp
	pushq	%r14
	pushq	%rbx
	.cfi_offset %rbx, -32
	.cfi_offset %r14, -24
	movq	%rsi, %r14
	movq	%rdi, %rbx
	callq	get_rand
	cmpl	$0, %eax
	jne	.LBB34_5
# %bb.1:                                # %func_uInt64_toAscii.4
	movq	%rbx, %rdi
	movq	%r14, %rsi
	callq	uInt64_toAscii.4
	popq	%rbx
	popq	%r14
	popq	%rbp
	.cfi_def_cfa %rsp, 8
	retq
.LBB34_2:                               # %func_uInt64_toAscii.7
	.cfi_def_cfa %rbp, 16
	movq	%rbx, %rdi
	movq	%r14, %rsi
	callq	uInt64_toAscii.7
	popq	%rbx
	popq	%r14
	popq	%rbp
	.cfi_def_cfa %rsp, 8
	retq
.LBB34_3:                               # %func_uInt64_toAscii.77
	.cfi_def_cfa %rbp, 16
	movq	%rbx, %rdi
	movq	%r14, %rsi
	callq	uInt64_toAscii.77
	popq	%rbx
	popq	%r14
	popq	%rbp
	.cfi_def_cfa %rsp, 8
	retq
.LBB34_4:                               # %func_uInt64_toAscii.83
	.cfi_def_cfa %rbp, 16
	movq	%rbx, %rdi
	movq	%r14, %rsi
	callq	uInt64_toAscii.83
	popq	%rbx
	popq	%r14
	popq	%rbp
	.cfi_def_cfa %rsp, 8
	retq
.LBB34_5:                               # %ctrl0
	.cfi_def_cfa %rbp, 16
	cmpl	$1, %eax
	je	.LBB34_2
# %bb.6:                                # %ctrl1
	cmpl	$2, %eax
	je	.LBB34_3
	jmp	.LBB34_4
.Lfunc_end34:
	.size	uInt64_toAscii, .Lfunc_end34-uInt64_toAscii
	.cfi_endproc
                                        # -- End function
	.p2align	4, 0x90         # -- Begin function configError
	.type	configError,@function
configError:                            # @configError
	.cfi_startproc
# %bb.0:                                # %entry
	pushq	%rbp
	.cfi_def_cfa_offset 16
	.cfi_offset %rbp, -16
	movq	%rsp, %rbp
	.cfi_def_cfa_register %rbp
	movq	stderr, %rdi
	movabsq	$.L.str.77, %rsi
	movb	$0, %al
	callq	fprintf
	movl	$3, %edi
	callq	setExit
	movl	exitValue, %edi
	callq	exit
.Lfunc_end35:
	.size	configError, .Lfunc_end35-configError
	.cfi_endproc
                                        # -- End function
	.p2align	4, 0x90         # -- Begin function uInt64_qrm10
	.type	uInt64_qrm10,@function
uInt64_qrm10:                           # @uInt64_qrm10
	.cfi_startproc
# %bb.0:                                # %rand_bb
	pushq	%rbp
	.cfi_def_cfa_offset 16
	.cfi_offset %rbp, -16
	movq	%rsp, %rbp
	.cfi_def_cfa_register %rbp
	pushq	%rbx
	pushq	%rax
	.cfi_offset %rbx, -24
	movq	%rdi, %rbx
	callq	get_rand
	cmpl	$0, %eax
	jne	.LBB36_5
# %bb.1:                                # %func_uInt64_qrm10.16
	movq	%rbx, %rdi
	callq	uInt64_qrm10.16
	addq	$8, %rsp
	popq	%rbx
	popq	%rbp
	.cfi_def_cfa %rsp, 8
	retq
.LBB36_2:                               # %func_uInt64_qrm10.31
	.cfi_def_cfa %rbp, 16
	movq	%rbx, %rdi
	callq	uInt64_qrm10.31
	addq	$8, %rsp
	popq	%rbx
	popq	%rbp
	.cfi_def_cfa %rsp, 8
	retq
.LBB36_3:                               # %func_uInt64_qrm10.93
	.cfi_def_cfa %rbp, 16
	movq	%rbx, %rdi
	callq	uInt64_qrm10.93
	addq	$8, %rsp
	popq	%rbx
	popq	%rbp
	.cfi_def_cfa %rsp, 8
	retq
.LBB36_4:                               # %func_uInt64_qrm10.94
	.cfi_def_cfa %rbp, 16
	movq	%rbx, %rdi
	callq	uInt64_qrm10.94
	addq	$8, %rsp
	popq	%rbx
	popq	%rbp
	.cfi_def_cfa %rsp, 8
	retq
.LBB36_5:                               # %ctrl0
	.cfi_def_cfa %rbp, 16
	cmpl	$1, %eax
	je	.LBB36_2
# %bb.6:                                # %ctrl1
	cmpl	$2, %eax
	je	.LBB36_3
	jmp	.LBB36_4
.Lfunc_end36:
	.size	uInt64_qrm10, .Lfunc_end36-uInt64_qrm10
	.cfi_endproc
                                        # -- End function
	.p2align	4, 0x90         # -- Begin function uInt64_isZero
	.type	uInt64_isZero,@function
uInt64_isZero:                          # @uInt64_isZero
	.cfi_startproc
# %bb.0:                                # %rand_bb
	pushq	%rbp
	.cfi_def_cfa_offset 16
	.cfi_offset %rbp, -16
	movq	%rsp, %rbp
	.cfi_def_cfa_register %rbp
	pushq	%rbx
	pushq	%rax
	.cfi_offset %rbx, -24
	movq	%rdi, %rbx
	callq	get_rand
	cmpl	$0, %eax
	jne	.LBB37_5
# %bb.1:                                # %func_uInt64_isZero.26
	movq	%rbx, %rdi
	callq	uInt64_isZero.26
	movzbl	%al, %eax
	addq	$8, %rsp
	popq	%rbx
	popq	%rbp
	.cfi_def_cfa %rsp, 8
	retq
.LBB37_2:                               # %func_uInt64_isZero.39
	.cfi_def_cfa %rbp, 16
	movq	%rbx, %rdi
	callq	uInt64_isZero.39
	movzbl	%al, %eax
	addq	$8, %rsp
	popq	%rbx
	popq	%rbp
	.cfi_def_cfa %rsp, 8
	retq
.LBB37_3:                               # %func_uInt64_isZero.48
	.cfi_def_cfa %rbp, 16
	movq	%rbx, %rdi
	callq	uInt64_isZero.48
	movzbl	%al, %eax
	addq	$8, %rsp
	popq	%rbx
	popq	%rbp
	.cfi_def_cfa %rsp, 8
	retq
.LBB37_4:                               # %func_uInt64_isZero.50
	.cfi_def_cfa %rbp, 16
	movq	%rbx, %rdi
	callq	uInt64_isZero.50
	movzbl	%al, %eax
	addq	$8, %rsp
	popq	%rbx
	popq	%rbp
	.cfi_def_cfa %rsp, 8
	retq
.LBB37_5:                               # %ctrl0
	.cfi_def_cfa %rbp, 16
	cmpl	$1, %eax
	je	.LBB37_2
# %bb.6:                                # %ctrl1
	cmpl	$2, %eax
	je	.LBB37_3
	jmp	.LBB37_4
.Lfunc_end37:
	.size	uInt64_isZero, .Lfunc_end37-uInt64_isZero
	.cfi_endproc
                                        # -- End function
	.p2align	4, 0x90         # -- Begin function mapSuffix
	.type	mapSuffix,@function
mapSuffix:                              # @mapSuffix
	.cfi_startproc
# %bb.0:                                # %rand_bb
	pushq	%rbp
	.cfi_def_cfa_offset 16
	.cfi_offset %rbp, -16
	movq	%rsp, %rbp
	.cfi_def_cfa_register %rbp
	pushq	%r15
	pushq	%r14
	pushq	%rbx
	pushq	%rax
	.cfi_offset %rbx, -40
	.cfi_offset %r14, -32
	.cfi_offset %r15, -24
	movq	%rdx, %r14
	movq	%rsi, %r15
	movq	%rdi, %rbx
	callq	get_rand
	cmpl	$0, %eax
	jne	.LBB38_5
# %bb.1:                                # %func_mapSuffix.5
	movq	%rbx, %rdi
	movq	%r15, %rsi
	movq	%r14, %rdx
	callq	mapSuffix.5
	movzbl	%al, %eax
	addq	$8, %rsp
	popq	%rbx
	popq	%r14
	popq	%r15
	popq	%rbp
	.cfi_def_cfa %rsp, 8
	retq
.LBB38_2:                               # %func_mapSuffix.6
	.cfi_def_cfa %rbp, 16
	movq	%rbx, %rdi
	movq	%r15, %rsi
	movq	%r14, %rdx
	callq	mapSuffix.6
	movzbl	%al, %eax
	addq	$8, %rsp
	popq	%rbx
	popq	%r14
	popq	%r15
	popq	%rbp
	.cfi_def_cfa %rsp, 8
	retq
.LBB38_3:                               # %func_mapSuffix.10
	.cfi_def_cfa %rbp, 16
	movq	%rbx, %rdi
	movq	%r15, %rsi
	movq	%r14, %rdx
	callq	mapSuffix.10
	movzbl	%al, %eax
	addq	$8, %rsp
	popq	%rbx
	popq	%r14
	popq	%r15
	popq	%rbp
	.cfi_def_cfa %rsp, 8
	retq
.LBB38_4:                               # %func_mapSuffix.15
	.cfi_def_cfa %rbp, 16
	movq	%rbx, %rdi
	movq	%r15, %rsi
	movq	%r14, %rdx
	callq	mapSuffix.15
	movzbl	%al, %eax
	addq	$8, %rsp
	popq	%rbx
	popq	%r14
	popq	%r15
	popq	%rbp
	.cfi_def_cfa %rsp, 8
	retq
.LBB38_5:                               # %ctrl0
	.cfi_def_cfa %rbp, 16
	cmpl	$1, %eax
	je	.LBB38_2
# %bb.6:                                # %ctrl1
	cmpl	$2, %eax
	je	.LBB38_3
	jmp	.LBB38_4
.Lfunc_end38:
	.size	mapSuffix, .Lfunc_end38-mapSuffix
	.cfi_endproc
                                        # -- End function
	.p2align	4, 0x90         # -- Begin function uncompressStream
	.type	uncompressStream,@function
uncompressStream:                       # @uncompressStream
	.cfi_startproc
# %bb.0:                                # %rand_bb
	pushq	%rbp
	.cfi_def_cfa_offset 16
	.cfi_offset %rbp, -16
	movq	%rsp, %rbp
	.cfi_def_cfa_register %rbp
	pushq	%r14
	pushq	%rbx
	.cfi_offset %rbx, -32
	.cfi_offset %r14, -24
	movq	%rsi, %r14
	movq	%rdi, %rbx
	callq	get_rand
	cmpl	$0, %eax
	jne	.LBB39_5
# %bb.1:                                # %func_uncompressStream.21
	movq	%rbx, %rdi
	movq	%r14, %rsi
	callq	uncompressStream.21
	movzbl	%al, %eax
	popq	%rbx
	popq	%r14
	popq	%rbp
	.cfi_def_cfa %rsp, 8
	retq
.LBB39_2:                               # %func_uncompressStream.42
	.cfi_def_cfa %rbp, 16
	movq	%rbx, %rdi
	movq	%r14, %rsi
	callq	uncompressStream.42
	movzbl	%al, %eax
	popq	%rbx
	popq	%r14
	popq	%rbp
	.cfi_def_cfa %rsp, 8
	retq
.LBB39_3:                               # %func_uncompressStream.64
	.cfi_def_cfa %rbp, 16
	movq	%rbx, %rdi
	movq	%r14, %rsi
	callq	uncompressStream.64
	movzbl	%al, %eax
	popq	%rbx
	popq	%r14
	popq	%rbp
	.cfi_def_cfa %rsp, 8
	retq
.LBB39_4:                               # %func_uncompressStream.65
	.cfi_def_cfa %rbp, 16
	movq	%rbx, %rdi
	movq	%r14, %rsi
	callq	uncompressStream.65
	movzbl	%al, %eax
	popq	%rbx
	popq	%r14
	popq	%rbp
	.cfi_def_cfa %rsp, 8
	retq
.LBB39_5:                               # %ctrl0
	.cfi_def_cfa %rbp, 16
	cmpl	$1, %eax
	je	.LBB39_2
# %bb.6:                                # %ctrl1
	cmpl	$2, %eax
	je	.LBB39_3
	jmp	.LBB39_4
.Lfunc_end39:
	.size	uncompressStream, .Lfunc_end39-uncompressStream
	.cfi_endproc
                                        # -- End function
	.p2align	4, 0x90         # -- Begin function crcError
	.type	crcError,@function
crcError:                               # @crcError
	.cfi_startproc
# %bb.0:                                # %entry
	pushq	%rbp
	.cfi_def_cfa_offset 16
	.cfi_offset %rbp, -16
	movq	%rsp, %rbp
	.cfi_def_cfa_register %rbp
	movq	stderr, %rdi
	movq	progName, %rdx
	movabsq	$.L.str.92, %rsi
	movb	$0, %al
	callq	fprintf
	callq	showFileNames
	callq	cadvise
	movl	$2, %edi
	callq	cleanUpAndFail
.Lfunc_end40:
	.size	crcError, .Lfunc_end40-crcError
	.cfi_endproc
                                        # -- End function
	.p2align	4, 0x90         # -- Begin function compressedStreamEOF
	.type	compressedStreamEOF,@function
compressedStreamEOF:                    # @compressedStreamEOF
	.cfi_startproc
# %bb.0:                                # %entry
	pushq	%rbp
	.cfi_def_cfa_offset 16
	.cfi_offset %rbp, -16
	movq	%rsp, %rbp
	.cfi_def_cfa_register %rbp
	cmpb	$0, noisy
	je	.LBB41_2
# %bb.1:                                # %if.then
	movq	stderr, %rdi
	movq	progName, %rdx
	movabsq	$.L.str.93, %rsi
	movb	$0, %al
	callq	fprintf
	movq	progName, %rdi
	callq	perror
	callq	showFileNames
	callq	cadvise
.LBB41_2:                               # %if.end
	movl	$2, %edi
	callq	cleanUpAndFail
.Lfunc_end41:
	.size	compressedStreamEOF, .Lfunc_end41-compressedStreamEOF
	.cfi_endproc
                                        # -- End function
	.p2align	4, 0x90         # -- Begin function testStream
	.type	testStream,@function
testStream:                             # @testStream
	.cfi_startproc
# %bb.0:                                # %rand_bb
	pushq	%rbp
	.cfi_def_cfa_offset 16
	.cfi_offset %rbp, -16
	movq	%rsp, %rbp
	.cfi_def_cfa_register %rbp
	pushq	%rbx
	pushq	%rax
	.cfi_offset %rbx, -24
	movq	%rdi, %rbx
	callq	get_rand
	cmpl	$0, %eax
	jne	.LBB42_5
# %bb.1:                                # %func_testStream.51
	movq	%rbx, %rdi
	callq	testStream.51
	movzbl	%al, %eax
	addq	$8, %rsp
	popq	%rbx
	popq	%rbp
	.cfi_def_cfa %rsp, 8
	retq
.LBB42_2:                               # %func_testStream.59
	.cfi_def_cfa %rbp, 16
	movq	%rbx, %rdi
	callq	testStream.59
	movzbl	%al, %eax
	addq	$8, %rsp
	popq	%rbx
	popq	%rbp
	.cfi_def_cfa %rsp, 8
	retq
.LBB42_3:                               # %func_testStream.82
	.cfi_def_cfa %rbp, 16
	movq	%rbx, %rdi
	callq	testStream.82
	movzbl	%al, %eax
	addq	$8, %rsp
	popq	%rbx
	popq	%rbp
	.cfi_def_cfa %rsp, 8
	retq
.LBB42_4:                               # %func_testStream.90
	.cfi_def_cfa %rbp, 16
	movq	%rbx, %rdi
	callq	testStream.90
	movzbl	%al, %eax
	addq	$8, %rsp
	popq	%rbx
	popq	%rbp
	.cfi_def_cfa %rsp, 8
	retq
.LBB42_5:                               # %ctrl0
	.cfi_def_cfa %rbp, 16
	cmpl	$1, %eax
	je	.LBB42_2
# %bb.6:                                # %ctrl1
	cmpl	$2, %eax
	je	.LBB42_3
	jmp	.LBB42_4
.Lfunc_end42:
	.size	testStream, .Lfunc_end42-testStream
	.cfi_endproc
                                        # -- End function
	.p2align	4, 0x90         # -- Begin function myMalloc.1
	.type	myMalloc.1,@function
myMalloc.1:                             # @myMalloc.1
	.cfi_startproc
# %bb.0:                                # %entry
	pushq	%rbp
	.cfi_def_cfa_offset 16
	.cfi_offset %rbp, -16
	movq	%rsp, %rbp
	.cfi_def_cfa_register %rbp
	pushq	%rbx
	subq	$24, %rsp
	.cfi_offset %rbx, -24
	movl	$1535700412, -16(%rbp)  # imm = 0x5B88EDBC
	movl	%edi, -12(%rbp)
	movslq	-12(%rbp), %rdi
	callq	malloc
	movq	%rax, -24(%rbp)
	cmpq	$0, -24(%rbp)
	jne	.LBB43_2
# %bb.1:                                # %if.then
	callq	outOfMemory
.LBB43_2:                               # %if.end
	movq	-24(%rbp), %rbx
	cmpl	$1535700412, -16(%rbp)  # imm = 0x5B88EDBC
	jne	.LBB43_4
.LBB43_3:
	movq	%rbx, %rax
	addq	$24, %rsp
	popq	%rbx
	popq	%rbp
	.cfi_def_cfa %rsp, 8
	retq
.LBB43_4:                               # %func_exit
	.cfi_def_cfa %rbp, 16
	callq	detect_breach
	jmp	.LBB43_3
.Lfunc_end43:
	.size	myMalloc.1, .Lfunc_end43-myMalloc.1
	.cfi_endproc
                                        # -- End function
	.p2align	4, 0x90         # -- Begin function copyFileName.2
	.type	copyFileName.2,@function
copyFileName.2:                         # @copyFileName.2
	.cfi_startproc
# %bb.0:                                # %entry
	pushq	%rbp
	.cfi_def_cfa_offset 16
	.cfi_offset %rbp, -16
	movq	%rsp, %rbp
	.cfi_def_cfa_register %rbp
	subq	$32, %rsp
	movl	$1746581797, -12(%rbp)  # imm = 0x681AB925
	movq	%rdi, -24(%rbp)
	movq	%rsi, -8(%rbp)
	movq	-8(%rbp), %rdi
	callq	strlen
	cmpq	$1024, %rax             # imm = 0x400
	jbe	.LBB44_2
# %bb.1:                                # %if.then
	movq	stderr, %rdi
	movq	-8(%rbp), %rdx
	movabsq	$.L.str.47, %rsi
	movl	$1024, %ecx             # imm = 0x400
	movb	$0, %al
	callq	fprintf
	movl	$1, %edi
	callq	setExit
	movl	exitValue, %edi
	callq	exit
.LBB44_2:                               # %if.end
	movq	-24(%rbp), %rdi
	movq	-8(%rbp), %rsi
	movl	$1024, %edx             # imm = 0x400
	callq	strncpy
	movq	-24(%rbp), %rax
	movb	$0, 1024(%rax)
	cmpl	$1746581797, -12(%rbp)  # imm = 0x681AB925
	jne	.LBB44_4
.LBB44_3:
	addq	$32, %rsp
	popq	%rbp
	.cfi_def_cfa %rsp, 8
	retq
.LBB44_4:                               # %func_exit
	.cfi_def_cfa %rbp, 16
	callq	detect_breach
	jmp	.LBB44_3
.Lfunc_end44:
	.size	copyFileName.2, .Lfunc_end44-copyFileName.2
	.cfi_endproc
                                        # -- End function
	.p2align	4, 0x90         # -- Begin function uncompress.3
	.type	uncompress.3,@function
uncompress.3:                           # @uncompress.3
	.cfi_startproc
# %bb.0:                                # %entry
	pushq	%rbp
	.cfi_def_cfa_offset 16
	.cfi_offset %rbp, -16
	movq	%rsp, %rbp
	.cfi_def_cfa_register %rbp
	pushq	%r14
	pushq	%rbx
	subq	$208, %rsp
	.cfi_offset %rbx, -32
	.cfi_offset %r14, -24
	movl	$262665625, -60(%rbp)   # imm = 0xFA7F599
	movq	%rdi, -56(%rbp)
	movb	$0, deleteOutputOnInterrupt
	cmpq	$0, -56(%rbp)
	jne	.LBB45_3
# %bb.1:                                # %land.lhs.true
	cmpl	$1, srcMode
	je	.LBB45_3
# %bb.2:                                # %if.then
	movabsq	$.L.str.79, %rdi
	callq	panic
.LBB45_3:                               # %if.end
	movb	$0, -18(%rbp)
	movl	srcMode(%rip), %eax
	movl	%eax, %ecx
	subl	$1, %ecx
	je	.LBB45_6
	jmp	.LBB45_4
.LBB45_4:                               # %if.end
	movl	%eax, %ecx
	subl	$2, %ecx
	je	.LBB45_14
	jmp	.LBB45_5
.LBB45_5:                               # %if.end
	subl	$3, %eax
	je	.LBB45_7
	jmp	.LBB45_15
.LBB45_6:                               # %sw.bb
	movabsq	$inName, %rdi
	movabsq	$.L.str.54, %rsi
	callq	copyFileName
	movabsq	$outName, %rdi
	movabsq	$.L.str.55, %rsi
	callq	copyFileName
	jmp	.LBB45_15
.LBB45_7:                               # %sw.bb2
	movq	-56(%rbp), %rsi
	movabsq	$inName, %rdi
	callq	copyFileName
	movq	-56(%rbp), %rsi
	movabsq	$outName, %rdi
	callq	copyFileName
	movl	$0, -24(%rbp)
.LBB45_8:                               # %for.cond
                                        # =>This Inner Loop Header: Depth=1
	cmpl	$4, -24(%rbp)
	jge	.LBB45_13
# %bb.9:                                # %for.body
                                        #   in Loop: Header=BB45_8 Depth=1
	movslq	-24(%rbp), %rax
	movq	zSuffix(,%rax,8), %rsi
	movslq	-24(%rbp), %rax
	movq	unzSuffix(,%rax,8), %rdx
	movabsq	$outName, %rdi
	callq	mapSuffix
	cmpb	$0, %al
	je	.LBB45_11
# %bb.10:                               # %if.then6
	jmp	.LBB45_16
.LBB45_11:                              # %if.end7
                                        #   in Loop: Header=BB45_8 Depth=1
	jmp	.LBB45_12
.LBB45_12:                              # %for.inc
                                        #   in Loop: Header=BB45_8 Depth=1
	movl	-24(%rbp), %eax
	addl	$1, %eax
	movl	%eax, -24(%rbp)
	jmp	.LBB45_8
.LBB45_13:                              # %for.end
	movb	$1, -18(%rbp)
	movabsq	$outName, %rdi
	movabsq	$.L.str.80, %rsi
	callq	strcat
	jmp	.LBB45_15
.LBB45_14:                              # %sw.bb9
	movq	-56(%rbp), %rsi
	movabsq	$inName, %rdi
	callq	copyFileName
	movabsq	$outName, %rdi
	movabsq	$.L.str.55, %rsi
	callq	copyFileName
.LBB45_15:                              # %sw.epilog
	jmp	.LBB45_16
.LBB45_16:                              # %zzz
	cmpl	$1, srcMode
	je	.LBB45_21
# %bb.17:                               # %land.lhs.true11
	movabsq	$inName, %rdi
	callq	containsDubiousChars
	movzbl	%al, %eax
	cmpl	$0, %eax
	je	.LBB45_21
# %bb.18:                               # %if.then14
	cmpb	$0, noisy
	je	.LBB45_20
# %bb.19:                               # %if.then16
	movq	stderr, %rdi
	movq	progName, %rdx
	movabsq	$.L.str.56, %rsi
	movabsq	$inName, %rcx
	movb	$0, %al
	callq	fprintf
.LBB45_20:                              # %if.end18
	movl	$1, %edi
	callq	setExit
	jmp	.LBB45_95
.LBB45_21:                              # %if.end19
	cmpl	$1, srcMode
	je	.LBB45_24
# %bb.22:                               # %land.lhs.true22
	movabsq	$inName, %rdi
	callq	fileExists
	cmpb	$0, %al
	jne	.LBB45_24
# %bb.23:                               # %if.then25
	movq	stderr, %rbx
	movq	progName, %r14
	callq	__errno_location
	movl	(%rax), %edi
	callq	strerror
	movq	%rbx, %rdi
	movabsq	$.L.str.57, %rsi
	movq	%r14, %rdx
	movabsq	$inName, %rcx
	movq	%rax, %r8
	movb	$0, %al
	callq	fprintf
	movl	$1, %edi
	callq	setExit
	jmp	.LBB45_95
.LBB45_24:                              # %if.end29
	cmpl	$3, srcMode
	je	.LBB45_26
# %bb.25:                               # %lor.lhs.false
	cmpl	$2, srcMode
	jne	.LBB45_29
.LBB45_26:                              # %if.then34
	movabsq	$inName, %rdi
	leaq	-216(%rbp), %rsi
	callq	stat
	movl	-192(%rbp), %eax
	andl	$61440, %eax            # imm = 0xF000
	cmpl	$16384, %eax            # imm = 0x4000
	jne	.LBB45_28
# %bb.27:                               # %if.then38
	movq	stderr, %rdi
	movq	progName, %rdx
	movabsq	$.L.str.59, %rsi
	movabsq	$inName, %rcx
	movb	$0, %al
	callq	fprintf
	movl	$1, %edi
	callq	setExit
	jmp	.LBB45_95
.LBB45_28:                              # %if.end40
	jmp	.LBB45_29
.LBB45_29:                              # %if.end41
	cmpl	$3, srcMode
	jne	.LBB45_35
# %bb.30:                               # %land.lhs.true44
	cmpb	$0, forceOverwrite
	jne	.LBB45_35
# %bb.31:                               # %land.lhs.true46
	movabsq	$inName, %rdi
	callq	notAStandardFile
	movzbl	%al, %eax
	cmpl	$0, %eax
	je	.LBB45_35
# %bb.32:                               # %if.then50
	cmpb	$0, noisy
	je	.LBB45_34
# %bb.33:                               # %if.then52
	movq	stderr, %rdi
	movq	progName, %rdx
	movabsq	$.L.str.60, %rsi
	movabsq	$inName, %rcx
	movb	$0, %al
	callq	fprintf
.LBB45_34:                              # %if.end54
	movl	$1, %edi
	callq	setExit
	jmp	.LBB45_95
.LBB45_35:                              # %if.end55
	cmpb	$0, -18(%rbp)
	je	.LBB45_39
# %bb.36:                               # %if.then57
	cmpb	$0, noisy
	je	.LBB45_38
# %bb.37:                               # %if.then59
	movq	stderr, %rdi
	movq	progName, %rdx
	movabsq	$.L.str.81, %rsi
	movabsq	$inName, %rcx
	movabsq	$outName, %r8
	movb	$0, %al
	callq	fprintf
.LBB45_38:                              # %if.end61
	jmp	.LBB45_39
.LBB45_39:                              # %if.end62
	cmpl	$3, srcMode
	jne	.LBB45_45
# %bb.40:                               # %land.lhs.true65
	movabsq	$outName, %rdi
	callq	fileExists
	movzbl	%al, %eax
	cmpl	$0, %eax
	je	.LBB45_45
# %bb.41:                               # %if.then69
	cmpb	$0, forceOverwrite
	je	.LBB45_43
# %bb.42:                               # %if.then71
	movabsq	$outName, %rdi
	callq	remove
	jmp	.LBB45_44
.LBB45_43:                              # %if.else
	movq	stderr, %rdi
	movq	progName, %rdx
	movabsq	$.L.str.61, %rsi
	movabsq	$outName, %rcx
	movb	$0, %al
	callq	fprintf
	movl	$1, %edi
	callq	setExit
	jmp	.LBB45_95
.LBB45_44:                              # %if.end74
	jmp	.LBB45_45
.LBB45_45:                              # %if.end75
	cmpl	$3, srcMode
	jne	.LBB45_49
# %bb.46:                               # %land.lhs.true78
	cmpb	$0, forceOverwrite
	jne	.LBB45_49
# %bb.47:                               # %land.lhs.true80
	movabsq	$inName, %rdi
	callq	countHardLinks
	movl	%eax, -44(%rbp)
	cmpl	$0, %eax
	jle	.LBB45_49
# %bb.48:                               # %if.then84
	movq	stderr, %rdi
	movq	progName, %rdx
	movl	-44(%rbp), %r8d
	movl	-44(%rbp), %eax
	cmpl	$1, %eax
	movabsq	$.L.str.63, %rax
	movabsq	$.L.str.34, %r9
	cmovgq	%rax, %r9
	movabsq	$.L.str.62, %rsi
	movabsq	$inName, %rcx
	movb	$0, %al
	callq	fprintf
	movl	$1, %edi
	callq	setExit
	jmp	.LBB45_95
.LBB45_49:                              # %if.end88
	cmpl	$3, srcMode
	jne	.LBB45_51
# %bb.50:                               # %if.then91
	movabsq	$inName, %rdi
	callq	saveInputFileMetaInfo
.LBB45_51:                              # %if.end92
	movl	srcMode(%rip), %eax
	movl	%eax, %ecx
	subl	$1, %ecx
	je	.LBB45_54
	jmp	.LBB45_52
.LBB45_52:                              # %if.end92
	movl	%eax, %ecx
	subl	$2, %ecx
	je	.LBB45_57
	jmp	.LBB45_53
.LBB45_53:                              # %if.end92
	subl	$3, %eax
	je	.LBB45_62
	jmp	.LBB45_71
.LBB45_54:                              # %sw.bb93
	movq	stdin, %rax
	movq	%rax, -32(%rbp)
	movq	stdout, %rax
	movq	%rax, -40(%rbp)
	movq	stdin, %rdi
	callq	fileno
	movl	%eax, %edi
	callq	isatty
	cmpl	$0, %eax
	je	.LBB45_56
# %bb.55:                               # %if.then97
	movq	stderr, %rdi
	movq	progName, %rdx
	movabsq	$.L.str.82, %rsi
	movb	$0, %al
	callq	fprintf
	movq	stderr, %rdi
	movq	progName, %rdx
	movq	progName, %rcx
	movabsq	$.L.str.65, %rsi
	movb	$0, %al
	callq	fprintf
	movl	$1, %edi
	callq	setExit
	jmp	.LBB45_95
.LBB45_56:                              # %if.end100
	jmp	.LBB45_72
.LBB45_57:                              # %sw.bb101
	movabsq	$inName, %rdi
	movabsq	$.L.str.66, %rsi
	callq	fopen
	movq	%rax, -32(%rbp)
	movq	stdout, %rax
	movq	%rax, -40(%rbp)
	cmpq	$0, -32(%rbp)
	jne	.LBB45_61
# %bb.58:                               # %if.then105
	movq	stderr, %rbx
	movq	progName, %r14
	callq	__errno_location
	movl	(%rax), %edi
	callq	strerror
	movq	%rbx, %rdi
	movabsq	$.L.str.83, %rsi
	movq	%r14, %rdx
	movabsq	$inName, %rcx
	movq	%rax, %r8
	movb	$0, %al
	callq	fprintf
	cmpq	$0, -32(%rbp)
	je	.LBB45_60
# %bb.59:                               # %if.then111
	movq	-32(%rbp), %rdi
	callq	fclose
.LBB45_60:                              # %if.end113
	movl	$1, %edi
	callq	setExit
	jmp	.LBB45_95
.LBB45_61:                              # %if.end114
	jmp	.LBB45_72
.LBB45_62:                              # %sw.bb115
	movabsq	$inName, %rdi
	movabsq	$.L.str.66, %rsi
	callq	fopen
	movq	%rax, -32(%rbp)
	movabsq	$outName, %rdi
	movabsq	$.L.str.67, %rsi
	callq	fopen_output_safely
	movq	%rax, -40(%rbp)
	cmpq	$0, -40(%rbp)
	jne	.LBB45_66
# %bb.63:                               # %if.then120
	movq	stderr, %rbx
	movq	progName, %r14
	callq	__errno_location
	movl	(%rax), %edi
	callq	strerror
	movq	%rbx, %rdi
	movabsq	$.L.str.68, %rsi
	movq	%r14, %rdx
	movabsq	$outName, %rcx
	movq	%rax, %r8
	movb	$0, %al
	callq	fprintf
	cmpq	$0, -32(%rbp)
	je	.LBB45_65
# %bb.64:                               # %if.then126
	movq	-32(%rbp), %rdi
	callq	fclose
.LBB45_65:                              # %if.end128
	movl	$1, %edi
	callq	setExit
	jmp	.LBB45_95
.LBB45_66:                              # %if.end129
	cmpq	$0, -32(%rbp)
	jne	.LBB45_70
# %bb.67:                               # %if.then132
	movq	stderr, %rbx
	movq	progName, %r14
	callq	__errno_location
	movl	(%rax), %edi
	callq	strerror
	movq	%rbx, %rdi
	movabsq	$.L.str.57, %rsi
	movq	%r14, %rdx
	movabsq	$inName, %rcx
	movq	%rax, %r8
	movb	$0, %al
	callq	fprintf
	cmpq	$0, -40(%rbp)
	je	.LBB45_69
# %bb.68:                               # %if.then138
	movq	-40(%rbp), %rdi
	callq	fclose
.LBB45_69:                              # %if.end140
	movl	$1, %edi
	callq	setExit
	jmp	.LBB45_95
.LBB45_70:                              # %if.end141
	jmp	.LBB45_72
.LBB45_71:                              # %sw.default
	movabsq	$.L.str.84, %rdi
	callq	panic
.LBB45_72:                              # %sw.epilog142
	cmpl	$1, verbosity
	jl	.LBB45_74
# %bb.73:                               # %if.then145
	movq	stderr, %rdi
	movabsq	$.L.str.70, %rsi
	movabsq	$inName, %rdx
	movb	$0, %al
	callq	fprintf
	movabsq	$inName, %rdi
	callq	pad
	movq	stderr, %rdi
	callq	fflush
.LBB45_74:                              # %if.end148
	movq	-40(%rbp), %rax
	movq	%rax, outputHandleJustInCase
	movb	$1, deleteOutputOnInterrupt
	movq	-32(%rbp), %rdi
	movq	-40(%rbp), %rsi
	callq	uncompressStream
	movb	%al, -17(%rbp)
	movq	$0, outputHandleJustInCase
	cmpb	$0, -17(%rbp)
	je	.LBB45_82
# %bb.75:                               # %if.then151
	cmpl	$3, srcMode
	jne	.LBB45_81
# %bb.76:                               # %if.then154
	movabsq	$outName, %rdi
	callq	applySavedMetaInfoToOutputFile
	movb	$0, deleteOutputOnInterrupt
	cmpb	$0, keepInputFiles
	jne	.LBB45_80
# %bb.77:                               # %if.then156
	movabsq	$inName, %rdi
	callq	remove
	movl	%eax, -68(%rbp)
	cmpl	$0, -68(%rbp)
	je	.LBB45_79
# %bb.78:                               # %if.then160
	callq	ioError
.LBB45_79:                              # %if.end161
	jmp	.LBB45_80
.LBB45_80:                              # %if.end162
	jmp	.LBB45_81
.LBB45_81:                              # %if.end163
	jmp	.LBB45_87
.LBB45_82:                              # %if.else164
	movb	$1, unzFailsExist
	movb	$0, deleteOutputOnInterrupt
	cmpl	$3, srcMode
	jne	.LBB45_86
# %bb.83:                               # %if.then167
	movabsq	$outName, %rdi
	callq	remove
	movl	%eax, -64(%rbp)
	cmpl	$0, -64(%rbp)
	je	.LBB45_85
# %bb.84:                               # %if.then172
	callq	ioError
.LBB45_85:                              # %if.end173
	jmp	.LBB45_86
.LBB45_86:                              # %if.end174
	jmp	.LBB45_87
.LBB45_87:                              # %if.end175
	movb	$0, deleteOutputOnInterrupt
	cmpb	$0, -17(%rbp)
	je	.LBB45_91
# %bb.88:                               # %if.then177
	cmpl	$1, verbosity
	jl	.LBB45_90
# %bb.89:                               # %if.then180
	movq	stderr, %rdi
	movabsq	$.L.str.85, %rsi
	movb	$0, %al
	callq	fprintf
.LBB45_90:                              # %if.end182
	jmp	.LBB45_95
.LBB45_91:                              # %if.else183
	movl	$2, %edi
	callq	setExit
	cmpl	$1, verbosity
	jl	.LBB45_93
# %bb.92:                               # %if.then186
	movq	stderr, %rdi
	movabsq	$.L.str.86, %rsi
	movb	$0, %al
	callq	fprintf
	jmp	.LBB45_94
.LBB45_93:                              # %if.else188
	movq	stderr, %rdi
	movq	progName, %rdx
	movabsq	$.L.str.87, %rsi
	movabsq	$inName, %rcx
	movb	$0, %al
	callq	fprintf
.LBB45_94:                              # %if.end190
	jmp	.LBB45_95
.LBB45_95:                              # %if.end191
	cmpl	$262665625, -60(%rbp)   # imm = 0xFA7F599
	jne	.LBB45_97
.LBB45_96:
	addq	$208, %rsp
	popq	%rbx
	popq	%r14
	popq	%rbp
	.cfi_def_cfa %rsp, 8
	retq
.LBB45_97:                              # %func_exit
	.cfi_def_cfa %rbp, 16
	callq	detect_breach
	jmp	.LBB45_96
.Lfunc_end45:
	.size	uncompress.3, .Lfunc_end45-uncompress.3
	.cfi_endproc
                                        # -- End function
	.p2align	4, 0x90         # -- Begin function uInt64_toAscii.4
	.type	uInt64_toAscii.4,@function
uInt64_toAscii.4:                       # @uInt64_toAscii.4
	.cfi_startproc
# %bb.0:                                # %entry
	pushq	%rbp
	.cfi_def_cfa_offset 16
	.cfi_offset %rbp, -16
	movq	%rsp, %rbp
	.cfi_def_cfa_register %rbp
	subq	$80, %rsp
	movl	$1149040040, -12(%rbp)  # imm = 0x447CF5A8
	movq	%rdi, -32(%rbp)
	movq	%rsi, -40(%rbp)
	movl	$0, -4(%rbp)
	movq	-40(%rbp), %rax
	movq	(%rax), %rax
	movq	%rax, -24(%rbp)
.LBB46_1:                               # %do.body
                                        # =>This Inner Loop Header: Depth=1
	leaq	-24(%rbp), %rdi
	callq	uInt64_qrm10
	movl	%eax, -16(%rbp)
	movl	-16(%rbp), %eax
	addl	$48, %eax
	movslq	-4(%rbp), %rcx
	movb	%al, -80(%rbp,%rcx)
	movl	-4(%rbp), %eax
	addl	$1, %eax
	movl	%eax, -4(%rbp)
# %bb.2:                                # %do.cond
                                        #   in Loop: Header=BB46_1 Depth=1
	leaq	-24(%rbp), %rdi
	callq	uInt64_isZero
	cmpb	$0, %al
	setne	%al
	xorb	$-1, %al
	testb	$1, %al
	jne	.LBB46_1
# %bb.3:                                # %do.end
	movq	-32(%rbp), %rax
	movslq	-4(%rbp), %rcx
	movb	$0, (%rax,%rcx)
	movl	$0, -8(%rbp)
.LBB46_4:                               # %for.cond
                                        # =>This Inner Loop Header: Depth=1
	movl	-8(%rbp), %eax
	cmpl	-4(%rbp), %eax
	jge	.LBB46_7
# %bb.5:                                # %for.body
                                        #   in Loop: Header=BB46_4 Depth=1
	movl	-4(%rbp), %eax
	subl	-8(%rbp), %eax
	subl	$1, %eax
	cltq
	movb	-80(%rbp,%rax), %al
	movq	-32(%rbp), %rcx
	movslq	-8(%rbp), %rdx
	movb	%al, (%rcx,%rdx)
# %bb.6:                                # %for.inc
                                        #   in Loop: Header=BB46_4 Depth=1
	movl	-8(%rbp), %eax
	addl	$1, %eax
	movl	%eax, -8(%rbp)
	jmp	.LBB46_4
.LBB46_7:                               # %for.end
	cmpl	$1149040040, -12(%rbp)  # imm = 0x447CF5A8
	jne	.LBB46_9
.LBB46_8:
	addq	$80, %rsp
	popq	%rbp
	.cfi_def_cfa %rsp, 8
	retq
.LBB46_9:                               # %func_exit
	.cfi_def_cfa %rbp, 16
	callq	detect_breach
	jmp	.LBB46_8
.Lfunc_end46:
	.size	uInt64_toAscii.4, .Lfunc_end46-uInt64_toAscii.4
	.cfi_endproc
                                        # -- End function
	.p2align	4, 0x90         # -- Begin function mapSuffix.5
	.type	mapSuffix.5,@function
mapSuffix.5:                            # @mapSuffix.5
	.cfi_startproc
# %bb.0:                                # %entry
	pushq	%rbp
	.cfi_def_cfa_offset 16
	.cfi_offset %rbp, -16
	movq	%rsp, %rbp
	.cfi_def_cfa_register %rbp
	pushq	%r14
	pushq	%rbx
	subq	$48, %rsp
	.cfi_offset %rbx, -32
	.cfi_offset %r14, -24
	movl	$1063210682, -36(%rbp)  # imm = 0x3F5F4EBA
	movq	%rdi, -32(%rbp)
	movq	%rsi, -48(%rbp)
	movq	%rdx, -56(%rbp)
	movq	-32(%rbp), %rdi
	movq	-48(%rbp), %rsi
	callq	hasSuffix
	cmpb	$0, %al
	jne	.LBB47_2
# %bb.1:                                # %if.then
	movb	$0, -17(%rbp)
	jmp	.LBB47_3
.LBB47_2:                               # %if.end
	movq	-32(%rbp), %r14
	movq	-32(%rbp), %rdi
	callq	strlen
	movq	%rax, %rbx
	movq	-48(%rbp), %rdi
	callq	strlen
	subq	%rax, %rbx
	movb	$0, (%r14,%rbx)
	movq	-32(%rbp), %rdi
	movq	-56(%rbp), %rsi
	callq	strcat
	movb	$1, -17(%rbp)
.LBB47_3:                               # %return
	movb	-17(%rbp), %bl
	cmpl	$1063210682, -36(%rbp)  # imm = 0x3F5F4EBA
	jne	.LBB47_5
.LBB47_4:
	movzbl	%bl, %eax
	addq	$48, %rsp
	popq	%rbx
	popq	%r14
	popq	%rbp
	.cfi_def_cfa %rsp, 8
	retq
.LBB47_5:                               # %func_exit
	.cfi_def_cfa %rbp, 16
	callq	detect_breach
	jmp	.LBB47_4
.Lfunc_end47:
	.size	mapSuffix.5, .Lfunc_end47-mapSuffix.5
	.cfi_endproc
                                        # -- End function
	.p2align	4, 0x90         # -- Begin function mapSuffix.6
	.type	mapSuffix.6,@function
mapSuffix.6:                            # @mapSuffix.6
	.cfi_startproc
# %bb.0:                                # %entry
	pushq	%rbp
	.cfi_def_cfa_offset 16
	.cfi_offset %rbp, -16
	movq	%rsp, %rbp
	.cfi_def_cfa_register %rbp
	pushq	%r14
	pushq	%rbx
	subq	$48, %rsp
	.cfi_offset %rbx, -32
	.cfi_offset %r14, -24
	movl	$666524962, -36(%rbp)   # imm = 0x27BA5D22
	movq	%rdi, -32(%rbp)
	movq	%rsi, -48(%rbp)
	movq	%rdx, -56(%rbp)
	movq	-32(%rbp), %rdi
	movq	-48(%rbp), %rsi
	callq	hasSuffix
	cmpb	$0, %al
	jne	.LBB48_2
# %bb.1:                                # %if.then
	movb	$0, -17(%rbp)
	jmp	.LBB48_3
.LBB48_2:                               # %if.end
	movq	-32(%rbp), %r14
	movq	-32(%rbp), %rdi
	callq	strlen
	movq	%rax, %rbx
	movq	-48(%rbp), %rdi
	callq	strlen
	subq	%rax, %rbx
	movb	$0, (%r14,%rbx)
	movq	-32(%rbp), %rdi
	movq	-56(%rbp), %rsi
	callq	strcat
	movb	$1, -17(%rbp)
.LBB48_3:                               # %return
	movb	-17(%rbp), %bl
	cmpl	$666524962, -36(%rbp)   # imm = 0x27BA5D22
	jne	.LBB48_5
.LBB48_4:
	movzbl	%bl, %eax
	addq	$48, %rsp
	popq	%rbx
	popq	%r14
	popq	%rbp
	.cfi_def_cfa %rsp, 8
	retq
.LBB48_5:                               # %func_exit
	.cfi_def_cfa %rbp, 16
	callq	detect_breach
	jmp	.LBB48_4
.Lfunc_end48:
	.size	mapSuffix.6, .Lfunc_end48-mapSuffix.6
	.cfi_endproc
                                        # -- End function
	.p2align	4, 0x90         # -- Begin function uInt64_toAscii.7
	.type	uInt64_toAscii.7,@function
uInt64_toAscii.7:                       # @uInt64_toAscii.7
	.cfi_startproc
# %bb.0:                                # %entry
	pushq	%rbp
	.cfi_def_cfa_offset 16
	.cfi_offset %rbp, -16
	movq	%rsp, %rbp
	.cfi_def_cfa_register %rbp
	subq	$80, %rsp
	movl	$918085933, -16(%rbp)   # imm = 0x36B8E12D
	movq	%rdi, -24(%rbp)
	movq	%rsi, -40(%rbp)
	movl	$0, -4(%rbp)
	movq	-40(%rbp), %rax
	movq	(%rax), %rax
	movq	%rax, -32(%rbp)
.LBB49_1:                               # %do.body
                                        # =>This Inner Loop Header: Depth=1
	leaq	-32(%rbp), %rdi
	callq	uInt64_qrm10
	movl	%eax, -12(%rbp)
	movl	-12(%rbp), %eax
	addl	$48, %eax
	movslq	-4(%rbp), %rcx
	movb	%al, -80(%rbp,%rcx)
	movl	-4(%rbp), %eax
	addl	$1, %eax
	movl	%eax, -4(%rbp)
# %bb.2:                                # %do.cond
                                        #   in Loop: Header=BB49_1 Depth=1
	leaq	-32(%rbp), %rdi
	callq	uInt64_isZero
	cmpb	$0, %al
	setne	%al
	xorb	$-1, %al
	testb	$1, %al
	jne	.LBB49_1
# %bb.3:                                # %do.end
	movq	-24(%rbp), %rax
	movslq	-4(%rbp), %rcx
	movb	$0, (%rax,%rcx)
	movl	$0, -8(%rbp)
.LBB49_4:                               # %for.cond
                                        # =>This Inner Loop Header: Depth=1
	movl	-8(%rbp), %eax
	cmpl	-4(%rbp), %eax
	jge	.LBB49_7
# %bb.5:                                # %for.body
                                        #   in Loop: Header=BB49_4 Depth=1
	movl	-4(%rbp), %eax
	subl	-8(%rbp), %eax
	subl	$1, %eax
	cltq
	movb	-80(%rbp,%rax), %al
	movq	-24(%rbp), %rcx
	movslq	-8(%rbp), %rdx
	movb	%al, (%rcx,%rdx)
# %bb.6:                                # %for.inc
                                        #   in Loop: Header=BB49_4 Depth=1
	movl	-8(%rbp), %eax
	addl	$1, %eax
	movl	%eax, -8(%rbp)
	jmp	.LBB49_4
.LBB49_7:                               # %for.end
	cmpl	$918085933, -16(%rbp)   # imm = 0x36B8E12D
	jne	.LBB49_9
.LBB49_8:
	addq	$80, %rsp
	popq	%rbp
	.cfi_def_cfa %rsp, 8
	retq
.LBB49_9:                               # %func_exit
	.cfi_def_cfa %rbp, 16
	callq	detect_breach
	jmp	.LBB49_8
.Lfunc_end49:
	.size	uInt64_toAscii.7, .Lfunc_end49-uInt64_toAscii.7
	.cfi_endproc
                                        # -- End function
	.p2align	4, 0x90         # -- Begin function uInt64_from_UInt32s.8
	.type	uInt64_from_UInt32s.8,@function
uInt64_from_UInt32s.8:                  # @uInt64_from_UInt32s.8
	.cfi_startproc
# %bb.0:                                # %entry
	pushq	%rbp
	.cfi_def_cfa_offset 16
	.cfi_offset %rbp, -16
	movq	%rsp, %rbp
	.cfi_def_cfa_register %rbp
	subq	$32, %rsp
	movl	$565358231, -20(%rbp)   # imm = 0x21B2AE97
	movq	%rdi, -16(%rbp)
	movl	%esi, -8(%rbp)
	movl	%edx, -4(%rbp)
	movl	-4(%rbp), %eax
	shrl	$24, %eax
	andl	$255, %eax
	movq	-16(%rbp), %rcx
	movb	%al, 7(%rcx)
	movl	-4(%rbp), %eax
	shrl	$16, %eax
	andl	$255, %eax
	movq	-16(%rbp), %rcx
	movb	%al, 6(%rcx)
	movl	-4(%rbp), %eax
	shrl	$8, %eax
	andl	$255, %eax
	movq	-16(%rbp), %rcx
	movb	%al, 5(%rcx)
	movl	-4(%rbp), %eax
	andl	$255, %eax
	movq	-16(%rbp), %rcx
	movb	%al, 4(%rcx)
	movl	-8(%rbp), %eax
	shrl	$24, %eax
	andl	$255, %eax
	movq	-16(%rbp), %rcx
	movb	%al, 3(%rcx)
	movl	-8(%rbp), %eax
	shrl	$16, %eax
	andl	$255, %eax
	movq	-16(%rbp), %rcx
	movb	%al, 2(%rcx)
	movl	-8(%rbp), %eax
	shrl	$8, %eax
	andl	$255, %eax
	movq	-16(%rbp), %rcx
	movb	%al, 1(%rcx)
	movl	-8(%rbp), %eax
	andl	$255, %eax
	movq	-16(%rbp), %rcx
	movb	%al, (%rcx)
	cmpl	$565358231, -20(%rbp)   # imm = 0x21B2AE97
	jne	.LBB50_2
.LBB50_1:
	addq	$32, %rsp
	popq	%rbp
	.cfi_def_cfa %rsp, 8
	retq
.LBB50_2:                               # %func_exit
	.cfi_def_cfa %rbp, 16
	callq	detect_breach
	jmp	.LBB50_1
.Lfunc_end50:
	.size	uInt64_from_UInt32s.8, .Lfunc_end50-uInt64_from_UInt32s.8
	.cfi_endproc
                                        # -- End function
	.p2align	4, 0x90         # -- Begin function snocString.9
	.type	snocString.9,@function
snocString.9:                           # @snocString.9
	.cfi_startproc
# %bb.0:                                # %entry
	pushq	%rbp
	.cfi_def_cfa_offset 16
	.cfi_offset %rbp, -16
	movq	%rsp, %rbp
	.cfi_def_cfa_register %rbp
	pushq	%rbx
	subq	$56, %rsp
	.cfi_offset %rbx, -24
	movl	$1970400114, -44(%rbp)  # imm = 0x7571EB72
	movq	%rdi, -32(%rbp)
	movq	%rsi, -24(%rbp)
	cmpq	$0, -32(%rbp)
	jne	.LBB51_2
# %bb.1:                                # %if.then
	callq	mkCell
	movq	%rax, -40(%rbp)
	movq	-24(%rbp), %rdi
	callq	strlen
	addq	$5, %rax
	movl	%eax, %edi
	callq	myMalloc
	movq	-40(%rbp), %rcx
	movq	%rax, (%rcx)
	movq	-40(%rbp), %rax
	movq	(%rax), %rdi
	movq	-24(%rbp), %rsi
	callq	strcpy
	movq	-40(%rbp), %rax
	movq	%rax, -56(%rbp)
	jmp	.LBB51_6
.LBB51_2:                               # %if.else
	movq	-32(%rbp), %rax
	movq	%rax, -16(%rbp)
.LBB51_3:                               # %while.cond
                                        # =>This Inner Loop Header: Depth=1
	movq	-16(%rbp), %rax
	cmpq	$0, 8(%rax)
	je	.LBB51_5
# %bb.4:                                # %while.body
                                        #   in Loop: Header=BB51_3 Depth=1
	movq	-16(%rbp), %rax
	movq	8(%rax), %rax
	movq	%rax, -16(%rbp)
	jmp	.LBB51_3
.LBB51_5:                               # %while.end
	movq	-16(%rbp), %rax
	movq	8(%rax), %rdi
	movq	-24(%rbp), %rsi
	callq	snocString
	movq	-16(%rbp), %rcx
	movq	%rax, 8(%rcx)
	movq	-32(%rbp), %rax
	movq	%rax, -56(%rbp)
.LBB51_6:                               # %return
	movq	-56(%rbp), %rbx
	cmpl	$1970400114, -44(%rbp)  # imm = 0x7571EB72
	jne	.LBB51_8
.LBB51_7:
	movq	%rbx, %rax
	addq	$56, %rsp
	popq	%rbx
	popq	%rbp
	.cfi_def_cfa %rsp, 8
	retq
.LBB51_8:                               # %func_exit
	.cfi_def_cfa %rbp, 16
	callq	detect_breach
	jmp	.LBB51_7
.Lfunc_end51:
	.size	snocString.9, .Lfunc_end51-snocString.9
	.cfi_endproc
                                        # -- End function
	.p2align	4, 0x90         # -- Begin function mapSuffix.10
	.type	mapSuffix.10,@function
mapSuffix.10:                           # @mapSuffix.10
	.cfi_startproc
# %bb.0:                                # %entry
	pushq	%rbp
	.cfi_def_cfa_offset 16
	.cfi_offset %rbp, -16
	movq	%rsp, %rbp
	.cfi_def_cfa_register %rbp
	pushq	%r14
	pushq	%rbx
	subq	$48, %rsp
	.cfi_offset %rbx, -32
	.cfi_offset %r14, -24
	movl	$1940131774, -36(%rbp)  # imm = 0x73A40FBE
	movq	%rdi, -32(%rbp)
	movq	%rsi, -48(%rbp)
	movq	%rdx, -56(%rbp)
	movq	-32(%rbp), %rdi
	movq	-48(%rbp), %rsi
	callq	hasSuffix
	cmpb	$0, %al
	jne	.LBB52_2
# %bb.1:                                # %if.then
	movb	$0, -17(%rbp)
	jmp	.LBB52_3
.LBB52_2:                               # %if.end
	movq	-32(%rbp), %r14
	movq	-32(%rbp), %rdi
	callq	strlen
	movq	%rax, %rbx
	movq	-48(%rbp), %rdi
	callq	strlen
	subq	%rax, %rbx
	movb	$0, (%r14,%rbx)
	movq	-32(%rbp), %rdi
	movq	-56(%rbp), %rsi
	callq	strcat
	movb	$1, -17(%rbp)
.LBB52_3:                               # %return
	movb	-17(%rbp), %bl
	cmpl	$1940131774, -36(%rbp)  # imm = 0x73A40FBE
	jne	.LBB52_5
.LBB52_4:
	movzbl	%bl, %eax
	addq	$48, %rsp
	popq	%rbx
	popq	%r14
	popq	%rbp
	.cfi_def_cfa %rsp, 8
	retq
.LBB52_5:                               # %func_exit
	.cfi_def_cfa %rbp, 16
	callq	detect_breach
	jmp	.LBB52_4
.Lfunc_end52:
	.size	mapSuffix.10, .Lfunc_end52-mapSuffix.10
	.cfi_endproc
                                        # -- End function
	.p2align	4, 0x90         # -- Begin function uInt64_from_UInt32s.11
	.type	uInt64_from_UInt32s.11,@function
uInt64_from_UInt32s.11:                 # @uInt64_from_UInt32s.11
	.cfi_startproc
# %bb.0:                                # %entry
	pushq	%rbp
	.cfi_def_cfa_offset 16
	.cfi_offset %rbp, -16
	movq	%rsp, %rbp
	.cfi_def_cfa_register %rbp
	subq	$32, %rsp
	movl	$1586378186, -20(%rbp)  # imm = 0x5E8E35CA
	movq	%rdi, -16(%rbp)
	movl	%esi, -8(%rbp)
	movl	%edx, -4(%rbp)
	movl	-4(%rbp), %eax
	shrl	$24, %eax
	andl	$255, %eax
	movq	-16(%rbp), %rcx
	movb	%al, 7(%rcx)
	movl	-4(%rbp), %eax
	shrl	$16, %eax
	andl	$255, %eax
	movq	-16(%rbp), %rcx
	movb	%al, 6(%rcx)
	movl	-4(%rbp), %eax
	shrl	$8, %eax
	andl	$255, %eax
	movq	-16(%rbp), %rcx
	movb	%al, 5(%rcx)
	movl	-4(%rbp), %eax
	andl	$255, %eax
	movq	-16(%rbp), %rcx
	movb	%al, 4(%rcx)
	movl	-8(%rbp), %eax
	shrl	$24, %eax
	andl	$255, %eax
	movq	-16(%rbp), %rcx
	movb	%al, 3(%rcx)
	movl	-8(%rbp), %eax
	shrl	$16, %eax
	andl	$255, %eax
	movq	-16(%rbp), %rcx
	movb	%al, 2(%rcx)
	movl	-8(%rbp), %eax
	shrl	$8, %eax
	andl	$255, %eax
	movq	-16(%rbp), %rcx
	movb	%al, 1(%rcx)
	movl	-8(%rbp), %eax
	andl	$255, %eax
	movq	-16(%rbp), %rcx
	movb	%al, (%rcx)
	cmpl	$1586378186, -20(%rbp)  # imm = 0x5E8E35CA
	jne	.LBB53_2
.LBB53_1:
	addq	$32, %rsp
	popq	%rbp
	.cfi_def_cfa %rsp, 8
	retq
.LBB53_2:                               # %func_exit
	.cfi_def_cfa %rbp, 16
	callq	detect_breach
	jmp	.LBB53_1
.Lfunc_end53:
	.size	uInt64_from_UInt32s.11, .Lfunc_end53-uInt64_from_UInt32s.11
	.cfi_endproc
                                        # -- End function
	.p2align	4, 0x90         # -- Begin function uncompress.12
	.type	uncompress.12,@function
uncompress.12:                          # @uncompress.12
	.cfi_startproc
# %bb.0:                                # %entry
	pushq	%rbp
	.cfi_def_cfa_offset 16
	.cfi_offset %rbp, -16
	movq	%rsp, %rbp
	.cfi_def_cfa_register %rbp
	pushq	%r14
	pushq	%rbx
	subq	$208, %rsp
	.cfi_offset %rbx, -32
	.cfi_offset %r14, -24
	movl	$862008844, -64(%rbp)   # imm = 0x3361360C
	movq	%rdi, -56(%rbp)
	movb	$0, deleteOutputOnInterrupt
	cmpq	$0, -56(%rbp)
	jne	.LBB54_3
# %bb.1:                                # %land.lhs.true
	cmpl	$1, srcMode
	je	.LBB54_3
# %bb.2:                                # %if.then
	movabsq	$.L.str.79, %rdi
	callq	panic
.LBB54_3:                               # %if.end
	movb	$0, -17(%rbp)
	movl	srcMode(%rip), %eax
	movl	%eax, %ecx
	subl	$1, %ecx
	je	.LBB54_6
	jmp	.LBB54_4
.LBB54_4:                               # %if.end
	movl	%eax, %ecx
	subl	$2, %ecx
	je	.LBB54_14
	jmp	.LBB54_5
.LBB54_5:                               # %if.end
	subl	$3, %eax
	je	.LBB54_7
	jmp	.LBB54_15
.LBB54_6:                               # %sw.bb
	movabsq	$inName, %rdi
	movabsq	$.L.str.54, %rsi
	callq	copyFileName
	movabsq	$outName, %rdi
	movabsq	$.L.str.55, %rsi
	callq	copyFileName
	jmp	.LBB54_15
.LBB54_7:                               # %sw.bb2
	movq	-56(%rbp), %rsi
	movabsq	$inName, %rdi
	callq	copyFileName
	movq	-56(%rbp), %rsi
	movabsq	$outName, %rdi
	callq	copyFileName
	movl	$0, -24(%rbp)
.LBB54_8:                               # %for.cond
                                        # =>This Inner Loop Header: Depth=1
	cmpl	$4, -24(%rbp)
	jge	.LBB54_13
# %bb.9:                                # %for.body
                                        #   in Loop: Header=BB54_8 Depth=1
	movslq	-24(%rbp), %rax
	movq	zSuffix(,%rax,8), %rsi
	movslq	-24(%rbp), %rax
	movq	unzSuffix(,%rax,8), %rdx
	movabsq	$outName, %rdi
	callq	mapSuffix
	cmpb	$0, %al
	je	.LBB54_11
# %bb.10:                               # %if.then6
	jmp	.LBB54_16
.LBB54_11:                              # %if.end7
                                        #   in Loop: Header=BB54_8 Depth=1
	jmp	.LBB54_12
.LBB54_12:                              # %for.inc
                                        #   in Loop: Header=BB54_8 Depth=1
	movl	-24(%rbp), %eax
	addl	$1, %eax
	movl	%eax, -24(%rbp)
	jmp	.LBB54_8
.LBB54_13:                              # %for.end
	movb	$1, -17(%rbp)
	movabsq	$outName, %rdi
	movabsq	$.L.str.80, %rsi
	callq	strcat
	jmp	.LBB54_15
.LBB54_14:                              # %sw.bb9
	movq	-56(%rbp), %rsi
	movabsq	$inName, %rdi
	callq	copyFileName
	movabsq	$outName, %rdi
	movabsq	$.L.str.55, %rsi
	callq	copyFileName
.LBB54_15:                              # %sw.epilog
	jmp	.LBB54_16
.LBB54_16:                              # %zzz
	cmpl	$1, srcMode
	je	.LBB54_21
# %bb.17:                               # %land.lhs.true11
	movabsq	$inName, %rdi
	callq	containsDubiousChars
	movzbl	%al, %eax
	cmpl	$0, %eax
	je	.LBB54_21
# %bb.18:                               # %if.then14
	cmpb	$0, noisy
	je	.LBB54_20
# %bb.19:                               # %if.then16
	movq	stderr, %rdi
	movq	progName, %rdx
	movabsq	$.L.str.56, %rsi
	movabsq	$inName, %rcx
	movb	$0, %al
	callq	fprintf
.LBB54_20:                              # %if.end18
	movl	$1, %edi
	callq	setExit
	jmp	.LBB54_95
.LBB54_21:                              # %if.end19
	cmpl	$1, srcMode
	je	.LBB54_24
# %bb.22:                               # %land.lhs.true22
	movabsq	$inName, %rdi
	callq	fileExists
	cmpb	$0, %al
	jne	.LBB54_24
# %bb.23:                               # %if.then25
	movq	stderr, %rbx
	movq	progName, %r14
	callq	__errno_location
	movl	(%rax), %edi
	callq	strerror
	movq	%rbx, %rdi
	movabsq	$.L.str.57, %rsi
	movq	%r14, %rdx
	movabsq	$inName, %rcx
	movq	%rax, %r8
	movb	$0, %al
	callq	fprintf
	movl	$1, %edi
	callq	setExit
	jmp	.LBB54_95
.LBB54_24:                              # %if.end29
	cmpl	$3, srcMode
	je	.LBB54_26
# %bb.25:                               # %lor.lhs.false
	cmpl	$2, srcMode
	jne	.LBB54_29
.LBB54_26:                              # %if.then34
	movabsq	$inName, %rdi
	leaq	-216(%rbp), %rsi
	callq	stat
	movl	-192(%rbp), %eax
	andl	$61440, %eax            # imm = 0xF000
	cmpl	$16384, %eax            # imm = 0x4000
	jne	.LBB54_28
# %bb.27:                               # %if.then38
	movq	stderr, %rdi
	movq	progName, %rdx
	movabsq	$.L.str.59, %rsi
	movabsq	$inName, %rcx
	movb	$0, %al
	callq	fprintf
	movl	$1, %edi
	callq	setExit
	jmp	.LBB54_95
.LBB54_28:                              # %if.end40
	jmp	.LBB54_29
.LBB54_29:                              # %if.end41
	cmpl	$3, srcMode
	jne	.LBB54_35
# %bb.30:                               # %land.lhs.true44
	cmpb	$0, forceOverwrite
	jne	.LBB54_35
# %bb.31:                               # %land.lhs.true46
	movabsq	$inName, %rdi
	callq	notAStandardFile
	movzbl	%al, %eax
	cmpl	$0, %eax
	je	.LBB54_35
# %bb.32:                               # %if.then50
	cmpb	$0, noisy
	je	.LBB54_34
# %bb.33:                               # %if.then52
	movq	stderr, %rdi
	movq	progName, %rdx
	movabsq	$.L.str.60, %rsi
	movabsq	$inName, %rcx
	movb	$0, %al
	callq	fprintf
.LBB54_34:                              # %if.end54
	movl	$1, %edi
	callq	setExit
	jmp	.LBB54_95
.LBB54_35:                              # %if.end55
	cmpb	$0, -17(%rbp)
	je	.LBB54_39
# %bb.36:                               # %if.then57
	cmpb	$0, noisy
	je	.LBB54_38
# %bb.37:                               # %if.then59
	movq	stderr, %rdi
	movq	progName, %rdx
	movabsq	$.L.str.81, %rsi
	movabsq	$inName, %rcx
	movabsq	$outName, %r8
	movb	$0, %al
	callq	fprintf
.LBB54_38:                              # %if.end61
	jmp	.LBB54_39
.LBB54_39:                              # %if.end62
	cmpl	$3, srcMode
	jne	.LBB54_45
# %bb.40:                               # %land.lhs.true65
	movabsq	$outName, %rdi
	callq	fileExists
	movzbl	%al, %eax
	cmpl	$0, %eax
	je	.LBB54_45
# %bb.41:                               # %if.then69
	cmpb	$0, forceOverwrite
	je	.LBB54_43
# %bb.42:                               # %if.then71
	movabsq	$outName, %rdi
	callq	remove
	jmp	.LBB54_44
.LBB54_43:                              # %if.else
	movq	stderr, %rdi
	movq	progName, %rdx
	movabsq	$.L.str.61, %rsi
	movabsq	$outName, %rcx
	movb	$0, %al
	callq	fprintf
	movl	$1, %edi
	callq	setExit
	jmp	.LBB54_95
.LBB54_44:                              # %if.end74
	jmp	.LBB54_45
.LBB54_45:                              # %if.end75
	cmpl	$3, srcMode
	jne	.LBB54_49
# %bb.46:                               # %land.lhs.true78
	cmpb	$0, forceOverwrite
	jne	.LBB54_49
# %bb.47:                               # %land.lhs.true80
	movabsq	$inName, %rdi
	callq	countHardLinks
	movl	%eax, -44(%rbp)
	cmpl	$0, %eax
	jle	.LBB54_49
# %bb.48:                               # %if.then84
	movq	stderr, %rdi
	movq	progName, %rdx
	movl	-44(%rbp), %r8d
	movl	-44(%rbp), %eax
	cmpl	$1, %eax
	movabsq	$.L.str.63, %rax
	movabsq	$.L.str.34, %r9
	cmovgq	%rax, %r9
	movabsq	$.L.str.62, %rsi
	movabsq	$inName, %rcx
	movb	$0, %al
	callq	fprintf
	movl	$1, %edi
	callq	setExit
	jmp	.LBB54_95
.LBB54_49:                              # %if.end88
	cmpl	$3, srcMode
	jne	.LBB54_51
# %bb.50:                               # %if.then91
	movabsq	$inName, %rdi
	callq	saveInputFileMetaInfo
.LBB54_51:                              # %if.end92
	movl	srcMode(%rip), %eax
	movl	%eax, %ecx
	subl	$1, %ecx
	je	.LBB54_54
	jmp	.LBB54_52
.LBB54_52:                              # %if.end92
	movl	%eax, %ecx
	subl	$2, %ecx
	je	.LBB54_57
	jmp	.LBB54_53
.LBB54_53:                              # %if.end92
	subl	$3, %eax
	je	.LBB54_62
	jmp	.LBB54_71
.LBB54_54:                              # %sw.bb93
	movq	stdin, %rax
	movq	%rax, -32(%rbp)
	movq	stdout, %rax
	movq	%rax, -40(%rbp)
	movq	stdin, %rdi
	callq	fileno
	movl	%eax, %edi
	callq	isatty
	cmpl	$0, %eax
	je	.LBB54_56
# %bb.55:                               # %if.then97
	movq	stderr, %rdi
	movq	progName, %rdx
	movabsq	$.L.str.82, %rsi
	movb	$0, %al
	callq	fprintf
	movq	stderr, %rdi
	movq	progName, %rdx
	movq	progName, %rcx
	movabsq	$.L.str.65, %rsi
	movb	$0, %al
	callq	fprintf
	movl	$1, %edi
	callq	setExit
	jmp	.LBB54_95
.LBB54_56:                              # %if.end100
	jmp	.LBB54_72
.LBB54_57:                              # %sw.bb101
	movabsq	$inName, %rdi
	movabsq	$.L.str.66, %rsi
	callq	fopen
	movq	%rax, -32(%rbp)
	movq	stdout, %rax
	movq	%rax, -40(%rbp)
	cmpq	$0, -32(%rbp)
	jne	.LBB54_61
# %bb.58:                               # %if.then105
	movq	stderr, %rbx
	movq	progName, %r14
	callq	__errno_location
	movl	(%rax), %edi
	callq	strerror
	movq	%rbx, %rdi
	movabsq	$.L.str.83, %rsi
	movq	%r14, %rdx
	movabsq	$inName, %rcx
	movq	%rax, %r8
	movb	$0, %al
	callq	fprintf
	cmpq	$0, -32(%rbp)
	je	.LBB54_60
# %bb.59:                               # %if.then111
	movq	-32(%rbp), %rdi
	callq	fclose
.LBB54_60:                              # %if.end113
	movl	$1, %edi
	callq	setExit
	jmp	.LBB54_95
.LBB54_61:                              # %if.end114
	jmp	.LBB54_72
.LBB54_62:                              # %sw.bb115
	movabsq	$inName, %rdi
	movabsq	$.L.str.66, %rsi
	callq	fopen
	movq	%rax, -32(%rbp)
	movabsq	$outName, %rdi
	movabsq	$.L.str.67, %rsi
	callq	fopen_output_safely
	movq	%rax, -40(%rbp)
	cmpq	$0, -40(%rbp)
	jne	.LBB54_66
# %bb.63:                               # %if.then120
	movq	stderr, %rbx
	movq	progName, %r14
	callq	__errno_location
	movl	(%rax), %edi
	callq	strerror
	movq	%rbx, %rdi
	movabsq	$.L.str.68, %rsi
	movq	%r14, %rdx
	movabsq	$outName, %rcx
	movq	%rax, %r8
	movb	$0, %al
	callq	fprintf
	cmpq	$0, -32(%rbp)
	je	.LBB54_65
# %bb.64:                               # %if.then126
	movq	-32(%rbp), %rdi
	callq	fclose
.LBB54_65:                              # %if.end128
	movl	$1, %edi
	callq	setExit
	jmp	.LBB54_95
.LBB54_66:                              # %if.end129
	cmpq	$0, -32(%rbp)
	jne	.LBB54_70
# %bb.67:                               # %if.then132
	movq	stderr, %rbx
	movq	progName, %r14
	callq	__errno_location
	movl	(%rax), %edi
	callq	strerror
	movq	%rbx, %rdi
	movabsq	$.L.str.57, %rsi
	movq	%r14, %rdx
	movabsq	$inName, %rcx
	movq	%rax, %r8
	movb	$0, %al
	callq	fprintf
	cmpq	$0, -40(%rbp)
	je	.LBB54_69
# %bb.68:                               # %if.then138
	movq	-40(%rbp), %rdi
	callq	fclose
.LBB54_69:                              # %if.end140
	movl	$1, %edi
	callq	setExit
	jmp	.LBB54_95
.LBB54_70:                              # %if.end141
	jmp	.LBB54_72
.LBB54_71:                              # %sw.default
	movabsq	$.L.str.84, %rdi
	callq	panic
.LBB54_72:                              # %sw.epilog142
	cmpl	$1, verbosity
	jl	.LBB54_74
# %bb.73:                               # %if.then145
	movq	stderr, %rdi
	movabsq	$.L.str.70, %rsi
	movabsq	$inName, %rdx
	movb	$0, %al
	callq	fprintf
	movabsq	$inName, %rdi
	callq	pad
	movq	stderr, %rdi
	callq	fflush
.LBB54_74:                              # %if.end148
	movq	-40(%rbp), %rax
	movq	%rax, outputHandleJustInCase
	movb	$1, deleteOutputOnInterrupt
	movq	-32(%rbp), %rdi
	movq	-40(%rbp), %rsi
	callq	uncompressStream
	movb	%al, -18(%rbp)
	movq	$0, outputHandleJustInCase
	cmpb	$0, -18(%rbp)
	je	.LBB54_82
# %bb.75:                               # %if.then151
	cmpl	$3, srcMode
	jne	.LBB54_81
# %bb.76:                               # %if.then154
	movabsq	$outName, %rdi
	callq	applySavedMetaInfoToOutputFile
	movb	$0, deleteOutputOnInterrupt
	cmpb	$0, keepInputFiles
	jne	.LBB54_80
# %bb.77:                               # %if.then156
	movabsq	$inName, %rdi
	callq	remove
	movl	%eax, -68(%rbp)
	cmpl	$0, -68(%rbp)
	je	.LBB54_79
# %bb.78:                               # %if.then160
	callq	ioError
.LBB54_79:                              # %if.end161
	jmp	.LBB54_80
.LBB54_80:                              # %if.end162
	jmp	.LBB54_81
.LBB54_81:                              # %if.end163
	jmp	.LBB54_87
.LBB54_82:                              # %if.else164
	movb	$1, unzFailsExist
	movb	$0, deleteOutputOnInterrupt
	cmpl	$3, srcMode
	jne	.LBB54_86
# %bb.83:                               # %if.then167
	movabsq	$outName, %rdi
	callq	remove
	movl	%eax, -60(%rbp)
	cmpl	$0, -60(%rbp)
	je	.LBB54_85
# %bb.84:                               # %if.then172
	callq	ioError
.LBB54_85:                              # %if.end173
	jmp	.LBB54_86
.LBB54_86:                              # %if.end174
	jmp	.LBB54_87
.LBB54_87:                              # %if.end175
	movb	$0, deleteOutputOnInterrupt
	cmpb	$0, -18(%rbp)
	je	.LBB54_91
# %bb.88:                               # %if.then177
	cmpl	$1, verbosity
	jl	.LBB54_90
# %bb.89:                               # %if.then180
	movq	stderr, %rdi
	movabsq	$.L.str.85, %rsi
	movb	$0, %al
	callq	fprintf
.LBB54_90:                              # %if.end182
	jmp	.LBB54_95
.LBB54_91:                              # %if.else183
	movl	$2, %edi
	callq	setExit
	cmpl	$1, verbosity
	jl	.LBB54_93
# %bb.92:                               # %if.then186
	movq	stderr, %rdi
	movabsq	$.L.str.86, %rsi
	movb	$0, %al
	callq	fprintf
	jmp	.LBB54_94
.LBB54_93:                              # %if.else188
	movq	stderr, %rdi
	movq	progName, %rdx
	movabsq	$.L.str.87, %rsi
	movabsq	$inName, %rcx
	movb	$0, %al
	callq	fprintf
.LBB54_94:                              # %if.end190
	jmp	.LBB54_95
.LBB54_95:                              # %if.end191
	cmpl	$862008844, -64(%rbp)   # imm = 0x3361360C
	jne	.LBB54_97
.LBB54_96:
	addq	$208, %rsp
	popq	%rbx
	popq	%r14
	popq	%rbp
	.cfi_def_cfa %rsp, 8
	retq
.LBB54_97:                              # %func_exit
	.cfi_def_cfa %rbp, 16
	callq	detect_breach
	jmp	.LBB54_96
.Lfunc_end54:
	.size	uncompress.12, .Lfunc_end54-uncompress.12
	.cfi_endproc
                                        # -- End function
	.p2align	4, 0x90         # -- Begin function compress.13
	.type	compress.13,@function
compress.13:                            # @compress.13
	.cfi_startproc
# %bb.0:                                # %entry
	pushq	%rbp
	.cfi_def_cfa_offset 16
	.cfi_offset %rbp, -16
	movq	%rsp, %rbp
	.cfi_def_cfa_register %rbp
	pushq	%r14
	pushq	%rbx
	subq	$192, %rsp
	.cfi_offset %rbx, -32
	.cfi_offset %r14, -24
	movl	$537657864, -64(%rbp)   # imm = 0x200C0208
	movq	%rdi, -56(%rbp)
	movb	$0, deleteOutputOnInterrupt
	cmpq	$0, -56(%rbp)
	jne	.LBB55_3
# %bb.1:                                # %land.lhs.true
	cmpl	$1, srcMode
	je	.LBB55_3
# %bb.2:                                # %if.then
	movabsq	$.L.str.53, %rdi
	callq	panic
.LBB55_3:                               # %if.end
	movl	srcMode(%rip), %eax
	movl	%eax, %ecx
	subl	$1, %ecx
	je	.LBB55_6
	jmp	.LBB55_4
.LBB55_4:                               # %if.end
	movl	%eax, %ecx
	subl	$2, %ecx
	je	.LBB55_8
	jmp	.LBB55_5
.LBB55_5:                               # %if.end
	subl	$3, %eax
	je	.LBB55_7
	jmp	.LBB55_9
.LBB55_6:                               # %sw.bb
	movabsq	$inName, %rdi
	movabsq	$.L.str.54, %rsi
	callq	copyFileName
	movabsq	$outName, %rdi
	movabsq	$.L.str.55, %rsi
	callq	copyFileName
	jmp	.LBB55_9
.LBB55_7:                               # %sw.bb2
	movq	-56(%rbp), %rsi
	movabsq	$inName, %rdi
	callq	copyFileName
	movq	-56(%rbp), %rsi
	movabsq	$outName, %rdi
	callq	copyFileName
	movabsq	$outName, %rdi
	movabsq	$.L.str.30, %rsi
	callq	strcat
	jmp	.LBB55_9
.LBB55_8:                               # %sw.bb3
	movq	-56(%rbp), %rsi
	movabsq	$inName, %rdi
	callq	copyFileName
	movabsq	$outName, %rdi
	movabsq	$.L.str.55, %rsi
	callq	copyFileName
.LBB55_9:                               # %sw.epilog
	cmpl	$1, srcMode
	je	.LBB55_14
# %bb.10:                               # %land.lhs.true5
	movabsq	$inName, %rdi
	callq	containsDubiousChars
	movzbl	%al, %eax
	cmpl	$0, %eax
	je	.LBB55_14
# %bb.11:                               # %if.then7
	cmpb	$0, noisy
	je	.LBB55_13
# %bb.12:                               # %if.then9
	movq	stderr, %rdi
	movq	progName, %rdx
	movabsq	$.L.str.56, %rsi
	movabsq	$inName, %rcx
	movb	$0, %al
	callq	fprintf
.LBB55_13:                              # %if.end11
	movl	$1, %edi
	callq	setExit
	jmp	.LBB55_80
.LBB55_14:                              # %if.end12
	cmpl	$1, srcMode
	je	.LBB55_17
# %bb.15:                               # %land.lhs.true15
	movabsq	$inName, %rdi
	callq	fileExists
	cmpb	$0, %al
	jne	.LBB55_17
# %bb.16:                               # %if.then18
	movq	stderr, %rbx
	movq	progName, %r14
	callq	__errno_location
	movl	(%rax), %edi
	callq	strerror
	movq	%rbx, %rdi
	movabsq	$.L.str.57, %rsi
	movq	%r14, %rdx
	movabsq	$inName, %rcx
	movq	%rax, %r8
	movb	$0, %al
	callq	fprintf
	movl	$1, %edi
	callq	setExit
	jmp	.LBB55_80
.LBB55_17:                              # %if.end22
	movl	$0, -20(%rbp)
.LBB55_18:                              # %for.cond
                                        # =>This Inner Loop Header: Depth=1
	cmpl	$4, -20(%rbp)
	jge	.LBB55_25
# %bb.19:                               # %for.body
                                        #   in Loop: Header=BB55_18 Depth=1
	movslq	-20(%rbp), %rax
	movq	zSuffix(,%rax,8), %rsi
	movabsq	$inName, %rdi
	callq	hasSuffix
	cmpb	$0, %al
	je	.LBB55_23
# %bb.20:                               # %if.then27
	cmpb	$0, noisy
	je	.LBB55_22
# %bb.21:                               # %if.then29
	movq	stderr, %rdi
	movq	progName, %rdx
	movslq	-20(%rbp), %rax
	movq	zSuffix(,%rax,8), %r8
	movabsq	$.L.str.58, %rsi
	movabsq	$inName, %rcx
	movb	$0, %al
	callq	fprintf
.LBB55_22:                              # %if.end33
	movl	$1, %edi
	callq	setExit
	jmp	.LBB55_80
.LBB55_23:                              # %if.end34
                                        #   in Loop: Header=BB55_18 Depth=1
	jmp	.LBB55_24
.LBB55_24:                              # %for.inc
                                        #   in Loop: Header=BB55_18 Depth=1
	movl	-20(%rbp), %eax
	addl	$1, %eax
	movl	%eax, -20(%rbp)
	jmp	.LBB55_18
.LBB55_25:                              # %for.end
	cmpl	$3, srcMode
	je	.LBB55_27
# %bb.26:                               # %lor.lhs.false
	cmpl	$2, srcMode
	jne	.LBB55_30
.LBB55_27:                              # %if.then39
	movabsq	$inName, %rdi
	leaq	-208(%rbp), %rsi
	callq	stat
	movl	-184(%rbp), %eax
	andl	$61440, %eax            # imm = 0xF000
	cmpl	$16384, %eax            # imm = 0x4000
	jne	.LBB55_29
# %bb.28:                               # %if.then43
	movq	stderr, %rdi
	movq	progName, %rdx
	movabsq	$.L.str.59, %rsi
	movabsq	$inName, %rcx
	movb	$0, %al
	callq	fprintf
	movl	$1, %edi
	callq	setExit
	jmp	.LBB55_80
.LBB55_29:                              # %if.end45
	jmp	.LBB55_30
.LBB55_30:                              # %if.end46
	cmpl	$3, srcMode
	jne	.LBB55_36
# %bb.31:                               # %land.lhs.true49
	cmpb	$0, forceOverwrite
	jne	.LBB55_36
# %bb.32:                               # %land.lhs.true51
	movabsq	$inName, %rdi
	callq	notAStandardFile
	movzbl	%al, %eax
	cmpl	$0, %eax
	je	.LBB55_36
# %bb.33:                               # %if.then55
	cmpb	$0, noisy
	je	.LBB55_35
# %bb.34:                               # %if.then57
	movq	stderr, %rdi
	movq	progName, %rdx
	movabsq	$.L.str.60, %rsi
	movabsq	$inName, %rcx
	movb	$0, %al
	callq	fprintf
.LBB55_35:                              # %if.end59
	movl	$1, %edi
	callq	setExit
	jmp	.LBB55_80
.LBB55_36:                              # %if.end60
	cmpl	$3, srcMode
	jne	.LBB55_42
# %bb.37:                               # %land.lhs.true63
	movabsq	$outName, %rdi
	callq	fileExists
	movzbl	%al, %eax
	cmpl	$0, %eax
	je	.LBB55_42
# %bb.38:                               # %if.then67
	cmpb	$0, forceOverwrite
	je	.LBB55_40
# %bb.39:                               # %if.then69
	movabsq	$outName, %rdi
	callq	remove
	jmp	.LBB55_41
.LBB55_40:                              # %if.else
	movq	stderr, %rdi
	movq	progName, %rdx
	movabsq	$.L.str.61, %rsi
	movabsq	$outName, %rcx
	movb	$0, %al
	callq	fprintf
	movl	$1, %edi
	callq	setExit
	jmp	.LBB55_80
.LBB55_41:                              # %if.end72
	jmp	.LBB55_42
.LBB55_42:                              # %if.end73
	cmpl	$3, srcMode
	jne	.LBB55_46
# %bb.43:                               # %land.lhs.true76
	cmpb	$0, forceOverwrite
	jne	.LBB55_46
# %bb.44:                               # %land.lhs.true78
	movabsq	$inName, %rdi
	callq	countHardLinks
	movl	%eax, -44(%rbp)
	cmpl	$0, %eax
	jle	.LBB55_46
# %bb.45:                               # %if.then82
	movq	stderr, %rdi
	movq	progName, %rdx
	movl	-44(%rbp), %r8d
	movl	-44(%rbp), %eax
	cmpl	$1, %eax
	movabsq	$.L.str.63, %rax
	movabsq	$.L.str.34, %r9
	cmovgq	%rax, %r9
	movabsq	$.L.str.62, %rsi
	movabsq	$inName, %rcx
	movb	$0, %al
	callq	fprintf
	movl	$1, %edi
	callq	setExit
	jmp	.LBB55_80
.LBB55_46:                              # %if.end86
	cmpl	$3, srcMode
	jne	.LBB55_48
# %bb.47:                               # %if.then89
	movabsq	$inName, %rdi
	callq	saveInputFileMetaInfo
.LBB55_48:                              # %if.end90
	movl	srcMode(%rip), %eax
	movl	%eax, %ecx
	subl	$1, %ecx
	je	.LBB55_51
	jmp	.LBB55_49
.LBB55_49:                              # %if.end90
	movl	%eax, %ecx
	subl	$2, %ecx
	je	.LBB55_54
	jmp	.LBB55_50
.LBB55_50:                              # %if.end90
	subl	$3, %eax
	je	.LBB55_61
	jmp	.LBB55_70
.LBB55_51:                              # %sw.bb91
	movq	stdin, %rax
	movq	%rax, -32(%rbp)
	movq	stdout, %rax
	movq	%rax, -40(%rbp)
	movq	stdout, %rdi
	callq	fileno
	movl	%eax, %edi
	callq	isatty
	cmpl	$0, %eax
	je	.LBB55_53
# %bb.52:                               # %if.then95
	movq	stderr, %rdi
	movq	progName, %rdx
	movabsq	$.L.str.64, %rsi
	movb	$0, %al
	callq	fprintf
	movq	stderr, %rdi
	movq	progName, %rdx
	movq	progName, %rcx
	movabsq	$.L.str.65, %rsi
	movb	$0, %al
	callq	fprintf
	movl	$1, %edi
	callq	setExit
	jmp	.LBB55_80
.LBB55_53:                              # %if.end98
	jmp	.LBB55_71
.LBB55_54:                              # %sw.bb99
	movabsq	$inName, %rdi
	movabsq	$.L.str.66, %rsi
	callq	fopen
	movq	%rax, -32(%rbp)
	movq	stdout, %rax
	movq	%rax, -40(%rbp)
	movq	stdout, %rdi
	callq	fileno
	movl	%eax, %edi
	callq	isatty
	cmpl	$0, %eax
	je	.LBB55_58
# %bb.55:                               # %if.then104
	movq	stderr, %rdi
	movq	progName, %rdx
	movabsq	$.L.str.64, %rsi
	movb	$0, %al
	callq	fprintf
	movq	stderr, %rdi
	movq	progName, %rdx
	movq	progName, %rcx
	movabsq	$.L.str.65, %rsi
	movb	$0, %al
	callq	fprintf
	cmpq	$0, -32(%rbp)
	je	.LBB55_57
# %bb.56:                               # %if.then109
	movq	-32(%rbp), %rdi
	callq	fclose
.LBB55_57:                              # %if.end111
	movl	$1, %edi
	callq	setExit
	jmp	.LBB55_80
.LBB55_58:                              # %if.end112
	cmpq	$0, -32(%rbp)
	jne	.LBB55_60
# %bb.59:                               # %if.then115
	movq	stderr, %rbx
	movq	progName, %r14
	callq	__errno_location
	movl	(%rax), %edi
	callq	strerror
	movq	%rbx, %rdi
	movabsq	$.L.str.57, %rsi
	movq	%r14, %rdx
	movabsq	$inName, %rcx
	movq	%rax, %r8
	movb	$0, %al
	callq	fprintf
	movl	$1, %edi
	callq	setExit
	jmp	.LBB55_80
.LBB55_60:                              # %if.end119
	jmp	.LBB55_71
.LBB55_61:                              # %sw.bb120
	movabsq	$inName, %rdi
	movabsq	$.L.str.66, %rsi
	callq	fopen
	movq	%rax, -32(%rbp)
	movabsq	$outName, %rdi
	movabsq	$.L.str.67, %rsi
	callq	fopen_output_safely
	movq	%rax, -40(%rbp)
	cmpq	$0, -40(%rbp)
	jne	.LBB55_65
# %bb.62:                               # %if.then125
	movq	stderr, %rbx
	movq	progName, %r14
	callq	__errno_location
	movl	(%rax), %edi
	callq	strerror
	movq	%rbx, %rdi
	movabsq	$.L.str.68, %rsi
	movq	%r14, %rdx
	movabsq	$outName, %rcx
	movq	%rax, %r8
	movb	$0, %al
	callq	fprintf
	cmpq	$0, -32(%rbp)
	je	.LBB55_64
# %bb.63:                               # %if.then131
	movq	-32(%rbp), %rdi
	callq	fclose
.LBB55_64:                              # %if.end133
	movl	$1, %edi
	callq	setExit
	jmp	.LBB55_80
.LBB55_65:                              # %if.end134
	cmpq	$0, -32(%rbp)
	jne	.LBB55_69
# %bb.66:                               # %if.then137
	movq	stderr, %rbx
	movq	progName, %r14
	callq	__errno_location
	movl	(%rax), %edi
	callq	strerror
	movq	%rbx, %rdi
	movabsq	$.L.str.57, %rsi
	movq	%r14, %rdx
	movabsq	$inName, %rcx
	movq	%rax, %r8
	movb	$0, %al
	callq	fprintf
	cmpq	$0, -40(%rbp)
	je	.LBB55_68
# %bb.67:                               # %if.then143
	movq	-40(%rbp), %rdi
	callq	fclose
.LBB55_68:                              # %if.end145
	movl	$1, %edi
	callq	setExit
	jmp	.LBB55_80
.LBB55_69:                              # %if.end146
	jmp	.LBB55_71
.LBB55_70:                              # %sw.default
	movabsq	$.L.str.69, %rdi
	callq	panic
.LBB55_71:                              # %sw.epilog147
	cmpl	$1, verbosity
	jl	.LBB55_73
# %bb.72:                               # %if.then150
	movq	stderr, %rdi
	movabsq	$.L.str.70, %rsi
	movabsq	$inName, %rdx
	movb	$0, %al
	callq	fprintf
	movabsq	$inName, %rdi
	callq	pad
	movq	stderr, %rdi
	callq	fflush
.LBB55_73:                              # %if.end153
	movq	-40(%rbp), %rax
	movq	%rax, outputHandleJustInCase
	movb	$1, deleteOutputOnInterrupt
	movq	-32(%rbp), %rdi
	movq	-40(%rbp), %rsi
	callq	compressStream
	movq	$0, outputHandleJustInCase
	cmpl	$3, srcMode
	jne	.LBB55_79
# %bb.74:                               # %if.then156
	movabsq	$outName, %rdi
	callq	applySavedMetaInfoToOutputFile
	movb	$0, deleteOutputOnInterrupt
	cmpb	$0, keepInputFiles
	jne	.LBB55_78
# %bb.75:                               # %if.then158
	movabsq	$inName, %rdi
	callq	remove
	movl	%eax, -60(%rbp)
	cmpl	$0, -60(%rbp)
	je	.LBB55_77
# %bb.76:                               # %if.then162
	callq	ioError
.LBB55_77:                              # %if.end163
	jmp	.LBB55_78
.LBB55_78:                              # %if.end164
	jmp	.LBB55_79
.LBB55_79:                              # %if.end165
	movb	$0, deleteOutputOnInterrupt
.LBB55_80:                              # %return
	cmpl	$537657864, -64(%rbp)   # imm = 0x200C0208
	jne	.LBB55_82
.LBB55_81:
	addq	$192, %rsp
	popq	%rbx
	popq	%r14
	popq	%rbp
	.cfi_def_cfa %rsp, 8
	retq
.LBB55_82:                              # %func_exit
	.cfi_def_cfa %rbp, 16
	callq	detect_breach
	jmp	.LBB55_81
.Lfunc_end55:
	.size	compress.13, .Lfunc_end55-compress.13
	.cfi_endproc
                                        # -- End function
	.p2align	4, 0x90         # -- Begin function testf.14
	.type	testf.14,@function
testf.14:                               # @testf.14
	.cfi_startproc
# %bb.0:                                # %entry
	pushq	%rbp
	.cfi_def_cfa_offset 16
	.cfi_offset %rbp, -16
	movq	%rsp, %rbp
	.cfi_def_cfa_register %rbp
	pushq	%r14
	pushq	%rbx
	subq	$176, %rsp
	.cfi_offset %rbx, -32
	.cfi_offset %r14, -24
	movl	$2083142433, -44(%rbp)  # imm = 0x7C2A3B21
	movq	%rdi, -32(%rbp)
	movb	$0, deleteOutputOnInterrupt
	cmpq	$0, -32(%rbp)
	jne	.LBB56_3
# %bb.1:                                # %land.lhs.true
	cmpl	$1, srcMode
	je	.LBB56_3
# %bb.2:                                # %if.then
	movabsq	$.L.str.94, %rdi
	callq	panic
.LBB56_3:                               # %if.end
	movl	$outName, %edi
	movl	$.L.str, %esi
	callq	copyFileName
	movl	srcMode(%rip), %eax
	movl	%eax, %ecx
	subl	$1, %ecx
	je	.LBB56_6
	jmp	.LBB56_4
.LBB56_4:                               # %if.end
	movl	%eax, %ecx
	subl	$2, %ecx
	je	.LBB56_8
	jmp	.LBB56_5
.LBB56_5:                               # %if.end
	subl	$3, %eax
	je	.LBB56_7
	jmp	.LBB56_9
.LBB56_6:                               # %sw.bb
	movabsq	$inName, %rdi
	movabsq	$.L.str.54, %rsi
	callq	copyFileName
	jmp	.LBB56_9
.LBB56_7:                               # %sw.bb2
	movq	-32(%rbp), %rsi
	movabsq	$inName, %rdi
	callq	copyFileName
	jmp	.LBB56_9
.LBB56_8:                               # %sw.bb3
	movq	-32(%rbp), %rsi
	movabsq	$inName, %rdi
	callq	copyFileName
.LBB56_9:                               # %sw.epilog
	cmpl	$1, srcMode
	je	.LBB56_14
# %bb.10:                               # %land.lhs.true5
	movabsq	$inName, %rdi
	callq	containsDubiousChars
	movzbl	%al, %eax
	cmpl	$0, %eax
	je	.LBB56_14
# %bb.11:                               # %if.then6
	cmpb	$0, noisy
	je	.LBB56_13
# %bb.12:                               # %if.then8
	movq	stderr, %rdi
	movq	progName, %rdx
	movabsq	$.L.str.56, %rsi
	movabsq	$inName, %rcx
	movb	$0, %al
	callq	fprintf
.LBB56_13:                              # %if.end10
	movl	$1, %edi
	callq	setExit
	jmp	.LBB56_37
.LBB56_14:                              # %if.end11
	cmpl	$1, srcMode
	je	.LBB56_17
# %bb.15:                               # %land.lhs.true14
	movabsq	$inName, %rdi
	callq	fileExists
	cmpb	$0, %al
	jne	.LBB56_17
# %bb.16:                               # %if.then17
	movq	stderr, %rbx
	movq	progName, %r14
	callq	__errno_location
	movl	(%rax), %edi
	callq	strerror
	movq	%rbx, %rdi
	movabsq	$.L.str.95, %rsi
	movq	%r14, %rdx
	movabsq	$inName, %rcx
	movq	%rax, %r8
	movb	$0, %al
	callq	fprintf
	movl	$1, %edi
	callq	setExit
	jmp	.LBB56_37
.LBB56_17:                              # %if.end21
	cmpl	$1, srcMode
	je	.LBB56_21
# %bb.18:                               # %if.then24
	movabsq	$inName, %rdi
	leaq	-192(%rbp), %rsi
	callq	stat
	movl	-168(%rbp), %eax
	andl	$61440, %eax            # imm = 0xF000
	cmpl	$16384, %eax            # imm = 0x4000
	jne	.LBB56_20
# %bb.19:                               # %if.then28
	movq	stderr, %rdi
	movq	progName, %rdx
	movabsq	$.L.str.59, %rsi
	movabsq	$inName, %rcx
	movb	$0, %al
	callq	fprintf
	movl	$1, %edi
	callq	setExit
	jmp	.LBB56_37
.LBB56_20:                              # %if.end30
	jmp	.LBB56_21
.LBB56_21:                              # %if.end31
	movl	srcMode(%rip), %eax
	movl	%eax, %ecx
	subl	$1, %ecx
	je	.LBB56_23
	jmp	.LBB56_22
.LBB56_22:                              # %if.end31
	addl	$-2, %eax
	subl	$2, %eax
	jb	.LBB56_26
	jmp	.LBB56_29
.LBB56_23:                              # %sw.bb32
	movq	stdin, %rdi
	callq	fileno
	movl	%eax, %edi
	callq	isatty
	cmpl	$0, %eax
	je	.LBB56_25
# %bb.24:                               # %if.then36
	movq	stderr, %rdi
	movq	progName, %rdx
	movabsq	$.L.str.82, %rsi
	movb	$0, %al
	callq	fprintf
	movq	stderr, %rdi
	movq	progName, %rdx
	movq	progName, %rcx
	movabsq	$.L.str.65, %rsi
	movb	$0, %al
	callq	fprintf
	movl	$1, %edi
	callq	setExit
	jmp	.LBB56_37
.LBB56_25:                              # %if.end39
	movq	stdin, %rax
	movq	%rax, -40(%rbp)
	jmp	.LBB56_30
.LBB56_26:                              # %sw.bb40
	movabsq	$inName, %rdi
	movabsq	$.L.str.66, %rsi
	callq	fopen
	movq	%rax, -40(%rbp)
	cmpq	$0, -40(%rbp)
	jne	.LBB56_28
# %bb.27:                               # %if.then44
	movq	stderr, %rbx
	movq	progName, %r14
	callq	__errno_location
	movl	(%rax), %edi
	callq	strerror
	movq	%rbx, %rdi
	movabsq	$.L.str.83, %rsi
	movq	%r14, %rdx
	movabsq	$inName, %rcx
	movq	%rax, %r8
	movb	$0, %al
	callq	fprintf
	movl	$1, %edi
	callq	setExit
	jmp	.LBB56_37
.LBB56_28:                              # %if.end48
	jmp	.LBB56_30
.LBB56_29:                              # %sw.default
	movabsq	$.L.str.96, %rdi
	callq	panic
.LBB56_30:                              # %sw.epilog49
	cmpl	$1, verbosity
	jl	.LBB56_32
# %bb.31:                               # %if.then52
	movq	stderr, %rdi
	movabsq	$.L.str.70, %rsi
	movabsq	$inName, %rdx
	movb	$0, %al
	callq	fprintf
	movabsq	$inName, %rdi
	callq	pad
	movq	stderr, %rdi
	callq	fflush
.LBB56_32:                              # %if.end55
	movq	$0, outputHandleJustInCase
	movq	-40(%rbp), %rdi
	callq	testStream
	movb	%al, -17(%rbp)
	movzbl	-17(%rbp), %eax
	cmpl	$0, %eax
	je	.LBB56_35
# %bb.33:                               # %land.lhs.true59
	cmpl	$1, verbosity
	jl	.LBB56_35
# %bb.34:                               # %if.then62
	movq	stderr, %rdi
	movabsq	$.L.str.97, %rsi
	movb	$0, %al
	callq	fprintf
.LBB56_35:                              # %if.end64
	cmpb	$0, -17(%rbp)
	jne	.LBB56_37
# %bb.36:                               # %if.then66
	movb	$1, testFailsExist
.LBB56_37:                              # %if.end67
	cmpl	$2083142433, -44(%rbp)  # imm = 0x7C2A3B21
	jne	.LBB56_39
.LBB56_38:
	addq	$176, %rsp
	popq	%rbx
	popq	%r14
	popq	%rbp
	.cfi_def_cfa %rsp, 8
	retq
.LBB56_39:                              # %func_exit
	.cfi_def_cfa %rbp, 16
	callq	detect_breach
	jmp	.LBB56_38
.Lfunc_end56:
	.size	testf.14, .Lfunc_end56-testf.14
	.cfi_endproc
                                        # -- End function
	.p2align	4, 0x90         # -- Begin function mapSuffix.15
	.type	mapSuffix.15,@function
mapSuffix.15:                           # @mapSuffix.15
	.cfi_startproc
# %bb.0:                                # %entry
	pushq	%rbp
	.cfi_def_cfa_offset 16
	.cfi_offset %rbp, -16
	movq	%rsp, %rbp
	.cfi_def_cfa_register %rbp
	pushq	%r14
	pushq	%rbx
	subq	$48, %rsp
	.cfi_offset %rbx, -32
	.cfi_offset %r14, -24
	movl	$1367120093, -36(%rbp)  # imm = 0x517C98DD
	movq	%rdi, -32(%rbp)
	movq	%rsi, -48(%rbp)
	movq	%rdx, -56(%rbp)
	movq	-32(%rbp), %rdi
	movq	-48(%rbp), %rsi
	callq	hasSuffix
	cmpb	$0, %al
	jne	.LBB57_2
# %bb.1:                                # %if.then
	movb	$0, -17(%rbp)
	jmp	.LBB57_3
.LBB57_2:                               # %if.end
	movq	-32(%rbp), %r14
	movq	-32(%rbp), %rdi
	callq	strlen
	movq	%rax, %rbx
	movq	-48(%rbp), %rdi
	callq	strlen
	subq	%rax, %rbx
	movb	$0, (%r14,%rbx)
	movq	-32(%rbp), %rdi
	movq	-56(%rbp), %rsi
	callq	strcat
	movb	$1, -17(%rbp)
.LBB57_3:                               # %return
	movb	-17(%rbp), %bl
	cmpl	$1367120093, -36(%rbp)  # imm = 0x517C98DD
	jne	.LBB57_5
.LBB57_4:
	movzbl	%bl, %eax
	addq	$48, %rsp
	popq	%rbx
	popq	%r14
	popq	%rbp
	.cfi_def_cfa %rsp, 8
	retq
.LBB57_5:                               # %func_exit
	.cfi_def_cfa %rbp, 16
	callq	detect_breach
	jmp	.LBB57_4
.Lfunc_end57:
	.size	mapSuffix.15, .Lfunc_end57-mapSuffix.15
	.cfi_endproc
                                        # -- End function
	.p2align	4, 0x90         # -- Begin function uInt64_qrm10.16
	.type	uInt64_qrm10.16,@function
uInt64_qrm10.16:                        # @uInt64_qrm10.16
	.cfi_startproc
# %bb.0:                                # %entry
	pushq	%rbp
	.cfi_def_cfa_offset 16
	.cfi_offset %rbp, -16
	movq	%rsp, %rbp
	.cfi_def_cfa_register %rbp
	pushq	%rbx
	subq	$24, %rsp
	.cfi_offset %rbx, -24
	movl	$1431951648, -24(%rbp)  # imm = 0x5559D920
	movq	%rdi, -32(%rbp)
	movl	$0, -16(%rbp)
	movl	$7, -12(%rbp)
.LBB58_1:                               # %for.cond
                                        # =>This Inner Loop Header: Depth=1
	cmpl	$0, -12(%rbp)
	jl	.LBB58_4
# %bb.2:                                # %for.body
                                        #   in Loop: Header=BB58_1 Depth=1
	movl	-16(%rbp), %eax
	shll	$8, %eax
	movq	-32(%rbp), %rcx
	movslq	-12(%rbp), %rdx
	movzbl	(%rcx,%rdx), %ecx
	addl	%ecx, %eax
	movl	%eax, -20(%rbp)
	movl	-20(%rbp), %eax
	xorl	%edx, %edx
	movl	$10, %ecx
	divl	%ecx
	movq	-32(%rbp), %rdx
	movslq	-12(%rbp), %rsi
	movb	%al, (%rdx,%rsi)
	movl	-20(%rbp), %eax
	xorl	%edx, %edx
	divl	%ecx
	movl	%edx, -16(%rbp)
# %bb.3:                                # %for.inc
                                        #   in Loop: Header=BB58_1 Depth=1
	movl	-12(%rbp), %eax
	addl	$-1, %eax
	movl	%eax, -12(%rbp)
	jmp	.LBB58_1
.LBB58_4:                               # %for.end
	movl	-16(%rbp), %ebx
	cmpl	$1431951648, -24(%rbp)  # imm = 0x5559D920
	jne	.LBB58_6
.LBB58_5:
	movl	%ebx, %eax
	addq	$24, %rsp
	popq	%rbx
	popq	%rbp
	.cfi_def_cfa %rsp, 8
	retq
.LBB58_6:                               # %func_exit
	.cfi_def_cfa %rbp, 16
	callq	detect_breach
	jmp	.LBB58_5
.Lfunc_end58:
	.size	uInt64_qrm10.16, .Lfunc_end58-uInt64_qrm10.16
	.cfi_endproc
                                        # -- End function
	.section	.rodata.cst8,"aM",@progbits,8
	.p2align	3               # -- Begin function uInt64_to_double.17
.LCPI59_0:
	.quad	4607182418800017408     # double 1
.LCPI59_1:
	.quad	4643211215818981376     # double 256
	.text
	.p2align	4, 0x90
	.type	uInt64_to_double.17,@function
uInt64_to_double.17:                    # @uInt64_to_double.17
	.cfi_startproc
# %bb.0:                                # %entry
	pushq	%rbp
	.cfi_def_cfa_offset 16
	.cfi_offset %rbp, -16
	movq	%rsp, %rbp
	.cfi_def_cfa_register %rbp
	subq	$48, %rsp
	vmovsd	.LCPI59_0(%rip), %xmm0  # xmm0 = mem[0],zero
	movl	$811542299, -28(%rbp)   # imm = 0x305F271B
	movq	%rdi, -48(%rbp)
	vmovsd	%xmm0, -24(%rbp)
	vxorps	%xmm0, %xmm0, %xmm0
	vmovsd	%xmm0, -16(%rbp)
	movl	$0, -4(%rbp)
.LBB59_1:                               # %for.cond
                                        # =>This Inner Loop Header: Depth=1
	cmpl	$8, -4(%rbp)
	jge	.LBB59_4
# %bb.2:                                # %for.body
                                        #   in Loop: Header=BB59_1 Depth=1
	vmovsd	.LCPI59_1(%rip), %xmm0  # xmm0 = mem[0],zero
	vmovsd	-24(%rbp), %xmm1        # xmm1 = mem[0],zero
	movq	-48(%rbp), %rax
	movslq	-4(%rbp), %rcx
	movzbl	(%rax,%rcx), %eax
	vcvtsi2sd	%eax, %xmm0, %xmm2
	vmulsd	%xmm2, %xmm1, %xmm1
	vaddsd	-16(%rbp), %xmm1, %xmm1
	vmovsd	%xmm1, -16(%rbp)
	vmulsd	-24(%rbp), %xmm0, %xmm0
	vmovsd	%xmm0, -24(%rbp)
# %bb.3:                                # %for.inc
                                        #   in Loop: Header=BB59_1 Depth=1
	movl	-4(%rbp), %eax
	addl	$1, %eax
	movl	%eax, -4(%rbp)
	jmp	.LBB59_1
.LBB59_4:                               # %for.end
	vmovsd	-16(%rbp), %xmm0        # xmm0 = mem[0],zero
	cmpl	$811542299, -28(%rbp)   # imm = 0x305F271B
	jne	.LBB59_6
.LBB59_5:
	addq	$48, %rsp
	popq	%rbp
	.cfi_def_cfa %rsp, 8
	retq
.LBB59_6:                               # %func_exit
	.cfi_def_cfa %rbp, 16
	vmovsd	%xmm0, -40(%rbp)        # 8-byte Spill
	callq	detect_breach
	vmovsd	-40(%rbp), %xmm0        # 8-byte Reload
                                        # xmm0 = mem[0],zero
	jmp	.LBB59_5
.Lfunc_end59:
	.size	uInt64_to_double.17, .Lfunc_end59-uInt64_to_double.17
	.cfi_endproc
                                        # -- End function
	.section	.rodata.cst8,"aM",@progbits,8
	.p2align	3               # -- Begin function compressStream.18
.LCPI60_0:
	.quad	4636737291354636288     # double 100
.LCPI60_1:
	.quad	4607182418800017408     # double 1
.LCPI60_2:
	.quad	4620693217682128896     # double 8
	.text
	.p2align	4, 0x90
	.type	compressStream.18,@function
compressStream.18:                      # @compressStream.18
	.cfi_startproc
# %bb.0:                                # %entry
	pushq	%rbp
	.cfi_def_cfa_offset 16
	.cfi_offset %rbp, -16
	movq	%rsp, %rbp
	.cfi_def_cfa_register %rbp
	subq	$5200, %rsp             # imm = 0x1450
	movl	$1782346951, -76(%rbp)  # imm = 0x6A3C74C7
	movq	%rdi, -24(%rbp)
	movq	%rsi, -32(%rbp)
	movq	$0, -56(%rbp)
	movq	-24(%rbp), %rdi
	callq	ferror
	cmpl	$0, %eax
	je	.LBB60_2
# %bb.1:                                # %if.then
	jmp	.LBB60_46
.LBB60_2:                               # %if.end
	movq	-32(%rbp), %rdi
	callq	ferror
	cmpl	$0, %eax
	je	.LBB60_4
# %bb.3:                                # %if.then3
	jmp	.LBB60_46
.LBB60_4:                               # %if.end4
	movq	-32(%rbp), %rsi
	movl	blockSize100k, %edx
	movl	verbosity, %ecx
	movl	workFactor, %r8d
	leaq	-4(%rbp), %rdi
	callq	BZ2_bzWriteOpen
	movq	%rax, -56(%rbp)
	cmpl	$0, -4(%rbp)
	je	.LBB60_6
# %bb.5:                                # %if.then6
	jmp	.LBB60_40
.LBB60_6:                               # %if.end7
	cmpl	$2, verbosity
	jl	.LBB60_8
# %bb.7:                                # %if.then9
	movq	stderr, %rdi
	movabsq	$.L.str.73, %rsi
	movb	$0, %al
	callq	fprintf
.LBB60_8:                               # %if.end11
	jmp	.LBB60_9
.LBB60_9:                               # %while.body
                                        # =>This Inner Loop Header: Depth=1
	movq	-24(%rbp), %rdi
	callq	myfeof
	cmpb	$0, %al
	je	.LBB60_11
# %bb.10:                               # %if.then14
	jmp	.LBB60_18
.LBB60_11:                              # %if.end15
                                        #   in Loop: Header=BB60_9 Depth=1
	leaq	-5184(%rbp), %rdi
	movq	-24(%rbp), %rcx
	movl	$1, %esi
	movl	$5000, %edx             # imm = 0x1388
	callq	fread
	movl	%eax, -40(%rbp)
	movq	-24(%rbp), %rdi
	callq	ferror
	cmpl	$0, %eax
	je	.LBB60_13
# %bb.12:                               # %if.then19
	jmp	.LBB60_46
.LBB60_13:                              # %if.end20
                                        #   in Loop: Header=BB60_9 Depth=1
	cmpl	$0, -40(%rbp)
	jle	.LBB60_15
# %bb.14:                               # %if.then23
                                        #   in Loop: Header=BB60_9 Depth=1
	leaq	-5184(%rbp), %rdx
	movq	-56(%rbp), %rsi
	movl	-40(%rbp), %ecx
	leaq	-4(%rbp), %rdi
	callq	BZ2_bzWrite
.LBB60_15:                              # %if.end25
                                        #   in Loop: Header=BB60_9 Depth=1
	cmpl	$0, -4(%rbp)
	je	.LBB60_17
# %bb.16:                               # %if.then28
	jmp	.LBB60_40
.LBB60_17:                              # %if.end29
                                        #   in Loop: Header=BB60_9 Depth=1
	jmp	.LBB60_9
.LBB60_18:                              # %while.end
	movq	-56(%rbp), %rsi
	leaq	-4(%rbp), %rdi
	movl	$0, %edx
	leaq	-12(%rbp), %rcx
	leaq	-16(%rbp), %r8
	leaq	-44(%rbp), %r9
	leaq	-36(%rbp), %rax
	movq	%rax, (%rsp)
	callq	BZ2_bzWriteClose64
	cmpl	$0, -4(%rbp)
	je	.LBB60_20
# %bb.19:                               # %if.then32
	jmp	.LBB60_40
.LBB60_20:                              # %if.end33
	movq	-32(%rbp), %rdi
	callq	ferror
	cmpl	$0, %eax
	je	.LBB60_22
# %bb.21:                               # %if.then36
	jmp	.LBB60_46
.LBB60_22:                              # %if.end37
	movq	-32(%rbp), %rdi
	callq	fflush
	movl	%eax, -8(%rbp)
	cmpl	$-1, -8(%rbp)
	jne	.LBB60_24
# %bb.23:                               # %if.then41
	jmp	.LBB60_46
.LBB60_24:                              # %if.end42
	movq	-32(%rbp), %rax
	cmpq	stdout, %rax
	je	.LBB60_28
# %bb.25:                               # %if.then45
	movq	-32(%rbp), %rdi
	callq	fclose
	movl	%eax, -8(%rbp)
	movq	$0, outputHandleJustInCase
	cmpl	$-1, -8(%rbp)
	jne	.LBB60_27
# %bb.26:                               # %if.then49
	jmp	.LBB60_46
.LBB60_27:                              # %if.end50
	jmp	.LBB60_28
.LBB60_28:                              # %if.end51
	movq	$0, outputHandleJustInCase
	movq	-24(%rbp), %rdi
	callq	ferror
	cmpl	$0, %eax
	je	.LBB60_30
# %bb.29:                               # %if.then54
	jmp	.LBB60_46
.LBB60_30:                              # %if.end55
	movq	-24(%rbp), %rdi
	callq	fclose
	movl	%eax, -8(%rbp)
	cmpl	$-1, -8(%rbp)
	jne	.LBB60_32
# %bb.31:                               # %if.then59
	jmp	.LBB60_46
.LBB60_32:                              # %if.end60
	cmpl	$1, verbosity
	jl	.LBB60_38
# %bb.33:                               # %if.then63
	cmpl	$0, -12(%rbp)
	jne	.LBB60_36
# %bb.34:                               # %land.lhs.true
	cmpl	$0, -16(%rbp)
	jne	.LBB60_36
# %bb.35:                               # %if.then68
	movq	stderr, %rdi
	movabsq	$.L.str.74, %rsi
	movb	$0, %al
	callq	fprintf
	jmp	.LBB60_37
.LBB60_36:                              # %if.else
	movl	-12(%rbp), %esi
	movl	-16(%rbp), %edx
	leaq	-88(%rbp), %rdi
	callq	uInt64_from_UInt32s
	movl	-44(%rbp), %esi
	movl	-36(%rbp), %edx
	leaq	-96(%rbp), %rdi
	callq	uInt64_from_UInt32s
	leaq	-88(%rbp), %rdi
	callq	uInt64_to_double
	vmovsd	%xmm0, -64(%rbp)
	leaq	-96(%rbp), %rdi
	callq	uInt64_to_double
	leaq	-144(%rbp), %rdi
	vmovsd	%xmm0, -72(%rbp)
	leaq	-88(%rbp), %rsi
	callq	uInt64_toAscii
	leaq	-176(%rbp), %rdi
	leaq	-96(%rbp), %rsi
	callq	uInt64_toAscii
	leaq	-176(%rbp), %rcx
	leaq	-144(%rbp), %rdx
	vmovsd	.LCPI60_0(%rip), %xmm2  # xmm2 = mem[0],zero
	vmovsd	.LCPI60_1(%rip), %xmm3  # xmm3 = mem[0],zero
	vmovsd	.LCPI60_2(%rip), %xmm1  # xmm1 = mem[0],zero
	movq	stderr, %rdi
	vmovsd	-64(%rbp), %xmm0        # xmm0 = mem[0],zero
	vdivsd	-72(%rbp), %xmm0, %xmm0
	vmulsd	-72(%rbp), %xmm1, %xmm1
	vdivsd	-64(%rbp), %xmm1, %xmm1
	vmovsd	-72(%rbp), %xmm4        # xmm4 = mem[0],zero
	vdivsd	-64(%rbp), %xmm4, %xmm4
	vsubsd	%xmm4, %xmm3, %xmm3
	vmulsd	%xmm3, %xmm2, %xmm2
	movabsq	$.L.str.75, %rsi
	movb	$3, %al
	callq	fprintf
.LBB60_37:                              # %if.end80
	jmp	.LBB60_38
.LBB60_38:                              # %if.end81
	cmpl	$1782346951, -76(%rbp)  # imm = 0x6A3C74C7
	jne	.LBB60_48
.LBB60_39:
	addq	$5200, %rsp             # imm = 0x1450
	popq	%rbp
	.cfi_def_cfa %rsp, 8
	retq
.LBB60_40:                              # %errhandler
	.cfi_def_cfa %rbp, 16
	movq	-56(%rbp), %rsi
	leaq	-36(%rbp), %rax
	movq	%rax, (%rsp)
	leaq	-100(%rbp), %rdi
	leaq	-12(%rbp), %rcx
	leaq	-16(%rbp), %r8
	leaq	-44(%rbp), %r9
	movl	$1, %edx
	callq	BZ2_bzWriteClose64
	movl	-4(%rbp), %eax
	movl	%eax, %ecx
	subl	$-9, %ecx
	je	.LBB60_43
	jmp	.LBB60_41
.LBB60_41:                              # %errhandler
	movl	%eax, %ecx
	subl	$-6, %ecx
	je	.LBB60_45
	jmp	.LBB60_42
.LBB60_42:                              # %errhandler
	subl	$-3, %eax
	je	.LBB60_44
	jmp	.LBB60_47
.LBB60_43:                              # %sw.bb
	callq	configError
.LBB60_44:                              # %sw.bb82
	callq	outOfMemory
.LBB60_45:                              # %sw.bb83
	jmp	.LBB60_46
.LBB60_46:                              # %errhandler_io
	callq	ioError
.LBB60_47:                              # %sw.default
	movabsq	$.L.str.76, %rdi
	callq	panic
.LBB60_48:                              # %func_exit
	callq	detect_breach
	jmp	.LBB60_39
.Lfunc_end60:
	.size	compressStream.18, .Lfunc_end60-compressStream.18
	.cfi_endproc
                                        # -- End function
	.p2align	4, 0x90         # -- Begin function myfeof.19
	.type	myfeof.19,@function
myfeof.19:                              # @myfeof.19
	.cfi_startproc
# %bb.0:                                # %entry
	pushq	%rbp
	.cfi_def_cfa_offset 16
	.cfi_offset %rbp, -16
	movq	%rsp, %rbp
	.cfi_def_cfa_register %rbp
	pushq	%rbx
	subq	$24, %rsp
	.cfi_offset %rbx, -24
	movl	$1199329179, -20(%rbp)  # imm = 0x477C4F9B
	movq	%rdi, -32(%rbp)
	movq	-32(%rbp), %rdi
	callq	fgetc
	movl	%eax, -16(%rbp)
	cmpl	$-1, -16(%rbp)
	jne	.LBB61_2
# %bb.1:                                # %if.then
	movb	$1, -9(%rbp)
	jmp	.LBB61_3
.LBB61_2:                               # %if.end
	movl	-16(%rbp), %edi
	movq	-32(%rbp), %rsi
	callq	ungetc
	movb	$0, -9(%rbp)
.LBB61_3:                               # %return
	movb	-9(%rbp), %bl
	cmpl	$1199329179, -20(%rbp)  # imm = 0x477C4F9B
	jne	.LBB61_5
.LBB61_4:
	movzbl	%bl, %eax
	addq	$24, %rsp
	popq	%rbx
	popq	%rbp
	.cfi_def_cfa %rsp, 8
	retq
.LBB61_5:                               # %func_exit
	.cfi_def_cfa %rbp, 16
	callq	detect_breach
	jmp	.LBB61_4
.Lfunc_end61:
	.size	myfeof.19, .Lfunc_end61-myfeof.19
	.cfi_endproc
                                        # -- End function
	.p2align	4, 0x90         # -- Begin function compress.20
	.type	compress.20,@function
compress.20:                            # @compress.20
	.cfi_startproc
# %bb.0:                                # %entry
	pushq	%rbp
	.cfi_def_cfa_offset 16
	.cfi_offset %rbp, -16
	movq	%rsp, %rbp
	.cfi_def_cfa_register %rbp
	pushq	%r14
	pushq	%rbx
	subq	$192, %rsp
	.cfi_offset %rbx, -32
	.cfi_offset %r14, -24
	movl	$527873363, -60(%rbp)   # imm = 0x1F76B553
	movq	%rdi, -56(%rbp)
	movb	$0, deleteOutputOnInterrupt
	cmpq	$0, -56(%rbp)
	jne	.LBB62_3
# %bb.1:                                # %land.lhs.true
	cmpl	$1, srcMode
	je	.LBB62_3
# %bb.2:                                # %if.then
	movabsq	$.L.str.53, %rdi
	callq	panic
.LBB62_3:                               # %if.end
	movl	srcMode(%rip), %eax
	movl	%eax, %ecx
	subl	$1, %ecx
	je	.LBB62_6
	jmp	.LBB62_4
.LBB62_4:                               # %if.end
	movl	%eax, %ecx
	subl	$2, %ecx
	je	.LBB62_8
	jmp	.LBB62_5
.LBB62_5:                               # %if.end
	subl	$3, %eax
	je	.LBB62_7
	jmp	.LBB62_9
.LBB62_6:                               # %sw.bb
	movabsq	$inName, %rdi
	movabsq	$.L.str.54, %rsi
	callq	copyFileName
	movabsq	$outName, %rdi
	movabsq	$.L.str.55, %rsi
	callq	copyFileName
	jmp	.LBB62_9
.LBB62_7:                               # %sw.bb2
	movq	-56(%rbp), %rsi
	movabsq	$inName, %rdi
	callq	copyFileName
	movq	-56(%rbp), %rsi
	movabsq	$outName, %rdi
	callq	copyFileName
	movabsq	$outName, %rdi
	movabsq	$.L.str.30, %rsi
	callq	strcat
	jmp	.LBB62_9
.LBB62_8:                               # %sw.bb3
	movq	-56(%rbp), %rsi
	movabsq	$inName, %rdi
	callq	copyFileName
	movabsq	$outName, %rdi
	movabsq	$.L.str.55, %rsi
	callq	copyFileName
.LBB62_9:                               # %sw.epilog
	cmpl	$1, srcMode
	je	.LBB62_14
# %bb.10:                               # %land.lhs.true5
	movabsq	$inName, %rdi
	callq	containsDubiousChars
	movzbl	%al, %eax
	cmpl	$0, %eax
	je	.LBB62_14
# %bb.11:                               # %if.then7
	cmpb	$0, noisy
	je	.LBB62_13
# %bb.12:                               # %if.then9
	movq	stderr, %rdi
	movq	progName, %rdx
	movabsq	$.L.str.56, %rsi
	movabsq	$inName, %rcx
	movb	$0, %al
	callq	fprintf
.LBB62_13:                              # %if.end11
	movl	$1, %edi
	callq	setExit
	jmp	.LBB62_80
.LBB62_14:                              # %if.end12
	cmpl	$1, srcMode
	je	.LBB62_17
# %bb.15:                               # %land.lhs.true15
	movabsq	$inName, %rdi
	callq	fileExists
	cmpb	$0, %al
	jne	.LBB62_17
# %bb.16:                               # %if.then18
	movq	stderr, %rbx
	movq	progName, %r14
	callq	__errno_location
	movl	(%rax), %edi
	callq	strerror
	movq	%rbx, %rdi
	movabsq	$.L.str.57, %rsi
	movq	%r14, %rdx
	movabsq	$inName, %rcx
	movq	%rax, %r8
	movb	$0, %al
	callq	fprintf
	movl	$1, %edi
	callq	setExit
	jmp	.LBB62_80
.LBB62_17:                              # %if.end22
	movl	$0, -20(%rbp)
.LBB62_18:                              # %for.cond
                                        # =>This Inner Loop Header: Depth=1
	cmpl	$4, -20(%rbp)
	jge	.LBB62_25
# %bb.19:                               # %for.body
                                        #   in Loop: Header=BB62_18 Depth=1
	movslq	-20(%rbp), %rax
	movq	zSuffix(,%rax,8), %rsi
	movabsq	$inName, %rdi
	callq	hasSuffix
	cmpb	$0, %al
	je	.LBB62_23
# %bb.20:                               # %if.then27
	cmpb	$0, noisy
	je	.LBB62_22
# %bb.21:                               # %if.then29
	movq	stderr, %rdi
	movq	progName, %rdx
	movslq	-20(%rbp), %rax
	movq	zSuffix(,%rax,8), %r8
	movabsq	$.L.str.58, %rsi
	movabsq	$inName, %rcx
	movb	$0, %al
	callq	fprintf
.LBB62_22:                              # %if.end33
	movl	$1, %edi
	callq	setExit
	jmp	.LBB62_80
.LBB62_23:                              # %if.end34
                                        #   in Loop: Header=BB62_18 Depth=1
	jmp	.LBB62_24
.LBB62_24:                              # %for.inc
                                        #   in Loop: Header=BB62_18 Depth=1
	movl	-20(%rbp), %eax
	addl	$1, %eax
	movl	%eax, -20(%rbp)
	jmp	.LBB62_18
.LBB62_25:                              # %for.end
	cmpl	$3, srcMode
	je	.LBB62_27
# %bb.26:                               # %lor.lhs.false
	cmpl	$2, srcMode
	jne	.LBB62_30
.LBB62_27:                              # %if.then39
	movabsq	$inName, %rdi
	leaq	-208(%rbp), %rsi
	callq	stat
	movl	-184(%rbp), %eax
	andl	$61440, %eax            # imm = 0xF000
	cmpl	$16384, %eax            # imm = 0x4000
	jne	.LBB62_29
# %bb.28:                               # %if.then43
	movq	stderr, %rdi
	movq	progName, %rdx
	movabsq	$.L.str.59, %rsi
	movabsq	$inName, %rcx
	movb	$0, %al
	callq	fprintf
	movl	$1, %edi
	callq	setExit
	jmp	.LBB62_80
.LBB62_29:                              # %if.end45
	jmp	.LBB62_30
.LBB62_30:                              # %if.end46
	cmpl	$3, srcMode
	jne	.LBB62_36
# %bb.31:                               # %land.lhs.true49
	cmpb	$0, forceOverwrite
	jne	.LBB62_36
# %bb.32:                               # %land.lhs.true51
	movabsq	$inName, %rdi
	callq	notAStandardFile
	movzbl	%al, %eax
	cmpl	$0, %eax
	je	.LBB62_36
# %bb.33:                               # %if.then55
	cmpb	$0, noisy
	je	.LBB62_35
# %bb.34:                               # %if.then57
	movq	stderr, %rdi
	movq	progName, %rdx
	movabsq	$.L.str.60, %rsi
	movabsq	$inName, %rcx
	movb	$0, %al
	callq	fprintf
.LBB62_35:                              # %if.end59
	movl	$1, %edi
	callq	setExit
	jmp	.LBB62_80
.LBB62_36:                              # %if.end60
	cmpl	$3, srcMode
	jne	.LBB62_42
# %bb.37:                               # %land.lhs.true63
	movabsq	$outName, %rdi
	callq	fileExists
	movzbl	%al, %eax
	cmpl	$0, %eax
	je	.LBB62_42
# %bb.38:                               # %if.then67
	cmpb	$0, forceOverwrite
	je	.LBB62_40
# %bb.39:                               # %if.then69
	movabsq	$outName, %rdi
	callq	remove
	jmp	.LBB62_41
.LBB62_40:                              # %if.else
	movq	stderr, %rdi
	movq	progName, %rdx
	movabsq	$.L.str.61, %rsi
	movabsq	$outName, %rcx
	movb	$0, %al
	callq	fprintf
	movl	$1, %edi
	callq	setExit
	jmp	.LBB62_80
.LBB62_41:                              # %if.end72
	jmp	.LBB62_42
.LBB62_42:                              # %if.end73
	cmpl	$3, srcMode
	jne	.LBB62_46
# %bb.43:                               # %land.lhs.true76
	cmpb	$0, forceOverwrite
	jne	.LBB62_46
# %bb.44:                               # %land.lhs.true78
	movabsq	$inName, %rdi
	callq	countHardLinks
	movl	%eax, -44(%rbp)
	cmpl	$0, %eax
	jle	.LBB62_46
# %bb.45:                               # %if.then82
	movq	stderr, %rdi
	movq	progName, %rdx
	movl	-44(%rbp), %r8d
	movl	-44(%rbp), %eax
	cmpl	$1, %eax
	movabsq	$.L.str.63, %rax
	movabsq	$.L.str.34, %r9
	cmovgq	%rax, %r9
	movabsq	$.L.str.62, %rsi
	movabsq	$inName, %rcx
	movb	$0, %al
	callq	fprintf
	movl	$1, %edi
	callq	setExit
	jmp	.LBB62_80
.LBB62_46:                              # %if.end86
	cmpl	$3, srcMode
	jne	.LBB62_48
# %bb.47:                               # %if.then89
	movabsq	$inName, %rdi
	callq	saveInputFileMetaInfo
.LBB62_48:                              # %if.end90
	movl	srcMode(%rip), %eax
	movl	%eax, %ecx
	subl	$1, %ecx
	je	.LBB62_51
	jmp	.LBB62_49
.LBB62_49:                              # %if.end90
	movl	%eax, %ecx
	subl	$2, %ecx
	je	.LBB62_54
	jmp	.LBB62_50
.LBB62_50:                              # %if.end90
	subl	$3, %eax
	je	.LBB62_61
	jmp	.LBB62_70
.LBB62_51:                              # %sw.bb91
	movq	stdin, %rax
	movq	%rax, -32(%rbp)
	movq	stdout, %rax
	movq	%rax, -40(%rbp)
	movq	stdout, %rdi
	callq	fileno
	movl	%eax, %edi
	callq	isatty
	cmpl	$0, %eax
	je	.LBB62_53
# %bb.52:                               # %if.then95
	movq	stderr, %rdi
	movq	progName, %rdx
	movabsq	$.L.str.64, %rsi
	movb	$0, %al
	callq	fprintf
	movq	stderr, %rdi
	movq	progName, %rdx
	movq	progName, %rcx
	movabsq	$.L.str.65, %rsi
	movb	$0, %al
	callq	fprintf
	movl	$1, %edi
	callq	setExit
	jmp	.LBB62_80
.LBB62_53:                              # %if.end98
	jmp	.LBB62_71
.LBB62_54:                              # %sw.bb99
	movabsq	$inName, %rdi
	movabsq	$.L.str.66, %rsi
	callq	fopen
	movq	%rax, -32(%rbp)
	movq	stdout, %rax
	movq	%rax, -40(%rbp)
	movq	stdout, %rdi
	callq	fileno
	movl	%eax, %edi
	callq	isatty
	cmpl	$0, %eax
	je	.LBB62_58
# %bb.55:                               # %if.then104
	movq	stderr, %rdi
	movq	progName, %rdx
	movabsq	$.L.str.64, %rsi
	movb	$0, %al
	callq	fprintf
	movq	stderr, %rdi
	movq	progName, %rdx
	movq	progName, %rcx
	movabsq	$.L.str.65, %rsi
	movb	$0, %al
	callq	fprintf
	cmpq	$0, -32(%rbp)
	je	.LBB62_57
# %bb.56:                               # %if.then109
	movq	-32(%rbp), %rdi
	callq	fclose
.LBB62_57:                              # %if.end111
	movl	$1, %edi
	callq	setExit
	jmp	.LBB62_80
.LBB62_58:                              # %if.end112
	cmpq	$0, -32(%rbp)
	jne	.LBB62_60
# %bb.59:                               # %if.then115
	movq	stderr, %rbx
	movq	progName, %r14
	callq	__errno_location
	movl	(%rax), %edi
	callq	strerror
	movq	%rbx, %rdi
	movabsq	$.L.str.57, %rsi
	movq	%r14, %rdx
	movabsq	$inName, %rcx
	movq	%rax, %r8
	movb	$0, %al
	callq	fprintf
	movl	$1, %edi
	callq	setExit
	jmp	.LBB62_80
.LBB62_60:                              # %if.end119
	jmp	.LBB62_71
.LBB62_61:                              # %sw.bb120
	movabsq	$inName, %rdi
	movabsq	$.L.str.66, %rsi
	callq	fopen
	movq	%rax, -32(%rbp)
	movabsq	$outName, %rdi
	movabsq	$.L.str.67, %rsi
	callq	fopen_output_safely
	movq	%rax, -40(%rbp)
	cmpq	$0, -40(%rbp)
	jne	.LBB62_65
# %bb.62:                               # %if.then125
	movq	stderr, %rbx
	movq	progName, %r14
	callq	__errno_location
	movl	(%rax), %edi
	callq	strerror
	movq	%rbx, %rdi
	movabsq	$.L.str.68, %rsi
	movq	%r14, %rdx
	movabsq	$outName, %rcx
	movq	%rax, %r8
	movb	$0, %al
	callq	fprintf
	cmpq	$0, -32(%rbp)
	je	.LBB62_64
# %bb.63:                               # %if.then131
	movq	-32(%rbp), %rdi
	callq	fclose
.LBB62_64:                              # %if.end133
	movl	$1, %edi
	callq	setExit
	jmp	.LBB62_80
.LBB62_65:                              # %if.end134
	cmpq	$0, -32(%rbp)
	jne	.LBB62_69
# %bb.66:                               # %if.then137
	movq	stderr, %rbx
	movq	progName, %r14
	callq	__errno_location
	movl	(%rax), %edi
	callq	strerror
	movq	%rbx, %rdi
	movabsq	$.L.str.57, %rsi
	movq	%r14, %rdx
	movabsq	$inName, %rcx
	movq	%rax, %r8
	movb	$0, %al
	callq	fprintf
	cmpq	$0, -40(%rbp)
	je	.LBB62_68
# %bb.67:                               # %if.then143
	movq	-40(%rbp), %rdi
	callq	fclose
.LBB62_68:                              # %if.end145
	movl	$1, %edi
	callq	setExit
	jmp	.LBB62_80
.LBB62_69:                              # %if.end146
	jmp	.LBB62_71
.LBB62_70:                              # %sw.default
	movabsq	$.L.str.69, %rdi
	callq	panic
.LBB62_71:                              # %sw.epilog147
	cmpl	$1, verbosity
	jl	.LBB62_73
# %bb.72:                               # %if.then150
	movq	stderr, %rdi
	movabsq	$.L.str.70, %rsi
	movabsq	$inName, %rdx
	movb	$0, %al
	callq	fprintf
	movabsq	$inName, %rdi
	callq	pad
	movq	stderr, %rdi
	callq	fflush
.LBB62_73:                              # %if.end153
	movq	-40(%rbp), %rax
	movq	%rax, outputHandleJustInCase
	movb	$1, deleteOutputOnInterrupt
	movq	-32(%rbp), %rdi
	movq	-40(%rbp), %rsi
	callq	compressStream
	movq	$0, outputHandleJustInCase
	cmpl	$3, srcMode
	jne	.LBB62_79
# %bb.74:                               # %if.then156
	movabsq	$outName, %rdi
	callq	applySavedMetaInfoToOutputFile
	movb	$0, deleteOutputOnInterrupt
	cmpb	$0, keepInputFiles
	jne	.LBB62_78
# %bb.75:                               # %if.then158
	movabsq	$inName, %rdi
	callq	remove
	movl	%eax, -64(%rbp)
	cmpl	$0, -64(%rbp)
	je	.LBB62_77
# %bb.76:                               # %if.then162
	callq	ioError
.LBB62_77:                              # %if.end163
	jmp	.LBB62_78
.LBB62_78:                              # %if.end164
	jmp	.LBB62_79
.LBB62_79:                              # %if.end165
	movb	$0, deleteOutputOnInterrupt
.LBB62_80:                              # %return
	cmpl	$527873363, -60(%rbp)   # imm = 0x1F76B553
	jne	.LBB62_82
.LBB62_81:
	addq	$192, %rsp
	popq	%rbx
	popq	%r14
	popq	%rbp
	.cfi_def_cfa %rsp, 8
	retq
.LBB62_82:                              # %func_exit
	.cfi_def_cfa %rbp, 16
	callq	detect_breach
	jmp	.LBB62_81
.Lfunc_end62:
	.size	compress.20, .Lfunc_end62-compress.20
	.cfi_endproc
                                        # -- End function
	.p2align	4, 0x90         # -- Begin function uncompressStream.21
	.type	uncompressStream.21,@function
uncompressStream.21:                    # @uncompressStream.21
	.cfi_startproc
# %bb.0:                                # %entry
	pushq	%rbp
	.cfi_def_cfa_offset 16
	.cfi_offset %rbp, -16
	movq	%rsp, %rbp
	.cfi_def_cfa_register %rbp
	pushq	%rbx
	subq	$10104, %rsp            # imm = 0x2778
	.cfi_offset %rbx, -24
	movl	$787102038, -68(%rbp)   # imm = 0x2EEA3956
	movq	%rdi, -32(%rbp)
	movq	%rsi, -24(%rbp)
	movq	$0, -64(%rbp)
	movl	$0, -48(%rbp)
	movl	$0, -52(%rbp)
	movq	-24(%rbp), %rdi
	callq	ferror
	cmpl	$0, %eax
	je	.LBB63_2
# %bb.1:                                # %if.then
	jmp	.LBB63_66
.LBB63_2:                               # %if.end
	movq	-32(%rbp), %rdi
	callq	ferror
	cmpl	$0, %eax
	je	.LBB63_4
# %bb.3:                                # %if.then3
	jmp	.LBB63_66
.LBB63_4:                               # %if.end4
	jmp	.LBB63_5
.LBB63_5:                               # %while.body
                                        # =>This Loop Header: Depth=1
                                        #     Child Loop BB63_9 Depth 2
                                        #     Child Loop BB63_24 Depth 2
	leaq	-10112(%rbp), %r8
	movq	-32(%rbp), %rsi
	movl	verbosity, %edx
	movzbl	smallMode, %ecx
	movl	-48(%rbp), %r9d
	leaq	-16(%rbp), %rdi
	callq	BZ2_bzReadOpen
	movq	%rax, -64(%rbp)
	cmpq	$0, -64(%rbp)
	je	.LBB63_7
# %bb.6:                                # %lor.lhs.false
                                        #   in Loop: Header=BB63_5 Depth=1
	cmpl	$0, -16(%rbp)
	je	.LBB63_8
.LBB63_7:                               # %if.then9
	jmp	.LBB63_62
.LBB63_8:                               # %if.end10
                                        #   in Loop: Header=BB63_5 Depth=1
	movl	-52(%rbp), %eax
	addl	$1, %eax
	movl	%eax, -52(%rbp)
.LBB63_9:                               # %while.cond11
                                        #   Parent Loop BB63_5 Depth=1
                                        # =>  This Inner Loop Header: Depth=2
	cmpl	$0, -16(%rbp)
	jne	.LBB63_19
# %bb.10:                               # %while.body14
                                        #   in Loop: Header=BB63_9 Depth=2
	leaq	-5104(%rbp), %rdx
	movq	-64(%rbp), %rsi
	leaq	-16(%rbp), %rdi
	movl	$5000, %ecx             # imm = 0x1388
	callq	BZ2_bzRead
	movl	%eax, -44(%rbp)
	cmpl	$-5, -16(%rbp)
	jne	.LBB63_12
# %bb.11:                               # %if.then19
	jmp	.LBB63_49
.LBB63_12:                              # %if.end20
                                        #   in Loop: Header=BB63_9 Depth=2
	cmpl	$0, -16(%rbp)
	je	.LBB63_14
# %bb.13:                               # %lor.lhs.false23
                                        #   in Loop: Header=BB63_9 Depth=2
	cmpl	$4, -16(%rbp)
	jne	.LBB63_16
.LBB63_14:                              # %land.lhs.true
                                        #   in Loop: Header=BB63_9 Depth=2
	cmpl	$0, -44(%rbp)
	jle	.LBB63_16
# %bb.15:                               # %if.then28
                                        #   in Loop: Header=BB63_9 Depth=2
	leaq	-5104(%rbp), %rdi
	movslq	-44(%rbp), %rdx
	movq	-24(%rbp), %rcx
	movl	$1, %esi
	callq	fwrite
.LBB63_16:                              # %if.end32
                                        #   in Loop: Header=BB63_9 Depth=2
	movq	-24(%rbp), %rdi
	callq	ferror
	cmpl	$0, %eax
	je	.LBB63_18
# %bb.17:                               # %if.then35
	jmp	.LBB63_66
.LBB63_18:                              # %if.end36
                                        #   in Loop: Header=BB63_9 Depth=2
	jmp	.LBB63_9
.LBB63_19:                              # %while.end
                                        #   in Loop: Header=BB63_5 Depth=1
	cmpl	$4, -16(%rbp)
	je	.LBB63_21
# %bb.20:                               # %if.then39
	jmp	.LBB63_62
.LBB63_21:                              # %if.end40
                                        #   in Loop: Header=BB63_5 Depth=1
	movq	-64(%rbp), %rsi
	leaq	-16(%rbp), %rdi
	leaq	-88(%rbp), %rdx
	leaq	-48(%rbp), %rcx
	callq	BZ2_bzReadGetUnused
	cmpl	$0, -16(%rbp)
	je	.LBB63_23
# %bb.22:                               # %if.then43
	movabsq	$.L.str.88, %rdi
	callq	panic
.LBB63_23:                              # %if.end44
                                        #   in Loop: Header=BB63_5 Depth=1
	movq	-88(%rbp), %rax
	movq	%rax, -80(%rbp)
	movl	$0, -36(%rbp)
.LBB63_24:                              # %for.cond
                                        #   Parent Loop BB63_5 Depth=1
                                        # =>  This Inner Loop Header: Depth=2
	movl	-36(%rbp), %eax
	cmpl	-48(%rbp), %eax
	jge	.LBB63_27
# %bb.25:                               # %for.body
                                        #   in Loop: Header=BB63_24 Depth=2
	movq	-80(%rbp), %rax
	movslq	-36(%rbp), %rcx
	movb	(%rax,%rcx), %al
	movslq	-36(%rbp), %rcx
	movb	%al, -10112(%rbp,%rcx)
# %bb.26:                               # %for.inc
                                        #   in Loop: Header=BB63_24 Depth=2
	movl	-36(%rbp), %eax
	addl	$1, %eax
	movl	%eax, -36(%rbp)
	jmp	.LBB63_24
.LBB63_27:                              # %for.end
                                        #   in Loop: Header=BB63_5 Depth=1
	movq	-64(%rbp), %rsi
	leaq	-16(%rbp), %rdi
	callq	BZ2_bzReadClose
	cmpl	$0, -16(%rbp)
	je	.LBB63_29
# %bb.28:                               # %if.then52
	movabsq	$.L.str.88, %rdi
	callq	panic
.LBB63_29:                              # %if.end53
                                        #   in Loop: Header=BB63_5 Depth=1
	cmpl	$0, -48(%rbp)
	jne	.LBB63_32
# %bb.30:                               # %land.lhs.true56
                                        #   in Loop: Header=BB63_5 Depth=1
	movq	-32(%rbp), %rdi
	callq	myfeof
	movzbl	%al, %eax
	cmpl	$0, %eax
	je	.LBB63_32
# %bb.31:                               # %if.then60
	jmp	.LBB63_33
.LBB63_32:                              # %if.end61
                                        #   in Loop: Header=BB63_5 Depth=1
	jmp	.LBB63_5
.LBB63_33:                              # %while.end62
	jmp	.LBB63_34
.LBB63_34:                              # %closeok
	movq	-32(%rbp), %rdi
	callq	ferror
	cmpl	$0, %eax
	je	.LBB63_36
# %bb.35:                               # %if.then65
	jmp	.LBB63_66
.LBB63_36:                              # %if.end66
	movq	-32(%rbp), %rdi
	callq	fclose
	movl	%eax, -40(%rbp)
	cmpl	$-1, -40(%rbp)
	jne	.LBB63_38
# %bb.37:                               # %if.then70
	jmp	.LBB63_66
.LBB63_38:                              # %if.end71
	movq	-24(%rbp), %rdi
	callq	ferror
	cmpl	$0, %eax
	je	.LBB63_40
# %bb.39:                               # %if.then74
	jmp	.LBB63_66
.LBB63_40:                              # %if.end75
	movq	-24(%rbp), %rdi
	callq	fflush
	movl	%eax, -40(%rbp)
	cmpl	$0, -40(%rbp)
	je	.LBB63_42
# %bb.41:                               # %if.then79
	jmp	.LBB63_66
.LBB63_42:                              # %if.end80
	movq	-24(%rbp), %rax
	cmpq	stdout, %rax
	je	.LBB63_46
# %bb.43:                               # %if.then83
	movq	-24(%rbp), %rdi
	callq	fclose
	movl	%eax, -40(%rbp)
	movq	$0, outputHandleJustInCase
	cmpl	$-1, -40(%rbp)
	jne	.LBB63_45
# %bb.44:                               # %if.then87
	jmp	.LBB63_66
.LBB63_45:                              # %if.end88
	jmp	.LBB63_46
.LBB63_46:                              # %if.end89
	movq	$0, outputHandleJustInCase
	cmpl	$2, verbosity
	jl	.LBB63_48
# %bb.47:                               # %if.then92
	movq	stderr, %rdi
	movabsq	$.L.str.89, %rsi
	movb	$0, %al
	callq	fprintf
.LBB63_48:                              # %if.end94
	movb	$1, -9(%rbp)
	jmp	.LBB63_80
.LBB63_49:                              # %trycat
	cmpb	$0, forceOverwrite
	je	.LBB63_61
# %bb.50:                               # %if.then96
	movq	-32(%rbp), %rdi
	callq	rewind
.LBB63_51:                              # %while.body97
                                        # =>This Inner Loop Header: Depth=1
	movq	-32(%rbp), %rdi
	callq	myfeof
	cmpb	$0, %al
	je	.LBB63_53
# %bb.52:                               # %if.then100
	jmp	.LBB63_60
.LBB63_53:                              # %if.end101
                                        #   in Loop: Header=BB63_51 Depth=1
	leaq	-5104(%rbp), %rdi
	movq	-32(%rbp), %rcx
	movl	$1, %esi
	movl	$5000, %edx             # imm = 0x1388
	callq	fread
	movl	%eax, -44(%rbp)
	movq	-32(%rbp), %rdi
	callq	ferror
	cmpl	$0, %eax
	je	.LBB63_55
# %bb.54:                               # %if.then107
	jmp	.LBB63_66
.LBB63_55:                              # %if.end108
                                        #   in Loop: Header=BB63_51 Depth=1
	cmpl	$0, -44(%rbp)
	jle	.LBB63_57
# %bb.56:                               # %if.then111
                                        #   in Loop: Header=BB63_51 Depth=1
	leaq	-5104(%rbp), %rdi
	movslq	-44(%rbp), %rdx
	movq	-24(%rbp), %rcx
	movl	$1, %esi
	callq	fwrite
.LBB63_57:                              # %if.end115
                                        #   in Loop: Header=BB63_51 Depth=1
	movq	-24(%rbp), %rdi
	callq	ferror
	cmpl	$0, %eax
	je	.LBB63_59
# %bb.58:                               # %if.then118
	jmp	.LBB63_66
.LBB63_59:                              # %if.end119
                                        #   in Loop: Header=BB63_51 Depth=1
	jmp	.LBB63_51
.LBB63_60:                              # %while.end120
	jmp	.LBB63_34
.LBB63_61:                              # %if.end121
	jmp	.LBB63_62
.LBB63_62:                              # %errhandler
	movq	-64(%rbp), %rsi
	leaq	-92(%rbp), %rdi
	callq	BZ2_bzReadClose
	movl	-16(%rbp), %eax
	addl	$9, %eax
	movl	%eax, %ecx
	subl	$6, %ecx
	ja	.LBB63_79
# %bb.63:                               # %errhandler
	movq	.LJTI63_0(,%rax,8), %rax
	jmpq	*%rax
.LBB63_64:                              # %sw.bb
	callq	configError
.LBB63_65:                              # %sw.bb122
	jmp	.LBB63_66
.LBB63_66:                              # %errhandler_io
	callq	ioError
.LBB63_67:                              # %sw.bb123
	callq	crcError
.LBB63_68:                              # %sw.bb124
	callq	outOfMemory
.LBB63_69:                              # %sw.bb125
	callq	compressedStreamEOF
.LBB63_70:                              # %sw.bb126
	movq	-32(%rbp), %rax
	cmpq	stdin, %rax
	je	.LBB63_72
# %bb.71:                               # %if.then129
	movq	-32(%rbp), %rdi
	callq	fclose
.LBB63_72:                              # %if.end131
	movq	-24(%rbp), %rax
	cmpq	stdout, %rax
	je	.LBB63_74
# %bb.73:                               # %if.then134
	movq	-24(%rbp), %rdi
	callq	fclose
.LBB63_74:                              # %if.end136
	cmpl	$1, -52(%rbp)
	jne	.LBB63_76
# %bb.75:                               # %if.then139
	movb	$0, -9(%rbp)
	jmp	.LBB63_80
.LBB63_76:                              # %if.else
	cmpb	$0, noisy
	je	.LBB63_78
# %bb.77:                               # %if.then141
	movq	stderr, %rdi
	movq	progName, %rdx
	movabsq	$.L.str.90, %rsi
	movabsq	$inName, %rcx
	movb	$0, %al
	callq	fprintf
.LBB63_78:                              # %if.end143
	movb	$1, -9(%rbp)
	jmp	.LBB63_80
.LBB63_79:                              # %sw.default
	movabsq	$.L.str.91, %rdi
	callq	panic
.LBB63_80:                              # %return
	movb	-9(%rbp), %bl
	cmpl	$787102038, -68(%rbp)   # imm = 0x2EEA3956
	jne	.LBB63_82
.LBB63_81:
	movzbl	%bl, %eax
	addq	$10104, %rsp            # imm = 0x2778
	popq	%rbx
	popq	%rbp
	.cfi_def_cfa %rsp, 8
	retq
.LBB63_82:                              # %func_exit
	.cfi_def_cfa %rbp, 16
	callq	detect_breach
	jmp	.LBB63_81
.Lfunc_end63:
	.size	uncompressStream.21, .Lfunc_end63-uncompressStream.21
	.cfi_endproc
	.section	.rodata,"a",@progbits
	.p2align	3
.LJTI63_0:
	.quad	.LBB63_64
	.quad	.LBB63_79
	.quad	.LBB63_69
	.quad	.LBB63_65
	.quad	.LBB63_70
	.quad	.LBB63_67
	.quad	.LBB63_68
                                        # -- End function
	.text
	.p2align	4, 0x90         # -- Begin function uncompress.22
	.type	uncompress.22,@function
uncompress.22:                          # @uncompress.22
	.cfi_startproc
# %bb.0:                                # %entry
	pushq	%rbp
	.cfi_def_cfa_offset 16
	.cfi_offset %rbp, -16
	movq	%rsp, %rbp
	.cfi_def_cfa_register %rbp
	pushq	%r14
	pushq	%rbx
	subq	$208, %rsp
	.cfi_offset %rbx, -32
	.cfi_offset %r14, -24
	movl	$1966857711, -68(%rbp)  # imm = 0x753BDDEF
	movq	%rdi, -56(%rbp)
	movb	$0, deleteOutputOnInterrupt
	cmpq	$0, -56(%rbp)
	jne	.LBB64_3
# %bb.1:                                # %land.lhs.true
	cmpl	$1, srcMode
	je	.LBB64_3
# %bb.2:                                # %if.then
	movabsq	$.L.str.79, %rdi
	callq	panic
.LBB64_3:                               # %if.end
	movb	$0, -17(%rbp)
	movl	srcMode(%rip), %eax
	movl	%eax, %ecx
	subl	$1, %ecx
	je	.LBB64_6
	jmp	.LBB64_4
.LBB64_4:                               # %if.end
	movl	%eax, %ecx
	subl	$2, %ecx
	je	.LBB64_14
	jmp	.LBB64_5
.LBB64_5:                               # %if.end
	subl	$3, %eax
	je	.LBB64_7
	jmp	.LBB64_15
.LBB64_6:                               # %sw.bb
	movabsq	$inName, %rdi
	movabsq	$.L.str.54, %rsi
	callq	copyFileName
	movabsq	$outName, %rdi
	movabsq	$.L.str.55, %rsi
	callq	copyFileName
	jmp	.LBB64_15
.LBB64_7:                               # %sw.bb2
	movq	-56(%rbp), %rsi
	movabsq	$inName, %rdi
	callq	copyFileName
	movq	-56(%rbp), %rsi
	movabsq	$outName, %rdi
	callq	copyFileName
	movl	$0, -24(%rbp)
.LBB64_8:                               # %for.cond
                                        # =>This Inner Loop Header: Depth=1
	cmpl	$4, -24(%rbp)
	jge	.LBB64_13
# %bb.9:                                # %for.body
                                        #   in Loop: Header=BB64_8 Depth=1
	movslq	-24(%rbp), %rax
	movq	zSuffix(,%rax,8), %rsi
	movslq	-24(%rbp), %rax
	movq	unzSuffix(,%rax,8), %rdx
	movabsq	$outName, %rdi
	callq	mapSuffix
	cmpb	$0, %al
	je	.LBB64_11
# %bb.10:                               # %if.then6
	jmp	.LBB64_16
.LBB64_11:                              # %if.end7
                                        #   in Loop: Header=BB64_8 Depth=1
	jmp	.LBB64_12
.LBB64_12:                              # %for.inc
                                        #   in Loop: Header=BB64_8 Depth=1
	movl	-24(%rbp), %eax
	addl	$1, %eax
	movl	%eax, -24(%rbp)
	jmp	.LBB64_8
.LBB64_13:                              # %for.end
	movb	$1, -17(%rbp)
	movabsq	$outName, %rdi
	movabsq	$.L.str.80, %rsi
	callq	strcat
	jmp	.LBB64_15
.LBB64_14:                              # %sw.bb9
	movq	-56(%rbp), %rsi
	movabsq	$inName, %rdi
	callq	copyFileName
	movabsq	$outName, %rdi
	movabsq	$.L.str.55, %rsi
	callq	copyFileName
.LBB64_15:                              # %sw.epilog
	jmp	.LBB64_16
.LBB64_16:                              # %zzz
	cmpl	$1, srcMode
	je	.LBB64_21
# %bb.17:                               # %land.lhs.true11
	movabsq	$inName, %rdi
	callq	containsDubiousChars
	movzbl	%al, %eax
	cmpl	$0, %eax
	je	.LBB64_21
# %bb.18:                               # %if.then14
	cmpb	$0, noisy
	je	.LBB64_20
# %bb.19:                               # %if.then16
	movq	stderr, %rdi
	movq	progName, %rdx
	movabsq	$.L.str.56, %rsi
	movabsq	$inName, %rcx
	movb	$0, %al
	callq	fprintf
.LBB64_20:                              # %if.end18
	movl	$1, %edi
	callq	setExit
	jmp	.LBB64_95
.LBB64_21:                              # %if.end19
	cmpl	$1, srcMode
	je	.LBB64_24
# %bb.22:                               # %land.lhs.true22
	movabsq	$inName, %rdi
	callq	fileExists
	cmpb	$0, %al
	jne	.LBB64_24
# %bb.23:                               # %if.then25
	movq	stderr, %rbx
	movq	progName, %r14
	callq	__errno_location
	movl	(%rax), %edi
	callq	strerror
	movq	%rbx, %rdi
	movabsq	$.L.str.57, %rsi
	movq	%r14, %rdx
	movabsq	$inName, %rcx
	movq	%rax, %r8
	movb	$0, %al
	callq	fprintf
	movl	$1, %edi
	callq	setExit
	jmp	.LBB64_95
.LBB64_24:                              # %if.end29
	cmpl	$3, srcMode
	je	.LBB64_26
# %bb.25:                               # %lor.lhs.false
	cmpl	$2, srcMode
	jne	.LBB64_29
.LBB64_26:                              # %if.then34
	movabsq	$inName, %rdi
	leaq	-216(%rbp), %rsi
	callq	stat
	movl	-192(%rbp), %eax
	andl	$61440, %eax            # imm = 0xF000
	cmpl	$16384, %eax            # imm = 0x4000
	jne	.LBB64_28
# %bb.27:                               # %if.then38
	movq	stderr, %rdi
	movq	progName, %rdx
	movabsq	$.L.str.59, %rsi
	movabsq	$inName, %rcx
	movb	$0, %al
	callq	fprintf
	movl	$1, %edi
	callq	setExit
	jmp	.LBB64_95
.LBB64_28:                              # %if.end40
	jmp	.LBB64_29
.LBB64_29:                              # %if.end41
	cmpl	$3, srcMode
	jne	.LBB64_35
# %bb.30:                               # %land.lhs.true44
	cmpb	$0, forceOverwrite
	jne	.LBB64_35
# %bb.31:                               # %land.lhs.true46
	movabsq	$inName, %rdi
	callq	notAStandardFile
	movzbl	%al, %eax
	cmpl	$0, %eax
	je	.LBB64_35
# %bb.32:                               # %if.then50
	cmpb	$0, noisy
	je	.LBB64_34
# %bb.33:                               # %if.then52
	movq	stderr, %rdi
	movq	progName, %rdx
	movabsq	$.L.str.60, %rsi
	movabsq	$inName, %rcx
	movb	$0, %al
	callq	fprintf
.LBB64_34:                              # %if.end54
	movl	$1, %edi
	callq	setExit
	jmp	.LBB64_95
.LBB64_35:                              # %if.end55
	cmpb	$0, -17(%rbp)
	je	.LBB64_39
# %bb.36:                               # %if.then57
	cmpb	$0, noisy
	je	.LBB64_38
# %bb.37:                               # %if.then59
	movq	stderr, %rdi
	movq	progName, %rdx
	movabsq	$.L.str.81, %rsi
	movabsq	$inName, %rcx
	movabsq	$outName, %r8
	movb	$0, %al
	callq	fprintf
.LBB64_38:                              # %if.end61
	jmp	.LBB64_39
.LBB64_39:                              # %if.end62
	cmpl	$3, srcMode
	jne	.LBB64_45
# %bb.40:                               # %land.lhs.true65
	movabsq	$outName, %rdi
	callq	fileExists
	movzbl	%al, %eax
	cmpl	$0, %eax
	je	.LBB64_45
# %bb.41:                               # %if.then69
	cmpb	$0, forceOverwrite
	je	.LBB64_43
# %bb.42:                               # %if.then71
	movabsq	$outName, %rdi
	callq	remove
	jmp	.LBB64_44
.LBB64_43:                              # %if.else
	movq	stderr, %rdi
	movq	progName, %rdx
	movabsq	$.L.str.61, %rsi
	movabsq	$outName, %rcx
	movb	$0, %al
	callq	fprintf
	movl	$1, %edi
	callq	setExit
	jmp	.LBB64_95
.LBB64_44:                              # %if.end74
	jmp	.LBB64_45
.LBB64_45:                              # %if.end75
	cmpl	$3, srcMode
	jne	.LBB64_49
# %bb.46:                               # %land.lhs.true78
	cmpb	$0, forceOverwrite
	jne	.LBB64_49
# %bb.47:                               # %land.lhs.true80
	movabsq	$inName, %rdi
	callq	countHardLinks
	movl	%eax, -44(%rbp)
	cmpl	$0, %eax
	jle	.LBB64_49
# %bb.48:                               # %if.then84
	movq	stderr, %rdi
	movq	progName, %rdx
	movl	-44(%rbp), %r8d
	movl	-44(%rbp), %eax
	cmpl	$1, %eax
	movabsq	$.L.str.63, %rax
	movabsq	$.L.str.34, %r9
	cmovgq	%rax, %r9
	movabsq	$.L.str.62, %rsi
	movabsq	$inName, %rcx
	movb	$0, %al
	callq	fprintf
	movl	$1, %edi
	callq	setExit
	jmp	.LBB64_95
.LBB64_49:                              # %if.end88
	cmpl	$3, srcMode
	jne	.LBB64_51
# %bb.50:                               # %if.then91
	movabsq	$inName, %rdi
	callq	saveInputFileMetaInfo
.LBB64_51:                              # %if.end92
	movl	srcMode(%rip), %eax
	movl	%eax, %ecx
	subl	$1, %ecx
	je	.LBB64_54
	jmp	.LBB64_52
.LBB64_52:                              # %if.end92
	movl	%eax, %ecx
	subl	$2, %ecx
	je	.LBB64_57
	jmp	.LBB64_53
.LBB64_53:                              # %if.end92
	subl	$3, %eax
	je	.LBB64_62
	jmp	.LBB64_71
.LBB64_54:                              # %sw.bb93
	movq	stdin, %rax
	movq	%rax, -32(%rbp)
	movq	stdout, %rax
	movq	%rax, -40(%rbp)
	movq	stdin, %rdi
	callq	fileno
	movl	%eax, %edi
	callq	isatty
	cmpl	$0, %eax
	je	.LBB64_56
# %bb.55:                               # %if.then97
	movq	stderr, %rdi
	movq	progName, %rdx
	movabsq	$.L.str.82, %rsi
	movb	$0, %al
	callq	fprintf
	movq	stderr, %rdi
	movq	progName, %rdx
	movq	progName, %rcx
	movabsq	$.L.str.65, %rsi
	movb	$0, %al
	callq	fprintf
	movl	$1, %edi
	callq	setExit
	jmp	.LBB64_95
.LBB64_56:                              # %if.end100
	jmp	.LBB64_72
.LBB64_57:                              # %sw.bb101
	movabsq	$inName, %rdi
	movabsq	$.L.str.66, %rsi
	callq	fopen
	movq	%rax, -32(%rbp)
	movq	stdout, %rax
	movq	%rax, -40(%rbp)
	cmpq	$0, -32(%rbp)
	jne	.LBB64_61
# %bb.58:                               # %if.then105
	movq	stderr, %rbx
	movq	progName, %r14
	callq	__errno_location
	movl	(%rax), %edi
	callq	strerror
	movq	%rbx, %rdi
	movabsq	$.L.str.83, %rsi
	movq	%r14, %rdx
	movabsq	$inName, %rcx
	movq	%rax, %r8
	movb	$0, %al
	callq	fprintf
	cmpq	$0, -32(%rbp)
	je	.LBB64_60
# %bb.59:                               # %if.then111
	movq	-32(%rbp), %rdi
	callq	fclose
.LBB64_60:                              # %if.end113
	movl	$1, %edi
	callq	setExit
	jmp	.LBB64_95
.LBB64_61:                              # %if.end114
	jmp	.LBB64_72
.LBB64_62:                              # %sw.bb115
	movabsq	$inName, %rdi
	movabsq	$.L.str.66, %rsi
	callq	fopen
	movq	%rax, -32(%rbp)
	movabsq	$outName, %rdi
	movabsq	$.L.str.67, %rsi
	callq	fopen_output_safely
	movq	%rax, -40(%rbp)
	cmpq	$0, -40(%rbp)
	jne	.LBB64_66
# %bb.63:                               # %if.then120
	movq	stderr, %rbx
	movq	progName, %r14
	callq	__errno_location
	movl	(%rax), %edi
	callq	strerror
	movq	%rbx, %rdi
	movabsq	$.L.str.68, %rsi
	movq	%r14, %rdx
	movabsq	$outName, %rcx
	movq	%rax, %r8
	movb	$0, %al
	callq	fprintf
	cmpq	$0, -32(%rbp)
	je	.LBB64_65
# %bb.64:                               # %if.then126
	movq	-32(%rbp), %rdi
	callq	fclose
.LBB64_65:                              # %if.end128
	movl	$1, %edi
	callq	setExit
	jmp	.LBB64_95
.LBB64_66:                              # %if.end129
	cmpq	$0, -32(%rbp)
	jne	.LBB64_70
# %bb.67:                               # %if.then132
	movq	stderr, %rbx
	movq	progName, %r14
	callq	__errno_location
	movl	(%rax), %edi
	callq	strerror
	movq	%rbx, %rdi
	movabsq	$.L.str.57, %rsi
	movq	%r14, %rdx
	movabsq	$inName, %rcx
	movq	%rax, %r8
	movb	$0, %al
	callq	fprintf
	cmpq	$0, -40(%rbp)
	je	.LBB64_69
# %bb.68:                               # %if.then138
	movq	-40(%rbp), %rdi
	callq	fclose
.LBB64_69:                              # %if.end140
	movl	$1, %edi
	callq	setExit
	jmp	.LBB64_95
.LBB64_70:                              # %if.end141
	jmp	.LBB64_72
.LBB64_71:                              # %sw.default
	movabsq	$.L.str.84, %rdi
	callq	panic
.LBB64_72:                              # %sw.epilog142
	cmpl	$1, verbosity
	jl	.LBB64_74
# %bb.73:                               # %if.then145
	movq	stderr, %rdi
	movabsq	$.L.str.70, %rsi
	movabsq	$inName, %rdx
	movb	$0, %al
	callq	fprintf
	movabsq	$inName, %rdi
	callq	pad
	movq	stderr, %rdi
	callq	fflush
.LBB64_74:                              # %if.end148
	movq	-40(%rbp), %rax
	movq	%rax, outputHandleJustInCase
	movb	$1, deleteOutputOnInterrupt
	movq	-32(%rbp), %rdi
	movq	-40(%rbp), %rsi
	callq	uncompressStream
	movb	%al, -18(%rbp)
	movq	$0, outputHandleJustInCase
	cmpb	$0, -18(%rbp)
	je	.LBB64_82
# %bb.75:                               # %if.then151
	cmpl	$3, srcMode
	jne	.LBB64_81
# %bb.76:                               # %if.then154
	movabsq	$outName, %rdi
	callq	applySavedMetaInfoToOutputFile
	movb	$0, deleteOutputOnInterrupt
	cmpb	$0, keepInputFiles
	jne	.LBB64_80
# %bb.77:                               # %if.then156
	movabsq	$inName, %rdi
	callq	remove
	movl	%eax, -64(%rbp)
	cmpl	$0, -64(%rbp)
	je	.LBB64_79
# %bb.78:                               # %if.then160
	callq	ioError
.LBB64_79:                              # %if.end161
	jmp	.LBB64_80
.LBB64_80:                              # %if.end162
	jmp	.LBB64_81
.LBB64_81:                              # %if.end163
	jmp	.LBB64_87
.LBB64_82:                              # %if.else164
	movb	$1, unzFailsExist
	movb	$0, deleteOutputOnInterrupt
	cmpl	$3, srcMode
	jne	.LBB64_86
# %bb.83:                               # %if.then167
	movabsq	$outName, %rdi
	callq	remove
	movl	%eax, -60(%rbp)
	cmpl	$0, -60(%rbp)
	je	.LBB64_85
# %bb.84:                               # %if.then172
	callq	ioError
.LBB64_85:                              # %if.end173
	jmp	.LBB64_86
.LBB64_86:                              # %if.end174
	jmp	.LBB64_87
.LBB64_87:                              # %if.end175
	movb	$0, deleteOutputOnInterrupt
	cmpb	$0, -18(%rbp)
	je	.LBB64_91
# %bb.88:                               # %if.then177
	cmpl	$1, verbosity
	jl	.LBB64_90
# %bb.89:                               # %if.then180
	movq	stderr, %rdi
	movabsq	$.L.str.85, %rsi
	movb	$0, %al
	callq	fprintf
.LBB64_90:                              # %if.end182
	jmp	.LBB64_95
.LBB64_91:                              # %if.else183
	movl	$2, %edi
	callq	setExit
	cmpl	$1, verbosity
	jl	.LBB64_93
# %bb.92:                               # %if.then186
	movq	stderr, %rdi
	movabsq	$.L.str.86, %rsi
	movb	$0, %al
	callq	fprintf
	jmp	.LBB64_94
.LBB64_93:                              # %if.else188
	movq	stderr, %rdi
	movq	progName, %rdx
	movabsq	$.L.str.87, %rsi
	movabsq	$inName, %rcx
	movb	$0, %al
	callq	fprintf
.LBB64_94:                              # %if.end190
	jmp	.LBB64_95
.LBB64_95:                              # %if.end191
	cmpl	$1966857711, -68(%rbp)  # imm = 0x753BDDEF
	jne	.LBB64_97
.LBB64_96:
	addq	$208, %rsp
	popq	%rbx
	popq	%r14
	popq	%rbp
	.cfi_def_cfa %rsp, 8
	retq
.LBB64_97:                              # %func_exit
	.cfi_def_cfa %rbp, 16
	callq	detect_breach
	jmp	.LBB64_96
.Lfunc_end64:
	.size	uncompress.22, .Lfunc_end64-uncompress.22
	.cfi_endproc
                                        # -- End function
	.section	.rodata.cst8,"aM",@progbits,8
	.p2align	3               # -- Begin function compressStream.23
.LCPI65_0:
	.quad	4636737291354636288     # double 100
.LCPI65_1:
	.quad	4607182418800017408     # double 1
.LCPI65_2:
	.quad	4620693217682128896     # double 8
	.text
	.p2align	4, 0x90
	.type	compressStream.23,@function
compressStream.23:                      # @compressStream.23
	.cfi_startproc
# %bb.0:                                # %entry
	pushq	%rbp
	.cfi_def_cfa_offset 16
	.cfi_offset %rbp, -16
	movq	%rsp, %rbp
	.cfi_def_cfa_register %rbp
	subq	$5200, %rsp             # imm = 0x1450
	movl	$1279305510, -76(%rbp)  # imm = 0x4C40A726
	movq	%rdi, -24(%rbp)
	movq	%rsi, -32(%rbp)
	movq	$0, -56(%rbp)
	movq	-24(%rbp), %rdi
	callq	ferror
	cmpl	$0, %eax
	je	.LBB65_2
# %bb.1:                                # %if.then
	jmp	.LBB65_46
.LBB65_2:                               # %if.end
	movq	-32(%rbp), %rdi
	callq	ferror
	cmpl	$0, %eax
	je	.LBB65_4
# %bb.3:                                # %if.then3
	jmp	.LBB65_46
.LBB65_4:                               # %if.end4
	movq	-32(%rbp), %rsi
	movl	blockSize100k, %edx
	movl	verbosity, %ecx
	movl	workFactor, %r8d
	leaq	-4(%rbp), %rdi
	callq	BZ2_bzWriteOpen
	movq	%rax, -56(%rbp)
	cmpl	$0, -4(%rbp)
	je	.LBB65_6
# %bb.5:                                # %if.then6
	jmp	.LBB65_40
.LBB65_6:                               # %if.end7
	cmpl	$2, verbosity
	jl	.LBB65_8
# %bb.7:                                # %if.then9
	movq	stderr, %rdi
	movabsq	$.L.str.73, %rsi
	movb	$0, %al
	callq	fprintf
.LBB65_8:                               # %if.end11
	jmp	.LBB65_9
.LBB65_9:                               # %while.body
                                        # =>This Inner Loop Header: Depth=1
	movq	-24(%rbp), %rdi
	callq	myfeof
	cmpb	$0, %al
	je	.LBB65_11
# %bb.10:                               # %if.then14
	jmp	.LBB65_18
.LBB65_11:                              # %if.end15
                                        #   in Loop: Header=BB65_9 Depth=1
	leaq	-5184(%rbp), %rdi
	movq	-24(%rbp), %rcx
	movl	$1, %esi
	movl	$5000, %edx             # imm = 0x1388
	callq	fread
	movl	%eax, -36(%rbp)
	movq	-24(%rbp), %rdi
	callq	ferror
	cmpl	$0, %eax
	je	.LBB65_13
# %bb.12:                               # %if.then19
	jmp	.LBB65_46
.LBB65_13:                              # %if.end20
                                        #   in Loop: Header=BB65_9 Depth=1
	cmpl	$0, -36(%rbp)
	jle	.LBB65_15
# %bb.14:                               # %if.then23
                                        #   in Loop: Header=BB65_9 Depth=1
	leaq	-5184(%rbp), %rdx
	movq	-56(%rbp), %rsi
	movl	-36(%rbp), %ecx
	leaq	-4(%rbp), %rdi
	callq	BZ2_bzWrite
.LBB65_15:                              # %if.end25
                                        #   in Loop: Header=BB65_9 Depth=1
	cmpl	$0, -4(%rbp)
	je	.LBB65_17
# %bb.16:                               # %if.then28
	jmp	.LBB65_40
.LBB65_17:                              # %if.end29
                                        #   in Loop: Header=BB65_9 Depth=1
	jmp	.LBB65_9
.LBB65_18:                              # %while.end
	movq	-56(%rbp), %rsi
	leaq	-4(%rbp), %rdi
	movl	$0, %edx
	leaq	-16(%rbp), %rcx
	leaq	-12(%rbp), %r8
	leaq	-40(%rbp), %r9
	leaq	-44(%rbp), %rax
	movq	%rax, (%rsp)
	callq	BZ2_bzWriteClose64
	cmpl	$0, -4(%rbp)
	je	.LBB65_20
# %bb.19:                               # %if.then32
	jmp	.LBB65_40
.LBB65_20:                              # %if.end33
	movq	-32(%rbp), %rdi
	callq	ferror
	cmpl	$0, %eax
	je	.LBB65_22
# %bb.21:                               # %if.then36
	jmp	.LBB65_46
.LBB65_22:                              # %if.end37
	movq	-32(%rbp), %rdi
	callq	fflush
	movl	%eax, -8(%rbp)
	cmpl	$-1, -8(%rbp)
	jne	.LBB65_24
# %bb.23:                               # %if.then41
	jmp	.LBB65_46
.LBB65_24:                              # %if.end42
	movq	-32(%rbp), %rax
	cmpq	stdout, %rax
	je	.LBB65_28
# %bb.25:                               # %if.then45
	movq	-32(%rbp), %rdi
	callq	fclose
	movl	%eax, -8(%rbp)
	movq	$0, outputHandleJustInCase
	cmpl	$-1, -8(%rbp)
	jne	.LBB65_27
# %bb.26:                               # %if.then49
	jmp	.LBB65_46
.LBB65_27:                              # %if.end50
	jmp	.LBB65_28
.LBB65_28:                              # %if.end51
	movq	$0, outputHandleJustInCase
	movq	-24(%rbp), %rdi
	callq	ferror
	cmpl	$0, %eax
	je	.LBB65_30
# %bb.29:                               # %if.then54
	jmp	.LBB65_46
.LBB65_30:                              # %if.end55
	movq	-24(%rbp), %rdi
	callq	fclose
	movl	%eax, -8(%rbp)
	cmpl	$-1, -8(%rbp)
	jne	.LBB65_32
# %bb.31:                               # %if.then59
	jmp	.LBB65_46
.LBB65_32:                              # %if.end60
	cmpl	$1, verbosity
	jl	.LBB65_38
# %bb.33:                               # %if.then63
	cmpl	$0, -16(%rbp)
	jne	.LBB65_36
# %bb.34:                               # %land.lhs.true
	cmpl	$0, -12(%rbp)
	jne	.LBB65_36
# %bb.35:                               # %if.then68
	movq	stderr, %rdi
	movabsq	$.L.str.74, %rsi
	movb	$0, %al
	callq	fprintf
	jmp	.LBB65_37
.LBB65_36:                              # %if.else
	movl	-16(%rbp), %esi
	movl	-12(%rbp), %edx
	leaq	-88(%rbp), %rdi
	callq	uInt64_from_UInt32s
	movl	-40(%rbp), %esi
	movl	-44(%rbp), %edx
	leaq	-96(%rbp), %rdi
	callq	uInt64_from_UInt32s
	leaq	-88(%rbp), %rdi
	callq	uInt64_to_double
	vmovsd	%xmm0, -72(%rbp)
	leaq	-96(%rbp), %rdi
	callq	uInt64_to_double
	leaq	-176(%rbp), %rdi
	vmovsd	%xmm0, -64(%rbp)
	leaq	-88(%rbp), %rsi
	callq	uInt64_toAscii
	leaq	-144(%rbp), %rdi
	leaq	-96(%rbp), %rsi
	callq	uInt64_toAscii
	leaq	-144(%rbp), %rcx
	leaq	-176(%rbp), %rdx
	vmovsd	.LCPI65_0(%rip), %xmm2  # xmm2 = mem[0],zero
	vmovsd	.LCPI65_1(%rip), %xmm3  # xmm3 = mem[0],zero
	vmovsd	.LCPI65_2(%rip), %xmm1  # xmm1 = mem[0],zero
	movq	stderr, %rdi
	vmovsd	-72(%rbp), %xmm0        # xmm0 = mem[0],zero
	vdivsd	-64(%rbp), %xmm0, %xmm0
	vmulsd	-64(%rbp), %xmm1, %xmm1
	vdivsd	-72(%rbp), %xmm1, %xmm1
	vmovsd	-64(%rbp), %xmm4        # xmm4 = mem[0],zero
	vdivsd	-72(%rbp), %xmm4, %xmm4
	vsubsd	%xmm4, %xmm3, %xmm3
	vmulsd	%xmm3, %xmm2, %xmm2
	movabsq	$.L.str.75, %rsi
	movb	$3, %al
	callq	fprintf
.LBB65_37:                              # %if.end80
	jmp	.LBB65_38
.LBB65_38:                              # %if.end81
	cmpl	$1279305510, -76(%rbp)  # imm = 0x4C40A726
	jne	.LBB65_48
.LBB65_39:
	addq	$5200, %rsp             # imm = 0x1450
	popq	%rbp
	.cfi_def_cfa %rsp, 8
	retq
.LBB65_40:                              # %errhandler
	.cfi_def_cfa %rbp, 16
	movq	-56(%rbp), %rsi
	leaq	-44(%rbp), %rax
	movq	%rax, (%rsp)
	leaq	-100(%rbp), %rdi
	leaq	-16(%rbp), %rcx
	leaq	-12(%rbp), %r8
	leaq	-40(%rbp), %r9
	movl	$1, %edx
	callq	BZ2_bzWriteClose64
	movl	-4(%rbp), %eax
	movl	%eax, %ecx
	subl	$-9, %ecx
	je	.LBB65_43
	jmp	.LBB65_41
.LBB65_41:                              # %errhandler
	movl	%eax, %ecx
	subl	$-6, %ecx
	je	.LBB65_45
	jmp	.LBB65_42
.LBB65_42:                              # %errhandler
	subl	$-3, %eax
	je	.LBB65_44
	jmp	.LBB65_47
.LBB65_43:                              # %sw.bb
	callq	configError
.LBB65_44:                              # %sw.bb82
	callq	outOfMemory
.LBB65_45:                              # %sw.bb83
	jmp	.LBB65_46
.LBB65_46:                              # %errhandler_io
	callq	ioError
.LBB65_47:                              # %sw.default
	movabsq	$.L.str.76, %rdi
	callq	panic
.LBB65_48:                              # %func_exit
	callq	detect_breach
	jmp	.LBB65_39
.Lfunc_end65:
	.size	compressStream.23, .Lfunc_end65-compressStream.23
	.cfi_endproc
                                        # -- End function
	.p2align	4, 0x90         # -- Begin function snocString.24
	.type	snocString.24,@function
snocString.24:                          # @snocString.24
	.cfi_startproc
# %bb.0:                                # %entry
	pushq	%rbp
	.cfi_def_cfa_offset 16
	.cfi_offset %rbp, -16
	movq	%rsp, %rbp
	.cfi_def_cfa_register %rbp
	pushq	%rbx
	subq	$56, %rsp
	.cfi_offset %rbx, -24
	movl	$91347867, -44(%rbp)    # imm = 0x571DB9B
	movq	%rdi, -32(%rbp)
	movq	%rsi, -40(%rbp)
	cmpq	$0, -32(%rbp)
	jne	.LBB66_2
# %bb.1:                                # %if.then
	callq	mkCell
	movq	%rax, -24(%rbp)
	movq	-40(%rbp), %rdi
	callq	strlen
	addq	$5, %rax
	movl	%eax, %edi
	callq	myMalloc
	movq	-24(%rbp), %rcx
	movq	%rax, (%rcx)
	movq	-24(%rbp), %rax
	movq	(%rax), %rdi
	movq	-40(%rbp), %rsi
	callq	strcpy
	movq	-24(%rbp), %rax
	movq	%rax, -56(%rbp)
	jmp	.LBB66_6
.LBB66_2:                               # %if.else
	movq	-32(%rbp), %rax
	movq	%rax, -16(%rbp)
.LBB66_3:                               # %while.cond
                                        # =>This Inner Loop Header: Depth=1
	movq	-16(%rbp), %rax
	cmpq	$0, 8(%rax)
	je	.LBB66_5
# %bb.4:                                # %while.body
                                        #   in Loop: Header=BB66_3 Depth=1
	movq	-16(%rbp), %rax
	movq	8(%rax), %rax
	movq	%rax, -16(%rbp)
	jmp	.LBB66_3
.LBB66_5:                               # %while.end
	movq	-16(%rbp), %rax
	movq	8(%rax), %rdi
	movq	-40(%rbp), %rsi
	callq	snocString
	movq	-16(%rbp), %rcx
	movq	%rax, 8(%rcx)
	movq	-32(%rbp), %rax
	movq	%rax, -56(%rbp)
.LBB66_6:                               # %return
	movq	-56(%rbp), %rbx
	cmpl	$91347867, -44(%rbp)    # imm = 0x571DB9B
	jne	.LBB66_8
.LBB66_7:
	movq	%rbx, %rax
	addq	$56, %rsp
	popq	%rbx
	popq	%rbp
	.cfi_def_cfa %rsp, 8
	retq
.LBB66_8:                               # %func_exit
	.cfi_def_cfa %rbp, 16
	callq	detect_breach
	jmp	.LBB66_7
.Lfunc_end66:
	.size	snocString.24, .Lfunc_end66-snocString.24
	.cfi_endproc
                                        # -- End function
	.p2align	4, 0x90         # -- Begin function myMalloc.25
	.type	myMalloc.25,@function
myMalloc.25:                            # @myMalloc.25
	.cfi_startproc
# %bb.0:                                # %entry
	pushq	%rbp
	.cfi_def_cfa_offset 16
	.cfi_offset %rbp, -16
	movq	%rsp, %rbp
	.cfi_def_cfa_register %rbp
	pushq	%rbx
	subq	$24, %rsp
	.cfi_offset %rbx, -24
	movl	$121288639, -16(%rbp)   # imm = 0x73AB7BF
	movl	%edi, -12(%rbp)
	movslq	-12(%rbp), %rdi
	callq	malloc
	movq	%rax, -24(%rbp)
	cmpq	$0, -24(%rbp)
	jne	.LBB67_2
# %bb.1:                                # %if.then
	callq	outOfMemory
.LBB67_2:                               # %if.end
	movq	-24(%rbp), %rbx
	cmpl	$121288639, -16(%rbp)   # imm = 0x73AB7BF
	jne	.LBB67_4
.LBB67_3:
	movq	%rbx, %rax
	addq	$24, %rsp
	popq	%rbx
	popq	%rbp
	.cfi_def_cfa %rsp, 8
	retq
.LBB67_4:                               # %func_exit
	.cfi_def_cfa %rbp, 16
	callq	detect_breach
	jmp	.LBB67_3
.Lfunc_end67:
	.size	myMalloc.25, .Lfunc_end67-myMalloc.25
	.cfi_endproc
                                        # -- End function
	.p2align	4, 0x90         # -- Begin function uInt64_isZero.26
	.type	uInt64_isZero.26,@function
uInt64_isZero.26:                       # @uInt64_isZero.26
	.cfi_startproc
# %bb.0:                                # %entry
	pushq	%rbp
	.cfi_def_cfa_offset 16
	.cfi_offset %rbp, -16
	movq	%rsp, %rbp
	.cfi_def_cfa_register %rbp
	pushq	%rbx
	subq	$24, %rsp
	.cfi_offset %rbx, -24
	movl	$1120792191, -20(%rbp)  # imm = 0x42CDEE7F
	movq	%rdi, -32(%rbp)
	movl	$0, -16(%rbp)
.LBB68_1:                               # %for.cond
                                        # =>This Inner Loop Header: Depth=1
	cmpl	$8, -16(%rbp)
	jge	.LBB68_6
# %bb.2:                                # %for.body
                                        #   in Loop: Header=BB68_1 Depth=1
	movq	-32(%rbp), %rax
	movslq	-16(%rbp), %rcx
	movzbl	(%rax,%rcx), %eax
	cmpl	$0, %eax
	je	.LBB68_4
# %bb.3:                                # %if.then
	movb	$0, -9(%rbp)
	jmp	.LBB68_7
.LBB68_4:                               # %if.end
                                        #   in Loop: Header=BB68_1 Depth=1
	jmp	.LBB68_5
.LBB68_5:                               # %for.inc
                                        #   in Loop: Header=BB68_1 Depth=1
	movl	-16(%rbp), %eax
	addl	$1, %eax
	movl	%eax, -16(%rbp)
	jmp	.LBB68_1
.LBB68_6:                               # %for.end
	movb	$1, -9(%rbp)
.LBB68_7:                               # %return
	movb	-9(%rbp), %bl
	cmpl	$1120792191, -20(%rbp)  # imm = 0x42CDEE7F
	jne	.LBB68_9
.LBB68_8:
	movzbl	%bl, %eax
	addq	$24, %rsp
	popq	%rbx
	popq	%rbp
	.cfi_def_cfa %rsp, 8
	retq
.LBB68_9:                               # %func_exit
	.cfi_def_cfa %rbp, 16
	callq	detect_breach
	jmp	.LBB68_8
.Lfunc_end68:
	.size	uInt64_isZero.26, .Lfunc_end68-uInt64_isZero.26
	.cfi_endproc
                                        # -- End function
	.p2align	4, 0x90         # -- Begin function compress.27
	.type	compress.27,@function
compress.27:                            # @compress.27
	.cfi_startproc
# %bb.0:                                # %entry
	pushq	%rbp
	.cfi_def_cfa_offset 16
	.cfi_offset %rbp, -16
	movq	%rsp, %rbp
	.cfi_def_cfa_register %rbp
	pushq	%r14
	pushq	%rbx
	subq	$192, %rsp
	.cfi_offset %rbx, -32
	.cfi_offset %r14, -24
	movl	$206280726, -64(%rbp)   # imm = 0xC4B9816
	movq	%rdi, -56(%rbp)
	movb	$0, deleteOutputOnInterrupt
	cmpq	$0, -56(%rbp)
	jne	.LBB69_3
# %bb.1:                                # %land.lhs.true
	cmpl	$1, srcMode
	je	.LBB69_3
# %bb.2:                                # %if.then
	movabsq	$.L.str.53, %rdi
	callq	panic
.LBB69_3:                               # %if.end
	movl	srcMode(%rip), %eax
	movl	%eax, %ecx
	subl	$1, %ecx
	je	.LBB69_6
	jmp	.LBB69_4
.LBB69_4:                               # %if.end
	movl	%eax, %ecx
	subl	$2, %ecx
	je	.LBB69_8
	jmp	.LBB69_5
.LBB69_5:                               # %if.end
	subl	$3, %eax
	je	.LBB69_7
	jmp	.LBB69_9
.LBB69_6:                               # %sw.bb
	movabsq	$inName, %rdi
	movabsq	$.L.str.54, %rsi
	callq	copyFileName
	movabsq	$outName, %rdi
	movabsq	$.L.str.55, %rsi
	callq	copyFileName
	jmp	.LBB69_9
.LBB69_7:                               # %sw.bb2
	movq	-56(%rbp), %rsi
	movabsq	$inName, %rdi
	callq	copyFileName
	movq	-56(%rbp), %rsi
	movabsq	$outName, %rdi
	callq	copyFileName
	movabsq	$outName, %rdi
	movabsq	$.L.str.30, %rsi
	callq	strcat
	jmp	.LBB69_9
.LBB69_8:                               # %sw.bb3
	movq	-56(%rbp), %rsi
	movabsq	$inName, %rdi
	callq	copyFileName
	movabsq	$outName, %rdi
	movabsq	$.L.str.55, %rsi
	callq	copyFileName
.LBB69_9:                               # %sw.epilog
	cmpl	$1, srcMode
	je	.LBB69_14
# %bb.10:                               # %land.lhs.true5
	movabsq	$inName, %rdi
	callq	containsDubiousChars
	movzbl	%al, %eax
	cmpl	$0, %eax
	je	.LBB69_14
# %bb.11:                               # %if.then7
	cmpb	$0, noisy
	je	.LBB69_13
# %bb.12:                               # %if.then9
	movq	stderr, %rdi
	movq	progName, %rdx
	movabsq	$.L.str.56, %rsi
	movabsq	$inName, %rcx
	movb	$0, %al
	callq	fprintf
.LBB69_13:                              # %if.end11
	movl	$1, %edi
	callq	setExit
	jmp	.LBB69_80
.LBB69_14:                              # %if.end12
	cmpl	$1, srcMode
	je	.LBB69_17
# %bb.15:                               # %land.lhs.true15
	movabsq	$inName, %rdi
	callq	fileExists
	cmpb	$0, %al
	jne	.LBB69_17
# %bb.16:                               # %if.then18
	movq	stderr, %rbx
	movq	progName, %r14
	callq	__errno_location
	movl	(%rax), %edi
	callq	strerror
	movq	%rbx, %rdi
	movabsq	$.L.str.57, %rsi
	movq	%r14, %rdx
	movabsq	$inName, %rcx
	movq	%rax, %r8
	movb	$0, %al
	callq	fprintf
	movl	$1, %edi
	callq	setExit
	jmp	.LBB69_80
.LBB69_17:                              # %if.end22
	movl	$0, -20(%rbp)
.LBB69_18:                              # %for.cond
                                        # =>This Inner Loop Header: Depth=1
	cmpl	$4, -20(%rbp)
	jge	.LBB69_25
# %bb.19:                               # %for.body
                                        #   in Loop: Header=BB69_18 Depth=1
	movslq	-20(%rbp), %rax
	movq	zSuffix(,%rax,8), %rsi
	movabsq	$inName, %rdi
	callq	hasSuffix
	cmpb	$0, %al
	je	.LBB69_23
# %bb.20:                               # %if.then27
	cmpb	$0, noisy
	je	.LBB69_22
# %bb.21:                               # %if.then29
	movq	stderr, %rdi
	movq	progName, %rdx
	movslq	-20(%rbp), %rax
	movq	zSuffix(,%rax,8), %r8
	movabsq	$.L.str.58, %rsi
	movabsq	$inName, %rcx
	movb	$0, %al
	callq	fprintf
.LBB69_22:                              # %if.end33
	movl	$1, %edi
	callq	setExit
	jmp	.LBB69_80
.LBB69_23:                              # %if.end34
                                        #   in Loop: Header=BB69_18 Depth=1
	jmp	.LBB69_24
.LBB69_24:                              # %for.inc
                                        #   in Loop: Header=BB69_18 Depth=1
	movl	-20(%rbp), %eax
	addl	$1, %eax
	movl	%eax, -20(%rbp)
	jmp	.LBB69_18
.LBB69_25:                              # %for.end
	cmpl	$3, srcMode
	je	.LBB69_27
# %bb.26:                               # %lor.lhs.false
	cmpl	$2, srcMode
	jne	.LBB69_30
.LBB69_27:                              # %if.then39
	movabsq	$inName, %rdi
	leaq	-208(%rbp), %rsi
	callq	stat
	movl	-184(%rbp), %eax
	andl	$61440, %eax            # imm = 0xF000
	cmpl	$16384, %eax            # imm = 0x4000
	jne	.LBB69_29
# %bb.28:                               # %if.then43
	movq	stderr, %rdi
	movq	progName, %rdx
	movabsq	$.L.str.59, %rsi
	movabsq	$inName, %rcx
	movb	$0, %al
	callq	fprintf
	movl	$1, %edi
	callq	setExit
	jmp	.LBB69_80
.LBB69_29:                              # %if.end45
	jmp	.LBB69_30
.LBB69_30:                              # %if.end46
	cmpl	$3, srcMode
	jne	.LBB69_36
# %bb.31:                               # %land.lhs.true49
	cmpb	$0, forceOverwrite
	jne	.LBB69_36
# %bb.32:                               # %land.lhs.true51
	movabsq	$inName, %rdi
	callq	notAStandardFile
	movzbl	%al, %eax
	cmpl	$0, %eax
	je	.LBB69_36
# %bb.33:                               # %if.then55
	cmpb	$0, noisy
	je	.LBB69_35
# %bb.34:                               # %if.then57
	movq	stderr, %rdi
	movq	progName, %rdx
	movabsq	$.L.str.60, %rsi
	movabsq	$inName, %rcx
	movb	$0, %al
	callq	fprintf
.LBB69_35:                              # %if.end59
	movl	$1, %edi
	callq	setExit
	jmp	.LBB69_80
.LBB69_36:                              # %if.end60
	cmpl	$3, srcMode
	jne	.LBB69_42
# %bb.37:                               # %land.lhs.true63
	movabsq	$outName, %rdi
	callq	fileExists
	movzbl	%al, %eax
	cmpl	$0, %eax
	je	.LBB69_42
# %bb.38:                               # %if.then67
	cmpb	$0, forceOverwrite
	je	.LBB69_40
# %bb.39:                               # %if.then69
	movabsq	$outName, %rdi
	callq	remove
	jmp	.LBB69_41
.LBB69_40:                              # %if.else
	movq	stderr, %rdi
	movq	progName, %rdx
	movabsq	$.L.str.61, %rsi
	movabsq	$outName, %rcx
	movb	$0, %al
	callq	fprintf
	movl	$1, %edi
	callq	setExit
	jmp	.LBB69_80
.LBB69_41:                              # %if.end72
	jmp	.LBB69_42
.LBB69_42:                              # %if.end73
	cmpl	$3, srcMode
	jne	.LBB69_46
# %bb.43:                               # %land.lhs.true76
	cmpb	$0, forceOverwrite
	jne	.LBB69_46
# %bb.44:                               # %land.lhs.true78
	movabsq	$inName, %rdi
	callq	countHardLinks
	movl	%eax, -44(%rbp)
	cmpl	$0, %eax
	jle	.LBB69_46
# %bb.45:                               # %if.then82
	movq	stderr, %rdi
	movq	progName, %rdx
	movl	-44(%rbp), %r8d
	movl	-44(%rbp), %eax
	cmpl	$1, %eax
	movabsq	$.L.str.63, %rax
	movabsq	$.L.str.34, %r9
	cmovgq	%rax, %r9
	movabsq	$.L.str.62, %rsi
	movabsq	$inName, %rcx
	movb	$0, %al
	callq	fprintf
	movl	$1, %edi
	callq	setExit
	jmp	.LBB69_80
.LBB69_46:                              # %if.end86
	cmpl	$3, srcMode
	jne	.LBB69_48
# %bb.47:                               # %if.then89
	movabsq	$inName, %rdi
	callq	saveInputFileMetaInfo
.LBB69_48:                              # %if.end90
	movl	srcMode(%rip), %eax
	movl	%eax, %ecx
	subl	$1, %ecx
	je	.LBB69_51
	jmp	.LBB69_49
.LBB69_49:                              # %if.end90
	movl	%eax, %ecx
	subl	$2, %ecx
	je	.LBB69_54
	jmp	.LBB69_50
.LBB69_50:                              # %if.end90
	subl	$3, %eax
	je	.LBB69_61
	jmp	.LBB69_70
.LBB69_51:                              # %sw.bb91
	movq	stdin, %rax
	movq	%rax, -32(%rbp)
	movq	stdout, %rax
	movq	%rax, -40(%rbp)
	movq	stdout, %rdi
	callq	fileno
	movl	%eax, %edi
	callq	isatty
	cmpl	$0, %eax
	je	.LBB69_53
# %bb.52:                               # %if.then95
	movq	stderr, %rdi
	movq	progName, %rdx
	movabsq	$.L.str.64, %rsi
	movb	$0, %al
	callq	fprintf
	movq	stderr, %rdi
	movq	progName, %rdx
	movq	progName, %rcx
	movabsq	$.L.str.65, %rsi
	movb	$0, %al
	callq	fprintf
	movl	$1, %edi
	callq	setExit
	jmp	.LBB69_80
.LBB69_53:                              # %if.end98
	jmp	.LBB69_71
.LBB69_54:                              # %sw.bb99
	movabsq	$inName, %rdi
	movabsq	$.L.str.66, %rsi
	callq	fopen
	movq	%rax, -32(%rbp)
	movq	stdout, %rax
	movq	%rax, -40(%rbp)
	movq	stdout, %rdi
	callq	fileno
	movl	%eax, %edi
	callq	isatty
	cmpl	$0, %eax
	je	.LBB69_58
# %bb.55:                               # %if.then104
	movq	stderr, %rdi
	movq	progName, %rdx
	movabsq	$.L.str.64, %rsi
	movb	$0, %al
	callq	fprintf
	movq	stderr, %rdi
	movq	progName, %rdx
	movq	progName, %rcx
	movabsq	$.L.str.65, %rsi
	movb	$0, %al
	callq	fprintf
	cmpq	$0, -32(%rbp)
	je	.LBB69_57
# %bb.56:                               # %if.then109
	movq	-32(%rbp), %rdi
	callq	fclose
.LBB69_57:                              # %if.end111
	movl	$1, %edi
	callq	setExit
	jmp	.LBB69_80
.LBB69_58:                              # %if.end112
	cmpq	$0, -32(%rbp)
	jne	.LBB69_60
# %bb.59:                               # %if.then115
	movq	stderr, %rbx
	movq	progName, %r14
	callq	__errno_location
	movl	(%rax), %edi
	callq	strerror
	movq	%rbx, %rdi
	movabsq	$.L.str.57, %rsi
	movq	%r14, %rdx
	movabsq	$inName, %rcx
	movq	%rax, %r8
	movb	$0, %al
	callq	fprintf
	movl	$1, %edi
	callq	setExit
	jmp	.LBB69_80
.LBB69_60:                              # %if.end119
	jmp	.LBB69_71
.LBB69_61:                              # %sw.bb120
	movabsq	$inName, %rdi
	movabsq	$.L.str.66, %rsi
	callq	fopen
	movq	%rax, -32(%rbp)
	movabsq	$outName, %rdi
	movabsq	$.L.str.67, %rsi
	callq	fopen_output_safely
	movq	%rax, -40(%rbp)
	cmpq	$0, -40(%rbp)
	jne	.LBB69_65
# %bb.62:                               # %if.then125
	movq	stderr, %rbx
	movq	progName, %r14
	callq	__errno_location
	movl	(%rax), %edi
	callq	strerror
	movq	%rbx, %rdi
	movabsq	$.L.str.68, %rsi
	movq	%r14, %rdx
	movabsq	$outName, %rcx
	movq	%rax, %r8
	movb	$0, %al
	callq	fprintf
	cmpq	$0, -32(%rbp)
	je	.LBB69_64
# %bb.63:                               # %if.then131
	movq	-32(%rbp), %rdi
	callq	fclose
.LBB69_64:                              # %if.end133
	movl	$1, %edi
	callq	setExit
	jmp	.LBB69_80
.LBB69_65:                              # %if.end134
	cmpq	$0, -32(%rbp)
	jne	.LBB69_69
# %bb.66:                               # %if.then137
	movq	stderr, %rbx
	movq	progName, %r14
	callq	__errno_location
	movl	(%rax), %edi
	callq	strerror
	movq	%rbx, %rdi
	movabsq	$.L.str.57, %rsi
	movq	%r14, %rdx
	movabsq	$inName, %rcx
	movq	%rax, %r8
	movb	$0, %al
	callq	fprintf
	cmpq	$0, -40(%rbp)
	je	.LBB69_68
# %bb.67:                               # %if.then143
	movq	-40(%rbp), %rdi
	callq	fclose
.LBB69_68:                              # %if.end145
	movl	$1, %edi
	callq	setExit
	jmp	.LBB69_80
.LBB69_69:                              # %if.end146
	jmp	.LBB69_71
.LBB69_70:                              # %sw.default
	movabsq	$.L.str.69, %rdi
	callq	panic
.LBB69_71:                              # %sw.epilog147
	cmpl	$1, verbosity
	jl	.LBB69_73
# %bb.72:                               # %if.then150
	movq	stderr, %rdi
	movabsq	$.L.str.70, %rsi
	movabsq	$inName, %rdx
	movb	$0, %al
	callq	fprintf
	movabsq	$inName, %rdi
	callq	pad
	movq	stderr, %rdi
	callq	fflush
.LBB69_73:                              # %if.end153
	movq	-40(%rbp), %rax
	movq	%rax, outputHandleJustInCase
	movb	$1, deleteOutputOnInterrupt
	movq	-32(%rbp), %rdi
	movq	-40(%rbp), %rsi
	callq	compressStream
	movq	$0, outputHandleJustInCase
	cmpl	$3, srcMode
	jne	.LBB69_79
# %bb.74:                               # %if.then156
	movabsq	$outName, %rdi
	callq	applySavedMetaInfoToOutputFile
	movb	$0, deleteOutputOnInterrupt
	cmpb	$0, keepInputFiles
	jne	.LBB69_78
# %bb.75:                               # %if.then158
	movabsq	$inName, %rdi
	callq	remove
	movl	%eax, -60(%rbp)
	cmpl	$0, -60(%rbp)
	je	.LBB69_77
# %bb.76:                               # %if.then162
	callq	ioError
.LBB69_77:                              # %if.end163
	jmp	.LBB69_78
.LBB69_78:                              # %if.end164
	jmp	.LBB69_79
.LBB69_79:                              # %if.end165
	movb	$0, deleteOutputOnInterrupt
.LBB69_80:                              # %return
	cmpl	$206280726, -64(%rbp)   # imm = 0xC4B9816
	jne	.LBB69_82
.LBB69_81:
	addq	$192, %rsp
	popq	%rbx
	popq	%r14
	popq	%rbp
	.cfi_def_cfa %rsp, 8
	retq
.LBB69_82:                              # %func_exit
	.cfi_def_cfa %rbp, 16
	callq	detect_breach
	jmp	.LBB69_81
.Lfunc_end69:
	.size	compress.27, .Lfunc_end69-compress.27
	.cfi_endproc
                                        # -- End function
	.p2align	4, 0x90         # -- Begin function saveInputFileMetaInfo.28
	.type	saveInputFileMetaInfo.28,@function
saveInputFileMetaInfo.28:               # @saveInputFileMetaInfo.28
	.cfi_startproc
# %bb.0:                                # %entry
	pushq	%rbp
	.cfi_def_cfa_offset 16
	.cfi_offset %rbp, -16
	movq	%rsp, %rbp
	.cfi_def_cfa_register %rbp
	subq	$16, %rsp
	movl	$203464012, -8(%rbp)    # imm = 0xC209D4C
	movq	%rdi, -16(%rbp)
	movq	-16(%rbp), %rdi
	movabsq	$fileMetaInfo, %rsi
	callq	stat
	movl	%eax, -4(%rbp)
	cmpl	$0, -4(%rbp)
	je	.LBB70_2
# %bb.1:                                # %if.then
	callq	ioError
.LBB70_2:                               # %if.end
	cmpl	$203464012, -8(%rbp)    # imm = 0xC209D4C
	jne	.LBB70_4
.LBB70_3:
	addq	$16, %rsp
	popq	%rbp
	.cfi_def_cfa %rsp, 8
	retq
.LBB70_4:                               # %func_exit
	.cfi_def_cfa %rbp, 16
	callq	detect_breach
	jmp	.LBB70_3
.Lfunc_end70:
	.size	saveInputFileMetaInfo.28, .Lfunc_end70-saveInputFileMetaInfo.28
	.cfi_endproc
                                        # -- End function
	.p2align	4, 0x90         # -- Begin function snocString.29
	.type	snocString.29,@function
snocString.29:                          # @snocString.29
	.cfi_startproc
# %bb.0:                                # %entry
	pushq	%rbp
	.cfi_def_cfa_offset 16
	.cfi_offset %rbp, -16
	movq	%rsp, %rbp
	.cfi_def_cfa_register %rbp
	pushq	%rbx
	subq	$56, %rsp
	.cfi_offset %rbx, -24
	movl	$150011933, -44(%rbp)   # imm = 0x8F1001D
	movq	%rdi, -24(%rbp)
	movq	%rsi, -40(%rbp)
	cmpq	$0, -24(%rbp)
	jne	.LBB71_2
# %bb.1:                                # %if.then
	callq	mkCell
	movq	%rax, -32(%rbp)
	movq	-40(%rbp), %rdi
	callq	strlen
	addq	$5, %rax
	movl	%eax, %edi
	callq	myMalloc
	movq	-32(%rbp), %rcx
	movq	%rax, (%rcx)
	movq	-32(%rbp), %rax
	movq	(%rax), %rdi
	movq	-40(%rbp), %rsi
	callq	strcpy
	movq	-32(%rbp), %rax
	movq	%rax, -56(%rbp)
	jmp	.LBB71_6
.LBB71_2:                               # %if.else
	movq	-24(%rbp), %rax
	movq	%rax, -16(%rbp)
.LBB71_3:                               # %while.cond
                                        # =>This Inner Loop Header: Depth=1
	movq	-16(%rbp), %rax
	cmpq	$0, 8(%rax)
	je	.LBB71_5
# %bb.4:                                # %while.body
                                        #   in Loop: Header=BB71_3 Depth=1
	movq	-16(%rbp), %rax
	movq	8(%rax), %rax
	movq	%rax, -16(%rbp)
	jmp	.LBB71_3
.LBB71_5:                               # %while.end
	movq	-16(%rbp), %rax
	movq	8(%rax), %rdi
	movq	-40(%rbp), %rsi
	callq	snocString
	movq	-16(%rbp), %rcx
	movq	%rax, 8(%rcx)
	movq	-24(%rbp), %rax
	movq	%rax, -56(%rbp)
.LBB71_6:                               # %return
	movq	-56(%rbp), %rbx
	cmpl	$150011933, -44(%rbp)   # imm = 0x8F1001D
	jne	.LBB71_8
.LBB71_7:
	movq	%rbx, %rax
	addq	$56, %rsp
	popq	%rbx
	popq	%rbp
	.cfi_def_cfa %rsp, 8
	retq
.LBB71_8:                               # %func_exit
	.cfi_def_cfa %rbp, 16
	callq	detect_breach
	jmp	.LBB71_7
.Lfunc_end71:
	.size	snocString.29, .Lfunc_end71-snocString.29
	.cfi_endproc
                                        # -- End function
	.p2align	4, 0x90         # -- Begin function saveInputFileMetaInfo.30
	.type	saveInputFileMetaInfo.30,@function
saveInputFileMetaInfo.30:               # @saveInputFileMetaInfo.30
	.cfi_startproc
# %bb.0:                                # %entry
	pushq	%rbp
	.cfi_def_cfa_offset 16
	.cfi_offset %rbp, -16
	movq	%rsp, %rbp
	.cfi_def_cfa_register %rbp
	subq	$16, %rsp
	movl	$1344215504, -4(%rbp)   # imm = 0x501F19D0
	movq	%rdi, -16(%rbp)
	movq	-16(%rbp), %rdi
	movabsq	$fileMetaInfo, %rsi
	callq	stat
	movl	%eax, -8(%rbp)
	cmpl	$0, -8(%rbp)
	je	.LBB72_2
# %bb.1:                                # %if.then
	callq	ioError
.LBB72_2:                               # %if.end
	cmpl	$1344215504, -4(%rbp)   # imm = 0x501F19D0
	jne	.LBB72_4
.LBB72_3:
	addq	$16, %rsp
	popq	%rbp
	.cfi_def_cfa %rsp, 8
	retq
.LBB72_4:                               # %func_exit
	.cfi_def_cfa %rbp, 16
	callq	detect_breach
	jmp	.LBB72_3
.Lfunc_end72:
	.size	saveInputFileMetaInfo.30, .Lfunc_end72-saveInputFileMetaInfo.30
	.cfi_endproc
                                        # -- End function
	.p2align	4, 0x90         # -- Begin function uInt64_qrm10.31
	.type	uInt64_qrm10.31,@function
uInt64_qrm10.31:                        # @uInt64_qrm10.31
	.cfi_startproc
# %bb.0:                                # %entry
	pushq	%rbp
	.cfi_def_cfa_offset 16
	.cfi_offset %rbp, -16
	movq	%rsp, %rbp
	.cfi_def_cfa_register %rbp
	pushq	%rbx
	subq	$24, %rsp
	.cfi_offset %rbx, -24
	movl	$471424699, -24(%rbp)   # imm = 0x1C195EBB
	movq	%rdi, -32(%rbp)
	movl	$0, -16(%rbp)
	movl	$7, -12(%rbp)
.LBB73_1:                               # %for.cond
                                        # =>This Inner Loop Header: Depth=1
	cmpl	$0, -12(%rbp)
	jl	.LBB73_4
# %bb.2:                                # %for.body
                                        #   in Loop: Header=BB73_1 Depth=1
	movl	-16(%rbp), %eax
	shll	$8, %eax
	movq	-32(%rbp), %rcx
	movslq	-12(%rbp), %rdx
	movzbl	(%rcx,%rdx), %ecx
	addl	%ecx, %eax
	movl	%eax, -20(%rbp)
	movl	-20(%rbp), %eax
	xorl	%edx, %edx
	movl	$10, %ecx
	divl	%ecx
	movq	-32(%rbp), %rdx
	movslq	-12(%rbp), %rsi
	movb	%al, (%rdx,%rsi)
	movl	-20(%rbp), %eax
	xorl	%edx, %edx
	divl	%ecx
	movl	%edx, -16(%rbp)
# %bb.3:                                # %for.inc
                                        #   in Loop: Header=BB73_1 Depth=1
	movl	-12(%rbp), %eax
	addl	$-1, %eax
	movl	%eax, -12(%rbp)
	jmp	.LBB73_1
.LBB73_4:                               # %for.end
	movl	-16(%rbp), %ebx
	cmpl	$471424699, -24(%rbp)   # imm = 0x1C195EBB
	jne	.LBB73_6
.LBB73_5:
	movl	%ebx, %eax
	addq	$24, %rsp
	popq	%rbx
	popq	%rbp
	.cfi_def_cfa %rsp, 8
	retq
.LBB73_6:                               # %func_exit
	.cfi_def_cfa %rbp, 16
	callq	detect_breach
	jmp	.LBB73_5
.Lfunc_end73:
	.size	uInt64_qrm10.31, .Lfunc_end73-uInt64_qrm10.31
	.cfi_endproc
                                        # -- End function
	.p2align	4, 0x90         # -- Begin function compress.32
	.type	compress.32,@function
compress.32:                            # @compress.32
	.cfi_startproc
# %bb.0:                                # %entry
	pushq	%rbp
	.cfi_def_cfa_offset 16
	.cfi_offset %rbp, -16
	movq	%rsp, %rbp
	.cfi_def_cfa_register %rbp
	pushq	%r14
	pushq	%rbx
	subq	$192, %rsp
	.cfi_offset %rbx, -32
	.cfi_offset %r14, -24
	movl	$1606731937, -60(%rbp)  # imm = 0x5FC4C8A1
	movq	%rdi, -56(%rbp)
	movb	$0, deleteOutputOnInterrupt
	cmpq	$0, -56(%rbp)
	jne	.LBB74_3
# %bb.1:                                # %land.lhs.true
	cmpl	$1, srcMode
	je	.LBB74_3
# %bb.2:                                # %if.then
	movabsq	$.L.str.53, %rdi
	callq	panic
.LBB74_3:                               # %if.end
	movl	srcMode(%rip), %eax
	movl	%eax, %ecx
	subl	$1, %ecx
	je	.LBB74_6
	jmp	.LBB74_4
.LBB74_4:                               # %if.end
	movl	%eax, %ecx
	subl	$2, %ecx
	je	.LBB74_8
	jmp	.LBB74_5
.LBB74_5:                               # %if.end
	subl	$3, %eax
	je	.LBB74_7
	jmp	.LBB74_9
.LBB74_6:                               # %sw.bb
	movabsq	$inName, %rdi
	movabsq	$.L.str.54, %rsi
	callq	copyFileName
	movabsq	$outName, %rdi
	movabsq	$.L.str.55, %rsi
	callq	copyFileName
	jmp	.LBB74_9
.LBB74_7:                               # %sw.bb2
	movq	-56(%rbp), %rsi
	movabsq	$inName, %rdi
	callq	copyFileName
	movq	-56(%rbp), %rsi
	movabsq	$outName, %rdi
	callq	copyFileName
	movabsq	$outName, %rdi
	movabsq	$.L.str.30, %rsi
	callq	strcat
	jmp	.LBB74_9
.LBB74_8:                               # %sw.bb3
	movq	-56(%rbp), %rsi
	movabsq	$inName, %rdi
	callq	copyFileName
	movabsq	$outName, %rdi
	movabsq	$.L.str.55, %rsi
	callq	copyFileName
.LBB74_9:                               # %sw.epilog
	cmpl	$1, srcMode
	je	.LBB74_14
# %bb.10:                               # %land.lhs.true5
	movabsq	$inName, %rdi
	callq	containsDubiousChars
	movzbl	%al, %eax
	cmpl	$0, %eax
	je	.LBB74_14
# %bb.11:                               # %if.then7
	cmpb	$0, noisy
	je	.LBB74_13
# %bb.12:                               # %if.then9
	movq	stderr, %rdi
	movq	progName, %rdx
	movabsq	$.L.str.56, %rsi
	movabsq	$inName, %rcx
	movb	$0, %al
	callq	fprintf
.LBB74_13:                              # %if.end11
	movl	$1, %edi
	callq	setExit
	jmp	.LBB74_80
.LBB74_14:                              # %if.end12
	cmpl	$1, srcMode
	je	.LBB74_17
# %bb.15:                               # %land.lhs.true15
	movabsq	$inName, %rdi
	callq	fileExists
	cmpb	$0, %al
	jne	.LBB74_17
# %bb.16:                               # %if.then18
	movq	stderr, %rbx
	movq	progName, %r14
	callq	__errno_location
	movl	(%rax), %edi
	callq	strerror
	movq	%rbx, %rdi
	movabsq	$.L.str.57, %rsi
	movq	%r14, %rdx
	movabsq	$inName, %rcx
	movq	%rax, %r8
	movb	$0, %al
	callq	fprintf
	movl	$1, %edi
	callq	setExit
	jmp	.LBB74_80
.LBB74_17:                              # %if.end22
	movl	$0, -20(%rbp)
.LBB74_18:                              # %for.cond
                                        # =>This Inner Loop Header: Depth=1
	cmpl	$4, -20(%rbp)
	jge	.LBB74_25
# %bb.19:                               # %for.body
                                        #   in Loop: Header=BB74_18 Depth=1
	movslq	-20(%rbp), %rax
	movq	zSuffix(,%rax,8), %rsi
	movabsq	$inName, %rdi
	callq	hasSuffix
	cmpb	$0, %al
	je	.LBB74_23
# %bb.20:                               # %if.then27
	cmpb	$0, noisy
	je	.LBB74_22
# %bb.21:                               # %if.then29
	movq	stderr, %rdi
	movq	progName, %rdx
	movslq	-20(%rbp), %rax
	movq	zSuffix(,%rax,8), %r8
	movabsq	$.L.str.58, %rsi
	movabsq	$inName, %rcx
	movb	$0, %al
	callq	fprintf
.LBB74_22:                              # %if.end33
	movl	$1, %edi
	callq	setExit
	jmp	.LBB74_80
.LBB74_23:                              # %if.end34
                                        #   in Loop: Header=BB74_18 Depth=1
	jmp	.LBB74_24
.LBB74_24:                              # %for.inc
                                        #   in Loop: Header=BB74_18 Depth=1
	movl	-20(%rbp), %eax
	addl	$1, %eax
	movl	%eax, -20(%rbp)
	jmp	.LBB74_18
.LBB74_25:                              # %for.end
	cmpl	$3, srcMode
	je	.LBB74_27
# %bb.26:                               # %lor.lhs.false
	cmpl	$2, srcMode
	jne	.LBB74_30
.LBB74_27:                              # %if.then39
	movabsq	$inName, %rdi
	leaq	-208(%rbp), %rsi
	callq	stat
	movl	-184(%rbp), %eax
	andl	$61440, %eax            # imm = 0xF000
	cmpl	$16384, %eax            # imm = 0x4000
	jne	.LBB74_29
# %bb.28:                               # %if.then43
	movq	stderr, %rdi
	movq	progName, %rdx
	movabsq	$.L.str.59, %rsi
	movabsq	$inName, %rcx
	movb	$0, %al
	callq	fprintf
	movl	$1, %edi
	callq	setExit
	jmp	.LBB74_80
.LBB74_29:                              # %if.end45
	jmp	.LBB74_30
.LBB74_30:                              # %if.end46
	cmpl	$3, srcMode
	jne	.LBB74_36
# %bb.31:                               # %land.lhs.true49
	cmpb	$0, forceOverwrite
	jne	.LBB74_36
# %bb.32:                               # %land.lhs.true51
	movabsq	$inName, %rdi
	callq	notAStandardFile
	movzbl	%al, %eax
	cmpl	$0, %eax
	je	.LBB74_36
# %bb.33:                               # %if.then55
	cmpb	$0, noisy
	je	.LBB74_35
# %bb.34:                               # %if.then57
	movq	stderr, %rdi
	movq	progName, %rdx
	movabsq	$.L.str.60, %rsi
	movabsq	$inName, %rcx
	movb	$0, %al
	callq	fprintf
.LBB74_35:                              # %if.end59
	movl	$1, %edi
	callq	setExit
	jmp	.LBB74_80
.LBB74_36:                              # %if.end60
	cmpl	$3, srcMode
	jne	.LBB74_42
# %bb.37:                               # %land.lhs.true63
	movabsq	$outName, %rdi
	callq	fileExists
	movzbl	%al, %eax
	cmpl	$0, %eax
	je	.LBB74_42
# %bb.38:                               # %if.then67
	cmpb	$0, forceOverwrite
	je	.LBB74_40
# %bb.39:                               # %if.then69
	movabsq	$outName, %rdi
	callq	remove
	jmp	.LBB74_41
.LBB74_40:                              # %if.else
	movq	stderr, %rdi
	movq	progName, %rdx
	movabsq	$.L.str.61, %rsi
	movabsq	$outName, %rcx
	movb	$0, %al
	callq	fprintf
	movl	$1, %edi
	callq	setExit
	jmp	.LBB74_80
.LBB74_41:                              # %if.end72
	jmp	.LBB74_42
.LBB74_42:                              # %if.end73
	cmpl	$3, srcMode
	jne	.LBB74_46
# %bb.43:                               # %land.lhs.true76
	cmpb	$0, forceOverwrite
	jne	.LBB74_46
# %bb.44:                               # %land.lhs.true78
	movabsq	$inName, %rdi
	callq	countHardLinks
	movl	%eax, -44(%rbp)
	cmpl	$0, %eax
	jle	.LBB74_46
# %bb.45:                               # %if.then82
	movq	stderr, %rdi
	movq	progName, %rdx
	movl	-44(%rbp), %r8d
	movl	-44(%rbp), %eax
	cmpl	$1, %eax
	movabsq	$.L.str.63, %rax
	movabsq	$.L.str.34, %r9
	cmovgq	%rax, %r9
	movabsq	$.L.str.62, %rsi
	movabsq	$inName, %rcx
	movb	$0, %al
	callq	fprintf
	movl	$1, %edi
	callq	setExit
	jmp	.LBB74_80
.LBB74_46:                              # %if.end86
	cmpl	$3, srcMode
	jne	.LBB74_48
# %bb.47:                               # %if.then89
	movabsq	$inName, %rdi
	callq	saveInputFileMetaInfo
.LBB74_48:                              # %if.end90
	movl	srcMode(%rip), %eax
	movl	%eax, %ecx
	subl	$1, %ecx
	je	.LBB74_51
	jmp	.LBB74_49
.LBB74_49:                              # %if.end90
	movl	%eax, %ecx
	subl	$2, %ecx
	je	.LBB74_54
	jmp	.LBB74_50
.LBB74_50:                              # %if.end90
	subl	$3, %eax
	je	.LBB74_61
	jmp	.LBB74_70
.LBB74_51:                              # %sw.bb91
	movq	stdin, %rax
	movq	%rax, -32(%rbp)
	movq	stdout, %rax
	movq	%rax, -40(%rbp)
	movq	stdout, %rdi
	callq	fileno
	movl	%eax, %edi
	callq	isatty
	cmpl	$0, %eax
	je	.LBB74_53
# %bb.52:                               # %if.then95
	movq	stderr, %rdi
	movq	progName, %rdx
	movabsq	$.L.str.64, %rsi
	movb	$0, %al
	callq	fprintf
	movq	stderr, %rdi
	movq	progName, %rdx
	movq	progName, %rcx
	movabsq	$.L.str.65, %rsi
	movb	$0, %al
	callq	fprintf
	movl	$1, %edi
	callq	setExit
	jmp	.LBB74_80
.LBB74_53:                              # %if.end98
	jmp	.LBB74_71
.LBB74_54:                              # %sw.bb99
	movabsq	$inName, %rdi
	movabsq	$.L.str.66, %rsi
	callq	fopen
	movq	%rax, -32(%rbp)
	movq	stdout, %rax
	movq	%rax, -40(%rbp)
	movq	stdout, %rdi
	callq	fileno
	movl	%eax, %edi
	callq	isatty
	cmpl	$0, %eax
	je	.LBB74_58
# %bb.55:                               # %if.then104
	movq	stderr, %rdi
	movq	progName, %rdx
	movabsq	$.L.str.64, %rsi
	movb	$0, %al
	callq	fprintf
	movq	stderr, %rdi
	movq	progName, %rdx
	movq	progName, %rcx
	movabsq	$.L.str.65, %rsi
	movb	$0, %al
	callq	fprintf
	cmpq	$0, -32(%rbp)
	je	.LBB74_57
# %bb.56:                               # %if.then109
	movq	-32(%rbp), %rdi
	callq	fclose
.LBB74_57:                              # %if.end111
	movl	$1, %edi
	callq	setExit
	jmp	.LBB74_80
.LBB74_58:                              # %if.end112
	cmpq	$0, -32(%rbp)
	jne	.LBB74_60
# %bb.59:                               # %if.then115
	movq	stderr, %rbx
	movq	progName, %r14
	callq	__errno_location
	movl	(%rax), %edi
	callq	strerror
	movq	%rbx, %rdi
	movabsq	$.L.str.57, %rsi
	movq	%r14, %rdx
	movabsq	$inName, %rcx
	movq	%rax, %r8
	movb	$0, %al
	callq	fprintf
	movl	$1, %edi
	callq	setExit
	jmp	.LBB74_80
.LBB74_60:                              # %if.end119
	jmp	.LBB74_71
.LBB74_61:                              # %sw.bb120
	movabsq	$inName, %rdi
	movabsq	$.L.str.66, %rsi
	callq	fopen
	movq	%rax, -32(%rbp)
	movabsq	$outName, %rdi
	movabsq	$.L.str.67, %rsi
	callq	fopen_output_safely
	movq	%rax, -40(%rbp)
	cmpq	$0, -40(%rbp)
	jne	.LBB74_65
# %bb.62:                               # %if.then125
	movq	stderr, %rbx
	movq	progName, %r14
	callq	__errno_location
	movl	(%rax), %edi
	callq	strerror
	movq	%rbx, %rdi
	movabsq	$.L.str.68, %rsi
	movq	%r14, %rdx
	movabsq	$outName, %rcx
	movq	%rax, %r8
	movb	$0, %al
	callq	fprintf
	cmpq	$0, -32(%rbp)
	je	.LBB74_64
# %bb.63:                               # %if.then131
	movq	-32(%rbp), %rdi
	callq	fclose
.LBB74_64:                              # %if.end133
	movl	$1, %edi
	callq	setExit
	jmp	.LBB74_80
.LBB74_65:                              # %if.end134
	cmpq	$0, -32(%rbp)
	jne	.LBB74_69
# %bb.66:                               # %if.then137
	movq	stderr, %rbx
	movq	progName, %r14
	callq	__errno_location
	movl	(%rax), %edi
	callq	strerror
	movq	%rbx, %rdi
	movabsq	$.L.str.57, %rsi
	movq	%r14, %rdx
	movabsq	$inName, %rcx
	movq	%rax, %r8
	movb	$0, %al
	callq	fprintf
	cmpq	$0, -40(%rbp)
	je	.LBB74_68
# %bb.67:                               # %if.then143
	movq	-40(%rbp), %rdi
	callq	fclose
.LBB74_68:                              # %if.end145
	movl	$1, %edi
	callq	setExit
	jmp	.LBB74_80
.LBB74_69:                              # %if.end146
	jmp	.LBB74_71
.LBB74_70:                              # %sw.default
	movabsq	$.L.str.69, %rdi
	callq	panic
.LBB74_71:                              # %sw.epilog147
	cmpl	$1, verbosity
	jl	.LBB74_73
# %bb.72:                               # %if.then150
	movq	stderr, %rdi
	movabsq	$.L.str.70, %rsi
	movabsq	$inName, %rdx
	movb	$0, %al
	callq	fprintf
	movabsq	$inName, %rdi
	callq	pad
	movq	stderr, %rdi
	callq	fflush
.LBB74_73:                              # %if.end153
	movq	-40(%rbp), %rax
	movq	%rax, outputHandleJustInCase
	movb	$1, deleteOutputOnInterrupt
	movq	-32(%rbp), %rdi
	movq	-40(%rbp), %rsi
	callq	compressStream
	movq	$0, outputHandleJustInCase
	cmpl	$3, srcMode
	jne	.LBB74_79
# %bb.74:                               # %if.then156
	movabsq	$outName, %rdi
	callq	applySavedMetaInfoToOutputFile
	movb	$0, deleteOutputOnInterrupt
	cmpb	$0, keepInputFiles
	jne	.LBB74_78
# %bb.75:                               # %if.then158
	movabsq	$inName, %rdi
	callq	remove
	movl	%eax, -64(%rbp)
	cmpl	$0, -64(%rbp)
	je	.LBB74_77
# %bb.76:                               # %if.then162
	callq	ioError
.LBB74_77:                              # %if.end163
	jmp	.LBB74_78
.LBB74_78:                              # %if.end164
	jmp	.LBB74_79
.LBB74_79:                              # %if.end165
	movb	$0, deleteOutputOnInterrupt
.LBB74_80:                              # %return
	cmpl	$1606731937, -60(%rbp)  # imm = 0x5FC4C8A1
	jne	.LBB74_82
.LBB74_81:
	addq	$192, %rsp
	popq	%rbx
	popq	%r14
	popq	%rbp
	.cfi_def_cfa %rsp, 8
	retq
.LBB74_82:                              # %func_exit
	.cfi_def_cfa %rbp, 16
	callq	detect_breach
	jmp	.LBB74_81
.Lfunc_end74:
	.size	compress.32, .Lfunc_end74-compress.32
	.cfi_endproc
                                        # -- End function
	.section	.rodata.cst8,"aM",@progbits,8
	.p2align	3               # -- Begin function uInt64_to_double.33
.LCPI75_0:
	.quad	4607182418800017408     # double 1
.LCPI75_1:
	.quad	4643211215818981376     # double 256
	.text
	.p2align	4, 0x90
	.type	uInt64_to_double.33,@function
uInt64_to_double.33:                    # @uInt64_to_double.33
	.cfi_startproc
# %bb.0:                                # %entry
	pushq	%rbp
	.cfi_def_cfa_offset 16
	.cfi_offset %rbp, -16
	movq	%rsp, %rbp
	.cfi_def_cfa_register %rbp
	subq	$48, %rsp
	vmovsd	.LCPI75_0(%rip), %xmm0  # xmm0 = mem[0],zero
	movl	$1451888366, -28(%rbp)  # imm = 0x568A0EEE
	movq	%rdi, -48(%rbp)
	vmovsd	%xmm0, -16(%rbp)
	vxorps	%xmm0, %xmm0, %xmm0
	vmovsd	%xmm0, -24(%rbp)
	movl	$0, -4(%rbp)
.LBB75_1:                               # %for.cond
                                        # =>This Inner Loop Header: Depth=1
	cmpl	$8, -4(%rbp)
	jge	.LBB75_4
# %bb.2:                                # %for.body
                                        #   in Loop: Header=BB75_1 Depth=1
	vmovsd	.LCPI75_1(%rip), %xmm0  # xmm0 = mem[0],zero
	vmovsd	-16(%rbp), %xmm1        # xmm1 = mem[0],zero
	movq	-48(%rbp), %rax
	movslq	-4(%rbp), %rcx
	movzbl	(%rax,%rcx), %eax
	vcvtsi2sd	%eax, %xmm0, %xmm2
	vmulsd	%xmm2, %xmm1, %xmm1
	vaddsd	-24(%rbp), %xmm1, %xmm1
	vmovsd	%xmm1, -24(%rbp)
	vmulsd	-16(%rbp), %xmm0, %xmm0
	vmovsd	%xmm0, -16(%rbp)
# %bb.3:                                # %for.inc
                                        #   in Loop: Header=BB75_1 Depth=1
	movl	-4(%rbp), %eax
	addl	$1, %eax
	movl	%eax, -4(%rbp)
	jmp	.LBB75_1
.LBB75_4:                               # %for.end
	vmovsd	-24(%rbp), %xmm0        # xmm0 = mem[0],zero
	cmpl	$1451888366, -28(%rbp)  # imm = 0x568A0EEE
	jne	.LBB75_6
.LBB75_5:
	addq	$48, %rsp
	popq	%rbp
	.cfi_def_cfa %rsp, 8
	retq
.LBB75_6:                               # %func_exit
	.cfi_def_cfa %rbp, 16
	vmovsd	%xmm0, -40(%rbp)        # 8-byte Spill
	callq	detect_breach
	vmovsd	-40(%rbp), %xmm0        # 8-byte Reload
                                        # xmm0 = mem[0],zero
	jmp	.LBB75_5
.Lfunc_end75:
	.size	uInt64_to_double.33, .Lfunc_end75-uInt64_to_double.33
	.cfi_endproc
                                        # -- End function
	.p2align	4, 0x90         # -- Begin function uInt64_from_UInt32s.34
	.type	uInt64_from_UInt32s.34,@function
uInt64_from_UInt32s.34:                 # @uInt64_from_UInt32s.34
	.cfi_startproc
# %bb.0:                                # %entry
	pushq	%rbp
	.cfi_def_cfa_offset 16
	.cfi_offset %rbp, -16
	movq	%rsp, %rbp
	.cfi_def_cfa_register %rbp
	subq	$32, %rsp
	movl	$457356108, -20(%rbp)   # imm = 0x1B42B34C
	movq	%rdi, -16(%rbp)
	movl	%esi, -4(%rbp)
	movl	%edx, -8(%rbp)
	movl	-8(%rbp), %eax
	shrl	$24, %eax
	andl	$255, %eax
	movq	-16(%rbp), %rcx
	movb	%al, 7(%rcx)
	movl	-8(%rbp), %eax
	shrl	$16, %eax
	andl	$255, %eax
	movq	-16(%rbp), %rcx
	movb	%al, 6(%rcx)
	movl	-8(%rbp), %eax
	shrl	$8, %eax
	andl	$255, %eax
	movq	-16(%rbp), %rcx
	movb	%al, 5(%rcx)
	movl	-8(%rbp), %eax
	andl	$255, %eax
	movq	-16(%rbp), %rcx
	movb	%al, 4(%rcx)
	movl	-4(%rbp), %eax
	shrl	$24, %eax
	andl	$255, %eax
	movq	-16(%rbp), %rcx
	movb	%al, 3(%rcx)
	movl	-4(%rbp), %eax
	shrl	$16, %eax
	andl	$255, %eax
	movq	-16(%rbp), %rcx
	movb	%al, 2(%rcx)
	movl	-4(%rbp), %eax
	shrl	$8, %eax
	andl	$255, %eax
	movq	-16(%rbp), %rcx
	movb	%al, 1(%rcx)
	movl	-4(%rbp), %eax
	andl	$255, %eax
	movq	-16(%rbp), %rcx
	movb	%al, (%rcx)
	cmpl	$457356108, -20(%rbp)   # imm = 0x1B42B34C
	jne	.LBB76_2
.LBB76_1:
	addq	$32, %rsp
	popq	%rbp
	.cfi_def_cfa %rsp, 8
	retq
.LBB76_2:                               # %func_exit
	.cfi_def_cfa %rbp, 16
	callq	detect_breach
	jmp	.LBB76_1
.Lfunc_end76:
	.size	uInt64_from_UInt32s.34, .Lfunc_end76-uInt64_from_UInt32s.34
	.cfi_endproc
                                        # -- End function
	.p2align	4, 0x90         # -- Begin function copyFileName.35
	.type	copyFileName.35,@function
copyFileName.35:                        # @copyFileName.35
	.cfi_startproc
# %bb.0:                                # %entry
	pushq	%rbp
	.cfi_def_cfa_offset 16
	.cfi_offset %rbp, -16
	movq	%rsp, %rbp
	.cfi_def_cfa_register %rbp
	subq	$32, %rsp
	movl	$1303947772, -12(%rbp)  # imm = 0x4DB8A9FC
	movq	%rdi, -24(%rbp)
	movq	%rsi, -8(%rbp)
	movq	-8(%rbp), %rdi
	callq	strlen
	cmpq	$1024, %rax             # imm = 0x400
	jbe	.LBB77_2
# %bb.1:                                # %if.then
	movq	stderr, %rdi
	movq	-8(%rbp), %rdx
	movabsq	$.L.str.47, %rsi
	movl	$1024, %ecx             # imm = 0x400
	movb	$0, %al
	callq	fprintf
	movl	$1, %edi
	callq	setExit
	movl	exitValue, %edi
	callq	exit
.LBB77_2:                               # %if.end
	movq	-24(%rbp), %rdi
	movq	-8(%rbp), %rsi
	movl	$1024, %edx             # imm = 0x400
	callq	strncpy
	movq	-24(%rbp), %rax
	movb	$0, 1024(%rax)
	cmpl	$1303947772, -12(%rbp)  # imm = 0x4DB8A9FC
	jne	.LBB77_4
.LBB77_3:
	addq	$32, %rsp
	popq	%rbp
	.cfi_def_cfa %rsp, 8
	retq
.LBB77_4:                               # %func_exit
	.cfi_def_cfa %rbp, 16
	callq	detect_breach
	jmp	.LBB77_3
.Lfunc_end77:
	.size	copyFileName.35, .Lfunc_end77-copyFileName.35
	.cfi_endproc
                                        # -- End function
	.p2align	4, 0x90         # -- Begin function uInt64_from_UInt32s.36
	.type	uInt64_from_UInt32s.36,@function
uInt64_from_UInt32s.36:                 # @uInt64_from_UInt32s.36
	.cfi_startproc
# %bb.0:                                # %entry
	pushq	%rbp
	.cfi_def_cfa_offset 16
	.cfi_offset %rbp, -16
	movq	%rsp, %rbp
	.cfi_def_cfa_register %rbp
	subq	$32, %rsp
	movl	$684464344, -20(%rbp)   # imm = 0x28CC18D8
	movq	%rdi, -16(%rbp)
	movl	%esi, -8(%rbp)
	movl	%edx, -4(%rbp)
	movl	-4(%rbp), %eax
	shrl	$24, %eax
	andl	$255, %eax
	movq	-16(%rbp), %rcx
	movb	%al, 7(%rcx)
	movl	-4(%rbp), %eax
	shrl	$16, %eax
	andl	$255, %eax
	movq	-16(%rbp), %rcx
	movb	%al, 6(%rcx)
	movl	-4(%rbp), %eax
	shrl	$8, %eax
	andl	$255, %eax
	movq	-16(%rbp), %rcx
	movb	%al, 5(%rcx)
	movl	-4(%rbp), %eax
	andl	$255, %eax
	movq	-16(%rbp), %rcx
	movb	%al, 4(%rcx)
	movl	-8(%rbp), %eax
	shrl	$24, %eax
	andl	$255, %eax
	movq	-16(%rbp), %rcx
	movb	%al, 3(%rcx)
	movl	-8(%rbp), %eax
	shrl	$16, %eax
	andl	$255, %eax
	movq	-16(%rbp), %rcx
	movb	%al, 2(%rcx)
	movl	-8(%rbp), %eax
	shrl	$8, %eax
	andl	$255, %eax
	movq	-16(%rbp), %rcx
	movb	%al, 1(%rcx)
	movl	-8(%rbp), %eax
	andl	$255, %eax
	movq	-16(%rbp), %rcx
	movb	%al, (%rcx)
	cmpl	$684464344, -20(%rbp)   # imm = 0x28CC18D8
	jne	.LBB78_2
.LBB78_1:
	addq	$32, %rsp
	popq	%rbp
	.cfi_def_cfa %rsp, 8
	retq
.LBB78_2:                               # %func_exit
	.cfi_def_cfa %rbp, 16
	callq	detect_breach
	jmp	.LBB78_1
.Lfunc_end78:
	.size	uInt64_from_UInt32s.36, .Lfunc_end78-uInt64_from_UInt32s.36
	.cfi_endproc
                                        # -- End function
	.p2align	4, 0x90         # -- Begin function countHardLinks.37
	.type	countHardLinks.37,@function
countHardLinks.37:                      # @countHardLinks.37
	.cfi_startproc
# %bb.0:                                # %entry
	pushq	%rbp
	.cfi_def_cfa_offset 16
	.cfi_offset %rbp, -16
	movq	%rsp, %rbp
	.cfi_def_cfa_register %rbp
	pushq	%rbx
	subq	$168, %rsp
	.cfi_offset %rbx, -24
	movl	$175443215, -16(%rbp)   # imm = 0xA750D0F
	movq	%rdi, -32(%rbp)
	movq	-32(%rbp), %rdi
	leaq	-176(%rbp), %rsi
	callq	lstat
	movl	%eax, -20(%rbp)
	cmpl	$0, -20(%rbp)
	je	.LBB79_2
# %bb.1:                                # %if.then
	movl	$0, -12(%rbp)
	jmp	.LBB79_3
.LBB79_2:                               # %if.end
	movq	-160(%rbp), %rax
	subq	$1, %rax
	movl	%eax, -12(%rbp)
.LBB79_3:                               # %return
	movl	-12(%rbp), %ebx
