	.text
	.file	"bzip2.c"
	.globl	fopen_output_safely     # -- Begin function fopen_output_safely
	.p2align	4, 0x90
	.type	fopen_output_safely,@function
fopen_output_safely:                    # @fopen_output_safely
	.cfi_startproc
# %bb.0:                                # %rand_bb
	pushq	%rbp
	.cfi_def_cfa_offset 16
	.cfi_offset %rbp, -16
	movq	%rsp, %rbp
	.cfi_def_cfa_register %rbp
	pushq	%r14
	pushq	%rbx
	.cfi_offset %rbx, -32
	.cfi_offset %r14, -24
	movq	%rsi, %r14
	movq	%rdi, %rbx
	callq	get_urand
	cmpl	$0, %eax
	jne	.LBB0_9
# %bb.1:                                # %func_fopen_output_safely.29
	movq	%rbx, %rdi
	movq	%r14, %rsi
	callq	fopen_output_safely.29
	popq	%rbx
	popq	%r14
	popq	%rbp
	.cfi_def_cfa %rsp, 8
	retq
.LBB0_2:                                # %func_fopen_output_safely.60
	.cfi_def_cfa %rbp, 16
	movq	%rbx, %rdi
	movq	%r14, %rsi
	callq	fopen_output_safely.60
	popq	%rbx
	popq	%r14
	popq	%rbp
	.cfi_def_cfa %rsp, 8
	retq
.LBB0_3:                                # %func_fopen_output_safely.118
	.cfi_def_cfa %rbp, 16
	movq	%rbx, %rdi
	movq	%r14, %rsi
	callq	fopen_output_safely.118
	popq	%rbx
	popq	%r14
	popq	%rbp
	.cfi_def_cfa %rsp, 8
	retq
.LBB0_4:                                # %func_fopen_output_safely.121
	.cfi_def_cfa %rbp, 16
	movq	%rbx, %rdi
	movq	%r14, %rsi
	callq	fopen_output_safely.121
	popq	%rbx
	popq	%r14
	popq	%rbp
	.cfi_def_cfa %rsp, 8
	retq
.LBB0_5:                                # %func_fopen_output_safely.126
	.cfi_def_cfa %rbp, 16
	movq	%rbx, %rdi
	movq	%r14, %rsi
	callq	fopen_output_safely.126
	popq	%rbx
	popq	%r14
	popq	%rbp
	.cfi_def_cfa %rsp, 8
	retq
.LBB0_6:                                # %func_fopen_output_safely.158
	.cfi_def_cfa %rbp, 16
	movq	%rbx, %rdi
	movq	%r14, %rsi
	callq	fopen_output_safely.158
	popq	%rbx
	popq	%r14
	popq	%rbp
	.cfi_def_cfa %rsp, 8
	retq
.LBB0_7:                                # %func_fopen_output_safely.162
	.cfi_def_cfa %rbp, 16
	movq	%rbx, %rdi
	movq	%r14, %rsi
	callq	fopen_output_safely.162
	popq	%rbx
	popq	%r14
	popq	%rbp
	.cfi_def_cfa %rsp, 8
	retq
.LBB0_8:                                # %func_fopen_output_safely.169
	.cfi_def_cfa %rbp, 16
	movq	%rbx, %rdi
	movq	%r14, %rsi
	callq	fopen_output_safely.169
	popq	%rbx
	popq	%r14
	popq	%rbp
	.cfi_def_cfa %rsp, 8
	retq
.LBB0_9:                                # %ctrl0
	.cfi_def_cfa %rbp, 16
	cmpl	$1, %eax
	je	.LBB0_2
# %bb.10:                               # %ctrl1
	cmpl	$2, %eax
	je	.LBB0_3
# %bb.11:                               # %ctrl2
	cmpl	$3, %eax
	je	.LBB0_4
# %bb.12:                               # %ctrl3
	cmpl	$4, %eax
	je	.LBB0_5
# %bb.13:                               # %ctrl4
	cmpl	$5, %eax
	je	.LBB0_6
# %bb.14:                               # %ctrl5
	cmpl	$6, %eax
	je	.LBB0_7
	jmp	.LBB0_8
.Lfunc_end0:
	.size	fopen_output_safely, .Lfunc_end0-fopen_output_safely
	.cfi_endproc
                                        # -- End function
	.globl	main                    # -- Begin function main
	.p2align	4, 0x90
	.type	main,@function
main:                                   # @main
	.cfi_startproc
# %bb.0:                                # %entry
	pushq	%rbp
	.cfi_def_cfa_offset 16
	.cfi_offset %rbp, -16
	movq	%rsp, %rbp
	.cfi_def_cfa_register %rbp
	pushq	%rbx
	subq	$72, %rsp
	.cfi_offset %rbx, -24
	movl	$0, -76(%rbp)
	movl	%edi, -52(%rbp)
	movq	%rsi, -64(%rbp)
	movq	$0, outputHandleJustInCase
	movb	$0, smallMode
	movb	$0, keepInputFiles
	movb	$0, forceOverwrite
	movb	$1, noisy
	movl	$0, verbosity
	movl	$9, blockSize100k
	movb	$0, testFailsExist
	movb	$0, unzFailsExist
	movl	$0, numFileNames
	movl	$0, numFilesProcessed
	movl	$30, workFactor
	movb	$0, deleteOutputOnInterrupt
	movl	$0, exitValue
	movl	$0, -36(%rbp)
	movl	$0, -40(%rbp)
	movl	$11, %edi
	movabsq	$mySIGSEGVorSIGBUScatcher, %rsi
	callq	signal
	movl	$7, %edi
	movabsq	$mySIGSEGVorSIGBUScatcher, %rsi
	callq	signal
	movabsq	$inName, %rdi
	movabsq	$.L.str, %rsi
	callq	copyFileName
	movabsq	$outName, %rdi
	movabsq	$.L.str, %rsi
	callq	copyFileName
	movq	-64(%rbp), %rax
	movq	(%rax), %rsi
	movabsq	$progNameReally, %rdi
	callq	copyFileName
	movabsq	$progNameReally, %rax
	movq	%rax, progName
	movq	%rax, -48(%rbp)
.LBB1_1:                                # %for.cond
                                        # =>This Inner Loop Header: Depth=1
	movq	-48(%rbp), %rax
	movsbl	(%rax), %eax
	cmpl	$0, %eax
	je	.LBB1_6
# %bb.2:                                # %for.body
                                        #   in Loop: Header=BB1_1 Depth=1
	movq	-48(%rbp), %rax
	movsbl	(%rax), %eax
	cmpl	$47, %eax
	jne	.LBB1_4
# %bb.3:                                # %if.then
                                        #   in Loop: Header=BB1_1 Depth=1
	movq	-48(%rbp), %rax
	addq	$1, %rax
	movq	%rax, progName
.LBB1_4:                                # %if.end
                                        #   in Loop: Header=BB1_1 Depth=1
	jmp	.LBB1_5
.LBB1_5:                                # %for.inc
                                        #   in Loop: Header=BB1_1 Depth=1
	movq	-48(%rbp), %rax
	addq	$1, %rax
	movq	%rax, -48(%rbp)
	jmp	.LBB1_1
.LBB1_6:                                # %for.end
	movq	$0, -32(%rbp)
	leaq	-32(%rbp), %rdi
	movabsq	$.L.str.1, %rsi
	callq	addFlagsFromEnvVar
	leaq	-32(%rbp), %rdi
	movabsq	$.L.str.2, %rsi
	callq	addFlagsFromEnvVar
	movl	$1, -40(%rbp)
.LBB1_7:                                # %for.cond6
                                        # =>This Inner Loop Header: Depth=1
	movl	-40(%rbp), %eax
	movl	-52(%rbp), %ecx
	subl	$1, %ecx
	cmpl	%ecx, %eax
	jg	.LBB1_10
# %bb.8:                                # %for.body9
                                        #   in Loop: Header=BB1_7 Depth=1
	movq	-32(%rbp), %rdi
	movq	-64(%rbp), %rax
	movslq	-40(%rbp), %rcx
	movq	(%rax,%rcx,8), %rsi
	callq	snocString
	movq	%rax, -32(%rbp)
# %bb.9:                                # %for.inc12
                                        #   in Loop: Header=BB1_7 Depth=1
	movl	-40(%rbp), %eax
	addl	$1, %eax
	movl	%eax, -40(%rbp)
	jmp	.LBB1_7
.LBB1_10:                               # %for.end13
	movl	$7, longestFileName
	movl	$0, numFileNames
	movb	$1, -9(%rbp)
	movq	-32(%rbp), %rax
	movq	%rax, -24(%rbp)
.LBB1_11:                               # %for.cond14
                                        # =>This Inner Loop Header: Depth=1
	cmpq	$0, -24(%rbp)
	je	.LBB1_21
# %bb.12:                               # %for.body17
                                        #   in Loop: Header=BB1_11 Depth=1
	movq	-24(%rbp), %rax
	movq	(%rax), %rdi
	movl	$.L.str.3, %esi
	callq	strcmp
	cmpl	$0, %eax
	jne	.LBB1_14
# %bb.13:                               # %if.then21
                                        #   in Loop: Header=BB1_11 Depth=1
	movb	$0, -9(%rbp)
	jmp	.LBB1_20
.LBB1_14:                               # %if.end22
                                        #   in Loop: Header=BB1_11 Depth=1
	movq	-24(%rbp), %rax
	movq	(%rax), %rax
	movsbl	(%rax), %eax
	cmpl	$45, %eax
	jne	.LBB1_17
# %bb.15:                               # %land.lhs.true
                                        #   in Loop: Header=BB1_11 Depth=1
	movzbl	-9(%rbp), %eax
	cmpl	$0, %eax
	je	.LBB1_17
# %bb.16:                               # %if.then29
                                        #   in Loop: Header=BB1_11 Depth=1
	jmp	.LBB1_20
.LBB1_17:                               # %if.end30
                                        #   in Loop: Header=BB1_11 Depth=1
	movl	numFileNames, %eax
	addl	$1, %eax
	movl	%eax, numFileNames
	movl	longestFileName, %ebx
	movq	-24(%rbp), %rax
	movq	(%rax), %rdi
	callq	strlen
	cmpl	%eax, %ebx
	jge	.LBB1_19
# %bb.18:                               # %if.then37
                                        #   in Loop: Header=BB1_11 Depth=1
	movq	-24(%rbp), %rax
	movq	(%rax), %rdi
	callq	strlen
	movl	%eax, longestFileName
.LBB1_19:                               # %if.end41
                                        #   in Loop: Header=BB1_11 Depth=1
	jmp	.LBB1_20
.LBB1_20:                               # %for.inc42
                                        #   in Loop: Header=BB1_11 Depth=1
	movq	-24(%rbp), %rax
	movq	8(%rax), %rax
	movq	%rax, -24(%rbp)
	jmp	.LBB1_11
.LBB1_21:                               # %for.end43
	cmpl	$0, numFileNames
	jne	.LBB1_23
# %bb.22:                               # %if.then46
	movl	$1, srcMode
	jmp	.LBB1_24
.LBB1_23:                               # %if.else
	movl	$3, srcMode
.LBB1_24:                               # %if.end47
	movl	$1, opMode
	movq	progName, %rdi
	movabsq	$.L.str.4, %rsi
	callq	strstr
	cmpq	$0, %rax
	jne	.LBB1_26
# %bb.25:                               # %lor.lhs.false
	movq	progName, %rdi
	movabsq	$.L.str.5, %rsi
	callq	strstr
	cmpq	$0, %rax
	je	.LBB1_27
.LBB1_26:                               # %if.then54
	movl	$2, opMode
.LBB1_27:                               # %if.end55
	movq	progName, %rdi
	movabsq	$.L.str.6, %rsi
	callq	strstr
	cmpq	$0, %rax
	jne	.LBB1_31
# %bb.28:                               # %lor.lhs.false59
	movq	progName, %rdi
	movabsq	$.L.str.7, %rsi
	callq	strstr
	cmpq	$0, %rax
	jne	.LBB1_31
# %bb.29:                               # %lor.lhs.false63
	movq	progName, %rdi
	movabsq	$.L.str.8, %rsi
	callq	strstr
	cmpq	$0, %rax
	jne	.LBB1_31
# %bb.30:                               # %lor.lhs.false67
	movq	progName, %rdi
	movabsq	$.L.str.9, %rsi
	callq	strstr
	cmpq	$0, %rax
	je	.LBB1_32
.LBB1_31:                               # %if.then71
	movl	$2, opMode
	movl	numFileNames, %eax
	cmpl	$0, %eax
	movl	$1, %eax
	movl	$2, %ecx
	cmovel	%eax, %ecx
	movl	%ecx, srcMode
.LBB1_32:                               # %if.end74
	movq	-32(%rbp), %rax
	movq	%rax, -24(%rbp)
.LBB1_33:                               # %for.cond75
                                        # =>This Loop Header: Depth=1
                                        #     Child Loop BB1_39 Depth 2
	cmpq	$0, -24(%rbp)
	je	.LBB1_68
# %bb.34:                               # %for.body78
                                        #   in Loop: Header=BB1_33 Depth=1
	movq	-24(%rbp), %rax
	movq	(%rax), %rdi
	movl	$.L.str.3, %esi
	callq	strcmp
	cmpl	$0, %eax
	jne	.LBB1_36
# %bb.35:                               # %if.then83
	jmp	.LBB1_69
.LBB1_36:                               # %if.end84
                                        #   in Loop: Header=BB1_33 Depth=1
	movq	-24(%rbp), %rax
	movq	(%rax), %rax
	movsbl	(%rax), %eax
	cmpl	$45, %eax
	jne	.LBB1_66
# %bb.37:                               # %land.lhs.true90
                                        #   in Loop: Header=BB1_33 Depth=1
	movq	-24(%rbp), %rax
	movq	(%rax), %rax
	movsbl	1(%rax), %eax
	cmpl	$45, %eax
	je	.LBB1_66
# %bb.38:                               # %if.then96
                                        #   in Loop: Header=BB1_33 Depth=1
	movl	$1, -36(%rbp)
.LBB1_39:                               # %for.cond97
                                        #   Parent Loop BB1_33 Depth=1
                                        # =>  This Inner Loop Header: Depth=2
	movq	-24(%rbp), %rax
	movq	(%rax), %rax
	movslq	-36(%rbp), %rcx
	movsbl	(%rax,%rcx), %eax
	cmpl	$0, %eax
	je	.LBB1_65
# %bb.40:                               # %for.body104
                                        #   in Loop: Header=BB1_39 Depth=2
	movq	-24(%rbp), %rax
	movq	(%rax), %rax
	movslq	-36(%rbp), %rcx
	movsbl	(%rax,%rcx), %eax
	addl	$-49, %eax
	movl	%eax, %ecx
	subl	$73, %ecx
	ja	.LBB1_62
# %bb.41:                               # %for.body104
                                        #   in Loop: Header=BB1_39 Depth=2
	movq	.LJTI1_0(,%rax,8), %rax
	jmpq	*%rax
.LBB1_42:                               # %sw.bb
                                        #   in Loop: Header=BB1_39 Depth=2
	movl	$2, srcMode
	jmp	.LBB1_63
.LBB1_43:                               # %sw.bb109
                                        #   in Loop: Header=BB1_39 Depth=2
	movl	$2, opMode
	jmp	.LBB1_63
.LBB1_44:                               # %sw.bb110
                                        #   in Loop: Header=BB1_39 Depth=2
	movl	$1, opMode
	jmp	.LBB1_63
.LBB1_45:                               # %sw.bb111
                                        #   in Loop: Header=BB1_39 Depth=2
	movb	$1, forceOverwrite
	jmp	.LBB1_63
.LBB1_46:                               # %sw.bb112
                                        #   in Loop: Header=BB1_39 Depth=2
	movl	$3, opMode
	jmp	.LBB1_63
.LBB1_47:                               # %sw.bb113
                                        #   in Loop: Header=BB1_39 Depth=2
	movb	$1, keepInputFiles
	jmp	.LBB1_63
.LBB1_48:                               # %sw.bb114
                                        #   in Loop: Header=BB1_39 Depth=2
	movb	$1, smallMode
	jmp	.LBB1_63
.LBB1_49:                               # %sw.bb115
                                        #   in Loop: Header=BB1_39 Depth=2
	movb	$0, noisy
	jmp	.LBB1_63
.LBB1_50:                               # %sw.bb116
                                        #   in Loop: Header=BB1_39 Depth=2
	movl	$1, blockSize100k
	jmp	.LBB1_63
.LBB1_51:                               # %sw.bb117
                                        #   in Loop: Header=BB1_39 Depth=2
	movl	$2, blockSize100k
	jmp	.LBB1_63
.LBB1_52:                               # %sw.bb118
                                        #   in Loop: Header=BB1_39 Depth=2
	movl	$3, blockSize100k
	jmp	.LBB1_63
.LBB1_53:                               # %sw.bb119
                                        #   in Loop: Header=BB1_39 Depth=2
	movl	$4, blockSize100k
	jmp	.LBB1_63
.LBB1_54:                               # %sw.bb120
                                        #   in Loop: Header=BB1_39 Depth=2
	movl	$5, blockSize100k
	jmp	.LBB1_63
.LBB1_55:                               # %sw.bb121
                                        #   in Loop: Header=BB1_39 Depth=2
	movl	$6, blockSize100k
	jmp	.LBB1_63
.LBB1_56:                               # %sw.bb122
                                        #   in Loop: Header=BB1_39 Depth=2
	movl	$7, blockSize100k
	jmp	.LBB1_63
.LBB1_57:                               # %sw.bb123
                                        #   in Loop: Header=BB1_39 Depth=2
	movl	$8, blockSize100k
	jmp	.LBB1_63
.LBB1_58:                               # %sw.bb124
                                        #   in Loop: Header=BB1_39 Depth=2
	movl	$9, blockSize100k
	jmp	.LBB1_63
.LBB1_59:                               # %sw.bb125
                                        #   in Loop: Header=BB1_39 Depth=2
	callq	license
	jmp	.LBB1_63
.LBB1_60:                               # %sw.bb126
                                        #   in Loop: Header=BB1_39 Depth=2
	movl	verbosity, %eax
	addl	$1, %eax
	movl	%eax, verbosity
	jmp	.LBB1_63
.LBB1_61:                               # %sw.bb128
	movq	progName, %rdi
	callq	usage
	xorl	%edi, %edi
	callq	exit
.LBB1_62:                               # %sw.default
	movq	stderr, %rdi
	movq	progName, %rdx
	movq	-24(%rbp), %rax
	movq	(%rax), %rcx
	movabsq	$.L.str.10, %rsi
	movb	$0, %al
	callq	fprintf
	movq	progName, %rdi
	callq	usage
	movl	$1, %edi
	callq	exit
.LBB1_63:                               # %sw.epilog
                                        #   in Loop: Header=BB1_39 Depth=2
	jmp	.LBB1_64
.LBB1_64:                               # %for.inc131
                                        #   in Loop: Header=BB1_39 Depth=2
	movl	-36(%rbp), %eax
	addl	$1, %eax
	movl	%eax, -36(%rbp)
	jmp	.LBB1_39
.LBB1_65:                               # %for.end133
                                        #   in Loop: Header=BB1_33 Depth=1
	jmp	.LBB1_66
.LBB1_66:                               # %if.end134
                                        #   in Loop: Header=BB1_33 Depth=1
	jmp	.LBB1_67
.LBB1_67:                               # %for.inc135
                                        #   in Loop: Header=BB1_33 Depth=1
	movq	-24(%rbp), %rax
	movq	8(%rax), %rax
	movq	%rax, -24(%rbp)
	jmp	.LBB1_33
.LBB1_68:                               # %for.end137.loopexit
	jmp	.LBB1_69
.LBB1_69:                               # %for.end137
	movq	-32(%rbp), %rax
	movq	%rax, -24(%rbp)
.LBB1_70:                               # %for.cond138
                                        # =>This Inner Loop Header: Depth=1
	cmpq	$0, -24(%rbp)
	je	.LBB1_128
# %bb.71:                               # %for.body141
                                        #   in Loop: Header=BB1_70 Depth=1
	movq	-24(%rbp), %rax
	movq	(%rax), %rdi
	movl	$.L.str.3, %esi
	callq	strcmp
	cmpl	$0, %eax
	jne	.LBB1_73
# %bb.72:                               # %if.then146
	jmp	.LBB1_129
.LBB1_73:                               # %if.end147
                                        #   in Loop: Header=BB1_70 Depth=1
	movq	-24(%rbp), %rax
	movq	(%rax), %rdi
	movl	$.L.str.11, %esi
	callq	strcmp
	cmpl	$0, %eax
	jne	.LBB1_75
# %bb.74:                               # %if.then152
                                        #   in Loop: Header=BB1_70 Depth=1
	movl	$2, srcMode
	jmp	.LBB1_126
.LBB1_75:                               # %if.else153
                                        #   in Loop: Header=BB1_70 Depth=1
	movq	-24(%rbp), %rax
	movq	(%rax), %rdi
	movl	$.L.str.12, %esi
	callq	strcmp
	cmpl	$0, %eax
	jne	.LBB1_77
# %bb.76:                               # %if.then158
                                        #   in Loop: Header=BB1_70 Depth=1
	movl	$2, opMode
	jmp	.LBB1_125
.LBB1_77:                               # %if.else159
                                        #   in Loop: Header=BB1_70 Depth=1
	movq	-24(%rbp), %rax
	movq	(%rax), %rdi
	movl	$.L.str.13, %esi
	callq	strcmp
	cmpl	$0, %eax
	jne	.LBB1_79
# %bb.78:                               # %if.then164
                                        #   in Loop: Header=BB1_70 Depth=1
	movl	$1, opMode
	jmp	.LBB1_124
.LBB1_79:                               # %if.else165
                                        #   in Loop: Header=BB1_70 Depth=1
	movq	-24(%rbp), %rax
	movq	(%rax), %rdi
	movl	$.L.str.14, %esi
	callq	strcmp
	cmpl	$0, %eax
	jne	.LBB1_81
# %bb.80:                               # %if.then170
                                        #   in Loop: Header=BB1_70 Depth=1
	movb	$1, forceOverwrite
	jmp	.LBB1_123
.LBB1_81:                               # %if.else171
                                        #   in Loop: Header=BB1_70 Depth=1
	movq	-24(%rbp), %rax
	movq	(%rax), %rdi
	movl	$.L.str.15, %esi
	callq	strcmp
	cmpl	$0, %eax
	jne	.LBB1_83
# %bb.82:                               # %if.then176
                                        #   in Loop: Header=BB1_70 Depth=1
	movl	$3, opMode
	jmp	.LBB1_122
.LBB1_83:                               # %if.else177
                                        #   in Loop: Header=BB1_70 Depth=1
	movq	-24(%rbp), %rax
	movq	(%rax), %rdi
	movl	$.L.str.16, %esi
	callq	strcmp
	cmpl	$0, %eax
	jne	.LBB1_85
# %bb.84:                               # %if.then182
                                        #   in Loop: Header=BB1_70 Depth=1
	movb	$1, keepInputFiles
	jmp	.LBB1_121
.LBB1_85:                               # %if.else183
                                        #   in Loop: Header=BB1_70 Depth=1
	movq	-24(%rbp), %rax
	movq	(%rax), %rdi
	movl	$.L.str.17, %esi
	callq	strcmp
	cmpl	$0, %eax
	jne	.LBB1_87
# %bb.86:                               # %if.then188
                                        #   in Loop: Header=BB1_70 Depth=1
	movb	$1, smallMode
	jmp	.LBB1_120
.LBB1_87:                               # %if.else189
                                        #   in Loop: Header=BB1_70 Depth=1
	movq	-24(%rbp), %rax
	movq	(%rax), %rdi
	movl	$.L.str.18, %esi
	callq	strcmp
	cmpl	$0, %eax
	jne	.LBB1_89
# %bb.88:                               # %if.then194
                                        #   in Loop: Header=BB1_70 Depth=1
	movb	$0, noisy
	jmp	.LBB1_119
.LBB1_89:                               # %if.else195
                                        #   in Loop: Header=BB1_70 Depth=1
	movq	-24(%rbp), %rax
	movq	(%rax), %rdi
	movl	$.L.str.19, %esi
	callq	strcmp
	cmpl	$0, %eax
	jne	.LBB1_91
# %bb.90:                               # %if.then200
                                        #   in Loop: Header=BB1_70 Depth=1
	callq	license
	jmp	.LBB1_118
.LBB1_91:                               # %if.else201
                                        #   in Loop: Header=BB1_70 Depth=1
	movq	-24(%rbp), %rax
	movq	(%rax), %rdi
	movl	$.L.str.20, %esi
	callq	strcmp
	cmpl	$0, %eax
	jne	.LBB1_93
# %bb.92:                               # %if.then206
                                        #   in Loop: Header=BB1_70 Depth=1
	callq	license
	jmp	.LBB1_117
.LBB1_93:                               # %if.else207
                                        #   in Loop: Header=BB1_70 Depth=1
	movq	-24(%rbp), %rax
	movq	(%rax), %rdi
	movl	$.L.str.21, %esi
	callq	strcmp
	cmpl	$0, %eax
	jne	.LBB1_95
# %bb.94:                               # %if.then212
                                        #   in Loop: Header=BB1_70 Depth=1
	movl	$1, workFactor
	jmp	.LBB1_116
.LBB1_95:                               # %if.else213
                                        #   in Loop: Header=BB1_70 Depth=1
	movq	-24(%rbp), %rax
	movq	(%rax), %rdi
	movl	$.L.str.22, %esi
	callq	strcmp
	cmpl	$0, %eax
	jne	.LBB1_97
# %bb.96:                               # %if.then218
                                        #   in Loop: Header=BB1_70 Depth=1
	movq	-24(%rbp), %rax
	movq	(%rax), %rdi
	callq	redundant
	jmp	.LBB1_115
.LBB1_97:                               # %if.else220
                                        #   in Loop: Header=BB1_70 Depth=1
	movq	-24(%rbp), %rax
	movq	(%rax), %rdi
	movl	$.L.str.23, %esi
	callq	strcmp
	cmpl	$0, %eax
	jne	.LBB1_99
# %bb.98:                               # %if.then225
                                        #   in Loop: Header=BB1_70 Depth=1
	movq	-24(%rbp), %rax
	movq	(%rax), %rdi
	callq	redundant
	jmp	.LBB1_114
.LBB1_99:                               # %if.else227
                                        #   in Loop: Header=BB1_70 Depth=1
	movq	-24(%rbp), %rax
	movq	(%rax), %rdi
	movl	$.L.str.24, %esi
	callq	strcmp
	cmpl	$0, %eax
	jne	.LBB1_101
# %bb.100:                              # %if.then232
                                        #   in Loop: Header=BB1_70 Depth=1
	movl	$1, blockSize100k
	jmp	.LBB1_113
.LBB1_101:                              # %if.else233
                                        #   in Loop: Header=BB1_70 Depth=1
	movq	-24(%rbp), %rax
	movq	(%rax), %rdi
	movl	$.L.str.25, %esi
	callq	strcmp
	cmpl	$0, %eax
	jne	.LBB1_103
# %bb.102:                              # %if.then238
                                        #   in Loop: Header=BB1_70 Depth=1
	movl	$9, blockSize100k
	jmp	.LBB1_112
.LBB1_103:                              # %if.else239
                                        #   in Loop: Header=BB1_70 Depth=1
	movq	-24(%rbp), %rax
	movq	(%rax), %rdi
	movl	$.L.str.26, %esi
	callq	strcmp
	cmpl	$0, %eax
	jne	.LBB1_105
# %bb.104:                              # %if.then244
                                        #   in Loop: Header=BB1_70 Depth=1
	movl	verbosity, %eax
	addl	$1, %eax
	movl	%eax, verbosity
	jmp	.LBB1_111
.LBB1_105:                              # %if.else246
                                        #   in Loop: Header=BB1_70 Depth=1
	movq	-24(%rbp), %rax
	movq	(%rax), %rdi
	movl	$.L.str.27, %esi
	callq	strcmp
	cmpl	$0, %eax
	jne	.LBB1_107
# %bb.106:                              # %if.then251
	movq	progName, %rdi
	callq	usage
	xorl	%edi, %edi
	callq	exit
.LBB1_107:                              # %if.else252
                                        #   in Loop: Header=BB1_70 Depth=1
	movq	-24(%rbp), %rax
	movq	(%rax), %rdi
	movabsq	$.L.str.3, %rsi
	movl	$2, %edx
	callq	strncmp
	cmpl	$0, %eax
	jne	.LBB1_109
# %bb.108:                              # %if.then257
	movq	stderr, %rdi
	movq	progName, %rdx
	movq	-24(%rbp), %rax
	movq	(%rax), %rcx
	movabsq	$.L.str.10, %rsi
	movb	$0, %al
	callq	fprintf
	movq	progName, %rdi
	callq	usage
	movl	$1, %edi
	callq	exit
.LBB1_109:                              # %if.end260
                                        #   in Loop: Header=BB1_70 Depth=1
	jmp	.LBB1_110
.LBB1_110:                              # %if.end261
                                        #   in Loop: Header=BB1_70 Depth=1
	jmp	.LBB1_111
.LBB1_111:                              # %if.end262
                                        #   in Loop: Header=BB1_70 Depth=1
	jmp	.LBB1_112
.LBB1_112:                              # %if.end263
                                        #   in Loop: Header=BB1_70 Depth=1
	jmp	.LBB1_113
.LBB1_113:                              # %if.end264
                                        #   in Loop: Header=BB1_70 Depth=1
	jmp	.LBB1_114
.LBB1_114:                              # %if.end265
                                        #   in Loop: Header=BB1_70 Depth=1
	jmp	.LBB1_115
.LBB1_115:                              # %if.end266
                                        #   in Loop: Header=BB1_70 Depth=1
	jmp	.LBB1_116
.LBB1_116:                              # %if.end267
                                        #   in Loop: Header=BB1_70 Depth=1
	jmp	.LBB1_117
.LBB1_117:                              # %if.end268
                                        #   in Loop: Header=BB1_70 Depth=1
	jmp	.LBB1_118
.LBB1_118:                              # %if.end269
                                        #   in Loop: Header=BB1_70 Depth=1
	jmp	.LBB1_119
.LBB1_119:                              # %if.end270
                                        #   in Loop: Header=BB1_70 Depth=1
	jmp	.LBB1_120
.LBB1_120:                              # %if.end271
                                        #   in Loop: Header=BB1_70 Depth=1
	jmp	.LBB1_121
.LBB1_121:                              # %if.end272
                                        #   in Loop: Header=BB1_70 Depth=1
	jmp	.LBB1_122
.LBB1_122:                              # %if.end273
                                        #   in Loop: Header=BB1_70 Depth=1
	jmp	.LBB1_123
.LBB1_123:                              # %if.end274
                                        #   in Loop: Header=BB1_70 Depth=1
	jmp	.LBB1_124
.LBB1_124:                              # %if.end275
                                        #   in Loop: Header=BB1_70 Depth=1
	jmp	.LBB1_125
.LBB1_125:                              # %if.end276
                                        #   in Loop: Header=BB1_70 Depth=1
	jmp	.LBB1_126
.LBB1_126:                              # %if.end277
                                        #   in Loop: Header=BB1_70 Depth=1
	jmp	.LBB1_127
.LBB1_127:                              # %for.inc278
                                        #   in Loop: Header=BB1_70 Depth=1
	movq	-24(%rbp), %rax
	movq	8(%rax), %rax
	movq	%rax, -24(%rbp)
	jmp	.LBB1_70
.LBB1_128:                              # %for.end280.loopexit
	jmp	.LBB1_129
.LBB1_129:                              # %for.end280
	cmpl	$4, verbosity
	jle	.LBB1_131
# %bb.130:                              # %if.then283
	movl	$4, verbosity
.LBB1_131:                              # %if.end284
	cmpl	$1, opMode
	jne	.LBB1_135
# %bb.132:                              # %land.lhs.true287
	movzbl	smallMode, %eax
	cmpl	$0, %eax
	je	.LBB1_135
# %bb.133:                              # %land.lhs.true290
	cmpl	$2, blockSize100k
	jle	.LBB1_135
# %bb.134:                              # %if.then293
	movl	$2, blockSize100k
.LBB1_135:                              # %if.end294
	cmpl	$3, opMode
	jne	.LBB1_138
# %bb.136:                              # %land.lhs.true297
	cmpl	$2, srcMode
	jne	.LBB1_138
# %bb.137:                              # %if.then300
	movq	stderr, %rdi
	movq	progName, %rdx
	movabsq	$.L.str.28, %rsi
	movb	$0, %al
	callq	fprintf
	movl	$1, %edi
	callq	exit
.LBB1_138:                              # %if.end302
	cmpl	$2, srcMode
	jne	.LBB1_141
# %bb.139:                              # %land.lhs.true305
	cmpl	$0, numFileNames
	jne	.LBB1_141
# %bb.140:                              # %if.then308
	movl	$1, srcMode
.LBB1_141:                              # %if.end309
	cmpl	$1, opMode
	je	.LBB1_143
# %bb.142:                              # %if.then312
	movl	$0, blockSize100k
.LBB1_143:                              # %if.end313
	cmpl	$3, srcMode
	jne	.LBB1_145
# %bb.144:                              # %if.then316
	movl	$2, %edi
	movabsq	$mySignalCatcher, %rsi
	callq	signal
	movl	$15, %edi
	movabsq	$mySignalCatcher, %rsi
	callq	signal
	movl	$1, %edi
	movabsq	$mySignalCatcher, %rsi
	callq	signal
.LBB1_145:                              # %if.end320
	cmpl	$1, opMode
	jne	.LBB1_159
# %bb.146:                              # %if.then323
	cmpl	$1, srcMode
	jne	.LBB1_148
# %bb.147:                              # %if.then326
	xorl	%edi, %edi
	callq	compress
	jmp	.LBB1_158
.LBB1_148:                              # %if.else327
	movb	$1, -9(%rbp)
	movq	-32(%rbp), %rax
	movq	%rax, -24(%rbp)
.LBB1_149:                              # %for.cond328
                                        # =>This Inner Loop Header: Depth=1
	cmpq	$0, -24(%rbp)
	je	.LBB1_157
# %bb.150:                              # %for.body331
                                        #   in Loop: Header=BB1_149 Depth=1
	movq	-24(%rbp), %rax
	movq	(%rax), %rdi
	movl	$.L.str.3, %esi
	callq	strcmp
	cmpl	$0, %eax
	jne	.LBB1_152
# %bb.151:                              # %if.then336
                                        #   in Loop: Header=BB1_149 Depth=1
	movb	$0, -9(%rbp)
	jmp	.LBB1_156
.LBB1_152:                              # %if.end337
                                        #   in Loop: Header=BB1_149 Depth=1
	movq	-24(%rbp), %rax
	movq	(%rax), %rax
	movsbl	(%rax), %eax
	cmpl	$45, %eax
	jne	.LBB1_155
# %bb.153:                              # %land.lhs.true343
                                        #   in Loop: Header=BB1_149 Depth=1
	movzbl	-9(%rbp), %eax
	cmpl	$0, %eax
	je	.LBB1_155
# %bb.154:                              # %if.then346
                                        #   in Loop: Header=BB1_149 Depth=1
	jmp	.LBB1_156
.LBB1_155:                              # %if.end347
                                        #   in Loop: Header=BB1_149 Depth=1
	movl	numFilesProcessed, %eax
	addl	$1, %eax
	movl	%eax, numFilesProcessed
	movq	-24(%rbp), %rax
	movq	(%rax), %rdi
	callq	compress
.LBB1_156:                              # %for.inc350
                                        #   in Loop: Header=BB1_149 Depth=1
	movq	-24(%rbp), %rax
	movq	8(%rax), %rax
	movq	%rax, -24(%rbp)
	jmp	.LBB1_149
.LBB1_157:                              # %for.end352
	jmp	.LBB1_158
.LBB1_158:                              # %if.end353
	jmp	.LBB1_192
.LBB1_159:                              # %if.else354
	cmpl	$2, opMode
	jne	.LBB1_175
# %bb.160:                              # %if.then357
	movb	$0, unzFailsExist
	cmpl	$1, srcMode
	jne	.LBB1_162
# %bb.161:                              # %if.then360
	xorl	%edi, %edi
	callq	uncompress
	jmp	.LBB1_172
.LBB1_162:                              # %if.else361
	movb	$1, -9(%rbp)
	movq	-32(%rbp), %rax
	movq	%rax, -24(%rbp)
.LBB1_163:                              # %for.cond362
                                        # =>This Inner Loop Header: Depth=1
	cmpq	$0, -24(%rbp)
	je	.LBB1_171
# %bb.164:                              # %for.body365
                                        #   in Loop: Header=BB1_163 Depth=1
	movq	-24(%rbp), %rax
	movq	(%rax), %rdi
	movl	$.L.str.3, %esi
	callq	strcmp
	cmpl	$0, %eax
	jne	.LBB1_166
# %bb.165:                              # %if.then370
                                        #   in Loop: Header=BB1_163 Depth=1
	movb	$0, -9(%rbp)
	jmp	.LBB1_170
.LBB1_166:                              # %if.end371
                                        #   in Loop: Header=BB1_163 Depth=1
	movq	-24(%rbp), %rax
	movq	(%rax), %rax
	movsbl	(%rax), %eax
	cmpl	$45, %eax
	jne	.LBB1_169
# %bb.167:                              # %land.lhs.true377
                                        #   in Loop: Header=BB1_163 Depth=1
	movzbl	-9(%rbp), %eax
	cmpl	$0, %eax
	je	.LBB1_169
# %bb.168:                              # %if.then380
                                        #   in Loop: Header=BB1_163 Depth=1
	jmp	.LBB1_170
.LBB1_169:                              # %if.end381
                                        #   in Loop: Header=BB1_163 Depth=1
	movl	numFilesProcessed, %eax
	addl	$1, %eax
	movl	%eax, numFilesProcessed
	movq	-24(%rbp), %rax
	movq	(%rax), %rdi
	callq	uncompress
.LBB1_170:                              # %for.inc384
                                        #   in Loop: Header=BB1_163 Depth=1
	movq	-24(%rbp), %rax
	movq	8(%rax), %rax
	movq	%rax, -24(%rbp)
	jmp	.LBB1_163
.LBB1_171:                              # %for.end386
	jmp	.LBB1_172
.LBB1_172:                              # %if.end387
	cmpb	$0, unzFailsExist
	je	.LBB1_174
# %bb.173:                              # %if.then389
	movl	$2, %edi
	callq	setExit
	movl	exitValue, %edi
	callq	exit
.LBB1_174:                              # %if.end390
	jmp	.LBB1_191
.LBB1_175:                              # %if.else391
	movb	$0, testFailsExist
	cmpl	$1, srcMode
	jne	.LBB1_177
# %bb.176:                              # %if.then394
	xorl	%edi, %edi
	callq	testf
	jmp	.LBB1_187
.LBB1_177:                              # %if.else395
	movb	$1, -9(%rbp)
	movq	-32(%rbp), %rax
	movq	%rax, -24(%rbp)
.LBB1_178:                              # %for.cond396
                                        # =>This Inner Loop Header: Depth=1
	cmpq	$0, -24(%rbp)
	je	.LBB1_186
# %bb.179:                              # %for.body399
                                        #   in Loop: Header=BB1_178 Depth=1
	movq	-24(%rbp), %rax
	movq	(%rax), %rdi
	movl	$.L.str.3, %esi
	callq	strcmp
	cmpl	$0, %eax
	jne	.LBB1_181
# %bb.180:                              # %if.then404
                                        #   in Loop: Header=BB1_178 Depth=1
	movb	$0, -9(%rbp)
	jmp	.LBB1_185
.LBB1_181:                              # %if.end405
                                        #   in Loop: Header=BB1_178 Depth=1
	movq	-24(%rbp), %rax
	movq	(%rax), %rax
	movsbl	(%rax), %eax
	cmpl	$45, %eax
	jne	.LBB1_184
# %bb.182:                              # %land.lhs.true411
                                        #   in Loop: Header=BB1_178 Depth=1
	movzbl	-9(%rbp), %eax
	cmpl	$0, %eax
	je	.LBB1_184
# %bb.183:                              # %if.then414
                                        #   in Loop: Header=BB1_178 Depth=1
	jmp	.LBB1_185
.LBB1_184:                              # %if.end415
                                        #   in Loop: Header=BB1_178 Depth=1
	movl	numFilesProcessed, %eax
	addl	$1, %eax
	movl	%eax, numFilesProcessed
	movq	-24(%rbp), %rax
	movq	(%rax), %rdi
	callq	testf
.LBB1_185:                              # %for.inc418
                                        #   in Loop: Header=BB1_178 Depth=1
	movq	-24(%rbp), %rax
	movq	8(%rax), %rax
	movq	%rax, -24(%rbp)
	jmp	.LBB1_178
.LBB1_186:                              # %for.end420
	jmp	.LBB1_187
.LBB1_187:                              # %if.end421
	movzbl	testFailsExist, %eax
	cmpl	$0, %eax
	je	.LBB1_190
# %bb.188:                              # %land.lhs.true424
	movzbl	noisy, %eax
	cmpl	$0, %eax
	je	.LBB1_190
# %bb.189:                              # %if.then427
	movq	stderr, %rdi
	movabsq	$.L.str.29, %rsi
	movb	$0, %al
	callq	fprintf
	movl	$2, %edi
	callq	setExit
	movl	exitValue, %edi
	callq	exit
.LBB1_190:                              # %if.end429
	jmp	.LBB1_191
.LBB1_191:                              # %if.end430
	jmp	.LBB1_192
.LBB1_192:                              # %if.end431
	movq	-32(%rbp), %rax
	movq	%rax, -24(%rbp)
.LBB1_193:                              # %while.cond
                                        # =>This Inner Loop Header: Depth=1
	cmpq	$0, -24(%rbp)
	je	.LBB1_197
# %bb.194:                              # %while.body
                                        #   in Loop: Header=BB1_193 Depth=1
	movq	-24(%rbp), %rax
	movq	8(%rax), %rax
	movq	%rax, -72(%rbp)
	movq	-24(%rbp), %rax
	cmpq	$0, (%rax)
	je	.LBB1_196
# %bb.195:                              # %if.then438
                                        #   in Loop: Header=BB1_193 Depth=1
	movq	-24(%rbp), %rax
	movq	(%rax), %rdi
	callq	free
.LBB1_196:                              # %if.end440
                                        #   in Loop: Header=BB1_193 Depth=1
	movq	-24(%rbp), %rdi
	callq	free
	movq	-72(%rbp), %rax
	movq	%rax, -24(%rbp)
	jmp	.LBB1_193
.LBB1_197:                              # %while.end
	movl	exitValue, %eax
	addq	$72, %rsp
	popq	%rbx
	popq	%rbp
	.cfi_def_cfa %rsp, 8
	retq
.Lfunc_end1:
	.size	main, .Lfunc_end1-main
	.cfi_endproc
	.section	.rodata,"a",@progbits
	.p2align	3
.LJTI1_0:
	.quad	.LBB1_50
	.quad	.LBB1_51
	.quad	.LBB1_52
	.quad	.LBB1_53
	.quad	.LBB1_54
	.quad	.LBB1_55
	.quad	.LBB1_56
	.quad	.LBB1_57
	.quad	.LBB1_58
	.quad	.LBB1_62
	.quad	.LBB1_62
	.quad	.LBB1_62
	.quad	.LBB1_62
	.quad	.LBB1_62
	.quad	.LBB1_62
	.quad	.LBB1_62
	.quad	.LBB1_62
	.quad	.LBB1_62
	.quad	.LBB1_62
	.quad	.LBB1_62
	.quad	.LBB1_62
	.quad	.LBB1_62
	.quad	.LBB1_62
	.quad	.LBB1_62
	.quad	.LBB1_62
	.quad	.LBB1_62
	.quad	.LBB1_62
	.quad	.LBB1_59
	.quad	.LBB1_62
	.quad	.LBB1_62
	.quad	.LBB1_62
	.quad	.LBB1_62
	.quad	.LBB1_62
	.quad	.LBB1_62
	.quad	.LBB1_62
	.quad	.LBB1_62
	.quad	.LBB1_62
	.quad	.LBB1_59
	.quad	.LBB1_62
	.quad	.LBB1_62
	.quad	.LBB1_62
	.quad	.LBB1_62
	.quad	.LBB1_62
	.quad	.LBB1_62
	.quad	.LBB1_62
	.quad	.LBB1_62
	.quad	.LBB1_62
	.quad	.LBB1_62
	.quad	.LBB1_62
	.quad	.LBB1_62
	.quad	.LBB1_42
	.quad	.LBB1_43
	.quad	.LBB1_62
	.quad	.LBB1_45
	.quad	.LBB1_62
	.quad	.LBB1_61
	.quad	.LBB1_62
	.quad	.LBB1_62
	.quad	.LBB1_47
	.quad	.LBB1_62
	.quad	.LBB1_62
	.quad	.LBB1_62
	.quad	.LBB1_62
	.quad	.LBB1_62
	.quad	.LBB1_49
	.quad	.LBB1_62
	.quad	.LBB1_48
	.quad	.LBB1_46
	.quad	.LBB1_62
	.quad	.LBB1_60
	.quad	.LBB1_62
	.quad	.LBB1_62
	.quad	.LBB1_62
	.quad	.LBB1_44
                                        # -- End function
	.text
	.p2align	4, 0x90         # -- Begin function mySIGSEGVorSIGBUScatcher
	.type	mySIGSEGVorSIGBUScatcher,@function
mySIGSEGVorSIGBUScatcher:               # @mySIGSEGVorSIGBUScatcher
	.cfi_startproc
# %bb.0:                                # %entry
	pushq	%rbp
	.cfi_def_cfa_offset 16
	.cfi_offset %rbp, -16
	movq	%rsp, %rbp
	.cfi_def_cfa_register %rbp
	subq	$16, %rsp
	movl	%edi, -4(%rbp)
	cmpl	$1, opMode
	jne	.LBB2_2
# %bb.1:                                # %if.then
	movq	stderr, %rdi
	movq	progName, %rdx
	movabsq	$.L.str.36, %rsi
	movb	$0, %al
	callq	fprintf
	jmp	.LBB2_3
.LBB2_2:                                # %if.else
	movq	stderr, %rdi
	movq	progName, %rdx
	movabsq	$.L.str.37, %rsi
	movb	$0, %al
	callq	fprintf
.LBB2_3:                                # %if.end
	callq	showFileNames
	cmpl	$1, opMode
	jne	.LBB2_5
# %bb.4:                                # %if.then3
	movl	$3, %edi
	callq	cleanUpAndFail
.LBB2_5:                                # %if.else4
	callq	cadvise
	movl	$2, %edi
	callq	cleanUpAndFail
.Lfunc_end2:
	.size	mySIGSEGVorSIGBUScatcher, .Lfunc_end2-mySIGSEGVorSIGBUScatcher
	.cfi_endproc
                                        # -- End function
	.p2align	4, 0x90         # -- Begin function copyFileName
	.type	copyFileName,@function
copyFileName:                           # @copyFileName
	.cfi_startproc
# %bb.0:                                # %rand_bb
	pushq	%rbp
	.cfi_def_cfa_offset 16
	.cfi_offset %rbp, -16
	movq	%rsp, %rbp
	.cfi_def_cfa_register %rbp
	pushq	%r14
	pushq	%rbx
	.cfi_offset %rbx, -32
	.cfi_offset %r14, -24
	movq	%rsi, %r14
	movq	%rdi, %rbx
	callq	get_urand
	cmpl	$0, %eax
	jne	.LBB3_2
# %bb.1:                                # %func_copyFileName.8
	movq	%rbx, %rdi
	movq	%r14, %rsi
	callq	copyFileName.8
	popq	%rbx
	popq	%r14
	popq	%rbp
	.cfi_def_cfa %rsp, 8
	retq
.LBB3_2:                                # %func_copyFileName.30
	.cfi_def_cfa %rbp, 16
	movq	%rbx, %rdi
	movq	%r14, %rsi
	callq	copyFileName.30
	popq	%rbx
	popq	%r14
	popq	%rbp
	.cfi_def_cfa %rsp, 8
	retq
.Lfunc_end3:
	.size	copyFileName, .Lfunc_end3-copyFileName
	.cfi_endproc
                                        # -- End function
	.p2align	4, 0x90         # -- Begin function addFlagsFromEnvVar
	.type	addFlagsFromEnvVar,@function
addFlagsFromEnvVar:                     # @addFlagsFromEnvVar
	.cfi_startproc
# %bb.0:                                # %rand_bb
	pushq	%rbp
	.cfi_def_cfa_offset 16
	.cfi_offset %rbp, -16
	movq	%rsp, %rbp
	.cfi_def_cfa_register %rbp
	pushq	%r14
	pushq	%rbx
	.cfi_offset %rbx, -32
	.cfi_offset %r14, -24
	movq	%rsi, %r14
	movq	%rdi, %rbx
	callq	get_urand
	cmpl	$0, %eax
	jne	.LBB4_9
# %bb.1:                                # %func_addFlagsFromEnvVar.1
	movq	%rbx, %rdi
	movq	%r14, %rsi
	callq	addFlagsFromEnvVar.1
	popq	%rbx
	popq	%r14
	popq	%rbp
	.cfi_def_cfa %rsp, 8
	retq
.LBB4_2:                                # %func_addFlagsFromEnvVar.4
	.cfi_def_cfa %rbp, 16
	movq	%rbx, %rdi
	movq	%r14, %rsi
	callq	addFlagsFromEnvVar.4
	popq	%rbx
	popq	%r14
	popq	%rbp
	.cfi_def_cfa %rsp, 8
	retq
.LBB4_3:                                # %func_addFlagsFromEnvVar.10
	.cfi_def_cfa %rbp, 16
	movq	%rbx, %rdi
	movq	%r14, %rsi
	callq	addFlagsFromEnvVar.10
	popq	%rbx
	popq	%r14
	popq	%rbp
	.cfi_def_cfa %rsp, 8
	retq
.LBB4_4:                                # %func_addFlagsFromEnvVar.19
	.cfi_def_cfa %rbp, 16
	movq	%rbx, %rdi
	movq	%r14, %rsi
	callq	addFlagsFromEnvVar.19
	popq	%rbx
	popq	%r14
	popq	%rbp
	.cfi_def_cfa %rsp, 8
	retq
.LBB4_5:                                # %func_addFlagsFromEnvVar.28
	.cfi_def_cfa %rbp, 16
	movq	%rbx, %rdi
	movq	%r14, %rsi
	callq	addFlagsFromEnvVar.28
	popq	%rbx
	popq	%r14
	popq	%rbp
	.cfi_def_cfa %rsp, 8
	retq
.LBB4_6:                                # %func_addFlagsFromEnvVar.38
	.cfi_def_cfa %rbp, 16
	movq	%rbx, %rdi
	movq	%r14, %rsi
	callq	addFlagsFromEnvVar.38
	popq	%rbx
	popq	%r14
	popq	%rbp
	.cfi_def_cfa %rsp, 8
	retq
.LBB4_7:                                # %func_addFlagsFromEnvVar.42
	.cfi_def_cfa %rbp, 16
	movq	%rbx, %rdi
	movq	%r14, %rsi
	callq	addFlagsFromEnvVar.42
	popq	%rbx
	popq	%r14
	popq	%rbp
	.cfi_def_cfa %rsp, 8
	retq
.LBB4_8:                                # %func_addFlagsFromEnvVar.87
	.cfi_def_cfa %rbp, 16
	movq	%rbx, %rdi
	movq	%r14, %rsi
	callq	addFlagsFromEnvVar.87
	popq	%rbx
	popq	%r14
	popq	%rbp
	.cfi_def_cfa %rsp, 8
	retq
.LBB4_9:                                # %ctrl0
	.cfi_def_cfa %rbp, 16
	cmpl	$1, %eax
	je	.LBB4_2
# %bb.10:                               # %ctrl1
	cmpl	$2, %eax
	je	.LBB4_3
# %bb.11:                               # %ctrl2
	cmpl	$3, %eax
	je	.LBB4_4
# %bb.12:                               # %ctrl3
	cmpl	$4, %eax
	je	.LBB4_5
# %bb.13:                               # %ctrl4
	cmpl	$5, %eax
	je	.LBB4_6
# %bb.14:                               # %ctrl5
	cmpl	$6, %eax
	je	.LBB4_7
	jmp	.LBB4_8
.Lfunc_end4:
	.size	addFlagsFromEnvVar, .Lfunc_end4-addFlagsFromEnvVar
	.cfi_endproc
                                        # -- End function
	.p2align	4, 0x90         # -- Begin function snocString
	.type	snocString,@function
snocString:                             # @snocString
	.cfi_startproc
# %bb.0:                                # %rand_bb
	pushq	%rbp
	.cfi_def_cfa_offset 16
	.cfi_offset %rbp, -16
	movq	%rsp, %rbp
	.cfi_def_cfa_register %rbp
	pushq	%r14
	pushq	%rbx
	.cfi_offset %rbx, -32
	.cfi_offset %r14, -24
	movq	%rsi, %r14
	movq	%rdi, %rbx
	callq	get_urand
	cmpl	$0, %eax
	jne	.LBB5_9
# %bb.1:                                # %func_snocString.13
	movq	%rbx, %rdi
	movq	%r14, %rsi
	callq	snocString.13
	popq	%rbx
	popq	%r14
	popq	%rbp
	.cfi_def_cfa %rsp, 8
	retq
.LBB5_2:                                # %func_snocString.32
	.cfi_def_cfa %rbp, 16
	movq	%rbx, %rdi
	movq	%r14, %rsi
	callq	snocString.32
	popq	%rbx
	popq	%r14
	popq	%rbp
	.cfi_def_cfa %rsp, 8
	retq
.LBB5_3:                                # %func_snocString.96
	.cfi_def_cfa %rbp, 16
	movq	%rbx, %rdi
	movq	%r14, %rsi
	callq	snocString.96
	popq	%rbx
	popq	%r14
	popq	%rbp
	.cfi_def_cfa %rsp, 8
	retq
.LBB5_4:                                # %func_snocString.99
	.cfi_def_cfa %rbp, 16
	movq	%rbx, %rdi
	movq	%r14, %rsi
	callq	snocString.99
	popq	%rbx
	popq	%r14
	popq	%rbp
	.cfi_def_cfa %rsp, 8
	retq
.LBB5_5:                                # %func_snocString.116
	.cfi_def_cfa %rbp, 16
	movq	%rbx, %rdi
	movq	%r14, %rsi
	callq	snocString.116
	popq	%rbx
	popq	%r14
	popq	%rbp
	.cfi_def_cfa %rsp, 8
	retq
.LBB5_6:                                # %func_snocString.153
	.cfi_def_cfa %rbp, 16
	movq	%rbx, %rdi
	movq	%r14, %rsi
	callq	snocString.153
	popq	%rbx
	popq	%r14
	popq	%rbp
	.cfi_def_cfa %rsp, 8
	retq
.LBB5_7:                                # %func_snocString.164
	.cfi_def_cfa %rbp, 16
	movq	%rbx, %rdi
	movq	%r14, %rsi
	callq	snocString.164
	popq	%rbx
	popq	%r14
	popq	%rbp
	.cfi_def_cfa %rsp, 8
	retq
.LBB5_8:                                # %func_snocString.170
	.cfi_def_cfa %rbp, 16
	movq	%rbx, %rdi
	movq	%r14, %rsi
	callq	snocString.170
	popq	%rbx
	popq	%r14
	popq	%rbp
	.cfi_def_cfa %rsp, 8
	retq
.LBB5_9:                                # %ctrl0
	.cfi_def_cfa %rbp, 16
	cmpl	$1, %eax
	je	.LBB5_2
# %bb.10:                               # %ctrl1
	cmpl	$2, %eax
	je	.LBB5_3
# %bb.11:                               # %ctrl2
	cmpl	$3, %eax
	je	.LBB5_4
# %bb.12:                               # %ctrl3
	cmpl	$4, %eax
	je	.LBB5_5
# %bb.13:                               # %ctrl4
	cmpl	$5, %eax
	je	.LBB5_6
# %bb.14:                               # %ctrl5
	cmpl	$6, %eax
	je	.LBB5_7
	jmp	.LBB5_8
.Lfunc_end5:
	.size	snocString, .Lfunc_end5-snocString
	.cfi_endproc
                                        # -- End function
	.p2align	4, 0x90         # -- Begin function license
	.type	license,@function
license:                                # @license
	.cfi_startproc
# %bb.0:                                # %entry
	pushq	%rbp
	.cfi_def_cfa_offset 16
	.cfi_offset %rbp, -16
	movq	%rsp, %rbp
	.cfi_def_cfa_register %rbp
	pushq	%rbx
	pushq	%rax
	.cfi_offset %rbx, -24
	movq	stderr, %rbx
	callq	BZ2_bzlibVersion
	movq	%rbx, %rdi
	movabsq	$.L.str.49, %rsi
	movq	%rax, %rdx
	movb	$0, %al
	callq	fprintf
	addq	$8, %rsp
	popq	%rbx
	popq	%rbp
	.cfi_def_cfa %rsp, 8
	retq
.Lfunc_end6:
	.size	license, .Lfunc_end6-license
	.cfi_endproc
                                        # -- End function
	.p2align	4, 0x90         # -- Begin function usage
	.type	usage,@function
usage:                                  # @usage
	.cfi_startproc
# %bb.0:                                # %entry
	pushq	%rbp
	.cfi_def_cfa_offset 16
	.cfi_offset %rbp, -16
	movq	%rsp, %rbp
	.cfi_def_cfa_register %rbp
	pushq	%rbx
	pushq	%rax
	.cfi_offset %rbx, -24
	movq	%rdi, -16(%rbp)
	movq	stderr, %rbx
	callq	BZ2_bzlibVersion
	movq	-16(%rbp), %rcx
	movq	%rbx, %rdi
	movabsq	$.L.str.50, %rsi
	movq	%rax, %rdx
	movb	$0, %al
	callq	fprintf
	addq	$8, %rsp
	popq	%rbx
	popq	%rbp
	.cfi_def_cfa %rsp, 8
	retq
.Lfunc_end7:
	.size	usage, .Lfunc_end7-usage
	.cfi_endproc
                                        # -- End function
	.p2align	4, 0x90         # -- Begin function redundant
	.type	redundant,@function
redundant:                              # @redundant
	.cfi_startproc
# %bb.0:                                # %entry
	pushq	%rbp
	.cfi_def_cfa_offset 16
	.cfi_offset %rbp, -16
	movq	%rsp, %rbp
	.cfi_def_cfa_register %rbp
	subq	$16, %rsp
	movq	%rdi, -8(%rbp)
	movq	stderr, %rdi
	movq	progName, %rdx
	movq	-8(%rbp), %rcx
	movabsq	$.L.str.51, %rsi
	movb	$0, %al
	callq	fprintf
	addq	$16, %rsp
	popq	%rbp
	.cfi_def_cfa %rsp, 8
	retq
.Lfunc_end8:
	.size	redundant, .Lfunc_end8-redundant
	.cfi_endproc
                                        # -- End function
	.p2align	4, 0x90         # -- Begin function mySignalCatcher
	.type	mySignalCatcher,@function
mySignalCatcher:                        # @mySignalCatcher
	.cfi_startproc
# %bb.0:                                # %entry
	pushq	%rbp
	.cfi_def_cfa_offset 16
	.cfi_offset %rbp, -16
	movq	%rsp, %rbp
	.cfi_def_cfa_register %rbp
	subq	$16, %rsp
	movl	%edi, -4(%rbp)
	movq	stderr, %rdi
	movq	progName, %rdx
	movabsq	$.L.str.52, %rsi
	movb	$0, %al
	callq	fprintf
	movl	$1, %edi
	callq	cleanUpAndFail
.Lfunc_end9:
	.size	mySignalCatcher, .Lfunc_end9-mySignalCatcher
	.cfi_endproc
                                        # -- End function
	.p2align	4, 0x90         # -- Begin function compress
	.type	compress,@function
compress:                               # @compress
	.cfi_startproc
# %bb.0:                                # %rand_bb
	pushq	%rbp
	.cfi_def_cfa_offset 16
	.cfi_offset %rbp, -16
	movq	%rsp, %rbp
	.cfi_def_cfa_register %rbp
	pushq	%rbx
	pushq	%rax
	.cfi_offset %rbx, -24
	movq	%rdi, %rbx
	callq	get_urand
	cmpl	$0, %eax
	jne	.LBB10_9
# %bb.1:                                # %func_compress.40
	movq	%rbx, %rdi
	callq	compress.40
	addq	$8, %rsp
	popq	%rbx
	popq	%rbp
	.cfi_def_cfa %rsp, 8
	retq
.LBB10_2:                               # %func_compress.47
	.cfi_def_cfa %rbp, 16
	movq	%rbx, %rdi
	callq	compress.47
	addq	$8, %rsp
	popq	%rbx
	popq	%rbp
	.cfi_def_cfa %rsp, 8
	retq
.LBB10_3:                               # %func_compress.108
	.cfi_def_cfa %rbp, 16
	movq	%rbx, %rdi
	callq	compress.108
	addq	$8, %rsp
	popq	%rbx
	popq	%rbp
	.cfi_def_cfa %rsp, 8
	retq
.LBB10_4:                               # %func_compress.125
	.cfi_def_cfa %rbp, 16
	movq	%rbx, %rdi
	callq	compress.125
	addq	$8, %rsp
	popq	%rbx
	popq	%rbp
	.cfi_def_cfa %rsp, 8
	retq
.LBB10_5:                               # %func_compress.129
	.cfi_def_cfa %rbp, 16
	movq	%rbx, %rdi
	callq	compress.129
	addq	$8, %rsp
	popq	%rbx
	popq	%rbp
	.cfi_def_cfa %rsp, 8
	retq
.LBB10_6:                               # %func_compress.154
	.cfi_def_cfa %rbp, 16
	movq	%rbx, %rdi
	callq	compress.154
	addq	$8, %rsp
	popq	%rbx
	popq	%rbp
	.cfi_def_cfa %rsp, 8
	retq
.LBB10_7:                               # %func_compress.159
	.cfi_def_cfa %rbp, 16
	movq	%rbx, %rdi
	callq	compress.159
	addq	$8, %rsp
	popq	%rbx
	popq	%rbp
	.cfi_def_cfa %rsp, 8
	retq
.LBB10_8:                               # %func_compress.160
	.cfi_def_cfa %rbp, 16
	movq	%rbx, %rdi
	callq	compress.160
	addq	$8, %rsp
	popq	%rbx
	popq	%rbp
	.cfi_def_cfa %rsp, 8
	retq
.LBB10_9:                               # %ctrl0
	.cfi_def_cfa %rbp, 16
	cmpl	$1, %eax
	je	.LBB10_2
# %bb.10:                               # %ctrl1
	cmpl	$2, %eax
	je	.LBB10_3
# %bb.11:                               # %ctrl2
	cmpl	$3, %eax
	je	.LBB10_4
# %bb.12:                               # %ctrl3
	cmpl	$4, %eax
	je	.LBB10_5
# %bb.13:                               # %ctrl4
	cmpl	$5, %eax
	je	.LBB10_6
# %bb.14:                               # %ctrl5
	cmpl	$6, %eax
	je	.LBB10_7
	jmp	.LBB10_8
.Lfunc_end10:
	.size	compress, .Lfunc_end10-compress
	.cfi_endproc
                                        # -- End function
	.p2align	4, 0x90         # -- Begin function uncompress
	.type	uncompress,@function
uncompress:                             # @uncompress
	.cfi_startproc
# %bb.0:                                # %rand_bb
	pushq	%rbp
	.cfi_def_cfa_offset 16
	.cfi_offset %rbp, -16
	movq	%rsp, %rbp
	.cfi_def_cfa_register %rbp
	pushq	%rbx
	pushq	%rax
	.cfi_offset %rbx, -24
	movq	%rdi, %rbx
	callq	get_urand
	cmpl	$0, %eax
	jne	.LBB11_9
# %bb.1:                                # %func_uncompress.14
	movq	%rbx, %rdi
	callq	uncompress.14
	addq	$8, %rsp
	popq	%rbx
	popq	%rbp
	.cfi_def_cfa %rsp, 8
	retq
.LBB11_2:                               # %func_uncompress.17
	.cfi_def_cfa %rbp, 16
	movq	%rbx, %rdi
	callq	uncompress.17
	addq	$8, %rsp
	popq	%rbx
	popq	%rbp
	.cfi_def_cfa %rsp, 8
	retq
.LBB11_3:                               # %func_uncompress.27
	.cfi_def_cfa %rbp, 16
	movq	%rbx, %rdi
	callq	uncompress.27
	addq	$8, %rsp
	popq	%rbx
	popq	%rbp
	.cfi_def_cfa %rsp, 8
	retq
.LBB11_4:                               # %func_uncompress.65
	.cfi_def_cfa %rbp, 16
	movq	%rbx, %rdi
	callq	uncompress.65
	addq	$8, %rsp
	popq	%rbx
	popq	%rbp
	.cfi_def_cfa %rsp, 8
	retq
.LBB11_5:                               # %func_uncompress.67
	.cfi_def_cfa %rbp, 16
	movq	%rbx, %rdi
	callq	uncompress.67
	addq	$8, %rsp
	popq	%rbx
	popq	%rbp
	.cfi_def_cfa %rsp, 8
	retq
.LBB11_6:                               # %func_uncompress.73
	.cfi_def_cfa %rbp, 16
	movq	%rbx, %rdi
	callq	uncompress.73
	addq	$8, %rsp
	popq	%rbx
	popq	%rbp
	.cfi_def_cfa %rsp, 8
	retq
.LBB11_7:                               # %func_uncompress.103
	.cfi_def_cfa %rbp, 16
	movq	%rbx, %rdi
	callq	uncompress.103
	addq	$8, %rsp
	popq	%rbx
	popq	%rbp
	.cfi_def_cfa %rsp, 8
	retq
.LBB11_8:                               # %func_uncompress.110
	.cfi_def_cfa %rbp, 16
	movq	%rbx, %rdi
	callq	uncompress.110
	addq	$8, %rsp
	popq	%rbx
	popq	%rbp
	.cfi_def_cfa %rsp, 8
	retq
.LBB11_9:                               # %ctrl0
	.cfi_def_cfa %rbp, 16
	cmpl	$1, %eax
	je	.LBB11_2
# %bb.10:                               # %ctrl1
	cmpl	$2, %eax
	je	.LBB11_3
# %bb.11:                               # %ctrl2
	cmpl	$3, %eax
	je	.LBB11_4
# %bb.12:                               # %ctrl3
	cmpl	$4, %eax
	je	.LBB11_5
# %bb.13:                               # %ctrl4
	cmpl	$5, %eax
	je	.LBB11_6
# %bb.14:                               # %ctrl5
	cmpl	$6, %eax
	je	.LBB11_7
	jmp	.LBB11_8
.Lfunc_end11:
	.size	uncompress, .Lfunc_end11-uncompress
	.cfi_endproc
                                        # -- End function
	.p2align	4, 0x90         # -- Begin function setExit
	.type	setExit,@function
setExit:                                # @setExit
	.cfi_startproc
# %bb.0:                                # %entry
	pushq	%rbp
	.cfi_def_cfa_offset 16
	.cfi_offset %rbp, -16
	movq	%rsp, %rbp
	.cfi_def_cfa_register %rbp
	movl	%edi, -4(%rbp)
	movl	-4(%rbp), %eax
	cmpl	exitValue, %eax
	jle	.LBB12_2
# %bb.1:                                # %if.then
	movl	-4(%rbp), %eax
	movl	%eax, exitValue
.LBB12_2:                               # %if.end
	popq	%rbp
	.cfi_def_cfa %rsp, 8
	retq
.Lfunc_end12:
	.size	setExit, .Lfunc_end12-setExit
	.cfi_endproc
                                        # -- End function
	.p2align	4, 0x90         # -- Begin function testf
	.type	testf,@function
testf:                                  # @testf
	.cfi_startproc
# %bb.0:                                # %rand_bb
	pushq	%rbp
	.cfi_def_cfa_offset 16
	.cfi_offset %rbp, -16
	movq	%rsp, %rbp
	.cfi_def_cfa_register %rbp
	pushq	%rbx
	pushq	%rax
	.cfi_offset %rbx, -24
	movq	%rdi, %rbx
	callq	get_urand
	cmpl	$0, %eax
	jne	.LBB13_9
# %bb.1:                                # %func_testf.93
	movq	%rbx, %rdi
	callq	testf.93
	addq	$8, %rsp
	popq	%rbx
	popq	%rbp
	.cfi_def_cfa %rsp, 8
	retq
.LBB13_2:                               # %func_testf.151
	.cfi_def_cfa %rbp, 16
	movq	%rbx, %rdi
	callq	testf.151
	addq	$8, %rsp
	popq	%rbx
	popq	%rbp
	.cfi_def_cfa %rsp, 8
	retq
.LBB13_3:                               # %func_testf.157
	.cfi_def_cfa %rbp, 16
	movq	%rbx, %rdi
	callq	testf.157
	addq	$8, %rsp
	popq	%rbx
	popq	%rbp
	.cfi_def_cfa %rsp, 8
	retq
.LBB13_4:                               # %func_testf.163
	.cfi_def_cfa %rbp, 16
	movq	%rbx, %rdi
	callq	testf.163
	addq	$8, %rsp
	popq	%rbx
	popq	%rbp
	.cfi_def_cfa %rsp, 8
	retq
.LBB13_5:                               # %func_testf.165
	.cfi_def_cfa %rbp, 16
	movq	%rbx, %rdi
	callq	testf.165
	addq	$8, %rsp
	popq	%rbx
	popq	%rbp
	.cfi_def_cfa %rsp, 8
	retq
.LBB13_6:                               # %func_testf.167
	.cfi_def_cfa %rbp, 16
	movq	%rbx, %rdi
	callq	testf.167
	addq	$8, %rsp
	popq	%rbx
	popq	%rbp
	.cfi_def_cfa %rsp, 8
	retq
.LBB13_7:                               # %func_testf.171
	.cfi_def_cfa %rbp, 16
	movq	%rbx, %rdi
	callq	testf.171
	addq	$8, %rsp
	popq	%rbx
	popq	%rbp
	.cfi_def_cfa %rsp, 8
	retq
.LBB13_8:                               # %func_testf.172
	.cfi_def_cfa %rbp, 16
	movq	%rbx, %rdi
	callq	testf.172
	addq	$8, %rsp
	popq	%rbx
	popq	%rbp
	.cfi_def_cfa %rsp, 8
	retq
.LBB13_9:                               # %ctrl0
	.cfi_def_cfa %rbp, 16
	cmpl	$1, %eax
	je	.LBB13_2
# %bb.10:                               # %ctrl1
	cmpl	$2, %eax
	je	.LBB13_3
# %bb.11:                               # %ctrl2
	cmpl	$3, %eax
	je	.LBB13_4
# %bb.12:                               # %ctrl3
	cmpl	$4, %eax
	je	.LBB13_5
# %bb.13:                               # %ctrl4
	cmpl	$5, %eax
	je	.LBB13_6
# %bb.14:                               # %ctrl5
	cmpl	$6, %eax
	je	.LBB13_7
	jmp	.LBB13_8
.Lfunc_end13:
	.size	testf, .Lfunc_end13-testf
	.cfi_endproc
                                        # -- End function
	.p2align	4, 0x90         # -- Begin function showFileNames
	.type	showFileNames,@function
showFileNames:                          # @showFileNames
	.cfi_startproc
# %bb.0:                                # %entry
	pushq	%rbp
	.cfi_def_cfa_offset 16
	.cfi_offset %rbp, -16
	movq	%rsp, %rbp
	.cfi_def_cfa_register %rbp
	cmpb	$0, noisy
	je	.LBB14_2
# %bb.1:                                # %if.then
	movq	stderr, %rdi
	movabsq	$.L.str.38, %rsi
	movabsq	$inName, %rdx
	movabsq	$outName, %rcx
	movb	$0, %al
	callq	fprintf
.LBB14_2:                               # %if.end
	popq	%rbp
	.cfi_def_cfa %rsp, 8
	retq
.Lfunc_end14:
	.size	showFileNames, .Lfunc_end14-showFileNames
	.cfi_endproc
                                        # -- End function
	.p2align	4, 0x90         # -- Begin function cleanUpAndFail
	.type	cleanUpAndFail,@function
cleanUpAndFail:                         # @cleanUpAndFail
	.cfi_startproc
# %bb.0:                                # %rand_bb
	pushq	%rbp
	.cfi_def_cfa_offset 16
	.cfi_offset %rbp, -16
	movq	%rsp, %rbp
	.cfi_def_cfa_register %rbp
	pushq	%rbx
	pushq	%rax
	.cfi_offset %rbx, -24
	movl	%edi, %ebx
	callq	get_urand
	cmpl	$0, %eax
	jne	.LBB15_7
# %bb.1:                                # %func_cleanUpAndFail.35
	movl	%ebx, %edi
	callq	cleanUpAndFail.35
	addq	$8, %rsp
	popq	%rbx
	popq	%rbp
	.cfi_def_cfa %rsp, 8
	retq
.LBB15_2:                               # %func_cleanUpAndFail.41
	.cfi_def_cfa %rbp, 16
	movl	%ebx, %edi
	callq	cleanUpAndFail.41
	addq	$8, %rsp
	popq	%rbx
	popq	%rbp
	.cfi_def_cfa %rsp, 8
	retq
.LBB15_3:                               # %func_cleanUpAndFail.85
	.cfi_def_cfa %rbp, 16
	movl	%ebx, %edi
	callq	cleanUpAndFail.85
	addq	$8, %rsp
	popq	%rbx
	popq	%rbp
	.cfi_def_cfa %rsp, 8
	retq
.LBB15_4:                               # %func_cleanUpAndFail.92
	.cfi_def_cfa %rbp, 16
	movl	%ebx, %edi
	callq	cleanUpAndFail.92
	addq	$8, %rsp
	popq	%rbx
	popq	%rbp
	.cfi_def_cfa %rsp, 8
	retq
.LBB15_5:                               # %func_cleanUpAndFail.130
	.cfi_def_cfa %rbp, 16
	movl	%ebx, %edi
	callq	cleanUpAndFail.130
	addq	$8, %rsp
	popq	%rbx
	popq	%rbp
	.cfi_def_cfa %rsp, 8
	retq
.LBB15_6:                               # %func_cleanUpAndFail.150
	.cfi_def_cfa %rbp, 16
	movl	%ebx, %edi
	callq	cleanUpAndFail.150
	addq	$8, %rsp
	popq	%rbx
	popq	%rbp
	.cfi_def_cfa %rsp, 8
	retq
.LBB15_7:                               # %ctrl0
	.cfi_def_cfa %rbp, 16
	cmpl	$1, %eax
	je	.LBB15_2
# %bb.8:                                # %ctrl1
	cmpl	$2, %eax
	je	.LBB15_3
# %bb.9:                                # %ctrl2
	cmpl	$3, %eax
	je	.LBB15_4
# %bb.10:                               # %ctrl3
	cmpl	$4, %eax
	je	.LBB15_5
	jmp	.LBB15_6
.Lfunc_end15:
	.size	cleanUpAndFail, .Lfunc_end15-cleanUpAndFail
	.cfi_endproc
                                        # -- End function
	.p2align	4, 0x90         # -- Begin function cadvise
	.type	cadvise,@function
cadvise:                                # @cadvise
	.cfi_startproc
# %bb.0:                                # %entry
	pushq	%rbp
	.cfi_def_cfa_offset 16
	.cfi_offset %rbp, -16
	movq	%rsp, %rbp
	.cfi_def_cfa_register %rbp
	cmpb	$0, noisy
	je	.LBB16_2
# %bb.1:                                # %if.then
	movq	stderr, %rdi
	movabsq	$.L.str.46, %rsi
	movb	$0, %al
	callq	fprintf
.LBB16_2:                               # %if.end
	popq	%rbp
	.cfi_def_cfa %rsp, 8
	retq
.Lfunc_end16:
	.size	cadvise, .Lfunc_end16-cadvise
	.cfi_endproc
                                        # -- End function
	.p2align	4, 0x90         # -- Begin function mkCell
	.type	mkCell,@function
mkCell:                                 # @mkCell
	.cfi_startproc
# %bb.0:                                # %entry
	pushq	%rbp
	.cfi_def_cfa_offset 16
	.cfi_offset %rbp, -16
	movq	%rsp, %rbp
	.cfi_def_cfa_register %rbp
	subq	$16, %rsp
	movl	$16, %edi
	callq	myMalloc
	movq	%rax, -8(%rbp)
	movq	-8(%rbp), %rax
	movq	$0, (%rax)
	movq	-8(%rbp), %rax
	movq	$0, 8(%rax)
	movq	-8(%rbp), %rax
	addq	$16, %rsp
	popq	%rbp
	.cfi_def_cfa %rsp, 8
	retq
.Lfunc_end17:
	.size	mkCell, .Lfunc_end17-mkCell
	.cfi_endproc
                                        # -- End function
	.p2align	4, 0x90         # -- Begin function myMalloc
	.type	myMalloc,@function
myMalloc:                               # @myMalloc
	.cfi_startproc
# %bb.0:                                # %rand_bb
	pushq	%rbp
	.cfi_def_cfa_offset 16
	.cfi_offset %rbp, -16
	movq	%rsp, %rbp
	.cfi_def_cfa_register %rbp
	pushq	%rbx
	pushq	%rax
	.cfi_offset %rbx, -24
	movl	%edi, %ebx
	callq	get_urand
	cmpl	$0, %eax
	jne	.LBB18_2
# %bb.1:                                # %func_myMalloc.21
	movl	%ebx, %edi
	callq	myMalloc.21
	addq	$8, %rsp
	popq	%rbx
	popq	%rbp
	.cfi_def_cfa %rsp, 8
	retq
.LBB18_2:                               # %func_myMalloc.72
	.cfi_def_cfa %rbp, 16
	movl	%ebx, %edi
	callq	myMalloc.72
	addq	$8, %rsp
	popq	%rbx
	popq	%rbp
	.cfi_def_cfa %rsp, 8
	retq
.Lfunc_end18:
	.size	myMalloc, .Lfunc_end18-myMalloc
	.cfi_endproc
                                        # -- End function
	.p2align	4, 0x90         # -- Begin function outOfMemory
	.type	outOfMemory,@function
outOfMemory:                            # @outOfMemory
	.cfi_startproc
# %bb.0:                                # %entry
	pushq	%rbp
	.cfi_def_cfa_offset 16
	.cfi_offset %rbp, -16
	movq	%rsp, %rbp
	.cfi_def_cfa_register %rbp
	movq	stderr, %rdi
	movq	progName, %rdx
	movabsq	$.L.str.48, %rsi
	movb	$0, %al
	callq	fprintf
	callq	showFileNames
	movl	$1, %edi
	callq	cleanUpAndFail
.Lfunc_end19:
	.size	outOfMemory, .Lfunc_end19-outOfMemory
	.cfi_endproc
                                        # -- End function
	.p2align	4, 0x90         # -- Begin function panic
	.type	panic,@function
panic:                                  # @panic
	.cfi_startproc
# %bb.0:                                # %entry
	pushq	%rbp
	.cfi_def_cfa_offset 16
	.cfi_offset %rbp, -16
	movq	%rsp, %rbp
	.cfi_def_cfa_register %rbp
	subq	$16, %rsp
	movq	%rdi, -8(%rbp)
	movq	stderr, %rdi
	movq	progName, %rdx
	movq	-8(%rbp), %rcx
	movabsq	$.L.str.71, %rsi
	movb	$0, %al
	callq	fprintf
	callq	showFileNames
	movl	$3, %edi
	callq	cleanUpAndFail
.Lfunc_end20:
	.size	panic, .Lfunc_end20-panic
	.cfi_endproc
                                        # -- End function
	.p2align	4, 0x90         # -- Begin function containsDubiousChars
	.type	containsDubiousChars,@function
containsDubiousChars:                   # @containsDubiousChars
	.cfi_startproc
# %bb.0:                                # %entry
	pushq	%rbp
	.cfi_def_cfa_offset 16
	.cfi_offset %rbp, -16
	movq	%rsp, %rbp
	.cfi_def_cfa_register %rbp
	xorl	%eax, %eax
	movq	%rdi, -8(%rbp)
	movzbl	%al, %eax
	popq	%rbp
	.cfi_def_cfa %rsp, 8
	retq
.Lfunc_end21:
	.size	containsDubiousChars, .Lfunc_end21-containsDubiousChars
	.cfi_endproc
                                        # -- End function
	.p2align	4, 0x90         # -- Begin function fileExists
	.type	fileExists,@function
fileExists:                             # @fileExists
	.cfi_startproc
# %bb.0:                                # %rand_bb
	pushq	%rbp
	.cfi_def_cfa_offset 16
	.cfi_offset %rbp, -16
	movq	%rsp, %rbp
	.cfi_def_cfa_register %rbp
	pushq	%rbx
	pushq	%rax
	.cfi_offset %rbx, -24
	movq	%rdi, %rbx
	callq	get_urand
	cmpl	$0, %eax
	jne	.LBB22_7
# %bb.1:                                # %func_fileExists.11
	movq	%rbx, %rdi
	callq	fileExists.11
	movzbl	%al, %eax
	addq	$8, %rsp
	popq	%rbx
	popq	%rbp
	.cfi_def_cfa %rsp, 8
	retq
.LBB22_2:                               # %func_fileExists.50
	.cfi_def_cfa %rbp, 16
	movq	%rbx, %rdi
	callq	fileExists.50
	movzbl	%al, %eax
	addq	$8, %rsp
	popq	%rbx
	popq	%rbp
	.cfi_def_cfa %rsp, 8
	retq
.LBB22_3:                               # %func_fileExists.68
	.cfi_def_cfa %rbp, 16
	movq	%rbx, %rdi
	callq	fileExists.68
	movzbl	%al, %eax
	addq	$8, %rsp
	popq	%rbx
	popq	%rbp
	.cfi_def_cfa %rsp, 8
	retq
.LBB22_4:                               # %func_fileExists.83
	.cfi_def_cfa %rbp, 16
	movq	%rbx, %rdi
	callq	fileExists.83
	movzbl	%al, %eax
	addq	$8, %rsp
	popq	%rbx
	popq	%rbp
	.cfi_def_cfa %rsp, 8
	retq
.LBB22_5:                               # %func_fileExists.86
	.cfi_def_cfa %rbp, 16
	movq	%rbx, %rdi
	callq	fileExists.86
	movzbl	%al, %eax
	addq	$8, %rsp
	popq	%rbx
	popq	%rbp
	.cfi_def_cfa %rsp, 8
	retq
.LBB22_6:                               # %func_fileExists.88
	.cfi_def_cfa %rbp, 16
	movq	%rbx, %rdi
	callq	fileExists.88
	movzbl	%al, %eax
	addq	$8, %rsp
	popq	%rbx
	popq	%rbp
	.cfi_def_cfa %rsp, 8
	retq
.LBB22_7:                               # %ctrl0
	.cfi_def_cfa %rbp, 16
	cmpl	$1, %eax
	je	.LBB22_2
# %bb.8:                                # %ctrl1
	cmpl	$2, %eax
	je	.LBB22_3
# %bb.9:                                # %ctrl2
	cmpl	$3, %eax
	je	.LBB22_4
# %bb.10:                               # %ctrl3
	cmpl	$4, %eax
	je	.LBB22_5
	jmp	.LBB22_6
.Lfunc_end22:
	.size	fileExists, .Lfunc_end22-fileExists
	.cfi_endproc
                                        # -- End function
	.p2align	4, 0x90         # -- Begin function hasSuffix
	.type	hasSuffix,@function
hasSuffix:                              # @hasSuffix
	.cfi_startproc
# %bb.0:                                # %rand_bb
	pushq	%rbp
	.cfi_def_cfa_offset 16
	.cfi_offset %rbp, -16
	movq	%rsp, %rbp
	.cfi_def_cfa_register %rbp
	pushq	%r14
	pushq	%rbx
	.cfi_offset %rbx, -32
	.cfi_offset %r14, -24
	movq	%rsi, %r14
	movq	%rdi, %rbx
	callq	get_urand
	cmpl	$0, %eax
	jne	.LBB23_9
# %bb.1:                                # %func_hasSuffix.9
	movq	%rbx, %rdi
	movq	%r14, %rsi
	callq	hasSuffix.9
	movzbl	%al, %eax
	popq	%rbx
	popq	%r14
	popq	%rbp
	.cfi_def_cfa %rsp, 8
	retq
.LBB23_2:                               # %func_hasSuffix.45
	.cfi_def_cfa %rbp, 16
	movq	%rbx, %rdi
	movq	%r14, %rsi
	callq	hasSuffix.45
	movzbl	%al, %eax
	popq	%rbx
	popq	%r14
	popq	%rbp
	.cfi_def_cfa %rsp, 8
	retq
.LBB23_3:                               # %func_hasSuffix.69
	.cfi_def_cfa %rbp, 16
	movq	%rbx, %rdi
	movq	%r14, %rsi
	callq	hasSuffix.69
	movzbl	%al, %eax
	popq	%rbx
	popq	%r14
	popq	%rbp
	.cfi_def_cfa %rsp, 8
	retq
.LBB23_4:                               # %func_hasSuffix.84
	.cfi_def_cfa %rbp, 16
	movq	%rbx, %rdi
	movq	%r14, %rsi
	callq	hasSuffix.84
	movzbl	%al, %eax
	popq	%rbx
	popq	%r14
	popq	%rbp
	.cfi_def_cfa %rsp, 8
	retq
.LBB23_5:                               # %func_hasSuffix.91
	.cfi_def_cfa %rbp, 16
	movq	%rbx, %rdi
	movq	%r14, %rsi
	callq	hasSuffix.91
	movzbl	%al, %eax
	popq	%rbx
	popq	%r14
	popq	%rbp
	.cfi_def_cfa %rsp, 8
	retq
.LBB23_6:                               # %func_hasSuffix.95
	.cfi_def_cfa %rbp, 16
	movq	%rbx, %rdi
	movq	%r14, %rsi
	callq	hasSuffix.95
	movzbl	%al, %eax
	popq	%rbx
	popq	%r14
	popq	%rbp
	.cfi_def_cfa %rsp, 8
	retq
.LBB23_7:                               # %func_hasSuffix.98
	.cfi_def_cfa %rbp, 16
	movq	%rbx, %rdi
	movq	%r14, %rsi
	callq	hasSuffix.98
	movzbl	%al, %eax
	popq	%rbx
	popq	%r14
	popq	%rbp
	.cfi_def_cfa %rsp, 8
	retq
.LBB23_8:                               # %func_hasSuffix.122
	.cfi_def_cfa %rbp, 16
	movq	%rbx, %rdi
	movq	%r14, %rsi
	callq	hasSuffix.122
	movzbl	%al, %eax
	popq	%rbx
	popq	%r14
	popq	%rbp
	.cfi_def_cfa %rsp, 8
	retq
.LBB23_9:                               # %ctrl0
	.cfi_def_cfa %rbp, 16
	cmpl	$1, %eax
	je	.LBB23_2
# %bb.10:                               # %ctrl1
	cmpl	$2, %eax
	je	.LBB23_3
# %bb.11:                               # %ctrl2
	cmpl	$3, %eax
	je	.LBB23_4
# %bb.12:                               # %ctrl3
	cmpl	$4, %eax
	je	.LBB23_5
# %bb.13:                               # %ctrl4
	cmpl	$5, %eax
	je	.LBB23_6
# %bb.14:                               # %ctrl5
	cmpl	$6, %eax
	je	.LBB23_7
	jmp	.LBB23_8
.Lfunc_end23:
	.size	hasSuffix, .Lfunc_end23-hasSuffix
	.cfi_endproc
                                        # -- End function
	.p2align	4, 0x90         # -- Begin function notAStandardFile
	.type	notAStandardFile,@function
notAStandardFile:                       # @notAStandardFile
	.cfi_startproc
# %bb.0:                                # %rand_bb
	pushq	%rbp
	.cfi_def_cfa_offset 16
	.cfi_offset %rbp, -16
	movq	%rsp, %rbp
	.cfi_def_cfa_register %rbp
	pushq	%rbx
	pushq	%rax
	.cfi_offset %rbx, -24
	movq	%rdi, %rbx
	callq	get_urand
	cmpl	$0, %eax
	jne	.LBB24_9
# %bb.1:                                # %func_notAStandardFile.64
	movq	%rbx, %rdi
	callq	notAStandardFile.64
	movzbl	%al, %eax
	addq	$8, %rsp
	popq	%rbx
	popq	%rbp
	.cfi_def_cfa %rsp, 8
	retq
.LBB24_2:                               # %func_notAStandardFile.70
	.cfi_def_cfa %rbp, 16
	movq	%rbx, %rdi
	callq	notAStandardFile.70
	movzbl	%al, %eax
	addq	$8, %rsp
	popq	%rbx
	popq	%rbp
	.cfi_def_cfa %rsp, 8
	retq
.LBB24_3:                               # %func_notAStandardFile.76
	.cfi_def_cfa %rbp, 16
	movq	%rbx, %rdi
	callq	notAStandardFile.76
	movzbl	%al, %eax
	addq	$8, %rsp
	popq	%rbx
	popq	%rbp
	.cfi_def_cfa %rsp, 8
	retq
.LBB24_4:                               # %func_notAStandardFile.104
	.cfi_def_cfa %rbp, 16
	movq	%rbx, %rdi
	callq	notAStandardFile.104
	movzbl	%al, %eax
	addq	$8, %rsp
	popq	%rbx
	popq	%rbp
	.cfi_def_cfa %rsp, 8
	retq
.LBB24_5:                               # %func_notAStandardFile.105
	.cfi_def_cfa %rbp, 16
	movq	%rbx, %rdi
	callq	notAStandardFile.105
	movzbl	%al, %eax
	addq	$8, %rsp
	popq	%rbx
	popq	%rbp
	.cfi_def_cfa %rsp, 8
	retq
.LBB24_6:                               # %func_notAStandardFile.132
	.cfi_def_cfa %rbp, 16
	movq	%rbx, %rdi
	callq	notAStandardFile.132
	movzbl	%al, %eax
	addq	$8, %rsp
	popq	%rbx
	popq	%rbp
	.cfi_def_cfa %rsp, 8
	retq
.LBB24_7:                               # %func_notAStandardFile.144
	.cfi_def_cfa %rbp, 16
	movq	%rbx, %rdi
	callq	notAStandardFile.144
	movzbl	%al, %eax
	addq	$8, %rsp
	popq	%rbx
	popq	%rbp
	.cfi_def_cfa %rsp, 8
	retq
.LBB24_8:                               # %func_notAStandardFile.146
	.cfi_def_cfa %rbp, 16
	movq	%rbx, %rdi
	callq	notAStandardFile.146
	movzbl	%al, %eax
	addq	$8, %rsp
	popq	%rbx
	popq	%rbp
	.cfi_def_cfa %rsp, 8
	retq
.LBB24_9:                               # %ctrl0
	.cfi_def_cfa %rbp, 16
	cmpl	$1, %eax
	je	.LBB24_2
# %bb.10:                               # %ctrl1
	cmpl	$2, %eax
	je	.LBB24_3
# %bb.11:                               # %ctrl2
	cmpl	$3, %eax
	je	.LBB24_4
# %bb.12:                               # %ctrl3
	cmpl	$4, %eax
	je	.LBB24_5
# %bb.13:                               # %ctrl4
	cmpl	$5, %eax
	je	.LBB24_6
# %bb.14:                               # %ctrl5
	cmpl	$6, %eax
	je	.LBB24_7
	jmp	.LBB24_8
.Lfunc_end24:
	.size	notAStandardFile, .Lfunc_end24-notAStandardFile
	.cfi_endproc
                                        # -- End function
	.p2align	4, 0x90         # -- Begin function countHardLinks
	.type	countHardLinks,@function
countHardLinks:                         # @countHardLinks
	.cfi_startproc
# %bb.0:                                # %rand_bb
	pushq	%rbp
	.cfi_def_cfa_offset 16
	.cfi_offset %rbp, -16
	movq	%rsp, %rbp
	.cfi_def_cfa_register %rbp
	pushq	%rbx
	pushq	%rax
	.cfi_offset %rbx, -24
	movq	%rdi, %rbx
	callq	get_urand
	cmpl	$0, %eax
	jne	.LBB25_9
# %bb.1:                                # %func_countHardLinks.20
	movq	%rbx, %rdi
	callq	countHardLinks.20
	addq	$8, %rsp
	popq	%rbx
	popq	%rbp
	.cfi_def_cfa %rsp, 8
	retq
.LBB25_2:                               # %func_countHardLinks.44
	.cfi_def_cfa %rbp, 16
	movq	%rbx, %rdi
	callq	countHardLinks.44
	addq	$8, %rsp
	popq	%rbx
	popq	%rbp
	.cfi_def_cfa %rsp, 8
	retq
.LBB25_3:                               # %func_countHardLinks.101
	.cfi_def_cfa %rbp, 16
	movq	%rbx, %rdi
	callq	countHardLinks.101
	addq	$8, %rsp
	popq	%rbx
	popq	%rbp
	.cfi_def_cfa %rsp, 8
	retq
.LBB25_4:                               # %func_countHardLinks.114
	.cfi_def_cfa %rbp, 16
	movq	%rbx, %rdi
	callq	countHardLinks.114
	addq	$8, %rsp
	popq	%rbx
	popq	%rbp
	.cfi_def_cfa %rsp, 8
	retq
.LBB25_5:                               # %func_countHardLinks.148
	.cfi_def_cfa %rbp, 16
	movq	%rbx, %rdi
	callq	countHardLinks.148
	addq	$8, %rsp
	popq	%rbx
	popq	%rbp
	.cfi_def_cfa %rsp, 8
	retq
.LBB25_6:                               # %func_countHardLinks.155
	.cfi_def_cfa %rbp, 16
	movq	%rbx, %rdi
	callq	countHardLinks.155
	addq	$8, %rsp
	popq	%rbx
	popq	%rbp
	.cfi_def_cfa %rsp, 8
	retq
.LBB25_7:                               # %func_countHardLinks.166
	.cfi_def_cfa %rbp, 16
	movq	%rbx, %rdi
	callq	countHardLinks.166
	addq	$8, %rsp
	popq	%rbx
	popq	%rbp
	.cfi_def_cfa %rsp, 8
	retq
.LBB25_8:                               # %func_countHardLinks.168
	.cfi_def_cfa %rbp, 16
	movq	%rbx, %rdi
	callq	countHardLinks.168
	addq	$8, %rsp
	popq	%rbx
	popq	%rbp
	.cfi_def_cfa %rsp, 8
	retq
.LBB25_9:                               # %ctrl0
	.cfi_def_cfa %rbp, 16
	cmpl	$1, %eax
	je	.LBB25_2
# %bb.10:                               # %ctrl1
	cmpl	$2, %eax
	je	.LBB25_3
# %bb.11:                               # %ctrl2
	cmpl	$3, %eax
	je	.LBB25_4
# %bb.12:                               # %ctrl3
	cmpl	$4, %eax
	je	.LBB25_5
# %bb.13:                               # %ctrl4
	cmpl	$5, %eax
	je	.LBB25_6
# %bb.14:                               # %ctrl5
	cmpl	$6, %eax
	je	.LBB25_7
	jmp	.LBB25_8
.Lfunc_end25:
	.size	countHardLinks, .Lfunc_end25-countHardLinks
	.cfi_endproc
                                        # -- End function
	.p2align	4, 0x90         # -- Begin function saveInputFileMetaInfo
	.type	saveInputFileMetaInfo,@function
saveInputFileMetaInfo:                  # @saveInputFileMetaInfo
	.cfi_startproc
# %bb.0:                                # %rand_bb
	pushq	%rbp
	.cfi_def_cfa_offset 16
	.cfi_offset %rbp, -16
	movq	%rsp, %rbp
	.cfi_def_cfa_register %rbp
	pushq	%rbx
	pushq	%rax
	.cfi_offset %rbx, -24
	movq	%rdi, %rbx
	callq	get_urand
	cmpl	$0, %eax
	jne	.LBB26_2
# %bb.1:                                # %func_saveInputFileMetaInfo.82
	movq	%rbx, %rdi
	callq	saveInputFileMetaInfo.82
	addq	$8, %rsp
	popq	%rbx
	popq	%rbp
	.cfi_def_cfa %rsp, 8
	retq
.LBB26_2:                               # %func_saveInputFileMetaInfo.106
	.cfi_def_cfa %rbp, 16
	movq	%rbx, %rdi
	callq	saveInputFileMetaInfo.106
	addq	$8, %rsp
	popq	%rbx
	popq	%rbp
	.cfi_def_cfa %rsp, 8
	retq
.Lfunc_end26:
	.size	saveInputFileMetaInfo, .Lfunc_end26-saveInputFileMetaInfo
	.cfi_endproc
                                        # -- End function
	.p2align	4, 0x90         # -- Begin function pad
	.type	pad,@function
pad:                                    # @pad
	.cfi_startproc
# %bb.0:                                # %rand_bb
	pushq	%rbp
	.cfi_def_cfa_offset 16
	.cfi_offset %rbp, -16
	movq	%rsp, %rbp
	.cfi_def_cfa_register %rbp
	pushq	%rbx
	pushq	%rax
	.cfi_offset %rbx, -24
	movq	%rdi, %rbx
	callq	get_urand
	cmpl	$0, %eax
	jne	.LBB27_2
# %bb.1:                                # %func_pad.22
	movq	%rbx, %rdi
	callq	pad.22
	addq	$8, %rsp
	popq	%rbx
	popq	%rbp
	.cfi_def_cfa %rsp, 8
	retq
.LBB27_2:                               # %func_pad.77
	.cfi_def_cfa %rbp, 16
	movq	%rbx, %rdi
	callq	pad.77
	addq	$8, %rsp
	popq	%rbx
	popq	%rbp
	.cfi_def_cfa %rsp, 8
	retq
.Lfunc_end27:
	.size	pad, .Lfunc_end27-pad
	.cfi_endproc
                                        # -- End function
	.p2align	4, 0x90         # -- Begin function compressStream
	.type	compressStream,@function
compressStream:                         # @compressStream
	.cfi_startproc
# %bb.0:                                # %rand_bb
	pushq	%rbp
	.cfi_def_cfa_offset 16
	.cfi_offset %rbp, -16
	movq	%rsp, %rbp
	.cfi_def_cfa_register %rbp
	pushq	%r14
	pushq	%rbx
	.cfi_offset %rbx, -32
	.cfi_offset %r14, -24
	movq	%rsi, %r14
	movq	%rdi, %rbx
	callq	get_urand
	cmpl	$0, %eax
	jne	.LBB28_9
# %bb.1:                                # %func_compressStream.5
	movq	%rbx, %rdi
	movq	%r14, %rsi
	callq	compressStream.5
	popq	%rbx
	popq	%r14
	popq	%rbp
	.cfi_def_cfa %rsp, 8
	retq
.LBB28_2:                               # %func_compressStream.12
	.cfi_def_cfa %rbp, 16
	movq	%rbx, %rdi
	movq	%r14, %rsi
	callq	compressStream.12
	popq	%rbx
	popq	%r14
	popq	%rbp
	.cfi_def_cfa %rsp, 8
	retq
.LBB28_3:                               # %func_compressStream.48
	.cfi_def_cfa %rbp, 16
	movq	%rbx, %rdi
	movq	%r14, %rsi
	callq	compressStream.48
	popq	%rbx
	popq	%r14
	popq	%rbp
	.cfi_def_cfa %rsp, 8
	retq
.LBB28_4:                               # %func_compressStream.55
	.cfi_def_cfa %rbp, 16
	movq	%rbx, %rdi
	movq	%r14, %rsi
	callq	compressStream.55
	popq	%rbx
	popq	%r14
	popq	%rbp
	.cfi_def_cfa %rsp, 8
	retq
.LBB28_5:                               # %func_compressStream.71
	.cfi_def_cfa %rbp, 16
	movq	%rbx, %rdi
	movq	%r14, %rsi
	callq	compressStream.71
	popq	%rbx
	popq	%r14
	popq	%rbp
	.cfi_def_cfa %rsp, 8
	retq
.LBB28_6:                               # %func_compressStream.80
	.cfi_def_cfa %rbp, 16
	movq	%rbx, %rdi
	movq	%r14, %rsi
	callq	compressStream.80
	popq	%rbx
	popq	%r14
	popq	%rbp
	.cfi_def_cfa %rsp, 8
	retq
.LBB28_7:                               # %func_compressStream.109
	.cfi_def_cfa %rbp, 16
	movq	%rbx, %rdi
	movq	%r14, %rsi
	callq	compressStream.109
	popq	%rbx
	popq	%r14
	popq	%rbp
	.cfi_def_cfa %rsp, 8
	retq
.LBB28_8:                               # %func_compressStream.127
	.cfi_def_cfa %rbp, 16
	movq	%rbx, %rdi
	movq	%r14, %rsi
	callq	compressStream.127
	popq	%rbx
	popq	%r14
	popq	%rbp
	.cfi_def_cfa %rsp, 8
	retq
.LBB28_9:                               # %ctrl0
	.cfi_def_cfa %rbp, 16
	cmpl	$1, %eax
	je	.LBB28_2
# %bb.10:                               # %ctrl1
	cmpl	$2, %eax
	je	.LBB28_3
# %bb.11:                               # %ctrl2
	cmpl	$3, %eax
	je	.LBB28_4
# %bb.12:                               # %ctrl3
	cmpl	$4, %eax
	je	.LBB28_5
# %bb.13:                               # %ctrl4
	cmpl	$5, %eax
	je	.LBB28_6
# %bb.14:                               # %ctrl5
	cmpl	$6, %eax
	je	.LBB28_7
	jmp	.LBB28_8
.Lfunc_end28:
	.size	compressStream, .Lfunc_end28-compressStream
	.cfi_endproc
                                        # -- End function
	.p2align	4, 0x90         # -- Begin function applySavedMetaInfoToOutputFile
	.type	applySavedMetaInfoToOutputFile,@function
applySavedMetaInfoToOutputFile:         # @applySavedMetaInfoToOutputFile
	.cfi_startproc
# %bb.0:                                # %rand_bb
	pushq	%rbp
	.cfi_def_cfa_offset 16
	.cfi_offset %rbp, -16
	movq	%rsp, %rbp
	.cfi_def_cfa_register %rbp
	pushq	%rbx
	pushq	%rax
	.cfi_offset %rbx, -24
	movq	%rdi, %rbx
	callq	get_urand
	cmpl	$0, %eax
	jne	.LBB29_7
# %bb.1:                                # %func_applySavedMetaInfoToOutputFile.25
	movq	%rbx, %rdi
	callq	applySavedMetaInfoToOutputFile.25
	addq	$8, %rsp
	popq	%rbx
	popq	%rbp
	.cfi_def_cfa %rsp, 8
	retq
.LBB29_2:                               # %func_applySavedMetaInfoToOutputFile.36
	.cfi_def_cfa %rbp, 16
	movq	%rbx, %rdi
	callq	applySavedMetaInfoToOutputFile.36
	addq	$8, %rsp
	popq	%rbx
	popq	%rbp
	.cfi_def_cfa %rsp, 8
	retq
.LBB29_3:                               # %func_applySavedMetaInfoToOutputFile.46
	.cfi_def_cfa %rbp, 16
	movq	%rbx, %rdi
	callq	applySavedMetaInfoToOutputFile.46
	addq	$8, %rsp
	popq	%rbx
	popq	%rbp
	.cfi_def_cfa %rsp, 8
	retq
.LBB29_4:                               # %func_applySavedMetaInfoToOutputFile.49
	.cfi_def_cfa %rbp, 16
	movq	%rbx, %rdi
	callq	applySavedMetaInfoToOutputFile.49
	addq	$8, %rsp
	popq	%rbx
	popq	%rbp
	.cfi_def_cfa %rsp, 8
	retq
.LBB29_5:                               # %func_applySavedMetaInfoToOutputFile.61
	.cfi_def_cfa %rbp, 16
	movq	%rbx, %rdi
	callq	applySavedMetaInfoToOutputFile.61
	addq	$8, %rsp
	popq	%rbx
	popq	%rbp
	.cfi_def_cfa %rsp, 8
	retq
.LBB29_6:                               # %func_applySavedMetaInfoToOutputFile.134
	.cfi_def_cfa %rbp, 16
	movq	%rbx, %rdi
	callq	applySavedMetaInfoToOutputFile.134
	addq	$8, %rsp
	popq	%rbx
	popq	%rbp
	.cfi_def_cfa %rsp, 8
	retq
.LBB29_7:                               # %ctrl0
	.cfi_def_cfa %rbp, 16
	cmpl	$1, %eax
	je	.LBB29_2
# %bb.8:                                # %ctrl1
	cmpl	$2, %eax
	je	.LBB29_3
# %bb.9:                                # %ctrl2
	cmpl	$3, %eax
	je	.LBB29_4
# %bb.10:                               # %ctrl3
	cmpl	$4, %eax
	je	.LBB29_5
	jmp	.LBB29_6
.Lfunc_end29:
	.size	applySavedMetaInfoToOutputFile, .Lfunc_end29-applySavedMetaInfoToOutputFile
	.cfi_endproc
                                        # -- End function
	.p2align	4, 0x90         # -- Begin function ioError
	.type	ioError,@function
ioError:                                # @ioError
	.cfi_startproc
# %bb.0:                                # %entry
	pushq	%rbp
	.cfi_def_cfa_offset 16
	.cfi_offset %rbp, -16
	movq	%rsp, %rbp
	.cfi_def_cfa_register %rbp
	movq	stderr, %rdi
	movq	progName, %rdx
	movabsq	$.L.str.78, %rsi
	movb	$0, %al
	callq	fprintf
	movq	progName, %rdi
	callq	perror
	callq	showFileNames
	movl	$1, %edi
	callq	cleanUpAndFail
.Lfunc_end30:
	.size	ioError, .Lfunc_end30-ioError
	.cfi_endproc
                                        # -- End function
	.p2align	4, 0x90         # -- Begin function myfeof
	.type	myfeof,@function
myfeof:                                 # @myfeof
	.cfi_startproc
# %bb.0:                                # %rand_bb
	pushq	%rbp
	.cfi_def_cfa_offset 16
	.cfi_offset %rbp, -16
	movq	%rsp, %rbp
	.cfi_def_cfa_register %rbp
	pushq	%rbx
	pushq	%rax
	.cfi_offset %rbx, -24
	movq	%rdi, %rbx
	callq	get_urand
	cmpl	$0, %eax
	jne	.LBB31_7
# %bb.1:                                # %func_myfeof.58
	movq	%rbx, %rdi
	callq	myfeof.58
	movzbl	%al, %eax
	addq	$8, %rsp
	popq	%rbx
	popq	%rbp
	.cfi_def_cfa %rsp, 8
	retq
.LBB31_2:                               # %func_myfeof.66
	.cfi_def_cfa %rbp, 16
	movq	%rbx, %rdi
	callq	myfeof.66
	movzbl	%al, %eax
	addq	$8, %rsp
	popq	%rbx
	popq	%rbp
	.cfi_def_cfa %rsp, 8
	retq
.LBB31_3:                               # %func_myfeof.78
	.cfi_def_cfa %rbp, 16
	movq	%rbx, %rdi
	callq	myfeof.78
	movzbl	%al, %eax
	addq	$8, %rsp
	popq	%rbx
	popq	%rbp
	.cfi_def_cfa %rsp, 8
	retq
.LBB31_4:                               # %func_myfeof.97
	.cfi_def_cfa %rbp, 16
	movq	%rbx, %rdi
	callq	myfeof.97
	movzbl	%al, %eax
	addq	$8, %rsp
	popq	%rbx
	popq	%rbp
	.cfi_def_cfa %rsp, 8
	retq
.LBB31_5:                               # %func_myfeof.112
	.cfi_def_cfa %rbp, 16
	movq	%rbx, %rdi
	callq	myfeof.112
	movzbl	%al, %eax
	addq	$8, %rsp
	popq	%rbx
	popq	%rbp
	.cfi_def_cfa %rsp, 8
	retq
.LBB31_6:                               # %func_myfeof.131
	.cfi_def_cfa %rbp, 16
	movq	%rbx, %rdi
	callq	myfeof.131
	movzbl	%al, %eax
	addq	$8, %rsp
	popq	%rbx
	popq	%rbp
	.cfi_def_cfa %rsp, 8
	retq
.LBB31_7:                               # %ctrl0
	.cfi_def_cfa %rbp, 16
	cmpl	$1, %eax
	je	.LBB31_2
# %bb.8:                                # %ctrl1
	cmpl	$2, %eax
	je	.LBB31_3
# %bb.9:                                # %ctrl2
	cmpl	$3, %eax
	je	.LBB31_4
# %bb.10:                               # %ctrl3
	cmpl	$4, %eax
	je	.LBB31_5
	jmp	.LBB31_6
.Lfunc_end31:
	.size	myfeof, .Lfunc_end31-myfeof
	.cfi_endproc
                                        # -- End function
	.p2align	4, 0x90         # -- Begin function uInt64_from_UInt32s
	.type	uInt64_from_UInt32s,@function
uInt64_from_UInt32s:                    # @uInt64_from_UInt32s
	.cfi_startproc
# %bb.0:                                # %rand_bb
	pushq	%rbp
	.cfi_def_cfa_offset 16
	.cfi_offset %rbp, -16
	movq	%rsp, %rbp
	.cfi_def_cfa_register %rbp
	pushq	%r15
	pushq	%r14
	pushq	%rbx
	pushq	%rax
	.cfi_offset %rbx, -40
	.cfi_offset %r14, -32
	.cfi_offset %r15, -24
	movl	%edx, %r14d
	movl	%esi, %r15d
	movq	%rdi, %rbx
	callq	get_urand
	cmpl	$0, %eax
	jne	.LBB32_7
# %bb.1:                                # %func_uInt64_from_UInt32s.16
	movq	%rbx, %rdi
	movl	%r15d, %esi
	movl	%r14d, %edx
	callq	uInt64_from_UInt32s.16
	addq	$8, %rsp
	popq	%rbx
	popq	%r14
	popq	%r15
	popq	%rbp
	.cfi_def_cfa %rsp, 8
	retq
.LBB32_2:                               # %func_uInt64_from_UInt32s.23
	.cfi_def_cfa %rbp, 16
	movq	%rbx, %rdi
	movl	%r15d, %esi
	movl	%r14d, %edx
	callq	uInt64_from_UInt32s.23
	addq	$8, %rsp
	popq	%rbx
	popq	%r14
	popq	%r15
	popq	%rbp
	.cfi_def_cfa %rsp, 8
	retq
.LBB32_3:                               # %func_uInt64_from_UInt32s.24
	.cfi_def_cfa %rbp, 16
	movq	%rbx, %rdi
	movl	%r15d, %esi
	movl	%r14d, %edx
	callq	uInt64_from_UInt32s.24
	addq	$8, %rsp
	popq	%rbx
	popq	%r14
	popq	%r15
	popq	%rbp
	.cfi_def_cfa %rsp, 8
	retq
.LBB32_4:                               # %func_uInt64_from_UInt32s.54
	.cfi_def_cfa %rbp, 16
	movq	%rbx, %rdi
	movl	%r15d, %esi
	movl	%r14d, %edx
	callq	uInt64_from_UInt32s.54
	addq	$8, %rsp
	popq	%rbx
	popq	%r14
	popq	%r15
	popq	%rbp
	.cfi_def_cfa %rsp, 8
	retq
.LBB32_5:                               # %func_uInt64_from_UInt32s.56
	.cfi_def_cfa %rbp, 16
	movq	%rbx, %rdi
	movl	%r15d, %esi
	movl	%r14d, %edx
	callq	uInt64_from_UInt32s.56
	addq	$8, %rsp
	popq	%rbx
	popq	%r14
	popq	%r15
	popq	%rbp
	.cfi_def_cfa %rsp, 8
	retq
.LBB32_6:                               # %func_uInt64_from_UInt32s.59
	.cfi_def_cfa %rbp, 16
	movq	%rbx, %rdi
	movl	%r15d, %esi
	movl	%r14d, %edx
	callq	uInt64_from_UInt32s.59
	addq	$8, %rsp
	popq	%rbx
	popq	%r14
	popq	%r15
	popq	%rbp
	.cfi_def_cfa %rsp, 8
	retq
.LBB32_7:                               # %ctrl0
	.cfi_def_cfa %rbp, 16
	cmpl	$1, %eax
	je	.LBB32_2
# %bb.8:                                # %ctrl1
	cmpl	$2, %eax
	je	.LBB32_3
# %bb.9:                                # %ctrl2
	cmpl	$3, %eax
	je	.LBB32_4
# %bb.10:                               # %ctrl3
	cmpl	$4, %eax
	je	.LBB32_5
	jmp	.LBB32_6
.Lfunc_end32:
	.size	uInt64_from_UInt32s, .Lfunc_end32-uInt64_from_UInt32s
	.cfi_endproc
                                        # -- End function
	.p2align	4, 0x90         # -- Begin function uInt64_to_double
	.type	uInt64_to_double,@function
uInt64_to_double:                       # @uInt64_to_double
	.cfi_startproc
# %bb.0:                                # %rand_bb
	pushq	%rbp
	.cfi_def_cfa_offset 16
	.cfi_offset %rbp, -16
	movq	%rsp, %rbp
	.cfi_def_cfa_register %rbp
	pushq	%rbx
	pushq	%rax
	.cfi_offset %rbx, -24
	movq	%rdi, %rbx
	callq	get_urand
	cmpl	$0, %eax
	jne	.LBB33_9
# %bb.1:                                # %func_uInt64_to_double.34
	movq	%rbx, %rdi
	callq	uInt64_to_double.34
	addq	$8, %rsp
	popq	%rbx
	popq	%rbp
	.cfi_def_cfa %rsp, 8
	retq
.LBB33_2:                               # %func_uInt64_to_double.37
	.cfi_def_cfa %rbp, 16
	movq	%rbx, %rdi
	callq	uInt64_to_double.37
	addq	$8, %rsp
	popq	%rbx
	popq	%rbp
	.cfi_def_cfa %rsp, 8
	retq
.LBB33_3:                               # %func_uInt64_to_double.39
	.cfi_def_cfa %rbp, 16
	movq	%rbx, %rdi
	callq	uInt64_to_double.39
	addq	$8, %rsp
	popq	%rbx
	popq	%rbp
	.cfi_def_cfa %rsp, 8
	retq
.LBB33_4:                               # %func_uInt64_to_double.81
	.cfi_def_cfa %rbp, 16
	movq	%rbx, %rdi
	callq	uInt64_to_double.81
	addq	$8, %rsp
	popq	%rbx
	popq	%rbp
	.cfi_def_cfa %rsp, 8
	retq
.LBB33_5:                               # %func_uInt64_to_double.89
	.cfi_def_cfa %rbp, 16
	movq	%rbx, %rdi
	callq	uInt64_to_double.89
	addq	$8, %rsp
	popq	%rbx
	popq	%rbp
	.cfi_def_cfa %rsp, 8
	retq
.LBB33_6:                               # %func_uInt64_to_double.133
	.cfi_def_cfa %rbp, 16
	movq	%rbx, %rdi
	callq	uInt64_to_double.133
	addq	$8, %rsp
	popq	%rbx
	popq	%rbp
	.cfi_def_cfa %rsp, 8
	retq
.LBB33_7:                               # %func_uInt64_to_double.139
	.cfi_def_cfa %rbp, 16
	movq	%rbx, %rdi
	callq	uInt64_to_double.139
	addq	$8, %rsp
	popq	%rbx
	popq	%rbp
	.cfi_def_cfa %rsp, 8
	retq
.LBB33_8:                               # %func_uInt64_to_double.161
	.cfi_def_cfa %rbp, 16
	movq	%rbx, %rdi
	callq	uInt64_to_double.161
	addq	$8, %rsp
	popq	%rbx
	popq	%rbp
	.cfi_def_cfa %rsp, 8
	retq
.LBB33_9:                               # %ctrl0
	.cfi_def_cfa %rbp, 16
	cmpl	$1, %eax
	je	.LBB33_2
# %bb.10:                               # %ctrl1
	cmpl	$2, %eax
	je	.LBB33_3
# %bb.11:                               # %ctrl2
	cmpl	$3, %eax
	je	.LBB33_4
# %bb.12:                               # %ctrl3
	cmpl	$4, %eax
	je	.LBB33_5
# %bb.13:                               # %ctrl4
	cmpl	$5, %eax
	je	.LBB33_6
# %bb.14:                               # %ctrl5
	cmpl	$6, %eax
	je	.LBB33_7
	jmp	.LBB33_8
.Lfunc_end33:
	.size	uInt64_to_double, .Lfunc_end33-uInt64_to_double
	.cfi_endproc
                                        # -- End function
	.p2align	4, 0x90         # -- Begin function uInt64_toAscii
	.type	uInt64_toAscii,@function
uInt64_toAscii:                         # @uInt64_toAscii
	.cfi_startproc
# %bb.0:                                # %rand_bb
	pushq	%rbp
	.cfi_def_cfa_offset 16
	.cfi_offset %rbp, -16
	movq	%rsp, %rbp
	.cfi_def_cfa_register %rbp
	pushq	%r14
	pushq	%rbx
	.cfi_offset %rbx, -32
	.cfi_offset %r14, -24
	movq	%rsi, %r14
	movq	%rdi, %rbx
	callq	get_urand
	cmpl	$0, %eax
	jne	.LBB34_9
# %bb.1:                                # %func_uInt64_toAscii.3
	movq	%rbx, %rdi
	movq	%r14, %rsi
	callq	uInt64_toAscii.3
	popq	%rbx
	popq	%r14
	popq	%rbp
	.cfi_def_cfa %rsp, 8
	retq
.LBB34_2:                               # %func_uInt64_toAscii.79
	.cfi_def_cfa %rbp, 16
	movq	%rbx, %rdi
	movq	%r14, %rsi
	callq	uInt64_toAscii.79
	popq	%rbx
	popq	%r14
	popq	%rbp
	.cfi_def_cfa %rsp, 8
	retq
.LBB34_3:                               # %func_uInt64_toAscii.107
	.cfi_def_cfa %rbp, 16
	movq	%rbx, %rdi
	movq	%r14, %rsi
	callq	uInt64_toAscii.107
	popq	%rbx
	popq	%r14
	popq	%rbp
	.cfi_def_cfa %rsp, 8
	retq
.LBB34_4:                               # %func_uInt64_toAscii.124
	.cfi_def_cfa %rbp, 16
	movq	%rbx, %rdi
	movq	%r14, %rsi
	callq	uInt64_toAscii.124
	popq	%rbx
	popq	%r14
	popq	%rbp
	.cfi_def_cfa %rsp, 8
	retq
.LBB34_5:                               # %func_uInt64_toAscii.128
	.cfi_def_cfa %rbp, 16
	movq	%rbx, %rdi
	movq	%r14, %rsi
	callq	uInt64_toAscii.128
	popq	%rbx
	popq	%r14
	popq	%rbp
	.cfi_def_cfa %rsp, 8
	retq
.LBB34_6:                               # %func_uInt64_toAscii.143
	.cfi_def_cfa %rbp, 16
	movq	%rbx, %rdi
	movq	%r14, %rsi
	callq	uInt64_toAscii.143
	popq	%rbx
	popq	%r14
	popq	%rbp
	.cfi_def_cfa %rsp, 8
	retq
.LBB34_7:                               # %func_uInt64_toAscii.149
	.cfi_def_cfa %rbp, 16
	movq	%rbx, %rdi
	movq	%r14, %rsi
	callq	uInt64_toAscii.149
	popq	%rbx
	popq	%r14
	popq	%rbp
	.cfi_def_cfa %rsp, 8
	retq
.LBB34_8:                               # %func_uInt64_toAscii.156
	.cfi_def_cfa %rbp, 16
	movq	%rbx, %rdi
	movq	%r14, %rsi
	callq	uInt64_toAscii.156
	popq	%rbx
	popq	%r14
	popq	%rbp
	.cfi_def_cfa %rsp, 8
	retq
.LBB34_9:                               # %ctrl0
	.cfi_def_cfa %rbp, 16
	cmpl	$1, %eax
	je	.LBB34_2
# %bb.10:                               # %ctrl1
	cmpl	$2, %eax
	je	.LBB34_3
# %bb.11:                               # %ctrl2
	cmpl	$3, %eax
	je	.LBB34_4
# %bb.12:                               # %ctrl3
	cmpl	$4, %eax
	je	.LBB34_5
# %bb.13:                               # %ctrl4
	cmpl	$5, %eax
	je	.LBB34_6
# %bb.14:                               # %ctrl5
	cmpl	$6, %eax
	je	.LBB34_7
	jmp	.LBB34_8
.Lfunc_end34:
	.size	uInt64_toAscii, .Lfunc_end34-uInt64_toAscii
	.cfi_endproc
                                        # -- End function
	.p2align	4, 0x90         # -- Begin function configError
	.type	configError,@function
configError:                            # @configError
	.cfi_startproc
# %bb.0:                                # %entry
	pushq	%rbp
	.cfi_def_cfa_offset 16
	.cfi_offset %rbp, -16
	movq	%rsp, %rbp
	.cfi_def_cfa_register %rbp
	movq	stderr, %rdi
	movabsq	$.L.str.77, %rsi
	movb	$0, %al
	callq	fprintf
	movl	$3, %edi
	callq	setExit
	movl	exitValue, %edi
	callq	exit
.Lfunc_end35:
	.size	configError, .Lfunc_end35-configError
	.cfi_endproc
                                        # -- End function
	.p2align	4, 0x90         # -- Begin function uInt64_qrm10
	.type	uInt64_qrm10,@function
uInt64_qrm10:                           # @uInt64_qrm10
	.cfi_startproc
# %bb.0:                                # %rand_bb
	pushq	%rbp
	.cfi_def_cfa_offset 16
	.cfi_offset %rbp, -16
	movq	%rsp, %rbp
	.cfi_def_cfa_register %rbp
	pushq	%rbx
	pushq	%rax
	.cfi_offset %rbx, -24
	movq	%rdi, %rbx
	callq	get_urand
	cmpl	$0, %eax
	jne	.LBB36_9
# %bb.1:                                # %func_uInt64_qrm10.7
	movq	%rbx, %rdi
	callq	uInt64_qrm10.7
	addq	$8, %rsp
	popq	%rbx
	popq	%rbp
	.cfi_def_cfa %rsp, 8
	retq
.LBB36_2:                               # %func_uInt64_qrm10.15
	.cfi_def_cfa %rbp, 16
	movq	%rbx, %rdi
	callq	uInt64_qrm10.15
	addq	$8, %rsp
	popq	%rbx
	popq	%rbp
	.cfi_def_cfa %rsp, 8
	retq
.LBB36_3:                               # %func_uInt64_qrm10.43
	.cfi_def_cfa %rbp, 16
	movq	%rbx, %rdi
	callq	uInt64_qrm10.43
	addq	$8, %rsp
	popq	%rbx
	popq	%rbp
	.cfi_def_cfa %rsp, 8
	retq
.LBB36_4:                               # %func_uInt64_qrm10.53
	.cfi_def_cfa %rbp, 16
	movq	%rbx, %rdi
	callq	uInt64_qrm10.53
	addq	$8, %rsp
	popq	%rbx
	popq	%rbp
	.cfi_def_cfa %rsp, 8
	retq
.LBB36_5:                               # %func_uInt64_qrm10.102
	.cfi_def_cfa %rbp, 16
	movq	%rbx, %rdi
	callq	uInt64_qrm10.102
	addq	$8, %rsp
	popq	%rbx
	popq	%rbp
	.cfi_def_cfa %rsp, 8
	retq
.LBB36_6:                               # %func_uInt64_qrm10.115
	.cfi_def_cfa %rbp, 16
	movq	%rbx, %rdi
	callq	uInt64_qrm10.115
	addq	$8, %rsp
	popq	%rbx
	popq	%rbp
	.cfi_def_cfa %rsp, 8
	retq
.LBB36_7:                               # %func_uInt64_qrm10.136
	.cfi_def_cfa %rbp, 16
	movq	%rbx, %rdi
	callq	uInt64_qrm10.136
	addq	$8, %rsp
	popq	%rbx
	popq	%rbp
	.cfi_def_cfa %rsp, 8
	retq
.LBB36_8:                               # %func_uInt64_qrm10.137
	.cfi_def_cfa %rbp, 16
	movq	%rbx, %rdi
	callq	uInt64_qrm10.137
	addq	$8, %rsp
	popq	%rbx
	popq	%rbp
	.cfi_def_cfa %rsp, 8
	retq
.LBB36_9:                               # %ctrl0
	.cfi_def_cfa %rbp, 16
	cmpl	$1, %eax
	je	.LBB36_2
# %bb.10:                               # %ctrl1
	cmpl	$2, %eax
	je	.LBB36_3
# %bb.11:                               # %ctrl2
	cmpl	$3, %eax
	je	.LBB36_4
# %bb.12:                               # %ctrl3
	cmpl	$4, %eax
	je	.LBB36_5
# %bb.13:                               # %ctrl4
	cmpl	$5, %eax
	je	.LBB36_6
# %bb.14:                               # %ctrl5
	cmpl	$6, %eax
	je	.LBB36_7
	jmp	.LBB36_8
.Lfunc_end36:
	.size	uInt64_qrm10, .Lfunc_end36-uInt64_qrm10
	.cfi_endproc
                                        # -- End function
	.p2align	4, 0x90         # -- Begin function uInt64_isZero
	.type	uInt64_isZero,@function
uInt64_isZero:                          # @uInt64_isZero
	.cfi_startproc
# %bb.0:                                # %rand_bb
	pushq	%rbp
	.cfi_def_cfa_offset 16
	.cfi_offset %rbp, -16
	movq	%rsp, %rbp
	.cfi_def_cfa_register %rbp
	pushq	%rbx
	pushq	%rax
	.cfi_offset %rbx, -24
	movq	%rdi, %rbx
	callq	get_urand
	cmpl	$0, %eax
	jne	.LBB37_7
# %bb.1:                                # %func_uInt64_isZero.26
	movq	%rbx, %rdi
	callq	uInt64_isZero.26
	movzbl	%al, %eax
	addq	$8, %rsp
	popq	%rbx
	popq	%rbp
	.cfi_def_cfa %rsp, 8
	retq
.LBB37_2:                               # %func_uInt64_isZero.113
	.cfi_def_cfa %rbp, 16
	movq	%rbx, %rdi
	callq	uInt64_isZero.113
	movzbl	%al, %eax
	addq	$8, %rsp
	popq	%rbx
	popq	%rbp
	.cfi_def_cfa %rsp, 8
	retq
.LBB37_3:                               # %func_uInt64_isZero.117
	.cfi_def_cfa %rbp, 16
	movq	%rbx, %rdi
	callq	uInt64_isZero.117
	movzbl	%al, %eax
	addq	$8, %rsp
	popq	%rbx
	popq	%rbp
	.cfi_def_cfa %rsp, 8
	retq
.LBB37_4:                               # %func_uInt64_isZero.142
	.cfi_def_cfa %rbp, 16
	movq	%rbx, %rdi
	callq	uInt64_isZero.142
	movzbl	%al, %eax
	addq	$8, %rsp
	popq	%rbx
	popq	%rbp
	.cfi_def_cfa %rsp, 8
	retq
.LBB37_5:                               # %func_uInt64_isZero.145
	.cfi_def_cfa %rbp, 16
	movq	%rbx, %rdi
	callq	uInt64_isZero.145
	movzbl	%al, %eax
	addq	$8, %rsp
	popq	%rbx
	popq	%rbp
	.cfi_def_cfa %rsp, 8
	retq
.LBB37_6:                               # %func_uInt64_isZero.147
	.cfi_def_cfa %rbp, 16
	movq	%rbx, %rdi
	callq	uInt64_isZero.147
	movzbl	%al, %eax
	addq	$8, %rsp
	popq	%rbx
	popq	%rbp
	.cfi_def_cfa %rsp, 8
	retq
.LBB37_7:                               # %ctrl0
	.cfi_def_cfa %rbp, 16
	cmpl	$1, %eax
	je	.LBB37_2
# %bb.8:                                # %ctrl1
	cmpl	$2, %eax
	je	.LBB37_3
# %bb.9:                                # %ctrl2
	cmpl	$3, %eax
	je	.LBB37_4
# %bb.10:                               # %ctrl3
	cmpl	$4, %eax
	je	.LBB37_5
	jmp	.LBB37_6
.Lfunc_end37:
	.size	uInt64_isZero, .Lfunc_end37-uInt64_isZero
	.cfi_endproc
                                        # -- End function
	.p2align	4, 0x90         # -- Begin function mapSuffix
	.type	mapSuffix,@function
mapSuffix:                              # @mapSuffix
	.cfi_startproc
# %bb.0:                                # %rand_bb
	pushq	%rbp
	.cfi_def_cfa_offset 16
	.cfi_offset %rbp, -16
	movq	%rsp, %rbp
	.cfi_def_cfa_register %rbp
	pushq	%r15
	pushq	%r14
	pushq	%rbx
	pushq	%rax
	.cfi_offset %rbx, -40
	.cfi_offset %r14, -32
	.cfi_offset %r15, -24
	movq	%rdx, %r14
	movq	%rsi, %r15
	movq	%rdi, %rbx
	callq	get_urand
	cmpl	$0, %eax
	jne	.LBB38_9
# %bb.1:                                # %func_mapSuffix.2
	movq	%rbx, %rdi
	movq	%r15, %rsi
	movq	%r14, %rdx
	callq	mapSuffix.2
	movzbl	%al, %eax
	addq	$8, %rsp
	popq	%rbx
	popq	%r14
	popq	%r15
	popq	%rbp
	.cfi_def_cfa %rsp, 8
	retq
.LBB38_2:                               # %func_mapSuffix.18
	.cfi_def_cfa %rbp, 16
	movq	%rbx, %rdi
	movq	%r15, %rsi
	movq	%r14, %rdx
	callq	mapSuffix.18
	movzbl	%al, %eax
	addq	$8, %rsp
	popq	%rbx
	popq	%r14
	popq	%r15
	popq	%rbp
	.cfi_def_cfa %rsp, 8
	retq
.LBB38_3:                               # %func_mapSuffix.57
	.cfi_def_cfa %rbp, 16
	movq	%rbx, %rdi
	movq	%r15, %rsi
	movq	%r14, %rdx
	callq	mapSuffix.57
	movzbl	%al, %eax
	addq	$8, %rsp
	popq	%rbx
	popq	%r14
	popq	%r15
	popq	%rbp
	.cfi_def_cfa %rsp, 8
	retq
.LBB38_4:                               # %func_mapSuffix.62
	.cfi_def_cfa %rbp, 16
	movq	%rbx, %rdi
	movq	%r15, %rsi
	movq	%r14, %rdx
	callq	mapSuffix.62
	movzbl	%al, %eax
	addq	$8, %rsp
	popq	%rbx
	popq	%r14
	popq	%r15
	popq	%rbp
	.cfi_def_cfa %rsp, 8
	retq
.LBB38_5:                               # %func_mapSuffix.111
	.cfi_def_cfa %rbp, 16
	movq	%rbx, %rdi
	movq	%r15, %rsi
	movq	%r14, %rdx
	callq	mapSuffix.111
	movzbl	%al, %eax
	addq	$8, %rsp
	popq	%rbx
	popq	%r14
	popq	%r15
	popq	%rbp
	.cfi_def_cfa %rsp, 8
	retq
.LBB38_6:                               # %func_mapSuffix.123
	.cfi_def_cfa %rbp, 16
	movq	%rbx, %rdi
	movq	%r15, %rsi
	movq	%r14, %rdx
	callq	mapSuffix.123
	movzbl	%al, %eax
	addq	$8, %rsp
	popq	%rbx
	popq	%r14
	popq	%r15
	popq	%rbp
	.cfi_def_cfa %rsp, 8
	retq
.LBB38_7:                               # %func_mapSuffix.135
	.cfi_def_cfa %rbp, 16
	movq	%rbx, %rdi
	movq	%r15, %rsi
	movq	%r14, %rdx
	callq	mapSuffix.135
	movzbl	%al, %eax
	addq	$8, %rsp
	popq	%rbx
	popq	%r14
	popq	%r15
	popq	%rbp
	.cfi_def_cfa %rsp, 8
	retq
.LBB38_8:                               # %func_mapSuffix.141
	.cfi_def_cfa %rbp, 16
	movq	%rbx, %rdi
	movq	%r15, %rsi
	movq	%r14, %rdx
	callq	mapSuffix.141
	movzbl	%al, %eax
	addq	$8, %rsp
	popq	%rbx
	popq	%r14
	popq	%r15
	popq	%rbp
	.cfi_def_cfa %rsp, 8
	retq
.LBB38_9:                               # %ctrl0
	.cfi_def_cfa %rbp, 16
	cmpl	$1, %eax
	je	.LBB38_2
# %bb.10:                               # %ctrl1
	cmpl	$2, %eax
	je	.LBB38_3
# %bb.11:                               # %ctrl2
	cmpl	$3, %eax
	je	.LBB38_4
# %bb.12:                               # %ctrl3
	cmpl	$4, %eax
	je	.LBB38_5
# %bb.13:                               # %ctrl4
	cmpl	$5, %eax
	je	.LBB38_6
# %bb.14:                               # %ctrl5
	cmpl	$6, %eax
	je	.LBB38_7
	jmp	.LBB38_8
.Lfunc_end38:
	.size	mapSuffix, .Lfunc_end38-mapSuffix
	.cfi_endproc
                                        # -- End function
	.p2align	4, 0x90         # -- Begin function uncompressStream
	.type	uncompressStream,@function
uncompressStream:                       # @uncompressStream
	.cfi_startproc
# %bb.0:                                # %rand_bb
	pushq	%rbp
	.cfi_def_cfa_offset 16
	.cfi_offset %rbp, -16
	movq	%rsp, %rbp
	.cfi_def_cfa_register %rbp
	pushq	%r14
	pushq	%rbx
	.cfi_offset %rbx, -32
	.cfi_offset %r14, -24
	movq	%rsi, %r14
	movq	%rdi, %rbx
	callq	get_urand
	cmpl	$0, %eax
	jne	.LBB39_9
# %bb.1:                                # %func_uncompressStream.6
	movq	%rbx, %rdi
	movq	%r14, %rsi
	callq	uncompressStream.6
	movzbl	%al, %eax
	popq	%rbx
	popq	%r14
	popq	%rbp
	.cfi_def_cfa %rsp, 8
	retq
.LBB39_2:                               # %func_uncompressStream.33
	.cfi_def_cfa %rbp, 16
	movq	%rbx, %rdi
	movq	%r14, %rsi
	callq	uncompressStream.33
	movzbl	%al, %eax
	popq	%rbx
	popq	%r14
	popq	%rbp
	.cfi_def_cfa %rsp, 8
	retq
.LBB39_3:                               # %func_uncompressStream.51
	.cfi_def_cfa %rbp, 16
	movq	%rbx, %rdi
	movq	%r14, %rsi
	callq	uncompressStream.51
	movzbl	%al, %eax
	popq	%rbx
	popq	%r14
	popq	%rbp
	.cfi_def_cfa %rsp, 8
	retq
.LBB39_4:                               # %func_uncompressStream.119
	.cfi_def_cfa %rbp, 16
	movq	%rbx, %rdi
	movq	%r14, %rsi
	callq	uncompressStream.119
	movzbl	%al, %eax
	popq	%rbx
	popq	%r14
	popq	%rbp
	.cfi_def_cfa %rsp, 8
	retq
.LBB39_5:                               # %func_uncompressStream.120
	.cfi_def_cfa %rbp, 16
	movq	%rbx, %rdi
	movq	%r14, %rsi
	callq	uncompressStream.120
	movzbl	%al, %eax
	popq	%rbx
	popq	%r14
	popq	%rbp
	.cfi_def_cfa %rsp, 8
	retq
.LBB39_6:                               # %func_uncompressStream.138
	.cfi_def_cfa %rbp, 16
	movq	%rbx, %rdi
	movq	%r14, %rsi
	callq	uncompressStream.138
	movzbl	%al, %eax
	popq	%rbx
	popq	%r14
	popq	%rbp
	.cfi_def_cfa %rsp, 8
	retq
.LBB39_7:                               # %func_uncompressStream.140
	.cfi_def_cfa %rbp, 16
	movq	%rbx, %rdi
	movq	%r14, %rsi
	callq	uncompressStream.140
	movzbl	%al, %eax
	popq	%rbx
	popq	%r14
	popq	%rbp
	.cfi_def_cfa %rsp, 8
	retq
.LBB39_8:                               # %func_uncompressStream.152
	.cfi_def_cfa %rbp, 16
	movq	%rbx, %rdi
	movq	%r14, %rsi
	callq	uncompressStream.152
	movzbl	%al, %eax
	popq	%rbx
	popq	%r14
	popq	%rbp
	.cfi_def_cfa %rsp, 8
	retq
.LBB39_9:                               # %ctrl0
	.cfi_def_cfa %rbp, 16
	cmpl	$1, %eax
	je	.LBB39_2
# %bb.10:                               # %ctrl1
	cmpl	$2, %eax
	je	.LBB39_3
# %bb.11:                               # %ctrl2
	cmpl	$3, %eax
	je	.LBB39_4
# %bb.12:                               # %ctrl3
	cmpl	$4, %eax
	je	.LBB39_5
# %bb.13:                               # %ctrl4
	cmpl	$5, %eax
	je	.LBB39_6
# %bb.14:                               # %ctrl5
	cmpl	$6, %eax
	je	.LBB39_7
	jmp	.LBB39_8
.Lfunc_end39:
	.size	uncompressStream, .Lfunc_end39-uncompressStream
	.cfi_endproc
                                        # -- End function
	.p2align	4, 0x90         # -- Begin function crcError
	.type	crcError,@function
crcError:                               # @crcError
	.cfi_startproc
# %bb.0:                                # %entry
	pushq	%rbp
	.cfi_def_cfa_offset 16
	.cfi_offset %rbp, -16
	movq	%rsp, %rbp
	.cfi_def_cfa_register %rbp
	movq	stderr, %rdi
	movq	progName, %rdx
	movabsq	$.L.str.92, %rsi
	movb	$0, %al
	callq	fprintf
	callq	showFileNames
	callq	cadvise
	movl	$2, %edi
	callq	cleanUpAndFail
.Lfunc_end40:
	.size	crcError, .Lfunc_end40-crcError
	.cfi_endproc
                                        # -- End function
	.p2align	4, 0x90         # -- Begin function compressedStreamEOF
	.type	compressedStreamEOF,@function
compressedStreamEOF:                    # @compressedStreamEOF
	.cfi_startproc
# %bb.0:                                # %entry
	pushq	%rbp
	.cfi_def_cfa_offset 16
	.cfi_offset %rbp, -16
	movq	%rsp, %rbp
	.cfi_def_cfa_register %rbp
	cmpb	$0, noisy
	je	.LBB41_2
# %bb.1:                                # %if.then
	movq	stderr, %rdi
	movq	progName, %rdx
	movabsq	$.L.str.93, %rsi
	movb	$0, %al
	callq	fprintf
	movq	progName, %rdi
	callq	perror
	callq	showFileNames
	callq	cadvise
.LBB41_2:                               # %if.end
	movl	$2, %edi
	callq	cleanUpAndFail
.Lfunc_end41:
	.size	compressedStreamEOF, .Lfunc_end41-compressedStreamEOF
	.cfi_endproc
                                        # -- End function
	.p2align	4, 0x90         # -- Begin function testStream
	.type	testStream,@function
testStream:                             # @testStream
	.cfi_startproc
# %bb.0:                                # %rand_bb
	pushq	%rbp
	.cfi_def_cfa_offset 16
	.cfi_offset %rbp, -16
	movq	%rsp, %rbp
	.cfi_def_cfa_register %rbp
	pushq	%rbx
	pushq	%rax
	.cfi_offset %rbx, -24
	movq	%rdi, %rbx
	callq	get_urand
	cmpl	$0, %eax
	jne	.LBB42_9
# %bb.1:                                # %func_testStream.31
	movq	%rbx, %rdi
	callq	testStream.31
	movzbl	%al, %eax
	addq	$8, %rsp
	popq	%rbx
	popq	%rbp
	.cfi_def_cfa %rsp, 8
	retq
.LBB42_2:                               # %func_testStream.52
	.cfi_def_cfa %rbp, 16
	movq	%rbx, %rdi
	callq	testStream.52
	movzbl	%al, %eax
	addq	$8, %rsp
	popq	%rbx
	popq	%rbp
	.cfi_def_cfa %rsp, 8
	retq
.LBB42_3:                               # %func_testStream.63
	.cfi_def_cfa %rbp, 16
	movq	%rbx, %rdi
	callq	testStream.63
	movzbl	%al, %eax
	addq	$8, %rsp
	popq	%rbx
	popq	%rbp
	.cfi_def_cfa %rsp, 8
	retq
.LBB42_4:                               # %func_testStream.74
	.cfi_def_cfa %rbp, 16
	movq	%rbx, %rdi
	callq	testStream.74
	movzbl	%al, %eax
	addq	$8, %rsp
	popq	%rbx
	popq	%rbp
	.cfi_def_cfa %rsp, 8
	retq
.LBB42_5:                               # %func_testStream.75
	.cfi_def_cfa %rbp, 16
	movq	%rbx, %rdi
	callq	testStream.75
	movzbl	%al, %eax
	addq	$8, %rsp
	popq	%rbx
	popq	%rbp
	.cfi_def_cfa %rsp, 8
	retq
.LBB42_6:                               # %func_testStream.90
	.cfi_def_cfa %rbp, 16
	movq	%rbx, %rdi
	callq	testStream.90
	movzbl	%al, %eax
	addq	$8, %rsp
	popq	%rbx
	popq	%rbp
	.cfi_def_cfa %rsp, 8
	retq
.LBB42_7:                               # %func_testStream.94
	.cfi_def_cfa %rbp, 16
	movq	%rbx, %rdi
	callq	testStream.94
	movzbl	%al, %eax
	addq	$8, %rsp
	popq	%rbx
	popq	%rbp
	.cfi_def_cfa %rsp, 8
	retq
.LBB42_8:                               # %func_testStream.100
	.cfi_def_cfa %rbp, 16
	movq	%rbx, %rdi
	callq	testStream.100
	movzbl	%al, %eax
	addq	$8, %rsp
	popq	%rbx
	popq	%rbp
	.cfi_def_cfa %rsp, 8
	retq
.LBB42_9:                               # %ctrl0
	.cfi_def_cfa %rbp, 16
	cmpl	$1, %eax
	je	.LBB42_2
# %bb.10:                               # %ctrl1
	cmpl	$2, %eax
	je	.LBB42_3
# %bb.11:                               # %ctrl2
	cmpl	$3, %eax
	je	.LBB42_4
# %bb.12:                               # %ctrl3
	cmpl	$4, %eax
	je	.LBB42_5
# %bb.13:                               # %ctrl4
	cmpl	$5, %eax
	je	.LBB42_6
# %bb.14:                               # %ctrl5
	cmpl	$6, %eax
	je	.LBB42_7
	jmp	.LBB42_8
.Lfunc_end42:
	.size	testStream, .Lfunc_end42-testStream
	.cfi_endproc
                                        # -- End function
	.p2align	4, 0x90         # -- Begin function addFlagsFromEnvVar.1
	.type	addFlagsFromEnvVar.1,@function
addFlagsFromEnvVar.1:                   # @addFlagsFromEnvVar.1
	.cfi_startproc
# %bb.0:                                # %entry
	pushq	%rbp
	.cfi_def_cfa_offset 16
	.cfi_offset %rbp, -16
	movq	%rsp, %rbp
	.cfi_def_cfa_register %rbp
	subq	$48, %rsp
	movl	$901369754, -24(%rbp)   # imm = 0x35B9CF9A
	movq	%rdi, -32(%rbp)
	movq	%rsi, -48(%rbp)
	movq	-48(%rbp), %rdi
	callq	getenv
	movq	%rax, -40(%rbp)
	cmpq	$0, -40(%rbp)
	je	.LBB43_22
# %bb.1:                                # %if.then
	movq	-40(%rbp), %rax
	movq	%rax, -16(%rbp)
	movl	$0, -4(%rbp)
.LBB43_2:                               # %while.body
                                        # =>This Loop Header: Depth=1
                                        #     Child Loop BB43_5 Depth 2
                                        #     Child Loop BB43_8 Depth 2
                                        #     Child Loop BB43_16 Depth 2
	movq	-16(%rbp), %rax
	movslq	-4(%rbp), %rcx
	movsbl	(%rax,%rcx), %eax
	cmpl	$0, %eax
	jne	.LBB43_4
# %bb.3:                                # %if.then3
	jmp	.LBB43_21
.LBB43_4:                               # %if.end
                                        #   in Loop: Header=BB43_2 Depth=1
	movl	-4(%rbp), %eax
	movq	-16(%rbp), %rcx
	cltq
	addq	%rax, %rcx
	movq	%rcx, -16(%rbp)
	movl	$0, -4(%rbp)
.LBB43_5:                               # %while.cond4
                                        #   Parent Loop BB43_2 Depth=1
                                        # =>  This Inner Loop Header: Depth=2
	callq	__ctype_b_loc
	movq	(%rax), %rax
	movq	-16(%rbp), %rcx
	movsbl	(%rcx), %ecx
	movslq	%ecx, %rcx
	movzwl	(%rax,%rcx,2), %eax
	andl	$8192, %eax             # imm = 0x2000
	cmpl	$0, %eax
	je	.LBB43_7
# %bb.6:                                # %while.body11
                                        #   in Loop: Header=BB43_5 Depth=2
	movq	-16(%rbp), %rax
	addq	$1, %rax
	movq	%rax, -16(%rbp)
	jmp	.LBB43_5
.LBB43_7:                               # %while.end
                                        #   in Loop: Header=BB43_2 Depth=1
	jmp	.LBB43_8
.LBB43_8:                               # %while.cond12
                                        #   Parent Loop BB43_2 Depth=1
                                        # =>  This Inner Loop Header: Depth=2
	xorl	%eax, %eax
	movq	-16(%rbp), %rcx
	movslq	-4(%rbp), %rdx
	movsbl	(%rcx,%rdx), %ecx
	cmpl	$0, %ecx
	je	.LBB43_10
# %bb.9:                                # %land.rhs
                                        #   in Loop: Header=BB43_8 Depth=2
	callq	__ctype_b_loc
	movq	(%rax), %rax
	movq	-16(%rbp), %rcx
	movslq	-4(%rbp), %rdx
	movsbl	(%rcx,%rdx), %ecx
	movslq	%ecx, %rcx
	movzwl	(%rax,%rcx,2), %eax
	andl	$8192, %eax             # imm = 0x2000
	cmpl	$0, %eax
	setne	%al
	xorb	$-1, %al
.LBB43_10:                              # %land.end
                                        #   in Loop: Header=BB43_8 Depth=2
	testb	$1, %al
	jne	.LBB43_11
	jmp	.LBB43_12
.LBB43_11:                              # %while.body27
                                        #   in Loop: Header=BB43_8 Depth=2
	movl	-4(%rbp), %eax
	addl	$1, %eax
	movl	%eax, -4(%rbp)
	jmp	.LBB43_8
.LBB43_12:                              # %while.end28
                                        #   in Loop: Header=BB43_2 Depth=1
	cmpl	$0, -4(%rbp)
	jle	.LBB43_20
# %bb.13:                               # %if.then31
                                        #   in Loop: Header=BB43_2 Depth=1
	movl	-4(%rbp), %eax
	movl	%eax, -20(%rbp)
	cmpl	$1024, -20(%rbp)        # imm = 0x400
	jle	.LBB43_15
# %bb.14:                               # %if.then34
                                        #   in Loop: Header=BB43_2 Depth=1
	movl	$1024, -20(%rbp)        # imm = 0x400
.LBB43_15:                              # %if.end35
                                        #   in Loop: Header=BB43_2 Depth=1
	movl	$0, -8(%rbp)
.LBB43_16:                              # %for.cond
                                        #   Parent Loop BB43_2 Depth=1
                                        # =>  This Inner Loop Header: Depth=2
	movl	-8(%rbp), %eax
	cmpl	-20(%rbp), %eax
	jge	.LBB43_19
# %bb.17:                               # %for.body
                                        #   in Loop: Header=BB43_16 Depth=2
	movq	-16(%rbp), %rax
	movslq	-8(%rbp), %rcx
	movb	(%rax,%rcx), %al
	movslq	-8(%rbp), %rcx
	movb	%al, tmpName(,%rcx)
# %bb.18:                               # %for.inc
                                        #   in Loop: Header=BB43_16 Depth=2
	movl	-8(%rbp), %eax
	addl	$1, %eax
	movl	%eax, -8(%rbp)
	jmp	.LBB43_16
.LBB43_19:                              # %for.end
                                        #   in Loop: Header=BB43_2 Depth=1
	movslq	-20(%rbp), %rax
	movb	$0, tmpName(,%rax)
	movq	-32(%rbp), %rax
	movq	(%rax), %rdi
	movabsq	$tmpName, %rsi
	callq	snocString
	movq	-32(%rbp), %rcx
	movq	%rax, (%rcx)
.LBB43_20:                              # %if.end46
                                        #   in Loop: Header=BB43_2 Depth=1
	jmp	.LBB43_2
.LBB43_21:                              # %while.end47
	jmp	.LBB43_22
.LBB43_22:                              # %if.end48
	cmpl	$901369754, -24(%rbp)   # imm = 0x35B9CF9A
	jne	.LBB43_24
.LBB43_23:
	addq	$48, %rsp
	popq	%rbp
	.cfi_def_cfa %rsp, 8
	retq
.LBB43_24:                              # %func_exit
	.cfi_def_cfa %rbp, 16
	callq	detect_breach
	jmp	.LBB43_23
.Lfunc_end43:
	.size	addFlagsFromEnvVar.1, .Lfunc_end43-addFlagsFromEnvVar.1
	.cfi_endproc
                                        # -- End function
	.p2align	4, 0x90         # -- Begin function mapSuffix.2
	.type	mapSuffix.2,@function
mapSuffix.2:                            # @mapSuffix.2
	.cfi_startproc
# %bb.0:                                # %entry
	pushq	%rbp
	.cfi_def_cfa_offset 16
	.cfi_offset %rbp, -16
	movq	%rsp, %rbp
	.cfi_def_cfa_register %rbp
	pushq	%r14
	pushq	%rbx
	subq	$48, %rsp
	.cfi_offset %rbx, -32
	.cfi_offset %r14, -24
	movl	$1987676545, -36(%rbp)  # imm = 0x76798981
	movq	%rdi, -32(%rbp)
	movq	%rsi, -48(%rbp)
	movq	%rdx, -56(%rbp)
	movq	-32(%rbp), %rdi
	movq	-48(%rbp), %rsi
	callq	hasSuffix
	cmpb	$0, %al
	jne	.LBB44_2
# %bb.1:                                # %if.then
	movb	$0, -17(%rbp)
	jmp	.LBB44_3
.LBB44_2:                               # %if.end
	movq	-32(%rbp), %r14
	movq	-32(%rbp), %rdi
	callq	strlen
	movq	%rax, %rbx
	movq	-48(%rbp), %rdi
	callq	strlen
	subq	%rax, %rbx
	movb	$0, (%r14,%rbx)
	movq	-32(%rbp), %rdi
	movq	-56(%rbp), %rsi
	callq	strcat
	movb	$1, -17(%rbp)
.LBB44_3:                               # %return
	movb	-17(%rbp), %bl
	cmpl	$1987676545, -36(%rbp)  # imm = 0x76798981
	jne	.LBB44_5
.LBB44_4:
	movzbl	%bl, %eax
	addq	$48, %rsp
	popq	%rbx
	popq	%r14
	popq	%rbp
	.cfi_def_cfa %rsp, 8
	retq
.LBB44_5:                               # %func_exit
	.cfi_def_cfa %rbp, 16
	callq	detect_breach
	jmp	.LBB44_4
.Lfunc_end44:
	.size	mapSuffix.2, .Lfunc_end44-mapSuffix.2
	.cfi_endproc
                                        # -- End function
	.p2align	4, 0x90         # -- Begin function uInt64_toAscii.3
	.type	uInt64_toAscii.3,@function
uInt64_toAscii.3:                       # @uInt64_toAscii.3
	.cfi_startproc
# %bb.0:                                # %entry
	pushq	%rbp
	.cfi_def_cfa_offset 16
	.cfi_offset %rbp, -16
	movq	%rsp, %rbp
	.cfi_def_cfa_register %rbp
	subq	$80, %rsp
	movl	$2064062839, -16(%rbp)  # imm = 0x7B071977
	movq	%rdi, -24(%rbp)
	movq	%rsi, -40(%rbp)
	movl	$0, -4(%rbp)
	movq	-40(%rbp), %rax
	movq	(%rax), %rax
	movq	%rax, -32(%rbp)
.LBB45_1:                               # %do.body
                                        # =>This Inner Loop Header: Depth=1
	leaq	-32(%rbp), %rdi
	callq	uInt64_qrm10
	movl	%eax, -12(%rbp)
	movl	-12(%rbp), %eax
	addl	$48, %eax
	movslq	-4(%rbp), %rcx
	movb	%al, -80(%rbp,%rcx)
	movl	-4(%rbp), %eax
	addl	$1, %eax
	movl	%eax, -4(%rbp)
# %bb.2:                                # %do.cond
                                        #   in Loop: Header=BB45_1 Depth=1
	leaq	-32(%rbp), %rdi
	callq	uInt64_isZero
	cmpb	$0, %al
	setne	%al
	xorb	$-1, %al
	testb	$1, %al
	jne	.LBB45_1
# %bb.3:                                # %do.end
	movq	-24(%rbp), %rax
	movslq	-4(%rbp), %rcx
	movb	$0, (%rax,%rcx)
	movl	$0, -8(%rbp)
.LBB45_4:                               # %for.cond
                                        # =>This Inner Loop Header: Depth=1
	movl	-8(%rbp), %eax
	cmpl	-4(%rbp), %eax
	jge	.LBB45_7
# %bb.5:                                # %for.body
                                        #   in Loop: Header=BB45_4 Depth=1
	movl	-4(%rbp), %eax
	subl	-8(%rbp), %eax
	subl	$1, %eax
	cltq
	movb	-80(%rbp,%rax), %al
	movq	-24(%rbp), %rcx
	movslq	-8(%rbp), %rdx
	movb	%al, (%rcx,%rdx)
# %bb.6:                                # %for.inc
                                        #   in Loop: Header=BB45_4 Depth=1
	movl	-8(%rbp), %eax
	addl	$1, %eax
	movl	%eax, -8(%rbp)
	jmp	.LBB45_4
.LBB45_7:                               # %for.end
	cmpl	$2064062839, -16(%rbp)  # imm = 0x7B071977
	jne	.LBB45_9
.LBB45_8:
	addq	$80, %rsp
	popq	%rbp
	.cfi_def_cfa %rsp, 8
	retq
.LBB45_9:                               # %func_exit
	.cfi_def_cfa %rbp, 16
	callq	detect_breach
	jmp	.LBB45_8
.Lfunc_end45:
	.size	uInt64_toAscii.3, .Lfunc_end45-uInt64_toAscii.3
	.cfi_endproc
                                        # -- End function
	.p2align	4, 0x90         # -- Begin function addFlagsFromEnvVar.4
	.type	addFlagsFromEnvVar.4,@function
addFlagsFromEnvVar.4:                   # @addFlagsFromEnvVar.4
	.cfi_startproc
# %bb.0:                                # %entry
	pushq	%rbp
	.cfi_def_cfa_offset 16
	.cfi_offset %rbp, -16
	movq	%rsp, %rbp
	.cfi_def_cfa_register %rbp
	subq	$48, %rsp
	movl	$535245551, -24(%rbp)   # imm = 0x1FE732EF
	movq	%rdi, -32(%rbp)
	movq	%rsi, -48(%rbp)
	movq	-48(%rbp), %rdi
	callq	getenv
	movq	%rax, -40(%rbp)
	cmpq	$0, -40(%rbp)
	je	.LBB46_22
# %bb.1:                                # %if.then
	movq	-40(%rbp), %rax
	movq	%rax, -16(%rbp)
	movl	$0, -4(%rbp)
.LBB46_2:                               # %while.body
                                        # =>This Loop Header: Depth=1
                                        #     Child Loop BB46_5 Depth 2
                                        #     Child Loop BB46_8 Depth 2
                                        #     Child Loop BB46_16 Depth 2
	movq	-16(%rbp), %rax
	movslq	-4(%rbp), %rcx
	movsbl	(%rax,%rcx), %eax
	cmpl	$0, %eax
	jne	.LBB46_4
# %bb.3:                                # %if.then3
	jmp	.LBB46_21
.LBB46_4:                               # %if.end
                                        #   in Loop: Header=BB46_2 Depth=1
	movl	-4(%rbp), %eax
	movq	-16(%rbp), %rcx
	cltq
	addq	%rax, %rcx
	movq	%rcx, -16(%rbp)
	movl	$0, -4(%rbp)
.LBB46_5:                               # %while.cond4
                                        #   Parent Loop BB46_2 Depth=1
                                        # =>  This Inner Loop Header: Depth=2
	callq	__ctype_b_loc
	movq	(%rax), %rax
	movq	-16(%rbp), %rcx
	movsbl	(%rcx), %ecx
	movslq	%ecx, %rcx
	movzwl	(%rax,%rcx,2), %eax
	andl	$8192, %eax             # imm = 0x2000
	cmpl	$0, %eax
	je	.LBB46_7
# %bb.6:                                # %while.body11
                                        #   in Loop: Header=BB46_5 Depth=2
	movq	-16(%rbp), %rax
	addq	$1, %rax
	movq	%rax, -16(%rbp)
	jmp	.LBB46_5
.LBB46_7:                               # %while.end
                                        #   in Loop: Header=BB46_2 Depth=1
	jmp	.LBB46_8
.LBB46_8:                               # %while.cond12
                                        #   Parent Loop BB46_2 Depth=1
                                        # =>  This Inner Loop Header: Depth=2
	xorl	%eax, %eax
	movq	-16(%rbp), %rcx
	movslq	-4(%rbp), %rdx
	movsbl	(%rcx,%rdx), %ecx
	cmpl	$0, %ecx
	je	.LBB46_10
# %bb.9:                                # %land.rhs
                                        #   in Loop: Header=BB46_8 Depth=2
	callq	__ctype_b_loc
	movq	(%rax), %rax
	movq	-16(%rbp), %rcx
	movslq	-4(%rbp), %rdx
	movsbl	(%rcx,%rdx), %ecx
	movslq	%ecx, %rcx
	movzwl	(%rax,%rcx,2), %eax
	andl	$8192, %eax             # imm = 0x2000
	cmpl	$0, %eax
	setne	%al
	xorb	$-1, %al
.LBB46_10:                              # %land.end
                                        #   in Loop: Header=BB46_8 Depth=2
	testb	$1, %al
	jne	.LBB46_11
	jmp	.LBB46_12
.LBB46_11:                              # %while.body27
                                        #   in Loop: Header=BB46_8 Depth=2
	movl	-4(%rbp), %eax
	addl	$1, %eax
	movl	%eax, -4(%rbp)
	jmp	.LBB46_8
.LBB46_12:                              # %while.end28
                                        #   in Loop: Header=BB46_2 Depth=1
	cmpl	$0, -4(%rbp)
	jle	.LBB46_20
# %bb.13:                               # %if.then31
                                        #   in Loop: Header=BB46_2 Depth=1
	movl	-4(%rbp), %eax
	movl	%eax, -20(%rbp)
	cmpl	$1024, -20(%rbp)        # imm = 0x400
	jle	.LBB46_15
# %bb.14:                               # %if.then34
                                        #   in Loop: Header=BB46_2 Depth=1
	movl	$1024, -20(%rbp)        # imm = 0x400
.LBB46_15:                              # %if.end35
                                        #   in Loop: Header=BB46_2 Depth=1
	movl	$0, -8(%rbp)
.LBB46_16:                              # %for.cond
                                        #   Parent Loop BB46_2 Depth=1
                                        # =>  This Inner Loop Header: Depth=2
	movl	-8(%rbp), %eax
	cmpl	-20(%rbp), %eax
	jge	.LBB46_19
# %bb.17:                               # %for.body
                                        #   in Loop: Header=BB46_16 Depth=2
	movq	-16(%rbp), %rax
	movslq	-8(%rbp), %rcx
	movb	(%rax,%rcx), %al
	movslq	-8(%rbp), %rcx
	movb	%al, tmpName(,%rcx)
# %bb.18:                               # %for.inc
                                        #   in Loop: Header=BB46_16 Depth=2
	movl	-8(%rbp), %eax
	addl	$1, %eax
	movl	%eax, -8(%rbp)
	jmp	.LBB46_16
.LBB46_19:                              # %for.end
                                        #   in Loop: Header=BB46_2 Depth=1
	movslq	-20(%rbp), %rax
	movb	$0, tmpName(,%rax)
	movq	-32(%rbp), %rax
	movq	(%rax), %rdi
	movabsq	$tmpName, %rsi
	callq	snocString
	movq	-32(%rbp), %rcx
	movq	%rax, (%rcx)
.LBB46_20:                              # %if.end46
                                        #   in Loop: Header=BB46_2 Depth=1
	jmp	.LBB46_2
.LBB46_21:                              # %while.end47
	jmp	.LBB46_22
.LBB46_22:                              # %if.end48
	cmpl	$535245551, -24(%rbp)   # imm = 0x1FE732EF
	jne	.LBB46_24
.LBB46_23:
	addq	$48, %rsp
	popq	%rbp
	.cfi_def_cfa %rsp, 8
	retq
.LBB46_24:                              # %func_exit
	.cfi_def_cfa %rbp, 16
	callq	detect_breach
	jmp	.LBB46_23
.Lfunc_end46:
	.size	addFlagsFromEnvVar.4, .Lfunc_end46-addFlagsFromEnvVar.4
	.cfi_endproc
                                        # -- End function
	.section	.rodata.cst8,"aM",@progbits,8
	.p2align	3               # -- Begin function compressStream.5
.LCPI47_0:
	.quad	4636737291354636288     # double 100
.LCPI47_1:
	.quad	4607182418800017408     # double 1
.LCPI47_2:
	.quad	4620693217682128896     # double 8
	.text
	.p2align	4, 0x90
	.type	compressStream.5,@function
compressStream.5:                       # @compressStream.5
	.cfi_startproc
# %bb.0:                                # %entry
	pushq	%rbp
	.cfi_def_cfa_offset 16
	.cfi_offset %rbp, -16
	movq	%rsp, %rbp
	.cfi_def_cfa_register %rbp
	subq	$5200, %rsp             # imm = 0x1450
	movl	$1110678843, -76(%rbp)  # imm = 0x42339D3B
	movq	%rdi, -24(%rbp)
	movq	%rsi, -32(%rbp)
	movq	$0, -56(%rbp)
	movq	-24(%rbp), %rdi
	callq	ferror
	cmpl	$0, %eax
	je	.LBB47_2
# %bb.1:                                # %if.then
	jmp	.LBB47_46
.LBB47_2:                               # %if.end
	movq	-32(%rbp), %rdi
	callq	ferror
	cmpl	$0, %eax
	je	.LBB47_4
# %bb.3:                                # %if.then3
	jmp	.LBB47_46
.LBB47_4:                               # %if.end4
	movq	-32(%rbp), %rsi
	movl	blockSize100k, %edx
	movl	verbosity, %ecx
	movl	workFactor, %r8d
	leaq	-4(%rbp), %rdi
	callq	BZ2_bzWriteOpen
	movq	%rax, -56(%rbp)
	cmpl	$0, -4(%rbp)
	je	.LBB47_6
# %bb.5:                                # %if.then6
	jmp	.LBB47_40
.LBB47_6:                               # %if.end7
	cmpl	$2, verbosity
	jl	.LBB47_8
# %bb.7:                                # %if.then9
	movq	stderr, %rdi
	movabsq	$.L.str.73, %rsi
	movb	$0, %al
	callq	fprintf
.LBB47_8:                               # %if.end11
	jmp	.LBB47_9
.LBB47_9:                               # %while.body
                                        # =>This Inner Loop Header: Depth=1
	movq	-24(%rbp), %rdi
	callq	myfeof
	cmpb	$0, %al
	je	.LBB47_11
# %bb.10:                               # %if.then14
	jmp	.LBB47_18
.LBB47_11:                              # %if.end15
                                        #   in Loop: Header=BB47_9 Depth=1
	leaq	-5184(%rbp), %rdi
	movq	-24(%rbp), %rcx
	movl	$1, %esi
	movl	$5000, %edx             # imm = 0x1388
	callq	fread
	movl	%eax, -44(%rbp)
	movq	-24(%rbp), %rdi
	callq	ferror
	cmpl	$0, %eax
	je	.LBB47_13
# %bb.12:                               # %if.then19
	jmp	.LBB47_46
.LBB47_13:                              # %if.end20
                                        #   in Loop: Header=BB47_9 Depth=1
	cmpl	$0, -44(%rbp)
	jle	.LBB47_15
# %bb.14:                               # %if.then23
                                        #   in Loop: Header=BB47_9 Depth=1
	leaq	-5184(%rbp), %rdx
	movq	-56(%rbp), %rsi
	movl	-44(%rbp), %ecx
	leaq	-4(%rbp), %rdi
	callq	BZ2_bzWrite
.LBB47_15:                              # %if.end25
                                        #   in Loop: Header=BB47_9 Depth=1
	cmpl	$0, -4(%rbp)
	je	.LBB47_17
# %bb.16:                               # %if.then28
	jmp	.LBB47_40
.LBB47_17:                              # %if.end29
                                        #   in Loop: Header=BB47_9 Depth=1
	jmp	.LBB47_9
.LBB47_18:                              # %while.end
	movq	-56(%rbp), %rsi
	leaq	-4(%rbp), %rdi
	movl	$0, %edx
	leaq	-16(%rbp), %rcx
	leaq	-12(%rbp), %r8
	leaq	-36(%rbp), %r9
	leaq	-40(%rbp), %rax
	movq	%rax, (%rsp)
	callq	BZ2_bzWriteClose64
	cmpl	$0, -4(%rbp)
	je	.LBB47_20
# %bb.19:                               # %if.then32
	jmp	.LBB47_40
.LBB47_20:                              # %if.end33
	movq	-32(%rbp), %rdi
	callq	ferror
	cmpl	$0, %eax
	je	.LBB47_22
# %bb.21:                               # %if.then36
	jmp	.LBB47_46
.LBB47_22:                              # %if.end37
	movq	-32(%rbp), %rdi
	callq	fflush
	movl	%eax, -8(%rbp)
	cmpl	$-1, -8(%rbp)
	jne	.LBB47_24
# %bb.23:                               # %if.then41
	jmp	.LBB47_46
.LBB47_24:                              # %if.end42
	movq	-32(%rbp), %rax
	cmpq	stdout, %rax
	je	.LBB47_28
# %bb.25:                               # %if.then45
	movq	-32(%rbp), %rdi
	callq	fclose
	movl	%eax, -8(%rbp)
	movq	$0, outputHandleJustInCase
	cmpl	$-1, -8(%rbp)
	jne	.LBB47_27
# %bb.26:                               # %if.then49
	jmp	.LBB47_46
.LBB47_27:                              # %if.end50
	jmp	.LBB47_28
.LBB47_28:                              # %if.end51
	movq	$0, outputHandleJustInCase
	movq	-24(%rbp), %rdi
	callq	ferror
	cmpl	$0, %eax
	je	.LBB47_30
# %bb.29:                               # %if.then54
	jmp	.LBB47_46
.LBB47_30:                              # %if.end55
	movq	-24(%rbp), %rdi
	callq	fclose
	movl	%eax, -8(%rbp)
	cmpl	$-1, -8(%rbp)
	jne	.LBB47_32
# %bb.31:                               # %if.then59
	jmp	.LBB47_46
.LBB47_32:                              # %if.end60
	cmpl	$1, verbosity
	jl	.LBB47_38
# %bb.33:                               # %if.then63
	cmpl	$0, -16(%rbp)
	jne	.LBB47_36
# %bb.34:                               # %land.lhs.true
	cmpl	$0, -12(%rbp)
	jne	.LBB47_36
# %bb.35:                               # %if.then68
	movq	stderr, %rdi
	movabsq	$.L.str.74, %rsi
	movb	$0, %al
	callq	fprintf
	jmp	.LBB47_37
.LBB47_36:                              # %if.else
	movl	-16(%rbp), %esi
	movl	-12(%rbp), %edx
	leaq	-88(%rbp), %rdi
	callq	uInt64_from_UInt32s
	movl	-36(%rbp), %esi
	movl	-40(%rbp), %edx
	leaq	-96(%rbp), %rdi
	callq	uInt64_from_UInt32s
	leaq	-88(%rbp), %rdi
	callq	uInt64_to_double
	vmovsd	%xmm0, -72(%rbp)
	leaq	-96(%rbp), %rdi
	callq	uInt64_to_double
	leaq	-176(%rbp), %rdi
	vmovsd	%xmm0, -64(%rbp)
	leaq	-88(%rbp), %rsi
	callq	uInt64_toAscii
	leaq	-144(%rbp), %rdi
	leaq	-96(%rbp), %rsi
	callq	uInt64_toAscii
	leaq	-144(%rbp), %rcx
	leaq	-176(%rbp), %rdx
	vmovsd	.LCPI47_0(%rip), %xmm2  # xmm2 = mem[0],zero
	vmovsd	.LCPI47_1(%rip), %xmm3  # xmm3 = mem[0],zero
	vmovsd	.LCPI47_2(%rip), %xmm1  # xmm1 = mem[0],zero
	movq	stderr, %rdi
	vmovsd	-72(%rbp), %xmm0        # xmm0 = mem[0],zero
	vdivsd	-64(%rbp), %xmm0, %xmm0
	vmulsd	-64(%rbp), %xmm1, %xmm1
	vdivsd	-72(%rbp), %xmm1, %xmm1
	vmovsd	-64(%rbp), %xmm4        # xmm4 = mem[0],zero
	vdivsd	-72(%rbp), %xmm4, %xmm4
	vsubsd	%xmm4, %xmm3, %xmm3
	vmulsd	%xmm3, %xmm2, %xmm2
	movabsq	$.L.str.75, %rsi
	movb	$3, %al
	callq	fprintf
.LBB47_37:                              # %if.end80
	jmp	.LBB47_38
.LBB47_38:                              # %if.end81
	cmpl	$1110678843, -76(%rbp)  # imm = 0x42339D3B
	jne	.LBB47_48
.LBB47_39:
	addq	$5200, %rsp             # imm = 0x1450
	popq	%rbp
	.cfi_def_cfa %rsp, 8
	retq
.LBB47_40:                              # %errhandler
	.cfi_def_cfa %rbp, 16
	movq	-56(%rbp), %rsi
	leaq	-40(%rbp), %rax
	movq	%rax, (%rsp)
	leaq	-100(%rbp), %rdi
	leaq	-16(%rbp), %rcx
	leaq	-12(%rbp), %r8
	leaq	-36(%rbp), %r9
	movl	$1, %edx
	callq	BZ2_bzWriteClose64
	movl	-4(%rbp), %eax
	movl	%eax, %ecx
	subl	$-9, %ecx
	je	.LBB47_43
	jmp	.LBB47_41
.LBB47_41:                              # %errhandler
	movl	%eax, %ecx
	subl	$-6, %ecx
	je	.LBB47_45
	jmp	.LBB47_42
.LBB47_42:                              # %errhandler
	subl	$-3, %eax
	je	.LBB47_44
	jmp	.LBB47_47
.LBB47_43:                              # %sw.bb
	callq	configError
.LBB47_44:                              # %sw.bb82
	callq	outOfMemory
.LBB47_45:                              # %sw.bb83
	jmp	.LBB47_46
.LBB47_46:                              # %errhandler_io
	callq	ioError
.LBB47_47:                              # %sw.default
	movabsq	$.L.str.76, %rdi
	callq	panic
.LBB47_48:                              # %func_exit
	callq	detect_breach
	jmp	.LBB47_39
.Lfunc_end47:
	.size	compressStream.5, .Lfunc_end47-compressStream.5
	.cfi_endproc
                                        # -- End function
	.p2align	4, 0x90         # -- Begin function uncompressStream.6
	.type	uncompressStream.6,@function
uncompressStream.6:                     # @uncompressStream.6
	.cfi_startproc
# %bb.0:                                # %entry
	pushq	%rbp
	.cfi_def_cfa_offset 16
	.cfi_offset %rbp, -16
	movq	%rsp, %rbp
	.cfi_def_cfa_register %rbp
	pushq	%rbx
	subq	$10104, %rsp            # imm = 0x2778
	.cfi_offset %rbx, -24
	movl	$1993371106, -68(%rbp)  # imm = 0x76D06DE2
	movq	%rdi, -32(%rbp)
	movq	%rsi, -24(%rbp)
	movq	$0, -64(%rbp)
	movl	$0, -48(%rbp)
	movl	$0, -52(%rbp)
	movq	-24(%rbp), %rdi
	callq	ferror
	cmpl	$0, %eax
	je	.LBB48_2
# %bb.1:                                # %if.then
	jmp	.LBB48_66
.LBB48_2:                               # %if.end
	movq	-32(%rbp), %rdi
	callq	ferror
	cmpl	$0, %eax
	je	.LBB48_4
# %bb.3:                                # %if.then3
	jmp	.LBB48_66
.LBB48_4:                               # %if.end4
	jmp	.LBB48_5
.LBB48_5:                               # %while.body
                                        # =>This Loop Header: Depth=1
                                        #     Child Loop BB48_9 Depth 2
                                        #     Child Loop BB48_24 Depth 2
	leaq	-10112(%rbp), %r8
	movq	-32(%rbp), %rsi
	movl	verbosity, %edx
	movzbl	smallMode, %ecx
	movl	-48(%rbp), %r9d
	leaq	-16(%rbp), %rdi
	callq	BZ2_bzReadOpen
	movq	%rax, -64(%rbp)
	cmpq	$0, -64(%rbp)
	je	.LBB48_7
# %bb.6:                                # %lor.lhs.false
                                        #   in Loop: Header=BB48_5 Depth=1
	cmpl	$0, -16(%rbp)
	je	.LBB48_8
.LBB48_7:                               # %if.then9
	jmp	.LBB48_62
.LBB48_8:                               # %if.end10
                                        #   in Loop: Header=BB48_5 Depth=1
	movl	-52(%rbp), %eax
	addl	$1, %eax
	movl	%eax, -52(%rbp)
.LBB48_9:                               # %while.cond11
                                        #   Parent Loop BB48_5 Depth=1
                                        # =>  This Inner Loop Header: Depth=2
	cmpl	$0, -16(%rbp)
	jne	.LBB48_19
# %bb.10:                               # %while.body14
                                        #   in Loop: Header=BB48_9 Depth=2
	leaq	-5104(%rbp), %rdx
	movq	-64(%rbp), %rsi
	leaq	-16(%rbp), %rdi
	movl	$5000, %ecx             # imm = 0x1388
	callq	BZ2_bzRead
	movl	%eax, -36(%rbp)
	cmpl	$-5, -16(%rbp)
	jne	.LBB48_12
# %bb.11:                               # %if.then19
	jmp	.LBB48_49
.LBB48_12:                              # %if.end20
                                        #   in Loop: Header=BB48_9 Depth=2
	cmpl	$0, -16(%rbp)
	je	.LBB48_14
# %bb.13:                               # %lor.lhs.false23
                                        #   in Loop: Header=BB48_9 Depth=2
	cmpl	$4, -16(%rbp)
	jne	.LBB48_16
.LBB48_14:                              # %land.lhs.true
                                        #   in Loop: Header=BB48_9 Depth=2
	cmpl	$0, -36(%rbp)
	jle	.LBB48_16
# %bb.15:                               # %if.then28
                                        #   in Loop: Header=BB48_9 Depth=2
	leaq	-5104(%rbp), %rdi
	movslq	-36(%rbp), %rdx
	movq	-24(%rbp), %rcx
	movl	$1, %esi
	callq	fwrite
.LBB48_16:                              # %if.end32
                                        #   in Loop: Header=BB48_9 Depth=2
	movq	-24(%rbp), %rdi
	callq	ferror
	cmpl	$0, %eax
	je	.LBB48_18
# %bb.17:                               # %if.then35
	jmp	.LBB48_66
.LBB48_18:                              # %if.end36
                                        #   in Loop: Header=BB48_9 Depth=2
	jmp	.LBB48_9
.LBB48_19:                              # %while.end
                                        #   in Loop: Header=BB48_5 Depth=1
	cmpl	$4, -16(%rbp)
	je	.LBB48_21
# %bb.20:                               # %if.then39
	jmp	.LBB48_62
.LBB48_21:                              # %if.end40
                                        #   in Loop: Header=BB48_5 Depth=1
	movq	-64(%rbp), %rsi
	leaq	-16(%rbp), %rdi
	leaq	-88(%rbp), %rdx
	leaq	-48(%rbp), %rcx
	callq	BZ2_bzReadGetUnused
	cmpl	$0, -16(%rbp)
	je	.LBB48_23
# %bb.22:                               # %if.then43
	movabsq	$.L.str.88, %rdi
	callq	panic
.LBB48_23:                              # %if.end44
                                        #   in Loop: Header=BB48_5 Depth=1
	movq	-88(%rbp), %rax
	movq	%rax, -80(%rbp)
	movl	$0, -40(%rbp)
.LBB48_24:                              # %for.cond
                                        #   Parent Loop BB48_5 Depth=1
                                        # =>  This Inner Loop Header: Depth=2
	movl	-40(%rbp), %eax
	cmpl	-48(%rbp), %eax
	jge	.LBB48_27
# %bb.25:                               # %for.body
                                        #   in Loop: Header=BB48_24 Depth=2
	movq	-80(%rbp), %rax
	movslq	-40(%rbp), %rcx
	movb	(%rax,%rcx), %al
	movslq	-40(%rbp), %rcx
	movb	%al, -10112(%rbp,%rcx)
# %bb.26:                               # %for.inc
                                        #   in Loop: Header=BB48_24 Depth=2
	movl	-40(%rbp), %eax
	addl	$1, %eax
	movl	%eax, -40(%rbp)
	jmp	.LBB48_24
.LBB48_27:                              # %for.end
                                        #   in Loop: Header=BB48_5 Depth=1
	movq	-64(%rbp), %rsi
	leaq	-16(%rbp), %rdi
	callq	BZ2_bzReadClose
	cmpl	$0, -16(%rbp)
	je	.LBB48_29
# %bb.28:                               # %if.then52
	movabsq	$.L.str.88, %rdi
	callq	panic
.LBB48_29:                              # %if.end53
                                        #   in Loop: Header=BB48_5 Depth=1
	cmpl	$0, -48(%rbp)
	jne	.LBB48_32
# %bb.30:                               # %land.lhs.true56
                                        #   in Loop: Header=BB48_5 Depth=1
	movq	-32(%rbp), %rdi
	callq	myfeof
	movzbl	%al, %eax
	cmpl	$0, %eax
	je	.LBB48_32
# %bb.31:                               # %if.then60
	jmp	.LBB48_33
.LBB48_32:                              # %if.end61
                                        #   in Loop: Header=BB48_5 Depth=1
	jmp	.LBB48_5
.LBB48_33:                              # %while.end62
	jmp	.LBB48_34
.LBB48_34:                              # %closeok
	movq	-32(%rbp), %rdi
	callq	ferror
	cmpl	$0, %eax
	je	.LBB48_36
# %bb.35:                               # %if.then65
	jmp	.LBB48_66
.LBB48_36:                              # %if.end66
	movq	-32(%rbp), %rdi
	callq	fclose
	movl	%eax, -44(%rbp)
	cmpl	$-1, -44(%rbp)
	jne	.LBB48_38
# %bb.37:                               # %if.then70
	jmp	.LBB48_66
.LBB48_38:                              # %if.end71
	movq	-24(%rbp), %rdi
	callq	ferror
	cmpl	$0, %eax
	je	.LBB48_40
# %bb.39:                               # %if.then74
	jmp	.LBB48_66
.LBB48_40:                              # %if.end75
	movq	-24(%rbp), %rdi
	callq	fflush
	movl	%eax, -44(%rbp)
	cmpl	$0, -44(%rbp)
	je	.LBB48_42
# %bb.41:                               # %if.then79
	jmp	.LBB48_66
.LBB48_42:                              # %if.end80
	movq	-24(%rbp), %rax
	cmpq	stdout, %rax
	je	.LBB48_46
# %bb.43:                               # %if.then83
	movq	-24(%rbp), %rdi
	callq	fclose
	movl	%eax, -44(%rbp)
	movq	$0, outputHandleJustInCase
	cmpl	$-1, -44(%rbp)
	jne	.LBB48_45
# %bb.44:                               # %if.then87
	jmp	.LBB48_66
.LBB48_45:                              # %if.end88
	jmp	.LBB48_46
.LBB48_46:                              # %if.end89
	movq	$0, outputHandleJustInCase
	cmpl	$2, verbosity
	jl	.LBB48_48
# %bb.47:                               # %if.then92
	movq	stderr, %rdi
	movabsq	$.L.str.89, %rsi
	movb	$0, %al
	callq	fprintf
.LBB48_48:                              # %if.end94
	movb	$1, -9(%rbp)
	jmp	.LBB48_80
.LBB48_49:                              # %trycat
	cmpb	$0, forceOverwrite
	je	.LBB48_61
# %bb.50:                               # %if.then96
	movq	-32(%rbp), %rdi
	callq	rewind
.LBB48_51:                              # %while.body97
                                        # =>This Inner Loop Header: Depth=1
	movq	-32(%rbp), %rdi
	callq	myfeof
	cmpb	$0, %al
	je	.LBB48_53
# %bb.52:                               # %if.then100
	jmp	.LBB48_60
.LBB48_53:                              # %if.end101
                                        #   in Loop: Header=BB48_51 Depth=1
	leaq	-5104(%rbp), %rdi
	movq	-32(%rbp), %rcx
	movl	$1, %esi
	movl	$5000, %edx             # imm = 0x1388
	callq	fread
	movl	%eax, -36(%rbp)
	movq	-32(%rbp), %rdi
	callq	ferror
	cmpl	$0, %eax
	je	.LBB48_55
# %bb.54:                               # %if.then107
	jmp	.LBB48_66
.LBB48_55:                              # %if.end108
                                        #   in Loop: Header=BB48_51 Depth=1
	cmpl	$0, -36(%rbp)
	jle	.LBB48_57
# %bb.56:                               # %if.then111
                                        #   in Loop: Header=BB48_51 Depth=1
	leaq	-5104(%rbp), %rdi
	movslq	-36(%rbp), %rdx
	movq	-24(%rbp), %rcx
	movl	$1, %esi
	callq	fwrite
.LBB48_57:                              # %if.end115
                                        #   in Loop: Header=BB48_51 Depth=1
	movq	-24(%rbp), %rdi
	callq	ferror
	cmpl	$0, %eax
	je	.LBB48_59
# %bb.58:                               # %if.then118
	jmp	.LBB48_66
.LBB48_59:                              # %if.end119
                                        #   in Loop: Header=BB48_51 Depth=1
	jmp	.LBB48_51
.LBB48_60:                              # %while.end120
	jmp	.LBB48_34
.LBB48_61:                              # %if.end121
	jmp	.LBB48_62
.LBB48_62:                              # %errhandler
	movq	-64(%rbp), %rsi
	leaq	-92(%rbp), %rdi
	callq	BZ2_bzReadClose
	movl	-16(%rbp), %eax
	addl	$9, %eax
	movl	%eax, %ecx
	subl	$6, %ecx
	ja	.LBB48_79
# %bb.63:                               # %errhandler
	movq	.LJTI48_0(,%rax,8), %rax
	jmpq	*%rax
.LBB48_64:                              # %sw.bb
	callq	configError
.LBB48_65:                              # %sw.bb122
	jmp	.LBB48_66
.LBB48_66:                              # %errhandler_io
	callq	ioError
.LBB48_67:                              # %sw.bb123
	callq	crcError
.LBB48_68:                              # %sw.bb124
	callq	outOfMemory
.LBB48_69:                              # %sw.bb125
	callq	compressedStreamEOF
.LBB48_70:                              # %sw.bb126
	movq	-32(%rbp), %rax
	cmpq	stdin, %rax
	je	.LBB48_72
# %bb.71:                               # %if.then129
	movq	-32(%rbp), %rdi
	callq	fclose
.LBB48_72:                              # %if.end131
	movq	-24(%rbp), %rax
	cmpq	stdout, %rax
	je	.LBB48_74
# %bb.73:                               # %if.then134
	movq	-24(%rbp), %rdi
	callq	fclose
.LBB48_74:                              # %if.end136
	cmpl	$1, -52(%rbp)
	jne	.LBB48_76
# %bb.75:                               # %if.then139
	movb	$0, -9(%rbp)
	jmp	.LBB48_80
.LBB48_76:                              # %if.else
	cmpb	$0, noisy
	je	.LBB48_78
# %bb.77:                               # %if.then141
	movq	stderr, %rdi
	movq	progName, %rdx
	movabsq	$.L.str.90, %rsi
	movabsq	$inName, %rcx
	movb	$0, %al
	callq	fprintf
.LBB48_78:                              # %if.end143
	movb	$1, -9(%rbp)
	jmp	.LBB48_80
.LBB48_79:                              # %sw.default
	movabsq	$.L.str.91, %rdi
	callq	panic
.LBB48_80:                              # %return
	movb	-9(%rbp), %bl
	cmpl	$1993371106, -68(%rbp)  # imm = 0x76D06DE2
	jne	.LBB48_82
.LBB48_81:
	movzbl	%bl, %eax
	addq	$10104, %rsp            # imm = 0x2778
	popq	%rbx
	popq	%rbp
	.cfi_def_cfa %rsp, 8
	retq
.LBB48_82:                              # %func_exit
	.cfi_def_cfa %rbp, 16
	callq	detect_breach
	jmp	.LBB48_81
.Lfunc_end48:
	.size	uncompressStream.6, .Lfunc_end48-uncompressStream.6
	.cfi_endproc
	.section	.rodata,"a",@progbits
	.p2align	3
.LJTI48_0:
	.quad	.LBB48_64
	.quad	.LBB48_79
	.quad	.LBB48_69
	.quad	.LBB48_65
	.quad	.LBB48_70
	.quad	.LBB48_67
	.quad	.LBB48_68
                                        # -- End function
	.text
	.p2align	4, 0x90         # -- Begin function uInt64_qrm10.7
	.type	uInt64_qrm10.7,@function
uInt64_qrm10.7:                         # @uInt64_qrm10.7
	.cfi_startproc
# %bb.0:                                # %entry
	pushq	%rbp
	.cfi_def_cfa_offset 16
	.cfi_offset %rbp, -16
	movq	%rsp, %rbp
	.cfi_def_cfa_register %rbp
	pushq	%rbx
	subq	$24, %rsp
	.cfi_offset %rbx, -24
	movl	$1291677279, -24(%rbp)  # imm = 0x4CFD6E5F
	movq	%rdi, -32(%rbp)
	movl	$0, -16(%rbp)
	movl	$7, -12(%rbp)
.LBB49_1:                               # %for.cond
                                        # =>This Inner Loop Header: Depth=1
	cmpl	$0, -12(%rbp)
	jl	.LBB49_4
# %bb.2:                                # %for.body
                                        #   in Loop: Header=BB49_1 Depth=1
	movl	-16(%rbp), %eax
	shll	$8, %eax
	movq	-32(%rbp), %rcx
	movslq	-12(%rbp), %rdx
	movzbl	(%rcx,%rdx), %ecx
	addl	%ecx, %eax
	movl	%eax, -20(%rbp)
	movl	-20(%rbp), %eax
	xorl	%edx, %edx
	movl	$10, %ecx
	divl	%ecx
	movq	-32(%rbp), %rdx
	movslq	-12(%rbp), %rsi
	movb	%al, (%rdx,%rsi)
	movl	-20(%rbp), %eax
	xorl	%edx, %edx
	divl	%ecx
	movl	%edx, -16(%rbp)
# %bb.3:                                # %for.inc
                                        #   in Loop: Header=BB49_1 Depth=1
	movl	-12(%rbp), %eax
	addl	$-1, %eax
	movl	%eax, -12(%rbp)
	jmp	.LBB49_1
.LBB49_4:                               # %for.end
	movl	-16(%rbp), %ebx
	cmpl	$1291677279, -24(%rbp)  # imm = 0x4CFD6E5F
	jne	.LBB49_6
.LBB49_5:
	movl	%ebx, %eax
	addq	$24, %rsp
	popq	%rbx
	popq	%rbp
	.cfi_def_cfa %rsp, 8
	retq
.LBB49_6:                               # %func_exit
	.cfi_def_cfa %rbp, 16
	callq	detect_breach
	jmp	.LBB49_5
.Lfunc_end49:
	.size	uInt64_qrm10.7, .Lfunc_end49-uInt64_qrm10.7
	.cfi_endproc
                                        # -- End function
	.p2align	4, 0x90         # -- Begin function copyFileName.8
	.type	copyFileName.8,@function
copyFileName.8:                         # @copyFileName.8
	.cfi_startproc
# %bb.0:                                # %entry
	pushq	%rbp
	.cfi_def_cfa_offset 16
	.cfi_offset %rbp, -16
	movq	%rsp, %rbp
	.cfi_def_cfa_register %rbp
	subq	$32, %rsp
	movl	$150262339, -12(%rbp)   # imm = 0x8F4D243
	movq	%rdi, -24(%rbp)
	movq	%rsi, -8(%rbp)
	movq	-8(%rbp), %rdi
	callq	strlen
	cmpq	$1024, %rax             # imm = 0x400
	jbe	.LBB50_2
# %bb.1:                                # %if.then
	movq	stderr, %rdi
	movq	-8(%rbp), %rdx
	movabsq	$.L.str.47, %rsi
	movl	$1024, %ecx             # imm = 0x400
	movb	$0, %al
	callq	fprintf
	movl	$1, %edi
	callq	setExit
	movl	exitValue, %edi
	callq	exit
.LBB50_2:                               # %if.end
	movq	-24(%rbp), %rdi
	movq	-8(%rbp), %rsi
	movl	$1024, %edx             # imm = 0x400
	callq	strncpy
	movq	-24(%rbp), %rax
	movb	$0, 1024(%rax)
	cmpl	$150262339, -12(%rbp)   # imm = 0x8F4D243
	jne	.LBB50_4
.LBB50_3:
	addq	$32, %rsp
	popq	%rbp
	.cfi_def_cfa %rsp, 8
	retq
.LBB50_4:                               # %func_exit
	.cfi_def_cfa %rbp, 16
	callq	detect_breach
	jmp	.LBB50_3
.Lfunc_end50:
	.size	copyFileName.8, .Lfunc_end50-copyFileName.8
	.cfi_endproc
                                        # -- End function
	.p2align	4, 0x90         # -- Begin function hasSuffix.9
	.type	hasSuffix.9,@function
hasSuffix.9:                            # @hasSuffix.9
	.cfi_startproc
# %bb.0:                                # %entry
	pushq	%rbp
	.cfi_def_cfa_offset 16
	.cfi_offset %rbp, -16
	movq	%rsp, %rbp
	.cfi_def_cfa_register %rbp
	pushq	%rbx
	subq	$40, %rsp
	.cfi_offset %rbx, -24
	movl	$567990545, -24(%rbp)   # imm = 0x21DAD911
	movq	%rdi, -40(%rbp)
	movq	%rsi, -32(%rbp)
	movq	-40(%rbp), %rdi
	callq	strlen
	movl	%eax, -20(%rbp)
	movq	-32(%rbp), %rdi
	callq	strlen
	movl	%eax, -16(%rbp)
	movl	-20(%rbp), %eax
	cmpl	-16(%rbp), %eax
	jge	.LBB51_2
# %bb.1:                                # %if.then
	movb	$0, -9(%rbp)
	jmp	.LBB51_5
.LBB51_2:                               # %if.end
	xorl	%eax, %eax
	movq	-40(%rbp), %rdi
	movslq	-20(%rbp), %rcx
	addq	%rcx, %rdi
	movslq	-16(%rbp), %rcx
	subq	%rcx, %rax
	addq	%rax, %rdi
	movq	-32(%rbp), %rsi
	callq	strcmp
	cmpl	$0, %eax
	jne	.LBB51_4
# %bb.3:                                # %if.then9
	movb	$1, -9(%rbp)
	jmp	.LBB51_5
.LBB51_4:                               # %if.end10
	movb	$0, -9(%rbp)
.LBB51_5:                               # %return
	movb	-9(%rbp), %bl
	cmpl	$567990545, -24(%rbp)   # imm = 0x21DAD911
	jne	.LBB51_7
.LBB51_6:
	movzbl	%bl, %eax
	addq	$40, %rsp
	popq	%rbx
	popq	%rbp
	.cfi_def_cfa %rsp, 8
	retq
.LBB51_7:                               # %func_exit
	.cfi_def_cfa %rbp, 16
	callq	detect_breach
	jmp	.LBB51_6
.Lfunc_end51:
	.size	hasSuffix.9, .Lfunc_end51-hasSuffix.9
	.cfi_endproc
                                        # -- End function
	.p2align	4, 0x90         # -- Begin function addFlagsFromEnvVar.10
	.type	addFlagsFromEnvVar.10,@function
addFlagsFromEnvVar.10:                  # @addFlagsFromEnvVar.10
	.cfi_startproc
# %bb.0:                                # %entry
	pushq	%rbp
	.cfi_def_cfa_offset 16
	.cfi_offset %rbp, -16
	movq	%rsp, %rbp
	.cfi_def_cfa_register %rbp
	subq	$48, %rsp
	movl	$1998235903, -24(%rbp)  # imm = 0x771AA8FF
	movq	%rdi, -32(%rbp)
	movq	%rsi, -48(%rbp)
	movq	-48(%rbp), %rdi
	callq	getenv
	movq	%rax, -40(%rbp)
	cmpq	$0, -40(%rbp)
	je	.LBB52_22
# %bb.1:                                # %if.then
	movq	-40(%rbp), %rax
	movq	%rax, -16(%rbp)
	movl	$0, -4(%rbp)
.LBB52_2:                               # %while.body
                                        # =>This Loop Header: Depth=1
                                        #     Child Loop BB52_5 Depth 2
                                        #     Child Loop BB52_8 Depth 2
                                        #     Child Loop BB52_16 Depth 2
	movq	-16(%rbp), %rax
	movslq	-4(%rbp), %rcx
	movsbl	(%rax,%rcx), %eax
	cmpl	$0, %eax
	jne	.LBB52_4
# %bb.3:                                # %if.then3
	jmp	.LBB52_21
.LBB52_4:                               # %if.end
                                        #   in Loop: Header=BB52_2 Depth=1
	movl	-4(%rbp), %eax
	movq	-16(%rbp), %rcx
	cltq
	addq	%rax, %rcx
	movq	%rcx, -16(%rbp)
	movl	$0, -4(%rbp)
.LBB52_5:                               # %while.cond4
                                        #   Parent Loop BB52_2 Depth=1
                                        # =>  This Inner Loop Header: Depth=2
	callq	__ctype_b_loc
	movq	(%rax), %rax
	movq	-16(%rbp), %rcx
	movsbl	(%rcx), %ecx
	movslq	%ecx, %rcx
	movzwl	(%rax,%rcx,2), %eax
	andl	$8192, %eax             # imm = 0x2000
	cmpl	$0, %eax
	je	.LBB52_7
# %bb.6:                                # %while.body11
                                        #   in Loop: Header=BB52_5 Depth=2
	movq	-16(%rbp), %rax
	addq	$1, %rax
	movq	%rax, -16(%rbp)
	jmp	.LBB52_5
.LBB52_7:                               # %while.end
                                        #   in Loop: Header=BB52_2 Depth=1
	jmp	.LBB52_8
.LBB52_8:                               # %while.cond12
                                        #   Parent Loop BB52_2 Depth=1
                                        # =>  This Inner Loop Header: Depth=2
	xorl	%eax, %eax
	movq	-16(%rbp), %rcx
	movslq	-4(%rbp), %rdx
	movsbl	(%rcx,%rdx), %ecx
	cmpl	$0, %ecx
	je	.LBB52_10
# %bb.9:                                # %land.rhs
                                        #   in Loop: Header=BB52_8 Depth=2
	callq	__ctype_b_loc
	movq	(%rax), %rax
	movq	-16(%rbp), %rcx
	movslq	-4(%rbp), %rdx
	movsbl	(%rcx,%rdx), %ecx
	movslq	%ecx, %rcx
	movzwl	(%rax,%rcx,2), %eax
	andl	$8192, %eax             # imm = 0x2000
	cmpl	$0, %eax
	setne	%al
	xorb	$-1, %al
.LBB52_10:                              # %land.end
                                        #   in Loop: Header=BB52_8 Depth=2
	testb	$1, %al
	jne	.LBB52_11
	jmp	.LBB52_12
.LBB52_11:                              # %while.body27
                                        #   in Loop: Header=BB52_8 Depth=2
	movl	-4(%rbp), %eax
	addl	$1, %eax
	movl	%eax, -4(%rbp)
	jmp	.LBB52_8
.LBB52_12:                              # %while.end28
                                        #   in Loop: Header=BB52_2 Depth=1
	cmpl	$0, -4(%rbp)
	jle	.LBB52_20
# %bb.13:                               # %if.then31
                                        #   in Loop: Header=BB52_2 Depth=1
	movl	-4(%rbp), %eax
	movl	%eax, -20(%rbp)
	cmpl	$1024, -20(%rbp)        # imm = 0x400
	jle	.LBB52_15
# %bb.14:                               # %if.then34
                                        #   in Loop: Header=BB52_2 Depth=1
	movl	$1024, -20(%rbp)        # imm = 0x400
.LBB52_15:                              # %if.end35
                                        #   in Loop: Header=BB52_2 Depth=1
	movl	$0, -8(%rbp)
.LBB52_16:                              # %for.cond
                                        #   Parent Loop BB52_2 Depth=1
                                        # =>  This Inner Loop Header: Depth=2
	movl	-8(%rbp), %eax
	cmpl	-20(%rbp), %eax
	jge	.LBB52_19
# %bb.17:                               # %for.body
                                        #   in Loop: Header=BB52_16 Depth=2
	movq	-16(%rbp), %rax
	movslq	-8(%rbp), %rcx
	movb	(%rax,%rcx), %al
	movslq	-8(%rbp), %rcx
	movb	%al, tmpName(,%rcx)
# %bb.18:                               # %for.inc
                                        #   in Loop: Header=BB52_16 Depth=2
	movl	-8(%rbp), %eax
	addl	$1, %eax
	movl	%eax, -8(%rbp)
	jmp	.LBB52_16
.LBB52_19:                              # %for.end
                                        #   in Loop: Header=BB52_2 Depth=1
	movslq	-20(%rbp), %rax
	movb	$0, tmpName(,%rax)
	movq	-32(%rbp), %rax
	movq	(%rax), %rdi
	movabsq	$tmpName, %rsi
	callq	snocString
	movq	-32(%rbp), %rcx
	movq	%rax, (%rcx)
.LBB52_20:                              # %if.end46
                                        #   in Loop: Header=BB52_2 Depth=1
	jmp	.LBB52_2
.LBB52_21:                              # %while.end47
	jmp	.LBB52_22
.LBB52_22:                              # %if.end48
	cmpl	$1998235903, -24(%rbp)  # imm = 0x771AA8FF
	jne	.LBB52_24
.LBB52_23:
	addq	$48, %rsp
	popq	%rbp
	.cfi_def_cfa %rsp, 8
	retq
.LBB52_24:                              # %func_exit
	.cfi_def_cfa %rbp, 16
	callq	detect_breach
	jmp	.LBB52_23
.Lfunc_end52:
	.size	addFlagsFromEnvVar.10, .Lfunc_end52-addFlagsFromEnvVar.10
	.cfi_endproc
                                        # -- End function
	.p2align	4, 0x90         # -- Begin function fileExists.11
	.type	fileExists.11,@function
fileExists.11:                          # @fileExists.11
	.cfi_startproc
# %bb.0:                                # %entry
	pushq	%rbp
	.cfi_def_cfa_offset 16
	.cfi_offset %rbp, -16
	movq	%rsp, %rbp
	.cfi_def_cfa_register %rbp
	pushq	%rbx
	subq	$40, %rsp
	.cfi_offset %rbx, -24
	movl	$620252855, -28(%rbp)   # imm = 0x24F84EB7
	movq	%rdi, -40(%rbp)
	movq	-40(%rbp), %rdi
	movabsq	$.L.str.66, %rsi
	callq	fopen
	movq	%rax, -24(%rbp)
	cmpq	$0, -24(%rbp)
	setne	%al
	andb	$1, %al
	movzbl	%al, %eax
	movb	%al, -9(%rbp)
	cmpq	$0, -24(%rbp)
	je	.LBB53_2
# %bb.1:                                # %if.then
	movq	-24(%rbp), %rdi
	callq	fclose
.LBB53_2:                               # %if.end
	movb	-9(%rbp), %bl
	cmpl	$620252855, -28(%rbp)   # imm = 0x24F84EB7
	jne	.LBB53_4
.LBB53_3:
	movzbl	%bl, %eax
	addq	$40, %rsp
	popq	%rbx
	popq	%rbp
	.cfi_def_cfa %rsp, 8
	retq
.LBB53_4:                               # %func_exit
	.cfi_def_cfa %rbp, 16
	callq	detect_breach
	jmp	.LBB53_3
.Lfunc_end53:
	.size	fileExists.11, .Lfunc_end53-fileExists.11
	.cfi_endproc
                                        # -- End function
	.section	.rodata.cst8,"aM",@progbits,8
	.p2align	3               # -- Begin function compressStream.12
.LCPI54_0:
	.quad	4636737291354636288     # double 100
.LCPI54_1:
	.quad	4607182418800017408     # double 1
.LCPI54_2:
	.quad	4620693217682128896     # double 8
	.text
	.p2align	4, 0x90
	.type	compressStream.12,@function
compressStream.12:                      # @compressStream.12
	.cfi_startproc
# %bb.0:                                # %entry
	pushq	%rbp
	.cfi_def_cfa_offset 16
	.cfi_offset %rbp, -16
	movq	%rsp, %rbp
	.cfi_def_cfa_register %rbp
	subq	$5200, %rsp             # imm = 0x1450
	movl	$304073833, -76(%rbp)   # imm = 0x121FCC69
	movq	%rdi, -24(%rbp)
	movq	%rsi, -32(%rbp)
	movq	$0, -56(%rbp)
	movq	-24(%rbp), %rdi
	callq	ferror
	cmpl	$0, %eax
	je	.LBB54_2
# %bb.1:                                # %if.then
	jmp	.LBB54_46
.LBB54_2:                               # %if.end
	movq	-32(%rbp), %rdi
	callq	ferror
	cmpl	$0, %eax
	je	.LBB54_4
# %bb.3:                                # %if.then3
	jmp	.LBB54_46
.LBB54_4:                               # %if.end4
	movq	-32(%rbp), %rsi
	movl	blockSize100k, %edx
	movl	verbosity, %ecx
	movl	workFactor, %r8d
	leaq	-4(%rbp), %rdi
	callq	BZ2_bzWriteOpen
	movq	%rax, -56(%rbp)
	cmpl	$0, -4(%rbp)
	je	.LBB54_6
# %bb.5:                                # %if.then6
	jmp	.LBB54_40
.LBB54_6:                               # %if.end7
	cmpl	$2, verbosity
	jl	.LBB54_8
# %bb.7:                                # %if.then9
	movq	stderr, %rdi
	movabsq	$.L.str.73, %rsi
	movb	$0, %al
	callq	fprintf
.LBB54_8:                               # %if.end11
	jmp	.LBB54_9
.LBB54_9:                               # %while.body
                                        # =>This Inner Loop Header: Depth=1
	movq	-24(%rbp), %rdi
	callq	myfeof
	cmpb	$0, %al
	je	.LBB54_11
# %bb.10:                               # %if.then14
	jmp	.LBB54_18
.LBB54_11:                              # %if.end15
                                        #   in Loop: Header=BB54_9 Depth=1
	leaq	-5184(%rbp), %rdi
	movq	-24(%rbp), %rcx
	movl	$1, %esi
	movl	$5000, %edx             # imm = 0x1388
	callq	fread
	movl	%eax, -40(%rbp)
	movq	-24(%rbp), %rdi
	callq	ferror
	cmpl	$0, %eax
	je	.LBB54_13
# %bb.12:                               # %if.then19
	jmp	.LBB54_46
.LBB54_13:                              # %if.end20
                                        #   in Loop: Header=BB54_9 Depth=1
	cmpl	$0, -40(%rbp)
	jle	.LBB54_15
# %bb.14:                               # %if.then23
                                        #   in Loop: Header=BB54_9 Depth=1
	leaq	-5184(%rbp), %rdx
	movq	-56(%rbp), %rsi
	movl	-40(%rbp), %ecx
	leaq	-4(%rbp), %rdi
	callq	BZ2_bzWrite
.LBB54_15:                              # %if.end25
                                        #   in Loop: Header=BB54_9 Depth=1
	cmpl	$0, -4(%rbp)
	je	.LBB54_17
# %bb.16:                               # %if.then28
	jmp	.LBB54_40
.LBB54_17:                              # %if.end29
                                        #   in Loop: Header=BB54_9 Depth=1
	jmp	.LBB54_9
.LBB54_18:                              # %while.end
	movq	-56(%rbp), %rsi
	leaq	-4(%rbp), %rdi
	movl	$0, %edx
	leaq	-12(%rbp), %rcx
	leaq	-16(%rbp), %r8
	leaq	-36(%rbp), %r9
	leaq	-44(%rbp), %rax
	movq	%rax, (%rsp)
	callq	BZ2_bzWriteClose64
	cmpl	$0, -4(%rbp)
	je	.LBB54_20
# %bb.19:                               # %if.then32
	jmp	.LBB54_40
.LBB54_20:                              # %if.end33
	movq	-32(%rbp), %rdi
	callq	ferror
	cmpl	$0, %eax
	je	.LBB54_22
# %bb.21:                               # %if.then36
	jmp	.LBB54_46
.LBB54_22:                              # %if.end37
	movq	-32(%rbp), %rdi
	callq	fflush
	movl	%eax, -8(%rbp)
	cmpl	$-1, -8(%rbp)
	jne	.LBB54_24
# %bb.23:                               # %if.then41
	jmp	.LBB54_46
.LBB54_24:                              # %if.end42
	movq	-32(%rbp), %rax
	cmpq	stdout, %rax
	je	.LBB54_28
# %bb.25:                               # %if.then45
	movq	-32(%rbp), %rdi
	callq	fclose
	movl	%eax, -8(%rbp)
	movq	$0, outputHandleJustInCase
	cmpl	$-1, -8(%rbp)
	jne	.LBB54_27
# %bb.26:                               # %if.then49
	jmp	.LBB54_46
.LBB54_27:                              # %if.end50
	jmp	.LBB54_28
.LBB54_28:                              # %if.end51
	movq	$0, outputHandleJustInCase
	movq	-24(%rbp), %rdi
	callq	ferror
	cmpl	$0, %eax
	je	.LBB54_30
# %bb.29:                               # %if.then54
	jmp	.LBB54_46
.LBB54_30:                              # %if.end55
	movq	-24(%rbp), %rdi
	callq	fclose
	movl	%eax, -8(%rbp)
	cmpl	$-1, -8(%rbp)
	jne	.LBB54_32
# %bb.31:                               # %if.then59
	jmp	.LBB54_46
.LBB54_32:                              # %if.end60
	cmpl	$1, verbosity
	jl	.LBB54_38
# %bb.33:                               # %if.then63
	cmpl	$0, -12(%rbp)
	jne	.LBB54_36
# %bb.34:                               # %land.lhs.true
	cmpl	$0, -16(%rbp)
	jne	.LBB54_36
# %bb.35:                               # %if.then68
	movq	stderr, %rdi
	movabsq	$.L.str.74, %rsi
	movb	$0, %al
	callq	fprintf
	jmp	.LBB54_37
.LBB54_36:                              # %if.else
	movl	-12(%rbp), %esi
	movl	-16(%rbp), %edx
	leaq	-88(%rbp), %rdi
	callq	uInt64_from_UInt32s
	movl	-36(%rbp), %esi
	movl	-44(%rbp), %edx
	leaq	-96(%rbp), %rdi
	callq	uInt64_from_UInt32s
	leaq	-88(%rbp), %rdi
	callq	uInt64_to_double
	vmovsd	%xmm0, -64(%rbp)
	leaq	-96(%rbp), %rdi
	callq	uInt64_to_double
	leaq	-176(%rbp), %rdi
	vmovsd	%xmm0, -72(%rbp)
	leaq	-88(%rbp), %rsi
	callq	uInt64_toAscii
	leaq	-144(%rbp), %rdi
	leaq	-96(%rbp), %rsi
	callq	uInt64_toAscii
	leaq	-144(%rbp), %rcx
	leaq	-176(%rbp), %rdx
	vmovsd	.LCPI54_0(%rip), %xmm2  # xmm2 = mem[0],zero
	vmovsd	.LCPI54_1(%rip), %xmm3  # xmm3 = mem[0],zero
	vmovsd	.LCPI54_2(%rip), %xmm1  # xmm1 = mem[0],zero
	movq	stderr, %rdi
	vmovsd	-64(%rbp), %xmm0        # xmm0 = mem[0],zero
	vdivsd	-72(%rbp), %xmm0, %xmm0
	vmulsd	-72(%rbp), %xmm1, %xmm1
	vdivsd	-64(%rbp), %xmm1, %xmm1
	vmovsd	-72(%rbp), %xmm4        # xmm4 = mem[0],zero
	vdivsd	-64(%rbp), %xmm4, %xmm4
	vsubsd	%xmm4, %xmm3, %xmm3
	vmulsd	%xmm3, %xmm2, %xmm2
	movabsq	$.L.str.75, %rsi
	movb	$3, %al
	callq	fprintf
.LBB54_37:                              # %if.end80
	jmp	.LBB54_38
.LBB54_38:                              # %if.end81
	cmpl	$304073833, -76(%rbp)   # imm = 0x121FCC69
	jne	.LBB54_48
.LBB54_39:
	addq	$5200, %rsp             # imm = 0x1450
	popq	%rbp
	.cfi_def_cfa %rsp, 8
	retq
.LBB54_40:                              # %errhandler
	.cfi_def_cfa %rbp, 16
	movq	-56(%rbp), %rsi
	leaq	-44(%rbp), %rax
	movq	%rax, (%rsp)
	leaq	-100(%rbp), %rdi
	leaq	-12(%rbp), %rcx
	leaq	-16(%rbp), %r8
	leaq	-36(%rbp), %r9
	movl	$1, %edx
	callq	BZ2_bzWriteClose64
	movl	-4(%rbp), %eax
	movl	%eax, %ecx
	subl	$-9, %ecx
	je	.LBB54_43
	jmp	.LBB54_41
.LBB54_41:                              # %errhandler
	movl	%eax, %ecx
	subl	$-6, %ecx
	je	.LBB54_45
	jmp	.LBB54_42
.LBB54_42:                              # %errhandler
	subl	$-3, %eax
	je	.LBB54_44
	jmp	.LBB54_47
.LBB54_43:                              # %sw.bb
	callq	configError
.LBB54_44:                              # %sw.bb82
	callq	outOfMemory
.LBB54_45:                              # %sw.bb83
	jmp	.LBB54_46
.LBB54_46:                              # %errhandler_io
	callq	ioError
.LBB54_47:                              # %sw.default
	movabsq	$.L.str.76, %rdi
	callq	panic
.LBB54_48:                              # %func_exit
	callq	detect_breach
	jmp	.LBB54_39
.Lfunc_end54:
	.size	compressStream.12, .Lfunc_end54-compressStream.12
	.cfi_endproc
                                        # -- End function
	.p2align	4, 0x90         # -- Begin function snocString.13
	.type	snocString.13,@function
snocString.13:                          # @snocString.13
	.cfi_startproc
# %bb.0:                                # %entry
	pushq	%rbp
	.cfi_def_cfa_offset 16
	.cfi_offset %rbp, -16
	movq	%rsp, %rbp
	.cfi_def_cfa_register %rbp
	pushq	%rbx
	subq	$56, %rsp
	.cfi_offset %rbx, -24
	movl	$142100971, -44(%rbp)   # imm = 0x87849EB
	movq	%rdi, -24(%rbp)
	movq	%rsi, -32(%rbp)
	cmpq	$0, -24(%rbp)
	jne	.LBB55_2
# %bb.1:                                # %if.then
	callq	mkCell
	movq	%rax, -40(%rbp)
	movq	-32(%rbp), %rdi
	callq	strlen
	addq	$5, %rax
	movl	%eax, %edi
	callq	myMalloc
	movq	-40(%rbp), %rcx
	movq	%rax, (%rcx)
	movq	-40(%rbp), %rax
	movq	(%rax), %rdi
	movq	-32(%rbp), %rsi
	callq	strcpy
	movq	-40(%rbp), %rax
	movq	%rax, -56(%rbp)
	jmp	.LBB55_6
.LBB55_2:                               # %if.else
	movq	-24(%rbp), %rax
	movq	%rax, -16(%rbp)
.LBB55_3:                               # %while.cond
                                        # =>This Inner Loop Header: Depth=1
	movq	-16(%rbp), %rax
	cmpq	$0, 8(%rax)
	je	.LBB55_5
# %bb.4:                                # %while.body
                                        #   in Loop: Header=BB55_3 Depth=1
	movq	-16(%rbp), %rax
	movq	8(%rax), %rax
	movq	%rax, -16(%rbp)
	jmp	.LBB55_3
.LBB55_5:                               # %while.end
	movq	-16(%rbp), %rax
	movq	8(%rax), %rdi
	movq	-32(%rbp), %rsi
	callq	snocString
	movq	-16(%rbp), %rcx
	movq	%rax, 8(%rcx)
	movq	-24(%rbp), %rax
	movq	%rax, -56(%rbp)
.LBB55_6:                               # %return
	movq	-56(%rbp), %rbx
	cmpl	$142100971, -44(%rbp)   # imm = 0x87849EB
	jne	.LBB55_8
.LBB55_7:
	movq	%rbx, %rax
	addq	$56, %rsp
	popq	%rbx
	popq	%rbp
	.cfi_def_cfa %rsp, 8
	retq
.LBB55_8:                               # %func_exit
	.cfi_def_cfa %rbp, 16
	callq	detect_breach
	jmp	.LBB55_7
.Lfunc_end55:
	.size	snocString.13, .Lfunc_end55-snocString.13
	.cfi_endproc
                                        # -- End function
	.p2align	4, 0x90         # -- Begin function uncompress.14
	.type	uncompress.14,@function
uncompress.14:                          # @uncompress.14
	.cfi_startproc
# %bb.0:                                # %entry
	pushq	%rbp
	.cfi_def_cfa_offset 16
	.cfi_offset %rbp, -16
	movq	%rsp, %rbp
	.cfi_def_cfa_register %rbp
	pushq	%r14
	pushq	%rbx
	subq	$208, %rsp
	.cfi_offset %rbx, -32
	.cfi_offset %r14, -24
	movl	$1745119869, -68(%rbp)  # imm = 0x68046A7D
	movq	%rdi, -56(%rbp)
	movb	$0, deleteOutputOnInterrupt
	cmpq	$0, -56(%rbp)
	jne	.LBB56_3
# %bb.1:                                # %land.lhs.true
	cmpl	$1, srcMode
	je	.LBB56_3
# %bb.2:                                # %if.then
	movabsq	$.L.str.79, %rdi
	callq	panic
.LBB56_3:                               # %if.end
	movb	$0, -18(%rbp)
	movl	srcMode(%rip), %eax
	movl	%eax, %ecx
	subl	$1, %ecx
	je	.LBB56_6
	jmp	.LBB56_4
.LBB56_4:                               # %if.end
	movl	%eax, %ecx
	subl	$2, %ecx
	je	.LBB56_14
	jmp	.LBB56_5
.LBB56_5:                               # %if.end
	subl	$3, %eax
	je	.LBB56_7
	jmp	.LBB56_15
.LBB56_6:                               # %sw.bb
	movabsq	$inName, %rdi
	movabsq	$.L.str.54, %rsi
	callq	copyFileName
	movabsq	$outName, %rdi
	movabsq	$.L.str.55, %rsi
	callq	copyFileName
	jmp	.LBB56_15
.LBB56_7:                               # %sw.bb2
	movq	-56(%rbp), %rsi
	movabsq	$inName, %rdi
	callq	copyFileName
	movq	-56(%rbp), %rsi
	movabsq	$outName, %rdi
	callq	copyFileName
	movl	$0, -24(%rbp)
.LBB56_8:                               # %for.cond
                                        # =>This Inner Loop Header: Depth=1
	cmpl	$4, -24(%rbp)
	jge	.LBB56_13
# %bb.9:                                # %for.body
                                        #   in Loop: Header=BB56_8 Depth=1
	movslq	-24(%rbp), %rax
	movq	zSuffix(,%rax,8), %rsi
	movslq	-24(%rbp), %rax
	movq	unzSuffix(,%rax,8), %rdx
	movabsq	$outName, %rdi
	callq	mapSuffix
	cmpb	$0, %al
	je	.LBB56_11
# %bb.10:                               # %if.then6
	jmp	.LBB56_16
.LBB56_11:                              # %if.end7
                                        #   in Loop: Header=BB56_8 Depth=1
	jmp	.LBB56_12
.LBB56_12:                              # %for.inc
                                        #   in Loop: Header=BB56_8 Depth=1
	movl	-24(%rbp), %eax
	addl	$1, %eax
	movl	%eax, -24(%rbp)
	jmp	.LBB56_8
.LBB56_13:                              # %for.end
	movb	$1, -18(%rbp)
	movabsq	$outName, %rdi
	movabsq	$.L.str.80, %rsi
	callq	strcat
	jmp	.LBB56_15
.LBB56_14:                              # %sw.bb9
	movq	-56(%rbp), %rsi
	movabsq	$inName, %rdi
	callq	copyFileName
	movabsq	$outName, %rdi
	movabsq	$.L.str.55, %rsi
	callq	copyFileName
.LBB56_15:                              # %sw.epilog
	jmp	.LBB56_16
.LBB56_16:                              # %zzz
	cmpl	$1, srcMode
	je	.LBB56_21
# %bb.17:                               # %land.lhs.true11
	movabsq	$inName, %rdi
	callq	containsDubiousChars
	movzbl	%al, %eax
	cmpl	$0, %eax
	je	.LBB56_21
# %bb.18:                               # %if.then14
	cmpb	$0, noisy
	je	.LBB56_20
# %bb.19:                               # %if.then16
	movq	stderr, %rdi
	movq	progName, %rdx
	movabsq	$.L.str.56, %rsi
	movabsq	$inName, %rcx
	movb	$0, %al
	callq	fprintf
.LBB56_20:                              # %if.end18
	movl	$1, %edi
	callq	setExit
	jmp	.LBB56_95
.LBB56_21:                              # %if.end19
	cmpl	$1, srcMode
	je	.LBB56_24
# %bb.22:                               # %land.lhs.true22
	movabsq	$inName, %rdi
	callq	fileExists
	cmpb	$0, %al
	jne	.LBB56_24
# %bb.23:                               # %if.then25
	movq	stderr, %rbx
	movq	progName, %r14
	callq	__errno_location
	movl	(%rax), %edi
	callq	strerror
	movq	%rbx, %rdi
	movabsq	$.L.str.57, %rsi
	movq	%r14, %rdx
	movabsq	$inName, %rcx
	movq	%rax, %r8
	movb	$0, %al
	callq	fprintf
	movl	$1, %edi
	callq	setExit
	jmp	.LBB56_95
.LBB56_24:                              # %if.end29
	cmpl	$3, srcMode
	je	.LBB56_26
# %bb.25:                               # %lor.lhs.false
	cmpl	$2, srcMode
	jne	.LBB56_29
.LBB56_26:                              # %if.then34
	movabsq	$inName, %rdi
	leaq	-216(%rbp), %rsi
	callq	stat
	movl	-192(%rbp), %eax
	andl	$61440, %eax            # imm = 0xF000
	cmpl	$16384, %eax            # imm = 0x4000
	jne	.LBB56_28
# %bb.27:                               # %if.then38
	movq	stderr, %rdi
	movq	progName, %rdx
	movabsq	$.L.str.59, %rsi
	movabsq	$inName, %rcx
	movb	$0, %al
	callq	fprintf
	movl	$1, %edi
	callq	setExit
	jmp	.LBB56_95
.LBB56_28:                              # %if.end40
	jmp	.LBB56_29
.LBB56_29:                              # %if.end41
	cmpl	$3, srcMode
	jne	.LBB56_35
# %bb.30:                               # %land.lhs.true44
	cmpb	$0, forceOverwrite
	jne	.LBB56_35
# %bb.31:                               # %land.lhs.true46
	movabsq	$inName, %rdi
	callq	notAStandardFile
	movzbl	%al, %eax
	cmpl	$0, %eax
	je	.LBB56_35
# %bb.32:                               # %if.then50
	cmpb	$0, noisy
	je	.LBB56_34
# %bb.33:                               # %if.then52
	movq	stderr, %rdi
	movq	progName, %rdx
	movabsq	$.L.str.60, %rsi
	movabsq	$inName, %rcx
	movb	$0, %al
	callq	fprintf
.LBB56_34:                              # %if.end54
	movl	$1, %edi
	callq	setExit
	jmp	.LBB56_95
.LBB56_35:                              # %if.end55
	cmpb	$0, -18(%rbp)
	je	.LBB56_39
# %bb.36:                               # %if.then57
	cmpb	$0, noisy
	je	.LBB56_38
# %bb.37:                               # %if.then59
	movq	stderr, %rdi
	movq	progName, %rdx
	movabsq	$.L.str.81, %rsi
	movabsq	$inName, %rcx
	movabsq	$outName, %r8
	movb	$0, %al
	callq	fprintf
.LBB56_38:                              # %if.end61
	jmp	.LBB56_39
.LBB56_39:                              # %if.end62
	cmpl	$3, srcMode
	jne	.LBB56_45
# %bb.40:                               # %land.lhs.true65
	movabsq	$outName, %rdi
	callq	fileExists
	movzbl	%al, %eax
	cmpl	$0, %eax
	je	.LBB56_45
# %bb.41:                               # %if.then69
	cmpb	$0, forceOverwrite
	je	.LBB56_43
# %bb.42:                               # %if.then71
	movabsq	$outName, %rdi
	callq	remove
	jmp	.LBB56_44
.LBB56_43:                              # %if.else
	movq	stderr, %rdi
	movq	progName, %rdx
	movabsq	$.L.str.61, %rsi
	movabsq	$outName, %rcx
	movb	$0, %al
	callq	fprintf
	movl	$1, %edi
	callq	setExit
	jmp	.LBB56_95
.LBB56_44:                              # %if.end74
	jmp	.LBB56_45
.LBB56_45:                              # %if.end75
	cmpl	$3, srcMode
	jne	.LBB56_49
# %bb.46:                               # %land.lhs.true78
	cmpb	$0, forceOverwrite
	jne	.LBB56_49
# %bb.47:                               # %land.lhs.true80
	movabsq	$inName, %rdi
	callq	countHardLinks
	movl	%eax, -44(%rbp)
	cmpl	$0, %eax
	jle	.LBB56_49
# %bb.48:                               # %if.then84
	movq	stderr, %rdi
	movq	progName, %rdx
	movl	-44(%rbp), %r8d
	movl	-44(%rbp), %eax
	cmpl	$1, %eax
	movabsq	$.L.str.63, %rax
	movabsq	$.L.str.34, %r9
	cmovgq	%rax, %r9
	movabsq	$.L.str.62, %rsi
	movabsq	$inName, %rcx
	movb	$0, %al
	callq	fprintf
	movl	$1, %edi
	callq	setExit
	jmp	.LBB56_95
.LBB56_49:                              # %if.end88
	cmpl	$3, srcMode
	jne	.LBB56_51
# %bb.50:                               # %if.then91
	movabsq	$inName, %rdi
	callq	saveInputFileMetaInfo
.LBB56_51:                              # %if.end92
	movl	srcMode(%rip), %eax
	movl	%eax, %ecx
	subl	$1, %ecx
	je	.LBB56_54
	jmp	.LBB56_52
.LBB56_52:                              # %if.end92
	movl	%eax, %ecx
	subl	$2, %ecx
	je	.LBB56_57
	jmp	.LBB56_53
.LBB56_53:                              # %if.end92
	subl	$3, %eax
	je	.LBB56_62
	jmp	.LBB56_71
.LBB56_54:                              # %sw.bb93
	movq	stdin, %rax
	movq	%rax, -32(%rbp)
	movq	stdout, %rax
	movq	%rax, -40(%rbp)
	movq	stdin, %rdi
	callq	fileno
	movl	%eax, %edi
	callq	isatty
	cmpl	$0, %eax
	je	.LBB56_56
# %bb.55:                               # %if.then97
	movq	stderr, %rdi
	movq	progName, %rdx
	movabsq	$.L.str.82, %rsi
	movb	$0, %al
	callq	fprintf
	movq	stderr, %rdi
	movq	progName, %rdx
	movq	progName, %rcx
	movabsq	$.L.str.65, %rsi
	movb	$0, %al
	callq	fprintf
	movl	$1, %edi
	callq	setExit
	jmp	.LBB56_95
.LBB56_56:                              # %if.end100
	jmp	.LBB56_72
.LBB56_57:                              # %sw.bb101
	movabsq	$inName, %rdi
	movabsq	$.L.str.66, %rsi
	callq	fopen
	movq	%rax, -32(%rbp)
	movq	stdout, %rax
	movq	%rax, -40(%rbp)
	cmpq	$0, -32(%rbp)
	jne	.LBB56_61
# %bb.58:                               # %if.then105
	movq	stderr, %rbx
	movq	progName, %r14
	callq	__errno_location
	movl	(%rax), %edi
	callq	strerror
	movq	%rbx, %rdi
	movabsq	$.L.str.83, %rsi
	movq	%r14, %rdx
	movabsq	$inName, %rcx
	movq	%rax, %r8
	movb	$0, %al
	callq	fprintf
	cmpq	$0, -32(%rbp)
	je	.LBB56_60
# %bb.59:                               # %if.then111
	movq	-32(%rbp), %rdi
	callq	fclose
.LBB56_60:                              # %if.end113
	movl	$1, %edi
	callq	setExit
	jmp	.LBB56_95
.LBB56_61:                              # %if.end114
	jmp	.LBB56_72
.LBB56_62:                              # %sw.bb115
	movabsq	$inName, %rdi
	movabsq	$.L.str.66, %rsi
	callq	fopen
	movq	%rax, -32(%rbp)
	movabsq	$outName, %rdi
	movabsq	$.L.str.67, %rsi
	callq	fopen_output_safely
	movq	%rax, -40(%rbp)
	cmpq	$0, -40(%rbp)
	jne	.LBB56_66
# %bb.63:                               # %if.then120
	movq	stderr, %rbx
	movq	progName, %r14
	callq	__errno_location
	movl	(%rax), %edi
	callq	strerror
	movq	%rbx, %rdi
	movabsq	$.L.str.68, %rsi
	movq	%r14, %rdx
	movabsq	$outName, %rcx
	movq	%rax, %r8
	movb	$0, %al
	callq	fprintf
	cmpq	$0, -32(%rbp)
	je	.LBB56_65
# %bb.64:                               # %if.then126
	movq	-32(%rbp), %rdi
	callq	fclose
.LBB56_65:                              # %if.end128
	movl	$1, %edi
	callq	setExit
	jmp	.LBB56_95
.LBB56_66:                              # %if.end129
	cmpq	$0, -32(%rbp)
	jne	.LBB56_70
# %bb.67:                               # %if.then132
	movq	stderr, %rbx
	movq	progName, %r14
	callq	__errno_location
	movl	(%rax), %edi
	callq	strerror
	movq	%rbx, %rdi
	movabsq	$.L.str.57, %rsi
	movq	%r14, %rdx
	movabsq	$inName, %rcx
	movq	%rax, %r8
	movb	$0, %al
	callq	fprintf
	cmpq	$0, -40(%rbp)
	je	.LBB56_69
# %bb.68:                               # %if.then138
	movq	-40(%rbp), %rdi
	callq	fclose
.LBB56_69:                              # %if.end140
	movl	$1, %edi
	callq	setExit
	jmp	.LBB56_95
.LBB56_70:                              # %if.end141
	jmp	.LBB56_72
.LBB56_71:                              # %sw.default
	movabsq	$.L.str.84, %rdi
	callq	panic
.LBB56_72:                              # %sw.epilog142
	cmpl	$1, verbosity
	jl	.LBB56_74
# %bb.73:                               # %if.then145
	movq	stderr, %rdi
	movabsq	$.L.str.70, %rsi
	movabsq	$inName, %rdx
	movb	$0, %al
	callq	fprintf
	movabsq	$inName, %rdi
	callq	pad
	movq	stderr, %rdi
	callq	fflush
.LBB56_74:                              # %if.end148
	movq	-40(%rbp), %rax
	movq	%rax, outputHandleJustInCase
	movb	$1, deleteOutputOnInterrupt
	movq	-32(%rbp), %rdi
	movq	-40(%rbp), %rsi
	callq	uncompressStream
	movb	%al, -17(%rbp)
	movq	$0, outputHandleJustInCase
	cmpb	$0, -17(%rbp)
	je	.LBB56_82
# %bb.75:                               # %if.then151
	cmpl	$3, srcMode
	jne	.LBB56_81
# %bb.76:                               # %if.then154
	movabsq	$outName, %rdi
	callq	applySavedMetaInfoToOutputFile
	movb	$0, deleteOutputOnInterrupt
	cmpb	$0, keepInputFiles
	jne	.LBB56_80
# %bb.77:                               # %if.then156
	movabsq	$inName, %rdi
	callq	remove
	movl	%eax, -64(%rbp)
	cmpl	$0, -64(%rbp)
	je	.LBB56_79
# %bb.78:                               # %if.then160
	callq	ioError
.LBB56_79:                              # %if.end161
	jmp	.LBB56_80
.LBB56_80:                              # %if.end162
	jmp	.LBB56_81
.LBB56_81:                              # %if.end163
	jmp	.LBB56_87
.LBB56_82:                              # %if.else164
	movb	$1, unzFailsExist
	movb	$0, deleteOutputOnInterrupt
	cmpl	$3, srcMode
	jne	.LBB56_86
# %bb.83:                               # %if.then167
	movabsq	$outName, %rdi
	callq	remove
	movl	%eax, -60(%rbp)
	cmpl	$0, -60(%rbp)
	je	.LBB56_85
# %bb.84:                               # %if.then172
	callq	ioError
.LBB56_85:                              # %if.end173
	jmp	.LBB56_86
.LBB56_86:                              # %if.end174
	jmp	.LBB56_87
.LBB56_87:                              # %if.end175
	movb	$0, deleteOutputOnInterrupt
	cmpb	$0, -17(%rbp)
	je	.LBB56_91
# %bb.88:                               # %if.then177
	cmpl	$1, verbosity
	jl	.LBB56_90
# %bb.89:                               # %if.then180
	movq	stderr, %rdi
	movabsq	$.L.str.85, %rsi
	movb	$0, %al
	callq	fprintf
.LBB56_90:                              # %if.end182
	jmp	.LBB56_95
.LBB56_91:                              # %if.else183
	movl	$2, %edi
	callq	setExit
	cmpl	$1, verbosity
	jl	.LBB56_93
# %bb.92:                               # %if.then186
	movq	stderr, %rdi
	movabsq	$.L.str.86, %rsi
	movb	$0, %al
	callq	fprintf
	jmp	.LBB56_94
.LBB56_93:                              # %if.else188
	movq	stderr, %rdi
	movq	progName, %rdx
	movabsq	$.L.str.87, %rsi
	movabsq	$inName, %rcx
	movb	$0, %al
	callq	fprintf
.LBB56_94:                              # %if.end190
	jmp	.LBB56_95
.LBB56_95:                              # %if.end191
	cmpl	$1745119869, -68(%rbp)  # imm = 0x68046A7D
	jne	.LBB56_97
.LBB56_96:
	addq	$208, %rsp
	popq	%rbx
	popq	%r14
	popq	%rbp
	.cfi_def_cfa %rsp, 8
	retq
.LBB56_97:                              # %func_exit
	.cfi_def_cfa %rbp, 16
	callq	detect_breach
	jmp	.LBB56_96
.Lfunc_end56:
	.size	uncompress.14, .Lfunc_end56-uncompress.14
	.cfi_endproc
                                        # -- End function
	.p2align	4, 0x90         # -- Begin function uInt64_qrm10.15
	.type	uInt64_qrm10.15,@function
uInt64_qrm10.15:                        # @uInt64_qrm10.15
	.cfi_startproc
# %bb.0:                                # %entry
	pushq	%rbp
	.cfi_def_cfa_offset 16
	.cfi_offset %rbp, -16
	movq	%rsp, %rbp
	.cfi_def_cfa_register %rbp
	pushq	%rbx
	subq	$24, %rsp
	.cfi_offset %rbx, -24
	movl	$364691406, -24(%rbp)   # imm = 0x15BCBFCE
	movq	%rdi, -32(%rbp)
	movl	$0, -16(%rbp)
	movl	$7, -12(%rbp)
.LBB57_1:                               # %for.cond
                                        # =>This Inner Loop Header: Depth=1
	cmpl	$0, -12(%rbp)
	jl	.LBB57_4
# %bb.2:                                # %for.body
                                        #   in Loop: Header=BB57_1 Depth=1
	movl	-16(%rbp), %eax
	shll	$8, %eax
	movq	-32(%rbp), %rcx
	movslq	-12(%rbp), %rdx
	movzbl	(%rcx,%rdx), %ecx
	addl	%ecx, %eax
	movl	%eax, -20(%rbp)
	movl	-20(%rbp), %eax
	xorl	%edx, %edx
	movl	$10, %ecx
	divl	%ecx
	movq	-32(%rbp), %rdx
	movslq	-12(%rbp), %rsi
	movb	%al, (%rdx,%rsi)
	movl	-20(%rbp), %eax
	xorl	%edx, %edx
	divl	%ecx
	movl	%edx, -16(%rbp)
# %bb.3:                                # %for.inc
                                        #   in Loop: Header=BB57_1 Depth=1
	movl	-12(%rbp), %eax
	addl	$-1, %eax
	movl	%eax, -12(%rbp)
	jmp	.LBB57_1
.LBB57_4:                               # %for.end
	movl	-16(%rbp), %ebx
	cmpl	$364691406, -24(%rbp)   # imm = 0x15BCBFCE
	jne	.LBB57_6
.LBB57_5:
	movl	%ebx, %eax
	addq	$24, %rsp
	popq	%rbx
	popq	%rbp
	.cfi_def_cfa %rsp, 8
	retq
.LBB57_6:                               # %func_exit
	.cfi_def_cfa %rbp, 16
	callq	detect_breach
	jmp	.LBB57_5
.Lfunc_end57:
	.size	uInt64_qrm10.15, .Lfunc_end57-uInt64_qrm10.15
	.cfi_endproc
                                        # -- End function
	.p2align	4, 0x90         # -- Begin function uInt64_from_UInt32s.16
	.type	uInt64_from_UInt32s.16,@function
uInt64_from_UInt32s.16:                 # @uInt64_from_UInt32s.16
	.cfi_startproc
# %bb.0:                                # %entry
	pushq	%rbp
	.cfi_def_cfa_offset 16
	.cfi_offset %rbp, -16
	movq	%rsp, %rbp
	.cfi_def_cfa_register %rbp
	subq	$32, %rsp
	movl	$1316786870, -20(%rbp)  # imm = 0x4E7C92B6
	movq	%rdi, -16(%rbp)
	movl	%esi, -4(%rbp)
	movl	%edx, -8(%rbp)
	movl	-8(%rbp), %eax
	shrl	$24, %eax
	andl	$255, %eax
	movq	-16(%rbp), %rcx
	movb	%al, 7(%rcx)
	movl	-8(%rbp), %eax
	shrl	$16, %eax
	andl	$255, %eax
	movq	-16(%rbp), %rcx
	movb	%al, 6(%rcx)
	movl	-8(%rbp), %eax
	shrl	$8, %eax
	andl	$255, %eax
	movq	-16(%rbp), %rcx
	movb	%al, 5(%rcx)
	movl	-8(%rbp), %eax
	andl	$255, %eax
	movq	-16(%rbp), %rcx
	movb	%al, 4(%rcx)
	movl	-4(%rbp), %eax
	shrl	$24, %eax
	andl	$255, %eax
	movq	-16(%rbp), %rcx
	movb	%al, 3(%rcx)
	movl	-4(%rbp), %eax
	shrl	$16, %eax
	andl	$255, %eax
	movq	-16(%rbp), %rcx
	movb	%al, 2(%rcx)
	movl	-4(%rbp), %eax
	shrl	$8, %eax
	andl	$255, %eax
	movq	-16(%rbp), %rcx
	movb	%al, 1(%rcx)
	movl	-4(%rbp), %eax
	andl	$255, %eax
	movq	-16(%rbp), %rcx
	movb	%al, (%rcx)
	cmpl	$1316786870, -20(%rbp)  # imm = 0x4E7C92B6
	jne	.LBB58_2
.LBB58_1:
	addq	$32, %rsp
	popq	%rbp
	.cfi_def_cfa %rsp, 8
	retq
.LBB58_2:                               # %func_exit
	.cfi_def_cfa %rbp, 16
	callq	detect_breach
	jmp	.LBB58_1
.Lfunc_end58:
	.size	uInt64_from_UInt32s.16, .Lfunc_end58-uInt64_from_UInt32s.16
	.cfi_endproc
                                        # -- End function
	.p2align	4, 0x90         # -- Begin function uncompress.17
	.type	uncompress.17,@function
uncompress.17:                          # @uncompress.17
	.cfi_startproc
# %bb.0:                                # %entry
	pushq	%rbp
	.cfi_def_cfa_offset 16
	.cfi_offset %rbp, -16
	movq	%rsp, %rbp
	.cfi_def_cfa_register %rbp
	pushq	%r14
	pushq	%rbx
	subq	$208, %rsp
	.cfi_offset %rbx, -32
	.cfi_offset %r14, -24
	movl	$575865468, -60(%rbp)   # imm = 0x2253027C
	movq	%rdi, -56(%rbp)
	movb	$0, deleteOutputOnInterrupt
	cmpq	$0, -56(%rbp)
	jne	.LBB59_3
# %bb.1:                                # %land.lhs.true
	cmpl	$1, srcMode
	je	.LBB59_3
# %bb.2:                                # %if.then
	movabsq	$.L.str.79, %rdi
	callq	panic
.LBB59_3:                               # %if.end
	movb	$0, -18(%rbp)
	movl	srcMode(%rip), %eax
	movl	%eax, %ecx
	subl	$1, %ecx
	je	.LBB59_6
	jmp	.LBB59_4
.LBB59_4:                               # %if.end
	movl	%eax, %ecx
	subl	$2, %ecx
	je	.LBB59_14
	jmp	.LBB59_5
.LBB59_5:                               # %if.end
	subl	$3, %eax
	je	.LBB59_7
	jmp	.LBB59_15
.LBB59_6:                               # %sw.bb
	movabsq	$inName, %rdi
	movabsq	$.L.str.54, %rsi
	callq	copyFileName
	movabsq	$outName, %rdi
	movabsq	$.L.str.55, %rsi
	callq	copyFileName
	jmp	.LBB59_15
.LBB59_7:                               # %sw.bb2
	movq	-56(%rbp), %rsi
	movabsq	$inName, %rdi
	callq	copyFileName
	movq	-56(%rbp), %rsi
	movabsq	$outName, %rdi
	callq	copyFileName
	movl	$0, -24(%rbp)
.LBB59_8:                               # %for.cond
                                        # =>This Inner Loop Header: Depth=1
	cmpl	$4, -24(%rbp)
	jge	.LBB59_13
# %bb.9:                                # %for.body
                                        #   in Loop: Header=BB59_8 Depth=1
	movslq	-24(%rbp), %rax
	movq	zSuffix(,%rax,8), %rsi
	movslq	-24(%rbp), %rax
	movq	unzSuffix(,%rax,8), %rdx
	movabsq	$outName, %rdi
	callq	mapSuffix
	cmpb	$0, %al
	je	.LBB59_11
# %bb.10:                               # %if.then6
	jmp	.LBB59_16
.LBB59_11:                              # %if.end7
                                        #   in Loop: Header=BB59_8 Depth=1
	jmp	.LBB59_12
.LBB59_12:                              # %for.inc
                                        #   in Loop: Header=BB59_8 Depth=1
	movl	-24(%rbp), %eax
	addl	$1, %eax
	movl	%eax, -24(%rbp)
	jmp	.LBB59_8
.LBB59_13:                              # %for.end
	movb	$1, -18(%rbp)
	movabsq	$outName, %rdi
	movabsq	$.L.str.80, %rsi
	callq	strcat
	jmp	.LBB59_15
.LBB59_14:                              # %sw.bb9
	movq	-56(%rbp), %rsi
	movabsq	$inName, %rdi
	callq	copyFileName
	movabsq	$outName, %rdi
	movabsq	$.L.str.55, %rsi
	callq	copyFileName
.LBB59_15:                              # %sw.epilog
	jmp	.LBB59_16
.LBB59_16:                              # %zzz
	cmpl	$1, srcMode
	je	.LBB59_21
# %bb.17:                               # %land.lhs.true11
	movabsq	$inName, %rdi
	callq	containsDubiousChars
	movzbl	%al, %eax
	cmpl	$0, %eax
	je	.LBB59_21
# %bb.18:                               # %if.then14
	cmpb	$0, noisy
	je	.LBB59_20
# %bb.19:                               # %if.then16
	movq	stderr, %rdi
	movq	progName, %rdx
	movabsq	$.L.str.56, %rsi
	movabsq	$inName, %rcx
	movb	$0, %al
	callq	fprintf
.LBB59_20:                              # %if.end18
	movl	$1, %edi
	callq	setExit
	jmp	.LBB59_95
.LBB59_21:                              # %if.end19
	cmpl	$1, srcMode
	je	.LBB59_24
# %bb.22:                               # %land.lhs.true22
	movabsq	$inName, %rdi
	callq	fileExists
	cmpb	$0, %al
	jne	.LBB59_24
# %bb.23:                               # %if.then25
	movq	stderr, %rbx
	movq	progName, %r14
	callq	__errno_location
	movl	(%rax), %edi
	callq	strerror
	movq	%rbx, %rdi
	movabsq	$.L.str.57, %rsi
	movq	%r14, %rdx
	movabsq	$inName, %rcx
	movq	%rax, %r8
	movb	$0, %al
	callq	fprintf
	movl	$1, %edi
	callq	setExit
	jmp	.LBB59_95
.LBB59_24:                              # %if.end29
	cmpl	$3, srcMode
	je	.LBB59_26
# %bb.25:                               # %lor.lhs.false
	cmpl	$2, srcMode
	jne	.LBB59_29
.LBB59_26:                              # %if.then34
	movabsq	$inName, %rdi
	leaq	-216(%rbp), %rsi
	callq	stat
	movl	-192(%rbp), %eax
	andl	$61440, %eax            # imm = 0xF000
	cmpl	$16384, %eax            # imm = 0x4000
	jne	.LBB59_28
# %bb.27:                               # %if.then38
	movq	stderr, %rdi
	movq	progName, %rdx
	movabsq	$.L.str.59, %rsi
	movabsq	$inName, %rcx
	movb	$0, %al
	callq	fprintf
	movl	$1, %edi
	callq	setExit
	jmp	.LBB59_95
.LBB59_28:                              # %if.end40
	jmp	.LBB59_29
.LBB59_29:                              # %if.end41
	cmpl	$3, srcMode
	jne	.LBB59_35
# %bb.30:                               # %land.lhs.true44
	cmpb	$0, forceOverwrite
	jne	.LBB59_35
# %bb.31:                               # %land.lhs.true46
	movabsq	$inName, %rdi
	callq	notAStandardFile
	movzbl	%al, %eax
	cmpl	$0, %eax
	je	.LBB59_35
# %bb.32:                               # %if.then50
	cmpb	$0, noisy
	je	.LBB59_34
# %bb.33:                               # %if.then52
	movq	stderr, %rdi
	movq	progName, %rdx
	movabsq	$.L.str.60, %rsi
	movabsq	$inName, %rcx
	movb	$0, %al
	callq	fprintf
.LBB59_34:                              # %if.end54
	movl	$1, %edi
	callq	setExit
	jmp	.LBB59_95
.LBB59_35:                              # %if.end55
	cmpb	$0, -18(%rbp)
	je	.LBB59_39
# %bb.36:                               # %if.then57
	cmpb	$0, noisy
	je	.LBB59_38
# %bb.37:                               # %if.then59
	movq	stderr, %rdi
	movq	progName, %rdx
	movabsq	$.L.str.81, %rsi
	movabsq	$inName, %rcx
	movabsq	$outName, %r8
	movb	$0, %al
	callq	fprintf
.LBB59_38:                              # %if.end61
	jmp	.LBB59_39
.LBB59_39:                              # %if.end62
	cmpl	$3, srcMode
	jne	.LBB59_45
# %bb.40:                               # %land.lhs.true65
	movabsq	$outName, %rdi
	callq	fileExists
	movzbl	%al, %eax
	cmpl	$0, %eax
	je	.LBB59_45
# %bb.41:                               # %if.then69
	cmpb	$0, forceOverwrite
	je	.LBB59_43
# %bb.42:                               # %if.then71
	movabsq	$outName, %rdi
	callq	remove
	jmp	.LBB59_44
.LBB59_43:                              # %if.else
	movq	stderr, %rdi
	movq	progName, %rdx
	movabsq	$.L.str.61, %rsi
	movabsq	$outName, %rcx
	movb	$0, %al
	callq	fprintf
	movl	$1, %edi
	callq	setExit
	jmp	.LBB59_95
.LBB59_44:                              # %if.end74
	jmp	.LBB59_45
.LBB59_45:                              # %if.end75
	cmpl	$3, srcMode
	jne	.LBB59_49
# %bb.46:                               # %land.lhs.true78
	cmpb	$0, forceOverwrite
	jne	.LBB59_49
# %bb.47:                               # %land.lhs.true80
	movabsq	$inName, %rdi
	callq	countHardLinks
	movl	%eax, -44(%rbp)
	cmpl	$0, %eax
	jle	.LBB59_49
# %bb.48:                               # %if.then84
	movq	stderr, %rdi
	movq	progName, %rdx
	movl	-44(%rbp), %r8d
	movl	-44(%rbp), %eax
	cmpl	$1, %eax
	movabsq	$.L.str.63, %rax
	movabsq	$.L.str.34, %r9
	cmovgq	%rax, %r9
	movabsq	$.L.str.62, %rsi
	movabsq	$inName, %rcx
	movb	$0, %al
	callq	fprintf
	movl	$1, %edi
	callq	setExit
	jmp	.LBB59_95
.LBB59_49:                              # %if.end88
	cmpl	$3, srcMode
	jne	.LBB59_51
# %bb.50:                               # %if.then91
	movabsq	$inName, %rdi
	callq	saveInputFileMetaInfo
.LBB59_51:                              # %if.end92
	movl	srcMode(%rip), %eax
	movl	%eax, %ecx
	subl	$1, %ecx
	je	.LBB59_54
	jmp	.LBB59_52
.LBB59_52:                              # %if.end92
	movl	%eax, %ecx
	subl	$2, %ecx
	je	.LBB59_57
	jmp	.LBB59_53
.LBB59_53:                              # %if.end92
	subl	$3, %eax
	je	.LBB59_62
	jmp	.LBB59_71
.LBB59_54:                              # %sw.bb93
	movq	stdin, %rax
	movq	%rax, -32(%rbp)
	movq	stdout, %rax
	movq	%rax, -40(%rbp)
	movq	stdin, %rdi
	callq	fileno
	movl	%eax, %edi
	callq	isatty
	cmpl	$0, %eax
	je	.LBB59_56
# %bb.55:                               # %if.then97
	movq	stderr, %rdi
	movq	progName, %rdx
	movabsq	$.L.str.82, %rsi
	movb	$0, %al
	callq	fprintf
	movq	stderr, %rdi
	movq	progName, %rdx
	movq	progName, %rcx
	movabsq	$.L.str.65, %rsi
	movb	$0, %al
	callq	fprintf
	movl	$1, %edi
	callq	setExit
	jmp	.LBB59_95
.LBB59_56:                              # %if.end100
	jmp	.LBB59_72
.LBB59_57:                              # %sw.bb101
	movabsq	$inName, %rdi
	movabsq	$.L.str.66, %rsi
	callq	fopen
	movq	%rax, -32(%rbp)
	movq	stdout, %rax
	movq	%rax, -40(%rbp)
	cmpq	$0, -32(%rbp)
	jne	.LBB59_61
# %bb.58:                               # %if.then105
	movq	stderr, %rbx
	movq	progName, %r14
	callq	__errno_location
	movl	(%rax), %edi
	callq	strerror
	movq	%rbx, %rdi
	movabsq	$.L.str.83, %rsi
	movq	%r14, %rdx
	movabsq	$inName, %rcx
	movq	%rax, %r8
	movb	$0, %al
	callq	fprintf
	cmpq	$0, -32(%rbp)
	je	.LBB59_60
# %bb.59:                               # %if.then111
	movq	-32(%rbp), %rdi
	callq	fclose
.LBB59_60:                              # %if.end113
	movl	$1, %edi
	callq	setExit
	jmp	.LBB59_95
.LBB59_61:                              # %if.end114
	jmp	.LBB59_72
.LBB59_62:                              # %sw.bb115
	movabsq	$inName, %rdi
	movabsq	$.L.str.66, %rsi
	callq	fopen
	movq	%rax, -32(%rbp)
	movabsq	$outName, %rdi
	movabsq	$.L.str.67, %rsi
	callq	fopen_output_safely
	movq	%rax, -40(%rbp)
	cmpq	$0, -40(%rbp)
	jne	.LBB59_66
# %bb.63:                               # %if.then120
	movq	stderr, %rbx
	movq	progName, %r14
	callq	__errno_location
	movl	(%rax), %edi
	callq	strerror
	movq	%rbx, %rdi
	movabsq	$.L.str.68, %rsi
	movq	%r14, %rdx
	movabsq	$outName, %rcx
	movq	%rax, %r8
	movb	$0, %al
	callq	fprintf
	cmpq	$0, -32(%rbp)
	je	.LBB59_65
# %bb.64:                               # %if.then126
	movq	-32(%rbp), %rdi
	callq	fclose
.LBB59_65:                              # %if.end128
	movl	$1, %edi
	callq	setExit
	jmp	.LBB59_95
.LBB59_66:                              # %if.end129
	cmpq	$0, -32(%rbp)
	jne	.LBB59_70
# %bb.67:                               # %if.then132
	movq	stderr, %rbx
	movq	progName, %r14
	callq	__errno_location
	movl	(%rax), %edi
	callq	strerror
	movq	%rbx, %rdi
	movabsq	$.L.str.57, %rsi
	movq	%r14, %rdx
	movabsq	$inName, %rcx
	movq	%rax, %r8
	movb	$0, %al
	callq	fprintf
	cmpq	$0, -40(%rbp)
	je	.LBB59_69
# %bb.68:                               # %if.then138
	movq	-40(%rbp), %rdi
	callq	fclose
.LBB59_69:                              # %if.end140
	movl	$1, %edi
	callq	setExit
	jmp	.LBB59_95
.LBB59_70:                              # %if.end141
	jmp	.LBB59_72
.LBB59_71:                              # %sw.default
	movabsq	$.L.str.84, %rdi
	callq	panic
.LBB59_72:                              # %sw.epilog142
	cmpl	$1, verbosity
	jl	.LBB59_74
# %bb.73:                               # %if.then145
	movq	stderr, %rdi
	movabsq	$.L.str.70, %rsi
	movabsq	$inName, %rdx
	movb	$0, %al
	callq	fprintf
	movabsq	$inName, %rdi
	callq	pad
	movq	stderr, %rdi
	callq	fflush
.LBB59_74:                              # %if.end148
	movq	-40(%rbp), %rax
	movq	%rax, outputHandleJustInCase
	movb	$1, deleteOutputOnInterrupt
	movq	-32(%rbp), %rdi
	movq	-40(%rbp), %rsi
	callq	uncompressStream
	movb	%al, -17(%rbp)
	movq	$0, outputHandleJustInCase
	cmpb	$0, -17(%rbp)
	je	.LBB59_82
# %bb.75:                               # %if.then151
	cmpl	$3, srcMode
	jne	.LBB59_81
# %bb.76:                               # %if.then154
	movabsq	$outName, %rdi
	callq	applySavedMetaInfoToOutputFile
	movb	$0, deleteOutputOnInterrupt
	cmpb	$0, keepInputFiles
	jne	.LBB59_80
# %bb.77:                               # %if.then156
	movabsq	$inName, %rdi
	callq	remove
	movl	%eax, -68(%rbp)
	cmpl	$0, -68(%rbp)
	je	.LBB59_79
# %bb.78:                               # %if.then160
	callq	ioError
.LBB59_79:                              # %if.end161
	jmp	.LBB59_80
.LBB59_80:                              # %if.end162
	jmp	.LBB59_81
.LBB59_81:                              # %if.end163
	jmp	.LBB59_87
.LBB59_82:                              # %if.else164
	movb	$1, unzFailsExist
	movb	$0, deleteOutputOnInterrupt
	cmpl	$3, srcMode
	jne	.LBB59_86
# %bb.83:                               # %if.then167
	movabsq	$outName, %rdi
	callq	remove
	movl	%eax, -64(%rbp)
	cmpl	$0, -64(%rbp)
	je	.LBB59_85
# %bb.84:                               # %if.then172
	callq	ioError
.LBB59_85:                              # %if.end173
	jmp	.LBB59_86
.LBB59_86:                              # %if.end174
	jmp	.LBB59_87
.LBB59_87:                              # %if.end175
	movb	$0, deleteOutputOnInterrupt
	cmpb	$0, -17(%rbp)
	je	.LBB59_91
# %bb.88:                               # %if.then177
	cmpl	$1, verbosity
	jl	.LBB59_90
# %bb.89:                               # %if.then180
	movq	stderr, %rdi
	movabsq	$.L.str.85, %rsi
	movb	$0, %al
	callq	fprintf
.LBB59_90:                              # %if.end182
	jmp	.LBB59_95
.LBB59_91:                              # %if.else183
	movl	$2, %edi
	callq	setExit
	cmpl	$1, verbosity
	jl	.LBB59_93
# %bb.92:                               # %if.then186
	movq	stderr, %rdi
	movabsq	$.L.str.86, %rsi
	movb	$0, %al
	callq	fprintf
	jmp	.LBB59_94
.LBB59_93:                              # %if.else188
	movq	stderr, %rdi
	movq	progName, %rdx
	movabsq	$.L.str.87, %rsi
	movabsq	$inName, %rcx
	movb	$0, %al
	callq	fprintf
.LBB59_94:                              # %if.end190
	jmp	.LBB59_95
.LBB59_95:                              # %if.end191
	cmpl	$575865468, -60(%rbp)   # imm = 0x2253027C
	jne	.LBB59_97
.LBB59_96:
	addq	$208, %rsp
	popq	%rbx
	popq	%r14
	popq	%rbp
	.cfi_def_cfa %rsp, 8
	retq
.LBB59_97:                              # %func_exit
	.cfi_def_cfa %rbp, 16
	callq	detect_breach
	jmp	.LBB59_96
.Lfunc_end59:
	.size	uncompress.17, .Lfunc_end59-uncompress.17
	.cfi_endproc
                                        # -- End function
	.p2align	4, 0x90         # -- Begin function mapSuffix.18
	.type	mapSuffix.18,@function
mapSuffix.18:                           # @mapSuffix.18
	.cfi_startproc
# %bb.0:                                # %entry
	pushq	%rbp
	.cfi_def_cfa_offset 16
	.cfi_offset %rbp, -16
	movq	%rsp, %rbp
	.cfi_def_cfa_register %rbp
	pushq	%r14
	pushq	%rbx
	subq	$48, %rsp
	.cfi_offset %rbx, -32
	.cfi_offset %r14, -24
	movl	$1146351101, -36(%rbp)  # imm = 0x4453EDFD
	movq	%rdi, -32(%rbp)
	movq	%rsi, -48(%rbp)
	movq	%rdx, -56(%rbp)
	movq	-32(%rbp), %rdi
	movq	-48(%rbp), %rsi
	callq	hasSuffix
	cmpb	$0, %al
	jne	.LBB60_2
# %bb.1:                                # %if.then
	movb	$0, -17(%rbp)
	jmp	.LBB60_3
.LBB60_2:                               # %if.end
	movq	-32(%rbp), %r14
	movq	-32(%rbp), %rdi
	callq	strlen
	movq	%rax, %rbx
	movq	-48(%rbp), %rdi
	callq	strlen
	subq	%rax, %rbx
	movb	$0, (%r14,%rbx)
	movq	-32(%rbp), %rdi
	movq	-56(%rbp), %rsi
	callq	strcat
	movb	$1, -17(%rbp)
.LBB60_3:                               # %return
	movb	-17(%rbp), %bl
	cmpl	$1146351101, -36(%rbp)  # imm = 0x4453EDFD
	jne	.LBB60_5
.LBB60_4:
	movzbl	%bl, %eax
	addq	$48, %rsp
	popq	%rbx
	popq	%r14
	popq	%rbp
	.cfi_def_cfa %rsp, 8
	retq
.LBB60_5:                               # %func_exit
	.cfi_def_cfa %rbp, 16
	callq	detect_breach
	jmp	.LBB60_4
.Lfunc_end60:
	.size	mapSuffix.18, .Lfunc_end60-mapSuffix.18
	.cfi_endproc
                                        # -- End function
	.p2align	4, 0x90         # -- Begin function addFlagsFromEnvVar.19
	.type	addFlagsFromEnvVar.19,@function
addFlagsFromEnvVar.19:                  # @addFlagsFromEnvVar.19
	.cfi_startproc
# %bb.0:                                # %entry
	pushq	%rbp
	.cfi_def_cfa_offset 16
	.cfi_offset %rbp, -16
	movq	%rsp, %rbp
	.cfi_def_cfa_register %rbp
	subq	$48, %rsp
	movl	$328470223, -24(%rbp)   # imm = 0x13940ECF
	movq	%rdi, -32(%rbp)
	movq	%rsi, -48(%rbp)
	movq	-48(%rbp), %rdi
	callq	getenv
	movq	%rax, -40(%rbp)
	cmpq	$0, -40(%rbp)
	je	.LBB61_22
# %bb.1:                                # %if.then
	movq	-40(%rbp), %rax
	movq	%rax, -16(%rbp)
	movl	$0, -4(%rbp)
.LBB61_2:                               # %while.body
                                        # =>This Loop Header: Depth=1
                                        #     Child Loop BB61_5 Depth 2
                                        #     Child Loop BB61_8 Depth 2
                                        #     Child Loop BB61_16 Depth 2
	movq	-16(%rbp), %rax
	movslq	-4(%rbp), %rcx
	movsbl	(%rax,%rcx), %eax
	cmpl	$0, %eax
	jne	.LBB61_4
# %bb.3:                                # %if.then3
	jmp	.LBB61_21
.LBB61_4:                               # %if.end
                                        #   in Loop: Header=BB61_2 Depth=1
	movl	-4(%rbp), %eax
	movq	-16(%rbp), %rcx
	cltq
	addq	%rax, %rcx
	movq	%rcx, -16(%rbp)
	movl	$0, -4(%rbp)
.LBB61_5:                               # %while.cond4
                                        #   Parent Loop BB61_2 Depth=1
                                        # =>  This Inner Loop Header: Depth=2
	callq	__ctype_b_loc
	movq	(%rax), %rax
	movq	-16(%rbp), %rcx
	movsbl	(%rcx), %ecx
	movslq	%ecx, %rcx
	movzwl	(%rax,%rcx,2), %eax
	andl	$8192, %eax             # imm = 0x2000
	cmpl	$0, %eax
	je	.LBB61_7
# %bb.6:                                # %while.body11
                                        #   in Loop: Header=BB61_5 Depth=2
	movq	-16(%rbp), %rax
	addq	$1, %rax
	movq	%rax, -16(%rbp)
	jmp	.LBB61_5
.LBB61_7:                               # %while.end
                                        #   in Loop: Header=BB61_2 Depth=1
	jmp	.LBB61_8
.LBB61_8:                               # %while.cond12
                                        #   Parent Loop BB61_2 Depth=1
                                        # =>  This Inner Loop Header: Depth=2
	xorl	%eax, %eax
	movq	-16(%rbp), %rcx
	movslq	-4(%rbp), %rdx
	movsbl	(%rcx,%rdx), %ecx
	cmpl	$0, %ecx
	je	.LBB61_10
# %bb.9:                                # %land.rhs
                                        #   in Loop: Header=BB61_8 Depth=2
	callq	__ctype_b_loc
	movq	(%rax), %rax
	movq	-16(%rbp), %rcx
	movslq	-4(%rbp), %rdx
	movsbl	(%rcx,%rdx), %ecx
	movslq	%ecx, %rcx
	movzwl	(%rax,%rcx,2), %eax
	andl	$8192, %eax             # imm = 0x2000
	cmpl	$0, %eax
	setne	%al
	xorb	$-1, %al
.LBB61_10:                              # %land.end
                                        #   in Loop: Header=BB61_8 Depth=2
	testb	$1, %al
	jne	.LBB61_11
	jmp	.LBB61_12
.LBB61_11:                              # %while.body27
                                        #   in Loop: Header=BB61_8 Depth=2
	movl	-4(%rbp), %eax
	addl	$1, %eax
	movl	%eax, -4(%rbp)
	jmp	.LBB61_8
.LBB61_12:                              # %while.end28
                                        #   in Loop: Header=BB61_2 Depth=1
	cmpl	$0, -4(%rbp)
	jle	.LBB61_20
# %bb.13:                               # %if.then31
                                        #   in Loop: Header=BB61_2 Depth=1
	movl	-4(%rbp), %eax
	movl	%eax, -20(%rbp)
	cmpl	$1024, -20(%rbp)        # imm = 0x400
	jle	.LBB61_15
# %bb.14:                               # %if.then34
                                        #   in Loop: Header=BB61_2 Depth=1
	movl	$1024, -20(%rbp)        # imm = 0x400
.LBB61_15:                              # %if.end35
                                        #   in Loop: Header=BB61_2 Depth=1
	movl	$0, -8(%rbp)
.LBB61_16:                              # %for.cond
                                        #   Parent Loop BB61_2 Depth=1
                                        # =>  This Inner Loop Header: Depth=2
	movl	-8(%rbp), %eax
	cmpl	-20(%rbp), %eax
	jge	.LBB61_19
# %bb.17:                               # %for.body
                                        #   in Loop: Header=BB61_16 Depth=2
	movq	-16(%rbp), %rax
	movslq	-8(%rbp), %rcx
	movb	(%rax,%rcx), %al
	movslq	-8(%rbp), %rcx
	movb	%al, tmpName(,%rcx)
# %bb.18:                               # %for.inc
                                        #   in Loop: Header=BB61_16 Depth=2
	movl	-8(%rbp), %eax
	addl	$1, %eax
	movl	%eax, -8(%rbp)
	jmp	.LBB61_16
.LBB61_19:                              # %for.end
                                        #   in Loop: Header=BB61_2 Depth=1
	movslq	-20(%rbp), %rax
	movb	$0, tmpName(,%rax)
	movq	-32(%rbp), %rax
	movq	(%rax), %rdi
	movabsq	$tmpName, %rsi
	callq	snocString
	movq	-32(%rbp), %rcx
	movq	%rax, (%rcx)
.LBB61_20:                              # %if.end46
                                        #   in Loop: Header=BB61_2 Depth=1
	jmp	.LBB61_2
.LBB61_21:                              # %while.end47
	jmp	.LBB61_22
.LBB61_22:                              # %if.end48
	cmpl	$328470223, -24(%rbp)   # imm = 0x13940ECF
	jne	.LBB61_24
.LBB61_23:
	addq	$48, %rsp
	popq	%rbp
	.cfi_def_cfa %rsp, 8
	retq
.LBB61_24:                              # %func_exit
	.cfi_def_cfa %rbp, 16
	callq	detect_breach
	jmp	.LBB61_23
.Lfunc_end61:
	.size	addFlagsFromEnvVar.19, .Lfunc_end61-addFlagsFromEnvVar.19
	.cfi_endproc
                                        # -- End function
	.p2align	4, 0x90         # -- Begin function countHardLinks.20
	.type	countHardLinks.20,@function
countHardLinks.20:                      # @countHardLinks.20
	.cfi_startproc
# %bb.0:                                # %entry
	pushq	%rbp
	.cfi_def_cfa_offset 16
	.cfi_offset %rbp, -16
	movq	%rsp, %rbp
	.cfi_def_cfa_register %rbp
	pushq	%rbx
	subq	$168, %rsp
	.cfi_offset %rbx, -24
	movl	$2099807586, -20(%rbp)  # imm = 0x7D288562
	movq	%rdi, -32(%rbp)
	movq	-32(%rbp), %rdi
	leaq	-176(%rbp), %rsi
	callq	lstat
	movl	%eax, -16(%rbp)
	cmpl	$0, -16(%rbp)
	je	.LBB62_2
# %bb.1:                                # %if.then
	movl	$0, -12(%rbp)
	jmp	.LBB62_3
.LBB62_2:                               # %if.end
	movq	-160(%rbp), %rax
	subq	$1, %rax
	movl	%eax, -12(%rbp)
.LBB62_3:                               # %return
	movl	-12(%rbp), %ebx
	cmpl	$2099807586, -20(%rbp)  # imm = 0x7D288562
	jne	.LBB62_5
.LBB62_4:
	movl	%ebx, %eax
	addq	$168, %rsp
	popq	%rbx
	popq	%rbp
	.cfi_def_cfa %rsp, 8
	retq
.LBB62_5:                               # %func_exit
	.cfi_def_cfa %rbp, 16
	callq	detect_breach
	jmp	.LBB62_4
.Lfunc_end62:
	.size	countHardLinks.20, .Lfunc_end62-countHardLinks.20
	.cfi_endproc
                                        # -- End function
	.p2align	4, 0x90         # -- Begin function myMalloc.21
	.type	myMalloc.21,@function
myMalloc.21:                            # @myMalloc.21
	.cfi_startproc
# %bb.0:                                # %entry
	pushq	%rbp
	.cfi_def_cfa_offset 16
	.cfi_offset %rbp, -16
	movq	%rsp, %rbp
	.cfi_def_cfa_register %rbp
	pushq	%rbx
	subq	$24, %rsp
	.cfi_offset %rbx, -24
	movl	$1121305694, -12(%rbp)  # imm = 0x42D5C45E
	movl	%edi, -16(%rbp)
	movslq	-16(%rbp), %rdi
	callq	malloc
	movq	%rax, -24(%rbp)
	cmpq	$0, -24(%rbp)
	jne	.LBB63_2
# %bb.1:                                # %if.then
	callq	outOfMemory
.LBB63_2:                               # %if.end
	movq	-24(%rbp), %rbx
	cmpl	$1121305694, -12(%rbp)  # imm = 0x42D5C45E
	jne	.LBB63_4
.LBB63_3:
	movq	%rbx, %rax
	addq	$24, %rsp
	popq	%rbx
	popq	%rbp
	.cfi_def_cfa %rsp, 8
	retq
.LBB63_4:                               # %func_exit
	.cfi_def_cfa %rbp, 16
	callq	detect_breach
	jmp	.LBB63_3
.Lfunc_end63:
	.size	myMalloc.21, .Lfunc_end63-myMalloc.21
	.cfi_endproc
                                        # -- End function
	.p2align	4, 0x90         # -- Begin function pad.22
	.type	pad.22,@function
pad.22:                                 # @pad.22
	.cfi_startproc
# %bb.0:                                # %entry
	pushq	%rbp
	.cfi_def_cfa_offset 16
	.cfi_offset %rbp, -16
	movq	%rsp, %rbp
	.cfi_def_cfa_register %rbp
	pushq	%r14
	pushq	%rbx
	subq	$16, %rsp
	.cfi_offset %rbx, -32
	.cfi_offset %r14, -24
	movl	$529718014, -24(%rbp)   # imm = 0x1F92DAFE
	movq	%rdi, -32(%rbp)
	movq	-32(%rbp), %rdi
	callq	strlen
	cmpl	longestFileName, %eax
	jl	.LBB64_2
# %bb.1:                                # %if.then
	jmp	.LBB64_7
.LBB64_2:                               # %if.end
	movl	$1, -20(%rbp)
.LBB64_3:                               # %for.cond
                                        # =>This Inner Loop Header: Depth=1
	movl	-20(%rbp), %r14d
	movl	longestFileName, %ebx
	movq	-32(%rbp), %rdi
	callq	strlen
	subl	%eax, %ebx
	cmpl	%ebx, %r14d
	jg	.LBB64_6
# %bb.4:                                # %for.body
                                        #   in Loop: Header=BB64_3 Depth=1
	movq	stderr, %rdi
	movabsq	$.L.str.72, %rsi
	movb	$0, %al
	callq	fprintf
# %bb.5:                                # %for.inc
                                        #   in Loop: Header=BB64_3 Depth=1
	movl	-20(%rbp), %eax
	addl	$1, %eax
	movl	%eax, -20(%rbp)
	jmp	.LBB64_3
.LBB64_6:                               # %for.end.loopexit
	jmp	.LBB64_7
.LBB64_7:                               # %for.end
	cmpl	$529718014, -24(%rbp)   # imm = 0x1F92DAFE
	jne	.LBB64_9
.LBB64_8:
	addq	$16, %rsp
	popq	%rbx
	popq	%r14
	popq	%rbp
	.cfi_def_cfa %rsp, 8
	retq
.LBB64_9:                               # %func_exit
	.cfi_def_cfa %rbp, 16
	callq	detect_breach
	jmp	.LBB64_8
.Lfunc_end64:
	.size	pad.22, .Lfunc_end64-pad.22
	.cfi_endproc
                                        # -- End function
	.p2align	4, 0x90         # -- Begin function uInt64_from_UInt32s.23
	.type	uInt64_from_UInt32s.23,@function
uInt64_from_UInt32s.23:                 # @uInt64_from_UInt32s.23
	.cfi_startproc
# %bb.0:                                # %entry
	pushq	%rbp
	.cfi_def_cfa_offset 16
	.cfi_offset %rbp, -16
	movq	%rsp, %rbp
	.cfi_def_cfa_register %rbp
	subq	$32, %rsp
	movl	$974823728, -20(%rbp)   # imm = 0x3A1AA130
	movq	%rdi, -16(%rbp)
	movl	%esi, -4(%rbp)
	movl	%edx, -8(%rbp)
	movl	-8(%rbp), %eax
	shrl	$24, %eax
	andl	$255, %eax
	movq	-16(%rbp), %rcx
	movb	%al, 7(%rcx)
	movl	-8(%rbp), %eax
	shrl	$16, %eax
	andl	$255, %eax
	movq	-16(%rbp), %rcx
	movb	%al, 6(%rcx)
	movl	-8(%rbp), %eax
	shrl	$8, %eax
	andl	$255, %eax
	movq	-16(%rbp), %rcx
	movb	%al, 5(%rcx)
	movl	-8(%rbp), %eax
	andl	$255, %eax
	movq	-16(%rbp), %rcx
	movb	%al, 4(%rcx)
	movl	-4(%rbp), %eax
	shrl	$24, %eax
	andl	$255, %eax
	movq	-16(%rbp), %rcx
	movb	%al, 3(%rcx)
	movl	-4(%rbp), %eax
	shrl	$16, %eax
	andl	$255, %eax
	movq	-16(%rbp), %rcx
	movb	%al, 2(%rcx)
	movl	-4(%rbp), %eax
	shrl	$8, %eax
	andl	$255, %eax
	movq	-16(%rbp), %rcx
	movb	%al, 1(%rcx)
	movl	-4(%rbp), %eax
	andl	$255, %eax
	movq	-16(%rbp), %rcx
	movb	%al, (%rcx)
	cmpl	$974823728, -20(%rbp)   # imm = 0x3A1AA130
	jne	.LBB65_2
.LBB65_1:
	addq	$32, %rsp
	popq	%rbp
	.cfi_def_cfa %rsp, 8
	retq
.LBB65_2:                               # %func_exit
	.cfi_def_cfa %rbp, 16
	callq	detect_breach
	jmp	.LBB65_1
.Lfunc_end65:
	.size	uInt64_from_UInt32s.23, .Lfunc_end65-uInt64_from_UInt32s.23
	.cfi_endproc
                                        # -- End function
	.p2align	4, 0x90         # -- Begin function uInt64_from_UInt32s.24
	.type	uInt64_from_UInt32s.24,@function
uInt64_from_UInt32s.24:                 # @uInt64_from_UInt32s.24
	.cfi_startproc
# %bb.0:                                # %entry
	pushq	%rbp
	.cfi_def_cfa_offset 16
	.cfi_offset %rbp, -16
	movq	%rsp, %rbp
	.cfi_def_cfa_register %rbp
	subq	$32, %rsp
	movl	$1945784164, -20(%rbp)  # imm = 0x73FA4F64
	movq	%rdi, -16(%rbp)
	movl	%esi, -8(%rbp)
	movl	%edx, -4(%rbp)
	movl	-4(%rbp), %eax
	shrl	$24, %eax
	andl	$255, %eax
	movq	-16(%rbp), %rcx
	movb	%al, 7(%rcx)
	movl	-4(%rbp), %eax
	shrl	$16, %eax
	andl	$255, %eax
	movq	-16(%rbp), %rcx
	movb	%al, 6(%rcx)
	movl	-4(%rbp), %eax
	shrl	$8, %eax
	andl	$255, %eax
	movq	-16(%rbp), %rcx
	movb	%al, 5(%rcx)
	movl	-4(%rbp), %eax
	andl	$255, %eax
	movq	-16(%rbp), %rcx
	movb	%al, 4(%rcx)
	movl	-8(%rbp), %eax
	shrl	$24, %eax
	andl	$255, %eax
	movq	-16(%rbp), %rcx
	movb	%al, 3(%rcx)
	movl	-8(%rbp), %eax
	shrl	$16, %eax
	andl	$255, %eax
	movq	-16(%rbp), %rcx
	movb	%al, 2(%rcx)
	movl	-8(%rbp), %eax
	shrl	$8, %eax
	andl	$255, %eax
	movq	-16(%rbp), %rcx
	movb	%al, 1(%rcx)
	movl	-8(%rbp), %eax
	andl	$255, %eax
	movq	-16(%rbp), %rcx
	movb	%al, (%rcx)
	cmpl	$1945784164, -20(%rbp)  # imm = 0x73FA4F64
	jne	.LBB66_2
.LBB66_1:
	addq	$32, %rsp
	popq	%rbp
	.cfi_def_cfa %rsp, 8
	retq
.LBB66_2:                               # %func_exit
	.cfi_def_cfa %rbp, 16
	callq	detect_breach
	jmp	.LBB66_1
.Lfunc_end66:
	.size	uInt64_from_UInt32s.24, .Lfunc_end66-uInt64_from_UInt32s.24
	.cfi_endproc
                                        # -- End function
	.p2align	4, 0x90         # -- Begin function applySavedMetaInfoToOutputFile.25
	.type	applySavedMetaInfoToOutputFile.25,@function
applySavedMetaInfoToOutputFile.25:      # @applySavedMetaInfoToOutputFile.25
	.cfi_startproc
# %bb.0:                                # %entry
	pushq	%rbp
	.cfi_def_cfa_offset 16
	.cfi_offset %rbp, -16
	movq	%rsp, %rbp
	.cfi_def_cfa_register %rbp
	subq	$48, %rsp
	movl	$707726410, -20(%rbp)   # imm = 0x2A2F0C4A
	movq	%rdi, -16(%rbp)
	movq	fileMetaInfo+72, %rax
	movq	%rax, -40(%rbp)
	movq	fileMetaInfo+88, %rax
	movq	%rax, -32(%rbp)
	movq	-16(%rbp), %rdi
	movl	fileMetaInfo+24, %esi
	callq	chmod
	movl	%eax, -4(%rbp)
	cmpl	$0, -4(%rbp)
	je	.LBB67_2
# %bb.1:                                # %if.then
	callq	ioError
.LBB67_2:                               # %if.end
	movq	-16(%rbp), %rdi
	leaq	-40(%rbp), %rsi
	callq	utime
	movl	%eax, -4(%rbp)
	cmpl	$0, -4(%rbp)
	je	.LBB67_4
# %bb.3:                                # %if.then3
	callq	ioError
.LBB67_4:                               # %if.end4
	movq	-16(%rbp), %rdi
	movl	fileMetaInfo+28, %esi
	movl	fileMetaInfo+32, %edx
	callq	chown
	movl	%eax, -4(%rbp)
	cmpl	$707726410, -20(%rbp)   # imm = 0x2A2F0C4A
	jne	.LBB67_6
.LBB67_5:
	addq	$48, %rsp
	popq	%rbp
	.cfi_def_cfa %rsp, 8
	retq
.LBB67_6:                               # %func_exit
	.cfi_def_cfa %rbp, 16
	callq	detect_breach
	jmp	.LBB67_5
.Lfunc_end67:
	.size	applySavedMetaInfoToOutputFile.25, .Lfunc_end67-applySavedMetaInfoToOutputFile.25
	.cfi_endproc
                                        # -- End function
	.p2align	4, 0x90         # -- Begin function uInt64_isZero.26
	.type	uInt64_isZero.26,@function
uInt64_isZero.26:                       # @uInt64_isZero.26
	.cfi_startproc
# %bb.0:                                # %entry
	pushq	%rbp
	.cfi_def_cfa_offset 16
	.cfi_offset %rbp, -16
	movq	%rsp, %rbp
	.cfi_def_cfa_register %rbp
	pushq	%rbx
	subq	$24, %rsp
	.cfi_offset %rbx, -24
	movl	$807928204, -20(%rbp)   # imm = 0x3028018C
	movq	%rdi, -32(%rbp)
	movl	$0, -16(%rbp)
.LBB68_1:                               # %for.cond
                                        # =>This Inner Loop Header: Depth=1
	cmpl	$8, -16(%rbp)
	jge	.LBB68_6
# %bb.2:                                # %for.body
                                        #   in Loop: Header=BB68_1 Depth=1
	movq	-32(%rbp), %rax
	movslq	-16(%rbp), %rcx
	movzbl	(%rax,%rcx), %eax
	cmpl	$0, %eax
	je	.LBB68_4
# %bb.3:                                # %if.then
	movb	$0, -9(%rbp)
	jmp	.LBB68_7
.LBB68_4:                               # %if.end
                                        #   in Loop: Header=BB68_1 Depth=1
	jmp	.LBB68_5
.LBB68_5:                               # %for.inc
                                        #   in Loop: Header=BB68_1 Depth=1
	movl	-16(%rbp), %eax
	addl	$1, %eax
	movl	%eax, -16(%rbp)
	jmp	.LBB68_1
.LBB68_6:                               # %for.end
	movb	$1, -9(%rbp)
.LBB68_7:                               # %return
	movb	-9(%rbp), %bl
	cmpl	$807928204, -20(%rbp)   # imm = 0x3028018C
	jne	.LBB68_9
.LBB68_8:
	movzbl	%bl, %eax
	addq	$24, %rsp
	popq	%rbx
	popq	%rbp
	.cfi_def_cfa %rsp, 8
	retq
.LBB68_9:                               # %func_exit
	.cfi_def_cfa %rbp, 16
	callq	detect_breach
	jmp	.LBB68_8
.Lfunc_end68:
	.size	uInt64_isZero.26, .Lfunc_end68-uInt64_isZero.26
	.cfi_endproc
                                        # -- End function
	.p2align	4, 0x90         # -- Begin function uncompress.27
	.type	uncompress.27,@function
uncompress.27:                          # @uncompress.27
	.cfi_startproc
# %bb.0:                                # %entry
	pushq	%rbp
	.cfi_def_cfa_offset 16
	.cfi_offset %rbp, -16
	movq	%rsp, %rbp
	.cfi_def_cfa_register %rbp
	pushq	%r14
	pushq	%rbx
	subq	$208, %rsp
	.cfi_offset %rbx, -32
	.cfi_offset %r14, -24
	movl	$1690200846, -68(%rbp)  # imm = 0x64BE6B0E
	movq	%rdi, -56(%rbp)
	movb	$0, deleteOutputOnInterrupt
	cmpq	$0, -56(%rbp)
	jne	.LBB69_3
# %bb.1:                                # %land.lhs.true
	cmpl	$1, srcMode
	je	.LBB69_3
# %bb.2:                                # %if.then
	movabsq	$.L.str.79, %rdi
	callq	panic
.LBB69_3:                               # %if.end
	movb	$0, -17(%rbp)
	movl	srcMode(%rip), %eax
	movl	%eax, %ecx
	subl	$1, %ecx
	je	.LBB69_6
	jmp	.LBB69_4
.LBB69_4:                               # %if.end
	movl	%eax, %ecx
	subl	$2, %ecx
	je	.LBB69_14
	jmp	.LBB69_5
.LBB69_5:                               # %if.end
	subl	$3, %eax
	je	.LBB69_7
	jmp	.LBB69_15
.LBB69_6:                               # %sw.bb
	movabsq	$inName, %rdi
	movabsq	$.L.str.54, %rsi
	callq	copyFileName
	movabsq	$outName, %rdi
	movabsq	$.L.str.55, %rsi
	callq	copyFileName
	jmp	.LBB69_15
.LBB69_7:                               # %sw.bb2
	movq	-56(%rbp), %rsi
	movabsq	$inName, %rdi
	callq	copyFileName
	movq	-56(%rbp), %rsi
	movabsq	$outName, %rdi
	callq	copyFileName
	movl	$0, -24(%rbp)
.LBB69_8:                               # %for.cond
                                        # =>This Inner Loop Header: Depth=1
	cmpl	$4, -24(%rbp)
	jge	.LBB69_13
# %bb.9:                                # %for.body
                                        #   in Loop: Header=BB69_8 Depth=1
	movslq	-24(%rbp), %rax
	movq	zSuffix(,%rax,8), %rsi
	movslq	-24(%rbp), %rax
	movq	unzSuffix(,%rax,8), %rdx
	movabsq	$outName, %rdi
	callq	mapSuffix
	cmpb	$0, %al
	je	.LBB69_11
# %bb.10:                               # %if.then6
	jmp	.LBB69_16
.LBB69_11:                              # %if.end7
                                        #   in Loop: Header=BB69_8 Depth=1
	jmp	.LBB69_12
.LBB69_12:                              # %for.inc
                                        #   in Loop: Header=BB69_8 Depth=1
	movl	-24(%rbp), %eax
	addl	$1, %eax
	movl	%eax, -24(%rbp)
	jmp	.LBB69_8
.LBB69_13:                              # %for.end
	movb	$1, -17(%rbp)
	movabsq	$outName, %rdi
	movabsq	$.L.str.80, %rsi
	callq	strcat
	jmp	.LBB69_15
.LBB69_14:                              # %sw.bb9
	movq	-56(%rbp), %rsi
	movabsq	$inName, %rdi
	callq	copyFileName
	movabsq	$outName, %rdi
	movabsq	$.L.str.55, %rsi
	callq	copyFileName
.LBB69_15:                              # %sw.epilog
	jmp	.LBB69_16
.LBB69_16:                              # %zzz
	cmpl	$1, srcMode
	je	.LBB69_21
# %bb.17:                               # %land.lhs.true11
	movabsq	$inName, %rdi
	callq	containsDubiousChars
	movzbl	%al, %eax
	cmpl	$0, %eax
	je	.LBB69_21
# %bb.18:                               # %if.then14
	cmpb	$0, noisy
	je	.LBB69_20
# %bb.19:                               # %if.then16
	movq	stderr, %rdi
	movq	progName, %rdx
	movabsq	$.L.str.56, %rsi
	movabsq	$inName, %rcx
	movb	$0, %al
	callq	fprintf
.LBB69_20:                              # %if.end18
	movl	$1, %edi
	callq	setExit
	jmp	.LBB69_95
.LBB69_21:                              # %if.end19
	cmpl	$1, srcMode
	je	.LBB69_24
# %bb.22:                               # %land.lhs.true22
	movabsq	$inName, %rdi
	callq	fileExists
	cmpb	$0, %al
	jne	.LBB69_24
# %bb.23:                               # %if.then25
	movq	stderr, %rbx
	movq	progName, %r14
	callq	__errno_location
	movl	(%rax), %edi
	callq	strerror
	movq	%rbx, %rdi
	movabsq	$.L.str.57, %rsi
	movq	%r14, %rdx
	movabsq	$inName, %rcx
	movq	%rax, %r8
	movb	$0, %al
	callq	fprintf
	movl	$1, %edi
	callq	setExit
	jmp	.LBB69_95
.LBB69_24:                              # %if.end29
	cmpl	$3, srcMode
	je	.LBB69_26
# %bb.25:                               # %lor.lhs.false
	cmpl	$2, srcMode
	jne	.LBB69_29
.LBB69_26:                              # %if.then34
	movabsq	$inName, %rdi
	leaq	-216(%rbp), %rsi
	callq	stat
	movl	-192(%rbp), %eax
	andl	$61440, %eax            # imm = 0xF000
	cmpl	$16384, %eax            # imm = 0x4000
	jne	.LBB69_28
# %bb.27:                               # %if.then38
	movq	stderr, %rdi
	movq	progName, %rdx
	movabsq	$.L.str.59, %rsi
	movabsq	$inName, %rcx
	movb	$0, %al
	callq	fprintf
	movl	$1, %edi
	callq	setExit
	jmp	.LBB69_95
.LBB69_28:                              # %if.end40
	jmp	.LBB69_29
.LBB69_29:                              # %if.end41
	cmpl	$3, srcMode
	jne	.LBB69_35
# %bb.30:                               # %land.lhs.true44
	cmpb	$0, forceOverwrite
	jne	.LBB69_35
# %bb.31:                               # %land.lhs.true46
	movabsq	$inName, %rdi
	callq	notAStandardFile
	movzbl	%al, %eax
	cmpl	$0, %eax
	je	.LBB69_35
# %bb.32:                               # %if.then50
	cmpb	$0, noisy
	je	.LBB69_34
# %bb.33:                               # %if.then52
	movq	stderr, %rdi
	movq	progName, %rdx
	movabsq	$.L.str.60, %rsi
	movabsq	$inName, %rcx
	movb	$0, %al
	callq	fprintf
.LBB69_34:                              # %if.end54
	movl	$1, %edi
	callq	setExit
	jmp	.LBB69_95
.LBB69_35:                              # %if.end55
	cmpb	$0, -17(%rbp)
	je	.LBB69_39
# %bb.36:                               # %if.then57
	cmpb	$0, noisy
	je	.LBB69_38
# %bb.37:                               # %if.then59
	movq	stderr, %rdi
	movq	progName, %rdx
	movabsq	$.L.str.81, %rsi
	movabsq	$inName, %rcx
	movabsq	$outName, %r8
	movb	$0, %al
	callq	fprintf
.LBB69_38:                              # %if.end61
	jmp	.LBB69_39
.LBB69_39:                              # %if.end62
	cmpl	$3, srcMode
	jne	.LBB69_45
# %bb.40:                               # %land.lhs.true65
	movabsq	$outName, %rdi
	callq	fileExists
	movzbl	%al, %eax
	cmpl	$0, %eax
	je	.LBB69_45
# %bb.41:                               # %if.then69
	cmpb	$0, forceOverwrite
	je	.LBB69_43
# %bb.42:                               # %if.then71
	movabsq	$outName, %rdi
	callq	remove
	jmp	.LBB69_44
.LBB69_43:                              # %if.else
	movq	stderr, %rdi
	movq	progName, %rdx
	movabsq	$.L.str.61, %rsi
	movabsq	$outName, %rcx
	movb	$0, %al
	callq	fprintf
	movl	$1, %edi
	callq	setExit
	jmp	.LBB69_95
.LBB69_44:                              # %if.end74
	jmp	.LBB69_45
.LBB69_45:                              # %if.end75
	cmpl	$3, srcMode
	jne	.LBB69_49
# %bb.46:                               # %land.lhs.true78
	cmpb	$0, forceOverwrite
	jne	.LBB69_49
# %bb.47:                               # %land.lhs.true80
	movabsq	$inName, %rdi
	callq	countHardLinks
	movl	%eax, -44(%rbp)
	cmpl	$0, %eax
	jle	.LBB69_49
# %bb.48:                               # %if.then84
	movq	stderr, %rdi
	movq	progName, %rdx
	movl	-44(%rbp), %r8d
	movl	-44(%rbp), %eax
	cmpl	$1, %eax
	movabsq	$.L.str.63, %rax
	movabsq	$.L.str.34, %r9
	cmovgq	%rax, %r9
	movabsq	$.L.str.62, %rsi
	movabsq	$inName, %rcx
	movb	$0, %al
	callq	fprintf
	movl	$1, %edi
	callq	setExit
	jmp	.LBB69_95
.LBB69_49:                              # %if.end88
	cmpl	$3, srcMode
	jne	.LBB69_51
# %bb.50:                               # %if.then91
	movabsq	$inName, %rdi
	callq	saveInputFileMetaInfo
.LBB69_51:                              # %if.end92
	movl	srcMode(%rip), %eax
	movl	%eax, %ecx
	subl	$1, %ecx
	je	.LBB69_54
	jmp	.LBB69_52
.LBB69_52:                              # %if.end92
	movl	%eax, %ecx
	subl	$2, %ecx
	je	.LBB69_57
	jmp	.LBB69_53
.LBB69_53:                              # %if.end92
	subl	$3, %eax
	je	.LBB69_62
	jmp	.LBB69_71
.LBB69_54:                              # %sw.bb93
	movq	stdin, %rax
	movq	%rax, -32(%rbp)
	movq	stdout, %rax
	movq	%rax, -40(%rbp)
	movq	stdin, %rdi
	callq	fileno
	movl	%eax, %edi
	callq	isatty
	cmpl	$0, %eax
	je	.LBB69_56
# %bb.55:                               # %if.then97
	movq	stderr, %rdi
	movq	progName, %rdx
	movabsq	$.L.str.82, %rsi
	movb	$0, %al
	callq	fprintf
	movq	stderr, %rdi
	movq	progName, %rdx
	movq	progName, %rcx
	movabsq	$.L.str.65, %rsi
	movb	$0, %al
	callq	fprintf
	movl	$1, %edi
	callq	setExit
	jmp	.LBB69_95
.LBB69_56:                              # %if.end100
	jmp	.LBB69_72
.LBB69_57:                              # %sw.bb101
	movabsq	$inName, %rdi
	movabsq	$.L.str.66, %rsi
	callq	fopen
	movq	%rax, -32(%rbp)
	movq	stdout, %rax
	movq	%rax, -40(%rbp)
	cmpq	$0, -32(%rbp)
	jne	.LBB69_61
# %bb.58:                               # %if.then105
	movq	stderr, %rbx
	movq	progName, %r14
	callq	__errno_location
	movl	(%rax), %edi
	callq	strerror
	movq	%rbx, %rdi
	movabsq	$.L.str.83, %rsi
	movq	%r14, %rdx
	movabsq	$inName, %rcx
	movq	%rax, %r8
	movb	$0, %al
	callq	fprintf
	cmpq	$0, -32(%rbp)
	je	.LBB69_60
# %bb.59:                               # %if.then111
	movq	-32(%rbp), %rdi
	callq	fclose
.LBB69_60:                              # %if.end113
	movl	$1, %edi
	callq	setExit
	jmp	.LBB69_95
.LBB69_61:                              # %if.end114
	jmp	.LBB69_72
.LBB69_62:                              # %sw.bb115
	movabsq	$inName, %rdi
	movabsq	$.L.str.66, %rsi
	callq	fopen
	movq	%rax, -32(%rbp)
	movabsq	$outName, %rdi
	movabsq	$.L.str.67, %rsi
	callq	fopen_output_safely
	movq	%rax, -40(%rbp)
	cmpq	$0, -40(%rbp)
	jne	.LBB69_66
# %bb.63:                               # %if.then120
	movq	stderr, %rbx
	movq	progName, %r14
	callq	__errno_location
	movl	(%rax), %edi
	callq	strerror
	movq	%rbx, %rdi
	movabsq	$.L.str.68, %rsi
	movq	%r14, %rdx
	movabsq	$outName, %rcx
	movq	%rax, %r8
	movb	$0, %al
	callq	fprintf
	cmpq	$0, -32(%rbp)
	je	.LBB69_65
# %bb.64:                               # %if.then126
	movq	-32(%rbp), %rdi
	callq	fclose
.LBB69_65:                              # %if.end128
	movl	$1, %edi
	callq	setExit
	jmp	.LBB69_95
.LBB69_66:                              # %if.end129
	cmpq	$0, -32(%rbp)
	jne	.LBB69_70
# %bb.67:                               # %if.then132
	movq	stderr, %rbx
	movq	progName, %r14
	callq	__errno_location
	movl	(%rax), %edi
	callq	strerror
	movq	%rbx, %rdi
	movabsq	$.L.str.57, %rsi
	movq	%r14, %rdx
	movabsq	$inName, %rcx
	movq	%rax, %r8
	movb	$0, %al
	callq	fprintf
	cmpq	$0, -40(%rbp)
	je	.LBB69_69
# %bb.68:                               # %if.then138
	movq	-40(%rbp), %rdi
	callq	fclose
.LBB69_69:                              # %if.end140
	movl	$1, %edi
	callq	setExit
	jmp	.LBB69_95
.LBB69_70:                              # %if.end141
	jmp	.LBB69_72
.LBB69_71:                              # %sw.default
	movabsq	$.L.str.84, %rdi
	callq	panic
.LBB69_72:                              # %sw.epilog142
	cmpl	$1, verbosity
	jl	.LBB69_74
# %bb.73:                               # %if.then145
	movq	stderr, %rdi
	movabsq	$.L.str.70, %rsi
	movabsq	$inName, %rdx
	movb	$0, %al
	callq	fprintf
	movabsq	$inName, %rdi
	callq	pad
	movq	stderr, %rdi
	callq	fflush
.LBB69_74:                              # %if.end148
	movq	-40(%rbp), %rax
	movq	%rax, outputHandleJustInCase
	movb	$1, deleteOutputOnInterrupt
	movq	-32(%rbp), %rdi
	movq	-40(%rbp), %rsi
	callq	uncompressStream
	movb	%al, -18(%rbp)
	movq	$0, outputHandleJustInCase
	cmpb	$0, -18(%rbp)
	je	.LBB69_82
# %bb.75:                               # %if.then151
	cmpl	$3, srcMode
	jne	.LBB69_81
# %bb.76:                               # %if.then154
	movabsq	$outName, %rdi
	callq	applySavedMetaInfoToOutputFile
	movb	$0, deleteOutputOnInterrupt
	cmpb	$0, keepInputFiles
	jne	.LBB69_80
# %bb.77:                               # %if.then156
	movabsq	$inName, %rdi
	callq	remove
	movl	%eax, -64(%rbp)
	cmpl	$0, -64(%rbp)
	je	.LBB69_79
# %bb.78:                               # %if.then160
	callq	ioError
.LBB69_79:                              # %if.end161
	jmp	.LBB69_80
.LBB69_80:                              # %if.end162
	jmp	.LBB69_81
.LBB69_81:                              # %if.end163
	jmp	.LBB69_87
.LBB69_82:                              # %if.else164
	movb	$1, unzFailsExist
	movb	$0, deleteOutputOnInterrupt
	cmpl	$3, srcMode
	jne	.LBB69_86
# %bb.83:                               # %if.then167
	movabsq	$outName, %rdi
	callq	remove
	movl	%eax, -60(%rbp)
	cmpl	$0, -60(%rbp)
	je	.LBB69_85
# %bb.84:                               # %if.then172
	callq	ioError
.LBB69_85:                              # %if.end173
	jmp	.LBB69_86
.LBB69_86:                              # %if.end174
	jmp	.LBB69_87
.LBB69_87:                              # %if.end175
	movb	$0, deleteOutputOnInterrupt
	cmpb	$0, -18(%rbp)
	je	.LBB69_91
# %bb.88:                               # %if.then177
	cmpl	$1, verbosity
	jl	.LBB69_90
# %bb.89:                               # %if.then180
	movq	stderr, %rdi
	movabsq	$.L.str.85, %rsi
	movb	$0, %al
	callq	fprintf
.LBB69_90:                              # %if.end182
	jmp	.LBB69_95
.LBB69_91:                              # %if.else183
	movl	$2, %edi
	callq	setExit
	cmpl	$1, verbosity
	jl	.LBB69_93
# %bb.92:                               # %if.then186
	movq	stderr, %rdi
	movabsq	$.L.str.86, %rsi
	movb	$0, %al
	callq	fprintf
	jmp	.LBB69_94
.LBB69_93:                              # %if.else188
	movq	stderr, %rdi
	movq	progName, %rdx
	movabsq	$.L.str.87, %rsi
	movabsq	$inName, %rcx
	movb	$0, %al
	callq	fprintf
.LBB69_94:                              # %if.end190
	jmp	.LBB69_95
.LBB69_95:                              # %if.end191
	cmpl	$1690200846, -68(%rbp)  # imm = 0x64BE6B0E
	jne	.LBB69_97
.LBB69_96:
	addq	$208, %rsp
	popq	%rbx
	popq	%r14
	popq	%rbp
	.cfi_def_cfa %rsp, 8
	retq
.LBB69_97:                              # %func_exit
	.cfi_def_cfa %rbp, 16
	callq	detect_breach
	jmp	.LBB69_96
.Lfunc_end69:
	.size	uncompress.27, .Lfunc_end69-uncompress.27
	.cfi_endproc
                                        # -- End function
	.p2align	4, 0x90         # -- Begin function addFlagsFromEnvVar.28
	.type	addFlagsFromEnvVar.28,@function
addFlagsFromEnvVar.28:                  # @addFlagsFromEnvVar.28
	.cfi_startproc
# %bb.0:                                # %entry
	pushq	%rbp
	.cfi_def_cfa_offset 16
	.cfi_offset %rbp, -16
	movq	%rsp, %rbp
	.cfi_def_cfa_register %rbp
	subq	$48, %rsp
	movl	$1462477550, -24(%rbp)  # imm = 0x572BA2EE
	movq	%rdi, -40(%rbp)
	movq	%rsi, -48(%rbp)
	movq	-48(%rbp), %rdi
	callq	getenv
	movq	%rax, -32(%rbp)
	cmpq	$0, -32(%rbp)
	je	.LBB70_22
# %bb.1:                                # %if.then
	movq	-32(%rbp), %rax
	movq	%rax, -16(%rbp)
	movl	$0, -4(%rbp)
.LBB70_2:                               # %while.body
                                        # =>This Loop Header: Depth=1
                                        #     Child Loop BB70_5 Depth 2
                                        #     Child Loop BB70_8 Depth 2
                                        #     Child Loop BB70_16 Depth 2
	movq	-16(%rbp), %rax
	movslq	-4(%rbp), %rcx
	movsbl	(%rax,%rcx), %eax
	cmpl	$0, %eax
	jne	.LBB70_4
# %bb.3:                                # %if.then3
	jmp	.LBB70_21
.LBB70_4:                               # %if.end
                                        #   in Loop: Header=BB70_2 Depth=1
	movl	-4(%rbp), %eax
	movq	-16(%rbp), %rcx
	cltq
	addq	%rax, %rcx
	movq	%rcx, -16(%rbp)
	movl	$0, -4(%rbp)
.LBB70_5:                               # %while.cond4
                                        #   Parent Loop BB70_2 Depth=1
                                        # =>  This Inner Loop Header: Depth=2
	callq	__ctype_b_loc
	movq	(%rax), %rax
	movq	-16(%rbp), %rcx
	movsbl	(%rcx), %ecx
	movslq	%ecx, %rcx
	movzwl	(%rax,%rcx,2), %eax
	andl	$8192, %eax             # imm = 0x2000
	cmpl	$0, %eax
	je	.LBB70_7
# %bb.6:                                # %while.body11
                                        #   in Loop: Header=BB70_5 Depth=2
	movq	-16(%rbp), %rax
	addq	$1, %rax
	movq	%rax, -16(%rbp)
	jmp	.LBB70_5
.LBB70_7:                               # %while.end
                                        #   in Loop: Header=BB70_2 Depth=1
	jmp	.LBB70_8
.LBB70_8:                               # %while.cond12
                                        #   Parent Loop BB70_2 Depth=1
                                        # =>  This Inner Loop Header: Depth=2
	xorl	%eax, %eax
	movq	-16(%rbp), %rcx
	movslq	-4(%rbp), %rdx
	movsbl	(%rcx,%rdx), %ecx
	cmpl	$0, %ecx
	je	.LBB70_10
# %bb.9:                                # %land.rhs
                                        #   in Loop: Header=BB70_8 Depth=2
	callq	__ctype_b_loc
	movq	(%rax), %rax
	movq	-16(%rbp), %rcx
	movslq	-4(%rbp), %rdx
	movsbl	(%rcx,%rdx), %ecx
	movslq	%ecx, %rcx
	movzwl	(%rax,%rcx,2), %eax
	andl	$8192, %eax             # imm = 0x2000
	cmpl	$0, %eax
	setne	%al
	xorb	$-1, %al
.LBB70_10:                              # %land.end
                                        #   in Loop: Header=BB70_8 Depth=2
	testb	$1, %al
	jne	.LBB70_11
	jmp	.LBB70_12
.LBB70_11:                              # %while.body27
                                        #   in Loop: Header=BB70_8 Depth=2
	movl	-4(%rbp), %eax
	addl	$1, %eax
	movl	%eax, -4(%rbp)
	jmp	.LBB70_8
.LBB70_12:                              # %while.end28
                                        #   in Loop: Header=BB70_2 Depth=1
	cmpl	$0, -4(%rbp)
	jle	.LBB70_20
# %bb.13:                               # %if.then31
                                        #   in Loop: Header=BB70_2 Depth=1
	movl	-4(%rbp), %eax
	movl	%eax, -20(%rbp)
	cmpl	$1024, -20(%rbp)        # imm = 0x400
	jle	.LBB70_15
# %bb.14:                               # %if.then34
                                        #   in Loop: Header=BB70_2 Depth=1
	movl	$1024, -20(%rbp)        # imm = 0x400
.LBB70_15:                              # %if.end35
                                        #   in Loop: Header=BB70_2 Depth=1
	movl	$0, -8(%rbp)
.LBB70_16:                              # %for.cond
                                        #   Parent Loop BB70_2 Depth=1
                                        # =>  This Inner Loop Header: Depth=2
	movl	-8(%rbp), %eax
	cmpl	-20(%rbp), %eax
	jge	.LBB70_19
# %bb.17:                               # %for.body
                                        #   in Loop: Header=BB70_16 Depth=2
	movq	-16(%rbp), %rax
	movslq	-8(%rbp), %rcx
	movb	(%rax,%rcx), %al
	movslq	-8(%rbp), %rcx
	movb	%al, tmpName(,%rcx)
# %bb.18:                               # %for.inc
                                        #   in Loop: Header=BB70_16 Depth=2
	movl	-8(%rbp), %eax
	addl	$1, %eax
	movl	%eax, -8(%rbp)
	jmp	.LBB70_16
.LBB70_19:                              # %for.end
                                        #   in Loop: Header=BB70_2 Depth=1
	movslq	-20(%rbp), %rax
	movb	$0, tmpName(,%rax)
	movq	-40(%rbp), %rax
	movq	(%rax), %rdi
	movabsq	$tmpName, %rsi
	callq	snocString
	movq	-40(%rbp), %rcx
	movq	%rax, (%rcx)
.LBB70_20:                              # %if.end46
                                        #   in Loop: Header=BB70_2 Depth=1
	jmp	.LBB70_2
.LBB70_21:                              # %while.end47
	jmp	.LBB70_22
.LBB70_22:                              # %if.end48
	cmpl	$1462477550, -24(%rbp)  # imm = 0x572BA2EE
	jne	.LBB70_24
.LBB70_23:
	addq	$48, %rsp
	popq	%rbp
	.cfi_def_cfa %rsp, 8
	retq
.LBB70_24:                              # %func_exit
	.cfi_def_cfa %rbp, 16
	callq	detect_breach
	jmp	.LBB70_23
.Lfunc_end70:
	.size	addFlagsFromEnvVar.28, .Lfunc_end70-addFlagsFromEnvVar.28
	.cfi_endproc
                                        # -- End function
	.globl	fopen_output_safely.29  # -- Begin function fopen_output_safely.29
	.p2align	4, 0x90
	.type	fopen_output_safely.29,@function
fopen_output_safely.29:                 # @fopen_output_safely.29
	.cfi_startproc
# %bb.0:                                # %entry
	pushq	%rbp
	.cfi_def_cfa_offset 16
	.cfi_offset %rbp, -16
	movq	%rsp, %rbp
	.cfi_def_cfa_register %rbp
	pushq	%rbx
	subq	$40, %rsp
	.cfi_offset %rbx, -24
	movl	$1563384561, -16(%rbp)  # imm = 0x5D2F5AF1
	movq	%rdi, -40(%rbp)
	movq	%rsi, -48(%rbp)
	movq	-40(%rbp), %rdi
	movl	$193, %esi
	movl	$384, %edx              # imm = 0x180
	movb	$0, %al
	callq	open
	movl	%eax, -12(%rbp)
	cmpl	$-1, -12(%rbp)
	jne	.LBB71_2
# %bb.1:                                # %if.then
	movq	$0, -32(%rbp)
	jmp	.LBB71_5
.LBB71_2:                               # %if.end
	movl	-12(%rbp), %edi
	movq	-48(%rbp), %rsi
	callq	fdopen
	movq	%rax, -24(%rbp)
	cmpq	$0, -24(%rbp)
	jne	.LBB71_4
# %bb.3:                                # %if.then3
	movl	-12(%rbp), %edi
	callq	close
.LBB71_4:                               # %if.end5
	movq	-24(%rbp), %rax
	movq	%rax, -32(%rbp)
.LBB71_5:                               # %return
	movq	-32(%rbp), %rbx
	cmpl	$1563384561, -16(%rbp)  # imm = 0x5D2F5AF1
	jne	.LBB71_7
.LBB71_6:
	movq	%rbx, %rax
	addq	$40, %rsp
	popq	%rbx
	popq	%rbp
	.cfi_def_cfa %rsp, 8
	retq
.LBB71_7:                               # %func_exit
	.cfi_def_cfa %rbp, 16
	callq	detect_breach
	jmp	.LBB71_6
.Lfunc_end71:
	.size	fopen_output_safely.29, .Lfunc_end71-fopen_output_safely.29
	.cfi_endproc
                                        # -- End function
	.p2align	4, 0x90         # -- Begin function copyFileName.30
	.type	copyFileName.30,@function
copyFileName.30:                        # @copyFileName.30
	.cfi_startproc
# %bb.0:                                # %entry
	pushq	%rbp
	.cfi_def_cfa_offset 16
	.cfi_offset %rbp, -16
	movq	%rsp, %rbp
	.cfi_def_cfa_register %rbp
	subq	$32, %rsp
	movl	$1805658855, -12(%rbp)  # imm = 0x6BA02AE7
	movq	%rdi, -24(%rbp)
	movq	%rsi, -8(%rbp)
	movq	-8(%rbp), %rdi
	callq	strlen
	cmpq	$1024, %rax             # imm = 0x400
	jbe	.LBB72_2
# %bb.1:                                # %if.then
	movq	stderr, %rdi
	movq	-8(%rbp), %rdx
	movabsq	$.L.str.47, %rsi
	movl	$1024, %ecx             # imm = 0x400
	movb	$0, %al
	callq	fprintf
	movl	$1, %edi
	callq	setExit
	movl	exitValue, %edi
	callq	exit
.LBB72_2:                               # %if.end
	movq	-24(%rbp), %rdi
	movq	-8(%rbp), %rsi
	movl	$1024, %edx             # imm = 0x400
	callq	strncpy
	movq	-24(%rbp), %rax
	movb	$0, 1024(%rax)
	cmpl	$1805658855, -12(%rbp)  # imm = 0x6BA02AE7
	jne	.LBB72_4
.LBB72_3:
	addq	$32, %rsp
	popq	%rbp
	.cfi_def_cfa %rsp, 8
	retq
.LBB72_4:                               # %func_exit
	.cfi_def_cfa %rbp, 16
	callq	detect_breach
	jmp	.LBB72_3
.Lfunc_end72:
	.size	copyFileName.30, .Lfunc_end72-copyFileName.30
	.cfi_endproc
                                        # -- End function
	.p2align	4, 0x90         # -- Begin function testStream.31
	.type	testStream.31,@function
testStream.31:                          # @testStream.31
	.cfi_startproc
# %bb.0:                                # %entry
	pushq	%rbp
	.cfi_def_cfa_offset 16
	.cfi_offset %rbp, -16
	movq	%rsp, %rbp
	.cfi_def_cfa_register %rbp
	pushq	%rbx
	subq	$10088, %rsp            # imm = 0x2768
	.cfi_offset %rbx, -24
	movl	$1574465549, -52(%rbp)  # imm = 0x5DD8700D
	movq	%rdi, -32(%rbp)
	movq	$0, -48(%rbp)
	movl	$0, -24(%rbp)
	movl	$0, -36(%rbp)
	movq	-32(%rbp), %rdi
	callq	ferror
	cmpl	$0, %eax
	je	.LBB73_2
# %bb.1:                                # %if.then
	jmp	.LBB73_38
.LBB73_2:                               # %if.end
	jmp	.LBB73_3
.LBB73_3:                               # %while.body
                                        # =>This Loop Header: Depth=1
                                        #     Child Loop BB73_7 Depth 2
                                        #     Child Loop BB73_16 Depth 2
	leaq	-5088(%rbp), %r8
	movq	-32(%rbp), %rsi
	movl	verbosity, %edx
	movzbl	smallMode, %ecx
	movl	-24(%rbp), %r9d
	leaq	-16(%rbp), %rdi
	callq	BZ2_bzReadOpen
	movq	%rax, -48(%rbp)
	cmpq	$0, -48(%rbp)
	je	.LBB73_5
# %bb.4:                                # %lor.lhs.false
                                        #   in Loop: Header=BB73_3 Depth=1
	cmpl	$0, -16(%rbp)
	je	.LBB73_6
.LBB73_5:                               # %if.then5
	jmp	.LBB73_32
.LBB73_6:                               # %if.end6
                                        #   in Loop: Header=BB73_3 Depth=1
	movl	-36(%rbp), %eax
	addl	$1, %eax
	movl	%eax, -36(%rbp)
.LBB73_7:                               # %while.cond7
                                        #   Parent Loop BB73_3 Depth=1
                                        # =>  This Inner Loop Header: Depth=2
	cmpl	$0, -16(%rbp)
	jne	.LBB73_11
# %bb.8:                                # %while.body10
                                        #   in Loop: Header=BB73_7 Depth=2
	leaq	-10096(%rbp), %rdx
	movq	-48(%rbp), %rsi
	leaq	-16(%rbp), %rdi
	movl	$5000, %ecx             # imm = 0x1388
	callq	BZ2_bzRead
	movl	%eax, -80(%rbp)
	cmpl	$-5, -16(%rbp)
	jne	.LBB73_10
# %bb.9:                                # %if.then15
	jmp	.LBB73_32
.LBB73_10:                              # %if.end16
                                        #   in Loop: Header=BB73_7 Depth=2
	jmp	.LBB73_7
.LBB73_11:                              # %while.end
                                        #   in Loop: Header=BB73_3 Depth=1
	cmpl	$4, -16(%rbp)
	je	.LBB73_13
# %bb.12:                               # %if.then19
	jmp	.LBB73_32
.LBB73_13:                              # %if.end20
                                        #   in Loop: Header=BB73_3 Depth=1
	movq	-48(%rbp), %rsi
	leaq	-16(%rbp), %rdi
	leaq	-72(%rbp), %rdx
	leaq	-24(%rbp), %rcx
	callq	BZ2_bzReadGetUnused
	cmpl	$0, -16(%rbp)
	je	.LBB73_15
# %bb.14:                               # %if.then23
	movabsq	$.L.str.98, %rdi
	callq	panic
.LBB73_15:                              # %if.end24
                                        #   in Loop: Header=BB73_3 Depth=1
	movq	-72(%rbp), %rax
	movq	%rax, -64(%rbp)
	movl	$0, -20(%rbp)
.LBB73_16:                              # %for.cond
                                        #   Parent Loop BB73_3 Depth=1
                                        # =>  This Inner Loop Header: Depth=2
	movl	-20(%rbp), %eax
	cmpl	-24(%rbp), %eax
	jge	.LBB73_19
# %bb.17:                               # %for.body
                                        #   in Loop: Header=BB73_16 Depth=2
	movq	-64(%rbp), %rax
	movslq	-20(%rbp), %rcx
	movb	(%rax,%rcx), %al
	movslq	-20(%rbp), %rcx
	movb	%al, -5088(%rbp,%rcx)
# %bb.18:                               # %for.inc
                                        #   in Loop: Header=BB73_16 Depth=2
	movl	-20(%rbp), %eax
	addl	$1, %eax
	movl	%eax, -20(%rbp)
	jmp	.LBB73_16
.LBB73_19:                              # %for.end
                                        #   in Loop: Header=BB73_3 Depth=1
	movq	-48(%rbp), %rsi
	leaq	-16(%rbp), %rdi
	callq	BZ2_bzReadClose
	cmpl	$0, -16(%rbp)
	je	.LBB73_21
# %bb.20:                               # %if.then32
	movabsq	$.L.str.98, %rdi
	callq	panic
.LBB73_21:                              # %if.end33
                                        #   in Loop: Header=BB73_3 Depth=1
	cmpl	$0, -24(%rbp)
	jne	.LBB73_24
# %bb.22:                               # %land.lhs.true
                                        #   in Loop: Header=BB73_3 Depth=1
	movq	-32(%rbp), %rdi
	callq	myfeof
	movzbl	%al, %eax
	cmpl	$0, %eax
	je	.LBB73_24
# %bb.23:                               # %if.then39
	jmp	.LBB73_25
.LBB73_24:                              # %if.end40
                                        #   in Loop: Header=BB73_3 Depth=1
	jmp	.LBB73_3
.LBB73_25:                              # %while.end41
	movq	-32(%rbp), %rdi
	callq	ferror
	cmpl	$0, %eax
	je	.LBB73_27
# %bb.26:                               # %if.then44
	jmp	.LBB73_38
.LBB73_27:                              # %if.end45
	movq	-32(%rbp), %rdi
	callq	fclose
	movl	%eax, -56(%rbp)
	cmpl	$-1, -56(%rbp)
	jne	.LBB73_29
# %bb.28:                               # %if.then49
	jmp	.LBB73_38
.LBB73_29:                              # %if.end50
	cmpl	$2, verbosity
	jl	.LBB73_31
# %bb.30:                               # %if.then53
	movq	stderr, %rdi
	movabsq	$.L.str.89, %rsi
	movb	$0, %al
	callq	fprintf
.LBB73_31:                              # %if.end55
	movb	$1, -9(%rbp)
	jmp	.LBB73_50
.LBB73_32:                              # %errhandler
	movq	-48(%rbp), %rsi
	leaq	-76(%rbp), %rdi
	callq	BZ2_bzReadClose
	cmpl	$0, verbosity
	jne	.LBB73_34
# %bb.33:                               # %if.then58
	movq	stderr, %rdi
	movq	progName, %rdx
	movabsq	$.L.str.99, %rsi
	movabsq	$inName, %rcx
	movb	$0, %al
	callq	fprintf
.LBB73_34:                              # %if.end60
	movl	-16(%rbp), %eax
	addl	$9, %eax
	movl	%eax, %ecx
	subl	$6, %ecx
	ja	.LBB73_49
# %bb.35:                               # %if.end60
	movq	.LJTI73_0(,%rax,8), %rax
	jmpq	*%rax
.LBB73_36:                              # %sw.bb
	callq	configError
.LBB73_37:                              # %sw.bb61
	jmp	.LBB73_38
.LBB73_38:                              # %errhandler_io
	callq	ioError
.LBB73_39:                              # %sw.bb62
	movq	stderr, %rdi
	movabsq	$.L.str.100, %rsi
	movb	$0, %al
	callq	fprintf
	movb	$0, -9(%rbp)
	jmp	.LBB73_50
.LBB73_40:                              # %sw.bb64
	callq	outOfMemory
.LBB73_41:                              # %sw.bb65
	movq	stderr, %rdi
	movabsq	$.L.str.101, %rsi
	movb	$0, %al
	callq	fprintf
	movb	$0, -9(%rbp)
	jmp	.LBB73_50
.LBB73_42:                              # %sw.bb67
	movq	-32(%rbp), %rax
	cmpq	stdin, %rax
	je	.LBB73_44
# %bb.43:                               # %if.then70
	movq	-32(%rbp), %rdi
	callq	fclose
.LBB73_44:                              # %if.end72
	cmpl	$1, -36(%rbp)
	jne	.LBB73_46
# %bb.45:                               # %if.then75
	movq	stderr, %rdi
	movabsq	$.L.str.102, %rsi
	movb	$0, %al
	callq	fprintf
	movb	$0, -9(%rbp)
	jmp	.LBB73_50
.LBB73_46:                              # %if.else
	cmpb	$0, noisy
	je	.LBB73_48
# %bb.47:                               # %if.then78
	movq	stderr, %rdi
	movabsq	$.L.str.103, %rsi
	movb	$0, %al
	callq	fprintf
.LBB73_48:                              # %if.end80
	movb	$1, -9(%rbp)
	jmp	.LBB73_50
.LBB73_49:                              # %sw.default
	movabsq	$.L.str.104, %rdi
	callq	panic
.LBB73_50:                              # %return
	movb	-9(%rbp), %bl
	cmpl	$1574465549, -52(%rbp)  # imm = 0x5DD8700D
	jne	.LBB73_52
.LBB73_51:
	movzbl	%bl, %eax
	addq	$10088, %rsp            # imm = 0x2768
	popq	%rbx
	popq	%rbp
	.cfi_def_cfa %rsp, 8
	retq
.LBB73_52:                              # %func_exit
	.cfi_def_cfa %rbp, 16
	callq	detect_breach
	jmp	.LBB73_51
.Lfunc_end73:
	.size	testStream.31, .Lfunc_end73-testStream.31
	.cfi_endproc
	.section	.rodata,"a",@progbits
	.p2align	3
.LJTI73_0:
	.quad	.LBB73_36
	.quad	.LBB73_49
	.quad	.LBB73_41
	.quad	.LBB73_37
	.quad	.LBB73_42
	.quad	.LBB73_39
	.quad	.LBB73_40
                                        # -- End function
	.text
	.p2align	4, 0x90         # -- Begin function snocString.32
	.type	snocString.32,@function
snocString.32:                          # @snocString.32
	.cfi_startproc
# %bb.0:                                # %entry
	pushq	%rbp
	.cfi_def_cfa_offset 16
	.cfi_offset %rbp, -16
	movq	%rsp, %rbp
	.cfi_def_cfa_register %rbp
	pushq	%rbx
	subq	$56, %rsp
	.cfi_offset %rbx, -24
	movl	$537094781, -44(%rbp)   # imm = 0x20036A7D
	movq	%rdi, -24(%rbp)
	movq	%rsi, -32(%rbp)
	cmpq	$0, -24(%rbp)
	jne	.LBB74_2
# %bb.1:                                # %if.then
	callq	mkCell
	movq	%rax, -40(%rbp)
	movq	-32(%rbp), %rdi
	callq	strlen
	addq	$5, %rax
	movl	%eax, %edi
	callq	myMalloc
	movq	-40(%rbp), %rcx
	movq	%rax, (%rcx)
	movq	-40(%rbp), %rax
	movq	(%rax), %rdi
	movq	-32(%rbp), %rsi
	callq	strcpy
	movq	-40(%rbp), %rax
	movq	%rax, -56(%rbp)
	jmp	.LBB74_6
.LBB74_2:                               # %if.else
	movq	-24(%rbp), %rax
	movq	%rax, -16(%rbp)
.LBB74_3:                               # %while.cond
                                        # =>This Inner Loop Header: Depth=1
	movq	-16(%rbp), %rax
	cmpq	$0, 8(%rax)
	je	.LBB74_5
# %bb.4:                                # %while.body
                                        #   in Loop: Header=BB74_3 Depth=1
	movq	-16(%rbp), %rax
	movq	8(%rax), %rax
	movq	%rax, -16(%rbp)
	jmp	.LBB74_3
.LBB74_5:                               # %while.end
	movq	-16(%rbp), %rax
	movq	8(%rax), %rdi
	movq	-32(%rbp), %rsi
	callq	snocString
	movq	-16(%rbp), %rcx
	movq	%rax, 8(%rcx)
	movq	-24(%rbp), %rax
	movq	%rax, -56(%rbp)
.LBB74_6:                               # %return
	movq	-56(%rbp), %rbx
	cmpl	$537094781, -44(%rbp)   # imm = 0x20036A7D
	jne	.LBB74_8
.LBB74_7:
	movq	%rbx, %rax
	addq	$56, %rsp
	popq	%rbx
	popq	%rbp
	.cfi_def_cfa %rsp, 8
	retq
.LBB74_8:                               # %func_exit
	.cfi_def_cfa %rbp, 16
	callq	detect_breach
	jmp	.LBB74_7
.Lfunc_end74:
	.size	snocString.32, .Lfunc_end74-snocString.32
	.cfi_endproc
                                        # -- End function
	.p2align	4, 0x90         # -- Begin function uncompressStream.33
	.type	uncompressStream.33,@function
uncompressStream.33:                    # @uncompressStream.33
	.cfi_startproc
# %bb.0:                                # %entry
	pushq	%rbp
	.cfi_def_cfa_offset 16
	.cfi_offset %rbp, -16
	movq	%rsp, %rbp
	.cfi_def_cfa_register %rbp
	pushq	%rbx
	subq	$10104, %rsp            # imm = 0x2778
	.cfi_offset %rbx, -24
	movl	$957949945, -68(%rbp)   # imm = 0x391927F9
	movq	%rdi, -32(%rbp)
	movq	%rsi, -24(%rbp)
	movq	$0, -64(%rbp)
	movl	$0, -48(%rbp)
	movl	$0, -52(%rbp)
	movq	-24(%rbp), %rdi
	callq	ferror
	cmpl	$0, %eax
	je	.LBB75_2
# %bb.1:                                # %if.then
	jmp	.LBB75_66
.LBB75_2:                               # %if.end
	movq	-32(%rbp), %rdi
	callq	ferror
	cmpl	$0, %eax
	je	.LBB75_4
# %bb.3:                                # %if.then3
	jmp	.LBB75_66
.LBB75_4:                               # %if.end4
	jmp	.LBB75_5
.LBB75_5:                               # %while.body
                                        # =>This Loop Header: Depth=1
                                        #     Child Loop BB75_9 Depth 2
                                        #     Child Loop BB75_24 Depth 2
	leaq	-10112(%rbp), %r8
	movq	-32(%rbp), %rsi
	movl	verbosity, %edx
	movzbl	smallMode, %ecx
	movl	-48(%rbp), %r9d
	leaq	-16(%rbp), %rdi
	callq	BZ2_bzReadOpen
	movq	%rax, -64(%rbp)
	cmpq	$0, -64(%rbp)
	je	.LBB75_7
# %bb.6:                                # %lor.lhs.false
                                        #   in Loop: Header=BB75_5 Depth=1
	cmpl	$0, -16(%rbp)
	je	.LBB75_8
.LBB75_7:                               # %if.then9
	jmp	.LBB75_62
.LBB75_8:                               # %if.end10
                                        #   in Loop: Header=BB75_5 Depth=1
	movl	-52(%rbp), %eax
	addl	$1, %eax
	movl	%eax, -52(%rbp)
.LBB75_9:                               # %while.cond11
                                        #   Parent Loop BB75_5 Depth=1
                                        # =>  This Inner Loop Header: Depth=2
	cmpl	$0, -16(%rbp)
	jne	.LBB75_19
# %bb.10:                               # %while.body14
                                        #   in Loop: Header=BB75_9 Depth=2
	leaq	-5104(%rbp), %rdx
	movq	-64(%rbp), %rsi
	leaq	-16(%rbp), %rdi
	movl	$5000, %ecx             # imm = 0x1388
	callq	BZ2_bzRead
	movl	%eax, -36(%rbp)
	cmpl	$-5, -16(%rbp)
	jne	.LBB75_12
# %bb.11:                               # %if.then19
	jmp	.LBB75_49
.LBB75_12:                              # %if.end20
                                        #   in Loop: Header=BB75_9 Depth=2
	cmpl	$0, -16(%rbp)
	je	.LBB75_14
# %bb.13:                               # %lor.lhs.false23
                                        #   in Loop: Header=BB75_9 Depth=2
	cmpl	$4, -16(%rbp)
	jne	.LBB75_16
.LBB75_14:                              # %land.lhs.true
                                        #   in Loop: Header=BB75_9 Depth=2
	cmpl	$0, -36(%rbp)
	jle	.LBB75_16
# %bb.15:                               # %if.then28
                                        #   in Loop: Header=BB75_9 Depth=2
	leaq	-5104(%rbp), %rdi
	movslq	-36(%rbp), %rdx
	movq	-24(%rbp), %rcx
	movl	$1, %esi
	callq	fwrite
.LBB75_16:                              # %if.end32
                                        #   in Loop: Header=BB75_9 Depth=2
	movq	-24(%rbp), %rdi
	callq	ferror
	cmpl	$0, %eax
	je	.LBB75_18
# %bb.17:                               # %if.then35
	jmp	.LBB75_66
.LBB75_18:                              # %if.end36
                                        #   in Loop: Header=BB75_9 Depth=2
	jmp	.LBB75_9
.LBB75_19:                              # %while.end
                                        #   in Loop: Header=BB75_5 Depth=1
	cmpl	$4, -16(%rbp)
	je	.LBB75_21
# %bb.20:                               # %if.then39
	jmp	.LBB75_62
.LBB75_21:                              # %if.end40
                                        #   in Loop: Header=BB75_5 Depth=1
	movq	-64(%rbp), %rsi
	leaq	-16(%rbp), %rdi
	leaq	-80(%rbp), %rdx
	leaq	-48(%rbp), %rcx
	callq	BZ2_bzReadGetUnused
	cmpl	$0, -16(%rbp)
	je	.LBB75_23
# %bb.22:                               # %if.then43
	movabsq	$.L.str.88, %rdi
	callq	panic
.LBB75_23:                              # %if.end44
                                        #   in Loop: Header=BB75_5 Depth=1
	movq	-80(%rbp), %rax
	movq	%rax, -88(%rbp)
	movl	$0, -44(%rbp)
.LBB75_24:                              # %for.cond
                                        #   Parent Loop BB75_5 Depth=1
                                        # =>  This Inner Loop Header: Depth=2
	movl	-44(%rbp), %eax
	cmpl	-48(%rbp), %eax
	jge	.LBB75_27
# %bb.25:                               # %for.body
                                        #   in Loop: Header=BB75_24 Depth=2
	movq	-88(%rbp), %rax
	movslq	-44(%rbp), %rcx
	movb	(%rax,%rcx), %al
	movslq	-44(%rbp), %rcx
	movb	%al, -10112(%rbp,%rcx)
# %bb.26:                               # %for.inc
                                        #   in Loop: Header=BB75_24 Depth=2
	movl	-44(%rbp), %eax
	addl	$1, %eax
	movl	%eax, -44(%rbp)
	jmp	.LBB75_24
.LBB75_27:                              # %for.end
                                        #   in Loop: Header=BB75_5 Depth=1
	movq	-64(%rbp), %rsi
	leaq	-16(%rbp), %rdi
	callq	BZ2_bzReadClose
	cmpl	$0, -16(%rbp)
	je	.LBB75_29
# %bb.28:                               # %if.then52
	movabsq	$.L.str.88, %rdi
	callq	panic
.LBB75_29:                              # %if.end53
                                        #   in Loop: Header=BB75_5 Depth=1
	cmpl	$0, -48(%rbp)
	jne	.LBB75_32
# %bb.30:                               # %land.lhs.true56
                                        #   in Loop: Header=BB75_5 Depth=1
	movq	-32(%rbp), %rdi
	callq	myfeof
	movzbl	%al, %eax
	cmpl	$0, %eax
	je	.LBB75_32
# %bb.31:                               # %if.then60
	jmp	.LBB75_33
.LBB75_32:                              # %if.end61
                                        #   in Loop: Header=BB75_5 Depth=1
	jmp	.LBB75_5
.LBB75_33:                              # %while.end62
	jmp	.LBB75_34
.LBB75_34:                              # %closeok
	movq	-32(%rbp), %rdi
	callq	ferror
	cmpl	$0, %eax
	je	.LBB75_36
# %bb.35:                               # %if.then65
	jmp	.LBB75_66
.LBB75_36:                              # %if.end66
	movq	-32(%rbp), %rdi
	callq	fclose
	movl	%eax, -40(%rbp)
	cmpl	$-1, -40(%rbp)
	jne	.LBB75_38
# %bb.37:                               # %if.then70
	jmp	.LBB75_66
.LBB75_38:                              # %if.end71
	movq	-24(%rbp), %rdi
	callq	ferror
	cmpl	$0, %eax
	je	.LBB75_40
# %bb.39:                               # %if.then74
	jmp	.LBB75_66
.LBB75_40:                              # %if.end75
	movq	-24(%rbp), %rdi
	callq	fflush
	movl	%eax, -40(%rbp)
	cmpl	$0, -40(%rbp)
	je	.LBB75_42
# %bb.41:                               # %if.then79
	jmp	.LBB75_66
.LBB75_42:                              # %if.end80
	movq	-24(%rbp), %rax
	cmpq	stdout, %rax
	je	.LBB75_46
# %bb.43:                               # %if.then83
	movq	-24(%rbp), %rdi
	callq	fclose
