	.text
	.file	"bzip2.c"
	.globl	fopen_output_safely     # -- Begin function fopen_output_safely
	.p2align	4, 0x90
	.type	fopen_output_safely,@function
fopen_output_safely:                    # @fopen_output_safely
	.cfi_startproc
# %bb.0:                                # %rand_bb
	pushq	%rbp
	.cfi_def_cfa_offset 16
	.cfi_offset %rbp, -16
	movq	%rsp, %rbp
	.cfi_def_cfa_register %rbp
	pushq	%r14
	pushq	%rbx
	.cfi_offset %rbx, -32
	.cfi_offset %r14, -24
	movq	%rsi, %r14
	movq	%rdi, %rbx
	callq	get_urand
	cmpl	$0, %eax
	jne	.LBB0_17
# %bb.1:                                # %func_fopen_output_safely.13
	movq	%rbx, %rdi
	movq	%r14, %rsi
	callq	fopen_output_safely.13
	popq	%rbx
	popq	%r14
	popq	%rbp
	.cfi_def_cfa %rsp, 8
	retq
.LBB0_2:                                # %func_fopen_output_safely.16
	.cfi_def_cfa %rbp, 16
	movq	%rbx, %rdi
	movq	%r14, %rsi
	callq	fopen_output_safely.16
	popq	%rbx
	popq	%r14
	popq	%rbp
	.cfi_def_cfa %rsp, 8
	retq
.LBB0_3:                                # %func_fopen_output_safely.17
	.cfi_def_cfa %rbp, 16
	movq	%rbx, %rdi
	movq	%r14, %rsi
	callq	fopen_output_safely.17
	popq	%rbx
	popq	%r14
	popq	%rbp
	.cfi_def_cfa %rsp, 8
	retq
.LBB0_4:                                # %func_fopen_output_safely.23
	.cfi_def_cfa %rbp, 16
	movq	%rbx, %rdi
	movq	%r14, %rsi
	callq	fopen_output_safely.23
	popq	%rbx
	popq	%r14
	popq	%rbp
	.cfi_def_cfa %rsp, 8
	retq
.LBB0_5:                                # %func_fopen_output_safely.90
	.cfi_def_cfa %rbp, 16
	movq	%rbx, %rdi
	movq	%r14, %rsi
	callq	fopen_output_safely.90
	popq	%rbx
	popq	%r14
	popq	%rbp
	.cfi_def_cfa %rsp, 8
	retq
.LBB0_6:                                # %func_fopen_output_safely.92
	.cfi_def_cfa %rbp, 16
	movq	%rbx, %rdi
	movq	%r14, %rsi
	callq	fopen_output_safely.92
	popq	%rbx
	popq	%r14
	popq	%rbp
	.cfi_def_cfa %rsp, 8
	retq
.LBB0_7:                                # %func_fopen_output_safely.102
	.cfi_def_cfa %rbp, 16
	movq	%rbx, %rdi
	movq	%r14, %rsi
	callq	fopen_output_safely.102
	popq	%rbx
	popq	%r14
	popq	%rbp
	.cfi_def_cfa %rsp, 8
	retq
.LBB0_8:                                # %func_fopen_output_safely.109
	.cfi_def_cfa %rbp, 16
	movq	%rbx, %rdi
	movq	%r14, %rsi
	callq	fopen_output_safely.109
	popq	%rbx
	popq	%r14
	popq	%rbp
	.cfi_def_cfa %rsp, 8
	retq
.LBB0_9:                                # %func_fopen_output_safely.114
	.cfi_def_cfa %rbp, 16
	movq	%rbx, %rdi
	movq	%r14, %rsi
	callq	fopen_output_safely.114
	popq	%rbx
	popq	%r14
	popq	%rbp
	.cfi_def_cfa %rsp, 8
	retq
.LBB0_10:                               # %func_fopen_output_safely.118
	.cfi_def_cfa %rbp, 16
	movq	%rbx, %rdi
	movq	%r14, %rsi
	callq	fopen_output_safely.118
	popq	%rbx
	popq	%r14
	popq	%rbp
	.cfi_def_cfa %rsp, 8
	retq
.LBB0_11:                               # %func_fopen_output_safely.156
	.cfi_def_cfa %rbp, 16
	movq	%rbx, %rdi
	movq	%r14, %rsi
	callq	fopen_output_safely.156
	popq	%rbx
	popq	%r14
	popq	%rbp
	.cfi_def_cfa %rsp, 8
	retq
.LBB0_12:                               # %func_fopen_output_safely.165
	.cfi_def_cfa %rbp, 16
	movq	%rbx, %rdi
	movq	%r14, %rsi
	callq	fopen_output_safely.165
	popq	%rbx
	popq	%r14
	popq	%rbp
	.cfi_def_cfa %rsp, 8
	retq
.LBB0_13:                               # %func_fopen_output_safely.167
	.cfi_def_cfa %rbp, 16
	movq	%rbx, %rdi
	movq	%r14, %rsi
	callq	fopen_output_safely.167
	popq	%rbx
	popq	%r14
	popq	%rbp
	.cfi_def_cfa %rsp, 8
	retq
.LBB0_14:                               # %func_fopen_output_safely.205
	.cfi_def_cfa %rbp, 16
	movq	%rbx, %rdi
	movq	%r14, %rsi
	callq	fopen_output_safely.205
	popq	%rbx
	popq	%r14
	popq	%rbp
	.cfi_def_cfa %rsp, 8
	retq
.LBB0_15:                               # %func_fopen_output_safely.212
	.cfi_def_cfa %rbp, 16
	movq	%rbx, %rdi
	movq	%r14, %rsi
	callq	fopen_output_safely.212
	popq	%rbx
	popq	%r14
	popq	%rbp
	.cfi_def_cfa %rsp, 8
	retq
.LBB0_16:                               # %func_fopen_output_safely.227
	.cfi_def_cfa %rbp, 16
	movq	%rbx, %rdi
	movq	%r14, %rsi
	callq	fopen_output_safely.227
	popq	%rbx
	popq	%r14
	popq	%rbp
	.cfi_def_cfa %rsp, 8
	retq
.LBB0_17:                               # %ctrl0
	.cfi_def_cfa %rbp, 16
	cmpl	$1, %eax
	je	.LBB0_2
# %bb.18:                               # %ctrl1
	cmpl	$2, %eax
	je	.LBB0_3
# %bb.19:                               # %ctrl2
	cmpl	$3, %eax
	je	.LBB0_4
# %bb.20:                               # %ctrl3
	cmpl	$4, %eax
	je	.LBB0_5
# %bb.21:                               # %ctrl4
	cmpl	$5, %eax
	je	.LBB0_6
# %bb.22:                               # %ctrl5
	cmpl	$6, %eax
	je	.LBB0_7
# %bb.23:                               # %ctrl6
	cmpl	$7, %eax
	je	.LBB0_8
# %bb.24:                               # %ctrl7
	cmpl	$8, %eax
	je	.LBB0_9
# %bb.25:                               # %ctrl8
	cmpl	$9, %eax
	je	.LBB0_10
# %bb.26:                               # %ctrl9
	cmpl	$10, %eax
	je	.LBB0_11
# %bb.27:                               # %ctrl10
	cmpl	$11, %eax
	je	.LBB0_12
# %bb.28:                               # %ctrl11
	cmpl	$12, %eax
	je	.LBB0_13
# %bb.29:                               # %ctrl12
	cmpl	$13, %eax
	je	.LBB0_14
# %bb.30:                               # %ctrl13
	cmpl	$14, %eax
	je	.LBB0_15
	jmp	.LBB0_16
.Lfunc_end0:
	.size	fopen_output_safely, .Lfunc_end0-fopen_output_safely
	.cfi_endproc
                                        # -- End function
	.globl	main                    # -- Begin function main
	.p2align	4, 0x90
	.type	main,@function
main:                                   # @main
	.cfi_startproc
# %bb.0:                                # %entry
	pushq	%rbp
	.cfi_def_cfa_offset 16
	.cfi_offset %rbp, -16
	movq	%rsp, %rbp
	.cfi_def_cfa_register %rbp
	pushq	%rbx
	subq	$72, %rsp
	.cfi_offset %rbx, -24
	movl	$0, -76(%rbp)
	movl	%edi, -52(%rbp)
	movq	%rsi, -64(%rbp)
	movq	$0, outputHandleJustInCase
	movb	$0, smallMode
	movb	$0, keepInputFiles
	movb	$0, forceOverwrite
	movb	$1, noisy
	movl	$0, verbosity
	movl	$9, blockSize100k
	movb	$0, testFailsExist
	movb	$0, unzFailsExist
	movl	$0, numFileNames
	movl	$0, numFilesProcessed
	movl	$30, workFactor
	movb	$0, deleteOutputOnInterrupt
	movl	$0, exitValue
	movl	$0, -36(%rbp)
	movl	$0, -40(%rbp)
	movl	$11, %edi
	movabsq	$mySIGSEGVorSIGBUScatcher, %rsi
	callq	signal
	movl	$7, %edi
	movabsq	$mySIGSEGVorSIGBUScatcher, %rsi
	callq	signal
	movabsq	$inName, %rdi
	movabsq	$.L.str, %rsi
	callq	copyFileName
	movabsq	$outName, %rdi
	movabsq	$.L.str, %rsi
	callq	copyFileName
	movq	-64(%rbp), %rax
	movq	(%rax), %rsi
	movabsq	$progNameReally, %rdi
	callq	copyFileName
	movabsq	$progNameReally, %rax
	movq	%rax, progName
	movq	%rax, -48(%rbp)
.LBB1_1:                                # %for.cond
                                        # =>This Inner Loop Header: Depth=1
	movq	-48(%rbp), %rax
	movsbl	(%rax), %eax
	cmpl	$0, %eax
	je	.LBB1_6
# %bb.2:                                # %for.body
                                        #   in Loop: Header=BB1_1 Depth=1
	movq	-48(%rbp), %rax
	movsbl	(%rax), %eax
	cmpl	$47, %eax
	jne	.LBB1_4
# %bb.3:                                # %if.then
                                        #   in Loop: Header=BB1_1 Depth=1
	movq	-48(%rbp), %rax
	addq	$1, %rax
	movq	%rax, progName
.LBB1_4:                                # %if.end
                                        #   in Loop: Header=BB1_1 Depth=1
	jmp	.LBB1_5
.LBB1_5:                                # %for.inc
                                        #   in Loop: Header=BB1_1 Depth=1
	movq	-48(%rbp), %rax
	addq	$1, %rax
	movq	%rax, -48(%rbp)
	jmp	.LBB1_1
.LBB1_6:                                # %for.end
	movq	$0, -32(%rbp)
	leaq	-32(%rbp), %rdi
	movabsq	$.L.str.1, %rsi
	callq	addFlagsFromEnvVar
	leaq	-32(%rbp), %rdi
	movabsq	$.L.str.2, %rsi
	callq	addFlagsFromEnvVar
	movl	$1, -40(%rbp)
.LBB1_7:                                # %for.cond6
                                        # =>This Inner Loop Header: Depth=1
	movl	-40(%rbp), %eax
	movl	-52(%rbp), %ecx
	subl	$1, %ecx
	cmpl	%ecx, %eax
	jg	.LBB1_10
# %bb.8:                                # %for.body9
                                        #   in Loop: Header=BB1_7 Depth=1
	movq	-32(%rbp), %rdi
	movq	-64(%rbp), %rax
	movslq	-40(%rbp), %rcx
	movq	(%rax,%rcx,8), %rsi
	callq	snocString
	movq	%rax, -32(%rbp)
# %bb.9:                                # %for.inc12
                                        #   in Loop: Header=BB1_7 Depth=1
	movl	-40(%rbp), %eax
	addl	$1, %eax
	movl	%eax, -40(%rbp)
	jmp	.LBB1_7
.LBB1_10:                               # %for.end13
	movl	$7, longestFileName
	movl	$0, numFileNames
	movb	$1, -9(%rbp)
	movq	-32(%rbp), %rax
	movq	%rax, -24(%rbp)
.LBB1_11:                               # %for.cond14
                                        # =>This Inner Loop Header: Depth=1
	cmpq	$0, -24(%rbp)
	je	.LBB1_21
# %bb.12:                               # %for.body17
                                        #   in Loop: Header=BB1_11 Depth=1
	movq	-24(%rbp), %rax
	movq	(%rax), %rdi
	movl	$.L.str.3, %esi
	callq	strcmp
	cmpl	$0, %eax
	jne	.LBB1_14
# %bb.13:                               # %if.then21
                                        #   in Loop: Header=BB1_11 Depth=1
	movb	$0, -9(%rbp)
	jmp	.LBB1_20
.LBB1_14:                               # %if.end22
                                        #   in Loop: Header=BB1_11 Depth=1
	movq	-24(%rbp), %rax
	movq	(%rax), %rax
	movsbl	(%rax), %eax
	cmpl	$45, %eax
	jne	.LBB1_17
# %bb.15:                               # %land.lhs.true
                                        #   in Loop: Header=BB1_11 Depth=1
	movzbl	-9(%rbp), %eax
	cmpl	$0, %eax
	je	.LBB1_17
# %bb.16:                               # %if.then29
                                        #   in Loop: Header=BB1_11 Depth=1
	jmp	.LBB1_20
.LBB1_17:                               # %if.end30
                                        #   in Loop: Header=BB1_11 Depth=1
	movl	numFileNames, %eax
	addl	$1, %eax
	movl	%eax, numFileNames
	movl	longestFileName, %ebx
	movq	-24(%rbp), %rax
	movq	(%rax), %rdi
	callq	strlen
	cmpl	%eax, %ebx
	jge	.LBB1_19
# %bb.18:                               # %if.then37
                                        #   in Loop: Header=BB1_11 Depth=1
	movq	-24(%rbp), %rax
	movq	(%rax), %rdi
	callq	strlen
	movl	%eax, longestFileName
.LBB1_19:                               # %if.end41
                                        #   in Loop: Header=BB1_11 Depth=1
	jmp	.LBB1_20
.LBB1_20:                               # %for.inc42
                                        #   in Loop: Header=BB1_11 Depth=1
	movq	-24(%rbp), %rax
	movq	8(%rax), %rax
	movq	%rax, -24(%rbp)
	jmp	.LBB1_11
.LBB1_21:                               # %for.end43
	cmpl	$0, numFileNames
	jne	.LBB1_23
# %bb.22:                               # %if.then46
	movl	$1, srcMode
	jmp	.LBB1_24
.LBB1_23:                               # %if.else
	movl	$3, srcMode
.LBB1_24:                               # %if.end47
	movl	$1, opMode
	movq	progName, %rdi
	movabsq	$.L.str.4, %rsi
	callq	strstr
	cmpq	$0, %rax
	jne	.LBB1_26
# %bb.25:                               # %lor.lhs.false
	movq	progName, %rdi
	movabsq	$.L.str.5, %rsi
	callq	strstr
	cmpq	$0, %rax
	je	.LBB1_27
.LBB1_26:                               # %if.then54
	movl	$2, opMode
.LBB1_27:                               # %if.end55
	movq	progName, %rdi
	movabsq	$.L.str.6, %rsi
	callq	strstr
	cmpq	$0, %rax
	jne	.LBB1_31
# %bb.28:                               # %lor.lhs.false59
	movq	progName, %rdi
	movabsq	$.L.str.7, %rsi
	callq	strstr
	cmpq	$0, %rax
	jne	.LBB1_31
# %bb.29:                               # %lor.lhs.false63
	movq	progName, %rdi
	movabsq	$.L.str.8, %rsi
	callq	strstr
	cmpq	$0, %rax
	jne	.LBB1_31
# %bb.30:                               # %lor.lhs.false67
	movq	progName, %rdi
	movabsq	$.L.str.9, %rsi
	callq	strstr
	cmpq	$0, %rax
	je	.LBB1_32
.LBB1_31:                               # %if.then71
	movl	$2, opMode
	movl	numFileNames, %eax
	cmpl	$0, %eax
	movl	$1, %eax
	movl	$2, %ecx
	cmovel	%eax, %ecx
	movl	%ecx, srcMode
.LBB1_32:                               # %if.end74
	movq	-32(%rbp), %rax
	movq	%rax, -24(%rbp)
.LBB1_33:                               # %for.cond75
                                        # =>This Loop Header: Depth=1
                                        #     Child Loop BB1_39 Depth 2
	cmpq	$0, -24(%rbp)
	je	.LBB1_68
# %bb.34:                               # %for.body78
                                        #   in Loop: Header=BB1_33 Depth=1
	movq	-24(%rbp), %rax
	movq	(%rax), %rdi
	movl	$.L.str.3, %esi
	callq	strcmp
	cmpl	$0, %eax
	jne	.LBB1_36
# %bb.35:                               # %if.then83
	jmp	.LBB1_69
.LBB1_36:                               # %if.end84
                                        #   in Loop: Header=BB1_33 Depth=1
	movq	-24(%rbp), %rax
	movq	(%rax), %rax
	movsbl	(%rax), %eax
	cmpl	$45, %eax
	jne	.LBB1_66
# %bb.37:                               # %land.lhs.true90
                                        #   in Loop: Header=BB1_33 Depth=1
	movq	-24(%rbp), %rax
	movq	(%rax), %rax
	movsbl	1(%rax), %eax
	cmpl	$45, %eax
	je	.LBB1_66
# %bb.38:                               # %if.then96
                                        #   in Loop: Header=BB1_33 Depth=1
	movl	$1, -36(%rbp)
.LBB1_39:                               # %for.cond97
                                        #   Parent Loop BB1_33 Depth=1
                                        # =>  This Inner Loop Header: Depth=2
	movq	-24(%rbp), %rax
	movq	(%rax), %rax
	movslq	-36(%rbp), %rcx
	movsbl	(%rax,%rcx), %eax
	cmpl	$0, %eax
	je	.LBB1_65
# %bb.40:                               # %for.body104
                                        #   in Loop: Header=BB1_39 Depth=2
	movq	-24(%rbp), %rax
	movq	(%rax), %rax
	movslq	-36(%rbp), %rcx
	movsbl	(%rax,%rcx), %eax
	addl	$-49, %eax
	movl	%eax, %ecx
	subl	$73, %ecx
	ja	.LBB1_62
# %bb.41:                               # %for.body104
                                        #   in Loop: Header=BB1_39 Depth=2
	movq	.LJTI1_0(,%rax,8), %rax
	jmpq	*%rax
.LBB1_42:                               # %sw.bb
                                        #   in Loop: Header=BB1_39 Depth=2
	movl	$2, srcMode
	jmp	.LBB1_63
.LBB1_43:                               # %sw.bb109
                                        #   in Loop: Header=BB1_39 Depth=2
	movl	$2, opMode
	jmp	.LBB1_63
.LBB1_44:                               # %sw.bb110
                                        #   in Loop: Header=BB1_39 Depth=2
	movl	$1, opMode
	jmp	.LBB1_63
.LBB1_45:                               # %sw.bb111
                                        #   in Loop: Header=BB1_39 Depth=2
	movb	$1, forceOverwrite
	jmp	.LBB1_63
.LBB1_46:                               # %sw.bb112
                                        #   in Loop: Header=BB1_39 Depth=2
	movl	$3, opMode
	jmp	.LBB1_63
.LBB1_47:                               # %sw.bb113
                                        #   in Loop: Header=BB1_39 Depth=2
	movb	$1, keepInputFiles
	jmp	.LBB1_63
.LBB1_48:                               # %sw.bb114
                                        #   in Loop: Header=BB1_39 Depth=2
	movb	$1, smallMode
	jmp	.LBB1_63
.LBB1_49:                               # %sw.bb115
                                        #   in Loop: Header=BB1_39 Depth=2
	movb	$0, noisy
	jmp	.LBB1_63
.LBB1_50:                               # %sw.bb116
                                        #   in Loop: Header=BB1_39 Depth=2
	movl	$1, blockSize100k
	jmp	.LBB1_63
.LBB1_51:                               # %sw.bb117
                                        #   in Loop: Header=BB1_39 Depth=2
	movl	$2, blockSize100k
	jmp	.LBB1_63
.LBB1_52:                               # %sw.bb118
                                        #   in Loop: Header=BB1_39 Depth=2
	movl	$3, blockSize100k
	jmp	.LBB1_63
.LBB1_53:                               # %sw.bb119
                                        #   in Loop: Header=BB1_39 Depth=2
	movl	$4, blockSize100k
	jmp	.LBB1_63
.LBB1_54:                               # %sw.bb120
                                        #   in Loop: Header=BB1_39 Depth=2
	movl	$5, blockSize100k
	jmp	.LBB1_63
.LBB1_55:                               # %sw.bb121
                                        #   in Loop: Header=BB1_39 Depth=2
	movl	$6, blockSize100k
	jmp	.LBB1_63
.LBB1_56:                               # %sw.bb122
                                        #   in Loop: Header=BB1_39 Depth=2
	movl	$7, blockSize100k
	jmp	.LBB1_63
.LBB1_57:                               # %sw.bb123
                                        #   in Loop: Header=BB1_39 Depth=2
	movl	$8, blockSize100k
	jmp	.LBB1_63
.LBB1_58:                               # %sw.bb124
                                        #   in Loop: Header=BB1_39 Depth=2
	movl	$9, blockSize100k
	jmp	.LBB1_63
.LBB1_59:                               # %sw.bb125
                                        #   in Loop: Header=BB1_39 Depth=2
	callq	license
	jmp	.LBB1_63
.LBB1_60:                               # %sw.bb126
                                        #   in Loop: Header=BB1_39 Depth=2
	movl	verbosity, %eax
	addl	$1, %eax
	movl	%eax, verbosity
	jmp	.LBB1_63
.LBB1_61:                               # %sw.bb128
	movq	progName, %rdi
	callq	usage
	xorl	%edi, %edi
	callq	exit
.LBB1_62:                               # %sw.default
	movq	stderr, %rdi
	movq	progName, %rdx
	movq	-24(%rbp), %rax
	movq	(%rax), %rcx
	movabsq	$.L.str.10, %rsi
	movb	$0, %al
	callq	fprintf
	movq	progName, %rdi
	callq	usage
	movl	$1, %edi
	callq	exit
.LBB1_63:                               # %sw.epilog
                                        #   in Loop: Header=BB1_39 Depth=2
	jmp	.LBB1_64
.LBB1_64:                               # %for.inc131
                                        #   in Loop: Header=BB1_39 Depth=2
	movl	-36(%rbp), %eax
	addl	$1, %eax
	movl	%eax, -36(%rbp)
	jmp	.LBB1_39
.LBB1_65:                               # %for.end133
                                        #   in Loop: Header=BB1_33 Depth=1
	jmp	.LBB1_66
.LBB1_66:                               # %if.end134
                                        #   in Loop: Header=BB1_33 Depth=1
	jmp	.LBB1_67
.LBB1_67:                               # %for.inc135
                                        #   in Loop: Header=BB1_33 Depth=1
	movq	-24(%rbp), %rax
	movq	8(%rax), %rax
	movq	%rax, -24(%rbp)
	jmp	.LBB1_33
.LBB1_68:                               # %for.end137.loopexit
	jmp	.LBB1_69
.LBB1_69:                               # %for.end137
	movq	-32(%rbp), %rax
	movq	%rax, -24(%rbp)
.LBB1_70:                               # %for.cond138
                                        # =>This Inner Loop Header: Depth=1
	cmpq	$0, -24(%rbp)
	je	.LBB1_128
# %bb.71:                               # %for.body141
                                        #   in Loop: Header=BB1_70 Depth=1
	movq	-24(%rbp), %rax
	movq	(%rax), %rdi
	movl	$.L.str.3, %esi
	callq	strcmp
	cmpl	$0, %eax
	jne	.LBB1_73
# %bb.72:                               # %if.then146
	jmp	.LBB1_129
.LBB1_73:                               # %if.end147
                                        #   in Loop: Header=BB1_70 Depth=1
	movq	-24(%rbp), %rax
	movq	(%rax), %rdi
	movl	$.L.str.11, %esi
	callq	strcmp
	cmpl	$0, %eax
	jne	.LBB1_75
# %bb.74:                               # %if.then152
                                        #   in Loop: Header=BB1_70 Depth=1
	movl	$2, srcMode
	jmp	.LBB1_126
.LBB1_75:                               # %if.else153
                                        #   in Loop: Header=BB1_70 Depth=1
	movq	-24(%rbp), %rax
	movq	(%rax), %rdi
	movl	$.L.str.12, %esi
	callq	strcmp
	cmpl	$0, %eax
	jne	.LBB1_77
# %bb.76:                               # %if.then158
                                        #   in Loop: Header=BB1_70 Depth=1
	movl	$2, opMode
	jmp	.LBB1_125
.LBB1_77:                               # %if.else159
                                        #   in Loop: Header=BB1_70 Depth=1
	movq	-24(%rbp), %rax
	movq	(%rax), %rdi
	movl	$.L.str.13, %esi
	callq	strcmp
	cmpl	$0, %eax
	jne	.LBB1_79
# %bb.78:                               # %if.then164
                                        #   in Loop: Header=BB1_70 Depth=1
	movl	$1, opMode
	jmp	.LBB1_124
.LBB1_79:                               # %if.else165
                                        #   in Loop: Header=BB1_70 Depth=1
	movq	-24(%rbp), %rax
	movq	(%rax), %rdi
	movl	$.L.str.14, %esi
	callq	strcmp
	cmpl	$0, %eax
	jne	.LBB1_81
# %bb.80:                               # %if.then170
                                        #   in Loop: Header=BB1_70 Depth=1
	movb	$1, forceOverwrite
	jmp	.LBB1_123
.LBB1_81:                               # %if.else171
                                        #   in Loop: Header=BB1_70 Depth=1
	movq	-24(%rbp), %rax
	movq	(%rax), %rdi
	movl	$.L.str.15, %esi
	callq	strcmp
	cmpl	$0, %eax
	jne	.LBB1_83
# %bb.82:                               # %if.then176
                                        #   in Loop: Header=BB1_70 Depth=1
	movl	$3, opMode
	jmp	.LBB1_122
.LBB1_83:                               # %if.else177
                                        #   in Loop: Header=BB1_70 Depth=1
	movq	-24(%rbp), %rax
	movq	(%rax), %rdi
	movl	$.L.str.16, %esi
	callq	strcmp
	cmpl	$0, %eax
	jne	.LBB1_85
# %bb.84:                               # %if.then182
                                        #   in Loop: Header=BB1_70 Depth=1
	movb	$1, keepInputFiles
	jmp	.LBB1_121
.LBB1_85:                               # %if.else183
                                        #   in Loop: Header=BB1_70 Depth=1
	movq	-24(%rbp), %rax
	movq	(%rax), %rdi
	movl	$.L.str.17, %esi
	callq	strcmp
	cmpl	$0, %eax
	jne	.LBB1_87
# %bb.86:                               # %if.then188
                                        #   in Loop: Header=BB1_70 Depth=1
	movb	$1, smallMode
	jmp	.LBB1_120
.LBB1_87:                               # %if.else189
                                        #   in Loop: Header=BB1_70 Depth=1
	movq	-24(%rbp), %rax
	movq	(%rax), %rdi
	movl	$.L.str.18, %esi
	callq	strcmp
	cmpl	$0, %eax
	jne	.LBB1_89
# %bb.88:                               # %if.then194
                                        #   in Loop: Header=BB1_70 Depth=1
	movb	$0, noisy
	jmp	.LBB1_119
.LBB1_89:                               # %if.else195
                                        #   in Loop: Header=BB1_70 Depth=1
	movq	-24(%rbp), %rax
	movq	(%rax), %rdi
	movl	$.L.str.19, %esi
	callq	strcmp
	cmpl	$0, %eax
	jne	.LBB1_91
# %bb.90:                               # %if.then200
                                        #   in Loop: Header=BB1_70 Depth=1
	callq	license
	jmp	.LBB1_118
.LBB1_91:                               # %if.else201
                                        #   in Loop: Header=BB1_70 Depth=1
	movq	-24(%rbp), %rax
	movq	(%rax), %rdi
	movl	$.L.str.20, %esi
	callq	strcmp
	cmpl	$0, %eax
	jne	.LBB1_93
# %bb.92:                               # %if.then206
                                        #   in Loop: Header=BB1_70 Depth=1
	callq	license
	jmp	.LBB1_117
.LBB1_93:                               # %if.else207
                                        #   in Loop: Header=BB1_70 Depth=1
	movq	-24(%rbp), %rax
	movq	(%rax), %rdi
	movl	$.L.str.21, %esi
	callq	strcmp
	cmpl	$0, %eax
	jne	.LBB1_95
# %bb.94:                               # %if.then212
                                        #   in Loop: Header=BB1_70 Depth=1
	movl	$1, workFactor
	jmp	.LBB1_116
.LBB1_95:                               # %if.else213
                                        #   in Loop: Header=BB1_70 Depth=1
	movq	-24(%rbp), %rax
	movq	(%rax), %rdi
	movl	$.L.str.22, %esi
	callq	strcmp
	cmpl	$0, %eax
	jne	.LBB1_97
# %bb.96:                               # %if.then218
                                        #   in Loop: Header=BB1_70 Depth=1
	movq	-24(%rbp), %rax
	movq	(%rax), %rdi
	callq	redundant
	jmp	.LBB1_115
.LBB1_97:                               # %if.else220
                                        #   in Loop: Header=BB1_70 Depth=1
	movq	-24(%rbp), %rax
	movq	(%rax), %rdi
	movl	$.L.str.23, %esi
	callq	strcmp
	cmpl	$0, %eax
	jne	.LBB1_99
# %bb.98:                               # %if.then225
                                        #   in Loop: Header=BB1_70 Depth=1
	movq	-24(%rbp), %rax
	movq	(%rax), %rdi
	callq	redundant
	jmp	.LBB1_114
.LBB1_99:                               # %if.else227
                                        #   in Loop: Header=BB1_70 Depth=1
	movq	-24(%rbp), %rax
	movq	(%rax), %rdi
	movl	$.L.str.24, %esi
	callq	strcmp
	cmpl	$0, %eax
	jne	.LBB1_101
# %bb.100:                              # %if.then232
                                        #   in Loop: Header=BB1_70 Depth=1
	movl	$1, blockSize100k
	jmp	.LBB1_113
.LBB1_101:                              # %if.else233
                                        #   in Loop: Header=BB1_70 Depth=1
	movq	-24(%rbp), %rax
	movq	(%rax), %rdi
	movl	$.L.str.25, %esi
	callq	strcmp
	cmpl	$0, %eax
	jne	.LBB1_103
# %bb.102:                              # %if.then238
                                        #   in Loop: Header=BB1_70 Depth=1
	movl	$9, blockSize100k
	jmp	.LBB1_112
.LBB1_103:                              # %if.else239
                                        #   in Loop: Header=BB1_70 Depth=1
	movq	-24(%rbp), %rax
	movq	(%rax), %rdi
	movl	$.L.str.26, %esi
	callq	strcmp
	cmpl	$0, %eax
	jne	.LBB1_105
# %bb.104:                              # %if.then244
                                        #   in Loop: Header=BB1_70 Depth=1
	movl	verbosity, %eax
	addl	$1, %eax
	movl	%eax, verbosity
	jmp	.LBB1_111
.LBB1_105:                              # %if.else246
                                        #   in Loop: Header=BB1_70 Depth=1
	movq	-24(%rbp), %rax
	movq	(%rax), %rdi
	movl	$.L.str.27, %esi
	callq	strcmp
	cmpl	$0, %eax
	jne	.LBB1_107
# %bb.106:                              # %if.then251
	movq	progName, %rdi
	callq	usage
	xorl	%edi, %edi
	callq	exit
.LBB1_107:                              # %if.else252
                                        #   in Loop: Header=BB1_70 Depth=1
	movq	-24(%rbp), %rax
	movq	(%rax), %rdi
	movabsq	$.L.str.3, %rsi
	movl	$2, %edx
	callq	strncmp
	cmpl	$0, %eax
	jne	.LBB1_109
# %bb.108:                              # %if.then257
	movq	stderr, %rdi
	movq	progName, %rdx
	movq	-24(%rbp), %rax
	movq	(%rax), %rcx
	movabsq	$.L.str.10, %rsi
	movb	$0, %al
	callq	fprintf
	movq	progName, %rdi
	callq	usage
	movl	$1, %edi
	callq	exit
.LBB1_109:                              # %if.end260
                                        #   in Loop: Header=BB1_70 Depth=1
	jmp	.LBB1_110
.LBB1_110:                              # %if.end261
                                        #   in Loop: Header=BB1_70 Depth=1
	jmp	.LBB1_111
.LBB1_111:                              # %if.end262
                                        #   in Loop: Header=BB1_70 Depth=1
	jmp	.LBB1_112
.LBB1_112:                              # %if.end263
                                        #   in Loop: Header=BB1_70 Depth=1
	jmp	.LBB1_113
.LBB1_113:                              # %if.end264
                                        #   in Loop: Header=BB1_70 Depth=1
	jmp	.LBB1_114
.LBB1_114:                              # %if.end265
                                        #   in Loop: Header=BB1_70 Depth=1
	jmp	.LBB1_115
.LBB1_115:                              # %if.end266
                                        #   in Loop: Header=BB1_70 Depth=1
	jmp	.LBB1_116
.LBB1_116:                              # %if.end267
                                        #   in Loop: Header=BB1_70 Depth=1
	jmp	.LBB1_117
.LBB1_117:                              # %if.end268
                                        #   in Loop: Header=BB1_70 Depth=1
	jmp	.LBB1_118
.LBB1_118:                              # %if.end269
                                        #   in Loop: Header=BB1_70 Depth=1
	jmp	.LBB1_119
.LBB1_119:                              # %if.end270
                                        #   in Loop: Header=BB1_70 Depth=1
	jmp	.LBB1_120
.LBB1_120:                              # %if.end271
                                        #   in Loop: Header=BB1_70 Depth=1
	jmp	.LBB1_121
.LBB1_121:                              # %if.end272
                                        #   in Loop: Header=BB1_70 Depth=1
	jmp	.LBB1_122
.LBB1_122:                              # %if.end273
                                        #   in Loop: Header=BB1_70 Depth=1
	jmp	.LBB1_123
.LBB1_123:                              # %if.end274
                                        #   in Loop: Header=BB1_70 Depth=1
	jmp	.LBB1_124
.LBB1_124:                              # %if.end275
                                        #   in Loop: Header=BB1_70 Depth=1
	jmp	.LBB1_125
.LBB1_125:                              # %if.end276
                                        #   in Loop: Header=BB1_70 Depth=1
	jmp	.LBB1_126
.LBB1_126:                              # %if.end277
                                        #   in Loop: Header=BB1_70 Depth=1
	jmp	.LBB1_127
.LBB1_127:                              # %for.inc278
                                        #   in Loop: Header=BB1_70 Depth=1
	movq	-24(%rbp), %rax
	movq	8(%rax), %rax
	movq	%rax, -24(%rbp)
	jmp	.LBB1_70
.LBB1_128:                              # %for.end280.loopexit
	jmp	.LBB1_129
.LBB1_129:                              # %for.end280
	cmpl	$4, verbosity
	jle	.LBB1_131
# %bb.130:                              # %if.then283
	movl	$4, verbosity
.LBB1_131:                              # %if.end284
	cmpl	$1, opMode
	jne	.LBB1_135
# %bb.132:                              # %land.lhs.true287
	movzbl	smallMode, %eax
	cmpl	$0, %eax
	je	.LBB1_135
# %bb.133:                              # %land.lhs.true290
	cmpl	$2, blockSize100k
	jle	.LBB1_135
# %bb.134:                              # %if.then293
	movl	$2, blockSize100k
.LBB1_135:                              # %if.end294
	cmpl	$3, opMode
	jne	.LBB1_138
# %bb.136:                              # %land.lhs.true297
	cmpl	$2, srcMode
	jne	.LBB1_138
# %bb.137:                              # %if.then300
	movq	stderr, %rdi
	movq	progName, %rdx
	movabsq	$.L.str.28, %rsi
	movb	$0, %al
	callq	fprintf
	movl	$1, %edi
	callq	exit
.LBB1_138:                              # %if.end302
	cmpl	$2, srcMode
	jne	.LBB1_141
# %bb.139:                              # %land.lhs.true305
	cmpl	$0, numFileNames
	jne	.LBB1_141
# %bb.140:                              # %if.then308
	movl	$1, srcMode
.LBB1_141:                              # %if.end309
	cmpl	$1, opMode
	je	.LBB1_143
# %bb.142:                              # %if.then312
	movl	$0, blockSize100k
.LBB1_143:                              # %if.end313
	cmpl	$3, srcMode
	jne	.LBB1_145
# %bb.144:                              # %if.then316
	movl	$2, %edi
	movabsq	$mySignalCatcher, %rsi
	callq	signal
	movl	$15, %edi
	movabsq	$mySignalCatcher, %rsi
	callq	signal
	movl	$1, %edi
	movabsq	$mySignalCatcher, %rsi
	callq	signal
.LBB1_145:                              # %if.end320
	cmpl	$1, opMode
	jne	.LBB1_159
# %bb.146:                              # %if.then323
	cmpl	$1, srcMode
	jne	.LBB1_148
# %bb.147:                              # %if.then326
	xorl	%edi, %edi
	callq	compress
	jmp	.LBB1_158
.LBB1_148:                              # %if.else327
	movb	$1, -9(%rbp)
	movq	-32(%rbp), %rax
	movq	%rax, -24(%rbp)
.LBB1_149:                              # %for.cond328
                                        # =>This Inner Loop Header: Depth=1
	cmpq	$0, -24(%rbp)
	je	.LBB1_157
# %bb.150:                              # %for.body331
                                        #   in Loop: Header=BB1_149 Depth=1
	movq	-24(%rbp), %rax
	movq	(%rax), %rdi
	movl	$.L.str.3, %esi
	callq	strcmp
	cmpl	$0, %eax
	jne	.LBB1_152
# %bb.151:                              # %if.then336
                                        #   in Loop: Header=BB1_149 Depth=1
	movb	$0, -9(%rbp)
	jmp	.LBB1_156
.LBB1_152:                              # %if.end337
                                        #   in Loop: Header=BB1_149 Depth=1
	movq	-24(%rbp), %rax
	movq	(%rax), %rax
	movsbl	(%rax), %eax
	cmpl	$45, %eax
	jne	.LBB1_155
# %bb.153:                              # %land.lhs.true343
                                        #   in Loop: Header=BB1_149 Depth=1
	movzbl	-9(%rbp), %eax
	cmpl	$0, %eax
	je	.LBB1_155
# %bb.154:                              # %if.then346
                                        #   in Loop: Header=BB1_149 Depth=1
	jmp	.LBB1_156
.LBB1_155:                              # %if.end347
                                        #   in Loop: Header=BB1_149 Depth=1
	movl	numFilesProcessed, %eax
	addl	$1, %eax
	movl	%eax, numFilesProcessed
	movq	-24(%rbp), %rax
	movq	(%rax), %rdi
	callq	compress
.LBB1_156:                              # %for.inc350
                                        #   in Loop: Header=BB1_149 Depth=1
	movq	-24(%rbp), %rax
	movq	8(%rax), %rax
	movq	%rax, -24(%rbp)
	jmp	.LBB1_149
.LBB1_157:                              # %for.end352
	jmp	.LBB1_158
.LBB1_158:                              # %if.end353
	jmp	.LBB1_192
.LBB1_159:                              # %if.else354
	cmpl	$2, opMode
	jne	.LBB1_175
# %bb.160:                              # %if.then357
	movb	$0, unzFailsExist
	cmpl	$1, srcMode
	jne	.LBB1_162
# %bb.161:                              # %if.then360
	xorl	%edi, %edi
	callq	uncompress
	jmp	.LBB1_172
.LBB1_162:                              # %if.else361
	movb	$1, -9(%rbp)
	movq	-32(%rbp), %rax
	movq	%rax, -24(%rbp)
.LBB1_163:                              # %for.cond362
                                        # =>This Inner Loop Header: Depth=1
	cmpq	$0, -24(%rbp)
	je	.LBB1_171
# %bb.164:                              # %for.body365
                                        #   in Loop: Header=BB1_163 Depth=1
	movq	-24(%rbp), %rax
	movq	(%rax), %rdi
	movl	$.L.str.3, %esi
	callq	strcmp
	cmpl	$0, %eax
	jne	.LBB1_166
# %bb.165:                              # %if.then370
                                        #   in Loop: Header=BB1_163 Depth=1
	movb	$0, -9(%rbp)
	jmp	.LBB1_170
.LBB1_166:                              # %if.end371
                                        #   in Loop: Header=BB1_163 Depth=1
	movq	-24(%rbp), %rax
	movq	(%rax), %rax
	movsbl	(%rax), %eax
	cmpl	$45, %eax
	jne	.LBB1_169
# %bb.167:                              # %land.lhs.true377
                                        #   in Loop: Header=BB1_163 Depth=1
	movzbl	-9(%rbp), %eax
	cmpl	$0, %eax
	je	.LBB1_169
# %bb.168:                              # %if.then380
                                        #   in Loop: Header=BB1_163 Depth=1
	jmp	.LBB1_170
.LBB1_169:                              # %if.end381
                                        #   in Loop: Header=BB1_163 Depth=1
	movl	numFilesProcessed, %eax
	addl	$1, %eax
	movl	%eax, numFilesProcessed
	movq	-24(%rbp), %rax
	movq	(%rax), %rdi
	callq	uncompress
.LBB1_170:                              # %for.inc384
                                        #   in Loop: Header=BB1_163 Depth=1
	movq	-24(%rbp), %rax
	movq	8(%rax), %rax
	movq	%rax, -24(%rbp)
	jmp	.LBB1_163
.LBB1_171:                              # %for.end386
	jmp	.LBB1_172
.LBB1_172:                              # %if.end387
	cmpb	$0, unzFailsExist
	je	.LBB1_174
# %bb.173:                              # %if.then389
	movl	$2, %edi
	callq	setExit
	movl	exitValue, %edi
	callq	exit
.LBB1_174:                              # %if.end390
	jmp	.LBB1_191
.LBB1_175:                              # %if.else391
	movb	$0, testFailsExist
	cmpl	$1, srcMode
	jne	.LBB1_177
# %bb.176:                              # %if.then394
	xorl	%edi, %edi
	callq	testf
	jmp	.LBB1_187
.LBB1_177:                              # %if.else395
	movb	$1, -9(%rbp)
	movq	-32(%rbp), %rax
	movq	%rax, -24(%rbp)
.LBB1_178:                              # %for.cond396
                                        # =>This Inner Loop Header: Depth=1
	cmpq	$0, -24(%rbp)
	je	.LBB1_186
# %bb.179:                              # %for.body399
                                        #   in Loop: Header=BB1_178 Depth=1
	movq	-24(%rbp), %rax
	movq	(%rax), %rdi
	movl	$.L.str.3, %esi
	callq	strcmp
	cmpl	$0, %eax
	jne	.LBB1_181
# %bb.180:                              # %if.then404
                                        #   in Loop: Header=BB1_178 Depth=1
	movb	$0, -9(%rbp)
	jmp	.LBB1_185
.LBB1_181:                              # %if.end405
                                        #   in Loop: Header=BB1_178 Depth=1
	movq	-24(%rbp), %rax
	movq	(%rax), %rax
	movsbl	(%rax), %eax
	cmpl	$45, %eax
	jne	.LBB1_184
# %bb.182:                              # %land.lhs.true411
                                        #   in Loop: Header=BB1_178 Depth=1
	movzbl	-9(%rbp), %eax
	cmpl	$0, %eax
	je	.LBB1_184
# %bb.183:                              # %if.then414
                                        #   in Loop: Header=BB1_178 Depth=1
	jmp	.LBB1_185
.LBB1_184:                              # %if.end415
                                        #   in Loop: Header=BB1_178 Depth=1
	movl	numFilesProcessed, %eax
	addl	$1, %eax
	movl	%eax, numFilesProcessed
	movq	-24(%rbp), %rax
	movq	(%rax), %rdi
	callq	testf
.LBB1_185:                              # %for.inc418
                                        #   in Loop: Header=BB1_178 Depth=1
	movq	-24(%rbp), %rax
	movq	8(%rax), %rax
	movq	%rax, -24(%rbp)
	jmp	.LBB1_178
.LBB1_186:                              # %for.end420
	jmp	.LBB1_187
.LBB1_187:                              # %if.end421
	movzbl	testFailsExist, %eax
	cmpl	$0, %eax
	je	.LBB1_190
# %bb.188:                              # %land.lhs.true424
	movzbl	noisy, %eax
	cmpl	$0, %eax
	je	.LBB1_190
# %bb.189:                              # %if.then427
	movq	stderr, %rdi
	movabsq	$.L.str.29, %rsi
	movb	$0, %al
	callq	fprintf
	movl	$2, %edi
	callq	setExit
	movl	exitValue, %edi
	callq	exit
.LBB1_190:                              # %if.end429
	jmp	.LBB1_191
.LBB1_191:                              # %if.end430
	jmp	.LBB1_192
.LBB1_192:                              # %if.end431
	movq	-32(%rbp), %rax
	movq	%rax, -24(%rbp)
.LBB1_193:                              # %while.cond
                                        # =>This Inner Loop Header: Depth=1
	cmpq	$0, -24(%rbp)
	je	.LBB1_197
# %bb.194:                              # %while.body
                                        #   in Loop: Header=BB1_193 Depth=1
	movq	-24(%rbp), %rax
	movq	8(%rax), %rax
	movq	%rax, -72(%rbp)
	movq	-24(%rbp), %rax
	cmpq	$0, (%rax)
	je	.LBB1_196
# %bb.195:                              # %if.then438
                                        #   in Loop: Header=BB1_193 Depth=1
	movq	-24(%rbp), %rax
	movq	(%rax), %rdi
	callq	free
.LBB1_196:                              # %if.end440
                                        #   in Loop: Header=BB1_193 Depth=1
	movq	-24(%rbp), %rdi
	callq	free
	movq	-72(%rbp), %rax
	movq	%rax, -24(%rbp)
	jmp	.LBB1_193
.LBB1_197:                              # %while.end
	movl	exitValue, %eax
	addq	$72, %rsp
	popq	%rbx
	popq	%rbp
	.cfi_def_cfa %rsp, 8
	retq
.Lfunc_end1:
	.size	main, .Lfunc_end1-main
	.cfi_endproc
	.section	.rodata,"a",@progbits
	.p2align	3
.LJTI1_0:
	.quad	.LBB1_50
	.quad	.LBB1_51
	.quad	.LBB1_52
	.quad	.LBB1_53
	.quad	.LBB1_54
	.quad	.LBB1_55
	.quad	.LBB1_56
	.quad	.LBB1_57
	.quad	.LBB1_58
	.quad	.LBB1_62
	.quad	.LBB1_62
	.quad	.LBB1_62
	.quad	.LBB1_62
	.quad	.LBB1_62
	.quad	.LBB1_62
	.quad	.LBB1_62
	.quad	.LBB1_62
	.quad	.LBB1_62
	.quad	.LBB1_62
	.quad	.LBB1_62
	.quad	.LBB1_62
	.quad	.LBB1_62
	.quad	.LBB1_62
	.quad	.LBB1_62
	.quad	.LBB1_62
	.quad	.LBB1_62
	.quad	.LBB1_62
	.quad	.LBB1_59
	.quad	.LBB1_62
	.quad	.LBB1_62
	.quad	.LBB1_62
	.quad	.LBB1_62
	.quad	.LBB1_62
	.quad	.LBB1_62
	.quad	.LBB1_62
	.quad	.LBB1_62
	.quad	.LBB1_62
	.quad	.LBB1_59
	.quad	.LBB1_62
	.quad	.LBB1_62
	.quad	.LBB1_62
	.quad	.LBB1_62
	.quad	.LBB1_62
	.quad	.LBB1_62
	.quad	.LBB1_62
	.quad	.LBB1_62
	.quad	.LBB1_62
	.quad	.LBB1_62
	.quad	.LBB1_62
	.quad	.LBB1_62
	.quad	.LBB1_42
	.quad	.LBB1_43
	.quad	.LBB1_62
	.quad	.LBB1_45
	.quad	.LBB1_62
	.quad	.LBB1_61
	.quad	.LBB1_62
	.quad	.LBB1_62
	.quad	.LBB1_47
	.quad	.LBB1_62
	.quad	.LBB1_62
	.quad	.LBB1_62
	.quad	.LBB1_62
	.quad	.LBB1_62
	.quad	.LBB1_49
	.quad	.LBB1_62
	.quad	.LBB1_48
	.quad	.LBB1_46
	.quad	.LBB1_62
	.quad	.LBB1_60
	.quad	.LBB1_62
	.quad	.LBB1_62
	.quad	.LBB1_62
	.quad	.LBB1_44
                                        # -- End function
	.text
	.p2align	4, 0x90         # -- Begin function mySIGSEGVorSIGBUScatcher
	.type	mySIGSEGVorSIGBUScatcher,@function
mySIGSEGVorSIGBUScatcher:               # @mySIGSEGVorSIGBUScatcher
	.cfi_startproc
# %bb.0:                                # %entry
	pushq	%rbp
	.cfi_def_cfa_offset 16
	.cfi_offset %rbp, -16
	movq	%rsp, %rbp
	.cfi_def_cfa_register %rbp
	subq	$16, %rsp
	movl	%edi, -4(%rbp)
	cmpl	$1, opMode
	jne	.LBB2_2
# %bb.1:                                # %if.then
	movq	stderr, %rdi
	movq	progName, %rdx
	movabsq	$.L.str.36, %rsi
	movb	$0, %al
	callq	fprintf
	jmp	.LBB2_3
.LBB2_2:                                # %if.else
	movq	stderr, %rdi
	movq	progName, %rdx
	movabsq	$.L.str.37, %rsi
	movb	$0, %al
	callq	fprintf
.LBB2_3:                                # %if.end
	callq	showFileNames
	cmpl	$1, opMode
	jne	.LBB2_5
# %bb.4:                                # %if.then3
	movl	$3, %edi
	callq	cleanUpAndFail
.LBB2_5:                                # %if.else4
	callq	cadvise
	movl	$2, %edi
	callq	cleanUpAndFail
.Lfunc_end2:
	.size	mySIGSEGVorSIGBUScatcher, .Lfunc_end2-mySIGSEGVorSIGBUScatcher
	.cfi_endproc
                                        # -- End function
	.p2align	4, 0x90         # -- Begin function copyFileName
	.type	copyFileName,@function
copyFileName:                           # @copyFileName
	.cfi_startproc
# %bb.0:                                # %rand_bb
	pushq	%rbp
	.cfi_def_cfa_offset 16
	.cfi_offset %rbp, -16
	movq	%rsp, %rbp
	.cfi_def_cfa_register %rbp
	pushq	%r14
	pushq	%rbx
	.cfi_offset %rbx, -32
	.cfi_offset %r14, -24
	movq	%rsi, %r14
	movq	%rdi, %rbx
	callq	get_urand
	cmpl	$0, %eax
	jne	.LBB3_2
# %bb.1:                                # %func_copyFileName.2
	movq	%rbx, %rdi
	movq	%r14, %rsi
	callq	copyFileName.2
	popq	%rbx
	popq	%r14
	popq	%rbp
	.cfi_def_cfa %rsp, 8
	retq
.LBB3_2:                                # %func_copyFileName.11
	.cfi_def_cfa %rbp, 16
	movq	%rbx, %rdi
	movq	%r14, %rsi
	callq	copyFileName.11
	popq	%rbx
	popq	%r14
	popq	%rbp
	.cfi_def_cfa %rsp, 8
	retq
.Lfunc_end3:
	.size	copyFileName, .Lfunc_end3-copyFileName
	.cfi_endproc
                                        # -- End function
	.p2align	4, 0x90         # -- Begin function addFlagsFromEnvVar
	.type	addFlagsFromEnvVar,@function
addFlagsFromEnvVar:                     # @addFlagsFromEnvVar
	.cfi_startproc
# %bb.0:                                # %rand_bb
	pushq	%rbp
	.cfi_def_cfa_offset 16
	.cfi_offset %rbp, -16
	movq	%rsp, %rbp
	.cfi_def_cfa_register %rbp
	pushq	%r14
	pushq	%rbx
	.cfi_offset %rbx, -32
	.cfi_offset %r14, -24
	movq	%rsi, %r14
	movq	%rdi, %rbx
	callq	get_urand
	cmpl	$0, %eax
	jne	.LBB4_17
# %bb.1:                                # %func_addFlagsFromEnvVar.29
	movq	%rbx, %rdi
	movq	%r14, %rsi
	callq	addFlagsFromEnvVar.29
	popq	%rbx
	popq	%r14
	popq	%rbp
	.cfi_def_cfa %rsp, 8
	retq
.LBB4_2:                                # %func_addFlagsFromEnvVar.66
	.cfi_def_cfa %rbp, 16
	movq	%rbx, %rdi
	movq	%r14, %rsi
	callq	addFlagsFromEnvVar.66
	popq	%rbx
	popq	%r14
	popq	%rbp
	.cfi_def_cfa %rsp, 8
	retq
.LBB4_3:                                # %func_addFlagsFromEnvVar.82
	.cfi_def_cfa %rbp, 16
	movq	%rbx, %rdi
	movq	%r14, %rsi
	callq	addFlagsFromEnvVar.82
	popq	%rbx
	popq	%r14
	popq	%rbp
	.cfi_def_cfa %rsp, 8
	retq
.LBB4_4:                                # %func_addFlagsFromEnvVar.100
	.cfi_def_cfa %rbp, 16
	movq	%rbx, %rdi
	movq	%r14, %rsi
	callq	addFlagsFromEnvVar.100
	popq	%rbx
	popq	%r14
	popq	%rbp
	.cfi_def_cfa %rsp, 8
	retq
.LBB4_5:                                # %func_addFlagsFromEnvVar.113
	.cfi_def_cfa %rbp, 16
	movq	%rbx, %rdi
	movq	%r14, %rsi
	callq	addFlagsFromEnvVar.113
	popq	%rbx
	popq	%r14
	popq	%rbp
	.cfi_def_cfa %rsp, 8
	retq
.LBB4_6:                                # %func_addFlagsFromEnvVar.121
	.cfi_def_cfa %rbp, 16
	movq	%rbx, %rdi
	movq	%r14, %rsi
	callq	addFlagsFromEnvVar.121
	popq	%rbx
	popq	%r14
	popq	%rbp
	.cfi_def_cfa %rsp, 8
	retq
.LBB4_7:                                # %func_addFlagsFromEnvVar.123
	.cfi_def_cfa %rbp, 16
	movq	%rbx, %rdi
	movq	%r14, %rsi
	callq	addFlagsFromEnvVar.123
	popq	%rbx
	popq	%r14
	popq	%rbp
	.cfi_def_cfa %rsp, 8
	retq
.LBB4_8:                                # %func_addFlagsFromEnvVar.133
	.cfi_def_cfa %rbp, 16
	movq	%rbx, %rdi
	movq	%r14, %rsi
	callq	addFlagsFromEnvVar.133
	popq	%rbx
	popq	%r14
	popq	%rbp
	.cfi_def_cfa %rsp, 8
	retq
.LBB4_9:                                # %func_addFlagsFromEnvVar.136
	.cfi_def_cfa %rbp, 16
	movq	%rbx, %rdi
	movq	%r14, %rsi
	callq	addFlagsFromEnvVar.136
	popq	%rbx
	popq	%r14
	popq	%rbp
	.cfi_def_cfa %rsp, 8
	retq
.LBB4_10:                               # %func_addFlagsFromEnvVar.142
	.cfi_def_cfa %rbp, 16
	movq	%rbx, %rdi
	movq	%r14, %rsi
	callq	addFlagsFromEnvVar.142
	popq	%rbx
	popq	%r14
	popq	%rbp
	.cfi_def_cfa %rsp, 8
	retq
.LBB4_11:                               # %func_addFlagsFromEnvVar.145
	.cfi_def_cfa %rbp, 16
	movq	%rbx, %rdi
	movq	%r14, %rsi
	callq	addFlagsFromEnvVar.145
	popq	%rbx
	popq	%r14
	popq	%rbp
	.cfi_def_cfa %rsp, 8
	retq
.LBB4_12:                               # %func_addFlagsFromEnvVar.158
	.cfi_def_cfa %rbp, 16
	movq	%rbx, %rdi
	movq	%r14, %rsi
	callq	addFlagsFromEnvVar.158
	popq	%rbx
	popq	%r14
	popq	%rbp
	.cfi_def_cfa %rsp, 8
	retq
.LBB4_13:                               # %func_addFlagsFromEnvVar.174
	.cfi_def_cfa %rbp, 16
	movq	%rbx, %rdi
	movq	%r14, %rsi
	callq	addFlagsFromEnvVar.174
	popq	%rbx
	popq	%r14
	popq	%rbp
	.cfi_def_cfa %rsp, 8
	retq
.LBB4_14:                               # %func_addFlagsFromEnvVar.181
	.cfi_def_cfa %rbp, 16
	movq	%rbx, %rdi
	movq	%r14, %rsi
	callq	addFlagsFromEnvVar.181
	popq	%rbx
	popq	%r14
	popq	%rbp
	.cfi_def_cfa %rsp, 8
	retq
.LBB4_15:                               # %func_addFlagsFromEnvVar.200
	.cfi_def_cfa %rbp, 16
	movq	%rbx, %rdi
	movq	%r14, %rsi
	callq	addFlagsFromEnvVar.200
	popq	%rbx
	popq	%r14
	popq	%rbp
	.cfi_def_cfa %rsp, 8
	retq
.LBB4_16:                               # %func_addFlagsFromEnvVar.231
	.cfi_def_cfa %rbp, 16
	movq	%rbx, %rdi
	movq	%r14, %rsi
	callq	addFlagsFromEnvVar.231
	popq	%rbx
	popq	%r14
	popq	%rbp
	.cfi_def_cfa %rsp, 8
	retq
.LBB4_17:                               # %ctrl0
	.cfi_def_cfa %rbp, 16
	cmpl	$1, %eax
	je	.LBB4_2
# %bb.18:                               # %ctrl1
	cmpl	$2, %eax
	je	.LBB4_3
# %bb.19:                               # %ctrl2
	cmpl	$3, %eax
	je	.LBB4_4
# %bb.20:                               # %ctrl3
	cmpl	$4, %eax
	je	.LBB4_5
# %bb.21:                               # %ctrl4
	cmpl	$5, %eax
	je	.LBB4_6
# %bb.22:                               # %ctrl5
	cmpl	$6, %eax
	je	.LBB4_7
# %bb.23:                               # %ctrl6
	cmpl	$7, %eax
	je	.LBB4_8
# %bb.24:                               # %ctrl7
	cmpl	$8, %eax
	je	.LBB4_9
# %bb.25:                               # %ctrl8
	cmpl	$9, %eax
	je	.LBB4_10
# %bb.26:                               # %ctrl9
	cmpl	$10, %eax
	je	.LBB4_11
# %bb.27:                               # %ctrl10
	cmpl	$11, %eax
	je	.LBB4_12
# %bb.28:                               # %ctrl11
	cmpl	$12, %eax
	je	.LBB4_13
# %bb.29:                               # %ctrl12
	cmpl	$13, %eax
	je	.LBB4_14
# %bb.30:                               # %ctrl13
	cmpl	$14, %eax
	je	.LBB4_15
	jmp	.LBB4_16
.Lfunc_end4:
	.size	addFlagsFromEnvVar, .Lfunc_end4-addFlagsFromEnvVar
	.cfi_endproc
                                        # -- End function
	.p2align	4, 0x90         # -- Begin function snocString
	.type	snocString,@function
snocString:                             # @snocString
	.cfi_startproc
# %bb.0:                                # %rand_bb
	pushq	%rbp
	.cfi_def_cfa_offset 16
	.cfi_offset %rbp, -16
	movq	%rsp, %rbp
	.cfi_def_cfa_register %rbp
	pushq	%r14
	pushq	%rbx
	.cfi_offset %rbx, -32
	.cfi_offset %r14, -24
	movq	%rsi, %r14
	movq	%rdi, %rbx
	callq	get_urand
	cmpl	$0, %eax
	jne	.LBB5_17
# %bb.1:                                # %func_snocString.9
	movq	%rbx, %rdi
	movq	%r14, %rsi
	callq	snocString.9
	popq	%rbx
	popq	%r14
	popq	%rbp
	.cfi_def_cfa %rsp, 8
	retq
.LBB5_2:                                # %func_snocString.86
	.cfi_def_cfa %rbp, 16
	movq	%rbx, %rdi
	movq	%r14, %rsi
	callq	snocString.86
	popq	%rbx
	popq	%r14
	popq	%rbp
	.cfi_def_cfa %rsp, 8
	retq
.LBB5_3:                                # %func_snocString.155
	.cfi_def_cfa %rbp, 16
	movq	%rbx, %rdi
	movq	%r14, %rsi
	callq	snocString.155
	popq	%rbx
	popq	%r14
	popq	%rbp
	.cfi_def_cfa %rsp, 8
	retq
.LBB5_4:                                # %func_snocString.159
	.cfi_def_cfa %rbp, 16
	movq	%rbx, %rdi
	movq	%r14, %rsi
	callq	snocString.159
	popq	%rbx
	popq	%r14
	popq	%rbp
	.cfi_def_cfa %rsp, 8
	retq
.LBB5_5:                                # %func_snocString.162
	.cfi_def_cfa %rbp, 16
	movq	%rbx, %rdi
	movq	%r14, %rsi
	callq	snocString.162
	popq	%rbx
	popq	%r14
	popq	%rbp
	.cfi_def_cfa %rsp, 8
	retq
.LBB5_6:                                # %func_snocString.168
	.cfi_def_cfa %rbp, 16
	movq	%rbx, %rdi
	movq	%r14, %rsi
	callq	snocString.168
	popq	%rbx
	popq	%r14
	popq	%rbp
	.cfi_def_cfa %rsp, 8
	retq
.LBB5_7:                                # %func_snocString.183
	.cfi_def_cfa %rbp, 16
	movq	%rbx, %rdi
	movq	%r14, %rsi
	callq	snocString.183
	popq	%rbx
	popq	%r14
	popq	%rbp
	.cfi_def_cfa %rsp, 8
	retq
.LBB5_8:                                # %func_snocString.189
	.cfi_def_cfa %rbp, 16
	movq	%rbx, %rdi
	movq	%r14, %rsi
	callq	snocString.189
	popq	%rbx
	popq	%r14
	popq	%rbp
	.cfi_def_cfa %rsp, 8
	retq
.LBB5_9:                                # %func_snocString.210
	.cfi_def_cfa %rbp, 16
	movq	%rbx, %rdi
	movq	%r14, %rsi
	callq	snocString.210
	popq	%rbx
	popq	%r14
	popq	%rbp
	.cfi_def_cfa %rsp, 8
	retq
.LBB5_10:                               # %func_snocString.224
	.cfi_def_cfa %rbp, 16
	movq	%rbx, %rdi
	movq	%r14, %rsi
	callq	snocString.224
	popq	%rbx
	popq	%r14
	popq	%rbp
	.cfi_def_cfa %rsp, 8
	retq
.LBB5_11:                               # %func_snocString.247
	.cfi_def_cfa %rbp, 16
	movq	%rbx, %rdi
	movq	%r14, %rsi
	callq	snocString.247
	popq	%rbx
	popq	%r14
	popq	%rbp
	.cfi_def_cfa %rsp, 8
	retq
.LBB5_12:                               # %func_snocString.273
	.cfi_def_cfa %rbp, 16
	movq	%rbx, %rdi
	movq	%r14, %rsi
	callq	snocString.273
	popq	%rbx
	popq	%r14
	popq	%rbp
	.cfi_def_cfa %rsp, 8
	retq
.LBB5_13:                               # %func_snocString.275
	.cfi_def_cfa %rbp, 16
	movq	%rbx, %rdi
	movq	%r14, %rsi
	callq	snocString.275
	popq	%rbx
	popq	%r14
	popq	%rbp
	.cfi_def_cfa %rsp, 8
	retq
.LBB5_14:                               # %func_snocString.281
	.cfi_def_cfa %rbp, 16
	movq	%rbx, %rdi
	movq	%r14, %rsi
	callq	snocString.281
	popq	%rbx
	popq	%r14
	popq	%rbp
	.cfi_def_cfa %rsp, 8
	retq
.LBB5_15:                               # %func_snocString.283
	.cfi_def_cfa %rbp, 16
	movq	%rbx, %rdi
	movq	%r14, %rsi
	callq	snocString.283
	popq	%rbx
	popq	%r14
	popq	%rbp
	.cfi_def_cfa %rsp, 8
	retq
.LBB5_16:                               # %func_snocString.293
	.cfi_def_cfa %rbp, 16
	movq	%rbx, %rdi
	movq	%r14, %rsi
	callq	snocString.293
	popq	%rbx
	popq	%r14
	popq	%rbp
	.cfi_def_cfa %rsp, 8
	retq
.LBB5_17:                               # %ctrl0
	.cfi_def_cfa %rbp, 16
	cmpl	$1, %eax
	je	.LBB5_2
# %bb.18:                               # %ctrl1
	cmpl	$2, %eax
	je	.LBB5_3
# %bb.19:                               # %ctrl2
	cmpl	$3, %eax
	je	.LBB5_4
# %bb.20:                               # %ctrl3
	cmpl	$4, %eax
	je	.LBB5_5
# %bb.21:                               # %ctrl4
	cmpl	$5, %eax
	je	.LBB5_6
# %bb.22:                               # %ctrl5
	cmpl	$6, %eax
	je	.LBB5_7
# %bb.23:                               # %ctrl6
	cmpl	$7, %eax
	je	.LBB5_8
# %bb.24:                               # %ctrl7
	cmpl	$8, %eax
	je	.LBB5_9
# %bb.25:                               # %ctrl8
	cmpl	$9, %eax
	je	.LBB5_10
# %bb.26:                               # %ctrl9
	cmpl	$10, %eax
	je	.LBB5_11
# %bb.27:                               # %ctrl10
	cmpl	$11, %eax
	je	.LBB5_12
# %bb.28:                               # %ctrl11
	cmpl	$12, %eax
	je	.LBB5_13
# %bb.29:                               # %ctrl12
	cmpl	$13, %eax
	je	.LBB5_14
# %bb.30:                               # %ctrl13
	cmpl	$14, %eax
	je	.LBB5_15
	jmp	.LBB5_16
.Lfunc_end5:
	.size	snocString, .Lfunc_end5-snocString
	.cfi_endproc
                                        # -- End function
	.p2align	4, 0x90         # -- Begin function license
	.type	license,@function
license:                                # @license
	.cfi_startproc
# %bb.0:                                # %entry
	pushq	%rbp
	.cfi_def_cfa_offset 16
	.cfi_offset %rbp, -16
	movq	%rsp, %rbp
	.cfi_def_cfa_register %rbp
	pushq	%rbx
	pushq	%rax
	.cfi_offset %rbx, -24
	movq	stderr, %rbx
	callq	BZ2_bzlibVersion
	movq	%rbx, %rdi
	movabsq	$.L.str.49, %rsi
	movq	%rax, %rdx
	movb	$0, %al
	callq	fprintf
	addq	$8, %rsp
	popq	%rbx
	popq	%rbp
	.cfi_def_cfa %rsp, 8
	retq
.Lfunc_end6:
	.size	license, .Lfunc_end6-license
	.cfi_endproc
                                        # -- End function
	.p2align	4, 0x90         # -- Begin function usage
	.type	usage,@function
usage:                                  # @usage
	.cfi_startproc
# %bb.0:                                # %entry
	pushq	%rbp
	.cfi_def_cfa_offset 16
	.cfi_offset %rbp, -16
	movq	%rsp, %rbp
	.cfi_def_cfa_register %rbp
	pushq	%rbx
	pushq	%rax
	.cfi_offset %rbx, -24
	movq	%rdi, -16(%rbp)
	movq	stderr, %rbx
	callq	BZ2_bzlibVersion
	movq	-16(%rbp), %rcx
	movq	%rbx, %rdi
	movabsq	$.L.str.50, %rsi
	movq	%rax, %rdx
	movb	$0, %al
	callq	fprintf
	addq	$8, %rsp
	popq	%rbx
	popq	%rbp
	.cfi_def_cfa %rsp, 8
	retq
.Lfunc_end7:
	.size	usage, .Lfunc_end7-usage
	.cfi_endproc
                                        # -- End function
	.p2align	4, 0x90         # -- Begin function redundant
	.type	redundant,@function
redundant:                              # @redundant
	.cfi_startproc
# %bb.0:                                # %entry
	pushq	%rbp
	.cfi_def_cfa_offset 16
	.cfi_offset %rbp, -16
	movq	%rsp, %rbp
	.cfi_def_cfa_register %rbp
	subq	$16, %rsp
	movq	%rdi, -8(%rbp)
	movq	stderr, %rdi
	movq	progName, %rdx
	movq	-8(%rbp), %rcx
	movabsq	$.L.str.51, %rsi
	movb	$0, %al
	callq	fprintf
	addq	$16, %rsp
	popq	%rbp
	.cfi_def_cfa %rsp, 8
	retq
.Lfunc_end8:
	.size	redundant, .Lfunc_end8-redundant
	.cfi_endproc
                                        # -- End function
	.p2align	4, 0x90         # -- Begin function mySignalCatcher
	.type	mySignalCatcher,@function
mySignalCatcher:                        # @mySignalCatcher
	.cfi_startproc
# %bb.0:                                # %entry
	pushq	%rbp
	.cfi_def_cfa_offset 16
	.cfi_offset %rbp, -16
	movq	%rsp, %rbp
	.cfi_def_cfa_register %rbp
	subq	$16, %rsp
	movl	%edi, -4(%rbp)
	movq	stderr, %rdi
	movq	progName, %rdx
	movabsq	$.L.str.52, %rsi
	movb	$0, %al
	callq	fprintf
	movl	$1, %edi
	callq	cleanUpAndFail
.Lfunc_end9:
	.size	mySignalCatcher, .Lfunc_end9-mySignalCatcher
	.cfi_endproc
                                        # -- End function
	.p2align	4, 0x90         # -- Begin function compress
	.type	compress,@function
compress:                               # @compress
	.cfi_startproc
# %bb.0:                                # %rand_bb
	pushq	%rbp
	.cfi_def_cfa_offset 16
	.cfi_offset %rbp, -16
	movq	%rsp, %rbp
	.cfi_def_cfa_register %rbp
	pushq	%rbx
	pushq	%rax
	.cfi_offset %rbx, -24
	movq	%rdi, %rbx
	callq	get_urand
	cmpl	$0, %eax
	jne	.LBB10_17
# %bb.1:                                # %func_compress.3
	movq	%rbx, %rdi
	callq	compress.3
	addq	$8, %rsp
	popq	%rbx
	popq	%rbp
	.cfi_def_cfa %rsp, 8
	retq
.LBB10_2:                               # %func_compress.18
	.cfi_def_cfa %rbp, 16
	movq	%rbx, %rdi
	callq	compress.18
	addq	$8, %rsp
	popq	%rbx
	popq	%rbp
	.cfi_def_cfa %rsp, 8
	retq
.LBB10_3:                               # %func_compress.54
	.cfi_def_cfa %rbp, 16
	movq	%rbx, %rdi
	callq	compress.54
	addq	$8, %rsp
	popq	%rbx
	popq	%rbp
	.cfi_def_cfa %rsp, 8
	retq
.LBB10_4:                               # %func_compress.77
	.cfi_def_cfa %rbp, 16
	movq	%rbx, %rdi
	callq	compress.77
	addq	$8, %rsp
	popq	%rbx
	popq	%rbp
	.cfi_def_cfa %rsp, 8
	retq
.LBB10_5:                               # %func_compress.94
	.cfi_def_cfa %rbp, 16
	movq	%rbx, %rdi
	callq	compress.94
	addq	$8, %rsp
	popq	%rbx
	popq	%rbp
	.cfi_def_cfa %rsp, 8
	retq
.LBB10_6:                               # %func_compress.103
	.cfi_def_cfa %rbp, 16
	movq	%rbx, %rdi
	callq	compress.103
	addq	$8, %rsp
	popq	%rbx
	popq	%rbp
	.cfi_def_cfa %rsp, 8
	retq
.LBB10_7:                               # %func_compress.146
	.cfi_def_cfa %rbp, 16
	movq	%rbx, %rdi
	callq	compress.146
	addq	$8, %rsp
	popq	%rbx
	popq	%rbp
	.cfi_def_cfa %rsp, 8
	retq
.LBB10_8:                               # %func_compress.151
	.cfi_def_cfa %rbp, 16
	movq	%rbx, %rdi
	callq	compress.151
	addq	$8, %rsp
	popq	%rbx
	popq	%rbp
	.cfi_def_cfa %rsp, 8
	retq
.LBB10_9:                               # %func_compress.160
	.cfi_def_cfa %rbp, 16
	movq	%rbx, %rdi
	callq	compress.160
	addq	$8, %rsp
	popq	%rbx
	popq	%rbp
	.cfi_def_cfa %rsp, 8
	retq
.LBB10_10:                              # %func_compress.164
	.cfi_def_cfa %rbp, 16
	movq	%rbx, %rdi
	callq	compress.164
	addq	$8, %rsp
	popq	%rbx
	popq	%rbp
	.cfi_def_cfa %rsp, 8
	retq
.LBB10_11:                              # %func_compress.176
	.cfi_def_cfa %rbp, 16
	movq	%rbx, %rdi
	callq	compress.176
	addq	$8, %rsp
	popq	%rbx
	popq	%rbp
	.cfi_def_cfa %rsp, 8
	retq
.LBB10_12:                              # %func_compress.197
	.cfi_def_cfa %rbp, 16
	movq	%rbx, %rdi
	callq	compress.197
	addq	$8, %rsp
	popq	%rbx
	popq	%rbp
	.cfi_def_cfa %rsp, 8
	retq
.LBB10_13:                              # %func_compress.236
	.cfi_def_cfa %rbp, 16
	movq	%rbx, %rdi
	callq	compress.236
	addq	$8, %rsp
	popq	%rbx
	popq	%rbp
	.cfi_def_cfa %rsp, 8
	retq
.LBB10_14:                              # %func_compress.249
	.cfi_def_cfa %rbp, 16
	movq	%rbx, %rdi
	callq	compress.249
	addq	$8, %rsp
	popq	%rbx
	popq	%rbp
	.cfi_def_cfa %rsp, 8
	retq
.LBB10_15:                              # %func_compress.251
	.cfi_def_cfa %rbp, 16
	movq	%rbx, %rdi
	callq	compress.251
	addq	$8, %rsp
	popq	%rbx
	popq	%rbp
	.cfi_def_cfa %rsp, 8
	retq
.LBB10_16:                              # %func_compress.269
	.cfi_def_cfa %rbp, 16
	movq	%rbx, %rdi
	callq	compress.269
	addq	$8, %rsp
	popq	%rbx
	popq	%rbp
	.cfi_def_cfa %rsp, 8
	retq
.LBB10_17:                              # %ctrl0
	.cfi_def_cfa %rbp, 16
	cmpl	$1, %eax
	je	.LBB10_2
# %bb.18:                               # %ctrl1
	cmpl	$2, %eax
	je	.LBB10_3
# %bb.19:                               # %ctrl2
	cmpl	$3, %eax
	je	.LBB10_4
# %bb.20:                               # %ctrl3
	cmpl	$4, %eax
	je	.LBB10_5
# %bb.21:                               # %ctrl4
	cmpl	$5, %eax
	je	.LBB10_6
# %bb.22:                               # %ctrl5
	cmpl	$6, %eax
	je	.LBB10_7
# %bb.23:                               # %ctrl6
	cmpl	$7, %eax
	je	.LBB10_8
# %bb.24:                               # %ctrl7
	cmpl	$8, %eax
	je	.LBB10_9
# %bb.25:                               # %ctrl8
	cmpl	$9, %eax
	je	.LBB10_10
# %bb.26:                               # %ctrl9
	cmpl	$10, %eax
	je	.LBB10_11
# %bb.27:                               # %ctrl10
	cmpl	$11, %eax
	je	.LBB10_12
# %bb.28:                               # %ctrl11
	cmpl	$12, %eax
	je	.LBB10_13
# %bb.29:                               # %ctrl12
	cmpl	$13, %eax
	je	.LBB10_14
# %bb.30:                               # %ctrl13
	cmpl	$14, %eax
	je	.LBB10_15
	jmp	.LBB10_16
.Lfunc_end10:
	.size	compress, .Lfunc_end10-compress
	.cfi_endproc
                                        # -- End function
	.p2align	4, 0x90         # -- Begin function uncompress
	.type	uncompress,@function
uncompress:                             # @uncompress
	.cfi_startproc
# %bb.0:                                # %rand_bb
	pushq	%rbp
	.cfi_def_cfa_offset 16
	.cfi_offset %rbp, -16
	movq	%rsp, %rbp
	.cfi_def_cfa_register %rbp
	pushq	%rbx
	pushq	%rax
	.cfi_offset %rbx, -24
	movq	%rdi, %rbx
	callq	get_urand
	cmpl	$0, %eax
	jne	.LBB11_17
# %bb.1:                                # %func_uncompress.21
	movq	%rbx, %rdi
	callq	uncompress.21
	addq	$8, %rsp
	popq	%rbx
	popq	%rbp
	.cfi_def_cfa %rsp, 8
	retq
.LBB11_2:                               # %func_uncompress.108
	.cfi_def_cfa %rbp, 16
	movq	%rbx, %rdi
	callq	uncompress.108
	addq	$8, %rsp
	popq	%rbx
	popq	%rbp
	.cfi_def_cfa %rsp, 8
	retq
.LBB11_3:                               # %func_uncompress.112
	.cfi_def_cfa %rbp, 16
	movq	%rbx, %rdi
	callq	uncompress.112
	addq	$8, %rsp
	popq	%rbx
	popq	%rbp
	.cfi_def_cfa %rsp, 8
	retq
.LBB11_4:                               # %func_uncompress.125
	.cfi_def_cfa %rbp, 16
	movq	%rbx, %rdi
	callq	uncompress.125
	addq	$8, %rsp
	popq	%rbx
	popq	%rbp
	.cfi_def_cfa %rsp, 8
	retq
.LBB11_5:                               # %func_uncompress.126
	.cfi_def_cfa %rbp, 16
	movq	%rbx, %rdi
	callq	uncompress.126
	addq	$8, %rsp
	popq	%rbx
	popq	%rbp
	.cfi_def_cfa %rsp, 8
	retq
.LBB11_6:                               # %func_uncompress.171
	.cfi_def_cfa %rbp, 16
	movq	%rbx, %rdi
	callq	uncompress.171
	addq	$8, %rsp
	popq	%rbx
	popq	%rbp
	.cfi_def_cfa %rsp, 8
	retq
.LBB11_7:                               # %func_uncompress.193
	.cfi_def_cfa %rbp, 16
	movq	%rbx, %rdi
	callq	uncompress.193
	addq	$8, %rsp
	popq	%rbx
	popq	%rbp
	.cfi_def_cfa %rsp, 8
	retq
.LBB11_8:                               # %func_uncompress.221
	.cfi_def_cfa %rbp, 16
	movq	%rbx, %rdi
	callq	uncompress.221
	addq	$8, %rsp
	popq	%rbx
	popq	%rbp
	.cfi_def_cfa %rsp, 8
	retq
.LBB11_9:                               # %func_uncompress.229
	.cfi_def_cfa %rbp, 16
	movq	%rbx, %rdi
	callq	uncompress.229
	addq	$8, %rsp
	popq	%rbx
	popq	%rbp
	.cfi_def_cfa %rsp, 8
	retq
.LBB11_10:                              # %func_uncompress.242
	.cfi_def_cfa %rbp, 16
	movq	%rbx, %rdi
	callq	uncompress.242
	addq	$8, %rsp
	popq	%rbx
	popq	%rbp
	.cfi_def_cfa %rsp, 8
	retq
.LBB11_11:                              # %func_uncompress.245
	.cfi_def_cfa %rbp, 16
	movq	%rbx, %rdi
	callq	uncompress.245
	addq	$8, %rsp
	popq	%rbx
	popq	%rbp
	.cfi_def_cfa %rsp, 8
	retq
.LBB11_12:                              # %func_uncompress.255
	.cfi_def_cfa %rbp, 16
	movq	%rbx, %rdi
	callq	uncompress.255
	addq	$8, %rsp
	popq	%rbx
	popq	%rbp
	.cfi_def_cfa %rsp, 8
	retq
.LBB11_13:                              # %func_uncompress.261
	.cfi_def_cfa %rbp, 16
	movq	%rbx, %rdi
	callq	uncompress.261
	addq	$8, %rsp
	popq	%rbx
	popq	%rbp
	.cfi_def_cfa %rsp, 8
	retq
.LBB11_14:                              # %func_uncompress.271
	.cfi_def_cfa %rbp, 16
	movq	%rbx, %rdi
	callq	uncompress.271
	addq	$8, %rsp
	popq	%rbx
	popq	%rbp
	.cfi_def_cfa %rsp, 8
	retq
.LBB11_15:                              # %func_uncompress.276
	.cfi_def_cfa %rbp, 16
	movq	%rbx, %rdi
	callq	uncompress.276
	addq	$8, %rsp
	popq	%rbx
	popq	%rbp
	.cfi_def_cfa %rsp, 8
	retq
.LBB11_16:                              # %func_uncompress.278
	.cfi_def_cfa %rbp, 16
	movq	%rbx, %rdi
	callq	uncompress.278
	addq	$8, %rsp
	popq	%rbx
	popq	%rbp
	.cfi_def_cfa %rsp, 8
	retq
.LBB11_17:                              # %ctrl0
	.cfi_def_cfa %rbp, 16
	cmpl	$1, %eax
	je	.LBB11_2
# %bb.18:                               # %ctrl1
	cmpl	$2, %eax
	je	.LBB11_3
# %bb.19:                               # %ctrl2
	cmpl	$3, %eax
	je	.LBB11_4
# %bb.20:                               # %ctrl3
	cmpl	$4, %eax
	je	.LBB11_5
# %bb.21:                               # %ctrl4
	cmpl	$5, %eax
	je	.LBB11_6
# %bb.22:                               # %ctrl5
	cmpl	$6, %eax
	je	.LBB11_7
# %bb.23:                               # %ctrl6
	cmpl	$7, %eax
	je	.LBB11_8
# %bb.24:                               # %ctrl7
	cmpl	$8, %eax
	je	.LBB11_9
# %bb.25:                               # %ctrl8
	cmpl	$9, %eax
	je	.LBB11_10
# %bb.26:                               # %ctrl9
	cmpl	$10, %eax
	je	.LBB11_11
# %bb.27:                               # %ctrl10
	cmpl	$11, %eax
	je	.LBB11_12
# %bb.28:                               # %ctrl11
	cmpl	$12, %eax
	je	.LBB11_13
# %bb.29:                               # %ctrl12
	cmpl	$13, %eax
	je	.LBB11_14
# %bb.30:                               # %ctrl13
	cmpl	$14, %eax
	je	.LBB11_15
	jmp	.LBB11_16
.Lfunc_end11:
	.size	uncompress, .Lfunc_end11-uncompress
	.cfi_endproc
                                        # -- End function
	.p2align	4, 0x90         # -- Begin function setExit
	.type	setExit,@function
setExit:                                # @setExit
	.cfi_startproc
# %bb.0:                                # %entry
	pushq	%rbp
	.cfi_def_cfa_offset 16
	.cfi_offset %rbp, -16
	movq	%rsp, %rbp
	.cfi_def_cfa_register %rbp
	movl	%edi, -4(%rbp)
	movl	-4(%rbp), %eax
	cmpl	exitValue, %eax
	jle	.LBB12_2
# %bb.1:                                # %if.then
	movl	-4(%rbp), %eax
	movl	%eax, exitValue
.LBB12_2:                               # %if.end
	popq	%rbp
	.cfi_def_cfa %rsp, 8
	retq
.Lfunc_end12:
	.size	setExit, .Lfunc_end12-setExit
	.cfi_endproc
                                        # -- End function
	.p2align	4, 0x90         # -- Begin function testf
	.type	testf,@function
testf:                                  # @testf
	.cfi_startproc
# %bb.0:                                # %rand_bb
	pushq	%rbp
	.cfi_def_cfa_offset 16
	.cfi_offset %rbp, -16
	movq	%rsp, %rbp
	.cfi_def_cfa_register %rbp
	pushq	%rbx
	pushq	%rax
	.cfi_offset %rbx, -24
	movq	%rdi, %rbx
	callq	get_urand
	cmpl	$0, %eax
	jne	.LBB13_17
# %bb.1:                                # %func_testf.32
	movq	%rbx, %rdi
	callq	testf.32
	addq	$8, %rsp
	popq	%rbx
	popq	%rbp
	.cfi_def_cfa %rsp, 8
	retq
.LBB13_2:                               # %func_testf.48
	.cfi_def_cfa %rbp, 16
	movq	%rbx, %rdi
	callq	testf.48
	addq	$8, %rsp
	popq	%rbx
	popq	%rbp
	.cfi_def_cfa %rsp, 8
	retq
.LBB13_3:                               # %func_testf.49
	.cfi_def_cfa %rbp, 16
	movq	%rbx, %rdi
	callq	testf.49
	addq	$8, %rsp
	popq	%rbx
	popq	%rbp
	.cfi_def_cfa %rsp, 8
	retq
.LBB13_4:                               # %func_testf.84
	.cfi_def_cfa %rbp, 16
	movq	%rbx, %rdi
	callq	testf.84
	addq	$8, %rsp
	popq	%rbx
	popq	%rbp
	.cfi_def_cfa %rsp, 8
	retq
.LBB13_5:                               # %func_testf.119
	.cfi_def_cfa %rbp, 16
	movq	%rbx, %rdi
	callq	testf.119
	addq	$8, %rsp
	popq	%rbx
	popq	%rbp
	.cfi_def_cfa %rsp, 8
	retq
.LBB13_6:                               # %func_testf.128
	.cfi_def_cfa %rbp, 16
	movq	%rbx, %rdi
	callq	testf.128
	addq	$8, %rsp
	popq	%rbx
	popq	%rbp
	.cfi_def_cfa %rsp, 8
	retq
.LBB13_7:                               # %func_testf.132
	.cfi_def_cfa %rbp, 16
	movq	%rbx, %rdi
	callq	testf.132
	addq	$8, %rsp
	popq	%rbx
	popq	%rbp
	.cfi_def_cfa %rsp, 8
	retq
.LBB13_8:                               # %func_testf.138
	.cfi_def_cfa %rbp, 16
	movq	%rbx, %rdi
	callq	testf.138
	addq	$8, %rsp
	popq	%rbx
	popq	%rbp
	.cfi_def_cfa %rsp, 8
	retq
.LBB13_9:                               # %func_testf.147
	.cfi_def_cfa %rbp, 16
	movq	%rbx, %rdi
	callq	testf.147
	addq	$8, %rsp
	popq	%rbx
	popq	%rbp
	.cfi_def_cfa %rsp, 8
	retq
.LBB13_10:                              # %func_testf.170
	.cfi_def_cfa %rbp, 16
	movq	%rbx, %rdi
	callq	testf.170
	addq	$8, %rsp
	popq	%rbx
	popq	%rbp
	.cfi_def_cfa %rsp, 8
	retq
.LBB13_11:                              # %func_testf.178
	.cfi_def_cfa %rbp, 16
	movq	%rbx, %rdi
	callq	testf.178
	addq	$8, %rsp
	popq	%rbx
	popq	%rbp
	.cfi_def_cfa %rsp, 8
	retq
.LBB13_12:                              # %func_testf.206
	.cfi_def_cfa %rbp, 16
	movq	%rbx, %rdi
	callq	testf.206
	addq	$8, %rsp
	popq	%rbx
	popq	%rbp
	.cfi_def_cfa %rsp, 8
	retq
.LBB13_13:                              # %func_testf.211
	.cfi_def_cfa %rbp, 16
	movq	%rbx, %rdi
	callq	testf.211
	addq	$8, %rsp
	popq	%rbx
	popq	%rbp
	.cfi_def_cfa %rsp, 8
	retq
.LBB13_14:                              # %func_testf.222
	.cfi_def_cfa %rbp, 16
	movq	%rbx, %rdi
	callq	testf.222
	addq	$8, %rsp
	popq	%rbx
	popq	%rbp
	.cfi_def_cfa %rsp, 8
	retq
.LBB13_15:                              # %func_testf.241
	.cfi_def_cfa %rbp, 16
	movq	%rbx, %rdi
	callq	testf.241
	addq	$8, %rsp
	popq	%rbx
	popq	%rbp
	.cfi_def_cfa %rsp, 8
	retq
.LBB13_16:                              # %func_testf.243
	.cfi_def_cfa %rbp, 16
	movq	%rbx, %rdi
	callq	testf.243
	addq	$8, %rsp
	popq	%rbx
	popq	%rbp
	.cfi_def_cfa %rsp, 8
	retq
.LBB13_17:                              # %ctrl0
	.cfi_def_cfa %rbp, 16
	cmpl	$1, %eax
	je	.LBB13_2
# %bb.18:                               # %ctrl1
	cmpl	$2, %eax
	je	.LBB13_3
# %bb.19:                               # %ctrl2
	cmpl	$3, %eax
	je	.LBB13_4
# %bb.20:                               # %ctrl3
	cmpl	$4, %eax
	je	.LBB13_5
# %bb.21:                               # %ctrl4
	cmpl	$5, %eax
	je	.LBB13_6
# %bb.22:                               # %ctrl5
	cmpl	$6, %eax
	je	.LBB13_7
# %bb.23:                               # %ctrl6
	cmpl	$7, %eax
	je	.LBB13_8
# %bb.24:                               # %ctrl7
	cmpl	$8, %eax
	je	.LBB13_9
# %bb.25:                               # %ctrl8
	cmpl	$9, %eax
	je	.LBB13_10
# %bb.26:                               # %ctrl9
	cmpl	$10, %eax
	je	.LBB13_11
# %bb.27:                               # %ctrl10
	cmpl	$11, %eax
	je	.LBB13_12
# %bb.28:                               # %ctrl11
	cmpl	$12, %eax
	je	.LBB13_13
# %bb.29:                               # %ctrl12
	cmpl	$13, %eax
	je	.LBB13_14
# %bb.30:                               # %ctrl13
	cmpl	$14, %eax
	je	.LBB13_15
	jmp	.LBB13_16
.Lfunc_end13:
	.size	testf, .Lfunc_end13-testf
	.cfi_endproc
                                        # -- End function
	.p2align	4, 0x90         # -- Begin function showFileNames
	.type	showFileNames,@function
showFileNames:                          # @showFileNames
	.cfi_startproc
# %bb.0:                                # %entry
	pushq	%rbp
	.cfi_def_cfa_offset 16
	.cfi_offset %rbp, -16
	movq	%rsp, %rbp
	.cfi_def_cfa_register %rbp
	cmpb	$0, noisy
	je	.LBB14_2
# %bb.1:                                # %if.then
	movq	stderr, %rdi
	movabsq	$.L.str.38, %rsi
	movabsq	$inName, %rdx
	movabsq	$outName, %rcx
	movb	$0, %al
	callq	fprintf
.LBB14_2:                               # %if.end
	popq	%rbp
	.cfi_def_cfa %rsp, 8
	retq
.Lfunc_end14:
	.size	showFileNames, .Lfunc_end14-showFileNames
	.cfi_endproc
                                        # -- End function
	.p2align	4, 0x90         # -- Begin function cleanUpAndFail
	.type	cleanUpAndFail,@function
cleanUpAndFail:                         # @cleanUpAndFail
	.cfi_startproc
# %bb.0:                                # %rand_bb
	pushq	%rbp
	.cfi_def_cfa_offset 16
	.cfi_offset %rbp, -16
	movq	%rsp, %rbp
	.cfi_def_cfa_register %rbp
	pushq	%rbx
	pushq	%rax
	.cfi_offset %rbx, -24
	movl	%edi, %ebx
	callq	get_urand
	cmpl	$0, %eax
	jne	.LBB15_7
# %bb.1:                                # %func_cleanUpAndFail.15
	movl	%ebx, %edi
	callq	cleanUpAndFail.15
	addq	$8, %rsp
	popq	%rbx
	popq	%rbp
	.cfi_def_cfa %rsp, 8
	retq
.LBB15_2:                               # %func_cleanUpAndFail.25
	.cfi_def_cfa %rbp, 16
	movl	%ebx, %edi
	callq	cleanUpAndFail.25
	addq	$8, %rsp
	popq	%rbx
	popq	%rbp
	.cfi_def_cfa %rsp, 8
	retq
.LBB15_3:                               # %func_cleanUpAndFail.35
	.cfi_def_cfa %rbp, 16
	movl	%ebx, %edi
	callq	cleanUpAndFail.35
	addq	$8, %rsp
	popq	%rbx
	popq	%rbp
	.cfi_def_cfa %rsp, 8
	retq
.LBB15_4:                               # %func_cleanUpAndFail.52
	.cfi_def_cfa %rbp, 16
	movl	%ebx, %edi
	callq	cleanUpAndFail.52
	addq	$8, %rsp
	popq	%rbx
	popq	%rbp
	.cfi_def_cfa %rsp, 8
	retq
.LBB15_5:                               # %func_cleanUpAndFail.83
	.cfi_def_cfa %rbp, 16
	movl	%ebx, %edi
	callq	cleanUpAndFail.83
	addq	$8, %rsp
	popq	%rbx
	popq	%rbp
	.cfi_def_cfa %rsp, 8
	retq
.LBB15_6:                               # %func_cleanUpAndFail.98
	.cfi_def_cfa %rbp, 16
	movl	%ebx, %edi
	callq	cleanUpAndFail.98
	addq	$8, %rsp
	popq	%rbx
	popq	%rbp
	.cfi_def_cfa %rsp, 8
	retq
.LBB15_7:                               # %ctrl0
	.cfi_def_cfa %rbp, 16
	cmpl	$1, %eax
	je	.LBB15_2
# %bb.8:                                # %ctrl1
	cmpl	$2, %eax
	je	.LBB15_3
# %bb.9:                                # %ctrl2
	cmpl	$3, %eax
	je	.LBB15_4
# %bb.10:                               # %ctrl3
	cmpl	$4, %eax
	je	.LBB15_5
	jmp	.LBB15_6
.Lfunc_end15:
	.size	cleanUpAndFail, .Lfunc_end15-cleanUpAndFail
	.cfi_endproc
                                        # -- End function
	.p2align	4, 0x90         # -- Begin function cadvise
	.type	cadvise,@function
cadvise:                                # @cadvise
	.cfi_startproc
# %bb.0:                                # %entry
	pushq	%rbp
	.cfi_def_cfa_offset 16
	.cfi_offset %rbp, -16
	movq	%rsp, %rbp
	.cfi_def_cfa_register %rbp
	cmpb	$0, noisy
	je	.LBB16_2
# %bb.1:                                # %if.then
	movq	stderr, %rdi
	movabsq	$.L.str.46, %rsi
	movb	$0, %al
	callq	fprintf
.LBB16_2:                               # %if.end
	popq	%rbp
	.cfi_def_cfa %rsp, 8
	retq
.Lfunc_end16:
	.size	cadvise, .Lfunc_end16-cadvise
	.cfi_endproc
                                        # -- End function
	.p2align	4, 0x90         # -- Begin function mkCell
	.type	mkCell,@function
mkCell:                                 # @mkCell
	.cfi_startproc
# %bb.0:                                # %entry
	pushq	%rbp
	.cfi_def_cfa_offset 16
	.cfi_offset %rbp, -16
	movq	%rsp, %rbp
	.cfi_def_cfa_register %rbp
	subq	$16, %rsp
	movl	$16, %edi
	callq	myMalloc
	movq	%rax, -8(%rbp)
	movq	-8(%rbp), %rax
	movq	$0, (%rax)
	movq	-8(%rbp), %rax
	movq	$0, 8(%rax)
	movq	-8(%rbp), %rax
	addq	$16, %rsp
	popq	%rbp
	.cfi_def_cfa %rsp, 8
	retq
.Lfunc_end17:
	.size	mkCell, .Lfunc_end17-mkCell
	.cfi_endproc
                                        # -- End function
	.p2align	4, 0x90         # -- Begin function myMalloc
	.type	myMalloc,@function
myMalloc:                               # @myMalloc
	.cfi_startproc
# %bb.0:                                # %rand_bb
	pushq	%rbp
	.cfi_def_cfa_offset 16
	.cfi_offset %rbp, -16
	movq	%rsp, %rbp
	.cfi_def_cfa_register %rbp
	pushq	%rbx
	pushq	%rax
	.cfi_offset %rbx, -24
	movl	%edi, %ebx
	callq	get_urand
	cmpl	$0, %eax
	jne	.LBB18_2
# %bb.1:                                # %func_myMalloc.57
	movl	%ebx, %edi
	callq	myMalloc.57
	addq	$8, %rsp
	popq	%rbx
	popq	%rbp
	.cfi_def_cfa %rsp, 8
	retq
.LBB18_2:                               # %func_myMalloc.65
	.cfi_def_cfa %rbp, 16
	movl	%ebx, %edi
	callq	myMalloc.65
	addq	$8, %rsp
	popq	%rbx
	popq	%rbp
	.cfi_def_cfa %rsp, 8
	retq
.Lfunc_end18:
	.size	myMalloc, .Lfunc_end18-myMalloc
	.cfi_endproc
                                        # -- End function
	.p2align	4, 0x90         # -- Begin function outOfMemory
	.type	outOfMemory,@function
outOfMemory:                            # @outOfMemory
	.cfi_startproc
# %bb.0:                                # %entry
	pushq	%rbp
	.cfi_def_cfa_offset 16
	.cfi_offset %rbp, -16
	movq	%rsp, %rbp
	.cfi_def_cfa_register %rbp
	movq	stderr, %rdi
	movq	progName, %rdx
	movabsq	$.L.str.48, %rsi
	movb	$0, %al
	callq	fprintf
	callq	showFileNames
	movl	$1, %edi
	callq	cleanUpAndFail
.Lfunc_end19:
	.size	outOfMemory, .Lfunc_end19-outOfMemory
	.cfi_endproc
                                        # -- End function
	.p2align	4, 0x90         # -- Begin function panic
	.type	panic,@function
panic:                                  # @panic
	.cfi_startproc
# %bb.0:                                # %entry
	pushq	%rbp
	.cfi_def_cfa_offset 16
	.cfi_offset %rbp, -16
	movq	%rsp, %rbp
	.cfi_def_cfa_register %rbp
	subq	$16, %rsp
	movq	%rdi, -8(%rbp)
	movq	stderr, %rdi
	movq	progName, %rdx
	movq	-8(%rbp), %rcx
	movabsq	$.L.str.71, %rsi
	movb	$0, %al
	callq	fprintf
	callq	showFileNames
	movl	$3, %edi
	callq	cleanUpAndFail
.Lfunc_end20:
	.size	panic, .Lfunc_end20-panic
	.cfi_endproc
                                        # -- End function
	.p2align	4, 0x90         # -- Begin function containsDubiousChars
	.type	containsDubiousChars,@function
containsDubiousChars:                   # @containsDubiousChars
	.cfi_startproc
# %bb.0:                                # %entry
	pushq	%rbp
	.cfi_def_cfa_offset 16
	.cfi_offset %rbp, -16
	movq	%rsp, %rbp
	.cfi_def_cfa_register %rbp
	xorl	%eax, %eax
	movq	%rdi, -8(%rbp)
	movzbl	%al, %eax
	popq	%rbp
	.cfi_def_cfa %rsp, 8
	retq
.Lfunc_end21:
	.size	containsDubiousChars, .Lfunc_end21-containsDubiousChars
	.cfi_endproc
                                        # -- End function
	.p2align	4, 0x90         # -- Begin function fileExists
	.type	fileExists,@function
fileExists:                             # @fileExists
	.cfi_startproc
# %bb.0:                                # %rand_bb
	pushq	%rbp
	.cfi_def_cfa_offset 16
	.cfi_offset %rbp, -16
	movq	%rsp, %rbp
	.cfi_def_cfa_register %rbp
	pushq	%rbx
	pushq	%rax
	.cfi_offset %rbx, -24
	movq	%rdi, %rbx
	callq	get_urand
	cmpl	$0, %eax
	jne	.LBB22_7
# %bb.1:                                # %func_fileExists.20
	movq	%rbx, %rdi
	callq	fileExists.20
	movzbl	%al, %eax
	addq	$8, %rsp
	popq	%rbx
	popq	%rbp
	.cfi_def_cfa %rsp, 8
	retq
.LBB22_2:                               # %func_fileExists.33
	.cfi_def_cfa %rbp, 16
	movq	%rbx, %rdi
	callq	fileExists.33
	movzbl	%al, %eax
	addq	$8, %rsp
	popq	%rbx
	popq	%rbp
	.cfi_def_cfa %rsp, 8
	retq
.LBB22_3:                               # %func_fileExists.47
	.cfi_def_cfa %rbp, 16
	movq	%rbx, %rdi
	callq	fileExists.47
	movzbl	%al, %eax
	addq	$8, %rsp
	popq	%rbx
	popq	%rbp
	.cfi_def_cfa %rsp, 8
	retq
.LBB22_4:                               # %func_fileExists.50
	.cfi_def_cfa %rbp, 16
	movq	%rbx, %rdi
	callq	fileExists.50
	movzbl	%al, %eax
	addq	$8, %rsp
	popq	%rbx
	popq	%rbp
	.cfi_def_cfa %rsp, 8
	retq
.LBB22_5:                               # %func_fileExists.61
	.cfi_def_cfa %rbp, 16
	movq	%rbx, %rdi
	callq	fileExists.61
	movzbl	%al, %eax
	addq	$8, %rsp
	popq	%rbx
	popq	%rbp
	.cfi_def_cfa %rsp, 8
	retq
.LBB22_6:                               # %func_fileExists.70
	.cfi_def_cfa %rbp, 16
	movq	%rbx, %rdi
	callq	fileExists.70
	movzbl	%al, %eax
	addq	$8, %rsp
	popq	%rbx
	popq	%rbp
	.cfi_def_cfa %rsp, 8
	retq
.LBB22_7:                               # %ctrl0
	.cfi_def_cfa %rbp, 16
	cmpl	$1, %eax
	je	.LBB22_2
# %bb.8:                                # %ctrl1
	cmpl	$2, %eax
	je	.LBB22_3
# %bb.9:                                # %ctrl2
	cmpl	$3, %eax
	je	.LBB22_4
# %bb.10:                               # %ctrl3
	cmpl	$4, %eax
	je	.LBB22_5
	jmp	.LBB22_6
.Lfunc_end22:
	.size	fileExists, .Lfunc_end22-fileExists
	.cfi_endproc
                                        # -- End function
	.p2align	4, 0x90         # -- Begin function hasSuffix
	.type	hasSuffix,@function
hasSuffix:                              # @hasSuffix
	.cfi_startproc
# %bb.0:                                # %rand_bb
	pushq	%rbp
	.cfi_def_cfa_offset 16
	.cfi_offset %rbp, -16
	movq	%rsp, %rbp
	.cfi_def_cfa_register %rbp
	pushq	%r14
	pushq	%rbx
	.cfi_offset %rbx, -32
	.cfi_offset %r14, -24
	movq	%rsi, %r14
	movq	%rdi, %rbx
	callq	get_urand
	cmpl	$0, %eax
	jne	.LBB23_17
# %bb.1:                                # %func_hasSuffix.7
	movq	%rbx, %rdi
	movq	%r14, %rsi
	callq	hasSuffix.7
	movzbl	%al, %eax
	popq	%rbx
	popq	%r14
	popq	%rbp
	.cfi_def_cfa %rsp, 8
	retq
.LBB23_2:                               # %func_hasSuffix.58
	.cfi_def_cfa %rbp, 16
	movq	%rbx, %rdi
	movq	%r14, %rsi
	callq	hasSuffix.58
	movzbl	%al, %eax
	popq	%rbx
	popq	%r14
	popq	%rbp
	.cfi_def_cfa %rsp, 8
	retq
.LBB23_3:                               # %func_hasSuffix.67
	.cfi_def_cfa %rbp, 16
	movq	%rbx, %rdi
	movq	%r14, %rsi
	callq	hasSuffix.67
	movzbl	%al, %eax
	popq	%rbx
	popq	%r14
	popq	%rbp
	.cfi_def_cfa %rsp, 8
	retq
.LBB23_4:                               # %func_hasSuffix.73
	.cfi_def_cfa %rbp, 16
	movq	%rbx, %rdi
	movq	%r14, %rsi
	callq	hasSuffix.73
	movzbl	%al, %eax
	popq	%rbx
	popq	%r14
	popq	%rbp
	.cfi_def_cfa %rsp, 8
	retq
.LBB23_5:                               # %func_hasSuffix.124
	.cfi_def_cfa %rbp, 16
	movq	%rbx, %rdi
	movq	%r14, %rsi
	callq	hasSuffix.124
	movzbl	%al, %eax
	popq	%rbx
	popq	%r14
	popq	%rbp
	.cfi_def_cfa %rsp, 8
	retq
.LBB23_6:                               # %func_hasSuffix.129
	.cfi_def_cfa %rbp, 16
	movq	%rbx, %rdi
	movq	%r14, %rsi
	callq	hasSuffix.129
	movzbl	%al, %eax
	popq	%rbx
	popq	%r14
	popq	%rbp
	.cfi_def_cfa %rsp, 8
	retq
.LBB23_7:                               # %func_hasSuffix.154
	.cfi_def_cfa %rbp, 16
	movq	%rbx, %rdi
	movq	%r14, %rsi
	callq	hasSuffix.154
	movzbl	%al, %eax
	popq	%rbx
	popq	%r14
	popq	%rbp
	.cfi_def_cfa %rsp, 8
	retq
.LBB23_8:                               # %func_hasSuffix.157
	.cfi_def_cfa %rbp, 16
	movq	%rbx, %rdi
	movq	%r14, %rsi
	callq	hasSuffix.157
	movzbl	%al, %eax
	popq	%rbx
	popq	%r14
	popq	%rbp
	.cfi_def_cfa %rsp, 8
	retq
.LBB23_9:                               # %func_hasSuffix.169
	.cfi_def_cfa %rbp, 16
	movq	%rbx, %rdi
	movq	%r14, %rsi
	callq	hasSuffix.169
	movzbl	%al, %eax
	popq	%rbx
	popq	%r14
	popq	%rbp
	.cfi_def_cfa %rsp, 8
	retq
.LBB23_10:                              # %func_hasSuffix.184
	.cfi_def_cfa %rbp, 16
	movq	%rbx, %rdi
	movq	%r14, %rsi
	callq	hasSuffix.184
	movzbl	%al, %eax
	popq	%rbx
	popq	%r14
	popq	%rbp
	.cfi_def_cfa %rsp, 8
	retq
.LBB23_11:                              # %func_hasSuffix.219
	.cfi_def_cfa %rbp, 16
	movq	%rbx, %rdi
	movq	%r14, %rsi
	callq	hasSuffix.219
	movzbl	%al, %eax
	popq	%rbx
	popq	%r14
	popq	%rbp
	.cfi_def_cfa %rsp, 8
	retq
.LBB23_12:                              # %func_hasSuffix.246
	.cfi_def_cfa %rbp, 16
	movq	%rbx, %rdi
	movq	%r14, %rsi
	callq	hasSuffix.246
	movzbl	%al, %eax
	popq	%rbx
	popq	%r14
	popq	%rbp
	.cfi_def_cfa %rsp, 8
	retq
.LBB23_13:                              # %func_hasSuffix.256
	.cfi_def_cfa %rbp, 16
	movq	%rbx, %rdi
	movq	%r14, %rsi
	callq	hasSuffix.256
	movzbl	%al, %eax
	popq	%rbx
	popq	%r14
	popq	%rbp
	.cfi_def_cfa %rsp, 8
	retq
.LBB23_14:                              # %func_hasSuffix.258
	.cfi_def_cfa %rbp, 16
	movq	%rbx, %rdi
	movq	%r14, %rsi
	callq	hasSuffix.258
	movzbl	%al, %eax
	popq	%rbx
	popq	%r14
	popq	%rbp
	.cfi_def_cfa %rsp, 8
	retq
.LBB23_15:                              # %func_hasSuffix.259
	.cfi_def_cfa %rbp, 16
	movq	%rbx, %rdi
	movq	%r14, %rsi
	callq	hasSuffix.259
	movzbl	%al, %eax
	popq	%rbx
	popq	%r14
	popq	%rbp
	.cfi_def_cfa %rsp, 8
	retq
.LBB23_16:                              # %func_hasSuffix.272
	.cfi_def_cfa %rbp, 16
	movq	%rbx, %rdi
	movq	%r14, %rsi
	callq	hasSuffix.272
	movzbl	%al, %eax
	popq	%rbx
	popq	%r14
	popq	%rbp
	.cfi_def_cfa %rsp, 8
	retq
.LBB23_17:                              # %ctrl0
	.cfi_def_cfa %rbp, 16
	cmpl	$1, %eax
	je	.LBB23_2
# %bb.18:                               # %ctrl1
	cmpl	$2, %eax
	je	.LBB23_3
# %bb.19:                               # %ctrl2
	cmpl	$3, %eax
	je	.LBB23_4
# %bb.20:                               # %ctrl3
	cmpl	$4, %eax
	je	.LBB23_5
# %bb.21:                               # %ctrl4
	cmpl	$5, %eax
	je	.LBB23_6
# %bb.22:                               # %ctrl5
	cmpl	$6, %eax
	je	.LBB23_7
# %bb.23:                               # %ctrl6
	cmpl	$7, %eax
	je	.LBB23_8
# %bb.24:                               # %ctrl7
	cmpl	$8, %eax
	je	.LBB23_9
# %bb.25:                               # %ctrl8
	cmpl	$9, %eax
	je	.LBB23_10
# %bb.26:                               # %ctrl9
	cmpl	$10, %eax
	je	.LBB23_11
# %bb.27:                               # %ctrl10
	cmpl	$11, %eax
	je	.LBB23_12
# %bb.28:                               # %ctrl11
	cmpl	$12, %eax
	je	.LBB23_13
# %bb.29:                               # %ctrl12
	cmpl	$13, %eax
	je	.LBB23_14
# %bb.30:                               # %ctrl13
	cmpl	$14, %eax
	je	.LBB23_15
	jmp	.LBB23_16
.Lfunc_end23:
	.size	hasSuffix, .Lfunc_end23-hasSuffix
	.cfi_endproc
                                        # -- End function
	.p2align	4, 0x90         # -- Begin function notAStandardFile
	.type	notAStandardFile,@function
notAStandardFile:                       # @notAStandardFile
	.cfi_startproc
# %bb.0:                                # %rand_bb
	pushq	%rbp
	.cfi_def_cfa_offset 16
	.cfi_offset %rbp, -16
	movq	%rsp, %rbp
	.cfi_def_cfa_register %rbp
	pushq	%rbx
	pushq	%rax
	.cfi_offset %rbx, -24
	movq	%rdi, %rbx
	callq	get_urand
	cmpl	$0, %eax
	jne	.LBB24_17
# %bb.1:                                # %func_notAStandardFile.26
	movq	%rbx, %rdi
	callq	notAStandardFile.26
	movzbl	%al, %eax
	addq	$8, %rsp
	popq	%rbx
	popq	%rbp
	.cfi_def_cfa %rsp, 8
	retq
.LBB24_2:                               # %func_notAStandardFile.38
	.cfi_def_cfa %rbp, 16
	movq	%rbx, %rdi
	callq	notAStandardFile.38
	movzbl	%al, %eax
	addq	$8, %rsp
	popq	%rbx
	popq	%rbp
	.cfi_def_cfa %rsp, 8
	retq
.LBB24_3:                               # %func_notAStandardFile.39
	.cfi_def_cfa %rbp, 16
	movq	%rbx, %rdi
	callq	notAStandardFile.39
	movzbl	%al, %eax
	addq	$8, %rsp
	popq	%rbx
	popq	%rbp
	.cfi_def_cfa %rsp, 8
	retq
.LBB24_4:                               # %func_notAStandardFile.68
	.cfi_def_cfa %rbp, 16
	movq	%rbx, %rdi
	callq	notAStandardFile.68
	movzbl	%al, %eax
	addq	$8, %rsp
	popq	%rbx
	popq	%rbp
	.cfi_def_cfa %rsp, 8
	retq
.LBB24_5:                               # %func_notAStandardFile.93
	.cfi_def_cfa %rbp, 16
	movq	%rbx, %rdi
	callq	notAStandardFile.93
	movzbl	%al, %eax
	addq	$8, %rsp
	popq	%rbx
	popq	%rbp
	.cfi_def_cfa %rsp, 8
	retq
.LBB24_6:                               # %func_notAStandardFile.99
	.cfi_def_cfa %rbp, 16
	movq	%rbx, %rdi
	callq	notAStandardFile.99
	movzbl	%al, %eax
	addq	$8, %rsp
	popq	%rbx
	popq	%rbp
	.cfi_def_cfa %rsp, 8
	retq
.LBB24_7:                               # %func_notAStandardFile.127
	.cfi_def_cfa %rbp, 16
	movq	%rbx, %rdi
	callq	notAStandardFile.127
	movzbl	%al, %eax
	addq	$8, %rsp
	popq	%rbx
	popq	%rbp
	.cfi_def_cfa %rsp, 8
	retq
.LBB24_8:                               # %func_notAStandardFile.135
	.cfi_def_cfa %rbp, 16
	movq	%rbx, %rdi
	callq	notAStandardFile.135
	movzbl	%al, %eax
	addq	$8, %rsp
	popq	%rbx
	popq	%rbp
	.cfi_def_cfa %rsp, 8
	retq
.LBB24_9:                               # %func_notAStandardFile.150
	.cfi_def_cfa %rbp, 16
	movq	%rbx, %rdi
	callq	notAStandardFile.150
	movzbl	%al, %eax
	addq	$8, %rsp
	popq	%rbx
	popq	%rbp
	.cfi_def_cfa %rsp, 8
	retq
.LBB24_10:                              # %func_notAStandardFile.173
	.cfi_def_cfa %rbp, 16
	movq	%rbx, %rdi
	callq	notAStandardFile.173
	movzbl	%al, %eax
	addq	$8, %rsp
	popq	%rbx
	popq	%rbp
	.cfi_def_cfa %rsp, 8
	retq
.LBB24_11:                              # %func_notAStandardFile.175
	.cfi_def_cfa %rbp, 16
	movq	%rbx, %rdi
	callq	notAStandardFile.175
	movzbl	%al, %eax
	addq	$8, %rsp
	popq	%rbx
	popq	%rbp
	.cfi_def_cfa %rsp, 8
	retq
.LBB24_12:                              # %func_notAStandardFile.185
	.cfi_def_cfa %rbp, 16
	movq	%rbx, %rdi
	callq	notAStandardFile.185
	movzbl	%al, %eax
	addq	$8, %rsp
	popq	%rbx
	popq	%rbp
	.cfi_def_cfa %rsp, 8
	retq
.LBB24_13:                              # %func_notAStandardFile.208
	.cfi_def_cfa %rbp, 16
	movq	%rbx, %rdi
	callq	notAStandardFile.208
	movzbl	%al, %eax
	addq	$8, %rsp
	popq	%rbx
	popq	%rbp
	.cfi_def_cfa %rsp, 8
	retq
.LBB24_14:                              # %func_notAStandardFile.232
	.cfi_def_cfa %rbp, 16
	movq	%rbx, %rdi
	callq	notAStandardFile.232
	movzbl	%al, %eax
	addq	$8, %rsp
	popq	%rbx
	popq	%rbp
	.cfi_def_cfa %rsp, 8
	retq
.LBB24_15:                              # %func_notAStandardFile.260
	.cfi_def_cfa %rbp, 16
	movq	%rbx, %rdi
	callq	notAStandardFile.260
	movzbl	%al, %eax
	addq	$8, %rsp
	popq	%rbx
	popq	%rbp
	.cfi_def_cfa %rsp, 8
	retq
.LBB24_16:                              # %func_notAStandardFile.263
	.cfi_def_cfa %rbp, 16
	movq	%rbx, %rdi
	callq	notAStandardFile.263
	movzbl	%al, %eax
	addq	$8, %rsp
	popq	%rbx
	popq	%rbp
	.cfi_def_cfa %rsp, 8
	retq
.LBB24_17:                              # %ctrl0
	.cfi_def_cfa %rbp, 16
	cmpl	$1, %eax
	je	.LBB24_2
# %bb.18:                               # %ctrl1
	cmpl	$2, %eax
	je	.LBB24_3
# %bb.19:                               # %ctrl2
	cmpl	$3, %eax
	je	.LBB24_4
# %bb.20:                               # %ctrl3
	cmpl	$4, %eax
	je	.LBB24_5
# %bb.21:                               # %ctrl4
	cmpl	$5, %eax
	je	.LBB24_6
# %bb.22:                               # %ctrl5
	cmpl	$6, %eax
	je	.LBB24_7
# %bb.23:                               # %ctrl6
	cmpl	$7, %eax
	je	.LBB24_8
# %bb.24:                               # %ctrl7
	cmpl	$8, %eax
	je	.LBB24_9
# %bb.25:                               # %ctrl8
	cmpl	$9, %eax
	je	.LBB24_10
# %bb.26:                               # %ctrl9
	cmpl	$10, %eax
	je	.LBB24_11
# %bb.27:                               # %ctrl10
	cmpl	$11, %eax
	je	.LBB24_12
# %bb.28:                               # %ctrl11
	cmpl	$12, %eax
	je	.LBB24_13
# %bb.29:                               # %ctrl12
	cmpl	$13, %eax
	je	.LBB24_14
# %bb.30:                               # %ctrl13
	cmpl	$14, %eax
	je	.LBB24_15
	jmp	.LBB24_16
.Lfunc_end24:
	.size	notAStandardFile, .Lfunc_end24-notAStandardFile
	.cfi_endproc
                                        # -- End function
	.p2align	4, 0x90         # -- Begin function countHardLinks
	.type	countHardLinks,@function
countHardLinks:                         # @countHardLinks
	.cfi_startproc
# %bb.0:                                # %rand_bb
	pushq	%rbp
	.cfi_def_cfa_offset 16
	.cfi_offset %rbp, -16
	movq	%rsp, %rbp
	.cfi_def_cfa_register %rbp
	pushq	%rbx
	pushq	%rax
	.cfi_offset %rbx, -24
	movq	%rdi, %rbx
	callq	get_urand
	cmpl	$0, %eax
	jne	.LBB25_17
# %bb.1:                                # %func_countHardLinks.27
	movq	%rbx, %rdi
	callq	countHardLinks.27
	addq	$8, %rsp
	popq	%rbx
	popq	%rbp
	.cfi_def_cfa %rsp, 8
	retq
.LBB25_2:                               # %func_countHardLinks.37
	.cfi_def_cfa %rbp, 16
	movq	%rbx, %rdi
	callq	countHardLinks.37
	addq	$8, %rsp
	popq	%rbx
	popq	%rbp
	.cfi_def_cfa %rsp, 8
	retq
.LBB25_3:                               # %func_countHardLinks.71
	.cfi_def_cfa %rbp, 16
	movq	%rbx, %rdi
	callq	countHardLinks.71
	addq	$8, %rsp
	popq	%rbx
	popq	%rbp
	.cfi_def_cfa %rsp, 8
	retq
.LBB25_4:                               # %func_countHardLinks.140
	.cfi_def_cfa %rbp, 16
	movq	%rbx, %rdi
	callq	countHardLinks.140
	addq	$8, %rsp
	popq	%rbx
	popq	%rbp
	.cfi_def_cfa %rsp, 8
	retq
.LBB25_5:                               # %func_countHardLinks.186
	.cfi_def_cfa %rbp, 16
	movq	%rbx, %rdi
	callq	countHardLinks.186
	addq	$8, %rsp
	popq	%rbx
	popq	%rbp
	.cfi_def_cfa %rsp, 8
	retq
.LBB25_6:                               # %func_countHardLinks.195
	.cfi_def_cfa %rbp, 16
	movq	%rbx, %rdi
	callq	countHardLinks.195
	addq	$8, %rsp
	popq	%rbx
	popq	%rbp
	.cfi_def_cfa %rsp, 8
	retq
.LBB25_7:                               # %func_countHardLinks.199
	.cfi_def_cfa %rbp, 16
	movq	%rbx, %rdi
	callq	countHardLinks.199
	addq	$8, %rsp
	popq	%rbx
	popq	%rbp
	.cfi_def_cfa %rsp, 8
	retq
.LBB25_8:                               # %func_countHardLinks.201
	.cfi_def_cfa %rbp, 16
	movq	%rbx, %rdi
	callq	countHardLinks.201
	addq	$8, %rsp
	popq	%rbx
	popq	%rbp
	.cfi_def_cfa %rsp, 8
	retq
.LBB25_9:                               # %func_countHardLinks.218
	.cfi_def_cfa %rbp, 16
	movq	%rbx, %rdi
	callq	countHardLinks.218
	addq	$8, %rsp
	popq	%rbx
	popq	%rbp
	.cfi_def_cfa %rsp, 8
	retq
.LBB25_10:                              # %func_countHardLinks.257
	.cfi_def_cfa %rbp, 16
	movq	%rbx, %rdi
	callq	countHardLinks.257
	addq	$8, %rsp
	popq	%rbx
	popq	%rbp
	.cfi_def_cfa %rsp, 8
	retq
.LBB25_11:                              # %func_countHardLinks.262
	.cfi_def_cfa %rbp, 16
	movq	%rbx, %rdi
	callq	countHardLinks.262
	addq	$8, %rsp
	popq	%rbx
	popq	%rbp
	.cfi_def_cfa %rsp, 8
	retq
.LBB25_12:                              # %func_countHardLinks.268
	.cfi_def_cfa %rbp, 16
	movq	%rbx, %rdi
	callq	countHardLinks.268
	addq	$8, %rsp
	popq	%rbx
	popq	%rbp
	.cfi_def_cfa %rsp, 8
	retq
.LBB25_13:                              # %func_countHardLinks.274
	.cfi_def_cfa %rbp, 16
	movq	%rbx, %rdi
	callq	countHardLinks.274
	addq	$8, %rsp
	popq	%rbx
	popq	%rbp
	.cfi_def_cfa %rsp, 8
	retq
.LBB25_14:                              # %func_countHardLinks.279
	.cfi_def_cfa %rbp, 16
	movq	%rbx, %rdi
	callq	countHardLinks.279
	addq	$8, %rsp
	popq	%rbx
	popq	%rbp
	.cfi_def_cfa %rsp, 8
	retq
.LBB25_15:                              # %func_countHardLinks.280
	.cfi_def_cfa %rbp, 16
	movq	%rbx, %rdi
	callq	countHardLinks.280
	addq	$8, %rsp
	popq	%rbx
	popq	%rbp
	.cfi_def_cfa %rsp, 8
	retq
.LBB25_16:                              # %func_countHardLinks.286
	.cfi_def_cfa %rbp, 16
	movq	%rbx, %rdi
	callq	countHardLinks.286
	addq	$8, %rsp
	popq	%rbx
	popq	%rbp
	.cfi_def_cfa %rsp, 8
	retq
.LBB25_17:                              # %ctrl0
	.cfi_def_cfa %rbp, 16
	cmpl	$1, %eax
	je	.LBB25_2
# %bb.18:                               # %ctrl1
	cmpl	$2, %eax
	je	.LBB25_3
# %bb.19:                               # %ctrl2
	cmpl	$3, %eax
	je	.LBB25_4
# %bb.20:                               # %ctrl3
	cmpl	$4, %eax
	je	.LBB25_5
# %bb.21:                               # %ctrl4
	cmpl	$5, %eax
	je	.LBB25_6
# %bb.22:                               # %ctrl5
	cmpl	$6, %eax
	je	.LBB25_7
# %bb.23:                               # %ctrl6
	cmpl	$7, %eax
	je	.LBB25_8
# %bb.24:                               # %ctrl7
	cmpl	$8, %eax
	je	.LBB25_9
# %bb.25:                               # %ctrl8
	cmpl	$9, %eax
	je	.LBB25_10
# %bb.26:                               # %ctrl9
	cmpl	$10, %eax
	je	.LBB25_11
# %bb.27:                               # %ctrl10
	cmpl	$11, %eax
	je	.LBB25_12
# %bb.28:                               # %ctrl11
	cmpl	$12, %eax
	je	.LBB25_13
# %bb.29:                               # %ctrl12
	cmpl	$13, %eax
	je	.LBB25_14
# %bb.30:                               # %ctrl13
	cmpl	$14, %eax
	je	.LBB25_15
	jmp	.LBB25_16
.Lfunc_end25:
	.size	countHardLinks, .Lfunc_end25-countHardLinks
	.cfi_endproc
                                        # -- End function
	.p2align	4, 0x90         # -- Begin function saveInputFileMetaInfo
	.type	saveInputFileMetaInfo,@function
saveInputFileMetaInfo:                  # @saveInputFileMetaInfo
	.cfi_startproc
# %bb.0:                                # %rand_bb
	pushq	%rbp
	.cfi_def_cfa_offset 16
	.cfi_offset %rbp, -16
	movq	%rsp, %rbp
	.cfi_def_cfa_register %rbp
	pushq	%rbx
	pushq	%rax
	.cfi_offset %rbx, -24
	movq	%rdi, %rbx
	callq	get_urand
	cmpl	$0, %eax
	jne	.LBB26_2
# %bb.1:                                # %func_saveInputFileMetaInfo.24
	movq	%rbx, %rdi
	callq	saveInputFileMetaInfo.24
	addq	$8, %rsp
	popq	%rbx
	popq	%rbp
	.cfi_def_cfa %rsp, 8
	retq
.LBB26_2:                               # %func_saveInputFileMetaInfo.40
	.cfi_def_cfa %rbp, 16
	movq	%rbx, %rdi
	callq	saveInputFileMetaInfo.40
	addq	$8, %rsp
	popq	%rbx
	popq	%rbp
	.cfi_def_cfa %rsp, 8
	retq
.Lfunc_end26:
	.size	saveInputFileMetaInfo, .Lfunc_end26-saveInputFileMetaInfo
	.cfi_endproc
                                        # -- End function
	.p2align	4, 0x90         # -- Begin function pad
	.type	pad,@function
pad:                                    # @pad
	.cfi_startproc
# %bb.0:                                # %rand_bb
	pushq	%rbp
	.cfi_def_cfa_offset 16
	.cfi_offset %rbp, -16
	movq	%rsp, %rbp
	.cfi_def_cfa_register %rbp
	pushq	%rbx
	pushq	%rax
	.cfi_offset %rbx, -24
	movq	%rdi, %rbx
	callq	get_urand
	cmpl	$0, %eax
	jne	.LBB27_2
# %bb.1:                                # %func_pad.12
	movq	%rbx, %rdi
	callq	pad.12
	addq	$8, %rsp
	popq	%rbx
	popq	%rbp
	.cfi_def_cfa %rsp, 8
	retq
.LBB27_2:                               # %func_pad.30
	.cfi_def_cfa %rbp, 16
	movq	%rbx, %rdi
	callq	pad.30
	addq	$8, %rsp
	popq	%rbx
	popq	%rbp
	.cfi_def_cfa %rsp, 8
	retq
.Lfunc_end27:
	.size	pad, .Lfunc_end27-pad
	.cfi_endproc
                                        # -- End function
	.p2align	4, 0x90         # -- Begin function compressStream
	.type	compressStream,@function
compressStream:                         # @compressStream
	.cfi_startproc
# %bb.0:                                # %rand_bb
	pushq	%rbp
	.cfi_def_cfa_offset 16
	.cfi_offset %rbp, -16
	movq	%rsp, %rbp
	.cfi_def_cfa_register %rbp
	pushq	%r14
	pushq	%rbx
	.cfi_offset %rbx, -32
	.cfi_offset %r14, -24
	movq	%rsi, %r14
	movq	%rdi, %rbx
	callq	get_urand
	cmpl	$0, %eax
	jne	.LBB28_17
# %bb.1:                                # %func_compressStream.10
	movq	%rbx, %rdi
	movq	%r14, %rsi
	callq	compressStream.10
	popq	%rbx
	popq	%r14
	popq	%rbp
	.cfi_def_cfa %rsp, 8
	retq
.LBB28_2:                               # %func_compressStream.41
	.cfi_def_cfa %rbp, 16
	movq	%rbx, %rdi
	movq	%r14, %rsi
	callq	compressStream.41
	popq	%rbx
	popq	%r14
	popq	%rbp
	.cfi_def_cfa %rsp, 8
	retq
.LBB28_3:                               # %func_compressStream.63
	.cfi_def_cfa %rbp, 16
	movq	%rbx, %rdi
	movq	%r14, %rsi
	callq	compressStream.63
	popq	%rbx
	popq	%r14
	popq	%rbp
	.cfi_def_cfa %rsp, 8
	retq
.LBB28_4:                               # %func_compressStream.69
	.cfi_def_cfa %rbp, 16
	movq	%rbx, %rdi
	movq	%r14, %rsi
	callq	compressStream.69
	popq	%rbx
	popq	%r14
	popq	%rbp
	.cfi_def_cfa %rsp, 8
	retq
.LBB28_5:                               # %func_compressStream.88
	.cfi_def_cfa %rbp, 16
	movq	%rbx, %rdi
	movq	%r14, %rsi
	callq	compressStream.88
	popq	%rbx
	popq	%r14
	popq	%rbp
	.cfi_def_cfa %rsp, 8
	retq
.LBB28_6:                               # %func_compressStream.110
	.cfi_def_cfa %rbp, 16
	movq	%rbx, %rdi
	movq	%r14, %rsi
	callq	compressStream.110
	popq	%rbx
	popq	%r14
	popq	%rbp
	.cfi_def_cfa %rsp, 8
	retq
.LBB28_7:                               # %func_compressStream.122
	.cfi_def_cfa %rbp, 16
	movq	%rbx, %rdi
	movq	%r14, %rsi
	callq	compressStream.122
	popq	%rbx
	popq	%r14
	popq	%rbp
	.cfi_def_cfa %rsp, 8
	retq
.LBB28_8:                               # %func_compressStream.144
	.cfi_def_cfa %rbp, 16
	movq	%rbx, %rdi
	movq	%r14, %rsi
	callq	compressStream.144
	popq	%rbx
	popq	%r14
	popq	%rbp
	.cfi_def_cfa %rsp, 8
	retq
.LBB28_9:                               # %func_compressStream.163
	.cfi_def_cfa %rbp, 16
	movq	%rbx, %rdi
	movq	%r14, %rsi
	callq	compressStream.163
	popq	%rbx
	popq	%r14
	popq	%rbp
	.cfi_def_cfa %rsp, 8
	retq
.LBB28_10:                              # %func_compressStream.177
	.cfi_def_cfa %rbp, 16
	movq	%rbx, %rdi
	movq	%r14, %rsi
	callq	compressStream.177
	popq	%rbx
	popq	%r14
	popq	%rbp
	.cfi_def_cfa %rsp, 8
	retq
.LBB28_11:                              # %func_compressStream.207
	.cfi_def_cfa %rbp, 16
	movq	%rbx, %rdi
	movq	%r14, %rsi
	callq	compressStream.207
	popq	%rbx
	popq	%r14
	popq	%rbp
	.cfi_def_cfa %rsp, 8
	retq
.LBB28_12:                              # %func_compressStream.214
	.cfi_def_cfa %rbp, 16
	movq	%rbx, %rdi
	movq	%r14, %rsi
	callq	compressStream.214
	popq	%rbx
	popq	%r14
	popq	%rbp
	.cfi_def_cfa %rsp, 8
	retq
.LBB28_13:                              # %func_compressStream.216
	.cfi_def_cfa %rbp, 16
	movq	%rbx, %rdi
	movq	%r14, %rsi
	callq	compressStream.216
	popq	%rbx
	popq	%r14
	popq	%rbp
	.cfi_def_cfa %rsp, 8
	retq
.LBB28_14:                              # %func_compressStream.239
	.cfi_def_cfa %rbp, 16
	movq	%rbx, %rdi
	movq	%r14, %rsi
	callq	compressStream.239
	popq	%rbx
	popq	%r14
	popq	%rbp
	.cfi_def_cfa %rsp, 8
	retq
.LBB28_15:                              # %func_compressStream.240
	.cfi_def_cfa %rbp, 16
	movq	%rbx, %rdi
	movq	%r14, %rsi
	callq	compressStream.240
	popq	%rbx
	popq	%r14
	popq	%rbp
	.cfi_def_cfa %rsp, 8
	retq
.LBB28_16:                              # %func_compressStream.250
	.cfi_def_cfa %rbp, 16
	movq	%rbx, %rdi
	movq	%r14, %rsi
	callq	compressStream.250
	popq	%rbx
	popq	%r14
	popq	%rbp
	.cfi_def_cfa %rsp, 8
	retq
.LBB28_17:                              # %ctrl0
	.cfi_def_cfa %rbp, 16
	cmpl	$1, %eax
	je	.LBB28_2
# %bb.18:                               # %ctrl1
	cmpl	$2, %eax
	je	.LBB28_3
# %bb.19:                               # %ctrl2
	cmpl	$3, %eax
	je	.LBB28_4
# %bb.20:                               # %ctrl3
	cmpl	$4, %eax
	je	.LBB28_5
# %bb.21:                               # %ctrl4
	cmpl	$5, %eax
	je	.LBB28_6
# %bb.22:                               # %ctrl5
	cmpl	$6, %eax
	je	.LBB28_7
# %bb.23:                               # %ctrl6
	cmpl	$7, %eax
	je	.LBB28_8
# %bb.24:                               # %ctrl7
	cmpl	$8, %eax
	je	.LBB28_9
# %bb.25:                               # %ctrl8
	cmpl	$9, %eax
	je	.LBB28_10
# %bb.26:                               # %ctrl9
	cmpl	$10, %eax
	je	.LBB28_11
# %bb.27:                               # %ctrl10
	cmpl	$11, %eax
	je	.LBB28_12
# %bb.28:                               # %ctrl11
	cmpl	$12, %eax
	je	.LBB28_13
# %bb.29:                               # %ctrl12
	cmpl	$13, %eax
	je	.LBB28_14
# %bb.30:                               # %ctrl13
	cmpl	$14, %eax
	je	.LBB28_15
	jmp	.LBB28_16
.Lfunc_end28:
	.size	compressStream, .Lfunc_end28-compressStream
	.cfi_endproc
                                        # -- End function
	.p2align	4, 0x90         # -- Begin function applySavedMetaInfoToOutputFile
	.type	applySavedMetaInfoToOutputFile,@function
applySavedMetaInfoToOutputFile:         # @applySavedMetaInfoToOutputFile
	.cfi_startproc
# %bb.0:                                # %rand_bb
	pushq	%rbp
	.cfi_def_cfa_offset 16
	.cfi_offset %rbp, -16
	movq	%rsp, %rbp
	.cfi_def_cfa_register %rbp
	pushq	%rbx
	pushq	%rax
	.cfi_offset %rbx, -24
	movq	%rdi, %rbx
	callq	get_urand
	cmpl	$0, %eax
	jne	.LBB29_7
# %bb.1:                                # %func_applySavedMetaInfoToOutputFile.53
	movq	%rbx, %rdi
	callq	applySavedMetaInfoToOutputFile.53
	addq	$8, %rsp
	popq	%rbx
	popq	%rbp
	.cfi_def_cfa %rsp, 8
	retq
.LBB29_2:                               # %func_applySavedMetaInfoToOutputFile.59
	.cfi_def_cfa %rbp, 16
	movq	%rbx, %rdi
	callq	applySavedMetaInfoToOutputFile.59
	addq	$8, %rsp
	popq	%rbx
	popq	%rbp
	.cfi_def_cfa %rsp, 8
	retq
.LBB29_3:                               # %func_applySavedMetaInfoToOutputFile.76
	.cfi_def_cfa %rbp, 16
	movq	%rbx, %rdi
	callq	applySavedMetaInfoToOutputFile.76
	addq	$8, %rsp
	popq	%rbx
	popq	%rbp
	.cfi_def_cfa %rsp, 8
	retq
.LBB29_4:                               # %func_applySavedMetaInfoToOutputFile.116
	.cfi_def_cfa %rbp, 16
	movq	%rbx, %rdi
	callq	applySavedMetaInfoToOutputFile.116
	addq	$8, %rsp
	popq	%rbx
	popq	%rbp
	.cfi_def_cfa %rsp, 8
	retq
.LBB29_5:                               # %func_applySavedMetaInfoToOutputFile.148
	.cfi_def_cfa %rbp, 16
	movq	%rbx, %rdi
	callq	applySavedMetaInfoToOutputFile.148
	addq	$8, %rsp
	popq	%rbx
	popq	%rbp
	.cfi_def_cfa %rsp, 8
	retq
.LBB29_6:                               # %func_applySavedMetaInfoToOutputFile.152
	.cfi_def_cfa %rbp, 16
	movq	%rbx, %rdi
	callq	applySavedMetaInfoToOutputFile.152
	addq	$8, %rsp
	popq	%rbx
	popq	%rbp
	.cfi_def_cfa %rsp, 8
	retq
.LBB29_7:                               # %ctrl0
	.cfi_def_cfa %rbp, 16
	cmpl	$1, %eax
	je	.LBB29_2
# %bb.8:                                # %ctrl1
	cmpl	$2, %eax
	je	.LBB29_3
# %bb.9:                                # %ctrl2
	cmpl	$3, %eax
	je	.LBB29_4
# %bb.10:                               # %ctrl3
	cmpl	$4, %eax
	je	.LBB29_5
	jmp	.LBB29_6
.Lfunc_end29:
	.size	applySavedMetaInfoToOutputFile, .Lfunc_end29-applySavedMetaInfoToOutputFile
	.cfi_endproc
                                        # -- End function
	.p2align	4, 0x90         # -- Begin function ioError
	.type	ioError,@function
ioError:                                # @ioError
	.cfi_startproc
# %bb.0:                                # %entry
	pushq	%rbp
	.cfi_def_cfa_offset 16
	.cfi_offset %rbp, -16
	movq	%rsp, %rbp
	.cfi_def_cfa_register %rbp
	movq	stderr, %rdi
	movq	progName, %rdx
	movabsq	$.L.str.78, %rsi
	movb	$0, %al
	callq	fprintf
	movq	progName, %rdi
	callq	perror
	callq	showFileNames
	movl	$1, %edi
	callq	cleanUpAndFail
.Lfunc_end30:
	.size	ioError, .Lfunc_end30-ioError
	.cfi_endproc
                                        # -- End function
	.p2align	4, 0x90         # -- Begin function myfeof
	.type	myfeof,@function
myfeof:                                 # @myfeof
	.cfi_startproc
# %bb.0:                                # %rand_bb
	pushq	%rbp
	.cfi_def_cfa_offset 16
	.cfi_offset %rbp, -16
	movq	%rsp, %rbp
	.cfi_def_cfa_register %rbp
	pushq	%rbx
	pushq	%rax
	.cfi_offset %rbx, -24
	movq	%rdi, %rbx
	callq	get_urand
	cmpl	$0, %eax
	jne	.LBB31_7
# %bb.1:                                # %func_myfeof.5
	movq	%rbx, %rdi
	callq	myfeof.5
	movzbl	%al, %eax
	addq	$8, %rsp
	popq	%rbx
	popq	%rbp
	.cfi_def_cfa %rsp, 8
	retq
.LBB31_2:                               # %func_myfeof.22
	.cfi_def_cfa %rbp, 16
	movq	%rbx, %rdi
	callq	myfeof.22
	movzbl	%al, %eax
	addq	$8, %rsp
	popq	%rbx
	popq	%rbp
	.cfi_def_cfa %rsp, 8
	retq
.LBB31_3:                               # %func_myfeof.44
	.cfi_def_cfa %rbp, 16
	movq	%rbx, %rdi
	callq	myfeof.44
	movzbl	%al, %eax
	addq	$8, %rsp
	popq	%rbx
	popq	%rbp
	.cfi_def_cfa %rsp, 8
	retq
.LBB31_4:                               # %func_myfeof.56
	.cfi_def_cfa %rbp, 16
	movq	%rbx, %rdi
	callq	myfeof.56
	movzbl	%al, %eax
	addq	$8, %rsp
	popq	%rbx
	popq	%rbp
	.cfi_def_cfa %rsp, 8
	retq
.LBB31_5:                               # %func_myfeof.87
	.cfi_def_cfa %rbp, 16
	movq	%rbx, %rdi
	callq	myfeof.87
	movzbl	%al, %eax
	addq	$8, %rsp
	popq	%rbx
	popq	%rbp
	.cfi_def_cfa %rsp, 8
	retq
.LBB31_6:                               # %func_myfeof.111
	.cfi_def_cfa %rbp, 16
	movq	%rbx, %rdi
	callq	myfeof.111
	movzbl	%al, %eax
	addq	$8, %rsp
	popq	%rbx
	popq	%rbp
	.cfi_def_cfa %rsp, 8
	retq
.LBB31_7:                               # %ctrl0
	.cfi_def_cfa %rbp, 16
	cmpl	$1, %eax
	je	.LBB31_2
# %bb.8:                                # %ctrl1
	cmpl	$2, %eax
	je	.LBB31_3
# %bb.9:                                # %ctrl2
	cmpl	$3, %eax
	je	.LBB31_4
# %bb.10:                               # %ctrl3
	cmpl	$4, %eax
	je	.LBB31_5
	jmp	.LBB31_6
.Lfunc_end31:
	.size	myfeof, .Lfunc_end31-myfeof
	.cfi_endproc
                                        # -- End function
	.p2align	4, 0x90         # -- Begin function uInt64_from_UInt32s
	.type	uInt64_from_UInt32s,@function
uInt64_from_UInt32s:                    # @uInt64_from_UInt32s
	.cfi_startproc
# %bb.0:                                # %rand_bb
	pushq	%rbp
	.cfi_def_cfa_offset 16
	.cfi_offset %rbp, -16
	movq	%rsp, %rbp
	.cfi_def_cfa_register %rbp
	pushq	%r15
	pushq	%r14
	pushq	%rbx
	pushq	%rax
	.cfi_offset %rbx, -40
	.cfi_offset %r14, -32
	.cfi_offset %r15, -24
	movl	%edx, %r14d
	movl	%esi, %r15d
	movq	%rdi, %rbx
	callq	get_urand
	cmpl	$0, %eax
	jne	.LBB32_7
# %bb.1:                                # %func_uInt64_from_UInt32s.34
	movq	%rbx, %rdi
	movl	%r15d, %esi
	movl	%r14d, %edx
	callq	uInt64_from_UInt32s.34
	addq	$8, %rsp
	popq	%rbx
	popq	%r14
	popq	%r15
	popq	%rbp
	.cfi_def_cfa %rsp, 8
	retq
.LBB32_2:                               # %func_uInt64_from_UInt32s.74
	.cfi_def_cfa %rbp, 16
	movq	%rbx, %rdi
	movl	%r15d, %esi
	movl	%r14d, %edx
	callq	uInt64_from_UInt32s.74
	addq	$8, %rsp
	popq	%rbx
	popq	%r14
	popq	%r15
	popq	%rbp
	.cfi_def_cfa %rsp, 8
	retq
.LBB32_3:                               # %func_uInt64_from_UInt32s.85
	.cfi_def_cfa %rbp, 16
	movq	%rbx, %rdi
	movl	%r15d, %esi
	movl	%r14d, %edx
	callq	uInt64_from_UInt32s.85
	addq	$8, %rsp
	popq	%rbx
	popq	%r14
	popq	%r15
	popq	%rbp
	.cfi_def_cfa %rsp, 8
	retq
.LBB32_4:                               # %func_uInt64_from_UInt32s.89
	.cfi_def_cfa %rbp, 16
	movq	%rbx, %rdi
	movl	%r15d, %esi
	movl	%r14d, %edx
	callq	uInt64_from_UInt32s.89
	addq	$8, %rsp
	popq	%rbx
	popq	%r14
	popq	%r15
	popq	%rbp
	.cfi_def_cfa %rsp, 8
	retq
.LBB32_5:                               # %func_uInt64_from_UInt32s.139
	.cfi_def_cfa %rbp, 16
	movq	%rbx, %rdi
	movl	%r15d, %esi
	movl	%r14d, %edx
	callq	uInt64_from_UInt32s.139
	addq	$8, %rsp
	popq	%rbx
	popq	%r14
	popq	%r15
	popq	%rbp
	.cfi_def_cfa %rsp, 8
	retq
.LBB32_6:                               # %func_uInt64_from_UInt32s.191
	.cfi_def_cfa %rbp, 16
	movq	%rbx, %rdi
	movl	%r15d, %esi
	movl	%r14d, %edx
	callq	uInt64_from_UInt32s.191
	addq	$8, %rsp
	popq	%rbx
	popq	%r14
	popq	%r15
	popq	%rbp
	.cfi_def_cfa %rsp, 8
	retq
.LBB32_7:                               # %ctrl0
	.cfi_def_cfa %rbp, 16
	cmpl	$1, %eax
	je	.LBB32_2
# %bb.8:                                # %ctrl1
	cmpl	$2, %eax
	je	.LBB32_3
# %bb.9:                                # %ctrl2
	cmpl	$3, %eax
	je	.LBB32_4
# %bb.10:                               # %ctrl3
	cmpl	$4, %eax
	je	.LBB32_5
	jmp	.LBB32_6
.Lfunc_end32:
	.size	uInt64_from_UInt32s, .Lfunc_end32-uInt64_from_UInt32s
	.cfi_endproc
                                        # -- End function
	.p2align	4, 0x90         # -- Begin function uInt64_to_double
	.type	uInt64_to_double,@function
uInt64_to_double:                       # @uInt64_to_double
	.cfi_startproc
# %bb.0:                                # %rand_bb
	pushq	%rbp
	.cfi_def_cfa_offset 16
	.cfi_offset %rbp, -16
	movq	%rsp, %rbp
	.cfi_def_cfa_register %rbp
	pushq	%rbx
	pushq	%rax
	.cfi_offset %rbx, -24
	movq	%rdi, %rbx
	callq	get_urand
	cmpl	$0, %eax
	jne	.LBB33_17
# %bb.1:                                # %func_uInt64_to_double.8
	movq	%rbx, %rdi
	callq	uInt64_to_double.8
	addq	$8, %rsp
	popq	%rbx
	popq	%rbp
	.cfi_def_cfa %rsp, 8
	retq
.LBB33_2:                               # %func_uInt64_to_double.19
	.cfi_def_cfa %rbp, 16
	movq	%rbx, %rdi
	callq	uInt64_to_double.19
	addq	$8, %rsp
	popq	%rbx
	popq	%rbp
	.cfi_def_cfa %rsp, 8
	retq
.LBB33_3:                               # %func_uInt64_to_double.36
	.cfi_def_cfa %rbp, 16
	movq	%rbx, %rdi
	callq	uInt64_to_double.36
	addq	$8, %rsp
	popq	%rbx
	popq	%rbp
	.cfi_def_cfa %rsp, 8
	retq
.LBB33_4:                               # %func_uInt64_to_double.51
	.cfi_def_cfa %rbp, 16
	movq	%rbx, %rdi
	callq	uInt64_to_double.51
	addq	$8, %rsp
	popq	%rbx
	popq	%rbp
	.cfi_def_cfa %rsp, 8
	retq
.LBB33_5:                               # %func_uInt64_to_double.60
	.cfi_def_cfa %rbp, 16
	movq	%rbx, %rdi
	callq	uInt64_to_double.60
	addq	$8, %rsp
	popq	%rbx
	popq	%rbp
	.cfi_def_cfa %rsp, 8
	retq
.LBB33_6:                               # %func_uInt64_to_double.75
	.cfi_def_cfa %rbp, 16
	movq	%rbx, %rdi
	callq	uInt64_to_double.75
	addq	$8, %rsp
	popq	%rbx
	popq	%rbp
	.cfi_def_cfa %rsp, 8
	retq
.LBB33_7:                               # %func_uInt64_to_double.104
	.cfi_def_cfa %rbp, 16
	movq	%rbx, %rdi
	callq	uInt64_to_double.104
	addq	$8, %rsp
	popq	%rbx
	popq	%rbp
	.cfi_def_cfa %rsp, 8
	retq
.LBB33_8:                               # %func_uInt64_to_double.117
	.cfi_def_cfa %rbp, 16
	movq	%rbx, %rdi
	callq	uInt64_to_double.117
	addq	$8, %rsp
	popq	%rbx
	popq	%rbp
	.cfi_def_cfa %rsp, 8
	retq
.LBB33_9:                               # %func_uInt64_to_double.166
	.cfi_def_cfa %rbp, 16
	movq	%rbx, %rdi
	callq	uInt64_to_double.166
	addq	$8, %rsp
	popq	%rbx
	popq	%rbp
	.cfi_def_cfa %rsp, 8
	retq
.LBB33_10:                              # %func_uInt64_to_double.196
	.cfi_def_cfa %rbp, 16
	movq	%rbx, %rdi
	callq	uInt64_to_double.196
	addq	$8, %rsp
	popq	%rbx
	popq	%rbp
	.cfi_def_cfa %rsp, 8
	retq
.LBB33_11:                              # %func_uInt64_to_double.223
	.cfi_def_cfa %rbp, 16
	movq	%rbx, %rdi
	callq	uInt64_to_double.223
	addq	$8, %rsp
	popq	%rbx
	popq	%rbp
	.cfi_def_cfa %rsp, 8
	retq
.LBB33_12:                              # %func_uInt64_to_double.235
	.cfi_def_cfa %rbp, 16
	movq	%rbx, %rdi
	callq	uInt64_to_double.235
	addq	$8, %rsp
	popq	%rbx
	popq	%rbp
	.cfi_def_cfa %rsp, 8
	retq
.LBB33_13:                              # %func_uInt64_to_double.244
	.cfi_def_cfa %rbp, 16
	movq	%rbx, %rdi
	callq	uInt64_to_double.244
	addq	$8, %rsp
	popq	%rbx
	popq	%rbp
	.cfi_def_cfa %rsp, 8
	retq
.LBB33_14:                              # %func_uInt64_to_double.290
	.cfi_def_cfa %rbp, 16
	movq	%rbx, %rdi
	callq	uInt64_to_double.290
	addq	$8, %rsp
	popq	%rbx
	popq	%rbp
	.cfi_def_cfa %rsp, 8
	retq
.LBB33_15:                              # %func_uInt64_to_double.295
	.cfi_def_cfa %rbp, 16
	movq	%rbx, %rdi
	callq	uInt64_to_double.295
	addq	$8, %rsp
	popq	%rbx
	popq	%rbp
	.cfi_def_cfa %rsp, 8
	retq
.LBB33_16:                              # %func_uInt64_to_double.296
	.cfi_def_cfa %rbp, 16
	movq	%rbx, %rdi
	callq	uInt64_to_double.296
	addq	$8, %rsp
	popq	%rbx
	popq	%rbp
	.cfi_def_cfa %rsp, 8
	retq
.LBB33_17:                              # %ctrl0
	.cfi_def_cfa %rbp, 16
	cmpl	$1, %eax
	je	.LBB33_2
# %bb.18:                               # %ctrl1
	cmpl	$2, %eax
	je	.LBB33_3
# %bb.19:                               # %ctrl2
	cmpl	$3, %eax
	je	.LBB33_4
# %bb.20:                               # %ctrl3
	cmpl	$4, %eax
	je	.LBB33_5
# %bb.21:                               # %ctrl4
	cmpl	$5, %eax
	je	.LBB33_6
# %bb.22:                               # %ctrl5
	cmpl	$6, %eax
	je	.LBB33_7
# %bb.23:                               # %ctrl6
	cmpl	$7, %eax
	je	.LBB33_8
# %bb.24:                               # %ctrl7
	cmpl	$8, %eax
	je	.LBB33_9
# %bb.25:                               # %ctrl8
	cmpl	$9, %eax
	je	.LBB33_10
# %bb.26:                               # %ctrl9
	cmpl	$10, %eax
	je	.LBB33_11
# %bb.27:                               # %ctrl10
	cmpl	$11, %eax
	je	.LBB33_12
# %bb.28:                               # %ctrl11
	cmpl	$12, %eax
	je	.LBB33_13
# %bb.29:                               # %ctrl12
	cmpl	$13, %eax
	je	.LBB33_14
# %bb.30:                               # %ctrl13
	cmpl	$14, %eax
	je	.LBB33_15
	jmp	.LBB33_16
.Lfunc_end33:
	.size	uInt64_to_double, .Lfunc_end33-uInt64_to_double
	.cfi_endproc
                                        # -- End function
	.p2align	4, 0x90         # -- Begin function uInt64_toAscii
	.type	uInt64_toAscii,@function
uInt64_toAscii:                         # @uInt64_toAscii
	.cfi_startproc
# %bb.0:                                # %rand_bb
	pushq	%rbp
	.cfi_def_cfa_offset 16
	.cfi_offset %rbp, -16
	movq	%rsp, %rbp
	.cfi_def_cfa_register %rbp
	pushq	%r14
	pushq	%rbx
	.cfi_offset %rbx, -32
	.cfi_offset %r14, -24
	movq	%rsi, %r14
	movq	%rdi, %rbx
	callq	get_urand
	cmpl	$0, %eax
	jne	.LBB34_17
# %bb.1:                                # %func_uInt64_toAscii.14
	movq	%rbx, %rdi
	movq	%r14, %rsi
	callq	uInt64_toAscii.14
	popq	%rbx
	popq	%r14
	popq	%rbp
	.cfi_def_cfa %rsp, 8
	retq
.LBB34_2:                               # %func_uInt64_toAscii.43
	.cfi_def_cfa %rbp, 16
	movq	%rbx, %rdi
	movq	%r14, %rsi
	callq	uInt64_toAscii.43
	popq	%rbx
	popq	%r14
	popq	%rbp
	.cfi_def_cfa %rsp, 8
	retq
.LBB34_3:                               # %func_uInt64_toAscii.80
	.cfi_def_cfa %rbp, 16
	movq	%rbx, %rdi
	movq	%r14, %rsi
	callq	uInt64_toAscii.80
	popq	%rbx
	popq	%r14
	popq	%rbp
	.cfi_def_cfa %rsp, 8
	retq
.LBB34_4:                               # %func_uInt64_toAscii.106
	.cfi_def_cfa %rbp, 16
	movq	%rbx, %rdi
	movq	%r14, %rsi
	callq	uInt64_toAscii.106
	popq	%rbx
	popq	%r14
	popq	%rbp
	.cfi_def_cfa %rsp, 8
	retq
.LBB34_5:                               # %func_uInt64_toAscii.115
	.cfi_def_cfa %rbp, 16
	movq	%rbx, %rdi
	movq	%r14, %rsi
	callq	uInt64_toAscii.115
	popq	%rbx
	popq	%r14
	popq	%rbp
	.cfi_def_cfa %rsp, 8
	retq
.LBB34_6:                               # %func_uInt64_toAscii.153
	.cfi_def_cfa %rbp, 16
	movq	%rbx, %rdi
	movq	%r14, %rsi
	callq	uInt64_toAscii.153
	popq	%rbx
	popq	%r14
	popq	%rbp
	.cfi_def_cfa %rsp, 8
	retq
.LBB34_7:                               # %func_uInt64_toAscii.172
	.cfi_def_cfa %rbp, 16
	movq	%rbx, %rdi
	movq	%r14, %rsi
	callq	uInt64_toAscii.172
	popq	%rbx
	popq	%r14
	popq	%rbp
	.cfi_def_cfa %rsp, 8
	retq
.LBB34_8:                               # %func_uInt64_toAscii.179
	.cfi_def_cfa %rbp, 16
	movq	%rbx, %rdi
	movq	%r14, %rsi
	callq	uInt64_toAscii.179
	popq	%rbx
	popq	%r14
	popq	%rbp
	.cfi_def_cfa %rsp, 8
	retq
.LBB34_9:                               # %func_uInt64_toAscii.180
	.cfi_def_cfa %rbp, 16
	movq	%rbx, %rdi
	movq	%r14, %rsi
	callq	uInt64_toAscii.180
	popq	%rbx
	popq	%r14
	popq	%rbp
	.cfi_def_cfa %rsp, 8
	retq
.LBB34_10:                              # %func_uInt64_toAscii.190
	.cfi_def_cfa %rbp, 16
	movq	%rbx, %rdi
	movq	%r14, %rsi
	callq	uInt64_toAscii.190
	popq	%rbx
	popq	%r14
	popq	%rbp
	.cfi_def_cfa %rsp, 8
	retq
.LBB34_11:                              # %func_uInt64_toAscii.230
	.cfi_def_cfa %rbp, 16
	movq	%rbx, %rdi
	movq	%r14, %rsi
	callq	uInt64_toAscii.230
	popq	%rbx
	popq	%r14
	popq	%rbp
	.cfi_def_cfa %rsp, 8
	retq
.LBB34_12:                              # %func_uInt64_toAscii.287
	.cfi_def_cfa %rbp, 16
	movq	%rbx, %rdi
	movq	%r14, %rsi
	callq	uInt64_toAscii.287
	popq	%rbx
	popq	%r14
	popq	%rbp
	.cfi_def_cfa %rsp, 8
	retq
.LBB34_13:                              # %func_uInt64_toAscii.289
	.cfi_def_cfa %rbp, 16
	movq	%rbx, %rdi
	movq	%r14, %rsi
	callq	uInt64_toAscii.289
	popq	%rbx
	popq	%r14
	popq	%rbp
	.cfi_def_cfa %rsp, 8
	retq
.LBB34_14:                              # %func_uInt64_toAscii.291
	.cfi_def_cfa %rbp, 16
	movq	%rbx, %rdi
	movq	%r14, %rsi
	callq	uInt64_toAscii.291
	popq	%rbx
	popq	%r14
	popq	%rbp
	.cfi_def_cfa %rsp, 8
	retq
.LBB34_15:                              # %func_uInt64_toAscii.292
	.cfi_def_cfa %rbp, 16
	movq	%rbx, %rdi
	movq	%r14, %rsi
	callq	uInt64_toAscii.292
	popq	%rbx
	popq	%r14
	popq	%rbp
	.cfi_def_cfa %rsp, 8
	retq
.LBB34_16:                              # %func_uInt64_toAscii.294
	.cfi_def_cfa %rbp, 16
	movq	%rbx, %rdi
	movq	%r14, %rsi
	callq	uInt64_toAscii.294
	popq	%rbx
	popq	%r14
	popq	%rbp
	.cfi_def_cfa %rsp, 8
	retq
.LBB34_17:                              # %ctrl0
	.cfi_def_cfa %rbp, 16
	cmpl	$1, %eax
	je	.LBB34_2
# %bb.18:                               # %ctrl1
	cmpl	$2, %eax
	je	.LBB34_3
# %bb.19:                               # %ctrl2
	cmpl	$3, %eax
	je	.LBB34_4
# %bb.20:                               # %ctrl3
	cmpl	$4, %eax
	je	.LBB34_5
# %bb.21:                               # %ctrl4
	cmpl	$5, %eax
	je	.LBB34_6
# %bb.22:                               # %ctrl5
	cmpl	$6, %eax
	je	.LBB34_7
# %bb.23:                               # %ctrl6
	cmpl	$7, %eax
	je	.LBB34_8
# %bb.24:                               # %ctrl7
	cmpl	$8, %eax
	je	.LBB34_9
# %bb.25:                               # %ctrl8
	cmpl	$9, %eax
	je	.LBB34_10
# %bb.26:                               # %ctrl9
	cmpl	$10, %eax
	je	.LBB34_11
# %bb.27:                               # %ctrl10
	cmpl	$11, %eax
	je	.LBB34_12
# %bb.28:                               # %ctrl11
	cmpl	$12, %eax
	je	.LBB34_13
# %bb.29:                               # %ctrl12
	cmpl	$13, %eax
	je	.LBB34_14
# %bb.30:                               # %ctrl13
	cmpl	$14, %eax
	je	.LBB34_15
	jmp	.LBB34_16
.Lfunc_end34:
	.size	uInt64_toAscii, .Lfunc_end34-uInt64_toAscii
	.cfi_endproc
                                        # -- End function
	.p2align	4, 0x90         # -- Begin function configError
	.type	configError,@function
configError:                            # @configError
	.cfi_startproc
# %bb.0:                                # %entry
	pushq	%rbp
	.cfi_def_cfa_offset 16
	.cfi_offset %rbp, -16
	movq	%rsp, %rbp
	.cfi_def_cfa_register %rbp
	movq	stderr, %rdi
	movabsq	$.L.str.77, %rsi
	movb	$0, %al
	callq	fprintf
	movl	$3, %edi
	callq	setExit
	movl	exitValue, %edi
	callq	exit
.Lfunc_end35:
	.size	configError, .Lfunc_end35-configError
	.cfi_endproc
                                        # -- End function
	.p2align	4, 0x90         # -- Begin function uInt64_qrm10
	.type	uInt64_qrm10,@function
uInt64_qrm10:                           # @uInt64_qrm10
	.cfi_startproc
# %bb.0:                                # %rand_bb
	pushq	%rbp
	.cfi_def_cfa_offset 16
	.cfi_offset %rbp, -16
	movq	%rsp, %rbp
	.cfi_def_cfa_register %rbp
	pushq	%rbx
	pushq	%rax
	.cfi_offset %rbx, -24
	movq	%rdi, %rbx
	callq	get_urand
	cmpl	$0, %eax
	jne	.LBB36_17
# %bb.1:                                # %func_uInt64_qrm10.4
	movq	%rbx, %rdi
	callq	uInt64_qrm10.4
	addq	$8, %rsp
	popq	%rbx
	popq	%rbp
	.cfi_def_cfa %rsp, 8
	retq
.LBB36_2:                               # %func_uInt64_qrm10.72
	.cfi_def_cfa %rbp, 16
	movq	%rbx, %rdi
	callq	uInt64_qrm10.72
	addq	$8, %rsp
	popq	%rbx
	popq	%rbp
	.cfi_def_cfa %rsp, 8
	retq
.LBB36_3:                               # %func_uInt64_qrm10.81
	.cfi_def_cfa %rbp, 16
	movq	%rbx, %rdi
	callq	uInt64_qrm10.81
	addq	$8, %rsp
	popq	%rbx
	popq	%rbp
	.cfi_def_cfa %rsp, 8
	retq
.LBB36_4:                               # %func_uInt64_qrm10.130
	.cfi_def_cfa %rbp, 16
	movq	%rbx, %rdi
	callq	uInt64_qrm10.130
	addq	$8, %rsp
	popq	%rbx
	popq	%rbp
	.cfi_def_cfa %rsp, 8
	retq
.LBB36_5:                               # %func_uInt64_qrm10.131
	.cfi_def_cfa %rbp, 16
	movq	%rbx, %rdi
	callq	uInt64_qrm10.131
	addq	$8, %rsp
	popq	%rbx
	popq	%rbp
	.cfi_def_cfa %rsp, 8
	retq
.LBB36_6:                               # %func_uInt64_qrm10.264
	.cfi_def_cfa %rbp, 16
	movq	%rbx, %rdi
	callq	uInt64_qrm10.264
	addq	$8, %rsp
	popq	%rbx
	popq	%rbp
	.cfi_def_cfa %rsp, 8
	retq
.LBB36_7:                               # %func_uInt64_qrm10.270
	.cfi_def_cfa %rbp, 16
	movq	%rbx, %rdi
	callq	uInt64_qrm10.270
	addq	$8, %rsp
	popq	%rbx
	popq	%rbp
	.cfi_def_cfa %rsp, 8
	retq
.LBB36_8:                               # %func_uInt64_qrm10.277
	.cfi_def_cfa %rbp, 16
	movq	%rbx, %rdi
	callq	uInt64_qrm10.277
	addq	$8, %rsp
	popq	%rbx
	popq	%rbp
	.cfi_def_cfa %rsp, 8
	retq
.LBB36_9:                               # %func_uInt64_qrm10.282
	.cfi_def_cfa %rbp, 16
	movq	%rbx, %rdi
	callq	uInt64_qrm10.282
	addq	$8, %rsp
	popq	%rbx
	popq	%rbp
	.cfi_def_cfa %rsp, 8
	retq
.LBB36_10:                              # %func_uInt64_qrm10.284
	.cfi_def_cfa %rbp, 16
	movq	%rbx, %rdi
	callq	uInt64_qrm10.284
	addq	$8, %rsp
	popq	%rbx
	popq	%rbp
	.cfi_def_cfa %rsp, 8
	retq
.LBB36_11:                              # %func_uInt64_qrm10.285
	.cfi_def_cfa %rbp, 16
	movq	%rbx, %rdi
	callq	uInt64_qrm10.285
	addq	$8, %rsp
	popq	%rbx
	popq	%rbp
	.cfi_def_cfa %rsp, 8
	retq
.LBB36_12:                              # %func_uInt64_qrm10.288
	.cfi_def_cfa %rbp, 16
	movq	%rbx, %rdi
	callq	uInt64_qrm10.288
	addq	$8, %rsp
	popq	%rbx
	popq	%rbp
	.cfi_def_cfa %rsp, 8
	retq
.LBB36_13:                              # %func_uInt64_qrm10.297
	.cfi_def_cfa %rbp, 16
	movq	%rbx, %rdi
	callq	uInt64_qrm10.297
	addq	$8, %rsp
	popq	%rbx
	popq	%rbp
	.cfi_def_cfa %rsp, 8
	retq
.LBB36_14:                              # %func_uInt64_qrm10.298
	.cfi_def_cfa %rbp, 16
	movq	%rbx, %rdi
	callq	uInt64_qrm10.298
	addq	$8, %rsp
	popq	%rbx
	popq	%rbp
	.cfi_def_cfa %rsp, 8
	retq
.LBB36_15:                              # %func_uInt64_qrm10.299
	.cfi_def_cfa %rbp, 16
	movq	%rbx, %rdi
	callq	uInt64_qrm10.299
	addq	$8, %rsp
	popq	%rbx
	popq	%rbp
	.cfi_def_cfa %rsp, 8
	retq
.LBB36_16:                              # %func_uInt64_qrm10.300
	.cfi_def_cfa %rbp, 16
	movq	%rbx, %rdi
	callq	uInt64_qrm10.300
	addq	$8, %rsp
	popq	%rbx
	popq	%rbp
	.cfi_def_cfa %rsp, 8
	retq
.LBB36_17:                              # %ctrl0
	.cfi_def_cfa %rbp, 16
	cmpl	$1, %eax
	je	.LBB36_2
# %bb.18:                               # %ctrl1
	cmpl	$2, %eax
	je	.LBB36_3
# %bb.19:                               # %ctrl2
	cmpl	$3, %eax
	je	.LBB36_4
# %bb.20:                               # %ctrl3
	cmpl	$4, %eax
	je	.LBB36_5
# %bb.21:                               # %ctrl4
	cmpl	$5, %eax
	je	.LBB36_6
# %bb.22:                               # %ctrl5
	cmpl	$6, %eax
	je	.LBB36_7
# %bb.23:                               # %ctrl6
	cmpl	$7, %eax
	je	.LBB36_8
# %bb.24:                               # %ctrl7
	cmpl	$8, %eax
	je	.LBB36_9
# %bb.25:                               # %ctrl8
	cmpl	$9, %eax
	je	.LBB36_10
# %bb.26:                               # %ctrl9
	cmpl	$10, %eax
	je	.LBB36_11
# %bb.27:                               # %ctrl10
	cmpl	$11, %eax
	je	.LBB36_12
# %bb.28:                               # %ctrl11
	cmpl	$12, %eax
	je	.LBB36_13
# %bb.29:                               # %ctrl12
	cmpl	$13, %eax
	je	.LBB36_14
# %bb.30:                               # %ctrl13
	cmpl	$14, %eax
	je	.LBB36_15
	jmp	.LBB36_16
.Lfunc_end36:
	.size	uInt64_qrm10, .Lfunc_end36-uInt64_qrm10
	.cfi_endproc
                                        # -- End function
	.p2align	4, 0x90         # -- Begin function uInt64_isZero
	.type	uInt64_isZero,@function
uInt64_isZero:                          # @uInt64_isZero
	.cfi_startproc
# %bb.0:                                # %rand_bb
	pushq	%rbp
	.cfi_def_cfa_offset 16
	.cfi_offset %rbp, -16
	movq	%rsp, %rbp
	.cfi_def_cfa_register %rbp
	pushq	%rbx
	pushq	%rax
	.cfi_offset %rbx, -24
	movq	%rdi, %rbx
	callq	get_urand
	cmpl	$0, %eax
	jne	.LBB37_7
# %bb.1:                                # %func_uInt64_isZero.55
	movq	%rbx, %rdi
	callq	uInt64_isZero.55
	movzbl	%al, %eax
	addq	$8, %rsp
	popq	%rbx
	popq	%rbp
	.cfi_def_cfa %rsp, 8
	retq
.LBB37_2:                               # %func_uInt64_isZero.79
	.cfi_def_cfa %rbp, 16
	movq	%rbx, %rdi
	callq	uInt64_isZero.79
	movzbl	%al, %eax
	addq	$8, %rsp
	popq	%rbx
	popq	%rbp
	.cfi_def_cfa %rsp, 8
	retq
.LBB37_3:                               # %func_uInt64_isZero.91
	.cfi_def_cfa %rbp, 16
	movq	%rbx, %rdi
	callq	uInt64_isZero.91
	movzbl	%al, %eax
	addq	$8, %rsp
	popq	%rbx
	popq	%rbp
	.cfi_def_cfa %rsp, 8
	retq
.LBB37_4:                               # %func_uInt64_isZero.95
	.cfi_def_cfa %rbp, 16
	movq	%rbx, %rdi
	callq	uInt64_isZero.95
	movzbl	%al, %eax
	addq	$8, %rsp
	popq	%rbx
	popq	%rbp
	.cfi_def_cfa %rsp, 8
	retq
.LBB37_5:                               # %func_uInt64_isZero.137
	.cfi_def_cfa %rbp, 16
	movq	%rbx, %rdi
	callq	uInt64_isZero.137
	movzbl	%al, %eax
	addq	$8, %rsp
	popq	%rbx
	popq	%rbp
	.cfi_def_cfa %rsp, 8
	retq
.LBB37_6:                               # %func_uInt64_isZero.149
	.cfi_def_cfa %rbp, 16
	movq	%rbx, %rdi
	callq	uInt64_isZero.149
	movzbl	%al, %eax
	addq	$8, %rsp
	popq	%rbx
	popq	%rbp
	.cfi_def_cfa %rsp, 8
	retq
.LBB37_7:                               # %ctrl0
	.cfi_def_cfa %rbp, 16
	cmpl	$1, %eax
	je	.LBB37_2
# %bb.8:                                # %ctrl1
	cmpl	$2, %eax
	je	.LBB37_3
# %bb.9:                                # %ctrl2
	cmpl	$3, %eax
	je	.LBB37_4
# %bb.10:                               # %ctrl3
	cmpl	$4, %eax
	je	.LBB37_5
	jmp	.LBB37_6
.Lfunc_end37:
	.size	uInt64_isZero, .Lfunc_end37-uInt64_isZero
	.cfi_endproc
                                        # -- End function
	.p2align	4, 0x90         # -- Begin function mapSuffix
	.type	mapSuffix,@function
mapSuffix:                              # @mapSuffix
	.cfi_startproc
# %bb.0:                                # %rand_bb
	pushq	%rbp
	.cfi_def_cfa_offset 16
	.cfi_offset %rbp, -16
	movq	%rsp, %rbp
	.cfi_def_cfa_register %rbp
	pushq	%r15
	pushq	%r14
	pushq	%rbx
	pushq	%rax
	.cfi_offset %rbx, -40
	.cfi_offset %r14, -32
	.cfi_offset %r15, -24
	movq	%rdx, %r14
	movq	%rsi, %r15
	movq	%rdi, %rbx
	callq	get_urand
	cmpl	$0, %eax
	jne	.LBB38_17
# %bb.1:                                # %func_mapSuffix.42
	movq	%rbx, %rdi
	movq	%r15, %rsi
	movq	%r14, %rdx
	callq	mapSuffix.42
	movzbl	%al, %eax
	addq	$8, %rsp
	popq	%rbx
	popq	%r14
	popq	%r15
	popq	%rbp
	.cfi_def_cfa %rsp, 8
	retq
.LBB38_2:                               # %func_mapSuffix.62
	.cfi_def_cfa %rbp, 16
	movq	%rbx, %rdi
	movq	%r15, %rsi
	movq	%r14, %rdx
	callq	mapSuffix.62
	movzbl	%al, %eax
	addq	$8, %rsp
	popq	%rbx
	popq	%r14
	popq	%r15
	popq	%rbp
	.cfi_def_cfa %rsp, 8
	retq
.LBB38_3:                               # %func_mapSuffix.64
	.cfi_def_cfa %rbp, 16
	movq	%rbx, %rdi
	movq	%r15, %rsi
	movq	%r14, %rdx
	callq	mapSuffix.64
	movzbl	%al, %eax
	addq	$8, %rsp
	popq	%rbx
	popq	%r14
	popq	%r15
	popq	%rbp
	.cfi_def_cfa %rsp, 8
	retq
.LBB38_4:                               # %func_mapSuffix.101
	.cfi_def_cfa %rbp, 16
	movq	%rbx, %rdi
	movq	%r15, %rsi
	movq	%r14, %rdx
	callq	mapSuffix.101
	movzbl	%al, %eax
	addq	$8, %rsp
	popq	%rbx
	popq	%r14
	popq	%r15
	popq	%rbp
	.cfi_def_cfa %rsp, 8
	retq
.LBB38_5:                               # %func_mapSuffix.107
	.cfi_def_cfa %rbp, 16
	movq	%rbx, %rdi
	movq	%r15, %rsi
	movq	%r14, %rdx
	callq	mapSuffix.107
	movzbl	%al, %eax
	addq	$8, %rsp
	popq	%rbx
	popq	%r14
	popq	%r15
	popq	%rbp
	.cfi_def_cfa %rsp, 8
	retq
.LBB38_6:                               # %func_mapSuffix.161
	.cfi_def_cfa %rbp, 16
	movq	%rbx, %rdi
	movq	%r15, %rsi
	movq	%r14, %rdx
	callq	mapSuffix.161
	movzbl	%al, %eax
	addq	$8, %rsp
	popq	%rbx
	popq	%r14
	popq	%r15
	popq	%rbp
	.cfi_def_cfa %rsp, 8
	retq
.LBB38_7:                               # %func_mapSuffix.192
	.cfi_def_cfa %rbp, 16
	movq	%rbx, %rdi
	movq	%r15, %rsi
	movq	%r14, %rdx
	callq	mapSuffix.192
	movzbl	%al, %eax
	addq	$8, %rsp
	popq	%rbx
	popq	%r14
	popq	%r15
	popq	%rbp
	.cfi_def_cfa %rsp, 8
	retq
.LBB38_8:                               # %func_mapSuffix.202
	.cfi_def_cfa %rbp, 16
	movq	%rbx, %rdi
	movq	%r15, %rsi
	movq	%r14, %rdx
	callq	mapSuffix.202
	movzbl	%al, %eax
	addq	$8, %rsp
	popq	%rbx
	popq	%r14
	popq	%r15
	popq	%rbp
	.cfi_def_cfa %rsp, 8
	retq
.LBB38_9:                               # %func_mapSuffix.213
	.cfi_def_cfa %rbp, 16
	movq	%rbx, %rdi
	movq	%r15, %rsi
	movq	%r14, %rdx
	callq	mapSuffix.213
	movzbl	%al, %eax
	addq	$8, %rsp
	popq	%rbx
	popq	%r14
	popq	%r15
	popq	%rbp
	.cfi_def_cfa %rsp, 8
	retq
.LBB38_10:                              # %func_mapSuffix.226
	.cfi_def_cfa %rbp, 16
	movq	%rbx, %rdi
	movq	%r15, %rsi
	movq	%r14, %rdx
	callq	mapSuffix.226
	movzbl	%al, %eax
	addq	$8, %rsp
	popq	%rbx
	popq	%r14
	popq	%r15
	popq	%rbp
	.cfi_def_cfa %rsp, 8
	retq
.LBB38_11:                              # %func_mapSuffix.228
	.cfi_def_cfa %rbp, 16
	movq	%rbx, %rdi
	movq	%r15, %rsi
	movq	%r14, %rdx
	callq	mapSuffix.228
	movzbl	%al, %eax
	addq	$8, %rsp
	popq	%rbx
	popq	%r14
	popq	%r15
	popq	%rbp
	.cfi_def_cfa %rsp, 8
	retq
.LBB38_12:                              # %func_mapSuffix.234
	.cfi_def_cfa %rbp, 16
	movq	%rbx, %rdi
	movq	%r15, %rsi
	movq	%r14, %rdx
	callq	mapSuffix.234
	movzbl	%al, %eax
	addq	$8, %rsp
	popq	%rbx
	popq	%r14
	popq	%r15
	popq	%rbp
	.cfi_def_cfa %rsp, 8
	retq
.LBB38_13:                              # %func_mapSuffix.238
	.cfi_def_cfa %rbp, 16
	movq	%rbx, %rdi
	movq	%r15, %rsi
	movq	%r14, %rdx
	callq	mapSuffix.238
	movzbl	%al, %eax
	addq	$8, %rsp
	popq	%rbx
	popq	%r14
	popq	%r15
	popq	%rbp
	.cfi_def_cfa %rsp, 8
	retq
.LBB38_14:                              # %func_mapSuffix.254
	.cfi_def_cfa %rbp, 16
	movq	%rbx, %rdi
	movq	%r15, %rsi
	movq	%r14, %rdx
	callq	mapSuffix.254
	movzbl	%al, %eax
	addq	$8, %rsp
	popq	%rbx
	popq	%r14
	popq	%r15
	popq	%rbp
	.cfi_def_cfa %rsp, 8
	retq
.LBB38_15:                              # %func_mapSuffix.265
	.cfi_def_cfa %rbp, 16
	movq	%rbx, %rdi
	movq	%r15, %rsi
	movq	%r14, %rdx
	callq	mapSuffix.265
	movzbl	%al, %eax
	addq	$8, %rsp
	popq	%rbx
	popq	%r14
	popq	%r15
	popq	%rbp
	.cfi_def_cfa %rsp, 8
	retq
.LBB38_16:                              # %func_mapSuffix.267
	.cfi_def_cfa %rbp, 16
	movq	%rbx, %rdi
	movq	%r15, %rsi
	movq	%r14, %rdx
	callq	mapSuffix.267
	movzbl	%al, %eax
	addq	$8, %rsp
	popq	%rbx
	popq	%r14
	popq	%r15
	popq	%rbp
	.cfi_def_cfa %rsp, 8
	retq
.LBB38_17:                              # %ctrl0
	.cfi_def_cfa %rbp, 16
	cmpl	$1, %eax
	je	.LBB38_2
# %bb.18:                               # %ctrl1
	cmpl	$2, %eax
	je	.LBB38_3
# %bb.19:                               # %ctrl2
	cmpl	$3, %eax
	je	.LBB38_4
# %bb.20:                               # %ctrl3
	cmpl	$4, %eax
	je	.LBB38_5
# %bb.21:                               # %ctrl4
	cmpl	$5, %eax
	je	.LBB38_6
# %bb.22:                               # %ctrl5
	cmpl	$6, %eax
	je	.LBB38_7
# %bb.23:                               # %ctrl6
	cmpl	$7, %eax
	je	.LBB38_8
# %bb.24:                               # %ctrl7
	cmpl	$8, %eax
	je	.LBB38_9
# %bb.25:                               # %ctrl8
	cmpl	$9, %eax
	je	.LBB38_10
# %bb.26:                               # %ctrl9
	cmpl	$10, %eax
	je	.LBB38_11
# %bb.27:                               # %ctrl10
	cmpl	$11, %eax
	je	.LBB38_12
# %bb.28:                               # %ctrl11
	cmpl	$12, %eax
	je	.LBB38_13
# %bb.29:                               # %ctrl12
	cmpl	$13, %eax
	je	.LBB38_14
# %bb.30:                               # %ctrl13
	cmpl	$14, %eax
	je	.LBB38_15
	jmp	.LBB38_16
.Lfunc_end38:
	.size	mapSuffix, .Lfunc_end38-mapSuffix
	.cfi_endproc
                                        # -- End function
	.p2align	4, 0x90         # -- Begin function uncompressStream
	.type	uncompressStream,@function
uncompressStream:                       # @uncompressStream
	.cfi_startproc
# %bb.0:                                # %rand_bb
	pushq	%rbp
	.cfi_def_cfa_offset 16
	.cfi_offset %rbp, -16
	movq	%rsp, %rbp
	.cfi_def_cfa_register %rbp
	pushq	%r14
	pushq	%rbx
	.cfi_offset %rbx, -32
	.cfi_offset %r14, -24
	movq	%rsi, %r14
	movq	%rdi, %rbx
	callq	get_urand
	cmpl	$0, %eax
	jne	.LBB39_17
# %bb.1:                                # %func_uncompressStream.28
	movq	%rbx, %rdi
	movq	%r14, %rsi
	callq	uncompressStream.28
	movzbl	%al, %eax
	popq	%rbx
	popq	%r14
	popq	%rbp
	.cfi_def_cfa %rsp, 8
	retq
.LBB39_2:                               # %func_uncompressStream.45
	.cfi_def_cfa %rbp, 16
	movq	%rbx, %rdi
	movq	%r14, %rsi
	callq	uncompressStream.45
	movzbl	%al, %eax
	popq	%rbx
	popq	%r14
	popq	%rbp
	.cfi_def_cfa %rsp, 8
	retq
.LBB39_3:                               # %func_uncompressStream.105
	.cfi_def_cfa %rbp, 16
	movq	%rbx, %rdi
	movq	%r14, %rsi
	callq	uncompressStream.105
	movzbl	%al, %eax
	popq	%rbx
	popq	%r14
	popq	%rbp
	.cfi_def_cfa %rsp, 8
	retq
.LBB39_4:                               # %func_uncompressStream.182
	.cfi_def_cfa %rbp, 16
	movq	%rbx, %rdi
	movq	%r14, %rsi
	callq	uncompressStream.182
	movzbl	%al, %eax
	popq	%rbx
	popq	%r14
	popq	%rbp
	.cfi_def_cfa %rsp, 8
	retq
.LBB39_5:                               # %func_uncompressStream.188
	.cfi_def_cfa %rbp, 16
	movq	%rbx, %rdi
	movq	%r14, %rsi
	callq	uncompressStream.188
	movzbl	%al, %eax
	popq	%rbx
	popq	%r14
	popq	%rbp
	.cfi_def_cfa %rsp, 8
	retq
.LBB39_6:                               # %func_uncompressStream.194
	.cfi_def_cfa %rbp, 16
	movq	%rbx, %rdi
	movq	%r14, %rsi
	callq	uncompressStream.194
	movzbl	%al, %eax
	popq	%rbx
	popq	%r14
	popq	%rbp
	.cfi_def_cfa %rsp, 8
	retq
.LBB39_7:                               # %func_uncompressStream.215
	.cfi_def_cfa %rbp, 16
	movq	%rbx, %rdi
	movq	%r14, %rsi
	callq	uncompressStream.215
	movzbl	%al, %eax
	popq	%rbx
	popq	%r14
	popq	%rbp
	.cfi_def_cfa %rsp, 8
	retq
.LBB39_8:                               # %func_uncompressStream.217
	.cfi_def_cfa %rbp, 16
	movq	%rbx, %rdi
	movq	%r14, %rsi
	callq	uncompressStream.217
	movzbl	%al, %eax
	popq	%rbx
	popq	%r14
	popq	%rbp
	.cfi_def_cfa %rsp, 8
	retq
.LBB39_9:                               # %func_uncompressStream.220
	.cfi_def_cfa %rbp, 16
	movq	%rbx, %rdi
	movq	%r14, %rsi
	callq	uncompressStream.220
	movzbl	%al, %eax
	popq	%rbx
	popq	%r14
	popq	%rbp
	.cfi_def_cfa %rsp, 8
	retq
.LBB39_10:                              # %func_uncompressStream.225
	.cfi_def_cfa %rbp, 16
	movq	%rbx, %rdi
	movq	%r14, %rsi
	callq	uncompressStream.225
	movzbl	%al, %eax
	popq	%rbx
	popq	%r14
	popq	%rbp
	.cfi_def_cfa %rsp, 8
	retq
.LBB39_11:                              # %func_uncompressStream.233
	.cfi_def_cfa %rbp, 16
	movq	%rbx, %rdi
	movq	%r14, %rsi
	callq	uncompressStream.233
	movzbl	%al, %eax
	popq	%rbx
	popq	%r14
	popq	%rbp
	.cfi_def_cfa %rsp, 8
	retq
.LBB39_12:                              # %func_uncompressStream.237
	.cfi_def_cfa %rbp, 16
	movq	%rbx, %rdi
	movq	%r14, %rsi
	callq	uncompressStream.237
	movzbl	%al, %eax
	popq	%rbx
	popq	%r14
	popq	%rbp
	.cfi_def_cfa %rsp, 8
	retq
.LBB39_13:                              # %func_uncompressStream.248
	.cfi_def_cfa %rbp, 16
	movq	%rbx, %rdi
	movq	%r14, %rsi
	callq	uncompressStream.248
	movzbl	%al, %eax
	popq	%rbx
	popq	%r14
	popq	%rbp
	.cfi_def_cfa %rsp, 8
	retq
.LBB39_14:                              # %func_uncompressStream.252
	.cfi_def_cfa %rbp, 16
	movq	%rbx, %rdi
	movq	%r14, %rsi
	callq	uncompressStream.252
	movzbl	%al, %eax
	popq	%rbx
	popq	%r14
	popq	%rbp
	.cfi_def_cfa %rsp, 8
	retq
.LBB39_15:                              # %func_uncompressStream.253
	.cfi_def_cfa %rbp, 16
	movq	%rbx, %rdi
	movq	%r14, %rsi
	callq	uncompressStream.253
	movzbl	%al, %eax
	popq	%rbx
	popq	%r14
	popq	%rbp
	.cfi_def_cfa %rsp, 8
	retq
.LBB39_16:                              # %func_uncompressStream.266
	.cfi_def_cfa %rbp, 16
	movq	%rbx, %rdi
	movq	%r14, %rsi
	callq	uncompressStream.266
	movzbl	%al, %eax
	popq	%rbx
	popq	%r14
	popq	%rbp
	.cfi_def_cfa %rsp, 8
	retq
.LBB39_17:                              # %ctrl0
	.cfi_def_cfa %rbp, 16
	cmpl	$1, %eax
	je	.LBB39_2
# %bb.18:                               # %ctrl1
	cmpl	$2, %eax
	je	.LBB39_3
# %bb.19:                               # %ctrl2
	cmpl	$3, %eax
	je	.LBB39_4
# %bb.20:                               # %ctrl3
	cmpl	$4, %eax
	je	.LBB39_5
# %bb.21:                               # %ctrl4
	cmpl	$5, %eax
	je	.LBB39_6
# %bb.22:                               # %ctrl5
	cmpl	$6, %eax
	je	.LBB39_7
# %bb.23:                               # %ctrl6
	cmpl	$7, %eax
	je	.LBB39_8
# %bb.24:                               # %ctrl7
	cmpl	$8, %eax
	je	.LBB39_9
# %bb.25:                               # %ctrl8
	cmpl	$9, %eax
	je	.LBB39_10
# %bb.26:                               # %ctrl9
	cmpl	$10, %eax
	je	.LBB39_11
# %bb.27:                               # %ctrl10
	cmpl	$11, %eax
	je	.LBB39_12
# %bb.28:                               # %ctrl11
	cmpl	$12, %eax
	je	.LBB39_13
# %bb.29:                               # %ctrl12
	cmpl	$13, %eax
	je	.LBB39_14
# %bb.30:                               # %ctrl13
	cmpl	$14, %eax
	je	.LBB39_15
	jmp	.LBB39_16
.Lfunc_end39:
	.size	uncompressStream, .Lfunc_end39-uncompressStream
	.cfi_endproc
                                        # -- End function
	.p2align	4, 0x90         # -- Begin function crcError
	.type	crcError,@function
crcError:                               # @crcError
	.cfi_startproc
# %bb.0:                                # %entry
	pushq	%rbp
	.cfi_def_cfa_offset 16
	.cfi_offset %rbp, -16
	movq	%rsp, %rbp
	.cfi_def_cfa_register %rbp
	movq	stderr, %rdi
	movq	progName, %rdx
	movabsq	$.L.str.92, %rsi
	movb	$0, %al
	callq	fprintf
	callq	showFileNames
	callq	cadvise
	movl	$2, %edi
	callq	cleanUpAndFail
.Lfunc_end40:
	.size	crcError, .Lfunc_end40-crcError
	.cfi_endproc
                                        # -- End function
	.p2align	4, 0x90         # -- Begin function compressedStreamEOF
	.type	compressedStreamEOF,@function
compressedStreamEOF:                    # @compressedStreamEOF
	.cfi_startproc
# %bb.0:                                # %entry
	pushq	%rbp
	.cfi_def_cfa_offset 16
	.cfi_offset %rbp, -16
	movq	%rsp, %rbp
	.cfi_def_cfa_register %rbp
	cmpb	$0, noisy
	je	.LBB41_2
# %bb.1:                                # %if.then
	movq	stderr, %rdi
	movq	progName, %rdx
	movabsq	$.L.str.93, %rsi
	movb	$0, %al
	callq	fprintf
	movq	progName, %rdi
	callq	perror
	callq	showFileNames
	callq	cadvise
.LBB41_2:                               # %if.end
	movl	$2, %edi
	callq	cleanUpAndFail
.Lfunc_end41:
	.size	compressedStreamEOF, .Lfunc_end41-compressedStreamEOF
	.cfi_endproc
                                        # -- End function
	.p2align	4, 0x90         # -- Begin function testStream
	.type	testStream,@function
testStream:                             # @testStream
	.cfi_startproc
# %bb.0:                                # %rand_bb
	pushq	%rbp
	.cfi_def_cfa_offset 16
	.cfi_offset %rbp, -16
	movq	%rsp, %rbp
	.cfi_def_cfa_register %rbp
	pushq	%rbx
	pushq	%rax
	.cfi_offset %rbx, -24
	movq	%rdi, %rbx
	callq	get_urand
	cmpl	$0, %eax
	jne	.LBB42_17
# %bb.1:                                # %func_testStream.1
	movq	%rbx, %rdi
	callq	testStream.1
	movzbl	%al, %eax
	addq	$8, %rsp
	popq	%rbx
	popq	%rbp
	.cfi_def_cfa %rsp, 8
	retq
.LBB42_2:                               # %func_testStream.6
	.cfi_def_cfa %rbp, 16
	movq	%rbx, %rdi
	callq	testStream.6
	movzbl	%al, %eax
	addq	$8, %rsp
	popq	%rbx
	popq	%rbp
	.cfi_def_cfa %rsp, 8
	retq
.LBB42_3:                               # %func_testStream.31
	.cfi_def_cfa %rbp, 16
	movq	%rbx, %rdi
	callq	testStream.31
	movzbl	%al, %eax
	addq	$8, %rsp
	popq	%rbx
	popq	%rbp
	.cfi_def_cfa %rsp, 8
	retq
.LBB42_4:                               # %func_testStream.46
	.cfi_def_cfa %rbp, 16
	movq	%rbx, %rdi
	callq	testStream.46
	movzbl	%al, %eax
	addq	$8, %rsp
	popq	%rbx
	popq	%rbp
	.cfi_def_cfa %rsp, 8
	retq
.LBB42_5:                               # %func_testStream.78
	.cfi_def_cfa %rbp, 16
	movq	%rbx, %rdi
	callq	testStream.78
	movzbl	%al, %eax
	addq	$8, %rsp
	popq	%rbx
	popq	%rbp
	.cfi_def_cfa %rsp, 8
	retq
.LBB42_6:                               # %func_testStream.96
	.cfi_def_cfa %rbp, 16
	movq	%rbx, %rdi
	callq	testStream.96
	movzbl	%al, %eax
	addq	$8, %rsp
	popq	%rbx
	popq	%rbp
	.cfi_def_cfa %rsp, 8
	retq
.LBB42_7:                               # %func_testStream.97
	.cfi_def_cfa %rbp, 16
	movq	%rbx, %rdi
	callq	testStream.97
	movzbl	%al, %eax
	addq	$8, %rsp
	popq	%rbx
	popq	%rbp
	.cfi_def_cfa %rsp, 8
	retq
.LBB42_8:                               # %func_testStream.120
	.cfi_def_cfa %rbp, 16
	movq	%rbx, %rdi
	callq	testStream.120
	movzbl	%al, %eax
	addq	$8, %rsp
	popq	%rbx
	popq	%rbp
	.cfi_def_cfa %rsp, 8
	retq
.LBB42_9:                               # %func_testStream.134
	.cfi_def_cfa %rbp, 16
	movq	%rbx, %rdi
	callq	testStream.134
	movzbl	%al, %eax
	addq	$8, %rsp
	popq	%rbx
	popq	%rbp
	.cfi_def_cfa %rsp, 8
	retq
.LBB42_10:                              # %func_testStream.141
	.cfi_def_cfa %rbp, 16
	movq	%rbx, %rdi
	callq	testStream.141
	movzbl	%al, %eax
	addq	$8, %rsp
	popq	%rbx
	popq	%rbp
	.cfi_def_cfa %rsp, 8
	retq
.LBB42_11:                              # %func_testStream.143
	.cfi_def_cfa %rbp, 16
	movq	%rbx, %rdi
	callq	testStream.143
	movzbl	%al, %eax
	addq	$8, %rsp
	popq	%rbx
	popq	%rbp
	.cfi_def_cfa %rsp, 8
	retq
.LBB42_12:                              # %func_testStream.187
	.cfi_def_cfa %rbp, 16
	movq	%rbx, %rdi
	callq	testStream.187
	movzbl	%al, %eax
	addq	$8, %rsp
	popq	%rbx
	popq	%rbp
	.cfi_def_cfa %rsp, 8
	retq
.LBB42_13:                              # %func_testStream.198
	.cfi_def_cfa %rbp, 16
	movq	%rbx, %rdi
	callq	testStream.198
	movzbl	%al, %eax
	addq	$8, %rsp
	popq	%rbx
	popq	%rbp
	.cfi_def_cfa %rsp, 8
	retq
.LBB42_14:                              # %func_testStream.203
	.cfi_def_cfa %rbp, 16
	movq	%rbx, %rdi
	callq	testStream.203
	movzbl	%al, %eax
	addq	$8, %rsp
	popq	%rbx
	popq	%rbp
	.cfi_def_cfa %rsp, 8
	retq
.LBB42_15:                              # %func_testStream.204
	.cfi_def_cfa %rbp, 16
	movq	%rbx, %rdi
	callq	testStream.204
	movzbl	%al, %eax
	addq	$8, %rsp
	popq	%rbx
	popq	%rbp
	.cfi_def_cfa %rsp, 8
	retq
.LBB42_16:                              # %func_testStream.209
	.cfi_def_cfa %rbp, 16
	movq	%rbx, %rdi
	callq	testStream.209
	movzbl	%al, %eax
	addq	$8, %rsp
	popq	%rbx
	popq	%rbp
	.cfi_def_cfa %rsp, 8
	retq
.LBB42_17:                              # %ctrl0
	.cfi_def_cfa %rbp, 16
	cmpl	$1, %eax
	je	.LBB42_2
# %bb.18:                               # %ctrl1
	cmpl	$2, %eax
	je	.LBB42_3
# %bb.19:                               # %ctrl2
	cmpl	$3, %eax
	je	.LBB42_4
# %bb.20:                               # %ctrl3
	cmpl	$4, %eax
	je	.LBB42_5
# %bb.21:                               # %ctrl4
	cmpl	$5, %eax
	je	.LBB42_6
# %bb.22:                               # %ctrl5
	cmpl	$6, %eax
	je	.LBB42_7
# %bb.23:                               # %ctrl6
	cmpl	$7, %eax
	je	.LBB42_8
# %bb.24:                               # %ctrl7
	cmpl	$8, %eax
	je	.LBB42_9
# %bb.25:                               # %ctrl8
	cmpl	$9, %eax
	je	.LBB42_10
# %bb.26:                               # %ctrl9
	cmpl	$10, %eax
	je	.LBB42_11
# %bb.27:                               # %ctrl10
	cmpl	$11, %eax
	je	.LBB42_12
# %bb.28:                               # %ctrl11
	cmpl	$12, %eax
	je	.LBB42_13
# %bb.29:                               # %ctrl12
	cmpl	$13, %eax
	je	.LBB42_14
# %bb.30:                               # %ctrl13
	cmpl	$14, %eax
	je	.LBB42_15
	jmp	.LBB42_16
.Lfunc_end42:
	.size	testStream, .Lfunc_end42-testStream
	.cfi_endproc
                                        # -- End function
	.p2align	4, 0x90         # -- Begin function testStream.1
	.type	testStream.1,@function
testStream.1:                           # @testStream.1
	.cfi_startproc
# %bb.0:                                # %entry
	pushq	%rbp
	.cfi_def_cfa_offset 16
	.cfi_offset %rbp, -16
	movq	%rsp, %rbp
	.cfi_def_cfa_register %rbp
	pushq	%rbx
	subq	$10088, %rsp            # imm = 0x2768
	.cfi_offset %rbx, -24
	movl	$682572991, -56(%rbp)   # imm = 0x28AF3CBF
	movq	%rdi, -32(%rbp)
	movq	$0, -48(%rbp)
	movl	$0, -24(%rbp)
	movl	$0, -36(%rbp)
	movq	-32(%rbp), %rdi
	callq	ferror
	cmpl	$0, %eax
	je	.LBB43_2
# %bb.1:                                # %if.then
	jmp	.LBB43_38
.LBB43_2:                               # %if.end
	jmp	.LBB43_3
.LBB43_3:                               # %while.body
                                        # =>This Loop Header: Depth=1
                                        #     Child Loop BB43_7 Depth 2
                                        #     Child Loop BB43_16 Depth 2
	leaq	-5088(%rbp), %r8
	movq	-32(%rbp), %rsi
	movl	verbosity, %edx
	movzbl	smallMode, %ecx
	movl	-24(%rbp), %r9d
	leaq	-16(%rbp), %rdi
	callq	BZ2_bzReadOpen
	movq	%rax, -48(%rbp)
	cmpq	$0, -48(%rbp)
	je	.LBB43_5
# %bb.4:                                # %lor.lhs.false
                                        #   in Loop: Header=BB43_3 Depth=1
	cmpl	$0, -16(%rbp)
	je	.LBB43_6
.LBB43_5:                               # %if.then5
	jmp	.LBB43_32
.LBB43_6:                               # %if.end6
                                        #   in Loop: Header=BB43_3 Depth=1
	movl	-36(%rbp), %eax
	addl	$1, %eax
	movl	%eax, -36(%rbp)
.LBB43_7:                               # %while.cond7
                                        #   Parent Loop BB43_3 Depth=1
                                        # =>  This Inner Loop Header: Depth=2
	cmpl	$0, -16(%rbp)
	jne	.LBB43_11
# %bb.8:                                # %while.body10
                                        #   in Loop: Header=BB43_7 Depth=2
	leaq	-10096(%rbp), %rdx
	movq	-48(%rbp), %rsi
	leaq	-16(%rbp), %rdi
	movl	$5000, %ecx             # imm = 0x1388
	callq	BZ2_bzRead
	movl	%eax, -80(%rbp)
	cmpl	$-5, -16(%rbp)
	jne	.LBB43_10
# %bb.9:                                # %if.then15
	jmp	.LBB43_32
.LBB43_10:                              # %if.end16
                                        #   in Loop: Header=BB43_7 Depth=2
	jmp	.LBB43_7
.LBB43_11:                              # %while.end
                                        #   in Loop: Header=BB43_3 Depth=1
	cmpl	$4, -16(%rbp)
	je	.LBB43_13
# %bb.12:                               # %if.then19
	jmp	.LBB43_32
.LBB43_13:                              # %if.end20
                                        #   in Loop: Header=BB43_3 Depth=1
	movq	-48(%rbp), %rsi
	leaq	-16(%rbp), %rdi
	leaq	-64(%rbp), %rdx
	leaq	-24(%rbp), %rcx
	callq	BZ2_bzReadGetUnused
	cmpl	$0, -16(%rbp)
	je	.LBB43_15
# %bb.14:                               # %if.then23
	movabsq	$.L.str.98, %rdi
	callq	panic
.LBB43_15:                              # %if.end24
                                        #   in Loop: Header=BB43_3 Depth=1
	movq	-64(%rbp), %rax
	movq	%rax, -72(%rbp)
	movl	$0, -20(%rbp)
.LBB43_16:                              # %for.cond
                                        #   Parent Loop BB43_3 Depth=1
                                        # =>  This Inner Loop Header: Depth=2
	movl	-20(%rbp), %eax
	cmpl	-24(%rbp), %eax
	jge	.LBB43_19
# %bb.17:                               # %for.body
                                        #   in Loop: Header=BB43_16 Depth=2
	movq	-72(%rbp), %rax
	movslq	-20(%rbp), %rcx
	movb	(%rax,%rcx), %al
	movslq	-20(%rbp), %rcx
	movb	%al, -5088(%rbp,%rcx)
# %bb.18:                               # %for.inc
                                        #   in Loop: Header=BB43_16 Depth=2
	movl	-20(%rbp), %eax
	addl	$1, %eax
	movl	%eax, -20(%rbp)
	jmp	.LBB43_16
.LBB43_19:                              # %for.end
                                        #   in Loop: Header=BB43_3 Depth=1
	movq	-48(%rbp), %rsi
	leaq	-16(%rbp), %rdi
	callq	BZ2_bzReadClose
	cmpl	$0, -16(%rbp)
	je	.LBB43_21
# %bb.20:                               # %if.then32
	movabsq	$.L.str.98, %rdi
	callq	panic
.LBB43_21:                              # %if.end33
                                        #   in Loop: Header=BB43_3 Depth=1
	cmpl	$0, -24(%rbp)
	jne	.LBB43_24
# %bb.22:                               # %land.lhs.true
                                        #   in Loop: Header=BB43_3 Depth=1
	movq	-32(%rbp), %rdi
	callq	myfeof
	movzbl	%al, %eax
	cmpl	$0, %eax
	je	.LBB43_24
# %bb.23:                               # %if.then39
	jmp	.LBB43_25
.LBB43_24:                              # %if.end40
                                        #   in Loop: Header=BB43_3 Depth=1
	jmp	.LBB43_3
.LBB43_25:                              # %while.end41
	movq	-32(%rbp), %rdi
	callq	ferror
	cmpl	$0, %eax
	je	.LBB43_27
# %bb.26:                               # %if.then44
	jmp	.LBB43_38
.LBB43_27:                              # %if.end45
	movq	-32(%rbp), %rdi
	callq	fclose
	movl	%eax, -52(%rbp)
	cmpl	$-1, -52(%rbp)
	jne	.LBB43_29
# %bb.28:                               # %if.then49
	jmp	.LBB43_38
.LBB43_29:                              # %if.end50
	cmpl	$2, verbosity
	jl	.LBB43_31
# %bb.30:                               # %if.then53
	movq	stderr, %rdi
	movabsq	$.L.str.89, %rsi
	movb	$0, %al
	callq	fprintf
.LBB43_31:                              # %if.end55
	movb	$1, -9(%rbp)
	jmp	.LBB43_50
.LBB43_32:                              # %errhandler
	movq	-48(%rbp), %rsi
	leaq	-76(%rbp), %rdi
	callq	BZ2_bzReadClose
	cmpl	$0, verbosity
	jne	.LBB43_34
# %bb.33:                               # %if.then58
	movq	stderr, %rdi
	movq	progName, %rdx
	movabsq	$.L.str.99, %rsi
	movabsq	$inName, %rcx
	movb	$0, %al
	callq	fprintf
.LBB43_34:                              # %if.end60
	movl	-16(%rbp), %eax
	addl	$9, %eax
	movl	%eax, %ecx
	subl	$6, %ecx
	ja	.LBB43_49
# %bb.35:                               # %if.end60
	movq	.LJTI43_0(,%rax,8), %rax
	jmpq	*%rax
.LBB43_36:                              # %sw.bb
	callq	configError
.LBB43_37:                              # %sw.bb61
	jmp	.LBB43_38
.LBB43_38:                              # %errhandler_io
	callq	ioError
.LBB43_39:                              # %sw.bb62
	movq	stderr, %rdi
	movabsq	$.L.str.100, %rsi
	movb	$0, %al
	callq	fprintf
	movb	$0, -9(%rbp)
	jmp	.LBB43_50
.LBB43_40:                              # %sw.bb64
	callq	outOfMemory
.LBB43_41:                              # %sw.bb65
	movq	stderr, %rdi
	movabsq	$.L.str.101, %rsi
	movb	$0, %al
	callq	fprintf
	movb	$0, -9(%rbp)
	jmp	.LBB43_50
.LBB43_42:                              # %sw.bb67
	movq	-32(%rbp), %rax
	cmpq	stdin, %rax
	je	.LBB43_44
# %bb.43:                               # %if.then70
	movq	-32(%rbp), %rdi
	callq	fclose
.LBB43_44:                              # %if.end72
	cmpl	$1, -36(%rbp)
	jne	.LBB43_46
# %bb.45:                               # %if.then75
	movq	stderr, %rdi
	movabsq	$.L.str.102, %rsi
	movb	$0, %al
	callq	fprintf
	movb	$0, -9(%rbp)
	jmp	.LBB43_50
.LBB43_46:                              # %if.else
	cmpb	$0, noisy
	je	.LBB43_48
# %bb.47:                               # %if.then78
	movq	stderr, %rdi
	movabsq	$.L.str.103, %rsi
	movb	$0, %al
	callq	fprintf
.LBB43_48:                              # %if.end80
	movb	$1, -9(%rbp)
	jmp	.LBB43_50
.LBB43_49:                              # %sw.default
	movabsq	$.L.str.104, %rdi
	callq	panic
.LBB43_50:                              # %return
	movb	-9(%rbp), %bl
	cmpl	$682572991, -56(%rbp)   # imm = 0x28AF3CBF
	jne	.LBB43_52
.LBB43_51:
	movzbl	%bl, %eax
	addq	$10088, %rsp            # imm = 0x2768
	popq	%rbx
	popq	%rbp
	.cfi_def_cfa %rsp, 8
	retq
.LBB43_52:                              # %func_exit
	.cfi_def_cfa %rbp, 16
	callq	detect_breach
	jmp	.LBB43_51
.Lfunc_end43:
	.size	testStream.1, .Lfunc_end43-testStream.1
	.cfi_endproc
	.section	.rodata,"a",@progbits
	.p2align	3
.LJTI43_0:
	.quad	.LBB43_36
	.quad	.LBB43_49
	.quad	.LBB43_41
	.quad	.LBB43_37
	.quad	.LBB43_42
	.quad	.LBB43_39
	.quad	.LBB43_40
                                        # -- End function
	.text
	.p2align	4, 0x90         # -- Begin function copyFileName.2
	.type	copyFileName.2,@function
copyFileName.2:                         # @copyFileName.2
	.cfi_startproc
# %bb.0:                                # %entry
	pushq	%rbp
	.cfi_def_cfa_offset 16
	.cfi_offset %rbp, -16
	movq	%rsp, %rbp
	.cfi_def_cfa_register %rbp
	subq	$32, %rsp
	movl	$537647978, -12(%rbp)   # imm = 0x200BDB6A
	movq	%rdi, -24(%rbp)
	movq	%rsi, -8(%rbp)
	movq	-8(%rbp), %rdi
	callq	strlen
	cmpq	$1024, %rax             # imm = 0x400
	jbe	.LBB44_2
# %bb.1:                                # %if.then
	movq	stderr, %rdi
	movq	-8(%rbp), %rdx
	movabsq	$.L.str.47, %rsi
	movl	$1024, %ecx             # imm = 0x400
	movb	$0, %al
	callq	fprintf
	movl	$1, %edi
	callq	setExit
	movl	exitValue, %edi
	callq	exit
.LBB44_2:                               # %if.end
	movq	-24(%rbp), %rdi
	movq	-8(%rbp), %rsi
	movl	$1024, %edx             # imm = 0x400
	callq	strncpy
	movq	-24(%rbp), %rax
	movb	$0, 1024(%rax)
	cmpl	$537647978, -12(%rbp)   # imm = 0x200BDB6A
	jne	.LBB44_4
.LBB44_3:
	addq	$32, %rsp
	popq	%rbp
	.cfi_def_cfa %rsp, 8
	retq
.LBB44_4:                               # %func_exit
	.cfi_def_cfa %rbp, 16
	callq	detect_breach
	jmp	.LBB44_3
.Lfunc_end44:
	.size	copyFileName.2, .Lfunc_end44-copyFileName.2
	.cfi_endproc
                                        # -- End function
	.p2align	4, 0x90         # -- Begin function compress.3
	.type	compress.3,@function
compress.3:                             # @compress.3
	.cfi_startproc
# %bb.0:                                # %entry
	pushq	%rbp
	.cfi_def_cfa_offset 16
	.cfi_offset %rbp, -16
	movq	%rsp, %rbp
	.cfi_def_cfa_register %rbp
	pushq	%r14
	pushq	%rbx
	subq	$192, %rsp
	.cfi_offset %rbx, -32
	.cfi_offset %r14, -24
	movl	$359514022, -64(%rbp)   # imm = 0x156DBFA6
	movq	%rdi, -56(%rbp)
	movb	$0, deleteOutputOnInterrupt
	cmpq	$0, -56(%rbp)
	jne	.LBB45_3
# %bb.1:                                # %land.lhs.true
	cmpl	$1, srcMode
	je	.LBB45_3
# %bb.2:                                # %if.then
	movabsq	$.L.str.53, %rdi
	callq	panic
.LBB45_3:                               # %if.end
	movl	srcMode(%rip), %eax
	movl	%eax, %ecx
	subl	$1, %ecx
	je	.LBB45_6
	jmp	.LBB45_4
.LBB45_4:                               # %if.end
	movl	%eax, %ecx
	subl	$2, %ecx
	je	.LBB45_8
	jmp	.LBB45_5
.LBB45_5:                               # %if.end
	subl	$3, %eax
	je	.LBB45_7
	jmp	.LBB45_9
.LBB45_6:                               # %sw.bb
	movabsq	$inName, %rdi
	movabsq	$.L.str.54, %rsi
	callq	copyFileName
	movabsq	$outName, %rdi
	movabsq	$.L.str.55, %rsi
	callq	copyFileName
	jmp	.LBB45_9
.LBB45_7:                               # %sw.bb2
	movq	-56(%rbp), %rsi
	movabsq	$inName, %rdi
	callq	copyFileName
	movq	-56(%rbp), %rsi
	movabsq	$outName, %rdi
	callq	copyFileName
	movabsq	$outName, %rdi
	movabsq	$.L.str.30, %rsi
	callq	strcat
	jmp	.LBB45_9
.LBB45_8:                               # %sw.bb3
	movq	-56(%rbp), %rsi
	movabsq	$inName, %rdi
	callq	copyFileName
	movabsq	$outName, %rdi
	movabsq	$.L.str.55, %rsi
	callq	copyFileName
.LBB45_9:                               # %sw.epilog
	cmpl	$1, srcMode
	je	.LBB45_14
# %bb.10:                               # %land.lhs.true5
	movabsq	$inName, %rdi
	callq	containsDubiousChars
	movzbl	%al, %eax
	cmpl	$0, %eax
	je	.LBB45_14
# %bb.11:                               # %if.then7
	cmpb	$0, noisy
	je	.LBB45_13
# %bb.12:                               # %if.then9
	movq	stderr, %rdi
	movq	progName, %rdx
	movabsq	$.L.str.56, %rsi
	movabsq	$inName, %rcx
	movb	$0, %al
	callq	fprintf
.LBB45_13:                              # %if.end11
	movl	$1, %edi
	callq	setExit
	jmp	.LBB45_80
.LBB45_14:                              # %if.end12
	cmpl	$1, srcMode
	je	.LBB45_17
# %bb.15:                               # %land.lhs.true15
	movabsq	$inName, %rdi
	callq	fileExists
	cmpb	$0, %al
	jne	.LBB45_17
# %bb.16:                               # %if.then18
	movq	stderr, %rbx
	movq	progName, %r14
	callq	__errno_location
	movl	(%rax), %edi
	callq	strerror
	movq	%rbx, %rdi
	movabsq	$.L.str.57, %rsi
	movq	%r14, %rdx
	movabsq	$inName, %rcx
	movq	%rax, %r8
	movb	$0, %al
	callq	fprintf
	movl	$1, %edi
	callq	setExit
	jmp	.LBB45_80
.LBB45_17:                              # %if.end22
	movl	$0, -20(%rbp)
.LBB45_18:                              # %for.cond
                                        # =>This Inner Loop Header: Depth=1
	cmpl	$4, -20(%rbp)
	jge	.LBB45_25
# %bb.19:                               # %for.body
                                        #   in Loop: Header=BB45_18 Depth=1
	movslq	-20(%rbp), %rax
	movq	zSuffix(,%rax,8), %rsi
	movabsq	$inName, %rdi
	callq	hasSuffix
	cmpb	$0, %al
	je	.LBB45_23
# %bb.20:                               # %if.then27
	cmpb	$0, noisy
	je	.LBB45_22
# %bb.21:                               # %if.then29
	movq	stderr, %rdi
	movq	progName, %rdx
	movslq	-20(%rbp), %rax
	movq	zSuffix(,%rax,8), %r8
	movabsq	$.L.str.58, %rsi
	movabsq	$inName, %rcx
	movb	$0, %al
	callq	fprintf
.LBB45_22:                              # %if.end33
	movl	$1, %edi
	callq	setExit
	jmp	.LBB45_80
.LBB45_23:                              # %if.end34
                                        #   in Loop: Header=BB45_18 Depth=1
	jmp	.LBB45_24
.LBB45_24:                              # %for.inc
                                        #   in Loop: Header=BB45_18 Depth=1
	movl	-20(%rbp), %eax
	addl	$1, %eax
	movl	%eax, -20(%rbp)
	jmp	.LBB45_18
.LBB45_25:                              # %for.end
	cmpl	$3, srcMode
	je	.LBB45_27
# %bb.26:                               # %lor.lhs.false
	cmpl	$2, srcMode
	jne	.LBB45_30
.LBB45_27:                              # %if.then39
	movabsq	$inName, %rdi
	leaq	-208(%rbp), %rsi
	callq	stat
	movl	-184(%rbp), %eax
	andl	$61440, %eax            # imm = 0xF000
	cmpl	$16384, %eax            # imm = 0x4000
	jne	.LBB45_29
# %bb.28:                               # %if.then43
	movq	stderr, %rdi
	movq	progName, %rdx
	movabsq	$.L.str.59, %rsi
	movabsq	$inName, %rcx
	movb	$0, %al
	callq	fprintf
	movl	$1, %edi
	callq	setExit
	jmp	.LBB45_80
.LBB45_29:                              # %if.end45
	jmp	.LBB45_30
.LBB45_30:                              # %if.end46
	cmpl	$3, srcMode
	jne	.LBB45_36
# %bb.31:                               # %land.lhs.true49
	cmpb	$0, forceOverwrite
	jne	.LBB45_36
# %bb.32:                               # %land.lhs.true51
	movabsq	$inName, %rdi
	callq	notAStandardFile
	movzbl	%al, %eax
	cmpl	$0, %eax
	je	.LBB45_36
# %bb.33:                               # %if.then55
	cmpb	$0, noisy
	je	.LBB45_35
# %bb.34:                               # %if.then57
	movq	stderr, %rdi
	movq	progName, %rdx
	movabsq	$.L.str.60, %rsi
	movabsq	$inName, %rcx
	movb	$0, %al
	callq	fprintf
.LBB45_35:                              # %if.end59
	movl	$1, %edi
	callq	setExit
	jmp	.LBB45_80
.LBB45_36:                              # %if.end60
	cmpl	$3, srcMode
	jne	.LBB45_42
# %bb.37:                               # %land.lhs.true63
	movabsq	$outName, %rdi
	callq	fileExists
	movzbl	%al, %eax
	cmpl	$0, %eax
	je	.LBB45_42
# %bb.38:                               # %if.then67
	cmpb	$0, forceOverwrite
	je	.LBB45_40
# %bb.39:                               # %if.then69
	movabsq	$outName, %rdi
	callq	remove
	jmp	.LBB45_41
.LBB45_40:                              # %if.else
	movq	stderr, %rdi
	movq	progName, %rdx
	movabsq	$.L.str.61, %rsi
	movabsq	$outName, %rcx
	movb	$0, %al
	callq	fprintf
	movl	$1, %edi
	callq	setExit
	jmp	.LBB45_80
.LBB45_41:                              # %if.end72
	jmp	.LBB45_42
.LBB45_42:                              # %if.end73
	cmpl	$3, srcMode
	jne	.LBB45_46
# %bb.43:                               # %land.lhs.true76
	cmpb	$0, forceOverwrite
	jne	.LBB45_46
# %bb.44:                               # %land.lhs.true78
	movabsq	$inName, %rdi
	callq	countHardLinks
	movl	%eax, -44(%rbp)
	cmpl	$0, %eax
	jle	.LBB45_46
# %bb.45:                               # %if.then82
	movq	stderr, %rdi
	movq	progName, %rdx
	movl	-44(%rbp), %r8d
	movl	-44(%rbp), %eax
	cmpl	$1, %eax
	movabsq	$.L.str.63, %rax
	movabsq	$.L.str.34, %r9
	cmovgq	%rax, %r9
	movabsq	$.L.str.62, %rsi
	movabsq	$inName, %rcx
	movb	$0, %al
	callq	fprintf
	movl	$1, %edi
	callq	setExit
	jmp	.LBB45_80
.LBB45_46:                              # %if.end86
	cmpl	$3, srcMode
	jne	.LBB45_48
# %bb.47:                               # %if.then89
	movabsq	$inName, %rdi
	callq	saveInputFileMetaInfo
.LBB45_48:                              # %if.end90
	movl	srcMode(%rip), %eax
	movl	%eax, %ecx
	subl	$1, %ecx
	je	.LBB45_51
	jmp	.LBB45_49
.LBB45_49:                              # %if.end90
	movl	%eax, %ecx
	subl	$2, %ecx
	je	.LBB45_54
	jmp	.LBB45_50
.LBB45_50:                              # %if.end90
	subl	$3, %eax
	je	.LBB45_61
	jmp	.LBB45_70
.LBB45_51:                              # %sw.bb91
	movq	stdin, %rax
	movq	%rax, -32(%rbp)
	movq	stdout, %rax
	movq	%rax, -40(%rbp)
	movq	stdout, %rdi
	callq	fileno
	movl	%eax, %edi
	callq	isatty
	cmpl	$0, %eax
	je	.LBB45_53
# %bb.52:                               # %if.then95
	movq	stderr, %rdi
	movq	progName, %rdx
	movabsq	$.L.str.64, %rsi
	movb	$0, %al
	callq	fprintf
	movq	stderr, %rdi
	movq	progName, %rdx
	movq	progName, %rcx
	movabsq	$.L.str.65, %rsi
	movb	$0, %al
	callq	fprintf
	movl	$1, %edi
	callq	setExit
	jmp	.LBB45_80
.LBB45_53:                              # %if.end98
	jmp	.LBB45_71
.LBB45_54:                              # %sw.bb99
	movabsq	$inName, %rdi
	movabsq	$.L.str.66, %rsi
	callq	fopen
	movq	%rax, -32(%rbp)
	movq	stdout, %rax
	movq	%rax, -40(%rbp)
	movq	stdout, %rdi
	callq	fileno
	movl	%eax, %edi
	callq	isatty
	cmpl	$0, %eax
	je	.LBB45_58
# %bb.55:                               # %if.then104
	movq	stderr, %rdi
	movq	progName, %rdx
	movabsq	$.L.str.64, %rsi
	movb	$0, %al
	callq	fprintf
	movq	stderr, %rdi
	movq	progName, %rdx
	movq	progName, %rcx
	movabsq	$.L.str.65, %rsi
	movb	$0, %al
	callq	fprintf
	cmpq	$0, -32(%rbp)
	je	.LBB45_57
# %bb.56:                               # %if.then109
	movq	-32(%rbp), %rdi
	callq	fclose
.LBB45_57:                              # %if.end111
	movl	$1, %edi
	callq	setExit
	jmp	.LBB45_80
.LBB45_58:                              # %if.end112
	cmpq	$0, -32(%rbp)
	jne	.LBB45_60
# %bb.59:                               # %if.then115
	movq	stderr, %rbx
	movq	progName, %r14
	callq	__errno_location
	movl	(%rax), %edi
	callq	strerror
	movq	%rbx, %rdi
	movabsq	$.L.str.57, %rsi
	movq	%r14, %rdx
	movabsq	$inName, %rcx
	movq	%rax, %r8
	movb	$0, %al
	callq	fprintf
	movl	$1, %edi
	callq	setExit
	jmp	.LBB45_80
.LBB45_60:                              # %if.end119
	jmp	.LBB45_71
.LBB45_61:                              # %sw.bb120
	movabsq	$inName, %rdi
	movabsq	$.L.str.66, %rsi
	callq	fopen
	movq	%rax, -32(%rbp)
	movabsq	$outName, %rdi
	movabsq	$.L.str.67, %rsi
	callq	fopen_output_safely
	movq	%rax, -40(%rbp)
	cmpq	$0, -40(%rbp)
	jne	.LBB45_65
# %bb.62:                               # %if.then125
	movq	stderr, %rbx
	movq	progName, %r14
	callq	__errno_location
	movl	(%rax), %edi
	callq	strerror
	movq	%rbx, %rdi
	movabsq	$.L.str.68, %rsi
	movq	%r14, %rdx
	movabsq	$outName, %rcx
	movq	%rax, %r8
	movb	$0, %al
	callq	fprintf
	cmpq	$0, -32(%rbp)
	je	.LBB45_64
# %bb.63:                               # %if.then131
	movq	-32(%rbp), %rdi
	callq	fclose
.LBB45_64:                              # %if.end133
	movl	$1, %edi
	callq	setExit
	jmp	.LBB45_80
.LBB45_65:                              # %if.end134
	cmpq	$0, -32(%rbp)
	jne	.LBB45_69
# %bb.66:                               # %if.then137
	movq	stderr, %rbx
	movq	progName, %r14
	callq	__errno_location
	movl	(%rax), %edi
	callq	strerror
	movq	%rbx, %rdi
	movabsq	$.L.str.57, %rsi
	movq	%r14, %rdx
	movabsq	$inName, %rcx
	movq	%rax, %r8
	movb	$0, %al
	callq	fprintf
	cmpq	$0, -40(%rbp)
	je	.LBB45_68
# %bb.67:                               # %if.then143
	movq	-40(%rbp), %rdi
	callq	fclose
.LBB45_68:                              # %if.end145
	movl	$1, %edi
	callq	setExit
	jmp	.LBB45_80
.LBB45_69:                              # %if.end146
	jmp	.LBB45_71
.LBB45_70:                              # %sw.default
	movabsq	$.L.str.69, %rdi
	callq	panic
.LBB45_71:                              # %sw.epilog147
	cmpl	$1, verbosity
	jl	.LBB45_73
# %bb.72:                               # %if.then150
	movq	stderr, %rdi
	movabsq	$.L.str.70, %rsi
	movabsq	$inName, %rdx
	movb	$0, %al
	callq	fprintf
	movabsq	$inName, %rdi
	callq	pad
	movq	stderr, %rdi
	callq	fflush
.LBB45_73:                              # %if.end153
	movq	-40(%rbp), %rax
	movq	%rax, outputHandleJustInCase
	movb	$1, deleteOutputOnInterrupt
	movq	-32(%rbp), %rdi
	movq	-40(%rbp), %rsi
	callq	compressStream
	movq	$0, outputHandleJustInCase
	cmpl	$3, srcMode
	jne	.LBB45_79
# %bb.74:                               # %if.then156
	movabsq	$outName, %rdi
	callq	applySavedMetaInfoToOutputFile
	movb	$0, deleteOutputOnInterrupt
	cmpb	$0, keepInputFiles
	jne	.LBB45_78
# %bb.75:                               # %if.then158
	movabsq	$inName, %rdi
	callq	remove
	movl	%eax, -60(%rbp)
	cmpl	$0, -60(%rbp)
	je	.LBB45_77
# %bb.76:                               # %if.then162
	callq	ioError
.LBB45_77:                              # %if.end163
	jmp	.LBB45_78
.LBB45_78:                              # %if.end164
	jmp	.LBB45_79
.LBB45_79:                              # %if.end165
	movb	$0, deleteOutputOnInterrupt
.LBB45_80:                              # %return
	cmpl	$359514022, -64(%rbp)   # imm = 0x156DBFA6
	jne	.LBB45_82
.LBB45_81:
	addq	$192, %rsp
	popq	%rbx
	popq	%r14
	popq	%rbp
	.cfi_def_cfa %rsp, 8
	retq
.LBB45_82:                              # %func_exit
	.cfi_def_cfa %rbp, 16
	callq	detect_breach
	jmp	.LBB45_81
.Lfunc_end45:
	.size	compress.3, .Lfunc_end45-compress.3
	.cfi_endproc
                                        # -- End function
	.p2align	4, 0x90         # -- Begin function uInt64_qrm10.4
	.type	uInt64_qrm10.4,@function
uInt64_qrm10.4:                         # @uInt64_qrm10.4
	.cfi_startproc
# %bb.0:                                # %entry
	pushq	%rbp
	.cfi_def_cfa_offset 16
	.cfi_offset %rbp, -16
	movq	%rsp, %rbp
	.cfi_def_cfa_register %rbp
	pushq	%rbx
	subq	$24, %rsp
	.cfi_offset %rbx, -24
	movl	$1928594548, -24(%rbp)  # imm = 0x72F40474
	movq	%rdi, -32(%rbp)
	movl	$0, -16(%rbp)
	movl	$7, -12(%rbp)
.LBB46_1:                               # %for.cond
                                        # =>This Inner Loop Header: Depth=1
	cmpl	$0, -12(%rbp)
	jl	.LBB46_4
# %bb.2:                                # %for.body
                                        #   in Loop: Header=BB46_1 Depth=1
	movl	-16(%rbp), %eax
	shll	$8, %eax
	movq	-32(%rbp), %rcx
	movslq	-12(%rbp), %rdx
	movzbl	(%rcx,%rdx), %ecx
	addl	%ecx, %eax
	movl	%eax, -20(%rbp)
	movl	-20(%rbp), %eax
	xorl	%edx, %edx
	movl	$10, %ecx
	divl	%ecx
	movq	-32(%rbp), %rdx
	movslq	-12(%rbp), %rsi
	movb	%al, (%rdx,%rsi)
	movl	-20(%rbp), %eax
	xorl	%edx, %edx
	divl	%ecx
	movl	%edx, -16(%rbp)
# %bb.3:                                # %for.inc
                                        #   in Loop: Header=BB46_1 Depth=1
	movl	-12(%rbp), %eax
	addl	$-1, %eax
	movl	%eax, -12(%rbp)
	jmp	.LBB46_1
.LBB46_4:                               # %for.end
	movl	-16(%rbp), %ebx
	cmpl	$1928594548, -24(%rbp)  # imm = 0x72F40474
	jne	.LBB46_6
.LBB46_5:
	movl	%ebx, %eax
	addq	$24, %rsp
	popq	%rbx
	popq	%rbp
	.cfi_def_cfa %rsp, 8
	retq
.LBB46_6:                               # %func_exit
	.cfi_def_cfa %rbp, 16
	callq	detect_breach
	jmp	.LBB46_5
.Lfunc_end46:
	.size	uInt64_qrm10.4, .Lfunc_end46-uInt64_qrm10.4
	.cfi_endproc
                                        # -- End function
	.p2align	4, 0x90         # -- Begin function myfeof.5
	.type	myfeof.5,@function
myfeof.5:                               # @myfeof.5
	.cfi_startproc
# %bb.0:                                # %entry
	pushq	%rbp
	.cfi_def_cfa_offset 16
	.cfi_offset %rbp, -16
	movq	%rsp, %rbp
	.cfi_def_cfa_register %rbp
	pushq	%rbx
	subq	$24, %rsp
	.cfi_offset %rbx, -24
	movl	$519294144, -20(%rbp)   # imm = 0x1EF3CCC0
	movq	%rdi, -32(%rbp)
	movq	-32(%rbp), %rdi
	callq	fgetc
	movl	%eax, -16(%rbp)
	cmpl	$-1, -16(%rbp)
	jne	.LBB47_2
# %bb.1:                                # %if.then
	movb	$1, -9(%rbp)
	jmp	.LBB47_3
.LBB47_2:                               # %if.end
	movl	-16(%rbp), %edi
	movq	-32(%rbp), %rsi
	callq	ungetc
	movb	$0, -9(%rbp)
.LBB47_3:                               # %return
	movb	-9(%rbp), %bl
	cmpl	$519294144, -20(%rbp)   # imm = 0x1EF3CCC0
	jne	.LBB47_5
.LBB47_4:
	movzbl	%bl, %eax
	addq	$24, %rsp
	popq	%rbx
	popq	%rbp
	.cfi_def_cfa %rsp, 8
	retq
.LBB47_5:                               # %func_exit
	.cfi_def_cfa %rbp, 16
	callq	detect_breach
	jmp	.LBB47_4
.Lfunc_end47:
	.size	myfeof.5, .Lfunc_end47-myfeof.5
	.cfi_endproc
                                        # -- End function
	.p2align	4, 0x90         # -- Begin function testStream.6
	.type	testStream.6,@function
testStream.6:                           # @testStream.6
	.cfi_startproc
# %bb.0:                                # %entry
	pushq	%rbp
	.cfi_def_cfa_offset 16
	.cfi_offset %rbp, -16
	movq	%rsp, %rbp
	.cfi_def_cfa_register %rbp
	pushq	%rbx
	subq	$10088, %rsp            # imm = 0x2768
	.cfi_offset %rbx, -24
	movl	$1245765632, -52(%rbp)  # imm = 0x4A40E000
	movq	%rdi, -32(%rbp)
	movq	$0, -48(%rbp)
	movl	$0, -24(%rbp)
	movl	$0, -36(%rbp)
	movq	-32(%rbp), %rdi
	callq	ferror
	cmpl	$0, %eax
	je	.LBB48_2
# %bb.1:                                # %if.then
	jmp	.LBB48_38
.LBB48_2:                               # %if.end
	jmp	.LBB48_3
.LBB48_3:                               # %while.body
                                        # =>This Loop Header: Depth=1
                                        #     Child Loop BB48_7 Depth 2
                                        #     Child Loop BB48_16 Depth 2
	leaq	-5088(%rbp), %r8
	movq	-32(%rbp), %rsi
	movl	verbosity, %edx
	movzbl	smallMode, %ecx
	movl	-24(%rbp), %r9d
	leaq	-16(%rbp), %rdi
	callq	BZ2_bzReadOpen
	movq	%rax, -48(%rbp)
	cmpq	$0, -48(%rbp)
	je	.LBB48_5
# %bb.4:                                # %lor.lhs.false
                                        #   in Loop: Header=BB48_3 Depth=1
	cmpl	$0, -16(%rbp)
	je	.LBB48_6
.LBB48_5:                               # %if.then5
	jmp	.LBB48_32
.LBB48_6:                               # %if.end6
                                        #   in Loop: Header=BB48_3 Depth=1
	movl	-36(%rbp), %eax
	addl	$1, %eax
	movl	%eax, -36(%rbp)
.LBB48_7:                               # %while.cond7
                                        #   Parent Loop BB48_3 Depth=1
                                        # =>  This Inner Loop Header: Depth=2
	cmpl	$0, -16(%rbp)
	jne	.LBB48_11
# %bb.8:                                # %while.body10
                                        #   in Loop: Header=BB48_7 Depth=2
	leaq	-10096(%rbp), %rdx
	movq	-48(%rbp), %rsi
	leaq	-16(%rbp), %rdi
	movl	$5000, %ecx             # imm = 0x1388
	callq	BZ2_bzRead
	movl	%eax, -80(%rbp)
	cmpl	$-5, -16(%rbp)
	jne	.LBB48_10
# %bb.9:                                # %if.then15
	jmp	.LBB48_32
.LBB48_10:                              # %if.end16
                                        #   in Loop: Header=BB48_7 Depth=2
	jmp	.LBB48_7
.LBB48_11:                              # %while.end
                                        #   in Loop: Header=BB48_3 Depth=1
	cmpl	$4, -16(%rbp)
	je	.LBB48_13
# %bb.12:                               # %if.then19
	jmp	.LBB48_32
.LBB48_13:                              # %if.end20
                                        #   in Loop: Header=BB48_3 Depth=1
	movq	-48(%rbp), %rsi
	leaq	-16(%rbp), %rdi
	leaq	-72(%rbp), %rdx
	leaq	-24(%rbp), %rcx
	callq	BZ2_bzReadGetUnused
	cmpl	$0, -16(%rbp)
	je	.LBB48_15
# %bb.14:                               # %if.then23
	movabsq	$.L.str.98, %rdi
	callq	panic
.LBB48_15:                              # %if.end24
                                        #   in Loop: Header=BB48_3 Depth=1
	movq	-72(%rbp), %rax
	movq	%rax, -64(%rbp)
	movl	$0, -20(%rbp)
.LBB48_16:                              # %for.cond
                                        #   Parent Loop BB48_3 Depth=1
                                        # =>  This Inner Loop Header: Depth=2
	movl	-20(%rbp), %eax
	cmpl	-24(%rbp), %eax
	jge	.LBB48_19
# %bb.17:                               # %for.body
                                        #   in Loop: Header=BB48_16 Depth=2
	movq	-64(%rbp), %rax
	movslq	-20(%rbp), %rcx
	movb	(%rax,%rcx), %al
	movslq	-20(%rbp), %rcx
	movb	%al, -5088(%rbp,%rcx)
# %bb.18:                               # %for.inc
                                        #   in Loop: Header=BB48_16 Depth=2
	movl	-20(%rbp), %eax
	addl	$1, %eax
	movl	%eax, -20(%rbp)
	jmp	.LBB48_16
.LBB48_19:                              # %for.end
                                        #   in Loop: Header=BB48_3 Depth=1
	movq	-48(%rbp), %rsi
	leaq	-16(%rbp), %rdi
	callq	BZ2_bzReadClose
	cmpl	$0, -16(%rbp)
	je	.LBB48_21
# %bb.20:                               # %if.then32
	movabsq	$.L.str.98, %rdi
	callq	panic
.LBB48_21:                              # %if.end33
                                        #   in Loop: Header=BB48_3 Depth=1
	cmpl	$0, -24(%rbp)
	jne	.LBB48_24
# %bb.22:                               # %land.lhs.true
                                        #   in Loop: Header=BB48_3 Depth=1
	movq	-32(%rbp), %rdi
	callq	myfeof
	movzbl	%al, %eax
	cmpl	$0, %eax
	je	.LBB48_24
# %bb.23:                               # %if.then39
	jmp	.LBB48_25
.LBB48_24:                              # %if.end40
                                        #   in Loop: Header=BB48_3 Depth=1
	jmp	.LBB48_3
.LBB48_25:                              # %while.end41
	movq	-32(%rbp), %rdi
	callq	ferror
	cmpl	$0, %eax
	je	.LBB48_27
# %bb.26:                               # %if.then44
	jmp	.LBB48_38
.LBB48_27:                              # %if.end45
	movq	-32(%rbp), %rdi
	callq	fclose
	movl	%eax, -56(%rbp)
	cmpl	$-1, -56(%rbp)
	jne	.LBB48_29
# %bb.28:                               # %if.then49
	jmp	.LBB48_38
.LBB48_29:                              # %if.end50
	cmpl	$2, verbosity
	jl	.LBB48_31
# %bb.30:                               # %if.then53
	movq	stderr, %rdi
	movabsq	$.L.str.89, %rsi
	movb	$0, %al
	callq	fprintf
.LBB48_31:                              # %if.end55
	movb	$1, -9(%rbp)
	jmp	.LBB48_50
.LBB48_32:                              # %errhandler
	movq	-48(%rbp), %rsi
	leaq	-76(%rbp), %rdi
	callq	BZ2_bzReadClose
	cmpl	$0, verbosity
	jne	.LBB48_34
# %bb.33:                               # %if.then58
	movq	stderr, %rdi
	movq	progName, %rdx
	movabsq	$.L.str.99, %rsi
	movabsq	$inName, %rcx
	movb	$0, %al
	callq	fprintf
.LBB48_34:                              # %if.end60
	movl	-16(%rbp), %eax
	addl	$9, %eax
	movl	%eax, %ecx
	subl	$6, %ecx
	ja	.LBB48_49
# %bb.35:                               # %if.end60
	movq	.LJTI48_0(,%rax,8), %rax
	jmpq	*%rax
.LBB48_36:                              # %sw.bb
	callq	configError
.LBB48_37:                              # %sw.bb61
	jmp	.LBB48_38
.LBB48_38:                              # %errhandler_io
	callq	ioError
.LBB48_39:                              # %sw.bb62
	movq	stderr, %rdi
	movabsq	$.L.str.100, %rsi
	movb	$0, %al
	callq	fprintf
	movb	$0, -9(%rbp)
	jmp	.LBB48_50
.LBB48_40:                              # %sw.bb64
	callq	outOfMemory
.LBB48_41:                              # %sw.bb65
	movq	stderr, %rdi
	movabsq	$.L.str.101, %rsi
	movb	$0, %al
	callq	fprintf
	movb	$0, -9(%rbp)
	jmp	.LBB48_50
.LBB48_42:                              # %sw.bb67
	movq	-32(%rbp), %rax
	cmpq	stdin, %rax
	je	.LBB48_44
# %bb.43:                               # %if.then70
	movq	-32(%rbp), %rdi
	callq	fclose
.LBB48_44:                              # %if.end72
	cmpl	$1, -36(%rbp)
	jne	.LBB48_46
# %bb.45:                               # %if.then75
	movq	stderr, %rdi
	movabsq	$.L.str.102, %rsi
	movb	$0, %al
	callq	fprintf
	movb	$0, -9(%rbp)
	jmp	.LBB48_50
.LBB48_46:                              # %if.else
	cmpb	$0, noisy
	je	.LBB48_48
# %bb.47:                               # %if.then78
	movq	stderr, %rdi
	movabsq	$.L.str.103, %rsi
	movb	$0, %al
	callq	fprintf
.LBB48_48:                              # %if.end80
	movb	$1, -9(%rbp)
	jmp	.LBB48_50
.LBB48_49:                              # %sw.default
	movabsq	$.L.str.104, %rdi
	callq	panic
.LBB48_50:                              # %return
	movb	-9(%rbp), %bl
	cmpl	$1245765632, -52(%rbp)  # imm = 0x4A40E000
	jne	.LBB48_52
.LBB48_51:
	movzbl	%bl, %eax
	addq	$10088, %rsp            # imm = 0x2768
	popq	%rbx
	popq	%rbp
	.cfi_def_cfa %rsp, 8
	retq
.LBB48_52:                              # %func_exit
	.cfi_def_cfa %rbp, 16
	callq	detect_breach
	jmp	.LBB48_51
.Lfunc_end48:
	.size	testStream.6, .Lfunc_end48-testStream.6
	.cfi_endproc
	.section	.rodata,"a",@progbits
	.p2align	3
.LJTI48_0:
	.quad	.LBB48_36
	.quad	.LBB48_49
	.quad	.LBB48_41
	.quad	.LBB48_37
	.quad	.LBB48_42
	.quad	.LBB48_39
	.quad	.LBB48_40
                                        # -- End function
	.text
	.p2align	4, 0x90         # -- Begin function hasSuffix.7
	.type	hasSuffix.7,@function
hasSuffix.7:                            # @hasSuffix.7
	.cfi_startproc
# %bb.0:                                # %entry
	pushq	%rbp
	.cfi_def_cfa_offset 16
	.cfi_offset %rbp, -16
	movq	%rsp, %rbp
	.cfi_def_cfa_register %rbp
	pushq	%rbx
	subq	$40, %rsp
	.cfi_offset %rbx, -24
	movl	$210759181, -24(%rbp)   # imm = 0xC8FEE0D
	movq	%rdi, -40(%rbp)
	movq	%rsi, -32(%rbp)
	movq	-40(%rbp), %rdi
	callq	strlen
	movl	%eax, -16(%rbp)
	movq	-32(%rbp), %rdi
	callq	strlen
	movl	%eax, -20(%rbp)
	movl	-16(%rbp), %eax
	cmpl	-20(%rbp), %eax
	jge	.LBB49_2
# %bb.1:                                # %if.then
	movb	$0, -9(%rbp)
	jmp	.LBB49_5
.LBB49_2:                               # %if.end
	xorl	%eax, %eax
	movq	-40(%rbp), %rdi
	movslq	-16(%rbp), %rcx
	addq	%rcx, %rdi
	movslq	-20(%rbp), %rcx
	subq	%rcx, %rax
	addq	%rax, %rdi
	movq	-32(%rbp), %rsi
	callq	strcmp
	cmpl	$0, %eax
	jne	.LBB49_4
# %bb.3:                                # %if.then9
	movb	$1, -9(%rbp)
	jmp	.LBB49_5
.LBB49_4:                               # %if.end10
	movb	$0, -9(%rbp)
.LBB49_5:                               # %return
	movb	-9(%rbp), %bl
	cmpl	$210759181, -24(%rbp)   # imm = 0xC8FEE0D
	jne	.LBB49_7
.LBB49_6:
	movzbl	%bl, %eax
	addq	$40, %rsp
	popq	%rbx
	popq	%rbp
	.cfi_def_cfa %rsp, 8
	retq
.LBB49_7:                               # %func_exit
	.cfi_def_cfa %rbp, 16
	callq	detect_breach
	jmp	.LBB49_6
.Lfunc_end49:
	.size	hasSuffix.7, .Lfunc_end49-hasSuffix.7
	.cfi_endproc
                                        # -- End function
	.section	.rodata.cst8,"aM",@progbits,8
	.p2align	3               # -- Begin function uInt64_to_double.8
.LCPI50_0:
	.quad	4607182418800017408     # double 1
.LCPI50_1:
	.quad	4643211215818981376     # double 256
	.text
	.p2align	4, 0x90
	.type	uInt64_to_double.8,@function
uInt64_to_double.8:                     # @uInt64_to_double.8
	.cfi_startproc
# %bb.0:                                # %entry
	pushq	%rbp
	.cfi_def_cfa_offset 16
	.cfi_offset %rbp, -16
	movq	%rsp, %rbp
	.cfi_def_cfa_register %rbp
	subq	$48, %rsp
	vmovsd	.LCPI50_0(%rip), %xmm0  # xmm0 = mem[0],zero
	movl	$1270426248, -28(%rbp)  # imm = 0x4BB92A88
	movq	%rdi, -48(%rbp)
	vmovsd	%xmm0, -24(%rbp)
	vxorps	%xmm0, %xmm0, %xmm0
	vmovsd	%xmm0, -16(%rbp)
	movl	$0, -4(%rbp)
.LBB50_1:                               # %for.cond
                                        # =>This Inner Loop Header: Depth=1
	cmpl	$8, -4(%rbp)
	jge	.LBB50_4
# %bb.2:                                # %for.body
                                        #   in Loop: Header=BB50_1 Depth=1
	vmovsd	.LCPI50_1(%rip), %xmm0  # xmm0 = mem[0],zero
	vmovsd	-24(%rbp), %xmm1        # xmm1 = mem[0],zero
	movq	-48(%rbp), %rax
	movslq	-4(%rbp), %rcx
	movzbl	(%rax,%rcx), %eax
	vcvtsi2sd	%eax, %xmm0, %xmm2
	vmulsd	%xmm2, %xmm1, %xmm1
	vaddsd	-16(%rbp), %xmm1, %xmm1
	vmovsd	%xmm1, -16(%rbp)
	vmulsd	-24(%rbp), %xmm0, %xmm0
	vmovsd	%xmm0, -24(%rbp)
# %bb.3:                                # %for.inc
                                        #   in Loop: Header=BB50_1 Depth=1
	movl	-4(%rbp), %eax
	addl	$1, %eax
	movl	%eax, -4(%rbp)
	jmp	.LBB50_1
.LBB50_4:                               # %for.end
	vmovsd	-16(%rbp), %xmm0        # xmm0 = mem[0],zero
	cmpl	$1270426248, -28(%rbp)  # imm = 0x4BB92A88
	jne	.LBB50_6
.LBB50_5:
	addq	$48, %rsp
	popq	%rbp
	.cfi_def_cfa %rsp, 8
	retq
.LBB50_6:                               # %func_exit
	.cfi_def_cfa %rbp, 16
	vmovsd	%xmm0, -40(%rbp)        # 8-byte Spill
	callq	detect_breach
	vmovsd	-40(%rbp), %xmm0        # 8-byte Reload
                                        # xmm0 = mem[0],zero
	jmp	.LBB50_5
.Lfunc_end50:
	.size	uInt64_to_double.8, .Lfunc_end50-uInt64_to_double.8
	.cfi_endproc
                                        # -- End function
	.p2align	4, 0x90         # -- Begin function snocString.9
	.type	snocString.9,@function
snocString.9:                           # @snocString.9
	.cfi_startproc
# %bb.0:                                # %entry
	pushq	%rbp
	.cfi_def_cfa_offset 16
	.cfi_offset %rbp, -16
	movq	%rsp, %rbp
	.cfi_def_cfa_register %rbp
	pushq	%rbx
	subq	$56, %rsp
	.cfi_offset %rbx, -24
	movl	$2077845204, -44(%rbp)  # imm = 0x7BD966D4
	movq	%rdi, -40(%rbp)
	movq	%rsi, -24(%rbp)
	cmpq	$0, -40(%rbp)
	jne	.LBB51_2
# %bb.1:                                # %if.then
	callq	mkCell
	movq	%rax, -32(%rbp)
	movq	-24(%rbp), %rdi
	callq	strlen
	addq	$5, %rax
	movl	%eax, %edi
	callq	myMalloc
	movq	-32(%rbp), %rcx
	movq	%rax, (%rcx)
	movq	-32(%rbp), %rax
	movq	(%rax), %rdi
	movq	-24(%rbp), %rsi
	callq	strcpy
	movq	-32(%rbp), %rax
	movq	%rax, -56(%rbp)
	jmp	.LBB51_6
.LBB51_2:                               # %if.else
	movq	-40(%rbp), %rax
	movq	%rax, -16(%rbp)
.LBB51_3:                               # %while.cond
                                        # =>This Inner Loop Header: Depth=1
	movq	-16(%rbp), %rax
	cmpq	$0, 8(%rax)
	je	.LBB51_5
# %bb.4:                                # %while.body
                                        #   in Loop: Header=BB51_3 Depth=1
	movq	-16(%rbp), %rax
	movq	8(%rax), %rax
	movq	%rax, -16(%rbp)
	jmp	.LBB51_3
.LBB51_5:                               # %while.end
	movq	-16(%rbp), %rax
	movq	8(%rax), %rdi
	movq	-24(%rbp), %rsi
	callq	snocString
	movq	-16(%rbp), %rcx
	movq	%rax, 8(%rcx)
	movq	-40(%rbp), %rax
	movq	%rax, -56(%rbp)
.LBB51_6:                               # %return
	movq	-56(%rbp), %rbx
	cmpl	$2077845204, -44(%rbp)  # imm = 0x7BD966D4
	jne	.LBB51_8
.LBB51_7:
	movq	%rbx, %rax
	addq	$56, %rsp
	popq	%rbx
	popq	%rbp
	.cfi_def_cfa %rsp, 8
	retq
.LBB51_8:                               # %func_exit
	.cfi_def_cfa %rbp, 16
	callq	detect_breach
	jmp	.LBB51_7
.Lfunc_end51:
	.size	snocString.9, .Lfunc_end51-snocString.9
	.cfi_endproc
                                        # -- End function
	.section	.rodata.cst8,"aM",@progbits,8
	.p2align	3               # -- Begin function compressStream.10
.LCPI52_0:
	.quad	4636737291354636288     # double 100
.LCPI52_1:
	.quad	4607182418800017408     # double 1
.LCPI52_2:
	.quad	4620693217682128896     # double 8
	.text
	.p2align	4, 0x90
	.type	compressStream.10,@function
compressStream.10:                      # @compressStream.10
	.cfi_startproc
# %bb.0:                                # %entry
	pushq	%rbp
	.cfi_def_cfa_offset 16
	.cfi_offset %rbp, -16
	movq	%rsp, %rbp
	.cfi_def_cfa_register %rbp
	subq	$5200, %rsp             # imm = 0x1450
	movl	$1058653793, -76(%rbp)  # imm = 0x3F19C661
	movq	%rdi, -24(%rbp)
	movq	%rsi, -32(%rbp)
	movq	$0, -56(%rbp)
	movq	-24(%rbp), %rdi
	callq	ferror
	cmpl	$0, %eax
	je	.LBB52_2
# %bb.1:                                # %if.then
	jmp	.LBB52_46
.LBB52_2:                               # %if.end
	movq	-32(%rbp), %rdi
	callq	ferror
	cmpl	$0, %eax
	je	.LBB52_4
# %bb.3:                                # %if.then3
	jmp	.LBB52_46
.LBB52_4:                               # %if.end4
	movq	-32(%rbp), %rsi
	movl	blockSize100k, %edx
	movl	verbosity, %ecx
	movl	workFactor, %r8d
	leaq	-4(%rbp), %rdi
	callq	BZ2_bzWriteOpen
	movq	%rax, -56(%rbp)
	cmpl	$0, -4(%rbp)
	je	.LBB52_6
# %bb.5:                                # %if.then6
	jmp	.LBB52_40
.LBB52_6:                               # %if.end7
	cmpl	$2, verbosity
	jl	.LBB52_8
# %bb.7:                                # %if.then9
	movq	stderr, %rdi
	movabsq	$.L.str.73, %rsi
	movb	$0, %al
	callq	fprintf
.LBB52_8:                               # %if.end11
	jmp	.LBB52_9
.LBB52_9:                               # %while.body
                                        # =>This Inner Loop Header: Depth=1
	movq	-24(%rbp), %rdi
	callq	myfeof
	cmpb	$0, %al
	je	.LBB52_11
# %bb.10:                               # %if.then14
	jmp	.LBB52_18
.LBB52_11:                              # %if.end15
                                        #   in Loop: Header=BB52_9 Depth=1
	leaq	-5184(%rbp), %rdi
	movq	-24(%rbp), %rcx
	movl	$1, %esi
	movl	$5000, %edx             # imm = 0x1388
	callq	fread
	movl	%eax, -40(%rbp)
	movq	-24(%rbp), %rdi
	callq	ferror
	cmpl	$0, %eax
	je	.LBB52_13
# %bb.12:                               # %if.then19
	jmp	.LBB52_46
.LBB52_13:                              # %if.end20
                                        #   in Loop: Header=BB52_9 Depth=1
	cmpl	$0, -40(%rbp)
	jle	.LBB52_15
# %bb.14:                               # %if.then23
                                        #   in Loop: Header=BB52_9 Depth=1
	leaq	-5184(%rbp), %rdx
	movq	-56(%rbp), %rsi
	movl	-40(%rbp), %ecx
	leaq	-4(%rbp), %rdi
	callq	BZ2_bzWrite
.LBB52_15:                              # %if.end25
                                        #   in Loop: Header=BB52_9 Depth=1
	cmpl	$0, -4(%rbp)
	je	.LBB52_17
# %bb.16:                               # %if.then28
	jmp	.LBB52_40
.LBB52_17:                              # %if.end29
                                        #   in Loop: Header=BB52_9 Depth=1
	jmp	.LBB52_9
.LBB52_18:                              # %while.end
	movq	-56(%rbp), %rsi
	leaq	-4(%rbp), %rdi
	movl	$0, %edx
	leaq	-16(%rbp), %rcx
	leaq	-12(%rbp), %r8
	leaq	-36(%rbp), %r9
	leaq	-44(%rbp), %rax
	movq	%rax, (%rsp)
	callq	BZ2_bzWriteClose64
	cmpl	$0, -4(%rbp)
	je	.LBB52_20
# %bb.19:                               # %if.then32
	jmp	.LBB52_40
.LBB52_20:                              # %if.end33
	movq	-32(%rbp), %rdi
	callq	ferror
	cmpl	$0, %eax
	je	.LBB52_22
# %bb.21:                               # %if.then36
	jmp	.LBB52_46
.LBB52_22:                              # %if.end37
	movq	-32(%rbp), %rdi
	callq	fflush
	movl	%eax, -8(%rbp)
	cmpl	$-1, -8(%rbp)
	jne	.LBB52_24
# %bb.23:                               # %if.then41
	jmp	.LBB52_46
.LBB52_24:                              # %if.end42
	movq	-32(%rbp), %rax
	cmpq	stdout, %rax
	je	.LBB52_28
# %bb.25:                               # %if.then45
	movq	-32(%rbp), %rdi
	callq	fclose
	movl	%eax, -8(%rbp)
	movq	$0, outputHandleJustInCase
	cmpl	$-1, -8(%rbp)
	jne	.LBB52_27
# %bb.26:                               # %if.then49
	jmp	.LBB52_46
.LBB52_27:                              # %if.end50
	jmp	.LBB52_28
.LBB52_28:                              # %if.end51
	movq	$0, outputHandleJustInCase
	movq	-24(%rbp), %rdi
	callq	ferror
	cmpl	$0, %eax
	je	.LBB52_30
# %bb.29:                               # %if.then54
	jmp	.LBB52_46
.LBB52_30:                              # %if.end55
	movq	-24(%rbp), %rdi
	callq	fclose
	movl	%eax, -8(%rbp)
	cmpl	$-1, -8(%rbp)
	jne	.LBB52_32
# %bb.31:                               # %if.then59
	jmp	.LBB52_46
.LBB52_32:                              # %if.end60
	cmpl	$1, verbosity
	jl	.LBB52_38
# %bb.33:                               # %if.then63
	cmpl	$0, -16(%rbp)
	jne	.LBB52_36
# %bb.34:                               # %land.lhs.true
	cmpl	$0, -12(%rbp)
	jne	.LBB52_36
# %bb.35:                               # %if.then68
	movq	stderr, %rdi
	movabsq	$.L.str.74, %rsi
	movb	$0, %al
	callq	fprintf
	jmp	.LBB52_37
.LBB52_36:                              # %if.else
	movl	-16(%rbp), %esi
	movl	-12(%rbp), %edx
	leaq	-88(%rbp), %rdi
	callq	uInt64_from_UInt32s
	movl	-36(%rbp), %esi
	movl	-44(%rbp), %edx
	leaq	-96(%rbp), %rdi
	callq	uInt64_from_UInt32s
	leaq	-88(%rbp), %rdi
	callq	uInt64_to_double
	vmovsd	%xmm0, -64(%rbp)
	leaq	-96(%rbp), %rdi
	callq	uInt64_to_double
	leaq	-144(%rbp), %rdi
	vmovsd	%xmm0, -72(%rbp)
	leaq	-88(%rbp), %rsi
	callq	uInt64_toAscii
	leaq	-176(%rbp), %rdi
	leaq	-96(%rbp), %rsi
	callq	uInt64_toAscii
	leaq	-176(%rbp), %rcx
	leaq	-144(%rbp), %rdx
	vmovsd	.LCPI52_0(%rip), %xmm2  # xmm2 = mem[0],zero
	vmovsd	.LCPI52_1(%rip), %xmm3  # xmm3 = mem[0],zero
	vmovsd	.LCPI52_2(%rip), %xmm1  # xmm1 = mem[0],zero
	movq	stderr, %rdi
	vmovsd	-64(%rbp), %xmm0        # xmm0 = mem[0],zero
	vdivsd	-72(%rbp), %xmm0, %xmm0
	vmulsd	-72(%rbp), %xmm1, %xmm1
	vdivsd	-64(%rbp), %xmm1, %xmm1
	vmovsd	-72(%rbp), %xmm4        # xmm4 = mem[0],zero
	vdivsd	-64(%rbp), %xmm4, %xmm4
	vsubsd	%xmm4, %xmm3, %xmm3
	vmulsd	%xmm3, %xmm2, %xmm2
	movabsq	$.L.str.75, %rsi
	movb	$3, %al
	callq	fprintf
.LBB52_37:                              # %if.end80
	jmp	.LBB52_38
.LBB52_38:                              # %if.end81
	cmpl	$1058653793, -76(%rbp)  # imm = 0x3F19C661
	jne	.LBB52_48
.LBB52_39:
	addq	$5200, %rsp             # imm = 0x1450
	popq	%rbp
	.cfi_def_cfa %rsp, 8
	retq
.LBB52_40:                              # %errhandler
	.cfi_def_cfa %rbp, 16
	movq	-56(%rbp), %rsi
	leaq	-44(%rbp), %rax
	movq	%rax, (%rsp)
	leaq	-100(%rbp), %rdi
	leaq	-16(%rbp), %rcx
	leaq	-12(%rbp), %r8
	leaq	-36(%rbp), %r9
	movl	$1, %edx
	callq	BZ2_bzWriteClose64
	movl	-4(%rbp), %eax
	movl	%eax, %ecx
	subl	$-9, %ecx
	je	.LBB52_43
	jmp	.LBB52_41
.LBB52_41:                              # %errhandler
	movl	%eax, %ecx
	subl	$-6, %ecx
	je	.LBB52_45
	jmp	.LBB52_42
.LBB52_42:                              # %errhandler
	subl	$-3, %eax
	je	.LBB52_44
	jmp	.LBB52_47
.LBB52_43:                              # %sw.bb
	callq	configError
.LBB52_44:                              # %sw.bb82
	callq	outOfMemory
.LBB52_45:                              # %sw.bb83
	jmp	.LBB52_46
.LBB52_46:                              # %errhandler_io
	callq	ioError
.LBB52_47:                              # %sw.default
	movabsq	$.L.str.76, %rdi
	callq	panic
.LBB52_48:                              # %func_exit
	callq	detect_breach
	jmp	.LBB52_39
.Lfunc_end52:
	.size	compressStream.10, .Lfunc_end52-compressStream.10
	.cfi_endproc
                                        # -- End function
	.p2align	4, 0x90         # -- Begin function copyFileName.11
	.type	copyFileName.11,@function
copyFileName.11:                        # @copyFileName.11
	.cfi_startproc
# %bb.0:                                # %entry
	pushq	%rbp
	.cfi_def_cfa_offset 16
	.cfi_offset %rbp, -16
	movq	%rsp, %rbp
	.cfi_def_cfa_register %rbp
	subq	$32, %rsp
	movl	$1748017879, -12(%rbp)  # imm = 0x6830A2D7
	movq	%rdi, -24(%rbp)
	movq	%rsi, -8(%rbp)
	movq	-8(%rbp), %rdi
	callq	strlen
	cmpq	$1024, %rax             # imm = 0x400
	jbe	.LBB53_2
# %bb.1:                                # %if.then
	movq	stderr, %rdi
	movq	-8(%rbp), %rdx
	movabsq	$.L.str.47, %rsi
	movl	$1024, %ecx             # imm = 0x400
	movb	$0, %al
	callq	fprintf
	movl	$1, %edi
	callq	setExit
	movl	exitValue, %edi
	callq	exit
.LBB53_2:                               # %if.end
	movq	-24(%rbp), %rdi
	movq	-8(%rbp), %rsi
	movl	$1024, %edx             # imm = 0x400
	callq	strncpy
	movq	-24(%rbp), %rax
	movb	$0, 1024(%rax)
	cmpl	$1748017879, -12(%rbp)  # imm = 0x6830A2D7
	jne	.LBB53_4
.LBB53_3:
	addq	$32, %rsp
	popq	%rbp
	.cfi_def_cfa %rsp, 8
	retq
.LBB53_4:                               # %func_exit
	.cfi_def_cfa %rbp, 16
	callq	detect_breach
	jmp	.LBB53_3
.Lfunc_end53:
	.size	copyFileName.11, .Lfunc_end53-copyFileName.11
	.cfi_endproc
                                        # -- End function
	.p2align	4, 0x90         # -- Begin function pad.12
	.type	pad.12,@function
pad.12:                                 # @pad.12
	.cfi_startproc
# %bb.0:                                # %entry
	pushq	%rbp
	.cfi_def_cfa_offset 16
	.cfi_offset %rbp, -16
	movq	%rsp, %rbp
	.cfi_def_cfa_register %rbp
	pushq	%r14
	pushq	%rbx
	subq	$16, %rsp
	.cfi_offset %rbx, -32
	.cfi_offset %r14, -24
	movl	$1481151217, -24(%rbp)  # imm = 0x584892F1
	movq	%rdi, -32(%rbp)
	movq	-32(%rbp), %rdi
	callq	strlen
	cmpl	longestFileName, %eax
	jl	.LBB54_2
# %bb.1:                                # %if.then
	jmp	.LBB54_7
.LBB54_2:                               # %if.end
	movl	$1, -20(%rbp)
.LBB54_3:                               # %for.cond
                                        # =>This Inner Loop Header: Depth=1
	movl	-20(%rbp), %r14d
	movl	longestFileName, %ebx
	movq	-32(%rbp), %rdi
	callq	strlen
	subl	%eax, %ebx
	cmpl	%ebx, %r14d
	jg	.LBB54_6
# %bb.4:                                # %for.body
                                        #   in Loop: Header=BB54_3 Depth=1
	movq	stderr, %rdi
	movabsq	$.L.str.72, %rsi
	movb	$0, %al
	callq	fprintf
# %bb.5:                                # %for.inc
                                        #   in Loop: Header=BB54_3 Depth=1
	movl	-20(%rbp), %eax
	addl	$1, %eax
	movl	%eax, -20(%rbp)
	jmp	.LBB54_3
.LBB54_6:                               # %for.end.loopexit
	jmp	.LBB54_7
.LBB54_7:                               # %for.end
	cmpl	$1481151217, -24(%rbp)  # imm = 0x584892F1
	jne	.LBB54_9
.LBB54_8:
	addq	$16, %rsp
	popq	%rbx
	popq	%r14
	popq	%rbp
	.cfi_def_cfa %rsp, 8
	retq
.LBB54_9:                               # %func_exit
	.cfi_def_cfa %rbp, 16
	callq	detect_breach
	jmp	.LBB54_8
.Lfunc_end54:
	.size	pad.12, .Lfunc_end54-pad.12
	.cfi_endproc
                                        # -- End function
	.globl	fopen_output_safely.13  # -- Begin function fopen_output_safely.13
	.p2align	4, 0x90
	.type	fopen_output_safely.13,@function
fopen_output_safely.13:                 # @fopen_output_safely.13
	.cfi_startproc
# %bb.0:                                # %entry
	pushq	%rbp
	.cfi_def_cfa_offset 16
	.cfi_offset %rbp, -16
	movq	%rsp, %rbp
	.cfi_def_cfa_register %rbp
	pushq	%rbx
	subq	$40, %rsp
	.cfi_offset %rbx, -24
	movl	$342288604, -16(%rbp)   # imm = 0x1466E8DC
	movq	%rdi, -48(%rbp)
	movq	%rsi, -40(%rbp)
	movq	-48(%rbp), %rdi
	movl	$193, %esi
	movl	$384, %edx              # imm = 0x180
	movb	$0, %al
	callq	open
	movl	%eax, -12(%rbp)
	cmpl	$-1, -12(%rbp)
	jne	.LBB55_2
# %bb.1:                                # %if.then
	movq	$0, -24(%rbp)
	jmp	.LBB55_5
.LBB55_2:                               # %if.end
	movl	-12(%rbp), %edi
	movq	-40(%rbp), %rsi
	callq	fdopen
	movq	%rax, -32(%rbp)
	cmpq	$0, -32(%rbp)
	jne	.LBB55_4
# %bb.3:                                # %if.then3
	movl	-12(%rbp), %edi
	callq	close
.LBB55_4:                               # %if.end5
	movq	-32(%rbp), %rax
	movq	%rax, -24(%rbp)
.LBB55_5:                               # %return
	movq	-24(%rbp), %rbx
	cmpl	$342288604, -16(%rbp)   # imm = 0x1466E8DC
	jne	.LBB55_7
.LBB55_6:
	movq	%rbx, %rax
	addq	$40, %rsp
	popq	%rbx
	popq	%rbp
	.cfi_def_cfa %rsp, 8
	retq
.LBB55_7:                               # %func_exit
	.cfi_def_cfa %rbp, 16
	callq	detect_breach
	jmp	.LBB55_6
.Lfunc_end55:
	.size	fopen_output_safely.13, .Lfunc_end55-fopen_output_safely.13
	.cfi_endproc
                                        # -- End function
	.p2align	4, 0x90         # -- Begin function uInt64_toAscii.14
	.type	uInt64_toAscii.14,@function
uInt64_toAscii.14:                      # @uInt64_toAscii.14
	.cfi_startproc
# %bb.0:                                # %entry
	pushq	%rbp
	.cfi_def_cfa_offset 16
	.cfi_offset %rbp, -16
	movq	%rsp, %rbp
	.cfi_def_cfa_register %rbp
	subq	$80, %rsp
	movl	$1915263157, -12(%rbp)  # imm = 0x722898B5
	movq	%rdi, -32(%rbp)
	movq	%rsi, -40(%rbp)
	movl	$0, -4(%rbp)
	movq	-40(%rbp), %rax
	movq	(%rax), %rax
	movq	%rax, -24(%rbp)
.LBB56_1:                               # %do.body
                                        # =>This Inner Loop Header: Depth=1
	leaq	-24(%rbp), %rdi
	callq	uInt64_qrm10
	movl	%eax, -16(%rbp)
	movl	-16(%rbp), %eax
	addl	$48, %eax
	movslq	-4(%rbp), %rcx
	movb	%al, -80(%rbp,%rcx)
	movl	-4(%rbp), %eax
	addl	$1, %eax
	movl	%eax, -4(%rbp)
# %bb.2:                                # %do.cond
                                        #   in Loop: Header=BB56_1 Depth=1
	leaq	-24(%rbp), %rdi
	callq	uInt64_isZero
	cmpb	$0, %al
	setne	%al
	xorb	$-1, %al
	testb	$1, %al
	jne	.LBB56_1
# %bb.3:                                # %do.end
	movq	-32(%rbp), %rax
	movslq	-4(%rbp), %rcx
	movb	$0, (%rax,%rcx)
	movl	$0, -8(%rbp)
.LBB56_4:                               # %for.cond
                                        # =>This Inner Loop Header: Depth=1
	movl	-8(%rbp), %eax
	cmpl	-4(%rbp), %eax
	jge	.LBB56_7
# %bb.5:                                # %for.body
                                        #   in Loop: Header=BB56_4 Depth=1
	movl	-4(%rbp), %eax
	subl	-8(%rbp), %eax
	subl	$1, %eax
	cltq
	movb	-80(%rbp,%rax), %al
	movq	-32(%rbp), %rcx
	movslq	-8(%rbp), %rdx
	movb	%al, (%rcx,%rdx)
# %bb.6:                                # %for.inc
                                        #   in Loop: Header=BB56_4 Depth=1
	movl	-8(%rbp), %eax
	addl	$1, %eax
	movl	%eax, -8(%rbp)
	jmp	.LBB56_4
.LBB56_7:                               # %for.end
	cmpl	$1915263157, -12(%rbp)  # imm = 0x722898B5
	jne	.LBB56_9
.LBB56_8:
	addq	$80, %rsp
	popq	%rbp
	.cfi_def_cfa %rsp, 8
	retq
.LBB56_9:                               # %func_exit
	.cfi_def_cfa %rbp, 16
	callq	detect_breach
	jmp	.LBB56_8
.Lfunc_end56:
	.size	uInt64_toAscii.14, .Lfunc_end56-uInt64_toAscii.14
	.cfi_endproc
                                        # -- End function
	.p2align	4, 0x90         # -- Begin function cleanUpAndFail.15
	.type	cleanUpAndFail.15,@function
cleanUpAndFail.15:                      # @cleanUpAndFail.15
	.cfi_startproc
# %bb.0:                                # %entry
	pushq	%rbp
	.cfi_def_cfa_offset 16
	.cfi_offset %rbp, -16
	movq	%rsp, %rbp
	.cfi_def_cfa_register %rbp
	subq	$160, %rsp
	movl	$1292770075, -12(%rbp)  # imm = 0x4D0E1B1B
	movl	%edi, -8(%rbp)
	cmpl	$3, srcMode
	jne	.LBB57_13
# %bb.1:                                # %land.lhs.true
	cmpl	$3, opMode
	je	.LBB57_13
# %bb.2:                                # %land.lhs.true2
	movzbl	deleteOutputOnInterrupt, %eax
	cmpl	$0, %eax
	je	.LBB57_13
# %bb.3:                                # %if.then
	movabsq	$inName, %rdi
	leaq	-160(%rbp), %rsi
	callq	stat
	movl	%eax, -4(%rbp)
	cmpl	$0, -4(%rbp)
	jne	.LBB57_11
# %bb.4:                                # %if.then5
	cmpb	$0, noisy
	je	.LBB57_6
# %bb.5:                                # %if.then7
	movq	stderr, %rdi
	movq	progName, %rdx
	movabsq	$.L.str.39, %rsi
	movabsq	$outName, %rcx
	movb	$0, %al
	callq	fprintf
.LBB57_6:                               # %if.end
	cmpq	$0, outputHandleJustInCase
	je	.LBB57_8
# %bb.7:                                # %if.then11
	movq	outputHandleJustInCase, %rdi
	callq	fclose
.LBB57_8:                               # %if.end13
	movabsq	$outName, %rdi
	callq	remove
	movl	%eax, -4(%rbp)
	cmpl	$0, -4(%rbp)
	je	.LBB57_10
# %bb.9:                                # %if.then17
	movq	stderr, %rdi
	movq	progName, %rdx
	movabsq	$.L.str.40, %rsi
	movb	$0, %al
	callq	fprintf
.LBB57_10:                              # %if.end19
	jmp	.LBB57_12
.LBB57_11:                              # %if.else
	movq	stderr, %rdi
	movq	progName, %rdx
	movabsq	$.L.str.41, %rsi
	movb	$0, %al
	callq	fprintf
	movq	stderr, %rdi
	movq	progName, %rdx
	movabsq	$.L.str.42, %rsi
	movb	$0, %al
	callq	fprintf
	movq	stderr, %rdi
	movq	progName, %rdx
	movabsq	$.L.str.43, %rsi
	movabsq	$outName, %rcx
	movb	$0, %al
	callq	fprintf
	movq	stderr, %rdi
	movq	progName, %rdx
	movabsq	$.L.str.44, %rsi
	movb	$0, %al
	callq	fprintf
.LBB57_12:                              # %if.end24
	jmp	.LBB57_13
.LBB57_13:                              # %if.end25
	movzbl	noisy, %eax
	cmpl	$0, %eax
	je	.LBB57_17
# %bb.14:                               # %land.lhs.true28
	cmpl	$0, numFileNames
	jle	.LBB57_17
# %bb.15:                               # %land.lhs.true31
	movl	numFilesProcessed, %eax
	cmpl	numFileNames, %eax
	jge	.LBB57_17
# %bb.16:                               # %if.then34
	movq	stderr, %rdi
	movq	progName, %rdx
	movq	progName, %rcx
	movl	numFileNames, %r8d
	movl	numFileNames, %r9d
	subl	numFilesProcessed, %r9d
	movabsq	$.L.str.45, %rsi
	movb	$0, %al
	callq	fprintf
.LBB57_17:                              # %if.end36
	movl	-8(%rbp), %edi
	callq	setExit
	movl	exitValue, %edi
	callq	exit
.Lfunc_end57:
	.size	cleanUpAndFail.15, .Lfunc_end57-cleanUpAndFail.15
	.cfi_endproc
                                        # -- End function
	.globl	fopen_output_safely.16  # -- Begin function fopen_output_safely.16
	.p2align	4, 0x90
	.type	fopen_output_safely.16,@function
fopen_output_safely.16:                 # @fopen_output_safely.16
	.cfi_startproc
# %bb.0:                                # %entry
	pushq	%rbp
	.cfi_def_cfa_offset 16
	.cfi_offset %rbp, -16
	movq	%rsp, %rbp
	.cfi_def_cfa_register %rbp
	pushq	%rbx
	subq	$40, %rsp
	.cfi_offset %rbx, -24
	movl	$757345396, -16(%rbp)   # imm = 0x2D242C74
	movq	%rdi, -48(%rbp)
	movq	%rsi, -40(%rbp)
	movq	-48(%rbp), %rdi
	movl	$193, %esi
	movl	$384, %edx              # imm = 0x180
	movb	$0, %al
	callq	open
	movl	%eax, -12(%rbp)
	cmpl	$-1, -12(%rbp)
	jne	.LBB58_2
# %bb.1:                                # %if.then
	movq	$0, -32(%rbp)
	jmp	.LBB58_5
.LBB58_2:                               # %if.end
	movl	-12(%rbp), %edi
	movq	-40(%rbp), %rsi
	callq	fdopen
	movq	%rax, -24(%rbp)
	cmpq	$0, -24(%rbp)
	jne	.LBB58_4
# %bb.3:                                # %if.then3
	movl	-12(%rbp), %edi
	callq	close
.LBB58_4:                               # %if.end5
	movq	-24(%rbp), %rax
	movq	%rax, -32(%rbp)
.LBB58_5:                               # %return
	movq	-32(%rbp), %rbx
	cmpl	$757345396, -16(%rbp)   # imm = 0x2D242C74
	jne	.LBB58_7
.LBB58_6:
	movq	%rbx, %rax
	addq	$40, %rsp
	popq	%rbx
	popq	%rbp
	.cfi_def_cfa %rsp, 8
	retq
.LBB58_7:                               # %func_exit
	.cfi_def_cfa %rbp, 16
	callq	detect_breach
	jmp	.LBB58_6
.Lfunc_end58:
	.size	fopen_output_safely.16, .Lfunc_end58-fopen_output_safely.16
	.cfi_endproc
                                        # -- End function
	.globl	fopen_output_safely.17  # -- Begin function fopen_output_safely.17
	.p2align	4, 0x90
	.type	fopen_output_safely.17,@function
fopen_output_safely.17:                 # @fopen_output_safely.17
	.cfi_startproc
# %bb.0:                                # %entry
	pushq	%rbp
	.cfi_def_cfa_offset 16
	.cfi_offset %rbp, -16
	movq	%rsp, %rbp
	.cfi_def_cfa_register %rbp
	pushq	%rbx
	subq	$40, %rsp
	.cfi_offset %rbx, -24
	movl	$1275998985, -16(%rbp)  # imm = 0x4C0E3309
	movq	%rdi, -40(%rbp)
	movq	%rsi, -48(%rbp)
	movq	-40(%rbp), %rdi
	movl	$193, %esi
	movl	$384, %edx              # imm = 0x180
	movb	$0, %al
	callq	open
	movl	%eax, -12(%rbp)
	cmpl	$-1, -12(%rbp)
	jne	.LBB59_2
# %bb.1:                                # %if.then
	movq	$0, -32(%rbp)
	jmp	.LBB59_5
.LBB59_2:                               # %if.end
	movl	-12(%rbp), %edi
	movq	-48(%rbp), %rsi
	callq	fdopen
	movq	%rax, -24(%rbp)
	cmpq	$0, -24(%rbp)
	jne	.LBB59_4
# %bb.3:                                # %if.then3
	movl	-12(%rbp), %edi
	callq	close
.LBB59_4:                               # %if.end5
	movq	-24(%rbp), %rax
	movq	%rax, -32(%rbp)
.LBB59_5:                               # %return
	movq	-32(%rbp), %rbx
	cmpl	$1275998985, -16(%rbp)  # imm = 0x4C0E3309
	jne	.LBB59_7
.LBB59_6:
	movq	%rbx, %rax
	addq	$40, %rsp
	popq	%rbx
	popq	%rbp
	.cfi_def_cfa %rsp, 8
	retq
.LBB59_7:                               # %func_exit
	.cfi_def_cfa %rbp, 16
	callq	detect_breach
	jmp	.LBB59_6
.Lfunc_end59:
	.size	fopen_output_safely.17, .Lfunc_end59-fopen_output_safely.17
	.cfi_endproc
                                        # -- End function
	.p2align	4, 0x90         # -- Begin function compress.18
	.type	compress.18,@function
compress.18:                            # @compress.18
	.cfi_startproc
# %bb.0:                                # %entry
	pushq	%rbp
	.cfi_def_cfa_offset 16
	.cfi_offset %rbp, -16
	movq	%rsp, %rbp
	.cfi_def_cfa_register %rbp
	pushq	%r14
	pushq	%rbx
	subq	$192, %rsp
	.cfi_offset %rbx, -32
	.cfi_offset %r14, -24
	movl	$927990695, -64(%rbp)   # imm = 0x375003A7
	movq	%rdi, -56(%rbp)
	movb	$0, deleteOutputOnInterrupt
	cmpq	$0, -56(%rbp)
	jne	.LBB60_3
# %bb.1:                                # %land.lhs.true
	cmpl	$1, srcMode
	je	.LBB60_3
# %bb.2:                                # %if.then
	movabsq	$.L.str.53, %rdi
	callq	panic
.LBB60_3:                               # %if.end
	movl	srcMode(%rip), %eax
	movl	%eax, %ecx
	subl	$1, %ecx
	je	.LBB60_6
	jmp	.LBB60_4
.LBB60_4:                               # %if.end
	movl	%eax, %ecx
	subl	$2, %ecx
	je	.LBB60_8
	jmp	.LBB60_5
.LBB60_5:                               # %if.end
	subl	$3, %eax
	je	.LBB60_7
	jmp	.LBB60_9
.LBB60_6:                               # %sw.bb
	movabsq	$inName, %rdi
	movabsq	$.L.str.54, %rsi
	callq	copyFileName
	movabsq	$outName, %rdi
	movabsq	$.L.str.55, %rsi
	callq	copyFileName
	jmp	.LBB60_9
.LBB60_7:                               # %sw.bb2
	movq	-56(%rbp), %rsi
	movabsq	$inName, %rdi
	callq	copyFileName
	movq	-56(%rbp), %rsi
	movabsq	$outName, %rdi
	callq	copyFileName
	movabsq	$outName, %rdi
	movabsq	$.L.str.30, %rsi
	callq	strcat
	jmp	.LBB60_9
.LBB60_8:                               # %sw.bb3
	movq	-56(%rbp), %rsi
	movabsq	$inName, %rdi
	callq	copyFileName
	movabsq	$outName, %rdi
	movabsq	$.L.str.55, %rsi
	callq	copyFileName
.LBB60_9:                               # %sw.epilog
	cmpl	$1, srcMode
	je	.LBB60_14
# %bb.10:                               # %land.lhs.true5
	movabsq	$inName, %rdi
	callq	containsDubiousChars
	movzbl	%al, %eax
	cmpl	$0, %eax
	je	.LBB60_14
# %bb.11:                               # %if.then7
	cmpb	$0, noisy
	je	.LBB60_13
# %bb.12:                               # %if.then9
	movq	stderr, %rdi
	movq	progName, %rdx
	movabsq	$.L.str.56, %rsi
	movabsq	$inName, %rcx
	movb	$0, %al
	callq	fprintf
.LBB60_13:                              # %if.end11
	movl	$1, %edi
	callq	setExit
	jmp	.LBB60_80
.LBB60_14:                              # %if.end12
	cmpl	$1, srcMode
	je	.LBB60_17
# %bb.15:                               # %land.lhs.true15
	movabsq	$inName, %rdi
	callq	fileExists
	cmpb	$0, %al
	jne	.LBB60_17
# %bb.16:                               # %if.then18
	movq	stderr, %rbx
	movq	progName, %r14
	callq	__errno_location
	movl	(%rax), %edi
	callq	strerror
	movq	%rbx, %rdi
	movabsq	$.L.str.57, %rsi
	movq	%r14, %rdx
	movabsq	$inName, %rcx
	movq	%rax, %r8
	movb	$0, %al
	callq	fprintf
	movl	$1, %edi
	callq	setExit
	jmp	.LBB60_80
.LBB60_17:                              # %if.end22
	movl	$0, -20(%rbp)
.LBB60_18:                              # %for.cond
                                        # =>This Inner Loop Header: Depth=1
	cmpl	$4, -20(%rbp)
	jge	.LBB60_25
# %bb.19:                               # %for.body
                                        #   in Loop: Header=BB60_18 Depth=1
	movslq	-20(%rbp), %rax
	movq	zSuffix(,%rax,8), %rsi
	movabsq	$inName, %rdi
	callq	hasSuffix
	cmpb	$0, %al
	je	.LBB60_23
# %bb.20:                               # %if.then27
	cmpb	$0, noisy
	je	.LBB60_22
# %bb.21:                               # %if.then29
	movq	stderr, %rdi
	movq	progName, %rdx
	movslq	-20(%rbp), %rax
	movq	zSuffix(,%rax,8), %r8
	movabsq	$.L.str.58, %rsi
	movabsq	$inName, %rcx
	movb	$0, %al
	callq	fprintf
.LBB60_22:                              # %if.end33
	movl	$1, %edi
	callq	setExit
	jmp	.LBB60_80
.LBB60_23:                              # %if.end34
                                        #   in Loop: Header=BB60_18 Depth=1
	jmp	.LBB60_24
.LBB60_24:                              # %for.inc
                                        #   in Loop: Header=BB60_18 Depth=1
	movl	-20(%rbp), %eax
	addl	$1, %eax
	movl	%eax, -20(%rbp)
	jmp	.LBB60_18
.LBB60_25:                              # %for.end
	cmpl	$3, srcMode
	je	.LBB60_27
# %bb.26:                               # %lor.lhs.false
	cmpl	$2, srcMode
	jne	.LBB60_30
.LBB60_27:                              # %if.then39
	movabsq	$inName, %rdi
	leaq	-208(%rbp), %rsi
	callq	stat
	movl	-184(%rbp), %eax
	andl	$61440, %eax            # imm = 0xF000
	cmpl	$16384, %eax            # imm = 0x4000
	jne	.LBB60_29
# %bb.28:                               # %if.then43
	movq	stderr, %rdi
	movq	progName, %rdx
	movabsq	$.L.str.59, %rsi
	movabsq	$inName, %rcx
	movb	$0, %al
	callq	fprintf
	movl	$1, %edi
	callq	setExit
	jmp	.LBB60_80
.LBB60_29:                              # %if.end45
	jmp	.LBB60_30
.LBB60_30:                              # %if.end46
	cmpl	$3, srcMode
	jne	.LBB60_36
# %bb.31:                               # %land.lhs.true49
	cmpb	$0, forceOverwrite
	jne	.LBB60_36
# %bb.32:                               # %land.lhs.true51
	movabsq	$inName, %rdi
	callq	notAStandardFile
	movzbl	%al, %eax
	cmpl	$0, %eax
	je	.LBB60_36
# %bb.33:                               # %if.then55
	cmpb	$0, noisy
	je	.LBB60_35
# %bb.34:                               # %if.then57
	movq	stderr, %rdi
	movq	progName, %rdx
	movabsq	$.L.str.60, %rsi
	movabsq	$inName, %rcx
	movb	$0, %al
	callq	fprintf
.LBB60_35:                              # %if.end59
	movl	$1, %edi
	callq	setExit
	jmp	.LBB60_80
.LBB60_36:                              # %if.end60
	cmpl	$3, srcMode
	jne	.LBB60_42
# %bb.37:                               # %land.lhs.true63
	movabsq	$outName, %rdi
	callq	fileExists
	movzbl	%al, %eax
	cmpl	$0, %eax
	je	.LBB60_42
# %bb.38:                               # %if.then67
	cmpb	$0, forceOverwrite
	je	.LBB60_40
# %bb.39:                               # %if.then69
	movabsq	$outName, %rdi
	callq	remove
	jmp	.LBB60_41
.LBB60_40:                              # %if.else
	movq	stderr, %rdi
	movq	progName, %rdx
	movabsq	$.L.str.61, %rsi
	movabsq	$outName, %rcx
	movb	$0, %al
	callq	fprintf
	movl	$1, %edi
	callq	setExit
	jmp	.LBB60_80
.LBB60_41:                              # %if.end72
	jmp	.LBB60_42
.LBB60_42:                              # %if.end73
	cmpl	$3, srcMode
	jne	.LBB60_46
# %bb.43:                               # %land.lhs.true76
	cmpb	$0, forceOverwrite
	jne	.LBB60_46
# %bb.44:                               # %land.lhs.true78
	movabsq	$inName, %rdi
	callq	countHardLinks
	movl	%eax, -44(%rbp)
	cmpl	$0, %eax
	jle	.LBB60_46
# %bb.45:                               # %if.then82
	movq	stderr, %rdi
	movq	progName, %rdx
	movl	-44(%rbp), %r8d
	movl	-44(%rbp), %eax
	cmpl	$1, %eax
	movabsq	$.L.str.63, %rax
	movabsq	$.L.str.34, %r9
	cmovgq	%rax, %r9
	movabsq	$.L.str.62, %rsi
	movabsq	$inName, %rcx
	movb	$0, %al
	callq	fprintf
	movl	$1, %edi
	callq	setExit
	jmp	.LBB60_80
.LBB60_46:                              # %if.end86
	cmpl	$3, srcMode
	jne	.LBB60_48
# %bb.47:                               # %if.then89
	movabsq	$inName, %rdi
	callq	saveInputFileMetaInfo
.LBB60_48:                              # %if.end90
	movl	srcMode(%rip), %eax
	movl	%eax, %ecx
	subl	$1, %ecx
	je	.LBB60_51
	jmp	.LBB60_49
.LBB60_49:                              # %if.end90
	movl	%eax, %ecx
	subl	$2, %ecx
	je	.LBB60_54
	jmp	.LBB60_50
.LBB60_50:                              # %if.end90
	subl	$3, %eax
	je	.LBB60_61
	jmp	.LBB60_70
.LBB60_51:                              # %sw.bb91
	movq	stdin, %rax
	movq	%rax, -32(%rbp)
	movq	stdout, %rax
	movq	%rax, -40(%rbp)
	movq	stdout, %rdi
	callq	fileno
	movl	%eax, %edi
	callq	isatty
	cmpl	$0, %eax
	je	.LBB60_53
# %bb.52:                               # %if.then95
	movq	stderr, %rdi
	movq	progName, %rdx
	movabsq	$.L.str.64, %rsi
	movb	$0, %al
	callq	fprintf
	movq	stderr, %rdi
	movq	progName, %rdx
	movq	progName, %rcx
	movabsq	$.L.str.65, %rsi
	movb	$0, %al
	callq	fprintf
	movl	$1, %edi
	callq	setExit
	jmp	.LBB60_80
.LBB60_53:                              # %if.end98
	jmp	.LBB60_71
.LBB60_54:                              # %sw.bb99
	movabsq	$inName, %rdi
	movabsq	$.L.str.66, %rsi
	callq	fopen
	movq	%rax, -32(%rbp)
	movq	stdout, %rax
	movq	%rax, -40(%rbp)
	movq	stdout, %rdi
	callq	fileno
	movl	%eax, %edi
	callq	isatty
	cmpl	$0, %eax
	je	.LBB60_58
# %bb.55:                               # %if.then104
	movq	stderr, %rdi
	movq	progName, %rdx
	movabsq	$.L.str.64, %rsi
	movb	$0, %al
	callq	fprintf
	movq	stderr, %rdi
	movq	progName, %rdx
	movq	progName, %rcx
	movabsq	$.L.str.65, %rsi
	movb	$0, %al
	callq	fprintf
	cmpq	$0, -32(%rbp)
	je	.LBB60_57
# %bb.56:                               # %if.then109
	movq	-32(%rbp), %rdi
	callq	fclose
.LBB60_57:                              # %if.end111
	movl	$1, %edi
	callq	setExit
	jmp	.LBB60_80
.LBB60_58:                              # %if.end112
	cmpq	$0, -32(%rbp)
	jne	.LBB60_60
# %bb.59:                               # %if.then115
	movq	stderr, %rbx
	movq	progName, %r14
	callq	__errno_location
	movl	(%rax), %edi
	callq	strerror
	movq	%rbx, %rdi
	movabsq	$.L.str.57, %rsi
	movq	%r14, %rdx
	movabsq	$inName, %rcx
	movq	%rax, %r8
	movb	$0, %al
	callq	fprintf
	movl	$1, %edi
	callq	setExit
	jmp	.LBB60_80
.LBB60_60:                              # %if.end119
	jmp	.LBB60_71
.LBB60_61:                              # %sw.bb120
	movabsq	$inName, %rdi
	movabsq	$.L.str.66, %rsi
	callq	fopen
	movq	%rax, -32(%rbp)
	movabsq	$outName, %rdi
	movabsq	$.L.str.67, %rsi
	callq	fopen_output_safely
	movq	%rax, -40(%rbp)
	cmpq	$0, -40(%rbp)
	jne	.LBB60_65
# %bb.62:                               # %if.then125
	movq	stderr, %rbx
	movq	progName, %r14
	callq	__errno_location
	movl	(%rax), %edi
	callq	strerror
	movq	%rbx, %rdi
	movabsq	$.L.str.68, %rsi
	movq	%r14, %rdx
	movabsq	$outName, %rcx
	movq	%rax, %r8
	movb	$0, %al
	callq	fprintf
	cmpq	$0, -32(%rbp)
	je	.LBB60_64
# %bb.63:                               # %if.then131
	movq	-32(%rbp), %rdi
	callq	fclose
.LBB60_64:                              # %if.end133
	movl	$1, %edi
	callq	setExit
	jmp	.LBB60_80
.LBB60_65:                              # %if.end134
	cmpq	$0, -32(%rbp)
	jne	.LBB60_69
# %bb.66:                               # %if.then137
	movq	stderr, %rbx
	movq	progName, %r14
	callq	__errno_location
	movl	(%rax), %edi
	callq	strerror
	movq	%rbx, %rdi
	movabsq	$.L.str.57, %rsi
	movq	%r14, %rdx
	movabsq	$inName, %rcx
	movq	%rax, %r8
	movb	$0, %al
	callq	fprintf
	cmpq	$0, -40(%rbp)
	je	.LBB60_68
# %bb.67:                               # %if.then143
	movq	-40(%rbp), %rdi
	callq	fclose
.LBB60_68:                              # %if.end145
	movl	$1, %edi
	callq	setExit
	jmp	.LBB60_80
.LBB60_69:                              # %if.end146
	jmp	.LBB60_71
.LBB60_70:                              # %sw.default
	movabsq	$.L.str.69, %rdi
	callq	panic
.LBB60_71:                              # %sw.epilog147
	cmpl	$1, verbosity
	jl	.LBB60_73
# %bb.72:                               # %if.then150
	movq	stderr, %rdi
	movabsq	$.L.str.70, %rsi
	movabsq	$inName, %rdx
	movb	$0, %al
	callq	fprintf
	movabsq	$inName, %rdi
	callq	pad
	movq	stderr, %rdi
	callq	fflush
.LBB60_73:                              # %if.end153
	movq	-40(%rbp), %rax
	movq	%rax, outputHandleJustInCase
	movb	$1, deleteOutputOnInterrupt
	movq	-32(%rbp), %rdi
	movq	-40(%rbp), %rsi
	callq	compressStream
	movq	$0, outputHandleJustInCase
	cmpl	$3, srcMode
	jne	.LBB60_79
# %bb.74:                               # %if.then156
	movabsq	$outName, %rdi
	callq	applySavedMetaInfoToOutputFile
	movb	$0, deleteOutputOnInterrupt
	cmpb	$0, keepInputFiles
	jne	.LBB60_78
# %bb.75:                               # %if.then158
	movabsq	$inName, %rdi
	callq	remove
	movl	%eax, -60(%rbp)
	cmpl	$0, -60(%rbp)
	je	.LBB60_77
# %bb.76:                               # %if.then162
	callq	ioError
.LBB60_77:                              # %if.end163
	jmp	.LBB60_78
.LBB60_78:                              # %if.end164
	jmp	.LBB60_79
.LBB60_79:                              # %if.end165
	movb	$0, deleteOutputOnInterrupt
.LBB60_80:                              # %return
	cmpl	$927990695, -64(%rbp)   # imm = 0x375003A7
	jne	.LBB60_82
.LBB60_81:
	addq	$192, %rsp
	popq	%rbx
	popq	%r14
	popq	%rbp
	.cfi_def_cfa %rsp, 8
	retq
.LBB60_82:                              # %func_exit
	.cfi_def_cfa %rbp, 16
	callq	detect_breach
	jmp	.LBB60_81
.Lfunc_end60:
	.size	compress.18, .Lfunc_end60-compress.18
	.cfi_endproc
                                        # -- End function
	.section	.rodata.cst8,"aM",@progbits,8
	.p2align	3               # -- Begin function uInt64_to_double.19
.LCPI61_0:
	.quad	4607182418800017408     # double 1
.LCPI61_1:
	.quad	4643211215818981376     # double 256
	.text
	.p2align	4, 0x90
	.type	uInt64_to_double.19,@function
uInt64_to_double.19:                    # @uInt64_to_double.19
	.cfi_startproc
# %bb.0:                                # %entry
	pushq	%rbp
	.cfi_def_cfa_offset 16
	.cfi_offset %rbp, -16
	movq	%rsp, %rbp
	.cfi_def_cfa_register %rbp
	subq	$48, %rsp
	vmovsd	.LCPI61_0(%rip), %xmm0  # xmm0 = mem[0],zero
	movl	$1231234709, -28(%rbp)  # imm = 0x49632695
	movq	%rdi, -48(%rbp)
	vmovsd	%xmm0, -24(%rbp)
	vxorps	%xmm0, %xmm0, %xmm0
	vmovsd	%xmm0, -16(%rbp)
	movl	$0, -4(%rbp)
.LBB61_1:                               # %for.cond
                                        # =>This Inner Loop Header: Depth=1
	cmpl	$8, -4(%rbp)
	jge	.LBB61_4
# %bb.2:                                # %for.body
                                        #   in Loop: Header=BB61_1 Depth=1
	vmovsd	.LCPI61_1(%rip), %xmm0  # xmm0 = mem[0],zero
	vmovsd	-24(%rbp), %xmm1        # xmm1 = mem[0],zero
	movq	-48(%rbp), %rax
	movslq	-4(%rbp), %rcx
	movzbl	(%rax,%rcx), %eax
	vcvtsi2sd	%eax, %xmm0, %xmm2
	vmulsd	%xmm2, %xmm1, %xmm1
	vaddsd	-16(%rbp), %xmm1, %xmm1
	vmovsd	%xmm1, -16(%rbp)
	vmulsd	-24(%rbp), %xmm0, %xmm0
	vmovsd	%xmm0, -24(%rbp)
# %bb.3:                                # %for.inc
                                        #   in Loop: Header=BB61_1 Depth=1
	movl	-4(%rbp), %eax
	addl	$1, %eax
	movl	%eax, -4(%rbp)
	jmp	.LBB61_1
.LBB61_4:                               # %for.end
	vmovsd	-16(%rbp), %xmm0        # xmm0 = mem[0],zero
	cmpl	$1231234709, -28(%rbp)  # imm = 0x49632695
	jne	.LBB61_6
.LBB61_5:
	addq	$48, %rsp
	popq	%rbp
	.cfi_def_cfa %rsp, 8
	retq
.LBB61_6:                               # %func_exit
	.cfi_def_cfa %rbp, 16
	vmovsd	%xmm0, -40(%rbp)        # 8-byte Spill
	callq	detect_breach
	vmovsd	-40(%rbp), %xmm0        # 8-byte Reload
                                        # xmm0 = mem[0],zero
	jmp	.LBB61_5
.Lfunc_end61:
	.size	uInt64_to_double.19, .Lfunc_end61-uInt64_to_double.19
	.cfi_endproc
                                        # -- End function
	.p2align	4, 0x90         # -- Begin function fileExists.20
	.type	fileExists.20,@function
fileExists.20:                          # @fileExists.20
	.cfi_startproc
# %bb.0:                                # %entry
	pushq	%rbp
	.cfi_def_cfa_offset 16
	.cfi_offset %rbp, -16
	movq	%rsp, %rbp
	.cfi_def_cfa_register %rbp
	pushq	%rbx
	subq	$40, %rsp
	.cfi_offset %rbx, -24
	movl	$1221193522, -28(%rbp)  # imm = 0x48C9EF32
	movq	%rdi, -40(%rbp)
	movq	-40(%rbp), %rdi
	movabsq	$.L.str.66, %rsi
	callq	fopen
	movq	%rax, -24(%rbp)
	cmpq	$0, -24(%rbp)
	setne	%al
	andb	$1, %al
	movzbl	%al, %eax
	movb	%al, -9(%rbp)
	cmpq	$0, -24(%rbp)
	je	.LBB62_2
# %bb.1:                                # %if.then
	movq	-24(%rbp), %rdi
	callq	fclose
.LBB62_2:                               # %if.end
	movb	-9(%rbp), %bl
	cmpl	$1221193522, -28(%rbp)  # imm = 0x48C9EF32
	jne	.LBB62_4
.LBB62_3:
	movzbl	%bl, %eax
	addq	$40, %rsp
	popq	%rbx
	popq	%rbp
	.cfi_def_cfa %rsp, 8
	retq
.LBB62_4:                               # %func_exit
	.cfi_def_cfa %rbp, 16
	callq	detect_breach
	jmp	.LBB62_3
.Lfunc_end62:
	.size	fileExists.20, .Lfunc_end62-fileExists.20
	.cfi_endproc
                                        # -- End function
	.p2align	4, 0x90         # -- Begin function uncompress.21
	.type	uncompress.21,@function
uncompress.21:                          # @uncompress.21
	.cfi_startproc
# %bb.0:                                # %entry
	pushq	%rbp
	.cfi_def_cfa_offset 16
	.cfi_offset %rbp, -16
	movq	%rsp, %rbp
	.cfi_def_cfa_register %rbp
	pushq	%r14
	pushq	%rbx
	subq	$208, %rsp
	.cfi_offset %rbx, -32
	.cfi_offset %r14, -24
	movl	$74313888, -64(%rbp)    # imm = 0x46DF0A0
	movq	%rdi, -56(%rbp)
	movb	$0, deleteOutputOnInterrupt
	cmpq	$0, -56(%rbp)
	jne	.LBB63_3
# %bb.1:                                # %land.lhs.true
	cmpl	$1, srcMode
	je	.LBB63_3
# %bb.2:                                # %if.then
	movabsq	$.L.str.79, %rdi
	callq	panic
.LBB63_3:                               # %if.end
	movb	$0, -18(%rbp)
	movl	srcMode(%rip), %eax
	movl	%eax, %ecx
	subl	$1, %ecx
	je	.LBB63_6
	jmp	.LBB63_4
.LBB63_4:                               # %if.end
	movl	%eax, %ecx
	subl	$2, %ecx
	je	.LBB63_14
	jmp	.LBB63_5
.LBB63_5:                               # %if.end
	subl	$3, %eax
	je	.LBB63_7
	jmp	.LBB63_15
.LBB63_6:                               # %sw.bb
	movabsq	$inName, %rdi
	movabsq	$.L.str.54, %rsi
	callq	copyFileName
	movabsq	$outName, %rdi
	movabsq	$.L.str.55, %rsi
	callq	copyFileName
	jmp	.LBB63_15
.LBB63_7:                               # %sw.bb2
	movq	-56(%rbp), %rsi
	movabsq	$inName, %rdi
	callq	copyFileName
	movq	-56(%rbp), %rsi
	movabsq	$outName, %rdi
	callq	copyFileName
	movl	$0, -24(%rbp)
.LBB63_8:                               # %for.cond
                                        # =>This Inner Loop Header: Depth=1
	cmpl	$4, -24(%rbp)
	jge	.LBB63_13
# %bb.9:                                # %for.body
                                        #   in Loop: Header=BB63_8 Depth=1
	movslq	-24(%rbp), %rax
	movq	zSuffix(,%rax,8), %rsi
	movslq	-24(%rbp), %rax
	movq	unzSuffix(,%rax,8), %rdx
	movabsq	$outName, %rdi
	callq	mapSuffix
	cmpb	$0, %al
	je	.LBB63_11
# %bb.10:                               # %if.then6
	jmp	.LBB63_16
.LBB63_11:                              # %if.end7
                                        #   in Loop: Header=BB63_8 Depth=1
	jmp	.LBB63_12
.LBB63_12:                              # %for.inc
                                        #   in Loop: Header=BB63_8 Depth=1
	movl	-24(%rbp), %eax
	addl	$1, %eax
	movl	%eax, -24(%rbp)
	jmp	.LBB63_8
.LBB63_13:                              # %for.end
	movb	$1, -18(%rbp)
	movabsq	$outName, %rdi
	movabsq	$.L.str.80, %rsi
	callq	strcat
	jmp	.LBB63_15
.LBB63_14:                              # %sw.bb9
	movq	-56(%rbp), %rsi
	movabsq	$inName, %rdi
	callq	copyFileName
	movabsq	$outName, %rdi
	movabsq	$.L.str.55, %rsi
	callq	copyFileName
.LBB63_15:                              # %sw.epilog
	jmp	.LBB63_16
.LBB63_16:                              # %zzz
	cmpl	$1, srcMode
	je	.LBB63_21
# %bb.17:                               # %land.lhs.true11
	movabsq	$inName, %rdi
	callq	containsDubiousChars
	movzbl	%al, %eax
	cmpl	$0, %eax
	je	.LBB63_21
# %bb.18:                               # %if.then14
	cmpb	$0, noisy
	je	.LBB63_20
# %bb.19:                               # %if.then16
	movq	stderr, %rdi
	movq	progName, %rdx
	movabsq	$.L.str.56, %rsi
	movabsq	$inName, %rcx
	movb	$0, %al
	callq	fprintf
.LBB63_20:                              # %if.end18
	movl	$1, %edi
	callq	setExit
	jmp	.LBB63_95
.LBB63_21:                              # %if.end19
	cmpl	$1, srcMode
	je	.LBB63_24
# %bb.22:                               # %land.lhs.true22
	movabsq	$inName, %rdi
	callq	fileExists
	cmpb	$0, %al
	jne	.LBB63_24
# %bb.23:                               # %if.then25
	movq	stderr, %rbx
	movq	progName, %r14
	callq	__errno_location
	movl	(%rax), %edi
	callq	strerror
	movq	%rbx, %rdi
	movabsq	$.L.str.57, %rsi
	movq	%r14, %rdx
	movabsq	$inName, %rcx
	movq	%rax, %r8
	movb	$0, %al
	callq	fprintf
	movl	$1, %edi
	callq	setExit
	jmp	.LBB63_95
.LBB63_24:                              # %if.end29
	cmpl	$3, srcMode
	je	.LBB63_26
# %bb.25:                               # %lor.lhs.false
	cmpl	$2, srcMode
	jne	.LBB63_29
.LBB63_26:                              # %if.then34
	movabsq	$inName, %rdi
	leaq	-216(%rbp), %rsi
	callq	stat
	movl	-192(%rbp), %eax
	andl	$61440, %eax            # imm = 0xF000
	cmpl	$16384, %eax            # imm = 0x4000
	jne	.LBB63_28
# %bb.27:                               # %if.then38
	movq	stderr, %rdi
	movq	progName, %rdx
	movabsq	$.L.str.59, %rsi
	movabsq	$inName, %rcx
	movb	$0, %al
	callq	fprintf
	movl	$1, %edi
	callq	setExit
	jmp	.LBB63_95
.LBB63_28:                              # %if.end40
	jmp	.LBB63_29
.LBB63_29:                              # %if.end41
	cmpl	$3, srcMode
	jne	.LBB63_35
# %bb.30:                               # %land.lhs.true44
	cmpb	$0, forceOverwrite
	jne	.LBB63_35
# %bb.31:                               # %land.lhs.true46
	movabsq	$inName, %rdi
	callq	notAStandardFile
	movzbl	%al, %eax
	cmpl	$0, %eax
	je	.LBB63_35
# %bb.32:                               # %if.then50
	cmpb	$0, noisy
	je	.LBB63_34
# %bb.33:                               # %if.then52
	movq	stderr, %rdi
	movq	progName, %rdx
	movabsq	$.L.str.60, %rsi
	movabsq	$inName, %rcx
	movb	$0, %al
	callq	fprintf
.LBB63_34:                              # %if.end54
	movl	$1, %edi
	callq	setExit
	jmp	.LBB63_95
.LBB63_35:                              # %if.end55
	cmpb	$0, -18(%rbp)
	je	.LBB63_39
# %bb.36:                               # %if.then57
	cmpb	$0, noisy
	je	.LBB63_38
# %bb.37:                               # %if.then59
	movq	stderr, %rdi
	movq	progName, %rdx
	movabsq	$.L.str.81, %rsi
	movabsq	$inName, %rcx
	movabsq	$outName, %r8
	movb	$0, %al
	callq	fprintf
.LBB63_38:                              # %if.end61
	jmp	.LBB63_39
.LBB63_39:                              # %if.end62
	cmpl	$3, srcMode
	jne	.LBB63_45
# %bb.40:                               # %land.lhs.true65
	movabsq	$outName, %rdi
	callq	fileExists
	movzbl	%al, %eax
	cmpl	$0, %eax
	je	.LBB63_45
# %bb.41:                               # %if.then69
	cmpb	$0, forceOverwrite
	je	.LBB63_43
# %bb.42:                               # %if.then71
	movabsq	$outName, %rdi
	callq	remove
	jmp	.LBB63_44
.LBB63_43:                              # %if.else
	movq	stderr, %rdi
	movq	progName, %rdx
	movabsq	$.L.str.61, %rsi
	movabsq	$outName, %rcx
	movb	$0, %al
	callq	fprintf
	movl	$1, %edi
	callq	setExit
	jmp	.LBB63_95
.LBB63_44:                              # %if.end74
	jmp	.LBB63_45
.LBB63_45:                              # %if.end75
	cmpl	$3, srcMode
	jne	.LBB63_49
# %bb.46:                               # %land.lhs.true78
	cmpb	$0, forceOverwrite
	jne	.LBB63_49
# %bb.47:                               # %land.lhs.true80
	movabsq	$inName, %rdi
	callq	countHardLinks
	movl	%eax, -44(%rbp)
	cmpl	$0, %eax
	jle	.LBB63_49
# %bb.48:                               # %if.then84
	movq	stderr, %rdi
	movq	progName, %rdx
	movl	-44(%rbp), %r8d
	movl	-44(%rbp), %eax
	cmpl	$1, %eax
	movabsq	$.L.str.63, %rax
	movabsq	$.L.str.34, %r9
	cmovgq	%rax, %r9
	movabsq	$.L.str.62, %rsi
	movabsq	$inName, %rcx
	movb	$0, %al
	callq	fprintf
	movl	$1, %edi
	callq	setExit
	jmp	.LBB63_95
.LBB63_49:                              # %if.end88
	cmpl	$3, srcMode
	jne	.LBB63_51
# %bb.50:                               # %if.then91
	movabsq	$inName, %rdi
	callq	saveInputFileMetaInfo
.LBB63_51:                              # %if.end92
	movl	srcMode(%rip), %eax
	movl	%eax, %ecx
	subl	$1, %ecx
	je	.LBB63_54
	jmp	.LBB63_52
.LBB63_52:                              # %if.end92
	movl	%eax, %ecx
	subl	$2, %ecx
	je	.LBB63_57
	jmp	.LBB63_53
.LBB63_53:                              # %if.end92
	subl	$3, %eax
	je	.LBB63_62
	jmp	.LBB63_71
.LBB63_54:                              # %sw.bb93
	movq	stdin, %rax
	movq	%rax, -32(%rbp)
	movq	stdout, %rax
	movq	%rax, -40(%rbp)
	movq	stdin, %rdi
	callq	fileno
	movl	%eax, %edi
	callq	isatty
	cmpl	$0, %eax
	je	.LBB63_56
# %bb.55:                               # %if.then97
	movq	stderr, %rdi
	movq	progName, %rdx
	movabsq	$.L.str.82, %rsi
	movb	$0, %al
	callq	fprintf
	movq	stderr, %rdi
	movq	progName, %rdx
	movq	progName, %rcx
	movabsq	$.L.str.65, %rsi
	movb	$0, %al
	callq	fprintf
	movl	$1, %edi
	callq	setExit
	jmp	.LBB63_95
.LBB63_56:                              # %if.end100
	jmp	.LBB63_72
.LBB63_57:                              # %sw.bb101
	movabsq	$inName, %rdi
	movabsq	$.L.str.66, %rsi
	callq	fopen
	movq	%rax, -32(%rbp)
	movq	stdout, %rax
	movq	%rax, -40(%rbp)
	cmpq	$0, -32(%rbp)
	jne	.LBB63_61
# %bb.58:                               # %if.then105
	movq	stderr, %rbx
	movq	progName, %r14
	callq	__errno_location
	movl	(%rax), %edi
	callq	strerror
	movq	%rbx, %rdi
	movabsq	$.L.str.83, %rsi
	movq	%r14, %rdx
	movabsq	$inName, %rcx
	movq	%rax, %r8
	movb	$0, %al
	callq	fprintf
	cmpq	$0, -32(%rbp)
	je	.LBB63_60
# %bb.59:                               # %if.then111
	movq	-32(%rbp), %rdi
	callq	fclose
.LBB63_60:                              # %if.end113
	movl	$1, %edi
	callq	setExit
	jmp	.LBB63_95
.LBB63_61:                              # %if.end114
	jmp	.LBB63_72
.LBB63_62:                              # %sw.bb115
	movabsq	$inName, %rdi
	movabsq	$.L.str.66, %rsi
	callq	fopen
	movq	%rax, -32(%rbp)
	movabsq	$outName, %rdi
	movabsq	$.L.str.67, %rsi
	callq	fopen_output_safely
	movq	%rax, -40(%rbp)
	cmpq	$0, -40(%rbp)
	jne	.LBB63_66
# %bb.63:                               # %if.then120
	movq	stderr, %rbx
	movq	progName, %r14
	callq	__errno_location
	movl	(%rax), %edi
	callq	strerror
	movq	%rbx, %rdi
	movabsq	$.L.str.68, %rsi
	movq	%r14, %rdx
	movabsq	$outName, %rcx
	movq	%rax, %r8
	movb	$0, %al
	callq	fprintf
	cmpq	$0, -32(%rbp)
	je	.LBB63_65
# %bb.64:                               # %if.then126
	movq	-32(%rbp), %rdi
	callq	fclose
.LBB63_65:                              # %if.end128
	movl	$1, %edi
	callq	setExit
	jmp	.LBB63_95
.LBB63_66:                              # %if.end129
	cmpq	$0, -32(%rbp)
	jne	.LBB63_70
# %bb.67:                               # %if.then132
	movq	stderr, %rbx
	movq	progName, %r14
	callq	__errno_location
	movl	(%rax), %edi
	callq	strerror
	movq	%rbx, %rdi
	movabsq	$.L.str.57, %rsi
	movq	%r14, %rdx
	movabsq	$inName, %rcx
	movq	%rax, %r8
	movb	$0, %al
	callq	fprintf
	cmpq	$0, -40(%rbp)
	je	.LBB63_69
# %bb.68:                               # %if.then138
	movq	-40(%rbp), %rdi
	callq	fclose
.LBB63_69:                              # %if.end140
	movl	$1, %edi
	callq	setExit
	jmp	.LBB63_95
.LBB63_70:                              # %if.end141
	jmp	.LBB63_72
.LBB63_71:                              # %sw.default
	movabsq	$.L.str.84, %rdi
	callq	panic
.LBB63_72:                              # %sw.epilog142
	cmpl	$1, verbosity
	jl	.LBB63_74
# %bb.73:                               # %if.then145
	movq	stderr, %rdi
	movabsq	$.L.str.70, %rsi
	movabsq	$inName, %rdx
	movb	$0, %al
	callq	fprintf
	movabsq	$inName, %rdi
	callq	pad
	movq	stderr, %rdi
	callq	fflush
.LBB63_74:                              # %if.end148
	movq	-40(%rbp), %rax
	movq	%rax, outputHandleJustInCase
	movb	$1, deleteOutputOnInterrupt
	movq	-32(%rbp), %rdi
	movq	-40(%rbp), %rsi
	callq	uncompressStream
	movb	%al, -17(%rbp)
	movq	$0, outputHandleJustInCase
	cmpb	$0, -17(%rbp)
	je	.LBB63_82
# %bb.75:                               # %if.then151
	cmpl	$3, srcMode
	jne	.LBB63_81
# %bb.76:                               # %if.then154
	movabsq	$outName, %rdi
	callq	applySavedMetaInfoToOutputFile
	movb	$0, deleteOutputOnInterrupt
	cmpb	$0, keepInputFiles
	jne	.LBB63_80
# %bb.77:                               # %if.then156
	movabsq	$inName, %rdi
	callq	remove
	movl	%eax, -60(%rbp)
	cmpl	$0, -60(%rbp)
	je	.LBB63_79
# %bb.78:                               # %if.then160
	callq	ioError
.LBB63_79:                              # %if.end161
	jmp	.LBB63_80
.LBB63_80:                              # %if.end162
	jmp	.LBB63_81
.LBB63_81:                              # %if.end163
	jmp	.LBB63_87
.LBB63_82:                              # %if.else164
	movb	$1, unzFailsExist
	movb	$0, deleteOutputOnInterrupt
	cmpl	$3, srcMode
	jne	.LBB63_86
# %bb.83:                               # %if.then167
	movabsq	$outName, %rdi
	callq	remove
	movl	%eax, -68(%rbp)
	cmpl	$0, -68(%rbp)
	je	.LBB63_85
# %bb.84:                               # %if.then172
	callq	ioError
.LBB63_85:                              # %if.end173
	jmp	.LBB63_86
.LBB63_86:                              # %if.end174
	jmp	.LBB63_87
.LBB63_87:                              # %if.end175
	movb	$0, deleteOutputOnInterrupt
	cmpb	$0, -17(%rbp)
	je	.LBB63_91
# %bb.88:                               # %if.then177
	cmpl	$1, verbosity
	jl	.LBB63_90
# %bb.89:                               # %if.then180
	movq	stderr, %rdi
	movabsq	$.L.str.85, %rsi
	movb	$0, %al
	callq	fprintf
.LBB63_90:                              # %if.end182
	jmp	.LBB63_95
.LBB63_91:                              # %if.else183
	movl	$2, %edi
	callq	setExit
	cmpl	$1, verbosity
	jl	.LBB63_93
# %bb.92:                               # %if.then186
	movq	stderr, %rdi
	movabsq	$.L.str.86, %rsi
	movb	$0, %al
	callq	fprintf
	jmp	.LBB63_94
.LBB63_93:                              # %if.else188
	movq	stderr, %rdi
	movq	progName, %rdx
	movabsq	$.L.str.87, %rsi
	movabsq	$inName, %rcx
	movb	$0, %al
	callq	fprintf
.LBB63_94:                              # %if.end190
	jmp	.LBB63_95
.LBB63_95:                              # %if.end191
	cmpl	$74313888, -64(%rbp)    # imm = 0x46DF0A0
	jne	.LBB63_97
.LBB63_96:
	addq	$208, %rsp
	popq	%rbx
	popq	%r14
	popq	%rbp
	.cfi_def_cfa %rsp, 8
	retq
.LBB63_97:                              # %func_exit
	.cfi_def_cfa %rbp, 16
	callq	detect_breach
	jmp	.LBB63_96
.Lfunc_end63:
	.size	uncompress.21, .Lfunc_end63-uncompress.21
	.cfi_endproc
                                        # -- End function
	.p2align	4, 0x90         # -- Begin function myfeof.22
	.type	myfeof.22,@function
myfeof.22:                              # @myfeof.22
	.cfi_startproc
# %bb.0:                                # %entry
	pushq	%rbp
	.cfi_def_cfa_offset 16
	.cfi_offset %rbp, -16
	movq	%rsp, %rbp
	.cfi_def_cfa_register %rbp
	pushq	%rbx
	subq	$24, %rsp
	.cfi_offset %rbx, -24
	movl	$701575708, -20(%rbp)   # imm = 0x29D1321C
	movq	%rdi, -32(%rbp)
	movq	-32(%rbp), %rdi
	callq	fgetc
	movl	%eax, -16(%rbp)
	cmpl	$-1, -16(%rbp)
	jne	.LBB64_2
# %bb.1:                                # %if.then
	movb	$1, -9(%rbp)
	jmp	.LBB64_3
.LBB64_2:                               # %if.end
	movl	-16(%rbp), %edi
	movq	-32(%rbp), %rsi
	callq	ungetc
	movb	$0, -9(%rbp)
.LBB64_3:                               # %return
	movb	-9(%rbp), %bl
	cmpl	$701575708, -20(%rbp)   # imm = 0x29D1321C
	jne	.LBB64_5
.LBB64_4:
	movzbl	%bl, %eax
	addq	$24, %rsp
	popq	%rbx
	popq	%rbp
	.cfi_def_cfa %rsp, 8
	retq
.LBB64_5:                               # %func_exit
	.cfi_def_cfa %rbp, 16
	callq	detect_breach
	jmp	.LBB64_4
.Lfunc_end64:
	.size	myfeof.22, .Lfunc_end64-myfeof.22
	.cfi_endproc
                                        # -- End function
	.globl	fopen_output_safely.23  # -- Begin function fopen_output_safely.23
	.p2align	4, 0x90
	.type	fopen_output_safely.23,@function
fopen_output_safely.23:                 # @fopen_output_safely.23
	.cfi_startproc
# %bb.0:                                # %entry
	pushq	%rbp
	.cfi_def_cfa_offset 16
	.cfi_offset %rbp, -16
	movq	%rsp, %rbp
	.cfi_def_cfa_register %rbp
	pushq	%rbx
	subq	$40, %rsp
	.cfi_offset %rbx, -24
	movl	$814544345, -16(%rbp)   # imm = 0x308CF5D9
	movq	%rdi, -48(%rbp)
	movq	%rsi, -40(%rbp)
	movq	-48(%rbp), %rdi
	movl	$193, %esi
	movl	$384, %edx              # imm = 0x180
	movb	$0, %al
	callq	open
	movl	%eax, -12(%rbp)
	cmpl	$-1, -12(%rbp)
	jne	.LBB65_2
# %bb.1:                                # %if.then
	movq	$0, -32(%rbp)
	jmp	.LBB65_5
.LBB65_2:                               # %if.end
	movl	-12(%rbp), %edi
	movq	-40(%rbp), %rsi
	callq	fdopen
	movq	%rax, -24(%rbp)
	cmpq	$0, -24(%rbp)
	jne	.LBB65_4
# %bb.3:                                # %if.then3
	movl	-12(%rbp), %edi
	callq	close
.LBB65_4:                               # %if.end5
	movq	-24(%rbp), %rax
	movq	%rax, -32(%rbp)
.LBB65_5:                               # %return
	movq	-32(%rbp), %rbx
	cmpl	$814544345, -16(%rbp)   # imm = 0x308CF5D9
	jne	.LBB65_7
.LBB65_6:
	movq	%rbx, %rax
	addq	$40, %rsp
	popq	%rbx
	popq	%rbp
	.cfi_def_cfa %rsp, 8
	retq
.LBB65_7:                               # %func_exit
	.cfi_def_cfa %rbp, 16
	callq	detect_breach
	jmp	.LBB65_6
.Lfunc_end65:
	.size	fopen_output_safely.23, .Lfunc_end65-fopen_output_safely.23
	.cfi_endproc
                                        # -- End function
	.p2align	4, 0x90         # -- Begin function saveInputFileMetaInfo.24
	.type	saveInputFileMetaInfo.24,@function
saveInputFileMetaInfo.24:               # @saveInputFileMetaInfo.24
	.cfi_startproc
# %bb.0:                                # %entry
	pushq	%rbp
	.cfi_def_cfa_offset 16
	.cfi_offset %rbp, -16
	movq	%rsp, %rbp
	.cfi_def_cfa_register %rbp
	subq	$16, %rsp
	movl	$973742862, -8(%rbp)    # imm = 0x3A0A230E
	movq	%rdi, -16(%rbp)
	movq	-16(%rbp), %rdi
	movabsq	$fileMetaInfo, %rsi
	callq	stat
	movl	%eax, -4(%rbp)
	cmpl	$0, -4(%rbp)
	je	.LBB66_2
# %bb.1:                                # %if.then
	callq	ioError
.LBB66_2:                               # %if.end
	cmpl	$973742862, -8(%rbp)    # imm = 0x3A0A230E
	jne	.LBB66_4
.LBB66_3:
	addq	$16, %rsp
	popq	%rbp
	.cfi_def_cfa %rsp, 8
	retq
.LBB66_4:                               # %func_exit
	.cfi_def_cfa %rbp, 16
	callq	detect_breach
	jmp	.LBB66_3
.Lfunc_end66:
	.size	saveInputFileMetaInfo.24, .Lfunc_end66-saveInputFileMetaInfo.24
	.cfi_endproc
                                        # -- End function
	.p2align	4, 0x90         # -- Begin function cleanUpAndFail.25
	.type	cleanUpAndFail.25,@function
cleanUpAndFail.25:                      # @cleanUpAndFail.25
	.cfi_startproc
# %bb.0:                                # %entry
	pushq	%rbp
	.cfi_def_cfa_offset 16
	.cfi_offset %rbp, -16
	movq	%rsp, %rbp
	.cfi_def_cfa_register %rbp
	subq	$160, %rsp
	movl	$916140072, -12(%rbp)   # imm = 0x369B3028
	movl	%edi, -8(%rbp)
	cmpl	$3, srcMode
	jne	.LBB67_13
# %bb.1:                                # %land.lhs.true
	cmpl	$3, opMode
	je	.LBB67_13
# %bb.2:                                # %land.lhs.true2
	movzbl	deleteOutputOnInterrupt, %eax
	cmpl	$0, %eax
	je	.LBB67_13
# %bb.3:                                # %if.then
	movabsq	$inName, %rdi
	leaq	-160(%rbp), %rsi
	callq	stat
	movl	%eax, -4(%rbp)
	cmpl	$0, -4(%rbp)
	jne	.LBB67_11
# %bb.4:                                # %if.then5
	cmpb	$0, noisy
	je	.LBB67_6
# %bb.5:                                # %if.then7
	movq	stderr, %rdi
	movq	progName, %rdx
	movabsq	$.L.str.39, %rsi
	movabsq	$outName, %rcx
	movb	$0, %al
	callq	fprintf
.LBB67_6:                               # %if.end
	cmpq	$0, outputHandleJustInCase
	je	.LBB67_8
# %bb.7:                                # %if.then11
	movq	outputHandleJustInCase, %rdi
	callq	fclose
.LBB67_8:                               # %if.end13
	movabsq	$outName, %rdi
	callq	remove
	movl	%eax, -4(%rbp)
	cmpl	$0, -4(%rbp)
	je	.LBB67_10
# %bb.9:                                # %if.then17
	movq	stderr, %rdi
	movq	progName, %rdx
	movabsq	$.L.str.40, %rsi
	movb	$0, %al
	callq	fprintf
.LBB67_10:                              # %if.end19
	jmp	.LBB67_12
.LBB67_11:                              # %if.else
	movq	stderr, %rdi
	movq	progName, %rdx
	movabsq	$.L.str.41, %rsi
	movb	$0, %al
	callq	fprintf
	movq	stderr, %rdi
	movq	progName, %rdx
	movabsq	$.L.str.42, %rsi
	movb	$0, %al
	callq	fprintf
	movq	stderr, %rdi
	movq	progName, %rdx
	movabsq	$.L.str.43, %rsi
	movabsq	$outName, %rcx
	movb	$0, %al
	callq	fprintf
	movq	stderr, %rdi
	movq	progName, %rdx
	movabsq	$.L.str.44, %rsi
	movb	$0, %al
	callq	fprintf
.LBB67_12:                              # %if.end24
	jmp	.LBB67_13
.LBB67_13:                              # %if.end25
	movzbl	noisy, %eax
	cmpl	$0, %eax
	je	.LBB67_17
# %bb.14:                               # %land.lhs.true28
	cmpl	$0, numFileNames
	jle	.LBB67_17
# %bb.15:                               # %land.lhs.true31
	movl	numFilesProcessed, %eax
	cmpl	numFileNames, %eax
	jge	.LBB67_17
# %bb.16:                               # %if.then34
	movq	stderr, %rdi
	movq	progName, %rdx
	movq	progName, %rcx
	movl	numFileNames, %r8d
	movl	numFileNames, %r9d
	subl	numFilesProcessed, %r9d
	movabsq	$.L.str.45, %rsi
	movb	$0, %al
	callq	fprintf
.LBB67_17:                              # %if.end36
	movl	-8(%rbp), %edi
	callq	setExit
	movl	exitValue, %edi
	callq	exit
.Lfunc_end67:
	.size	cleanUpAndFail.25, .Lfunc_end67-cleanUpAndFail.25
	.cfi_endproc
                                        # -- End function
	.p2align	4, 0x90         # -- Begin function notAStandardFile.26
	.type	notAStandardFile.26,@function
notAStandardFile.26:                    # @notAStandardFile.26
	.cfi_startproc
# %bb.0:                                # %entry
	pushq	%rbp
	.cfi_def_cfa_offset 16
	.cfi_offset %rbp, -16
	movq	%rsp, %rbp
	.cfi_def_cfa_register %rbp
	pushq	%rbx
	subq	$168, %rsp
	.cfi_offset %rbx, -24
	movl	$1242625066, -16(%rbp)  # imm = 0x4A10F42A
	movq	%rdi, -32(%rbp)
	movq	-32(%rbp), %rdi
	leaq	-176(%rbp), %rsi
	callq	lstat
	movl	%eax, -20(%rbp)
	cmpl	$0, -20(%rbp)
	je	.LBB68_2
# %bb.1:                                # %if.then
	movb	$1, -9(%rbp)
	jmp	.LBB68_5
.LBB68_2:                               # %if.end
	movl	-152(%rbp), %eax
	andl	$61440, %eax            # imm = 0xF000
	cmpl	$32768, %eax            # imm = 0x8000
	jne	.LBB68_4
# %bb.3:                                # %if.then2
	movb	$0, -9(%rbp)
	jmp	.LBB68_5
.LBB68_4:                               # %if.end3
	movb	$1, -9(%rbp)
.LBB68_5:                               # %return
	movb	-9(%rbp), %bl
	cmpl	$1242625066, -16(%rbp)  # imm = 0x4A10F42A
	jne	.LBB68_7
.LBB68_6:
	movzbl	%bl, %eax
	addq	$168, %rsp
	popq	%rbx
	popq	%rbp
	.cfi_def_cfa %rsp, 8
	retq
.LBB68_7:                               # %func_exit
	.cfi_def_cfa %rbp, 16
	callq	detect_breach
	jmp	.LBB68_6
.Lfunc_end68:
	.size	notAStandardFile.26, .Lfunc_end68-notAStandardFile.26
	.cfi_endproc
                                        # -- End function
	.p2align	4, 0x90         # -- Begin function countHardLinks.27
	.type	countHardLinks.27,@function
countHardLinks.27:                      # @countHardLinks.27
	.cfi_startproc
# %bb.0:                                # %entry
	pushq	%rbp
	.cfi_def_cfa_offset 16
	.cfi_offset %rbp, -16
	movq	%rsp, %rbp
	.cfi_def_cfa_register %rbp
	pushq	%rbx
	subq	$168, %rsp
	.cfi_offset %rbx, -24
	movl	$771116383, -20(%rbp)   # imm = 0x2DF64D5F
	movq	%rdi, -32(%rbp)
	movq	-32(%rbp), %rdi
	leaq	-176(%rbp), %rsi
	callq	lstat
	movl	%eax, -16(%rbp)
	cmpl	$0, -16(%rbp)
	je	.LBB69_2
# %bb.1:                                # %if.then
	movl	$0, -12(%rbp)
	jmp	.LBB69_3
.LBB69_2:                               # %if.end
	movq	-160(%rbp), %rax
	subq	$1, %rax
	movl	%eax, -12(%rbp)
.LBB69_3:                               # %return
	movl	-12(%rbp), %ebx
	cmpl	$771116383, -20(%rbp)   # imm = 0x2DF64D5F
	jne	.LBB69_5
.LBB69_4:
	movl	%ebx, %eax
	addq	$168, %rsp
	popq	%rbx
	popq	%rbp
	.cfi_def_cfa %rsp, 8
	retq
.LBB69_5:                               # %func_exit
	.cfi_def_cfa %rbp, 16
	callq	detect_breach
	jmp	.LBB69_4
.Lfunc_end69:
	.size	countHardLinks.27, .Lfunc_end69-countHardLinks.27
	.cfi_endproc
                                        # -- End function
	.p2align	4, 0x90         # -- Begin function uncompressStream.28
	.type	uncompressStream.28,@function
uncompressStream.28:                    # @uncompressStream.28
	.cfi_startproc
# %bb.0:                                # %entry
	pushq	%rbp
	.cfi_def_cfa_offset 16
	.cfi_offset %rbp, -16
	movq	%rsp, %rbp
	.cfi_def_cfa_register %rbp
	pushq	%rbx
	subq	$10104, %rsp            # imm = 0x2778
	.cfi_offset %rbx, -24
	movl	$763103013, -68(%rbp)   # imm = 0x2D7C0725
	movq	%rdi, -24(%rbp)
	movq	%rsi, -32(%rbp)
	movq	$0, -64(%rbp)
	movl	$0, -48(%rbp)
	movl	$0, -52(%rbp)
	movq	-32(%rbp), %rdi
	callq	ferror
	cmpl	$0, %eax
	je	.LBB70_2
# %bb.1:                                # %if.then
	jmp	.LBB70_66
.LBB70_2:                               # %if.end
	movq	-24(%rbp), %rdi
	callq	ferror
	cmpl	$0, %eax
	je	.LBB70_4
# %bb.3:                                # %if.then3
	jmp	.LBB70_66
.LBB70_4:                               # %if.end4
	jmp	.LBB70_5
.LBB70_5:                               # %while.body
                                        # =>This Loop Header: Depth=1
                                        #     Child Loop BB70_9 Depth 2
                                        #     Child Loop BB70_24 Depth 2
	leaq	-10112(%rbp), %r8
	movq	-24(%rbp), %rsi
	movl	verbosity, %edx
	movzbl	smallMode, %ecx
	movl	-48(%rbp), %r9d
	leaq	-16(%rbp), %rdi
	callq	BZ2_bzReadOpen
	movq	%rax, -64(%rbp)
	cmpq	$0, -64(%rbp)
	je	.LBB70_7
# %bb.6:                                # %lor.lhs.false
                                        #   in Loop: Header=BB70_5 Depth=1
	cmpl	$0, -16(%rbp)
	je	.LBB70_8
.LBB70_7:                               # %if.then9
	jmp	.LBB70_62
.LBB70_8:                               # %if.end10
                                        #   in Loop: Header=BB70_5 Depth=1
	movl	-52(%rbp), %eax
	addl	$1, %eax
	movl	%eax, -52(%rbp)
.LBB70_9:                               # %while.cond11
                                        #   Parent Loop BB70_5 Depth=1
                                        # =>  This Inner Loop Header: Depth=2
	cmpl	$0, -16(%rbp)
	jne	.LBB70_19
# %bb.10:                               # %while.body14
                                        #   in Loop: Header=BB70_9 Depth=2
	leaq	-5104(%rbp), %rdx
	movq	-64(%rbp), %rsi
	leaq	-16(%rbp), %rdi
	movl	$5000, %ecx             # imm = 0x1388
	callq	BZ2_bzRead
	movl	%eax, -36(%rbp)
	cmpl	$-5, -16(%rbp)
	jne	.LBB70_12
# %bb.11:                               # %if.then19
	jmp	.LBB70_49
.LBB70_12:                              # %if.end20
                                        #   in Loop: Header=BB70_9 Depth=2
	cmpl	$0, -16(%rbp)
	je	.LBB70_14
# %bb.13:                               # %lor.lhs.false23
                                        #   in Loop: Header=BB70_9 Depth=2
	cmpl	$4, -16(%rbp)
	jne	.LBB70_16
.LBB70_14:                              # %land.lhs.true
                                        #   in Loop: Header=BB70_9 Depth=2
	cmpl	$0, -36(%rbp)
	jle	.LBB70_16
# %bb.15:                               # %if.then28
                                        #   in Loop: Header=BB70_9 Depth=2
	leaq	-5104(%rbp), %rdi
	movslq	-36(%rbp), %rdx
	movq	-32(%rbp), %rcx
	movl	$1, %esi
	callq	fwrite
.LBB70_16:                              # %if.end32
                                        #   in Loop: Header=BB70_9 Depth=2
	movq	-32(%rbp), %rdi
	callq	ferror
	cmpl	$0, %eax
	je	.LBB70_18
# %bb.17:                               # %if.then35
	jmp	.LBB70_66
.LBB70_18:                              # %if.end36
                                        #   in Loop: Header=BB70_9 Depth=2
	jmp	.LBB70_9
.LBB70_19:                              # %while.end
                                        #   in Loop: Header=BB70_5 Depth=1
	cmpl	$4, -16(%rbp)
	je	.LBB70_21
# %bb.20:                               # %if.then39
	jmp	.LBB70_62
.LBB70_21:                              # %if.end40
                                        #   in Loop: Header=BB70_5 Depth=1
	movq	-64(%rbp), %rsi
	leaq	-16(%rbp), %rdi
	leaq	-80(%rbp), %rdx
	leaq	-48(%rbp), %rcx
	callq	BZ2_bzReadGetUnused
	cmpl	$0, -16(%rbp)
	je	.LBB70_23
# %bb.22:                               # %if.then43
	movabsq	$.L.str.88, %rdi
	callq	panic
.LBB70_23:                              # %if.end44
                                        #   in Loop: Header=BB70_5 Depth=1
	movq	-80(%rbp), %rax
	movq	%rax, -88(%rbp)
	movl	$0, -40(%rbp)
.LBB70_24:                              # %for.cond
                                        #   Parent Loop BB70_5 Depth=1
                                        # =>  This Inner Loop Header: Depth=2
	movl	-40(%rbp), %eax
	cmpl	-48(%rbp), %eax
	jge	.LBB70_27
# %bb.25:                               # %for.body
                                        #   in Loop: Header=BB70_24 Depth=2
	movq	-88(%rbp), %rax
	movslq	-40(%rbp), %rcx
	movb	(%rax,%rcx), %al
	movslq	-40(%rbp), %rcx
	movb	%al, -10112(%rbp,%rcx)
# %bb.26:                               # %for.inc
                                        #   in Loop: Header=BB70_24 Depth=2
	movl	-40(%rbp), %eax
	addl	$1, %eax
	movl	%eax, -40(%rbp)
	jmp	.LBB70_24
.LBB70_27:                              # %for.end
                                        #   in Loop: Header=BB70_5 Depth=1
	movq	-64(%rbp), %rsi
	leaq	-16(%rbp), %rdi
	callq	BZ2_bzReadClose
	cmpl	$0, -16(%rbp)
	je	.LBB70_29
# %bb.28:                               # %if.then52
	movabsq	$.L.str.88, %rdi
	callq	panic
.LBB70_29:                              # %if.end53
                                        #   in Loop: Header=BB70_5 Depth=1
	cmpl	$0, -48(%rbp)
	jne	.LBB70_32
# %bb.30:                               # %land.lhs.true56
                                        #   in Loop: Header=BB70_5 Depth=1
	movq	-24(%rbp), %rdi
	callq	myfeof
	movzbl	%al, %eax
	cmpl	$0, %eax
	je	.LBB70_32
# %bb.31:                               # %if.then60
	jmp	.LBB70_33
.LBB70_32:                              # %if.end61
                                        #   in Loop: Header=BB70_5 Depth=1
	jmp	.LBB70_5
.LBB70_33:                              # %while.end62
	jmp	.LBB70_34
.LBB70_34:                              # %closeok
	movq	-24(%rbp), %rdi
	callq	ferror
	cmpl	$0, %eax
	je	.LBB70_36
# %bb.35:                               # %if.then65
	jmp	.LBB70_66
.LBB70_36:                              # %if.end66
	movq	-24(%rbp), %rdi
	callq	fclose
	movl	%eax, -44(%rbp)
	cmpl	$-1, -44(%rbp)
	jne	.LBB70_38
# %bb.37:                               # %if.then70
	jmp	.LBB70_66
.LBB70_38:                              # %if.end71
	movq	-32(%rbp), %rdi
	callq	ferror
	cmpl	$0, %eax
	je	.LBB70_40
# %bb.39:                               # %if.then74
	jmp	.LBB70_66
.LBB70_40:                              # %if.end75
	movq	-32(%rbp), %rdi
	callq	fflush
	movl	%eax, -44(%rbp)
	cmpl	$0, -44(%rbp)
	je	.LBB70_42
# %bb.41:                               # %if.then79
	jmp	.LBB70_66
.LBB70_42:                              # %if.end80
	movq	-32(%rbp), %rax
	cmpq	stdout, %rax
	je	.LBB70_46
# %bb.43:                               # %if.then83
	movq	-32(%rbp), %rdi
	callq	fclose
	movl	%eax, -44(%rbp)
	movq	$0, outputHandleJustInCase
	cmpl	$-1, -44(%rbp)
	jne	.LBB70_45
# %bb.44:                               # %if.then87
	jmp	.LBB70_66
.LBB70_45:                              # %if.end88
	jmp	.LBB70_46
.LBB70_46:                              # %if.end89
	movq	$0, outputHandleJustInCase
	cmpl	$2, verbosity
	jl	.LBB70_48
# %bb.47:                               # %if.then92
	movq	stderr, %rdi
	movabsq	$.L.str.89, %rsi
	movb	$0, %al
	callq	fprintf
.LBB70_48:                              # %if.end94
	movb	$1, -9(%rbp)
	jmp	.LBB70_80
