	.text
	.file	"bzip2.c"
	.globl	fopen_output_safely     # -- Begin function fopen_output_safely
	.p2align	4, 0x90
	.type	fopen_output_safely,@function
fopen_output_safely:                    # @fopen_output_safely
	.cfi_startproc
# %bb.0:                                # %rand_bb
	pushq	%rbp
	.cfi_def_cfa_offset 16
	.cfi_offset %rbp, -16
	movq	%rsp, %rbp
	.cfi_def_cfa_register %rbp
	pushq	%r14
	pushq	%rbx
	.cfi_offset %rbx, -32
	.cfi_offset %r14, -24
	movq	%rsi, %r14
	movq	%rdi, %rbx
	callq	get_rand
	cmpl	$0, %eax
	jne	.LBB0_5
# %bb.1:                                # %func_fopen_output_safely.44
	movq	%rbx, %rdi
	movq	%r14, %rsi
	callq	fopen_output_safely.44
	popq	%rbx
	popq	%r14
	popq	%rbp
	.cfi_def_cfa %rsp, 8
	retq
.LBB0_2:                                # %func_fopen_output_safely.69
	.cfi_def_cfa %rbp, 16
	movq	%rbx, %rdi
	movq	%r14, %rsi
	callq	fopen_output_safely.69
	popq	%rbx
	popq	%r14
	popq	%rbp
	.cfi_def_cfa %rsp, 8
	retq
.LBB0_3:                                # %func_fopen_output_safely.81
	.cfi_def_cfa %rbp, 16
	movq	%rbx, %rdi
	movq	%r14, %rsi
	callq	fopen_output_safely.81
	popq	%rbx
	popq	%r14
	popq	%rbp
	.cfi_def_cfa %rsp, 8
	retq
.LBB0_4:                                # %func_fopen_output_safely.86
	.cfi_def_cfa %rbp, 16
	movq	%rbx, %rdi
	movq	%r14, %rsi
	callq	fopen_output_safely.86
	popq	%rbx
	popq	%r14
	popq	%rbp
	.cfi_def_cfa %rsp, 8
	retq
.LBB0_5:                                # %ctrl0
	.cfi_def_cfa %rbp, 16
	cmpl	$1, %eax
	je	.LBB0_2
# %bb.6:                                # %ctrl1
	cmpl	$2, %eax
	je	.LBB0_3
	jmp	.LBB0_4
.Lfunc_end0:
	.size	fopen_output_safely, .Lfunc_end0-fopen_output_safely
	.cfi_endproc
                                        # -- End function
	.globl	main                    # -- Begin function main
	.p2align	4, 0x90
	.type	main,@function
main:                                   # @main
	.cfi_startproc
# %bb.0:                                # %entry
	pushq	%rbp
	.cfi_def_cfa_offset 16
	.cfi_offset %rbp, -16
	movq	%rsp, %rbp
	.cfi_def_cfa_register %rbp
	pushq	%rbx
	subq	$72, %rsp
	.cfi_offset %rbx, -24
	movl	$0, -76(%rbp)
	movl	%edi, -52(%rbp)
	movq	%rsi, -64(%rbp)
	movq	$0, outputHandleJustInCase
	movb	$0, smallMode
	movb	$0, keepInputFiles
	movb	$0, forceOverwrite
	movb	$1, noisy
	movl	$0, verbosity
	movl	$9, blockSize100k
	movb	$0, testFailsExist
	movb	$0, unzFailsExist
	movl	$0, numFileNames
	movl	$0, numFilesProcessed
	movl	$30, workFactor
	movb	$0, deleteOutputOnInterrupt
	movl	$0, exitValue
	movl	$0, -36(%rbp)
	movl	$0, -40(%rbp)
	movl	$11, %edi
	movabsq	$mySIGSEGVorSIGBUScatcher, %rsi
	callq	signal
	movl	$7, %edi
	movabsq	$mySIGSEGVorSIGBUScatcher, %rsi
	callq	signal
	movabsq	$inName, %rdi
	movabsq	$.L.str, %rsi
	callq	copyFileName
	movabsq	$outName, %rdi
	movabsq	$.L.str, %rsi
	callq	copyFileName
	movq	-64(%rbp), %rax
	movq	(%rax), %rsi
	movabsq	$progNameReally, %rdi
	callq	copyFileName
	movabsq	$progNameReally, %rax
	movq	%rax, progName
	movq	%rax, -48(%rbp)
.LBB1_1:                                # %for.cond
                                        # =>This Inner Loop Header: Depth=1
	movq	-48(%rbp), %rax
	movsbl	(%rax), %eax
	cmpl	$0, %eax
	je	.LBB1_6
# %bb.2:                                # %for.body
                                        #   in Loop: Header=BB1_1 Depth=1
	movq	-48(%rbp), %rax
	movsbl	(%rax), %eax
	cmpl	$47, %eax
	jne	.LBB1_4
# %bb.3:                                # %if.then
                                        #   in Loop: Header=BB1_1 Depth=1
	movq	-48(%rbp), %rax
	addq	$1, %rax
	movq	%rax, progName
.LBB1_4:                                # %if.end
                                        #   in Loop: Header=BB1_1 Depth=1
	jmp	.LBB1_5
.LBB1_5:                                # %for.inc
                                        #   in Loop: Header=BB1_1 Depth=1
	movq	-48(%rbp), %rax
	addq	$1, %rax
	movq	%rax, -48(%rbp)
	jmp	.LBB1_1
.LBB1_6:                                # %for.end
	movq	$0, -32(%rbp)
	leaq	-32(%rbp), %rdi
	movabsq	$.L.str.1, %rsi
	callq	addFlagsFromEnvVar
	leaq	-32(%rbp), %rdi
	movabsq	$.L.str.2, %rsi
	callq	addFlagsFromEnvVar
	movl	$1, -40(%rbp)
.LBB1_7:                                # %for.cond6
                                        # =>This Inner Loop Header: Depth=1
	movl	-40(%rbp), %eax
	movl	-52(%rbp), %ecx
	subl	$1, %ecx
	cmpl	%ecx, %eax
	jg	.LBB1_10
# %bb.8:                                # %for.body9
                                        #   in Loop: Header=BB1_7 Depth=1
	movq	-32(%rbp), %rdi
	movq	-64(%rbp), %rax
	movslq	-40(%rbp), %rcx
	movq	(%rax,%rcx,8), %rsi
	callq	snocString
	movq	%rax, -32(%rbp)
# %bb.9:                                # %for.inc12
                                        #   in Loop: Header=BB1_7 Depth=1
	movl	-40(%rbp), %eax
	addl	$1, %eax
	movl	%eax, -40(%rbp)
	jmp	.LBB1_7
.LBB1_10:                               # %for.end13
	movl	$7, longestFileName
	movl	$0, numFileNames
	movb	$1, -9(%rbp)
	movq	-32(%rbp), %rax
	movq	%rax, -24(%rbp)
.LBB1_11:                               # %for.cond14
                                        # =>This Inner Loop Header: Depth=1
	cmpq	$0, -24(%rbp)
	je	.LBB1_21
# %bb.12:                               # %for.body17
                                        #   in Loop: Header=BB1_11 Depth=1
	movq	-24(%rbp), %rax
	movq	(%rax), %rdi
	movl	$.L.str.3, %esi
	callq	strcmp
	cmpl	$0, %eax
	jne	.LBB1_14
# %bb.13:                               # %if.then21
                                        #   in Loop: Header=BB1_11 Depth=1
	movb	$0, -9(%rbp)
	jmp	.LBB1_20
.LBB1_14:                               # %if.end22
                                        #   in Loop: Header=BB1_11 Depth=1
	movq	-24(%rbp), %rax
	movq	(%rax), %rax
	movsbl	(%rax), %eax
	cmpl	$45, %eax
	jne	.LBB1_17
# %bb.15:                               # %land.lhs.true
                                        #   in Loop: Header=BB1_11 Depth=1
	movzbl	-9(%rbp), %eax
	cmpl	$0, %eax
	je	.LBB1_17
# %bb.16:                               # %if.then29
                                        #   in Loop: Header=BB1_11 Depth=1
	jmp	.LBB1_20
.LBB1_17:                               # %if.end30
                                        #   in Loop: Header=BB1_11 Depth=1
	movl	numFileNames, %eax
	addl	$1, %eax
	movl	%eax, numFileNames
	movl	longestFileName, %ebx
	movq	-24(%rbp), %rax
	movq	(%rax), %rdi
	callq	strlen
	cmpl	%eax, %ebx
	jge	.LBB1_19
# %bb.18:                               # %if.then37
                                        #   in Loop: Header=BB1_11 Depth=1
	movq	-24(%rbp), %rax
	movq	(%rax), %rdi
	callq	strlen
	movl	%eax, longestFileName
.LBB1_19:                               # %if.end41
                                        #   in Loop: Header=BB1_11 Depth=1
	jmp	.LBB1_20
.LBB1_20:                               # %for.inc42
                                        #   in Loop: Header=BB1_11 Depth=1
	movq	-24(%rbp), %rax
	movq	8(%rax), %rax
	movq	%rax, -24(%rbp)
	jmp	.LBB1_11
.LBB1_21:                               # %for.end43
	cmpl	$0, numFileNames
	jne	.LBB1_23
# %bb.22:                               # %if.then46
	movl	$1, srcMode
	jmp	.LBB1_24
.LBB1_23:                               # %if.else
	movl	$3, srcMode
.LBB1_24:                               # %if.end47
	movl	$1, opMode
	movq	progName, %rdi
	movabsq	$.L.str.4, %rsi
	callq	strstr
	cmpq	$0, %rax
	jne	.LBB1_26
# %bb.25:                               # %lor.lhs.false
	movq	progName, %rdi
	movabsq	$.L.str.5, %rsi
	callq	strstr
	cmpq	$0, %rax
	je	.LBB1_27
.LBB1_26:                               # %if.then54
	movl	$2, opMode
.LBB1_27:                               # %if.end55
	movq	progName, %rdi
	movabsq	$.L.str.6, %rsi
	callq	strstr
	cmpq	$0, %rax
	jne	.LBB1_31
# %bb.28:                               # %lor.lhs.false59
	movq	progName, %rdi
	movabsq	$.L.str.7, %rsi
	callq	strstr
	cmpq	$0, %rax
	jne	.LBB1_31
# %bb.29:                               # %lor.lhs.false63
	movq	progName, %rdi
	movabsq	$.L.str.8, %rsi
	callq	strstr
	cmpq	$0, %rax
	jne	.LBB1_31
# %bb.30:                               # %lor.lhs.false67
	movq	progName, %rdi
	movabsq	$.L.str.9, %rsi
	callq	strstr
	cmpq	$0, %rax
	je	.LBB1_32
.LBB1_31:                               # %if.then71
	movl	$2, opMode
	movl	numFileNames, %eax
	cmpl	$0, %eax
	movl	$1, %eax
	movl	$2, %ecx
	cmovel	%eax, %ecx
	movl	%ecx, srcMode
.LBB1_32:                               # %if.end74
	movq	-32(%rbp), %rax
	movq	%rax, -24(%rbp)
.LBB1_33:                               # %for.cond75
                                        # =>This Loop Header: Depth=1
                                        #     Child Loop BB1_39 Depth 2
	cmpq	$0, -24(%rbp)
	je	.LBB1_68
# %bb.34:                               # %for.body78
                                        #   in Loop: Header=BB1_33 Depth=1
	movq	-24(%rbp), %rax
	movq	(%rax), %rdi
	movl	$.L.str.3, %esi
	callq	strcmp
	cmpl	$0, %eax
	jne	.LBB1_36
# %bb.35:                               # %if.then83
	jmp	.LBB1_69
.LBB1_36:                               # %if.end84
                                        #   in Loop: Header=BB1_33 Depth=1
	movq	-24(%rbp), %rax
	movq	(%rax), %rax
	movsbl	(%rax), %eax
	cmpl	$45, %eax
	jne	.LBB1_66
# %bb.37:                               # %land.lhs.true90
                                        #   in Loop: Header=BB1_33 Depth=1
	movq	-24(%rbp), %rax
	movq	(%rax), %rax
	movsbl	1(%rax), %eax
	cmpl	$45, %eax
	je	.LBB1_66
# %bb.38:                               # %if.then96
                                        #   in Loop: Header=BB1_33 Depth=1
	movl	$1, -36(%rbp)
.LBB1_39:                               # %for.cond97
                                        #   Parent Loop BB1_33 Depth=1
                                        # =>  This Inner Loop Header: Depth=2
	movq	-24(%rbp), %rax
	movq	(%rax), %rax
	movslq	-36(%rbp), %rcx
	movsbl	(%rax,%rcx), %eax
	cmpl	$0, %eax
	je	.LBB1_65
# %bb.40:                               # %for.body104
                                        #   in Loop: Header=BB1_39 Depth=2
	movq	-24(%rbp), %rax
	movq	(%rax), %rax
	movslq	-36(%rbp), %rcx
	movsbl	(%rax,%rcx), %eax
	addl	$-49, %eax
	movl	%eax, %ecx
	subl	$73, %ecx
	ja	.LBB1_62
# %bb.41:                               # %for.body104
                                        #   in Loop: Header=BB1_39 Depth=2
	movq	.LJTI1_0(,%rax,8), %rax
	jmpq	*%rax
.LBB1_42:                               # %sw.bb
                                        #   in Loop: Header=BB1_39 Depth=2
	movl	$2, srcMode
	jmp	.LBB1_63
.LBB1_43:                               # %sw.bb109
                                        #   in Loop: Header=BB1_39 Depth=2
	movl	$2, opMode
	jmp	.LBB1_63
.LBB1_44:                               # %sw.bb110
                                        #   in Loop: Header=BB1_39 Depth=2
	movl	$1, opMode
	jmp	.LBB1_63
.LBB1_45:                               # %sw.bb111
                                        #   in Loop: Header=BB1_39 Depth=2
	movb	$1, forceOverwrite
	jmp	.LBB1_63
.LBB1_46:                               # %sw.bb112
                                        #   in Loop: Header=BB1_39 Depth=2
	movl	$3, opMode
	jmp	.LBB1_63
.LBB1_47:                               # %sw.bb113
                                        #   in Loop: Header=BB1_39 Depth=2
	movb	$1, keepInputFiles
	jmp	.LBB1_63
.LBB1_48:                               # %sw.bb114
                                        #   in Loop: Header=BB1_39 Depth=2
	movb	$1, smallMode
	jmp	.LBB1_63
.LBB1_49:                               # %sw.bb115
                                        #   in Loop: Header=BB1_39 Depth=2
	movb	$0, noisy
	jmp	.LBB1_63
.LBB1_50:                               # %sw.bb116
                                        #   in Loop: Header=BB1_39 Depth=2
	movl	$1, blockSize100k
	jmp	.LBB1_63
.LBB1_51:                               # %sw.bb117
                                        #   in Loop: Header=BB1_39 Depth=2
	movl	$2, blockSize100k
	jmp	.LBB1_63
.LBB1_52:                               # %sw.bb118
                                        #   in Loop: Header=BB1_39 Depth=2
	movl	$3, blockSize100k
	jmp	.LBB1_63
.LBB1_53:                               # %sw.bb119
                                        #   in Loop: Header=BB1_39 Depth=2
	movl	$4, blockSize100k
	jmp	.LBB1_63
.LBB1_54:                               # %sw.bb120
                                        #   in Loop: Header=BB1_39 Depth=2
	movl	$5, blockSize100k
	jmp	.LBB1_63
.LBB1_55:                               # %sw.bb121
                                        #   in Loop: Header=BB1_39 Depth=2
	movl	$6, blockSize100k
	jmp	.LBB1_63
.LBB1_56:                               # %sw.bb122
                                        #   in Loop: Header=BB1_39 Depth=2
	movl	$7, blockSize100k
	jmp	.LBB1_63
.LBB1_57:                               # %sw.bb123
                                        #   in Loop: Header=BB1_39 Depth=2
	movl	$8, blockSize100k
	jmp	.LBB1_63
.LBB1_58:                               # %sw.bb124
                                        #   in Loop: Header=BB1_39 Depth=2
	movl	$9, blockSize100k
	jmp	.LBB1_63
.LBB1_59:                               # %sw.bb125
                                        #   in Loop: Header=BB1_39 Depth=2
	callq	license
	jmp	.LBB1_63
.LBB1_60:                               # %sw.bb126
                                        #   in Loop: Header=BB1_39 Depth=2
	movl	verbosity, %eax
	addl	$1, %eax
	movl	%eax, verbosity
	jmp	.LBB1_63
.LBB1_61:                               # %sw.bb128
	movq	progName, %rdi
	callq	usage
	xorl	%edi, %edi
	callq	exit
.LBB1_62:                               # %sw.default
	movq	stderr, %rdi
	movq	progName, %rdx
	movq	-24(%rbp), %rax
	movq	(%rax), %rcx
	movabsq	$.L.str.10, %rsi
	movb	$0, %al
	callq	fprintf
	movq	progName, %rdi
	callq	usage
	movl	$1, %edi
	callq	exit
.LBB1_63:                               # %sw.epilog
                                        #   in Loop: Header=BB1_39 Depth=2
	jmp	.LBB1_64
.LBB1_64:                               # %for.inc131
                                        #   in Loop: Header=BB1_39 Depth=2
	movl	-36(%rbp), %eax
	addl	$1, %eax
	movl	%eax, -36(%rbp)
	jmp	.LBB1_39
.LBB1_65:                               # %for.end133
                                        #   in Loop: Header=BB1_33 Depth=1
	jmp	.LBB1_66
.LBB1_66:                               # %if.end134
                                        #   in Loop: Header=BB1_33 Depth=1
	jmp	.LBB1_67
.LBB1_67:                               # %for.inc135
                                        #   in Loop: Header=BB1_33 Depth=1
	movq	-24(%rbp), %rax
	movq	8(%rax), %rax
	movq	%rax, -24(%rbp)
	jmp	.LBB1_33
.LBB1_68:                               # %for.end137.loopexit
	jmp	.LBB1_69
.LBB1_69:                               # %for.end137
	movq	-32(%rbp), %rax
	movq	%rax, -24(%rbp)
.LBB1_70:                               # %for.cond138
                                        # =>This Inner Loop Header: Depth=1
	cmpq	$0, -24(%rbp)
	je	.LBB1_128
# %bb.71:                               # %for.body141
                                        #   in Loop: Header=BB1_70 Depth=1
	movq	-24(%rbp), %rax
	movq	(%rax), %rdi
	movl	$.L.str.3, %esi
	callq	strcmp
	cmpl	$0, %eax
	jne	.LBB1_73
# %bb.72:                               # %if.then146
	jmp	.LBB1_129
.LBB1_73:                               # %if.end147
                                        #   in Loop: Header=BB1_70 Depth=1
	movq	-24(%rbp), %rax
	movq	(%rax), %rdi
	movl	$.L.str.11, %esi
	callq	strcmp
	cmpl	$0, %eax
	jne	.LBB1_75
# %bb.74:                               # %if.then152
                                        #   in Loop: Header=BB1_70 Depth=1
	movl	$2, srcMode
	jmp	.LBB1_126
.LBB1_75:                               # %if.else153
                                        #   in Loop: Header=BB1_70 Depth=1
	movq	-24(%rbp), %rax
	movq	(%rax), %rdi
	movl	$.L.str.12, %esi
	callq	strcmp
	cmpl	$0, %eax
	jne	.LBB1_77
# %bb.76:                               # %if.then158
                                        #   in Loop: Header=BB1_70 Depth=1
	movl	$2, opMode
	jmp	.LBB1_125
.LBB1_77:                               # %if.else159
                                        #   in Loop: Header=BB1_70 Depth=1
	movq	-24(%rbp), %rax
	movq	(%rax), %rdi
	movl	$.L.str.13, %esi
	callq	strcmp
	cmpl	$0, %eax
	jne	.LBB1_79
# %bb.78:                               # %if.then164
                                        #   in Loop: Header=BB1_70 Depth=1
	movl	$1, opMode
	jmp	.LBB1_124
.LBB1_79:                               # %if.else165
                                        #   in Loop: Header=BB1_70 Depth=1
	movq	-24(%rbp), %rax
	movq	(%rax), %rdi
	movl	$.L.str.14, %esi
	callq	strcmp
	cmpl	$0, %eax
	jne	.LBB1_81
# %bb.80:                               # %if.then170
                                        #   in Loop: Header=BB1_70 Depth=1
	movb	$1, forceOverwrite
	jmp	.LBB1_123
.LBB1_81:                               # %if.else171
                                        #   in Loop: Header=BB1_70 Depth=1
	movq	-24(%rbp), %rax
	movq	(%rax), %rdi
	movl	$.L.str.15, %esi
	callq	strcmp
	cmpl	$0, %eax
	jne	.LBB1_83
# %bb.82:                               # %if.then176
                                        #   in Loop: Header=BB1_70 Depth=1
	movl	$3, opMode
	jmp	.LBB1_122
.LBB1_83:                               # %if.else177
                                        #   in Loop: Header=BB1_70 Depth=1
	movq	-24(%rbp), %rax
	movq	(%rax), %rdi
	movl	$.L.str.16, %esi
	callq	strcmp
	cmpl	$0, %eax
	jne	.LBB1_85
# %bb.84:                               # %if.then182
                                        #   in Loop: Header=BB1_70 Depth=1
	movb	$1, keepInputFiles
	jmp	.LBB1_121
.LBB1_85:                               # %if.else183
                                        #   in Loop: Header=BB1_70 Depth=1
	movq	-24(%rbp), %rax
	movq	(%rax), %rdi
	movl	$.L.str.17, %esi
	callq	strcmp
	cmpl	$0, %eax
	jne	.LBB1_87
# %bb.86:                               # %if.then188
                                        #   in Loop: Header=BB1_70 Depth=1
	movb	$1, smallMode
	jmp	.LBB1_120
.LBB1_87:                               # %if.else189
                                        #   in Loop: Header=BB1_70 Depth=1
	movq	-24(%rbp), %rax
	movq	(%rax), %rdi
	movl	$.L.str.18, %esi
	callq	strcmp
	cmpl	$0, %eax
	jne	.LBB1_89
# %bb.88:                               # %if.then194
                                        #   in Loop: Header=BB1_70 Depth=1
	movb	$0, noisy
	jmp	.LBB1_119
.LBB1_89:                               # %if.else195
                                        #   in Loop: Header=BB1_70 Depth=1
	movq	-24(%rbp), %rax
	movq	(%rax), %rdi
	movl	$.L.str.19, %esi
	callq	strcmp
	cmpl	$0, %eax
	jne	.LBB1_91
# %bb.90:                               # %if.then200
                                        #   in Loop: Header=BB1_70 Depth=1
	callq	license
	jmp	.LBB1_118
.LBB1_91:                               # %if.else201
                                        #   in Loop: Header=BB1_70 Depth=1
	movq	-24(%rbp), %rax
	movq	(%rax), %rdi
	movl	$.L.str.20, %esi
	callq	strcmp
	cmpl	$0, %eax
	jne	.LBB1_93
# %bb.92:                               # %if.then206
                                        #   in Loop: Header=BB1_70 Depth=1
	callq	license
	jmp	.LBB1_117
.LBB1_93:                               # %if.else207
                                        #   in Loop: Header=BB1_70 Depth=1
	movq	-24(%rbp), %rax
	movq	(%rax), %rdi
	movl	$.L.str.21, %esi
	callq	strcmp
	cmpl	$0, %eax
	jne	.LBB1_95
# %bb.94:                               # %if.then212
                                        #   in Loop: Header=BB1_70 Depth=1
	movl	$1, workFactor
	jmp	.LBB1_116
.LBB1_95:                               # %if.else213
                                        #   in Loop: Header=BB1_70 Depth=1
	movq	-24(%rbp), %rax
	movq	(%rax), %rdi
	movl	$.L.str.22, %esi
	callq	strcmp
	cmpl	$0, %eax
	jne	.LBB1_97
# %bb.96:                               # %if.then218
                                        #   in Loop: Header=BB1_70 Depth=1
	movq	-24(%rbp), %rax
	movq	(%rax), %rdi
	callq	redundant
	jmp	.LBB1_115
.LBB1_97:                               # %if.else220
                                        #   in Loop: Header=BB1_70 Depth=1
	movq	-24(%rbp), %rax
	movq	(%rax), %rdi
	movl	$.L.str.23, %esi
	callq	strcmp
	cmpl	$0, %eax
	jne	.LBB1_99
# %bb.98:                               # %if.then225
                                        #   in Loop: Header=BB1_70 Depth=1
	movq	-24(%rbp), %rax
	movq	(%rax), %rdi
	callq	redundant
	jmp	.LBB1_114
.LBB1_99:                               # %if.else227
                                        #   in Loop: Header=BB1_70 Depth=1
	movq	-24(%rbp), %rax
	movq	(%rax), %rdi
	movl	$.L.str.24, %esi
	callq	strcmp
	cmpl	$0, %eax
	jne	.LBB1_101
# %bb.100:                              # %if.then232
                                        #   in Loop: Header=BB1_70 Depth=1
	movl	$1, blockSize100k
	jmp	.LBB1_113
.LBB1_101:                              # %if.else233
                                        #   in Loop: Header=BB1_70 Depth=1
	movq	-24(%rbp), %rax
	movq	(%rax), %rdi
	movl	$.L.str.25, %esi
	callq	strcmp
	cmpl	$0, %eax
	jne	.LBB1_103
# %bb.102:                              # %if.then238
                                        #   in Loop: Header=BB1_70 Depth=1
	movl	$9, blockSize100k
	jmp	.LBB1_112
.LBB1_103:                              # %if.else239
                                        #   in Loop: Header=BB1_70 Depth=1
	movq	-24(%rbp), %rax
	movq	(%rax), %rdi
	movl	$.L.str.26, %esi
	callq	strcmp
	cmpl	$0, %eax
	jne	.LBB1_105
# %bb.104:                              # %if.then244
                                        #   in Loop: Header=BB1_70 Depth=1
	movl	verbosity, %eax
	addl	$1, %eax
	movl	%eax, verbosity
	jmp	.LBB1_111
.LBB1_105:                              # %if.else246
                                        #   in Loop: Header=BB1_70 Depth=1
	movq	-24(%rbp), %rax
	movq	(%rax), %rdi
	movl	$.L.str.27, %esi
	callq	strcmp
	cmpl	$0, %eax
	jne	.LBB1_107
# %bb.106:                              # %if.then251
	movq	progName, %rdi
	callq	usage
	xorl	%edi, %edi
	callq	exit
.LBB1_107:                              # %if.else252
                                        #   in Loop: Header=BB1_70 Depth=1
	movq	-24(%rbp), %rax
	movq	(%rax), %rdi
	movabsq	$.L.str.3, %rsi
	movl	$2, %edx
	callq	strncmp
	cmpl	$0, %eax
	jne	.LBB1_109
# %bb.108:                              # %if.then257
	movq	stderr, %rdi
	movq	progName, %rdx
	movq	-24(%rbp), %rax
	movq	(%rax), %rcx
	movabsq	$.L.str.10, %rsi
	movb	$0, %al
	callq	fprintf
	movq	progName, %rdi
	callq	usage
	movl	$1, %edi
	callq	exit
.LBB1_109:                              # %if.end260
                                        #   in Loop: Header=BB1_70 Depth=1
	jmp	.LBB1_110
.LBB1_110:                              # %if.end261
                                        #   in Loop: Header=BB1_70 Depth=1
	jmp	.LBB1_111
.LBB1_111:                              # %if.end262
                                        #   in Loop: Header=BB1_70 Depth=1
	jmp	.LBB1_112
.LBB1_112:                              # %if.end263
                                        #   in Loop: Header=BB1_70 Depth=1
	jmp	.LBB1_113
.LBB1_113:                              # %if.end264
                                        #   in Loop: Header=BB1_70 Depth=1
	jmp	.LBB1_114
.LBB1_114:                              # %if.end265
                                        #   in Loop: Header=BB1_70 Depth=1
	jmp	.LBB1_115
.LBB1_115:                              # %if.end266
                                        #   in Loop: Header=BB1_70 Depth=1
	jmp	.LBB1_116
.LBB1_116:                              # %if.end267
                                        #   in Loop: Header=BB1_70 Depth=1
	jmp	.LBB1_117
.LBB1_117:                              # %if.end268
                                        #   in Loop: Header=BB1_70 Depth=1
	jmp	.LBB1_118
.LBB1_118:                              # %if.end269
                                        #   in Loop: Header=BB1_70 Depth=1
	jmp	.LBB1_119
.LBB1_119:                              # %if.end270
                                        #   in Loop: Header=BB1_70 Depth=1
	jmp	.LBB1_120
.LBB1_120:                              # %if.end271
                                        #   in Loop: Header=BB1_70 Depth=1
	jmp	.LBB1_121
.LBB1_121:                              # %if.end272
                                        #   in Loop: Header=BB1_70 Depth=1
	jmp	.LBB1_122
.LBB1_122:                              # %if.end273
                                        #   in Loop: Header=BB1_70 Depth=1
	jmp	.LBB1_123
.LBB1_123:                              # %if.end274
                                        #   in Loop: Header=BB1_70 Depth=1
	jmp	.LBB1_124
.LBB1_124:                              # %if.end275
                                        #   in Loop: Header=BB1_70 Depth=1
	jmp	.LBB1_125
.LBB1_125:                              # %if.end276
                                        #   in Loop: Header=BB1_70 Depth=1
	jmp	.LBB1_126
.LBB1_126:                              # %if.end277
                                        #   in Loop: Header=BB1_70 Depth=1
	jmp	.LBB1_127
.LBB1_127:                              # %for.inc278
                                        #   in Loop: Header=BB1_70 Depth=1
	movq	-24(%rbp), %rax
	movq	8(%rax), %rax
	movq	%rax, -24(%rbp)
	jmp	.LBB1_70
.LBB1_128:                              # %for.end280.loopexit
	jmp	.LBB1_129
.LBB1_129:                              # %for.end280
	cmpl	$4, verbosity
	jle	.LBB1_131
# %bb.130:                              # %if.then283
	movl	$4, verbosity
.LBB1_131:                              # %if.end284
	cmpl	$1, opMode
	jne	.LBB1_135
# %bb.132:                              # %land.lhs.true287
	movzbl	smallMode, %eax
	cmpl	$0, %eax
	je	.LBB1_135
# %bb.133:                              # %land.lhs.true290
	cmpl	$2, blockSize100k
	jle	.LBB1_135
# %bb.134:                              # %if.then293
	movl	$2, blockSize100k
.LBB1_135:                              # %if.end294
	cmpl	$3, opMode
	jne	.LBB1_138
# %bb.136:                              # %land.lhs.true297
	cmpl	$2, srcMode
	jne	.LBB1_138
# %bb.137:                              # %if.then300
	movq	stderr, %rdi
	movq	progName, %rdx
	movabsq	$.L.str.28, %rsi
	movb	$0, %al
	callq	fprintf
	movl	$1, %edi
	callq	exit
.LBB1_138:                              # %if.end302
	cmpl	$2, srcMode
	jne	.LBB1_141
# %bb.139:                              # %land.lhs.true305
	cmpl	$0, numFileNames
	jne	.LBB1_141
# %bb.140:                              # %if.then308
	movl	$1, srcMode
.LBB1_141:                              # %if.end309
	cmpl	$1, opMode
	je	.LBB1_143
# %bb.142:                              # %if.then312
	movl	$0, blockSize100k
.LBB1_143:                              # %if.end313
	cmpl	$3, srcMode
	jne	.LBB1_145
# %bb.144:                              # %if.then316
	movl	$2, %edi
	movabsq	$mySignalCatcher, %rsi
	callq	signal
	movl	$15, %edi
	movabsq	$mySignalCatcher, %rsi
	callq	signal
	movl	$1, %edi
	movabsq	$mySignalCatcher, %rsi
	callq	signal
.LBB1_145:                              # %if.end320
	cmpl	$1, opMode
	jne	.LBB1_159
# %bb.146:                              # %if.then323
	cmpl	$1, srcMode
	jne	.LBB1_148
# %bb.147:                              # %if.then326
	xorl	%edi, %edi
	callq	compress
	jmp	.LBB1_158
.LBB1_148:                              # %if.else327
	movb	$1, -9(%rbp)
	movq	-32(%rbp), %rax
	movq	%rax, -24(%rbp)
.LBB1_149:                              # %for.cond328
                                        # =>This Inner Loop Header: Depth=1
	cmpq	$0, -24(%rbp)
	je	.LBB1_157
# %bb.150:                              # %for.body331
                                        #   in Loop: Header=BB1_149 Depth=1
	movq	-24(%rbp), %rax
	movq	(%rax), %rdi
	movl	$.L.str.3, %esi
	callq	strcmp
	cmpl	$0, %eax
	jne	.LBB1_152
# %bb.151:                              # %if.then336
                                        #   in Loop: Header=BB1_149 Depth=1
	movb	$0, -9(%rbp)
	jmp	.LBB1_156
.LBB1_152:                              # %if.end337
                                        #   in Loop: Header=BB1_149 Depth=1
	movq	-24(%rbp), %rax
	movq	(%rax), %rax
	movsbl	(%rax), %eax
	cmpl	$45, %eax
	jne	.LBB1_155
# %bb.153:                              # %land.lhs.true343
                                        #   in Loop: Header=BB1_149 Depth=1
	movzbl	-9(%rbp), %eax
	cmpl	$0, %eax
	je	.LBB1_155
# %bb.154:                              # %if.then346
                                        #   in Loop: Header=BB1_149 Depth=1
	jmp	.LBB1_156
.LBB1_155:                              # %if.end347
                                        #   in Loop: Header=BB1_149 Depth=1
	movl	numFilesProcessed, %eax
	addl	$1, %eax
	movl	%eax, numFilesProcessed
	movq	-24(%rbp), %rax
	movq	(%rax), %rdi
	callq	compress
.LBB1_156:                              # %for.inc350
                                        #   in Loop: Header=BB1_149 Depth=1
	movq	-24(%rbp), %rax
	movq	8(%rax), %rax
	movq	%rax, -24(%rbp)
	jmp	.LBB1_149
.LBB1_157:                              # %for.end352
	jmp	.LBB1_158
.LBB1_158:                              # %if.end353
	jmp	.LBB1_192
.LBB1_159:                              # %if.else354
	cmpl	$2, opMode
	jne	.LBB1_175
# %bb.160:                              # %if.then357
	movb	$0, unzFailsExist
	cmpl	$1, srcMode
	jne	.LBB1_162
# %bb.161:                              # %if.then360
	xorl	%edi, %edi
	callq	uncompress
	jmp	.LBB1_172
.LBB1_162:                              # %if.else361
	movb	$1, -9(%rbp)
	movq	-32(%rbp), %rax
	movq	%rax, -24(%rbp)
.LBB1_163:                              # %for.cond362
                                        # =>This Inner Loop Header: Depth=1
	cmpq	$0, -24(%rbp)
	je	.LBB1_171
# %bb.164:                              # %for.body365
                                        #   in Loop: Header=BB1_163 Depth=1
	movq	-24(%rbp), %rax
	movq	(%rax), %rdi
	movl	$.L.str.3, %esi
	callq	strcmp
	cmpl	$0, %eax
	jne	.LBB1_166
# %bb.165:                              # %if.then370
                                        #   in Loop: Header=BB1_163 Depth=1
	movb	$0, -9(%rbp)
	jmp	.LBB1_170
.LBB1_166:                              # %if.end371
                                        #   in Loop: Header=BB1_163 Depth=1
	movq	-24(%rbp), %rax
	movq	(%rax), %rax
	movsbl	(%rax), %eax
	cmpl	$45, %eax
	jne	.LBB1_169
# %bb.167:                              # %land.lhs.true377
                                        #   in Loop: Header=BB1_163 Depth=1
	movzbl	-9(%rbp), %eax
	cmpl	$0, %eax
	je	.LBB1_169
# %bb.168:                              # %if.then380
                                        #   in Loop: Header=BB1_163 Depth=1
	jmp	.LBB1_170
.LBB1_169:                              # %if.end381
                                        #   in Loop: Header=BB1_163 Depth=1
	movl	numFilesProcessed, %eax
	addl	$1, %eax
	movl	%eax, numFilesProcessed
	movq	-24(%rbp), %rax
	movq	(%rax), %rdi
	callq	uncompress
.LBB1_170:                              # %for.inc384
                                        #   in Loop: Header=BB1_163 Depth=1
	movq	-24(%rbp), %rax
	movq	8(%rax), %rax
	movq	%rax, -24(%rbp)
	jmp	.LBB1_163
.LBB1_171:                              # %for.end386
	jmp	.LBB1_172
.LBB1_172:                              # %if.end387
	cmpb	$0, unzFailsExist
	je	.LBB1_174
# %bb.173:                              # %if.then389
	movl	$2, %edi
	callq	setExit
	movl	exitValue, %edi
	callq	exit
.LBB1_174:                              # %if.end390
	jmp	.LBB1_191
.LBB1_175:                              # %if.else391
	movb	$0, testFailsExist
	cmpl	$1, srcMode
	jne	.LBB1_177
# %bb.176:                              # %if.then394
	xorl	%edi, %edi
	callq	testf
	jmp	.LBB1_187
.LBB1_177:                              # %if.else395
	movb	$1, -9(%rbp)
	movq	-32(%rbp), %rax
	movq	%rax, -24(%rbp)
.LBB1_178:                              # %for.cond396
                                        # =>This Inner Loop Header: Depth=1
	cmpq	$0, -24(%rbp)
	je	.LBB1_186
# %bb.179:                              # %for.body399
                                        #   in Loop: Header=BB1_178 Depth=1
	movq	-24(%rbp), %rax
	movq	(%rax), %rdi
	movl	$.L.str.3, %esi
	callq	strcmp
	cmpl	$0, %eax
	jne	.LBB1_181
# %bb.180:                              # %if.then404
                                        #   in Loop: Header=BB1_178 Depth=1
	movb	$0, -9(%rbp)
	jmp	.LBB1_185
.LBB1_181:                              # %if.end405
                                        #   in Loop: Header=BB1_178 Depth=1
	movq	-24(%rbp), %rax
	movq	(%rax), %rax
	movsbl	(%rax), %eax
	cmpl	$45, %eax
	jne	.LBB1_184
# %bb.182:                              # %land.lhs.true411
                                        #   in Loop: Header=BB1_178 Depth=1
	movzbl	-9(%rbp), %eax
	cmpl	$0, %eax
	je	.LBB1_184
# %bb.183:                              # %if.then414
                                        #   in Loop: Header=BB1_178 Depth=1
	jmp	.LBB1_185
.LBB1_184:                              # %if.end415
                                        #   in Loop: Header=BB1_178 Depth=1
	movl	numFilesProcessed, %eax
	addl	$1, %eax
	movl	%eax, numFilesProcessed
	movq	-24(%rbp), %rax
	movq	(%rax), %rdi
	callq	testf
.LBB1_185:                              # %for.inc418
                                        #   in Loop: Header=BB1_178 Depth=1
	movq	-24(%rbp), %rax
	movq	8(%rax), %rax
	movq	%rax, -24(%rbp)
	jmp	.LBB1_178
.LBB1_186:                              # %for.end420
	jmp	.LBB1_187
.LBB1_187:                              # %if.end421
	movzbl	testFailsExist, %eax
	cmpl	$0, %eax
	je	.LBB1_190
# %bb.188:                              # %land.lhs.true424
	movzbl	noisy, %eax
	cmpl	$0, %eax
	je	.LBB1_190
# %bb.189:                              # %if.then427
	movq	stderr, %rdi
	movabsq	$.L.str.29, %rsi
	movb	$0, %al
	callq	fprintf
	movl	$2, %edi
	callq	setExit
	movl	exitValue, %edi
	callq	exit
.LBB1_190:                              # %if.end429
	jmp	.LBB1_191
.LBB1_191:                              # %if.end430
	jmp	.LBB1_192
.LBB1_192:                              # %if.end431
	movq	-32(%rbp), %rax
	movq	%rax, -24(%rbp)
.LBB1_193:                              # %while.cond
                                        # =>This Inner Loop Header: Depth=1
	cmpq	$0, -24(%rbp)
	je	.LBB1_197
# %bb.194:                              # %while.body
                                        #   in Loop: Header=BB1_193 Depth=1
	movq	-24(%rbp), %rax
	movq	8(%rax), %rax
	movq	%rax, -72(%rbp)
	movq	-24(%rbp), %rax
	cmpq	$0, (%rax)
	je	.LBB1_196
# %bb.195:                              # %if.then438
                                        #   in Loop: Header=BB1_193 Depth=1
	movq	-24(%rbp), %rax
	movq	(%rax), %rdi
	callq	free
.LBB1_196:                              # %if.end440
                                        #   in Loop: Header=BB1_193 Depth=1
	movq	-24(%rbp), %rdi
	callq	free
	movq	-72(%rbp), %rax
	movq	%rax, -24(%rbp)
	jmp	.LBB1_193
.LBB1_197:                              # %while.end
	movl	exitValue, %eax
	addq	$72, %rsp
	popq	%rbx
	popq	%rbp
	.cfi_def_cfa %rsp, 8
	retq
.Lfunc_end1:
	.size	main, .Lfunc_end1-main
	.cfi_endproc
	.section	.rodata,"a",@progbits
	.p2align	3
.LJTI1_0:
	.quad	.LBB1_50
	.quad	.LBB1_51
	.quad	.LBB1_52
	.quad	.LBB1_53
	.quad	.LBB1_54
	.quad	.LBB1_55
	.quad	.LBB1_56
	.quad	.LBB1_57
	.quad	.LBB1_58
	.quad	.LBB1_62
	.quad	.LBB1_62
	.quad	.LBB1_62
	.quad	.LBB1_62
	.quad	.LBB1_62
	.quad	.LBB1_62
	.quad	.LBB1_62
	.quad	.LBB1_62
	.quad	.LBB1_62
	.quad	.LBB1_62
	.quad	.LBB1_62
	.quad	.LBB1_62
	.quad	.LBB1_62
	.quad	.LBB1_62
	.quad	.LBB1_62
	.quad	.LBB1_62
	.quad	.LBB1_62
	.quad	.LBB1_62
	.quad	.LBB1_59
	.quad	.LBB1_62
	.quad	.LBB1_62
	.quad	.LBB1_62
	.quad	.LBB1_62
	.quad	.LBB1_62
	.quad	.LBB1_62
	.quad	.LBB1_62
	.quad	.LBB1_62
	.quad	.LBB1_62
	.quad	.LBB1_59
	.quad	.LBB1_62
	.quad	.LBB1_62
	.quad	.LBB1_62
	.quad	.LBB1_62
	.quad	.LBB1_62
	.quad	.LBB1_62
	.quad	.LBB1_62
	.quad	.LBB1_62
	.quad	.LBB1_62
	.quad	.LBB1_62
	.quad	.LBB1_62
	.quad	.LBB1_62
	.quad	.LBB1_42
	.quad	.LBB1_43
	.quad	.LBB1_62
	.quad	.LBB1_45
	.quad	.LBB1_62
	.quad	.LBB1_61
	.quad	.LBB1_62
	.quad	.LBB1_62
	.quad	.LBB1_47
	.quad	.LBB1_62
	.quad	.LBB1_62
	.quad	.LBB1_62
	.quad	.LBB1_62
	.quad	.LBB1_62
	.quad	.LBB1_49
	.quad	.LBB1_62
	.quad	.LBB1_48
	.quad	.LBB1_46
	.quad	.LBB1_62
	.quad	.LBB1_60
	.quad	.LBB1_62
	.quad	.LBB1_62
	.quad	.LBB1_62
	.quad	.LBB1_44
                                        # -- End function
	.text
	.p2align	4, 0x90         # -- Begin function mySIGSEGVorSIGBUScatcher
	.type	mySIGSEGVorSIGBUScatcher,@function
mySIGSEGVorSIGBUScatcher:               # @mySIGSEGVorSIGBUScatcher
	.cfi_startproc
# %bb.0:                                # %entry
	pushq	%rbp
	.cfi_def_cfa_offset 16
	.cfi_offset %rbp, -16
	movq	%rsp, %rbp
	.cfi_def_cfa_register %rbp
	subq	$16, %rsp
	movl	%edi, -4(%rbp)
	cmpl	$1, opMode
	jne	.LBB2_2
# %bb.1:                                # %if.then
	movq	stderr, %rdi
	movq	progName, %rdx
	movabsq	$.L.str.36, %rsi
	movb	$0, %al
	callq	fprintf
	jmp	.LBB2_3
.LBB2_2:                                # %if.else
	movq	stderr, %rdi
	movq	progName, %rdx
	movabsq	$.L.str.37, %rsi
	movb	$0, %al
	callq	fprintf
.LBB2_3:                                # %if.end
	callq	showFileNames
	cmpl	$1, opMode
	jne	.LBB2_5
# %bb.4:                                # %if.then3
	movl	$3, %edi
	callq	cleanUpAndFail
.LBB2_5:                                # %if.else4
	callq	cadvise
	movl	$2, %edi
	callq	cleanUpAndFail
.Lfunc_end2:
	.size	mySIGSEGVorSIGBUScatcher, .Lfunc_end2-mySIGSEGVorSIGBUScatcher
	.cfi_endproc
                                        # -- End function
	.p2align	4, 0x90         # -- Begin function copyFileName
	.type	copyFileName,@function
copyFileName:                           # @copyFileName
	.cfi_startproc
# %bb.0:                                # %rand_bb
	pushq	%rbp
	.cfi_def_cfa_offset 16
	.cfi_offset %rbp, -16
	movq	%rsp, %rbp
	.cfi_def_cfa_register %rbp
	pushq	%r14
	pushq	%rbx
	.cfi_offset %rbx, -32
	.cfi_offset %r14, -24
	movq	%rsi, %r14
	movq	%rdi, %rbx
	callq	get_rand
	cmpl	$0, %eax
	jne	.LBB3_2
# %bb.1:                                # %func_copyFileName.31
	movq	%rbx, %rdi
	movq	%r14, %rsi
	callq	copyFileName.31
	popq	%rbx
	popq	%r14
	popq	%rbp
	.cfi_def_cfa %rsp, 8
	retq
.LBB3_2:                                # %func_copyFileName.38
	.cfi_def_cfa %rbp, 16
	movq	%rbx, %rdi
	movq	%r14, %rsi
	callq	copyFileName.38
	popq	%rbx
	popq	%r14
	popq	%rbp
	.cfi_def_cfa %rsp, 8
	retq
.Lfunc_end3:
	.size	copyFileName, .Lfunc_end3-copyFileName
	.cfi_endproc
                                        # -- End function
	.p2align	4, 0x90         # -- Begin function addFlagsFromEnvVar
	.type	addFlagsFromEnvVar,@function
addFlagsFromEnvVar:                     # @addFlagsFromEnvVar
	.cfi_startproc
# %bb.0:                                # %rand_bb
	pushq	%rbp
	.cfi_def_cfa_offset 16
	.cfi_offset %rbp, -16
	movq	%rsp, %rbp
	.cfi_def_cfa_register %rbp
	pushq	%r14
	pushq	%rbx
	.cfi_offset %rbx, -32
	.cfi_offset %r14, -24
	movq	%rsi, %r14
	movq	%rdi, %rbx
	callq	get_rand
	cmpl	$0, %eax
	jne	.LBB4_5
# %bb.1:                                # %func_addFlagsFromEnvVar.13
	movq	%rbx, %rdi
	movq	%r14, %rsi
	callq	addFlagsFromEnvVar.13
	popq	%rbx
	popq	%r14
	popq	%rbp
	.cfi_def_cfa %rsp, 8
	retq
.LBB4_2:                                # %func_addFlagsFromEnvVar.19
	.cfi_def_cfa %rbp, 16
	movq	%rbx, %rdi
	movq	%r14, %rsi
	callq	addFlagsFromEnvVar.19
	popq	%rbx
	popq	%r14
	popq	%rbp
	.cfi_def_cfa %rsp, 8
	retq
.LBB4_3:                                # %func_addFlagsFromEnvVar.20
	.cfi_def_cfa %rbp, 16
	movq	%rbx, %rdi
	movq	%r14, %rsi
	callq	addFlagsFromEnvVar.20
	popq	%rbx
	popq	%r14
	popq	%rbp
	.cfi_def_cfa %rsp, 8
	retq
.LBB4_4:                                # %func_addFlagsFromEnvVar.28
	.cfi_def_cfa %rbp, 16
	movq	%rbx, %rdi
	movq	%r14, %rsi
	callq	addFlagsFromEnvVar.28
	popq	%rbx
	popq	%r14
	popq	%rbp
	.cfi_def_cfa %rsp, 8
	retq
.LBB4_5:                                # %ctrl0
	.cfi_def_cfa %rbp, 16
	cmpl	$1, %eax
	je	.LBB4_2
# %bb.6:                                # %ctrl1
	cmpl	$2, %eax
	je	.LBB4_3
	jmp	.LBB4_4
.Lfunc_end4:
	.size	addFlagsFromEnvVar, .Lfunc_end4-addFlagsFromEnvVar
	.cfi_endproc
                                        # -- End function
	.p2align	4, 0x90         # -- Begin function snocString
	.type	snocString,@function
snocString:                             # @snocString
	.cfi_startproc
# %bb.0:                                # %rand_bb
	pushq	%rbp
	.cfi_def_cfa_offset 16
	.cfi_offset %rbp, -16
	movq	%rsp, %rbp
	.cfi_def_cfa_register %rbp
	pushq	%r14
	pushq	%rbx
	.cfi_offset %rbx, -32
	.cfi_offset %r14, -24
	movq	%rsi, %r14
	movq	%rdi, %rbx
	callq	get_rand
	cmpl	$0, %eax
	jne	.LBB5_5
# %bb.1:                                # %func_snocString.14
	movq	%rbx, %rdi
	movq	%r14, %rsi
	callq	snocString.14
	popq	%rbx
	popq	%r14
	popq	%rbp
	.cfi_def_cfa %rsp, 8
	retq
.LBB5_2:                                # %func_snocString.60
	.cfi_def_cfa %rbp, 16
	movq	%rbx, %rdi
	movq	%r14, %rsi
	callq	snocString.60
	popq	%rbx
	popq	%r14
	popq	%rbp
	.cfi_def_cfa %rsp, 8
	retq
.LBB5_3:                                # %func_snocString.64
	.cfi_def_cfa %rbp, 16
	movq	%rbx, %rdi
	movq	%r14, %rsi
	callq	snocString.64
	popq	%rbx
	popq	%r14
	popq	%rbp
	.cfi_def_cfa %rsp, 8
	retq
.LBB5_4:                                # %func_snocString.67
	.cfi_def_cfa %rbp, 16
	movq	%rbx, %rdi
	movq	%r14, %rsi
	callq	snocString.67
	popq	%rbx
	popq	%r14
	popq	%rbp
	.cfi_def_cfa %rsp, 8
	retq
.LBB5_5:                                # %ctrl0
	.cfi_def_cfa %rbp, 16
	cmpl	$1, %eax
	je	.LBB5_2
# %bb.6:                                # %ctrl1
	cmpl	$2, %eax
	je	.LBB5_3
	jmp	.LBB5_4
.Lfunc_end5:
	.size	snocString, .Lfunc_end5-snocString
	.cfi_endproc
                                        # -- End function
	.p2align	4, 0x90         # -- Begin function license
	.type	license,@function
license:                                # @license
	.cfi_startproc
# %bb.0:                                # %entry
	pushq	%rbp
	.cfi_def_cfa_offset 16
	.cfi_offset %rbp, -16
	movq	%rsp, %rbp
	.cfi_def_cfa_register %rbp
	pushq	%rbx
	pushq	%rax
	.cfi_offset %rbx, -24
	movq	stderr, %rbx
	callq	BZ2_bzlibVersion
	movq	%rbx, %rdi
	movabsq	$.L.str.49, %rsi
	movq	%rax, %rdx
	movb	$0, %al
	callq	fprintf
	addq	$8, %rsp
	popq	%rbx
	popq	%rbp
	.cfi_def_cfa %rsp, 8
	retq
.Lfunc_end6:
	.size	license, .Lfunc_end6-license
	.cfi_endproc
                                        # -- End function
	.p2align	4, 0x90         # -- Begin function usage
	.type	usage,@function
usage:                                  # @usage
	.cfi_startproc
# %bb.0:                                # %entry
	pushq	%rbp
	.cfi_def_cfa_offset 16
	.cfi_offset %rbp, -16
	movq	%rsp, %rbp
	.cfi_def_cfa_register %rbp
	pushq	%rbx
	pushq	%rax
	.cfi_offset %rbx, -24
	movq	%rdi, -16(%rbp)
	movq	stderr, %rbx
	callq	BZ2_bzlibVersion
	movq	-16(%rbp), %rcx
	movq	%rbx, %rdi
	movabsq	$.L.str.50, %rsi
	movq	%rax, %rdx
	movb	$0, %al
	callq	fprintf
	addq	$8, %rsp
	popq	%rbx
	popq	%rbp
	.cfi_def_cfa %rsp, 8
	retq
.Lfunc_end7:
	.size	usage, .Lfunc_end7-usage
	.cfi_endproc
                                        # -- End function
	.p2align	4, 0x90         # -- Begin function redundant
	.type	redundant,@function
redundant:                              # @redundant
	.cfi_startproc
# %bb.0:                                # %entry
	pushq	%rbp
	.cfi_def_cfa_offset 16
	.cfi_offset %rbp, -16
	movq	%rsp, %rbp
	.cfi_def_cfa_register %rbp
	subq	$16, %rsp
	movq	%rdi, -8(%rbp)
	movq	stderr, %rdi
	movq	progName, %rdx
	movq	-8(%rbp), %rcx
	movabsq	$.L.str.51, %rsi
	movb	$0, %al
	callq	fprintf
	addq	$16, %rsp
	popq	%rbp
	.cfi_def_cfa %rsp, 8
	retq
.Lfunc_end8:
	.size	redundant, .Lfunc_end8-redundant
	.cfi_endproc
                                        # -- End function
	.p2align	4, 0x90         # -- Begin function mySignalCatcher
	.type	mySignalCatcher,@function
mySignalCatcher:                        # @mySignalCatcher
	.cfi_startproc
# %bb.0:                                # %entry
	pushq	%rbp
	.cfi_def_cfa_offset 16
	.cfi_offset %rbp, -16
	movq	%rsp, %rbp
	.cfi_def_cfa_register %rbp
	subq	$16, %rsp
	movl	%edi, -4(%rbp)
	movq	stderr, %rdi
	movq	progName, %rdx
	movabsq	$.L.str.52, %rsi
	movb	$0, %al
	callq	fprintf
	movl	$1, %edi
	callq	cleanUpAndFail
.Lfunc_end9:
	.size	mySignalCatcher, .Lfunc_end9-mySignalCatcher
	.cfi_endproc
                                        # -- End function
	.p2align	4, 0x90         # -- Begin function compress
	.type	compress,@function
compress:                               # @compress
	.cfi_startproc
# %bb.0:                                # %rand_bb
	pushq	%rbp
	.cfi_def_cfa_offset 16
	.cfi_offset %rbp, -16
	movq	%rsp, %rbp
	.cfi_def_cfa_register %rbp
	pushq	%rbx
	pushq	%rax
	.cfi_offset %rbx, -24
	movq	%rdi, %rbx
	callq	get_rand
	cmpl	$0, %eax
	jne	.LBB10_5
# %bb.1:                                # %func_compress.18
	movq	%rbx, %rdi
	callq	compress.18
	addq	$8, %rsp
	popq	%rbx
	popq	%rbp
	.cfi_def_cfa %rsp, 8
	retq
.LBB10_2:                               # %func_compress.65
	.cfi_def_cfa %rbp, 16
	movq	%rbx, %rdi
	callq	compress.65
	addq	$8, %rsp
	popq	%rbx
	popq	%rbp
	.cfi_def_cfa %rsp, 8
	retq
.LBB10_3:                               # %func_compress.74
	.cfi_def_cfa %rbp, 16
	movq	%rbx, %rdi
	callq	compress.74
	addq	$8, %rsp
	popq	%rbx
	popq	%rbp
	.cfi_def_cfa %rsp, 8
	retq
.LBB10_4:                               # %func_compress.93
	.cfi_def_cfa %rbp, 16
	movq	%rbx, %rdi
	callq	compress.93
	addq	$8, %rsp
	popq	%rbx
	popq	%rbp
	.cfi_def_cfa %rsp, 8
	retq
.LBB10_5:                               # %ctrl0
	.cfi_def_cfa %rbp, 16
	cmpl	$1, %eax
	je	.LBB10_2
# %bb.6:                                # %ctrl1
	cmpl	$2, %eax
	je	.LBB10_3
	jmp	.LBB10_4
.Lfunc_end10:
	.size	compress, .Lfunc_end10-compress
	.cfi_endproc
                                        # -- End function
	.p2align	4, 0x90         # -- Begin function uncompress
	.type	uncompress,@function
uncompress:                             # @uncompress
	.cfi_startproc
# %bb.0:                                # %rand_bb
	pushq	%rbp
	.cfi_def_cfa_offset 16
	.cfi_offset %rbp, -16
	movq	%rsp, %rbp
	.cfi_def_cfa_register %rbp
	pushq	%rbx
	pushq	%rax
	.cfi_offset %rbx, -24
	movq	%rdi, %rbx
	callq	get_rand
	cmpl	$0, %eax
	jne	.LBB11_5
# %bb.1:                                # %func_uncompress.23
	movq	%rbx, %rdi
	callq	uncompress.23
	addq	$8, %rsp
	popq	%rbx
	popq	%rbp
	.cfi_def_cfa %rsp, 8
	retq
.LBB11_2:                               # %func_uncompress.78
	.cfi_def_cfa %rbp, 16
	movq	%rbx, %rdi
	callq	uncompress.78
	addq	$8, %rsp
	popq	%rbx
	popq	%rbp
	.cfi_def_cfa %rsp, 8
	retq
.LBB11_3:                               # %func_uncompress.84
	.cfi_def_cfa %rbp, 16
	movq	%rbx, %rdi
	callq	uncompress.84
	addq	$8, %rsp
	popq	%rbx
	popq	%rbp
	.cfi_def_cfa %rsp, 8
	retq
.LBB11_4:                               # %func_uncompress.92
	.cfi_def_cfa %rbp, 16
	movq	%rbx, %rdi
	callq	uncompress.92
	addq	$8, %rsp
	popq	%rbx
	popq	%rbp
	.cfi_def_cfa %rsp, 8
	retq
.LBB11_5:                               # %ctrl0
	.cfi_def_cfa %rbp, 16
	cmpl	$1, %eax
	je	.LBB11_2
# %bb.6:                                # %ctrl1
	cmpl	$2, %eax
	je	.LBB11_3
	jmp	.LBB11_4
.Lfunc_end11:
	.size	uncompress, .Lfunc_end11-uncompress
	.cfi_endproc
                                        # -- End function
	.p2align	4, 0x90         # -- Begin function setExit
	.type	setExit,@function
setExit:                                # @setExit
	.cfi_startproc
# %bb.0:                                # %entry
	pushq	%rbp
	.cfi_def_cfa_offset 16
	.cfi_offset %rbp, -16
	movq	%rsp, %rbp
	.cfi_def_cfa_register %rbp
	movl	%edi, -4(%rbp)
	movl	-4(%rbp), %eax
	cmpl	exitValue, %eax
	jle	.LBB12_2
# %bb.1:                                # %if.then
	movl	-4(%rbp), %eax
	movl	%eax, exitValue
.LBB12_2:                               # %if.end
	popq	%rbp
	.cfi_def_cfa %rsp, 8
	retq
.Lfunc_end12:
	.size	setExit, .Lfunc_end12-setExit
	.cfi_endproc
                                        # -- End function
	.p2align	4, 0x90         # -- Begin function testf
	.type	testf,@function
testf:                                  # @testf
	.cfi_startproc
# %bb.0:                                # %rand_bb
	pushq	%rbp
	.cfi_def_cfa_offset 16
	.cfi_offset %rbp, -16
	movq	%rsp, %rbp
	.cfi_def_cfa_register %rbp
	pushq	%rbx
	pushq	%rax
	.cfi_offset %rbx, -24
	movq	%rdi, %rbx
	callq	get_rand
	cmpl	$0, %eax
	jne	.LBB13_5
# %bb.1:                                # %func_testf.10
	movq	%rbx, %rdi
	callq	testf.10
	addq	$8, %rsp
	popq	%rbx
	popq	%rbp
	.cfi_def_cfa %rsp, 8
	retq
.LBB13_2:                               # %func_testf.17
	.cfi_def_cfa %rbp, 16
	movq	%rbx, %rdi
	callq	testf.17
	addq	$8, %rsp
	popq	%rbx
	popq	%rbp
	.cfi_def_cfa %rsp, 8
	retq
.LBB13_3:                               # %func_testf.52
	.cfi_def_cfa %rbp, 16
	movq	%rbx, %rdi
	callq	testf.52
	addq	$8, %rsp
	popq	%rbx
	popq	%rbp
	.cfi_def_cfa %rsp, 8
	retq
.LBB13_4:                               # %func_testf.62
	.cfi_def_cfa %rbp, 16
	movq	%rbx, %rdi
	callq	testf.62
	addq	$8, %rsp
	popq	%rbx
	popq	%rbp
	.cfi_def_cfa %rsp, 8
	retq
.LBB13_5:                               # %ctrl0
	.cfi_def_cfa %rbp, 16
	cmpl	$1, %eax
	je	.LBB13_2
# %bb.6:                                # %ctrl1
	cmpl	$2, %eax
	je	.LBB13_3
	jmp	.LBB13_4
.Lfunc_end13:
	.size	testf, .Lfunc_end13-testf
	.cfi_endproc
                                        # -- End function
	.p2align	4, 0x90         # -- Begin function showFileNames
	.type	showFileNames,@function
showFileNames:                          # @showFileNames
	.cfi_startproc
# %bb.0:                                # %entry
	pushq	%rbp
	.cfi_def_cfa_offset 16
	.cfi_offset %rbp, -16
	movq	%rsp, %rbp
	.cfi_def_cfa_register %rbp
	cmpb	$0, noisy
	je	.LBB14_2
# %bb.1:                                # %if.then
	movq	stderr, %rdi
	movabsq	$.L.str.38, %rsi
	movabsq	$inName, %rdx
	movabsq	$outName, %rcx
	movb	$0, %al
	callq	fprintf
.LBB14_2:                               # %if.end
	popq	%rbp
	.cfi_def_cfa %rsp, 8
	retq
.Lfunc_end14:
	.size	showFileNames, .Lfunc_end14-showFileNames
	.cfi_endproc
                                        # -- End function
	.p2align	4, 0x90         # -- Begin function cleanUpAndFail
	.type	cleanUpAndFail,@function
cleanUpAndFail:                         # @cleanUpAndFail
	.cfi_startproc
# %bb.0:                                # %rand_bb
	pushq	%rbp
	.cfi_def_cfa_offset 16
	.cfi_offset %rbp, -16
	movq	%rsp, %rbp
	.cfi_def_cfa_register %rbp
	pushq	%rbx
	pushq	%rax
	.cfi_offset %rbx, -24
	movl	%edi, %ebx
	callq	get_rand
	cmpl	$0, %eax
	jne	.LBB15_5
# %bb.1:                                # %func_cleanUpAndFail.55
	movl	%ebx, %edi
	callq	cleanUpAndFail.55
	addq	$8, %rsp
	popq	%rbx
	popq	%rbp
	.cfi_def_cfa %rsp, 8
	retq
.LBB15_2:                               # %func_cleanUpAndFail.68
	.cfi_def_cfa %rbp, 16
	movl	%ebx, %edi
	callq	cleanUpAndFail.68
	addq	$8, %rsp
	popq	%rbx
	popq	%rbp
	.cfi_def_cfa %rsp, 8
	retq
.LBB15_3:                               # %func_cleanUpAndFail.77
	.cfi_def_cfa %rbp, 16
	movl	%ebx, %edi
	callq	cleanUpAndFail.77
	addq	$8, %rsp
	popq	%rbx
	popq	%rbp
	.cfi_def_cfa %rsp, 8
	retq
.LBB15_4:                               # %func_cleanUpAndFail.82
	.cfi_def_cfa %rbp, 16
	movl	%ebx, %edi
	callq	cleanUpAndFail.82
	addq	$8, %rsp
	popq	%rbx
	popq	%rbp
	.cfi_def_cfa %rsp, 8
	retq
.LBB15_5:                               # %ctrl0
	.cfi_def_cfa %rbp, 16
	cmpl	$1, %eax
	je	.LBB15_2
# %bb.6:                                # %ctrl1
	cmpl	$2, %eax
	je	.LBB15_3
	jmp	.LBB15_4
.Lfunc_end15:
	.size	cleanUpAndFail, .Lfunc_end15-cleanUpAndFail
	.cfi_endproc
                                        # -- End function
	.p2align	4, 0x90         # -- Begin function cadvise
	.type	cadvise,@function
cadvise:                                # @cadvise
	.cfi_startproc
# %bb.0:                                # %entry
	pushq	%rbp
	.cfi_def_cfa_offset 16
	.cfi_offset %rbp, -16
	movq	%rsp, %rbp
	.cfi_def_cfa_register %rbp
	cmpb	$0, noisy
	je	.LBB16_2
# %bb.1:                                # %if.then
	movq	stderr, %rdi
	movabsq	$.L.str.46, %rsi
	movb	$0, %al
	callq	fprintf
.LBB16_2:                               # %if.end
	popq	%rbp
	.cfi_def_cfa %rsp, 8
	retq
.Lfunc_end16:
	.size	cadvise, .Lfunc_end16-cadvise
	.cfi_endproc
                                        # -- End function
	.p2align	4, 0x90         # -- Begin function mkCell
	.type	mkCell,@function
mkCell:                                 # @mkCell
	.cfi_startproc
# %bb.0:                                # %entry
	pushq	%rbp
	.cfi_def_cfa_offset 16
	.cfi_offset %rbp, -16
	movq	%rsp, %rbp
	.cfi_def_cfa_register %rbp
	subq	$16, %rsp
	movl	$16, %edi
	callq	myMalloc
	movq	%rax, -8(%rbp)
	movq	-8(%rbp), %rax
	movq	$0, (%rax)
	movq	-8(%rbp), %rax
	movq	$0, 8(%rax)
	movq	-8(%rbp), %rax
	addq	$16, %rsp
	popq	%rbp
	.cfi_def_cfa %rsp, 8
	retq
.Lfunc_end17:
	.size	mkCell, .Lfunc_end17-mkCell
	.cfi_endproc
                                        # -- End function
	.p2align	4, 0x90         # -- Begin function myMalloc
	.type	myMalloc,@function
myMalloc:                               # @myMalloc
	.cfi_startproc
# %bb.0:                                # %rand_bb
	pushq	%rbp
	.cfi_def_cfa_offset 16
	.cfi_offset %rbp, -16
	movq	%rsp, %rbp
	.cfi_def_cfa_register %rbp
	pushq	%rbx
	pushq	%rax
	.cfi_offset %rbx, -24
	movl	%edi, %ebx
	callq	get_rand
	cmpl	$0, %eax
	jne	.LBB18_2
# %bb.1:                                # %func_myMalloc.47
	movl	%ebx, %edi
	callq	myMalloc.47
	addq	$8, %rsp
	popq	%rbx
	popq	%rbp
	.cfi_def_cfa %rsp, 8
	retq
.LBB18_2:                               # %func_myMalloc.53
	.cfi_def_cfa %rbp, 16
	movl	%ebx, %edi
	callq	myMalloc.53
	addq	$8, %rsp
	popq	%rbx
	popq	%rbp
	.cfi_def_cfa %rsp, 8
	retq
.Lfunc_end18:
	.size	myMalloc, .Lfunc_end18-myMalloc
	.cfi_endproc
                                        # -- End function
	.p2align	4, 0x90         # -- Begin function outOfMemory
	.type	outOfMemory,@function
outOfMemory:                            # @outOfMemory
	.cfi_startproc
# %bb.0:                                # %entry
	pushq	%rbp
	.cfi_def_cfa_offset 16
	.cfi_offset %rbp, -16
	movq	%rsp, %rbp
	.cfi_def_cfa_register %rbp
	movq	stderr, %rdi
	movq	progName, %rdx
	movabsq	$.L.str.48, %rsi
	movb	$0, %al
	callq	fprintf
	callq	showFileNames
	movl	$1, %edi
	callq	cleanUpAndFail
.Lfunc_end19:
	.size	outOfMemory, .Lfunc_end19-outOfMemory
	.cfi_endproc
                                        # -- End function
	.p2align	4, 0x90         # -- Begin function panic
	.type	panic,@function
panic:                                  # @panic
	.cfi_startproc
# %bb.0:                                # %entry
	pushq	%rbp
	.cfi_def_cfa_offset 16
	.cfi_offset %rbp, -16
	movq	%rsp, %rbp
	.cfi_def_cfa_register %rbp
	subq	$16, %rsp
	movq	%rdi, -8(%rbp)
	movq	stderr, %rdi
	movq	progName, %rdx
	movq	-8(%rbp), %rcx
	movabsq	$.L.str.71, %rsi
	movb	$0, %al
	callq	fprintf
	callq	showFileNames
	movl	$3, %edi
	callq	cleanUpAndFail
.Lfunc_end20:
	.size	panic, .Lfunc_end20-panic
	.cfi_endproc
                                        # -- End function
	.p2align	4, 0x90         # -- Begin function containsDubiousChars
	.type	containsDubiousChars,@function
containsDubiousChars:                   # @containsDubiousChars
	.cfi_startproc
# %bb.0:                                # %entry
	pushq	%rbp
	.cfi_def_cfa_offset 16
	.cfi_offset %rbp, -16
	movq	%rsp, %rbp
	.cfi_def_cfa_register %rbp
	xorl	%eax, %eax
	movq	%rdi, -8(%rbp)
	movzbl	%al, %eax
	popq	%rbp
	.cfi_def_cfa %rsp, 8
	retq
.Lfunc_end21:
	.size	containsDubiousChars, .Lfunc_end21-containsDubiousChars
	.cfi_endproc
                                        # -- End function
	.p2align	4, 0x90         # -- Begin function fileExists
	.type	fileExists,@function
fileExists:                             # @fileExists
	.cfi_startproc
# %bb.0:                                # %rand_bb
	pushq	%rbp
	.cfi_def_cfa_offset 16
	.cfi_offset %rbp, -16
	movq	%rsp, %rbp
	.cfi_def_cfa_register %rbp
	pushq	%rbx
	pushq	%rax
	.cfi_offset %rbx, -24
	movq	%rdi, %rbx
	callq	get_rand
	cmpl	$0, %eax
	jne	.LBB22_5
# %bb.1:                                # %func_fileExists.3
	movq	%rbx, %rdi
	callq	fileExists.3
	movzbl	%al, %eax
	addq	$8, %rsp
	popq	%rbx
	popq	%rbp
	.cfi_def_cfa %rsp, 8
	retq
.LBB22_2:                               # %func_fileExists.15
	.cfi_def_cfa %rbp, 16
	movq	%rbx, %rdi
	callq	fileExists.15
	movzbl	%al, %eax
	addq	$8, %rsp
	popq	%rbx
	popq	%rbp
	.cfi_def_cfa %rsp, 8
	retq
.LBB22_3:                               # %func_fileExists.45
	.cfi_def_cfa %rbp, 16
	movq	%rbx, %rdi
	callq	fileExists.45
	movzbl	%al, %eax
	addq	$8, %rsp
	popq	%rbx
	popq	%rbp
	.cfi_def_cfa %rsp, 8
	retq
.LBB22_4:                               # %func_fileExists.59
	.cfi_def_cfa %rbp, 16
	movq	%rbx, %rdi
	callq	fileExists.59
	movzbl	%al, %eax
	addq	$8, %rsp
	popq	%rbx
	popq	%rbp
	.cfi_def_cfa %rsp, 8
	retq
.LBB22_5:                               # %ctrl0
	.cfi_def_cfa %rbp, 16
	cmpl	$1, %eax
	je	.LBB22_2
# %bb.6:                                # %ctrl1
	cmpl	$2, %eax
	je	.LBB22_3
	jmp	.LBB22_4
.Lfunc_end22:
	.size	fileExists, .Lfunc_end22-fileExists
	.cfi_endproc
                                        # -- End function
	.p2align	4, 0x90         # -- Begin function hasSuffix
	.type	hasSuffix,@function
hasSuffix:                              # @hasSuffix
	.cfi_startproc
# %bb.0:                                # %rand_bb
	pushq	%rbp
	.cfi_def_cfa_offset 16
	.cfi_offset %rbp, -16
	movq	%rsp, %rbp
	.cfi_def_cfa_register %rbp
	pushq	%r14
	pushq	%rbx
	.cfi_offset %rbx, -32
	.cfi_offset %r14, -24
	movq	%rsi, %r14
	movq	%rdi, %rbx
	callq	get_rand
	cmpl	$0, %eax
	jne	.LBB23_5
# %bb.1:                                # %func_hasSuffix.37
	movq	%rbx, %rdi
	movq	%r14, %rsi
	callq	hasSuffix.37
	movzbl	%al, %eax
	popq	%rbx
	popq	%r14
	popq	%rbp
	.cfi_def_cfa %rsp, 8
	retq
.LBB23_2:                               # %func_hasSuffix.39
	.cfi_def_cfa %rbp, 16
	movq	%rbx, %rdi
	movq	%r14, %rsi
	callq	hasSuffix.39
	movzbl	%al, %eax
	popq	%rbx
	popq	%r14
	popq	%rbp
	.cfi_def_cfa %rsp, 8
	retq
.LBB23_3:                               # %func_hasSuffix.49
	.cfi_def_cfa %rbp, 16
	movq	%rbx, %rdi
	movq	%r14, %rsi
	callq	hasSuffix.49
	movzbl	%al, %eax
	popq	%rbx
	popq	%r14
	popq	%rbp
	.cfi_def_cfa %rsp, 8
	retq
.LBB23_4:                               # %func_hasSuffix.63
	.cfi_def_cfa %rbp, 16
	movq	%rbx, %rdi
	movq	%r14, %rsi
	callq	hasSuffix.63
	movzbl	%al, %eax
	popq	%rbx
	popq	%r14
	popq	%rbp
	.cfi_def_cfa %rsp, 8
	retq
.LBB23_5:                               # %ctrl0
	.cfi_def_cfa %rbp, 16
	cmpl	$1, %eax
	je	.LBB23_2
# %bb.6:                                # %ctrl1
	cmpl	$2, %eax
	je	.LBB23_3
	jmp	.LBB23_4
.Lfunc_end23:
	.size	hasSuffix, .Lfunc_end23-hasSuffix
	.cfi_endproc
                                        # -- End function
	.p2align	4, 0x90         # -- Begin function notAStandardFile
	.type	notAStandardFile,@function
notAStandardFile:                       # @notAStandardFile
	.cfi_startproc
# %bb.0:                                # %rand_bb
	pushq	%rbp
	.cfi_def_cfa_offset 16
	.cfi_offset %rbp, -16
	movq	%rsp, %rbp
	.cfi_def_cfa_register %rbp
	pushq	%rbx
	pushq	%rax
	.cfi_offset %rbx, -24
	movq	%rdi, %rbx
	callq	get_rand
	cmpl	$0, %eax
	jne	.LBB24_5
# %bb.1:                                # %func_notAStandardFile.71
	movq	%rbx, %rdi
	callq	notAStandardFile.71
	movzbl	%al, %eax
	addq	$8, %rsp
	popq	%rbx
	popq	%rbp
	.cfi_def_cfa %rsp, 8
	retq
.LBB24_2:                               # %func_notAStandardFile.75
	.cfi_def_cfa %rbp, 16
	movq	%rbx, %rdi
	callq	notAStandardFile.75
	movzbl	%al, %eax
	addq	$8, %rsp
	popq	%rbx
	popq	%rbp
	.cfi_def_cfa %rsp, 8
	retq
.LBB24_3:                               # %func_notAStandardFile.87
	.cfi_def_cfa %rbp, 16
	movq	%rbx, %rdi
	callq	notAStandardFile.87
	movzbl	%al, %eax
	addq	$8, %rsp
	popq	%rbx
	popq	%rbp
	.cfi_def_cfa %rsp, 8
	retq
.LBB24_4:                               # %func_notAStandardFile.89
	.cfi_def_cfa %rbp, 16
	movq	%rbx, %rdi
	callq	notAStandardFile.89
	movzbl	%al, %eax
	addq	$8, %rsp
	popq	%rbx
	popq	%rbp
	.cfi_def_cfa %rsp, 8
	retq
.LBB24_5:                               # %ctrl0
	.cfi_def_cfa %rbp, 16
	cmpl	$1, %eax
	je	.LBB24_2
# %bb.6:                                # %ctrl1
	cmpl	$2, %eax
	je	.LBB24_3
	jmp	.LBB24_4
.Lfunc_end24:
	.size	notAStandardFile, .Lfunc_end24-notAStandardFile
	.cfi_endproc
                                        # -- End function
	.p2align	4, 0x90         # -- Begin function countHardLinks
	.type	countHardLinks,@function
countHardLinks:                         # @countHardLinks
	.cfi_startproc
# %bb.0:                                # %rand_bb
	pushq	%rbp
	.cfi_def_cfa_offset 16
	.cfi_offset %rbp, -16
	movq	%rsp, %rbp
	.cfi_def_cfa_register %rbp
	pushq	%rbx
	pushq	%rax
	.cfi_offset %rbx, -24
	movq	%rdi, %rbx
	callq	get_rand
	cmpl	$0, %eax
	jne	.LBB25_5
# %bb.1:                                # %func_countHardLinks.8
	movq	%rbx, %rdi
	callq	countHardLinks.8
	addq	$8, %rsp
	popq	%rbx
	popq	%rbp
	.cfi_def_cfa %rsp, 8
	retq
.LBB25_2:                               # %func_countHardLinks.21
	.cfi_def_cfa %rbp, 16
	movq	%rbx, %rdi
	callq	countHardLinks.21
	addq	$8, %rsp
	popq	%rbx
	popq	%rbp
	.cfi_def_cfa %rsp, 8
	retq
.LBB25_3:                               # %func_countHardLinks.25
	.cfi_def_cfa %rbp, 16
	movq	%rbx, %rdi
	callq	countHardLinks.25
	addq	$8, %rsp
	popq	%rbx
	popq	%rbp
	.cfi_def_cfa %rsp, 8
	retq
.LBB25_4:                               # %func_countHardLinks.56
	.cfi_def_cfa %rbp, 16
	movq	%rbx, %rdi
	callq	countHardLinks.56
	addq	$8, %rsp
	popq	%rbx
	popq	%rbp
	.cfi_def_cfa %rsp, 8
	retq
.LBB25_5:                               # %ctrl0
	.cfi_def_cfa %rbp, 16
	cmpl	$1, %eax
	je	.LBB25_2
# %bb.6:                                # %ctrl1
	cmpl	$2, %eax
	je	.LBB25_3
	jmp	.LBB25_4
.Lfunc_end25:
	.size	countHardLinks, .Lfunc_end25-countHardLinks
	.cfi_endproc
                                        # -- End function
	.p2align	4, 0x90         # -- Begin function saveInputFileMetaInfo
	.type	saveInputFileMetaInfo,@function
saveInputFileMetaInfo:                  # @saveInputFileMetaInfo
	.cfi_startproc
# %bb.0:                                # %rand_bb
	pushq	%rbp
	.cfi_def_cfa_offset 16
	.cfi_offset %rbp, -16
	movq	%rsp, %rbp
	.cfi_def_cfa_register %rbp
	pushq	%rbx
	pushq	%rax
	.cfi_offset %rbx, -24
	movq	%rdi, %rbx
	callq	get_rand
	cmpl	$0, %eax
	jne	.LBB26_2
# %bb.1:                                # %func_saveInputFileMetaInfo.9
	movq	%rbx, %rdi
	callq	saveInputFileMetaInfo.9
	addq	$8, %rsp
	popq	%rbx
	popq	%rbp
	.cfi_def_cfa %rsp, 8
	retq
.LBB26_2:                               # %func_saveInputFileMetaInfo.35
	.cfi_def_cfa %rbp, 16
	movq	%rbx, %rdi
	callq	saveInputFileMetaInfo.35
	addq	$8, %rsp
	popq	%rbx
	popq	%rbp
	.cfi_def_cfa %rsp, 8
	retq
.Lfunc_end26:
	.size	saveInputFileMetaInfo, .Lfunc_end26-saveInputFileMetaInfo
	.cfi_endproc
                                        # -- End function
	.p2align	4, 0x90         # -- Begin function pad
	.type	pad,@function
pad:                                    # @pad
	.cfi_startproc
# %bb.0:                                # %rand_bb
	pushq	%rbp
	.cfi_def_cfa_offset 16
	.cfi_offset %rbp, -16
	movq	%rsp, %rbp
	.cfi_def_cfa_register %rbp
	pushq	%rbx
	pushq	%rax
	.cfi_offset %rbx, -24
	movq	%rdi, %rbx
	callq	get_rand
	cmpl	$0, %eax
	jne	.LBB27_2
# %bb.1:                                # %func_pad.5
	movq	%rbx, %rdi
	callq	pad.5
	addq	$8, %rsp
	popq	%rbx
	popq	%rbp
	.cfi_def_cfa %rsp, 8
	retq
.LBB27_2:                               # %func_pad.12
	.cfi_def_cfa %rbp, 16
	movq	%rbx, %rdi
	callq	pad.12
	addq	$8, %rsp
	popq	%rbx
	popq	%rbp
	.cfi_def_cfa %rsp, 8
	retq
.Lfunc_end27:
	.size	pad, .Lfunc_end27-pad
	.cfi_endproc
                                        # -- End function
	.p2align	4, 0x90         # -- Begin function compressStream
	.type	compressStream,@function
compressStream:                         # @compressStream
	.cfi_startproc
# %bb.0:                                # %rand_bb
	pushq	%rbp
	.cfi_def_cfa_offset 16
	.cfi_offset %rbp, -16
	movq	%rsp, %rbp
	.cfi_def_cfa_register %rbp
	pushq	%r14
	pushq	%rbx
	.cfi_offset %rbx, -32
	.cfi_offset %r14, -24
	movq	%rsi, %r14
	movq	%rdi, %rbx
	callq	get_rand
	cmpl	$0, %eax
	jne	.LBB28_5
# %bb.1:                                # %func_compressStream.7
	movq	%rbx, %rdi
	movq	%r14, %rsi
	callq	compressStream.7
	popq	%rbx
	popq	%r14
	popq	%rbp
	.cfi_def_cfa %rsp, 8
	retq
.LBB28_2:                               # %func_compressStream.30
	.cfi_def_cfa %rbp, 16
	movq	%rbx, %rdi
	movq	%r14, %rsi
	callq	compressStream.30
	popq	%rbx
	popq	%r14
	popq	%rbp
	.cfi_def_cfa %rsp, 8
	retq
.LBB28_3:                               # %func_compressStream.48
	.cfi_def_cfa %rbp, 16
	movq	%rbx, %rdi
	movq	%r14, %rsi
	callq	compressStream.48
	popq	%rbx
	popq	%r14
	popq	%rbp
	.cfi_def_cfa %rsp, 8
	retq
.LBB28_4:                               # %func_compressStream.54
	.cfi_def_cfa %rbp, 16
	movq	%rbx, %rdi
	movq	%r14, %rsi
	callq	compressStream.54
	popq	%rbx
	popq	%r14
	popq	%rbp
	.cfi_def_cfa %rsp, 8
	retq
.LBB28_5:                               # %ctrl0
	.cfi_def_cfa %rbp, 16
	cmpl	$1, %eax
	je	.LBB28_2
# %bb.6:                                # %ctrl1
	cmpl	$2, %eax
	je	.LBB28_3
	jmp	.LBB28_4
.Lfunc_end28:
	.size	compressStream, .Lfunc_end28-compressStream
	.cfi_endproc
                                        # -- End function
	.p2align	4, 0x90         # -- Begin function applySavedMetaInfoToOutputFile
	.type	applySavedMetaInfoToOutputFile,@function
applySavedMetaInfoToOutputFile:         # @applySavedMetaInfoToOutputFile
	.cfi_startproc
# %bb.0:                                # %rand_bb
	pushq	%rbp
	.cfi_def_cfa_offset 16
	.cfi_offset %rbp, -16
	movq	%rsp, %rbp
	.cfi_def_cfa_register %rbp
	pushq	%rbx
	pushq	%rax
	.cfi_offset %rbx, -24
	movq	%rdi, %rbx
	callq	get_rand
	cmpl	$0, %eax
	jne	.LBB29_5
# %bb.1:                                # %func_applySavedMetaInfoToOutputFile.51
	movq	%rbx, %rdi
	callq	applySavedMetaInfoToOutputFile.51
	addq	$8, %rsp
	popq	%rbx
	popq	%rbp
	.cfi_def_cfa %rsp, 8
	retq
.LBB29_2:                               # %func_applySavedMetaInfoToOutputFile.66
	.cfi_def_cfa %rbp, 16
	movq	%rbx, %rdi
	callq	applySavedMetaInfoToOutputFile.66
	addq	$8, %rsp
	popq	%rbx
	popq	%rbp
	.cfi_def_cfa %rsp, 8
	retq
.LBB29_3:                               # %func_applySavedMetaInfoToOutputFile.91
	.cfi_def_cfa %rbp, 16
	movq	%rbx, %rdi
	callq	applySavedMetaInfoToOutputFile.91
	addq	$8, %rsp
	popq	%rbx
	popq	%rbp
	.cfi_def_cfa %rsp, 8
	retq
.LBB29_4:                               # %func_applySavedMetaInfoToOutputFile.95
	.cfi_def_cfa %rbp, 16
	movq	%rbx, %rdi
	callq	applySavedMetaInfoToOutputFile.95
	addq	$8, %rsp
	popq	%rbx
	popq	%rbp
	.cfi_def_cfa %rsp, 8
	retq
.LBB29_5:                               # %ctrl0
	.cfi_def_cfa %rbp, 16
	cmpl	$1, %eax
	je	.LBB29_2
# %bb.6:                                # %ctrl1
	cmpl	$2, %eax
	je	.LBB29_3
	jmp	.LBB29_4
.Lfunc_end29:
	.size	applySavedMetaInfoToOutputFile, .Lfunc_end29-applySavedMetaInfoToOutputFile
	.cfi_endproc
                                        # -- End function
	.p2align	4, 0x90         # -- Begin function ioError
	.type	ioError,@function
ioError:                                # @ioError
	.cfi_startproc
# %bb.0:                                # %entry
	pushq	%rbp
	.cfi_def_cfa_offset 16
	.cfi_offset %rbp, -16
	movq	%rsp, %rbp
	.cfi_def_cfa_register %rbp
	movq	stderr, %rdi
	movq	progName, %rdx
	movabsq	$.L.str.78, %rsi
	movb	$0, %al
	callq	fprintf
	movq	progName, %rdi
	callq	perror
	callq	showFileNames
	movl	$1, %edi
	callq	cleanUpAndFail
.Lfunc_end30:
	.size	ioError, .Lfunc_end30-ioError
	.cfi_endproc
                                        # -- End function
	.p2align	4, 0x90         # -- Begin function myfeof
	.type	myfeof,@function
myfeof:                                 # @myfeof
	.cfi_startproc
# %bb.0:                                # %rand_bb
	pushq	%rbp
	.cfi_def_cfa_offset 16
	.cfi_offset %rbp, -16
	movq	%rsp, %rbp
	.cfi_def_cfa_register %rbp
	pushq	%rbx
	pushq	%rax
	.cfi_offset %rbx, -24
	movq	%rdi, %rbx
	callq	get_rand
	cmpl	$0, %eax
	jne	.LBB31_5
# %bb.1:                                # %func_myfeof.40
	movq	%rbx, %rdi
	callq	myfeof.40
	movzbl	%al, %eax
	addq	$8, %rsp
	popq	%rbx
	popq	%rbp
	.cfi_def_cfa %rsp, 8
	retq
.LBB31_2:                               # %func_myfeof.73
	.cfi_def_cfa %rbp, 16
	movq	%rbx, %rdi
	callq	myfeof.73
	movzbl	%al, %eax
	addq	$8, %rsp
	popq	%rbx
	popq	%rbp
	.cfi_def_cfa %rsp, 8
	retq
.LBB31_3:                               # %func_myfeof.85
	.cfi_def_cfa %rbp, 16
	movq	%rbx, %rdi
	callq	myfeof.85
	movzbl	%al, %eax
	addq	$8, %rsp
	popq	%rbx
	popq	%rbp
	.cfi_def_cfa %rsp, 8
	retq
.LBB31_4:                               # %func_myfeof.96
	.cfi_def_cfa %rbp, 16
	movq	%rbx, %rdi
	callq	myfeof.96
	movzbl	%al, %eax
	addq	$8, %rsp
	popq	%rbx
	popq	%rbp
	.cfi_def_cfa %rsp, 8
	retq
.LBB31_5:                               # %ctrl0
	.cfi_def_cfa %rbp, 16
	cmpl	$1, %eax
	je	.LBB31_2
# %bb.6:                                # %ctrl1
	cmpl	$2, %eax
	je	.LBB31_3
	jmp	.LBB31_4
.Lfunc_end31:
	.size	myfeof, .Lfunc_end31-myfeof
	.cfi_endproc
                                        # -- End function
	.p2align	4, 0x90         # -- Begin function uInt64_from_UInt32s
	.type	uInt64_from_UInt32s,@function
uInt64_from_UInt32s:                    # @uInt64_from_UInt32s
	.cfi_startproc
# %bb.0:                                # %rand_bb
	pushq	%rbp
	.cfi_def_cfa_offset 16
	.cfi_offset %rbp, -16
	movq	%rsp, %rbp
	.cfi_def_cfa_register %rbp
	pushq	%r15
	pushq	%r14
	pushq	%rbx
	pushq	%rax
	.cfi_offset %rbx, -40
	.cfi_offset %r14, -32
	.cfi_offset %r15, -24
	movl	%edx, %r14d
	movl	%esi, %r15d
	movq	%rdi, %rbx
	callq	get_rand
	cmpl	$0, %eax
	jne	.LBB32_5
# %bb.1:                                # %func_uInt64_from_UInt32s.4
	movq	%rbx, %rdi
	movl	%r15d, %esi
	movl	%r14d, %edx
	callq	uInt64_from_UInt32s.4
	addq	$8, %rsp
	popq	%rbx
	popq	%r14
	popq	%r15
	popq	%rbp
	.cfi_def_cfa %rsp, 8
	retq
.LBB32_2:                               # %func_uInt64_from_UInt32s.26
	.cfi_def_cfa %rbp, 16
	movq	%rbx, %rdi
	movl	%r15d, %esi
	movl	%r14d, %edx
	callq	uInt64_from_UInt32s.26
	addq	$8, %rsp
	popq	%rbx
	popq	%r14
	popq	%r15
	popq	%rbp
	.cfi_def_cfa %rsp, 8
	retq
.LBB32_3:                               # %func_uInt64_from_UInt32s.80
	.cfi_def_cfa %rbp, 16
	movq	%rbx, %rdi
	movl	%r15d, %esi
	movl	%r14d, %edx
	callq	uInt64_from_UInt32s.80
	addq	$8, %rsp
	popq	%rbx
	popq	%r14
	popq	%r15
	popq	%rbp
	.cfi_def_cfa %rsp, 8
	retq
.LBB32_4:                               # %func_uInt64_from_UInt32s.83
	.cfi_def_cfa %rbp, 16
	movq	%rbx, %rdi
	movl	%r15d, %esi
	movl	%r14d, %edx
	callq	uInt64_from_UInt32s.83
	addq	$8, %rsp
	popq	%rbx
	popq	%r14
	popq	%r15
	popq	%rbp
	.cfi_def_cfa %rsp, 8
	retq
.LBB32_5:                               # %ctrl0
	.cfi_def_cfa %rbp, 16
	cmpl	$1, %eax
	je	.LBB32_2
# %bb.6:                                # %ctrl1
	cmpl	$2, %eax
	je	.LBB32_3
	jmp	.LBB32_4
.Lfunc_end32:
	.size	uInt64_from_UInt32s, .Lfunc_end32-uInt64_from_UInt32s
	.cfi_endproc
                                        # -- End function
	.p2align	4, 0x90         # -- Begin function uInt64_to_double
	.type	uInt64_to_double,@function
uInt64_to_double:                       # @uInt64_to_double
	.cfi_startproc
# %bb.0:                                # %rand_bb
	pushq	%rbp
	.cfi_def_cfa_offset 16
	.cfi_offset %rbp, -16
	movq	%rsp, %rbp
	.cfi_def_cfa_register %rbp
	pushq	%rbx
	pushq	%rax
	.cfi_offset %rbx, -24
	movq	%rdi, %rbx
	callq	get_rand
	cmpl	$0, %eax
	jne	.LBB33_5
# %bb.1:                                # %func_uInt64_to_double.11
	movq	%rbx, %rdi
	callq	uInt64_to_double.11
	addq	$8, %rsp
	popq	%rbx
	popq	%rbp
	.cfi_def_cfa %rsp, 8
	retq
.LBB33_2:                               # %func_uInt64_to_double.34
	.cfi_def_cfa %rbp, 16
	movq	%rbx, %rdi
	callq	uInt64_to_double.34
	addq	$8, %rsp
	popq	%rbx
	popq	%rbp
	.cfi_def_cfa %rsp, 8
	retq
.LBB33_3:                               # %func_uInt64_to_double.46
	.cfi_def_cfa %rbp, 16
	movq	%rbx, %rdi
	callq	uInt64_to_double.46
	addq	$8, %rsp
	popq	%rbx
	popq	%rbp
	.cfi_def_cfa %rsp, 8
	retq
.LBB33_4:                               # %func_uInt64_to_double.61
	.cfi_def_cfa %rbp, 16
	movq	%rbx, %rdi
	callq	uInt64_to_double.61
	addq	$8, %rsp
	popq	%rbx
	popq	%rbp
	.cfi_def_cfa %rsp, 8
	retq
.LBB33_5:                               # %ctrl0
	.cfi_def_cfa %rbp, 16
	cmpl	$1, %eax
	je	.LBB33_2
# %bb.6:                                # %ctrl1
	cmpl	$2, %eax
	je	.LBB33_3
	jmp	.LBB33_4
.Lfunc_end33:
	.size	uInt64_to_double, .Lfunc_end33-uInt64_to_double
	.cfi_endproc
                                        # -- End function
	.p2align	4, 0x90         # -- Begin function uInt64_toAscii
	.type	uInt64_toAscii,@function
uInt64_toAscii:                         # @uInt64_toAscii
	.cfi_startproc
# %bb.0:                                # %rand_bb
	pushq	%rbp
	.cfi_def_cfa_offset 16
	.cfi_offset %rbp, -16
	movq	%rsp, %rbp
	.cfi_def_cfa_register %rbp
	pushq	%r14
	pushq	%rbx
	.cfi_offset %rbx, -32
	.cfi_offset %r14, -24
	movq	%rsi, %r14
	movq	%rdi, %rbx
	callq	get_rand
	cmpl	$0, %eax
	jne	.LBB34_5
# %bb.1:                                # %func_uInt64_toAscii.50
	movq	%rbx, %rdi
	movq	%r14, %rsi
	callq	uInt64_toAscii.50
	popq	%rbx
	popq	%r14
	popq	%rbp
	.cfi_def_cfa %rsp, 8
	retq
.LBB34_2:                               # %func_uInt64_toAscii.76
	.cfi_def_cfa %rbp, 16
	movq	%rbx, %rdi
	movq	%r14, %rsi
	callq	uInt64_toAscii.76
	popq	%rbx
	popq	%r14
	popq	%rbp
	.cfi_def_cfa %rsp, 8
	retq
.LBB34_3:                               # %func_uInt64_toAscii.79
	.cfi_def_cfa %rbp, 16
	movq	%rbx, %rdi
	movq	%r14, %rsi
	callq	uInt64_toAscii.79
	popq	%rbx
	popq	%r14
	popq	%rbp
	.cfi_def_cfa %rsp, 8
	retq
.LBB34_4:                               # %func_uInt64_toAscii.88
	.cfi_def_cfa %rbp, 16
	movq	%rbx, %rdi
	movq	%r14, %rsi
	callq	uInt64_toAscii.88
	popq	%rbx
	popq	%r14
	popq	%rbp
	.cfi_def_cfa %rsp, 8
	retq
.LBB34_5:                               # %ctrl0
	.cfi_def_cfa %rbp, 16
	cmpl	$1, %eax
	je	.LBB34_2
# %bb.6:                                # %ctrl1
	cmpl	$2, %eax
	je	.LBB34_3
	jmp	.LBB34_4
.Lfunc_end34:
	.size	uInt64_toAscii, .Lfunc_end34-uInt64_toAscii
	.cfi_endproc
                                        # -- End function
	.p2align	4, 0x90         # -- Begin function configError
	.type	configError,@function
configError:                            # @configError
	.cfi_startproc
# %bb.0:                                # %entry
	pushq	%rbp
	.cfi_def_cfa_offset 16
	.cfi_offset %rbp, -16
	movq	%rsp, %rbp
	.cfi_def_cfa_register %rbp
	movq	stderr, %rdi
	movabsq	$.L.str.77, %rsi
	movb	$0, %al
	callq	fprintf
	movl	$3, %edi
	callq	setExit
	movl	exitValue, %edi
	callq	exit
.Lfunc_end35:
	.size	configError, .Lfunc_end35-configError
	.cfi_endproc
                                        # -- End function
	.p2align	4, 0x90         # -- Begin function uInt64_qrm10
	.type	uInt64_qrm10,@function
uInt64_qrm10:                           # @uInt64_qrm10
	.cfi_startproc
# %bb.0:                                # %rand_bb
	pushq	%rbp
	.cfi_def_cfa_offset 16
	.cfi_offset %rbp, -16
	movq	%rsp, %rbp
	.cfi_def_cfa_register %rbp
	pushq	%rbx
	pushq	%rax
	.cfi_offset %rbx, -24
	movq	%rdi, %rbx
	callq	get_rand
	cmpl	$0, %eax
	jne	.LBB36_5
# %bb.1:                                # %func_uInt64_qrm10.41
	movq	%rbx, %rdi
	callq	uInt64_qrm10.41
	addq	$8, %rsp
	popq	%rbx
	popq	%rbp
	.cfi_def_cfa %rsp, 8
	retq
.LBB36_2:                               # %func_uInt64_qrm10.43
	.cfi_def_cfa %rbp, 16
	movq	%rbx, %rdi
	callq	uInt64_qrm10.43
	addq	$8, %rsp
	popq	%rbx
	popq	%rbp
	.cfi_def_cfa %rsp, 8
	retq
.LBB36_3:                               # %func_uInt64_qrm10.90
	.cfi_def_cfa %rbp, 16
	movq	%rbx, %rdi
	callq	uInt64_qrm10.90
	addq	$8, %rsp
	popq	%rbx
	popq	%rbp
	.cfi_def_cfa %rsp, 8
	retq
.LBB36_4:                               # %func_uInt64_qrm10.94
	.cfi_def_cfa %rbp, 16
	movq	%rbx, %rdi
	callq	uInt64_qrm10.94
	addq	$8, %rsp
	popq	%rbx
	popq	%rbp
	.cfi_def_cfa %rsp, 8
	retq
.LBB36_5:                               # %ctrl0
	.cfi_def_cfa %rbp, 16
	cmpl	$1, %eax
	je	.LBB36_2
# %bb.6:                                # %ctrl1
	cmpl	$2, %eax
	je	.LBB36_3
	jmp	.LBB36_4
.Lfunc_end36:
	.size	uInt64_qrm10, .Lfunc_end36-uInt64_qrm10
	.cfi_endproc
                                        # -- End function
	.p2align	4, 0x90         # -- Begin function uInt64_isZero
	.type	uInt64_isZero,@function
uInt64_isZero:                          # @uInt64_isZero
	.cfi_startproc
# %bb.0:                                # %rand_bb
	pushq	%rbp
	.cfi_def_cfa_offset 16
	.cfi_offset %rbp, -16
	movq	%rsp, %rbp
	.cfi_def_cfa_register %rbp
	pushq	%rbx
	pushq	%rax
	.cfi_offset %rbx, -24
	movq	%rdi, %rbx
	callq	get_rand
	cmpl	$0, %eax
	jne	.LBB37_5
# %bb.1:                                # %func_uInt64_isZero.6
	movq	%rbx, %rdi
	callq	uInt64_isZero.6
	movzbl	%al, %eax
	addq	$8, %rsp
	popq	%rbx
	popq	%rbp
	.cfi_def_cfa %rsp, 8
	retq
.LBB37_2:                               # %func_uInt64_isZero.57
	.cfi_def_cfa %rbp, 16
	movq	%rbx, %rdi
	callq	uInt64_isZero.57
	movzbl	%al, %eax
	addq	$8, %rsp
	popq	%rbx
	popq	%rbp
	.cfi_def_cfa %rsp, 8
	retq
.LBB37_3:                               # %func_uInt64_isZero.58
	.cfi_def_cfa %rbp, 16
	movq	%rbx, %rdi
	callq	uInt64_isZero.58
	movzbl	%al, %eax
	addq	$8, %rsp
	popq	%rbx
	popq	%rbp
	.cfi_def_cfa %rsp, 8
	retq
.LBB37_4:                               # %func_uInt64_isZero.72
	.cfi_def_cfa %rbp, 16
	movq	%rbx, %rdi
	callq	uInt64_isZero.72
	movzbl	%al, %eax
	addq	$8, %rsp
	popq	%rbx
	popq	%rbp
	.cfi_def_cfa %rsp, 8
	retq
.LBB37_5:                               # %ctrl0
	.cfi_def_cfa %rbp, 16
	cmpl	$1, %eax
	je	.LBB37_2
# %bb.6:                                # %ctrl1
	cmpl	$2, %eax
	je	.LBB37_3
	jmp	.LBB37_4
.Lfunc_end37:
	.size	uInt64_isZero, .Lfunc_end37-uInt64_isZero
	.cfi_endproc
                                        # -- End function
	.p2align	4, 0x90         # -- Begin function mapSuffix
	.type	mapSuffix,@function
mapSuffix:                              # @mapSuffix
	.cfi_startproc
# %bb.0:                                # %rand_bb
	pushq	%rbp
	.cfi_def_cfa_offset 16
	.cfi_offset %rbp, -16
	movq	%rsp, %rbp
	.cfi_def_cfa_register %rbp
	pushq	%r15
	pushq	%r14
	pushq	%rbx
	pushq	%rax
	.cfi_offset %rbx, -40
	.cfi_offset %r14, -32
	.cfi_offset %r15, -24
	movq	%rdx, %r14
	movq	%rsi, %r15
	movq	%rdi, %rbx
	callq	get_rand
	cmpl	$0, %eax
	jne	.LBB38_5
# %bb.1:                                # %func_mapSuffix.16
	movq	%rbx, %rdi
	movq	%r15, %rsi
	movq	%r14, %rdx
	callq	mapSuffix.16
	movzbl	%al, %eax
	addq	$8, %rsp
	popq	%rbx
	popq	%r14
	popq	%r15
	popq	%rbp
	.cfi_def_cfa %rsp, 8
	retq
.LBB38_2:                               # %func_mapSuffix.22
	.cfi_def_cfa %rbp, 16
	movq	%rbx, %rdi
	movq	%r15, %rsi
	movq	%r14, %rdx
	callq	mapSuffix.22
	movzbl	%al, %eax
	addq	$8, %rsp
	popq	%rbx
	popq	%r14
	popq	%r15
	popq	%rbp
	.cfi_def_cfa %rsp, 8
	retq
.LBB38_3:                               # %func_mapSuffix.24
	.cfi_def_cfa %rbp, 16
	movq	%rbx, %rdi
	movq	%r15, %rsi
	movq	%r14, %rdx
	callq	mapSuffix.24
	movzbl	%al, %eax
	addq	$8, %rsp
	popq	%rbx
	popq	%r14
	popq	%r15
	popq	%rbp
	.cfi_def_cfa %rsp, 8
	retq
.LBB38_4:                               # %func_mapSuffix.36
	.cfi_def_cfa %rbp, 16
	movq	%rbx, %rdi
	movq	%r15, %rsi
	movq	%r14, %rdx
	callq	mapSuffix.36
	movzbl	%al, %eax
	addq	$8, %rsp
	popq	%rbx
	popq	%r14
	popq	%r15
	popq	%rbp
	.cfi_def_cfa %rsp, 8
	retq
.LBB38_5:                               # %ctrl0
	.cfi_def_cfa %rbp, 16
	cmpl	$1, %eax
	je	.LBB38_2
# %bb.6:                                # %ctrl1
	cmpl	$2, %eax
	je	.LBB38_3
	jmp	.LBB38_4
.Lfunc_end38:
	.size	mapSuffix, .Lfunc_end38-mapSuffix
	.cfi_endproc
                                        # -- End function
	.p2align	4, 0x90         # -- Begin function uncompressStream
	.type	uncompressStream,@function
uncompressStream:                       # @uncompressStream
	.cfi_startproc
# %bb.0:                                # %rand_bb
	pushq	%rbp
	.cfi_def_cfa_offset 16
	.cfi_offset %rbp, -16
	movq	%rsp, %rbp
	.cfi_def_cfa_register %rbp
	pushq	%r14
	pushq	%rbx
	.cfi_offset %rbx, -32
	.cfi_offset %r14, -24
	movq	%rsi, %r14
	movq	%rdi, %rbx
	callq	get_rand
	cmpl	$0, %eax
	jne	.LBB39_5
# %bb.1:                                # %func_uncompressStream.1
	movq	%rbx, %rdi
	movq	%r14, %rsi
	callq	uncompressStream.1
	movzbl	%al, %eax
	popq	%rbx
	popq	%r14
	popq	%rbp
	.cfi_def_cfa %rsp, 8
	retq
.LBB39_2:                               # %func_uncompressStream.29
	.cfi_def_cfa %rbp, 16
	movq	%rbx, %rdi
	movq	%r14, %rsi
	callq	uncompressStream.29
	movzbl	%al, %eax
	popq	%rbx
	popq	%r14
	popq	%rbp
	.cfi_def_cfa %rsp, 8
	retq
.LBB39_3:                               # %func_uncompressStream.33
	.cfi_def_cfa %rbp, 16
	movq	%rbx, %rdi
	movq	%r14, %rsi
	callq	uncompressStream.33
	movzbl	%al, %eax
	popq	%rbx
	popq	%r14
	popq	%rbp
	.cfi_def_cfa %rsp, 8
	retq
.LBB39_4:                               # %func_uncompressStream.42
	.cfi_def_cfa %rbp, 16
	movq	%rbx, %rdi
	movq	%r14, %rsi
	callq	uncompressStream.42
	movzbl	%al, %eax
	popq	%rbx
	popq	%r14
	popq	%rbp
	.cfi_def_cfa %rsp, 8
	retq
.LBB39_5:                               # %ctrl0
	.cfi_def_cfa %rbp, 16
	cmpl	$1, %eax
	je	.LBB39_2
# %bb.6:                                # %ctrl1
	cmpl	$2, %eax
	je	.LBB39_3
	jmp	.LBB39_4
.Lfunc_end39:
	.size	uncompressStream, .Lfunc_end39-uncompressStream
	.cfi_endproc
                                        # -- End function
	.p2align	4, 0x90         # -- Begin function crcError
	.type	crcError,@function
crcError:                               # @crcError
	.cfi_startproc
# %bb.0:                                # %entry
	pushq	%rbp
	.cfi_def_cfa_offset 16
	.cfi_offset %rbp, -16
	movq	%rsp, %rbp
	.cfi_def_cfa_register %rbp
	movq	stderr, %rdi
	movq	progName, %rdx
	movabsq	$.L.str.92, %rsi
	movb	$0, %al
	callq	fprintf
	callq	showFileNames
	callq	cadvise
	movl	$2, %edi
	callq	cleanUpAndFail
.Lfunc_end40:
	.size	crcError, .Lfunc_end40-crcError
	.cfi_endproc
                                        # -- End function
	.p2align	4, 0x90         # -- Begin function compressedStreamEOF
	.type	compressedStreamEOF,@function
compressedStreamEOF:                    # @compressedStreamEOF
	.cfi_startproc
# %bb.0:                                # %entry
	pushq	%rbp
	.cfi_def_cfa_offset 16
	.cfi_offset %rbp, -16
	movq	%rsp, %rbp
	.cfi_def_cfa_register %rbp
	cmpb	$0, noisy
	je	.LBB41_2
# %bb.1:                                # %if.then
	movq	stderr, %rdi
	movq	progName, %rdx
	movabsq	$.L.str.93, %rsi
	movb	$0, %al
	callq	fprintf
	movq	progName, %rdi
	callq	perror
	callq	showFileNames
	callq	cadvise
.LBB41_2:                               # %if.end
	movl	$2, %edi
	callq	cleanUpAndFail
.Lfunc_end41:
	.size	compressedStreamEOF, .Lfunc_end41-compressedStreamEOF
	.cfi_endproc
                                        # -- End function
	.p2align	4, 0x90         # -- Begin function testStream
	.type	testStream,@function
testStream:                             # @testStream
	.cfi_startproc
# %bb.0:                                # %rand_bb
	pushq	%rbp
	.cfi_def_cfa_offset 16
	.cfi_offset %rbp, -16
	movq	%rsp, %rbp
	.cfi_def_cfa_register %rbp
	pushq	%rbx
	pushq	%rax
	.cfi_offset %rbx, -24
	movq	%rdi, %rbx
	callq	get_rand
	cmpl	$0, %eax
	jne	.LBB42_5
# %bb.1:                                # %func_testStream.2
	movq	%rbx, %rdi
	callq	testStream.2
	movzbl	%al, %eax
	addq	$8, %rsp
	popq	%rbx
	popq	%rbp
	.cfi_def_cfa %rsp, 8
	retq
.LBB42_2:                               # %func_testStream.27
	.cfi_def_cfa %rbp, 16
	movq	%rbx, %rdi
	callq	testStream.27
	movzbl	%al, %eax
	addq	$8, %rsp
	popq	%rbx
	popq	%rbp
	.cfi_def_cfa %rsp, 8
	retq
.LBB42_3:                               # %func_testStream.32
	.cfi_def_cfa %rbp, 16
	movq	%rbx, %rdi
	callq	testStream.32
	movzbl	%al, %eax
	addq	$8, %rsp
	popq	%rbx
	popq	%rbp
	.cfi_def_cfa %rsp, 8
	retq
.LBB42_4:                               # %func_testStream.70
	.cfi_def_cfa %rbp, 16
	movq	%rbx, %rdi
	callq	testStream.70
	movzbl	%al, %eax
	addq	$8, %rsp
	popq	%rbx
	popq	%rbp
	.cfi_def_cfa %rsp, 8
	retq
.LBB42_5:                               # %ctrl0
	.cfi_def_cfa %rbp, 16
	cmpl	$1, %eax
	je	.LBB42_2
# %bb.6:                                # %ctrl1
	cmpl	$2, %eax
	je	.LBB42_3
	jmp	.LBB42_4
.Lfunc_end42:
	.size	testStream, .Lfunc_end42-testStream
	.cfi_endproc
                                        # -- End function
	.p2align	4, 0x90         # -- Begin function uncompressStream.1
	.type	uncompressStream.1,@function
uncompressStream.1:                     # @uncompressStream.1
	.cfi_startproc
# %bb.0:                                # %entry
	pushq	%rbp
	.cfi_def_cfa_offset 16
	.cfi_offset %rbp, -16
	movq	%rsp, %rbp
	.cfi_def_cfa_register %rbp
	pushq	%rbx
	subq	$10104, %rsp            # imm = 0x2778
	.cfi_offset %rbx, -24
	movl	$226922235, -68(%rbp)   # imm = 0xD868EFB
	movq	%rdi, -32(%rbp)
	movq	%rsi, -24(%rbp)
	movq	$0, -64(%rbp)
	movl	$0, -48(%rbp)
	movl	$0, -52(%rbp)
	movq	-24(%rbp), %rdi
	callq	ferror
	cmpl	$0, %eax
	je	.LBB43_2
# %bb.1:                                # %if.then
	jmp	.LBB43_66
.LBB43_2:                               # %if.end
	movq	-32(%rbp), %rdi
	callq	ferror
	cmpl	$0, %eax
	je	.LBB43_4
# %bb.3:                                # %if.then3
	jmp	.LBB43_66
.LBB43_4:                               # %if.end4
	jmp	.LBB43_5
.LBB43_5:                               # %while.body
                                        # =>This Loop Header: Depth=1
                                        #     Child Loop BB43_9 Depth 2
                                        #     Child Loop BB43_24 Depth 2
	leaq	-10112(%rbp), %r8
	movq	-32(%rbp), %rsi
	movl	verbosity, %edx
	movzbl	smallMode, %ecx
	movl	-48(%rbp), %r9d
	leaq	-16(%rbp), %rdi
	callq	BZ2_bzReadOpen
	movq	%rax, -64(%rbp)
	cmpq	$0, -64(%rbp)
	je	.LBB43_7
# %bb.6:                                # %lor.lhs.false
                                        #   in Loop: Header=BB43_5 Depth=1
	cmpl	$0, -16(%rbp)
	je	.LBB43_8
.LBB43_7:                               # %if.then9
	jmp	.LBB43_62
.LBB43_8:                               # %if.end10
                                        #   in Loop: Header=BB43_5 Depth=1
	movl	-52(%rbp), %eax
	addl	$1, %eax
	movl	%eax, -52(%rbp)
.LBB43_9:                               # %while.cond11
                                        #   Parent Loop BB43_5 Depth=1
                                        # =>  This Inner Loop Header: Depth=2
	cmpl	$0, -16(%rbp)
	jne	.LBB43_19
# %bb.10:                               # %while.body14
                                        #   in Loop: Header=BB43_9 Depth=2
	leaq	-5104(%rbp), %rdx
	movq	-64(%rbp), %rsi
	leaq	-16(%rbp), %rdi
	movl	$5000, %ecx             # imm = 0x1388
	callq	BZ2_bzRead
	movl	%eax, -44(%rbp)
	cmpl	$-5, -16(%rbp)
	jne	.LBB43_12
# %bb.11:                               # %if.then19
	jmp	.LBB43_49
.LBB43_12:                              # %if.end20
                                        #   in Loop: Header=BB43_9 Depth=2
	cmpl	$0, -16(%rbp)
	je	.LBB43_14
# %bb.13:                               # %lor.lhs.false23
                                        #   in Loop: Header=BB43_9 Depth=2
	cmpl	$4, -16(%rbp)
	jne	.LBB43_16
.LBB43_14:                              # %land.lhs.true
                                        #   in Loop: Header=BB43_9 Depth=2
	cmpl	$0, -44(%rbp)
	jle	.LBB43_16
# %bb.15:                               # %if.then28
                                        #   in Loop: Header=BB43_9 Depth=2
	leaq	-5104(%rbp), %rdi
	movslq	-44(%rbp), %rdx
	movq	-24(%rbp), %rcx
	movl	$1, %esi
	callq	fwrite
.LBB43_16:                              # %if.end32
                                        #   in Loop: Header=BB43_9 Depth=2
	movq	-24(%rbp), %rdi
	callq	ferror
	cmpl	$0, %eax
	je	.LBB43_18
# %bb.17:                               # %if.then35
	jmp	.LBB43_66
.LBB43_18:                              # %if.end36
                                        #   in Loop: Header=BB43_9 Depth=2
	jmp	.LBB43_9
.LBB43_19:                              # %while.end
                                        #   in Loop: Header=BB43_5 Depth=1
	cmpl	$4, -16(%rbp)
	je	.LBB43_21
# %bb.20:                               # %if.then39
	jmp	.LBB43_62
.LBB43_21:                              # %if.end40
                                        #   in Loop: Header=BB43_5 Depth=1
	movq	-64(%rbp), %rsi
	leaq	-16(%rbp), %rdi
	leaq	-88(%rbp), %rdx
	leaq	-48(%rbp), %rcx
	callq	BZ2_bzReadGetUnused
	cmpl	$0, -16(%rbp)
	je	.LBB43_23
# %bb.22:                               # %if.then43
	movabsq	$.L.str.88, %rdi
	callq	panic
.LBB43_23:                              # %if.end44
                                        #   in Loop: Header=BB43_5 Depth=1
	movq	-88(%rbp), %rax
	movq	%rax, -80(%rbp)
	movl	$0, -40(%rbp)
.LBB43_24:                              # %for.cond
                                        #   Parent Loop BB43_5 Depth=1
                                        # =>  This Inner Loop Header: Depth=2
	movl	-40(%rbp), %eax
	cmpl	-48(%rbp), %eax
	jge	.LBB43_27
# %bb.25:                               # %for.body
                                        #   in Loop: Header=BB43_24 Depth=2
	movq	-80(%rbp), %rax
	movslq	-40(%rbp), %rcx
	movb	(%rax,%rcx), %al
	movslq	-40(%rbp), %rcx
	movb	%al, -10112(%rbp,%rcx)
# %bb.26:                               # %for.inc
                                        #   in Loop: Header=BB43_24 Depth=2
	movl	-40(%rbp), %eax
	addl	$1, %eax
	movl	%eax, -40(%rbp)
	jmp	.LBB43_24
.LBB43_27:                              # %for.end
                                        #   in Loop: Header=BB43_5 Depth=1
	movq	-64(%rbp), %rsi
	leaq	-16(%rbp), %rdi
	callq	BZ2_bzReadClose
	cmpl	$0, -16(%rbp)
	je	.LBB43_29
# %bb.28:                               # %if.then52
	movabsq	$.L.str.88, %rdi
	callq	panic
.LBB43_29:                              # %if.end53
                                        #   in Loop: Header=BB43_5 Depth=1
	cmpl	$0, -48(%rbp)
	jne	.LBB43_32
# %bb.30:                               # %land.lhs.true56
                                        #   in Loop: Header=BB43_5 Depth=1
	movq	-32(%rbp), %rdi
	callq	myfeof
	movzbl	%al, %eax
	cmpl	$0, %eax
	je	.LBB43_32
# %bb.31:                               # %if.then60
	jmp	.LBB43_33
.LBB43_32:                              # %if.end61
                                        #   in Loop: Header=BB43_5 Depth=1
	jmp	.LBB43_5
.LBB43_33:                              # %while.end62
	jmp	.LBB43_34
.LBB43_34:                              # %closeok
	movq	-32(%rbp), %rdi
	callq	ferror
	cmpl	$0, %eax
	je	.LBB43_36
# %bb.35:                               # %if.then65
	jmp	.LBB43_66
.LBB43_36:                              # %if.end66
	movq	-32(%rbp), %rdi
	callq	fclose
	movl	%eax, -36(%rbp)
	cmpl	$-1, -36(%rbp)
	jne	.LBB43_38
# %bb.37:                               # %if.then70
	jmp	.LBB43_66
.LBB43_38:                              # %if.end71
	movq	-24(%rbp), %rdi
	callq	ferror
	cmpl	$0, %eax
	je	.LBB43_40
# %bb.39:                               # %if.then74
	jmp	.LBB43_66
.LBB43_40:                              # %if.end75
	movq	-24(%rbp), %rdi
	callq	fflush
	movl	%eax, -36(%rbp)
	cmpl	$0, -36(%rbp)
	je	.LBB43_42
# %bb.41:                               # %if.then79
	jmp	.LBB43_66
.LBB43_42:                              # %if.end80
	movq	-24(%rbp), %rax
	cmpq	stdout, %rax
	je	.LBB43_46
# %bb.43:                               # %if.then83
	movq	-24(%rbp), %rdi
	callq	fclose
	movl	%eax, -36(%rbp)
	movq	$0, outputHandleJustInCase
	cmpl	$-1, -36(%rbp)
	jne	.LBB43_45
# %bb.44:                               # %if.then87
	jmp	.LBB43_66
.LBB43_45:                              # %if.end88
	jmp	.LBB43_46
.LBB43_46:                              # %if.end89
	movq	$0, outputHandleJustInCase
	cmpl	$2, verbosity
	jl	.LBB43_48
# %bb.47:                               # %if.then92
	movq	stderr, %rdi
	movabsq	$.L.str.89, %rsi
	movb	$0, %al
	callq	fprintf
.LBB43_48:                              # %if.end94
	movb	$1, -9(%rbp)
	jmp	.LBB43_80
.LBB43_49:                              # %trycat
	cmpb	$0, forceOverwrite
	je	.LBB43_61
# %bb.50:                               # %if.then96
	movq	-32(%rbp), %rdi
	callq	rewind
.LBB43_51:                              # %while.body97
                                        # =>This Inner Loop Header: Depth=1
	movq	-32(%rbp), %rdi
	callq	myfeof
	cmpb	$0, %al
	je	.LBB43_53
# %bb.52:                               # %if.then100
	jmp	.LBB43_60
.LBB43_53:                              # %if.end101
                                        #   in Loop: Header=BB43_51 Depth=1
	leaq	-5104(%rbp), %rdi
	movq	-32(%rbp), %rcx
	movl	$1, %esi
	movl	$5000, %edx             # imm = 0x1388
	callq	fread
	movl	%eax, -44(%rbp)
	movq	-32(%rbp), %rdi
	callq	ferror
	cmpl	$0, %eax
	je	.LBB43_55
# %bb.54:                               # %if.then107
	jmp	.LBB43_66
.LBB43_55:                              # %if.end108
                                        #   in Loop: Header=BB43_51 Depth=1
	cmpl	$0, -44(%rbp)
	jle	.LBB43_57
# %bb.56:                               # %if.then111
                                        #   in Loop: Header=BB43_51 Depth=1
	leaq	-5104(%rbp), %rdi
	movslq	-44(%rbp), %rdx
	movq	-24(%rbp), %rcx
	movl	$1, %esi
	callq	fwrite
.LBB43_57:                              # %if.end115
                                        #   in Loop: Header=BB43_51 Depth=1
	movq	-24(%rbp), %rdi
	callq	ferror
	cmpl	$0, %eax
	je	.LBB43_59
# %bb.58:                               # %if.then118
	jmp	.LBB43_66
.LBB43_59:                              # %if.end119
                                        #   in Loop: Header=BB43_51 Depth=1
	jmp	.LBB43_51
.LBB43_60:                              # %while.end120
	jmp	.LBB43_34
.LBB43_61:                              # %if.end121
	jmp	.LBB43_62
.LBB43_62:                              # %errhandler
	movq	-64(%rbp), %rsi
	leaq	-92(%rbp), %rdi
	callq	BZ2_bzReadClose
	movl	-16(%rbp), %eax
	addl	$9, %eax
	movl	%eax, %ecx
	subl	$6, %ecx
	ja	.LBB43_79
# %bb.63:                               # %errhandler
	movq	.LJTI43_0(,%rax,8), %rax
	jmpq	*%rax
.LBB43_64:                              # %sw.bb
	callq	configError
.LBB43_65:                              # %sw.bb122
	jmp	.LBB43_66
.LBB43_66:                              # %errhandler_io
	callq	ioError
.LBB43_67:                              # %sw.bb123
	callq	crcError
.LBB43_68:                              # %sw.bb124
	callq	outOfMemory
.LBB43_69:                              # %sw.bb125
	callq	compressedStreamEOF
.LBB43_70:                              # %sw.bb126
	movq	-32(%rbp), %rax
	cmpq	stdin, %rax
	je	.LBB43_72
# %bb.71:                               # %if.then129
	movq	-32(%rbp), %rdi
	callq	fclose
.LBB43_72:                              # %if.end131
	movq	-24(%rbp), %rax
	cmpq	stdout, %rax
	je	.LBB43_74
# %bb.73:                               # %if.then134
	movq	-24(%rbp), %rdi
	callq	fclose
.LBB43_74:                              # %if.end136
	cmpl	$1, -52(%rbp)
	jne	.LBB43_76
# %bb.75:                               # %if.then139
	movb	$0, -9(%rbp)
	jmp	.LBB43_80
.LBB43_76:                              # %if.else
	cmpb	$0, noisy
	je	.LBB43_78
# %bb.77:                               # %if.then141
	movq	stderr, %rdi
	movq	progName, %rdx
	movabsq	$.L.str.90, %rsi
	movabsq	$inName, %rcx
	movb	$0, %al
	callq	fprintf
.LBB43_78:                              # %if.end143
	movb	$1, -9(%rbp)
	jmp	.LBB43_80
.LBB43_79:                              # %sw.default
	movabsq	$.L.str.91, %rdi
	callq	panic
.LBB43_80:                              # %return
	movb	-9(%rbp), %bl
	cmpl	$226922235, -68(%rbp)   # imm = 0xD868EFB
	jne	.LBB43_82
.LBB43_81:
	movzbl	%bl, %eax
	addq	$10104, %rsp            # imm = 0x2778
	popq	%rbx
	popq	%rbp
	.cfi_def_cfa %rsp, 8
	retq
.LBB43_82:                              # %func_exit
	.cfi_def_cfa %rbp, 16
	callq	detect_breach
	jmp	.LBB43_81
.Lfunc_end43:
	.size	uncompressStream.1, .Lfunc_end43-uncompressStream.1
	.cfi_endproc
	.section	.rodata,"a",@progbits
	.p2align	3
.LJTI43_0:
	.quad	.LBB43_64
	.quad	.LBB43_79
	.quad	.LBB43_69
	.quad	.LBB43_65
	.quad	.LBB43_70
	.quad	.LBB43_67
	.quad	.LBB43_68
                                        # -- End function
	.text
	.p2align	4, 0x90         # -- Begin function testStream.2
	.type	testStream.2,@function
testStream.2:                           # @testStream.2
	.cfi_startproc
# %bb.0:                                # %entry
	pushq	%rbp
	.cfi_def_cfa_offset 16
	.cfi_offset %rbp, -16
	movq	%rsp, %rbp
	.cfi_def_cfa_register %rbp
	pushq	%rbx
	subq	$10088, %rsp            # imm = 0x2768
	.cfi_offset %rbx, -24
	movl	$985806476, -52(%rbp)   # imm = 0x3AC2368C
	movq	%rdi, -32(%rbp)
	movq	$0, -48(%rbp)
	movl	$0, -24(%rbp)
	movl	$0, -36(%rbp)
	movq	-32(%rbp), %rdi
	callq	ferror
	cmpl	$0, %eax
	je	.LBB44_2
# %bb.1:                                # %if.then
	jmp	.LBB44_38
.LBB44_2:                               # %if.end
	jmp	.LBB44_3
.LBB44_3:                               # %while.body
                                        # =>This Loop Header: Depth=1
                                        #     Child Loop BB44_7 Depth 2
                                        #     Child Loop BB44_16 Depth 2
	leaq	-5088(%rbp), %r8
	movq	-32(%rbp), %rsi
	movl	verbosity, %edx
	movzbl	smallMode, %ecx
	movl	-24(%rbp), %r9d
	leaq	-16(%rbp), %rdi
	callq	BZ2_bzReadOpen
	movq	%rax, -48(%rbp)
	cmpq	$0, -48(%rbp)
	je	.LBB44_5
# %bb.4:                                # %lor.lhs.false
                                        #   in Loop: Header=BB44_3 Depth=1
	cmpl	$0, -16(%rbp)
	je	.LBB44_6
.LBB44_5:                               # %if.then5
	jmp	.LBB44_32
.LBB44_6:                               # %if.end6
                                        #   in Loop: Header=BB44_3 Depth=1
	movl	-36(%rbp), %eax
	addl	$1, %eax
	movl	%eax, -36(%rbp)
.LBB44_7:                               # %while.cond7
                                        #   Parent Loop BB44_3 Depth=1
                                        # =>  This Inner Loop Header: Depth=2
	cmpl	$0, -16(%rbp)
	jne	.LBB44_11
# %bb.8:                                # %while.body10
                                        #   in Loop: Header=BB44_7 Depth=2
	leaq	-10096(%rbp), %rdx
	movq	-48(%rbp), %rsi
	leaq	-16(%rbp), %rdi
	movl	$5000, %ecx             # imm = 0x1388
	callq	BZ2_bzRead
	movl	%eax, -76(%rbp)
	cmpl	$-5, -16(%rbp)
	jne	.LBB44_10
# %bb.9:                                # %if.then15
	jmp	.LBB44_32
.LBB44_10:                              # %if.end16
                                        #   in Loop: Header=BB44_7 Depth=2
	jmp	.LBB44_7
.LBB44_11:                              # %while.end
                                        #   in Loop: Header=BB44_3 Depth=1
	cmpl	$4, -16(%rbp)
	je	.LBB44_13
# %bb.12:                               # %if.then19
	jmp	.LBB44_32
.LBB44_13:                              # %if.end20
                                        #   in Loop: Header=BB44_3 Depth=1
	movq	-48(%rbp), %rsi
	leaq	-16(%rbp), %rdi
	leaq	-64(%rbp), %rdx
	leaq	-24(%rbp), %rcx
	callq	BZ2_bzReadGetUnused
	cmpl	$0, -16(%rbp)
	je	.LBB44_15
# %bb.14:                               # %if.then23
	movabsq	$.L.str.98, %rdi
	callq	panic
.LBB44_15:                              # %if.end24
                                        #   in Loop: Header=BB44_3 Depth=1
	movq	-64(%rbp), %rax
	movq	%rax, -72(%rbp)
	movl	$0, -20(%rbp)
.LBB44_16:                              # %for.cond
                                        #   Parent Loop BB44_3 Depth=1
                                        # =>  This Inner Loop Header: Depth=2
	movl	-20(%rbp), %eax
	cmpl	-24(%rbp), %eax
	jge	.LBB44_19
# %bb.17:                               # %for.body
                                        #   in Loop: Header=BB44_16 Depth=2
	movq	-72(%rbp), %rax
	movslq	-20(%rbp), %rcx
	movb	(%rax,%rcx), %al
	movslq	-20(%rbp), %rcx
	movb	%al, -5088(%rbp,%rcx)
# %bb.18:                               # %for.inc
                                        #   in Loop: Header=BB44_16 Depth=2
	movl	-20(%rbp), %eax
	addl	$1, %eax
	movl	%eax, -20(%rbp)
	jmp	.LBB44_16
.LBB44_19:                              # %for.end
                                        #   in Loop: Header=BB44_3 Depth=1
	movq	-48(%rbp), %rsi
	leaq	-16(%rbp), %rdi
	callq	BZ2_bzReadClose
	cmpl	$0, -16(%rbp)
	je	.LBB44_21
# %bb.20:                               # %if.then32
	movabsq	$.L.str.98, %rdi
	callq	panic
.LBB44_21:                              # %if.end33
                                        #   in Loop: Header=BB44_3 Depth=1
	cmpl	$0, -24(%rbp)
	jne	.LBB44_24
# %bb.22:                               # %land.lhs.true
                                        #   in Loop: Header=BB44_3 Depth=1
	movq	-32(%rbp), %rdi
	callq	myfeof
	movzbl	%al, %eax
	cmpl	$0, %eax
	je	.LBB44_24
# %bb.23:                               # %if.then39
	jmp	.LBB44_25
.LBB44_24:                              # %if.end40
                                        #   in Loop: Header=BB44_3 Depth=1
	jmp	.LBB44_3
.LBB44_25:                              # %while.end41
	movq	-32(%rbp), %rdi
	callq	ferror
	cmpl	$0, %eax
	je	.LBB44_27
# %bb.26:                               # %if.then44
	jmp	.LBB44_38
.LBB44_27:                              # %if.end45
	movq	-32(%rbp), %rdi
	callq	fclose
	movl	%eax, -56(%rbp)
	cmpl	$-1, -56(%rbp)
	jne	.LBB44_29
# %bb.28:                               # %if.then49
	jmp	.LBB44_38
.LBB44_29:                              # %if.end50
	cmpl	$2, verbosity
	jl	.LBB44_31
# %bb.30:                               # %if.then53
	movq	stderr, %rdi
	movabsq	$.L.str.89, %rsi
	movb	$0, %al
	callq	fprintf
.LBB44_31:                              # %if.end55
	movb	$1, -9(%rbp)
	jmp	.LBB44_50
.LBB44_32:                              # %errhandler
	movq	-48(%rbp), %rsi
	leaq	-80(%rbp), %rdi
	callq	BZ2_bzReadClose
	cmpl	$0, verbosity
	jne	.LBB44_34
# %bb.33:                               # %if.then58
	movq	stderr, %rdi
	movq	progName, %rdx
	movabsq	$.L.str.99, %rsi
	movabsq	$inName, %rcx
	movb	$0, %al
	callq	fprintf
.LBB44_34:                              # %if.end60
	movl	-16(%rbp), %eax
	addl	$9, %eax
	movl	%eax, %ecx
	subl	$6, %ecx
	ja	.LBB44_49
# %bb.35:                               # %if.end60
	movq	.LJTI44_0(,%rax,8), %rax
	jmpq	*%rax
.LBB44_36:                              # %sw.bb
	callq	configError
.LBB44_37:                              # %sw.bb61
	jmp	.LBB44_38
.LBB44_38:                              # %errhandler_io
	callq	ioError
.LBB44_39:                              # %sw.bb62
	movq	stderr, %rdi
	movabsq	$.L.str.100, %rsi
	movb	$0, %al
	callq	fprintf
	movb	$0, -9(%rbp)
	jmp	.LBB44_50
.LBB44_40:                              # %sw.bb64
	callq	outOfMemory
.LBB44_41:                              # %sw.bb65
	movq	stderr, %rdi
	movabsq	$.L.str.101, %rsi
	movb	$0, %al
	callq	fprintf
	movb	$0, -9(%rbp)
	jmp	.LBB44_50
.LBB44_42:                              # %sw.bb67
	movq	-32(%rbp), %rax
	cmpq	stdin, %rax
	je	.LBB44_44
# %bb.43:                               # %if.then70
	movq	-32(%rbp), %rdi
	callq	fclose
.LBB44_44:                              # %if.end72
	cmpl	$1, -36(%rbp)
	jne	.LBB44_46
# %bb.45:                               # %if.then75
	movq	stderr, %rdi
	movabsq	$.L.str.102, %rsi
	movb	$0, %al
	callq	fprintf
	movb	$0, -9(%rbp)
	jmp	.LBB44_50
.LBB44_46:                              # %if.else
	cmpb	$0, noisy
	je	.LBB44_48
# %bb.47:                               # %if.then78
	movq	stderr, %rdi
	movabsq	$.L.str.103, %rsi
	movb	$0, %al
	callq	fprintf
.LBB44_48:                              # %if.end80
	movb	$1, -9(%rbp)
	jmp	.LBB44_50
.LBB44_49:                              # %sw.default
	movabsq	$.L.str.104, %rdi
	callq	panic
.LBB44_50:                              # %return
	movb	-9(%rbp), %bl
	cmpl	$985806476, -52(%rbp)   # imm = 0x3AC2368C
	jne	.LBB44_52
.LBB44_51:
	movzbl	%bl, %eax
	addq	$10088, %rsp            # imm = 0x2768
	popq	%rbx
	popq	%rbp
	.cfi_def_cfa %rsp, 8
	retq
.LBB44_52:                              # %func_exit
	.cfi_def_cfa %rbp, 16
	callq	detect_breach
	jmp	.LBB44_51
.Lfunc_end44:
	.size	testStream.2, .Lfunc_end44-testStream.2
	.cfi_endproc
	.section	.rodata,"a",@progbits
	.p2align	3
.LJTI44_0:
	.quad	.LBB44_36
	.quad	.LBB44_49
	.quad	.LBB44_41
	.quad	.LBB44_37
	.quad	.LBB44_42
	.quad	.LBB44_39
	.quad	.LBB44_40
                                        # -- End function
	.text
	.p2align	4, 0x90         # -- Begin function fileExists.3
	.type	fileExists.3,@function
fileExists.3:                           # @fileExists.3
	.cfi_startproc
# %bb.0:                                # %entry
	pushq	%rbp
	.cfi_def_cfa_offset 16
	.cfi_offset %rbp, -16
	movq	%rsp, %rbp
	.cfi_def_cfa_register %rbp
	pushq	%rbx
	subq	$40, %rsp
	.cfi_offset %rbx, -24
	movl	$439799836, -28(%rbp)   # imm = 0x1A36D01C
	movq	%rdi, -40(%rbp)
	movq	-40(%rbp), %rdi
	movabsq	$.L.str.66, %rsi
	callq	fopen
	movq	%rax, -24(%rbp)
	cmpq	$0, -24(%rbp)
	setne	%al
	andb	$1, %al
	movzbl	%al, %eax
	movb	%al, -9(%rbp)
	cmpq	$0, -24(%rbp)
	je	.LBB45_2
# %bb.1:                                # %if.then
	movq	-24(%rbp), %rdi
	callq	fclose
.LBB45_2:                               # %if.end
	movb	-9(%rbp), %bl
	cmpl	$439799836, -28(%rbp)   # imm = 0x1A36D01C
	jne	.LBB45_4
.LBB45_3:
	movzbl	%bl, %eax
	addq	$40, %rsp
	popq	%rbx
	popq	%rbp
	.cfi_def_cfa %rsp, 8
	retq
.LBB45_4:                               # %func_exit
	.cfi_def_cfa %rbp, 16
	callq	detect_breach
	jmp	.LBB45_3
.Lfunc_end45:
	.size	fileExists.3, .Lfunc_end45-fileExists.3
	.cfi_endproc
                                        # -- End function
	.p2align	4, 0x90         # -- Begin function uInt64_from_UInt32s.4
	.type	uInt64_from_UInt32s.4,@function
uInt64_from_UInt32s.4:                  # @uInt64_from_UInt32s.4
	.cfi_startproc
# %bb.0:                                # %entry
	pushq	%rbp
	.cfi_def_cfa_offset 16
	.cfi_offset %rbp, -16
	movq	%rsp, %rbp
	.cfi_def_cfa_register %rbp
	subq	$32, %rsp
	movl	$458680759, -20(%rbp)   # imm = 0x1B56E9B7
	movq	%rdi, -16(%rbp)
	movl	%esi, -4(%rbp)
	movl	%edx, -8(%rbp)
	movl	-8(%rbp), %eax
	shrl	$24, %eax
	andl	$255, %eax
	movq	-16(%rbp), %rcx
	movb	%al, 7(%rcx)
	movl	-8(%rbp), %eax
	shrl	$16, %eax
	andl	$255, %eax
	movq	-16(%rbp), %rcx
	movb	%al, 6(%rcx)
	movl	-8(%rbp), %eax
	shrl	$8, %eax
	andl	$255, %eax
	movq	-16(%rbp), %rcx
	movb	%al, 5(%rcx)
	movl	-8(%rbp), %eax
	andl	$255, %eax
	movq	-16(%rbp), %rcx
	movb	%al, 4(%rcx)
	movl	-4(%rbp), %eax
	shrl	$24, %eax
	andl	$255, %eax
	movq	-16(%rbp), %rcx
	movb	%al, 3(%rcx)
	movl	-4(%rbp), %eax
	shrl	$16, %eax
	andl	$255, %eax
	movq	-16(%rbp), %rcx
	movb	%al, 2(%rcx)
	movl	-4(%rbp), %eax
	shrl	$8, %eax
	andl	$255, %eax
	movq	-16(%rbp), %rcx
	movb	%al, 1(%rcx)
	movl	-4(%rbp), %eax
	andl	$255, %eax
	movq	-16(%rbp), %rcx
	movb	%al, (%rcx)
	cmpl	$458680759, -20(%rbp)   # imm = 0x1B56E9B7
	jne	.LBB46_2
.LBB46_1:
	addq	$32, %rsp
	popq	%rbp
	.cfi_def_cfa %rsp, 8
	retq
.LBB46_2:                               # %func_exit
	.cfi_def_cfa %rbp, 16
	callq	detect_breach
	jmp	.LBB46_1
.Lfunc_end46:
	.size	uInt64_from_UInt32s.4, .Lfunc_end46-uInt64_from_UInt32s.4
	.cfi_endproc
                                        # -- End function
	.p2align	4, 0x90         # -- Begin function pad.5
	.type	pad.5,@function
pad.5:                                  # @pad.5
	.cfi_startproc
# %bb.0:                                # %entry
	pushq	%rbp
	.cfi_def_cfa_offset 16
	.cfi_offset %rbp, -16
	movq	%rsp, %rbp
	.cfi_def_cfa_register %rbp
	pushq	%r14
	pushq	%rbx
	subq	$16, %rsp
	.cfi_offset %rbx, -32
	.cfi_offset %r14, -24
	movl	$1010152523, -24(%rbp)  # imm = 0x3C35B44B
	movq	%rdi, -32(%rbp)
	movq	-32(%rbp), %rdi
	callq	strlen
	cmpl	longestFileName, %eax
	jl	.LBB47_2
# %bb.1:                                # %if.then
	jmp	.LBB47_7
.LBB47_2:                               # %if.end
	movl	$1, -20(%rbp)
.LBB47_3:                               # %for.cond
                                        # =>This Inner Loop Header: Depth=1
	movl	-20(%rbp), %r14d
	movl	longestFileName, %ebx
	movq	-32(%rbp), %rdi
	callq	strlen
	subl	%eax, %ebx
	cmpl	%ebx, %r14d
	jg	.LBB47_6
# %bb.4:                                # %for.body
                                        #   in Loop: Header=BB47_3 Depth=1
	movq	stderr, %rdi
	movabsq	$.L.str.72, %rsi
	movb	$0, %al
	callq	fprintf
# %bb.5:                                # %for.inc
                                        #   in Loop: Header=BB47_3 Depth=1
	movl	-20(%rbp), %eax
	addl	$1, %eax
	movl	%eax, -20(%rbp)
	jmp	.LBB47_3
.LBB47_6:                               # %for.end.loopexit
	jmp	.LBB47_7
.LBB47_7:                               # %for.end
	cmpl	$1010152523, -24(%rbp)  # imm = 0x3C35B44B
	jne	.LBB47_9
.LBB47_8:
	addq	$16, %rsp
	popq	%rbx
	popq	%r14
	popq	%rbp
	.cfi_def_cfa %rsp, 8
	retq
.LBB47_9:                               # %func_exit
	.cfi_def_cfa %rbp, 16
	callq	detect_breach
	jmp	.LBB47_8
.Lfunc_end47:
	.size	pad.5, .Lfunc_end47-pad.5
	.cfi_endproc
                                        # -- End function
	.p2align	4, 0x90         # -- Begin function uInt64_isZero.6
	.type	uInt64_isZero.6,@function
uInt64_isZero.6:                        # @uInt64_isZero.6
	.cfi_startproc
# %bb.0:                                # %entry
	pushq	%rbp
	.cfi_def_cfa_offset 16
	.cfi_offset %rbp, -16
	movq	%rsp, %rbp
	.cfi_def_cfa_register %rbp
	pushq	%rbx
	subq	$24, %rsp
	.cfi_offset %rbx, -24
	movl	$675832153, -20(%rbp)   # imm = 0x28486159
	movq	%rdi, -32(%rbp)
	movl	$0, -16(%rbp)
.LBB48_1:                               # %for.cond
                                        # =>This Inner Loop Header: Depth=1
	cmpl	$8, -16(%rbp)
	jge	.LBB48_6
# %bb.2:                                # %for.body
                                        #   in Loop: Header=BB48_1 Depth=1
	movq	-32(%rbp), %rax
	movslq	-16(%rbp), %rcx
	movzbl	(%rax,%rcx), %eax
	cmpl	$0, %eax
	je	.LBB48_4
# %bb.3:                                # %if.then
	movb	$0, -9(%rbp)
	jmp	.LBB48_7
.LBB48_4:                               # %if.end
                                        #   in Loop: Header=BB48_1 Depth=1
	jmp	.LBB48_5
.LBB48_5:                               # %for.inc
                                        #   in Loop: Header=BB48_1 Depth=1
	movl	-16(%rbp), %eax
	addl	$1, %eax
	movl	%eax, -16(%rbp)
	jmp	.LBB48_1
.LBB48_6:                               # %for.end
	movb	$1, -9(%rbp)
.LBB48_7:                               # %return
	movb	-9(%rbp), %bl
	cmpl	$675832153, -20(%rbp)   # imm = 0x28486159
	jne	.LBB48_9
.LBB48_8:
	movzbl	%bl, %eax
	addq	$24, %rsp
	popq	%rbx
	popq	%rbp
	.cfi_def_cfa %rsp, 8
	retq
.LBB48_9:                               # %func_exit
	.cfi_def_cfa %rbp, 16
	callq	detect_breach
	jmp	.LBB48_8
.Lfunc_end48:
	.size	uInt64_isZero.6, .Lfunc_end48-uInt64_isZero.6
	.cfi_endproc
                                        # -- End function
	.section	.rodata.cst8,"aM",@progbits,8
	.p2align	3               # -- Begin function compressStream.7
.LCPI49_0:
	.quad	4636737291354636288     # double 100
.LCPI49_1:
	.quad	4607182418800017408     # double 1
.LCPI49_2:
	.quad	4620693217682128896     # double 8
	.text
	.p2align	4, 0x90
	.type	compressStream.7,@function
compressStream.7:                       # @compressStream.7
	.cfi_startproc
# %bb.0:                                # %entry
	pushq	%rbp
	.cfi_def_cfa_offset 16
	.cfi_offset %rbp, -16
	movq	%rsp, %rbp
	.cfi_def_cfa_register %rbp
	subq	$5200, %rsp             # imm = 0x1450
	movl	$631671793, -76(%rbp)   # imm = 0x25A68BF1
	movq	%rdi, -32(%rbp)
	movq	%rsi, -24(%rbp)
	movq	$0, -56(%rbp)
	movq	-32(%rbp), %rdi
	callq	ferror
	cmpl	$0, %eax
	je	.LBB49_2
# %bb.1:                                # %if.then
	jmp	.LBB49_46
.LBB49_2:                               # %if.end
	movq	-24(%rbp), %rdi
	callq	ferror
	cmpl	$0, %eax
	je	.LBB49_4
# %bb.3:                                # %if.then3
	jmp	.LBB49_46
.LBB49_4:                               # %if.end4
	movq	-24(%rbp), %rsi
	movl	blockSize100k, %edx
	movl	verbosity, %ecx
	movl	workFactor, %r8d
	leaq	-4(%rbp), %rdi
	callq	BZ2_bzWriteOpen
	movq	%rax, -56(%rbp)
	cmpl	$0, -4(%rbp)
	je	.LBB49_6
# %bb.5:                                # %if.then6
	jmp	.LBB49_40
.LBB49_6:                               # %if.end7
	cmpl	$2, verbosity
	jl	.LBB49_8
# %bb.7:                                # %if.then9
	movq	stderr, %rdi
	movabsq	$.L.str.73, %rsi
	movb	$0, %al
	callq	fprintf
.LBB49_8:                               # %if.end11
	jmp	.LBB49_9
.LBB49_9:                               # %while.body
                                        # =>This Inner Loop Header: Depth=1
	movq	-32(%rbp), %rdi
	callq	myfeof
	cmpb	$0, %al
	je	.LBB49_11
# %bb.10:                               # %if.then14
	jmp	.LBB49_18
.LBB49_11:                              # %if.end15
                                        #   in Loop: Header=BB49_9 Depth=1
	leaq	-5184(%rbp), %rdi
	movq	-32(%rbp), %rcx
	movl	$1, %esi
	movl	$5000, %edx             # imm = 0x1388
	callq	fread
	movl	%eax, -44(%rbp)
	movq	-32(%rbp), %rdi
	callq	ferror
	cmpl	$0, %eax
	je	.LBB49_13
# %bb.12:                               # %if.then19
	jmp	.LBB49_46
.LBB49_13:                              # %if.end20
                                        #   in Loop: Header=BB49_9 Depth=1
	cmpl	$0, -44(%rbp)
	jle	.LBB49_15
# %bb.14:                               # %if.then23
                                        #   in Loop: Header=BB49_9 Depth=1
	leaq	-5184(%rbp), %rdx
	movq	-56(%rbp), %rsi
	movl	-44(%rbp), %ecx
	leaq	-4(%rbp), %rdi
	callq	BZ2_bzWrite
.LBB49_15:                              # %if.end25
                                        #   in Loop: Header=BB49_9 Depth=1
	cmpl	$0, -4(%rbp)
	je	.LBB49_17
# %bb.16:                               # %if.then28
	jmp	.LBB49_40
.LBB49_17:                              # %if.end29
                                        #   in Loop: Header=BB49_9 Depth=1
	jmp	.LBB49_9
.LBB49_18:                              # %while.end
	movq	-56(%rbp), %rsi
	leaq	-4(%rbp), %rdi
	movl	$0, %edx
	leaq	-12(%rbp), %rcx
	leaq	-16(%rbp), %r8
	leaq	-36(%rbp), %r9
	leaq	-40(%rbp), %rax
	movq	%rax, (%rsp)
	callq	BZ2_bzWriteClose64
	cmpl	$0, -4(%rbp)
	je	.LBB49_20
# %bb.19:                               # %if.then32
	jmp	.LBB49_40
.LBB49_20:                              # %if.end33
	movq	-24(%rbp), %rdi
	callq	ferror
	cmpl	$0, %eax
	je	.LBB49_22
# %bb.21:                               # %if.then36
	jmp	.LBB49_46
.LBB49_22:                              # %if.end37
	movq	-24(%rbp), %rdi
	callq	fflush
	movl	%eax, -8(%rbp)
	cmpl	$-1, -8(%rbp)
	jne	.LBB49_24
# %bb.23:                               # %if.then41
	jmp	.LBB49_46
.LBB49_24:                              # %if.end42
	movq	-24(%rbp), %rax
	cmpq	stdout, %rax
	je	.LBB49_28
# %bb.25:                               # %if.then45
	movq	-24(%rbp), %rdi
	callq	fclose
	movl	%eax, -8(%rbp)
	movq	$0, outputHandleJustInCase
	cmpl	$-1, -8(%rbp)
	jne	.LBB49_27
# %bb.26:                               # %if.then49
	jmp	.LBB49_46
.LBB49_27:                              # %if.end50
	jmp	.LBB49_28
.LBB49_28:                              # %if.end51
	movq	$0, outputHandleJustInCase
	movq	-32(%rbp), %rdi
	callq	ferror
	cmpl	$0, %eax
	je	.LBB49_30
# %bb.29:                               # %if.then54
	jmp	.LBB49_46
.LBB49_30:                              # %if.end55
	movq	-32(%rbp), %rdi
	callq	fclose
	movl	%eax, -8(%rbp)
	cmpl	$-1, -8(%rbp)
	jne	.LBB49_32
# %bb.31:                               # %if.then59
	jmp	.LBB49_46
.LBB49_32:                              # %if.end60
	cmpl	$1, verbosity
	jl	.LBB49_38
# %bb.33:                               # %if.then63
	cmpl	$0, -12(%rbp)
	jne	.LBB49_36
# %bb.34:                               # %land.lhs.true
	cmpl	$0, -16(%rbp)
	jne	.LBB49_36
# %bb.35:                               # %if.then68
	movq	stderr, %rdi
	movabsq	$.L.str.74, %rsi
	movb	$0, %al
	callq	fprintf
	jmp	.LBB49_37
.LBB49_36:                              # %if.else
	movl	-12(%rbp), %esi
	movl	-16(%rbp), %edx
	leaq	-88(%rbp), %rdi
	callq	uInt64_from_UInt32s
	movl	-36(%rbp), %esi
	movl	-40(%rbp), %edx
	leaq	-96(%rbp), %rdi
	callq	uInt64_from_UInt32s
	leaq	-88(%rbp), %rdi
	callq	uInt64_to_double
	vmovsd	%xmm0, -64(%rbp)
	leaq	-96(%rbp), %rdi
	callq	uInt64_to_double
	leaq	-176(%rbp), %rdi
	vmovsd	%xmm0, -72(%rbp)
	leaq	-88(%rbp), %rsi
	callq	uInt64_toAscii
	leaq	-144(%rbp), %rdi
	leaq	-96(%rbp), %rsi
	callq	uInt64_toAscii
	leaq	-144(%rbp), %rcx
	leaq	-176(%rbp), %rdx
	vmovsd	.LCPI49_0(%rip), %xmm2  # xmm2 = mem[0],zero
	vmovsd	.LCPI49_1(%rip), %xmm3  # xmm3 = mem[0],zero
	vmovsd	.LCPI49_2(%rip), %xmm1  # xmm1 = mem[0],zero
	movq	stderr, %rdi
	vmovsd	-64(%rbp), %xmm0        # xmm0 = mem[0],zero
	vdivsd	-72(%rbp), %xmm0, %xmm0
	vmulsd	-72(%rbp), %xmm1, %xmm1
	vdivsd	-64(%rbp), %xmm1, %xmm1
	vmovsd	-72(%rbp), %xmm4        # xmm4 = mem[0],zero
	vdivsd	-64(%rbp), %xmm4, %xmm4
	vsubsd	%xmm4, %xmm3, %xmm3
	vmulsd	%xmm3, %xmm2, %xmm2
	movabsq	$.L.str.75, %rsi
	movb	$3, %al
	callq	fprintf
.LBB49_37:                              # %if.end80
	jmp	.LBB49_38
.LBB49_38:                              # %if.end81
	cmpl	$631671793, -76(%rbp)   # imm = 0x25A68BF1
	jne	.LBB49_48
.LBB49_39:
	addq	$5200, %rsp             # imm = 0x1450
	popq	%rbp
	.cfi_def_cfa %rsp, 8
	retq
.LBB49_40:                              # %errhandler
	.cfi_def_cfa %rbp, 16
	movq	-56(%rbp), %rsi
	leaq	-40(%rbp), %rax
	movq	%rax, (%rsp)
	leaq	-100(%rbp), %rdi
	leaq	-12(%rbp), %rcx
	leaq	-16(%rbp), %r8
	leaq	-36(%rbp), %r9
	movl	$1, %edx
	callq	BZ2_bzWriteClose64
	movl	-4(%rbp), %eax
	movl	%eax, %ecx
	subl	$-9, %ecx
	je	.LBB49_43
	jmp	.LBB49_41
.LBB49_41:                              # %errhandler
	movl	%eax, %ecx
	subl	$-6, %ecx
	je	.LBB49_45
	jmp	.LBB49_42
.LBB49_42:                              # %errhandler
	subl	$-3, %eax
	je	.LBB49_44
	jmp	.LBB49_47
.LBB49_43:                              # %sw.bb
	callq	configError
.LBB49_44:                              # %sw.bb82
	callq	outOfMemory
.LBB49_45:                              # %sw.bb83
	jmp	.LBB49_46
.LBB49_46:                              # %errhandler_io
	callq	ioError
.LBB49_47:                              # %sw.default
	movabsq	$.L.str.76, %rdi
	callq	panic
.LBB49_48:                              # %func_exit
	callq	detect_breach
	jmp	.LBB49_39
.Lfunc_end49:
	.size	compressStream.7, .Lfunc_end49-compressStream.7
	.cfi_endproc
                                        # -- End function
	.p2align	4, 0x90         # -- Begin function countHardLinks.8
	.type	countHardLinks.8,@function
countHardLinks.8:                       # @countHardLinks.8
	.cfi_startproc
# %bb.0:                                # %entry
	pushq	%rbp
	.cfi_def_cfa_offset 16
	.cfi_offset %rbp, -16
	movq	%rsp, %rbp
	.cfi_def_cfa_register %rbp
	pushq	%rbx
	subq	$168, %rsp
	.cfi_offset %rbx, -24
	movl	$1878293585, -20(%rbp)  # imm = 0x6FF47C51
	movq	%rdi, -32(%rbp)
	movq	-32(%rbp), %rdi
	leaq	-176(%rbp), %rsi
	callq	lstat
	movl	%eax, -16(%rbp)
	cmpl	$0, -16(%rbp)
	je	.LBB50_2
# %bb.1:                                # %if.then
	movl	$0, -12(%rbp)
	jmp	.LBB50_3
.LBB50_2:                               # %if.end
	movq	-160(%rbp), %rax
	subq	$1, %rax
	movl	%eax, -12(%rbp)
.LBB50_3:                               # %return
	movl	-12(%rbp), %ebx
	cmpl	$1878293585, -20(%rbp)  # imm = 0x6FF47C51
	jne	.LBB50_5
.LBB50_4:
	movl	%ebx, %eax
	addq	$168, %rsp
	popq	%rbx
	popq	%rbp
	.cfi_def_cfa %rsp, 8
	retq
.LBB50_5:                               # %func_exit
	.cfi_def_cfa %rbp, 16
	callq	detect_breach
	jmp	.LBB50_4
.Lfunc_end50:
	.size	countHardLinks.8, .Lfunc_end50-countHardLinks.8
	.cfi_endproc
                                        # -- End function
	.p2align	4, 0x90         # -- Begin function saveInputFileMetaInfo.9
	.type	saveInputFileMetaInfo.9,@function
saveInputFileMetaInfo.9:                # @saveInputFileMetaInfo.9
	.cfi_startproc
# %bb.0:                                # %entry
	pushq	%rbp
	.cfi_def_cfa_offset 16
	.cfi_offset %rbp, -16
	movq	%rsp, %rbp
	.cfi_def_cfa_register %rbp
	subq	$16, %rsp
	movl	$1716520877, -8(%rbp)   # imm = 0x665007AD
	movq	%rdi, -16(%rbp)
	movq	-16(%rbp), %rdi
	movabsq	$fileMetaInfo, %rsi
	callq	stat
	movl	%eax, -4(%rbp)
	cmpl	$0, -4(%rbp)
	je	.LBB51_2
# %bb.1:                                # %if.then
	callq	ioError
.LBB51_2:                               # %if.end
	cmpl	$1716520877, -8(%rbp)   # imm = 0x665007AD
	jne	.LBB51_4
.LBB51_3:
	addq	$16, %rsp
	popq	%rbp
	.cfi_def_cfa %rsp, 8
	retq
.LBB51_4:                               # %func_exit
	.cfi_def_cfa %rbp, 16
	callq	detect_breach
	jmp	.LBB51_3
.Lfunc_end51:
	.size	saveInputFileMetaInfo.9, .Lfunc_end51-saveInputFileMetaInfo.9
	.cfi_endproc
                                        # -- End function
	.p2align	4, 0x90         # -- Begin function testf.10
	.type	testf.10,@function
testf.10:                               # @testf.10
	.cfi_startproc
# %bb.0:                                # %entry
	pushq	%rbp
	.cfi_def_cfa_offset 16
	.cfi_offset %rbp, -16
	movq	%rsp, %rbp
	.cfi_def_cfa_register %rbp
	pushq	%r14
	pushq	%rbx
	subq	$176, %rsp
	.cfi_offset %rbx, -32
	.cfi_offset %r14, -24
	movl	$1280604276, -44(%rbp)  # imm = 0x4C547874
	movq	%rdi, -40(%rbp)
	movb	$0, deleteOutputOnInterrupt
	cmpq	$0, -40(%rbp)
	jne	.LBB52_3
# %bb.1:                                # %land.lhs.true
	cmpl	$1, srcMode
	je	.LBB52_3
# %bb.2:                                # %if.then
	movabsq	$.L.str.94, %rdi
	callq	panic
.LBB52_3:                               # %if.end
	movl	$outName, %edi
	movl	$.L.str, %esi
	callq	copyFileName
	movl	srcMode(%rip), %eax
	movl	%eax, %ecx
	subl	$1, %ecx
	je	.LBB52_6
	jmp	.LBB52_4
.LBB52_4:                               # %if.end
	movl	%eax, %ecx
	subl	$2, %ecx
	je	.LBB52_8
	jmp	.LBB52_5
.LBB52_5:                               # %if.end
	subl	$3, %eax
	je	.LBB52_7
	jmp	.LBB52_9
.LBB52_6:                               # %sw.bb
	movabsq	$inName, %rdi
	movabsq	$.L.str.54, %rsi
	callq	copyFileName
	jmp	.LBB52_9
.LBB52_7:                               # %sw.bb2
	movq	-40(%rbp), %rsi
	movabsq	$inName, %rdi
	callq	copyFileName
	jmp	.LBB52_9
.LBB52_8:                               # %sw.bb3
	movq	-40(%rbp), %rsi
	movabsq	$inName, %rdi
	callq	copyFileName
.LBB52_9:                               # %sw.epilog
	cmpl	$1, srcMode
	je	.LBB52_14
# %bb.10:                               # %land.lhs.true5
	movabsq	$inName, %rdi
	callq	containsDubiousChars
	movzbl	%al, %eax
	cmpl	$0, %eax
	je	.LBB52_14
# %bb.11:                               # %if.then6
	cmpb	$0, noisy
	je	.LBB52_13
# %bb.12:                               # %if.then8
	movq	stderr, %rdi
	movq	progName, %rdx
	movabsq	$.L.str.56, %rsi
	movabsq	$inName, %rcx
	movb	$0, %al
	callq	fprintf
.LBB52_13:                              # %if.end10
	movl	$1, %edi
	callq	setExit
	jmp	.LBB52_37
.LBB52_14:                              # %if.end11
	cmpl	$1, srcMode
	je	.LBB52_17
# %bb.15:                               # %land.lhs.true14
	movabsq	$inName, %rdi
	callq	fileExists
	cmpb	$0, %al
	jne	.LBB52_17
# %bb.16:                               # %if.then17
	movq	stderr, %rbx
	movq	progName, %r14
	callq	__errno_location
	movl	(%rax), %edi
	callq	strerror
	movq	%rbx, %rdi
	movabsq	$.L.str.95, %rsi
	movq	%r14, %rdx
	movabsq	$inName, %rcx
	movq	%rax, %r8
	movb	$0, %al
	callq	fprintf
	movl	$1, %edi
	callq	setExit
	jmp	.LBB52_37
.LBB52_17:                              # %if.end21
	cmpl	$1, srcMode
	je	.LBB52_21
# %bb.18:                               # %if.then24
	movabsq	$inName, %rdi
	leaq	-192(%rbp), %rsi
	callq	stat
	movl	-168(%rbp), %eax
	andl	$61440, %eax            # imm = 0xF000
	cmpl	$16384, %eax            # imm = 0x4000
	jne	.LBB52_20
# %bb.19:                               # %if.then28
	movq	stderr, %rdi
	movq	progName, %rdx
	movabsq	$.L.str.59, %rsi
	movabsq	$inName, %rcx
	movb	$0, %al
	callq	fprintf
	movl	$1, %edi
	callq	setExit
	jmp	.LBB52_37
.LBB52_20:                              # %if.end30
	jmp	.LBB52_21
.LBB52_21:                              # %if.end31
	movl	srcMode(%rip), %eax
	movl	%eax, %ecx
	subl	$1, %ecx
	je	.LBB52_23
	jmp	.LBB52_22
.LBB52_22:                              # %if.end31
	addl	$-2, %eax
	subl	$2, %eax
	jb	.LBB52_26
	jmp	.LBB52_29
.LBB52_23:                              # %sw.bb32
	movq	stdin, %rdi
	callq	fileno
	movl	%eax, %edi
	callq	isatty
	cmpl	$0, %eax
	je	.LBB52_25
# %bb.24:                               # %if.then36
	movq	stderr, %rdi
	movq	progName, %rdx
	movabsq	$.L.str.82, %rsi
	movb	$0, %al
	callq	fprintf
	movq	stderr, %rdi
	movq	progName, %rdx
	movq	progName, %rcx
	movabsq	$.L.str.65, %rsi
	movb	$0, %al
	callq	fprintf
	movl	$1, %edi
	callq	setExit
	jmp	.LBB52_37
.LBB52_25:                              # %if.end39
	movq	stdin, %rax
	movq	%rax, -32(%rbp)
	jmp	.LBB52_30
.LBB52_26:                              # %sw.bb40
	movabsq	$inName, %rdi
	movabsq	$.L.str.66, %rsi
	callq	fopen
	movq	%rax, -32(%rbp)
	cmpq	$0, -32(%rbp)
	jne	.LBB52_28
# %bb.27:                               # %if.then44
	movq	stderr, %rbx
	movq	progName, %r14
	callq	__errno_location
	movl	(%rax), %edi
	callq	strerror
	movq	%rbx, %rdi
	movabsq	$.L.str.83, %rsi
	movq	%r14, %rdx
	movabsq	$inName, %rcx
	movq	%rax, %r8
	movb	$0, %al
	callq	fprintf
	movl	$1, %edi
	callq	setExit
	jmp	.LBB52_37
.LBB52_28:                              # %if.end48
	jmp	.LBB52_30
.LBB52_29:                              # %sw.default
	movabsq	$.L.str.96, %rdi
	callq	panic
.LBB52_30:                              # %sw.epilog49
	cmpl	$1, verbosity
	jl	.LBB52_32
# %bb.31:                               # %if.then52
	movq	stderr, %rdi
	movabsq	$.L.str.70, %rsi
	movabsq	$inName, %rdx
	movb	$0, %al
	callq	fprintf
	movabsq	$inName, %rdi
	callq	pad
	movq	stderr, %rdi
	callq	fflush
.LBB52_32:                              # %if.end55
	movq	$0, outputHandleJustInCase
	movq	-32(%rbp), %rdi
	callq	testStream
	movb	%al, -17(%rbp)
	movzbl	-17(%rbp), %eax
	cmpl	$0, %eax
	je	.LBB52_35
# %bb.33:                               # %land.lhs.true59
	cmpl	$1, verbosity
	jl	.LBB52_35
# %bb.34:                               # %if.then62
	movq	stderr, %rdi
	movabsq	$.L.str.97, %rsi
	movb	$0, %al
	callq	fprintf
.LBB52_35:                              # %if.end64
	cmpb	$0, -17(%rbp)
	jne	.LBB52_37
# %bb.36:                               # %if.then66
	movb	$1, testFailsExist
.LBB52_37:                              # %if.end67
	cmpl	$1280604276, -44(%rbp)  # imm = 0x4C547874
	jne	.LBB52_39
.LBB52_38:
	addq	$176, %rsp
	popq	%rbx
	popq	%r14
	popq	%rbp
	.cfi_def_cfa %rsp, 8
	retq
.LBB52_39:                              # %func_exit
	.cfi_def_cfa %rbp, 16
	callq	detect_breach
	jmp	.LBB52_38
.Lfunc_end52:
	.size	testf.10, .Lfunc_end52-testf.10
	.cfi_endproc
                                        # -- End function
	.section	.rodata.cst8,"aM",@progbits,8
	.p2align	3               # -- Begin function uInt64_to_double.11
.LCPI53_0:
	.quad	4607182418800017408     # double 1
.LCPI53_1:
	.quad	4643211215818981376     # double 256
	.text
	.p2align	4, 0x90
	.type	uInt64_to_double.11,@function
uInt64_to_double.11:                    # @uInt64_to_double.11
	.cfi_startproc
# %bb.0:                                # %entry
	pushq	%rbp
	.cfi_def_cfa_offset 16
	.cfi_offset %rbp, -16
	movq	%rsp, %rbp
	.cfi_def_cfa_register %rbp
	subq	$48, %rsp
	vmovsd	.LCPI53_0(%rip), %xmm0  # xmm0 = mem[0],zero
	movl	$123611166, -28(%rbp)   # imm = 0x75E281E
	movq	%rdi, -48(%rbp)
	vmovsd	%xmm0, -24(%rbp)
	vxorps	%xmm0, %xmm0, %xmm0
	vmovsd	%xmm0, -16(%rbp)
	movl	$0, -4(%rbp)
.LBB53_1:                               # %for.cond
                                        # =>This Inner Loop Header: Depth=1
	cmpl	$8, -4(%rbp)
	jge	.LBB53_4
# %bb.2:                                # %for.body
                                        #   in Loop: Header=BB53_1 Depth=1
	vmovsd	.LCPI53_1(%rip), %xmm0  # xmm0 = mem[0],zero
	vmovsd	-24(%rbp), %xmm1        # xmm1 = mem[0],zero
	movq	-48(%rbp), %rax
	movslq	-4(%rbp), %rcx
	movzbl	(%rax,%rcx), %eax
	vcvtsi2sd	%eax, %xmm0, %xmm2
	vmulsd	%xmm2, %xmm1, %xmm1
	vaddsd	-16(%rbp), %xmm1, %xmm1
	vmovsd	%xmm1, -16(%rbp)
	vmulsd	-24(%rbp), %xmm0, %xmm0
	vmovsd	%xmm0, -24(%rbp)
# %bb.3:                                # %for.inc
                                        #   in Loop: Header=BB53_1 Depth=1
	movl	-4(%rbp), %eax
	addl	$1, %eax
	movl	%eax, -4(%rbp)
	jmp	.LBB53_1
.LBB53_4:                               # %for.end
	vmovsd	-16(%rbp), %xmm0        # xmm0 = mem[0],zero
	cmpl	$123611166, -28(%rbp)   # imm = 0x75E281E
	jne	.LBB53_6
.LBB53_5:
	addq	$48, %rsp
	popq	%rbp
	.cfi_def_cfa %rsp, 8
	retq
.LBB53_6:                               # %func_exit
	.cfi_def_cfa %rbp, 16
	vmovsd	%xmm0, -40(%rbp)        # 8-byte Spill
	callq	detect_breach
	vmovsd	-40(%rbp), %xmm0        # 8-byte Reload
                                        # xmm0 = mem[0],zero
	jmp	.LBB53_5
.Lfunc_end53:
	.size	uInt64_to_double.11, .Lfunc_end53-uInt64_to_double.11
	.cfi_endproc
                                        # -- End function
	.p2align	4, 0x90         # -- Begin function pad.12
	.type	pad.12,@function
pad.12:                                 # @pad.12
	.cfi_startproc
# %bb.0:                                # %entry
	pushq	%rbp
	.cfi_def_cfa_offset 16
	.cfi_offset %rbp, -16
	movq	%rsp, %rbp
	.cfi_def_cfa_register %rbp
	pushq	%r14
	pushq	%rbx
	subq	$16, %rsp
	.cfi_offset %rbx, -32
	.cfi_offset %r14, -24
	movl	$1559133202, -24(%rbp)  # imm = 0x5CEE7C12
	movq	%rdi, -32(%rbp)
	movq	-32(%rbp), %rdi
	callq	strlen
	cmpl	longestFileName, %eax
	jl	.LBB54_2
# %bb.1:                                # %if.then
	jmp	.LBB54_7
.LBB54_2:                               # %if.end
	movl	$1, -20(%rbp)
.LBB54_3:                               # %for.cond
                                        # =>This Inner Loop Header: Depth=1
	movl	-20(%rbp), %r14d
	movl	longestFileName, %ebx
	movq	-32(%rbp), %rdi
	callq	strlen
	subl	%eax, %ebx
	cmpl	%ebx, %r14d
	jg	.LBB54_6
# %bb.4:                                # %for.body
                                        #   in Loop: Header=BB54_3 Depth=1
	movq	stderr, %rdi
	movabsq	$.L.str.72, %rsi
	movb	$0, %al
	callq	fprintf
# %bb.5:                                # %for.inc
                                        #   in Loop: Header=BB54_3 Depth=1
	movl	-20(%rbp), %eax
	addl	$1, %eax
	movl	%eax, -20(%rbp)
	jmp	.LBB54_3
.LBB54_6:                               # %for.end.loopexit
	jmp	.LBB54_7
.LBB54_7:                               # %for.end
	cmpl	$1559133202, -24(%rbp)  # imm = 0x5CEE7C12
	jne	.LBB54_9
.LBB54_8:
	addq	$16, %rsp
	popq	%rbx
	popq	%r14
	popq	%rbp
	.cfi_def_cfa %rsp, 8
	retq
.LBB54_9:                               # %func_exit
	.cfi_def_cfa %rbp, 16
	callq	detect_breach
	jmp	.LBB54_8
.Lfunc_end54:
	.size	pad.12, .Lfunc_end54-pad.12
	.cfi_endproc
                                        # -- End function
	.p2align	4, 0x90         # -- Begin function addFlagsFromEnvVar.13
	.type	addFlagsFromEnvVar.13,@function
addFlagsFromEnvVar.13:                  # @addFlagsFromEnvVar.13
	.cfi_startproc
# %bb.0:                                # %entry
	pushq	%rbp
	.cfi_def_cfa_offset 16
	.cfi_offset %rbp, -16
	movq	%rsp, %rbp
	.cfi_def_cfa_register %rbp
	subq	$48, %rsp
	movl	$541843734, -24(%rbp)   # imm = 0x204BE116
	movq	%rdi, -32(%rbp)
	movq	%rsi, -48(%rbp)
	movq	-48(%rbp), %rdi
	callq	getenv
	movq	%rax, -40(%rbp)
	cmpq	$0, -40(%rbp)
	je	.LBB55_22
# %bb.1:                                # %if.then
	movq	-40(%rbp), %rax
	movq	%rax, -16(%rbp)
	movl	$0, -4(%rbp)
.LBB55_2:                               # %while.body
                                        # =>This Loop Header: Depth=1
                                        #     Child Loop BB55_5 Depth 2
                                        #     Child Loop BB55_8 Depth 2
                                        #     Child Loop BB55_16 Depth 2
	movq	-16(%rbp), %rax
	movslq	-4(%rbp), %rcx
	movsbl	(%rax,%rcx), %eax
	cmpl	$0, %eax
	jne	.LBB55_4
# %bb.3:                                # %if.then3
	jmp	.LBB55_21
.LBB55_4:                               # %if.end
                                        #   in Loop: Header=BB55_2 Depth=1
	movl	-4(%rbp), %eax
	movq	-16(%rbp), %rcx
	cltq
	addq	%rax, %rcx
	movq	%rcx, -16(%rbp)
	movl	$0, -4(%rbp)
.LBB55_5:                               # %while.cond4
                                        #   Parent Loop BB55_2 Depth=1
                                        # =>  This Inner Loop Header: Depth=2
	callq	__ctype_b_loc
	movq	(%rax), %rax
	movq	-16(%rbp), %rcx
	movsbl	(%rcx), %ecx
	movslq	%ecx, %rcx
	movzwl	(%rax,%rcx,2), %eax
	andl	$8192, %eax             # imm = 0x2000
	cmpl	$0, %eax
	je	.LBB55_7
# %bb.6:                                # %while.body11
                                        #   in Loop: Header=BB55_5 Depth=2
	movq	-16(%rbp), %rax
	addq	$1, %rax
	movq	%rax, -16(%rbp)
	jmp	.LBB55_5
.LBB55_7:                               # %while.end
                                        #   in Loop: Header=BB55_2 Depth=1
	jmp	.LBB55_8
.LBB55_8:                               # %while.cond12
                                        #   Parent Loop BB55_2 Depth=1
                                        # =>  This Inner Loop Header: Depth=2
	xorl	%eax, %eax
	movq	-16(%rbp), %rcx
	movslq	-4(%rbp), %rdx
	movsbl	(%rcx,%rdx), %ecx
	cmpl	$0, %ecx
	je	.LBB55_10
# %bb.9:                                # %land.rhs
                                        #   in Loop: Header=BB55_8 Depth=2
	callq	__ctype_b_loc
	movq	(%rax), %rax
	movq	-16(%rbp), %rcx
	movslq	-4(%rbp), %rdx
	movsbl	(%rcx,%rdx), %ecx
	movslq	%ecx, %rcx
	movzwl	(%rax,%rcx,2), %eax
	andl	$8192, %eax             # imm = 0x2000
	cmpl	$0, %eax
	setne	%al
	xorb	$-1, %al
.LBB55_10:                              # %land.end
                                        #   in Loop: Header=BB55_8 Depth=2
	testb	$1, %al
	jne	.LBB55_11
	jmp	.LBB55_12
.LBB55_11:                              # %while.body27
                                        #   in Loop: Header=BB55_8 Depth=2
	movl	-4(%rbp), %eax
	addl	$1, %eax
	movl	%eax, -4(%rbp)
	jmp	.LBB55_8
.LBB55_12:                              # %while.end28
                                        #   in Loop: Header=BB55_2 Depth=1
	cmpl	$0, -4(%rbp)
	jle	.LBB55_20
# %bb.13:                               # %if.then31
                                        #   in Loop: Header=BB55_2 Depth=1
	movl	-4(%rbp), %eax
	movl	%eax, -20(%rbp)
	cmpl	$1024, -20(%rbp)        # imm = 0x400
	jle	.LBB55_15
# %bb.14:                               # %if.then34
                                        #   in Loop: Header=BB55_2 Depth=1
	movl	$1024, -20(%rbp)        # imm = 0x400
.LBB55_15:                              # %if.end35
                                        #   in Loop: Header=BB55_2 Depth=1
	movl	$0, -8(%rbp)
.LBB55_16:                              # %for.cond
                                        #   Parent Loop BB55_2 Depth=1
                                        # =>  This Inner Loop Header: Depth=2
	movl	-8(%rbp), %eax
	cmpl	-20(%rbp), %eax
	jge	.LBB55_19
# %bb.17:                               # %for.body
                                        #   in Loop: Header=BB55_16 Depth=2
	movq	-16(%rbp), %rax
	movslq	-8(%rbp), %rcx
	movb	(%rax,%rcx), %al
	movslq	-8(%rbp), %rcx
	movb	%al, tmpName(,%rcx)
# %bb.18:                               # %for.inc
                                        #   in Loop: Header=BB55_16 Depth=2
	movl	-8(%rbp), %eax
	addl	$1, %eax
	movl	%eax, -8(%rbp)
	jmp	.LBB55_16
.LBB55_19:                              # %for.end
                                        #   in Loop: Header=BB55_2 Depth=1
	movslq	-20(%rbp), %rax
	movb	$0, tmpName(,%rax)
	movq	-32(%rbp), %rax
	movq	(%rax), %rdi
	movabsq	$tmpName, %rsi
	callq	snocString
	movq	-32(%rbp), %rcx
	movq	%rax, (%rcx)
.LBB55_20:                              # %if.end46
                                        #   in Loop: Header=BB55_2 Depth=1
	jmp	.LBB55_2
.LBB55_21:                              # %while.end47
	jmp	.LBB55_22
.LBB55_22:                              # %if.end48
	cmpl	$541843734, -24(%rbp)   # imm = 0x204BE116
	jne	.LBB55_24
.LBB55_23:
	addq	$48, %rsp
	popq	%rbp
	.cfi_def_cfa %rsp, 8
	retq
.LBB55_24:                              # %func_exit
	.cfi_def_cfa %rbp, 16
	callq	detect_breach
	jmp	.LBB55_23
.Lfunc_end55:
	.size	addFlagsFromEnvVar.13, .Lfunc_end55-addFlagsFromEnvVar.13
	.cfi_endproc
                                        # -- End function
	.p2align	4, 0x90         # -- Begin function snocString.14
	.type	snocString.14,@function
snocString.14:                          # @snocString.14
	.cfi_startproc
# %bb.0:                                # %entry
	pushq	%rbp
	.cfi_def_cfa_offset 16
	.cfi_offset %rbp, -16
	movq	%rsp, %rbp
	.cfi_def_cfa_register %rbp
	pushq	%rbx
	subq	$56, %rsp
	.cfi_offset %rbx, -24
	movl	$1639671252, -44(%rbp)  # imm = 0x61BB65D4
	movq	%rdi, -40(%rbp)
	movq	%rsi, -24(%rbp)
	cmpq	$0, -40(%rbp)
	jne	.LBB56_2
# %bb.1:                                # %if.then
	callq	mkCell
	movq	%rax, -32(%rbp)
	movq	-24(%rbp), %rdi
	callq	strlen
	addq	$5, %rax
	movl	%eax, %edi
	callq	myMalloc
	movq	-32(%rbp), %rcx
	movq	%rax, (%rcx)
	movq	-32(%rbp), %rax
	movq	(%rax), %rdi
	movq	-24(%rbp), %rsi
	callq	strcpy
	movq	-32(%rbp), %rax
	movq	%rax, -56(%rbp)
	jmp	.LBB56_6
.LBB56_2:                               # %if.else
	movq	-40(%rbp), %rax
	movq	%rax, -16(%rbp)
.LBB56_3:                               # %while.cond
                                        # =>This Inner Loop Header: Depth=1
	movq	-16(%rbp), %rax
	cmpq	$0, 8(%rax)
	je	.LBB56_5
# %bb.4:                                # %while.body
                                        #   in Loop: Header=BB56_3 Depth=1
	movq	-16(%rbp), %rax
	movq	8(%rax), %rax
	movq	%rax, -16(%rbp)
	jmp	.LBB56_3
.LBB56_5:                               # %while.end
	movq	-16(%rbp), %rax
	movq	8(%rax), %rdi
	movq	-24(%rbp), %rsi
	callq	snocString
	movq	-16(%rbp), %rcx
	movq	%rax, 8(%rcx)
	movq	-40(%rbp), %rax
	movq	%rax, -56(%rbp)
.LBB56_6:                               # %return
	movq	-56(%rbp), %rbx
	cmpl	$1639671252, -44(%rbp)  # imm = 0x61BB65D4
	jne	.LBB56_8
.LBB56_7:
	movq	%rbx, %rax
	addq	$56, %rsp
	popq	%rbx
	popq	%rbp
	.cfi_def_cfa %rsp, 8
	retq
.LBB56_8:                               # %func_exit
	.cfi_def_cfa %rbp, 16
	callq	detect_breach
	jmp	.LBB56_7
.Lfunc_end56:
	.size	snocString.14, .Lfunc_end56-snocString.14
	.cfi_endproc
                                        # -- End function
	.p2align	4, 0x90         # -- Begin function fileExists.15
	.type	fileExists.15,@function
fileExists.15:                          # @fileExists.15
	.cfi_startproc
# %bb.0:                                # %entry
	pushq	%rbp
	.cfi_def_cfa_offset 16
	.cfi_offset %rbp, -16
	movq	%rsp, %rbp
	.cfi_def_cfa_register %rbp
	pushq	%rbx
	subq	$40, %rsp
	.cfi_offset %rbx, -24
	movl	$1233935916, -28(%rbp)  # imm = 0x498C5E2C
	movq	%rdi, -40(%rbp)
	movq	-40(%rbp), %rdi
	movabsq	$.L.str.66, %rsi
	callq	fopen
	movq	%rax, -24(%rbp)
	cmpq	$0, -24(%rbp)
	setne	%al
	andb	$1, %al
	movzbl	%al, %eax
	movb	%al, -9(%rbp)
	cmpq	$0, -24(%rbp)
	je	.LBB57_2
# %bb.1:                                # %if.then
	movq	-24(%rbp), %rdi
	callq	fclose
.LBB57_2:                               # %if.end
	movb	-9(%rbp), %bl
	cmpl	$1233935916, -28(%rbp)  # imm = 0x498C5E2C
	jne	.LBB57_4
.LBB57_3:
	movzbl	%bl, %eax
	addq	$40, %rsp
	popq	%rbx
	popq	%rbp
	.cfi_def_cfa %rsp, 8
	retq
.LBB57_4:                               # %func_exit
	.cfi_def_cfa %rbp, 16
	callq	detect_breach
	jmp	.LBB57_3
.Lfunc_end57:
	.size	fileExists.15, .Lfunc_end57-fileExists.15
	.cfi_endproc
                                        # -- End function
	.p2align	4, 0x90         # -- Begin function mapSuffix.16
	.type	mapSuffix.16,@function
mapSuffix.16:                           # @mapSuffix.16
	.cfi_startproc
# %bb.0:                                # %entry
	pushq	%rbp
	.cfi_def_cfa_offset 16
	.cfi_offset %rbp, -16
	movq	%rsp, %rbp
	.cfi_def_cfa_register %rbp
	pushq	%r14
	pushq	%rbx
	subq	$48, %rsp
	.cfi_offset %rbx, -32
	.cfi_offset %r14, -24
	movl	$1452385159, -36(%rbp)  # imm = 0x5691A387
	movq	%rdi, -32(%rbp)
	movq	%rsi, -48(%rbp)
	movq	%rdx, -56(%rbp)
	movq	-32(%rbp), %rdi
	movq	-48(%rbp), %rsi
	callq	hasSuffix
	cmpb	$0, %al
	jne	.LBB58_2
# %bb.1:                                # %if.then
	movb	$0, -17(%rbp)
	jmp	.LBB58_3
.LBB58_2:                               # %if.end
	movq	-32(%rbp), %r14
	movq	-32(%rbp), %rdi
	callq	strlen
	movq	%rax, %rbx
	movq	-48(%rbp), %rdi
	callq	strlen
	subq	%rax, %rbx
	movb	$0, (%r14,%rbx)
	movq	-32(%rbp), %rdi
	movq	-56(%rbp), %rsi
	callq	strcat
	movb	$1, -17(%rbp)
.LBB58_3:                               # %return
	movb	-17(%rbp), %bl
	cmpl	$1452385159, -36(%rbp)  # imm = 0x5691A387
	jne	.LBB58_5
.LBB58_4:
	movzbl	%bl, %eax
	addq	$48, %rsp
	popq	%rbx
	popq	%r14
	popq	%rbp
	.cfi_def_cfa %rsp, 8
	retq
.LBB58_5:                               # %func_exit
	.cfi_def_cfa %rbp, 16
	callq	detect_breach
	jmp	.LBB58_4
.Lfunc_end58:
	.size	mapSuffix.16, .Lfunc_end58-mapSuffix.16
	.cfi_endproc
                                        # -- End function
	.p2align	4, 0x90         # -- Begin function testf.17
	.type	testf.17,@function
testf.17:                               # @testf.17
	.cfi_startproc
# %bb.0:                                # %entry
	pushq	%rbp
	.cfi_def_cfa_offset 16
	.cfi_offset %rbp, -16
	movq	%rsp, %rbp
	.cfi_def_cfa_register %rbp
	pushq	%r14
	pushq	%rbx
	subq	$176, %rsp
	.cfi_offset %rbx, -32
	.cfi_offset %r14, -24
	movl	$1199253709, -44(%rbp)  # imm = 0x477B28CD
	movq	%rdi, -32(%rbp)
	movb	$0, deleteOutputOnInterrupt
	cmpq	$0, -32(%rbp)
	jne	.LBB59_3
# %bb.1:                                # %land.lhs.true
	cmpl	$1, srcMode
	je	.LBB59_3
# %bb.2:                                # %if.then
	movabsq	$.L.str.94, %rdi
	callq	panic
.LBB59_3:                               # %if.end
	movl	$outName, %edi
	movl	$.L.str, %esi
	callq	copyFileName
	movl	srcMode(%rip), %eax
	movl	%eax, %ecx
	subl	$1, %ecx
	je	.LBB59_6
	jmp	.LBB59_4
.LBB59_4:                               # %if.end
	movl	%eax, %ecx
	subl	$2, %ecx
	je	.LBB59_8
	jmp	.LBB59_5
.LBB59_5:                               # %if.end
	subl	$3, %eax
	je	.LBB59_7
	jmp	.LBB59_9
.LBB59_6:                               # %sw.bb
	movabsq	$inName, %rdi
	movabsq	$.L.str.54, %rsi
	callq	copyFileName
	jmp	.LBB59_9
.LBB59_7:                               # %sw.bb2
	movq	-32(%rbp), %rsi
	movabsq	$inName, %rdi
	callq	copyFileName
	jmp	.LBB59_9
.LBB59_8:                               # %sw.bb3
	movq	-32(%rbp), %rsi
	movabsq	$inName, %rdi
	callq	copyFileName
.LBB59_9:                               # %sw.epilog
	cmpl	$1, srcMode
	je	.LBB59_14
# %bb.10:                               # %land.lhs.true5
	movabsq	$inName, %rdi
	callq	containsDubiousChars
	movzbl	%al, %eax
	cmpl	$0, %eax
	je	.LBB59_14
# %bb.11:                               # %if.then6
	cmpb	$0, noisy
	je	.LBB59_13
# %bb.12:                               # %if.then8
	movq	stderr, %rdi
	movq	progName, %rdx
	movabsq	$.L.str.56, %rsi
	movabsq	$inName, %rcx
	movb	$0, %al
	callq	fprintf
.LBB59_13:                              # %if.end10
	movl	$1, %edi
	callq	setExit
	jmp	.LBB59_37
.LBB59_14:                              # %if.end11
	cmpl	$1, srcMode
	je	.LBB59_17
# %bb.15:                               # %land.lhs.true14
	movabsq	$inName, %rdi
	callq	fileExists
	cmpb	$0, %al
	jne	.LBB59_17
# %bb.16:                               # %if.then17
	movq	stderr, %rbx
	movq	progName, %r14
	callq	__errno_location
	movl	(%rax), %edi
	callq	strerror
	movq	%rbx, %rdi
	movabsq	$.L.str.95, %rsi
	movq	%r14, %rdx
	movabsq	$inName, %rcx
	movq	%rax, %r8
	movb	$0, %al
	callq	fprintf
	movl	$1, %edi
	callq	setExit
	jmp	.LBB59_37
.LBB59_17:                              # %if.end21
	cmpl	$1, srcMode
	je	.LBB59_21
# %bb.18:                               # %if.then24
	movabsq	$inName, %rdi
	leaq	-192(%rbp), %rsi
	callq	stat
	movl	-168(%rbp), %eax
	andl	$61440, %eax            # imm = 0xF000
	cmpl	$16384, %eax            # imm = 0x4000
	jne	.LBB59_20
# %bb.19:                               # %if.then28
	movq	stderr, %rdi
	movq	progName, %rdx
	movabsq	$.L.str.59, %rsi
	movabsq	$inName, %rcx
	movb	$0, %al
	callq	fprintf
	movl	$1, %edi
	callq	setExit
	jmp	.LBB59_37
.LBB59_20:                              # %if.end30
	jmp	.LBB59_21
.LBB59_21:                              # %if.end31
	movl	srcMode(%rip), %eax
	movl	%eax, %ecx
	subl	$1, %ecx
	je	.LBB59_23
	jmp	.LBB59_22
.LBB59_22:                              # %if.end31
	addl	$-2, %eax
	subl	$2, %eax
	jb	.LBB59_26
	jmp	.LBB59_29
.LBB59_23:                              # %sw.bb32
	movq	stdin, %rdi
	callq	fileno
	movl	%eax, %edi
	callq	isatty
	cmpl	$0, %eax
	je	.LBB59_25
# %bb.24:                               # %if.then36
	movq	stderr, %rdi
	movq	progName, %rdx
	movabsq	$.L.str.82, %rsi
	movb	$0, %al
	callq	fprintf
	movq	stderr, %rdi
	movq	progName, %rdx
	movq	progName, %rcx
	movabsq	$.L.str.65, %rsi
	movb	$0, %al
	callq	fprintf
	movl	$1, %edi
	callq	setExit
	jmp	.LBB59_37
.LBB59_25:                              # %if.end39
	movq	stdin, %rax
	movq	%rax, -40(%rbp)
	jmp	.LBB59_30
.LBB59_26:                              # %sw.bb40
	movabsq	$inName, %rdi
	movabsq	$.L.str.66, %rsi
	callq	fopen
	movq	%rax, -40(%rbp)
	cmpq	$0, -40(%rbp)
	jne	.LBB59_28
# %bb.27:                               # %if.then44
	movq	stderr, %rbx
	movq	progName, %r14
	callq	__errno_location
	movl	(%rax), %edi
	callq	strerror
	movq	%rbx, %rdi
	movabsq	$.L.str.83, %rsi
	movq	%r14, %rdx
	movabsq	$inName, %rcx
	movq	%rax, %r8
	movb	$0, %al
	callq	fprintf
	movl	$1, %edi
	callq	setExit
	jmp	.LBB59_37
.LBB59_28:                              # %if.end48
	jmp	.LBB59_30
.LBB59_29:                              # %sw.default
	movabsq	$.L.str.96, %rdi
	callq	panic
.LBB59_30:                              # %sw.epilog49
	cmpl	$1, verbosity
	jl	.LBB59_32
# %bb.31:                               # %if.then52
	movq	stderr, %rdi
	movabsq	$.L.str.70, %rsi
	movabsq	$inName, %rdx
	movb	$0, %al
	callq	fprintf
	movabsq	$inName, %rdi
	callq	pad
	movq	stderr, %rdi
	callq	fflush
.LBB59_32:                              # %if.end55
	movq	$0, outputHandleJustInCase
	movq	-40(%rbp), %rdi
	callq	testStream
	movb	%al, -17(%rbp)
	movzbl	-17(%rbp), %eax
	cmpl	$0, %eax
	je	.LBB59_35
# %bb.33:                               # %land.lhs.true59
	cmpl	$1, verbosity
	jl	.LBB59_35
# %bb.34:                               # %if.then62
	movq	stderr, %rdi
	movabsq	$.L.str.97, %rsi
	movb	$0, %al
	callq	fprintf
.LBB59_35:                              # %if.end64
	cmpb	$0, -17(%rbp)
	jne	.LBB59_37
# %bb.36:                               # %if.then66
	movb	$1, testFailsExist
.LBB59_37:                              # %if.end67
	cmpl	$1199253709, -44(%rbp)  # imm = 0x477B28CD
	jne	.LBB59_39
.LBB59_38:
	addq	$176, %rsp
	popq	%rbx
	popq	%r14
	popq	%rbp
	.cfi_def_cfa %rsp, 8
	retq
.LBB59_39:                              # %func_exit
	.cfi_def_cfa %rbp, 16
	callq	detect_breach
	jmp	.LBB59_38
.Lfunc_end59:
	.size	testf.17, .Lfunc_end59-testf.17
	.cfi_endproc
                                        # -- End function
	.p2align	4, 0x90         # -- Begin function compress.18
	.type	compress.18,@function
compress.18:                            # @compress.18
	.cfi_startproc
# %bb.0:                                # %entry
	pushq	%rbp
	.cfi_def_cfa_offset 16
	.cfi_offset %rbp, -16
	movq	%rsp, %rbp
	.cfi_def_cfa_register %rbp
	pushq	%r14
	pushq	%rbx
	subq	$192, %rsp
	.cfi_offset %rbx, -32
	.cfi_offset %r14, -24
	movl	$803935039, -64(%rbp)   # imm = 0x2FEB133F
	movq	%rdi, -56(%rbp)
	movb	$0, deleteOutputOnInterrupt
	cmpq	$0, -56(%rbp)
	jne	.LBB60_3
# %bb.1:                                # %land.lhs.true
	cmpl	$1, srcMode
	je	.LBB60_3
# %bb.2:                                # %if.then
	movabsq	$.L.str.53, %rdi
	callq	panic
.LBB60_3:                               # %if.end
	movl	srcMode(%rip), %eax
	movl	%eax, %ecx
	subl	$1, %ecx
	je	.LBB60_6
	jmp	.LBB60_4
.LBB60_4:                               # %if.end
	movl	%eax, %ecx
	subl	$2, %ecx
	je	.LBB60_8
	jmp	.LBB60_5
.LBB60_5:                               # %if.end
	subl	$3, %eax
	je	.LBB60_7
	jmp	.LBB60_9
.LBB60_6:                               # %sw.bb
	movabsq	$inName, %rdi
	movabsq	$.L.str.54, %rsi
	callq	copyFileName
	movabsq	$outName, %rdi
	movabsq	$.L.str.55, %rsi
	callq	copyFileName
	jmp	.LBB60_9
.LBB60_7:                               # %sw.bb2
	movq	-56(%rbp), %rsi
	movabsq	$inName, %rdi
	callq	copyFileName
	movq	-56(%rbp), %rsi
	movabsq	$outName, %rdi
	callq	copyFileName
	movabsq	$outName, %rdi
	movabsq	$.L.str.30, %rsi
	callq	strcat
	jmp	.LBB60_9
.LBB60_8:                               # %sw.bb3
	movq	-56(%rbp), %rsi
	movabsq	$inName, %rdi
	callq	copyFileName
	movabsq	$outName, %rdi
	movabsq	$.L.str.55, %rsi
	callq	copyFileName
.LBB60_9:                               # %sw.epilog
	cmpl	$1, srcMode
	je	.LBB60_14
# %bb.10:                               # %land.lhs.true5
	movabsq	$inName, %rdi
	callq	containsDubiousChars
	movzbl	%al, %eax
	cmpl	$0, %eax
	je	.LBB60_14
# %bb.11:                               # %if.then7
	cmpb	$0, noisy
	je	.LBB60_13
# %bb.12:                               # %if.then9
	movq	stderr, %rdi
	movq	progName, %rdx
	movabsq	$.L.str.56, %rsi
	movabsq	$inName, %rcx
	movb	$0, %al
	callq	fprintf
.LBB60_13:                              # %if.end11
	movl	$1, %edi
	callq	setExit
	jmp	.LBB60_80
.LBB60_14:                              # %if.end12
	cmpl	$1, srcMode
	je	.LBB60_17
# %bb.15:                               # %land.lhs.true15
	movabsq	$inName, %rdi
	callq	fileExists
	cmpb	$0, %al
	jne	.LBB60_17
# %bb.16:                               # %if.then18
	movq	stderr, %rbx
	movq	progName, %r14
	callq	__errno_location
	movl	(%rax), %edi
	callq	strerror
	movq	%rbx, %rdi
	movabsq	$.L.str.57, %rsi
	movq	%r14, %rdx
	movabsq	$inName, %rcx
	movq	%rax, %r8
	movb	$0, %al
	callq	fprintf
	movl	$1, %edi
	callq	setExit
	jmp	.LBB60_80
.LBB60_17:                              # %if.end22
	movl	$0, -20(%rbp)
.LBB60_18:                              # %for.cond
                                        # =>This Inner Loop Header: Depth=1
	cmpl	$4, -20(%rbp)
	jge	.LBB60_25
# %bb.19:                               # %for.body
                                        #   in Loop: Header=BB60_18 Depth=1
	movslq	-20(%rbp), %rax
	movq	zSuffix(,%rax,8), %rsi
	movabsq	$inName, %rdi
	callq	hasSuffix
	cmpb	$0, %al
	je	.LBB60_23
# %bb.20:                               # %if.then27
	cmpb	$0, noisy
	je	.LBB60_22
# %bb.21:                               # %if.then29
	movq	stderr, %rdi
	movq	progName, %rdx
	movslq	-20(%rbp), %rax
	movq	zSuffix(,%rax,8), %r8
	movabsq	$.L.str.58, %rsi
	movabsq	$inName, %rcx
	movb	$0, %al
	callq	fprintf
.LBB60_22:                              # %if.end33
	movl	$1, %edi
	callq	setExit
	jmp	.LBB60_80
.LBB60_23:                              # %if.end34
                                        #   in Loop: Header=BB60_18 Depth=1
	jmp	.LBB60_24
.LBB60_24:                              # %for.inc
                                        #   in Loop: Header=BB60_18 Depth=1
	movl	-20(%rbp), %eax
	addl	$1, %eax
	movl	%eax, -20(%rbp)
	jmp	.LBB60_18
.LBB60_25:                              # %for.end
	cmpl	$3, srcMode
	je	.LBB60_27
# %bb.26:                               # %lor.lhs.false
	cmpl	$2, srcMode
	jne	.LBB60_30
.LBB60_27:                              # %if.then39
	movabsq	$inName, %rdi
	leaq	-208(%rbp), %rsi
	callq	stat
	movl	-184(%rbp), %eax
	andl	$61440, %eax            # imm = 0xF000
	cmpl	$16384, %eax            # imm = 0x4000
	jne	.LBB60_29
# %bb.28:                               # %if.then43
	movq	stderr, %rdi
	movq	progName, %rdx
	movabsq	$.L.str.59, %rsi
	movabsq	$inName, %rcx
	movb	$0, %al
	callq	fprintf
	movl	$1, %edi
	callq	setExit
	jmp	.LBB60_80
.LBB60_29:                              # %if.end45
	jmp	.LBB60_30
.LBB60_30:                              # %if.end46
	cmpl	$3, srcMode
	jne	.LBB60_36
# %bb.31:                               # %land.lhs.true49
	cmpb	$0, forceOverwrite
	jne	.LBB60_36
# %bb.32:                               # %land.lhs.true51
	movabsq	$inName, %rdi
	callq	notAStandardFile
	movzbl	%al, %eax
	cmpl	$0, %eax
	je	.LBB60_36
# %bb.33:                               # %if.then55
	cmpb	$0, noisy
	je	.LBB60_35
# %bb.34:                               # %if.then57
	movq	stderr, %rdi
	movq	progName, %rdx
	movabsq	$.L.str.60, %rsi
	movabsq	$inName, %rcx
	movb	$0, %al
	callq	fprintf
.LBB60_35:                              # %if.end59
	movl	$1, %edi
	callq	setExit
	jmp	.LBB60_80
.LBB60_36:                              # %if.end60
	cmpl	$3, srcMode
	jne	.LBB60_42
# %bb.37:                               # %land.lhs.true63
	movabsq	$outName, %rdi
	callq	fileExists
	movzbl	%al, %eax
	cmpl	$0, %eax
	je	.LBB60_42
# %bb.38:                               # %if.then67
	cmpb	$0, forceOverwrite
	je	.LBB60_40
# %bb.39:                               # %if.then69
	movabsq	$outName, %rdi
	callq	remove
	jmp	.LBB60_41
.LBB60_40:                              # %if.else
	movq	stderr, %rdi
	movq	progName, %rdx
	movabsq	$.L.str.61, %rsi
	movabsq	$outName, %rcx
	movb	$0, %al
	callq	fprintf
	movl	$1, %edi
	callq	setExit
	jmp	.LBB60_80
.LBB60_41:                              # %if.end72
	jmp	.LBB60_42
.LBB60_42:                              # %if.end73
	cmpl	$3, srcMode
	jne	.LBB60_46
# %bb.43:                               # %land.lhs.true76
	cmpb	$0, forceOverwrite
	jne	.LBB60_46
# %bb.44:                               # %land.lhs.true78
	movabsq	$inName, %rdi
	callq	countHardLinks
	movl	%eax, -44(%rbp)
	cmpl	$0, %eax
	jle	.LBB60_46
# %bb.45:                               # %if.then82
	movq	stderr, %rdi
	movq	progName, %rdx
	movl	-44(%rbp), %r8d
	movl	-44(%rbp), %eax
	cmpl	$1, %eax
	movabsq	$.L.str.63, %rax
	movabsq	$.L.str.34, %r9
	cmovgq	%rax, %r9
	movabsq	$.L.str.62, %rsi
	movabsq	$inName, %rcx
	movb	$0, %al
	callq	fprintf
	movl	$1, %edi
	callq	setExit
	jmp	.LBB60_80
.LBB60_46:                              # %if.end86
	cmpl	$3, srcMode
	jne	.LBB60_48
# %bb.47:                               # %if.then89
	movabsq	$inName, %rdi
	callq	saveInputFileMetaInfo
.LBB60_48:                              # %if.end90
	movl	srcMode(%rip), %eax
	movl	%eax, %ecx
	subl	$1, %ecx
	je	.LBB60_51
	jmp	.LBB60_49
.LBB60_49:                              # %if.end90
	movl	%eax, %ecx
	subl	$2, %ecx
	je	.LBB60_54
	jmp	.LBB60_50
.LBB60_50:                              # %if.end90
	subl	$3, %eax
	je	.LBB60_61
	jmp	.LBB60_70
.LBB60_51:                              # %sw.bb91
	movq	stdin, %rax
	movq	%rax, -32(%rbp)
	movq	stdout, %rax
	movq	%rax, -40(%rbp)
	movq	stdout, %rdi
	callq	fileno
	movl	%eax, %edi
	callq	isatty
	cmpl	$0, %eax
	je	.LBB60_53
# %bb.52:                               # %if.then95
	movq	stderr, %rdi
	movq	progName, %rdx
	movabsq	$.L.str.64, %rsi
	movb	$0, %al
	callq	fprintf
	movq	stderr, %rdi
	movq	progName, %rdx
	movq	progName, %rcx
	movabsq	$.L.str.65, %rsi
	movb	$0, %al
	callq	fprintf
	movl	$1, %edi
	callq	setExit
	jmp	.LBB60_80
.LBB60_53:                              # %if.end98
	jmp	.LBB60_71
.LBB60_54:                              # %sw.bb99
	movabsq	$inName, %rdi
	movabsq	$.L.str.66, %rsi
	callq	fopen
	movq	%rax, -32(%rbp)
	movq	stdout, %rax
	movq	%rax, -40(%rbp)
	movq	stdout, %rdi
	callq	fileno
	movl	%eax, %edi
	callq	isatty
	cmpl	$0, %eax
	je	.LBB60_58
# %bb.55:                               # %if.then104
	movq	stderr, %rdi
	movq	progName, %rdx
	movabsq	$.L.str.64, %rsi
	movb	$0, %al
	callq	fprintf
	movq	stderr, %rdi
	movq	progName, %rdx
	movq	progName, %rcx
	movabsq	$.L.str.65, %rsi
	movb	$0, %al
	callq	fprintf
	cmpq	$0, -32(%rbp)
	je	.LBB60_57
# %bb.56:                               # %if.then109
	movq	-32(%rbp), %rdi
	callq	fclose
.LBB60_57:                              # %if.end111
	movl	$1, %edi
	callq	setExit
	jmp	.LBB60_80
.LBB60_58:                              # %if.end112
	cmpq	$0, -32(%rbp)
	jne	.LBB60_60
# %bb.59:                               # %if.then115
	movq	stderr, %rbx
	movq	progName, %r14
	callq	__errno_location
	movl	(%rax), %edi
	callq	strerror
	movq	%rbx, %rdi
	movabsq	$.L.str.57, %rsi
	movq	%r14, %rdx
	movabsq	$inName, %rcx
	movq	%rax, %r8
	movb	$0, %al
	callq	fprintf
	movl	$1, %edi
	callq	setExit
	jmp	.LBB60_80
.LBB60_60:                              # %if.end119
	jmp	.LBB60_71
.LBB60_61:                              # %sw.bb120
	movabsq	$inName, %rdi
	movabsq	$.L.str.66, %rsi
	callq	fopen
	movq	%rax, -32(%rbp)
	movabsq	$outName, %rdi
	movabsq	$.L.str.67, %rsi
	callq	fopen_output_safely
	movq	%rax, -40(%rbp)
	cmpq	$0, -40(%rbp)
	jne	.LBB60_65
# %bb.62:                               # %if.then125
	movq	stderr, %rbx
	movq	progName, %r14
	callq	__errno_location
	movl	(%rax), %edi
	callq	strerror
	movq	%rbx, %rdi
	movabsq	$.L.str.68, %rsi
	movq	%r14, %rdx
	movabsq	$outName, %rcx
	movq	%rax, %r8
	movb	$0, %al
	callq	fprintf
	cmpq	$0, -32(%rbp)
	je	.LBB60_64
# %bb.63:                               # %if.then131
	movq	-32(%rbp), %rdi
	callq	fclose
.LBB60_64:                              # %if.end133
	movl	$1, %edi
	callq	setExit
	jmp	.LBB60_80
.LBB60_65:                              # %if.end134
	cmpq	$0, -32(%rbp)
	jne	.LBB60_69
# %bb.66:                               # %if.then137
	movq	stderr, %rbx
	movq	progName, %r14
	callq	__errno_location
	movl	(%rax), %edi
	callq	strerror
	movq	%rbx, %rdi
	movabsq	$.L.str.57, %rsi
	movq	%r14, %rdx
	movabsq	$inName, %rcx
	movq	%rax, %r8
	movb	$0, %al
	callq	fprintf
	cmpq	$0, -40(%rbp)
	je	.LBB60_68
# %bb.67:                               # %if.then143
	movq	-40(%rbp), %rdi
	callq	fclose
.LBB60_68:                              # %if.end145
	movl	$1, %edi
	callq	setExit
	jmp	.LBB60_80
.LBB60_69:                              # %if.end146
	jmp	.LBB60_71
.LBB60_70:                              # %sw.default
	movabsq	$.L.str.69, %rdi
	callq	panic
.LBB60_71:                              # %sw.epilog147
	cmpl	$1, verbosity
	jl	.LBB60_73
# %bb.72:                               # %if.then150
	movq	stderr, %rdi
	movabsq	$.L.str.70, %rsi
	movabsq	$inName, %rdx
	movb	$0, %al
	callq	fprintf
	movabsq	$inName, %rdi
	callq	pad
	movq	stderr, %rdi
	callq	fflush
.LBB60_73:                              # %if.end153
	movq	-40(%rbp), %rax
	movq	%rax, outputHandleJustInCase
	movb	$1, deleteOutputOnInterrupt
	movq	-32(%rbp), %rdi
	movq	-40(%rbp), %rsi
	callq	compressStream
	movq	$0, outputHandleJustInCase
	cmpl	$3, srcMode
	jne	.LBB60_79
# %bb.74:                               # %if.then156
	movabsq	$outName, %rdi
	callq	applySavedMetaInfoToOutputFile
	movb	$0, deleteOutputOnInterrupt
	cmpb	$0, keepInputFiles
	jne	.LBB60_78
# %bb.75:                               # %if.then158
	movabsq	$inName, %rdi
	callq	remove
	movl	%eax, -60(%rbp)
	cmpl	$0, -60(%rbp)
	je	.LBB60_77
# %bb.76:                               # %if.then162
	callq	ioError
.LBB60_77:                              # %if.end163
	jmp	.LBB60_78
.LBB60_78:                              # %if.end164
	jmp	.LBB60_79
.LBB60_79:                              # %if.end165
	movb	$0, deleteOutputOnInterrupt
.LBB60_80:                              # %return
	cmpl	$803935039, -64(%rbp)   # imm = 0x2FEB133F
	jne	.LBB60_82
.LBB60_81:
	addq	$192, %rsp
	popq	%rbx
	popq	%r14
	popq	%rbp
	.cfi_def_cfa %rsp, 8
	retq
.LBB60_82:                              # %func_exit
	.cfi_def_cfa %rbp, 16
	callq	detect_breach
	jmp	.LBB60_81
.Lfunc_end60:
	.size	compress.18, .Lfunc_end60-compress.18
	.cfi_endproc
                                        # -- End function
	.p2align	4, 0x90         # -- Begin function addFlagsFromEnvVar.19
	.type	addFlagsFromEnvVar.19,@function
addFlagsFromEnvVar.19:                  # @addFlagsFromEnvVar.19
	.cfi_startproc
# %bb.0:                                # %entry
	pushq	%rbp
	.cfi_def_cfa_offset 16
	.cfi_offset %rbp, -16
	movq	%rsp, %rbp
	.cfi_def_cfa_register %rbp
	subq	$48, %rsp
	movl	$1785691593, -24(%rbp)  # imm = 0x6A6F7DC9
	movq	%rdi, -40(%rbp)
	movq	%rsi, -48(%rbp)
	movq	-48(%rbp), %rdi
	callq	getenv
	movq	%rax, -32(%rbp)
	cmpq	$0, -32(%rbp)
	je	.LBB61_22
# %bb.1:                                # %if.then
	movq	-32(%rbp), %rax
	movq	%rax, -16(%rbp)
	movl	$0, -4(%rbp)
.LBB61_2:                               # %while.body
                                        # =>This Loop Header: Depth=1
                                        #     Child Loop BB61_5 Depth 2
                                        #     Child Loop BB61_8 Depth 2
                                        #     Child Loop BB61_16 Depth 2
	movq	-16(%rbp), %rax
	movslq	-4(%rbp), %rcx
	movsbl	(%rax,%rcx), %eax
	cmpl	$0, %eax
	jne	.LBB61_4
# %bb.3:                                # %if.then3
	jmp	.LBB61_21
.LBB61_4:                               # %if.end
                                        #   in Loop: Header=BB61_2 Depth=1
	movl	-4(%rbp), %eax
	movq	-16(%rbp), %rcx
	cltq
	addq	%rax, %rcx
	movq	%rcx, -16(%rbp)
	movl	$0, -4(%rbp)
.LBB61_5:                               # %while.cond4
                                        #   Parent Loop BB61_2 Depth=1
                                        # =>  This Inner Loop Header: Depth=2
	callq	__ctype_b_loc
	movq	(%rax), %rax
	movq	-16(%rbp), %rcx
	movsbl	(%rcx), %ecx
	movslq	%ecx, %rcx
	movzwl	(%rax,%rcx,2), %eax
	andl	$8192, %eax             # imm = 0x2000
	cmpl	$0, %eax
	je	.LBB61_7
# %bb.6:                                # %while.body11
                                        #   in Loop: Header=BB61_5 Depth=2
	movq	-16(%rbp), %rax
	addq	$1, %rax
	movq	%rax, -16(%rbp)
	jmp	.LBB61_5
.LBB61_7:                               # %while.end
                                        #   in Loop: Header=BB61_2 Depth=1
	jmp	.LBB61_8
.LBB61_8:                               # %while.cond12
                                        #   Parent Loop BB61_2 Depth=1
                                        # =>  This Inner Loop Header: Depth=2
	xorl	%eax, %eax
	movq	-16(%rbp), %rcx
	movslq	-4(%rbp), %rdx
	movsbl	(%rcx,%rdx), %ecx
	cmpl	$0, %ecx
	je	.LBB61_10
# %bb.9:                                # %land.rhs
                                        #   in Loop: Header=BB61_8 Depth=2
	callq	__ctype_b_loc
	movq	(%rax), %rax
	movq	-16(%rbp), %rcx
	movslq	-4(%rbp), %rdx
	movsbl	(%rcx,%rdx), %ecx
	movslq	%ecx, %rcx
	movzwl	(%rax,%rcx,2), %eax
	andl	$8192, %eax             # imm = 0x2000
	cmpl	$0, %eax
	setne	%al
	xorb	$-1, %al
.LBB61_10:                              # %land.end
                                        #   in Loop: Header=BB61_8 Depth=2
	testb	$1, %al
	jne	.LBB61_11
	jmp	.LBB61_12
.LBB61_11:                              # %while.body27
                                        #   in Loop: Header=BB61_8 Depth=2
	movl	-4(%rbp), %eax
	addl	$1, %eax
	movl	%eax, -4(%rbp)
	jmp	.LBB61_8
.LBB61_12:                              # %while.end28
                                        #   in Loop: Header=BB61_2 Depth=1
	cmpl	$0, -4(%rbp)
	jle	.LBB61_20
# %bb.13:                               # %if.then31
                                        #   in Loop: Header=BB61_2 Depth=1
	movl	-4(%rbp), %eax
	movl	%eax, -20(%rbp)
	cmpl	$1024, -20(%rbp)        # imm = 0x400
	jle	.LBB61_15
# %bb.14:                               # %if.then34
                                        #   in Loop: Header=BB61_2 Depth=1
	movl	$1024, -20(%rbp)        # imm = 0x400
.LBB61_15:                              # %if.end35
                                        #   in Loop: Header=BB61_2 Depth=1
	movl	$0, -8(%rbp)
.LBB61_16:                              # %for.cond
                                        #   Parent Loop BB61_2 Depth=1
                                        # =>  This Inner Loop Header: Depth=2
	movl	-8(%rbp), %eax
	cmpl	-20(%rbp), %eax
	jge	.LBB61_19
# %bb.17:                               # %for.body
                                        #   in Loop: Header=BB61_16 Depth=2
	movq	-16(%rbp), %rax
	movslq	-8(%rbp), %rcx
	movb	(%rax,%rcx), %al
	movslq	-8(%rbp), %rcx
	movb	%al, tmpName(,%rcx)
# %bb.18:                               # %for.inc
                                        #   in Loop: Header=BB61_16 Depth=2
	movl	-8(%rbp), %eax
	addl	$1, %eax
	movl	%eax, -8(%rbp)
	jmp	.LBB61_16
.LBB61_19:                              # %for.end
                                        #   in Loop: Header=BB61_2 Depth=1
	movslq	-20(%rbp), %rax
	movb	$0, tmpName(,%rax)
	movq	-40(%rbp), %rax
	movq	(%rax), %rdi
	movabsq	$tmpName, %rsi
	callq	snocString
	movq	-40(%rbp), %rcx
	movq	%rax, (%rcx)
.LBB61_20:                              # %if.end46
                                        #   in Loop: Header=BB61_2 Depth=1
	jmp	.LBB61_2
.LBB61_21:                              # %while.end47
	jmp	.LBB61_22
.LBB61_22:                              # %if.end48
	cmpl	$1785691593, -24(%rbp)  # imm = 0x6A6F7DC9
	jne	.LBB61_24
.LBB61_23:
	addq	$48, %rsp
	popq	%rbp
	.cfi_def_cfa %rsp, 8
	retq
.LBB61_24:                              # %func_exit
	.cfi_def_cfa %rbp, 16
	callq	detect_breach
	jmp	.LBB61_23
.Lfunc_end61:
	.size	addFlagsFromEnvVar.19, .Lfunc_end61-addFlagsFromEnvVar.19
	.cfi_endproc
                                        # -- End function
	.p2align	4, 0x90         # -- Begin function addFlagsFromEnvVar.20
	.type	addFlagsFromEnvVar.20,@function
addFlagsFromEnvVar.20:                  # @addFlagsFromEnvVar.20
	.cfi_startproc
# %bb.0:                                # %entry
	pushq	%rbp
	.cfi_def_cfa_offset 16
	.cfi_offset %rbp, -16
	movq	%rsp, %rbp
	.cfi_def_cfa_register %rbp
	subq	$48, %rsp
	movl	$1579596887, -24(%rbp)  # imm = 0x5E26BC57
	movq	%rdi, -40(%rbp)
	movq	%rsi, -48(%rbp)
	movq	-48(%rbp), %rdi
	callq	getenv
	movq	%rax, -32(%rbp)
	cmpq	$0, -32(%rbp)
	je	.LBB62_22
# %bb.1:                                # %if.then
	movq	-32(%rbp), %rax
	movq	%rax, -16(%rbp)
	movl	$0, -4(%rbp)
.LBB62_2:                               # %while.body
                                        # =>This Loop Header: Depth=1
                                        #     Child Loop BB62_5 Depth 2
                                        #     Child Loop BB62_8 Depth 2
                                        #     Child Loop BB62_16 Depth 2
	movq	-16(%rbp), %rax
	movslq	-4(%rbp), %rcx
	movsbl	(%rax,%rcx), %eax
	cmpl	$0, %eax
	jne	.LBB62_4
# %bb.3:                                # %if.then3
	jmp	.LBB62_21
.LBB62_4:                               # %if.end
                                        #   in Loop: Header=BB62_2 Depth=1
	movl	-4(%rbp), %eax
	movq	-16(%rbp), %rcx
	cltq
	addq	%rax, %rcx
	movq	%rcx, -16(%rbp)
	movl	$0, -4(%rbp)
.LBB62_5:                               # %while.cond4
                                        #   Parent Loop BB62_2 Depth=1
                                        # =>  This Inner Loop Header: Depth=2
	callq	__ctype_b_loc
	movq	(%rax), %rax
	movq	-16(%rbp), %rcx
	movsbl	(%rcx), %ecx
	movslq	%ecx, %rcx
	movzwl	(%rax,%rcx,2), %eax
	andl	$8192, %eax             # imm = 0x2000
	cmpl	$0, %eax
	je	.LBB62_7
# %bb.6:                                # %while.body11
                                        #   in Loop: Header=BB62_5 Depth=2
	movq	-16(%rbp), %rax
	addq	$1, %rax
	movq	%rax, -16(%rbp)
	jmp	.LBB62_5
.LBB62_7:                               # %while.end
                                        #   in Loop: Header=BB62_2 Depth=1
	jmp	.LBB62_8
.LBB62_8:                               # %while.cond12
                                        #   Parent Loop BB62_2 Depth=1
                                        # =>  This Inner Loop Header: Depth=2
	xorl	%eax, %eax
	movq	-16(%rbp), %rcx
	movslq	-4(%rbp), %rdx
	movsbl	(%rcx,%rdx), %ecx
	cmpl	$0, %ecx
	je	.LBB62_10
# %bb.9:                                # %land.rhs
                                        #   in Loop: Header=BB62_8 Depth=2
	callq	__ctype_b_loc
	movq	(%rax), %rax
	movq	-16(%rbp), %rcx
	movslq	-4(%rbp), %rdx
	movsbl	(%rcx,%rdx), %ecx
	movslq	%ecx, %rcx
	movzwl	(%rax,%rcx,2), %eax
	andl	$8192, %eax             # imm = 0x2000
	cmpl	$0, %eax
	setne	%al
	xorb	$-1, %al
.LBB62_10:                              # %land.end
                                        #   in Loop: Header=BB62_8 Depth=2
	testb	$1, %al
	jne	.LBB62_11
	jmp	.LBB62_12
.LBB62_11:                              # %while.body27
                                        #   in Loop: Header=BB62_8 Depth=2
	movl	-4(%rbp), %eax
	addl	$1, %eax
	movl	%eax, -4(%rbp)
	jmp	.LBB62_8
.LBB62_12:                              # %while.end28
                                        #   in Loop: Header=BB62_2 Depth=1
	cmpl	$0, -4(%rbp)
	jle	.LBB62_20
# %bb.13:                               # %if.then31
                                        #   in Loop: Header=BB62_2 Depth=1
	movl	-4(%rbp), %eax
	movl	%eax, -20(%rbp)
	cmpl	$1024, -20(%rbp)        # imm = 0x400
	jle	.LBB62_15
# %bb.14:                               # %if.then34
                                        #   in Loop: Header=BB62_2 Depth=1
	movl	$1024, -20(%rbp)        # imm = 0x400
.LBB62_15:                              # %if.end35
                                        #   in Loop: Header=BB62_2 Depth=1
	movl	$0, -8(%rbp)
.LBB62_16:                              # %for.cond
                                        #   Parent Loop BB62_2 Depth=1
                                        # =>  This Inner Loop Header: Depth=2
	movl	-8(%rbp), %eax
	cmpl	-20(%rbp), %eax
	jge	.LBB62_19
# %bb.17:                               # %for.body
                                        #   in Loop: Header=BB62_16 Depth=2
	movq	-16(%rbp), %rax
	movslq	-8(%rbp), %rcx
	movb	(%rax,%rcx), %al
	movslq	-8(%rbp), %rcx
	movb	%al, tmpName(,%rcx)
# %bb.18:                               # %for.inc
                                        #   in Loop: Header=BB62_16 Depth=2
	movl	-8(%rbp), %eax
	addl	$1, %eax
	movl	%eax, -8(%rbp)
	jmp	.LBB62_16
.LBB62_19:                              # %for.end
                                        #   in Loop: Header=BB62_2 Depth=1
	movslq	-20(%rbp), %rax
	movb	$0, tmpName(,%rax)
	movq	-40(%rbp), %rax
	movq	(%rax), %rdi
	movabsq	$tmpName, %rsi
	callq	snocString
	movq	-40(%rbp), %rcx
	movq	%rax, (%rcx)
.LBB62_20:                              # %if.end46
                                        #   in Loop: Header=BB62_2 Depth=1
	jmp	.LBB62_2
.LBB62_21:                              # %while.end47
	jmp	.LBB62_22
.LBB62_22:                              # %if.end48
	cmpl	$1579596887, -24(%rbp)  # imm = 0x5E26BC57
	jne	.LBB62_24
.LBB62_23:
	addq	$48, %rsp
	popq	%rbp
	.cfi_def_cfa %rsp, 8
	retq
.LBB62_24:                              # %func_exit
	.cfi_def_cfa %rbp, 16
	callq	detect_breach
	jmp	.LBB62_23
.Lfunc_end62:
	.size	addFlagsFromEnvVar.20, .Lfunc_end62-addFlagsFromEnvVar.20
	.cfi_endproc
                                        # -- End function
	.p2align	4, 0x90         # -- Begin function countHardLinks.21
	.type	countHardLinks.21,@function
countHardLinks.21:                      # @countHardLinks.21
	.cfi_startproc
# %bb.0:                                # %entry
	pushq	%rbp
	.cfi_def_cfa_offset 16
	.cfi_offset %rbp, -16
	movq	%rsp, %rbp
	.cfi_def_cfa_register %rbp
	pushq	%rbx
	subq	$168, %rsp
	.cfi_offset %rbx, -24
	movl	$329400284, -20(%rbp)   # imm = 0x13A23FDC
	movq	%rdi, -32(%rbp)
	movq	-32(%rbp), %rdi
	leaq	-176(%rbp), %rsi
	callq	lstat
	movl	%eax, -16(%rbp)
	cmpl	$0, -16(%rbp)
	je	.LBB63_2
# %bb.1:                                # %if.then
	movl	$0, -12(%rbp)
	jmp	.LBB63_3
.LBB63_2:                               # %if.end
	movq	-160(%rbp), %rax
	subq	$1, %rax
	movl	%eax, -12(%rbp)
.LBB63_3:                               # %return
	movl	-12(%rbp), %ebx
	cmpl	$329400284, -20(%rbp)   # imm = 0x13A23FDC
	jne	.LBB63_5
.LBB63_4:
	movl	%ebx, %eax
	addq	$168, %rsp
	popq	%rbx
	popq	%rbp
	.cfi_def_cfa %rsp, 8
	retq
.LBB63_5:                               # %func_exit
	.cfi_def_cfa %rbp, 16
	callq	detect_breach
	jmp	.LBB63_4
.Lfunc_end63:
	.size	countHardLinks.21, .Lfunc_end63-countHardLinks.21
	.cfi_endproc
                                        # -- End function
	.p2align	4, 0x90         # -- Begin function mapSuffix.22
	.type	mapSuffix.22,@function
mapSuffix.22:                           # @mapSuffix.22
	.cfi_startproc
# %bb.0:                                # %entry
	pushq	%rbp
	.cfi_def_cfa_offset 16
	.cfi_offset %rbp, -16
	movq	%rsp, %rbp
	.cfi_def_cfa_register %rbp
	pushq	%r14
	pushq	%rbx
	subq	$48, %rsp
	.cfi_offset %rbx, -32
	.cfi_offset %r14, -24
	movl	$1243794193, -36(%rbp)  # imm = 0x4A22CB11
	movq	%rdi, -32(%rbp)
	movq	%rsi, -48(%rbp)
	movq	%rdx, -56(%rbp)
	movq	-32(%rbp), %rdi
	movq	-48(%rbp), %rsi
	callq	hasSuffix
	cmpb	$0, %al
	jne	.LBB64_2
# %bb.1:                                # %if.then
	movb	$0, -17(%rbp)
	jmp	.LBB64_3
.LBB64_2:                               # %if.end
	movq	-32(%rbp), %r14
	movq	-32(%rbp), %rdi
	callq	strlen
	movq	%rax, %rbx
	movq	-48(%rbp), %rdi
	callq	strlen
	subq	%rax, %rbx
	movb	$0, (%r14,%rbx)
	movq	-32(%rbp), %rdi
	movq	-56(%rbp), %rsi
	callq	strcat
	movb	$1, -17(%rbp)
.LBB64_3:                               # %return
	movb	-17(%rbp), %bl
	cmpl	$1243794193, -36(%rbp)  # imm = 0x4A22CB11
	jne	.LBB64_5
.LBB64_4:
	movzbl	%bl, %eax
	addq	$48, %rsp
	popq	%rbx
	popq	%r14
	popq	%rbp
	.cfi_def_cfa %rsp, 8
	retq
.LBB64_5:                               # %func_exit
	.cfi_def_cfa %rbp, 16
	callq	detect_breach
	jmp	.LBB64_4
.Lfunc_end64:
	.size	mapSuffix.22, .Lfunc_end64-mapSuffix.22
	.cfi_endproc
                                        # -- End function
	.p2align	4, 0x90         # -- Begin function uncompress.23
	.type	uncompress.23,@function
uncompress.23:                          # @uncompress.23
	.cfi_startproc
# %bb.0:                                # %entry
	pushq	%rbp
	.cfi_def_cfa_offset 16
	.cfi_offset %rbp, -16
	movq	%rsp, %rbp
	.cfi_def_cfa_register %rbp
	pushq	%r14
	pushq	%rbx
	subq	$208, %rsp
	.cfi_offset %rbx, -32
	.cfi_offset %r14, -24
	movl	$778623116, -64(%rbp)   # imm = 0x2E68D88C
	movq	%rdi, -56(%rbp)
	movb	$0, deleteOutputOnInterrupt
	cmpq	$0, -56(%rbp)
	jne	.LBB65_3
# %bb.1:                                # %land.lhs.true
	cmpl	$1, srcMode
	je	.LBB65_3
# %bb.2:                                # %if.then
	movabsq	$.L.str.79, %rdi
	callq	panic
.LBB65_3:                               # %if.end
	movb	$0, -17(%rbp)
	movl	srcMode(%rip), %eax
	movl	%eax, %ecx
	subl	$1, %ecx
	je	.LBB65_6
	jmp	.LBB65_4
.LBB65_4:                               # %if.end
	movl	%eax, %ecx
	subl	$2, %ecx
	je	.LBB65_14
	jmp	.LBB65_5
.LBB65_5:                               # %if.end
	subl	$3, %eax
	je	.LBB65_7
	jmp	.LBB65_15
.LBB65_6:                               # %sw.bb
	movabsq	$inName, %rdi
	movabsq	$.L.str.54, %rsi
	callq	copyFileName
	movabsq	$outName, %rdi
	movabsq	$.L.str.55, %rsi
	callq	copyFileName
	jmp	.LBB65_15
.LBB65_7:                               # %sw.bb2
	movq	-56(%rbp), %rsi
	movabsq	$inName, %rdi
	callq	copyFileName
	movq	-56(%rbp), %rsi
	movabsq	$outName, %rdi
	callq	copyFileName
	movl	$0, -24(%rbp)
.LBB65_8:                               # %for.cond
                                        # =>This Inner Loop Header: Depth=1
	cmpl	$4, -24(%rbp)
	jge	.LBB65_13
# %bb.9:                                # %for.body
                                        #   in Loop: Header=BB65_8 Depth=1
	movslq	-24(%rbp), %rax
	movq	zSuffix(,%rax,8), %rsi
	movslq	-24(%rbp), %rax
	movq	unzSuffix(,%rax,8), %rdx
	movabsq	$outName, %rdi
	callq	mapSuffix
	cmpb	$0, %al
	je	.LBB65_11
# %bb.10:                               # %if.then6
	jmp	.LBB65_16
.LBB65_11:                              # %if.end7
                                        #   in Loop: Header=BB65_8 Depth=1
	jmp	.LBB65_12
.LBB65_12:                              # %for.inc
                                        #   in Loop: Header=BB65_8 Depth=1
	movl	-24(%rbp), %eax
	addl	$1, %eax
	movl	%eax, -24(%rbp)
	jmp	.LBB65_8
.LBB65_13:                              # %for.end
	movb	$1, -17(%rbp)
	movabsq	$outName, %rdi
	movabsq	$.L.str.80, %rsi
	callq	strcat
	jmp	.LBB65_15
.LBB65_14:                              # %sw.bb9
	movq	-56(%rbp), %rsi
	movabsq	$inName, %rdi
	callq	copyFileName
	movabsq	$outName, %rdi
	movabsq	$.L.str.55, %rsi
	callq	copyFileName
.LBB65_15:                              # %sw.epilog
	jmp	.LBB65_16
.LBB65_16:                              # %zzz
	cmpl	$1, srcMode
	je	.LBB65_21
# %bb.17:                               # %land.lhs.true11
	movabsq	$inName, %rdi
	callq	containsDubiousChars
	movzbl	%al, %eax
	cmpl	$0, %eax
	je	.LBB65_21
# %bb.18:                               # %if.then14
	cmpb	$0, noisy
	je	.LBB65_20
# %bb.19:                               # %if.then16
	movq	stderr, %rdi
	movq	progName, %rdx
	movabsq	$.L.str.56, %rsi
	movabsq	$inName, %rcx
	movb	$0, %al
	callq	fprintf
.LBB65_20:                              # %if.end18
	movl	$1, %edi
	callq	setExit
	jmp	.LBB65_95
.LBB65_21:                              # %if.end19
	cmpl	$1, srcMode
	je	.LBB65_24
# %bb.22:                               # %land.lhs.true22
	movabsq	$inName, %rdi
	callq	fileExists
	cmpb	$0, %al
	jne	.LBB65_24
# %bb.23:                               # %if.then25
	movq	stderr, %rbx
	movq	progName, %r14
	callq	__errno_location
	movl	(%rax), %edi
	callq	strerror
	movq	%rbx, %rdi
	movabsq	$.L.str.57, %rsi
	movq	%r14, %rdx
	movabsq	$inName, %rcx
	movq	%rax, %r8
	movb	$0, %al
	callq	fprintf
	movl	$1, %edi
	callq	setExit
	jmp	.LBB65_95
.LBB65_24:                              # %if.end29
	cmpl	$3, srcMode
	je	.LBB65_26
# %bb.25:                               # %lor.lhs.false
	cmpl	$2, srcMode
	jne	.LBB65_29
.LBB65_26:                              # %if.then34
	movabsq	$inName, %rdi
	leaq	-216(%rbp), %rsi
	callq	stat
	movl	-192(%rbp), %eax
	andl	$61440, %eax            # imm = 0xF000
	cmpl	$16384, %eax            # imm = 0x4000
	jne	.LBB65_28
# %bb.27:                               # %if.then38
	movq	stderr, %rdi
	movq	progName, %rdx
	movabsq	$.L.str.59, %rsi
	movabsq	$inName, %rcx
	movb	$0, %al
	callq	fprintf
	movl	$1, %edi
	callq	setExit
	jmp	.LBB65_95
.LBB65_28:                              # %if.end40
	jmp	.LBB65_29
.LBB65_29:                              # %if.end41
	cmpl	$3, srcMode
	jne	.LBB65_35
# %bb.30:                               # %land.lhs.true44
	cmpb	$0, forceOverwrite
	jne	.LBB65_35
# %bb.31:                               # %land.lhs.true46
	movabsq	$inName, %rdi
	callq	notAStandardFile
	movzbl	%al, %eax
	cmpl	$0, %eax
	je	.LBB65_35
# %bb.32:                               # %if.then50
	cmpb	$0, noisy
	je	.LBB65_34
# %bb.33:                               # %if.then52
	movq	stderr, %rdi
	movq	progName, %rdx
	movabsq	$.L.str.60, %rsi
	movabsq	$inName, %rcx
	movb	$0, %al
	callq	fprintf
.LBB65_34:                              # %if.end54
	movl	$1, %edi
	callq	setExit
	jmp	.LBB65_95
.LBB65_35:                              # %if.end55
	cmpb	$0, -17(%rbp)
	je	.LBB65_39
# %bb.36:                               # %if.then57
	cmpb	$0, noisy
	je	.LBB65_38
# %bb.37:                               # %if.then59
	movq	stderr, %rdi
	movq	progName, %rdx
	movabsq	$.L.str.81, %rsi
	movabsq	$inName, %rcx
	movabsq	$outName, %r8
	movb	$0, %al
	callq	fprintf
.LBB65_38:                              # %if.end61
	jmp	.LBB65_39
.LBB65_39:                              # %if.end62
	cmpl	$3, srcMode
	jne	.LBB65_45
# %bb.40:                               # %land.lhs.true65
	movabsq	$outName, %rdi
	callq	fileExists
	movzbl	%al, %eax
	cmpl	$0, %eax
	je	.LBB65_45
# %bb.41:                               # %if.then69
	cmpb	$0, forceOverwrite
	je	.LBB65_43
# %bb.42:                               # %if.then71
	movabsq	$outName, %rdi
	callq	remove
	jmp	.LBB65_44
.LBB65_43:                              # %if.else
	movq	stderr, %rdi
	movq	progName, %rdx
	movabsq	$.L.str.61, %rsi
	movabsq	$outName, %rcx
	movb	$0, %al
	callq	fprintf
	movl	$1, %edi
	callq	setExit
	jmp	.LBB65_95
.LBB65_44:                              # %if.end74
	jmp	.LBB65_45
.LBB65_45:                              # %if.end75
	cmpl	$3, srcMode
	jne	.LBB65_49
# %bb.46:                               # %land.lhs.true78
	cmpb	$0, forceOverwrite
	jne	.LBB65_49
# %bb.47:                               # %land.lhs.true80
	movabsq	$inName, %rdi
	callq	countHardLinks
	movl	%eax, -44(%rbp)
	cmpl	$0, %eax
	jle	.LBB65_49
# %bb.48:                               # %if.then84
	movq	stderr, %rdi
	movq	progName, %rdx
	movl	-44(%rbp), %r8d
	movl	-44(%rbp), %eax
	cmpl	$1, %eax
	movabsq	$.L.str.63, %rax
	movabsq	$.L.str.34, %r9
	cmovgq	%rax, %r9
	movabsq	$.L.str.62, %rsi
	movabsq	$inName, %rcx
	movb	$0, %al
	callq	fprintf
	movl	$1, %edi
	callq	setExit
	jmp	.LBB65_95
.LBB65_49:                              # %if.end88
	cmpl	$3, srcMode
	jne	.LBB65_51
# %bb.50:                               # %if.then91
	movabsq	$inName, %rdi
	callq	saveInputFileMetaInfo
.LBB65_51:                              # %if.end92
	movl	srcMode(%rip), %eax
	movl	%eax, %ecx
	subl	$1, %ecx
	je	.LBB65_54
	jmp	.LBB65_52
.LBB65_52:                              # %if.end92
	movl	%eax, %ecx
	subl	$2, %ecx
	je	.LBB65_57
	jmp	.LBB65_53
.LBB65_53:                              # %if.end92
	subl	$3, %eax
	je	.LBB65_62
	jmp	.LBB65_71
.LBB65_54:                              # %sw.bb93
	movq	stdin, %rax
	movq	%rax, -32(%rbp)
	movq	stdout, %rax
	movq	%rax, -40(%rbp)
	movq	stdin, %rdi
	callq	fileno
	movl	%eax, %edi
	callq	isatty
	cmpl	$0, %eax
	je	.LBB65_56
# %bb.55:                               # %if.then97
	movq	stderr, %rdi
	movq	progName, %rdx
	movabsq	$.L.str.82, %rsi
	movb	$0, %al
	callq	fprintf
	movq	stderr, %rdi
	movq	progName, %rdx
	movq	progName, %rcx
	movabsq	$.L.str.65, %rsi
	movb	$0, %al
	callq	fprintf
	movl	$1, %edi
	callq	setExit
	jmp	.LBB65_95
.LBB65_56:                              # %if.end100
	jmp	.LBB65_72
.LBB65_57:                              # %sw.bb101
	movabsq	$inName, %rdi
	movabsq	$.L.str.66, %rsi
	callq	fopen
	movq	%rax, -32(%rbp)
	movq	stdout, %rax
	movq	%rax, -40(%rbp)
	cmpq	$0, -32(%rbp)
	jne	.LBB65_61
# %bb.58:                               # %if.then105
	movq	stderr, %rbx
	movq	progName, %r14
	callq	__errno_location
	movl	(%rax), %edi
	callq	strerror
	movq	%rbx, %rdi
	movabsq	$.L.str.83, %rsi
	movq	%r14, %rdx
	movabsq	$inName, %rcx
	movq	%rax, %r8
	movb	$0, %al
	callq	fprintf
	cmpq	$0, -32(%rbp)
	je	.LBB65_60
# %bb.59:                               # %if.then111
	movq	-32(%rbp), %rdi
	callq	fclose
.LBB65_60:                              # %if.end113
	movl	$1, %edi
	callq	setExit
	jmp	.LBB65_95
.LBB65_61:                              # %if.end114
	jmp	.LBB65_72
.LBB65_62:                              # %sw.bb115
	movabsq	$inName, %rdi
	movabsq	$.L.str.66, %rsi
	callq	fopen
	movq	%rax, -32(%rbp)
	movabsq	$outName, %rdi
	movabsq	$.L.str.67, %rsi
	callq	fopen_output_safely
	movq	%rax, -40(%rbp)
	cmpq	$0, -40(%rbp)
	jne	.LBB65_66
# %bb.63:                               # %if.then120
	movq	stderr, %rbx
	movq	progName, %r14
	callq	__errno_location
	movl	(%rax), %edi
	callq	strerror
	movq	%rbx, %rdi
	movabsq	$.L.str.68, %rsi
	movq	%r14, %rdx
	movabsq	$outName, %rcx
	movq	%rax, %r8
	movb	$0, %al
	callq	fprintf
	cmpq	$0, -32(%rbp)
	je	.LBB65_65
# %bb.64:                               # %if.then126
	movq	-32(%rbp), %rdi
	callq	fclose
.LBB65_65:                              # %if.end128
	movl	$1, %edi
	callq	setExit
	jmp	.LBB65_95
.LBB65_66:                              # %if.end129
	cmpq	$0, -32(%rbp)
	jne	.LBB65_70
# %bb.67:                               # %if.then132
	movq	stderr, %rbx
	movq	progName, %r14
	callq	__errno_location
	movl	(%rax), %edi
	callq	strerror
	movq	%rbx, %rdi
	movabsq	$.L.str.57, %rsi
	movq	%r14, %rdx
	movabsq	$inName, %rcx
	movq	%rax, %r8
	movb	$0, %al
	callq	fprintf
	cmpq	$0, -40(%rbp)
	je	.LBB65_69
# %bb.68:                               # %if.then138
	movq	-40(%rbp), %rdi
	callq	fclose
.LBB65_69:                              # %if.end140
	movl	$1, %edi
	callq	setExit
	jmp	.LBB65_95
.LBB65_70:                              # %if.end141
	jmp	.LBB65_72
.LBB65_71:                              # %sw.default
	movabsq	$.L.str.84, %rdi
	callq	panic
.LBB65_72:                              # %sw.epilog142
	cmpl	$1, verbosity
	jl	.LBB65_74
# %bb.73:                               # %if.then145
	movq	stderr, %rdi
	movabsq	$.L.str.70, %rsi
	movabsq	$inName, %rdx
	movb	$0, %al
	callq	fprintf
	movabsq	$inName, %rdi
	callq	pad
	movq	stderr, %rdi
	callq	fflush
.LBB65_74:                              # %if.end148
	movq	-40(%rbp), %rax
	movq	%rax, outputHandleJustInCase
	movb	$1, deleteOutputOnInterrupt
	movq	-32(%rbp), %rdi
	movq	-40(%rbp), %rsi
	callq	uncompressStream
	movb	%al, -18(%rbp)
	movq	$0, outputHandleJustInCase
	cmpb	$0, -18(%rbp)
	je	.LBB65_82
# %bb.75:                               # %if.then151
	cmpl	$3, srcMode
	jne	.LBB65_81
# %bb.76:                               # %if.then154
	movabsq	$outName, %rdi
	callq	applySavedMetaInfoToOutputFile
	movb	$0, deleteOutputOnInterrupt
	cmpb	$0, keepInputFiles
	jne	.LBB65_80
# %bb.77:                               # %if.then156
	movabsq	$inName, %rdi
	callq	remove
	movl	%eax, -60(%rbp)
	cmpl	$0, -60(%rbp)
	je	.LBB65_79
# %bb.78:                               # %if.then160
	callq	ioError
.LBB65_79:                              # %if.end161
	jmp	.LBB65_80
.LBB65_80:                              # %if.end162
	jmp	.LBB65_81
.LBB65_81:                              # %if.end163
	jmp	.LBB65_87
.LBB65_82:                              # %if.else164
	movb	$1, unzFailsExist
	movb	$0, deleteOutputOnInterrupt
	cmpl	$3, srcMode
	jne	.LBB65_86
# %bb.83:                               # %if.then167
	movabsq	$outName, %rdi
	callq	remove
	movl	%eax, -68(%rbp)
	cmpl	$0, -68(%rbp)
	je	.LBB65_85
# %bb.84:                               # %if.then172
	callq	ioError
.LBB65_85:                              # %if.end173
	jmp	.LBB65_86
.LBB65_86:                              # %if.end174
	jmp	.LBB65_87
.LBB65_87:                              # %if.end175
	movb	$0, deleteOutputOnInterrupt
	cmpb	$0, -18(%rbp)
	je	.LBB65_91
# %bb.88:                               # %if.then177
	cmpl	$1, verbosity
	jl	.LBB65_90
# %bb.89:                               # %if.then180
	movq	stderr, %rdi
	movabsq	$.L.str.85, %rsi
	movb	$0, %al
	callq	fprintf
.LBB65_90:                              # %if.end182
	jmp	.LBB65_95
.LBB65_91:                              # %if.else183
	movl	$2, %edi
	callq	setExit
	cmpl	$1, verbosity
	jl	.LBB65_93
# %bb.92:                               # %if.then186
	movq	stderr, %rdi
	movabsq	$.L.str.86, %rsi
	movb	$0, %al
	callq	fprintf
	jmp	.LBB65_94
.LBB65_93:                              # %if.else188
	movq	stderr, %rdi
	movq	progName, %rdx
	movabsq	$.L.str.87, %rsi
	movabsq	$inName, %rcx
	movb	$0, %al
	callq	fprintf
.LBB65_94:                              # %if.end190
	jmp	.LBB65_95
.LBB65_95:                              # %if.end191
	cmpl	$778623116, -64(%rbp)   # imm = 0x2E68D88C
	jne	.LBB65_97
.LBB65_96:
	addq	$208, %rsp
	popq	%rbx
	popq	%r14
	popq	%rbp
	.cfi_def_cfa %rsp, 8
	retq
.LBB65_97:                              # %func_exit
	.cfi_def_cfa %rbp, 16
	callq	detect_breach
	jmp	.LBB65_96
.Lfunc_end65:
	.size	uncompress.23, .Lfunc_end65-uncompress.23
	.cfi_endproc
                                        # -- End function
	.p2align	4, 0x90         # -- Begin function mapSuffix.24
	.type	mapSuffix.24,@function
mapSuffix.24:                           # @mapSuffix.24
	.cfi_startproc
# %bb.0:                                # %entry
	pushq	%rbp
	.cfi_def_cfa_offset 16
	.cfi_offset %rbp, -16
	movq	%rsp, %rbp
	.cfi_def_cfa_register %rbp
	pushq	%r14
	pushq	%rbx
	subq	$48, %rsp
	.cfi_offset %rbx, -32
	.cfi_offset %r14, -24
	movl	$321611075, -36(%rbp)   # imm = 0x132B6543
	movq	%rdi, -32(%rbp)
	movq	%rsi, -48(%rbp)
	movq	%rdx, -56(%rbp)
	movq	-32(%rbp), %rdi
	movq	-48(%rbp), %rsi
	callq	hasSuffix
	cmpb	$0, %al
	jne	.LBB66_2
# %bb.1:                                # %if.then
	movb	$0, -17(%rbp)
	jmp	.LBB66_3
.LBB66_2:                               # %if.end
	movq	-32(%rbp), %r14
	movq	-32(%rbp), %rdi
	callq	strlen
	movq	%rax, %rbx
	movq	-48(%rbp), %rdi
	callq	strlen
	subq	%rax, %rbx
	movb	$0, (%r14,%rbx)
	movq	-32(%rbp), %rdi
	movq	-56(%rbp), %rsi
	callq	strcat
	movb	$1, -17(%rbp)
.LBB66_3:                               # %return
	movb	-17(%rbp), %bl
	cmpl	$321611075, -36(%rbp)   # imm = 0x132B6543
	jne	.LBB66_5
.LBB66_4:
	movzbl	%bl, %eax
	addq	$48, %rsp
	popq	%rbx
	popq	%r14
	popq	%rbp
	.cfi_def_cfa %rsp, 8
	retq
.LBB66_5:                               # %func_exit
	.cfi_def_cfa %rbp, 16
	callq	detect_breach
	jmp	.LBB66_4
.Lfunc_end66:
	.size	mapSuffix.24, .Lfunc_end66-mapSuffix.24
	.cfi_endproc
                                        # -- End function
	.p2align	4, 0x90         # -- Begin function countHardLinks.25
	.type	countHardLinks.25,@function
countHardLinks.25:                      # @countHardLinks.25
	.cfi_startproc
# %bb.0:                                # %entry
	pushq	%rbp
	.cfi_def_cfa_offset 16
	.cfi_offset %rbp, -16
	movq	%rsp, %rbp
	.cfi_def_cfa_register %rbp
	pushq	%rbx
	subq	$168, %rsp
	.cfi_offset %rbx, -24
	movl	$315099353, -16(%rbp)   # imm = 0x12C808D9
	movq	%rdi, -32(%rbp)
	movq	-32(%rbp), %rdi
	leaq	-176(%rbp), %rsi
	callq	lstat
	movl	%eax, -20(%rbp)
	cmpl	$0, -20(%rbp)
	je	.LBB67_2
# %bb.1:                                # %if.then
	movl	$0, -12(%rbp)
	jmp	.LBB67_3
.LBB67_2:                               # %if.end
	movq	-160(%rbp), %rax
	subq	$1, %rax
	movl	%eax, -12(%rbp)
.LBB67_3:                               # %return
	movl	-12(%rbp), %ebx
	cmpl	$315099353, -16(%rbp)   # imm = 0x12C808D9
	jne	.LBB67_5
.LBB67_4:
	movl	%ebx, %eax
	addq	$168, %rsp
	popq	%rbx
	popq	%rbp
	.cfi_def_cfa %rsp, 8
	retq
.LBB67_5:                               # %func_exit
	.cfi_def_cfa %rbp, 16
	callq	detect_breach
	jmp	.LBB67_4
.Lfunc_end67:
	.size	countHardLinks.25, .Lfunc_end67-countHardLinks.25
	.cfi_endproc
                                        # -- End function
	.p2align	4, 0x90         # -- Begin function uInt64_from_UInt32s.26
	.type	uInt64_from_UInt32s.26,@function
uInt64_from_UInt32s.26:                 # @uInt64_from_UInt32s.26
	.cfi_startproc
# %bb.0:                                # %entry
	pushq	%rbp
	.cfi_def_cfa_offset 16
	.cfi_offset %rbp, -16
	movq	%rsp, %rbp
	.cfi_def_cfa_register %rbp
	subq	$32, %rsp
	movl	$1798267856, -20(%rbp)  # imm = 0x6B2F63D0
	movq	%rdi, -16(%rbp)
	movl	%esi, -4(%rbp)
	movl	%edx, -8(%rbp)
	movl	-8(%rbp), %eax
	shrl	$24, %eax
	andl	$255, %eax
	movq	-16(%rbp), %rcx
	movb	%al, 7(%rcx)
	movl	-8(%rbp), %eax
	shrl	$16, %eax
	andl	$255, %eax
	movq	-16(%rbp), %rcx
	movb	%al, 6(%rcx)
	movl	-8(%rbp), %eax
	shrl	$8, %eax
	andl	$255, %eax
	movq	-16(%rbp), %rcx
	movb	%al, 5(%rcx)
	movl	-8(%rbp), %eax
	andl	$255, %eax
	movq	-16(%rbp), %rcx
	movb	%al, 4(%rcx)
	movl	-4(%rbp), %eax
	shrl	$24, %eax
	andl	$255, %eax
	movq	-16(%rbp), %rcx
	movb	%al, 3(%rcx)
	movl	-4(%rbp), %eax
	shrl	$16, %eax
	andl	$255, %eax
	movq	-16(%rbp), %rcx
	movb	%al, 2(%rcx)
	movl	-4(%rbp), %eax
	shrl	$8, %eax
	andl	$255, %eax
	movq	-16(%rbp), %rcx
	movb	%al, 1(%rcx)
	movl	-4(%rbp), %eax
	andl	$255, %eax
	movq	-16(%rbp), %rcx
	movb	%al, (%rcx)
	cmpl	$1798267856, -20(%rbp)  # imm = 0x6B2F63D0
	jne	.LBB68_2
.LBB68_1:
	addq	$32, %rsp
	popq	%rbp
	.cfi_def_cfa %rsp, 8
	retq
.LBB68_2:                               # %func_exit
	.cfi_def_cfa %rbp, 16
	callq	detect_breach
	jmp	.LBB68_1
.Lfunc_end68:
	.size	uInt64_from_UInt32s.26, .Lfunc_end68-uInt64_from_UInt32s.26
	.cfi_endproc
                                        # -- End function
	.p2align	4, 0x90         # -- Begin function testStream.27
	.type	testStream.27,@function
testStream.27:                          # @testStream.27
	.cfi_startproc
# %bb.0:                                # %entry
	pushq	%rbp
	.cfi_def_cfa_offset 16
	.cfi_offset %rbp, -16
	movq	%rsp, %rbp
	.cfi_def_cfa_register %rbp
	pushq	%rbx
	subq	$10088, %rsp            # imm = 0x2768
	.cfi_offset %rbx, -24
	movl	$557884421, -56(%rbp)   # imm = 0x2140A405
	movq	%rdi, -32(%rbp)
	movq	$0, -48(%rbp)
	movl	$0, -24(%rbp)
	movl	$0, -36(%rbp)
	movq	-32(%rbp), %rdi
	callq	ferror
	cmpl	$0, %eax
	je	.LBB69_2
# %bb.1:                                # %if.then
	jmp	.LBB69_38
.LBB69_2:                               # %if.end
	jmp	.LBB69_3
.LBB69_3:                               # %while.body
                                        # =>This Loop Header: Depth=1
                                        #     Child Loop BB69_7 Depth 2
                                        #     Child Loop BB69_16 Depth 2
	leaq	-5088(%rbp), %r8
	movq	-32(%rbp), %rsi
	movl	verbosity, %edx
	movzbl	smallMode, %ecx
	movl	-24(%rbp), %r9d
	leaq	-16(%rbp), %rdi
	callq	BZ2_bzReadOpen
	movq	%rax, -48(%rbp)
	cmpq	$0, -48(%rbp)
	je	.LBB69_5
# %bb.4:                                # %lor.lhs.false
                                        #   in Loop: Header=BB69_3 Depth=1
	cmpl	$0, -16(%rbp)
	je	.LBB69_6
.LBB69_5:                               # %if.then5
	jmp	.LBB69_32
.LBB69_6:                               # %if.end6
                                        #   in Loop: Header=BB69_3 Depth=1
	movl	-36(%rbp), %eax
	addl	$1, %eax
	movl	%eax, -36(%rbp)
.LBB69_7:                               # %while.cond7
                                        #   Parent Loop BB69_3 Depth=1
                                        # =>  This Inner Loop Header: Depth=2
	cmpl	$0, -16(%rbp)
	jne	.LBB69_11
# %bb.8:                                # %while.body10
                                        #   in Loop: Header=BB69_7 Depth=2
	leaq	-10096(%rbp), %rdx
	movq	-48(%rbp), %rsi
	leaq	-16(%rbp), %rdi
	movl	$5000, %ecx             # imm = 0x1388
	callq	BZ2_bzRead
	movl	%eax, -80(%rbp)
	cmpl	$-5, -16(%rbp)
	jne	.LBB69_10
# %bb.9:                                # %if.then15
	jmp	.LBB69_32
.LBB69_10:                              # %if.end16
                                        #   in Loop: Header=BB69_7 Depth=2
	jmp	.LBB69_7
.LBB69_11:                              # %while.end
                                        #   in Loop: Header=BB69_3 Depth=1
	cmpl	$4, -16(%rbp)
	je	.LBB69_13
# %bb.12:                               # %if.then19
	jmp	.LBB69_32
.LBB69_13:                              # %if.end20
                                        #   in Loop: Header=BB69_3 Depth=1
	movq	-48(%rbp), %rsi
	leaq	-16(%rbp), %rdi
	leaq	-72(%rbp), %rdx
	leaq	-24(%rbp), %rcx
	callq	BZ2_bzReadGetUnused
	cmpl	$0, -16(%rbp)
	je	.LBB69_15
# %bb.14:                               # %if.then23
	movabsq	$.L.str.98, %rdi
	callq	panic
.LBB69_15:                              # %if.end24
                                        #   in Loop: Header=BB69_3 Depth=1
	movq	-72(%rbp), %rax
	movq	%rax, -64(%rbp)
	movl	$0, -20(%rbp)
.LBB69_16:                              # %for.cond
                                        #   Parent Loop BB69_3 Depth=1
                                        # =>  This Inner Loop Header: Depth=2
	movl	-20(%rbp), %eax
	cmpl	-24(%rbp), %eax
	jge	.LBB69_19
# %bb.17:                               # %for.body
                                        #   in Loop: Header=BB69_16 Depth=2
	movq	-64(%rbp), %rax
	movslq	-20(%rbp), %rcx
	movb	(%rax,%rcx), %al
	movslq	-20(%rbp), %rcx
	movb	%al, -5088(%rbp,%rcx)
# %bb.18:                               # %for.inc
                                        #   in Loop: Header=BB69_16 Depth=2
	movl	-20(%rbp), %eax
	addl	$1, %eax
	movl	%eax, -20(%rbp)
	jmp	.LBB69_16
.LBB69_19:                              # %for.end
                                        #   in Loop: Header=BB69_3 Depth=1
	movq	-48(%rbp), %rsi
	leaq	-16(%rbp), %rdi
	callq	BZ2_bzReadClose
	cmpl	$0, -16(%rbp)
	je	.LBB69_21
# %bb.20:                               # %if.then32
	movabsq	$.L.str.98, %rdi
	callq	panic
.LBB69_21:                              # %if.end33
                                        #   in Loop: Header=BB69_3 Depth=1
	cmpl	$0, -24(%rbp)
	jne	.LBB69_24
# %bb.22:                               # %land.lhs.true
                                        #   in Loop: Header=BB69_3 Depth=1
	movq	-32(%rbp), %rdi
	callq	myfeof
	movzbl	%al, %eax
	cmpl	$0, %eax
	je	.LBB69_24
# %bb.23:                               # %if.then39
	jmp	.LBB69_25
.LBB69_24:                              # %if.end40
                                        #   in Loop: Header=BB69_3 Depth=1
	jmp	.LBB69_3
.LBB69_25:                              # %while.end41
	movq	-32(%rbp), %rdi
	callq	ferror
	cmpl	$0, %eax
	je	.LBB69_27
# %bb.26:                               # %if.then44
	jmp	.LBB69_38
.LBB69_27:                              # %if.end45
	movq	-32(%rbp), %rdi
	callq	fclose
	movl	%eax, -52(%rbp)
	cmpl	$-1, -52(%rbp)
	jne	.LBB69_29
# %bb.28:                               # %if.then49
	jmp	.LBB69_38
.LBB69_29:                              # %if.end50
	cmpl	$2, verbosity
	jl	.LBB69_31
# %bb.30:                               # %if.then53
	movq	stderr, %rdi
	movabsq	$.L.str.89, %rsi
	movb	$0, %al
	callq	fprintf
.LBB69_31:                              # %if.end55
	movb	$1, -9(%rbp)
	jmp	.LBB69_50
.LBB69_32:                              # %errhandler
	movq	-48(%rbp), %rsi
	leaq	-76(%rbp), %rdi
	callq	BZ2_bzReadClose
	cmpl	$0, verbosity
	jne	.LBB69_34
# %bb.33:                               # %if.then58
	movq	stderr, %rdi
	movq	progName, %rdx
	movabsq	$.L.str.99, %rsi
	movabsq	$inName, %rcx
	movb	$0, %al
	callq	fprintf
.LBB69_34:                              # %if.end60
	movl	-16(%rbp), %eax
	addl	$9, %eax
	movl	%eax, %ecx
	subl	$6, %ecx
	ja	.LBB69_49
# %bb.35:                               # %if.end60
	movq	.LJTI69_0(,%rax,8), %rax
	jmpq	*%rax
.LBB69_36:                              # %sw.bb
	callq	configError
.LBB69_37:                              # %sw.bb61
	jmp	.LBB69_38
.LBB69_38:                              # %errhandler_io
	callq	ioError
.LBB69_39:                              # %sw.bb62
	movq	stderr, %rdi
	movabsq	$.L.str.100, %rsi
	movb	$0, %al
	callq	fprintf
	movb	$0, -9(%rbp)
	jmp	.LBB69_50
.LBB69_40:                              # %sw.bb64
	callq	outOfMemory
.LBB69_41:                              # %sw.bb65
	movq	stderr, %rdi
	movabsq	$.L.str.101, %rsi
	movb	$0, %al
	callq	fprintf
	movb	$0, -9(%rbp)
	jmp	.LBB69_50
.LBB69_42:                              # %sw.bb67
	movq	-32(%rbp), %rax
	cmpq	stdin, %rax
	je	.LBB69_44
# %bb.43:                               # %if.then70
	movq	-32(%rbp), %rdi
	callq	fclose
.LBB69_44:                              # %if.end72
	cmpl	$1, -36(%rbp)
	jne	.LBB69_46
# %bb.45:                               # %if.then75
	movq	stderr, %rdi
	movabsq	$.L.str.102, %rsi
	movb	$0, %al
	callq	fprintf
	movb	$0, -9(%rbp)
	jmp	.LBB69_50
.LBB69_46:                              # %if.else
	cmpb	$0, noisy
	je	.LBB69_48
# %bb.47:                               # %if.then78
	movq	stderr, %rdi
	movabsq	$.L.str.103, %rsi
	movb	$0, %al
	callq	fprintf
.LBB69_48:                              # %if.end80
	movb	$1, -9(%rbp)
	jmp	.LBB69_50
.LBB69_49:                              # %sw.default
	movabsq	$.L.str.104, %rdi
	callq	panic
.LBB69_50:                              # %return
	movb	-9(%rbp), %bl
	cmpl	$557884421, -56(%rbp)   # imm = 0x2140A405
	jne	.LBB69_52
.LBB69_51:
	movzbl	%bl, %eax
	addq	$10088, %rsp            # imm = 0x2768
	popq	%rbx
	popq	%rbp
	.cfi_def_cfa %rsp, 8
	retq
.LBB69_52:                              # %func_exit
	.cfi_def_cfa %rbp, 16
	callq	detect_breach
	jmp	.LBB69_51
.Lfunc_end69:
	.size	testStream.27, .Lfunc_end69-testStream.27
	.cfi_endproc
	.section	.rodata,"a",@progbits
	.p2align	3
.LJTI69_0:
	.quad	.LBB69_36
	.quad	.LBB69_49
	.quad	.LBB69_41
	.quad	.LBB69_37
	.quad	.LBB69_42
	.quad	.LBB69_39
	.quad	.LBB69_40
                                        # -- End function
	.text
	.p2align	4, 0x90         # -- Begin function addFlagsFromEnvVar.28
	.type	addFlagsFromEnvVar.28,@function
addFlagsFromEnvVar.28:                  # @addFlagsFromEnvVar.28
	.cfi_startproc
# %bb.0:                                # %entry
	pushq	%rbp
	.cfi_def_cfa_offset 16
	.cfi_offset %rbp, -16
	movq	%rsp, %rbp
	.cfi_def_cfa_register %rbp
	subq	$48, %rsp
	movl	$2139636425, -24(%rbp)  # imm = 0x7F8842C9
	movq	%rdi, -40(%rbp)
	movq	%rsi, -48(%rbp)
	movq	-48(%rbp), %rdi
	callq	getenv
	movq	%rax, -32(%rbp)
	cmpq	$0, -32(%rbp)
	je	.LBB70_22
# %bb.1:                                # %if.then
	movq	-32(%rbp), %rax
	movq	%rax, -16(%rbp)
	movl	$0, -4(%rbp)
.LBB70_2:                               # %while.body
                                        # =>This Loop Header: Depth=1
                                        #     Child Loop BB70_5 Depth 2
                                        #     Child Loop BB70_8 Depth 2
                                        #     Child Loop BB70_16 Depth 2
	movq	-16(%rbp), %rax
	movslq	-4(%rbp), %rcx
	movsbl	(%rax,%rcx), %eax
	cmpl	$0, %eax
	jne	.LBB70_4
# %bb.3:                                # %if.then3
	jmp	.LBB70_21
.LBB70_4:                               # %if.end
                                        #   in Loop: Header=BB70_2 Depth=1
	movl	-4(%rbp), %eax
	movq	-16(%rbp), %rcx
	cltq
	addq	%rax, %rcx
	movq	%rcx, -16(%rbp)
	movl	$0, -4(%rbp)
.LBB70_5:                               # %while.cond4
                                        #   Parent Loop BB70_2 Depth=1
                                        # =>  This Inner Loop Header: Depth=2
	callq	__ctype_b_loc
	movq	(%rax), %rax
	movq	-16(%rbp), %rcx
	movsbl	(%rcx), %ecx
	movslq	%ecx, %rcx
	movzwl	(%rax,%rcx,2), %eax
	andl	$8192, %eax             # imm = 0x2000
	cmpl	$0, %eax
	je	.LBB70_7
# %bb.6:                                # %while.body11
                                        #   in Loop: Header=BB70_5 Depth=2
	movq	-16(%rbp), %rax
	addq	$1, %rax
	movq	%rax, -16(%rbp)
	jmp	.LBB70_5
.LBB70_7:                               # %while.end
                                        #   in Loop: Header=BB70_2 Depth=1
	jmp	.LBB70_8
.LBB70_8:                               # %while.cond12
                                        #   Parent Loop BB70_2 Depth=1
                                        # =>  This Inner Loop Header: Depth=2
	xorl	%eax, %eax
	movq	-16(%rbp), %rcx
	movslq	-4(%rbp), %rdx
	movsbl	(%rcx,%rdx), %ecx
	cmpl	$0, %ecx
	je	.LBB70_10
# %bb.9:                                # %land.rhs
                                        #   in Loop: Header=BB70_8 Depth=2
	callq	__ctype_b_loc
	movq	(%rax), %rax
	movq	-16(%rbp), %rcx
	movslq	-4(%rbp), %rdx
	movsbl	(%rcx,%rdx), %ecx
	movslq	%ecx, %rcx
	movzwl	(%rax,%rcx,2), %eax
	andl	$8192, %eax             # imm = 0x2000
	cmpl	$0, %eax
	setne	%al
	xorb	$-1, %al
.LBB70_10:                              # %land.end
                                        #   in Loop: Header=BB70_8 Depth=2
	testb	$1, %al
	jne	.LBB70_11
	jmp	.LBB70_12
.LBB70_11:                              # %while.body27
                                        #   in Loop: Header=BB70_8 Depth=2
	movl	-4(%rbp), %eax
	addl	$1, %eax
	movl	%eax, -4(%rbp)
	jmp	.LBB70_8
.LBB70_12:                              # %while.end28
                                        #   in Loop: Header=BB70_2 Depth=1
	cmpl	$0, -4(%rbp)
	jle	.LBB70_20
# %bb.13:                               # %if.then31
                                        #   in Loop: Header=BB70_2 Depth=1
	movl	-4(%rbp), %eax
	movl	%eax, -20(%rbp)
	cmpl	$1024, -20(%rbp)        # imm = 0x400
	jle	.LBB70_15
# %bb.14:                               # %if.then34
                                        #   in Loop: Header=BB70_2 Depth=1
	movl	$1024, -20(%rbp)        # imm = 0x400
.LBB70_15:                              # %if.end35
                                        #   in Loop: Header=BB70_2 Depth=1
	movl	$0, -8(%rbp)
.LBB70_16:                              # %for.cond
                                        #   Parent Loop BB70_2 Depth=1
                                        # =>  This Inner Loop Header: Depth=2
	movl	-8(%rbp), %eax
	cmpl	-20(%rbp), %eax
	jge	.LBB70_19
# %bb.17:                               # %for.body
                                        #   in Loop: Header=BB70_16 Depth=2
	movq	-16(%rbp), %rax
	movslq	-8(%rbp), %rcx
	movb	(%rax,%rcx), %al
	movslq	-8(%rbp), %rcx
	movb	%al, tmpName(,%rcx)
# %bb.18:                               # %for.inc
                                        #   in Loop: Header=BB70_16 Depth=2
	movl	-8(%rbp), %eax
	addl	$1, %eax
	movl	%eax, -8(%rbp)
	jmp	.LBB70_16
.LBB70_19:                              # %for.end
                                        #   in Loop: Header=BB70_2 Depth=1
	movslq	-20(%rbp), %rax
	movb	$0, tmpName(,%rax)
	movq	-40(%rbp), %rax
	movq	(%rax), %rdi
	movabsq	$tmpName, %rsi
	callq	snocString
	movq	-40(%rbp), %rcx
	movq	%rax, (%rcx)
.LBB70_20:                              # %if.end46
                                        #   in Loop: Header=BB70_2 Depth=1
	jmp	.LBB70_2
.LBB70_21:                              # %while.end47
	jmp	.LBB70_22
.LBB70_22:                              # %if.end48
	cmpl	$2139636425, -24(%rbp)  # imm = 0x7F8842C9
	jne	.LBB70_24
.LBB70_23:
	addq	$48, %rsp
	popq	%rbp
	.cfi_def_cfa %rsp, 8
	retq
.LBB70_24:                              # %func_exit
	.cfi_def_cfa %rbp, 16
	callq	detect_breach
	jmp	.LBB70_23
.Lfunc_end70:
	.size	addFlagsFromEnvVar.28, .Lfunc_end70-addFlagsFromEnvVar.28
	.cfi_endproc
                                        # -- End function
	.p2align	4, 0x90         # -- Begin function uncompressStream.29
	.type	uncompressStream.29,@function
uncompressStream.29:                    # @uncompressStream.29
	.cfi_startproc
# %bb.0:                                # %entry
	pushq	%rbp
	.cfi_def_cfa_offset 16
	.cfi_offset %rbp, -16
	movq	%rsp, %rbp
	.cfi_def_cfa_register %rbp
	pushq	%rbx
	subq	$10104, %rsp            # imm = 0x2778
	.cfi_offset %rbx, -24
	movl	$1195538879, -68(%rbp)  # imm = 0x474279BF
	movq	%rdi, -24(%rbp)
	movq	%rsi, -32(%rbp)
	movq	$0, -64(%rbp)
	movl	$0, -48(%rbp)
	movl	$0, -52(%rbp)
	movq	-32(%rbp), %rdi
	callq	ferror
	cmpl	$0, %eax
	je	.LBB71_2
# %bb.1:                                # %if.then
	jmp	.LBB71_66
.LBB71_2:                               # %if.end
	movq	-24(%rbp), %rdi
	callq	ferror
	cmpl	$0, %eax
	je	.LBB71_4
# %bb.3:                                # %if.then3
	jmp	.LBB71_66
.LBB71_4:                               # %if.end4
	jmp	.LBB71_5
.LBB71_5:                               # %while.body
                                        # =>This Loop Header: Depth=1
                                        #     Child Loop BB71_9 Depth 2
                                        #     Child Loop BB71_24 Depth 2
	leaq	-10112(%rbp), %r8
	movq	-24(%rbp), %rsi
	movl	verbosity, %edx
	movzbl	smallMode, %ecx
	movl	-48(%rbp), %r9d
	leaq	-16(%rbp), %rdi
	callq	BZ2_bzReadOpen
	movq	%rax, -64(%rbp)
	cmpq	$0, -64(%rbp)
	je	.LBB71_7
# %bb.6:                                # %lor.lhs.false
                                        #   in Loop: Header=BB71_5 Depth=1
	cmpl	$0, -16(%rbp)
	je	.LBB71_8
.LBB71_7:                               # %if.then9
	jmp	.LBB71_62
.LBB71_8:                               # %if.end10
                                        #   in Loop: Header=BB71_5 Depth=1
	movl	-52(%rbp), %eax
	addl	$1, %eax
	movl	%eax, -52(%rbp)
.LBB71_9:                               # %while.cond11
                                        #   Parent Loop BB71_5 Depth=1
                                        # =>  This Inner Loop Header: Depth=2
	cmpl	$0, -16(%rbp)
	jne	.LBB71_19
# %bb.10:                               # %while.body14
                                        #   in Loop: Header=BB71_9 Depth=2
	leaq	-5104(%rbp), %rdx
	movq	-64(%rbp), %rsi
	leaq	-16(%rbp), %rdi
	movl	$5000, %ecx             # imm = 0x1388
	callq	BZ2_bzRead
	movl	%eax, -36(%rbp)
	cmpl	$-5, -16(%rbp)
	jne	.LBB71_12
# %bb.11:                               # %if.then19
	jmp	.LBB71_49
.LBB71_12:                              # %if.end20
                                        #   in Loop: Header=BB71_9 Depth=2
	cmpl	$0, -16(%rbp)
	je	.LBB71_14
# %bb.13:                               # %lor.lhs.false23
                                        #   in Loop: Header=BB71_9 Depth=2
	cmpl	$4, -16(%rbp)
	jne	.LBB71_16
.LBB71_14:                              # %land.lhs.true
                                        #   in Loop: Header=BB71_9 Depth=2
	cmpl	$0, -36(%rbp)
	jle	.LBB71_16
# %bb.15:                               # %if.then28
                                        #   in Loop: Header=BB71_9 Depth=2
	leaq	-5104(%rbp), %rdi
	movslq	-36(%rbp), %rdx
	movq	-32(%rbp), %rcx
	movl	$1, %esi
	callq	fwrite
.LBB71_16:                              # %if.end32
                                        #   in Loop: Header=BB71_9 Depth=2
	movq	-32(%rbp), %rdi
	callq	ferror
	cmpl	$0, %eax
	je	.LBB71_18
# %bb.17:                               # %if.then35
	jmp	.LBB71_66
.LBB71_18:                              # %if.end36
                                        #   in Loop: Header=BB71_9 Depth=2
	jmp	.LBB71_9
.LBB71_19:                              # %while.end
                                        #   in Loop: Header=BB71_5 Depth=1
	cmpl	$4, -16(%rbp)
	je	.LBB71_21
# %bb.20:                               # %if.then39
	jmp	.LBB71_62
.LBB71_21:                              # %if.end40
                                        #   in Loop: Header=BB71_5 Depth=1
	movq	-64(%rbp), %rsi
	leaq	-16(%rbp), %rdi
	leaq	-88(%rbp), %rdx
	leaq	-48(%rbp), %rcx
	callq	BZ2_bzReadGetUnused
	cmpl	$0, -16(%rbp)
	je	.LBB71_23
# %bb.22:                               # %if.then43
	movabsq	$.L.str.88, %rdi
	callq	panic
.LBB71_23:                              # %if.end44
                                        #   in Loop: Header=BB71_5 Depth=1
	movq	-88(%rbp), %rax
	movq	%rax, -80(%rbp)
	movl	$0, -44(%rbp)
.LBB71_24:                              # %for.cond
                                        #   Parent Loop BB71_5 Depth=1
                                        # =>  This Inner Loop Header: Depth=2
	movl	-44(%rbp), %eax
	cmpl	-48(%rbp), %eax
	jge	.LBB71_27
# %bb.25:                               # %for.body
                                        #   in Loop: Header=BB71_24 Depth=2
	movq	-80(%rbp), %rax
	movslq	-44(%rbp), %rcx
	movb	(%rax,%rcx), %al
	movslq	-44(%rbp), %rcx
	movb	%al, -10112(%rbp,%rcx)
# %bb.26:                               # %for.inc
                                        #   in Loop: Header=BB71_24 Depth=2
	movl	-44(%rbp), %eax
	addl	$1, %eax
	movl	%eax, -44(%rbp)
	jmp	.LBB71_24
.LBB71_27:                              # %for.end
                                        #   in Loop: Header=BB71_5 Depth=1
	movq	-64(%rbp), %rsi
	leaq	-16(%rbp), %rdi
	callq	BZ2_bzReadClose
	cmpl	$0, -16(%rbp)
	je	.LBB71_29
# %bb.28:                               # %if.then52
	movabsq	$.L.str.88, %rdi
	callq	panic
.LBB71_29:                              # %if.end53
                                        #   in Loop: Header=BB71_5 Depth=1
	cmpl	$0, -48(%rbp)
	jne	.LBB71_32
# %bb.30:                               # %land.lhs.true56
                                        #   in Loop: Header=BB71_5 Depth=1
	movq	-24(%rbp), %rdi
	callq	myfeof
	movzbl	%al, %eax
	cmpl	$0, %eax
	je	.LBB71_32
# %bb.31:                               # %if.then60
	jmp	.LBB71_33
.LBB71_32:                              # %if.end61
                                        #   in Loop: Header=BB71_5 Depth=1
	jmp	.LBB71_5
.LBB71_33:                              # %while.end62
	jmp	.LBB71_34
.LBB71_34:                              # %closeok
	movq	-24(%rbp), %rdi
	callq	ferror
	cmpl	$0, %eax
	je	.LBB71_36
# %bb.35:                               # %if.then65
	jmp	.LBB71_66
.LBB71_36:                              # %if.end66
	movq	-24(%rbp), %rdi
	callq	fclose
	movl	%eax, -40(%rbp)
	cmpl	$-1, -40(%rbp)
	jne	.LBB71_38
# %bb.37:                               # %if.then70
	jmp	.LBB71_66
.LBB71_38:                              # %if.end71
	movq	-32(%rbp), %rdi
	callq	ferror
	cmpl	$0, %eax
	je	.LBB71_40
# %bb.39:                               # %if.then74
	jmp	.LBB71_66
.LBB71_40:                              # %if.end75
	movq	-32(%rbp), %rdi
	callq	fflush
	movl	%eax, -40(%rbp)
	cmpl	$0, -40(%rbp)
	je	.LBB71_42
# %bb.41:                               # %if.then79
	jmp	.LBB71_66
.LBB71_42:                              # %if.end80
	movq	-32(%rbp), %rax
	cmpq	stdout, %rax
	je	.LBB71_46
# %bb.43:                               # %if.then83
	movq	-32(%rbp), %rdi
	callq	fclose
	movl	%eax, -40(%rbp)
	movq	$0, outputHandleJustInCase
	cmpl	$-1, -40(%rbp)
	jne	.LBB71_45
# %bb.44:                               # %if.then87
	jmp	.LBB71_66
.LBB71_45:                              # %if.end88
	jmp	.LBB71_46
.LBB71_46:                              # %if.end89
	movq	$0, outputHandleJustInCase
	cmpl	$2, verbosity
	jl	.LBB71_48
# %bb.47:                               # %if.then92
	movq	stderr, %rdi
	movabsq	$.L.str.89, %rsi
	movb	$0, %al
	callq	fprintf
.LBB71_48:                              # %if.end94
	movb	$1, -9(%rbp)
	jmp	.LBB71_80
.LBB71_49:                              # %trycat
	cmpb	$0, forceOverwrite
	je	.LBB71_61
# %bb.50:                               # %if.then96
	movq	-24(%rbp), %rdi
	callq	rewind
.LBB71_51:                              # %while.body97
                                        # =>This Inner Loop Header: Depth=1
	movq	-24(%rbp), %rdi
	callq	myfeof
	cmpb	$0, %al
	je	.LBB71_53
# %bb.52:                               # %if.then100
	jmp	.LBB71_60
.LBB71_53:                              # %if.end101
                                        #   in Loop: Header=BB71_51 Depth=1
	leaq	-5104(%rbp), %rdi
	movq	-24(%rbp), %rcx
	movl	$1, %esi
	movl	$5000, %edx             # imm = 0x1388
	callq	fread
	movl	%eax, -36(%rbp)
	movq	-24(%rbp), %rdi
	callq	ferror
	cmpl	$0, %eax
	je	.LBB71_55
# %bb.54:                               # %if.then107
	jmp	.LBB71_66
.LBB71_55:                              # %if.end108
                                        #   in Loop: Header=BB71_51 Depth=1
	cmpl	$0, -36(%rbp)
	jle	.LBB71_57
# %bb.56:                               # %if.then111
                                        #   in Loop: Header=BB71_51 Depth=1
	leaq	-5104(%rbp), %rdi
	movslq	-36(%rbp), %rdx
	movq	-32(%rbp), %rcx
	movl	$1, %esi
	callq	fwrite
.LBB71_57:                              # %if.end115
                                        #   in Loop: Header=BB71_51 Depth=1
	movq	-32(%rbp), %rdi
	callq	ferror
	cmpl	$0, %eax
	je	.LBB71_59
# %bb.58:                               # %if.then118
	jmp	.LBB71_66
.LBB71_59:                              # %if.end119
                                        #   in Loop: Header=BB71_51 Depth=1
	jmp	.LBB71_51
.LBB71_60:                              # %while.end120
	jmp	.LBB71_34
.LBB71_61:                              # %if.end121
	jmp	.LBB71_62
.LBB71_62:                              # %errhandler
	movq	-64(%rbp), %rsi
	leaq	-92(%rbp), %rdi
	callq	BZ2_bzReadClose
	movl	-16(%rbp), %eax
	addl	$9, %eax
	movl	%eax, %ecx
	subl	$6, %ecx
	ja	.LBB71_79
# %bb.63:                               # %errhandler
	movq	.LJTI71_0(,%rax,8), %rax
	jmpq	*%rax
.LBB71_64:                              # %sw.bb
	callq	configError
.LBB71_65:                              # %sw.bb122
	jmp	.LBB71_66
.LBB71_66:                              # %errhandler_io
	callq	ioError
.LBB71_67:                              # %sw.bb123
	callq	crcError
.LBB71_68:                              # %sw.bb124
	callq	outOfMemory
.LBB71_69:                              # %sw.bb125
	callq	compressedStreamEOF
.LBB71_70:                              # %sw.bb126
	movq	-24(%rbp), %rax
	cmpq	stdin, %rax
	je	.LBB71_72
# %bb.71:                               # %if.then129
	movq	-24(%rbp), %rdi
	callq	fclose
.LBB71_72:                              # %if.end131
	movq	-32(%rbp), %rax
	cmpq	stdout, %rax
	je	.LBB71_74
# %bb.73:                               # %if.then134
	movq	-32(%rbp), %rdi
	callq	fclose
.LBB71_74:                              # %if.end136
	cmpl	$1, -52(%rbp)
	jne	.LBB71_76
# %bb.75:                               # %if.then139
	movb	$0, -9(%rbp)
	jmp	.LBB71_80
.LBB71_76:                              # %if.else
	cmpb	$0, noisy
	je	.LBB71_78
# %bb.77:                               # %if.then141
	movq	stderr, %rdi
	movq	progName, %rdx
	movabsq	$.L.str.90, %rsi
	movabsq	$inName, %rcx
	movb	$0, %al
	callq	fprintf
.LBB71_78:                              # %if.end143
	movb	$1, -9(%rbp)
	jmp	.LBB71_80
.LBB71_79:                              # %sw.default
	movabsq	$.L.str.91, %rdi
	callq	panic
.LBB71_80:                              # %return
	movb	-9(%rbp), %bl
	cmpl	$1195538879, -68(%rbp)  # imm = 0x474279BF
	jne	.LBB71_82
.LBB71_81:
	movzbl	%bl, %eax
	addq	$10104, %rsp            # imm = 0x2778
	popq	%rbx
	popq	%rbp
	.cfi_def_cfa %rsp, 8
	retq
.LBB71_82:                              # %func_exit
	.cfi_def_cfa %rbp, 16
	callq	detect_breach
	jmp	.LBB71_81
.Lfunc_end71:
	.size	uncompressStream.29, .Lfunc_end71-uncompressStream.29
	.cfi_endproc
	.section	.rodata,"a",@progbits
	.p2align	3
.LJTI71_0:
	.quad	.LBB71_64
	.quad	.LBB71_79
	.quad	.LBB71_69
	.quad	.LBB71_65
	.quad	.LBB71_70
	.quad	.LBB71_67
	.quad	.LBB71_68
                                        # -- End function
	.section	.rodata.cst8,"aM",@progbits,8
	.p2align	3               # -- Begin function compressStream.30
.LCPI72_0:
	.quad	4636737291354636288     # double 100
.LCPI72_1:
	.quad	4607182418800017408     # double 1
.LCPI72_2:
	.quad	4620693217682128896     # double 8
	.text
	.p2align	4, 0x90
	.type	compressStream.30,@function
compressStream.30:                      # @compressStream.30
	.cfi_startproc
# %bb.0:                                # %entry
	pushq	%rbp
	.cfi_def_cfa_offset 16
	.cfi_offset %rbp, -16
	movq	%rsp, %rbp
	.cfi_def_cfa_register %rbp
	subq	$5200, %rsp             # imm = 0x1450
	movl	$2109033016, -76(%rbp)  # imm = 0x7DB54A38
	movq	%rdi, -32(%rbp)
	movq	%rsi, -24(%rbp)
	movq	$0, -56(%rbp)
	movq	-32(%rbp), %rdi
	callq	ferror
	cmpl	$0, %eax
	je	.LBB72_2
# %bb.1:                                # %if.then
	jmp	.LBB72_46
.LBB72_2:                               # %if.end
	movq	-24(%rbp), %rdi
	callq	ferror
	cmpl	$0, %eax
	je	.LBB72_4
# %bb.3:                                # %if.then3
	jmp	.LBB72_46
.LBB72_4:                               # %if.end4
	movq	-24(%rbp), %rsi
	movl	blockSize100k, %edx
	movl	verbosity, %ecx
	movl	workFactor, %r8d
	leaq	-4(%rbp), %rdi
	callq	BZ2_bzWriteOpen
	movq	%rax, -56(%rbp)
	cmpl	$0, -4(%rbp)
	je	.LBB72_6
# %bb.5:                                # %if.then6
	jmp	.LBB72_40
.LBB72_6:                               # %if.end7
	cmpl	$2, verbosity
	jl	.LBB72_8
# %bb.7:                                # %if.then9
	movq	stderr, %rdi
	movabsq	$.L.str.73, %rsi
	movb	$0, %al
	callq	fprintf
.LBB72_8:                               # %if.end11
	jmp	.LBB72_9
.LBB72_9:                               # %while.body
                                        # =>This Inner Loop Header: Depth=1
	movq	-32(%rbp), %rdi
	callq	myfeof
	cmpb	$0, %al
	je	.LBB72_11
# %bb.10:                               # %if.then14
	jmp	.LBB72_18
.LBB72_11:                              # %if.end15
                                        #   in Loop: Header=BB72_9 Depth=1
	leaq	-5184(%rbp), %rdi
	movq	-32(%rbp), %rcx
	movl	$1, %esi
	movl	$5000, %edx             # imm = 0x1388
	callq	fread
	movl	%eax, -40(%rbp)
	movq	-32(%rbp), %rdi
	callq	ferror
	cmpl	$0, %eax
	je	.LBB72_13
# %bb.12:                               # %if.then19
	jmp	.LBB72_46
.LBB72_13:                              # %if.end20
                                        #   in Loop: Header=BB72_9 Depth=1
	cmpl	$0, -40(%rbp)
	jle	.LBB72_15
# %bb.14:                               # %if.then23
                                        #   in Loop: Header=BB72_9 Depth=1
	leaq	-5184(%rbp), %rdx
	movq	-56(%rbp), %rsi
	movl	-40(%rbp), %ecx
	leaq	-4(%rbp), %rdi
	callq	BZ2_bzWrite
.LBB72_15:                              # %if.end25
                                        #   in Loop: Header=BB72_9 Depth=1
	cmpl	$0, -4(%rbp)
	je	.LBB72_17
# %bb.16:                               # %if.then28
	jmp	.LBB72_40
.LBB72_17:                              # %if.end29
                                        #   in Loop: Header=BB72_9 Depth=1
	jmp	.LBB72_9
.LBB72_18:                              # %while.end
	movq	-56(%rbp), %rsi
	leaq	-4(%rbp), %rdi
	movl	$0, %edx
	leaq	-16(%rbp), %rcx
	leaq	-12(%rbp), %r8
	leaq	-44(%rbp), %r9
	leaq	-36(%rbp), %rax
	movq	%rax, (%rsp)
	callq	BZ2_bzWriteClose64
	cmpl	$0, -4(%rbp)
	je	.LBB72_20
# %bb.19:                               # %if.then32
	jmp	.LBB72_40
.LBB72_20:                              # %if.end33
	movq	-24(%rbp), %rdi
	callq	ferror
	cmpl	$0, %eax
	je	.LBB72_22
# %bb.21:                               # %if.then36
	jmp	.LBB72_46
.LBB72_22:                              # %if.end37
	movq	-24(%rbp), %rdi
	callq	fflush
	movl	%eax, -8(%rbp)
	cmpl	$-1, -8(%rbp)
	jne	.LBB72_24
# %bb.23:                               # %if.then41
	jmp	.LBB72_46
.LBB72_24:                              # %if.end42
	movq	-24(%rbp), %rax
	cmpq	stdout, %rax
	je	.LBB72_28
# %bb.25:                               # %if.then45
	movq	-24(%rbp), %rdi
	callq	fclose
	movl	%eax, -8(%rbp)
	movq	$0, outputHandleJustInCase
	cmpl	$-1, -8(%rbp)
	jne	.LBB72_27
# %bb.26:                               # %if.then49
	jmp	.LBB72_46
.LBB72_27:                              # %if.end50
	jmp	.LBB72_28
.LBB72_28:                              # %if.end51
	movq	$0, outputHandleJustInCase
	movq	-32(%rbp), %rdi
	callq	ferror
	cmpl	$0, %eax
	je	.LBB72_30
# %bb.29:                               # %if.then54
	jmp	.LBB72_46
.LBB72_30:                              # %if.end55
	movq	-32(%rbp), %rdi
	callq	fclose
	movl	%eax, -8(%rbp)
	cmpl	$-1, -8(%rbp)
	jne	.LBB72_32
# %bb.31:                               # %if.then59
	jmp	.LBB72_46
.LBB72_32:                              # %if.end60
	cmpl	$1, verbosity
	jl	.LBB72_38
# %bb.33:                               # %if.then63
	cmpl	$0, -16(%rbp)
	jne	.LBB72_36
# %bb.34:                               # %land.lhs.true
	cmpl	$0, -12(%rbp)
	jne	.LBB72_36
# %bb.35:                               # %if.then68
	movq	stderr, %rdi
	movabsq	$.L.str.74, %rsi
	movb	$0, %al
	callq	fprintf
	jmp	.LBB72_37
.LBB72_36:                              # %if.else
	movl	-16(%rbp), %esi
	movl	-12(%rbp), %edx
	leaq	-96(%rbp), %rdi
	callq	uInt64_from_UInt32s
	movl	-44(%rbp), %esi
	movl	-36(%rbp), %edx
	leaq	-88(%rbp), %rdi
	callq	uInt64_from_UInt32s
	leaq	-96(%rbp), %rdi
	callq	uInt64_to_double
	vmovsd	%xmm0, -64(%rbp)
	leaq	-88(%rbp), %rdi
	callq	uInt64_to_double
	leaq	-144(%rbp), %rdi
	vmovsd	%xmm0, -72(%rbp)
	leaq	-96(%rbp), %rsi
	callq	uInt64_toAscii
	leaq	-176(%rbp), %rdi
	leaq	-88(%rbp), %rsi
	callq	uInt64_toAscii
	leaq	-176(%rbp), %rcx
	leaq	-144(%rbp), %rdx
	vmovsd	.LCPI72_0(%rip), %xmm2  # xmm2 = mem[0],zero
	vmovsd	.LCPI72_1(%rip), %xmm3  # xmm3 = mem[0],zero
	vmovsd	.LCPI72_2(%rip), %xmm1  # xmm1 = mem[0],zero
	movq	stderr, %rdi
	vmovsd	-64(%rbp), %xmm0        # xmm0 = mem[0],zero
	vdivsd	-72(%rbp), %xmm0, %xmm0
	vmulsd	-72(%rbp), %xmm1, %xmm1
	vdivsd	-64(%rbp), %xmm1, %xmm1
	vmovsd	-72(%rbp), %xmm4        # xmm4 = mem[0],zero
	vdivsd	-64(%rbp), %xmm4, %xmm4
	vsubsd	%xmm4, %xmm3, %xmm3
	vmulsd	%xmm3, %xmm2, %xmm2
	movabsq	$.L.str.75, %rsi
	movb	$3, %al
	callq	fprintf
.LBB72_37:                              # %if.end80
	jmp	.LBB72_38
.LBB72_38:                              # %if.end81
	cmpl	$2109033016, -76(%rbp)  # imm = 0x7DB54A38
	jne	.LBB72_48
.LBB72_39:
	addq	$5200, %rsp             # imm = 0x1450
	popq	%rbp
	.cfi_def_cfa %rsp, 8
	retq
.LBB72_40:                              # %errhandler
	.cfi_def_cfa %rbp, 16
	movq	-56(%rbp), %rsi
	leaq	-36(%rbp), %rax
	movq	%rax, (%rsp)
	leaq	-100(%rbp), %rdi
	leaq	-16(%rbp), %rcx
	leaq	-12(%rbp), %r8
	leaq	-44(%rbp), %r9
	movl	$1, %edx
	callq	BZ2_bzWriteClose64
	movl	-4(%rbp), %eax
	movl	%eax, %ecx
	subl	$-9, %ecx
	je	.LBB72_43
	jmp	.LBB72_41
.LBB72_41:                              # %errhandler
	movl	%eax, %ecx
	subl	$-6, %ecx
	je	.LBB72_45
	jmp	.LBB72_42
.LBB72_42:                              # %errhandler
	subl	$-3, %eax
	je	.LBB72_44
	jmp	.LBB72_47
.LBB72_43:                              # %sw.bb
	callq	configError
.LBB72_44:                              # %sw.bb82
	callq	outOfMemory
.LBB72_45:                              # %sw.bb83
	jmp	.LBB72_46
.LBB72_46:                              # %errhandler_io
	callq	ioError
.LBB72_47:                              # %sw.default
	movabsq	$.L.str.76, %rdi
	callq	panic
.LBB72_48:                              # %func_exit
	callq	detect_breach
	jmp	.LBB72_39
.Lfunc_end72:
	.size	compressStream.30, .Lfunc_end72-compressStream.30
	.cfi_endproc
                                        # -- End function
	.p2align	4, 0x90         # -- Begin function copyFileName.31
	.type	copyFileName.31,@function
copyFileName.31:                        # @copyFileName.31
	.cfi_startproc
# %bb.0:                                # %entry
	pushq	%rbp
	.cfi_def_cfa_offset 16
	.cfi_offset %rbp, -16
	movq	%rsp, %rbp
	.cfi_def_cfa_register %rbp
	subq	$32, %rsp
	movl	$530230924, -12(%rbp)   # imm = 0x1F9AAE8C
	movq	%rdi, -24(%rbp)
	movq	%rsi, -8(%rbp)
	movq	-8(%rbp), %rdi
	callq	strlen
	cmpq	$1024, %rax             # imm = 0x400
	jbe	.LBB73_2
# %bb.1:                                # %if.then
	movq	stderr, %rdi
	movq	-8(%rbp), %rdx
	movabsq	$.L.str.47, %rsi
	movl	$1024, %ecx             # imm = 0x400
	movb	$0, %al
	callq	fprintf
	movl	$1, %edi
	callq	setExit
	movl	exitValue, %edi
	callq	exit
.LBB73_2:                               # %if.end
	movq	-24(%rbp), %rdi
	movq	-8(%rbp), %rsi
	movl	$1024, %edx             # imm = 0x400
	callq	strncpy
	movq	-24(%rbp), %rax
	movb	$0, 1024(%rax)
	cmpl	$530230924, -12(%rbp)   # imm = 0x1F9AAE8C
	jne	.LBB73_4
.LBB73_3:
	addq	$32, %rsp
	popq	%rbp
	.cfi_def_cfa %rsp, 8
	retq
.LBB73_4:                               # %func_exit
	.cfi_def_cfa %rbp, 16
	callq	detect_breach
	jmp	.LBB73_3
.Lfunc_end73:
	.size	copyFileName.31, .Lfunc_end73-copyFileName.31
	.cfi_endproc
                                        # -- End function
	.p2align	4, 0x90         # -- Begin function testStream.32
	.type	testStream.32,@function
testStream.32:                          # @testStream.32
	.cfi_startproc
# %bb.0:                                # %entry
	pushq	%rbp
	.cfi_def_cfa_offset 16
	.cfi_offset %rbp, -16
	movq	%rsp, %rbp
	.cfi_def_cfa_register %rbp
	pushq	%rbx
	subq	$10088, %rsp            # imm = 0x2768
	.cfi_offset %rbx, -24
	movl	$1035743974, -52(%rbp)  # imm = 0x3DBC32E6
	movq	%rdi, -32(%rbp)
	movq	$0, -48(%rbp)
	movl	$0, -24(%rbp)
	movl	$0, -36(%rbp)
	movq	-32(%rbp), %rdi
	callq	ferror
	cmpl	$0, %eax
	je	.LBB74_2
# %bb.1:                                # %if.then
	jmp	.LBB74_38
.LBB74_2:                               # %if.end
	jmp	.LBB74_3
.LBB74_3:                               # %while.body
                                        # =>This Loop Header: Depth=1
                                        #     Child Loop BB74_7 Depth 2
                                        #     Child Loop BB74_16 Depth 2
	leaq	-5088(%rbp), %r8
	movq	-32(%rbp), %rsi
	movl	verbosity, %edx
	movzbl	smallMode, %ecx
	movl	-24(%rbp), %r9d
	leaq	-16(%rbp), %rdi
	callq	BZ2_bzReadOpen
	movq	%rax, -48(%rbp)
	cmpq	$0, -48(%rbp)
	je	.LBB74_5
# %bb.4:                                # %lor.lhs.false
                                        #   in Loop: Header=BB74_3 Depth=1
	cmpl	$0, -16(%rbp)
	je	.LBB74_6
.LBB74_5:                               # %if.then5
	jmp	.LBB74_32
.LBB74_6:                               # %if.end6
                                        #   in Loop: Header=BB74_3 Depth=1
	movl	-36(%rbp), %eax
	addl	$1, %eax
	movl	%eax, -36(%rbp)
.LBB74_7:                               # %while.cond7
                                        #   Parent Loop BB74_3 Depth=1
                                        # =>  This Inner Loop Header: Depth=2
	cmpl	$0, -16(%rbp)
	jne	.LBB74_11
# %bb.8:                                # %while.body10
                                        #   in Loop: Header=BB74_7 Depth=2
	leaq	-10096(%rbp), %rdx
	movq	-48(%rbp), %rsi
	leaq	-16(%rbp), %rdi
	movl	$5000, %ecx             # imm = 0x1388
	callq	BZ2_bzRead
	movl	%eax, -80(%rbp)
	cmpl	$-5, -16(%rbp)
	jne	.LBB74_10
# %bb.9:                                # %if.then15
	jmp	.LBB74_32
.LBB74_10:                              # %if.end16
                                        #   in Loop: Header=BB74_7 Depth=2
	jmp	.LBB74_7
.LBB74_11:                              # %while.end
                                        #   in Loop: Header=BB74_3 Depth=1
	cmpl	$4, -16(%rbp)
	je	.LBB74_13
# %bb.12:                               # %if.then19
	jmp	.LBB74_32
.LBB74_13:                              # %if.end20
                                        #   in Loop: Header=BB74_3 Depth=1
	movq	-48(%rbp), %rsi
	leaq	-16(%rbp), %rdi
	leaq	-72(%rbp), %rdx
	leaq	-24(%rbp), %rcx
	callq	BZ2_bzReadGetUnused
	cmpl	$0, -16(%rbp)
	je	.LBB74_15
# %bb.14:                               # %if.then23
	movabsq	$.L.str.98, %rdi
	callq	panic
.LBB74_15:                              # %if.end24
                                        #   in Loop: Header=BB74_3 Depth=1
	movq	-72(%rbp), %rax
	movq	%rax, -64(%rbp)
	movl	$0, -20(%rbp)
.LBB74_16:                              # %for.cond
                                        #   Parent Loop BB74_3 Depth=1
                                        # =>  This Inner Loop Header: Depth=2
	movl	-20(%rbp), %eax
	cmpl	-24(%rbp), %eax
	jge	.LBB74_19
# %bb.17:                               # %for.body
                                        #   in Loop: Header=BB74_16 Depth=2
	movq	-64(%rbp), %rax
	movslq	-20(%rbp), %rcx
	movb	(%rax,%rcx), %al
	movslq	-20(%rbp), %rcx
	movb	%al, -5088(%rbp,%rcx)
# %bb.18:                               # %for.inc
                                        #   in Loop: Header=BB74_16 Depth=2
	movl	-20(%rbp), %eax
	addl	$1, %eax
	movl	%eax, -20(%rbp)
	jmp	.LBB74_16
.LBB74_19:                              # %for.end
                                        #   in Loop: Header=BB74_3 Depth=1
	movq	-48(%rbp), %rsi
	leaq	-16(%rbp), %rdi
	callq	BZ2_bzReadClose
	cmpl	$0, -16(%rbp)
	je	.LBB74_21
# %bb.20:                               # %if.then32
	movabsq	$.L.str.98, %rdi
	callq	panic
.LBB74_21:                              # %if.end33
                                        #   in Loop: Header=BB74_3 Depth=1
	cmpl	$0, -24(%rbp)
	jne	.LBB74_24
# %bb.22:                               # %land.lhs.true
                                        #   in Loop: Header=BB74_3 Depth=1
	movq	-32(%rbp), %rdi
	callq	myfeof
	movzbl	%al, %eax
	cmpl	$0, %eax
	je	.LBB74_24
# %bb.23:                               # %if.then39
	jmp	.LBB74_25
.LBB74_24:                              # %if.end40
                                        #   in Loop: Header=BB74_3 Depth=1
	jmp	.LBB74_3
.LBB74_25:                              # %while.end41
	movq	-32(%rbp), %rdi
	callq	ferror
	cmpl	$0, %eax
	je	.LBB74_27
# %bb.26:                               # %if.then44
	jmp	.LBB74_38
.LBB74_27:                              # %if.end45
	movq	-32(%rbp), %rdi
	callq	fclose
	movl	%eax, -56(%rbp)
	cmpl	$-1, -56(%rbp)
	jne	.LBB74_29
# %bb.28:                               # %if.then49
	jmp	.LBB74_38
.LBB74_29:                              # %if.end50
	cmpl	$2, verbosity
	jl	.LBB74_31
# %bb.30:                               # %if.then53
	movq	stderr, %rdi
	movabsq	$.L.str.89, %rsi
	movb	$0, %al
	callq	fprintf
.LBB74_31:                              # %if.end55
	movb	$1, -9(%rbp)
	jmp	.LBB74_50
.LBB74_32:                              # %errhandler
	movq	-48(%rbp), %rsi
	leaq	-76(%rbp), %rdi
	callq	BZ2_bzReadClose
	cmpl	$0, verbosity
	jne	.LBB74_34
# %bb.33:                               # %if.then58
	movq	stderr, %rdi
	movq	progName, %rdx
	movabsq	$.L.str.99, %rsi
	movabsq	$inName, %rcx
	movb	$0, %al
	callq	fprintf
.LBB74_34:                              # %if.end60
	movl	-16(%rbp), %eax
	addl	$9, %eax
	movl	%eax, %ecx
	subl	$6, %ecx
	ja	.LBB74_49
# %bb.35:                               # %if.end60
	movq	.LJTI74_0(,%rax,8), %rax
	jmpq	*%rax
.LBB74_36:                              # %sw.bb
	callq	configError
.LBB74_37:                              # %sw.bb61
	jmp	.LBB74_38
.LBB74_38:                              # %errhandler_io
	callq	ioError
.LBB74_39:                              # %sw.bb62
	movq	stderr, %rdi
	movabsq	$.L.str.100, %rsi
	movb	$0, %al
	callq	fprintf
	movb	$0, -9(%rbp)
	jmp	.LBB74_50
.LBB74_40:                              # %sw.bb64
	callq	outOfMemory
.LBB74_41:                              # %sw.bb65
	movq	stderr, %rdi
	movabsq	$.L.str.101, %rsi
	movb	$0, %al
	callq	fprintf
	movb	$0, -9(%rbp)
	jmp	.LBB74_50
.LBB74_42:                              # %sw.bb67
	movq	-32(%rbp), %rax
	cmpq	stdin, %rax
	je	.LBB74_44
# %bb.43:                               # %if.then70
	movq	-32(%rbp), %rdi
	callq	fclose
.LBB74_44:                              # %if.end72
	cmpl	$1, -36(%rbp)
	jne	.LBB74_46
# %bb.45:                               # %if.then75
	movq	stderr, %rdi
	movabsq	$.L.str.102, %rsi
	movb	$0, %al
	callq	fprintf
	movb	$0, -9(%rbp)
	jmp	.LBB74_50
.LBB74_46:                              # %if.else
	cmpb	$0, noisy
	je	.LBB74_48
# %bb.47:                               # %if.then78
	movq	stderr, %rdi
	movabsq	$.L.str.103, %rsi
	movb	$0, %al
	callq	fprintf
.LBB74_48:                              # %if.end80
	movb	$1, -9(%rbp)
	jmp	.LBB74_50
.LBB74_49:                              # %sw.default
	movabsq	$.L.str.104, %rdi
	callq	panic
.LBB74_50:                              # %return
	movb	-9(%rbp), %bl
	cmpl	$1035743974, -52(%rbp)  # imm = 0x3DBC32E6
	jne	.LBB74_52
.LBB74_51:
	movzbl	%bl, %eax
	addq	$10088, %rsp            # imm = 0x2768
	popq	%rbx
	popq	%rbp
	.cfi_def_cfa %rsp, 8
	retq
.LBB74_52:                              # %func_exit
	.cfi_def_cfa %rbp, 16
	callq	detect_breach
	jmp	.LBB74_51
.Lfunc_end74:
	.size	testStream.32, .Lfunc_end74-testStream.32
	.cfi_endproc
	.section	.rodata,"a",@progbits
	.p2align	3
.LJTI74_0:
	.quad	.LBB74_36
	.quad	.LBB74_49
	.quad	.LBB74_41
	.quad	.LBB74_37
	.quad	.LBB74_42
	.quad	.LBB74_39
	.quad	.LBB74_40
                                        # -- End function
	.text
	.p2align	4, 0x90         # -- Begin function uncompressStream.33
	.type	uncompressStream.33,@function
uncompressStream.33:                    # @uncompressStream.33
	.cfi_startproc
# %bb.0:                                # %entry
	pushq	%rbp
	.cfi_def_cfa_offset 16
	.cfi_offset %rbp, -16
	movq	%rsp, %rbp
	.cfi_def_cfa_register %rbp
	pushq	%rbx
	subq	$10104, %rsp            # imm = 0x2778
	.cfi_offset %rbx, -24
	movl	$1023796695, -68(%rbp)  # imm = 0x3D05E5D7
	movq	%rdi, -24(%rbp)
	movq	%rsi, -32(%rbp)
	movq	$0, -64(%rbp)
	movl	$0, -48(%rbp)
	movl	$0, -52(%rbp)
	movq	-32(%rbp), %rdi
	callq	ferror
	cmpl	$0, %eax
	je	.LBB75_2
# %bb.1:                                # %if.then
	jmp	.LBB75_66
.LBB75_2:                               # %if.end
	movq	-24(%rbp), %rdi
	callq	ferror
	cmpl	$0, %eax
	je	.LBB75_4
# %bb.3:                                # %if.then3
	jmp	.LBB75_66
.LBB75_4:                               # %if.end4
	jmp	.LBB75_5
.LBB75_5:                               # %while.body
                                        # =>This Loop Header: Depth=1
                                        #     Child Loop BB75_9 Depth 2
                                        #     Child Loop BB75_24 Depth 2
	leaq	-10112(%rbp), %r8
	movq	-24(%rbp), %rsi
	movl	verbosity, %edx
	movzbl	smallMode, %ecx
	movl	-48(%rbp), %r9d
	leaq	-16(%rbp), %rdi
	callq	BZ2_bzReadOpen
	movq	%rax, -64(%rbp)
	cmpq	$0, -64(%rbp)
	je	.LBB75_7
# %bb.6:                                # %lor.lhs.false
                                        #   in Loop: Header=BB75_5 Depth=1
	cmpl	$0, -16(%rbp)
	je	.LBB75_8
.LBB75_7:                               # %if.then9
	jmp	.LBB75_62
.LBB75_8:                               # %if.end10
                                        #   in Loop: Header=BB75_5 Depth=1
	movl	-52(%rbp), %eax
	addl	$1, %eax
	movl	%eax, -52(%rbp)
.LBB75_9:                               # %while.cond11
                                        #   Parent Loop BB75_5 Depth=1
                                        # =>  This Inner Loop Header: Depth=2
	cmpl	$0, -16(%rbp)
	jne	.LBB75_19
# %bb.10:                               # %while.body14
                                        #   in Loop: Header=BB75_9 Depth=2
	leaq	-5104(%rbp), %rdx
	movq	-64(%rbp), %rsi
	leaq	-16(%rbp), %rdi
	movl	$5000, %ecx             # imm = 0x1388
	callq	BZ2_bzRead
	movl	%eax, -40(%rbp)
	cmpl	$-5, -16(%rbp)
	jne	.LBB75_12
# %bb.11:                               # %if.then19
	jmp	.LBB75_49
.LBB75_12:                              # %if.end20
                                        #   in Loop: Header=BB75_9 Depth=2
	cmpl	$0, -16(%rbp)
	je	.LBB75_14
# %bb.13:                               # %lor.lhs.false23
                                        #   in Loop: Header=BB75_9 Depth=2
	cmpl	$4, -16(%rbp)
	jne	.LBB75_16
.LBB75_14:                              # %land.lhs.true
                                        #   in Loop: Header=BB75_9 Depth=2
	cmpl	$0, -40(%rbp)
	jle	.LBB75_16
# %bb.15:                               # %if.then28
                                        #   in Loop: Header=BB75_9 Depth=2
	leaq	-5104(%rbp), %rdi
	movslq	-40(%rbp), %rdx
	movq	-32(%rbp), %rcx
	movl	$1, %esi
	callq	fwrite
.LBB75_16:                              # %if.end32
                                        #   in Loop: Header=BB75_9 Depth=2
	movq	-32(%rbp), %rdi
	callq	ferror
	cmpl	$0, %eax
	je	.LBB75_18
# %bb.17:                               # %if.then35
	jmp	.LBB75_66
.LBB75_18:                              # %if.end36
                                        #   in Loop: Header=BB75_9 Depth=2
	jmp	.LBB75_9
.LBB75_19:                              # %while.end
                                        #   in Loop: Header=BB75_5 Depth=1
	cmpl	$4, -16(%rbp)
	je	.LBB75_21
# %bb.20:                               # %if.then39
	jmp	.LBB75_62
.LBB75_21:                              # %if.end40
                                        #   in Loop: Header=BB75_5 Depth=1
	movq	-64(%rbp), %rsi
	leaq	-16(%rbp), %rdi
	leaq	-80(%rbp), %rdx
	leaq	-48(%rbp), %rcx
	callq	BZ2_bzReadGetUnused
	cmpl	$0, -16(%rbp)
	je	.LBB75_23
# %bb.22:                               # %if.then43
	movabsq	$.L.str.88, %rdi
	callq	panic
.LBB75_23:                              # %if.end44
                                        #   in Loop: Header=BB75_5 Depth=1
	movq	-80(%rbp), %rax
	movq	%rax, -88(%rbp)
	movl	$0, -44(%rbp)
.LBB75_24:                              # %for.cond
                                        #   Parent Loop BB75_5 Depth=1
                                        # =>  This Inner Loop Header: Depth=2
	movl	-44(%rbp), %eax
	cmpl	-48(%rbp), %eax
	jge	.LBB75_27
# %bb.25:                               # %for.body
                                        #   in Loop: Header=BB75_24 Depth=2
	movq	-88(%rbp), %rax
	movslq	-44(%rbp), %rcx
	movb	(%rax,%rcx), %al
	movslq	-44(%rbp), %rcx
	movb	%al, -10112(%rbp,%rcx)
# %bb.26:                               # %for.inc
                                        #   in Loop: Header=BB75_24 Depth=2
	movl	-44(%rbp), %eax
	addl	$1, %eax
	movl	%eax, -44(%rbp)
	jmp	.LBB75_24
.LBB75_27:                              # %for.end
                                        #   in Loop: Header=BB75_5 Depth=1
	movq	-64(%rbp), %rsi
	leaq	-16(%rbp), %rdi
	callq	BZ2_bzReadClose
	cmpl	$0, -16(%rbp)
	je	.LBB75_29
# %bb.28:                               # %if.then52
	movabsq	$.L.str.88, %rdi
	callq	panic
.LBB75_29:                              # %if.end53
                                        #   in Loop: Header=BB75_5 Depth=1
	cmpl	$0, -48(%rbp)
	jne	.LBB75_32
# %bb.30:                               # %land.lhs.true56
                                        #   in Loop: Header=BB75_5 Depth=1
	movq	-24(%rbp), %rdi
	callq	myfeof
	movzbl	%al, %eax
	cmpl	$0, %eax
	je	.LBB75_32
# %bb.31:                               # %if.then60
	jmp	.LBB75_33
.LBB75_32:                              # %if.end61
                                        #   in Loop: Header=BB75_5 Depth=1
	jmp	.LBB75_5
.LBB75_33:                              # %while.end62
	jmp	.LBB75_34
.LBB75_34:                              # %closeok
	movq	-24(%rbp), %rdi
	callq	ferror
	cmpl	$0, %eax
	je	.LBB75_36
# %bb.35:                               # %if.then65
	jmp	.LBB75_66
.LBB75_36:                              # %if.end66
	movq	-24(%rbp), %rdi
	callq	fclose
	movl	%eax, -36(%rbp)
	cmpl	$-1, -36(%rbp)
	jne	.LBB75_38
# %bb.37:                               # %if.then70
	jmp	.LBB75_66
.LBB75_38:                              # %if.end71
	movq	-32(%rbp), %rdi
	callq	ferror
	cmpl	$0, %eax
	je	.LBB75_40
# %bb.39:                               # %if.then74
	jmp	.LBB75_66
.LBB75_40:                              # %if.end75
	movq	-32(%rbp), %rdi
	callq	fflush
	movl	%eax, -36(%rbp)
	cmpl	$0, -36(%rbp)
	je	.LBB75_42
# %bb.41:                               # %if.then79
	jmp	.LBB75_66
.LBB75_42:                              # %if.end80
	movq	-32(%rbp), %rax
	cmpq	stdout, %rax
	je	.LBB75_46
# %bb.43:                               # %if.then83
	movq	-32(%rbp), %rdi
	callq	fclose
	movl	%eax, -36(%rbp)
	movq	$0, outputHandleJustInCase
	cmpl	$-1, -36(%rbp)
	jne	.LBB75_45
# %bb.44:                               # %if.then87
	jmp	.LBB75_66
.LBB75_45:                              # %if.end88
	jmp	.LBB75_46
.LBB75_46:                              # %if.end89
	movq	$0, outputHandleJustInCase
	cmpl	$2, verbosity
	jl	.LBB75_48
# %bb.47:                               # %if.then92
	movq	stderr, %rdi
	movabsq	$.L.str.89, %rsi
	movb	$0, %al
	callq	fprintf
.LBB75_48:                              # %if.end94
	movb	$1, -9(%rbp)
	jmp	.LBB75_80
.LBB75_49:                              # %trycat
	cmpb	$0, forceOverwrite
	je	.LBB75_61
# %bb.50:                               # %if.then96
	movq	-24(%rbp), %rdi
	callq	rewind
.LBB75_51:                              # %while.body97
                                        # =>This Inner Loop Header: Depth=1
	movq	-24(%rbp), %rdi
	callq	myfeof
	cmpb	$0, %al
	je	.LBB75_53
# %bb.52:                               # %if.then100
	jmp	.LBB75_60
.LBB75_53:                              # %if.end101
                                        #   in Loop: Header=BB75_51 Depth=1
	leaq	-5104(%rbp), %rdi
	movq	-24(%rbp), %rcx
	movl	$1, %esi
	movl	$5000, %edx             # imm = 0x1388
	callq	fread
	movl	%eax, -40(%rbp)
	movq	-24(%rbp), %rdi
	callq	ferror
	cmpl	$0, %eax
	je	.LBB75_55
# %bb.54:                               # %if.then107
	jmp	.LBB75_66
.LBB75_55:                              # %if.end108
                                        #   in Loop: Header=BB75_51 Depth=1
	cmpl	$0, -40(%rbp)
	jle	.LBB75_57
# %bb.56:                               # %if.then111
                                        #   in Loop: Header=BB75_51 Depth=1
	leaq	-5104(%rbp), %rdi
	movslq	-40(%rbp), %rdx
	movq	-32(%rbp), %rcx
	movl	$1, %esi
	callq	fwrite
.LBB75_57:                              # %if.end115
                                        #   in Loop: Header=BB75_51 Depth=1
	movq	-32(%rbp), %rdi
	callq	ferror
	cmpl	$0, %eax
	je	.LBB75_59
# %bb.58:                               # %if.then118
	jmp	.LBB75_66
.LBB75_59:                              # %if.end119
                                        #   in Loop: Header=BB75_51 Depth=1
	jmp	.LBB75_51
.LBB75_60:                              # %while.end120
	jmp	.LBB75_34
.LBB75_61:                              # %if.end121
	jmp	.LBB75_62
.LBB75_62:                              # %errhandler
	movq	-64(%rbp), %rsi
	leaq	-92(%rbp), %rdi
	callq	BZ2_bzReadClose
	movl	-16(%rbp), %eax
	addl	$9, %eax
	movl	%eax, %ecx
	subl	$6, %ecx
	ja	.LBB75_79
# %bb.63:                               # %errhandler
	movq	.LJTI75_0(,%rax,8), %rax
	jmpq	*%rax
.LBB75_64:                              # %sw.bb
	callq	configError
.LBB75_65:                              # %sw.bb122
	jmp	.LBB75_66
.LBB75_66:                              # %errhandler_io
	callq	ioError
.LBB75_67:                              # %sw.bb123
	callq	crcError
.LBB75_68:                              # %sw.bb124
	callq	outOfMemory
.LBB75_69:                              # %sw.bb125
	callq	compressedStreamEOF
.LBB75_70:                              # %sw.bb126
	movq	-24(%rbp), %rax
	cmpq	stdin, %rax
	je	.LBB75_72
# %bb.71:                               # %if.then129
	movq	-24(%rbp), %rdi
	callq	fclose
.LBB75_72:                              # %if.end131
	movq	-32(%rbp), %rax
	cmpq	stdout, %rax
	je	.LBB75_74
# %bb.73:                               # %if.then134
	movq	-32(%rbp), %rdi
	callq	fclose
.LBB75_74:                              # %if.end136
	cmpl	$1, -52(%rbp)
	jne	.LBB75_76
# %bb.75:                               # %if.then139
	movb	$0, -9(%rbp)
	jmp	.LBB75_80
.LBB75_76:                              # %if.else
	cmpb	$0, noisy
	je	.LBB75_78
# %bb.77:                               # %if.then141
	movq	stderr, %rdi
	movq	progName, %rdx
	movabsq	$.L.str.90, %rsi
	movabsq	$inName, %rcx
	movb	$0, %al
	callq	fprintf
.LBB75_78:                              # %if.end143
	movb	$1, -9(%rbp)
	jmp	.LBB75_80
.LBB75_79:                              # %sw.default
	movabsq	$.L.str.91, %rdi
	callq	panic
.LBB75_80:                              # %return
	movb	-9(%rbp), %bl
	cmpl	$1023796695, -68(%rbp)  # imm = 0x3D05E5D7
	jne	.LBB75_82
.LBB75_81:
	movzbl	%bl, %eax
	addq	$10104, %rsp            # imm = 0x2778
	popq	%rbx
	popq	%rbp
	.cfi_def_cfa %rsp, 8
	retq
.LBB75_82:                              # %func_exit
	.cfi_def_cfa %rbp, 16
	callq	detect_breach
	jmp	.LBB75_81
.Lfunc_end75:
	.size	uncompressStream.33, .Lfunc_end75-uncompressStream.33
	.cfi_endproc
	.section	.rodata,"a",@progbits
	.p2align	3
.LJTI75_0:
	.quad	.LBB75_64
	.quad	.LBB75_79
	.quad	.LBB75_69
	.quad	.LBB75_65
	.quad	.LBB75_70
	.quad	.LBB75_67
	.quad	.LBB75_68
                                        # -- End function
	.section	.rodata.cst8,"aM",@progbits,8
	.p2align	3               # -- Begin function uInt64_to_double.34
.LCPI76_0:
	.quad	4607182418800017408     # double 1
.LCPI76_1:
	.quad	4643211215818981376     # double 256
	.text
	.p2align	4, 0x90
	.type	uInt64_to_double.34,@function
uInt64_to_double.34:                    # @uInt64_to_double.34
	.cfi_startproc
# %bb.0:                                # %entry
	pushq	%rbp
	.cfi_def_cfa_offset 16
	.cfi_offset %rbp, -16
	movq	%rsp, %rbp
	.cfi_def_cfa_register %rbp
	subq	$48, %rsp
	vmovsd	.LCPI76_0(%rip), %xmm0  # xmm0 = mem[0],zero
	movl	$446974271, -28(%rbp)   # imm = 0x1AA4493F
	movq	%rdi, -48(%rbp)
	vmovsd	%xmm0, -24(%rbp)
	vxorps	%xmm0, %xmm0, %xmm0
	vmovsd	%xmm0, -16(%rbp)
	movl	$0, -4(%rbp)
.LBB76_1:                               # %for.cond
                                        # =>This Inner Loop Header: Depth=1
	cmpl	$8, -4(%rbp)
	jge	.LBB76_4
# %bb.2:                                # %for.body
                                        #   in Loop: Header=BB76_1 Depth=1
	vmovsd	.LCPI76_1(%rip), %xmm0  # xmm0 = mem[0],zero
	vmovsd	-24(%rbp), %xmm1        # xmm1 = mem[0],zero
	movq	-48(%rbp), %rax
	movslq	-4(%rbp), %rcx
	movzbl	(%rax,%rcx), %eax
	vcvtsi2sd	%eax, %xmm0, %xmm2
	vmulsd	%xmm2, %xmm1, %xmm1
	vaddsd	-16(%rbp), %xmm1, %xmm1
	vmovsd	%xmm1, -16(%rbp)
	vmulsd	-24(%rbp), %xmm0, %xmm0
	vmovsd	%xmm0, -24(%rbp)
# %bb.3:                                # %for.inc
                                        #   in Loop: Header=BB76_1 Depth=1
	movl	-4(%rbp), %eax
	addl	$1, %eax
	movl	%eax, -4(%rbp)
	jmp	.LBB76_1
.LBB76_4:                               # %for.end
	vmovsd	-16(%rbp), %xmm0        # xmm0 = mem[0],zero
	cmpl	$446974271, -28(%rbp)   # imm = 0x1AA4493F
	jne	.LBB76_6
.LBB76_5:
	addq	$48, %rsp
	popq	%rbp
	.cfi_def_cfa %rsp, 8
	retq
.LBB76_6:                               # %func_exit
	.cfi_def_cfa %rbp, 16
	vmovsd	%xmm0, -40(%rbp)        # 8-byte Spill
	callq	detect_breach
	vmovsd	-40(%rbp), %xmm0        # 8-byte Reload
                                        # xmm0 = mem[0],zero
	jmp	.LBB76_5
.Lfunc_end76:
	.size	uInt64_to_double.34, .Lfunc_end76-uInt64_to_double.34
	.cfi_endproc
                                        # -- End function
	.p2align	4, 0x90         # -- Begin function saveInputFileMetaInfo.35
	.type	saveInputFileMetaInfo.35,@function
saveInputFileMetaInfo.35:               # @saveInputFileMetaInfo.35
	.cfi_startproc
# %bb.0:                                # %entry
	pushq	%rbp
	.cfi_def_cfa_offset 16
	.cfi_offset %rbp, -16
	movq	%rsp, %rbp
	.cfi_def_cfa_register %rbp
	subq	$16, %rsp
	movl	$2032729146, -8(%rbp)   # imm = 0x7928FC3A
	movq	%rdi, -16(%rbp)
	movq	-16(%rbp), %rdi
	movabsq	$fileMetaInfo, %rsi
	callq	stat
	movl	%eax, -4(%rbp)
	cmpl	$0, -4(%rbp)
	je	.LBB77_2
# %bb.1:                                # %if.then
	callq	ioError
.LBB77_2:                               # %if.end
	cmpl	$2032729146, -8(%rbp)   # imm = 0x7928FC3A
	jne	.LBB77_4
.LBB77_3:
	addq	$16, %rsp
	popq	%rbp
	.cfi_def_cfa %rsp, 8
	retq
.LBB77_4:                               # %func_exit
	.cfi_def_cfa %rbp, 16
	callq	detect_breach
	jmp	.LBB77_3
.Lfunc_end77:
	.size	saveInputFileMetaInfo.35, .Lfunc_end77-saveInputFileMetaInfo.35
	.cfi_endproc
                                        # -- End function
	.p2align	4, 0x90         # -- Begin function mapSuffix.36
	.type	mapSuffix.36,@function
mapSuffix.36:                           # @mapSuffix.36
	.cfi_startproc
# %bb.0:                                # %entry
	pushq	%rbp
	.cfi_def_cfa_offset 16
	.cfi_offset %rbp, -16
	movq	%rsp, %rbp
	.cfi_def_cfa_register %rbp
	pushq	%r14
	pushq	%rbx
	subq	$48, %rsp
	.cfi_offset %rbx, -32
	.cfi_offset %r14, -24
	movl	$1322237489, -36(%rbp)  # imm = 0x4ECFBE31
	movq	%rdi, -32(%rbp)
	movq	%rsi, -48(%rbp)
	movq	%rdx, -56(%rbp)
	movq	-32(%rbp), %rdi
	movq	-48(%rbp), %rsi
	callq	hasSuffix
	cmpb	$0, %al
	jne	.LBB78_2
# %bb.1:                                # %if.then
	movb	$0, -17(%rbp)
	jmp	.LBB78_3
.LBB78_2:                               # %if.end
