	.text
	.file	"bzip2.c"
	.globl	fopen_output_safely     # -- Begin function fopen_output_safely
	.p2align	4, 0x90
	.type	fopen_output_safely,@function
fopen_output_safely:                    # @fopen_output_safely
	.cfi_startproc
# %bb.0:                                # %entry
	pushq	%rbp
	.cfi_def_cfa_offset 16
	.cfi_offset %rbp, -16
	movq	%rsp, %rbp
	.cfi_def_cfa_register %rbp
	subq	$48, %rsp
	movq	%rdi, -40(%rbp)
	movq	%rsi, -32(%rbp)
	movq	-40(%rbp), %rdi
	movl	$193, %esi
	movl	$384, %edx              # imm = 0x180
	movb	$0, %al
	callq	open
	movl	%eax, -4(%rbp)
	cmpl	$-1, -4(%rbp)
	jne	.LBB0_2
# %bb.1:                                # %if.then
	movq	$0, -24(%rbp)
	jmp	.LBB0_5
.LBB0_2:                                # %if.end
	movl	-4(%rbp), %edi
	movq	-32(%rbp), %rsi
	callq	fdopen
	movq	%rax, -16(%rbp)
	cmpq	$0, -16(%rbp)
	jne	.LBB0_4
# %bb.3:                                # %if.then3
	movl	-4(%rbp), %edi
	callq	close
.LBB0_4:                                # %if.end5
	movq	-16(%rbp), %rax
	movq	%rax, -24(%rbp)
.LBB0_5:                                # %return
	movq	-24(%rbp), %rax
	addq	$48, %rsp
	popq	%rbp
	.cfi_def_cfa %rsp, 8
	retq
.Lfunc_end0:
	.size	fopen_output_safely, .Lfunc_end0-fopen_output_safely
	.cfi_endproc
                                        # -- End function
	.globl	main                    # -- Begin function main
	.p2align	4, 0x90
	.type	main,@function
main:                                   # @main
	.cfi_startproc
# %bb.0:                                # %entry
	pushq	%rbp
	.cfi_def_cfa_offset 16
	.cfi_offset %rbp, -16
	movq	%rsp, %rbp
	.cfi_def_cfa_register %rbp
	pushq	%rbx
	subq	$72, %rsp
	.cfi_offset %rbx, -24
	movl	$0, -76(%rbp)
	movl	%edi, -52(%rbp)
	movq	%rsi, -64(%rbp)
	movq	$0, outputHandleJustInCase
	movb	$0, smallMode
	movb	$0, keepInputFiles
	movb	$0, forceOverwrite
	movb	$1, noisy
	movl	$0, verbosity
	movl	$9, blockSize100k
	movb	$0, testFailsExist
	movb	$0, unzFailsExist
	movl	$0, numFileNames
	movl	$0, numFilesProcessed
	movl	$30, workFactor
	movb	$0, deleteOutputOnInterrupt
	movl	$0, exitValue
	movl	$0, -36(%rbp)
	movl	$0, -40(%rbp)
	movl	$11, %edi
	movabsq	$mySIGSEGVorSIGBUScatcher, %rsi
	callq	signal
	movl	$7, %edi
	movabsq	$mySIGSEGVorSIGBUScatcher, %rsi
	callq	signal
	movabsq	$inName, %rdi
	movabsq	$.L.str, %rsi
	callq	copyFileName
	movabsq	$outName, %rdi
	movabsq	$.L.str, %rsi
	callq	copyFileName
	movq	-64(%rbp), %rax
	movq	(%rax), %rsi
	movabsq	$progNameReally, %rdi
	callq	copyFileName
	movabsq	$progNameReally, %rax
	movq	%rax, progName
	movq	%rax, -48(%rbp)
.LBB1_1:                                # %for.cond
                                        # =>This Inner Loop Header: Depth=1
	movq	-48(%rbp), %rax
	movsbl	(%rax), %eax
	cmpl	$0, %eax
	je	.LBB1_6
# %bb.2:                                # %for.body
                                        #   in Loop: Header=BB1_1 Depth=1
	movq	-48(%rbp), %rax
	movsbl	(%rax), %eax
	cmpl	$47, %eax
	jne	.LBB1_4
# %bb.3:                                # %if.then
                                        #   in Loop: Header=BB1_1 Depth=1
	movq	-48(%rbp), %rax
	addq	$1, %rax
	movq	%rax, progName
.LBB1_4:                                # %if.end
                                        #   in Loop: Header=BB1_1 Depth=1
	jmp	.LBB1_5
.LBB1_5:                                # %for.inc
                                        #   in Loop: Header=BB1_1 Depth=1
	movq	-48(%rbp), %rax
	addq	$1, %rax
	movq	%rax, -48(%rbp)
	jmp	.LBB1_1
.LBB1_6:                                # %for.end
	movq	$0, -32(%rbp)
	leaq	-32(%rbp), %rdi
	movabsq	$.L.str.1, %rsi
	callq	addFlagsFromEnvVar
	leaq	-32(%rbp), %rdi
	movabsq	$.L.str.2, %rsi
	callq	addFlagsFromEnvVar
	movl	$1, -40(%rbp)
.LBB1_7:                                # %for.cond6
                                        # =>This Inner Loop Header: Depth=1
	movl	-40(%rbp), %eax
	movl	-52(%rbp), %ecx
	subl	$1, %ecx
	cmpl	%ecx, %eax
	jg	.LBB1_10
# %bb.8:                                # %for.body9
                                        #   in Loop: Header=BB1_7 Depth=1
	movq	-32(%rbp), %rdi
	movq	-64(%rbp), %rax
	movslq	-40(%rbp), %rcx
	movq	(%rax,%rcx,8), %rsi
	callq	snocString
	movq	%rax, -32(%rbp)
# %bb.9:                                # %for.inc12
                                        #   in Loop: Header=BB1_7 Depth=1
	movl	-40(%rbp), %eax
	addl	$1, %eax
	movl	%eax, -40(%rbp)
	jmp	.LBB1_7
.LBB1_10:                               # %for.end13
	movl	$7, longestFileName
	movl	$0, numFileNames
	movb	$1, -9(%rbp)
	movq	-32(%rbp), %rax
	movq	%rax, -24(%rbp)
.LBB1_11:                               # %for.cond14
                                        # =>This Inner Loop Header: Depth=1
	cmpq	$0, -24(%rbp)
	je	.LBB1_21
# %bb.12:                               # %for.body17
                                        #   in Loop: Header=BB1_11 Depth=1
	movq	-24(%rbp), %rax
	movq	(%rax), %rdi
	movl	$.L.str.3, %esi
	callq	strcmp
	cmpl	$0, %eax
	jne	.LBB1_14
# %bb.13:                               # %if.then21
                                        #   in Loop: Header=BB1_11 Depth=1
	movb	$0, -9(%rbp)
	jmp	.LBB1_20
.LBB1_14:                               # %if.end22
                                        #   in Loop: Header=BB1_11 Depth=1
	movq	-24(%rbp), %rax
	movq	(%rax), %rax
	movsbl	(%rax), %eax
	cmpl	$45, %eax
	jne	.LBB1_17
# %bb.15:                               # %land.lhs.true
                                        #   in Loop: Header=BB1_11 Depth=1
	movzbl	-9(%rbp), %eax
	cmpl	$0, %eax
	je	.LBB1_17
# %bb.16:                               # %if.then29
                                        #   in Loop: Header=BB1_11 Depth=1
	jmp	.LBB1_20
.LBB1_17:                               # %if.end30
                                        #   in Loop: Header=BB1_11 Depth=1
	movl	numFileNames, %eax
	addl	$1, %eax
	movl	%eax, numFileNames
	movl	longestFileName, %ebx
	movq	-24(%rbp), %rax
	movq	(%rax), %rdi
	callq	strlen
	cmpl	%eax, %ebx
	jge	.LBB1_19
# %bb.18:                               # %if.then37
                                        #   in Loop: Header=BB1_11 Depth=1
	movq	-24(%rbp), %rax
	movq	(%rax), %rdi
	callq	strlen
	movl	%eax, longestFileName
.LBB1_19:                               # %if.end41
                                        #   in Loop: Header=BB1_11 Depth=1
	jmp	.LBB1_20
.LBB1_20:                               # %for.inc42
                                        #   in Loop: Header=BB1_11 Depth=1
	movq	-24(%rbp), %rax
	movq	8(%rax), %rax
	movq	%rax, -24(%rbp)
	jmp	.LBB1_11
.LBB1_21:                               # %for.end43
	cmpl	$0, numFileNames
	jne	.LBB1_23
# %bb.22:                               # %if.then46
	movl	$1, srcMode
	jmp	.LBB1_24
.LBB1_23:                               # %if.else
	movl	$3, srcMode
.LBB1_24:                               # %if.end47
	movl	$1, opMode
	movq	progName, %rdi
	movabsq	$.L.str.4, %rsi
	callq	strstr
	cmpq	$0, %rax
	jne	.LBB1_26
# %bb.25:                               # %lor.lhs.false
	movq	progName, %rdi
	movabsq	$.L.str.5, %rsi
	callq	strstr
	cmpq	$0, %rax
	je	.LBB1_27
.LBB1_26:                               # %if.then54
	movl	$2, opMode
.LBB1_27:                               # %if.end55
	movq	progName, %rdi
	movabsq	$.L.str.6, %rsi
	callq	strstr
	cmpq	$0, %rax
	jne	.LBB1_31
# %bb.28:                               # %lor.lhs.false59
	movq	progName, %rdi
	movabsq	$.L.str.7, %rsi
	callq	strstr
	cmpq	$0, %rax
	jne	.LBB1_31
# %bb.29:                               # %lor.lhs.false63
	movq	progName, %rdi
	movabsq	$.L.str.8, %rsi
	callq	strstr
	cmpq	$0, %rax
	jne	.LBB1_31
# %bb.30:                               # %lor.lhs.false67
	movq	progName, %rdi
	movabsq	$.L.str.9, %rsi
	callq	strstr
	cmpq	$0, %rax
	je	.LBB1_32
.LBB1_31:                               # %if.then71
	movl	$2, opMode
	movl	numFileNames, %eax
	cmpl	$0, %eax
	movl	$1, %eax
	movl	$2, %ecx
	cmovel	%eax, %ecx
	movl	%ecx, srcMode
.LBB1_32:                               # %if.end74
	movq	-32(%rbp), %rax
	movq	%rax, -24(%rbp)
.LBB1_33:                               # %for.cond75
                                        # =>This Loop Header: Depth=1
                                        #     Child Loop BB1_39 Depth 2
	cmpq	$0, -24(%rbp)
	je	.LBB1_68
# %bb.34:                               # %for.body78
                                        #   in Loop: Header=BB1_33 Depth=1
	movq	-24(%rbp), %rax
	movq	(%rax), %rdi
	movl	$.L.str.3, %esi
	callq	strcmp
	cmpl	$0, %eax
	jne	.LBB1_36
# %bb.35:                               # %if.then83
	jmp	.LBB1_69
.LBB1_36:                               # %if.end84
                                        #   in Loop: Header=BB1_33 Depth=1
	movq	-24(%rbp), %rax
	movq	(%rax), %rax
	movsbl	(%rax), %eax
	cmpl	$45, %eax
	jne	.LBB1_66
# %bb.37:                               # %land.lhs.true90
                                        #   in Loop: Header=BB1_33 Depth=1
	movq	-24(%rbp), %rax
	movq	(%rax), %rax
	movsbl	1(%rax), %eax
	cmpl	$45, %eax
	je	.LBB1_66
# %bb.38:                               # %if.then96
                                        #   in Loop: Header=BB1_33 Depth=1
	movl	$1, -36(%rbp)
.LBB1_39:                               # %for.cond97
                                        #   Parent Loop BB1_33 Depth=1
                                        # =>  This Inner Loop Header: Depth=2
	movq	-24(%rbp), %rax
	movq	(%rax), %rax
	movslq	-36(%rbp), %rcx
	movsbl	(%rax,%rcx), %eax
	cmpl	$0, %eax
	je	.LBB1_65
# %bb.40:                               # %for.body104
                                        #   in Loop: Header=BB1_39 Depth=2
	movq	-24(%rbp), %rax
	movq	(%rax), %rax
	movslq	-36(%rbp), %rcx
	movsbl	(%rax,%rcx), %eax
	addl	$-49, %eax
	movl	%eax, %ecx
	subl	$73, %ecx
	ja	.LBB1_62
# %bb.41:                               # %for.body104
                                        #   in Loop: Header=BB1_39 Depth=2
	movq	.LJTI1_0(,%rax,8), %rax
	jmpq	*%rax
.LBB1_42:                               # %sw.bb
                                        #   in Loop: Header=BB1_39 Depth=2
	movl	$2, srcMode
	jmp	.LBB1_63
.LBB1_43:                               # %sw.bb109
                                        #   in Loop: Header=BB1_39 Depth=2
	movl	$2, opMode
	jmp	.LBB1_63
.LBB1_44:                               # %sw.bb110
                                        #   in Loop: Header=BB1_39 Depth=2
	movl	$1, opMode
	jmp	.LBB1_63
.LBB1_45:                               # %sw.bb111
                                        #   in Loop: Header=BB1_39 Depth=2
	movb	$1, forceOverwrite
	jmp	.LBB1_63
.LBB1_46:                               # %sw.bb112
                                        #   in Loop: Header=BB1_39 Depth=2
	movl	$3, opMode
	jmp	.LBB1_63
.LBB1_47:                               # %sw.bb113
                                        #   in Loop: Header=BB1_39 Depth=2
	movb	$1, keepInputFiles
	jmp	.LBB1_63
.LBB1_48:                               # %sw.bb114
                                        #   in Loop: Header=BB1_39 Depth=2
	movb	$1, smallMode
	jmp	.LBB1_63
.LBB1_49:                               # %sw.bb115
                                        #   in Loop: Header=BB1_39 Depth=2
	movb	$0, noisy
	jmp	.LBB1_63
.LBB1_50:                               # %sw.bb116
                                        #   in Loop: Header=BB1_39 Depth=2
	movl	$1, blockSize100k
	jmp	.LBB1_63
.LBB1_51:                               # %sw.bb117
                                        #   in Loop: Header=BB1_39 Depth=2
	movl	$2, blockSize100k
	jmp	.LBB1_63
.LBB1_52:                               # %sw.bb118
                                        #   in Loop: Header=BB1_39 Depth=2
	movl	$3, blockSize100k
	jmp	.LBB1_63
.LBB1_53:                               # %sw.bb119
                                        #   in Loop: Header=BB1_39 Depth=2
	movl	$4, blockSize100k
	jmp	.LBB1_63
.LBB1_54:                               # %sw.bb120
                                        #   in Loop: Header=BB1_39 Depth=2
	movl	$5, blockSize100k
	jmp	.LBB1_63
.LBB1_55:                               # %sw.bb121
                                        #   in Loop: Header=BB1_39 Depth=2
	movl	$6, blockSize100k
	jmp	.LBB1_63
.LBB1_56:                               # %sw.bb122
                                        #   in Loop: Header=BB1_39 Depth=2
	movl	$7, blockSize100k
	jmp	.LBB1_63
.LBB1_57:                               # %sw.bb123
                                        #   in Loop: Header=BB1_39 Depth=2
	movl	$8, blockSize100k
	jmp	.LBB1_63
.LBB1_58:                               # %sw.bb124
                                        #   in Loop: Header=BB1_39 Depth=2
	movl	$9, blockSize100k
	jmp	.LBB1_63
.LBB1_59:                               # %sw.bb125
                                        #   in Loop: Header=BB1_39 Depth=2
	callq	license
	jmp	.LBB1_63
.LBB1_60:                               # %sw.bb126
                                        #   in Loop: Header=BB1_39 Depth=2
	movl	verbosity, %eax
	addl	$1, %eax
	movl	%eax, verbosity
	jmp	.LBB1_63
.LBB1_61:                               # %sw.bb128
	movq	progName, %rdi
	callq	usage
	xorl	%edi, %edi
	callq	exit
.LBB1_62:                               # %sw.default
	movq	stderr, %rdi
	movq	progName, %rdx
	movq	-24(%rbp), %rax
	movq	(%rax), %rcx
	movabsq	$.L.str.10, %rsi
	movb	$0, %al
	callq	fprintf
	movq	progName, %rdi
	callq	usage
	movl	$1, %edi
	callq	exit
.LBB1_63:                               # %sw.epilog
                                        #   in Loop: Header=BB1_39 Depth=2
	jmp	.LBB1_64
.LBB1_64:                               # %for.inc131
                                        #   in Loop: Header=BB1_39 Depth=2
	movl	-36(%rbp), %eax
	addl	$1, %eax
	movl	%eax, -36(%rbp)
	jmp	.LBB1_39
.LBB1_65:                               # %for.end133
                                        #   in Loop: Header=BB1_33 Depth=1
	jmp	.LBB1_66
.LBB1_66:                               # %if.end134
                                        #   in Loop: Header=BB1_33 Depth=1
	jmp	.LBB1_67
.LBB1_67:                               # %for.inc135
                                        #   in Loop: Header=BB1_33 Depth=1
	movq	-24(%rbp), %rax
	movq	8(%rax), %rax
	movq	%rax, -24(%rbp)
	jmp	.LBB1_33
.LBB1_68:                               # %for.end137.loopexit
	jmp	.LBB1_69
.LBB1_69:                               # %for.end137
	movq	-32(%rbp), %rax
	movq	%rax, -24(%rbp)
.LBB1_70:                               # %for.cond138
                                        # =>This Inner Loop Header: Depth=1
	cmpq	$0, -24(%rbp)
	je	.LBB1_128
# %bb.71:                               # %for.body141
                                        #   in Loop: Header=BB1_70 Depth=1
	movq	-24(%rbp), %rax
	movq	(%rax), %rdi
	movl	$.L.str.3, %esi
	callq	strcmp
	cmpl	$0, %eax
	jne	.LBB1_73
# %bb.72:                               # %if.then146
	jmp	.LBB1_129
.LBB1_73:                               # %if.end147
                                        #   in Loop: Header=BB1_70 Depth=1
	movq	-24(%rbp), %rax
	movq	(%rax), %rdi
	movl	$.L.str.11, %esi
	callq	strcmp
	cmpl	$0, %eax
	jne	.LBB1_75
# %bb.74:                               # %if.then152
                                        #   in Loop: Header=BB1_70 Depth=1
	movl	$2, srcMode
	jmp	.LBB1_126
.LBB1_75:                               # %if.else153
                                        #   in Loop: Header=BB1_70 Depth=1
	movq	-24(%rbp), %rax
	movq	(%rax), %rdi
	movl	$.L.str.12, %esi
	callq	strcmp
	cmpl	$0, %eax
	jne	.LBB1_77
# %bb.76:                               # %if.then158
                                        #   in Loop: Header=BB1_70 Depth=1
	movl	$2, opMode
	jmp	.LBB1_125
.LBB1_77:                               # %if.else159
                                        #   in Loop: Header=BB1_70 Depth=1
	movq	-24(%rbp), %rax
	movq	(%rax), %rdi
	movl	$.L.str.13, %esi
	callq	strcmp
	cmpl	$0, %eax
	jne	.LBB1_79
# %bb.78:                               # %if.then164
                                        #   in Loop: Header=BB1_70 Depth=1
	movl	$1, opMode
	jmp	.LBB1_124
.LBB1_79:                               # %if.else165
                                        #   in Loop: Header=BB1_70 Depth=1
	movq	-24(%rbp), %rax
	movq	(%rax), %rdi
	movl	$.L.str.14, %esi
	callq	strcmp
	cmpl	$0, %eax
	jne	.LBB1_81
# %bb.80:                               # %if.then170
                                        #   in Loop: Header=BB1_70 Depth=1
	movb	$1, forceOverwrite
	jmp	.LBB1_123
.LBB1_81:                               # %if.else171
                                        #   in Loop: Header=BB1_70 Depth=1
	movq	-24(%rbp), %rax
	movq	(%rax), %rdi
	movl	$.L.str.15, %esi
	callq	strcmp
	cmpl	$0, %eax
	jne	.LBB1_83
# %bb.82:                               # %if.then176
                                        #   in Loop: Header=BB1_70 Depth=1
	movl	$3, opMode
	jmp	.LBB1_122
.LBB1_83:                               # %if.else177
                                        #   in Loop: Header=BB1_70 Depth=1
	movq	-24(%rbp), %rax
	movq	(%rax), %rdi
	movl	$.L.str.16, %esi
	callq	strcmp
	cmpl	$0, %eax
	jne	.LBB1_85
# %bb.84:                               # %if.then182
                                        #   in Loop: Header=BB1_70 Depth=1
	movb	$1, keepInputFiles
	jmp	.LBB1_121
.LBB1_85:                               # %if.else183
                                        #   in Loop: Header=BB1_70 Depth=1
	movq	-24(%rbp), %rax
	movq	(%rax), %rdi
	movl	$.L.str.17, %esi
	callq	strcmp
	cmpl	$0, %eax
	jne	.LBB1_87
# %bb.86:                               # %if.then188
                                        #   in Loop: Header=BB1_70 Depth=1
	movb	$1, smallMode
	jmp	.LBB1_120
.LBB1_87:                               # %if.else189
                                        #   in Loop: Header=BB1_70 Depth=1
	movq	-24(%rbp), %rax
	movq	(%rax), %rdi
	movl	$.L.str.18, %esi
	callq	strcmp
	cmpl	$0, %eax
	jne	.LBB1_89
# %bb.88:                               # %if.then194
                                        #   in Loop: Header=BB1_70 Depth=1
	movb	$0, noisy
	jmp	.LBB1_119
.LBB1_89:                               # %if.else195
                                        #   in Loop: Header=BB1_70 Depth=1
	movq	-24(%rbp), %rax
	movq	(%rax), %rdi
	movl	$.L.str.19, %esi
	callq	strcmp
	cmpl	$0, %eax
	jne	.LBB1_91
# %bb.90:                               # %if.then200
                                        #   in Loop: Header=BB1_70 Depth=1
	callq	license
	jmp	.LBB1_118
.LBB1_91:                               # %if.else201
                                        #   in Loop: Header=BB1_70 Depth=1
	movq	-24(%rbp), %rax
	movq	(%rax), %rdi
	movl	$.L.str.20, %esi
	callq	strcmp
	cmpl	$0, %eax
	jne	.LBB1_93
# %bb.92:                               # %if.then206
                                        #   in Loop: Header=BB1_70 Depth=1
	callq	license
	jmp	.LBB1_117
.LBB1_93:                               # %if.else207
                                        #   in Loop: Header=BB1_70 Depth=1
	movq	-24(%rbp), %rax
	movq	(%rax), %rdi
	movl	$.L.str.21, %esi
	callq	strcmp
	cmpl	$0, %eax
	jne	.LBB1_95
# %bb.94:                               # %if.then212
                                        #   in Loop: Header=BB1_70 Depth=1
	movl	$1, workFactor
	jmp	.LBB1_116
.LBB1_95:                               # %if.else213
                                        #   in Loop: Header=BB1_70 Depth=1
	movq	-24(%rbp), %rax
	movq	(%rax), %rdi
	movl	$.L.str.22, %esi
	callq	strcmp
	cmpl	$0, %eax
	jne	.LBB1_97
# %bb.96:                               # %if.then218
                                        #   in Loop: Header=BB1_70 Depth=1
	movq	-24(%rbp), %rax
	movq	(%rax), %rdi
	callq	redundant
	jmp	.LBB1_115
.LBB1_97:                               # %if.else220
                                        #   in Loop: Header=BB1_70 Depth=1
	movq	-24(%rbp), %rax
	movq	(%rax), %rdi
	movl	$.L.str.23, %esi
	callq	strcmp
	cmpl	$0, %eax
	jne	.LBB1_99
# %bb.98:                               # %if.then225
                                        #   in Loop: Header=BB1_70 Depth=1
	movq	-24(%rbp), %rax
	movq	(%rax), %rdi
	callq	redundant
	jmp	.LBB1_114
.LBB1_99:                               # %if.else227
                                        #   in Loop: Header=BB1_70 Depth=1
	movq	-24(%rbp), %rax
	movq	(%rax), %rdi
	movl	$.L.str.24, %esi
	callq	strcmp
	cmpl	$0, %eax
	jne	.LBB1_101
# %bb.100:                              # %if.then232
                                        #   in Loop: Header=BB1_70 Depth=1
	movl	$1, blockSize100k
	jmp	.LBB1_113
.LBB1_101:                              # %if.else233
                                        #   in Loop: Header=BB1_70 Depth=1
	movq	-24(%rbp), %rax
	movq	(%rax), %rdi
	movl	$.L.str.25, %esi
	callq	strcmp
	cmpl	$0, %eax
	jne	.LBB1_103
# %bb.102:                              # %if.then238
                                        #   in Loop: Header=BB1_70 Depth=1
	movl	$9, blockSize100k
	jmp	.LBB1_112
.LBB1_103:                              # %if.else239
                                        #   in Loop: Header=BB1_70 Depth=1
	movq	-24(%rbp), %rax
	movq	(%rax), %rdi
	movl	$.L.str.26, %esi
	callq	strcmp
	cmpl	$0, %eax
	jne	.LBB1_105
# %bb.104:                              # %if.then244
                                        #   in Loop: Header=BB1_70 Depth=1
	movl	verbosity, %eax
	addl	$1, %eax
	movl	%eax, verbosity
	jmp	.LBB1_111
.LBB1_105:                              # %if.else246
                                        #   in Loop: Header=BB1_70 Depth=1
	movq	-24(%rbp), %rax
	movq	(%rax), %rdi
	movl	$.L.str.27, %esi
	callq	strcmp
	cmpl	$0, %eax
	jne	.LBB1_107
# %bb.106:                              # %if.then251
	movq	progName, %rdi
	callq	usage
	xorl	%edi, %edi
	callq	exit
.LBB1_107:                              # %if.else252
                                        #   in Loop: Header=BB1_70 Depth=1
	movq	-24(%rbp), %rax
	movq	(%rax), %rdi
	movabsq	$.L.str.3, %rsi
	movl	$2, %edx
	callq	strncmp
	cmpl	$0, %eax
	jne	.LBB1_109
# %bb.108:                              # %if.then257
	movq	stderr, %rdi
	movq	progName, %rdx
	movq	-24(%rbp), %rax
	movq	(%rax), %rcx
	movabsq	$.L.str.10, %rsi
	movb	$0, %al
	callq	fprintf
	movq	progName, %rdi
	callq	usage
	movl	$1, %edi
	callq	exit
.LBB1_109:                              # %if.end260
                                        #   in Loop: Header=BB1_70 Depth=1
	jmp	.LBB1_110
.LBB1_110:                              # %if.end261
                                        #   in Loop: Header=BB1_70 Depth=1
	jmp	.LBB1_111
.LBB1_111:                              # %if.end262
                                        #   in Loop: Header=BB1_70 Depth=1
	jmp	.LBB1_112
.LBB1_112:                              # %if.end263
                                        #   in Loop: Header=BB1_70 Depth=1
	jmp	.LBB1_113
.LBB1_113:                              # %if.end264
                                        #   in Loop: Header=BB1_70 Depth=1
	jmp	.LBB1_114
.LBB1_114:                              # %if.end265
                                        #   in Loop: Header=BB1_70 Depth=1
	jmp	.LBB1_115
.LBB1_115:                              # %if.end266
                                        #   in Loop: Header=BB1_70 Depth=1
	jmp	.LBB1_116
.LBB1_116:                              # %if.end267
                                        #   in Loop: Header=BB1_70 Depth=1
	jmp	.LBB1_117
.LBB1_117:                              # %if.end268
                                        #   in Loop: Header=BB1_70 Depth=1
	jmp	.LBB1_118
.LBB1_118:                              # %if.end269
                                        #   in Loop: Header=BB1_70 Depth=1
	jmp	.LBB1_119
.LBB1_119:                              # %if.end270
                                        #   in Loop: Header=BB1_70 Depth=1
	jmp	.LBB1_120
.LBB1_120:                              # %if.end271
                                        #   in Loop: Header=BB1_70 Depth=1
	jmp	.LBB1_121
.LBB1_121:                              # %if.end272
                                        #   in Loop: Header=BB1_70 Depth=1
	jmp	.LBB1_122
.LBB1_122:                              # %if.end273
                                        #   in Loop: Header=BB1_70 Depth=1
	jmp	.LBB1_123
.LBB1_123:                              # %if.end274
                                        #   in Loop: Header=BB1_70 Depth=1
	jmp	.LBB1_124
.LBB1_124:                              # %if.end275
                                        #   in Loop: Header=BB1_70 Depth=1
	jmp	.LBB1_125
.LBB1_125:                              # %if.end276
                                        #   in Loop: Header=BB1_70 Depth=1
	jmp	.LBB1_126
.LBB1_126:                              # %if.end277
                                        #   in Loop: Header=BB1_70 Depth=1
	jmp	.LBB1_127
.LBB1_127:                              # %for.inc278
                                        #   in Loop: Header=BB1_70 Depth=1
	movq	-24(%rbp), %rax
	movq	8(%rax), %rax
	movq	%rax, -24(%rbp)
	jmp	.LBB1_70
.LBB1_128:                              # %for.end280.loopexit
	jmp	.LBB1_129
.LBB1_129:                              # %for.end280
	cmpl	$4, verbosity
	jle	.LBB1_131
# %bb.130:                              # %if.then283
	movl	$4, verbosity
.LBB1_131:                              # %if.end284
	cmpl	$1, opMode
	jne	.LBB1_135
# %bb.132:                              # %land.lhs.true287
	movzbl	smallMode, %eax
	cmpl	$0, %eax
	je	.LBB1_135
# %bb.133:                              # %land.lhs.true290
	cmpl	$2, blockSize100k
	jle	.LBB1_135
# %bb.134:                              # %if.then293
	movl	$2, blockSize100k
.LBB1_135:                              # %if.end294
	cmpl	$3, opMode
	jne	.LBB1_138
# %bb.136:                              # %land.lhs.true297
	cmpl	$2, srcMode
	jne	.LBB1_138
# %bb.137:                              # %if.then300
	movq	stderr, %rdi
	movq	progName, %rdx
	movabsq	$.L.str.28, %rsi
	movb	$0, %al
	callq	fprintf
	movl	$1, %edi
	callq	exit
.LBB1_138:                              # %if.end302
	cmpl	$2, srcMode
	jne	.LBB1_141
# %bb.139:                              # %land.lhs.true305
	cmpl	$0, numFileNames
	jne	.LBB1_141
# %bb.140:                              # %if.then308
	movl	$1, srcMode
.LBB1_141:                              # %if.end309
	cmpl	$1, opMode
	je	.LBB1_143
# %bb.142:                              # %if.then312
	movl	$0, blockSize100k
.LBB1_143:                              # %if.end313
	cmpl	$3, srcMode
	jne	.LBB1_145
# %bb.144:                              # %if.then316
	movl	$2, %edi
	movabsq	$mySignalCatcher, %rsi
	callq	signal
	movl	$15, %edi
	movabsq	$mySignalCatcher, %rsi
	callq	signal
	movl	$1, %edi
	movabsq	$mySignalCatcher, %rsi
	callq	signal
.LBB1_145:                              # %if.end320
	cmpl	$1, opMode
	jne	.LBB1_159
# %bb.146:                              # %if.then323
	cmpl	$1, srcMode
	jne	.LBB1_148
# %bb.147:                              # %if.then326
	xorl	%edi, %edi
	callq	compress
	jmp	.LBB1_158
.LBB1_148:                              # %if.else327
	movb	$1, -9(%rbp)
	movq	-32(%rbp), %rax
	movq	%rax, -24(%rbp)
.LBB1_149:                              # %for.cond328
                                        # =>This Inner Loop Header: Depth=1
	cmpq	$0, -24(%rbp)
	je	.LBB1_157
# %bb.150:                              # %for.body331
                                        #   in Loop: Header=BB1_149 Depth=1
	movq	-24(%rbp), %rax
	movq	(%rax), %rdi
	movl	$.L.str.3, %esi
	callq	strcmp
	cmpl	$0, %eax
	jne	.LBB1_152
# %bb.151:                              # %if.then336
                                        #   in Loop: Header=BB1_149 Depth=1
	movb	$0, -9(%rbp)
	jmp	.LBB1_156
.LBB1_152:                              # %if.end337
                                        #   in Loop: Header=BB1_149 Depth=1
	movq	-24(%rbp), %rax
	movq	(%rax), %rax
	movsbl	(%rax), %eax
	cmpl	$45, %eax
	jne	.LBB1_155
# %bb.153:                              # %land.lhs.true343
                                        #   in Loop: Header=BB1_149 Depth=1
	movzbl	-9(%rbp), %eax
	cmpl	$0, %eax
	je	.LBB1_155
# %bb.154:                              # %if.then346
                                        #   in Loop: Header=BB1_149 Depth=1
	jmp	.LBB1_156
.LBB1_155:                              # %if.end347
                                        #   in Loop: Header=BB1_149 Depth=1
	movl	numFilesProcessed, %eax
	addl	$1, %eax
	movl	%eax, numFilesProcessed
	movq	-24(%rbp), %rax
	movq	(%rax), %rdi
	callq	compress
.LBB1_156:                              # %for.inc350
                                        #   in Loop: Header=BB1_149 Depth=1
	movq	-24(%rbp), %rax
	movq	8(%rax), %rax
	movq	%rax, -24(%rbp)
	jmp	.LBB1_149
.LBB1_157:                              # %for.end352
	jmp	.LBB1_158
.LBB1_158:                              # %if.end353
	jmp	.LBB1_192
.LBB1_159:                              # %if.else354
	cmpl	$2, opMode
	jne	.LBB1_175
# %bb.160:                              # %if.then357
	movb	$0, unzFailsExist
	cmpl	$1, srcMode
	jne	.LBB1_162
# %bb.161:                              # %if.then360
	xorl	%edi, %edi
	callq	uncompress
	jmp	.LBB1_172
.LBB1_162:                              # %if.else361
	movb	$1, -9(%rbp)
	movq	-32(%rbp), %rax
	movq	%rax, -24(%rbp)
.LBB1_163:                              # %for.cond362
                                        # =>This Inner Loop Header: Depth=1
	cmpq	$0, -24(%rbp)
	je	.LBB1_171
# %bb.164:                              # %for.body365
                                        #   in Loop: Header=BB1_163 Depth=1
	movq	-24(%rbp), %rax
	movq	(%rax), %rdi
	movl	$.L.str.3, %esi
	callq	strcmp
	cmpl	$0, %eax
	jne	.LBB1_166
# %bb.165:                              # %if.then370
                                        #   in Loop: Header=BB1_163 Depth=1
	movb	$0, -9(%rbp)
	jmp	.LBB1_170
.LBB1_166:                              # %if.end371
                                        #   in Loop: Header=BB1_163 Depth=1
	movq	-24(%rbp), %rax
	movq	(%rax), %rax
	movsbl	(%rax), %eax
	cmpl	$45, %eax
	jne	.LBB1_169
# %bb.167:                              # %land.lhs.true377
                                        #   in Loop: Header=BB1_163 Depth=1
	movzbl	-9(%rbp), %eax
	cmpl	$0, %eax
	je	.LBB1_169
# %bb.168:                              # %if.then380
                                        #   in Loop: Header=BB1_163 Depth=1
	jmp	.LBB1_170
.LBB1_169:                              # %if.end381
                                        #   in Loop: Header=BB1_163 Depth=1
	movl	numFilesProcessed, %eax
	addl	$1, %eax
	movl	%eax, numFilesProcessed
	movq	-24(%rbp), %rax
	movq	(%rax), %rdi
	callq	uncompress
.LBB1_170:                              # %for.inc384
                                        #   in Loop: Header=BB1_163 Depth=1
	movq	-24(%rbp), %rax
	movq	8(%rax), %rax
	movq	%rax, -24(%rbp)
	jmp	.LBB1_163
.LBB1_171:                              # %for.end386
	jmp	.LBB1_172
.LBB1_172:                              # %if.end387
	cmpb	$0, unzFailsExist
	je	.LBB1_174
# %bb.173:                              # %if.then389
	movl	$2, %edi
	callq	setExit
	movl	exitValue, %edi
	callq	exit
.LBB1_174:                              # %if.end390
	jmp	.LBB1_191
.LBB1_175:                              # %if.else391
	movb	$0, testFailsExist
	cmpl	$1, srcMode
	jne	.LBB1_177
# %bb.176:                              # %if.then394
	xorl	%edi, %edi
	callq	testf
	jmp	.LBB1_187
.LBB1_177:                              # %if.else395
	movb	$1, -9(%rbp)
	movq	-32(%rbp), %rax
	movq	%rax, -24(%rbp)
.LBB1_178:                              # %for.cond396
                                        # =>This Inner Loop Header: Depth=1
	cmpq	$0, -24(%rbp)
	je	.LBB1_186
# %bb.179:                              # %for.body399
                                        #   in Loop: Header=BB1_178 Depth=1
	movq	-24(%rbp), %rax
	movq	(%rax), %rdi
	movl	$.L.str.3, %esi
	callq	strcmp
	cmpl	$0, %eax
	jne	.LBB1_181
# %bb.180:                              # %if.then404
                                        #   in Loop: Header=BB1_178 Depth=1
	movb	$0, -9(%rbp)
	jmp	.LBB1_185
.LBB1_181:                              # %if.end405
                                        #   in Loop: Header=BB1_178 Depth=1
	movq	-24(%rbp), %rax
	movq	(%rax), %rax
	movsbl	(%rax), %eax
	cmpl	$45, %eax
	jne	.LBB1_184
# %bb.182:                              # %land.lhs.true411
                                        #   in Loop: Header=BB1_178 Depth=1
	movzbl	-9(%rbp), %eax
	cmpl	$0, %eax
	je	.LBB1_184
# %bb.183:                              # %if.then414
                                        #   in Loop: Header=BB1_178 Depth=1
	jmp	.LBB1_185
.LBB1_184:                              # %if.end415
                                        #   in Loop: Header=BB1_178 Depth=1
	movl	numFilesProcessed, %eax
	addl	$1, %eax
	movl	%eax, numFilesProcessed
	movq	-24(%rbp), %rax
	movq	(%rax), %rdi
	callq	testf
.LBB1_185:                              # %for.inc418
                                        #   in Loop: Header=BB1_178 Depth=1
	movq	-24(%rbp), %rax
	movq	8(%rax), %rax
	movq	%rax, -24(%rbp)
	jmp	.LBB1_178
.LBB1_186:                              # %for.end420
	jmp	.LBB1_187
.LBB1_187:                              # %if.end421
	movzbl	testFailsExist, %eax
	cmpl	$0, %eax
	je	.LBB1_190
# %bb.188:                              # %land.lhs.true424
	movzbl	noisy, %eax
	cmpl	$0, %eax
	je	.LBB1_190
# %bb.189:                              # %if.then427
	movq	stderr, %rdi
	movabsq	$.L.str.29, %rsi
	movb	$0, %al
	callq	fprintf
	movl	$2, %edi
	callq	setExit
	movl	exitValue, %edi
	callq	exit
.LBB1_190:                              # %if.end429
	jmp	.LBB1_191
.LBB1_191:                              # %if.end430
	jmp	.LBB1_192
.LBB1_192:                              # %if.end431
	movq	-32(%rbp), %rax
	movq	%rax, -24(%rbp)
.LBB1_193:                              # %while.cond
                                        # =>This Inner Loop Header: Depth=1
	cmpq	$0, -24(%rbp)
	je	.LBB1_197
# %bb.194:                              # %while.body
                                        #   in Loop: Header=BB1_193 Depth=1
	movq	-24(%rbp), %rax
	movq	8(%rax), %rax
	movq	%rax, -72(%rbp)
	movq	-24(%rbp), %rax
	cmpq	$0, (%rax)
	je	.LBB1_196
# %bb.195:                              # %if.then438
                                        #   in Loop: Header=BB1_193 Depth=1
	movq	-24(%rbp), %rax
	movq	(%rax), %rdi
	callq	free
.LBB1_196:                              # %if.end440
                                        #   in Loop: Header=BB1_193 Depth=1
	movq	-24(%rbp), %rdi
	callq	free
	movq	-72(%rbp), %rax
	movq	%rax, -24(%rbp)
	jmp	.LBB1_193
.LBB1_197:                              # %while.end
	movl	exitValue, %eax
	addq	$72, %rsp
	popq	%rbx
	popq	%rbp
	.cfi_def_cfa %rsp, 8
	retq
.Lfunc_end1:
	.size	main, .Lfunc_end1-main
	.cfi_endproc
	.section	.rodata,"a",@progbits
	.p2align	3
.LJTI1_0:
	.quad	.LBB1_50
	.quad	.LBB1_51
	.quad	.LBB1_52
	.quad	.LBB1_53
	.quad	.LBB1_54
	.quad	.LBB1_55
	.quad	.LBB1_56
	.quad	.LBB1_57
	.quad	.LBB1_58
	.quad	.LBB1_62
	.quad	.LBB1_62
	.quad	.LBB1_62
	.quad	.LBB1_62
	.quad	.LBB1_62
	.quad	.LBB1_62
	.quad	.LBB1_62
	.quad	.LBB1_62
	.quad	.LBB1_62
	.quad	.LBB1_62
	.quad	.LBB1_62
	.quad	.LBB1_62
	.quad	.LBB1_62
	.quad	.LBB1_62
	.quad	.LBB1_62
	.quad	.LBB1_62
	.quad	.LBB1_62
	.quad	.LBB1_62
	.quad	.LBB1_59
	.quad	.LBB1_62
	.quad	.LBB1_62
	.quad	.LBB1_62
	.quad	.LBB1_62
	.quad	.LBB1_62
	.quad	.LBB1_62
	.quad	.LBB1_62
	.quad	.LBB1_62
	.quad	.LBB1_62
	.quad	.LBB1_59
	.quad	.LBB1_62
	.quad	.LBB1_62
	.quad	.LBB1_62
	.quad	.LBB1_62
	.quad	.LBB1_62
	.quad	.LBB1_62
	.quad	.LBB1_62
	.quad	.LBB1_62
	.quad	.LBB1_62
	.quad	.LBB1_62
	.quad	.LBB1_62
	.quad	.LBB1_62
	.quad	.LBB1_42
	.quad	.LBB1_43
	.quad	.LBB1_62
	.quad	.LBB1_45
	.quad	.LBB1_62
	.quad	.LBB1_61
	.quad	.LBB1_62
	.quad	.LBB1_62
	.quad	.LBB1_47
	.quad	.LBB1_62
	.quad	.LBB1_62
	.quad	.LBB1_62
	.quad	.LBB1_62
	.quad	.LBB1_62
	.quad	.LBB1_49
	.quad	.LBB1_62
	.quad	.LBB1_48
	.quad	.LBB1_46
	.quad	.LBB1_62
	.quad	.LBB1_60
	.quad	.LBB1_62
	.quad	.LBB1_62
	.quad	.LBB1_62
	.quad	.LBB1_44
                                        # -- End function
	.text
	.p2align	4, 0x90         # -- Begin function mySIGSEGVorSIGBUScatcher
	.type	mySIGSEGVorSIGBUScatcher,@function
mySIGSEGVorSIGBUScatcher:               # @mySIGSEGVorSIGBUScatcher
	.cfi_startproc
# %bb.0:                                # %entry
	pushq	%rbp
	.cfi_def_cfa_offset 16
	.cfi_offset %rbp, -16
	movq	%rsp, %rbp
	.cfi_def_cfa_register %rbp
	subq	$16, %rsp
	movl	%edi, -4(%rbp)
	cmpl	$1, opMode
	jne	.LBB2_2
# %bb.1:                                # %if.then
	movq	stderr, %rdi
	movq	progName, %rdx
	movabsq	$.L.str.36, %rsi
	movb	$0, %al
	callq	fprintf
	jmp	.LBB2_3
.LBB2_2:                                # %if.else
	movq	stderr, %rdi
	movq	progName, %rdx
	movabsq	$.L.str.37, %rsi
	movb	$0, %al
	callq	fprintf
.LBB2_3:                                # %if.end
	callq	showFileNames
	cmpl	$1, opMode
	jne	.LBB2_5
# %bb.4:                                # %if.then3
	movl	$3, %edi
	callq	cleanUpAndFail
.LBB2_5:                                # %if.else4
	callq	cadvise
	movl	$2, %edi
	callq	cleanUpAndFail
.Lfunc_end2:
	.size	mySIGSEGVorSIGBUScatcher, .Lfunc_end2-mySIGSEGVorSIGBUScatcher
	.cfi_endproc
                                        # -- End function
	.p2align	4, 0x90         # -- Begin function copyFileName
	.type	copyFileName,@function
copyFileName:                           # @copyFileName
	.cfi_startproc
# %bb.0:                                # %entry
	pushq	%rbp
	.cfi_def_cfa_offset 16
	.cfi_offset %rbp, -16
	movq	%rsp, %rbp
	.cfi_def_cfa_register %rbp
	subq	$16, %rsp
	movq	%rdi, -16(%rbp)
	movq	%rsi, -8(%rbp)
	movq	-8(%rbp), %rdi
	callq	strlen
	cmpq	$1024, %rax             # imm = 0x400
	jbe	.LBB3_2
# %bb.1:                                # %if.then
	movq	stderr, %rdi
	movq	-8(%rbp), %rdx
	movabsq	$.L.str.47, %rsi
	movl	$1024, %ecx             # imm = 0x400
	movb	$0, %al
	callq	fprintf
	movl	$1, %edi
	callq	setExit
	movl	exitValue, %edi
	callq	exit
.LBB3_2:                                # %if.end
	movq	-16(%rbp), %rdi
	movq	-8(%rbp), %rsi
	movl	$1024, %edx             # imm = 0x400
	callq	strncpy
	movq	-16(%rbp), %rax
	movb	$0, 1024(%rax)
	addq	$16, %rsp
	popq	%rbp
	.cfi_def_cfa %rsp, 8
	retq
.Lfunc_end3:
	.size	copyFileName, .Lfunc_end3-copyFileName
	.cfi_endproc
                                        # -- End function
	.p2align	4, 0x90         # -- Begin function addFlagsFromEnvVar
	.type	addFlagsFromEnvVar,@function
addFlagsFromEnvVar:                     # @addFlagsFromEnvVar
	.cfi_startproc
# %bb.0:                                # %entry
	pushq	%rbp
	.cfi_def_cfa_offset 16
	.cfi_offset %rbp, -16
	movq	%rsp, %rbp
	.cfi_def_cfa_register %rbp
	subq	$48, %rsp
	movq	%rdi, -40(%rbp)
	movq	%rsi, -48(%rbp)
	movq	-48(%rbp), %rdi
	callq	getenv
	movq	%rax, -32(%rbp)
	cmpq	$0, -32(%rbp)
	je	.LBB4_22
# %bb.1:                                # %if.then
	movq	-32(%rbp), %rax
	movq	%rax, -16(%rbp)
	movl	$0, -4(%rbp)
.LBB4_2:                                # %while.body
                                        # =>This Loop Header: Depth=1
                                        #     Child Loop BB4_5 Depth 2
                                        #     Child Loop BB4_8 Depth 2
                                        #     Child Loop BB4_16 Depth 2
	movq	-16(%rbp), %rax
	movslq	-4(%rbp), %rcx
	movsbl	(%rax,%rcx), %eax
	cmpl	$0, %eax
	jne	.LBB4_4
# %bb.3:                                # %if.then3
	jmp	.LBB4_21
.LBB4_4:                                # %if.end
                                        #   in Loop: Header=BB4_2 Depth=1
	movl	-4(%rbp), %eax
	movq	-16(%rbp), %rcx
	cltq
	addq	%rax, %rcx
	movq	%rcx, -16(%rbp)
	movl	$0, -4(%rbp)
.LBB4_5:                                # %while.cond4
                                        #   Parent Loop BB4_2 Depth=1
                                        # =>  This Inner Loop Header: Depth=2
	callq	__ctype_b_loc
	movq	(%rax), %rax
	movq	-16(%rbp), %rcx
	movsbl	(%rcx), %ecx
	movslq	%ecx, %rcx
	movzwl	(%rax,%rcx,2), %eax
	andl	$8192, %eax             # imm = 0x2000
	cmpl	$0, %eax
	je	.LBB4_7
# %bb.6:                                # %while.body11
                                        #   in Loop: Header=BB4_5 Depth=2
	movq	-16(%rbp), %rax
	addq	$1, %rax
	movq	%rax, -16(%rbp)
	jmp	.LBB4_5
.LBB4_7:                                # %while.end
                                        #   in Loop: Header=BB4_2 Depth=1
	jmp	.LBB4_8
.LBB4_8:                                # %while.cond12
                                        #   Parent Loop BB4_2 Depth=1
                                        # =>  This Inner Loop Header: Depth=2
	xorl	%eax, %eax
	movq	-16(%rbp), %rcx
	movslq	-4(%rbp), %rdx
	movsbl	(%rcx,%rdx), %ecx
	cmpl	$0, %ecx
	je	.LBB4_10
# %bb.9:                                # %land.rhs
                                        #   in Loop: Header=BB4_8 Depth=2
	callq	__ctype_b_loc
	movq	(%rax), %rax
	movq	-16(%rbp), %rcx
	movslq	-4(%rbp), %rdx
	movsbl	(%rcx,%rdx), %ecx
	movslq	%ecx, %rcx
	movzwl	(%rax,%rcx,2), %eax
	andl	$8192, %eax             # imm = 0x2000
	cmpl	$0, %eax
	setne	%al
	xorb	$-1, %al
.LBB4_10:                               # %land.end
                                        #   in Loop: Header=BB4_8 Depth=2
	testb	$1, %al
	jne	.LBB4_11
	jmp	.LBB4_12
.LBB4_11:                               # %while.body27
                                        #   in Loop: Header=BB4_8 Depth=2
	movl	-4(%rbp), %eax
	addl	$1, %eax
	movl	%eax, -4(%rbp)
	jmp	.LBB4_8
.LBB4_12:                               # %while.end28
                                        #   in Loop: Header=BB4_2 Depth=1
	cmpl	$0, -4(%rbp)
	jle	.LBB4_20
# %bb.13:                               # %if.then31
                                        #   in Loop: Header=BB4_2 Depth=1
	movl	-4(%rbp), %eax
	movl	%eax, -20(%rbp)
	cmpl	$1024, -20(%rbp)        # imm = 0x400
	jle	.LBB4_15
# %bb.14:                               # %if.then34
                                        #   in Loop: Header=BB4_2 Depth=1
	movl	$1024, -20(%rbp)        # imm = 0x400
.LBB4_15:                               # %if.end35
                                        #   in Loop: Header=BB4_2 Depth=1
	movl	$0, -8(%rbp)
.LBB4_16:                               # %for.cond
                                        #   Parent Loop BB4_2 Depth=1
                                        # =>  This Inner Loop Header: Depth=2
	movl	-8(%rbp), %eax
	cmpl	-20(%rbp), %eax
	jge	.LBB4_19
# %bb.17:                               # %for.body
                                        #   in Loop: Header=BB4_16 Depth=2
	movq	-16(%rbp), %rax
	movslq	-8(%rbp), %rcx
	movb	(%rax,%rcx), %al
	movslq	-8(%rbp), %rcx
	movb	%al, tmpName(,%rcx)
# %bb.18:                               # %for.inc
                                        #   in Loop: Header=BB4_16 Depth=2
	movl	-8(%rbp), %eax
	addl	$1, %eax
	movl	%eax, -8(%rbp)
	jmp	.LBB4_16
.LBB4_19:                               # %for.end
                                        #   in Loop: Header=BB4_2 Depth=1
	movslq	-20(%rbp), %rax
	movb	$0, tmpName(,%rax)
	movq	-40(%rbp), %rax
	movq	(%rax), %rdi
	movabsq	$tmpName, %rsi
	callq	snocString
	movq	-40(%rbp), %rcx
	movq	%rax, (%rcx)
.LBB4_20:                               # %if.end46
                                        #   in Loop: Header=BB4_2 Depth=1
	jmp	.LBB4_2
.LBB4_21:                               # %while.end47
	jmp	.LBB4_22
.LBB4_22:                               # %if.end48
	addq	$48, %rsp
	popq	%rbp
	.cfi_def_cfa %rsp, 8
	retq
.Lfunc_end4:
	.size	addFlagsFromEnvVar, .Lfunc_end4-addFlagsFromEnvVar
	.cfi_endproc
                                        # -- End function
	.p2align	4, 0x90         # -- Begin function snocString
	.type	snocString,@function
snocString:                             # @snocString
	.cfi_startproc
# %bb.0:                                # %entry
	pushq	%rbp
	.cfi_def_cfa_offset 16
	.cfi_offset %rbp, -16
	movq	%rsp, %rbp
	.cfi_def_cfa_register %rbp
	subq	$48, %rsp
	movq	%rdi, -32(%rbp)
	movq	%rsi, -24(%rbp)
	cmpq	$0, -32(%rbp)
	jne	.LBB5_2
# %bb.1:                                # %if.then
	callq	mkCell
	movq	%rax, -16(%rbp)
	movq	-24(%rbp), %rdi
	callq	strlen
	addq	$5, %rax
	movl	%eax, %edi
	callq	myMalloc
	movq	-16(%rbp), %rcx
	movq	%rax, (%rcx)
	movq	-16(%rbp), %rax
	movq	(%rax), %rdi
	movq	-24(%rbp), %rsi
	callq	strcpy
	movq	-16(%rbp), %rax
	movq	%rax, -40(%rbp)
	jmp	.LBB5_6
.LBB5_2:                                # %if.else
	movq	-32(%rbp), %rax
	movq	%rax, -8(%rbp)
.LBB5_3:                                # %while.cond
                                        # =>This Inner Loop Header: Depth=1
	movq	-8(%rbp), %rax
	cmpq	$0, 8(%rax)
	je	.LBB5_5
# %bb.4:                                # %while.body
                                        #   in Loop: Header=BB5_3 Depth=1
	movq	-8(%rbp), %rax
	movq	8(%rax), %rax
	movq	%rax, -8(%rbp)
	jmp	.LBB5_3
.LBB5_5:                                # %while.end
	movq	-8(%rbp), %rax
	movq	8(%rax), %rdi
	movq	-24(%rbp), %rsi
	callq	snocString
	movq	-8(%rbp), %rcx
	movq	%rax, 8(%rcx)
	movq	-32(%rbp), %rax
	movq	%rax, -40(%rbp)
.LBB5_6:                                # %return
	movq	-40(%rbp), %rax
	addq	$48, %rsp
	popq	%rbp
	.cfi_def_cfa %rsp, 8
	retq
.Lfunc_end5:
	.size	snocString, .Lfunc_end5-snocString
	.cfi_endproc
                                        # -- End function
	.p2align	4, 0x90         # -- Begin function license
	.type	license,@function
license:                                # @license
	.cfi_startproc
# %bb.0:                                # %entry
	pushq	%rbp
	.cfi_def_cfa_offset 16
	.cfi_offset %rbp, -16
	movq	%rsp, %rbp
	.cfi_def_cfa_register %rbp
	pushq	%rbx
	pushq	%rax
	.cfi_offset %rbx, -24
	movq	stderr, %rbx
	callq	BZ2_bzlibVersion
	movq	%rbx, %rdi
	movabsq	$.L.str.49, %rsi
	movq	%rax, %rdx
	movb	$0, %al
	callq	fprintf
	addq	$8, %rsp
	popq	%rbx
	popq	%rbp
	.cfi_def_cfa %rsp, 8
	retq
.Lfunc_end6:
	.size	license, .Lfunc_end6-license
	.cfi_endproc
                                        # -- End function
	.p2align	4, 0x90         # -- Begin function usage
	.type	usage,@function
usage:                                  # @usage
	.cfi_startproc
# %bb.0:                                # %entry
	pushq	%rbp
	.cfi_def_cfa_offset 16
	.cfi_offset %rbp, -16
	movq	%rsp, %rbp
	.cfi_def_cfa_register %rbp
	pushq	%rbx
	pushq	%rax
	.cfi_offset %rbx, -24
	movq	%rdi, -16(%rbp)
	movq	stderr, %rbx
	callq	BZ2_bzlibVersion
	movq	-16(%rbp), %rcx
	movq	%rbx, %rdi
	movabsq	$.L.str.50, %rsi
	movq	%rax, %rdx
	movb	$0, %al
	callq	fprintf
	addq	$8, %rsp
	popq	%rbx
	popq	%rbp
	.cfi_def_cfa %rsp, 8
	retq
.Lfunc_end7:
	.size	usage, .Lfunc_end7-usage
	.cfi_endproc
                                        # -- End function
	.p2align	4, 0x90         # -- Begin function redundant
	.type	redundant,@function
redundant:                              # @redundant
	.cfi_startproc
# %bb.0:                                # %entry
	pushq	%rbp
	.cfi_def_cfa_offset 16
	.cfi_offset %rbp, -16
	movq	%rsp, %rbp
	.cfi_def_cfa_register %rbp
	subq	$16, %rsp
	movq	%rdi, -8(%rbp)
	movq	stderr, %rdi
	movq	progName, %rdx
	movq	-8(%rbp), %rcx
	movabsq	$.L.str.51, %rsi
	movb	$0, %al
	callq	fprintf
	addq	$16, %rsp
	popq	%rbp
	.cfi_def_cfa %rsp, 8
	retq
.Lfunc_end8:
	.size	redundant, .Lfunc_end8-redundant
	.cfi_endproc
                                        # -- End function
	.p2align	4, 0x90         # -- Begin function mySignalCatcher
	.type	mySignalCatcher,@function
mySignalCatcher:                        # @mySignalCatcher
	.cfi_startproc
# %bb.0:                                # %entry
	pushq	%rbp
	.cfi_def_cfa_offset 16
	.cfi_offset %rbp, -16
	movq	%rsp, %rbp
	.cfi_def_cfa_register %rbp
	subq	$16, %rsp
	movl	%edi, -4(%rbp)
	movq	stderr, %rdi
	movq	progName, %rdx
	movabsq	$.L.str.52, %rsi
	movb	$0, %al
	callq	fprintf
	movl	$1, %edi
	callq	cleanUpAndFail
.Lfunc_end9:
	.size	mySignalCatcher, .Lfunc_end9-mySignalCatcher
	.cfi_endproc
                                        # -- End function
	.p2align	4, 0x90         # -- Begin function compress
	.type	compress,@function
compress:                               # @compress
	.cfi_startproc
# %bb.0:                                # %entry
	pushq	%rbp
	.cfi_def_cfa_offset 16
	.cfi_offset %rbp, -16
	movq	%rsp, %rbp
	.cfi_def_cfa_register %rbp
	pushq	%r14
	pushq	%rbx
	subq	$192, %rsp
	.cfi_offset %rbx, -32
	.cfi_offset %r14, -24
	movq	%rdi, -56(%rbp)
	movb	$0, deleteOutputOnInterrupt
	cmpq	$0, -56(%rbp)
	jne	.LBB10_3
# %bb.1:                                # %land.lhs.true
	cmpl	$1, srcMode
	je	.LBB10_3
# %bb.2:                                # %if.then
	movabsq	$.L.str.53, %rdi
	callq	panic
.LBB10_3:                               # %if.end
	movl	srcMode(%rip), %eax
	movl	%eax, %ecx
	subl	$1, %ecx
	je	.LBB10_6
	jmp	.LBB10_4
.LBB10_4:                               # %if.end
	movl	%eax, %ecx
	subl	$2, %ecx
	je	.LBB10_8
	jmp	.LBB10_5
.LBB10_5:                               # %if.end
	subl	$3, %eax
	je	.LBB10_7
	jmp	.LBB10_9
.LBB10_6:                               # %sw.bb
	movabsq	$inName, %rdi
	movabsq	$.L.str.54, %rsi
	callq	copyFileName
	movabsq	$outName, %rdi
	movabsq	$.L.str.55, %rsi
	callq	copyFileName
	jmp	.LBB10_9
.LBB10_7:                               # %sw.bb2
	movq	-56(%rbp), %rsi
	movabsq	$inName, %rdi
	callq	copyFileName
	movq	-56(%rbp), %rsi
	movabsq	$outName, %rdi
	callq	copyFileName
	movabsq	$outName, %rdi
	movabsq	$.L.str.30, %rsi
	callq	strcat
	jmp	.LBB10_9
.LBB10_8:                               # %sw.bb3
	movq	-56(%rbp), %rsi
	movabsq	$inName, %rdi
	callq	copyFileName
	movabsq	$outName, %rdi
	movabsq	$.L.str.55, %rsi
	callq	copyFileName
.LBB10_9:                               # %sw.epilog
	cmpl	$1, srcMode
	je	.LBB10_14
# %bb.10:                               # %land.lhs.true5
	movabsq	$inName, %rdi
	callq	containsDubiousChars
	movzbl	%al, %eax
	cmpl	$0, %eax
	je	.LBB10_14
# %bb.11:                               # %if.then7
	cmpb	$0, noisy
	je	.LBB10_13
# %bb.12:                               # %if.then9
	movq	stderr, %rdi
	movq	progName, %rdx
	movabsq	$.L.str.56, %rsi
	movabsq	$inName, %rcx
	movb	$0, %al
	callq	fprintf
.LBB10_13:                              # %if.end11
	movl	$1, %edi
	callq	setExit
	jmp	.LBB10_80
.LBB10_14:                              # %if.end12
	cmpl	$1, srcMode
	je	.LBB10_17
# %bb.15:                               # %land.lhs.true15
	movabsq	$inName, %rdi
	callq	fileExists
	cmpb	$0, %al
	jne	.LBB10_17
# %bb.16:                               # %if.then18
	movq	stderr, %rbx
	movq	progName, %r14
	callq	__errno_location
	movl	(%rax), %edi
	callq	strerror
	movq	%rbx, %rdi
	movabsq	$.L.str.57, %rsi
	movq	%r14, %rdx
	movabsq	$inName, %rcx
	movq	%rax, %r8
	movb	$0, %al
	callq	fprintf
	movl	$1, %edi
	callq	setExit
	jmp	.LBB10_80
.LBB10_17:                              # %if.end22
	movl	$0, -20(%rbp)
.LBB10_18:                              # %for.cond
                                        # =>This Inner Loop Header: Depth=1
	cmpl	$4, -20(%rbp)
	jge	.LBB10_25
# %bb.19:                               # %for.body
                                        #   in Loop: Header=BB10_18 Depth=1
	movslq	-20(%rbp), %rax
	movq	zSuffix(,%rax,8), %rsi
	movabsq	$inName, %rdi
	callq	hasSuffix
	cmpb	$0, %al
	je	.LBB10_23
# %bb.20:                               # %if.then27
	cmpb	$0, noisy
	je	.LBB10_22
# %bb.21:                               # %if.then29
	movq	stderr, %rdi
	movq	progName, %rdx
	movslq	-20(%rbp), %rax
	movq	zSuffix(,%rax,8), %r8
	movabsq	$.L.str.58, %rsi
	movabsq	$inName, %rcx
	movb	$0, %al
	callq	fprintf
.LBB10_22:                              # %if.end33
	movl	$1, %edi
	callq	setExit
	jmp	.LBB10_80
.LBB10_23:                              # %if.end34
                                        #   in Loop: Header=BB10_18 Depth=1
	jmp	.LBB10_24
.LBB10_24:                              # %for.inc
                                        #   in Loop: Header=BB10_18 Depth=1
	movl	-20(%rbp), %eax
	addl	$1, %eax
	movl	%eax, -20(%rbp)
	jmp	.LBB10_18
.LBB10_25:                              # %for.end
	cmpl	$3, srcMode
	je	.LBB10_27
# %bb.26:                               # %lor.lhs.false
	cmpl	$2, srcMode
	jne	.LBB10_30
.LBB10_27:                              # %if.then39
	movabsq	$inName, %rdi
	leaq	-208(%rbp), %rsi
	callq	stat
	movl	-184(%rbp), %eax
	andl	$61440, %eax            # imm = 0xF000
	cmpl	$16384, %eax            # imm = 0x4000
	jne	.LBB10_29
# %bb.28:                               # %if.then43
	movq	stderr, %rdi
	movq	progName, %rdx
	movabsq	$.L.str.59, %rsi
	movabsq	$inName, %rcx
	movb	$0, %al
	callq	fprintf
	movl	$1, %edi
	callq	setExit
	jmp	.LBB10_80
.LBB10_29:                              # %if.end45
	jmp	.LBB10_30
.LBB10_30:                              # %if.end46
	cmpl	$3, srcMode
	jne	.LBB10_36
# %bb.31:                               # %land.lhs.true49
	cmpb	$0, forceOverwrite
	jne	.LBB10_36
# %bb.32:                               # %land.lhs.true51
	movabsq	$inName, %rdi
	callq	notAStandardFile
	movzbl	%al, %eax
	cmpl	$0, %eax
	je	.LBB10_36
# %bb.33:                               # %if.then55
	cmpb	$0, noisy
	je	.LBB10_35
# %bb.34:                               # %if.then57
	movq	stderr, %rdi
	movq	progName, %rdx
	movabsq	$.L.str.60, %rsi
	movabsq	$inName, %rcx
	movb	$0, %al
	callq	fprintf
.LBB10_35:                              # %if.end59
	movl	$1, %edi
	callq	setExit
	jmp	.LBB10_80
.LBB10_36:                              # %if.end60
	cmpl	$3, srcMode
	jne	.LBB10_42
# %bb.37:                               # %land.lhs.true63
	movabsq	$outName, %rdi
	callq	fileExists
	movzbl	%al, %eax
	cmpl	$0, %eax
	je	.LBB10_42
# %bb.38:                               # %if.then67
	cmpb	$0, forceOverwrite
	je	.LBB10_40
# %bb.39:                               # %if.then69
	movabsq	$outName, %rdi
	callq	remove
	jmp	.LBB10_41
.LBB10_40:                              # %if.else
	movq	stderr, %rdi
	movq	progName, %rdx
	movabsq	$.L.str.61, %rsi
	movabsq	$outName, %rcx
	movb	$0, %al
	callq	fprintf
	movl	$1, %edi
	callq	setExit
	jmp	.LBB10_80
.LBB10_41:                              # %if.end72
	jmp	.LBB10_42
.LBB10_42:                              # %if.end73
	cmpl	$3, srcMode
	jne	.LBB10_46
# %bb.43:                               # %land.lhs.true76
	cmpb	$0, forceOverwrite
	jne	.LBB10_46
# %bb.44:                               # %land.lhs.true78
	movabsq	$inName, %rdi
	callq	countHardLinks
	movl	%eax, -44(%rbp)
	cmpl	$0, %eax
	jle	.LBB10_46
# %bb.45:                               # %if.then82
	movq	stderr, %rdi
	movq	progName, %rdx
	movl	-44(%rbp), %r8d
	movl	-44(%rbp), %eax
	cmpl	$1, %eax
	movabsq	$.L.str.63, %rax
	movabsq	$.L.str.34, %r9
	cmovgq	%rax, %r9
	movabsq	$.L.str.62, %rsi
	movabsq	$inName, %rcx
	movb	$0, %al
	callq	fprintf
	movl	$1, %edi
	callq	setExit
	jmp	.LBB10_80
.LBB10_46:                              # %if.end86
	cmpl	$3, srcMode
	jne	.LBB10_48
# %bb.47:                               # %if.then89
	movabsq	$inName, %rdi
	callq	saveInputFileMetaInfo
.LBB10_48:                              # %if.end90
	movl	srcMode(%rip), %eax
	movl	%eax, %ecx
	subl	$1, %ecx
	je	.LBB10_51
	jmp	.LBB10_49
.LBB10_49:                              # %if.end90
	movl	%eax, %ecx
	subl	$2, %ecx
	je	.LBB10_54
	jmp	.LBB10_50
.LBB10_50:                              # %if.end90
	subl	$3, %eax
	je	.LBB10_61
	jmp	.LBB10_70
.LBB10_51:                              # %sw.bb91
	movq	stdin, %rax
	movq	%rax, -32(%rbp)
	movq	stdout, %rax
	movq	%rax, -40(%rbp)
	movq	stdout, %rdi
	callq	fileno
	movl	%eax, %edi
	callq	isatty
	cmpl	$0, %eax
	je	.LBB10_53
# %bb.52:                               # %if.then95
	movq	stderr, %rdi
	movq	progName, %rdx
	movabsq	$.L.str.64, %rsi
	movb	$0, %al
	callq	fprintf
	movq	stderr, %rdi
	movq	progName, %rdx
	movq	progName, %rcx
	movabsq	$.L.str.65, %rsi
	movb	$0, %al
	callq	fprintf
	movl	$1, %edi
	callq	setExit
	jmp	.LBB10_80
.LBB10_53:                              # %if.end98
	jmp	.LBB10_71
.LBB10_54:                              # %sw.bb99
	movabsq	$inName, %rdi
	movabsq	$.L.str.66, %rsi
	callq	fopen
	movq	%rax, -32(%rbp)
	movq	stdout, %rax
	movq	%rax, -40(%rbp)
	movq	stdout, %rdi
	callq	fileno
	movl	%eax, %edi
	callq	isatty
	cmpl	$0, %eax
	je	.LBB10_58
# %bb.55:                               # %if.then104
	movq	stderr, %rdi
	movq	progName, %rdx
	movabsq	$.L.str.64, %rsi
	movb	$0, %al
	callq	fprintf
	movq	stderr, %rdi
	movq	progName, %rdx
	movq	progName, %rcx
	movabsq	$.L.str.65, %rsi
	movb	$0, %al
	callq	fprintf
	cmpq	$0, -32(%rbp)
	je	.LBB10_57
# %bb.56:                               # %if.then109
	movq	-32(%rbp), %rdi
	callq	fclose
.LBB10_57:                              # %if.end111
	movl	$1, %edi
	callq	setExit
	jmp	.LBB10_80
.LBB10_58:                              # %if.end112
	cmpq	$0, -32(%rbp)
	jne	.LBB10_60
# %bb.59:                               # %if.then115
	movq	stderr, %rbx
	movq	progName, %r14
	callq	__errno_location
	movl	(%rax), %edi
	callq	strerror
	movq	%rbx, %rdi
	movabsq	$.L.str.57, %rsi
	movq	%r14, %rdx
	movabsq	$inName, %rcx
	movq	%rax, %r8
	movb	$0, %al
	callq	fprintf
	movl	$1, %edi
	callq	setExit
	jmp	.LBB10_80
.LBB10_60:                              # %if.end119
	jmp	.LBB10_71
.LBB10_61:                              # %sw.bb120
	movabsq	$inName, %rdi
	movabsq	$.L.str.66, %rsi
	callq	fopen
	movq	%rax, -32(%rbp)
	movabsq	$outName, %rdi
	movabsq	$.L.str.67, %rsi
	callq	fopen_output_safely
	movq	%rax, -40(%rbp)
	cmpq	$0, -40(%rbp)
	jne	.LBB10_65
# %bb.62:                               # %if.then125
	movq	stderr, %rbx
	movq	progName, %r14
	callq	__errno_location
	movl	(%rax), %edi
	callq	strerror
	movq	%rbx, %rdi
	movabsq	$.L.str.68, %rsi
	movq	%r14, %rdx
	movabsq	$outName, %rcx
	movq	%rax, %r8
	movb	$0, %al
	callq	fprintf
	cmpq	$0, -32(%rbp)
	je	.LBB10_64
# %bb.63:                               # %if.then131
	movq	-32(%rbp), %rdi
	callq	fclose
.LBB10_64:                              # %if.end133
	movl	$1, %edi
	callq	setExit
	jmp	.LBB10_80
.LBB10_65:                              # %if.end134
	cmpq	$0, -32(%rbp)
	jne	.LBB10_69
# %bb.66:                               # %if.then137
	movq	stderr, %rbx
	movq	progName, %r14
	callq	__errno_location
	movl	(%rax), %edi
	callq	strerror
	movq	%rbx, %rdi
	movabsq	$.L.str.57, %rsi
	movq	%r14, %rdx
	movabsq	$inName, %rcx
	movq	%rax, %r8
	movb	$0, %al
	callq	fprintf
	cmpq	$0, -40(%rbp)
	je	.LBB10_68
# %bb.67:                               # %if.then143
	movq	-40(%rbp), %rdi
	callq	fclose
.LBB10_68:                              # %if.end145
	movl	$1, %edi
	callq	setExit
	jmp	.LBB10_80
.LBB10_69:                              # %if.end146
	jmp	.LBB10_71
.LBB10_70:                              # %sw.default
	movabsq	$.L.str.69, %rdi
	callq	panic
.LBB10_71:                              # %sw.epilog147
	cmpl	$1, verbosity
	jl	.LBB10_73
# %bb.72:                               # %if.then150
	movq	stderr, %rdi
	movabsq	$.L.str.70, %rsi
	movabsq	$inName, %rdx
	movb	$0, %al
	callq	fprintf
	movabsq	$inName, %rdi
	callq	pad
	movq	stderr, %rdi
	callq	fflush
.LBB10_73:                              # %if.end153
	movq	-40(%rbp), %rax
	movq	%rax, outputHandleJustInCase
	movb	$1, deleteOutputOnInterrupt
	movq	-32(%rbp), %rdi
	movq	-40(%rbp), %rsi
	callq	compressStream
	movq	$0, outputHandleJustInCase
	cmpl	$3, srcMode
	jne	.LBB10_79
# %bb.74:                               # %if.then156
	movabsq	$outName, %rdi
	callq	applySavedMetaInfoToOutputFile
	movb	$0, deleteOutputOnInterrupt
	cmpb	$0, keepInputFiles
	jne	.LBB10_78
# %bb.75:                               # %if.then158
	movabsq	$inName, %rdi
	callq	remove
	movl	%eax, -60(%rbp)
	cmpl	$0, -60(%rbp)
	je	.LBB10_77
# %bb.76:                               # %if.then162
	callq	ioError
.LBB10_77:                              # %if.end163
	jmp	.LBB10_78
.LBB10_78:                              # %if.end164
	jmp	.LBB10_79
.LBB10_79:                              # %if.end165
	movb	$0, deleteOutputOnInterrupt
.LBB10_80:                              # %return
	addq	$192, %rsp
	popq	%rbx
	popq	%r14
	popq	%rbp
	.cfi_def_cfa %rsp, 8
	retq
.Lfunc_end10:
	.size	compress, .Lfunc_end10-compress
	.cfi_endproc
                                        # -- End function
	.p2align	4, 0x90         # -- Begin function uncompress
	.type	uncompress,@function
uncompress:                             # @uncompress
	.cfi_startproc
# %bb.0:                                # %entry
	pushq	%rbp
	.cfi_def_cfa_offset 16
	.cfi_offset %rbp, -16
	movq	%rsp, %rbp
	.cfi_def_cfa_register %rbp
	pushq	%r14
	pushq	%rbx
	subq	$192, %rsp
	.cfi_offset %rbx, -32
	.cfi_offset %r14, -24
	movq	%rdi, -56(%rbp)
	movb	$0, deleteOutputOnInterrupt
	cmpq	$0, -56(%rbp)
	jne	.LBB11_3
# %bb.1:                                # %land.lhs.true
	cmpl	$1, srcMode
	je	.LBB11_3
# %bb.2:                                # %if.then
	movabsq	$.L.str.79, %rdi
	callq	panic
.LBB11_3:                               # %if.end
	movb	$0, -17(%rbp)
	movl	srcMode(%rip), %eax
	movl	%eax, %ecx
	subl	$1, %ecx
	je	.LBB11_6
	jmp	.LBB11_4
.LBB11_4:                               # %if.end
	movl	%eax, %ecx
	subl	$2, %ecx
	je	.LBB11_14
	jmp	.LBB11_5
.LBB11_5:                               # %if.end
	subl	$3, %eax
	je	.LBB11_7
	jmp	.LBB11_15
.LBB11_6:                               # %sw.bb
	movabsq	$inName, %rdi
	movabsq	$.L.str.54, %rsi
	callq	copyFileName
	movabsq	$outName, %rdi
	movabsq	$.L.str.55, %rsi
	callq	copyFileName
	jmp	.LBB11_15
.LBB11_7:                               # %sw.bb2
	movq	-56(%rbp), %rsi
	movabsq	$inName, %rdi
	callq	copyFileName
	movq	-56(%rbp), %rsi
	movabsq	$outName, %rdi
	callq	copyFileName
	movl	$0, -24(%rbp)
.LBB11_8:                               # %for.cond
                                        # =>This Inner Loop Header: Depth=1
	cmpl	$4, -24(%rbp)
	jge	.LBB11_13
# %bb.9:                                # %for.body
                                        #   in Loop: Header=BB11_8 Depth=1
	movslq	-24(%rbp), %rax
	movq	zSuffix(,%rax,8), %rsi
	movslq	-24(%rbp), %rax
	movq	unzSuffix(,%rax,8), %rdx
	movabsq	$outName, %rdi
	callq	mapSuffix
	cmpb	$0, %al
	je	.LBB11_11
# %bb.10:                               # %if.then6
	jmp	.LBB11_16
.LBB11_11:                              # %if.end7
                                        #   in Loop: Header=BB11_8 Depth=1
	jmp	.LBB11_12
.LBB11_12:                              # %for.inc
                                        #   in Loop: Header=BB11_8 Depth=1
	movl	-24(%rbp), %eax
	addl	$1, %eax
	movl	%eax, -24(%rbp)
	jmp	.LBB11_8
.LBB11_13:                              # %for.end
	movb	$1, -17(%rbp)
	movabsq	$outName, %rdi
	movabsq	$.L.str.80, %rsi
	callq	strcat
	jmp	.LBB11_15
.LBB11_14:                              # %sw.bb9
	movq	-56(%rbp), %rsi
	movabsq	$inName, %rdi
	callq	copyFileName
	movabsq	$outName, %rdi
	movabsq	$.L.str.55, %rsi
	callq	copyFileName
.LBB11_15:                              # %sw.epilog
	jmp	.LBB11_16
.LBB11_16:                              # %zzz
	cmpl	$1, srcMode
	je	.LBB11_21
# %bb.17:                               # %land.lhs.true11
	movabsq	$inName, %rdi
	callq	containsDubiousChars
	movzbl	%al, %eax
	cmpl	$0, %eax
	je	.LBB11_21
# %bb.18:                               # %if.then14
	cmpb	$0, noisy
	je	.LBB11_20
# %bb.19:                               # %if.then16
	movq	stderr, %rdi
	movq	progName, %rdx
	movabsq	$.L.str.56, %rsi
	movabsq	$inName, %rcx
	movb	$0, %al
	callq	fprintf
.LBB11_20:                              # %if.end18
	movl	$1, %edi
	callq	setExit
	jmp	.LBB11_95
.LBB11_21:                              # %if.end19
	cmpl	$1, srcMode
	je	.LBB11_24
# %bb.22:                               # %land.lhs.true22
	movabsq	$inName, %rdi
	callq	fileExists
	cmpb	$0, %al
	jne	.LBB11_24
# %bb.23:                               # %if.then25
	movq	stderr, %rbx
	movq	progName, %r14
	callq	__errno_location
	movl	(%rax), %edi
	callq	strerror
	movq	%rbx, %rdi
	movabsq	$.L.str.57, %rsi
	movq	%r14, %rdx
	movabsq	$inName, %rcx
	movq	%rax, %r8
	movb	$0, %al
	callq	fprintf
	movl	$1, %edi
	callq	setExit
	jmp	.LBB11_95
.LBB11_24:                              # %if.end29
	cmpl	$3, srcMode
	je	.LBB11_26
# %bb.25:                               # %lor.lhs.false
	cmpl	$2, srcMode
	jne	.LBB11_29
.LBB11_26:                              # %if.then34
	movabsq	$inName, %rdi
	leaq	-208(%rbp), %rsi
	callq	stat
	movl	-184(%rbp), %eax
	andl	$61440, %eax            # imm = 0xF000
	cmpl	$16384, %eax            # imm = 0x4000
	jne	.LBB11_28
# %bb.27:                               # %if.then38
	movq	stderr, %rdi
	movq	progName, %rdx
	movabsq	$.L.str.59, %rsi
	movabsq	$inName, %rcx
	movb	$0, %al
	callq	fprintf
	movl	$1, %edi
	callq	setExit
	jmp	.LBB11_95
.LBB11_28:                              # %if.end40
	jmp	.LBB11_29
.LBB11_29:                              # %if.end41
	cmpl	$3, srcMode
	jne	.LBB11_35
# %bb.30:                               # %land.lhs.true44
	cmpb	$0, forceOverwrite
	jne	.LBB11_35
# %bb.31:                               # %land.lhs.true46
	movabsq	$inName, %rdi
	callq	notAStandardFile
	movzbl	%al, %eax
	cmpl	$0, %eax
	je	.LBB11_35
# %bb.32:                               # %if.then50
	cmpb	$0, noisy
	je	.LBB11_34
# %bb.33:                               # %if.then52
	movq	stderr, %rdi
	movq	progName, %rdx
	movabsq	$.L.str.60, %rsi
	movabsq	$inName, %rcx
	movb	$0, %al
	callq	fprintf
.LBB11_34:                              # %if.end54
	movl	$1, %edi
	callq	setExit
	jmp	.LBB11_95
.LBB11_35:                              # %if.end55
	cmpb	$0, -17(%rbp)
	je	.LBB11_39
# %bb.36:                               # %if.then57
	cmpb	$0, noisy
	je	.LBB11_38
# %bb.37:                               # %if.then59
	movq	stderr, %rdi
	movq	progName, %rdx
	movabsq	$.L.str.81, %rsi
	movabsq	$inName, %rcx
	movabsq	$outName, %r8
	movb	$0, %al
	callq	fprintf
.LBB11_38:                              # %if.end61
	jmp	.LBB11_39
.LBB11_39:                              # %if.end62
	cmpl	$3, srcMode
	jne	.LBB11_45
# %bb.40:                               # %land.lhs.true65
	movabsq	$outName, %rdi
	callq	fileExists
	movzbl	%al, %eax
	cmpl	$0, %eax
	je	.LBB11_45
# %bb.41:                               # %if.then69
	cmpb	$0, forceOverwrite
	je	.LBB11_43
# %bb.42:                               # %if.then71
	movabsq	$outName, %rdi
	callq	remove
	jmp	.LBB11_44
.LBB11_43:                              # %if.else
	movq	stderr, %rdi
	movq	progName, %rdx
	movabsq	$.L.str.61, %rsi
	movabsq	$outName, %rcx
	movb	$0, %al
	callq	fprintf
	movl	$1, %edi
	callq	setExit
	jmp	.LBB11_95
.LBB11_44:                              # %if.end74
	jmp	.LBB11_45
.LBB11_45:                              # %if.end75
	cmpl	$3, srcMode
	jne	.LBB11_49
# %bb.46:                               # %land.lhs.true78
	cmpb	$0, forceOverwrite
	jne	.LBB11_49
# %bb.47:                               # %land.lhs.true80
	movabsq	$inName, %rdi
	callq	countHardLinks
	movl	%eax, -44(%rbp)
	cmpl	$0, %eax
	jle	.LBB11_49
# %bb.48:                               # %if.then84
	movq	stderr, %rdi
	movq	progName, %rdx
	movl	-44(%rbp), %r8d
	movl	-44(%rbp), %eax
	cmpl	$1, %eax
	movabsq	$.L.str.63, %rax
	movabsq	$.L.str.34, %r9
	cmovgq	%rax, %r9
	movabsq	$.L.str.62, %rsi
	movabsq	$inName, %rcx
	movb	$0, %al
	callq	fprintf
	movl	$1, %edi
	callq	setExit
	jmp	.LBB11_95
.LBB11_49:                              # %if.end88
	cmpl	$3, srcMode
	jne	.LBB11_51
# %bb.50:                               # %if.then91
	movabsq	$inName, %rdi
	callq	saveInputFileMetaInfo
.LBB11_51:                              # %if.end92
	movl	srcMode(%rip), %eax
	movl	%eax, %ecx
	subl	$1, %ecx
	je	.LBB11_54
	jmp	.LBB11_52
.LBB11_52:                              # %if.end92
	movl	%eax, %ecx
	subl	$2, %ecx
	je	.LBB11_57
	jmp	.LBB11_53
.LBB11_53:                              # %if.end92
	subl	$3, %eax
	je	.LBB11_62
	jmp	.LBB11_71
.LBB11_54:                              # %sw.bb93
	movq	stdin, %rax
	movq	%rax, -32(%rbp)
	movq	stdout, %rax
	movq	%rax, -40(%rbp)
	movq	stdin, %rdi
	callq	fileno
	movl	%eax, %edi
	callq	isatty
	cmpl	$0, %eax
	je	.LBB11_56
# %bb.55:                               # %if.then97
	movq	stderr, %rdi
	movq	progName, %rdx
	movabsq	$.L.str.82, %rsi
	movb	$0, %al
	callq	fprintf
	movq	stderr, %rdi
	movq	progName, %rdx
	movq	progName, %rcx
	movabsq	$.L.str.65, %rsi
	movb	$0, %al
	callq	fprintf
	movl	$1, %edi
	callq	setExit
	jmp	.LBB11_95
.LBB11_56:                              # %if.end100
	jmp	.LBB11_72
.LBB11_57:                              # %sw.bb101
	movabsq	$inName, %rdi
	movabsq	$.L.str.66, %rsi
	callq	fopen
	movq	%rax, -32(%rbp)
	movq	stdout, %rax
	movq	%rax, -40(%rbp)
	cmpq	$0, -32(%rbp)
	jne	.LBB11_61
# %bb.58:                               # %if.then105
	movq	stderr, %rbx
	movq	progName, %r14
	callq	__errno_location
	movl	(%rax), %edi
	callq	strerror
	movq	%rbx, %rdi
	movabsq	$.L.str.83, %rsi
	movq	%r14, %rdx
	movabsq	$inName, %rcx
	movq	%rax, %r8
	movb	$0, %al
	callq	fprintf
	cmpq	$0, -32(%rbp)
	je	.LBB11_60
# %bb.59:                               # %if.then111
	movq	-32(%rbp), %rdi
	callq	fclose
.LBB11_60:                              # %if.end113
	movl	$1, %edi
	callq	setExit
	jmp	.LBB11_95
.LBB11_61:                              # %if.end114
	jmp	.LBB11_72
.LBB11_62:                              # %sw.bb115
	movabsq	$inName, %rdi
	movabsq	$.L.str.66, %rsi
	callq	fopen
	movq	%rax, -32(%rbp)
	movabsq	$outName, %rdi
	movabsq	$.L.str.67, %rsi
	callq	fopen_output_safely
	movq	%rax, -40(%rbp)
	cmpq	$0, -40(%rbp)
	jne	.LBB11_66
# %bb.63:                               # %if.then120
	movq	stderr, %rbx
	movq	progName, %r14
	callq	__errno_location
	movl	(%rax), %edi
	callq	strerror
	movq	%rbx, %rdi
	movabsq	$.L.str.68, %rsi
	movq	%r14, %rdx
	movabsq	$outName, %rcx
	movq	%rax, %r8
	movb	$0, %al
	callq	fprintf
	cmpq	$0, -32(%rbp)
	je	.LBB11_65
# %bb.64:                               # %if.then126
	movq	-32(%rbp), %rdi
	callq	fclose
.LBB11_65:                              # %if.end128
	movl	$1, %edi
	callq	setExit
	jmp	.LBB11_95
.LBB11_66:                              # %if.end129
	cmpq	$0, -32(%rbp)
	jne	.LBB11_70
# %bb.67:                               # %if.then132
	movq	stderr, %rbx
	movq	progName, %r14
	callq	__errno_location
	movl	(%rax), %edi
	callq	strerror
	movq	%rbx, %rdi
	movabsq	$.L.str.57, %rsi
	movq	%r14, %rdx
	movabsq	$inName, %rcx
	movq	%rax, %r8
	movb	$0, %al
	callq	fprintf
	cmpq	$0, -40(%rbp)
	je	.LBB11_69
# %bb.68:                               # %if.then138
	movq	-40(%rbp), %rdi
	callq	fclose
.LBB11_69:                              # %if.end140
	movl	$1, %edi
	callq	setExit
	jmp	.LBB11_95
.LBB11_70:                              # %if.end141
	jmp	.LBB11_72
.LBB11_71:                              # %sw.default
	movabsq	$.L.str.84, %rdi
	callq	panic
.LBB11_72:                              # %sw.epilog142
	cmpl	$1, verbosity
	jl	.LBB11_74
# %bb.73:                               # %if.then145
	movq	stderr, %rdi
	movabsq	$.L.str.70, %rsi
	movabsq	$inName, %rdx
	movb	$0, %al
	callq	fprintf
	movabsq	$inName, %rdi
	callq	pad
	movq	stderr, %rdi
	callq	fflush
.LBB11_74:                              # %if.end148
	movq	-40(%rbp), %rax
	movq	%rax, outputHandleJustInCase
	movb	$1, deleteOutputOnInterrupt
	movq	-32(%rbp), %rdi
	movq	-40(%rbp), %rsi
	callq	uncompressStream
	movb	%al, -18(%rbp)
	movq	$0, outputHandleJustInCase
	cmpb	$0, -18(%rbp)
	je	.LBB11_82
# %bb.75:                               # %if.then151
	cmpl	$3, srcMode
	jne	.LBB11_81
# %bb.76:                               # %if.then154
	movabsq	$outName, %rdi
	callq	applySavedMetaInfoToOutputFile
	movb	$0, deleteOutputOnInterrupt
	cmpb	$0, keepInputFiles
	jne	.LBB11_80
# %bb.77:                               # %if.then156
	movabsq	$inName, %rdi
	callq	remove
	movl	%eax, -64(%rbp)
	cmpl	$0, -64(%rbp)
	je	.LBB11_79
# %bb.78:                               # %if.then160
	callq	ioError
.LBB11_79:                              # %if.end161
	jmp	.LBB11_80
.LBB11_80:                              # %if.end162
	jmp	.LBB11_81
.LBB11_81:                              # %if.end163
	jmp	.LBB11_87
.LBB11_82:                              # %if.else164
	movb	$1, unzFailsExist
	movb	$0, deleteOutputOnInterrupt
	cmpl	$3, srcMode
	jne	.LBB11_86
# %bb.83:                               # %if.then167
	movabsq	$outName, %rdi
	callq	remove
	movl	%eax, -60(%rbp)
	cmpl	$0, -60(%rbp)
	je	.LBB11_85
# %bb.84:                               # %if.then172
	callq	ioError
.LBB11_85:                              # %if.end173
	jmp	.LBB11_86
.LBB11_86:                              # %if.end174
	jmp	.LBB11_87
.LBB11_87:                              # %if.end175
	movb	$0, deleteOutputOnInterrupt
	cmpb	$0, -18(%rbp)
	je	.LBB11_91
# %bb.88:                               # %if.then177
	cmpl	$1, verbosity
	jl	.LBB11_90
# %bb.89:                               # %if.then180
	movq	stderr, %rdi
	movabsq	$.L.str.85, %rsi
	movb	$0, %al
	callq	fprintf
.LBB11_90:                              # %if.end182
	jmp	.LBB11_95
.LBB11_91:                              # %if.else183
	movl	$2, %edi
	callq	setExit
	cmpl	$1, verbosity
	jl	.LBB11_93
# %bb.92:                               # %if.then186
	movq	stderr, %rdi
	movabsq	$.L.str.86, %rsi
	movb	$0, %al
	callq	fprintf
	jmp	.LBB11_94
.LBB11_93:                              # %if.else188
	movq	stderr, %rdi
	movq	progName, %rdx
	movabsq	$.L.str.87, %rsi
	movabsq	$inName, %rcx
	movb	$0, %al
	callq	fprintf
.LBB11_94:                              # %if.end190
	jmp	.LBB11_95
.LBB11_95:                              # %if.end191
	addq	$192, %rsp
	popq	%rbx
	popq	%r14
	popq	%rbp
	.cfi_def_cfa %rsp, 8
	retq
.Lfunc_end11:
	.size	uncompress, .Lfunc_end11-uncompress
	.cfi_endproc
                                        # -- End function
	.p2align	4, 0x90         # -- Begin function setExit
	.type	setExit,@function
setExit:                                # @setExit
	.cfi_startproc
# %bb.0:                                # %entry
	pushq	%rbp
	.cfi_def_cfa_offset 16
	.cfi_offset %rbp, -16
	movq	%rsp, %rbp
	.cfi_def_cfa_register %rbp
	movl	%edi, -4(%rbp)
	movl	-4(%rbp), %eax
	cmpl	exitValue, %eax
	jle	.LBB12_2
# %bb.1:                                # %if.then
	movl	-4(%rbp), %eax
	movl	%eax, exitValue
.LBB12_2:                               # %if.end
	popq	%rbp
	.cfi_def_cfa %rsp, 8
	retq
.Lfunc_end12:
	.size	setExit, .Lfunc_end12-setExit
	.cfi_endproc
                                        # -- End function
	.p2align	4, 0x90         # -- Begin function testf
	.type	testf,@function
testf:                                  # @testf
	.cfi_startproc
# %bb.0:                                # %entry
	pushq	%rbp
	.cfi_def_cfa_offset 16
	.cfi_offset %rbp, -16
	movq	%rsp, %rbp
	.cfi_def_cfa_register %rbp
	pushq	%r14
	pushq	%rbx
	subq	$176, %rsp
	.cfi_offset %rbx, -32
	.cfi_offset %r14, -24
	movq	%rdi, -40(%rbp)
	movb	$0, deleteOutputOnInterrupt
	cmpq	$0, -40(%rbp)
	jne	.LBB13_3
# %bb.1:                                # %land.lhs.true
	cmpl	$1, srcMode
	je	.LBB13_3
# %bb.2:                                # %if.then
	movabsq	$.L.str.94, %rdi
	callq	panic
.LBB13_3:                               # %if.end
	movl	$outName, %edi
	movl	$.L.str, %esi
	callq	copyFileName
	movl	srcMode(%rip), %eax
	movl	%eax, %ecx
	subl	$1, %ecx
	je	.LBB13_6
	jmp	.LBB13_4
.LBB13_4:                               # %if.end
	movl	%eax, %ecx
	subl	$2, %ecx
	je	.LBB13_8
	jmp	.LBB13_5
.LBB13_5:                               # %if.end
	subl	$3, %eax
	je	.LBB13_7
	jmp	.LBB13_9
.LBB13_6:                               # %sw.bb
	movabsq	$inName, %rdi
	movabsq	$.L.str.54, %rsi
	callq	copyFileName
	jmp	.LBB13_9
.LBB13_7:                               # %sw.bb2
	movq	-40(%rbp), %rsi
	movabsq	$inName, %rdi
	callq	copyFileName
	jmp	.LBB13_9
.LBB13_8:                               # %sw.bb3
	movq	-40(%rbp), %rsi
	movabsq	$inName, %rdi
	callq	copyFileName
.LBB13_9:                               # %sw.epilog
	cmpl	$1, srcMode
	je	.LBB13_14
# %bb.10:                               # %land.lhs.true5
	movabsq	$inName, %rdi
	callq	containsDubiousChars
	movzbl	%al, %eax
	cmpl	$0, %eax
	je	.LBB13_14
# %bb.11:                               # %if.then6
	cmpb	$0, noisy
	je	.LBB13_13
# %bb.12:                               # %if.then8
	movq	stderr, %rdi
	movq	progName, %rdx
	movabsq	$.L.str.56, %rsi
	movabsq	$inName, %rcx
	movb	$0, %al
	callq	fprintf
.LBB13_13:                              # %if.end10
	movl	$1, %edi
	callq	setExit
	jmp	.LBB13_37
.LBB13_14:                              # %if.end11
	cmpl	$1, srcMode
	je	.LBB13_17
# %bb.15:                               # %land.lhs.true14
	movabsq	$inName, %rdi
	callq	fileExists
	cmpb	$0, %al
	jne	.LBB13_17
# %bb.16:                               # %if.then17
	movq	stderr, %rbx
	movq	progName, %r14
	callq	__errno_location
	movl	(%rax), %edi
	callq	strerror
	movq	%rbx, %rdi
	movabsq	$.L.str.95, %rsi
	movq	%r14, %rdx
	movabsq	$inName, %rcx
	movq	%rax, %r8
	movb	$0, %al
	callq	fprintf
	movl	$1, %edi
	callq	setExit
	jmp	.LBB13_37
.LBB13_17:                              # %if.end21
	cmpl	$1, srcMode
	je	.LBB13_21
# %bb.18:                               # %if.then24
	movabsq	$inName, %rdi
	leaq	-184(%rbp), %rsi
	callq	stat
	movl	-160(%rbp), %eax
	andl	$61440, %eax            # imm = 0xF000
	cmpl	$16384, %eax            # imm = 0x4000
	jne	.LBB13_20
# %bb.19:                               # %if.then28
	movq	stderr, %rdi
	movq	progName, %rdx
	movabsq	$.L.str.59, %rsi
	movabsq	$inName, %rcx
	movb	$0, %al
	callq	fprintf
	movl	$1, %edi
	callq	setExit
	jmp	.LBB13_37
.LBB13_20:                              # %if.end30
	jmp	.LBB13_21
.LBB13_21:                              # %if.end31
	movl	srcMode(%rip), %eax
	movl	%eax, %ecx
	subl	$1, %ecx
	je	.LBB13_23
	jmp	.LBB13_22
.LBB13_22:                              # %if.end31
	addl	$-2, %eax
	subl	$2, %eax
	jb	.LBB13_26
	jmp	.LBB13_29
.LBB13_23:                              # %sw.bb32
	movq	stdin, %rdi
	callq	fileno
	movl	%eax, %edi
	callq	isatty
	cmpl	$0, %eax
	je	.LBB13_25
# %bb.24:                               # %if.then36
	movq	stderr, %rdi
	movq	progName, %rdx
	movabsq	$.L.str.82, %rsi
	movb	$0, %al
	callq	fprintf
	movq	stderr, %rdi
	movq	progName, %rdx
	movq	progName, %rcx
	movabsq	$.L.str.65, %rsi
	movb	$0, %al
	callq	fprintf
	movl	$1, %edi
	callq	setExit
	jmp	.LBB13_37
.LBB13_25:                              # %if.end39
	movq	stdin, %rax
	movq	%rax, -32(%rbp)
	jmp	.LBB13_30
.LBB13_26:                              # %sw.bb40
	movabsq	$inName, %rdi
	movabsq	$.L.str.66, %rsi
	callq	fopen
	movq	%rax, -32(%rbp)
	cmpq	$0, -32(%rbp)
	jne	.LBB13_28
# %bb.27:                               # %if.then44
	movq	stderr, %rbx
	movq	progName, %r14
	callq	__errno_location
	movl	(%rax), %edi
	callq	strerror
	movq	%rbx, %rdi
	movabsq	$.L.str.83, %rsi
	movq	%r14, %rdx
	movabsq	$inName, %rcx
	movq	%rax, %r8
	movb	$0, %al
	callq	fprintf
	movl	$1, %edi
	callq	setExit
	jmp	.LBB13_37
.LBB13_28:                              # %if.end48
	jmp	.LBB13_30
.LBB13_29:                              # %sw.default
	movabsq	$.L.str.96, %rdi
	callq	panic
.LBB13_30:                              # %sw.epilog49
	cmpl	$1, verbosity
	jl	.LBB13_32
# %bb.31:                               # %if.then52
	movq	stderr, %rdi
	movabsq	$.L.str.70, %rsi
	movabsq	$inName, %rdx
	movb	$0, %al
	callq	fprintf
	movabsq	$inName, %rdi
	callq	pad
	movq	stderr, %rdi
	callq	fflush
.LBB13_32:                              # %if.end55
	movq	$0, outputHandleJustInCase
	movq	-32(%rbp), %rdi
	callq	testStream
	movb	%al, -17(%rbp)
	movzbl	-17(%rbp), %eax
	cmpl	$0, %eax
	je	.LBB13_35
# %bb.33:                               # %land.lhs.true59
	cmpl	$1, verbosity
	jl	.LBB13_35
# %bb.34:                               # %if.then62
	movq	stderr, %rdi
	movabsq	$.L.str.97, %rsi
	movb	$0, %al
	callq	fprintf
.LBB13_35:                              # %if.end64
	cmpb	$0, -17(%rbp)
	jne	.LBB13_37
# %bb.36:                               # %if.then66
	movb	$1, testFailsExist
.LBB13_37:                              # %if.end67
	addq	$176, %rsp
	popq	%rbx
	popq	%r14
	popq	%rbp
	.cfi_def_cfa %rsp, 8
	retq
.Lfunc_end13:
	.size	testf, .Lfunc_end13-testf
	.cfi_endproc
                                        # -- End function
	.p2align	4, 0x90         # -- Begin function showFileNames
	.type	showFileNames,@function
showFileNames:                          # @showFileNames
	.cfi_startproc
# %bb.0:                                # %entry
	pushq	%rbp
	.cfi_def_cfa_offset 16
	.cfi_offset %rbp, -16
	movq	%rsp, %rbp
	.cfi_def_cfa_register %rbp
	cmpb	$0, noisy
	je	.LBB14_2
# %bb.1:                                # %if.then
	movq	stderr, %rdi
	movabsq	$.L.str.38, %rsi
	movabsq	$inName, %rdx
	movabsq	$outName, %rcx
	movb	$0, %al
	callq	fprintf
.LBB14_2:                               # %if.end
	popq	%rbp
	.cfi_def_cfa %rsp, 8
	retq
.Lfunc_end14:
	.size	showFileNames, .Lfunc_end14-showFileNames
	.cfi_endproc
                                        # -- End function
	.p2align	4, 0x90         # -- Begin function cleanUpAndFail
	.type	cleanUpAndFail,@function
cleanUpAndFail:                         # @cleanUpAndFail
	.cfi_startproc
# %bb.0:                                # %entry
	pushq	%rbp
	.cfi_def_cfa_offset 16
	.cfi_offset %rbp, -16
	movq	%rsp, %rbp
	.cfi_def_cfa_register %rbp
	subq	$160, %rsp
	movl	%edi, -8(%rbp)
	cmpl	$3, srcMode
	jne	.LBB15_13
# %bb.1:                                # %land.lhs.true
	cmpl	$3, opMode
	je	.LBB15_13
# %bb.2:                                # %land.lhs.true2
	movzbl	deleteOutputOnInterrupt, %eax
	cmpl	$0, %eax
	je	.LBB15_13
# %bb.3:                                # %if.then
	movabsq	$inName, %rdi
	leaq	-152(%rbp), %rsi
	callq	stat
	movl	%eax, -4(%rbp)
	cmpl	$0, -4(%rbp)
	jne	.LBB15_11
# %bb.4:                                # %if.then5
	cmpb	$0, noisy
	je	.LBB15_6
# %bb.5:                                # %if.then7
	movq	stderr, %rdi
	movq	progName, %rdx
	movabsq	$.L.str.39, %rsi
	movabsq	$outName, %rcx
	movb	$0, %al
	callq	fprintf
.LBB15_6:                               # %if.end
	cmpq	$0, outputHandleJustInCase
	je	.LBB15_8
# %bb.7:                                # %if.then11
	movq	outputHandleJustInCase, %rdi
	callq	fclose
.LBB15_8:                               # %if.end13
	movabsq	$outName, %rdi
	callq	remove
	movl	%eax, -4(%rbp)
	cmpl	$0, -4(%rbp)
	je	.LBB15_10
# %bb.9:                                # %if.then17
	movq	stderr, %rdi
	movq	progName, %rdx
	movabsq	$.L.str.40, %rsi
	movb	$0, %al
	callq	fprintf
.LBB15_10:                              # %if.end19
	jmp	.LBB15_12
.LBB15_11:                              # %if.else
	movq	stderr, %rdi
	movq	progName, %rdx
	movabsq	$.L.str.41, %rsi
	movb	$0, %al
	callq	fprintf
	movq	stderr, %rdi
	movq	progName, %rdx
	movabsq	$.L.str.42, %rsi
	movb	$0, %al
	callq	fprintf
	movq	stderr, %rdi
	movq	progName, %rdx
	movabsq	$.L.str.43, %rsi
	movabsq	$outName, %rcx
	movb	$0, %al
	callq	fprintf
	movq	stderr, %rdi
	movq	progName, %rdx
	movabsq	$.L.str.44, %rsi
	movb	$0, %al
	callq	fprintf
.LBB15_12:                              # %if.end24
	jmp	.LBB15_13
.LBB15_13:                              # %if.end25
	movzbl	noisy, %eax
	cmpl	$0, %eax
	je	.LBB15_17
# %bb.14:                               # %land.lhs.true28
	cmpl	$0, numFileNames
	jle	.LBB15_17
# %bb.15:                               # %land.lhs.true31
	movl	numFilesProcessed, %eax
	cmpl	numFileNames, %eax
	jge	.LBB15_17
# %bb.16:                               # %if.then34
	movq	stderr, %rdi
	movq	progName, %rdx
	movq	progName, %rcx
	movl	numFileNames, %r8d
	movl	numFileNames, %r9d
	subl	numFilesProcessed, %r9d
	movabsq	$.L.str.45, %rsi
	movb	$0, %al
	callq	fprintf
.LBB15_17:                              # %if.end36
	movl	-8(%rbp), %edi
	callq	setExit
	movl	exitValue, %edi
	callq	exit
.Lfunc_end15:
	.size	cleanUpAndFail, .Lfunc_end15-cleanUpAndFail
	.cfi_endproc
                                        # -- End function
	.p2align	4, 0x90         # -- Begin function cadvise
	.type	cadvise,@function
cadvise:                                # @cadvise
	.cfi_startproc
# %bb.0:                                # %entry
	pushq	%rbp
	.cfi_def_cfa_offset 16
	.cfi_offset %rbp, -16
	movq	%rsp, %rbp
	.cfi_def_cfa_register %rbp
	cmpb	$0, noisy
	je	.LBB16_2
# %bb.1:                                # %if.then
	movq	stderr, %rdi
	movabsq	$.L.str.46, %rsi
	movb	$0, %al
	callq	fprintf
.LBB16_2:                               # %if.end
	popq	%rbp
	.cfi_def_cfa %rsp, 8
	retq
.Lfunc_end16:
	.size	cadvise, .Lfunc_end16-cadvise
	.cfi_endproc
                                        # -- End function
	.p2align	4, 0x90         # -- Begin function mkCell
	.type	mkCell,@function
mkCell:                                 # @mkCell
	.cfi_startproc
# %bb.0:                                # %entry
	pushq	%rbp
	.cfi_def_cfa_offset 16
	.cfi_offset %rbp, -16
	movq	%rsp, %rbp
	.cfi_def_cfa_register %rbp
	subq	$16, %rsp
	movl	$16, %edi
	callq	myMalloc
	movq	%rax, -8(%rbp)
	movq	-8(%rbp), %rax
	movq	$0, (%rax)
	movq	-8(%rbp), %rax
	movq	$0, 8(%rax)
	movq	-8(%rbp), %rax
	addq	$16, %rsp
	popq	%rbp
	.cfi_def_cfa %rsp, 8
	retq
.Lfunc_end17:
	.size	mkCell, .Lfunc_end17-mkCell
	.cfi_endproc
                                        # -- End function
	.p2align	4, 0x90         # -- Begin function myMalloc
	.type	myMalloc,@function
myMalloc:                               # @myMalloc
	.cfi_startproc
# %bb.0:                                # %entry
	pushq	%rbp
	.cfi_def_cfa_offset 16
	.cfi_offset %rbp, -16
	movq	%rsp, %rbp
	.cfi_def_cfa_register %rbp
	subq	$16, %rsp
	movl	%edi, -4(%rbp)
	movslq	-4(%rbp), %rdi
	callq	malloc
	movq	%rax, -16(%rbp)
	cmpq	$0, -16(%rbp)
	jne	.LBB18_2
# %bb.1:                                # %if.then
	callq	outOfMemory
.LBB18_2:                               # %if.end
	movq	-16(%rbp), %rax
	addq	$16, %rsp
	popq	%rbp
	.cfi_def_cfa %rsp, 8
	retq
.Lfunc_end18:
	.size	myMalloc, .Lfunc_end18-myMalloc
	.cfi_endproc
                                        # -- End function
	.p2align	4, 0x90         # -- Begin function outOfMemory
	.type	outOfMemory,@function
outOfMemory:                            # @outOfMemory
	.cfi_startproc
# %bb.0:                                # %entry
	pushq	%rbp
	.cfi_def_cfa_offset 16
	.cfi_offset %rbp, -16
	movq	%rsp, %rbp
	.cfi_def_cfa_register %rbp
	movq	stderr, %rdi
	movq	progName, %rdx
	movabsq	$.L.str.48, %rsi
	movb	$0, %al
	callq	fprintf
	callq	showFileNames
	movl	$1, %edi
	callq	cleanUpAndFail
.Lfunc_end19:
	.size	outOfMemory, .Lfunc_end19-outOfMemory
	.cfi_endproc
                                        # -- End function
	.p2align	4, 0x90         # -- Begin function panic
	.type	panic,@function
panic:                                  # @panic
	.cfi_startproc
# %bb.0:                                # %entry
	pushq	%rbp
	.cfi_def_cfa_offset 16
	.cfi_offset %rbp, -16
	movq	%rsp, %rbp
	.cfi_def_cfa_register %rbp
	subq	$16, %rsp
	movq	%rdi, -8(%rbp)
	movq	stderr, %rdi
	movq	progName, %rdx
	movq	-8(%rbp), %rcx
	movabsq	$.L.str.71, %rsi
	movb	$0, %al
	callq	fprintf
	callq	showFileNames
	movl	$3, %edi
	callq	cleanUpAndFail
.Lfunc_end20:
	.size	panic, .Lfunc_end20-panic
	.cfi_endproc
                                        # -- End function
	.p2align	4, 0x90         # -- Begin function containsDubiousChars
	.type	containsDubiousChars,@function
containsDubiousChars:                   # @containsDubiousChars
	.cfi_startproc
# %bb.0:                                # %entry
	pushq	%rbp
	.cfi_def_cfa_offset 16
	.cfi_offset %rbp, -16
	movq	%rsp, %rbp
	.cfi_def_cfa_register %rbp
	xorl	%eax, %eax
	movq	%rdi, -8(%rbp)
	movzbl	%al, %eax
	popq	%rbp
	.cfi_def_cfa %rsp, 8
	retq
.Lfunc_end21:
	.size	containsDubiousChars, .Lfunc_end21-containsDubiousChars
	.cfi_endproc
                                        # -- End function
	.p2align	4, 0x90         # -- Begin function fileExists
	.type	fileExists,@function
fileExists:                             # @fileExists
	.cfi_startproc
# %bb.0:                                # %entry
	pushq	%rbp
	.cfi_def_cfa_offset 16
	.cfi_offset %rbp, -16
	movq	%rsp, %rbp
	.cfi_def_cfa_register %rbp
	subq	$32, %rsp
	movq	%rdi, -24(%rbp)
	movq	-24(%rbp), %rdi
	movabsq	$.L.str.66, %rsi
	callq	fopen
	movq	%rax, -16(%rbp)
	cmpq	$0, -16(%rbp)
	setne	%al
	andb	$1, %al
	movzbl	%al, %eax
	movb	%al, -1(%rbp)
	cmpq	$0, -16(%rbp)
	je	.LBB22_2
# %bb.1:                                # %if.then
	movq	-16(%rbp), %rdi
	callq	fclose
.LBB22_2:                               # %if.end
	movzbl	-1(%rbp), %eax
	addq	$32, %rsp
	popq	%rbp
	.cfi_def_cfa %rsp, 8
	retq
.Lfunc_end22:
	.size	fileExists, .Lfunc_end22-fileExists
	.cfi_endproc
                                        # -- End function
	.p2align	4, 0x90         # -- Begin function hasSuffix
	.type	hasSuffix,@function
hasSuffix:                              # @hasSuffix
	.cfi_startproc
# %bb.0:                                # %entry
	pushq	%rbp
	.cfi_def_cfa_offset 16
	.cfi_offset %rbp, -16
	movq	%rsp, %rbp
	.cfi_def_cfa_register %rbp
	subq	$32, %rsp
	movq	%rdi, -32(%rbp)
	movq	%rsi, -24(%rbp)
	movq	-32(%rbp), %rdi
	callq	strlen
	movl	%eax, -12(%rbp)
	movq	-24(%rbp), %rdi
	callq	strlen
	movl	%eax, -8(%rbp)
	movl	-12(%rbp), %eax
	cmpl	-8(%rbp), %eax
	jge	.LBB23_2
# %bb.1:                                # %if.then
	movb	$0, -1(%rbp)
	jmp	.LBB23_5
.LBB23_2:                               # %if.end
	xorl	%eax, %eax
	movq	-32(%rbp), %rdi
	movslq	-12(%rbp), %rcx
	addq	%rcx, %rdi
	movslq	-8(%rbp), %rcx
	subq	%rcx, %rax
	addq	%rax, %rdi
	movq	-24(%rbp), %rsi
	callq	strcmp
	cmpl	$0, %eax
	jne	.LBB23_4
# %bb.3:                                # %if.then9
	movb	$1, -1(%rbp)
	jmp	.LBB23_5
.LBB23_4:                               # %if.end10
	movb	$0, -1(%rbp)
.LBB23_5:                               # %return
	movzbl	-1(%rbp), %eax
	addq	$32, %rsp
	popq	%rbp
	.cfi_def_cfa %rsp, 8
	retq
.Lfunc_end23:
	.size	hasSuffix, .Lfunc_end23-hasSuffix
	.cfi_endproc
                                        # -- End function
	.p2align	4, 0x90         # -- Begin function notAStandardFile
	.type	notAStandardFile,@function
notAStandardFile:                       # @notAStandardFile
	.cfi_startproc
# %bb.0:                                # %entry
	pushq	%rbp
	.cfi_def_cfa_offset 16
	.cfi_offset %rbp, -16
	movq	%rsp, %rbp
	.cfi_def_cfa_register %rbp
	subq	$160, %rsp
	movq	%rdi, -16(%rbp)
	movq	-16(%rbp), %rdi
	leaq	-160(%rbp), %rsi
	callq	lstat
	movl	%eax, -8(%rbp)
	cmpl	$0, -8(%rbp)
	je	.LBB24_2
# %bb.1:                                # %if.then
	movb	$1, -1(%rbp)
	jmp	.LBB24_5
.LBB24_2:                               # %if.end
	movl	-136(%rbp), %eax
	andl	$61440, %eax            # imm = 0xF000
	cmpl	$32768, %eax            # imm = 0x8000
	jne	.LBB24_4
# %bb.3:                                # %if.then2
	movb	$0, -1(%rbp)
	jmp	.LBB24_5
.LBB24_4:                               # %if.end3
	movb	$1, -1(%rbp)
.LBB24_5:                               # %return
	movzbl	-1(%rbp), %eax
	addq	$160, %rsp
	popq	%rbp
	.cfi_def_cfa %rsp, 8
	retq
.Lfunc_end24:
	.size	notAStandardFile, .Lfunc_end24-notAStandardFile
	.cfi_endproc
                                        # -- End function
	.p2align	4, 0x90         # -- Begin function countHardLinks
	.type	countHardLinks,@function
countHardLinks:                         # @countHardLinks
	.cfi_startproc
# %bb.0:                                # %entry
	pushq	%rbp
	.cfi_def_cfa_offset 16
	.cfi_offset %rbp, -16
	movq	%rsp, %rbp
	.cfi_def_cfa_register %rbp
	subq	$160, %rsp
	movq	%rdi, -16(%rbp)
	movq	-16(%rbp), %rdi
	leaq	-160(%rbp), %rsi
	callq	lstat
	movl	%eax, -8(%rbp)
	cmpl	$0, -8(%rbp)
	je	.LBB25_2
# %bb.1:                                # %if.then
	movl	$0, -4(%rbp)
	jmp	.LBB25_3
.LBB25_2:                               # %if.end
	movq	-144(%rbp), %rax
	subq	$1, %rax
	movl	%eax, -4(%rbp)
.LBB25_3:                               # %return
	movl	-4(%rbp), %eax
	addq	$160, %rsp
	popq	%rbp
	.cfi_def_cfa %rsp, 8
	retq
.Lfunc_end25:
	.size	countHardLinks, .Lfunc_end25-countHardLinks
	.cfi_endproc
                                        # -- End function
	.p2align	4, 0x90         # -- Begin function saveInputFileMetaInfo
	.type	saveInputFileMetaInfo,@function
saveInputFileMetaInfo:                  # @saveInputFileMetaInfo
	.cfi_startproc
# %bb.0:                                # %entry
	pushq	%rbp
	.cfi_def_cfa_offset 16
	.cfi_offset %rbp, -16
	movq	%rsp, %rbp
	.cfi_def_cfa_register %rbp
	subq	$16, %rsp
	movq	%rdi, -16(%rbp)
	movq	-16(%rbp), %rdi
	movabsq	$fileMetaInfo, %rsi
	callq	stat
	movl	%eax, -4(%rbp)
	cmpl	$0, -4(%rbp)
	je	.LBB26_2
# %bb.1:                                # %if.then
	callq	ioError
.LBB26_2:                               # %if.end
	addq	$16, %rsp
	popq	%rbp
	.cfi_def_cfa %rsp, 8
	retq
.Lfunc_end26:
	.size	saveInputFileMetaInfo, .Lfunc_end26-saveInputFileMetaInfo
	.cfi_endproc
                                        # -- End function
	.p2align	4, 0x90         # -- Begin function pad
	.type	pad,@function
pad:                                    # @pad
	.cfi_startproc
# %bb.0:                                # %entry
	pushq	%rbp
	.cfi_def_cfa_offset 16
	.cfi_offset %rbp, -16
	movq	%rsp, %rbp
	.cfi_def_cfa_register %rbp
	pushq	%r14
	pushq	%rbx
	subq	$16, %rsp
	.cfi_offset %rbx, -32
	.cfi_offset %r14, -24
	movq	%rdi, -32(%rbp)
	movq	-32(%rbp), %rdi
	callq	strlen
	cmpl	longestFileName, %eax
	jl	.LBB27_2
# %bb.1:                                # %if.then
	jmp	.LBB27_7
.LBB27_2:                               # %if.end
	movl	$1, -20(%rbp)
.LBB27_3:                               # %for.cond
                                        # =>This Inner Loop Header: Depth=1
	movl	-20(%rbp), %r14d
	movl	longestFileName, %ebx
	movq	-32(%rbp), %rdi
	callq	strlen
	subl	%eax, %ebx
	cmpl	%ebx, %r14d
	jg	.LBB27_6
# %bb.4:                                # %for.body
                                        #   in Loop: Header=BB27_3 Depth=1
	movq	stderr, %rdi
	movabsq	$.L.str.72, %rsi
	movb	$0, %al
	callq	fprintf
# %bb.5:                                # %for.inc
                                        #   in Loop: Header=BB27_3 Depth=1
	movl	-20(%rbp), %eax
	addl	$1, %eax
	movl	%eax, -20(%rbp)
	jmp	.LBB27_3
.LBB27_6:                               # %for.end.loopexit
	jmp	.LBB27_7
.LBB27_7:                               # %for.end
	addq	$16, %rsp
	popq	%rbx
	popq	%r14
	popq	%rbp
	.cfi_def_cfa %rsp, 8
	retq
.Lfunc_end27:
	.size	pad, .Lfunc_end27-pad
	.cfi_endproc
                                        # -- End function
	.section	.rodata.cst8,"aM",@progbits,8
	.p2align	3               # -- Begin function compressStream
.LCPI28_0:
	.quad	4636737291354636288     # double 100
.LCPI28_1:
	.quad	4607182418800017408     # double 1
.LCPI28_2:
	.quad	4620693217682128896     # double 8
	.text
	.p2align	4, 0x90
	.type	compressStream,@function
compressStream:                         # @compressStream
	.cfi_startproc
# %bb.0:                                # %entry
	pushq	%rbp
	.cfi_def_cfa_offset 16
	.cfi_offset %rbp, -16
	movq	%rsp, %rbp
	.cfi_def_cfa_register %rbp
	subq	$5184, %rsp             # imm = 0x1440
	movq	%rdi, -32(%rbp)
	movq	%rsi, -24(%rbp)
	movq	$0, -56(%rbp)
	movq	-32(%rbp), %rdi
	callq	ferror
	cmpl	$0, %eax
	je	.LBB28_2
# %bb.1:                                # %if.then
	jmp	.LBB28_45
.LBB28_2:                               # %if.end
	movq	-24(%rbp), %rdi
	callq	ferror
	cmpl	$0, %eax
	je	.LBB28_4
# %bb.3:                                # %if.then3
	jmp	.LBB28_45
.LBB28_4:                               # %if.end4
	movq	-24(%rbp), %rsi
	movl	blockSize100k, %edx
	movl	verbosity, %ecx
	movl	workFactor, %r8d
	leaq	-4(%rbp), %rdi
	callq	BZ2_bzWriteOpen
	movq	%rax, -56(%rbp)
	cmpl	$0, -4(%rbp)
	je	.LBB28_6
# %bb.5:                                # %if.then6
	jmp	.LBB28_39
.LBB28_6:                               # %if.end7
	cmpl	$2, verbosity
	jl	.LBB28_8
# %bb.7:                                # %if.then9
	movq	stderr, %rdi
	movabsq	$.L.str.73, %rsi
	movb	$0, %al
	callq	fprintf
.LBB28_8:                               # %if.end11
	jmp	.LBB28_9
.LBB28_9:                               # %while.body
                                        # =>This Inner Loop Header: Depth=1
	movq	-32(%rbp), %rdi
	callq	myfeof
	cmpb	$0, %al
	je	.LBB28_11
# %bb.10:                               # %if.then14
	jmp	.LBB28_18
.LBB28_11:                              # %if.end15
                                        #   in Loop: Header=BB28_9 Depth=1
	leaq	-5168(%rbp), %rdi
	movq	-32(%rbp), %rcx
	movl	$1, %esi
	movl	$5000, %edx             # imm = 0x1388
	callq	fread
	movl	%eax, -44(%rbp)
	movq	-32(%rbp), %rdi
	callq	ferror
	cmpl	$0, %eax
	je	.LBB28_13
# %bb.12:                               # %if.then19
	jmp	.LBB28_45
.LBB28_13:                              # %if.end20
                                        #   in Loop: Header=BB28_9 Depth=1
	cmpl	$0, -44(%rbp)
	jle	.LBB28_15
# %bb.14:                               # %if.then23
                                        #   in Loop: Header=BB28_9 Depth=1
	leaq	-5168(%rbp), %rdx
	movq	-56(%rbp), %rsi
	movl	-44(%rbp), %ecx
	leaq	-4(%rbp), %rdi
	callq	BZ2_bzWrite
.LBB28_15:                              # %if.end25
                                        #   in Loop: Header=BB28_9 Depth=1
	cmpl	$0, -4(%rbp)
	je	.LBB28_17
# %bb.16:                               # %if.then28
	jmp	.LBB28_39
.LBB28_17:                              # %if.end29
                                        #   in Loop: Header=BB28_9 Depth=1
	jmp	.LBB28_9
.LBB28_18:                              # %while.end
	movq	-56(%rbp), %rsi
	leaq	-4(%rbp), %rdi
	movl	$0, %edx
	leaq	-16(%rbp), %rcx
	leaq	-12(%rbp), %r8
	leaq	-40(%rbp), %r9
	leaq	-36(%rbp), %rax
	movq	%rax, (%rsp)
	callq	BZ2_bzWriteClose64
	cmpl	$0, -4(%rbp)
	je	.LBB28_20
# %bb.19:                               # %if.then32
	jmp	.LBB28_39
.LBB28_20:                              # %if.end33
	movq	-24(%rbp), %rdi
	callq	ferror
	cmpl	$0, %eax
	je	.LBB28_22
# %bb.21:                               # %if.then36
	jmp	.LBB28_45
.LBB28_22:                              # %if.end37
	movq	-24(%rbp), %rdi
	callq	fflush
	movl	%eax, -8(%rbp)
	cmpl	$-1, -8(%rbp)
	jne	.LBB28_24
# %bb.23:                               # %if.then41
	jmp	.LBB28_45
.LBB28_24:                              # %if.end42
	movq	-24(%rbp), %rax
	cmpq	stdout, %rax
	je	.LBB28_28
# %bb.25:                               # %if.then45
	movq	-24(%rbp), %rdi
	callq	fclose
	movl	%eax, -8(%rbp)
	movq	$0, outputHandleJustInCase
	cmpl	$-1, -8(%rbp)
	jne	.LBB28_27
# %bb.26:                               # %if.then49
	jmp	.LBB28_45
.LBB28_27:                              # %if.end50
	jmp	.LBB28_28
.LBB28_28:                              # %if.end51
	movq	$0, outputHandleJustInCase
	movq	-32(%rbp), %rdi
	callq	ferror
	cmpl	$0, %eax
	je	.LBB28_30
# %bb.29:                               # %if.then54
	jmp	.LBB28_45
.LBB28_30:                              # %if.end55
	movq	-32(%rbp), %rdi
	callq	fclose
	movl	%eax, -8(%rbp)
	cmpl	$-1, -8(%rbp)
	jne	.LBB28_32
# %bb.31:                               # %if.then59
	jmp	.LBB28_45
.LBB28_32:                              # %if.end60
	cmpl	$1, verbosity
	jl	.LBB28_38
# %bb.33:                               # %if.then63
	cmpl	$0, -16(%rbp)
	jne	.LBB28_36
# %bb.34:                               # %land.lhs.true
	cmpl	$0, -12(%rbp)
	jne	.LBB28_36
# %bb.35:                               # %if.then68
	movq	stderr, %rdi
	movabsq	$.L.str.74, %rsi
	movb	$0, %al
	callq	fprintf
	jmp	.LBB28_37
.LBB28_36:                              # %if.else
	movl	-16(%rbp), %esi
	movl	-12(%rbp), %edx
	leaq	-88(%rbp), %rdi
	callq	uInt64_from_UInt32s
	movl	-40(%rbp), %esi
	movl	-36(%rbp), %edx
	leaq	-80(%rbp), %rdi
	callq	uInt64_from_UInt32s
	leaq	-88(%rbp), %rdi
	callq	uInt64_to_double
	vmovsd	%xmm0, -72(%rbp)
	leaq	-80(%rbp), %rdi
	callq	uInt64_to_double
	leaq	-160(%rbp), %rdi
	vmovsd	%xmm0, -64(%rbp)
	leaq	-88(%rbp), %rsi
	callq	uInt64_toAscii
	leaq	-128(%rbp), %rdi
	leaq	-80(%rbp), %rsi
	callq	uInt64_toAscii
	leaq	-128(%rbp), %rcx
	leaq	-160(%rbp), %rdx
	vmovsd	.LCPI28_0(%rip), %xmm2  # xmm2 = mem[0],zero
	vmovsd	.LCPI28_1(%rip), %xmm3  # xmm3 = mem[0],zero
	vmovsd	.LCPI28_2(%rip), %xmm1  # xmm1 = mem[0],zero
	movq	stderr, %rdi
	vmovsd	-72(%rbp), %xmm0        # xmm0 = mem[0],zero
	vdivsd	-64(%rbp), %xmm0, %xmm0
	vmulsd	-64(%rbp), %xmm1, %xmm1
	vdivsd	-72(%rbp), %xmm1, %xmm1
	vmovsd	-64(%rbp), %xmm4        # xmm4 = mem[0],zero
	vdivsd	-72(%rbp), %xmm4, %xmm4
	vsubsd	%xmm4, %xmm3, %xmm3
	vmulsd	%xmm3, %xmm2, %xmm2
	movabsq	$.L.str.75, %rsi
	movb	$3, %al
	callq	fprintf
.LBB28_37:                              # %if.end80
	jmp	.LBB28_38
.LBB28_38:                              # %if.end81
	addq	$5184, %rsp             # imm = 0x1440
	popq	%rbp
	.cfi_def_cfa %rsp, 8
	retq
.LBB28_39:                              # %errhandler
	.cfi_def_cfa %rbp, 16
	movq	-56(%rbp), %rsi
	leaq	-36(%rbp), %rax
	movq	%rax, (%rsp)
	leaq	-92(%rbp), %rdi
	leaq	-16(%rbp), %rcx
	leaq	-12(%rbp), %r8
	leaq	-40(%rbp), %r9
	movl	$1, %edx
	callq	BZ2_bzWriteClose64
	movl	-4(%rbp), %eax
	movl	%eax, %ecx
	subl	$-9, %ecx
	je	.LBB28_42
	jmp	.LBB28_40
.LBB28_40:                              # %errhandler
	movl	%eax, %ecx
	subl	$-6, %ecx
	je	.LBB28_44
	jmp	.LBB28_41
.LBB28_41:                              # %errhandler
	subl	$-3, %eax
	je	.LBB28_43
	jmp	.LBB28_46
.LBB28_42:                              # %sw.bb
	callq	configError
.LBB28_43:                              # %sw.bb82
	callq	outOfMemory
.LBB28_44:                              # %sw.bb83
	jmp	.LBB28_45
.LBB28_45:                              # %errhandler_io
	callq	ioError
.LBB28_46:                              # %sw.default
	movabsq	$.L.str.76, %rdi
	callq	panic
.Lfunc_end28:
	.size	compressStream, .Lfunc_end28-compressStream
	.cfi_endproc
                                        # -- End function
	.p2align	4, 0x90         # -- Begin function applySavedMetaInfoToOutputFile
	.type	applySavedMetaInfoToOutputFile,@function
applySavedMetaInfoToOutputFile:         # @applySavedMetaInfoToOutputFile
	.cfi_startproc
# %bb.0:                                # %entry
	pushq	%rbp
	.cfi_def_cfa_offset 16
	.cfi_offset %rbp, -16
	movq	%rsp, %rbp
	.cfi_def_cfa_register %rbp
	subq	$32, %rsp
	movq	%rdi, -16(%rbp)
	movq	fileMetaInfo+72, %rax
	movq	%rax, -32(%rbp)
	movq	fileMetaInfo+88, %rax
	movq	%rax, -24(%rbp)
	movq	-16(%rbp), %rdi
	movl	fileMetaInfo+24, %esi
	callq	chmod
	movl	%eax, -4(%rbp)
	cmpl	$0, -4(%rbp)
	je	.LBB29_2
# %bb.1:                                # %if.then
	callq	ioError
.LBB29_2:                               # %if.end
	movq	-16(%rbp), %rdi
	leaq	-32(%rbp), %rsi
	callq	utime
	movl	%eax, -4(%rbp)
	cmpl	$0, -4(%rbp)
	je	.LBB29_4
# %bb.3:                                # %if.then3
	callq	ioError
.LBB29_4:                               # %if.end4
	movq	-16(%rbp), %rdi
	movl	fileMetaInfo+28, %esi
	movl	fileMetaInfo+32, %edx
	callq	chown
	movl	%eax, -4(%rbp)
	addq	$32, %rsp
	popq	%rbp
	.cfi_def_cfa %rsp, 8
	retq
.Lfunc_end29:
	.size	applySavedMetaInfoToOutputFile, .Lfunc_end29-applySavedMetaInfoToOutputFile
	.cfi_endproc
                                        # -- End function
	.p2align	4, 0x90         # -- Begin function ioError
	.type	ioError,@function
ioError:                                # @ioError
	.cfi_startproc
# %bb.0:                                # %entry
	pushq	%rbp
	.cfi_def_cfa_offset 16
	.cfi_offset %rbp, -16
	movq	%rsp, %rbp
	.cfi_def_cfa_register %rbp
	movq	stderr, %rdi
	movq	progName, %rdx
	movabsq	$.L.str.78, %rsi
	movb	$0, %al
	callq	fprintf
	movq	progName, %rdi
	callq	perror
	callq	showFileNames
	movl	$1, %edi
	callq	cleanUpAndFail
.Lfunc_end30:
	.size	ioError, .Lfunc_end30-ioError
	.cfi_endproc
                                        # -- End function
	.p2align	4, 0x90         # -- Begin function myfeof
	.type	myfeof,@function
myfeof:                                 # @myfeof
	.cfi_startproc
# %bb.0:                                # %entry
	pushq	%rbp
	.cfi_def_cfa_offset 16
	.cfi_offset %rbp, -16
	movq	%rsp, %rbp
	.cfi_def_cfa_register %rbp
	subq	$16, %rsp
	movq	%rdi, -16(%rbp)
	movq	-16(%rbp), %rdi
	callq	fgetc
	movl	%eax, -8(%rbp)
	cmpl	$-1, -8(%rbp)
	jne	.LBB31_2
# %bb.1:                                # %if.then
	movb	$1, -1(%rbp)
	jmp	.LBB31_3
.LBB31_2:                               # %if.end
	movl	-8(%rbp), %edi
	movq	-16(%rbp), %rsi
	callq	ungetc
	movb	$0, -1(%rbp)
.LBB31_3:                               # %return
	movzbl	-1(%rbp), %eax
	addq	$16, %rsp
	popq	%rbp
	.cfi_def_cfa %rsp, 8
	retq
.Lfunc_end31:
	.size	myfeof, .Lfunc_end31-myfeof
	.cfi_endproc
                                        # -- End function
	.p2align	4, 0x90         # -- Begin function uInt64_from_UInt32s
	.type	uInt64_from_UInt32s,@function
uInt64_from_UInt32s:                    # @uInt64_from_UInt32s
	.cfi_startproc
# %bb.0:                                # %entry
	pushq	%rbp
	.cfi_def_cfa_offset 16
	.cfi_offset %rbp, -16
	movq	%rsp, %rbp
	.cfi_def_cfa_register %rbp
	movq	%rdi, -16(%rbp)
	movl	%esi, -8(%rbp)
	movl	%edx, -4(%rbp)
	movl	-4(%rbp), %eax
	shrl	$24, %eax
	andl	$255, %eax
	movq	-16(%rbp), %rcx
	movb	%al, 7(%rcx)
	movl	-4(%rbp), %eax
	shrl	$16, %eax
	andl	$255, %eax
	movq	-16(%rbp), %rcx
	movb	%al, 6(%rcx)
	movl	-4(%rbp), %eax
	shrl	$8, %eax
	andl	$255, %eax
	movq	-16(%rbp), %rcx
	movb	%al, 5(%rcx)
	movl	-4(%rbp), %eax
	andl	$255, %eax
	movq	-16(%rbp), %rcx
	movb	%al, 4(%rcx)
	movl	-8(%rbp), %eax
	shrl	$24, %eax
	andl	$255, %eax
	movq	-16(%rbp), %rcx
	movb	%al, 3(%rcx)
	movl	-8(%rbp), %eax
	shrl	$16, %eax
	andl	$255, %eax
	movq	-16(%rbp), %rcx
	movb	%al, 2(%rcx)
	movl	-8(%rbp), %eax
	shrl	$8, %eax
	andl	$255, %eax
	movq	-16(%rbp), %rcx
	movb	%al, 1(%rcx)
	movl	-8(%rbp), %eax
	andl	$255, %eax
	movq	-16(%rbp), %rcx
	movb	%al, (%rcx)
	popq	%rbp
	.cfi_def_cfa %rsp, 8
	retq
.Lfunc_end32:
	.size	uInt64_from_UInt32s, .Lfunc_end32-uInt64_from_UInt32s
	.cfi_endproc
                                        # -- End function
	.section	.rodata.cst8,"aM",@progbits,8
	.p2align	3               # -- Begin function uInt64_to_double
.LCPI33_0:
	.quad	4607182418800017408     # double 1
.LCPI33_1:
	.quad	4643211215818981376     # double 256
	.text
	.p2align	4, 0x90
	.type	uInt64_to_double,@function
uInt64_to_double:                       # @uInt64_to_double
	.cfi_startproc
# %bb.0:                                # %entry
	pushq	%rbp
	.cfi_def_cfa_offset 16
	.cfi_offset %rbp, -16
	movq	%rsp, %rbp
	.cfi_def_cfa_register %rbp
	vmovsd	.LCPI33_0(%rip), %xmm0  # xmm0 = mem[0],zero
	movq	%rdi, -32(%rbp)
	vmovsd	%xmm0, -24(%rbp)
	vxorps	%xmm0, %xmm0, %xmm0
	vmovsd	%xmm0, -16(%rbp)
	movl	$0, -4(%rbp)
.LBB33_1:                               # %for.cond
                                        # =>This Inner Loop Header: Depth=1
	cmpl	$8, -4(%rbp)
	jge	.LBB33_4
# %bb.2:                                # %for.body
                                        #   in Loop: Header=BB33_1 Depth=1
	vmovsd	.LCPI33_1(%rip), %xmm0  # xmm0 = mem[0],zero
	vmovsd	-24(%rbp), %xmm1        # xmm1 = mem[0],zero
	movq	-32(%rbp), %rax
	movslq	-4(%rbp), %rcx
	movzbl	(%rax,%rcx), %eax
	vcvtsi2sd	%eax, %xmm0, %xmm2
	vmulsd	%xmm2, %xmm1, %xmm1
	vaddsd	-16(%rbp), %xmm1, %xmm1
	vmovsd	%xmm1, -16(%rbp)
	vmulsd	-24(%rbp), %xmm0, %xmm0
	vmovsd	%xmm0, -24(%rbp)
# %bb.3:                                # %for.inc
                                        #   in Loop: Header=BB33_1 Depth=1
	movl	-4(%rbp), %eax
	addl	$1, %eax
	movl	%eax, -4(%rbp)
	jmp	.LBB33_1
.LBB33_4:                               # %for.end
	vmovsd	-16(%rbp), %xmm0        # xmm0 = mem[0],zero
	popq	%rbp
	.cfi_def_cfa %rsp, 8
	retq
.Lfunc_end33:
	.size	uInt64_to_double, .Lfunc_end33-uInt64_to_double
	.cfi_endproc
                                        # -- End function
	.p2align	4, 0x90         # -- Begin function uInt64_toAscii
	.type	uInt64_toAscii,@function
uInt64_toAscii:                         # @uInt64_toAscii
	.cfi_startproc
# %bb.0:                                # %entry
	pushq	%rbp
	.cfi_def_cfa_offset 16
	.cfi_offset %rbp, -16
	movq	%rsp, %rbp
	.cfi_def_cfa_register %rbp
	subq	$80, %rsp
	movq	%rdi, -32(%rbp)
	movq	%rsi, -40(%rbp)
	movl	$0, -4(%rbp)
	movq	-40(%rbp), %rax
	movq	(%rax), %rax
	movq	%rax, -24(%rbp)
.LBB34_1:                               # %do.body
                                        # =>This Inner Loop Header: Depth=1
	leaq	-24(%rbp), %rdi
	callq	uInt64_qrm10
	movl	%eax, -12(%rbp)
	movl	-12(%rbp), %eax
	addl	$48, %eax
	movslq	-4(%rbp), %rcx
	movb	%al, -80(%rbp,%rcx)
	movl	-4(%rbp), %eax
	addl	$1, %eax
	movl	%eax, -4(%rbp)
# %bb.2:                                # %do.cond
                                        #   in Loop: Header=BB34_1 Depth=1
	leaq	-24(%rbp), %rdi
	callq	uInt64_isZero
	cmpb	$0, %al
	setne	%al
	xorb	$-1, %al
	testb	$1, %al
	jne	.LBB34_1
# %bb.3:                                # %do.end
	movq	-32(%rbp), %rax
	movslq	-4(%rbp), %rcx
	movb	$0, (%rax,%rcx)
	movl	$0, -8(%rbp)
.LBB34_4:                               # %for.cond
                                        # =>This Inner Loop Header: Depth=1
	movl	-8(%rbp), %eax
	cmpl	-4(%rbp), %eax
	jge	.LBB34_7
# %bb.5:                                # %for.body
                                        #   in Loop: Header=BB34_4 Depth=1
	movl	-4(%rbp), %eax
	subl	-8(%rbp), %eax
	subl	$1, %eax
	cltq
	movb	-80(%rbp,%rax), %al
	movq	-32(%rbp), %rcx
	movslq	-8(%rbp), %rdx
	movb	%al, (%rcx,%rdx)
# %bb.6:                                # %for.inc
                                        #   in Loop: Header=BB34_4 Depth=1
	movl	-8(%rbp), %eax
	addl	$1, %eax
	movl	%eax, -8(%rbp)
	jmp	.LBB34_4
.LBB34_7:                               # %for.end
	addq	$80, %rsp
	popq	%rbp
	.cfi_def_cfa %rsp, 8
	retq
.Lfunc_end34:
	.size	uInt64_toAscii, .Lfunc_end34-uInt64_toAscii
	.cfi_endproc
                                        # -- End function
	.p2align	4, 0x90         # -- Begin function configError
	.type	configError,@function
configError:                            # @configError
	.cfi_startproc
# %bb.0:                                # %entry
	pushq	%rbp
	.cfi_def_cfa_offset 16
	.cfi_offset %rbp, -16
	movq	%rsp, %rbp
	.cfi_def_cfa_register %rbp
	movq	stderr, %rdi
	movabsq	$.L.str.77, %rsi
	movb	$0, %al
	callq	fprintf
	movl	$3, %edi
	callq	setExit
	movl	exitValue, %edi
	callq	exit
.Lfunc_end35:
	.size	configError, .Lfunc_end35-configError
	.cfi_endproc
                                        # -- End function
	.p2align	4, 0x90         # -- Begin function uInt64_qrm10
	.type	uInt64_qrm10,@function
uInt64_qrm10:                           # @uInt64_qrm10
	.cfi_startproc
# %bb.0:                                # %entry
	pushq	%rbp
	.cfi_def_cfa_offset 16
	.cfi_offset %rbp, -16
	movq	%rsp, %rbp
	.cfi_def_cfa_register %rbp
	movq	%rdi, -24(%rbp)
	movl	$0, -8(%rbp)
	movl	$7, -4(%rbp)
.LBB36_1:                               # %for.cond
                                        # =>This Inner Loop Header: Depth=1
	cmpl	$0, -4(%rbp)
	jl	.LBB36_4
# %bb.2:                                # %for.body
                                        #   in Loop: Header=BB36_1 Depth=1
	movl	-8(%rbp), %eax
	shll	$8, %eax
	movq	-24(%rbp), %rcx
	movslq	-4(%rbp), %rdx
	movzbl	(%rcx,%rdx), %ecx
	addl	%ecx, %eax
	movl	%eax, -12(%rbp)
	movl	-12(%rbp), %eax
	xorl	%edx, %edx
	movl	$10, %ecx
	divl	%ecx
	movq	-24(%rbp), %rdx
	movslq	-4(%rbp), %rsi
	movb	%al, (%rdx,%rsi)
	movl	-12(%rbp), %eax
	xorl	%edx, %edx
	divl	%ecx
	movl	%edx, -8(%rbp)
# %bb.3:                                # %for.inc
                                        #   in Loop: Header=BB36_1 Depth=1
	movl	-4(%rbp), %eax
	addl	$-1, %eax
	movl	%eax, -4(%rbp)
	jmp	.LBB36_1
.LBB36_4:                               # %for.end
	movl	-8(%rbp), %eax
	popq	%rbp
	.cfi_def_cfa %rsp, 8
	retq
.Lfunc_end36:
	.size	uInt64_qrm10, .Lfunc_end36-uInt64_qrm10
	.cfi_endproc
                                        # -- End function
	.p2align	4, 0x90         # -- Begin function uInt64_isZero
	.type	uInt64_isZero,@function
uInt64_isZero:                          # @uInt64_isZero
	.cfi_startproc
# %bb.0:                                # %entry
	pushq	%rbp
	.cfi_def_cfa_offset 16
	.cfi_offset %rbp, -16
	movq	%rsp, %rbp
	.cfi_def_cfa_register %rbp
	movq	%rdi, -16(%rbp)
	movl	$0, -8(%rbp)
.LBB37_1:                               # %for.cond
                                        # =>This Inner Loop Header: Depth=1
	cmpl	$8, -8(%rbp)
	jge	.LBB37_6
# %bb.2:                                # %for.body
                                        #   in Loop: Header=BB37_1 Depth=1
	movq	-16(%rbp), %rax
	movslq	-8(%rbp), %rcx
	movzbl	(%rax,%rcx), %eax
	cmpl	$0, %eax
	je	.LBB37_4
# %bb.3:                                # %if.then
	movb	$0, -1(%rbp)
	jmp	.LBB37_7
.LBB37_4:                               # %if.end
                                        #   in Loop: Header=BB37_1 Depth=1
	jmp	.LBB37_5
.LBB37_5:                               # %for.inc
                                        #   in Loop: Header=BB37_1 Depth=1
	movl	-8(%rbp), %eax
	addl	$1, %eax
	movl	%eax, -8(%rbp)
	jmp	.LBB37_1
.LBB37_6:                               # %for.end
	movb	$1, -1(%rbp)
.LBB37_7:                               # %return
	movzbl	-1(%rbp), %eax
	popq	%rbp
	.cfi_def_cfa %rsp, 8
	retq
.Lfunc_end37:
	.size	uInt64_isZero, .Lfunc_end37-uInt64_isZero
	.cfi_endproc
                                        # -- End function
	.p2align	4, 0x90         # -- Begin function mapSuffix
	.type	mapSuffix,@function
mapSuffix:                              # @mapSuffix
	.cfi_startproc
# %bb.0:                                # %entry
	pushq	%rbp
	.cfi_def_cfa_offset 16
	.cfi_offset %rbp, -16
	movq	%rsp, %rbp
	.cfi_def_cfa_register %rbp
	pushq	%r14
	pushq	%rbx
	subq	$32, %rsp
	.cfi_offset %rbx, -32
	.cfi_offset %r14, -24
	movq	%rdi, -32(%rbp)
	movq	%rsi, -40(%rbp)
	movq	%rdx, -48(%rbp)
	movq	-32(%rbp), %rdi
	movq	-40(%rbp), %rsi
	callq	hasSuffix
	cmpb	$0, %al
	jne	.LBB38_2
# %bb.1:                                # %if.then
	movb	$0, -17(%rbp)
	jmp	.LBB38_3
.LBB38_2:                               # %if.end
	movq	-32(%rbp), %r14
	movq	-32(%rbp), %rdi
	callq	strlen
	movq	%rax, %rbx
	movq	-40(%rbp), %rdi
	callq	strlen
	subq	%rax, %rbx
	movb	$0, (%r14,%rbx)
	movq	-32(%rbp), %rdi
	movq	-48(%rbp), %rsi
	callq	strcat
	movb	$1, -17(%rbp)
.LBB38_3:                               # %return
	movzbl	-17(%rbp), %eax
	addq	$32, %rsp
	popq	%rbx
	popq	%r14
	popq	%rbp
	.cfi_def_cfa %rsp, 8
	retq
.Lfunc_end38:
	.size	mapSuffix, .Lfunc_end38-mapSuffix
	.cfi_endproc
                                        # -- End function
	.p2align	4, 0x90         # -- Begin function uncompressStream
	.type	uncompressStream,@function
uncompressStream:                       # @uncompressStream
	.cfi_startproc
# %bb.0:                                # %entry
	pushq	%rbp
	.cfi_def_cfa_offset 16
	.cfi_offset %rbp, -16
	movq	%rsp, %rbp
	.cfi_def_cfa_register %rbp
	subq	$10096, %rsp            # imm = 0x2770
	movq	%rdi, -24(%rbp)
	movq	%rsi, -16(%rbp)
	movq	$0, -56(%rbp)
	movl	$0, -40(%rbp)
	movl	$0, -44(%rbp)
	movq	-16(%rbp), %rdi
	callq	ferror
	cmpl	$0, %eax
	je	.LBB39_2
# %bb.1:                                # %if.then
	jmp	.LBB39_66
.LBB39_2:                               # %if.end
	movq	-24(%rbp), %rdi
	callq	ferror
	cmpl	$0, %eax
	je	.LBB39_4
# %bb.3:                                # %if.then3
	jmp	.LBB39_66
.LBB39_4:                               # %if.end4
	jmp	.LBB39_5
.LBB39_5:                               # %while.body
                                        # =>This Loop Header: Depth=1
                                        #     Child Loop BB39_9 Depth 2
                                        #     Child Loop BB39_24 Depth 2
	leaq	-10096(%rbp), %r8
	movq	-24(%rbp), %rsi
	movl	verbosity, %edx
	movzbl	smallMode, %ecx
	movl	-40(%rbp), %r9d
	leaq	-8(%rbp), %rdi
	callq	BZ2_bzReadOpen
	movq	%rax, -56(%rbp)
	cmpq	$0, -56(%rbp)
	je	.LBB39_7
# %bb.6:                                # %lor.lhs.false
                                        #   in Loop: Header=BB39_5 Depth=1
	cmpl	$0, -8(%rbp)
	je	.LBB39_8
.LBB39_7:                               # %if.then9
	jmp	.LBB39_62
.LBB39_8:                               # %if.end10
                                        #   in Loop: Header=BB39_5 Depth=1
	movl	-44(%rbp), %eax
	addl	$1, %eax
	movl	%eax, -44(%rbp)
.LBB39_9:                               # %while.cond11
                                        #   Parent Loop BB39_5 Depth=1
                                        # =>  This Inner Loop Header: Depth=2
	cmpl	$0, -8(%rbp)
	jne	.LBB39_19
# %bb.10:                               # %while.body14
                                        #   in Loop: Header=BB39_9 Depth=2
	leaq	-5088(%rbp), %rdx
	movq	-56(%rbp), %rsi
	leaq	-8(%rbp), %rdi
	movl	$5000, %ecx             # imm = 0x1388
	callq	BZ2_bzRead
	movl	%eax, -32(%rbp)
	cmpl	$-5, -8(%rbp)
	jne	.LBB39_12
# %bb.11:                               # %if.then19
	jmp	.LBB39_49
.LBB39_12:                              # %if.end20
                                        #   in Loop: Header=BB39_9 Depth=2
	cmpl	$0, -8(%rbp)
	je	.LBB39_14
# %bb.13:                               # %lor.lhs.false23
                                        #   in Loop: Header=BB39_9 Depth=2
	cmpl	$4, -8(%rbp)
	jne	.LBB39_16
.LBB39_14:                              # %land.lhs.true
                                        #   in Loop: Header=BB39_9 Depth=2
	cmpl	$0, -32(%rbp)
	jle	.LBB39_16
# %bb.15:                               # %if.then28
                                        #   in Loop: Header=BB39_9 Depth=2
	leaq	-5088(%rbp), %rdi
	movslq	-32(%rbp), %rdx
	movq	-16(%rbp), %rcx
	movl	$1, %esi
	callq	fwrite
.LBB39_16:                              # %if.end32
                                        #   in Loop: Header=BB39_9 Depth=2
	movq	-16(%rbp), %rdi
	callq	ferror
	cmpl	$0, %eax
	je	.LBB39_18
# %bb.17:                               # %if.then35
	jmp	.LBB39_66
.LBB39_18:                              # %if.end36
                                        #   in Loop: Header=BB39_9 Depth=2
	jmp	.LBB39_9
.LBB39_19:                              # %while.end
                                        #   in Loop: Header=BB39_5 Depth=1
	cmpl	$4, -8(%rbp)
	je	.LBB39_21
# %bb.20:                               # %if.then39
	jmp	.LBB39_62
.LBB39_21:                              # %if.end40
                                        #   in Loop: Header=BB39_5 Depth=1
	movq	-56(%rbp), %rsi
	leaq	-8(%rbp), %rdi
	leaq	-72(%rbp), %rdx
	leaq	-40(%rbp), %rcx
	callq	BZ2_bzReadGetUnused
	cmpl	$0, -8(%rbp)
	je	.LBB39_23
# %bb.22:                               # %if.then43
	movabsq	$.L.str.88, %rdi
	callq	panic
.LBB39_23:                              # %if.end44
                                        #   in Loop: Header=BB39_5 Depth=1
	movq	-72(%rbp), %rax
	movq	%rax, -64(%rbp)
	movl	$0, -28(%rbp)
.LBB39_24:                              # %for.cond
                                        #   Parent Loop BB39_5 Depth=1
                                        # =>  This Inner Loop Header: Depth=2
	movl	-28(%rbp), %eax
	cmpl	-40(%rbp), %eax
	jge	.LBB39_27
# %bb.25:                               # %for.body
                                        #   in Loop: Header=BB39_24 Depth=2
	movq	-64(%rbp), %rax
	movslq	-28(%rbp), %rcx
	movb	(%rax,%rcx), %al
	movslq	-28(%rbp), %rcx
	movb	%al, -10096(%rbp,%rcx)
# %bb.26:                               # %for.inc
                                        #   in Loop: Header=BB39_24 Depth=2
	movl	-28(%rbp), %eax
	addl	$1, %eax
	movl	%eax, -28(%rbp)
	jmp	.LBB39_24
.LBB39_27:                              # %for.end
                                        #   in Loop: Header=BB39_5 Depth=1
	movq	-56(%rbp), %rsi
	leaq	-8(%rbp), %rdi
	callq	BZ2_bzReadClose
	cmpl	$0, -8(%rbp)
	je	.LBB39_29
# %bb.28:                               # %if.then52
	movabsq	$.L.str.88, %rdi
	callq	panic
.LBB39_29:                              # %if.end53
                                        #   in Loop: Header=BB39_5 Depth=1
	cmpl	$0, -40(%rbp)
	jne	.LBB39_32
# %bb.30:                               # %land.lhs.true56
                                        #   in Loop: Header=BB39_5 Depth=1
	movq	-24(%rbp), %rdi
	callq	myfeof
	movzbl	%al, %eax
	cmpl	$0, %eax
	je	.LBB39_32
# %bb.31:                               # %if.then60
	jmp	.LBB39_33
.LBB39_32:                              # %if.end61
                                        #   in Loop: Header=BB39_5 Depth=1
	jmp	.LBB39_5
.LBB39_33:                              # %while.end62
	jmp	.LBB39_34
.LBB39_34:                              # %closeok
	movq	-24(%rbp), %rdi
	callq	ferror
	cmpl	$0, %eax
	je	.LBB39_36
# %bb.35:                               # %if.then65
	jmp	.LBB39_66
.LBB39_36:                              # %if.end66
	movq	-24(%rbp), %rdi
	callq	fclose
	movl	%eax, -36(%rbp)
	cmpl	$-1, -36(%rbp)
	jne	.LBB39_38
# %bb.37:                               # %if.then70
	jmp	.LBB39_66
.LBB39_38:                              # %if.end71
	movq	-16(%rbp), %rdi
	callq	ferror
	cmpl	$0, %eax
	je	.LBB39_40
# %bb.39:                               # %if.then74
	jmp	.LBB39_66
.LBB39_40:                              # %if.end75
	movq	-16(%rbp), %rdi
	callq	fflush
	movl	%eax, -36(%rbp)
	cmpl	$0, -36(%rbp)
	je	.LBB39_42
# %bb.41:                               # %if.then79
	jmp	.LBB39_66
.LBB39_42:                              # %if.end80
	movq	-16(%rbp), %rax
	cmpq	stdout, %rax
	je	.LBB39_46
# %bb.43:                               # %if.then83
	movq	-16(%rbp), %rdi
	callq	fclose
	movl	%eax, -36(%rbp)
	movq	$0, outputHandleJustInCase
	cmpl	$-1, -36(%rbp)
	jne	.LBB39_45
# %bb.44:                               # %if.then87
	jmp	.LBB39_66
.LBB39_45:                              # %if.end88
	jmp	.LBB39_46
.LBB39_46:                              # %if.end89
	movq	$0, outputHandleJustInCase
	cmpl	$2, verbosity
	jl	.LBB39_48
# %bb.47:                               # %if.then92
	movq	stderr, %rdi
	movabsq	$.L.str.89, %rsi
	movb	$0, %al
	callq	fprintf
.LBB39_48:                              # %if.end94
	movb	$1, -1(%rbp)
	jmp	.LBB39_80
.LBB39_49:                              # %trycat
	cmpb	$0, forceOverwrite
	je	.LBB39_61
# %bb.50:                               # %if.then96
	movq	-24(%rbp), %rdi
	callq	rewind
.LBB39_51:                              # %while.body97
                                        # =>This Inner Loop Header: Depth=1
	movq	-24(%rbp), %rdi
	callq	myfeof
	cmpb	$0, %al
	je	.LBB39_53
# %bb.52:                               # %if.then100
	jmp	.LBB39_60
.LBB39_53:                              # %if.end101
                                        #   in Loop: Header=BB39_51 Depth=1
	leaq	-5088(%rbp), %rdi
	movq	-24(%rbp), %rcx
	movl	$1, %esi
	movl	$5000, %edx             # imm = 0x1388
	callq	fread
	movl	%eax, -32(%rbp)
	movq	-24(%rbp), %rdi
	callq	ferror
	cmpl	$0, %eax
	je	.LBB39_55
# %bb.54:                               # %if.then107
	jmp	.LBB39_66
.LBB39_55:                              # %if.end108
                                        #   in Loop: Header=BB39_51 Depth=1
	cmpl	$0, -32(%rbp)
	jle	.LBB39_57
# %bb.56:                               # %if.then111
                                        #   in Loop: Header=BB39_51 Depth=1
	leaq	-5088(%rbp), %rdi
	movslq	-32(%rbp), %rdx
	movq	-16(%rbp), %rcx
	movl	$1, %esi
	callq	fwrite
.LBB39_57:                              # %if.end115
                                        #   in Loop: Header=BB39_51 Depth=1
	movq	-16(%rbp), %rdi
	callq	ferror
	cmpl	$0, %eax
	je	.LBB39_59
# %bb.58:                               # %if.then118
	jmp	.LBB39_66
.LBB39_59:                              # %if.end119
                                        #   in Loop: Header=BB39_51 Depth=1
	jmp	.LBB39_51
.LBB39_60:                              # %while.end120
	jmp	.LBB39_34
.LBB39_61:                              # %if.end121
	jmp	.LBB39_62
.LBB39_62:                              # %errhandler
	movq	-56(%rbp), %rsi
	leaq	-76(%rbp), %rdi
	callq	BZ2_bzReadClose
	movl	-8(%rbp), %eax
	addl	$9, %eax
	movl	%eax, %ecx
	subl	$6, %ecx
	ja	.LBB39_79
# %bb.63:                               # %errhandler
	movq	.LJTI39_0(,%rax,8), %rax
	jmpq	*%rax
.LBB39_64:                              # %sw.bb
	callq	configError
.LBB39_65:                              # %sw.bb122
	jmp	.LBB39_66
.LBB39_66:                              # %errhandler_io
	callq	ioError
.LBB39_67:                              # %sw.bb123
	callq	crcError
.LBB39_68:                              # %sw.bb124
	callq	outOfMemory
.LBB39_69:                              # %sw.bb125
	callq	compressedStreamEOF
.LBB39_70:                              # %sw.bb126
	movq	-24(%rbp), %rax
	cmpq	stdin, %rax
	je	.LBB39_72
# %bb.71:                               # %if.then129
	movq	-24(%rbp), %rdi
	callq	fclose
.LBB39_72:                              # %if.end131
	movq	-16(%rbp), %rax
	cmpq	stdout, %rax
	je	.LBB39_74
# %bb.73:                               # %if.then134
	movq	-16(%rbp), %rdi
	callq	fclose
.LBB39_74:                              # %if.end136
	cmpl	$1, -44(%rbp)
	jne	.LBB39_76
# %bb.75:                               # %if.then139
	movb	$0, -1(%rbp)
	jmp	.LBB39_80
.LBB39_76:                              # %if.else
	cmpb	$0, noisy
	je	.LBB39_78
# %bb.77:                               # %if.then141
	movq	stderr, %rdi
	movq	progName, %rdx
	movabsq	$.L.str.90, %rsi
	movabsq	$inName, %rcx
	movb	$0, %al
	callq	fprintf
.LBB39_78:                              # %if.end143
	movb	$1, -1(%rbp)
	jmp	.LBB39_80
.LBB39_79:                              # %sw.default
	movabsq	$.L.str.91, %rdi
	callq	panic
.LBB39_80:                              # %return
	movzbl	-1(%rbp), %eax
	addq	$10096, %rsp            # imm = 0x2770
	popq	%rbp
	.cfi_def_cfa %rsp, 8
	retq
.Lfunc_end39:
	.size	uncompressStream, .Lfunc_end39-uncompressStream
	.cfi_endproc
	.section	.rodata,"a",@progbits
	.p2align	3
.LJTI39_0:
	.quad	.LBB39_64
	.quad	.LBB39_79
	.quad	.LBB39_69
	.quad	.LBB39_65
	.quad	.LBB39_70
	.quad	.LBB39_67
	.quad	.LBB39_68
                                        # -- End function
	.text
	.p2align	4, 0x90         # -- Begin function crcError
	.type	crcError,@function
crcError:                               # @crcError
	.cfi_startproc
# %bb.0:                                # %entry
	pushq	%rbp
	.cfi_def_cfa_offset 16
	.cfi_offset %rbp, -16
	movq	%rsp, %rbp
	.cfi_def_cfa_register %rbp
	movq	stderr, %rdi
	movq	progName, %rdx
	movabsq	$.L.str.92, %rsi
	movb	$0, %al
	callq	fprintf
	callq	showFileNames
	callq	cadvise
	movl	$2, %edi
	callq	cleanUpAndFail
.Lfunc_end40:
	.size	crcError, .Lfunc_end40-crcError
	.cfi_endproc
                                        # -- End function
	.p2align	4, 0x90         # -- Begin function compressedStreamEOF
	.type	compressedStreamEOF,@function
compressedStreamEOF:                    # @compressedStreamEOF
	.cfi_startproc
# %bb.0:                                # %entry
	pushq	%rbp
	.cfi_def_cfa_offset 16
	.cfi_offset %rbp, -16
	movq	%rsp, %rbp
	.cfi_def_cfa_register %rbp
	cmpb	$0, noisy
	je	.LBB41_2
# %bb.1:                                # %if.then
	movq	stderr, %rdi
	movq	progName, %rdx
	movabsq	$.L.str.93, %rsi
	movb	$0, %al
	callq	fprintf
	movq	progName, %rdi
	callq	perror
	callq	showFileNames
	callq	cadvise
.LBB41_2:                               # %if.end
	movl	$2, %edi
	callq	cleanUpAndFail
.Lfunc_end41:
	.size	compressedStreamEOF, .Lfunc_end41-compressedStreamEOF
	.cfi_endproc
                                        # -- End function
	.p2align	4, 0x90         # -- Begin function testStream
	.type	testStream,@function
testStream:                             # @testStream
	.cfi_startproc
# %bb.0:                                # %entry
	pushq	%rbp
	.cfi_def_cfa_offset 16
	.cfi_offset %rbp, -16
	movq	%rsp, %rbp
	.cfi_def_cfa_register %rbp
	subq	$10080, %rsp            # imm = 0x2760
	movq	%rdi, -24(%rbp)
	movq	$0, -40(%rbp)
	movl	$0, -16(%rbp)
	movl	$0, -28(%rbp)
	movq	-24(%rbp), %rdi
	callq	ferror
	cmpl	$0, %eax
	je	.LBB42_2
# %bb.1:                                # %if.then
	jmp	.LBB42_38
.LBB42_2:                               # %if.end
	jmp	.LBB42_3
.LBB42_3:                               # %while.body
                                        # =>This Loop Header: Depth=1
                                        #     Child Loop BB42_7 Depth 2
                                        #     Child Loop BB42_16 Depth 2
	leaq	-5072(%rbp), %r8
	movq	-24(%rbp), %rsi
	movl	verbosity, %edx
	movzbl	smallMode, %ecx
	movl	-16(%rbp), %r9d
	leaq	-8(%rbp), %rdi
	callq	BZ2_bzReadOpen
	movq	%rax, -40(%rbp)
	cmpq	$0, -40(%rbp)
	je	.LBB42_5
# %bb.4:                                # %lor.lhs.false
                                        #   in Loop: Header=BB42_3 Depth=1
	cmpl	$0, -8(%rbp)
	je	.LBB42_6
.LBB42_5:                               # %if.then5
	jmp	.LBB42_32
.LBB42_6:                               # %if.end6
                                        #   in Loop: Header=BB42_3 Depth=1
	movl	-28(%rbp), %eax
	addl	$1, %eax
	movl	%eax, -28(%rbp)
.LBB42_7:                               # %while.cond7
                                        #   Parent Loop BB42_3 Depth=1
                                        # =>  This Inner Loop Header: Depth=2
	cmpl	$0, -8(%rbp)
	jne	.LBB42_11
# %bb.8:                                # %while.body10
                                        #   in Loop: Header=BB42_7 Depth=2
	leaq	-10080(%rbp), %rdx
	movq	-40(%rbp), %rsi
	leaq	-8(%rbp), %rdi
	movl	$5000, %ecx             # imm = 0x1388
	callq	BZ2_bzRead
	movl	%eax, -68(%rbp)
	cmpl	$-5, -8(%rbp)
	jne	.LBB42_10
# %bb.9:                                # %if.then15
	jmp	.LBB42_32
.LBB42_10:                              # %if.end16
                                        #   in Loop: Header=BB42_7 Depth=2
	jmp	.LBB42_7
.LBB42_11:                              # %while.end
                                        #   in Loop: Header=BB42_3 Depth=1
	cmpl	$4, -8(%rbp)
	je	.LBB42_13
# %bb.12:                               # %if.then19
	jmp	.LBB42_32
.LBB42_13:                              # %if.end20
                                        #   in Loop: Header=BB42_3 Depth=1
	movq	-40(%rbp), %rsi
	leaq	-8(%rbp), %rdi
	leaq	-64(%rbp), %rdx
	leaq	-16(%rbp), %rcx
	callq	BZ2_bzReadGetUnused
	cmpl	$0, -8(%rbp)
	je	.LBB42_15
# %bb.14:                               # %if.then23
	movabsq	$.L.str.98, %rdi
	callq	panic
.LBB42_15:                              # %if.end24
                                        #   in Loop: Header=BB42_3 Depth=1
	movq	-64(%rbp), %rax
	movq	%rax, -56(%rbp)
	movl	$0, -12(%rbp)
.LBB42_16:                              # %for.cond
                                        #   Parent Loop BB42_3 Depth=1
                                        # =>  This Inner Loop Header: Depth=2
	movl	-12(%rbp), %eax
	cmpl	-16(%rbp), %eax
	jge	.LBB42_19
# %bb.17:                               # %for.body
                                        #   in Loop: Header=BB42_16 Depth=2
	movq	-56(%rbp), %rax
	movslq	-12(%rbp), %rcx
	movb	(%rax,%rcx), %al
	movslq	-12(%rbp), %rcx
	movb	%al, -5072(%rbp,%rcx)
# %bb.18:                               # %for.inc
                                        #   in Loop: Header=BB42_16 Depth=2
	movl	-12(%rbp), %eax
	addl	$1, %eax
	movl	%eax, -12(%rbp)
	jmp	.LBB42_16
.LBB42_19:                              # %for.end
                                        #   in Loop: Header=BB42_3 Depth=1
	movq	-40(%rbp), %rsi
	leaq	-8(%rbp), %rdi
	callq	BZ2_bzReadClose
	cmpl	$0, -8(%rbp)
	je	.LBB42_21
# %bb.20:                               # %if.then32
	movabsq	$.L.str.98, %rdi
	callq	panic
.LBB42_21:                              # %if.end33
                                        #   in Loop: Header=BB42_3 Depth=1
	cmpl	$0, -16(%rbp)
	jne	.LBB42_24
# %bb.22:                               # %land.lhs.true
                                        #   in Loop: Header=BB42_3 Depth=1
	movq	-24(%rbp), %rdi
	callq	myfeof
	movzbl	%al, %eax
	cmpl	$0, %eax
	je	.LBB42_24
# %bb.23:                               # %if.then39
	jmp	.LBB42_25
.LBB42_24:                              # %if.end40
                                        #   in Loop: Header=BB42_3 Depth=1
	jmp	.LBB42_3
.LBB42_25:                              # %while.end41
	movq	-24(%rbp), %rdi
	callq	ferror
	cmpl	$0, %eax
	je	.LBB42_27
# %bb.26:                               # %if.then44
	jmp	.LBB42_38
.LBB42_27:                              # %if.end45
	movq	-24(%rbp), %rdi
	callq	fclose
	movl	%eax, -44(%rbp)
	cmpl	$-1, -44(%rbp)
	jne	.LBB42_29
# %bb.28:                               # %if.then49
	jmp	.LBB42_38
.LBB42_29:                              # %if.end50
	cmpl	$2, verbosity
	jl	.LBB42_31
# %bb.30:                               # %if.then53
	movq	stderr, %rdi
	movabsq	$.L.str.89, %rsi
	movb	$0, %al
	callq	fprintf
.LBB42_31:                              # %if.end55
	movb	$1, -1(%rbp)
	jmp	.LBB42_50
.LBB42_32:                              # %errhandler
	movq	-40(%rbp), %rsi
	leaq	-72(%rbp), %rdi
	callq	BZ2_bzReadClose
	cmpl	$0, verbosity
	jne	.LBB42_34
# %bb.33:                               # %if.then58
	movq	stderr, %rdi
	movq	progName, %rdx
	movabsq	$.L.str.99, %rsi
	movabsq	$inName, %rcx
	movb	$0, %al
	callq	fprintf
.LBB42_34:                              # %if.end60
	movl	-8(%rbp), %eax
	addl	$9, %eax
	movl	%eax, %ecx
	subl	$6, %ecx
	ja	.LBB42_49
# %bb.35:                               # %if.end60
	movq	.LJTI42_0(,%rax,8), %rax
	jmpq	*%rax
.LBB42_36:                              # %sw.bb
	callq	configError
.LBB42_37:                              # %sw.bb61
	jmp	.LBB42_38
.LBB42_38:                              # %errhandler_io
	callq	ioError
.LBB42_39:                              # %sw.bb62
	movq	stderr, %rdi
	movabsq	$.L.str.100, %rsi
	movb	$0, %al
	callq	fprintf
	movb	$0, -1(%rbp)
	jmp	.LBB42_50
.LBB42_40:                              # %sw.bb64
	callq	outOfMemory
.LBB42_41:                              # %sw.bb65
	movq	stderr, %rdi
	movabsq	$.L.str.101, %rsi
	movb	$0, %al
	callq	fprintf
	movb	$0, -1(%rbp)
	jmp	.LBB42_50
.LBB42_42:                              # %sw.bb67
	movq	-24(%rbp), %rax
	cmpq	stdin, %rax
	je	.LBB42_44
# %bb.43:                               # %if.then70
	movq	-24(%rbp), %rdi
	callq	fclose
.LBB42_44:                              # %if.end72
	cmpl	$1, -28(%rbp)
	jne	.LBB42_46
# %bb.45:                               # %if.then75
	movq	stderr, %rdi
	movabsq	$.L.str.102, %rsi
	movb	$0, %al
	callq	fprintf
	movb	$0, -1(%rbp)
	jmp	.LBB42_50
.LBB42_46:                              # %if.else
	cmpb	$0, noisy
	je	.LBB42_48
# %bb.47:                               # %if.then78
	movq	stderr, %rdi
	movabsq	$.L.str.103, %rsi
	movb	$0, %al
	callq	fprintf
.LBB42_48:                              # %if.end80
	movb	$1, -1(%rbp)
	jmp	.LBB42_50
.LBB42_49:                              # %sw.default
	movabsq	$.L.str.104, %rdi
	callq	panic
.LBB42_50:                              # %return
	movzbl	-1(%rbp), %eax
	addq	$10080, %rsp            # imm = 0x2760
	popq	%rbp
	.cfi_def_cfa %rsp, 8
	retq
.Lfunc_end42:
	.size	testStream, .Lfunc_end42-testStream
	.cfi_endproc
	.section	.rodata,"a",@progbits
	.p2align	3
.LJTI42_0:
	.quad	.LBB42_36
	.quad	.LBB42_49
	.quad	.LBB42_41
	.quad	.LBB42_37
	.quad	.LBB42_42
	.quad	.LBB42_39
	.quad	.LBB42_40
                                        # -- End function
	.type	outputHandleJustInCase,@object # @outputHandleJustInCase
	.comm	outputHandleJustInCase,8,8
	.type	smallMode,@object       # @smallMode
	.comm	smallMode,1,1
	.type	keepInputFiles,@object  # @keepInputFiles
	.comm	keepInputFiles,1,1
	.type	forceOverwrite,@object  # @forceOverwrite
	.comm	forceOverwrite,1,1
	.type	noisy,@object           # @noisy
	.comm	noisy,1,1
	.type	verbosity,@object       # @verbosity
	.comm	verbosity,4,4
	.type	blockSize100k,@object   # @blockSize100k
	.comm	blockSize100k,4,4
	.type	testFailsExist,@object  # @testFailsExist
	.comm	testFailsExist,1,1
	.type	unzFailsExist,@object   # @unzFailsExist
	.comm	unzFailsExist,1,1
	.type	numFileNames,@object    # @numFileNames
	.comm	numFileNames,4,4
	.type	numFilesProcessed,@object # @numFilesProcessed
	.comm	numFilesProcessed,4,4
	.type	workFactor,@object      # @workFactor
	.comm	workFactor,4,4
	.type	deleteOutputOnInterrupt,@object # @deleteOutputOnInterrupt
	.comm	deleteOutputOnInterrupt,1,1
	.type	exitValue,@object       # @exitValue
	.comm	exitValue,4,4
	.type	inName,@object          # @inName
	.comm	inName,1034,16
	.type	.L.str,@object          # @.str
	.section	.rodata.str1.1,"aMS",@progbits,1
.L.str:
	.asciz	"(none)"
	.size	.L.str, 7

	.type	outName,@object         # @outName
	.comm	outName,1034,16
	.type	progNameReally,@object  # @progNameReally
	.comm	progNameReally,1034,16
	.type	progName,@object        # @progName
	.comm	progName,8,8
	.type	.L.str.1,@object        # @.str.1
.L.str.1:
	.asciz	"BZIP2"
	.size	.L.str.1, 6

	.type	.L.str.2,@object        # @.str.2
.L.str.2:
	.asciz	"BZIP"
	.size	.L.str.2, 5

	.type	longestFileName,@object # @longestFileName
	.comm	longestFileName,4,4
	.type	.L.str.3,@object        # @.str.3
.L.str.3:
	.asciz	"--"
	.size	.L.str.3, 3

	.type	srcMode,@object         # @srcMode
	.comm	srcMode,4,4
	.type	opMode,@object          # @opMode
	.comm	opMode,4,4
	.type	.L.str.4,@object        # @.str.4
.L.str.4:
	.asciz	"unzip"
	.size	.L.str.4, 6

	.type	.L.str.5,@object        # @.str.5
.L.str.5:
	.asciz	"UNZIP"
	.size	.L.str.5, 6

	.type	.L.str.6,@object        # @.str.6
.L.str.6:
	.asciz	"z2cat"
	.size	.L.str.6, 6

	.type	.L.str.7,@object        # @.str.7
.L.str.7:
	.asciz	"Z2CAT"
	.size	.L.str.7, 6

	.type	.L.str.8,@object        # @.str.8
.L.str.8:
	.asciz	"zcat"
	.size	.L.str.8, 5

	.type	.L.str.9,@object        # @.str.9
.L.str.9:
	.asciz	"ZCAT"
	.size	.L.str.9, 5

	.type	.L.str.10,@object       # @.str.10
.L.str.10:
	.asciz	"%s: Bad flag `%s'\n"
	.size	.L.str.10, 19

	.type	.L.str.11,@object       # @.str.11
.L.str.11:
	.asciz	"--stdout"
	.size	.L.str.11, 9

	.type	.L.str.12,@object       # @.str.12
.L.str.12:
	.asciz	"--decompress"
	.size	.L.str.12, 13

	.type	.L.str.13,@object       # @.str.13
.L.str.13:
	.asciz	"--compress"
	.size	.L.str.13, 11

	.type	.L.str.14,@object       # @.str.14
.L.str.14:
	.asciz	"--force"
	.size	.L.str.14, 8

	.type	.L.str.15,@object       # @.str.15
.L.str.15:
	.asciz	"--test"
	.size	.L.str.15, 7

	.type	.L.str.16,@object       # @.str.16
.L.str.16:
	.asciz	"--keep"
	.size	.L.str.16, 7

	.type	.L.str.17,@object       # @.str.17
.L.str.17:
	.asciz	"--small"
	.size	.L.str.17, 8

	.type	.L.str.18,@object       # @.str.18
.L.str.18:
	.asciz	"--quiet"
	.size	.L.str.18, 8

	.type	.L.str.19,@object       # @.str.19
.L.str.19:
	.asciz	"--version"
	.size	.L.str.19, 10

	.type	.L.str.20,@object       # @.str.20
.L.str.20:
	.asciz	"--license"
	.size	.L.str.20, 10

	.type	.L.str.21,@object       # @.str.21
.L.str.21:
	.asciz	"--exponential"
	.size	.L.str.21, 14

	.type	.L.str.22,@object       # @.str.22
.L.str.22:
	.asciz	"--repetitive-best"
	.size	.L.str.22, 18

	.type	.L.str.23,@object       # @.str.23
.L.str.23:
	.asciz	"--repetitive-fast"
	.size	.L.str.23, 18

	.type	.L.str.24,@object       # @.str.24
.L.str.24:
	.asciz	"--fast"
	.size	.L.str.24, 7

	.type	.L.str.25,@object       # @.str.25
.L.str.25:
	.asciz	"--best"
	.size	.L.str.25, 7

	.type	.L.str.26,@object       # @.str.26
.L.str.26:
	.asciz	"--verbose"
	.size	.L.str.26, 10

	.type	.L.str.27,@object       # @.str.27
.L.str.27:
	.asciz	"--help"
	.size	.L.str.27, 7

	.type	.L.str.28,@object       # @.str.28
.L.str.28:
	.asciz	"%s: -c and -t cannot be used together.\n"
	.size	.L.str.28, 40

	.type	.L.str.29,@object       # @.str.29
.L.str.29:
	.asciz	"\nYou can use the `bzip2recover' program to attempt to recover\ndata from undamaged sections of corrupted files.\n\n"
	.size	.L.str.29, 113

	.type	tmpName,@object         # @tmpName
	.comm	tmpName,1034,16
	.type	zSuffix,@object         # @zSuffix
	.data
	.globl	zSuffix
	.p2align	4
zSuffix:
	.quad	.L.str.30
	.quad	.L.str.31
	.quad	.L.str.32
	.quad	.L.str.33
	.size	zSuffix, 32

	.type	.L.str.30,@object       # @.str.30
	.section	.rodata.str1.1,"aMS",@progbits,1
.L.str.30:
	.asciz	".bz2"
	.size	.L.str.30, 5

	.type	.L.str.31,@object       # @.str.31
.L.str.31:
	.asciz	".bz"
	.size	.L.str.31, 4

	.type	.L.str.32,@object       # @.str.32
.L.str.32:
	.asciz	".tbz2"
	.size	.L.str.32, 6

	.type	.L.str.33,@object       # @.str.33
.L.str.33:
	.asciz	".tbz"
	.size	.L.str.33, 5

	.type	unzSuffix,@object       # @unzSuffix
	.data
	.globl	unzSuffix
	.p2align	4
unzSuffix:
	.quad	.L.str.34
	.quad	.L.str.34
	.quad	.L.str.35
	.quad	.L.str.35
	.size	unzSuffix, 32

	.type	.L.str.34,@object       # @.str.34
	.section	.rodata.str1.1,"aMS",@progbits,1
.L.str.34:
	.zero	1
	.size	.L.str.34, 1

	.type	.L.str.35,@object       # @.str.35
.L.str.35:
	.asciz	".tar"
	.size	.L.str.35, 5

	.type	.L.str.36,@object       # @.str.36
.L.str.36:
	.asciz	"\n%s: Caught a SIGSEGV or SIGBUS whilst compressing.\n\n   Possible causes are (most likely first):\n   (1) This computer has unreliable memory or cache hardware\n       (a surprisingly common problem; try a different machine.)\n   (2) A bug in the compiler used to create this executable\n       (unlikely, if you didn't compile bzip2 yourself.)\n   (3) A real bug in bzip2 -- I hope this should never be the case.\n   The user's manual, Section 4.3, has more info on (1) and (2).\n   \n   If you suspect this is a bug in bzip2, or are unsure about (1)\n   or (2), feel free to report it to me at: jseward@bzip.org.\n   Section 4.3 of the user's manual describes the info a useful\n   bug report should have.  If the manual is available on your\n   system, please try and read it before mailing me.  If you don't\n   have the manual or can't be bothered to read it, mail me anyway.\n\n"
	.size	.L.str.36, 869

	.type	.L.str.37,@object       # @.str.37
.L.str.37:
	.asciz	"\n%s: Caught a SIGSEGV or SIGBUS whilst decompressing.\n\n   Possible causes are (most likely first):\n   (1) The compressed data is corrupted, and bzip2's usual checks\n       failed to detect this.  Try bzip2 -tvv my_file.bz2.\n   (2) This computer has unreliable memory or cache hardware\n       (a surprisingly common problem; try a different machine.)\n   (3) A bug in the compiler used to create this executable\n       (unlikely, if you didn't compile bzip2 yourself.)\n   (4) A real bug in bzip2 -- I hope this should never be the case.\n   The user's manual, Section 4.3, has more info on (2) and (3).\n   \n   If you suspect this is a bug in bzip2, or are unsure about (2)\n   or (3), feel free to report it to me at: jseward@bzip.org.\n   Section 4.3 of the user's manual describes the info a useful\n   bug report should have.  If the manual is available on your\n   system, please try and read it before mailing me.  If you don't\n   have the manual or can't be bothered to read it, mail me anyway.\n\n"
	.size	.L.str.37, 996

	.type	.L.str.38,@object       # @.str.38
.L.str.38:
	.asciz	"\tInput file = %s, output file = %s\n"
	.size	.L.str.38, 36

	.type	.L.str.39,@object       # @.str.39
.L.str.39:
	.asciz	"%s: Deleting output file %s, if it exists.\n"
	.size	.L.str.39, 44

	.type	.L.str.40,@object       # @.str.40
.L.str.40:
	.asciz	"%s: WARNING: deletion of output file (apparently) failed.\n"
	.size	.L.str.40, 59

	.type	.L.str.41,@object       # @.str.41
.L.str.41:
	.asciz	"%s: WARNING: deletion of output file suppressed\n"
	.size	.L.str.41, 49

	.type	.L.str.42,@object       # @.str.42
.L.str.42:
	.asciz	"%s:    since input file no longer exists.  Output file\n"
	.size	.L.str.42, 56

	.type	.L.str.43,@object       # @.str.43
.L.str.43:
	.asciz	"%s:    `%s' may be incomplete.\n"
	.size	.L.str.43, 32

	.type	.L.str.44,@object       # @.str.44
.L.str.44:
	.asciz	"%s:    I suggest doing an integrity test (bzip2 -tv) of it.\n"
	.size	.L.str.44, 61

	.type	.L.str.45,@object       # @.str.45
.L.str.45:
	.asciz	"%s: WARNING: some files have not been processed:\n%s:    %d specified on command line, %d not processed yet.\n\n"
	.size	.L.str.45, 110

	.type	.L.str.46,@object       # @.str.46
.L.str.46:
	.asciz	"\nIt is possible that the compressed file(s) have become corrupted.\nYou can use the -tvv option to test integrity of such files.\n\nYou can use the `bzip2recover' program to attempt to recover\ndata from undamaged sections of corrupted files.\n\n"
	.size	.L.str.46, 241

	.type	.L.str.47,@object       # @.str.47
.L.str.47:
	.asciz	"bzip2: file name\n`%s'\nis suspiciously (more than %d chars) long.\nTry using a reasonable file name instead.  Sorry! :-)\n"
	.size	.L.str.47, 120

	.type	.L.str.48,@object       # @.str.48
.L.str.48:
	.asciz	"\n%s: couldn't allocate enough memory\n"
	.size	.L.str.48, 38

	.type	.L.str.49,@object       # @.str.49
.L.str.49:
	.asciz	"bzip2, a block-sorting file compressor.  Version %s.\n   \n   Copyright (C) 1996-2005 by Julian Seward.\n   \n   This program is free software; you can redistribute it and/or modify\n   it under the terms set out in the LICENSE file, which is included\n   in the bzip2-1.0 source distribution.\n   \n   This program is distributed in the hope that it will be useful,\n   but WITHOUT ANY WARRANTY; without even the implied warranty of\n   MERCHANTABILITY or FITNESS FOR A PARTICULAR PURPOSE.  See the\n   LICENSE file for more details.\n   \n"
	.size	.L.str.49, 529

	.type	.L.str.50,@object       # @.str.50
.L.str.50:
	.asciz	"bzip2, a block-sorting file compressor.  Version %s.\n\n   usage: %s [flags and input files in any order]\n\n   -h --help           print this message\n   -d --decompress     force decompression\n   -z --compress       force compression\n   -k --keep           keep (don't delete) input files\n   -f --force          overwrite existing output files\n   -t --test           test compressed file integrity\n   -c --stdout         output to standard out\n   -q --quiet          suppress noncritical error messages\n   -v --verbose        be verbose (a 2nd -v gives more)\n   -L --license        display software version & license\n   -V --version        display software version & license\n   -s --small          use less memory (at most 2500k)\n   -1 .. -9            set block size to 100k .. 900k\n   --fast              alias for -1\n   --best              alias for -9\n\n   If invoked as `bzip2', default action is to compress.\n              as `bunzip2',  default action is to decompress.\n              as `bzcat', default action is to decompress to stdout.\n\n   If no file names are given, bzip2 compresses or decompresses\n   from standard input to standard output.  You can combine\n   short flags, so `-v -4' means the same as -v4 or -4v, &c.\n\n"
	.size	.L.str.50, 1230

	.type	.L.str.51,@object       # @.str.51
.L.str.51:
	.asciz	"%s: %s is redundant in versions 0.9.5 and above\n"
	.size	.L.str.51, 49

	.type	.L.str.52,@object       # @.str.52
.L.str.52:
	.asciz	"\n%s: Control-C or similar caught, quitting.\n"
	.size	.L.str.52, 45

	.type	.L.str.53,@object       # @.str.53
.L.str.53:
	.asciz	"compress: bad modes\n"
	.size	.L.str.53, 21

	.type	.L.str.54,@object       # @.str.54
.L.str.54:
	.asciz	"(stdin)"
	.size	.L.str.54, 8

	.type	.L.str.55,@object       # @.str.55
.L.str.55:
	.asciz	"(stdout)"
	.size	.L.str.55, 9

	.type	.L.str.56,@object       # @.str.56
.L.str.56:
	.asciz	"%s: There are no files matching `%s'.\n"
	.size	.L.str.56, 39

	.type	.L.str.57,@object       # @.str.57
.L.str.57:
	.asciz	"%s: Can't open input file %s: %s.\n"
	.size	.L.str.57, 35

	.type	.L.str.58,@object       # @.str.58
.L.str.58:
	.asciz	"%s: Input file %s already has %s suffix.\n"
	.size	.L.str.58, 42

	.type	.L.str.59,@object       # @.str.59
.L.str.59:
	.asciz	"%s: Input file %s is a directory.\n"
	.size	.L.str.59, 35

	.type	.L.str.60,@object       # @.str.60
.L.str.60:
	.asciz	"%s: Input file %s is not a normal file.\n"
	.size	.L.str.60, 41

	.type	.L.str.61,@object       # @.str.61
.L.str.61:
	.asciz	"%s: Output file %s already exists.\n"
	.size	.L.str.61, 36

	.type	.L.str.62,@object       # @.str.62
.L.str.62:
	.asciz	"%s: Input file %s has %d other link%s.\n"
	.size	.L.str.62, 40

	.type	.L.str.63,@object       # @.str.63
.L.str.63:
	.asciz	"s"
	.size	.L.str.63, 2

	.type	.L.str.64,@object       # @.str.64
.L.str.64:
	.asciz	"%s: I won't write compressed data to a terminal.\n"
	.size	.L.str.64, 50

	.type	.L.str.65,@object       # @.str.65
.L.str.65:
	.asciz	"%s: For help, type: `%s --help'.\n"
	.size	.L.str.65, 34

	.type	.L.str.66,@object       # @.str.66
.L.str.66:
	.asciz	"rb"
	.size	.L.str.66, 3

	.type	.L.str.67,@object       # @.str.67
.L.str.67:
	.asciz	"wb"
	.size	.L.str.67, 3

	.type	.L.str.68,@object       # @.str.68
.L.str.68:
	.asciz	"%s: Can't create output file %s: %s.\n"
	.size	.L.str.68, 38

	.type	.L.str.69,@object       # @.str.69
.L.str.69:
	.asciz	"compress: bad srcMode"
	.size	.L.str.69, 22

	.type	.L.str.70,@object       # @.str.70
.L.str.70:
	.asciz	"  %s: "
	.size	.L.str.70, 7

	.type	.L.str.71,@object       # @.str.71
.L.str.71:
	.asciz	"\n%s: PANIC -- internal consistency error:\n\t%s\n\tThis is a BUG.  Please report it to me at:\n\tjseward@bzip.org\n"
	.size	.L.str.71, 109

	.type	fileMetaInfo,@object    # @fileMetaInfo
	.local	fileMetaInfo
	.comm	fileMetaInfo,144,8
	.type	.L.str.72,@object       # @.str.72
.L.str.72:
	.asciz	" "
	.size	.L.str.72, 2

	.type	.L.str.73,@object       # @.str.73
.L.str.73:
	.asciz	"\n"
	.size	.L.str.73, 2

	.type	.L.str.74,@object       # @.str.74
.L.str.74:
	.asciz	" no data compressed.\n"
	.size	.L.str.74, 22

	.type	.L.str.75,@object       # @.str.75
.L.str.75:
	.asciz	"%6.3f:1, %6.3f bits/byte, %5.2f%% saved, %s in, %s out.\n"
	.size	.L.str.75, 57

	.type	.L.str.76,@object       # @.str.76
.L.str.76:
	.asciz	"compress:unexpected error"
	.size	.L.str.76, 26

	.type	.L.str.77,@object       # @.str.77
.L.str.77:
	.asciz	"bzip2: I'm not configured correctly for this platform!\n\tI require Int32, Int16 and Char to have sizes\n\tof 4, 2 and 1 bytes to run properly, and they don't.\n\tProbably you can fix this by defining them correctly,\n\tand recompiling.  Bye!\n"
	.size	.L.str.77, 236

	.type	.L.str.78,@object       # @.str.78
.L.str.78:
	.asciz	"\n%s: I/O or other error, bailing out.  Possible reason follows.\n"
	.size	.L.str.78, 65

	.type	.L.str.79,@object       # @.str.79
.L.str.79:
	.asciz	"uncompress: bad modes\n"
	.size	.L.str.79, 23

	.type	.L.str.80,@object       # @.str.80
.L.str.80:
	.asciz	".out"
	.size	.L.str.80, 5

	.type	.L.str.81,@object       # @.str.81
.L.str.81:
	.asciz	"%s: Can't guess original name for %s -- using %s\n"
	.size	.L.str.81, 50

	.type	.L.str.82,@object       # @.str.82
.L.str.82:
	.asciz	"%s: I won't read compressed data from a terminal.\n"
	.size	.L.str.82, 51

	.type	.L.str.83,@object       # @.str.83
.L.str.83:
	.asciz	"%s: Can't open input file %s:%s.\n"
	.size	.L.str.83, 34

	.type	.L.str.84,@object       # @.str.84
.L.str.84:
	.asciz	"uncompress: bad srcMode"
	.size	.L.str.84, 24

	.type	.L.str.85,@object       # @.str.85
.L.str.85:
	.asciz	"done\n"
	.size	.L.str.85, 6

	.type	.L.str.86,@object       # @.str.86
.L.str.86:
	.asciz	"not a bzip2 file.\n"
	.size	.L.str.86, 19

	.type	.L.str.87,@object       # @.str.87
.L.str.87:
	.asciz	"%s: %s is not a bzip2 file.\n"
	.size	.L.str.87, 29

	.type	.L.str.88,@object       # @.str.88
.L.str.88:
	.asciz	"decompress:bzReadGetUnused"
	.size	.L.str.88, 27

	.type	.L.str.89,@object       # @.str.89
.L.str.89:
	.asciz	"\n    "
	.size	.L.str.89, 6

	.type	.L.str.90,@object       # @.str.90
.L.str.90:
	.asciz	"\n%s: %s: trailing garbage after EOF ignored\n"
	.size	.L.str.90, 45

	.type	.L.str.91,@object       # @.str.91
.L.str.91:
	.asciz	"decompress:unexpected error"
	.size	.L.str.91, 28

	.type	.L.str.92,@object       # @.str.92
.L.str.92:
	.asciz	"\n%s: Data integrity error when decompressing.\n"
	.size	.L.str.92, 47

	.type	.L.str.93,@object       # @.str.93
.L.str.93:
	.asciz	"\n%s: Compressed file ends unexpectedly;\n\tperhaps it is corrupted?  *Possible* reason follows.\n"
	.size	.L.str.93, 95

	.type	.L.str.94,@object       # @.str.94
.L.str.94:
	.asciz	"testf: bad modes\n"
	.size	.L.str.94, 18

	.type	.L.str.95,@object       # @.str.95
.L.str.95:
	.asciz	"%s: Can't open input %s: %s.\n"
	.size	.L.str.95, 30

	.type	.L.str.96,@object       # @.str.96
.L.str.96:
	.asciz	"testf: bad srcMode"
	.size	.L.str.96, 19

	.type	.L.str.97,@object       # @.str.97
.L.str.97:
	.asciz	"ok\n"
	.size	.L.str.97, 4

	.type	.L.str.98,@object       # @.str.98
.L.str.98:
	.asciz	"test:bzReadGetUnused"
	.size	.L.str.98, 21

	.type	.L.str.99,@object       # @.str.99
.L.str.99:
	.asciz	"%s: %s: "
	.size	.L.str.99, 9

	.type	.L.str.100,@object      # @.str.100
.L.str.100:
	.asciz	"data integrity (CRC) error in data\n"
	.size	.L.str.100, 36

	.type	.L.str.101,@object      # @.str.101
.L.str.101:
	.asciz	"file ends unexpectedly\n"
	.size	.L.str.101, 24

	.type	.L.str.102,@object      # @.str.102
.L.str.102:
	.asciz	"bad magic number (file not created by bzip2)\n"
	.size	.L.str.102, 46

	.type	.L.str.103,@object      # @.str.103
.L.str.103:
	.asciz	"trailing garbage after EOF ignored\n"
	.size	.L.str.103, 36

	.type	.L.str.104,@object      # @.str.104
.L.str.104:
	.asciz	"test:unexpected error"
	.size	.L.str.104, 22


	.ident	"clang version 9.0.1 (git@github.com:llvm/llvm-project.git 9b2d207cf4b43cfc1a2b6940b3c06e50a1bd127f)"
	.section	".note.GNU-stack","",@progbits
