	.text
	.file	"bzip2.c"
	.globl	fopen_output_safely     # -- Begin function fopen_output_safely
	.p2align	4, 0x90
	.type	fopen_output_safely,@function
fopen_output_safely:                    # @fopen_output_safely
	.cfi_startproc
# %bb.0:                                # %rand_bb
	pushq	%rbp
	.cfi_def_cfa_offset 16
	.cfi_offset %rbp, -16
	movq	%rsp, %rbp
	.cfi_def_cfa_register %rbp
	pushq	%r14
	pushq	%rbx
	.cfi_offset %rbx, -32
	.cfi_offset %r14, -24
	movq	%rsi, %r14
	movq	%rdi, %rbx
	callq	get_rand
	cmpl	$0, %eax
	jne	.LBB0_17
# %bb.1:                                # %func_fopen_output_safely.50
	movq	%rbx, %rdi
	movq	%r14, %rsi
	callq	fopen_output_safely.50
	popq	%rbx
	popq	%r14
	popq	%rbp
	.cfi_def_cfa %rsp, 8
	retq
.LBB0_2:                                # %func_fopen_output_safely.124
	.cfi_def_cfa %rbp, 16
	movq	%rbx, %rdi
	movq	%r14, %rsi
	callq	fopen_output_safely.124
	popq	%rbx
	popq	%r14
	popq	%rbp
	.cfi_def_cfa %rsp, 8
	retq
.LBB0_3:                                # %func_fopen_output_safely.150
	.cfi_def_cfa %rbp, 16
	movq	%rbx, %rdi
	movq	%r14, %rsi
	callq	fopen_output_safely.150
	popq	%rbx
	popq	%r14
	popq	%rbp
	.cfi_def_cfa %rsp, 8
	retq
.LBB0_4:                                # %func_fopen_output_safely.155
	.cfi_def_cfa %rbp, 16
	movq	%rbx, %rdi
	movq	%r14, %rsi
	callq	fopen_output_safely.155
	popq	%rbx
	popq	%r14
	popq	%rbp
	.cfi_def_cfa %rsp, 8
	retq
.LBB0_5:                                # %func_fopen_output_safely.176
	.cfi_def_cfa %rbp, 16
	movq	%rbx, %rdi
	movq	%r14, %rsi
	callq	fopen_output_safely.176
	popq	%rbx
	popq	%r14
	popq	%rbp
	.cfi_def_cfa %rsp, 8
	retq
.LBB0_6:                                # %func_fopen_output_safely.182
	.cfi_def_cfa %rbp, 16
	movq	%rbx, %rdi
	movq	%r14, %rsi
	callq	fopen_output_safely.182
	popq	%rbx
	popq	%r14
	popq	%rbp
	.cfi_def_cfa %rsp, 8
	retq
.LBB0_7:                                # %func_fopen_output_safely.202
	.cfi_def_cfa %rbp, 16
	movq	%rbx, %rdi
	movq	%r14, %rsi
	callq	fopen_output_safely.202
	popq	%rbx
	popq	%r14
	popq	%rbp
	.cfi_def_cfa %rsp, 8
	retq
.LBB0_8:                                # %func_fopen_output_safely.247
	.cfi_def_cfa %rbp, 16
	movq	%rbx, %rdi
	movq	%r14, %rsi
	callq	fopen_output_safely.247
	popq	%rbx
	popq	%r14
	popq	%rbp
	.cfi_def_cfa %rsp, 8
	retq
.LBB0_9:                                # %func_fopen_output_safely.248
	.cfi_def_cfa %rbp, 16
	movq	%rbx, %rdi
	movq	%r14, %rsi
	callq	fopen_output_safely.248
	popq	%rbx
	popq	%r14
	popq	%rbp
	.cfi_def_cfa %rsp, 8
	retq
.LBB0_10:                               # %func_fopen_output_safely.268
	.cfi_def_cfa %rbp, 16
	movq	%rbx, %rdi
	movq	%r14, %rsi
	callq	fopen_output_safely.268
	popq	%rbx
	popq	%r14
	popq	%rbp
	.cfi_def_cfa %rsp, 8
	retq
.LBB0_11:                               # %func_fopen_output_safely.275
	.cfi_def_cfa %rbp, 16
	movq	%rbx, %rdi
	movq	%r14, %rsi
	callq	fopen_output_safely.275
	popq	%rbx
	popq	%r14
	popq	%rbp
	.cfi_def_cfa %rsp, 8
	retq
.LBB0_12:                               # %func_fopen_output_safely.279
	.cfi_def_cfa %rbp, 16
	movq	%rbx, %rdi
	movq	%r14, %rsi
	callq	fopen_output_safely.279
	popq	%rbx
	popq	%r14
	popq	%rbp
	.cfi_def_cfa %rsp, 8
	retq
.LBB0_13:                               # %func_fopen_output_safely.288
	.cfi_def_cfa %rbp, 16
	movq	%rbx, %rdi
	movq	%r14, %rsi
	callq	fopen_output_safely.288
	popq	%rbx
	popq	%r14
	popq	%rbp
	.cfi_def_cfa %rsp, 8
	retq
.LBB0_14:                               # %func_fopen_output_safely.291
	.cfi_def_cfa %rbp, 16
	movq	%rbx, %rdi
	movq	%r14, %rsi
	callq	fopen_output_safely.291
	popq	%rbx
	popq	%r14
	popq	%rbp
	.cfi_def_cfa %rsp, 8
	retq
.LBB0_15:                               # %func_fopen_output_safely.297
	.cfi_def_cfa %rbp, 16
	movq	%rbx, %rdi
	movq	%r14, %rsi
	callq	fopen_output_safely.297
	popq	%rbx
	popq	%r14
	popq	%rbp
	.cfi_def_cfa %rsp, 8
	retq
.LBB0_16:                               # %func_fopen_output_safely.300
	.cfi_def_cfa %rbp, 16
	movq	%rbx, %rdi
	movq	%r14, %rsi
	callq	fopen_output_safely.300
	popq	%rbx
	popq	%r14
	popq	%rbp
	.cfi_def_cfa %rsp, 8
	retq
.LBB0_17:                               # %ctrl0
	.cfi_def_cfa %rbp, 16
	cmpl	$1, %eax
	je	.LBB0_2
# %bb.18:                               # %ctrl1
	cmpl	$2, %eax
	je	.LBB0_3
# %bb.19:                               # %ctrl2
	cmpl	$3, %eax
	je	.LBB0_4
# %bb.20:                               # %ctrl3
	cmpl	$4, %eax
	je	.LBB0_5
# %bb.21:                               # %ctrl4
	cmpl	$5, %eax
	je	.LBB0_6
# %bb.22:                               # %ctrl5
	cmpl	$6, %eax
	je	.LBB0_7
# %bb.23:                               # %ctrl6
	cmpl	$7, %eax
	je	.LBB0_8
# %bb.24:                               # %ctrl7
	cmpl	$8, %eax
	je	.LBB0_9
# %bb.25:                               # %ctrl8
	cmpl	$9, %eax
	je	.LBB0_10
# %bb.26:                               # %ctrl9
	cmpl	$10, %eax
	je	.LBB0_11
# %bb.27:                               # %ctrl10
	cmpl	$11, %eax
	je	.LBB0_12
# %bb.28:                               # %ctrl11
	cmpl	$12, %eax
	je	.LBB0_13
# %bb.29:                               # %ctrl12
	cmpl	$13, %eax
	je	.LBB0_14
# %bb.30:                               # %ctrl13
	cmpl	$14, %eax
	je	.LBB0_15
	jmp	.LBB0_16
.Lfunc_end0:
	.size	fopen_output_safely, .Lfunc_end0-fopen_output_safely
	.cfi_endproc
                                        # -- End function
	.globl	main                    # -- Begin function main
	.p2align	4, 0x90
	.type	main,@function
main:                                   # @main
	.cfi_startproc
# %bb.0:                                # %entry
	pushq	%rbp
	.cfi_def_cfa_offset 16
	.cfi_offset %rbp, -16
	movq	%rsp, %rbp
	.cfi_def_cfa_register %rbp
	pushq	%rbx
	subq	$72, %rsp
	.cfi_offset %rbx, -24
	movl	$0, -76(%rbp)
	movl	%edi, -52(%rbp)
	movq	%rsi, -64(%rbp)
	movq	$0, outputHandleJustInCase
	movb	$0, smallMode
	movb	$0, keepInputFiles
	movb	$0, forceOverwrite
	movb	$1, noisy
	movl	$0, verbosity
	movl	$9, blockSize100k
	movb	$0, testFailsExist
	movb	$0, unzFailsExist
	movl	$0, numFileNames
	movl	$0, numFilesProcessed
	movl	$30, workFactor
	movb	$0, deleteOutputOnInterrupt
	movl	$0, exitValue
	movl	$0, -36(%rbp)
	movl	$0, -40(%rbp)
	movl	$11, %edi
	movabsq	$mySIGSEGVorSIGBUScatcher, %rsi
	callq	signal
	movl	$7, %edi
	movabsq	$mySIGSEGVorSIGBUScatcher, %rsi
	callq	signal
	movabsq	$inName, %rdi
	movabsq	$.L.str, %rsi
	callq	copyFileName
	movabsq	$outName, %rdi
	movabsq	$.L.str, %rsi
	callq	copyFileName
	movq	-64(%rbp), %rax
	movq	(%rax), %rsi
	movabsq	$progNameReally, %rdi
	callq	copyFileName
	movabsq	$progNameReally, %rax
	movq	%rax, progName
	movq	%rax, -48(%rbp)
.LBB1_1:                                # %for.cond
                                        # =>This Inner Loop Header: Depth=1
	movq	-48(%rbp), %rax
	movsbl	(%rax), %eax
	cmpl	$0, %eax
	je	.LBB1_6
# %bb.2:                                # %for.body
                                        #   in Loop: Header=BB1_1 Depth=1
	movq	-48(%rbp), %rax
	movsbl	(%rax), %eax
	cmpl	$47, %eax
	jne	.LBB1_4
# %bb.3:                                # %if.then
                                        #   in Loop: Header=BB1_1 Depth=1
	movq	-48(%rbp), %rax
	addq	$1, %rax
	movq	%rax, progName
.LBB1_4:                                # %if.end
                                        #   in Loop: Header=BB1_1 Depth=1
	jmp	.LBB1_5
.LBB1_5:                                # %for.inc
                                        #   in Loop: Header=BB1_1 Depth=1
	movq	-48(%rbp), %rax
	addq	$1, %rax
	movq	%rax, -48(%rbp)
	jmp	.LBB1_1
.LBB1_6:                                # %for.end
	movq	$0, -32(%rbp)
	leaq	-32(%rbp), %rdi
	movabsq	$.L.str.1, %rsi
	callq	addFlagsFromEnvVar
	leaq	-32(%rbp), %rdi
	movabsq	$.L.str.2, %rsi
	callq	addFlagsFromEnvVar
	movl	$1, -40(%rbp)
.LBB1_7:                                # %for.cond6
                                        # =>This Inner Loop Header: Depth=1
	movl	-40(%rbp), %eax
	movl	-52(%rbp), %ecx
	subl	$1, %ecx
	cmpl	%ecx, %eax
	jg	.LBB1_10
# %bb.8:                                # %for.body9
                                        #   in Loop: Header=BB1_7 Depth=1
	movq	-32(%rbp), %rdi
	movq	-64(%rbp), %rax
	movslq	-40(%rbp), %rcx
	movq	(%rax,%rcx,8), %rsi
	callq	snocString
	movq	%rax, -32(%rbp)
# %bb.9:                                # %for.inc12
                                        #   in Loop: Header=BB1_7 Depth=1
	movl	-40(%rbp), %eax
	addl	$1, %eax
	movl	%eax, -40(%rbp)
	jmp	.LBB1_7
.LBB1_10:                               # %for.end13
	movl	$7, longestFileName
	movl	$0, numFileNames
	movb	$1, -9(%rbp)
	movq	-32(%rbp), %rax
	movq	%rax, -24(%rbp)
.LBB1_11:                               # %for.cond14
                                        # =>This Inner Loop Header: Depth=1
	cmpq	$0, -24(%rbp)
	je	.LBB1_21
# %bb.12:                               # %for.body17
                                        #   in Loop: Header=BB1_11 Depth=1
	movq	-24(%rbp), %rax
	movq	(%rax), %rdi
	movl	$.L.str.3, %esi
	callq	strcmp
	cmpl	$0, %eax
	jne	.LBB1_14
# %bb.13:                               # %if.then21
                                        #   in Loop: Header=BB1_11 Depth=1
	movb	$0, -9(%rbp)
	jmp	.LBB1_20
.LBB1_14:                               # %if.end22
                                        #   in Loop: Header=BB1_11 Depth=1
	movq	-24(%rbp), %rax
	movq	(%rax), %rax
	movsbl	(%rax), %eax
	cmpl	$45, %eax
	jne	.LBB1_17
# %bb.15:                               # %land.lhs.true
                                        #   in Loop: Header=BB1_11 Depth=1
	movzbl	-9(%rbp), %eax
	cmpl	$0, %eax
	je	.LBB1_17
# %bb.16:                               # %if.then29
                                        #   in Loop: Header=BB1_11 Depth=1
	jmp	.LBB1_20
.LBB1_17:                               # %if.end30
                                        #   in Loop: Header=BB1_11 Depth=1
	movl	numFileNames, %eax
	addl	$1, %eax
	movl	%eax, numFileNames
	movl	longestFileName, %ebx
	movq	-24(%rbp), %rax
	movq	(%rax), %rdi
	callq	strlen
	cmpl	%eax, %ebx
	jge	.LBB1_19
# %bb.18:                               # %if.then37
                                        #   in Loop: Header=BB1_11 Depth=1
	movq	-24(%rbp), %rax
	movq	(%rax), %rdi
	callq	strlen
	movl	%eax, longestFileName
.LBB1_19:                               # %if.end41
                                        #   in Loop: Header=BB1_11 Depth=1
	jmp	.LBB1_20
.LBB1_20:                               # %for.inc42
                                        #   in Loop: Header=BB1_11 Depth=1
	movq	-24(%rbp), %rax
	movq	8(%rax), %rax
	movq	%rax, -24(%rbp)
	jmp	.LBB1_11
.LBB1_21:                               # %for.end43
	cmpl	$0, numFileNames
	jne	.LBB1_23
# %bb.22:                               # %if.then46
	movl	$1, srcMode
	jmp	.LBB1_24
.LBB1_23:                               # %if.else
	movl	$3, srcMode
.LBB1_24:                               # %if.end47
	movl	$1, opMode
	movq	progName, %rdi
	movabsq	$.L.str.4, %rsi
	callq	strstr
	cmpq	$0, %rax
	jne	.LBB1_26
# %bb.25:                               # %lor.lhs.false
	movq	progName, %rdi
	movabsq	$.L.str.5, %rsi
	callq	strstr
	cmpq	$0, %rax
	je	.LBB1_27
.LBB1_26:                               # %if.then54
	movl	$2, opMode
.LBB1_27:                               # %if.end55
	movq	progName, %rdi
	movabsq	$.L.str.6, %rsi
	callq	strstr
	cmpq	$0, %rax
	jne	.LBB1_31
# %bb.28:                               # %lor.lhs.false59
	movq	progName, %rdi
	movabsq	$.L.str.7, %rsi
	callq	strstr
	cmpq	$0, %rax
	jne	.LBB1_31
# %bb.29:                               # %lor.lhs.false63
	movq	progName, %rdi
	movabsq	$.L.str.8, %rsi
	callq	strstr
	cmpq	$0, %rax
	jne	.LBB1_31
# %bb.30:                               # %lor.lhs.false67
	movq	progName, %rdi
	movabsq	$.L.str.9, %rsi
	callq	strstr
	cmpq	$0, %rax
	je	.LBB1_32
.LBB1_31:                               # %if.then71
	movl	$2, opMode
	movl	numFileNames, %eax
	cmpl	$0, %eax
	movl	$1, %eax
	movl	$2, %ecx
	cmovel	%eax, %ecx
	movl	%ecx, srcMode
.LBB1_32:                               # %if.end74
	movq	-32(%rbp), %rax
	movq	%rax, -24(%rbp)
.LBB1_33:                               # %for.cond75
                                        # =>This Loop Header: Depth=1
                                        #     Child Loop BB1_39 Depth 2
	cmpq	$0, -24(%rbp)
	je	.LBB1_68
# %bb.34:                               # %for.body78
                                        #   in Loop: Header=BB1_33 Depth=1
	movq	-24(%rbp), %rax
	movq	(%rax), %rdi
	movl	$.L.str.3, %esi
	callq	strcmp
	cmpl	$0, %eax
	jne	.LBB1_36
# %bb.35:                               # %if.then83
	jmp	.LBB1_69
.LBB1_36:                               # %if.end84
                                        #   in Loop: Header=BB1_33 Depth=1
	movq	-24(%rbp), %rax
	movq	(%rax), %rax
	movsbl	(%rax), %eax
	cmpl	$45, %eax
	jne	.LBB1_66
# %bb.37:                               # %land.lhs.true90
                                        #   in Loop: Header=BB1_33 Depth=1
	movq	-24(%rbp), %rax
	movq	(%rax), %rax
	movsbl	1(%rax), %eax
	cmpl	$45, %eax
	je	.LBB1_66
# %bb.38:                               # %if.then96
                                        #   in Loop: Header=BB1_33 Depth=1
	movl	$1, -36(%rbp)
.LBB1_39:                               # %for.cond97
                                        #   Parent Loop BB1_33 Depth=1
                                        # =>  This Inner Loop Header: Depth=2
	movq	-24(%rbp), %rax
	movq	(%rax), %rax
	movslq	-36(%rbp), %rcx
	movsbl	(%rax,%rcx), %eax
	cmpl	$0, %eax
	je	.LBB1_65
# %bb.40:                               # %for.body104
                                        #   in Loop: Header=BB1_39 Depth=2
	movq	-24(%rbp), %rax
	movq	(%rax), %rax
	movslq	-36(%rbp), %rcx
	movsbl	(%rax,%rcx), %eax
	addl	$-49, %eax
	movl	%eax, %ecx
	subl	$73, %ecx
	ja	.LBB1_62
# %bb.41:                               # %for.body104
                                        #   in Loop: Header=BB1_39 Depth=2
	movq	.LJTI1_0(,%rax,8), %rax
	jmpq	*%rax
.LBB1_42:                               # %sw.bb
                                        #   in Loop: Header=BB1_39 Depth=2
	movl	$2, srcMode
	jmp	.LBB1_63
.LBB1_43:                               # %sw.bb109
                                        #   in Loop: Header=BB1_39 Depth=2
	movl	$2, opMode
	jmp	.LBB1_63
.LBB1_44:                               # %sw.bb110
                                        #   in Loop: Header=BB1_39 Depth=2
	movl	$1, opMode
	jmp	.LBB1_63
.LBB1_45:                               # %sw.bb111
                                        #   in Loop: Header=BB1_39 Depth=2
	movb	$1, forceOverwrite
	jmp	.LBB1_63
.LBB1_46:                               # %sw.bb112
                                        #   in Loop: Header=BB1_39 Depth=2
	movl	$3, opMode
	jmp	.LBB1_63
.LBB1_47:                               # %sw.bb113
                                        #   in Loop: Header=BB1_39 Depth=2
	movb	$1, keepInputFiles
	jmp	.LBB1_63
.LBB1_48:                               # %sw.bb114
                                        #   in Loop: Header=BB1_39 Depth=2
	movb	$1, smallMode
	jmp	.LBB1_63
.LBB1_49:                               # %sw.bb115
                                        #   in Loop: Header=BB1_39 Depth=2
	movb	$0, noisy
	jmp	.LBB1_63
.LBB1_50:                               # %sw.bb116
                                        #   in Loop: Header=BB1_39 Depth=2
	movl	$1, blockSize100k
	jmp	.LBB1_63
.LBB1_51:                               # %sw.bb117
                                        #   in Loop: Header=BB1_39 Depth=2
	movl	$2, blockSize100k
	jmp	.LBB1_63
.LBB1_52:                               # %sw.bb118
                                        #   in Loop: Header=BB1_39 Depth=2
	movl	$3, blockSize100k
	jmp	.LBB1_63
.LBB1_53:                               # %sw.bb119
                                        #   in Loop: Header=BB1_39 Depth=2
	movl	$4, blockSize100k
	jmp	.LBB1_63
.LBB1_54:                               # %sw.bb120
                                        #   in Loop: Header=BB1_39 Depth=2
	movl	$5, blockSize100k
	jmp	.LBB1_63
.LBB1_55:                               # %sw.bb121
                                        #   in Loop: Header=BB1_39 Depth=2
	movl	$6, blockSize100k
	jmp	.LBB1_63
.LBB1_56:                               # %sw.bb122
                                        #   in Loop: Header=BB1_39 Depth=2
	movl	$7, blockSize100k
	jmp	.LBB1_63
.LBB1_57:                               # %sw.bb123
                                        #   in Loop: Header=BB1_39 Depth=2
	movl	$8, blockSize100k
	jmp	.LBB1_63
.LBB1_58:                               # %sw.bb124
                                        #   in Loop: Header=BB1_39 Depth=2
	movl	$9, blockSize100k
	jmp	.LBB1_63
.LBB1_59:                               # %sw.bb125
                                        #   in Loop: Header=BB1_39 Depth=2
	callq	license
	jmp	.LBB1_63
.LBB1_60:                               # %sw.bb126
                                        #   in Loop: Header=BB1_39 Depth=2
	movl	verbosity, %eax
	addl	$1, %eax
	movl	%eax, verbosity
	jmp	.LBB1_63
.LBB1_61:                               # %sw.bb128
	movq	progName, %rdi
	callq	usage
	xorl	%edi, %edi
	callq	exit
.LBB1_62:                               # %sw.default
	movq	stderr, %rdi
	movq	progName, %rdx
	movq	-24(%rbp), %rax
	movq	(%rax), %rcx
	movabsq	$.L.str.10, %rsi
	movb	$0, %al
	callq	fprintf
	movq	progName, %rdi
	callq	usage
	movl	$1, %edi
	callq	exit
.LBB1_63:                               # %sw.epilog
                                        #   in Loop: Header=BB1_39 Depth=2
	jmp	.LBB1_64
.LBB1_64:                               # %for.inc131
                                        #   in Loop: Header=BB1_39 Depth=2
	movl	-36(%rbp), %eax
	addl	$1, %eax
	movl	%eax, -36(%rbp)
	jmp	.LBB1_39
.LBB1_65:                               # %for.end133
                                        #   in Loop: Header=BB1_33 Depth=1
	jmp	.LBB1_66
.LBB1_66:                               # %if.end134
                                        #   in Loop: Header=BB1_33 Depth=1
	jmp	.LBB1_67
.LBB1_67:                               # %for.inc135
                                        #   in Loop: Header=BB1_33 Depth=1
	movq	-24(%rbp), %rax
	movq	8(%rax), %rax
	movq	%rax, -24(%rbp)
	jmp	.LBB1_33
.LBB1_68:                               # %for.end137.loopexit
	jmp	.LBB1_69
.LBB1_69:                               # %for.end137
	movq	-32(%rbp), %rax
	movq	%rax, -24(%rbp)
.LBB1_70:                               # %for.cond138
                                        # =>This Inner Loop Header: Depth=1
	cmpq	$0, -24(%rbp)
	je	.LBB1_128
# %bb.71:                               # %for.body141
                                        #   in Loop: Header=BB1_70 Depth=1
	movq	-24(%rbp), %rax
	movq	(%rax), %rdi
	movl	$.L.str.3, %esi
	callq	strcmp
	cmpl	$0, %eax
	jne	.LBB1_73
# %bb.72:                               # %if.then146
	jmp	.LBB1_129
.LBB1_73:                               # %if.end147
                                        #   in Loop: Header=BB1_70 Depth=1
	movq	-24(%rbp), %rax
	movq	(%rax), %rdi
	movl	$.L.str.11, %esi
	callq	strcmp
	cmpl	$0, %eax
	jne	.LBB1_75
# %bb.74:                               # %if.then152
                                        #   in Loop: Header=BB1_70 Depth=1
	movl	$2, srcMode
	jmp	.LBB1_126
.LBB1_75:                               # %if.else153
                                        #   in Loop: Header=BB1_70 Depth=1
	movq	-24(%rbp), %rax
	movq	(%rax), %rdi
	movl	$.L.str.12, %esi
	callq	strcmp
	cmpl	$0, %eax
	jne	.LBB1_77
# %bb.76:                               # %if.then158
                                        #   in Loop: Header=BB1_70 Depth=1
	movl	$2, opMode
	jmp	.LBB1_125
.LBB1_77:                               # %if.else159
                                        #   in Loop: Header=BB1_70 Depth=1
	movq	-24(%rbp), %rax
	movq	(%rax), %rdi
	movl	$.L.str.13, %esi
	callq	strcmp
	cmpl	$0, %eax
	jne	.LBB1_79
# %bb.78:                               # %if.then164
                                        #   in Loop: Header=BB1_70 Depth=1
	movl	$1, opMode
	jmp	.LBB1_124
.LBB1_79:                               # %if.else165
                                        #   in Loop: Header=BB1_70 Depth=1
	movq	-24(%rbp), %rax
	movq	(%rax), %rdi
	movl	$.L.str.14, %esi
	callq	strcmp
	cmpl	$0, %eax
	jne	.LBB1_81
# %bb.80:                               # %if.then170
                                        #   in Loop: Header=BB1_70 Depth=1
	movb	$1, forceOverwrite
	jmp	.LBB1_123
.LBB1_81:                               # %if.else171
                                        #   in Loop: Header=BB1_70 Depth=1
	movq	-24(%rbp), %rax
	movq	(%rax), %rdi
	movl	$.L.str.15, %esi
	callq	strcmp
	cmpl	$0, %eax
	jne	.LBB1_83
# %bb.82:                               # %if.then176
                                        #   in Loop: Header=BB1_70 Depth=1
	movl	$3, opMode
	jmp	.LBB1_122
.LBB1_83:                               # %if.else177
                                        #   in Loop: Header=BB1_70 Depth=1
	movq	-24(%rbp), %rax
	movq	(%rax), %rdi
	movl	$.L.str.16, %esi
	callq	strcmp
	cmpl	$0, %eax
	jne	.LBB1_85
# %bb.84:                               # %if.then182
                                        #   in Loop: Header=BB1_70 Depth=1
	movb	$1, keepInputFiles
	jmp	.LBB1_121
.LBB1_85:                               # %if.else183
                                        #   in Loop: Header=BB1_70 Depth=1
	movq	-24(%rbp), %rax
	movq	(%rax), %rdi
	movl	$.L.str.17, %esi
	callq	strcmp
	cmpl	$0, %eax
	jne	.LBB1_87
# %bb.86:                               # %if.then188
                                        #   in Loop: Header=BB1_70 Depth=1
	movb	$1, smallMode
	jmp	.LBB1_120
.LBB1_87:                               # %if.else189
                                        #   in Loop: Header=BB1_70 Depth=1
	movq	-24(%rbp), %rax
	movq	(%rax), %rdi
	movl	$.L.str.18, %esi
	callq	strcmp
	cmpl	$0, %eax
	jne	.LBB1_89
# %bb.88:                               # %if.then194
                                        #   in Loop: Header=BB1_70 Depth=1
	movb	$0, noisy
	jmp	.LBB1_119
.LBB1_89:                               # %if.else195
                                        #   in Loop: Header=BB1_70 Depth=1
	movq	-24(%rbp), %rax
	movq	(%rax), %rdi
	movl	$.L.str.19, %esi
	callq	strcmp
	cmpl	$0, %eax
	jne	.LBB1_91
# %bb.90:                               # %if.then200
                                        #   in Loop: Header=BB1_70 Depth=1
	callq	license
	jmp	.LBB1_118
.LBB1_91:                               # %if.else201
                                        #   in Loop: Header=BB1_70 Depth=1
	movq	-24(%rbp), %rax
	movq	(%rax), %rdi
	movl	$.L.str.20, %esi
	callq	strcmp
	cmpl	$0, %eax
	jne	.LBB1_93
# %bb.92:                               # %if.then206
                                        #   in Loop: Header=BB1_70 Depth=1
	callq	license
	jmp	.LBB1_117
.LBB1_93:                               # %if.else207
                                        #   in Loop: Header=BB1_70 Depth=1
	movq	-24(%rbp), %rax
	movq	(%rax), %rdi
	movl	$.L.str.21, %esi
	callq	strcmp
	cmpl	$0, %eax
	jne	.LBB1_95
# %bb.94:                               # %if.then212
                                        #   in Loop: Header=BB1_70 Depth=1
	movl	$1, workFactor
	jmp	.LBB1_116
.LBB1_95:                               # %if.else213
                                        #   in Loop: Header=BB1_70 Depth=1
	movq	-24(%rbp), %rax
	movq	(%rax), %rdi
	movl	$.L.str.22, %esi
	callq	strcmp
	cmpl	$0, %eax
	jne	.LBB1_97
# %bb.96:                               # %if.then218
                                        #   in Loop: Header=BB1_70 Depth=1
	movq	-24(%rbp), %rax
	movq	(%rax), %rdi
	callq	redundant
	jmp	.LBB1_115
.LBB1_97:                               # %if.else220
                                        #   in Loop: Header=BB1_70 Depth=1
	movq	-24(%rbp), %rax
	movq	(%rax), %rdi
	movl	$.L.str.23, %esi
	callq	strcmp
	cmpl	$0, %eax
	jne	.LBB1_99
# %bb.98:                               # %if.then225
                                        #   in Loop: Header=BB1_70 Depth=1
	movq	-24(%rbp), %rax
	movq	(%rax), %rdi
	callq	redundant
	jmp	.LBB1_114
.LBB1_99:                               # %if.else227
                                        #   in Loop: Header=BB1_70 Depth=1
	movq	-24(%rbp), %rax
	movq	(%rax), %rdi
	movl	$.L.str.24, %esi
	callq	strcmp
	cmpl	$0, %eax
	jne	.LBB1_101
# %bb.100:                              # %if.then232
                                        #   in Loop: Header=BB1_70 Depth=1
	movl	$1, blockSize100k
	jmp	.LBB1_113
.LBB1_101:                              # %if.else233
                                        #   in Loop: Header=BB1_70 Depth=1
	movq	-24(%rbp), %rax
	movq	(%rax), %rdi
	movl	$.L.str.25, %esi
	callq	strcmp
	cmpl	$0, %eax
	jne	.LBB1_103
# %bb.102:                              # %if.then238
                                        #   in Loop: Header=BB1_70 Depth=1
	movl	$9, blockSize100k
	jmp	.LBB1_112
.LBB1_103:                              # %if.else239
                                        #   in Loop: Header=BB1_70 Depth=1
	movq	-24(%rbp), %rax
	movq	(%rax), %rdi
	movl	$.L.str.26, %esi
	callq	strcmp
	cmpl	$0, %eax
	jne	.LBB1_105
# %bb.104:                              # %if.then244
                                        #   in Loop: Header=BB1_70 Depth=1
	movl	verbosity, %eax
	addl	$1, %eax
	movl	%eax, verbosity
	jmp	.LBB1_111
.LBB1_105:                              # %if.else246
                                        #   in Loop: Header=BB1_70 Depth=1
	movq	-24(%rbp), %rax
	movq	(%rax), %rdi
	movl	$.L.str.27, %esi
	callq	strcmp
	cmpl	$0, %eax
	jne	.LBB1_107
# %bb.106:                              # %if.then251
	movq	progName, %rdi
	callq	usage
	xorl	%edi, %edi
	callq	exit
.LBB1_107:                              # %if.else252
                                        #   in Loop: Header=BB1_70 Depth=1
	movq	-24(%rbp), %rax
	movq	(%rax), %rdi
	movabsq	$.L.str.3, %rsi
	movl	$2, %edx
	callq	strncmp
	cmpl	$0, %eax
	jne	.LBB1_109
# %bb.108:                              # %if.then257
	movq	stderr, %rdi
	movq	progName, %rdx
	movq	-24(%rbp), %rax
	movq	(%rax), %rcx
	movabsq	$.L.str.10, %rsi
	movb	$0, %al
	callq	fprintf
	movq	progName, %rdi
	callq	usage
	movl	$1, %edi
	callq	exit
.LBB1_109:                              # %if.end260
                                        #   in Loop: Header=BB1_70 Depth=1
	jmp	.LBB1_110
.LBB1_110:                              # %if.end261
                                        #   in Loop: Header=BB1_70 Depth=1
	jmp	.LBB1_111
.LBB1_111:                              # %if.end262
                                        #   in Loop: Header=BB1_70 Depth=1
	jmp	.LBB1_112
.LBB1_112:                              # %if.end263
                                        #   in Loop: Header=BB1_70 Depth=1
	jmp	.LBB1_113
.LBB1_113:                              # %if.end264
                                        #   in Loop: Header=BB1_70 Depth=1
	jmp	.LBB1_114
.LBB1_114:                              # %if.end265
                                        #   in Loop: Header=BB1_70 Depth=1
	jmp	.LBB1_115
.LBB1_115:                              # %if.end266
                                        #   in Loop: Header=BB1_70 Depth=1
	jmp	.LBB1_116
.LBB1_116:                              # %if.end267
                                        #   in Loop: Header=BB1_70 Depth=1
	jmp	.LBB1_117
.LBB1_117:                              # %if.end268
                                        #   in Loop: Header=BB1_70 Depth=1
	jmp	.LBB1_118
.LBB1_118:                              # %if.end269
                                        #   in Loop: Header=BB1_70 Depth=1
	jmp	.LBB1_119
.LBB1_119:                              # %if.end270
                                        #   in Loop: Header=BB1_70 Depth=1
	jmp	.LBB1_120
.LBB1_120:                              # %if.end271
                                        #   in Loop: Header=BB1_70 Depth=1
	jmp	.LBB1_121
.LBB1_121:                              # %if.end272
                                        #   in Loop: Header=BB1_70 Depth=1
	jmp	.LBB1_122
.LBB1_122:                              # %if.end273
                                        #   in Loop: Header=BB1_70 Depth=1
	jmp	.LBB1_123
.LBB1_123:                              # %if.end274
                                        #   in Loop: Header=BB1_70 Depth=1
	jmp	.LBB1_124
.LBB1_124:                              # %if.end275
                                        #   in Loop: Header=BB1_70 Depth=1
	jmp	.LBB1_125
.LBB1_125:                              # %if.end276
                                        #   in Loop: Header=BB1_70 Depth=1
	jmp	.LBB1_126
.LBB1_126:                              # %if.end277
                                        #   in Loop: Header=BB1_70 Depth=1
	jmp	.LBB1_127
.LBB1_127:                              # %for.inc278
                                        #   in Loop: Header=BB1_70 Depth=1
	movq	-24(%rbp), %rax
	movq	8(%rax), %rax
	movq	%rax, -24(%rbp)
	jmp	.LBB1_70
.LBB1_128:                              # %for.end280.loopexit
	jmp	.LBB1_129
.LBB1_129:                              # %for.end280
	cmpl	$4, verbosity
	jle	.LBB1_131
# %bb.130:                              # %if.then283
	movl	$4, verbosity
.LBB1_131:                              # %if.end284
	cmpl	$1, opMode
	jne	.LBB1_135
# %bb.132:                              # %land.lhs.true287
	movzbl	smallMode, %eax
	cmpl	$0, %eax
	je	.LBB1_135
# %bb.133:                              # %land.lhs.true290
	cmpl	$2, blockSize100k
	jle	.LBB1_135
# %bb.134:                              # %if.then293
	movl	$2, blockSize100k
.LBB1_135:                              # %if.end294
	cmpl	$3, opMode
	jne	.LBB1_138
# %bb.136:                              # %land.lhs.true297
	cmpl	$2, srcMode
	jne	.LBB1_138
# %bb.137:                              # %if.then300
	movq	stderr, %rdi
	movq	progName, %rdx
	movabsq	$.L.str.28, %rsi
	movb	$0, %al
	callq	fprintf
	movl	$1, %edi
	callq	exit
.LBB1_138:                              # %if.end302
	cmpl	$2, srcMode
	jne	.LBB1_141
# %bb.139:                              # %land.lhs.true305
	cmpl	$0, numFileNames
	jne	.LBB1_141
# %bb.140:                              # %if.then308
	movl	$1, srcMode
.LBB1_141:                              # %if.end309
	cmpl	$1, opMode
	je	.LBB1_143
# %bb.142:                              # %if.then312
	movl	$0, blockSize100k
.LBB1_143:                              # %if.end313
	cmpl	$3, srcMode
	jne	.LBB1_145
# %bb.144:                              # %if.then316
	movl	$2, %edi
	movabsq	$mySignalCatcher, %rsi
	callq	signal
	movl	$15, %edi
	movabsq	$mySignalCatcher, %rsi
	callq	signal
	movl	$1, %edi
	movabsq	$mySignalCatcher, %rsi
	callq	signal
.LBB1_145:                              # %if.end320
	cmpl	$1, opMode
	jne	.LBB1_159
# %bb.146:                              # %if.then323
	cmpl	$1, srcMode
	jne	.LBB1_148
# %bb.147:                              # %if.then326
	xorl	%edi, %edi
	callq	compress
	jmp	.LBB1_158
.LBB1_148:                              # %if.else327
	movb	$1, -9(%rbp)
	movq	-32(%rbp), %rax
	movq	%rax, -24(%rbp)
.LBB1_149:                              # %for.cond328
                                        # =>This Inner Loop Header: Depth=1
	cmpq	$0, -24(%rbp)
	je	.LBB1_157
# %bb.150:                              # %for.body331
                                        #   in Loop: Header=BB1_149 Depth=1
	movq	-24(%rbp), %rax
	movq	(%rax), %rdi
	movl	$.L.str.3, %esi
	callq	strcmp
	cmpl	$0, %eax
	jne	.LBB1_152
# %bb.151:                              # %if.then336
                                        #   in Loop: Header=BB1_149 Depth=1
	movb	$0, -9(%rbp)
	jmp	.LBB1_156
.LBB1_152:                              # %if.end337
                                        #   in Loop: Header=BB1_149 Depth=1
	movq	-24(%rbp), %rax
	movq	(%rax), %rax
	movsbl	(%rax), %eax
	cmpl	$45, %eax
	jne	.LBB1_155
# %bb.153:                              # %land.lhs.true343
                                        #   in Loop: Header=BB1_149 Depth=1
	movzbl	-9(%rbp), %eax
	cmpl	$0, %eax
	je	.LBB1_155
# %bb.154:                              # %if.then346
                                        #   in Loop: Header=BB1_149 Depth=1
	jmp	.LBB1_156
.LBB1_155:                              # %if.end347
                                        #   in Loop: Header=BB1_149 Depth=1
	movl	numFilesProcessed, %eax
	addl	$1, %eax
	movl	%eax, numFilesProcessed
	movq	-24(%rbp), %rax
	movq	(%rax), %rdi
	callq	compress
.LBB1_156:                              # %for.inc350
                                        #   in Loop: Header=BB1_149 Depth=1
	movq	-24(%rbp), %rax
	movq	8(%rax), %rax
	movq	%rax, -24(%rbp)
	jmp	.LBB1_149
.LBB1_157:                              # %for.end352
	jmp	.LBB1_158
.LBB1_158:                              # %if.end353
	jmp	.LBB1_192
.LBB1_159:                              # %if.else354
	cmpl	$2, opMode
	jne	.LBB1_175
# %bb.160:                              # %if.then357
	movb	$0, unzFailsExist
	cmpl	$1, srcMode
	jne	.LBB1_162
# %bb.161:                              # %if.then360
	xorl	%edi, %edi
	callq	uncompress
	jmp	.LBB1_172
.LBB1_162:                              # %if.else361
	movb	$1, -9(%rbp)
	movq	-32(%rbp), %rax
	movq	%rax, -24(%rbp)
.LBB1_163:                              # %for.cond362
                                        # =>This Inner Loop Header: Depth=1
	cmpq	$0, -24(%rbp)
	je	.LBB1_171
# %bb.164:                              # %for.body365
                                        #   in Loop: Header=BB1_163 Depth=1
	movq	-24(%rbp), %rax
	movq	(%rax), %rdi
	movl	$.L.str.3, %esi
	callq	strcmp
	cmpl	$0, %eax
	jne	.LBB1_166
# %bb.165:                              # %if.then370
                                        #   in Loop: Header=BB1_163 Depth=1
	movb	$0, -9(%rbp)
	jmp	.LBB1_170
.LBB1_166:                              # %if.end371
                                        #   in Loop: Header=BB1_163 Depth=1
	movq	-24(%rbp), %rax
	movq	(%rax), %rax
	movsbl	(%rax), %eax
	cmpl	$45, %eax
	jne	.LBB1_169
# %bb.167:                              # %land.lhs.true377
                                        #   in Loop: Header=BB1_163 Depth=1
	movzbl	-9(%rbp), %eax
	cmpl	$0, %eax
	je	.LBB1_169
# %bb.168:                              # %if.then380
                                        #   in Loop: Header=BB1_163 Depth=1
	jmp	.LBB1_170
.LBB1_169:                              # %if.end381
                                        #   in Loop: Header=BB1_163 Depth=1
	movl	numFilesProcessed, %eax
	addl	$1, %eax
	movl	%eax, numFilesProcessed
	movq	-24(%rbp), %rax
	movq	(%rax), %rdi
	callq	uncompress
.LBB1_170:                              # %for.inc384
                                        #   in Loop: Header=BB1_163 Depth=1
	movq	-24(%rbp), %rax
	movq	8(%rax), %rax
	movq	%rax, -24(%rbp)
	jmp	.LBB1_163
.LBB1_171:                              # %for.end386
	jmp	.LBB1_172
.LBB1_172:                              # %if.end387
	cmpb	$0, unzFailsExist
	je	.LBB1_174
# %bb.173:                              # %if.then389
	movl	$2, %edi
	callq	setExit
	movl	exitValue, %edi
	callq	exit
.LBB1_174:                              # %if.end390
	jmp	.LBB1_191
.LBB1_175:                              # %if.else391
	movb	$0, testFailsExist
	cmpl	$1, srcMode
	jne	.LBB1_177
# %bb.176:                              # %if.then394
	xorl	%edi, %edi
	callq	testf
	jmp	.LBB1_187
.LBB1_177:                              # %if.else395
	movb	$1, -9(%rbp)
	movq	-32(%rbp), %rax
	movq	%rax, -24(%rbp)
.LBB1_178:                              # %for.cond396
                                        # =>This Inner Loop Header: Depth=1
	cmpq	$0, -24(%rbp)
	je	.LBB1_186
# %bb.179:                              # %for.body399
                                        #   in Loop: Header=BB1_178 Depth=1
	movq	-24(%rbp), %rax
	movq	(%rax), %rdi
	movl	$.L.str.3, %esi
	callq	strcmp
	cmpl	$0, %eax
	jne	.LBB1_181
# %bb.180:                              # %if.then404
                                        #   in Loop: Header=BB1_178 Depth=1
	movb	$0, -9(%rbp)
	jmp	.LBB1_185
.LBB1_181:                              # %if.end405
                                        #   in Loop: Header=BB1_178 Depth=1
	movq	-24(%rbp), %rax
	movq	(%rax), %rax
	movsbl	(%rax), %eax
	cmpl	$45, %eax
	jne	.LBB1_184
# %bb.182:                              # %land.lhs.true411
                                        #   in Loop: Header=BB1_178 Depth=1
	movzbl	-9(%rbp), %eax
	cmpl	$0, %eax
	je	.LBB1_184
# %bb.183:                              # %if.then414
                                        #   in Loop: Header=BB1_178 Depth=1
	jmp	.LBB1_185
.LBB1_184:                              # %if.end415
                                        #   in Loop: Header=BB1_178 Depth=1
	movl	numFilesProcessed, %eax
	addl	$1, %eax
	movl	%eax, numFilesProcessed
	movq	-24(%rbp), %rax
	movq	(%rax), %rdi
	callq	testf
.LBB1_185:                              # %for.inc418
                                        #   in Loop: Header=BB1_178 Depth=1
	movq	-24(%rbp), %rax
	movq	8(%rax), %rax
	movq	%rax, -24(%rbp)
	jmp	.LBB1_178
.LBB1_186:                              # %for.end420
	jmp	.LBB1_187
.LBB1_187:                              # %if.end421
	movzbl	testFailsExist, %eax
	cmpl	$0, %eax
	je	.LBB1_190
# %bb.188:                              # %land.lhs.true424
	movzbl	noisy, %eax
	cmpl	$0, %eax
	je	.LBB1_190
# %bb.189:                              # %if.then427
	movq	stderr, %rdi
	movabsq	$.L.str.29, %rsi
	movb	$0, %al
	callq	fprintf
	movl	$2, %edi
	callq	setExit
	movl	exitValue, %edi
	callq	exit
.LBB1_190:                              # %if.end429
	jmp	.LBB1_191
.LBB1_191:                              # %if.end430
	jmp	.LBB1_192
.LBB1_192:                              # %if.end431
	movq	-32(%rbp), %rax
	movq	%rax, -24(%rbp)
.LBB1_193:                              # %while.cond
                                        # =>This Inner Loop Header: Depth=1
	cmpq	$0, -24(%rbp)
	je	.LBB1_197
# %bb.194:                              # %while.body
                                        #   in Loop: Header=BB1_193 Depth=1
	movq	-24(%rbp), %rax
	movq	8(%rax), %rax
	movq	%rax, -72(%rbp)
	movq	-24(%rbp), %rax
	cmpq	$0, (%rax)
	je	.LBB1_196
# %bb.195:                              # %if.then438
                                        #   in Loop: Header=BB1_193 Depth=1
	movq	-24(%rbp), %rax
	movq	(%rax), %rdi
	callq	free
.LBB1_196:                              # %if.end440
                                        #   in Loop: Header=BB1_193 Depth=1
	movq	-24(%rbp), %rdi
	callq	free
	movq	-72(%rbp), %rax
	movq	%rax, -24(%rbp)
	jmp	.LBB1_193
.LBB1_197:                              # %while.end
	movl	exitValue, %eax
	addq	$72, %rsp
	popq	%rbx
	popq	%rbp
	.cfi_def_cfa %rsp, 8
	retq
.Lfunc_end1:
	.size	main, .Lfunc_end1-main
	.cfi_endproc
	.section	.rodata,"a",@progbits
	.p2align	3
.LJTI1_0:
	.quad	.LBB1_50
	.quad	.LBB1_51
	.quad	.LBB1_52
	.quad	.LBB1_53
	.quad	.LBB1_54
	.quad	.LBB1_55
	.quad	.LBB1_56
	.quad	.LBB1_57
	.quad	.LBB1_58
	.quad	.LBB1_62
	.quad	.LBB1_62
	.quad	.LBB1_62
	.quad	.LBB1_62
	.quad	.LBB1_62
	.quad	.LBB1_62
	.quad	.LBB1_62
	.quad	.LBB1_62
	.quad	.LBB1_62
	.quad	.LBB1_62
	.quad	.LBB1_62
	.quad	.LBB1_62
	.quad	.LBB1_62
	.quad	.LBB1_62
	.quad	.LBB1_62
	.quad	.LBB1_62
	.quad	.LBB1_62
	.quad	.LBB1_62
	.quad	.LBB1_59
	.quad	.LBB1_62
	.quad	.LBB1_62
	.quad	.LBB1_62
	.quad	.LBB1_62
	.quad	.LBB1_62
	.quad	.LBB1_62
	.quad	.LBB1_62
	.quad	.LBB1_62
	.quad	.LBB1_62
	.quad	.LBB1_59
	.quad	.LBB1_62
	.quad	.LBB1_62
	.quad	.LBB1_62
	.quad	.LBB1_62
	.quad	.LBB1_62
	.quad	.LBB1_62
	.quad	.LBB1_62
	.quad	.LBB1_62
	.quad	.LBB1_62
	.quad	.LBB1_62
	.quad	.LBB1_62
	.quad	.LBB1_62
	.quad	.LBB1_42
	.quad	.LBB1_43
	.quad	.LBB1_62
	.quad	.LBB1_45
	.quad	.LBB1_62
	.quad	.LBB1_61
	.quad	.LBB1_62
	.quad	.LBB1_62
	.quad	.LBB1_47
	.quad	.LBB1_62
	.quad	.LBB1_62
	.quad	.LBB1_62
	.quad	.LBB1_62
	.quad	.LBB1_62
	.quad	.LBB1_49
	.quad	.LBB1_62
	.quad	.LBB1_48
	.quad	.LBB1_46
	.quad	.LBB1_62
	.quad	.LBB1_60
	.quad	.LBB1_62
	.quad	.LBB1_62
	.quad	.LBB1_62
	.quad	.LBB1_44
                                        # -- End function
	.text
	.p2align	4, 0x90         # -- Begin function mySIGSEGVorSIGBUScatcher
	.type	mySIGSEGVorSIGBUScatcher,@function
mySIGSEGVorSIGBUScatcher:               # @mySIGSEGVorSIGBUScatcher
	.cfi_startproc
# %bb.0:                                # %entry
	pushq	%rbp
	.cfi_def_cfa_offset 16
	.cfi_offset %rbp, -16
	movq	%rsp, %rbp
	.cfi_def_cfa_register %rbp
	subq	$16, %rsp
	movl	%edi, -4(%rbp)
	cmpl	$1, opMode
	jne	.LBB2_2
# %bb.1:                                # %if.then
	movq	stderr, %rdi
	movq	progName, %rdx
	movabsq	$.L.str.36, %rsi
	movb	$0, %al
	callq	fprintf
	jmp	.LBB2_3
.LBB2_2:                                # %if.else
	movq	stderr, %rdi
	movq	progName, %rdx
	movabsq	$.L.str.37, %rsi
	movb	$0, %al
	callq	fprintf
.LBB2_3:                                # %if.end
	callq	showFileNames
	cmpl	$1, opMode
	jne	.LBB2_5
# %bb.4:                                # %if.then3
	movl	$3, %edi
	callq	cleanUpAndFail
.LBB2_5:                                # %if.else4
	callq	cadvise
	movl	$2, %edi
	callq	cleanUpAndFail
.Lfunc_end2:
	.size	mySIGSEGVorSIGBUScatcher, .Lfunc_end2-mySIGSEGVorSIGBUScatcher
	.cfi_endproc
                                        # -- End function
	.p2align	4, 0x90         # -- Begin function copyFileName
	.type	copyFileName,@function
copyFileName:                           # @copyFileName
	.cfi_startproc
# %bb.0:                                # %rand_bb
	pushq	%rbp
	.cfi_def_cfa_offset 16
	.cfi_offset %rbp, -16
	movq	%rsp, %rbp
	.cfi_def_cfa_register %rbp
	pushq	%r14
	pushq	%rbx
	.cfi_offset %rbx, -32
	.cfi_offset %r14, -24
	movq	%rsi, %r14
	movq	%rdi, %rbx
	callq	get_rand
	cmpl	$0, %eax
	jne	.LBB3_2
# %bb.1:                                # %func_copyFileName.9
	movq	%rbx, %rdi
	movq	%r14, %rsi
	callq	copyFileName.9
	popq	%rbx
	popq	%r14
	popq	%rbp
	.cfi_def_cfa %rsp, 8
	retq
.LBB3_2:                                # %func_copyFileName.24
	.cfi_def_cfa %rbp, 16
	movq	%rbx, %rdi
	movq	%r14, %rsi
	callq	copyFileName.24
	popq	%rbx
	popq	%r14
	popq	%rbp
	.cfi_def_cfa %rsp, 8
	retq
.Lfunc_end3:
	.size	copyFileName, .Lfunc_end3-copyFileName
	.cfi_endproc
                                        # -- End function
	.p2align	4, 0x90         # -- Begin function addFlagsFromEnvVar
	.type	addFlagsFromEnvVar,@function
addFlagsFromEnvVar:                     # @addFlagsFromEnvVar
	.cfi_startproc
# %bb.0:                                # %rand_bb
	pushq	%rbp
	.cfi_def_cfa_offset 16
	.cfi_offset %rbp, -16
	movq	%rsp, %rbp
	.cfi_def_cfa_register %rbp
	pushq	%r14
	pushq	%rbx
	.cfi_offset %rbx, -32
	.cfi_offset %r14, -24
	movq	%rsi, %r14
	movq	%rdi, %rbx
	callq	get_rand
	cmpl	$0, %eax
	jne	.LBB4_17
# %bb.1:                                # %func_addFlagsFromEnvVar.30
	movq	%rbx, %rdi
	movq	%r14, %rsi
	callq	addFlagsFromEnvVar.30
	popq	%rbx
	popq	%r14
	popq	%rbp
	.cfi_def_cfa %rsp, 8
	retq
.LBB4_2:                                # %func_addFlagsFromEnvVar.78
	.cfi_def_cfa %rbp, 16
	movq	%rbx, %rdi
	movq	%r14, %rsi
	callq	addFlagsFromEnvVar.78
	popq	%rbx
	popq	%r14
	popq	%rbp
	.cfi_def_cfa %rsp, 8
	retq
.LBB4_3:                                # %func_addFlagsFromEnvVar.91
	.cfi_def_cfa %rbp, 16
	movq	%rbx, %rdi
	movq	%r14, %rsi
	callq	addFlagsFromEnvVar.91
	popq	%rbx
	popq	%r14
	popq	%rbp
	.cfi_def_cfa %rsp, 8
	retq
.LBB4_4:                                # %func_addFlagsFromEnvVar.97
	.cfi_def_cfa %rbp, 16
	movq	%rbx, %rdi
	movq	%r14, %rsi
	callq	addFlagsFromEnvVar.97
	popq	%rbx
	popq	%r14
	popq	%rbp
	.cfi_def_cfa %rsp, 8
	retq
.LBB4_5:                                # %func_addFlagsFromEnvVar.126
	.cfi_def_cfa %rbp, 16
	movq	%rbx, %rdi
	movq	%r14, %rsi
	callq	addFlagsFromEnvVar.126
	popq	%rbx
	popq	%r14
	popq	%rbp
	.cfi_def_cfa %rsp, 8
	retq
.LBB4_6:                                # %func_addFlagsFromEnvVar.162
	.cfi_def_cfa %rbp, 16
	movq	%rbx, %rdi
	movq	%r14, %rsi
	callq	addFlagsFromEnvVar.162
	popq	%rbx
	popq	%r14
	popq	%rbp
	.cfi_def_cfa %rsp, 8
	retq
.LBB4_7:                                # %func_addFlagsFromEnvVar.192
	.cfi_def_cfa %rbp, 16
	movq	%rbx, %rdi
	movq	%r14, %rsi
	callq	addFlagsFromEnvVar.192
	popq	%rbx
	popq	%r14
	popq	%rbp
	.cfi_def_cfa %rsp, 8
	retq
.LBB4_8:                                # %func_addFlagsFromEnvVar.221
	.cfi_def_cfa %rbp, 16
	movq	%rbx, %rdi
	movq	%r14, %rsi
	callq	addFlagsFromEnvVar.221
	popq	%rbx
	popq	%r14
	popq	%rbp
	.cfi_def_cfa %rsp, 8
	retq
.LBB4_9:                                # %func_addFlagsFromEnvVar.223
	.cfi_def_cfa %rbp, 16
	movq	%rbx, %rdi
	movq	%r14, %rsi
	callq	addFlagsFromEnvVar.223
	popq	%rbx
	popq	%r14
	popq	%rbp
	.cfi_def_cfa %rsp, 8
	retq
.LBB4_10:                               # %func_addFlagsFromEnvVar.231
	.cfi_def_cfa %rbp, 16
	movq	%rbx, %rdi
	movq	%r14, %rsi
	callq	addFlagsFromEnvVar.231
	popq	%rbx
	popq	%r14
	popq	%rbp
	.cfi_def_cfa %rsp, 8
	retq
.LBB4_11:                               # %func_addFlagsFromEnvVar.234
	.cfi_def_cfa %rbp, 16
	movq	%rbx, %rdi
	movq	%r14, %rsi
	callq	addFlagsFromEnvVar.234
	popq	%rbx
	popq	%r14
	popq	%rbp
	.cfi_def_cfa %rsp, 8
	retq
.LBB4_12:                               # %func_addFlagsFromEnvVar.239
	.cfi_def_cfa %rbp, 16
	movq	%rbx, %rdi
	movq	%r14, %rsi
	callq	addFlagsFromEnvVar.239
	popq	%rbx
	popq	%r14
	popq	%rbp
	.cfi_def_cfa %rsp, 8
	retq
.LBB4_13:                               # %func_addFlagsFromEnvVar.245
	.cfi_def_cfa %rbp, 16
	movq	%rbx, %rdi
	movq	%r14, %rsi
	callq	addFlagsFromEnvVar.245
	popq	%rbx
	popq	%r14
	popq	%rbp
	.cfi_def_cfa %rsp, 8
	retq
.LBB4_14:                               # %func_addFlagsFromEnvVar.251
	.cfi_def_cfa %rbp, 16
	movq	%rbx, %rdi
	movq	%r14, %rsi
	callq	addFlagsFromEnvVar.251
	popq	%rbx
	popq	%r14
	popq	%rbp
	.cfi_def_cfa %rsp, 8
	retq
.LBB4_15:                               # %func_addFlagsFromEnvVar.276
	.cfi_def_cfa %rbp, 16
	movq	%rbx, %rdi
	movq	%r14, %rsi
	callq	addFlagsFromEnvVar.276
	popq	%rbx
	popq	%r14
	popq	%rbp
	.cfi_def_cfa %rsp, 8
	retq
.LBB4_16:                               # %func_addFlagsFromEnvVar.287
	.cfi_def_cfa %rbp, 16
	movq	%rbx, %rdi
	movq	%r14, %rsi
	callq	addFlagsFromEnvVar.287
	popq	%rbx
	popq	%r14
	popq	%rbp
	.cfi_def_cfa %rsp, 8
	retq
.LBB4_17:                               # %ctrl0
	.cfi_def_cfa %rbp, 16
	cmpl	$1, %eax
	je	.LBB4_2
# %bb.18:                               # %ctrl1
	cmpl	$2, %eax
	je	.LBB4_3
# %bb.19:                               # %ctrl2
	cmpl	$3, %eax
	je	.LBB4_4
# %bb.20:                               # %ctrl3
	cmpl	$4, %eax
	je	.LBB4_5
# %bb.21:                               # %ctrl4
	cmpl	$5, %eax
	je	.LBB4_6
# %bb.22:                               # %ctrl5
	cmpl	$6, %eax
	je	.LBB4_7
# %bb.23:                               # %ctrl6
	cmpl	$7, %eax
	je	.LBB4_8
# %bb.24:                               # %ctrl7
	cmpl	$8, %eax
	je	.LBB4_9
# %bb.25:                               # %ctrl8
	cmpl	$9, %eax
	je	.LBB4_10
# %bb.26:                               # %ctrl9
	cmpl	$10, %eax
	je	.LBB4_11
# %bb.27:                               # %ctrl10
	cmpl	$11, %eax
	je	.LBB4_12
# %bb.28:                               # %ctrl11
	cmpl	$12, %eax
	je	.LBB4_13
# %bb.29:                               # %ctrl12
	cmpl	$13, %eax
	je	.LBB4_14
# %bb.30:                               # %ctrl13
	cmpl	$14, %eax
	je	.LBB4_15
	jmp	.LBB4_16
.Lfunc_end4:
	.size	addFlagsFromEnvVar, .Lfunc_end4-addFlagsFromEnvVar
	.cfi_endproc
                                        # -- End function
	.p2align	4, 0x90         # -- Begin function snocString
	.type	snocString,@function
snocString:                             # @snocString
	.cfi_startproc
# %bb.0:                                # %rand_bb
	pushq	%rbp
	.cfi_def_cfa_offset 16
	.cfi_offset %rbp, -16
	movq	%rsp, %rbp
	.cfi_def_cfa_register %rbp
	pushq	%r14
	pushq	%rbx
	.cfi_offset %rbx, -32
	.cfi_offset %r14, -24
	movq	%rsi, %r14
	movq	%rdi, %rbx
	callq	get_rand
	cmpl	$0, %eax
	jne	.LBB5_17
# %bb.1:                                # %func_snocString.3
	movq	%rbx, %rdi
	movq	%r14, %rsi
	callq	snocString.3
	popq	%rbx
	popq	%r14
	popq	%rbp
	.cfi_def_cfa %rsp, 8
	retq
.LBB5_2:                                # %func_snocString.18
	.cfi_def_cfa %rbp, 16
	movq	%rbx, %rdi
	movq	%r14, %rsi
	callq	snocString.18
	popq	%rbx
	popq	%r14
	popq	%rbp
	.cfi_def_cfa %rsp, 8
	retq
.LBB5_3:                                # %func_snocString.108
	.cfi_def_cfa %rbp, 16
	movq	%rbx, %rdi
	movq	%r14, %rsi
	callq	snocString.108
	popq	%rbx
	popq	%r14
	popq	%rbp
	.cfi_def_cfa %rsp, 8
	retq
.LBB5_4:                                # %func_snocString.123
	.cfi_def_cfa %rbp, 16
	movq	%rbx, %rdi
	movq	%r14, %rsi
	callq	snocString.123
	popq	%rbx
	popq	%r14
	popq	%rbp
	.cfi_def_cfa %rsp, 8
	retq
.LBB5_5:                                # %func_snocString.137
	.cfi_def_cfa %rbp, 16
	movq	%rbx, %rdi
	movq	%r14, %rsi
	callq	snocString.137
	popq	%rbx
	popq	%r14
	popq	%rbp
	.cfi_def_cfa %rsp, 8
	retq
.LBB5_6:                                # %func_snocString.170
	.cfi_def_cfa %rbp, 16
	movq	%rbx, %rdi
	movq	%r14, %rsi
	callq	snocString.170
	popq	%rbx
	popq	%r14
	popq	%rbp
	.cfi_def_cfa %rsp, 8
	retq
.LBB5_7:                                # %func_snocString.193
	.cfi_def_cfa %rbp, 16
	movq	%rbx, %rdi
	movq	%r14, %rsi
	callq	snocString.193
	popq	%rbx
	popq	%r14
	popq	%rbp
	.cfi_def_cfa %rsp, 8
	retq
.LBB5_8:                                # %func_snocString.195
	.cfi_def_cfa %rbp, 16
	movq	%rbx, %rdi
	movq	%r14, %rsi
	callq	snocString.195
	popq	%rbx
	popq	%r14
	popq	%rbp
	.cfi_def_cfa %rsp, 8
	retq
.LBB5_9:                                # %func_snocString.246
	.cfi_def_cfa %rbp, 16
	movq	%rbx, %rdi
	movq	%r14, %rsi
	callq	snocString.246
	popq	%rbx
	popq	%r14
	popq	%rbp
	.cfi_def_cfa %rsp, 8
	retq
.LBB5_10:                               # %func_snocString.254
	.cfi_def_cfa %rbp, 16
	movq	%rbx, %rdi
	movq	%r14, %rsi
	callq	snocString.254
	popq	%rbx
	popq	%r14
	popq	%rbp
	.cfi_def_cfa %rsp, 8
	retq
.LBB5_11:                               # %func_snocString.256
	.cfi_def_cfa %rbp, 16
	movq	%rbx, %rdi
	movq	%r14, %rsi
	callq	snocString.256
	popq	%rbx
	popq	%r14
	popq	%rbp
	.cfi_def_cfa %rsp, 8
	retq
.LBB5_12:                               # %func_snocString.258
	.cfi_def_cfa %rbp, 16
	movq	%rbx, %rdi
	movq	%r14, %rsi
	callq	snocString.258
	popq	%rbx
	popq	%r14
	popq	%rbp
	.cfi_def_cfa %rsp, 8
	retq
.LBB5_13:                               # %func_snocString.271
	.cfi_def_cfa %rbp, 16
	movq	%rbx, %rdi
	movq	%r14, %rsi
	callq	snocString.271
	popq	%rbx
	popq	%r14
	popq	%rbp
	.cfi_def_cfa %rsp, 8
	retq
.LBB5_14:                               # %func_snocString.292
	.cfi_def_cfa %rbp, 16
	movq	%rbx, %rdi
	movq	%r14, %rsi
	callq	snocString.292
	popq	%rbx
	popq	%r14
	popq	%rbp
	.cfi_def_cfa %rsp, 8
	retq
.LBB5_15:                               # %func_snocString.296
	.cfi_def_cfa %rbp, 16
	movq	%rbx, %rdi
	movq	%r14, %rsi
	callq	snocString.296
	popq	%rbx
	popq	%r14
	popq	%rbp
	.cfi_def_cfa %rsp, 8
	retq
.LBB5_16:                               # %func_snocString.299
	.cfi_def_cfa %rbp, 16
	movq	%rbx, %rdi
	movq	%r14, %rsi
	callq	snocString.299
	popq	%rbx
	popq	%r14
	popq	%rbp
	.cfi_def_cfa %rsp, 8
	retq
.LBB5_17:                               # %ctrl0
	.cfi_def_cfa %rbp, 16
	cmpl	$1, %eax
	je	.LBB5_2
# %bb.18:                               # %ctrl1
	cmpl	$2, %eax
	je	.LBB5_3
# %bb.19:                               # %ctrl2
	cmpl	$3, %eax
	je	.LBB5_4
# %bb.20:                               # %ctrl3
	cmpl	$4, %eax
	je	.LBB5_5
# %bb.21:                               # %ctrl4
	cmpl	$5, %eax
	je	.LBB5_6
# %bb.22:                               # %ctrl5
	cmpl	$6, %eax
	je	.LBB5_7
# %bb.23:                               # %ctrl6
	cmpl	$7, %eax
	je	.LBB5_8
# %bb.24:                               # %ctrl7
	cmpl	$8, %eax
	je	.LBB5_9
# %bb.25:                               # %ctrl8
	cmpl	$9, %eax
	je	.LBB5_10
# %bb.26:                               # %ctrl9
	cmpl	$10, %eax
	je	.LBB5_11
# %bb.27:                               # %ctrl10
	cmpl	$11, %eax
	je	.LBB5_12
# %bb.28:                               # %ctrl11
	cmpl	$12, %eax
	je	.LBB5_13
# %bb.29:                               # %ctrl12
	cmpl	$13, %eax
	je	.LBB5_14
# %bb.30:                               # %ctrl13
	cmpl	$14, %eax
	je	.LBB5_15
	jmp	.LBB5_16
.Lfunc_end5:
	.size	snocString, .Lfunc_end5-snocString
	.cfi_endproc
                                        # -- End function
	.p2align	4, 0x90         # -- Begin function license
	.type	license,@function
license:                                # @license
	.cfi_startproc
# %bb.0:                                # %entry
	pushq	%rbp
	.cfi_def_cfa_offset 16
	.cfi_offset %rbp, -16
	movq	%rsp, %rbp
	.cfi_def_cfa_register %rbp
	pushq	%rbx
	pushq	%rax
	.cfi_offset %rbx, -24
	movq	stderr, %rbx
	callq	BZ2_bzlibVersion
	movq	%rbx, %rdi
	movabsq	$.L.str.49, %rsi
	movq	%rax, %rdx
	movb	$0, %al
	callq	fprintf
	addq	$8, %rsp
	popq	%rbx
	popq	%rbp
	.cfi_def_cfa %rsp, 8
	retq
.Lfunc_end6:
	.size	license, .Lfunc_end6-license
	.cfi_endproc
                                        # -- End function
	.p2align	4, 0x90         # -- Begin function usage
	.type	usage,@function
usage:                                  # @usage
	.cfi_startproc
# %bb.0:                                # %entry
	pushq	%rbp
	.cfi_def_cfa_offset 16
	.cfi_offset %rbp, -16
	movq	%rsp, %rbp
	.cfi_def_cfa_register %rbp
	pushq	%rbx
	pushq	%rax
	.cfi_offset %rbx, -24
	movq	%rdi, -16(%rbp)
	movq	stderr, %rbx
	callq	BZ2_bzlibVersion
	movq	-16(%rbp), %rcx
	movq	%rbx, %rdi
	movabsq	$.L.str.50, %rsi
	movq	%rax, %rdx
	movb	$0, %al
	callq	fprintf
	addq	$8, %rsp
	popq	%rbx
	popq	%rbp
	.cfi_def_cfa %rsp, 8
	retq
.Lfunc_end7:
	.size	usage, .Lfunc_end7-usage
	.cfi_endproc
                                        # -- End function
	.p2align	4, 0x90         # -- Begin function redundant
	.type	redundant,@function
redundant:                              # @redundant
	.cfi_startproc
# %bb.0:                                # %entry
	pushq	%rbp
	.cfi_def_cfa_offset 16
	.cfi_offset %rbp, -16
	movq	%rsp, %rbp
	.cfi_def_cfa_register %rbp
	subq	$16, %rsp
	movq	%rdi, -8(%rbp)
	movq	stderr, %rdi
	movq	progName, %rdx
	movq	-8(%rbp), %rcx
	movabsq	$.L.str.51, %rsi
	movb	$0, %al
	callq	fprintf
	addq	$16, %rsp
	popq	%rbp
	.cfi_def_cfa %rsp, 8
	retq
.Lfunc_end8:
	.size	redundant, .Lfunc_end8-redundant
	.cfi_endproc
                                        # -- End function
	.p2align	4, 0x90         # -- Begin function mySignalCatcher
	.type	mySignalCatcher,@function
mySignalCatcher:                        # @mySignalCatcher
	.cfi_startproc
# %bb.0:                                # %entry
	pushq	%rbp
	.cfi_def_cfa_offset 16
	.cfi_offset %rbp, -16
	movq	%rsp, %rbp
	.cfi_def_cfa_register %rbp
	subq	$16, %rsp
	movl	%edi, -4(%rbp)
	movq	stderr, %rdi
	movq	progName, %rdx
	movabsq	$.L.str.52, %rsi
	movb	$0, %al
	callq	fprintf
	movl	$1, %edi
	callq	cleanUpAndFail
.Lfunc_end9:
	.size	mySignalCatcher, .Lfunc_end9-mySignalCatcher
	.cfi_endproc
                                        # -- End function
	.p2align	4, 0x90         # -- Begin function compress
	.type	compress,@function
compress:                               # @compress
	.cfi_startproc
# %bb.0:                                # %rand_bb
	pushq	%rbp
	.cfi_def_cfa_offset 16
	.cfi_offset %rbp, -16
	movq	%rsp, %rbp
	.cfi_def_cfa_register %rbp
	pushq	%rbx
	pushq	%rax
	.cfi_offset %rbx, -24
	movq	%rdi, %rbx
	callq	get_rand
	cmpl	$0, %eax
	jne	.LBB10_17
# %bb.1:                                # %func_compress.34
	movq	%rbx, %rdi
	callq	compress.34
	addq	$8, %rsp
	popq	%rbx
	popq	%rbp
	.cfi_def_cfa %rsp, 8
	retq
.LBB10_2:                               # %func_compress.64
	.cfi_def_cfa %rbp, 16
	movq	%rbx, %rdi
	callq	compress.64
	addq	$8, %rsp
	popq	%rbx
	popq	%rbp
	.cfi_def_cfa %rsp, 8
	retq
.LBB10_3:                               # %func_compress.112
	.cfi_def_cfa %rbp, 16
	movq	%rbx, %rdi
	callq	compress.112
	addq	$8, %rsp
	popq	%rbx
	popq	%rbp
	.cfi_def_cfa %rsp, 8
	retq
.LBB10_4:                               # %func_compress.120
	.cfi_def_cfa %rbp, 16
	movq	%rbx, %rdi
	callq	compress.120
	addq	$8, %rsp
	popq	%rbx
	popq	%rbp
	.cfi_def_cfa %rsp, 8
	retq
.LBB10_5:                               # %func_compress.127
	.cfi_def_cfa %rbp, 16
	movq	%rbx, %rdi
	callq	compress.127
	addq	$8, %rsp
	popq	%rbx
	popq	%rbp
	.cfi_def_cfa %rsp, 8
	retq
.LBB10_6:                               # %func_compress.152
	.cfi_def_cfa %rbp, 16
	movq	%rbx, %rdi
	callq	compress.152
	addq	$8, %rsp
	popq	%rbx
	popq	%rbp
	.cfi_def_cfa %rsp, 8
	retq
.LBB10_7:                               # %func_compress.163
	.cfi_def_cfa %rbp, 16
	movq	%rbx, %rdi
	callq	compress.163
	addq	$8, %rsp
	popq	%rbx
	popq	%rbp
	.cfi_def_cfa %rsp, 8
	retq
.LBB10_8:                               # %func_compress.186
	.cfi_def_cfa %rbp, 16
	movq	%rbx, %rdi
	callq	compress.186
	addq	$8, %rsp
	popq	%rbx
	popq	%rbp
	.cfi_def_cfa %rsp, 8
	retq
.LBB10_9:                               # %func_compress.229
	.cfi_def_cfa %rbp, 16
	movq	%rbx, %rdi
	callq	compress.229
	addq	$8, %rsp
	popq	%rbx
	popq	%rbp
	.cfi_def_cfa %rsp, 8
	retq
.LBB10_10:                              # %func_compress.235
	.cfi_def_cfa %rbp, 16
	movq	%rbx, %rdi
	callq	compress.235
	addq	$8, %rsp
	popq	%rbx
	popq	%rbp
	.cfi_def_cfa %rsp, 8
	retq
.LBB10_11:                              # %func_compress.243
	.cfi_def_cfa %rbp, 16
	movq	%rbx, %rdi
	callq	compress.243
	addq	$8, %rsp
	popq	%rbx
	popq	%rbp
	.cfi_def_cfa %rsp, 8
	retq
.LBB10_12:                              # %func_compress.249
	.cfi_def_cfa %rbp, 16
	movq	%rbx, %rdi
	callq	compress.249
	addq	$8, %rsp
	popq	%rbx
	popq	%rbp
	.cfi_def_cfa %rsp, 8
	retq
.LBB10_13:                              # %func_compress.289
	.cfi_def_cfa %rbp, 16
	movq	%rbx, %rdi
	callq	compress.289
	addq	$8, %rsp
	popq	%rbx
	popq	%rbp
	.cfi_def_cfa %rsp, 8
	retq
.LBB10_14:                              # %func_compress.290
	.cfi_def_cfa %rbp, 16
	movq	%rbx, %rdi
	callq	compress.290
	addq	$8, %rsp
	popq	%rbx
	popq	%rbp
	.cfi_def_cfa %rsp, 8
	retq
.LBB10_15:                              # %func_compress.293
	.cfi_def_cfa %rbp, 16
	movq	%rbx, %rdi
	callq	compress.293
	addq	$8, %rsp
	popq	%rbx
	popq	%rbp
	.cfi_def_cfa %rsp, 8
	retq
.LBB10_16:                              # %func_compress.295
	.cfi_def_cfa %rbp, 16
	movq	%rbx, %rdi
	callq	compress.295
	addq	$8, %rsp
	popq	%rbx
	popq	%rbp
	.cfi_def_cfa %rsp, 8
	retq
.LBB10_17:                              # %ctrl0
	.cfi_def_cfa %rbp, 16
	cmpl	$1, %eax
	je	.LBB10_2
# %bb.18:                               # %ctrl1
	cmpl	$2, %eax
	je	.LBB10_3
# %bb.19:                               # %ctrl2
	cmpl	$3, %eax
	je	.LBB10_4
# %bb.20:                               # %ctrl3
	cmpl	$4, %eax
	je	.LBB10_5
# %bb.21:                               # %ctrl4
	cmpl	$5, %eax
	je	.LBB10_6
# %bb.22:                               # %ctrl5
	cmpl	$6, %eax
	je	.LBB10_7
# %bb.23:                               # %ctrl6
	cmpl	$7, %eax
	je	.LBB10_8
# %bb.24:                               # %ctrl7
	cmpl	$8, %eax
	je	.LBB10_9
# %bb.25:                               # %ctrl8
	cmpl	$9, %eax
	je	.LBB10_10
# %bb.26:                               # %ctrl9
	cmpl	$10, %eax
	je	.LBB10_11
# %bb.27:                               # %ctrl10
	cmpl	$11, %eax
	je	.LBB10_12
# %bb.28:                               # %ctrl11
	cmpl	$12, %eax
	je	.LBB10_13
# %bb.29:                               # %ctrl12
	cmpl	$13, %eax
	je	.LBB10_14
# %bb.30:                               # %ctrl13
	cmpl	$14, %eax
	je	.LBB10_15
	jmp	.LBB10_16
.Lfunc_end10:
	.size	compress, .Lfunc_end10-compress
	.cfi_endproc
                                        # -- End function
	.p2align	4, 0x90         # -- Begin function uncompress
	.type	uncompress,@function
uncompress:                             # @uncompress
	.cfi_startproc
# %bb.0:                                # %rand_bb
	pushq	%rbp
	.cfi_def_cfa_offset 16
	.cfi_offset %rbp, -16
	movq	%rsp, %rbp
	.cfi_def_cfa_register %rbp
	pushq	%rbx
	pushq	%rax
	.cfi_offset %rbx, -24
	movq	%rdi, %rbx
	callq	get_rand
	cmpl	$0, %eax
	jne	.LBB11_17
# %bb.1:                                # %func_uncompress.40
	movq	%rbx, %rdi
	callq	uncompress.40
	addq	$8, %rsp
	popq	%rbx
	popq	%rbp
	.cfi_def_cfa %rsp, 8
	retq
.LBB11_2:                               # %func_uncompress.48
	.cfi_def_cfa %rbp, 16
	movq	%rbx, %rdi
	callq	uncompress.48
	addq	$8, %rsp
	popq	%rbx
	popq	%rbp
	.cfi_def_cfa %rsp, 8
	retq
.LBB11_3:                               # %func_uncompress.144
	.cfi_def_cfa %rbp, 16
	movq	%rbx, %rdi
	callq	uncompress.144
	addq	$8, %rsp
	popq	%rbx
	popq	%rbp
	.cfi_def_cfa %rsp, 8
	retq
.LBB11_4:                               # %func_uncompress.166
	.cfi_def_cfa %rbp, 16
	movq	%rbx, %rdi
	callq	uncompress.166
	addq	$8, %rsp
	popq	%rbx
	popq	%rbp
	.cfi_def_cfa %rsp, 8
	retq
.LBB11_5:                               # %func_uncompress.189
	.cfi_def_cfa %rbp, 16
	movq	%rbx, %rdi
	callq	uncompress.189
	addq	$8, %rsp
	popq	%rbx
	popq	%rbp
	.cfi_def_cfa %rsp, 8
	retq
.LBB11_6:                               # %func_uncompress.190
	.cfi_def_cfa %rbp, 16
	movq	%rbx, %rdi
	callq	uncompress.190
	addq	$8, %rsp
	popq	%rbx
	popq	%rbp
	.cfi_def_cfa %rsp, 8
	retq
.LBB11_7:                               # %func_uncompress.196
	.cfi_def_cfa %rbp, 16
	movq	%rbx, %rdi
	callq	uncompress.196
	addq	$8, %rsp
	popq	%rbx
	popq	%rbp
	.cfi_def_cfa %rsp, 8
	retq
.LBB11_8:                               # %func_uncompress.207
	.cfi_def_cfa %rbp, 16
	movq	%rbx, %rdi
	callq	uncompress.207
	addq	$8, %rsp
	popq	%rbx
	popq	%rbp
	.cfi_def_cfa %rsp, 8
	retq
.LBB11_9:                               # %func_uncompress.224
	.cfi_def_cfa %rbp, 16
	movq	%rbx, %rdi
	callq	uncompress.224
	addq	$8, %rsp
	popq	%rbx
	popq	%rbp
	.cfi_def_cfa %rsp, 8
	retq
.LBB11_10:                              # %func_uncompress.225
	.cfi_def_cfa %rbp, 16
	movq	%rbx, %rdi
	callq	uncompress.225
	addq	$8, %rsp
	popq	%rbx
	popq	%rbp
	.cfi_def_cfa %rsp, 8
	retq
.LBB11_11:                              # %func_uncompress.252
	.cfi_def_cfa %rbp, 16
	movq	%rbx, %rdi
	callq	uncompress.252
	addq	$8, %rsp
	popq	%rbx
	popq	%rbp
	.cfi_def_cfa %rsp, 8
	retq
.LBB11_12:                              # %func_uncompress.264
	.cfi_def_cfa %rbp, 16
	movq	%rbx, %rdi
	callq	uncompress.264
	addq	$8, %rsp
	popq	%rbx
	popq	%rbp
	.cfi_def_cfa %rsp, 8
	retq
.LBB11_13:                              # %func_uncompress.265
	.cfi_def_cfa %rbp, 16
	movq	%rbx, %rdi
	callq	uncompress.265
	addq	$8, %rsp
	popq	%rbx
	popq	%rbp
	.cfi_def_cfa %rsp, 8
	retq
.LBB11_14:                              # %func_uncompress.280
	.cfi_def_cfa %rbp, 16
	movq	%rbx, %rdi
	callq	uncompress.280
	addq	$8, %rsp
	popq	%rbx
	popq	%rbp
	.cfi_def_cfa %rsp, 8
	retq
.LBB11_15:                              # %func_uncompress.281
	.cfi_def_cfa %rbp, 16
	movq	%rbx, %rdi
	callq	uncompress.281
	addq	$8, %rsp
	popq	%rbx
	popq	%rbp
	.cfi_def_cfa %rsp, 8
	retq
.LBB11_16:                              # %func_uncompress.283
	.cfi_def_cfa %rbp, 16
	movq	%rbx, %rdi
	callq	uncompress.283
	addq	$8, %rsp
	popq	%rbx
	popq	%rbp
	.cfi_def_cfa %rsp, 8
	retq
.LBB11_17:                              # %ctrl0
	.cfi_def_cfa %rbp, 16
	cmpl	$1, %eax
	je	.LBB11_2
# %bb.18:                               # %ctrl1
	cmpl	$2, %eax
	je	.LBB11_3
# %bb.19:                               # %ctrl2
	cmpl	$3, %eax
	je	.LBB11_4
# %bb.20:                               # %ctrl3
	cmpl	$4, %eax
	je	.LBB11_5
# %bb.21:                               # %ctrl4
	cmpl	$5, %eax
	je	.LBB11_6
# %bb.22:                               # %ctrl5
	cmpl	$6, %eax
	je	.LBB11_7
# %bb.23:                               # %ctrl6
	cmpl	$7, %eax
	je	.LBB11_8
# %bb.24:                               # %ctrl7
	cmpl	$8, %eax
	je	.LBB11_9
# %bb.25:                               # %ctrl8
	cmpl	$9, %eax
	je	.LBB11_10
# %bb.26:                               # %ctrl9
	cmpl	$10, %eax
	je	.LBB11_11
# %bb.27:                               # %ctrl10
	cmpl	$11, %eax
	je	.LBB11_12
# %bb.28:                               # %ctrl11
	cmpl	$12, %eax
	je	.LBB11_13
# %bb.29:                               # %ctrl12
	cmpl	$13, %eax
	je	.LBB11_14
# %bb.30:                               # %ctrl13
	cmpl	$14, %eax
	je	.LBB11_15
	jmp	.LBB11_16
.Lfunc_end11:
	.size	uncompress, .Lfunc_end11-uncompress
	.cfi_endproc
                                        # -- End function
	.p2align	4, 0x90         # -- Begin function setExit
	.type	setExit,@function
setExit:                                # @setExit
	.cfi_startproc
# %bb.0:                                # %entry
	pushq	%rbp
	.cfi_def_cfa_offset 16
	.cfi_offset %rbp, -16
	movq	%rsp, %rbp
	.cfi_def_cfa_register %rbp
	movl	%edi, -4(%rbp)
	movl	-4(%rbp), %eax
	cmpl	exitValue, %eax
	jle	.LBB12_2
# %bb.1:                                # %if.then
	movl	-4(%rbp), %eax
	movl	%eax, exitValue
.LBB12_2:                               # %if.end
	popq	%rbp
	.cfi_def_cfa %rsp, 8
	retq
.Lfunc_end12:
	.size	setExit, .Lfunc_end12-setExit
	.cfi_endproc
                                        # -- End function
	.p2align	4, 0x90         # -- Begin function testf
	.type	testf,@function
testf:                                  # @testf
	.cfi_startproc
# %bb.0:                                # %rand_bb
	pushq	%rbp
	.cfi_def_cfa_offset 16
	.cfi_offset %rbp, -16
	movq	%rsp, %rbp
	.cfi_def_cfa_register %rbp
	pushq	%rbx
	pushq	%rax
	.cfi_offset %rbx, -24
	movq	%rdi, %rbx
	callq	get_rand
	cmpl	$0, %eax
	jne	.LBB13_17
# %bb.1:                                # %func_testf.51
	movq	%rbx, %rdi
	callq	testf.51
	addq	$8, %rsp
	popq	%rbx
	popq	%rbp
	.cfi_def_cfa %rsp, 8
	retq
.LBB13_2:                               # %func_testf.86
	.cfi_def_cfa %rbp, 16
	movq	%rbx, %rdi
	callq	testf.86
	addq	$8, %rsp
	popq	%rbx
	popq	%rbp
	.cfi_def_cfa %rsp, 8
	retq
.LBB13_3:                               # %func_testf.95
	.cfi_def_cfa %rbp, 16
	movq	%rbx, %rdi
	callq	testf.95
	addq	$8, %rsp
	popq	%rbx
	popq	%rbp
	.cfi_def_cfa %rsp, 8
	retq
.LBB13_4:                               # %func_testf.96
	.cfi_def_cfa %rbp, 16
	movq	%rbx, %rdi
	callq	testf.96
	addq	$8, %rsp
	popq	%rbx
	popq	%rbp
	.cfi_def_cfa %rsp, 8
	retq
.LBB13_5:                               # %func_testf.113
	.cfi_def_cfa %rbp, 16
	movq	%rbx, %rdi
	callq	testf.113
	addq	$8, %rsp
	popq	%rbx
	popq	%rbp
	.cfi_def_cfa %rsp, 8
	retq
.LBB13_6:                               # %func_testf.116
	.cfi_def_cfa %rbp, 16
	movq	%rbx, %rdi
	callq	testf.116
	addq	$8, %rsp
	popq	%rbx
	popq	%rbp
	.cfi_def_cfa %rsp, 8
	retq
.LBB13_7:                               # %func_testf.134
	.cfi_def_cfa %rbp, 16
	movq	%rbx, %rdi
	callq	testf.134
	addq	$8, %rsp
	popq	%rbx
	popq	%rbp
	.cfi_def_cfa %rsp, 8
	retq
.LBB13_8:                               # %func_testf.139
	.cfi_def_cfa %rbp, 16
	movq	%rbx, %rdi
	callq	testf.139
	addq	$8, %rsp
	popq	%rbx
	popq	%rbp
	.cfi_def_cfa %rsp, 8
	retq
.LBB13_9:                               # %func_testf.199
	.cfi_def_cfa %rbp, 16
	movq	%rbx, %rdi
	callq	testf.199
	addq	$8, %rsp
	popq	%rbx
	popq	%rbp
	.cfi_def_cfa %rsp, 8
	retq
.LBB13_10:                              # %func_testf.216
	.cfi_def_cfa %rbp, 16
	movq	%rbx, %rdi
	callq	testf.216
	addq	$8, %rsp
	popq	%rbx
	popq	%rbp
	.cfi_def_cfa %rsp, 8
	retq
.LBB13_11:                              # %func_testf.217
	.cfi_def_cfa %rbp, 16
	movq	%rbx, %rdi
	callq	testf.217
	addq	$8, %rsp
	popq	%rbx
	popq	%rbp
	.cfi_def_cfa %rsp, 8
	retq
.LBB13_12:                              # %func_testf.230
	.cfi_def_cfa %rbp, 16
	movq	%rbx, %rdi
	callq	testf.230
	addq	$8, %rsp
	popq	%rbx
	popq	%rbp
	.cfi_def_cfa %rsp, 8
	retq
.LBB13_13:                              # %func_testf.238
	.cfi_def_cfa %rbp, 16
	movq	%rbx, %rdi
	callq	testf.238
	addq	$8, %rsp
	popq	%rbx
	popq	%rbp
	.cfi_def_cfa %rsp, 8
	retq
.LBB13_14:                              # %func_testf.260
	.cfi_def_cfa %rbp, 16
	movq	%rbx, %rdi
	callq	testf.260
	addq	$8, %rsp
	popq	%rbx
	popq	%rbp
	.cfi_def_cfa %rsp, 8
	retq
.LBB13_15:                              # %func_testf.269
	.cfi_def_cfa %rbp, 16
	movq	%rbx, %rdi
	callq	testf.269
	addq	$8, %rsp
	popq	%rbx
	popq	%rbp
	.cfi_def_cfa %rsp, 8
	retq
.LBB13_16:                              # %func_testf.273
	.cfi_def_cfa %rbp, 16
	movq	%rbx, %rdi
	callq	testf.273
	addq	$8, %rsp
	popq	%rbx
	popq	%rbp
	.cfi_def_cfa %rsp, 8
	retq
.LBB13_17:                              # %ctrl0
	.cfi_def_cfa %rbp, 16
	cmpl	$1, %eax
	je	.LBB13_2
# %bb.18:                               # %ctrl1
	cmpl	$2, %eax
	je	.LBB13_3
# %bb.19:                               # %ctrl2
	cmpl	$3, %eax
	je	.LBB13_4
# %bb.20:                               # %ctrl3
	cmpl	$4, %eax
	je	.LBB13_5
# %bb.21:                               # %ctrl4
	cmpl	$5, %eax
	je	.LBB13_6
# %bb.22:                               # %ctrl5
	cmpl	$6, %eax
	je	.LBB13_7
# %bb.23:                               # %ctrl6
	cmpl	$7, %eax
	je	.LBB13_8
# %bb.24:                               # %ctrl7
	cmpl	$8, %eax
	je	.LBB13_9
# %bb.25:                               # %ctrl8
	cmpl	$9, %eax
	je	.LBB13_10
# %bb.26:                               # %ctrl9
	cmpl	$10, %eax
	je	.LBB13_11
# %bb.27:                               # %ctrl10
	cmpl	$11, %eax
	je	.LBB13_12
# %bb.28:                               # %ctrl11
	cmpl	$12, %eax
	je	.LBB13_13
# %bb.29:                               # %ctrl12
	cmpl	$13, %eax
	je	.LBB13_14
# %bb.30:                               # %ctrl13
	cmpl	$14, %eax
	je	.LBB13_15
	jmp	.LBB13_16
.Lfunc_end13:
	.size	testf, .Lfunc_end13-testf
	.cfi_endproc
                                        # -- End function
	.p2align	4, 0x90         # -- Begin function showFileNames
	.type	showFileNames,@function
showFileNames:                          # @showFileNames
	.cfi_startproc
# %bb.0:                                # %entry
	pushq	%rbp
	.cfi_def_cfa_offset 16
	.cfi_offset %rbp, -16
	movq	%rsp, %rbp
	.cfi_def_cfa_register %rbp
	cmpb	$0, noisy
	je	.LBB14_2
# %bb.1:                                # %if.then
	movq	stderr, %rdi
	movabsq	$.L.str.38, %rsi
	movabsq	$inName, %rdx
	movabsq	$outName, %rcx
	movb	$0, %al
	callq	fprintf
.LBB14_2:                               # %if.end
	popq	%rbp
	.cfi_def_cfa %rsp, 8
	retq
.Lfunc_end14:
	.size	showFileNames, .Lfunc_end14-showFileNames
	.cfi_endproc
                                        # -- End function
	.p2align	4, 0x90         # -- Begin function cleanUpAndFail
	.type	cleanUpAndFail,@function
cleanUpAndFail:                         # @cleanUpAndFail
	.cfi_startproc
# %bb.0:                                # %rand_bb
	pushq	%rbp
	.cfi_def_cfa_offset 16
	.cfi_offset %rbp, -16
	movq	%rsp, %rbp
	.cfi_def_cfa_register %rbp
	pushq	%rbx
	pushq	%rax
	.cfi_offset %rbx, -24
	movl	%edi, %ebx
	callq	get_rand
	cmpl	$0, %eax
	jne	.LBB15_7
# %bb.1:                                # %func_cleanUpAndFail.1
	movl	%ebx, %edi
	callq	cleanUpAndFail.1
	addq	$8, %rsp
	popq	%rbx
	popq	%rbp
	.cfi_def_cfa %rsp, 8
	retq
.LBB15_2:                               # %func_cleanUpAndFail.7
	.cfi_def_cfa %rbp, 16
	movl	%ebx, %edi
	callq	cleanUpAndFail.7
	addq	$8, %rsp
	popq	%rbx
	popq	%rbp
	.cfi_def_cfa %rsp, 8
	retq
.LBB15_3:                               # %func_cleanUpAndFail.33
	.cfi_def_cfa %rbp, 16
	movl	%ebx, %edi
	callq	cleanUpAndFail.33
	addq	$8, %rsp
	popq	%rbx
	popq	%rbp
	.cfi_def_cfa %rsp, 8
	retq
.LBB15_4:                               # %func_cleanUpAndFail.54
	.cfi_def_cfa %rbp, 16
	movl	%ebx, %edi
	callq	cleanUpAndFail.54
	addq	$8, %rsp
	popq	%rbx
	popq	%rbp
	.cfi_def_cfa %rsp, 8
	retq
.LBB15_5:                               # %func_cleanUpAndFail.85
	.cfi_def_cfa %rbp, 16
	movl	%ebx, %edi
	callq	cleanUpAndFail.85
	addq	$8, %rsp
	popq	%rbx
	popq	%rbp
	.cfi_def_cfa %rsp, 8
	retq
.LBB15_6:                               # %func_cleanUpAndFail.87
	.cfi_def_cfa %rbp, 16
	movl	%ebx, %edi
	callq	cleanUpAndFail.87
	addq	$8, %rsp
	popq	%rbx
	popq	%rbp
	.cfi_def_cfa %rsp, 8
	retq
.LBB15_7:                               # %ctrl0
	.cfi_def_cfa %rbp, 16
	cmpl	$1, %eax
	je	.LBB15_2
# %bb.8:                                # %ctrl1
	cmpl	$2, %eax
	je	.LBB15_3
# %bb.9:                                # %ctrl2
	cmpl	$3, %eax
	je	.LBB15_4
# %bb.10:                               # %ctrl3
	cmpl	$4, %eax
	je	.LBB15_5
	jmp	.LBB15_6
.Lfunc_end15:
	.size	cleanUpAndFail, .Lfunc_end15-cleanUpAndFail
	.cfi_endproc
                                        # -- End function
	.p2align	4, 0x90         # -- Begin function cadvise
	.type	cadvise,@function
cadvise:                                # @cadvise
	.cfi_startproc
# %bb.0:                                # %entry
	pushq	%rbp
	.cfi_def_cfa_offset 16
	.cfi_offset %rbp, -16
	movq	%rsp, %rbp
	.cfi_def_cfa_register %rbp
	cmpb	$0, noisy
	je	.LBB16_2
# %bb.1:                                # %if.then
	movq	stderr, %rdi
	movabsq	$.L.str.46, %rsi
	movb	$0, %al
	callq	fprintf
.LBB16_2:                               # %if.end
	popq	%rbp
	.cfi_def_cfa %rsp, 8
	retq
.Lfunc_end16:
	.size	cadvise, .Lfunc_end16-cadvise
	.cfi_endproc
                                        # -- End function
	.p2align	4, 0x90         # -- Begin function mkCell
	.type	mkCell,@function
mkCell:                                 # @mkCell
	.cfi_startproc
# %bb.0:                                # %entry
	pushq	%rbp
	.cfi_def_cfa_offset 16
	.cfi_offset %rbp, -16
	movq	%rsp, %rbp
	.cfi_def_cfa_register %rbp
	subq	$16, %rsp
	movl	$16, %edi
	callq	myMalloc
	movq	%rax, -8(%rbp)
	movq	-8(%rbp), %rax
	movq	$0, (%rax)
	movq	-8(%rbp), %rax
	movq	$0, 8(%rax)
	movq	-8(%rbp), %rax
	addq	$16, %rsp
	popq	%rbp
	.cfi_def_cfa %rsp, 8
	retq
.Lfunc_end17:
	.size	mkCell, .Lfunc_end17-mkCell
	.cfi_endproc
                                        # -- End function
	.p2align	4, 0x90         # -- Begin function myMalloc
	.type	myMalloc,@function
myMalloc:                               # @myMalloc
	.cfi_startproc
# %bb.0:                                # %rand_bb
	pushq	%rbp
	.cfi_def_cfa_offset 16
	.cfi_offset %rbp, -16
	movq	%rsp, %rbp
	.cfi_def_cfa_register %rbp
	pushq	%rbx
	pushq	%rax
	.cfi_offset %rbx, -24
	movl	%edi, %ebx
	callq	get_rand
	cmpl	$0, %eax
	jne	.LBB18_2
# %bb.1:                                # %func_myMalloc.8
	movl	%ebx, %edi
	callq	myMalloc.8
	addq	$8, %rsp
	popq	%rbx
	popq	%rbp
	.cfi_def_cfa %rsp, 8
	retq
.LBB18_2:                               # %func_myMalloc.38
	.cfi_def_cfa %rbp, 16
	movl	%ebx, %edi
	callq	myMalloc.38
	addq	$8, %rsp
	popq	%rbx
	popq	%rbp
	.cfi_def_cfa %rsp, 8
	retq
.Lfunc_end18:
	.size	myMalloc, .Lfunc_end18-myMalloc
	.cfi_endproc
                                        # -- End function
	.p2align	4, 0x90         # -- Begin function outOfMemory
	.type	outOfMemory,@function
outOfMemory:                            # @outOfMemory
	.cfi_startproc
# %bb.0:                                # %entry
	pushq	%rbp
	.cfi_def_cfa_offset 16
	.cfi_offset %rbp, -16
	movq	%rsp, %rbp
	.cfi_def_cfa_register %rbp
	movq	stderr, %rdi
	movq	progName, %rdx
	movabsq	$.L.str.48, %rsi
	movb	$0, %al
	callq	fprintf
	callq	showFileNames
	movl	$1, %edi
	callq	cleanUpAndFail
.Lfunc_end19:
	.size	outOfMemory, .Lfunc_end19-outOfMemory
	.cfi_endproc
                                        # -- End function
	.p2align	4, 0x90         # -- Begin function panic
	.type	panic,@function
panic:                                  # @panic
	.cfi_startproc
# %bb.0:                                # %entry
	pushq	%rbp
	.cfi_def_cfa_offset 16
	.cfi_offset %rbp, -16
	movq	%rsp, %rbp
	.cfi_def_cfa_register %rbp
	subq	$16, %rsp
	movq	%rdi, -8(%rbp)
	movq	stderr, %rdi
	movq	progName, %rdx
	movq	-8(%rbp), %rcx
	movabsq	$.L.str.71, %rsi
	movb	$0, %al
	callq	fprintf
	callq	showFileNames
	movl	$3, %edi
	callq	cleanUpAndFail
.Lfunc_end20:
	.size	panic, .Lfunc_end20-panic
	.cfi_endproc
                                        # -- End function
	.p2align	4, 0x90         # -- Begin function containsDubiousChars
	.type	containsDubiousChars,@function
containsDubiousChars:                   # @containsDubiousChars
	.cfi_startproc
# %bb.0:                                # %entry
	pushq	%rbp
	.cfi_def_cfa_offset 16
	.cfi_offset %rbp, -16
	movq	%rsp, %rbp
	.cfi_def_cfa_register %rbp
	xorl	%eax, %eax
	movq	%rdi, -8(%rbp)
	movzbl	%al, %eax
	popq	%rbp
	.cfi_def_cfa %rsp, 8
	retq
.Lfunc_end21:
	.size	containsDubiousChars, .Lfunc_end21-containsDubiousChars
	.cfi_endproc
                                        # -- End function
	.p2align	4, 0x90         # -- Begin function fileExists
	.type	fileExists,@function
fileExists:                             # @fileExists
	.cfi_startproc
# %bb.0:                                # %rand_bb
	pushq	%rbp
	.cfi_def_cfa_offset 16
	.cfi_offset %rbp, -16
	movq	%rsp, %rbp
	.cfi_def_cfa_register %rbp
	pushq	%rbx
	pushq	%rax
	.cfi_offset %rbx, -24
	movq	%rdi, %rbx
	callq	get_rand
	cmpl	$0, %eax
	jne	.LBB22_7
# %bb.1:                                # %func_fileExists.6
	movq	%rbx, %rdi
	callq	fileExists.6
	movzbl	%al, %eax
	addq	$8, %rsp
	popq	%rbx
	popq	%rbp
	.cfi_def_cfa %rsp, 8
	retq
.LBB22_2:                               # %func_fileExists.31
	.cfi_def_cfa %rbp, 16
	movq	%rbx, %rdi
	callq	fileExists.31
	movzbl	%al, %eax
	addq	$8, %rsp
	popq	%rbx
	popq	%rbp
	.cfi_def_cfa %rsp, 8
	retq
.LBB22_3:                               # %func_fileExists.68
	.cfi_def_cfa %rbp, 16
	movq	%rbx, %rdi
	callq	fileExists.68
	movzbl	%al, %eax
	addq	$8, %rsp
	popq	%rbx
	popq	%rbp
	.cfi_def_cfa %rsp, 8
	retq
.LBB22_4:                               # %func_fileExists.161
	.cfi_def_cfa %rbp, 16
	movq	%rbx, %rdi
	callq	fileExists.161
	movzbl	%al, %eax
	addq	$8, %rsp
	popq	%rbx
	popq	%rbp
	.cfi_def_cfa %rsp, 8
	retq
.LBB22_5:                               # %func_fileExists.173
	.cfi_def_cfa %rbp, 16
	movq	%rbx, %rdi
	callq	fileExists.173
	movzbl	%al, %eax
	addq	$8, %rsp
	popq	%rbx
	popq	%rbp
	.cfi_def_cfa %rsp, 8
	retq
.LBB22_6:                               # %func_fileExists.209
	.cfi_def_cfa %rbp, 16
	movq	%rbx, %rdi
	callq	fileExists.209
	movzbl	%al, %eax
	addq	$8, %rsp
	popq	%rbx
	popq	%rbp
	.cfi_def_cfa %rsp, 8
	retq
.LBB22_7:                               # %ctrl0
	.cfi_def_cfa %rbp, 16
	cmpl	$1, %eax
	je	.LBB22_2
# %bb.8:                                # %ctrl1
	cmpl	$2, %eax
	je	.LBB22_3
# %bb.9:                                # %ctrl2
	cmpl	$3, %eax
	je	.LBB22_4
# %bb.10:                               # %ctrl3
	cmpl	$4, %eax
	je	.LBB22_5
	jmp	.LBB22_6
.Lfunc_end22:
	.size	fileExists, .Lfunc_end22-fileExists
	.cfi_endproc
                                        # -- End function
	.p2align	4, 0x90         # -- Begin function hasSuffix
	.type	hasSuffix,@function
hasSuffix:                              # @hasSuffix
	.cfi_startproc
# %bb.0:                                # %rand_bb
	pushq	%rbp
	.cfi_def_cfa_offset 16
	.cfi_offset %rbp, -16
	movq	%rsp, %rbp
	.cfi_def_cfa_register %rbp
	pushq	%r14
	pushq	%rbx
	.cfi_offset %rbx, -32
	.cfi_offset %r14, -24
	movq	%rsi, %r14
	movq	%rdi, %rbx
	callq	get_rand
	cmpl	$0, %eax
	jne	.LBB23_17
# %bb.1:                                # %func_hasSuffix.12
	movq	%rbx, %rdi
	movq	%r14, %rsi
	callq	hasSuffix.12
	movzbl	%al, %eax
	popq	%rbx
	popq	%r14
	popq	%rbp
	.cfi_def_cfa %rsp, 8
	retq
.LBB23_2:                               # %func_hasSuffix.45
	.cfi_def_cfa %rbp, 16
	movq	%rbx, %rdi
	movq	%r14, %rsi
	callq	hasSuffix.45
	movzbl	%al, %eax
	popq	%rbx
	popq	%r14
	popq	%rbp
	.cfi_def_cfa %rsp, 8
	retq
.LBB23_3:                               # %func_hasSuffix.63
	.cfi_def_cfa %rbp, 16
	movq	%rbx, %rdi
	movq	%r14, %rsi
	callq	hasSuffix.63
	movzbl	%al, %eax
	popq	%rbx
	popq	%r14
	popq	%rbp
	.cfi_def_cfa %rsp, 8
	retq
.LBB23_4:                               # %func_hasSuffix.84
	.cfi_def_cfa %rbp, 16
	movq	%rbx, %rdi
	movq	%r14, %rsi
	callq	hasSuffix.84
	movzbl	%al, %eax
	popq	%rbx
	popq	%r14
	popq	%rbp
	.cfi_def_cfa %rsp, 8
	retq
.LBB23_5:                               # %func_hasSuffix.109
	.cfi_def_cfa %rbp, 16
	movq	%rbx, %rdi
	movq	%r14, %rsi
	callq	hasSuffix.109
	movzbl	%al, %eax
	popq	%rbx
	popq	%r14
	popq	%rbp
	.cfi_def_cfa %rsp, 8
	retq
.LBB23_6:                               # %func_hasSuffix.125
	.cfi_def_cfa %rbp, 16
	movq	%rbx, %rdi
	movq	%r14, %rsi
	callq	hasSuffix.125
	movzbl	%al, %eax
	popq	%rbx
	popq	%r14
	popq	%rbp
	.cfi_def_cfa %rsp, 8
	retq
.LBB23_7:                               # %func_hasSuffix.130
	.cfi_def_cfa %rbp, 16
	movq	%rbx, %rdi
	movq	%r14, %rsi
	callq	hasSuffix.130
	movzbl	%al, %eax
	popq	%rbx
	popq	%r14
	popq	%rbp
	.cfi_def_cfa %rsp, 8
	retq
.LBB23_8:                               # %func_hasSuffix.131
	.cfi_def_cfa %rbp, 16
	movq	%rbx, %rdi
	movq	%r14, %rsi
	callq	hasSuffix.131
	movzbl	%al, %eax
	popq	%rbx
	popq	%r14
	popq	%rbp
	.cfi_def_cfa %rsp, 8
	retq
.LBB23_9:                               # %func_hasSuffix.156
	.cfi_def_cfa %rbp, 16
	movq	%rbx, %rdi
	movq	%r14, %rsi
	callq	hasSuffix.156
	movzbl	%al, %eax
	popq	%rbx
	popq	%r14
	popq	%rbp
	.cfi_def_cfa %rsp, 8
	retq
.LBB23_10:                              # %func_hasSuffix.208
	.cfi_def_cfa %rbp, 16
	movq	%rbx, %rdi
	movq	%r14, %rsi
	callq	hasSuffix.208
	movzbl	%al, %eax
	popq	%rbx
	popq	%r14
	popq	%rbp
	.cfi_def_cfa %rsp, 8
	retq
.LBB23_11:                              # %func_hasSuffix.241
	.cfi_def_cfa %rbp, 16
	movq	%rbx, %rdi
	movq	%r14, %rsi
	callq	hasSuffix.241
	movzbl	%al, %eax
	popq	%rbx
	popq	%r14
	popq	%rbp
	.cfi_def_cfa %rsp, 8
	retq
.LBB23_12:                              # %func_hasSuffix.257
	.cfi_def_cfa %rbp, 16
	movq	%rbx, %rdi
	movq	%r14, %rsi
	callq	hasSuffix.257
	movzbl	%al, %eax
	popq	%rbx
	popq	%r14
	popq	%rbp
	.cfi_def_cfa %rsp, 8
	retq
.LBB23_13:                              # %func_hasSuffix.262
	.cfi_def_cfa %rbp, 16
	movq	%rbx, %rdi
	movq	%r14, %rsi
	callq	hasSuffix.262
	movzbl	%al, %eax
	popq	%rbx
	popq	%r14
	popq	%rbp
	.cfi_def_cfa %rsp, 8
	retq
.LBB23_14:                              # %func_hasSuffix.263
	.cfi_def_cfa %rbp, 16
	movq	%rbx, %rdi
	movq	%r14, %rsi
	callq	hasSuffix.263
	movzbl	%al, %eax
	popq	%rbx
	popq	%r14
	popq	%rbp
	.cfi_def_cfa %rsp, 8
	retq
.LBB23_15:                              # %func_hasSuffix.266
	.cfi_def_cfa %rbp, 16
	movq	%rbx, %rdi
	movq	%r14, %rsi
	callq	hasSuffix.266
	movzbl	%al, %eax
	popq	%rbx
	popq	%r14
	popq	%rbp
	.cfi_def_cfa %rsp, 8
	retq
.LBB23_16:                              # %func_hasSuffix.277
	.cfi_def_cfa %rbp, 16
	movq	%rbx, %rdi
	movq	%r14, %rsi
	callq	hasSuffix.277
	movzbl	%al, %eax
	popq	%rbx
	popq	%r14
	popq	%rbp
	.cfi_def_cfa %rsp, 8
	retq
.LBB23_17:                              # %ctrl0
	.cfi_def_cfa %rbp, 16
	cmpl	$1, %eax
	je	.LBB23_2
# %bb.18:                               # %ctrl1
	cmpl	$2, %eax
	je	.LBB23_3
# %bb.19:                               # %ctrl2
	cmpl	$3, %eax
	je	.LBB23_4
# %bb.20:                               # %ctrl3
	cmpl	$4, %eax
	je	.LBB23_5
# %bb.21:                               # %ctrl4
	cmpl	$5, %eax
	je	.LBB23_6
# %bb.22:                               # %ctrl5
	cmpl	$6, %eax
	je	.LBB23_7
# %bb.23:                               # %ctrl6
	cmpl	$7, %eax
	je	.LBB23_8
# %bb.24:                               # %ctrl7
	cmpl	$8, %eax
	je	.LBB23_9
# %bb.25:                               # %ctrl8
	cmpl	$9, %eax
	je	.LBB23_10
# %bb.26:                               # %ctrl9
	cmpl	$10, %eax
	je	.LBB23_11
# %bb.27:                               # %ctrl10
	cmpl	$11, %eax
	je	.LBB23_12
# %bb.28:                               # %ctrl11
	cmpl	$12, %eax
	je	.LBB23_13
# %bb.29:                               # %ctrl12
	cmpl	$13, %eax
	je	.LBB23_14
# %bb.30:                               # %ctrl13
	cmpl	$14, %eax
	je	.LBB23_15
	jmp	.LBB23_16
.Lfunc_end23:
	.size	hasSuffix, .Lfunc_end23-hasSuffix
	.cfi_endproc
                                        # -- End function
	.p2align	4, 0x90         # -- Begin function notAStandardFile
	.type	notAStandardFile,@function
notAStandardFile:                       # @notAStandardFile
	.cfi_startproc
# %bb.0:                                # %rand_bb
	pushq	%rbp
	.cfi_def_cfa_offset 16
	.cfi_offset %rbp, -16
	movq	%rsp, %rbp
	.cfi_def_cfa_register %rbp
	pushq	%rbx
	pushq	%rax
	.cfi_offset %rbx, -24
	movq	%rdi, %rbx
	callq	get_rand
	cmpl	$0, %eax
	jne	.LBB24_17
# %bb.1:                                # %func_notAStandardFile.21
	movq	%rbx, %rdi
	callq	notAStandardFile.21
	movzbl	%al, %eax
	addq	$8, %rsp
	popq	%rbx
	popq	%rbp
	.cfi_def_cfa %rsp, 8
	retq
.LBB24_2:                               # %func_notAStandardFile.32
	.cfi_def_cfa %rbp, 16
	movq	%rbx, %rdi
	callq	notAStandardFile.32
	movzbl	%al, %eax
	addq	$8, %rsp
	popq	%rbx
	popq	%rbp
	.cfi_def_cfa %rsp, 8
	retq
.LBB24_3:                               # %func_notAStandardFile.37
	.cfi_def_cfa %rbp, 16
	movq	%rbx, %rdi
	callq	notAStandardFile.37
	movzbl	%al, %eax
	addq	$8, %rsp
	popq	%rbx
	popq	%rbp
	.cfi_def_cfa %rsp, 8
	retq
.LBB24_4:                               # %func_notAStandardFile.57
	.cfi_def_cfa %rbp, 16
	movq	%rbx, %rdi
	callq	notAStandardFile.57
	movzbl	%al, %eax
	addq	$8, %rsp
	popq	%rbx
	popq	%rbp
	.cfi_def_cfa %rsp, 8
	retq
.LBB24_5:                               # %func_notAStandardFile.65
	.cfi_def_cfa %rbp, 16
	movq	%rbx, %rdi
	callq	notAStandardFile.65
	movzbl	%al, %eax
	addq	$8, %rsp
	popq	%rbx
	popq	%rbp
	.cfi_def_cfa %rsp, 8
	retq
.LBB24_6:                               # %func_notAStandardFile.81
	.cfi_def_cfa %rbp, 16
	movq	%rbx, %rdi
	callq	notAStandardFile.81
	movzbl	%al, %eax
	addq	$8, %rsp
	popq	%rbx
	popq	%rbp
	.cfi_def_cfa %rsp, 8
	retq
.LBB24_7:                               # %func_notAStandardFile.90
	.cfi_def_cfa %rbp, 16
	movq	%rbx, %rdi
	callq	notAStandardFile.90
	movzbl	%al, %eax
	addq	$8, %rsp
	popq	%rbx
	popq	%rbp
	.cfi_def_cfa %rsp, 8
	retq
.LBB24_8:                               # %func_notAStandardFile.94
	.cfi_def_cfa %rbp, 16
	movq	%rbx, %rdi
	callq	notAStandardFile.94
	movzbl	%al, %eax
	addq	$8, %rsp
	popq	%rbx
	popq	%rbp
	.cfi_def_cfa %rsp, 8
	retq
.LBB24_9:                               # %func_notAStandardFile.111
	.cfi_def_cfa %rbp, 16
	movq	%rbx, %rdi
	callq	notAStandardFile.111
	movzbl	%al, %eax
	addq	$8, %rsp
	popq	%rbx
	popq	%rbp
	.cfi_def_cfa %rsp, 8
	retq
.LBB24_10:                              # %func_notAStandardFile.122
	.cfi_def_cfa %rbp, 16
	movq	%rbx, %rdi
	callq	notAStandardFile.122
	movzbl	%al, %eax
	addq	$8, %rsp
	popq	%rbx
	popq	%rbp
	.cfi_def_cfa %rsp, 8
	retq
.LBB24_11:                              # %func_notAStandardFile.129
	.cfi_def_cfa %rbp, 16
	movq	%rbx, %rdi
	callq	notAStandardFile.129
	movzbl	%al, %eax
	addq	$8, %rsp
	popq	%rbx
	popq	%rbp
	.cfi_def_cfa %rsp, 8
	retq
.LBB24_12:                              # %func_notAStandardFile.169
	.cfi_def_cfa %rbp, 16
	movq	%rbx, %rdi
	callq	notAStandardFile.169
	movzbl	%al, %eax
	addq	$8, %rsp
	popq	%rbx
	popq	%rbp
	.cfi_def_cfa %rsp, 8
	retq
.LBB24_13:                              # %func_notAStandardFile.171
	.cfi_def_cfa %rbp, 16
	movq	%rbx, %rdi
	callq	notAStandardFile.171
	movzbl	%al, %eax
	addq	$8, %rsp
	popq	%rbx
	popq	%rbp
	.cfi_def_cfa %rsp, 8
	retq
.LBB24_14:                              # %func_notAStandardFile.180
	.cfi_def_cfa %rbp, 16
	movq	%rbx, %rdi
	callq	notAStandardFile.180
	movzbl	%al, %eax
	addq	$8, %rsp
	popq	%rbx
	popq	%rbp
	.cfi_def_cfa %rsp, 8
	retq
.LBB24_15:                              # %func_notAStandardFile.188
	.cfi_def_cfa %rbp, 16
	movq	%rbx, %rdi
	callq	notAStandardFile.188
	movzbl	%al, %eax
	addq	$8, %rsp
	popq	%rbx
	popq	%rbp
	.cfi_def_cfa %rsp, 8
	retq
.LBB24_16:                              # %func_notAStandardFile.220
	.cfi_def_cfa %rbp, 16
	movq	%rbx, %rdi
	callq	notAStandardFile.220
	movzbl	%al, %eax
	addq	$8, %rsp
	popq	%rbx
	popq	%rbp
	.cfi_def_cfa %rsp, 8
	retq
.LBB24_17:                              # %ctrl0
	.cfi_def_cfa %rbp, 16
	cmpl	$1, %eax
	je	.LBB24_2
# %bb.18:                               # %ctrl1
	cmpl	$2, %eax
	je	.LBB24_3
# %bb.19:                               # %ctrl2
	cmpl	$3, %eax
	je	.LBB24_4
# %bb.20:                               # %ctrl3
	cmpl	$4, %eax
	je	.LBB24_5
# %bb.21:                               # %ctrl4
	cmpl	$5, %eax
	je	.LBB24_6
# %bb.22:                               # %ctrl5
	cmpl	$6, %eax
	je	.LBB24_7
# %bb.23:                               # %ctrl6
	cmpl	$7, %eax
	je	.LBB24_8
# %bb.24:                               # %ctrl7
	cmpl	$8, %eax
	je	.LBB24_9
# %bb.25:                               # %ctrl8
	cmpl	$9, %eax
	je	.LBB24_10
# %bb.26:                               # %ctrl9
	cmpl	$10, %eax
	je	.LBB24_11
# %bb.27:                               # %ctrl10
	cmpl	$11, %eax
	je	.LBB24_12
# %bb.28:                               # %ctrl11
	cmpl	$12, %eax
	je	.LBB24_13
# %bb.29:                               # %ctrl12
	cmpl	$13, %eax
	je	.LBB24_14
# %bb.30:                               # %ctrl13
	cmpl	$14, %eax
	je	.LBB24_15
	jmp	.LBB24_16
.Lfunc_end24:
	.size	notAStandardFile, .Lfunc_end24-notAStandardFile
	.cfi_endproc
                                        # -- End function
	.p2align	4, 0x90         # -- Begin function countHardLinks
	.type	countHardLinks,@function
countHardLinks:                         # @countHardLinks
	.cfi_startproc
# %bb.0:                                # %rand_bb
	pushq	%rbp
	.cfi_def_cfa_offset 16
	.cfi_offset %rbp, -16
	movq	%rsp, %rbp
	.cfi_def_cfa_register %rbp
	pushq	%rbx
	pushq	%rax
	.cfi_offset %rbx, -24
	movq	%rdi, %rbx
	callq	get_rand
	cmpl	$0, %eax
	jne	.LBB25_17
# %bb.1:                                # %func_countHardLinks.5
	movq	%rbx, %rdi
	callq	countHardLinks.5
	addq	$8, %rsp
	popq	%rbx
	popq	%rbp
	.cfi_def_cfa %rsp, 8
	retq
.LBB25_2:                               # %func_countHardLinks.17
	.cfi_def_cfa %rbp, 16
	movq	%rbx, %rdi
	callq	countHardLinks.17
	addq	$8, %rsp
	popq	%rbx
	popq	%rbp
	.cfi_def_cfa %rsp, 8
	retq
.LBB25_3:                               # %func_countHardLinks.56
	.cfi_def_cfa %rbp, 16
	movq	%rbx, %rdi
	callq	countHardLinks.56
	addq	$8, %rsp
	popq	%rbx
	popq	%rbp
	.cfi_def_cfa %rsp, 8
	retq
.LBB25_4:                               # %func_countHardLinks.60
	.cfi_def_cfa %rbp, 16
	movq	%rbx, %rdi
	callq	countHardLinks.60
	addq	$8, %rsp
	popq	%rbx
	popq	%rbp
	.cfi_def_cfa %rsp, 8
	retq
.LBB25_5:                               # %func_countHardLinks.106
	.cfi_def_cfa %rbp, 16
	movq	%rbx, %rdi
	callq	countHardLinks.106
	addq	$8, %rsp
	popq	%rbx
	popq	%rbp
	.cfi_def_cfa %rsp, 8
	retq
.LBB25_6:                               # %func_countHardLinks.115
	.cfi_def_cfa %rbp, 16
	movq	%rbx, %rdi
	callq	countHardLinks.115
	addq	$8, %rsp
	popq	%rbx
	popq	%rbp
	.cfi_def_cfa %rsp, 8
	retq
.LBB25_7:                               # %func_countHardLinks.136
	.cfi_def_cfa %rbp, 16
	movq	%rbx, %rdi
	callq	countHardLinks.136
	addq	$8, %rsp
	popq	%rbx
	popq	%rbp
	.cfi_def_cfa %rsp, 8
	retq
.LBB25_8:                               # %func_countHardLinks.167
	.cfi_def_cfa %rbp, 16
	movq	%rbx, %rdi
	callq	countHardLinks.167
	addq	$8, %rsp
	popq	%rbx
	popq	%rbp
	.cfi_def_cfa %rsp, 8
	retq
.LBB25_9:                               # %func_countHardLinks.191
	.cfi_def_cfa %rbp, 16
	movq	%rbx, %rdi
	callq	countHardLinks.191
	addq	$8, %rsp
	popq	%rbx
	popq	%rbp
	.cfi_def_cfa %rsp, 8
	retq
.LBB25_10:                              # %func_countHardLinks.200
	.cfi_def_cfa %rbp, 16
	movq	%rbx, %rdi
	callq	countHardLinks.200
	addq	$8, %rsp
	popq	%rbx
	popq	%rbp
	.cfi_def_cfa %rsp, 8
	retq
.LBB25_11:                              # %func_countHardLinks.203
	.cfi_def_cfa %rbp, 16
	movq	%rbx, %rdi
	callq	countHardLinks.203
	addq	$8, %rsp
	popq	%rbx
	popq	%rbp
	.cfi_def_cfa %rsp, 8
	retq
.LBB25_12:                              # %func_countHardLinks.205
	.cfi_def_cfa %rbp, 16
	movq	%rbx, %rdi
	callq	countHardLinks.205
	addq	$8, %rsp
	popq	%rbx
	popq	%rbp
	.cfi_def_cfa %rsp, 8
	retq
.LBB25_13:                              # %func_countHardLinks.214
	.cfi_def_cfa %rbp, 16
	movq	%rbx, %rdi
	callq	countHardLinks.214
	addq	$8, %rsp
	popq	%rbx
	popq	%rbp
	.cfi_def_cfa %rsp, 8
	retq
.LBB25_14:                              # %func_countHardLinks.228
	.cfi_def_cfa %rbp, 16
	movq	%rbx, %rdi
	callq	countHardLinks.228
	addq	$8, %rsp
	popq	%rbx
	popq	%rbp
	.cfi_def_cfa %rsp, 8
	retq
.LBB25_15:                              # %func_countHardLinks.250
	.cfi_def_cfa %rbp, 16
	movq	%rbx, %rdi
	callq	countHardLinks.250
	addq	$8, %rsp
	popq	%rbx
	popq	%rbp
	.cfi_def_cfa %rsp, 8
	retq
.LBB25_16:                              # %func_countHardLinks.274
	.cfi_def_cfa %rbp, 16
	movq	%rbx, %rdi
	callq	countHardLinks.274
	addq	$8, %rsp
	popq	%rbx
	popq	%rbp
	.cfi_def_cfa %rsp, 8
	retq
.LBB25_17:                              # %ctrl0
	.cfi_def_cfa %rbp, 16
	cmpl	$1, %eax
	je	.LBB25_2
# %bb.18:                               # %ctrl1
	cmpl	$2, %eax
	je	.LBB25_3
# %bb.19:                               # %ctrl2
	cmpl	$3, %eax
	je	.LBB25_4
# %bb.20:                               # %ctrl3
	cmpl	$4, %eax
	je	.LBB25_5
# %bb.21:                               # %ctrl4
	cmpl	$5, %eax
	je	.LBB25_6
# %bb.22:                               # %ctrl5
	cmpl	$6, %eax
	je	.LBB25_7
# %bb.23:                               # %ctrl6
	cmpl	$7, %eax
	je	.LBB25_8
# %bb.24:                               # %ctrl7
	cmpl	$8, %eax
	je	.LBB25_9
# %bb.25:                               # %ctrl8
	cmpl	$9, %eax
	je	.LBB25_10
# %bb.26:                               # %ctrl9
	cmpl	$10, %eax
	je	.LBB25_11
# %bb.27:                               # %ctrl10
	cmpl	$11, %eax
	je	.LBB25_12
# %bb.28:                               # %ctrl11
	cmpl	$12, %eax
	je	.LBB25_13
# %bb.29:                               # %ctrl12
	cmpl	$13, %eax
	je	.LBB25_14
# %bb.30:                               # %ctrl13
	cmpl	$14, %eax
	je	.LBB25_15
	jmp	.LBB25_16
.Lfunc_end25:
	.size	countHardLinks, .Lfunc_end25-countHardLinks
	.cfi_endproc
                                        # -- End function
	.p2align	4, 0x90         # -- Begin function saveInputFileMetaInfo
	.type	saveInputFileMetaInfo,@function
saveInputFileMetaInfo:                  # @saveInputFileMetaInfo
	.cfi_startproc
# %bb.0:                                # %rand_bb
	pushq	%rbp
	.cfi_def_cfa_offset 16
	.cfi_offset %rbp, -16
	movq	%rsp, %rbp
	.cfi_def_cfa_register %rbp
	pushq	%rbx
	pushq	%rax
	.cfi_offset %rbx, -24
	movq	%rdi, %rbx
	callq	get_rand
	cmpl	$0, %eax
	jne	.LBB26_2
# %bb.1:                                # %func_saveInputFileMetaInfo.92
	movq	%rbx, %rdi
	callq	saveInputFileMetaInfo.92
	addq	$8, %rsp
	popq	%rbx
	popq	%rbp
	.cfi_def_cfa %rsp, 8
	retq
.LBB26_2:                               # %func_saveInputFileMetaInfo.93
	.cfi_def_cfa %rbp, 16
	movq	%rbx, %rdi
	callq	saveInputFileMetaInfo.93
	addq	$8, %rsp
	popq	%rbx
	popq	%rbp
	.cfi_def_cfa %rsp, 8
	retq
.Lfunc_end26:
	.size	saveInputFileMetaInfo, .Lfunc_end26-saveInputFileMetaInfo
	.cfi_endproc
                                        # -- End function
	.p2align	4, 0x90         # -- Begin function pad
	.type	pad,@function
pad:                                    # @pad
	.cfi_startproc
# %bb.0:                                # %rand_bb
	pushq	%rbp
	.cfi_def_cfa_offset 16
	.cfi_offset %rbp, -16
	movq	%rsp, %rbp
	.cfi_def_cfa_register %rbp
	pushq	%rbx
	pushq	%rax
	.cfi_offset %rbx, -24
	movq	%rdi, %rbx
	callq	get_rand
	cmpl	$0, %eax
	jne	.LBB27_2
# %bb.1:                                # %func_pad.13
	movq	%rbx, %rdi
	callq	pad.13
	addq	$8, %rsp
	popq	%rbx
	popq	%rbp
	.cfi_def_cfa %rsp, 8
	retq
.LBB27_2:                               # %func_pad.15
	.cfi_def_cfa %rbp, 16
	movq	%rbx, %rdi
	callq	pad.15
	addq	$8, %rsp
	popq	%rbx
	popq	%rbp
	.cfi_def_cfa %rsp, 8
	retq
.Lfunc_end27:
	.size	pad, .Lfunc_end27-pad
	.cfi_endproc
                                        # -- End function
	.p2align	4, 0x90         # -- Begin function compressStream
	.type	compressStream,@function
compressStream:                         # @compressStream
	.cfi_startproc
# %bb.0:                                # %rand_bb
	pushq	%rbp
	.cfi_def_cfa_offset 16
	.cfi_offset %rbp, -16
	movq	%rsp, %rbp
	.cfi_def_cfa_register %rbp
	pushq	%r14
	pushq	%rbx
	.cfi_offset %rbx, -32
	.cfi_offset %r14, -24
	movq	%rsi, %r14
	movq	%rdi, %rbx
	callq	get_rand
	cmpl	$0, %eax
	jne	.LBB28_17
# %bb.1:                                # %func_compressStream.29
	movq	%rbx, %rdi
	movq	%r14, %rsi
	callq	compressStream.29
	popq	%rbx
	popq	%r14
	popq	%rbp
	.cfi_def_cfa %rsp, 8
	retq
.LBB28_2:                               # %func_compressStream.73
	.cfi_def_cfa %rbp, 16
	movq	%rbx, %rdi
	movq	%r14, %rsi
	callq	compressStream.73
	popq	%rbx
	popq	%r14
	popq	%rbp
	.cfi_def_cfa %rsp, 8
	retq
.LBB28_3:                               # %func_compressStream.79
	.cfi_def_cfa %rbp, 16
	movq	%rbx, %rdi
	movq	%r14, %rsi
	callq	compressStream.79
	popq	%rbx
	popq	%r14
	popq	%rbp
	.cfi_def_cfa %rsp, 8
	retq
.LBB28_4:                               # %func_compressStream.140
	.cfi_def_cfa %rbp, 16
	movq	%rbx, %rdi
	movq	%r14, %rsi
	callq	compressStream.140
	popq	%rbx
	popq	%r14
	popq	%rbp
	.cfi_def_cfa %rsp, 8
	retq
.LBB28_5:                               # %func_compressStream.159
	.cfi_def_cfa %rbp, 16
	movq	%rbx, %rdi
	movq	%r14, %rsi
	callq	compressStream.159
	popq	%rbx
	popq	%r14
	popq	%rbp
	.cfi_def_cfa %rsp, 8
	retq
.LBB28_6:                               # %func_compressStream.179
	.cfi_def_cfa %rbp, 16
	movq	%rbx, %rdi
	movq	%r14, %rsi
	callq	compressStream.179
	popq	%rbx
	popq	%r14
	popq	%rbp
	.cfi_def_cfa %rsp, 8
	retq
.LBB28_7:                               # %func_compressStream.181
	.cfi_def_cfa %rbp, 16
	movq	%rbx, %rdi
	movq	%r14, %rsi
	callq	compressStream.181
	popq	%rbx
	popq	%r14
	popq	%rbp
	.cfi_def_cfa %rsp, 8
	retq
.LBB28_8:                               # %func_compressStream.184
	.cfi_def_cfa %rbp, 16
	movq	%rbx, %rdi
	movq	%r14, %rsi
	callq	compressStream.184
	popq	%rbx
	popq	%r14
	popq	%rbp
	.cfi_def_cfa %rsp, 8
	retq
.LBB28_9:                               # %func_compressStream.187
	.cfi_def_cfa %rbp, 16
	movq	%rbx, %rdi
	movq	%r14, %rsi
	callq	compressStream.187
	popq	%rbx
	popq	%r14
	popq	%rbp
	.cfi_def_cfa %rsp, 8
	retq
.LBB28_10:                              # %func_compressStream.227
	.cfi_def_cfa %rbp, 16
	movq	%rbx, %rdi
	movq	%r14, %rsi
	callq	compressStream.227
	popq	%rbx
	popq	%r14
	popq	%rbp
	.cfi_def_cfa %rsp, 8
	retq
.LBB28_11:                              # %func_compressStream.232
	.cfi_def_cfa %rbp, 16
	movq	%rbx, %rdi
	movq	%r14, %rsi
	callq	compressStream.232
	popq	%rbx
	popq	%r14
	popq	%rbp
	.cfi_def_cfa %rsp, 8
	retq
.LBB28_12:                              # %func_compressStream.236
	.cfi_def_cfa %rbp, 16
	movq	%rbx, %rdi
	movq	%r14, %rsi
	callq	compressStream.236
	popq	%rbx
	popq	%r14
	popq	%rbp
	.cfi_def_cfa %rsp, 8
	retq
.LBB28_13:                              # %func_compressStream.244
	.cfi_def_cfa %rbp, 16
	movq	%rbx, %rdi
	movq	%r14, %rsi
	callq	compressStream.244
	popq	%rbx
	popq	%r14
	popq	%rbp
	.cfi_def_cfa %rsp, 8
	retq
.LBB28_14:                              # %func_compressStream.253
	.cfi_def_cfa %rbp, 16
	movq	%rbx, %rdi
	movq	%r14, %rsi
	callq	compressStream.253
	popq	%rbx
	popq	%r14
	popq	%rbp
	.cfi_def_cfa %rsp, 8
	retq
.LBB28_15:                              # %func_compressStream.267
	.cfi_def_cfa %rbp, 16
	movq	%rbx, %rdi
	movq	%r14, %rsi
	callq	compressStream.267
	popq	%rbx
	popq	%r14
	popq	%rbp
	.cfi_def_cfa %rsp, 8
	retq
.LBB28_16:                              # %func_compressStream.284
	.cfi_def_cfa %rbp, 16
	movq	%rbx, %rdi
	movq	%r14, %rsi
	callq	compressStream.284
	popq	%rbx
	popq	%r14
	popq	%rbp
	.cfi_def_cfa %rsp, 8
	retq
.LBB28_17:                              # %ctrl0
	.cfi_def_cfa %rbp, 16
	cmpl	$1, %eax
	je	.LBB28_2
# %bb.18:                               # %ctrl1
	cmpl	$2, %eax
	je	.LBB28_3
# %bb.19:                               # %ctrl2
	cmpl	$3, %eax
	je	.LBB28_4
# %bb.20:                               # %ctrl3
	cmpl	$4, %eax
	je	.LBB28_5
# %bb.21:                               # %ctrl4
	cmpl	$5, %eax
	je	.LBB28_6
# %bb.22:                               # %ctrl5
	cmpl	$6, %eax
	je	.LBB28_7
# %bb.23:                               # %ctrl6
	cmpl	$7, %eax
	je	.LBB28_8
# %bb.24:                               # %ctrl7
	cmpl	$8, %eax
	je	.LBB28_9
# %bb.25:                               # %ctrl8
	cmpl	$9, %eax
	je	.LBB28_10
# %bb.26:                               # %ctrl9
	cmpl	$10, %eax
	je	.LBB28_11
# %bb.27:                               # %ctrl10
	cmpl	$11, %eax
	je	.LBB28_12
# %bb.28:                               # %ctrl11
	cmpl	$12, %eax
	je	.LBB28_13
# %bb.29:                               # %ctrl12
	cmpl	$13, %eax
	je	.LBB28_14
# %bb.30:                               # %ctrl13
	cmpl	$14, %eax
	je	.LBB28_15
	jmp	.LBB28_16
.Lfunc_end28:
	.size	compressStream, .Lfunc_end28-compressStream
	.cfi_endproc
                                        # -- End function
	.p2align	4, 0x90         # -- Begin function applySavedMetaInfoToOutputFile
	.type	applySavedMetaInfoToOutputFile,@function
applySavedMetaInfoToOutputFile:         # @applySavedMetaInfoToOutputFile
	.cfi_startproc
# %bb.0:                                # %rand_bb
	pushq	%rbp
	.cfi_def_cfa_offset 16
	.cfi_offset %rbp, -16
	movq	%rsp, %rbp
	.cfi_def_cfa_register %rbp
	pushq	%rbx
	pushq	%rax
	.cfi_offset %rbx, -24
	movq	%rdi, %rbx
	callq	get_rand
	cmpl	$0, %eax
	jne	.LBB29_7
# %bb.1:                                # %func_applySavedMetaInfoToOutputFile.119
	movq	%rbx, %rdi
	callq	applySavedMetaInfoToOutputFile.119
	addq	$8, %rsp
	popq	%rbx
	popq	%rbp
	.cfi_def_cfa %rsp, 8
	retq
.LBB29_2:                               # %func_applySavedMetaInfoToOutputFile.157
	.cfi_def_cfa %rbp, 16
	movq	%rbx, %rdi
	callq	applySavedMetaInfoToOutputFile.157
	addq	$8, %rsp
	popq	%rbx
	popq	%rbp
	.cfi_def_cfa %rsp, 8
	retq
.LBB29_3:                               # %func_applySavedMetaInfoToOutputFile.165
	.cfi_def_cfa %rbp, 16
	movq	%rbx, %rdi
	callq	applySavedMetaInfoToOutputFile.165
	addq	$8, %rsp
	popq	%rbx
	popq	%rbp
	.cfi_def_cfa %rsp, 8
	retq
.LBB29_4:                               # %func_applySavedMetaInfoToOutputFile.177
	.cfi_def_cfa %rbp, 16
	movq	%rbx, %rdi
	callq	applySavedMetaInfoToOutputFile.177
	addq	$8, %rsp
	popq	%rbx
	popq	%rbp
	.cfi_def_cfa %rsp, 8
	retq
.LBB29_5:                               # %func_applySavedMetaInfoToOutputFile.178
	.cfi_def_cfa %rbp, 16
	movq	%rbx, %rdi
	callq	applySavedMetaInfoToOutputFile.178
	addq	$8, %rsp
	popq	%rbx
	popq	%rbp
	.cfi_def_cfa %rsp, 8
	retq
.LBB29_6:                               # %func_applySavedMetaInfoToOutputFile.183
	.cfi_def_cfa %rbp, 16
	movq	%rbx, %rdi
	callq	applySavedMetaInfoToOutputFile.183
	addq	$8, %rsp
	popq	%rbx
	popq	%rbp
	.cfi_def_cfa %rsp, 8
	retq
.LBB29_7:                               # %ctrl0
	.cfi_def_cfa %rbp, 16
	cmpl	$1, %eax
	je	.LBB29_2
# %bb.8:                                # %ctrl1
	cmpl	$2, %eax
	je	.LBB29_3
# %bb.9:                                # %ctrl2
	cmpl	$3, %eax
	je	.LBB29_4
# %bb.10:                               # %ctrl3
	cmpl	$4, %eax
	je	.LBB29_5
	jmp	.LBB29_6
.Lfunc_end29:
	.size	applySavedMetaInfoToOutputFile, .Lfunc_end29-applySavedMetaInfoToOutputFile
	.cfi_endproc
                                        # -- End function
	.p2align	4, 0x90         # -- Begin function ioError
	.type	ioError,@function
ioError:                                # @ioError
	.cfi_startproc
# %bb.0:                                # %entry
	pushq	%rbp
	.cfi_def_cfa_offset 16
	.cfi_offset %rbp, -16
	movq	%rsp, %rbp
	.cfi_def_cfa_register %rbp
	movq	stderr, %rdi
	movq	progName, %rdx
	movabsq	$.L.str.78, %rsi
	movb	$0, %al
	callq	fprintf
	movq	progName, %rdi
	callq	perror
	callq	showFileNames
	movl	$1, %edi
	callq	cleanUpAndFail
.Lfunc_end30:
	.size	ioError, .Lfunc_end30-ioError
	.cfi_endproc
                                        # -- End function
	.p2align	4, 0x90         # -- Begin function myfeof
	.type	myfeof,@function
myfeof:                                 # @myfeof
	.cfi_startproc
# %bb.0:                                # %rand_bb
	pushq	%rbp
	.cfi_def_cfa_offset 16
	.cfi_offset %rbp, -16
	movq	%rsp, %rbp
	.cfi_def_cfa_register %rbp
	pushq	%rbx
	pushq	%rax
	.cfi_offset %rbx, -24
	movq	%rdi, %rbx
	callq	get_rand
	cmpl	$0, %eax
	jne	.LBB31_7
# %bb.1:                                # %func_myfeof.74
	movq	%rbx, %rdi
	callq	myfeof.74
	movzbl	%al, %eax
	addq	$8, %rsp
	popq	%rbx
	popq	%rbp
	.cfi_def_cfa %rsp, 8
	retq
.LBB31_2:                               # %func_myfeof.88
	.cfi_def_cfa %rbp, 16
	movq	%rbx, %rdi
	callq	myfeof.88
	movzbl	%al, %eax
	addq	$8, %rsp
	popq	%rbx
	popq	%rbp
	.cfi_def_cfa %rsp, 8
	retq
.LBB31_3:                               # %func_myfeof.102
	.cfi_def_cfa %rbp, 16
	movq	%rbx, %rdi
	callq	myfeof.102
	movzbl	%al, %eax
	addq	$8, %rsp
	popq	%rbx
	popq	%rbp
	.cfi_def_cfa %rsp, 8
	retq
.LBB31_4:                               # %func_myfeof.117
	.cfi_def_cfa %rbp, 16
	movq	%rbx, %rdi
	callq	myfeof.117
	movzbl	%al, %eax
	addq	$8, %rsp
	popq	%rbx
	popq	%rbp
	.cfi_def_cfa %rsp, 8
	retq
.LBB31_5:                               # %func_myfeof.142
	.cfi_def_cfa %rbp, 16
	movq	%rbx, %rdi
	callq	myfeof.142
	movzbl	%al, %eax
	addq	$8, %rsp
	popq	%rbx
	popq	%rbp
	.cfi_def_cfa %rsp, 8
	retq
.LBB31_6:                               # %func_myfeof.147
	.cfi_def_cfa %rbp, 16
	movq	%rbx, %rdi
	callq	myfeof.147
	movzbl	%al, %eax
	addq	$8, %rsp
	popq	%rbx
	popq	%rbp
	.cfi_def_cfa %rsp, 8
	retq
.LBB31_7:                               # %ctrl0
	.cfi_def_cfa %rbp, 16
	cmpl	$1, %eax
	je	.LBB31_2
# %bb.8:                                # %ctrl1
	cmpl	$2, %eax
	je	.LBB31_3
# %bb.9:                                # %ctrl2
	cmpl	$3, %eax
	je	.LBB31_4
# %bb.10:                               # %ctrl3
	cmpl	$4, %eax
	je	.LBB31_5
	jmp	.LBB31_6
.Lfunc_end31:
	.size	myfeof, .Lfunc_end31-myfeof
	.cfi_endproc
                                        # -- End function
	.p2align	4, 0x90         # -- Begin function uInt64_from_UInt32s
	.type	uInt64_from_UInt32s,@function
uInt64_from_UInt32s:                    # @uInt64_from_UInt32s
	.cfi_startproc
# %bb.0:                                # %rand_bb
	pushq	%rbp
	.cfi_def_cfa_offset 16
	.cfi_offset %rbp, -16
	movq	%rsp, %rbp
	.cfi_def_cfa_register %rbp
	pushq	%r15
	pushq	%r14
	pushq	%rbx
	pushq	%rax
	.cfi_offset %rbx, -40
	.cfi_offset %r14, -32
	.cfi_offset %r15, -24
	movl	%edx, %r14d
	movl	%esi, %r15d
	movq	%rdi, %rbx
	callq	get_rand
	cmpl	$0, %eax
	jne	.LBB32_7
# %bb.1:                                # %func_uInt64_from_UInt32s.10
	movq	%rbx, %rdi
	movl	%r15d, %esi
	movl	%r14d, %edx
	callq	uInt64_from_UInt32s.10
	addq	$8, %rsp
	popq	%rbx
	popq	%r14
	popq	%r15
	popq	%rbp
	.cfi_def_cfa %rsp, 8
	retq
.LBB32_2:                               # %func_uInt64_from_UInt32s.11
	.cfi_def_cfa %rbp, 16
	movq	%rbx, %rdi
	movl	%r15d, %esi
	movl	%r14d, %edx
	callq	uInt64_from_UInt32s.11
	addq	$8, %rsp
	popq	%rbx
	popq	%r14
	popq	%r15
	popq	%rbp
	.cfi_def_cfa %rsp, 8
	retq
.LBB32_3:                               # %func_uInt64_from_UInt32s.26
	.cfi_def_cfa %rbp, 16
	movq	%rbx, %rdi
	movl	%r15d, %esi
	movl	%r14d, %edx
	callq	uInt64_from_UInt32s.26
	addq	$8, %rsp
	popq	%rbx
	popq	%r14
	popq	%r15
	popq	%rbp
	.cfi_def_cfa %rsp, 8
	retq
.LBB32_4:                               # %func_uInt64_from_UInt32s.36
	.cfi_def_cfa %rbp, 16
	movq	%rbx, %rdi
	movl	%r15d, %esi
	movl	%r14d, %edx
	callq	uInt64_from_UInt32s.36
	addq	$8, %rsp
	popq	%rbx
	popq	%r14
	popq	%r15
	popq	%rbp
	.cfi_def_cfa %rsp, 8
	retq
.LBB32_5:                               # %func_uInt64_from_UInt32s.66
	.cfi_def_cfa %rbp, 16
	movq	%rbx, %rdi
	movl	%r15d, %esi
	movl	%r14d, %edx
	callq	uInt64_from_UInt32s.66
	addq	$8, %rsp
	popq	%rbx
	popq	%r14
	popq	%r15
	popq	%rbp
	.cfi_def_cfa %rsp, 8
	retq
.LBB32_6:                               # %func_uInt64_from_UInt32s.69
	.cfi_def_cfa %rbp, 16
	movq	%rbx, %rdi
	movl	%r15d, %esi
	movl	%r14d, %edx
	callq	uInt64_from_UInt32s.69
	addq	$8, %rsp
	popq	%rbx
	popq	%r14
	popq	%r15
	popq	%rbp
	.cfi_def_cfa %rsp, 8
	retq
.LBB32_7:                               # %ctrl0
	.cfi_def_cfa %rbp, 16
	cmpl	$1, %eax
	je	.LBB32_2
# %bb.8:                                # %ctrl1
	cmpl	$2, %eax
	je	.LBB32_3
# %bb.9:                                # %ctrl2
	cmpl	$3, %eax
	je	.LBB32_4
# %bb.10:                               # %ctrl3
	cmpl	$4, %eax
	je	.LBB32_5
	jmp	.LBB32_6
.Lfunc_end32:
	.size	uInt64_from_UInt32s, .Lfunc_end32-uInt64_from_UInt32s
	.cfi_endproc
                                        # -- End function
	.p2align	4, 0x90         # -- Begin function uInt64_to_double
	.type	uInt64_to_double,@function
uInt64_to_double:                       # @uInt64_to_double
	.cfi_startproc
# %bb.0:                                # %rand_bb
	pushq	%rbp
	.cfi_def_cfa_offset 16
	.cfi_offset %rbp, -16
	movq	%rsp, %rbp
	.cfi_def_cfa_register %rbp
	pushq	%rbx
	pushq	%rax
	.cfi_offset %rbx, -24
	movq	%rdi, %rbx
	callq	get_rand
	cmpl	$0, %eax
	jne	.LBB33_17
# %bb.1:                                # %func_uInt64_to_double.14
	movq	%rbx, %rdi
	callq	uInt64_to_double.14
	addq	$8, %rsp
	popq	%rbx
	popq	%rbp
	.cfi_def_cfa %rsp, 8
	retq
.LBB33_2:                               # %func_uInt64_to_double.46
	.cfi_def_cfa %rbp, 16
	movq	%rbx, %rdi
	callq	uInt64_to_double.46
	addq	$8, %rsp
	popq	%rbx
	popq	%rbp
	.cfi_def_cfa %rsp, 8
	retq
.LBB33_3:                               # %func_uInt64_to_double.71
	.cfi_def_cfa %rbp, 16
	movq	%rbx, %rdi
	callq	uInt64_to_double.71
	addq	$8, %rsp
	popq	%rbx
	popq	%rbp
	.cfi_def_cfa %rsp, 8
	retq
.LBB33_4:                               # %func_uInt64_to_double.89
	.cfi_def_cfa %rbp, 16
	movq	%rbx, %rdi
	callq	uInt64_to_double.89
	addq	$8, %rsp
	popq	%rbx
	popq	%rbp
	.cfi_def_cfa %rsp, 8
	retq
.LBB33_5:                               # %func_uInt64_to_double.105
	.cfi_def_cfa %rbp, 16
	movq	%rbx, %rdi
	callq	uInt64_to_double.105
	addq	$8, %rsp
	popq	%rbx
	popq	%rbp
	.cfi_def_cfa %rsp, 8
	retq
.LBB33_6:                               # %func_uInt64_to_double.118
	.cfi_def_cfa %rbp, 16
	movq	%rbx, %rdi
	callq	uInt64_to_double.118
	addq	$8, %rsp
	popq	%rbx
	popq	%rbp
	.cfi_def_cfa %rsp, 8
	retq
.LBB33_7:                               # %func_uInt64_to_double.153
	.cfi_def_cfa %rbp, 16
	movq	%rbx, %rdi
	callq	uInt64_to_double.153
	addq	$8, %rsp
	popq	%rbx
	popq	%rbp
	.cfi_def_cfa %rsp, 8
	retq
.LBB33_8:                               # %func_uInt64_to_double.160
	.cfi_def_cfa %rbp, 16
	movq	%rbx, %rdi
	callq	uInt64_to_double.160
	addq	$8, %rsp
	popq	%rbx
	popq	%rbp
	.cfi_def_cfa %rsp, 8
	retq
.LBB33_9:                               # %func_uInt64_to_double.185
	.cfi_def_cfa %rbp, 16
	movq	%rbx, %rdi
	callq	uInt64_to_double.185
	addq	$8, %rsp
	popq	%rbx
	popq	%rbp
	.cfi_def_cfa %rsp, 8
	retq
.LBB33_10:                              # %func_uInt64_to_double.204
	.cfi_def_cfa %rbp, 16
	movq	%rbx, %rdi
	callq	uInt64_to_double.204
	addq	$8, %rsp
	popq	%rbx
	popq	%rbp
	.cfi_def_cfa %rsp, 8
	retq
.LBB33_11:                              # %func_uInt64_to_double.226
	.cfi_def_cfa %rbp, 16
	movq	%rbx, %rdi
	callq	uInt64_to_double.226
	addq	$8, %rsp
	popq	%rbx
	popq	%rbp
	.cfi_def_cfa %rsp, 8
	retq
.LBB33_12:                              # %func_uInt64_to_double.240
	.cfi_def_cfa %rbp, 16
	movq	%rbx, %rdi
	callq	uInt64_to_double.240
	addq	$8, %rsp
	popq	%rbx
	popq	%rbp
	.cfi_def_cfa %rsp, 8
	retq
.LBB33_13:                              # %func_uInt64_to_double.272
	.cfi_def_cfa %rbp, 16
	movq	%rbx, %rdi
	callq	uInt64_to_double.272
	addq	$8, %rsp
	popq	%rbx
	popq	%rbp
	.cfi_def_cfa %rsp, 8
	retq
.LBB33_14:                              # %func_uInt64_to_double.278
	.cfi_def_cfa %rbp, 16
	movq	%rbx, %rdi
	callq	uInt64_to_double.278
	addq	$8, %rsp
	popq	%rbx
	popq	%rbp
	.cfi_def_cfa %rsp, 8
	retq
.LBB33_15:                              # %func_uInt64_to_double.294
	.cfi_def_cfa %rbp, 16
	movq	%rbx, %rdi
	callq	uInt64_to_double.294
	addq	$8, %rsp
	popq	%rbx
	popq	%rbp
	.cfi_def_cfa %rsp, 8
	retq
.LBB33_16:                              # %func_uInt64_to_double.298
	.cfi_def_cfa %rbp, 16
	movq	%rbx, %rdi
	callq	uInt64_to_double.298
	addq	$8, %rsp
	popq	%rbx
	popq	%rbp
	.cfi_def_cfa %rsp, 8
	retq
.LBB33_17:                              # %ctrl0
	.cfi_def_cfa %rbp, 16
	cmpl	$1, %eax
	je	.LBB33_2
# %bb.18:                               # %ctrl1
	cmpl	$2, %eax
	je	.LBB33_3
# %bb.19:                               # %ctrl2
	cmpl	$3, %eax
	je	.LBB33_4
# %bb.20:                               # %ctrl3
	cmpl	$4, %eax
	je	.LBB33_5
# %bb.21:                               # %ctrl4
	cmpl	$5, %eax
	je	.LBB33_6
# %bb.22:                               # %ctrl5
	cmpl	$6, %eax
	je	.LBB33_7
# %bb.23:                               # %ctrl6
	cmpl	$7, %eax
	je	.LBB33_8
# %bb.24:                               # %ctrl7
	cmpl	$8, %eax
	je	.LBB33_9
# %bb.25:                               # %ctrl8
	cmpl	$9, %eax
	je	.LBB33_10
# %bb.26:                               # %ctrl9
	cmpl	$10, %eax
	je	.LBB33_11
# %bb.27:                               # %ctrl10
	cmpl	$11, %eax
	je	.LBB33_12
# %bb.28:                               # %ctrl11
	cmpl	$12, %eax
	je	.LBB33_13
# %bb.29:                               # %ctrl12
	cmpl	$13, %eax
	je	.LBB33_14
# %bb.30:                               # %ctrl13
	cmpl	$14, %eax
	je	.LBB33_15
	jmp	.LBB33_16
.Lfunc_end33:
	.size	uInt64_to_double, .Lfunc_end33-uInt64_to_double
	.cfi_endproc
                                        # -- End function
	.p2align	4, 0x90         # -- Begin function uInt64_toAscii
	.type	uInt64_toAscii,@function
uInt64_toAscii:                         # @uInt64_toAscii
	.cfi_startproc
# %bb.0:                                # %rand_bb
	pushq	%rbp
	.cfi_def_cfa_offset 16
	.cfi_offset %rbp, -16
	movq	%rsp, %rbp
	.cfi_def_cfa_register %rbp
	pushq	%r14
	pushq	%rbx
	.cfi_offset %rbx, -32
	.cfi_offset %r14, -24
	movq	%rsi, %r14
	movq	%rdi, %rbx
	callq	get_rand
	cmpl	$0, %eax
	jne	.LBB34_17
# %bb.1:                                # %func_uInt64_toAscii.2
	movq	%rbx, %rdi
	movq	%r14, %rsi
	callq	uInt64_toAscii.2
	popq	%rbx
	popq	%r14
	popq	%rbp
	.cfi_def_cfa %rsp, 8
	retq
.LBB34_2:                               # %func_uInt64_toAscii.44
	.cfi_def_cfa %rbp, 16
	movq	%rbx, %rdi
	movq	%r14, %rsi
	callq	uInt64_toAscii.44
	popq	%rbx
	popq	%r14
	popq	%rbp
	.cfi_def_cfa %rsp, 8
	retq
.LBB34_3:                               # %func_uInt64_toAscii.59
	.cfi_def_cfa %rbp, 16
	movq	%rbx, %rdi
	movq	%r14, %rsi
	callq	uInt64_toAscii.59
	popq	%rbx
	popq	%r14
	popq	%rbp
	.cfi_def_cfa %rsp, 8
	retq
.LBB34_4:                               # %func_uInt64_toAscii.72
	.cfi_def_cfa %rbp, 16
	movq	%rbx, %rdi
	movq	%r14, %rsi
	callq	uInt64_toAscii.72
	popq	%rbx
	popq	%r14
	popq	%rbp
	.cfi_def_cfa %rsp, 8
	retq
.LBB34_5:                               # %func_uInt64_toAscii.80
	.cfi_def_cfa %rbp, 16
	movq	%rbx, %rdi
	movq	%r14, %rsi
	callq	uInt64_toAscii.80
	popq	%rbx
	popq	%r14
	popq	%rbp
	.cfi_def_cfa %rsp, 8
	retq
.LBB34_6:                               # %func_uInt64_toAscii.133
	.cfi_def_cfa %rbp, 16
	movq	%rbx, %rdi
	movq	%r14, %rsi
	callq	uInt64_toAscii.133
	popq	%rbx
	popq	%r14
	popq	%rbp
	.cfi_def_cfa %rsp, 8
	retq
.LBB34_7:                               # %func_uInt64_toAscii.138
	.cfi_def_cfa %rbp, 16
	movq	%rbx, %rdi
	movq	%r14, %rsi
	callq	uInt64_toAscii.138
	popq	%rbx
	popq	%r14
	popq	%rbp
	.cfi_def_cfa %rsp, 8
	retq
.LBB34_8:                               # %func_uInt64_toAscii.145
	.cfi_def_cfa %rbp, 16
	movq	%rbx, %rdi
	movq	%r14, %rsi
	callq	uInt64_toAscii.145
	popq	%rbx
	popq	%r14
	popq	%rbp
	.cfi_def_cfa %rsp, 8
	retq
.LBB34_9:                               # %func_uInt64_toAscii.151
	.cfi_def_cfa %rbp, 16
	movq	%rbx, %rdi
	movq	%r14, %rsi
	callq	uInt64_toAscii.151
	popq	%rbx
	popq	%r14
	popq	%rbp
	.cfi_def_cfa %rsp, 8
	retq
.LBB34_10:                              # %func_uInt64_toAscii.158
	.cfi_def_cfa %rbp, 16
	movq	%rbx, %rdi
	movq	%r14, %rsi
	callq	uInt64_toAscii.158
	popq	%rbx
	popq	%r14
	popq	%rbp
	.cfi_def_cfa %rsp, 8
	retq
.LBB34_11:                              # %func_uInt64_toAscii.198
	.cfi_def_cfa %rbp, 16
	movq	%rbx, %rdi
	movq	%r14, %rsi
	callq	uInt64_toAscii.198
	popq	%rbx
	popq	%r14
	popq	%rbp
	.cfi_def_cfa %rsp, 8
	retq
.LBB34_12:                              # %func_uInt64_toAscii.201
	.cfi_def_cfa %rbp, 16
	movq	%rbx, %rdi
	movq	%r14, %rsi
	callq	uInt64_toAscii.201
	popq	%rbx
	popq	%r14
	popq	%rbp
	.cfi_def_cfa %rsp, 8
	retq
.LBB34_13:                              # %func_uInt64_toAscii.211
	.cfi_def_cfa %rbp, 16
	movq	%rbx, %rdi
	movq	%r14, %rsi
	callq	uInt64_toAscii.211
	popq	%rbx
	popq	%r14
	popq	%rbp
	.cfi_def_cfa %rsp, 8
	retq
.LBB34_14:                              # %func_uInt64_toAscii.213
	.cfi_def_cfa %rbp, 16
	movq	%rbx, %rdi
	movq	%r14, %rsi
	callq	uInt64_toAscii.213
	popq	%rbx
	popq	%r14
	popq	%rbp
	.cfi_def_cfa %rsp, 8
	retq
.LBB34_15:                              # %func_uInt64_toAscii.218
	.cfi_def_cfa %rbp, 16
	movq	%rbx, %rdi
	movq	%r14, %rsi
	callq	uInt64_toAscii.218
	popq	%rbx
	popq	%r14
	popq	%rbp
	.cfi_def_cfa %rsp, 8
	retq
.LBB34_16:                              # %func_uInt64_toAscii.219
	.cfi_def_cfa %rbp, 16
	movq	%rbx, %rdi
	movq	%r14, %rsi
	callq	uInt64_toAscii.219
	popq	%rbx
	popq	%r14
	popq	%rbp
	.cfi_def_cfa %rsp, 8
	retq
.LBB34_17:                              # %ctrl0
	.cfi_def_cfa %rbp, 16
	cmpl	$1, %eax
	je	.LBB34_2
# %bb.18:                               # %ctrl1
	cmpl	$2, %eax
	je	.LBB34_3
# %bb.19:                               # %ctrl2
	cmpl	$3, %eax
	je	.LBB34_4
# %bb.20:                               # %ctrl3
	cmpl	$4, %eax
	je	.LBB34_5
# %bb.21:                               # %ctrl4
	cmpl	$5, %eax
	je	.LBB34_6
# %bb.22:                               # %ctrl5
	cmpl	$6, %eax
	je	.LBB34_7
# %bb.23:                               # %ctrl6
	cmpl	$7, %eax
	je	.LBB34_8
# %bb.24:                               # %ctrl7
	cmpl	$8, %eax
	je	.LBB34_9
# %bb.25:                               # %ctrl8
	cmpl	$9, %eax
	je	.LBB34_10
# %bb.26:                               # %ctrl9
	cmpl	$10, %eax
	je	.LBB34_11
# %bb.27:                               # %ctrl10
	cmpl	$11, %eax
	je	.LBB34_12
# %bb.28:                               # %ctrl11
	cmpl	$12, %eax
	je	.LBB34_13
# %bb.29:                               # %ctrl12
	cmpl	$13, %eax
	je	.LBB34_14
# %bb.30:                               # %ctrl13
	cmpl	$14, %eax
	je	.LBB34_15
	jmp	.LBB34_16
.Lfunc_end34:
	.size	uInt64_toAscii, .Lfunc_end34-uInt64_toAscii
	.cfi_endproc
                                        # -- End function
	.p2align	4, 0x90         # -- Begin function configError
	.type	configError,@function
configError:                            # @configError
	.cfi_startproc
# %bb.0:                                # %entry
	pushq	%rbp
	.cfi_def_cfa_offset 16
	.cfi_offset %rbp, -16
	movq	%rsp, %rbp
	.cfi_def_cfa_register %rbp
	movq	stderr, %rdi
	movabsq	$.L.str.77, %rsi
	movb	$0, %al
	callq	fprintf
	movl	$3, %edi
	callq	setExit
	movl	exitValue, %edi
	callq	exit
.Lfunc_end35:
	.size	configError, .Lfunc_end35-configError
	.cfi_endproc
                                        # -- End function
	.p2align	4, 0x90         # -- Begin function uInt64_qrm10
	.type	uInt64_qrm10,@function
uInt64_qrm10:                           # @uInt64_qrm10
	.cfi_startproc
# %bb.0:                                # %rand_bb
	pushq	%rbp
	.cfi_def_cfa_offset 16
	.cfi_offset %rbp, -16
	movq	%rsp, %rbp
	.cfi_def_cfa_register %rbp
	pushq	%rbx
	pushq	%rax
	.cfi_offset %rbx, -24
	movq	%rdi, %rbx
	callq	get_rand
	cmpl	$0, %eax
	jne	.LBB36_17
# %bb.1:                                # %func_uInt64_qrm10.4
	movq	%rbx, %rdi
	callq	uInt64_qrm10.4
	addq	$8, %rsp
	popq	%rbx
	popq	%rbp
	.cfi_def_cfa %rsp, 8
	retq
.LBB36_2:                               # %func_uInt64_qrm10.41
	.cfi_def_cfa %rbp, 16
	movq	%rbx, %rdi
	callq	uInt64_qrm10.41
	addq	$8, %rsp
	popq	%rbx
	popq	%rbp
	.cfi_def_cfa %rsp, 8
	retq
.LBB36_3:                               # %func_uInt64_qrm10.53
	.cfi_def_cfa %rbp, 16
	movq	%rbx, %rdi
	callq	uInt64_qrm10.53
	addq	$8, %rsp
	popq	%rbx
	popq	%rbp
	.cfi_def_cfa %rsp, 8
	retq
.LBB36_4:                               # %func_uInt64_qrm10.70
	.cfi_def_cfa %rbp, 16
	movq	%rbx, %rdi
	callq	uInt64_qrm10.70
	addq	$8, %rsp
	popq	%rbx
	popq	%rbp
	.cfi_def_cfa %rsp, 8
	retq
.LBB36_5:                               # %func_uInt64_qrm10.75
	.cfi_def_cfa %rbp, 16
	movq	%rbx, %rdi
	callq	uInt64_qrm10.75
	addq	$8, %rsp
	popq	%rbx
	popq	%rbp
	.cfi_def_cfa %rsp, 8
	retq
.LBB36_6:                               # %func_uInt64_qrm10.101
	.cfi_def_cfa %rbp, 16
	movq	%rbx, %rdi
	callq	uInt64_qrm10.101
	addq	$8, %rsp
	popq	%rbx
	popq	%rbp
	.cfi_def_cfa %rsp, 8
	retq
.LBB36_7:                               # %func_uInt64_qrm10.114
	.cfi_def_cfa %rbp, 16
	movq	%rbx, %rdi
	callq	uInt64_qrm10.114
	addq	$8, %rsp
	popq	%rbx
	popq	%rbp
	.cfi_def_cfa %rsp, 8
	retq
.LBB36_8:                               # %func_uInt64_qrm10.149
	.cfi_def_cfa %rbp, 16
	movq	%rbx, %rdi
	callq	uInt64_qrm10.149
	addq	$8, %rsp
	popq	%rbx
	popq	%rbp
	.cfi_def_cfa %rsp, 8
	retq
.LBB36_9:                               # %func_uInt64_qrm10.175
	.cfi_def_cfa %rbp, 16
	movq	%rbx, %rdi
	callq	uInt64_qrm10.175
	addq	$8, %rsp
	popq	%rbx
	popq	%rbp
	.cfi_def_cfa %rsp, 8
	retq
.LBB36_10:                              # %func_uInt64_qrm10.197
	.cfi_def_cfa %rbp, 16
	movq	%rbx, %rdi
	callq	uInt64_qrm10.197
	addq	$8, %rsp
	popq	%rbx
	popq	%rbp
	.cfi_def_cfa %rsp, 8
	retq
.LBB36_11:                              # %func_uInt64_qrm10.210
	.cfi_def_cfa %rbp, 16
	movq	%rbx, %rdi
	callq	uInt64_qrm10.210
	addq	$8, %rsp
	popq	%rbx
	popq	%rbp
	.cfi_def_cfa %rsp, 8
	retq
.LBB36_12:                              # %func_uInt64_qrm10.215
	.cfi_def_cfa %rbp, 16
	movq	%rbx, %rdi
	callq	uInt64_qrm10.215
	addq	$8, %rsp
	popq	%rbx
	popq	%rbp
	.cfi_def_cfa %rsp, 8
	retq
.LBB36_13:                              # %func_uInt64_qrm10.237
	.cfi_def_cfa %rbp, 16
	movq	%rbx, %rdi
	callq	uInt64_qrm10.237
	addq	$8, %rsp
	popq	%rbx
	popq	%rbp
	.cfi_def_cfa %rsp, 8
	retq
.LBB36_14:                              # %func_uInt64_qrm10.255
	.cfi_def_cfa %rbp, 16
	movq	%rbx, %rdi
	callq	uInt64_qrm10.255
	addq	$8, %rsp
	popq	%rbx
	popq	%rbp
	.cfi_def_cfa %rsp, 8
	retq
.LBB36_15:                              # %func_uInt64_qrm10.259
	.cfi_def_cfa %rbp, 16
	movq	%rbx, %rdi
	callq	uInt64_qrm10.259
	addq	$8, %rsp
	popq	%rbx
	popq	%rbp
	.cfi_def_cfa %rsp, 8
	retq
.LBB36_16:                              # %func_uInt64_qrm10.261
	.cfi_def_cfa %rbp, 16
	movq	%rbx, %rdi
	callq	uInt64_qrm10.261
	addq	$8, %rsp
	popq	%rbx
	popq	%rbp
	.cfi_def_cfa %rsp, 8
	retq
.LBB36_17:                              # %ctrl0
	.cfi_def_cfa %rbp, 16
	cmpl	$1, %eax
	je	.LBB36_2
# %bb.18:                               # %ctrl1
	cmpl	$2, %eax
	je	.LBB36_3
# %bb.19:                               # %ctrl2
	cmpl	$3, %eax
	je	.LBB36_4
# %bb.20:                               # %ctrl3
	cmpl	$4, %eax
	je	.LBB36_5
# %bb.21:                               # %ctrl4
	cmpl	$5, %eax
	je	.LBB36_6
# %bb.22:                               # %ctrl5
	cmpl	$6, %eax
	je	.LBB36_7
# %bb.23:                               # %ctrl6
	cmpl	$7, %eax
	je	.LBB36_8
# %bb.24:                               # %ctrl7
	cmpl	$8, %eax
	je	.LBB36_9
# %bb.25:                               # %ctrl8
	cmpl	$9, %eax
	je	.LBB36_10
# %bb.26:                               # %ctrl9
	cmpl	$10, %eax
	je	.LBB36_11
# %bb.27:                               # %ctrl10
	cmpl	$11, %eax
	je	.LBB36_12
# %bb.28:                               # %ctrl11
	cmpl	$12, %eax
	je	.LBB36_13
# %bb.29:                               # %ctrl12
	cmpl	$13, %eax
	je	.LBB36_14
# %bb.30:                               # %ctrl13
	cmpl	$14, %eax
	je	.LBB36_15
	jmp	.LBB36_16
.Lfunc_end36:
	.size	uInt64_qrm10, .Lfunc_end36-uInt64_qrm10
	.cfi_endproc
                                        # -- End function
	.p2align	4, 0x90         # -- Begin function uInt64_isZero
	.type	uInt64_isZero,@function
uInt64_isZero:                          # @uInt64_isZero
	.cfi_startproc
# %bb.0:                                # %rand_bb
	pushq	%rbp
	.cfi_def_cfa_offset 16
	.cfi_offset %rbp, -16
	movq	%rsp, %rbp
	.cfi_def_cfa_register %rbp
	pushq	%rbx
	pushq	%rax
	.cfi_offset %rbx, -24
	movq	%rdi, %rbx
	callq	get_rand
	cmpl	$0, %eax
	jne	.LBB37_7
# %bb.1:                                # %func_uInt64_isZero.39
	movq	%rbx, %rdi
	callq	uInt64_isZero.39
	movzbl	%al, %eax
	addq	$8, %rsp
	popq	%rbx
	popq	%rbp
	.cfi_def_cfa %rsp, 8
	retq
.LBB37_2:                               # %func_uInt64_isZero.42
	.cfi_def_cfa %rbp, 16
	movq	%rbx, %rdi
	callq	uInt64_isZero.42
	movzbl	%al, %eax
	addq	$8, %rsp
	popq	%rbx
	popq	%rbp
	.cfi_def_cfa %rsp, 8
	retq
.LBB37_3:                               # %func_uInt64_isZero.76
	.cfi_def_cfa %rbp, 16
	movq	%rbx, %rdi
	callq	uInt64_isZero.76
	movzbl	%al, %eax
	addq	$8, %rsp
	popq	%rbx
	popq	%rbp
	.cfi_def_cfa %rsp, 8
	retq
.LBB37_4:                               # %func_uInt64_isZero.83
	.cfi_def_cfa %rbp, 16
	movq	%rbx, %rdi
	callq	uInt64_isZero.83
	movzbl	%al, %eax
	addq	$8, %rsp
	popq	%rbx
	popq	%rbp
	.cfi_def_cfa %rsp, 8
	retq
.LBB37_5:                               # %func_uInt64_isZero.103
	.cfi_def_cfa %rbp, 16
	movq	%rbx, %rdi
	callq	uInt64_isZero.103
	movzbl	%al, %eax
	addq	$8, %rsp
	popq	%rbx
	popq	%rbp
	.cfi_def_cfa %rsp, 8
	retq
.LBB37_6:                               # %func_uInt64_isZero.110
	.cfi_def_cfa %rbp, 16
	movq	%rbx, %rdi
	callq	uInt64_isZero.110
	movzbl	%al, %eax
	addq	$8, %rsp
	popq	%rbx
	popq	%rbp
	.cfi_def_cfa %rsp, 8
	retq
.LBB37_7:                               # %ctrl0
	.cfi_def_cfa %rbp, 16
	cmpl	$1, %eax
	je	.LBB37_2
# %bb.8:                                # %ctrl1
	cmpl	$2, %eax
	je	.LBB37_3
# %bb.9:                                # %ctrl2
	cmpl	$3, %eax
	je	.LBB37_4
# %bb.10:                               # %ctrl3
	cmpl	$4, %eax
	je	.LBB37_5
	jmp	.LBB37_6
.Lfunc_end37:
	.size	uInt64_isZero, .Lfunc_end37-uInt64_isZero
	.cfi_endproc
                                        # -- End function
	.p2align	4, 0x90         # -- Begin function mapSuffix
	.type	mapSuffix,@function
mapSuffix:                              # @mapSuffix
	.cfi_startproc
# %bb.0:                                # %rand_bb
	pushq	%rbp
	.cfi_def_cfa_offset 16
	.cfi_offset %rbp, -16
	movq	%rsp, %rbp
	.cfi_def_cfa_register %rbp
	pushq	%r15
	pushq	%r14
	pushq	%rbx
	pushq	%rax
	.cfi_offset %rbx, -40
	.cfi_offset %r14, -32
	.cfi_offset %r15, -24
	movq	%rdx, %r14
	movq	%rsi, %r15
	movq	%rdi, %rbx
	callq	get_rand
	cmpl	$0, %eax
	jne	.LBB38_17
# %bb.1:                                # %func_mapSuffix.19
	movq	%rbx, %rdi
	movq	%r15, %rsi
	movq	%r14, %rdx
	callq	mapSuffix.19
	movzbl	%al, %eax
	addq	$8, %rsp
	popq	%rbx
	popq	%r14
	popq	%r15
	popq	%rbp
	.cfi_def_cfa %rsp, 8
	retq
.LBB38_2:                               # %func_mapSuffix.20
	.cfi_def_cfa %rbp, 16
	movq	%rbx, %rdi
	movq	%r15, %rsi
	movq	%r14, %rdx
	callq	mapSuffix.20
	movzbl	%al, %eax
	addq	$8, %rsp
	popq	%rbx
	popq	%r14
	popq	%r15
	popq	%rbp
	.cfi_def_cfa %rsp, 8
	retq
.LBB38_3:                               # %func_mapSuffix.52
	.cfi_def_cfa %rbp, 16
	movq	%rbx, %rdi
	movq	%r15, %rsi
	movq	%r14, %rdx
	callq	mapSuffix.52
	movzbl	%al, %eax
	addq	$8, %rsp
	popq	%rbx
	popq	%r14
	popq	%r15
	popq	%rbp
	.cfi_def_cfa %rsp, 8
	retq
.LBB38_4:                               # %func_mapSuffix.55
	.cfi_def_cfa %rbp, 16
	movq	%rbx, %rdi
	movq	%r15, %rsi
	movq	%r14, %rdx
	callq	mapSuffix.55
	movzbl	%al, %eax
	addq	$8, %rsp
	popq	%rbx
	popq	%r14
	popq	%r15
	popq	%rbp
	.cfi_def_cfa %rsp, 8
	retq
.LBB38_5:                               # %func_mapSuffix.62
	.cfi_def_cfa %rbp, 16
	movq	%rbx, %rdi
	movq	%r15, %rsi
	movq	%r14, %rdx
	callq	mapSuffix.62
	movzbl	%al, %eax
	addq	$8, %rsp
	popq	%rbx
	popq	%r14
	popq	%r15
	popq	%rbp
	.cfi_def_cfa %rsp, 8
	retq
.LBB38_6:                               # %func_mapSuffix.77
	.cfi_def_cfa %rbp, 16
	movq	%rbx, %rdi
	movq	%r15, %rsi
	movq	%r14, %rdx
	callq	mapSuffix.77
	movzbl	%al, %eax
	addq	$8, %rsp
	popq	%rbx
	popq	%r14
	popq	%r15
	popq	%rbp
	.cfi_def_cfa %rsp, 8
	retq
.LBB38_7:                               # %func_mapSuffix.107
	.cfi_def_cfa %rbp, 16
	movq	%rbx, %rdi
	movq	%r15, %rsi
	movq	%r14, %rdx
	callq	mapSuffix.107
	movzbl	%al, %eax
	addq	$8, %rsp
	popq	%rbx
	popq	%r14
	popq	%r15
	popq	%rbp
	.cfi_def_cfa %rsp, 8
	retq
.LBB38_8:                               # %func_mapSuffix.128
	.cfi_def_cfa %rbp, 16
	movq	%rbx, %rdi
	movq	%r15, %rsi
	movq	%r14, %rdx
	callq	mapSuffix.128
	movzbl	%al, %eax
	addq	$8, %rsp
	popq	%rbx
	popq	%r14
	popq	%r15
	popq	%rbp
	.cfi_def_cfa %rsp, 8
	retq
.LBB38_9:                               # %func_mapSuffix.141
	.cfi_def_cfa %rbp, 16
	movq	%rbx, %rdi
	movq	%r15, %rsi
	movq	%r14, %rdx
	callq	mapSuffix.141
	movzbl	%al, %eax
	addq	$8, %rsp
	popq	%rbx
	popq	%r14
	popq	%r15
	popq	%rbp
	.cfi_def_cfa %rsp, 8
	retq
.LBB38_10:                              # %func_mapSuffix.154
	.cfi_def_cfa %rbp, 16
	movq	%rbx, %rdi
	movq	%r15, %rsi
	movq	%r14, %rdx
	callq	mapSuffix.154
	movzbl	%al, %eax
	addq	$8, %rsp
	popq	%rbx
	popq	%r14
	popq	%r15
	popq	%rbp
	.cfi_def_cfa %rsp, 8
	retq
.LBB38_11:                              # %func_mapSuffix.168
	.cfi_def_cfa %rbp, 16
	movq	%rbx, %rdi
	movq	%r15, %rsi
	movq	%r14, %rdx
	callq	mapSuffix.168
	movzbl	%al, %eax
	addq	$8, %rsp
	popq	%rbx
	popq	%r14
	popq	%r15
	popq	%rbp
	.cfi_def_cfa %rsp, 8
	retq
.LBB38_12:                              # %func_mapSuffix.194
	.cfi_def_cfa %rbp, 16
	movq	%rbx, %rdi
	movq	%r15, %rsi
	movq	%r14, %rdx
	callq	mapSuffix.194
	movzbl	%al, %eax
	addq	$8, %rsp
	popq	%rbx
	popq	%r14
	popq	%r15
	popq	%rbp
	.cfi_def_cfa %rsp, 8
	retq
.LBB38_13:                              # %func_mapSuffix.206
	.cfi_def_cfa %rbp, 16
	movq	%rbx, %rdi
	movq	%r15, %rsi
	movq	%r14, %rdx
	callq	mapSuffix.206
	movzbl	%al, %eax
	addq	$8, %rsp
	popq	%rbx
	popq	%r14
	popq	%r15
	popq	%rbp
	.cfi_def_cfa %rsp, 8
	retq
.LBB38_14:                              # %func_mapSuffix.222
	.cfi_def_cfa %rbp, 16
	movq	%rbx, %rdi
	movq	%r15, %rsi
	movq	%r14, %rdx
	callq	mapSuffix.222
	movzbl	%al, %eax
	addq	$8, %rsp
	popq	%rbx
	popq	%r14
	popq	%r15
	popq	%rbp
	.cfi_def_cfa %rsp, 8
	retq
.LBB38_15:                              # %func_mapSuffix.233
	.cfi_def_cfa %rbp, 16
	movq	%rbx, %rdi
	movq	%r15, %rsi
	movq	%r14, %rdx
	callq	mapSuffix.233
	movzbl	%al, %eax
	addq	$8, %rsp
	popq	%rbx
	popq	%r14
	popq	%r15
	popq	%rbp
	.cfi_def_cfa %rsp, 8
	retq
.LBB38_16:                              # %func_mapSuffix.242
	.cfi_def_cfa %rbp, 16
	movq	%rbx, %rdi
	movq	%r15, %rsi
	movq	%r14, %rdx
	callq	mapSuffix.242
	movzbl	%al, %eax
	addq	$8, %rsp
	popq	%rbx
	popq	%r14
	popq	%r15
	popq	%rbp
	.cfi_def_cfa %rsp, 8
	retq
.LBB38_17:                              # %ctrl0
	.cfi_def_cfa %rbp, 16
	cmpl	$1, %eax
	je	.LBB38_2
# %bb.18:                               # %ctrl1
	cmpl	$2, %eax
	je	.LBB38_3
# %bb.19:                               # %ctrl2
	cmpl	$3, %eax
	je	.LBB38_4
# %bb.20:                               # %ctrl3
	cmpl	$4, %eax
	je	.LBB38_5
# %bb.21:                               # %ctrl4
	cmpl	$5, %eax
	je	.LBB38_6
# %bb.22:                               # %ctrl5
	cmpl	$6, %eax
	je	.LBB38_7
# %bb.23:                               # %ctrl6
	cmpl	$7, %eax
	je	.LBB38_8
# %bb.24:                               # %ctrl7
	cmpl	$8, %eax
	je	.LBB38_9
# %bb.25:                               # %ctrl8
	cmpl	$9, %eax
	je	.LBB38_10
# %bb.26:                               # %ctrl9
	cmpl	$10, %eax
	je	.LBB38_11
# %bb.27:                               # %ctrl10
	cmpl	$11, %eax
	je	.LBB38_12
# %bb.28:                               # %ctrl11
	cmpl	$12, %eax
	je	.LBB38_13
# %bb.29:                               # %ctrl12
	cmpl	$13, %eax
	je	.LBB38_14
# %bb.30:                               # %ctrl13
	cmpl	$14, %eax
	je	.LBB38_15
	jmp	.LBB38_16
.Lfunc_end38:
	.size	mapSuffix, .Lfunc_end38-mapSuffix
	.cfi_endproc
                                        # -- End function
	.p2align	4, 0x90         # -- Begin function uncompressStream
	.type	uncompressStream,@function
uncompressStream:                       # @uncompressStream
	.cfi_startproc
# %bb.0:                                # %rand_bb
	pushq	%rbp
	.cfi_def_cfa_offset 16
	.cfi_offset %rbp, -16
	movq	%rsp, %rbp
	.cfi_def_cfa_register %rbp
	pushq	%r14
	pushq	%rbx
	.cfi_offset %rbx, -32
	.cfi_offset %r14, -24
	movq	%rsi, %r14
	movq	%rdi, %rbx
	callq	get_rand
	cmpl	$0, %eax
	jne	.LBB39_17
# %bb.1:                                # %func_uncompressStream.16
	movq	%rbx, %rdi
	movq	%r14, %rsi
	callq	uncompressStream.16
	movzbl	%al, %eax
	popq	%rbx
	popq	%r14
	popq	%rbp
	.cfi_def_cfa %rsp, 8
	retq
.LBB39_2:                               # %func_uncompressStream.25
	.cfi_def_cfa %rbp, 16
	movq	%rbx, %rdi
	movq	%r14, %rsi
	callq	uncompressStream.25
	movzbl	%al, %eax
	popq	%rbx
	popq	%r14
	popq	%rbp
	.cfi_def_cfa %rsp, 8
	retq
.LBB39_3:                               # %func_uncompressStream.35
	.cfi_def_cfa %rbp, 16
	movq	%rbx, %rdi
	movq	%r14, %rsi
	callq	uncompressStream.35
	movzbl	%al, %eax
	popq	%rbx
	popq	%r14
	popq	%rbp
	.cfi_def_cfa %rsp, 8
	retq
.LBB39_4:                               # %func_uncompressStream.43
	.cfi_def_cfa %rbp, 16
	movq	%rbx, %rdi
	movq	%r14, %rsi
	callq	uncompressStream.43
	movzbl	%al, %eax
	popq	%rbx
	popq	%r14
	popq	%rbp
	.cfi_def_cfa %rsp, 8
	retq
.LBB39_5:                               # %func_uncompressStream.47
	.cfi_def_cfa %rbp, 16
	movq	%rbx, %rdi
	movq	%r14, %rsi
	callq	uncompressStream.47
	movzbl	%al, %eax
	popq	%rbx
	popq	%r14
	popq	%rbp
	.cfi_def_cfa %rsp, 8
	retq
.LBB39_6:                               # %func_uncompressStream.82
	.cfi_def_cfa %rbp, 16
	movq	%rbx, %rdi
	movq	%r14, %rsi
	callq	uncompressStream.82
	movzbl	%al, %eax
	popq	%rbx
	popq	%r14
	popq	%rbp
	.cfi_def_cfa %rsp, 8
	retq
.LBB39_7:                               # %func_uncompressStream.143
	.cfi_def_cfa %rbp, 16
	movq	%rbx, %rdi
	movq	%r14, %rsi
	callq	uncompressStream.143
	movzbl	%al, %eax
	popq	%rbx
	popq	%r14
	popq	%rbp
	.cfi_def_cfa %rsp, 8
	retq
.LBB39_8:                               # %func_uncompressStream.146
	.cfi_def_cfa %rbp, 16
	movq	%rbx, %rdi
	movq	%r14, %rsi
	callq	uncompressStream.146
	movzbl	%al, %eax
	popq	%rbx
	popq	%r14
	popq	%rbp
	.cfi_def_cfa %rsp, 8
	retq
.LBB39_9:                               # %func_uncompressStream.164
	.cfi_def_cfa %rbp, 16
	movq	%rbx, %rdi
	movq	%r14, %rsi
	callq	uncompressStream.164
	movzbl	%al, %eax
	popq	%rbx
	popq	%r14
	popq	%rbp
	.cfi_def_cfa %rsp, 8
	retq
.LBB39_10:                              # %func_uncompressStream.172
	.cfi_def_cfa %rbp, 16
	movq	%rbx, %rdi
	movq	%r14, %rsi
	callq	uncompressStream.172
	movzbl	%al, %eax
	popq	%rbx
	popq	%r14
	popq	%rbp
	.cfi_def_cfa %rsp, 8
	retq
.LBB39_11:                              # %func_uncompressStream.174
	.cfi_def_cfa %rbp, 16
	movq	%rbx, %rdi
	movq	%r14, %rsi
	callq	uncompressStream.174
	movzbl	%al, %eax
	popq	%rbx
	popq	%r14
	popq	%rbp
	.cfi_def_cfa %rsp, 8
	retq
.LBB39_12:                              # %func_uncompressStream.212
	.cfi_def_cfa %rbp, 16
	movq	%rbx, %rdi
	movq	%r14, %rsi
	callq	uncompressStream.212
	movzbl	%al, %eax
	popq	%rbx
	popq	%r14
	popq	%rbp
	.cfi_def_cfa %rsp, 8
	retq
.LBB39_13:                              # %func_uncompressStream.270
	.cfi_def_cfa %rbp, 16
	movq	%rbx, %rdi
	movq	%r14, %rsi
	callq	uncompressStream.270
	movzbl	%al, %eax
	popq	%rbx
	popq	%r14
	popq	%rbp
	.cfi_def_cfa %rsp, 8
	retq
.LBB39_14:                              # %func_uncompressStream.282
	.cfi_def_cfa %rbp, 16
	movq	%rbx, %rdi
	movq	%r14, %rsi
	callq	uncompressStream.282
	movzbl	%al, %eax
	popq	%rbx
	popq	%r14
	popq	%rbp
	.cfi_def_cfa %rsp, 8
	retq
.LBB39_15:                              # %func_uncompressStream.285
	.cfi_def_cfa %rbp, 16
	movq	%rbx, %rdi
	movq	%r14, %rsi
	callq	uncompressStream.285
	movzbl	%al, %eax
	popq	%rbx
	popq	%r14
	popq	%rbp
	.cfi_def_cfa %rsp, 8
	retq
.LBB39_16:                              # %func_uncompressStream.286
	.cfi_def_cfa %rbp, 16
	movq	%rbx, %rdi
	movq	%r14, %rsi
	callq	uncompressStream.286
	movzbl	%al, %eax
	popq	%rbx
	popq	%r14
	popq	%rbp
	.cfi_def_cfa %rsp, 8
	retq
.LBB39_17:                              # %ctrl0
	.cfi_def_cfa %rbp, 16
	cmpl	$1, %eax
	je	.LBB39_2
# %bb.18:                               # %ctrl1
	cmpl	$2, %eax
	je	.LBB39_3
# %bb.19:                               # %ctrl2
	cmpl	$3, %eax
	je	.LBB39_4
# %bb.20:                               # %ctrl3
	cmpl	$4, %eax
	je	.LBB39_5
# %bb.21:                               # %ctrl4
	cmpl	$5, %eax
	je	.LBB39_6
# %bb.22:                               # %ctrl5
	cmpl	$6, %eax
	je	.LBB39_7
# %bb.23:                               # %ctrl6
	cmpl	$7, %eax
	je	.LBB39_8
# %bb.24:                               # %ctrl7
	cmpl	$8, %eax
	je	.LBB39_9
# %bb.25:                               # %ctrl8
	cmpl	$9, %eax
	je	.LBB39_10
# %bb.26:                               # %ctrl9
	cmpl	$10, %eax
	je	.LBB39_11
# %bb.27:                               # %ctrl10
	cmpl	$11, %eax
	je	.LBB39_12
# %bb.28:                               # %ctrl11
	cmpl	$12, %eax
	je	.LBB39_13
# %bb.29:                               # %ctrl12
	cmpl	$13, %eax
	je	.LBB39_14
# %bb.30:                               # %ctrl13
	cmpl	$14, %eax
	je	.LBB39_15
	jmp	.LBB39_16
.Lfunc_end39:
	.size	uncompressStream, .Lfunc_end39-uncompressStream
	.cfi_endproc
                                        # -- End function
	.p2align	4, 0x90         # -- Begin function crcError
	.type	crcError,@function
crcError:                               # @crcError
	.cfi_startproc
# %bb.0:                                # %entry
	pushq	%rbp
	.cfi_def_cfa_offset 16
	.cfi_offset %rbp, -16
	movq	%rsp, %rbp
	.cfi_def_cfa_register %rbp
	movq	stderr, %rdi
	movq	progName, %rdx
	movabsq	$.L.str.92, %rsi
	movb	$0, %al
	callq	fprintf
	callq	showFileNames
	callq	cadvise
	movl	$2, %edi
	callq	cleanUpAndFail
.Lfunc_end40:
	.size	crcError, .Lfunc_end40-crcError
	.cfi_endproc
                                        # -- End function
	.p2align	4, 0x90         # -- Begin function compressedStreamEOF
	.type	compressedStreamEOF,@function
compressedStreamEOF:                    # @compressedStreamEOF
	.cfi_startproc
# %bb.0:                                # %entry
	pushq	%rbp
	.cfi_def_cfa_offset 16
	.cfi_offset %rbp, -16
	movq	%rsp, %rbp
	.cfi_def_cfa_register %rbp
	cmpb	$0, noisy
	je	.LBB41_2
# %bb.1:                                # %if.then
	movq	stderr, %rdi
	movq	progName, %rdx
	movabsq	$.L.str.93, %rsi
	movb	$0, %al
	callq	fprintf
	movq	progName, %rdi
	callq	perror
	callq	showFileNames
	callq	cadvise
.LBB41_2:                               # %if.end
	movl	$2, %edi
	callq	cleanUpAndFail
.Lfunc_end41:
	.size	compressedStreamEOF, .Lfunc_end41-compressedStreamEOF
	.cfi_endproc
                                        # -- End function
	.p2align	4, 0x90         # -- Begin function testStream
	.type	testStream,@function
testStream:                             # @testStream
	.cfi_startproc
# %bb.0:                                # %rand_bb
	pushq	%rbp
	.cfi_def_cfa_offset 16
	.cfi_offset %rbp, -16
	movq	%rsp, %rbp
	.cfi_def_cfa_register %rbp
	pushq	%rbx
	pushq	%rax
	.cfi_offset %rbx, -24
	movq	%rdi, %rbx
	callq	get_rand
	cmpl	$0, %eax
	jne	.LBB42_17
# %bb.1:                                # %func_testStream.22
	movq	%rbx, %rdi
	callq	testStream.22
	movzbl	%al, %eax
	addq	$8, %rsp
	popq	%rbx
	popq	%rbp
	.cfi_def_cfa %rsp, 8
	retq
.LBB42_2:                               # %func_testStream.23
	.cfi_def_cfa %rbp, 16
	movq	%rbx, %rdi
	callq	testStream.23
	movzbl	%al, %eax
	addq	$8, %rsp
	popq	%rbx
	popq	%rbp
	.cfi_def_cfa %rsp, 8
	retq
.LBB42_3:                               # %func_testStream.27
	.cfi_def_cfa %rbp, 16
	movq	%rbx, %rdi
	callq	testStream.27
	movzbl	%al, %eax
	addq	$8, %rsp
	popq	%rbx
	popq	%rbp
	.cfi_def_cfa %rsp, 8
	retq
.LBB42_4:                               # %func_testStream.28
	.cfi_def_cfa %rbp, 16
	movq	%rbx, %rdi
	callq	testStream.28
	movzbl	%al, %eax
	addq	$8, %rsp
	popq	%rbx
	popq	%rbp
	.cfi_def_cfa %rsp, 8
	retq
.LBB42_5:                               # %func_testStream.49
	.cfi_def_cfa %rbp, 16
	movq	%rbx, %rdi
	callq	testStream.49
	movzbl	%al, %eax
	addq	$8, %rsp
	popq	%rbx
	popq	%rbp
	.cfi_def_cfa %rsp, 8
	retq
.LBB42_6:                               # %func_testStream.58
	.cfi_def_cfa %rbp, 16
	movq	%rbx, %rdi
	callq	testStream.58
	movzbl	%al, %eax
	addq	$8, %rsp
	popq	%rbx
	popq	%rbp
	.cfi_def_cfa %rsp, 8
	retq
.LBB42_7:                               # %func_testStream.61
	.cfi_def_cfa %rbp, 16
	movq	%rbx, %rdi
	callq	testStream.61
	movzbl	%al, %eax
	addq	$8, %rsp
	popq	%rbx
	popq	%rbp
	.cfi_def_cfa %rsp, 8
	retq
.LBB42_8:                               # %func_testStream.67
	.cfi_def_cfa %rbp, 16
	movq	%rbx, %rdi
	callq	testStream.67
	movzbl	%al, %eax
	addq	$8, %rsp
	popq	%rbx
	popq	%rbp
	.cfi_def_cfa %rsp, 8
	retq
.LBB42_9:                               # %func_testStream.98
	.cfi_def_cfa %rbp, 16
	movq	%rbx, %rdi
	callq	testStream.98
	movzbl	%al, %eax
	addq	$8, %rsp
	popq	%rbx
	popq	%rbp
	.cfi_def_cfa %rsp, 8
	retq
.LBB42_10:                              # %func_testStream.99
	.cfi_def_cfa %rbp, 16
	movq	%rbx, %rdi
	callq	testStream.99
	movzbl	%al, %eax
	addq	$8, %rsp
	popq	%rbx
	popq	%rbp
	.cfi_def_cfa %rsp, 8
	retq
.LBB42_11:                              # %func_testStream.100
	.cfi_def_cfa %rbp, 16
	movq	%rbx, %rdi
	callq	testStream.100
	movzbl	%al, %eax
	addq	$8, %rsp
	popq	%rbx
	popq	%rbp
	.cfi_def_cfa %rsp, 8
	retq
.LBB42_12:                              # %func_testStream.104
	.cfi_def_cfa %rbp, 16
	movq	%rbx, %rdi
	callq	testStream.104
	movzbl	%al, %eax
	addq	$8, %rsp
	popq	%rbx
	popq	%rbp
	.cfi_def_cfa %rsp, 8
	retq
.LBB42_13:                              # %func_testStream.121
	.cfi_def_cfa %rbp, 16
	movq	%rbx, %rdi
	callq	testStream.121
	movzbl	%al, %eax
	addq	$8, %rsp
	popq	%rbx
	popq	%rbp
	.cfi_def_cfa %rsp, 8
	retq
.LBB42_14:                              # %func_testStream.132
	.cfi_def_cfa %rbp, 16
	movq	%rbx, %rdi
	callq	testStream.132
	movzbl	%al, %eax
	addq	$8, %rsp
	popq	%rbx
	popq	%rbp
	.cfi_def_cfa %rsp, 8
	retq
.LBB42_15:                              # %func_testStream.135
	.cfi_def_cfa %rbp, 16
	movq	%rbx, %rdi
	callq	testStream.135
	movzbl	%al, %eax
	addq	$8, %rsp
	popq	%rbx
	popq	%rbp
	.cfi_def_cfa %rsp, 8
	retq
.LBB42_16:                              # %func_testStream.148
	.cfi_def_cfa %rbp, 16
	movq	%rbx, %rdi
	callq	testStream.148
	movzbl	%al, %eax
	addq	$8, %rsp
	popq	%rbx
	popq	%rbp
	.cfi_def_cfa %rsp, 8
	retq
.LBB42_17:                              # %ctrl0
	.cfi_def_cfa %rbp, 16
	cmpl	$1, %eax
	je	.LBB42_2
# %bb.18:                               # %ctrl1
	cmpl	$2, %eax
	je	.LBB42_3
# %bb.19:                               # %ctrl2
	cmpl	$3, %eax
	je	.LBB42_4
# %bb.20:                               # %ctrl3
	cmpl	$4, %eax
	je	.LBB42_5
# %bb.21:                               # %ctrl4
	cmpl	$5, %eax
	je	.LBB42_6
# %bb.22:                               # %ctrl5
	cmpl	$6, %eax
	je	.LBB42_7
# %bb.23:                               # %ctrl6
	cmpl	$7, %eax
	je	.LBB42_8
# %bb.24:                               # %ctrl7
	cmpl	$8, %eax
	je	.LBB42_9
# %bb.25:                               # %ctrl8
	cmpl	$9, %eax
	je	.LBB42_10
# %bb.26:                               # %ctrl9
	cmpl	$10, %eax
	je	.LBB42_11
# %bb.27:                               # %ctrl10
	cmpl	$11, %eax
	je	.LBB42_12
# %bb.28:                               # %ctrl11
	cmpl	$12, %eax
	je	.LBB42_13
# %bb.29:                               # %ctrl12
	cmpl	$13, %eax
	je	.LBB42_14
# %bb.30:                               # %ctrl13
	cmpl	$14, %eax
	je	.LBB42_15
	jmp	.LBB42_16
.Lfunc_end42:
	.size	testStream, .Lfunc_end42-testStream
	.cfi_endproc
                                        # -- End function
	.p2align	4, 0x90         # -- Begin function cleanUpAndFail.1
	.type	cleanUpAndFail.1,@function
cleanUpAndFail.1:                       # @cleanUpAndFail.1
	.cfi_startproc
# %bb.0:                                # %entry
	pushq	%rbp
	.cfi_def_cfa_offset 16
	.cfi_offset %rbp, -16
	movq	%rsp, %rbp
	.cfi_def_cfa_register %rbp
	subq	$160, %rsp
	movl	$1527169519, -12(%rbp)  # imm = 0x5B06C1EF
	movl	%edi, -8(%rbp)
	cmpl	$3, srcMode
	jne	.LBB43_13
# %bb.1:                                # %land.lhs.true
	cmpl	$3, opMode
	je	.LBB43_13
# %bb.2:                                # %land.lhs.true2
	movzbl	deleteOutputOnInterrupt, %eax
	cmpl	$0, %eax
	je	.LBB43_13
# %bb.3:                                # %if.then
	movabsq	$inName, %rdi
	leaq	-160(%rbp), %rsi
	callq	stat
	movl	%eax, -4(%rbp)
	cmpl	$0, -4(%rbp)
	jne	.LBB43_11
# %bb.4:                                # %if.then5
	cmpb	$0, noisy
	je	.LBB43_6
# %bb.5:                                # %if.then7
	movq	stderr, %rdi
	movq	progName, %rdx
	movabsq	$.L.str.39, %rsi
	movabsq	$outName, %rcx
	movb	$0, %al
	callq	fprintf
.LBB43_6:                               # %if.end
	cmpq	$0, outputHandleJustInCase
	je	.LBB43_8
# %bb.7:                                # %if.then11
	movq	outputHandleJustInCase, %rdi
	callq	fclose
.LBB43_8:                               # %if.end13
	movabsq	$outName, %rdi
	callq	remove
	movl	%eax, -4(%rbp)
	cmpl	$0, -4(%rbp)
	je	.LBB43_10
# %bb.9:                                # %if.then17
	movq	stderr, %rdi
	movq	progName, %rdx
	movabsq	$.L.str.40, %rsi
	movb	$0, %al
	callq	fprintf
.LBB43_10:                              # %if.end19
	jmp	.LBB43_12
.LBB43_11:                              # %if.else
	movq	stderr, %rdi
	movq	progName, %rdx
	movabsq	$.L.str.41, %rsi
	movb	$0, %al
	callq	fprintf
	movq	stderr, %rdi
	movq	progName, %rdx
	movabsq	$.L.str.42, %rsi
	movb	$0, %al
	callq	fprintf
	movq	stderr, %rdi
	movq	progName, %rdx
	movabsq	$.L.str.43, %rsi
	movabsq	$outName, %rcx
	movb	$0, %al
	callq	fprintf
	movq	stderr, %rdi
	movq	progName, %rdx
	movabsq	$.L.str.44, %rsi
	movb	$0, %al
	callq	fprintf
.LBB43_12:                              # %if.end24
	jmp	.LBB43_13
.LBB43_13:                              # %if.end25
	movzbl	noisy, %eax
	cmpl	$0, %eax
	je	.LBB43_17
# %bb.14:                               # %land.lhs.true28
	cmpl	$0, numFileNames
	jle	.LBB43_17
# %bb.15:                               # %land.lhs.true31
	movl	numFilesProcessed, %eax
	cmpl	numFileNames, %eax
	jge	.LBB43_17
# %bb.16:                               # %if.then34
	movq	stderr, %rdi
	movq	progName, %rdx
	movq	progName, %rcx
	movl	numFileNames, %r8d
	movl	numFileNames, %r9d
	subl	numFilesProcessed, %r9d
	movabsq	$.L.str.45, %rsi
	movb	$0, %al
	callq	fprintf
.LBB43_17:                              # %if.end36
	movl	-8(%rbp), %edi
	callq	setExit
	movl	exitValue, %edi
	callq	exit
.Lfunc_end43:
	.size	cleanUpAndFail.1, .Lfunc_end43-cleanUpAndFail.1
	.cfi_endproc
                                        # -- End function
	.p2align	4, 0x90         # -- Begin function uInt64_toAscii.2
	.type	uInt64_toAscii.2,@function
uInt64_toAscii.2:                       # @uInt64_toAscii.2
	.cfi_startproc
# %bb.0:                                # %entry
	pushq	%rbp
	.cfi_def_cfa_offset 16
	.cfi_offset %rbp, -16
	movq	%rsp, %rbp
	.cfi_def_cfa_register %rbp
	subq	$80, %rsp
	movl	$438006289, -16(%rbp)   # imm = 0x1A1B7211
	movq	%rdi, -24(%rbp)
	movq	%rsi, -40(%rbp)
	movl	$0, -4(%rbp)
	movq	-40(%rbp), %rax
	movq	(%rax), %rax
	movq	%rax, -32(%rbp)
.LBB44_1:                               # %do.body
                                        # =>This Inner Loop Header: Depth=1
	leaq	-32(%rbp), %rdi
	callq	uInt64_qrm10
	movl	%eax, -12(%rbp)
	movl	-12(%rbp), %eax
	addl	$48, %eax
	movslq	-4(%rbp), %rcx
	movb	%al, -80(%rbp,%rcx)
	movl	-4(%rbp), %eax
	addl	$1, %eax
	movl	%eax, -4(%rbp)
# %bb.2:                                # %do.cond
                                        #   in Loop: Header=BB44_1 Depth=1
	leaq	-32(%rbp), %rdi
	callq	uInt64_isZero
	cmpb	$0, %al
	setne	%al
	xorb	$-1, %al
	testb	$1, %al
	jne	.LBB44_1
# %bb.3:                                # %do.end
	movq	-24(%rbp), %rax
	movslq	-4(%rbp), %rcx
	movb	$0, (%rax,%rcx)
	movl	$0, -8(%rbp)
.LBB44_4:                               # %for.cond
                                        # =>This Inner Loop Header: Depth=1
	movl	-8(%rbp), %eax
	cmpl	-4(%rbp), %eax
	jge	.LBB44_7
# %bb.5:                                # %for.body
                                        #   in Loop: Header=BB44_4 Depth=1
	movl	-4(%rbp), %eax
	subl	-8(%rbp), %eax
	subl	$1, %eax
	cltq
	movb	-80(%rbp,%rax), %al
	movq	-24(%rbp), %rcx
	movslq	-8(%rbp), %rdx
	movb	%al, (%rcx,%rdx)
# %bb.6:                                # %for.inc
                                        #   in Loop: Header=BB44_4 Depth=1
	movl	-8(%rbp), %eax
	addl	$1, %eax
	movl	%eax, -8(%rbp)
	jmp	.LBB44_4
.LBB44_7:                               # %for.end
	cmpl	$438006289, -16(%rbp)   # imm = 0x1A1B7211
	jne	.LBB44_9
.LBB44_8:
	addq	$80, %rsp
	popq	%rbp
	.cfi_def_cfa %rsp, 8
	retq
.LBB44_9:                               # %func_exit
	.cfi_def_cfa %rbp, 16
	callq	detect_breach
	jmp	.LBB44_8
.Lfunc_end44:
	.size	uInt64_toAscii.2, .Lfunc_end44-uInt64_toAscii.2
	.cfi_endproc
                                        # -- End function
	.p2align	4, 0x90         # -- Begin function snocString.3
	.type	snocString.3,@function
snocString.3:                           # @snocString.3
	.cfi_startproc
# %bb.0:                                # %entry
	pushq	%rbp
	.cfi_def_cfa_offset 16
	.cfi_offset %rbp, -16
	movq	%rsp, %rbp
	.cfi_def_cfa_register %rbp
	pushq	%rbx
	subq	$56, %rsp
	.cfi_offset %rbx, -24
	movl	$681232165, -44(%rbp)   # imm = 0x289AC725
	movq	%rdi, -40(%rbp)
	movq	%rsi, -24(%rbp)
	cmpq	$0, -40(%rbp)
	jne	.LBB45_2
# %bb.1:                                # %if.then
	callq	mkCell
	movq	%rax, -32(%rbp)
	movq	-24(%rbp), %rdi
	callq	strlen
	addq	$5, %rax
	movl	%eax, %edi
	callq	myMalloc
	movq	-32(%rbp), %rcx
	movq	%rax, (%rcx)
	movq	-32(%rbp), %rax
	movq	(%rax), %rdi
	movq	-24(%rbp), %rsi
	callq	strcpy
	movq	-32(%rbp), %rax
	movq	%rax, -56(%rbp)
	jmp	.LBB45_6
.LBB45_2:                               # %if.else
	movq	-40(%rbp), %rax
	movq	%rax, -16(%rbp)
.LBB45_3:                               # %while.cond
                                        # =>This Inner Loop Header: Depth=1
	movq	-16(%rbp), %rax
	cmpq	$0, 8(%rax)
	je	.LBB45_5
# %bb.4:                                # %while.body
                                        #   in Loop: Header=BB45_3 Depth=1
	movq	-16(%rbp), %rax
	movq	8(%rax), %rax
	movq	%rax, -16(%rbp)
	jmp	.LBB45_3
.LBB45_5:                               # %while.end
	movq	-16(%rbp), %rax
	movq	8(%rax), %rdi
	movq	-24(%rbp), %rsi
	callq	snocString
	movq	-16(%rbp), %rcx
	movq	%rax, 8(%rcx)
	movq	-40(%rbp), %rax
	movq	%rax, -56(%rbp)
.LBB45_6:                               # %return
	movq	-56(%rbp), %rbx
	cmpl	$681232165, -44(%rbp)   # imm = 0x289AC725
	jne	.LBB45_8
.LBB45_7:
	movq	%rbx, %rax
	addq	$56, %rsp
	popq	%rbx
	popq	%rbp
	.cfi_def_cfa %rsp, 8
	retq
.LBB45_8:                               # %func_exit
	.cfi_def_cfa %rbp, 16
	callq	detect_breach
	jmp	.LBB45_7
.Lfunc_end45:
	.size	snocString.3, .Lfunc_end45-snocString.3
	.cfi_endproc
                                        # -- End function
	.p2align	4, 0x90         # -- Begin function uInt64_qrm10.4
	.type	uInt64_qrm10.4,@function
uInt64_qrm10.4:                         # @uInt64_qrm10.4
	.cfi_startproc
# %bb.0:                                # %entry
	pushq	%rbp
	.cfi_def_cfa_offset 16
	.cfi_offset %rbp, -16
	movq	%rsp, %rbp
	.cfi_def_cfa_register %rbp
	pushq	%rbx
	subq	$24, %rsp
	.cfi_offset %rbx, -24
	movl	$1554853962, -24(%rbp)  # imm = 0x5CAD304A
	movq	%rdi, -32(%rbp)
	movl	$0, -16(%rbp)
	movl	$7, -12(%rbp)
.LBB46_1:                               # %for.cond
                                        # =>This Inner Loop Header: Depth=1
	cmpl	$0, -12(%rbp)
	jl	.LBB46_4
# %bb.2:                                # %for.body
                                        #   in Loop: Header=BB46_1 Depth=1
	movl	-16(%rbp), %eax
	shll	$8, %eax
	movq	-32(%rbp), %rcx
	movslq	-12(%rbp), %rdx
	movzbl	(%rcx,%rdx), %ecx
	addl	%ecx, %eax
	movl	%eax, -20(%rbp)
	movl	-20(%rbp), %eax
	xorl	%edx, %edx
	movl	$10, %ecx
	divl	%ecx
	movq	-32(%rbp), %rdx
	movslq	-12(%rbp), %rsi
	movb	%al, (%rdx,%rsi)
	movl	-20(%rbp), %eax
	xorl	%edx, %edx
	divl	%ecx
	movl	%edx, -16(%rbp)
# %bb.3:                                # %for.inc
                                        #   in Loop: Header=BB46_1 Depth=1
	movl	-12(%rbp), %eax
	addl	$-1, %eax
	movl	%eax, -12(%rbp)
	jmp	.LBB46_1
.LBB46_4:                               # %for.end
	movl	-16(%rbp), %ebx
	cmpl	$1554853962, -24(%rbp)  # imm = 0x5CAD304A
	jne	.LBB46_6
.LBB46_5:
	movl	%ebx, %eax
	addq	$24, %rsp
	popq	%rbx
	popq	%rbp
	.cfi_def_cfa %rsp, 8
	retq
.LBB46_6:                               # %func_exit
	.cfi_def_cfa %rbp, 16
	callq	detect_breach
	jmp	.LBB46_5
.Lfunc_end46:
	.size	uInt64_qrm10.4, .Lfunc_end46-uInt64_qrm10.4
	.cfi_endproc
                                        # -- End function
	.p2align	4, 0x90         # -- Begin function countHardLinks.5
	.type	countHardLinks.5,@function
countHardLinks.5:                       # @countHardLinks.5
	.cfi_startproc
# %bb.0:                                # %entry
	pushq	%rbp
	.cfi_def_cfa_offset 16
	.cfi_offset %rbp, -16
	movq	%rsp, %rbp
	.cfi_def_cfa_register %rbp
	pushq	%rbx
	subq	$168, %rsp
	.cfi_offset %rbx, -24
	movl	$91918955, -20(%rbp)    # imm = 0x57A926B
	movq	%rdi, -32(%rbp)
	movq	-32(%rbp), %rdi
	leaq	-176(%rbp), %rsi
	callq	lstat
	movl	%eax, -16(%rbp)
	cmpl	$0, -16(%rbp)
	je	.LBB47_2
# %bb.1:                                # %if.then
	movl	$0, -12(%rbp)
	jmp	.LBB47_3
.LBB47_2:                               # %if.end
	movq	-160(%rbp), %rax
	subq	$1, %rax
	movl	%eax, -12(%rbp)
.LBB47_3:                               # %return
	movl	-12(%rbp), %ebx
	cmpl	$91918955, -20(%rbp)    # imm = 0x57A926B
	jne	.LBB47_5
.LBB47_4:
	movl	%ebx, %eax
	addq	$168, %rsp
	popq	%rbx
	popq	%rbp
	.cfi_def_cfa %rsp, 8
	retq
.LBB47_5:                               # %func_exit
	.cfi_def_cfa %rbp, 16
	callq	detect_breach
	jmp	.LBB47_4
.Lfunc_end47:
	.size	countHardLinks.5, .Lfunc_end47-countHardLinks.5
	.cfi_endproc
                                        # -- End function
	.p2align	4, 0x90         # -- Begin function fileExists.6
	.type	fileExists.6,@function
fileExists.6:                           # @fileExists.6
	.cfi_startproc
# %bb.0:                                # %entry
	pushq	%rbp
	.cfi_def_cfa_offset 16
	.cfi_offset %rbp, -16
	movq	%rsp, %rbp
	.cfi_def_cfa_register %rbp
	pushq	%rbx
	subq	$40, %rsp
	.cfi_offset %rbx, -24
	movl	$1970034981, -28(%rbp)  # imm = 0x756C5925
	movq	%rdi, -40(%rbp)
	movq	-40(%rbp), %rdi
	movabsq	$.L.str.66, %rsi
	callq	fopen
	movq	%rax, -24(%rbp)
	cmpq	$0, -24(%rbp)
	setne	%al
	andb	$1, %al
	movzbl	%al, %eax
	movb	%al, -9(%rbp)
	cmpq	$0, -24(%rbp)
	je	.LBB48_2
# %bb.1:                                # %if.then
	movq	-24(%rbp), %rdi
	callq	fclose
.LBB48_2:                               # %if.end
	movb	-9(%rbp), %bl
	cmpl	$1970034981, -28(%rbp)  # imm = 0x756C5925
	jne	.LBB48_4
.LBB48_3:
	movzbl	%bl, %eax
	addq	$40, %rsp
	popq	%rbx
	popq	%rbp
	.cfi_def_cfa %rsp, 8
	retq
.LBB48_4:                               # %func_exit
	.cfi_def_cfa %rbp, 16
	callq	detect_breach
	jmp	.LBB48_3
.Lfunc_end48:
	.size	fileExists.6, .Lfunc_end48-fileExists.6
	.cfi_endproc
                                        # -- End function
	.p2align	4, 0x90         # -- Begin function cleanUpAndFail.7
	.type	cleanUpAndFail.7,@function
cleanUpAndFail.7:                       # @cleanUpAndFail.7
	.cfi_startproc
# %bb.0:                                # %entry
	pushq	%rbp
	.cfi_def_cfa_offset 16
	.cfi_offset %rbp, -16
	movq	%rsp, %rbp
	.cfi_def_cfa_register %rbp
	subq	$160, %rsp
	movl	$107189950, -12(%rbp)   # imm = 0x66396BE
	movl	%edi, -8(%rbp)
	cmpl	$3, srcMode
	jne	.LBB49_13
# %bb.1:                                # %land.lhs.true
	cmpl	$3, opMode
	je	.LBB49_13
# %bb.2:                                # %land.lhs.true2
	movzbl	deleteOutputOnInterrupt, %eax
	cmpl	$0, %eax
	je	.LBB49_13
# %bb.3:                                # %if.then
	movabsq	$inName, %rdi
	leaq	-160(%rbp), %rsi
	callq	stat
	movl	%eax, -4(%rbp)
	cmpl	$0, -4(%rbp)
	jne	.LBB49_11
# %bb.4:                                # %if.then5
	cmpb	$0, noisy
	je	.LBB49_6
# %bb.5:                                # %if.then7
	movq	stderr, %rdi
	movq	progName, %rdx
	movabsq	$.L.str.39, %rsi
	movabsq	$outName, %rcx
	movb	$0, %al
	callq	fprintf
.LBB49_6:                               # %if.end
	cmpq	$0, outputHandleJustInCase
	je	.LBB49_8
# %bb.7:                                # %if.then11
	movq	outputHandleJustInCase, %rdi
	callq	fclose
.LBB49_8:                               # %if.end13
	movabsq	$outName, %rdi
	callq	remove
	movl	%eax, -4(%rbp)
	cmpl	$0, -4(%rbp)
	je	.LBB49_10
# %bb.9:                                # %if.then17
	movq	stderr, %rdi
	movq	progName, %rdx
	movabsq	$.L.str.40, %rsi
	movb	$0, %al
	callq	fprintf
.LBB49_10:                              # %if.end19
	jmp	.LBB49_12
.LBB49_11:                              # %if.else
	movq	stderr, %rdi
	movq	progName, %rdx
	movabsq	$.L.str.41, %rsi
	movb	$0, %al
	callq	fprintf
	movq	stderr, %rdi
	movq	progName, %rdx
	movabsq	$.L.str.42, %rsi
	movb	$0, %al
	callq	fprintf
	movq	stderr, %rdi
	movq	progName, %rdx
	movabsq	$.L.str.43, %rsi
	movabsq	$outName, %rcx
	movb	$0, %al
	callq	fprintf
	movq	stderr, %rdi
	movq	progName, %rdx
	movabsq	$.L.str.44, %rsi
	movb	$0, %al
	callq	fprintf
.LBB49_12:                              # %if.end24
	jmp	.LBB49_13
.LBB49_13:                              # %if.end25
	movzbl	noisy, %eax
	cmpl	$0, %eax
	je	.LBB49_17
# %bb.14:                               # %land.lhs.true28
	cmpl	$0, numFileNames
	jle	.LBB49_17
# %bb.15:                               # %land.lhs.true31
	movl	numFilesProcessed, %eax
	cmpl	numFileNames, %eax
	jge	.LBB49_17
# %bb.16:                               # %if.then34
	movq	stderr, %rdi
	movq	progName, %rdx
	movq	progName, %rcx
	movl	numFileNames, %r8d
	movl	numFileNames, %r9d
	subl	numFilesProcessed, %r9d
	movabsq	$.L.str.45, %rsi
	movb	$0, %al
	callq	fprintf
.LBB49_17:                              # %if.end36
	movl	-8(%rbp), %edi
	callq	setExit
	movl	exitValue, %edi
	callq	exit
.Lfunc_end49:
	.size	cleanUpAndFail.7, .Lfunc_end49-cleanUpAndFail.7
	.cfi_endproc
                                        # -- End function
	.p2align	4, 0x90         # -- Begin function myMalloc.8
	.type	myMalloc.8,@function
myMalloc.8:                             # @myMalloc.8
	.cfi_startproc
# %bb.0:                                # %entry
	pushq	%rbp
	.cfi_def_cfa_offset 16
	.cfi_offset %rbp, -16
	movq	%rsp, %rbp
	.cfi_def_cfa_register %rbp
	pushq	%rbx
	subq	$24, %rsp
	.cfi_offset %rbx, -24
	movl	$190804584, -16(%rbp)   # imm = 0xB5F7268
	movl	%edi, -12(%rbp)
	movslq	-12(%rbp), %rdi
	callq	malloc
	movq	%rax, -24(%rbp)
	cmpq	$0, -24(%rbp)
	jne	.LBB50_2
# %bb.1:                                # %if.then
	callq	outOfMemory
.LBB50_2:                               # %if.end
	movq	-24(%rbp), %rbx
	cmpl	$190804584, -16(%rbp)   # imm = 0xB5F7268
	jne	.LBB50_4
.LBB50_3:
	movq	%rbx, %rax
	addq	$24, %rsp
	popq	%rbx
	popq	%rbp
	.cfi_def_cfa %rsp, 8
	retq
.LBB50_4:                               # %func_exit
	.cfi_def_cfa %rbp, 16
	callq	detect_breach
	jmp	.LBB50_3
.Lfunc_end50:
	.size	myMalloc.8, .Lfunc_end50-myMalloc.8
	.cfi_endproc
                                        # -- End function
	.p2align	4, 0x90         # -- Begin function copyFileName.9
	.type	copyFileName.9,@function
copyFileName.9:                         # @copyFileName.9
	.cfi_startproc
# %bb.0:                                # %entry
	pushq	%rbp
	.cfi_def_cfa_offset 16
	.cfi_offset %rbp, -16
	movq	%rsp, %rbp
	.cfi_def_cfa_register %rbp
	subq	$32, %rsp
	movl	$2136317786, -12(%rbp)  # imm = 0x7F559F5A
	movq	%rdi, -24(%rbp)
	movq	%rsi, -8(%rbp)
	movq	-8(%rbp), %rdi
	callq	strlen
	cmpq	$1024, %rax             # imm = 0x400
	jbe	.LBB51_2
# %bb.1:                                # %if.then
	movq	stderr, %rdi
	movq	-8(%rbp), %rdx
	movabsq	$.L.str.47, %rsi
	movl	$1024, %ecx             # imm = 0x400
	movb	$0, %al
	callq	fprintf
	movl	$1, %edi
	callq	setExit
	movl	exitValue, %edi
	callq	exit
.LBB51_2:                               # %if.end
	movq	-24(%rbp), %rdi
	movq	-8(%rbp), %rsi
	movl	$1024, %edx             # imm = 0x400
	callq	strncpy
	movq	-24(%rbp), %rax
	movb	$0, 1024(%rax)
	cmpl	$2136317786, -12(%rbp)  # imm = 0x7F559F5A
	jne	.LBB51_4
.LBB51_3:
	addq	$32, %rsp
	popq	%rbp
	.cfi_def_cfa %rsp, 8
	retq
.LBB51_4:                               # %func_exit
	.cfi_def_cfa %rbp, 16
	callq	detect_breach
	jmp	.LBB51_3
.Lfunc_end51:
	.size	copyFileName.9, .Lfunc_end51-copyFileName.9
	.cfi_endproc
                                        # -- End function
	.p2align	4, 0x90         # -- Begin function uInt64_from_UInt32s.10
	.type	uInt64_from_UInt32s.10,@function
uInt64_from_UInt32s.10:                 # @uInt64_from_UInt32s.10
	.cfi_startproc
# %bb.0:                                # %entry
	pushq	%rbp
	.cfi_def_cfa_offset 16
	.cfi_offset %rbp, -16
	movq	%rsp, %rbp
	.cfi_def_cfa_register %rbp
	subq	$32, %rsp
	movl	$876407135, -20(%rbp)   # imm = 0x343CE95F
	movq	%rdi, -16(%rbp)
	movl	%esi, -8(%rbp)
	movl	%edx, -4(%rbp)
	movl	-4(%rbp), %eax
	shrl	$24, %eax
	andl	$255, %eax
	movq	-16(%rbp), %rcx
	movb	%al, 7(%rcx)
	movl	-4(%rbp), %eax
	shrl	$16, %eax
	andl	$255, %eax
	movq	-16(%rbp), %rcx
	movb	%al, 6(%rcx)
	movl	-4(%rbp), %eax
	shrl	$8, %eax
	andl	$255, %eax
	movq	-16(%rbp), %rcx
	movb	%al, 5(%rcx)
	movl	-4(%rbp), %eax
	andl	$255, %eax
	movq	-16(%rbp), %rcx
	movb	%al, 4(%rcx)
	movl	-8(%rbp), %eax
	shrl	$24, %eax
	andl	$255, %eax
	movq	-16(%rbp), %rcx
	movb	%al, 3(%rcx)
	movl	-8(%rbp), %eax
	shrl	$16, %eax
	andl	$255, %eax
	movq	-16(%rbp), %rcx
	movb	%al, 2(%rcx)
	movl	-8(%rbp), %eax
	shrl	$8, %eax
	andl	$255, %eax
	movq	-16(%rbp), %rcx
	movb	%al, 1(%rcx)
	movl	-8(%rbp), %eax
	andl	$255, %eax
	movq	-16(%rbp), %rcx
	movb	%al, (%rcx)
	cmpl	$876407135, -20(%rbp)   # imm = 0x343CE95F
	jne	.LBB52_2
.LBB52_1:
	addq	$32, %rsp
	popq	%rbp
	.cfi_def_cfa %rsp, 8
	retq
.LBB52_2:                               # %func_exit
	.cfi_def_cfa %rbp, 16
	callq	detect_breach
	jmp	.LBB52_1
.Lfunc_end52:
	.size	uInt64_from_UInt32s.10, .Lfunc_end52-uInt64_from_UInt32s.10
	.cfi_endproc
                                        # -- End function
	.p2align	4, 0x90         # -- Begin function uInt64_from_UInt32s.11
	.type	uInt64_from_UInt32s.11,@function
uInt64_from_UInt32s.11:                 # @uInt64_from_UInt32s.11
	.cfi_startproc
# %bb.0:                                # %entry
	pushq	%rbp
	.cfi_def_cfa_offset 16
	.cfi_offset %rbp, -16
	movq	%rsp, %rbp
	.cfi_def_cfa_register %rbp
	subq	$32, %rsp
	movl	$2018422231, -20(%rbp)  # imm = 0x784EADD7
	movq	%rdi, -16(%rbp)
	movl	%esi, -8(%rbp)
	movl	%edx, -4(%rbp)
	movl	-4(%rbp), %eax
	shrl	$24, %eax
	andl	$255, %eax
	movq	-16(%rbp), %rcx
	movb	%al, 7(%rcx)
	movl	-4(%rbp), %eax
	shrl	$16, %eax
	andl	$255, %eax
	movq	-16(%rbp), %rcx
	movb	%al, 6(%rcx)
	movl	-4(%rbp), %eax
	shrl	$8, %eax
	andl	$255, %eax
	movq	-16(%rbp), %rcx
	movb	%al, 5(%rcx)
	movl	-4(%rbp), %eax
	andl	$255, %eax
	movq	-16(%rbp), %rcx
	movb	%al, 4(%rcx)
	movl	-8(%rbp), %eax
	shrl	$24, %eax
	andl	$255, %eax
	movq	-16(%rbp), %rcx
	movb	%al, 3(%rcx)
	movl	-8(%rbp), %eax
	shrl	$16, %eax
	andl	$255, %eax
	movq	-16(%rbp), %rcx
	movb	%al, 2(%rcx)
	movl	-8(%rbp), %eax
	shrl	$8, %eax
	andl	$255, %eax
	movq	-16(%rbp), %rcx
	movb	%al, 1(%rcx)
	movl	-8(%rbp), %eax
	andl	$255, %eax
	movq	-16(%rbp), %rcx
	movb	%al, (%rcx)
	cmpl	$2018422231, -20(%rbp)  # imm = 0x784EADD7
	jne	.LBB53_2
.LBB53_1:
	addq	$32, %rsp
	popq	%rbp
	.cfi_def_cfa %rsp, 8
	retq
.LBB53_2:                               # %func_exit
	.cfi_def_cfa %rbp, 16
	callq	detect_breach
	jmp	.LBB53_1
.Lfunc_end53:
	.size	uInt64_from_UInt32s.11, .Lfunc_end53-uInt64_from_UInt32s.11
	.cfi_endproc
                                        # -- End function
	.p2align	4, 0x90         # -- Begin function hasSuffix.12
	.type	hasSuffix.12,@function
hasSuffix.12:                           # @hasSuffix.12
	.cfi_startproc
# %bb.0:                                # %entry
	pushq	%rbp
	.cfi_def_cfa_offset 16
	.cfi_offset %rbp, -16
	movq	%rsp, %rbp
	.cfi_def_cfa_register %rbp
	pushq	%rbx
	subq	$40, %rsp
	.cfi_offset %rbx, -24
	movl	$877831199, -24(%rbp)   # imm = 0x3452A41F
	movq	%rdi, -32(%rbp)
	movq	%rsi, -40(%rbp)
	movq	-32(%rbp), %rdi
	callq	strlen
	movl	%eax, -20(%rbp)
	movq	-40(%rbp), %rdi
	callq	strlen
	movl	%eax, -16(%rbp)
	movl	-20(%rbp), %eax
	cmpl	-16(%rbp), %eax
	jge	.LBB54_2
# %bb.1:                                # %if.then
	movb	$0, -9(%rbp)
	jmp	.LBB54_5
.LBB54_2:                               # %if.end
	xorl	%eax, %eax
	movq	-32(%rbp), %rdi
	movslq	-20(%rbp), %rcx
	addq	%rcx, %rdi
	movslq	-16(%rbp), %rcx
	subq	%rcx, %rax
	addq	%rax, %rdi
	movq	-40(%rbp), %rsi
	callq	strcmp
	cmpl	$0, %eax
	jne	.LBB54_4
# %bb.3:                                # %if.then9
	movb	$1, -9(%rbp)
	jmp	.LBB54_5
.LBB54_4:                               # %if.end10
	movb	$0, -9(%rbp)
.LBB54_5:                               # %return
	movb	-9(%rbp), %bl
	cmpl	$877831199, -24(%rbp)   # imm = 0x3452A41F
	jne	.LBB54_7
.LBB54_6:
	movzbl	%bl, %eax
	addq	$40, %rsp
	popq	%rbx
	popq	%rbp
	.cfi_def_cfa %rsp, 8
	retq
.LBB54_7:                               # %func_exit
	.cfi_def_cfa %rbp, 16
	callq	detect_breach
	jmp	.LBB54_6
.Lfunc_end54:
	.size	hasSuffix.12, .Lfunc_end54-hasSuffix.12
	.cfi_endproc
                                        # -- End function
	.p2align	4, 0x90         # -- Begin function pad.13
	.type	pad.13,@function
pad.13:                                 # @pad.13
	.cfi_startproc
# %bb.0:                                # %entry
	pushq	%rbp
	.cfi_def_cfa_offset 16
	.cfi_offset %rbp, -16
	movq	%rsp, %rbp
	.cfi_def_cfa_register %rbp
	pushq	%r14
	pushq	%rbx
	subq	$16, %rsp
	.cfi_offset %rbx, -32
	.cfi_offset %r14, -24
	movl	$1187759929, -24(%rbp)  # imm = 0x46CBC739
	movq	%rdi, -32(%rbp)
	movq	-32(%rbp), %rdi
	callq	strlen
	cmpl	longestFileName, %eax
	jl	.LBB55_2
# %bb.1:                                # %if.then
	jmp	.LBB55_7
.LBB55_2:                               # %if.end
	movl	$1, -20(%rbp)
.LBB55_3:                               # %for.cond
                                        # =>This Inner Loop Header: Depth=1
	movl	-20(%rbp), %r14d
	movl	longestFileName, %ebx
	movq	-32(%rbp), %rdi
	callq	strlen
	subl	%eax, %ebx
	cmpl	%ebx, %r14d
	jg	.LBB55_6
# %bb.4:                                # %for.body
                                        #   in Loop: Header=BB55_3 Depth=1
	movq	stderr, %rdi
	movabsq	$.L.str.72, %rsi
	movb	$0, %al
	callq	fprintf
# %bb.5:                                # %for.inc
                                        #   in Loop: Header=BB55_3 Depth=1
	movl	-20(%rbp), %eax
	addl	$1, %eax
	movl	%eax, -20(%rbp)
	jmp	.LBB55_3
.LBB55_6:                               # %for.end.loopexit
	jmp	.LBB55_7
.LBB55_7:                               # %for.end
	cmpl	$1187759929, -24(%rbp)  # imm = 0x46CBC739
	jne	.LBB55_9
.LBB55_8:
	addq	$16, %rsp
	popq	%rbx
	popq	%r14
	popq	%rbp
	.cfi_def_cfa %rsp, 8
	retq
.LBB55_9:                               # %func_exit
	.cfi_def_cfa %rbp, 16
	callq	detect_breach
	jmp	.LBB55_8
.Lfunc_end55:
	.size	pad.13, .Lfunc_end55-pad.13
	.cfi_endproc
                                        # -- End function
	.section	.rodata.cst8,"aM",@progbits,8
	.p2align	3               # -- Begin function uInt64_to_double.14
.LCPI56_0:
	.quad	4607182418800017408     # double 1
.LCPI56_1:
	.quad	4643211215818981376     # double 256
	.text
	.p2align	4, 0x90
	.type	uInt64_to_double.14,@function
uInt64_to_double.14:                    # @uInt64_to_double.14
	.cfi_startproc
# %bb.0:                                # %entry
	pushq	%rbp
	.cfi_def_cfa_offset 16
	.cfi_offset %rbp, -16
	movq	%rsp, %rbp
	.cfi_def_cfa_register %rbp
	subq	$48, %rsp
	vmovsd	.LCPI56_0(%rip), %xmm0  # xmm0 = mem[0],zero
	movl	$149368666, -28(%rbp)   # imm = 0x8E72F5A
	movq	%rdi, -48(%rbp)
	vmovsd	%xmm0, -24(%rbp)
	vxorps	%xmm0, %xmm0, %xmm0
	vmovsd	%xmm0, -16(%rbp)
	movl	$0, -4(%rbp)
.LBB56_1:                               # %for.cond
                                        # =>This Inner Loop Header: Depth=1
	cmpl	$8, -4(%rbp)
	jge	.LBB56_4
# %bb.2:                                # %for.body
                                        #   in Loop: Header=BB56_1 Depth=1
	vmovsd	.LCPI56_1(%rip), %xmm0  # xmm0 = mem[0],zero
	vmovsd	-24(%rbp), %xmm1        # xmm1 = mem[0],zero
	movq	-48(%rbp), %rax
	movslq	-4(%rbp), %rcx
	movzbl	(%rax,%rcx), %eax
	vcvtsi2sd	%eax, %xmm0, %xmm2
	vmulsd	%xmm2, %xmm1, %xmm1
	vaddsd	-16(%rbp), %xmm1, %xmm1
	vmovsd	%xmm1, -16(%rbp)
	vmulsd	-24(%rbp), %xmm0, %xmm0
	vmovsd	%xmm0, -24(%rbp)
# %bb.3:                                # %for.inc
                                        #   in Loop: Header=BB56_1 Depth=1
	movl	-4(%rbp), %eax
	addl	$1, %eax
	movl	%eax, -4(%rbp)
	jmp	.LBB56_1
.LBB56_4:                               # %for.end
	vmovsd	-16(%rbp), %xmm0        # xmm0 = mem[0],zero
	cmpl	$149368666, -28(%rbp)   # imm = 0x8E72F5A
	jne	.LBB56_6
.LBB56_5:
	addq	$48, %rsp
	popq	%rbp
	.cfi_def_cfa %rsp, 8
	retq
.LBB56_6:                               # %func_exit
	.cfi_def_cfa %rbp, 16
	vmovsd	%xmm0, -40(%rbp)        # 8-byte Spill
	callq	detect_breach
	vmovsd	-40(%rbp), %xmm0        # 8-byte Reload
                                        # xmm0 = mem[0],zero
	jmp	.LBB56_5
.Lfunc_end56:
	.size	uInt64_to_double.14, .Lfunc_end56-uInt64_to_double.14
	.cfi_endproc
                                        # -- End function
	.p2align	4, 0x90         # -- Begin function pad.15
	.type	pad.15,@function
pad.15:                                 # @pad.15
	.cfi_startproc
# %bb.0:                                # %entry
	pushq	%rbp
	.cfi_def_cfa_offset 16
	.cfi_offset %rbp, -16
	movq	%rsp, %rbp
	.cfi_def_cfa_register %rbp
	pushq	%r14
	pushq	%rbx
	subq	$16, %rsp
	.cfi_offset %rbx, -32
	.cfi_offset %r14, -24
	movl	$1812701360, -24(%rbp)  # imm = 0x6C0BA0B0
	movq	%rdi, -32(%rbp)
	movq	-32(%rbp), %rdi
	callq	strlen
	cmpl	longestFileName, %eax
	jl	.LBB57_2
# %bb.1:                                # %if.then
	jmp	.LBB57_7
.LBB57_2:                               # %if.end
	movl	$1, -20(%rbp)
.LBB57_3:                               # %for.cond
                                        # =>This Inner Loop Header: Depth=1
	movl	-20(%rbp), %r14d
	movl	longestFileName, %ebx
	movq	-32(%rbp), %rdi
	callq	strlen
	subl	%eax, %ebx
	cmpl	%ebx, %r14d
	jg	.LBB57_6
# %bb.4:                                # %for.body
                                        #   in Loop: Header=BB57_3 Depth=1
	movq	stderr, %rdi
	movabsq	$.L.str.72, %rsi
	movb	$0, %al
	callq	fprintf
# %bb.5:                                # %for.inc
                                        #   in Loop: Header=BB57_3 Depth=1
	movl	-20(%rbp), %eax
	addl	$1, %eax
	movl	%eax, -20(%rbp)
	jmp	.LBB57_3
.LBB57_6:                               # %for.end.loopexit
	jmp	.LBB57_7
.LBB57_7:                               # %for.end
	cmpl	$1812701360, -24(%rbp)  # imm = 0x6C0BA0B0
	jne	.LBB57_9
.LBB57_8:
	addq	$16, %rsp
	popq	%rbx
	popq	%r14
	popq	%rbp
	.cfi_def_cfa %rsp, 8
	retq
.LBB57_9:                               # %func_exit
	.cfi_def_cfa %rbp, 16
	callq	detect_breach
	jmp	.LBB57_8
.Lfunc_end57:
	.size	pad.15, .Lfunc_end57-pad.15
	.cfi_endproc
                                        # -- End function
	.p2align	4, 0x90         # -- Begin function uncompressStream.16
	.type	uncompressStream.16,@function
uncompressStream.16:                    # @uncompressStream.16
	.cfi_startproc
# %bb.0:                                # %entry
	pushq	%rbp
	.cfi_def_cfa_offset 16
	.cfi_offset %rbp, -16
	movq	%rsp, %rbp
	.cfi_def_cfa_register %rbp
	pushq	%rbx
	subq	$10104, %rsp            # imm = 0x2778
	.cfi_offset %rbx, -24
	movl	$1766543342, -68(%rbp)  # imm = 0x694B4FEE
	movq	%rdi, -24(%rbp)
	movq	%rsi, -32(%rbp)
	movq	$0, -64(%rbp)
	movl	$0, -48(%rbp)
	movl	$0, -52(%rbp)
	movq	-32(%rbp), %rdi
	callq	ferror
	cmpl	$0, %eax
	je	.LBB58_2
# %bb.1:                                # %if.then
	jmp	.LBB58_66
.LBB58_2:                               # %if.end
	movq	-24(%rbp), %rdi
	callq	ferror
	cmpl	$0, %eax
	je	.LBB58_4
# %bb.3:                                # %if.then3
	jmp	.LBB58_66
.LBB58_4:                               # %if.end4
	jmp	.LBB58_5
.LBB58_5:                               # %while.body
                                        # =>This Loop Header: Depth=1
                                        #     Child Loop BB58_9 Depth 2
                                        #     Child Loop BB58_24 Depth 2
	leaq	-10112(%rbp), %r8
	movq	-24(%rbp), %rsi
	movl	verbosity, %edx
	movzbl	smallMode, %ecx
	movl	-48(%rbp), %r9d
	leaq	-16(%rbp), %rdi
	callq	BZ2_bzReadOpen
	movq	%rax, -64(%rbp)
	cmpq	$0, -64(%rbp)
	je	.LBB58_7
# %bb.6:                                # %lor.lhs.false
                                        #   in Loop: Header=BB58_5 Depth=1
	cmpl	$0, -16(%rbp)
	je	.LBB58_8
.LBB58_7:                               # %if.then9
	jmp	.LBB58_62
.LBB58_8:                               # %if.end10
                                        #   in Loop: Header=BB58_5 Depth=1
	movl	-52(%rbp), %eax
	addl	$1, %eax
	movl	%eax, -52(%rbp)
.LBB58_9:                               # %while.cond11
                                        #   Parent Loop BB58_5 Depth=1
                                        # =>  This Inner Loop Header: Depth=2
	cmpl	$0, -16(%rbp)
	jne	.LBB58_19
# %bb.10:                               # %while.body14
                                        #   in Loop: Header=BB58_9 Depth=2
	leaq	-5104(%rbp), %rdx
	movq	-64(%rbp), %rsi
	leaq	-16(%rbp), %rdi
	movl	$5000, %ecx             # imm = 0x1388
	callq	BZ2_bzRead
	movl	%eax, -44(%rbp)
	cmpl	$-5, -16(%rbp)
	jne	.LBB58_12
# %bb.11:                               # %if.then19
	jmp	.LBB58_49
.LBB58_12:                              # %if.end20
                                        #   in Loop: Header=BB58_9 Depth=2
	cmpl	$0, -16(%rbp)
	je	.LBB58_14
# %bb.13:                               # %lor.lhs.false23
                                        #   in Loop: Header=BB58_9 Depth=2
	cmpl	$4, -16(%rbp)
	jne	.LBB58_16
.LBB58_14:                              # %land.lhs.true
                                        #   in Loop: Header=BB58_9 Depth=2
	cmpl	$0, -44(%rbp)
	jle	.LBB58_16
# %bb.15:                               # %if.then28
                                        #   in Loop: Header=BB58_9 Depth=2
	leaq	-5104(%rbp), %rdi
	movslq	-44(%rbp), %rdx
	movq	-32(%rbp), %rcx
	movl	$1, %esi
	callq	fwrite
.LBB58_16:                              # %if.end32
                                        #   in Loop: Header=BB58_9 Depth=2
	movq	-32(%rbp), %rdi
	callq	ferror
	cmpl	$0, %eax
	je	.LBB58_18
# %bb.17:                               # %if.then35
	jmp	.LBB58_66
.LBB58_18:                              # %if.end36
                                        #   in Loop: Header=BB58_9 Depth=2
	jmp	.LBB58_9
.LBB58_19:                              # %while.end
                                        #   in Loop: Header=BB58_5 Depth=1
	cmpl	$4, -16(%rbp)
	je	.LBB58_21
# %bb.20:                               # %if.then39
	jmp	.LBB58_62
.LBB58_21:                              # %if.end40
                                        #   in Loop: Header=BB58_5 Depth=1
	movq	-64(%rbp), %rsi
	leaq	-16(%rbp), %rdi
	leaq	-80(%rbp), %rdx
	leaq	-48(%rbp), %rcx
	callq	BZ2_bzReadGetUnused
	cmpl	$0, -16(%rbp)
	je	.LBB58_23
# %bb.22:                               # %if.then43
	movabsq	$.L.str.88, %rdi
	callq	panic
.LBB58_23:                              # %if.end44
                                        #   in Loop: Header=BB58_5 Depth=1
	movq	-80(%rbp), %rax
	movq	%rax, -88(%rbp)
	movl	$0, -36(%rbp)
.LBB58_24:                              # %for.cond
                                        #   Parent Loop BB58_5 Depth=1
                                        # =>  This Inner Loop Header: Depth=2
	movl	-36(%rbp), %eax
	cmpl	-48(%rbp), %eax
	jge	.LBB58_27
# %bb.25:                               # %for.body
                                        #   in Loop: Header=BB58_24 Depth=2
	movq	-88(%rbp), %rax
	movslq	-36(%rbp), %rcx
	movb	(%rax,%rcx), %al
	movslq	-36(%rbp), %rcx
	movb	%al, -10112(%rbp,%rcx)
# %bb.26:                               # %for.inc
                                        #   in Loop: Header=BB58_24 Depth=2
	movl	-36(%rbp), %eax
	addl	$1, %eax
	movl	%eax, -36(%rbp)
	jmp	.LBB58_24
.LBB58_27:                              # %for.end
                                        #   in Loop: Header=BB58_5 Depth=1
	movq	-64(%rbp), %rsi
	leaq	-16(%rbp), %rdi
	callq	BZ2_bzReadClose
	cmpl	$0, -16(%rbp)
	je	.LBB58_29
# %bb.28:                               # %if.then52
	movabsq	$.L.str.88, %rdi
	callq	panic
.LBB58_29:                              # %if.end53
                                        #   in Loop: Header=BB58_5 Depth=1
	cmpl	$0, -48(%rbp)
	jne	.LBB58_32
# %bb.30:                               # %land.lhs.true56
                                        #   in Loop: Header=BB58_5 Depth=1
	movq	-24(%rbp), %rdi
	callq	myfeof
	movzbl	%al, %eax
	cmpl	$0, %eax
	je	.LBB58_32
# %bb.31:                               # %if.then60
	jmp	.LBB58_33
.LBB58_32:                              # %if.end61
                                        #   in Loop: Header=BB58_5 Depth=1
	jmp	.LBB58_5
.LBB58_33:                              # %while.end62
	jmp	.LBB58_34
.LBB58_34:                              # %closeok
	movq	-24(%rbp), %rdi
	callq	ferror
	cmpl	$0, %eax
	je	.LBB58_36
# %bb.35:                               # %if.then65
	jmp	.LBB58_66
.LBB58_36:                              # %if.end66
	movq	-24(%rbp), %rdi
	callq	fclose
	movl	%eax, -40(%rbp)
	cmpl	$-1, -40(%rbp)
	jne	.LBB58_38
# %bb.37:                               # %if.then70
	jmp	.LBB58_66
.LBB58_38:                              # %if.end71
	movq	-32(%rbp), %rdi
	callq	ferror
	cmpl	$0, %eax
	je	.LBB58_40
# %bb.39:                               # %if.then74
	jmp	.LBB58_66
.LBB58_40:                              # %if.end75
	movq	-32(%rbp), %rdi
	callq	fflush
	movl	%eax, -40(%rbp)
	cmpl	$0, -40(%rbp)
	je	.LBB58_42
# %bb.41:                               # %if.then79
	jmp	.LBB58_66
.LBB58_42:                              # %if.end80
	movq	-32(%rbp), %rax
	cmpq	stdout, %rax
	je	.LBB58_46
# %bb.43:                               # %if.then83
	movq	-32(%rbp), %rdi
	callq	fclose
	movl	%eax, -40(%rbp)
	movq	$0, outputHandleJustInCase
	cmpl	$-1, -40(%rbp)
	jne	.LBB58_45
# %bb.44:                               # %if.then87
	jmp	.LBB58_66
.LBB58_45:                              # %if.end88
	jmp	.LBB58_46
.LBB58_46:                              # %if.end89
	movq	$0, outputHandleJustInCase
	cmpl	$2, verbosity
	jl	.LBB58_48
# %bb.47:                               # %if.then92
	movq	stderr, %rdi
	movabsq	$.L.str.89, %rsi
	movb	$0, %al
	callq	fprintf
.LBB58_48:                              # %if.end94
	movb	$1, -9(%rbp)
	jmp	.LBB58_80
.LBB58_49:                              # %trycat
	cmpb	$0, forceOverwrite
	je	.LBB58_61
# %bb.50:                               # %if.then96
	movq	-24(%rbp), %rdi
	callq	rewind
.LBB58_51:                              # %while.body97
                                        # =>This Inner Loop Header: Depth=1
	movq	-24(%rbp), %rdi
	callq	myfeof
	cmpb	$0, %al
	je	.LBB58_53
# %bb.52:                               # %if.then100
	jmp	.LBB58_60
.LBB58_53:                              # %if.end101
                                        #   in Loop: Header=BB58_51 Depth=1
	leaq	-5104(%rbp), %rdi
	movq	-24(%rbp), %rcx
	movl	$1, %esi
	movl	$5000, %edx             # imm = 0x1388
	callq	fread
	movl	%eax, -44(%rbp)
	movq	-24(%rbp), %rdi
	callq	ferror
	cmpl	$0, %eax
	je	.LBB58_55
# %bb.54:                               # %if.then107
	jmp	.LBB58_66
.LBB58_55:                              # %if.end108
                                        #   in Loop: Header=BB58_51 Depth=1
	cmpl	$0, -44(%rbp)
	jle	.LBB58_57
# %bb.56:                               # %if.then111
                                        #   in Loop: Header=BB58_51 Depth=1
	leaq	-5104(%rbp), %rdi
	movslq	-44(%rbp), %rdx
	movq	-32(%rbp), %rcx
	movl	$1, %esi
	callq	fwrite
.LBB58_57:                              # %if.end115
                                        #   in Loop: Header=BB58_51 Depth=1
	movq	-32(%rbp), %rdi
	callq	ferror
	cmpl	$0, %eax
	je	.LBB58_59
# %bb.58:                               # %if.then118
	jmp	.LBB58_66
.LBB58_59:                              # %if.end119
                                        #   in Loop: Header=BB58_51 Depth=1
	jmp	.LBB58_51
.LBB58_60:                              # %while.end120
	jmp	.LBB58_34
.LBB58_61:                              # %if.end121
	jmp	.LBB58_62
.LBB58_62:                              # %errhandler
	movq	-64(%rbp), %rsi
	leaq	-92(%rbp), %rdi
	callq	BZ2_bzReadClose
	movl	-16(%rbp), %eax
	addl	$9, %eax
	movl	%eax, %ecx
	subl	$6, %ecx
	ja	.LBB58_79
# %bb.63:                               # %errhandler
	movq	.LJTI58_0(,%rax,8), %rax
	jmpq	*%rax
.LBB58_64:                              # %sw.bb
	callq	configError
.LBB58_65:                              # %sw.bb122
	jmp	.LBB58_66
.LBB58_66:                              # %errhandler_io
	callq	ioError
.LBB58_67:                              # %sw.bb123
	callq	crcError
.LBB58_68:                              # %sw.bb124
	callq	outOfMemory
.LBB58_69:                              # %sw.bb125
	callq	compressedStreamEOF
.LBB58_70:                              # %sw.bb126
	movq	-24(%rbp), %rax
	cmpq	stdin, %rax
	je	.LBB58_72
# %bb.71:                               # %if.then129
	movq	-24(%rbp), %rdi
	callq	fclose
.LBB58_72:                              # %if.end131
	movq	-32(%rbp), %rax
	cmpq	stdout, %rax
	je	.LBB58_74
# %bb.73:                               # %if.then134
	movq	-32(%rbp), %rdi
	callq	fclose
.LBB58_74:                              # %if.end136
	cmpl	$1, -52(%rbp)
	jne	.LBB58_76
# %bb.75:                               # %if.then139
	movb	$0, -9(%rbp)
	jmp	.LBB58_80
.LBB58_76:                              # %if.else
	cmpb	$0, noisy
	je	.LBB58_78
# %bb.77:                               # %if.then141
	movq	stderr, %rdi
	movq	progName, %rdx
	movabsq	$.L.str.90, %rsi
	movabsq	$inName, %rcx
	movb	$0, %al
	callq	fprintf
.LBB58_78:                              # %if.end143
	movb	$1, -9(%rbp)
	jmp	.LBB58_80
.LBB58_79:                              # %sw.default
	movabsq	$.L.str.91, %rdi
	callq	panic
.LBB58_80:                              # %return
	movb	-9(%rbp), %bl
	cmpl	$1766543342, -68(%rbp)  # imm = 0x694B4FEE
	jne	.LBB58_82
.LBB58_81:
	movzbl	%bl, %eax
	addq	$10104, %rsp            # imm = 0x2778
	popq	%rbx
	popq	%rbp
	.cfi_def_cfa %rsp, 8
	retq
.LBB58_82:                              # %func_exit
	.cfi_def_cfa %rbp, 16
	callq	detect_breach
	jmp	.LBB58_81
.Lfunc_end58:
	.size	uncompressStream.16, .Lfunc_end58-uncompressStream.16
	.cfi_endproc
	.section	.rodata,"a",@progbits
	.p2align	3
.LJTI58_0:
	.quad	.LBB58_64
	.quad	.LBB58_79
	.quad	.LBB58_69
	.quad	.LBB58_65
	.quad	.LBB58_70
	.quad	.LBB58_67
	.quad	.LBB58_68
                                        # -- End function
	.text
	.p2align	4, 0x90         # -- Begin function countHardLinks.17
	.type	countHardLinks.17,@function
countHardLinks.17:                      # @countHardLinks.17
	.cfi_startproc
# %bb.0:                                # %entry
	pushq	%rbp
	.cfi_def_cfa_offset 16
	.cfi_offset %rbp, -16
	movq	%rsp, %rbp
	.cfi_def_cfa_register %rbp
	pushq	%rbx
	subq	$168, %rsp
	.cfi_offset %rbx, -24
	movl	$1664618039, -16(%rbp)  # imm = 0x63380E37
	movq	%rdi, -32(%rbp)
	movq	-32(%rbp), %rdi
	leaq	-176(%rbp), %rsi
	callq	lstat
	movl	%eax, -20(%rbp)
	cmpl	$0, -20(%rbp)
	je	.LBB59_2
# %bb.1:                                # %if.then
	movl	$0, -12(%rbp)
	jmp	.LBB59_3
.LBB59_2:                               # %if.end
	movq	-160(%rbp), %rax
	subq	$1, %rax
	movl	%eax, -12(%rbp)
.LBB59_3:                               # %return
	movl	-12(%rbp), %ebx
	cmpl	$1664618039, -16(%rbp)  # imm = 0x63380E37
	jne	.LBB59_5
.LBB59_4:
	movl	%ebx, %eax
	addq	$168, %rsp
	popq	%rbx
	popq	%rbp
	.cfi_def_cfa %rsp, 8
	retq
.LBB59_5:                               # %func_exit
	.cfi_def_cfa %rbp, 16
	callq	detect_breach
	jmp	.LBB59_4
.Lfunc_end59:
	.size	countHardLinks.17, .Lfunc_end59-countHardLinks.17
	.cfi_endproc
                                        # -- End function
	.p2align	4, 0x90         # -- Begin function snocString.18
	.type	snocString.18,@function
snocString.18:                          # @snocString.18
	.cfi_startproc
# %bb.0:                                # %entry
	pushq	%rbp
	.cfi_def_cfa_offset 16
	.cfi_offset %rbp, -16
	movq	%rsp, %rbp
	.cfi_def_cfa_register %rbp
	pushq	%rbx
	subq	$56, %rsp
	.cfi_offset %rbx, -24
	movl	$871863124, -44(%rbp)   # imm = 0x33F79354
	movq	%rdi, -24(%rbp)
	movq	%rsi, -40(%rbp)
	cmpq	$0, -24(%rbp)
	jne	.LBB60_2
# %bb.1:                                # %if.then
	callq	mkCell
	movq	%rax, -32(%rbp)
	movq	-40(%rbp), %rdi
	callq	strlen
	addq	$5, %rax
	movl	%eax, %edi
	callq	myMalloc
	movq	-32(%rbp), %rcx
	movq	%rax, (%rcx)
	movq	-32(%rbp), %rax
	movq	(%rax), %rdi
	movq	-40(%rbp), %rsi
	callq	strcpy
	movq	-32(%rbp), %rax
	movq	%rax, -56(%rbp)
	jmp	.LBB60_6
.LBB60_2:                               # %if.else
	movq	-24(%rbp), %rax
	movq	%rax, -16(%rbp)
.LBB60_3:                               # %while.cond
                                        # =>This Inner Loop Header: Depth=1
	movq	-16(%rbp), %rax
	cmpq	$0, 8(%rax)
	je	.LBB60_5
# %bb.4:                                # %while.body
                                        #   in Loop: Header=BB60_3 Depth=1
	movq	-16(%rbp), %rax
	movq	8(%rax), %rax
	movq	%rax, -16(%rbp)
	jmp	.LBB60_3
.LBB60_5:                               # %while.end
	movq	-16(%rbp), %rax
	movq	8(%rax), %rdi
	movq	-40(%rbp), %rsi
	callq	snocString
	movq	-16(%rbp), %rcx
	movq	%rax, 8(%rcx)
	movq	-24(%rbp), %rax
	movq	%rax, -56(%rbp)
.LBB60_6:                               # %return
	movq	-56(%rbp), %rbx
	cmpl	$871863124, -44(%rbp)   # imm = 0x33F79354
	jne	.LBB60_8
.LBB60_7:
	movq	%rbx, %rax
	addq	$56, %rsp
	popq	%rbx
	popq	%rbp
	.cfi_def_cfa %rsp, 8
	retq
.LBB60_8:                               # %func_exit
	.cfi_def_cfa %rbp, 16
	callq	detect_breach
	jmp	.LBB60_7
.Lfunc_end60:
	.size	snocString.18, .Lfunc_end60-snocString.18
	.cfi_endproc
                                        # -- End function
	.p2align	4, 0x90         # -- Begin function mapSuffix.19
	.type	mapSuffix.19,@function
mapSuffix.19:                           # @mapSuffix.19
	.cfi_startproc
# %bb.0:                                # %entry
	pushq	%rbp
	.cfi_def_cfa_offset 16
	.cfi_offset %rbp, -16
	movq	%rsp, %rbp
	.cfi_def_cfa_register %rbp
	pushq	%r14
	pushq	%rbx
	subq	$48, %rsp
	.cfi_offset %rbx, -32
	.cfi_offset %r14, -24
	movl	$1114724814, -36(%rbp)  # imm = 0x427159CE
	movq	%rdi, -32(%rbp)
	movq	%rsi, -48(%rbp)
	movq	%rdx, -56(%rbp)
	movq	-32(%rbp), %rdi
	movq	-48(%rbp), %rsi
	callq	hasSuffix
	cmpb	$0, %al
	jne	.LBB61_2
# %bb.1:                                # %if.then
	movb	$0, -17(%rbp)
	jmp	.LBB61_3
.LBB61_2:                               # %if.end
	movq	-32(%rbp), %r14
	movq	-32(%rbp), %rdi
	callq	strlen
	movq	%rax, %rbx
	movq	-48(%rbp), %rdi
	callq	strlen
	subq	%rax, %rbx
	movb	$0, (%r14,%rbx)
	movq	-32(%rbp), %rdi
	movq	-56(%rbp), %rsi
	callq	strcat
	movb	$1, -17(%rbp)
.LBB61_3:                               # %return
	movb	-17(%rbp), %bl
	cmpl	$1114724814, -36(%rbp)  # imm = 0x427159CE
	jne	.LBB61_5
.LBB61_4:
	movzbl	%bl, %eax
	addq	$48, %rsp
	popq	%rbx
	popq	%r14
	popq	%rbp
	.cfi_def_cfa %rsp, 8
	retq
.LBB61_5:                               # %func_exit
	.cfi_def_cfa %rbp, 16
	callq	detect_breach
	jmp	.LBB61_4
.Lfunc_end61:
	.size	mapSuffix.19, .Lfunc_end61-mapSuffix.19
	.cfi_endproc
                                        # -- End function
	.p2align	4, 0x90         # -- Begin function mapSuffix.20
	.type	mapSuffix.20,@function
mapSuffix.20:                           # @mapSuffix.20
	.cfi_startproc
# %bb.0:                                # %entry
	pushq	%rbp
	.cfi_def_cfa_offset 16
	.cfi_offset %rbp, -16
	movq	%rsp, %rbp
	.cfi_def_cfa_register %rbp
	pushq	%r14
	pushq	%rbx
	subq	$48, %rsp
	.cfi_offset %rbx, -32
	.cfi_offset %r14, -24
	movl	$1882774345, -36(%rbp)  # imm = 0x7038DB49
	movq	%rdi, -32(%rbp)
	movq	%rsi, -48(%rbp)
	movq	%rdx, -56(%rbp)
	movq	-32(%rbp), %rdi
	movq	-48(%rbp), %rsi
	callq	hasSuffix
	cmpb	$0, %al
	jne	.LBB62_2
# %bb.1:                                # %if.then
	movb	$0, -17(%rbp)
	jmp	.LBB62_3
.LBB62_2:                               # %if.end
	movq	-32(%rbp), %r14
	movq	-32(%rbp), %rdi
	callq	strlen
	movq	%rax, %rbx
	movq	-48(%rbp), %rdi
	callq	strlen
	subq	%rax, %rbx
	movb	$0, (%r14,%rbx)
	movq	-32(%rbp), %rdi
	movq	-56(%rbp), %rsi
	callq	strcat
	movb	$1, -17(%rbp)
.LBB62_3:                               # %return
	movb	-17(%rbp), %bl
	cmpl	$1882774345, -36(%rbp)  # imm = 0x7038DB49
	jne	.LBB62_5
.LBB62_4:
	movzbl	%bl, %eax
	addq	$48, %rsp
	popq	%rbx
	popq	%r14
	popq	%rbp
	.cfi_def_cfa %rsp, 8
	retq
.LBB62_5:                               # %func_exit
	.cfi_def_cfa %rbp, 16
	callq	detect_breach
	jmp	.LBB62_4
.Lfunc_end62:
	.size	mapSuffix.20, .Lfunc_end62-mapSuffix.20
	.cfi_endproc
                                        # -- End function
	.p2align	4, 0x90         # -- Begin function notAStandardFile.21
	.type	notAStandardFile.21,@function
notAStandardFile.21:                    # @notAStandardFile.21
	.cfi_startproc
# %bb.0:                                # %entry
	pushq	%rbp
	.cfi_def_cfa_offset 16
	.cfi_offset %rbp, -16
	movq	%rsp, %rbp
	.cfi_def_cfa_register %rbp
	pushq	%rbx
	subq	$168, %rsp
	.cfi_offset %rbx, -24
	movl	$62820671, -20(%rbp)    # imm = 0x3BE913F
	movq	%rdi, -32(%rbp)
	movq	-32(%rbp), %rdi
	leaq	-176(%rbp), %rsi
	callq	lstat
	movl	%eax, -16(%rbp)
	cmpl	$0, -16(%rbp)
	je	.LBB63_2
# %bb.1:                                # %if.then
	movb	$1, -9(%rbp)
	jmp	.LBB63_5
.LBB63_2:                               # %if.end
	movl	-152(%rbp), %eax
	andl	$61440, %eax            # imm = 0xF000
	cmpl	$32768, %eax            # imm = 0x8000
	jne	.LBB63_4
# %bb.3:                                # %if.then2
	movb	$0, -9(%rbp)
	jmp	.LBB63_5
.LBB63_4:                               # %if.end3
	movb	$1, -9(%rbp)
.LBB63_5:                               # %return
	movb	-9(%rbp), %bl
	cmpl	$62820671, -20(%rbp)    # imm = 0x3BE913F
	jne	.LBB63_7
.LBB63_6:
	movzbl	%bl, %eax
	addq	$168, %rsp
	popq	%rbx
	popq	%rbp
	.cfi_def_cfa %rsp, 8
	retq
.LBB63_7:                               # %func_exit
	.cfi_def_cfa %rbp, 16
	callq	detect_breach
	jmp	.LBB63_6
.Lfunc_end63:
	.size	notAStandardFile.21, .Lfunc_end63-notAStandardFile.21
	.cfi_endproc
                                        # -- End function
	.p2align	4, 0x90         # -- Begin function testStream.22
	.type	testStream.22,@function
testStream.22:                          # @testStream.22
	.cfi_startproc
# %bb.0:                                # %entry
	pushq	%rbp
	.cfi_def_cfa_offset 16
	.cfi_offset %rbp, -16
	movq	%rsp, %rbp
	.cfi_def_cfa_register %rbp
	pushq	%rbx
	subq	$10088, %rsp            # imm = 0x2768
	.cfi_offset %rbx, -24
	movl	$1963777378, -52(%rbp)  # imm = 0x750CDD62
	movq	%rdi, -32(%rbp)
	movq	$0, -48(%rbp)
	movl	$0, -24(%rbp)
	movl	$0, -36(%rbp)
	movq	-32(%rbp), %rdi
	callq	ferror
	cmpl	$0, %eax
	je	.LBB64_2
# %bb.1:                                # %if.then
	jmp	.LBB64_38
.LBB64_2:                               # %if.end
	jmp	.LBB64_3
.LBB64_3:                               # %while.body
                                        # =>This Loop Header: Depth=1
                                        #     Child Loop BB64_7 Depth 2
                                        #     Child Loop BB64_16 Depth 2
	leaq	-5088(%rbp), %r8
	movq	-32(%rbp), %rsi
	movl	verbosity, %edx
	movzbl	smallMode, %ecx
	movl	-24(%rbp), %r9d
	leaq	-16(%rbp), %rdi
	callq	BZ2_bzReadOpen
	movq	%rax, -48(%rbp)
	cmpq	$0, -48(%rbp)
	je	.LBB64_5
# %bb.4:                                # %lor.lhs.false
                                        #   in Loop: Header=BB64_3 Depth=1
	cmpl	$0, -16(%rbp)
	je	.LBB64_6
.LBB64_5:                               # %if.then5
	jmp	.LBB64_32
.LBB64_6:                               # %if.end6
                                        #   in Loop: Header=BB64_3 Depth=1
	movl	-36(%rbp), %eax
	addl	$1, %eax
	movl	%eax, -36(%rbp)
.LBB64_7:                               # %while.cond7
                                        #   Parent Loop BB64_3 Depth=1
                                        # =>  This Inner Loop Header: Depth=2
	cmpl	$0, -16(%rbp)
	jne	.LBB64_11
# %bb.8:                                # %while.body10
                                        #   in Loop: Header=BB64_7 Depth=2
	leaq	-10096(%rbp), %rdx
	movq	-48(%rbp), %rsi
	leaq	-16(%rbp), %rdi
	movl	$5000, %ecx             # imm = 0x1388
	callq	BZ2_bzRead
	movl	%eax, -80(%rbp)
	cmpl	$-5, -16(%rbp)
	jne	.LBB64_10
# %bb.9:                                # %if.then15
	jmp	.LBB64_32
.LBB64_10:                              # %if.end16
                                        #   in Loop: Header=BB64_7 Depth=2
	jmp	.LBB64_7
.LBB64_11:                              # %while.end
                                        #   in Loop: Header=BB64_3 Depth=1
	cmpl	$4, -16(%rbp)
	je	.LBB64_13
# %bb.12:                               # %if.then19
	jmp	.LBB64_32
.LBB64_13:                              # %if.end20
                                        #   in Loop: Header=BB64_3 Depth=1
	movq	-48(%rbp), %rsi
	leaq	-16(%rbp), %rdi
	leaq	-72(%rbp), %rdx
	leaq	-24(%rbp), %rcx
	callq	BZ2_bzReadGetUnused
	cmpl	$0, -16(%rbp)
	je	.LBB64_15
# %bb.14:                               # %if.then23
	movabsq	$.L.str.98, %rdi
	callq	panic
.LBB64_15:                              # %if.end24
                                        #   in Loop: Header=BB64_3 Depth=1
	movq	-72(%rbp), %rax
	movq	%rax, -64(%rbp)
	movl	$0, -20(%rbp)
.LBB64_16:                              # %for.cond
                                        #   Parent Loop BB64_3 Depth=1
                                        # =>  This Inner Loop Header: Depth=2
	movl	-20(%rbp), %eax
	cmpl	-24(%rbp), %eax
	jge	.LBB64_19
# %bb.17:                               # %for.body
                                        #   in Loop: Header=BB64_16 Depth=2
	movq	-64(%rbp), %rax
	movslq	-20(%rbp), %rcx
	movb	(%rax,%rcx), %al
	movslq	-20(%rbp), %rcx
	movb	%al, -5088(%rbp,%rcx)
# %bb.18:                               # %for.inc
                                        #   in Loop: Header=BB64_16 Depth=2
	movl	-20(%rbp), %eax
	addl	$1, %eax
	movl	%eax, -20(%rbp)
	jmp	.LBB64_16
.LBB64_19:                              # %for.end
                                        #   in Loop: Header=BB64_3 Depth=1
	movq	-48(%rbp), %rsi
	leaq	-16(%rbp), %rdi
	callq	BZ2_bzReadClose
	cmpl	$0, -16(%rbp)
	je	.LBB64_21
# %bb.20:                               # %if.then32
	movabsq	$.L.str.98, %rdi
	callq	panic
.LBB64_21:                              # %if.end33
                                        #   in Loop: Header=BB64_3 Depth=1
	cmpl	$0, -24(%rbp)
	jne	.LBB64_24
# %bb.22:                               # %land.lhs.true
                                        #   in Loop: Header=BB64_3 Depth=1
	movq	-32(%rbp), %rdi
	callq	myfeof
	movzbl	%al, %eax
	cmpl	$0, %eax
	je	.LBB64_24
# %bb.23:                               # %if.then39
	jmp	.LBB64_25
.LBB64_24:                              # %if.end40
                                        #   in Loop: Header=BB64_3 Depth=1
	jmp	.LBB64_3
.LBB64_25:                              # %while.end41
	movq	-32(%rbp), %rdi
	callq	ferror
	cmpl	$0, %eax
	je	.LBB64_27
# %bb.26:                               # %if.then44
	jmp	.LBB64_38
.LBB64_27:                              # %if.end45
	movq	-32(%rbp), %rdi
	callq	fclose
	movl	%eax, -56(%rbp)
	cmpl	$-1, -56(%rbp)
	jne	.LBB64_29
# %bb.28:                               # %if.then49
	jmp	.LBB64_38
.LBB64_29:                              # %if.end50
	cmpl	$2, verbosity
	jl	.LBB64_31
# %bb.30:                               # %if.then53
	movq	stderr, %rdi
	movabsq	$.L.str.89, %rsi
	movb	$0, %al
	callq	fprintf
.LBB64_31:                              # %if.end55
	movb	$1, -9(%rbp)
	jmp	.LBB64_50
.LBB64_32:                              # %errhandler
	movq	-48(%rbp), %rsi
	leaq	-76(%rbp), %rdi
	callq	BZ2_bzReadClose
	cmpl	$0, verbosity
	jne	.LBB64_34
# %bb.33:                               # %if.then58
	movq	stderr, %rdi
	movq	progName, %rdx
	movabsq	$.L.str.99, %rsi
	movabsq	$inName, %rcx
	movb	$0, %al
	callq	fprintf
.LBB64_34:                              # %if.end60
	movl	-16(%rbp), %eax
	addl	$9, %eax
	movl	%eax, %ecx
	subl	$6, %ecx
	ja	.LBB64_49
# %bb.35:                               # %if.end60
	movq	.LJTI64_0(,%rax,8), %rax
	jmpq	*%rax
.LBB64_36:                              # %sw.bb
	callq	configError
.LBB64_37:                              # %sw.bb61
	jmp	.LBB64_38
.LBB64_38:                              # %errhandler_io
	callq	ioError
.LBB64_39:                              # %sw.bb62
	movq	stderr, %rdi
	movabsq	$.L.str.100, %rsi
	movb	$0, %al
	callq	fprintf
	movb	$0, -9(%rbp)
	jmp	.LBB64_50
.LBB64_40:                              # %sw.bb64
	callq	outOfMemory
.LBB64_41:                              # %sw.bb65
	movq	stderr, %rdi
	movabsq	$.L.str.101, %rsi
	movb	$0, %al
	callq	fprintf
	movb	$0, -9(%rbp)
	jmp	.LBB64_50
.LBB64_42:                              # %sw.bb67
	movq	-32(%rbp), %rax
	cmpq	stdin, %rax
	je	.LBB64_44
# %bb.43:                               # %if.then70
	movq	-32(%rbp), %rdi
	callq	fclose
.LBB64_44:                              # %if.end72
	cmpl	$1, -36(%rbp)
	jne	.LBB64_46
# %bb.45:                               # %if.then75
	movq	stderr, %rdi
	movabsq	$.L.str.102, %rsi
	movb	$0, %al
	callq	fprintf
	movb	$0, -9(%rbp)
	jmp	.LBB64_50
.LBB64_46:                              # %if.else
	cmpb	$0, noisy
	je	.LBB64_48
# %bb.47:                               # %if.then78
	movq	stderr, %rdi
	movabsq	$.L.str.103, %rsi
	movb	$0, %al
	callq	fprintf
.LBB64_48:                              # %if.end80
	movb	$1, -9(%rbp)
	jmp	.LBB64_50
.LBB64_49:                              # %sw.default
	movabsq	$.L.str.104, %rdi
	callq	panic
.LBB64_50:                              # %return
	movb	-9(%rbp), %bl
	cmpl	$1963777378, -52(%rbp)  # imm = 0x750CDD62
	jne	.LBB64_52
.LBB64_51:
	movzbl	%bl, %eax
	addq	$10088, %rsp            # imm = 0x2768
	popq	%rbx
	popq	%rbp
	.cfi_def_cfa %rsp, 8
	retq
.LBB64_52:                              # %func_exit
	.cfi_def_cfa %rbp, 16
	callq	detect_breach
	jmp	.LBB64_51
.Lfunc_end64:
	.size	testStream.22, .Lfunc_end64-testStream.22
	.cfi_endproc
	.section	.rodata,"a",@progbits
	.p2align	3
.LJTI64_0:
	.quad	.LBB64_36
	.quad	.LBB64_49
	.quad	.LBB64_41
	.quad	.LBB64_37
	.quad	.LBB64_42
	.quad	.LBB64_39
	.quad	.LBB64_40
                                        # -- End function
	.text
	.p2align	4, 0x90         # -- Begin function testStream.23
	.type	testStream.23,@function
testStream.23:                          # @testStream.23
	.cfi_startproc
# %bb.0:                                # %entry
	pushq	%rbp
	.cfi_def_cfa_offset 16
	.cfi_offset %rbp, -16
	movq	%rsp, %rbp
	.cfi_def_cfa_register %rbp
	pushq	%rbx
	subq	$10088, %rsp            # imm = 0x2768
	.cfi_offset %rbx, -24
	movl	$1056575096, -56(%rbp)  # imm = 0x3EFA0E78
	movq	%rdi, -32(%rbp)
	movq	$0, -48(%rbp)
	movl	$0, -24(%rbp)
	movl	$0, -36(%rbp)
	movq	-32(%rbp), %rdi
	callq	ferror
	cmpl	$0, %eax
	je	.LBB65_2
# %bb.1:                                # %if.then
	jmp	.LBB65_38
.LBB65_2:                               # %if.end
	jmp	.LBB65_3
.LBB65_3:                               # %while.body
                                        # =>This Loop Header: Depth=1
                                        #     Child Loop BB65_7 Depth 2
                                        #     Child Loop BB65_16 Depth 2
	leaq	-5088(%rbp), %r8
	movq	-32(%rbp), %rsi
	movl	verbosity, %edx
	movzbl	smallMode, %ecx
	movl	-24(%rbp), %r9d
	leaq	-16(%rbp), %rdi
	callq	BZ2_bzReadOpen
	movq	%rax, -48(%rbp)
	cmpq	$0, -48(%rbp)
	je	.LBB65_5
# %bb.4:                                # %lor.lhs.false
                                        #   in Loop: Header=BB65_3 Depth=1
	cmpl	$0, -16(%rbp)
	je	.LBB65_6
.LBB65_5:                               # %if.then5
	jmp	.LBB65_32
.LBB65_6:                               # %if.end6
                                        #   in Loop: Header=BB65_3 Depth=1
	movl	-36(%rbp), %eax
	addl	$1, %eax
	movl	%eax, -36(%rbp)
.LBB65_7:                               # %while.cond7
                                        #   Parent Loop BB65_3 Depth=1
                                        # =>  This Inner Loop Header: Depth=2
	cmpl	$0, -16(%rbp)
	jne	.LBB65_11
# %bb.8:                                # %while.body10
                                        #   in Loop: Header=BB65_7 Depth=2
	leaq	-10096(%rbp), %rdx
	movq	-48(%rbp), %rsi
	leaq	-16(%rbp), %rdi
	movl	$5000, %ecx             # imm = 0x1388
	callq	BZ2_bzRead
	movl	%eax, -76(%rbp)
	cmpl	$-5, -16(%rbp)
	jne	.LBB65_10
# %bb.9:                                # %if.then15
	jmp	.LBB65_32
.LBB65_10:                              # %if.end16
                                        #   in Loop: Header=BB65_7 Depth=2
	jmp	.LBB65_7
.LBB65_11:                              # %while.end
                                        #   in Loop: Header=BB65_3 Depth=1
	cmpl	$4, -16(%rbp)
	je	.LBB65_13
# %bb.12:                               # %if.then19
	jmp	.LBB65_32
.LBB65_13:                              # %if.end20
                                        #   in Loop: Header=BB65_3 Depth=1
	movq	-48(%rbp), %rsi
	leaq	-16(%rbp), %rdi
	leaq	-64(%rbp), %rdx
	leaq	-24(%rbp), %rcx
	callq	BZ2_bzReadGetUnused
	cmpl	$0, -16(%rbp)
	je	.LBB65_15
# %bb.14:                               # %if.then23
	movabsq	$.L.str.98, %rdi
	callq	panic
.LBB65_15:                              # %if.end24
                                        #   in Loop: Header=BB65_3 Depth=1
	movq	-64(%rbp), %rax
	movq	%rax, -72(%rbp)
	movl	$0, -20(%rbp)
.LBB65_16:                              # %for.cond
                                        #   Parent Loop BB65_3 Depth=1
                                        # =>  This Inner Loop Header: Depth=2
	movl	-20(%rbp), %eax
	cmpl	-24(%rbp), %eax
	jge	.LBB65_19
# %bb.17:                               # %for.body
                                        #   in Loop: Header=BB65_16 Depth=2
	movq	-72(%rbp), %rax
	movslq	-20(%rbp), %rcx
	movb	(%rax,%rcx), %al
	movslq	-20(%rbp), %rcx
	movb	%al, -5088(%rbp,%rcx)
# %bb.18:                               # %for.inc
                                        #   in Loop: Header=BB65_16 Depth=2
	movl	-20(%rbp), %eax
	addl	$1, %eax
	movl	%eax, -20(%rbp)
	jmp	.LBB65_16
.LBB65_19:                              # %for.end
                                        #   in Loop: Header=BB65_3 Depth=1
	movq	-48(%rbp), %rsi
	leaq	-16(%rbp), %rdi
	callq	BZ2_bzReadClose
	cmpl	$0, -16(%rbp)
	je	.LBB65_21
# %bb.20:                               # %if.then32
	movabsq	$.L.str.98, %rdi
	callq	panic
.LBB65_21:                              # %if.end33
                                        #   in Loop: Header=BB65_3 Depth=1
	cmpl	$0, -24(%rbp)
	jne	.LBB65_24
# %bb.22:                               # %land.lhs.true
                                        #   in Loop: Header=BB65_3 Depth=1
	movq	-32(%rbp), %rdi
	callq	myfeof
	movzbl	%al, %eax
	cmpl	$0, %eax
	je	.LBB65_24
# %bb.23:                               # %if.then39
	jmp	.LBB65_25
.LBB65_24:                              # %if.end40
                                        #   in Loop: Header=BB65_3 Depth=1
	jmp	.LBB65_3
.LBB65_25:                              # %while.end41
	movq	-32(%rbp), %rdi
	callq	ferror
	cmpl	$0, %eax
	je	.LBB65_27
# %bb.26:                               # %if.then44
	jmp	.LBB65_38
.LBB65_27:                              # %if.end45
	movq	-32(%rbp), %rdi
	callq	fclose
	movl	%eax, -52(%rbp)
	cmpl	$-1, -52(%rbp)
	jne	.LBB65_29
# %bb.28:                               # %if.then49
	jmp	.LBB65_38
.LBB65_29:                              # %if.end50
	cmpl	$2, verbosity
	jl	.LBB65_31
# %bb.30:                               # %if.then53
	movq	stderr, %rdi
	movabsq	$.L.str.89, %rsi
	movb	$0, %al
	callq	fprintf
.LBB65_31:                              # %if.end55
	movb	$1, -9(%rbp)
	jmp	.LBB65_50
.LBB65_32:                              # %errhandler
	movq	-48(%rbp), %rsi
	leaq	-80(%rbp), %rdi
	callq	BZ2_bzReadClose
	cmpl	$0, verbosity
	jne	.LBB65_34
# %bb.33:                               # %if.then58
	movq	stderr, %rdi
	movq	progName, %rdx
	movabsq	$.L.str.99, %rsi
	movabsq	$inName, %rcx
	movb	$0, %al
	callq	fprintf
.LBB65_34:                              # %if.end60
	movl	-16(%rbp), %eax
	addl	$9, %eax
	movl	%eax, %ecx
	subl	$6, %ecx
	ja	.LBB65_49
# %bb.35:                               # %if.end60
	movq	.LJTI65_0(,%rax,8), %rax
	jmpq	*%rax
.LBB65_36:                              # %sw.bb
	callq	configError
.LBB65_37:                              # %sw.bb61
	jmp	.LBB65_38
.LBB65_38:                              # %errhandler_io
	callq	ioError
.LBB65_39:                              # %sw.bb62
	movq	stderr, %rdi
	movabsq	$.L.str.100, %rsi
	movb	$0, %al
	callq	fprintf
	movb	$0, -9(%rbp)
	jmp	.LBB65_50
.LBB65_40:                              # %sw.bb64
	callq	outOfMemory
.LBB65_41:                              # %sw.bb65
	movq	stderr, %rdi
	movabsq	$.L.str.101, %rsi
	movb	$0, %al
	callq	fprintf
	movb	$0, -9(%rbp)
	jmp	.LBB65_50
.LBB65_42:                              # %sw.bb67
	movq	-32(%rbp), %rax
	cmpq	stdin, %rax
	je	.LBB65_44
# %bb.43:                               # %if.then70
	movq	-32(%rbp), %rdi
	callq	fclose
.LBB65_44:                              # %if.end72
	cmpl	$1, -36(%rbp)
	jne	.LBB65_46
# %bb.45:                               # %if.then75
	movq	stderr, %rdi
	movabsq	$.L.str.102, %rsi
	movb	$0, %al
	callq	fprintf
	movb	$0, -9(%rbp)
	jmp	.LBB65_50
.LBB65_46:                              # %if.else
	cmpb	$0, noisy
	je	.LBB65_48
# %bb.47:                               # %if.then78
	movq	stderr, %rdi
	movabsq	$.L.str.103, %rsi
	movb	$0, %al
	callq	fprintf
.LBB65_48:                              # %if.end80
	movb	$1, -9(%rbp)
	jmp	.LBB65_50
.LBB65_49:                              # %sw.default
	movabsq	$.L.str.104, %rdi
	callq	panic
.LBB65_50:                              # %return
	movb	-9(%rbp), %bl
	cmpl	$1056575096, -56(%rbp)  # imm = 0x3EFA0E78
	jne	.LBB65_52
.LBB65_51:
	movzbl	%bl, %eax
	addq	$10088, %rsp            # imm = 0x2768
	popq	%rbx
	popq	%rbp
	.cfi_def_cfa %rsp, 8
	retq
.LBB65_52:                              # %func_exit
	.cfi_def_cfa %rbp, 16
	callq	detect_breach
	jmp	.LBB65_51
.Lfunc_end65:
	.size	testStream.23, .Lfunc_end65-testStream.23
	.cfi_endproc
	.section	.rodata,"a",@progbits
	.p2align	3
.LJTI65_0:
	.quad	.LBB65_36
	.quad	.LBB65_49
	.quad	.LBB65_41
	.quad	.LBB65_37
	.quad	.LBB65_42
	.quad	.LBB65_39
	.quad	.LBB65_40
                                        # -- End function
	.text
	.p2align	4, 0x90         # -- Begin function copyFileName.24
	.type	copyFileName.24,@function
copyFileName.24:                        # @copyFileName.24
	.cfi_startproc
# %bb.0:                                # %entry
	pushq	%rbp
	.cfi_def_cfa_offset 16
	.cfi_offset %rbp, -16
	movq	%rsp, %rbp
	.cfi_def_cfa_register %rbp
	subq	$32, %rsp
	movl	$816464951, -12(%rbp)   # imm = 0x30AA4437
	movq	%rdi, -24(%rbp)
	movq	%rsi, -8(%rbp)
	movq	-8(%rbp), %rdi
	callq	strlen
	cmpq	$1024, %rax             # imm = 0x400
	jbe	.LBB66_2
# %bb.1:                                # %if.then
	movq	stderr, %rdi
	movq	-8(%rbp), %rdx
	movabsq	$.L.str.47, %rsi
	movl	$1024, %ecx             # imm = 0x400
	movb	$0, %al
	callq	fprintf
	movl	$1, %edi
	callq	setExit
	movl	exitValue, %edi
	callq	exit
.LBB66_2:                               # %if.end
	movq	-24(%rbp), %rdi
	movq	-8(%rbp), %rsi
	movl	$1024, %edx             # imm = 0x400
	callq	strncpy
	movq	-24(%rbp), %rax
	movb	$0, 1024(%rax)
	cmpl	$816464951, -12(%rbp)   # imm = 0x30AA4437
	jne	.LBB66_4
.LBB66_3:
	addq	$32, %rsp
	popq	%rbp
	.cfi_def_cfa %rsp, 8
	retq
.LBB66_4:                               # %func_exit
	.cfi_def_cfa %rbp, 16
	callq	detect_breach
	jmp	.LBB66_3
.Lfunc_end66:
	.size	copyFileName.24, .Lfunc_end66-copyFileName.24
	.cfi_endproc
                                        # -- End function
	.p2align	4, 0x90         # -- Begin function uncompressStream.25
	.type	uncompressStream.25,@function
uncompressStream.25:                    # @uncompressStream.25
	.cfi_startproc
# %bb.0:                                # %entry
	pushq	%rbp
	.cfi_def_cfa_offset 16
	.cfi_offset %rbp, -16
	movq	%rsp, %rbp
	.cfi_def_cfa_register %rbp
	pushq	%rbx
	subq	$10104, %rsp            # imm = 0x2778
	.cfi_offset %rbx, -24
	movl	$1521678539, -68(%rbp)  # imm = 0x5AB2F8CB
	movq	%rdi, -32(%rbp)
	movq	%rsi, -24(%rbp)
	movq	$0, -64(%rbp)
	movl	$0, -48(%rbp)
	movl	$0, -52(%rbp)
	movq	-24(%rbp), %rdi
	callq	ferror
	cmpl	$0, %eax
	je	.LBB67_2
# %bb.1:                                # %if.then
	jmp	.LBB67_66
.LBB67_2:                               # %if.end
	movq	-32(%rbp), %rdi
	callq	ferror
	cmpl	$0, %eax
	je	.LBB67_4
# %bb.3:                                # %if.then3
	jmp	.LBB67_66
.LBB67_4:                               # %if.end4
	jmp	.LBB67_5
.LBB67_5:                               # %while.body
                                        # =>This Loop Header: Depth=1
                                        #     Child Loop BB67_9 Depth 2
                                        #     Child Loop BB67_24 Depth 2
	leaq	-10112(%rbp), %r8
	movq	-32(%rbp), %rsi
	movl	verbosity, %edx
	movzbl	smallMode, %ecx
	movl	-48(%rbp), %r9d
	leaq	-16(%rbp), %rdi
	callq	BZ2_bzReadOpen
	movq	%rax, -64(%rbp)
	cmpq	$0, -64(%rbp)
	je	.LBB67_7
# %bb.6:                                # %lor.lhs.false
                                        #   in Loop: Header=BB67_5 Depth=1
	cmpl	$0, -16(%rbp)
	je	.LBB67_8
.LBB67_7:                               # %if.then9
	jmp	.LBB67_62
.LBB67_8:                               # %if.end10
                                        #   in Loop: Header=BB67_5 Depth=1
	movl	-52(%rbp), %eax
	addl	$1, %eax
	movl	%eax, -52(%rbp)
.LBB67_9:                               # %while.cond11
                                        #   Parent Loop BB67_5 Depth=1
                                        # =>  This Inner Loop Header: Depth=2
	cmpl	$0, -16(%rbp)
	jne	.LBB67_19
# %bb.10:                               # %while.body14
                                        #   in Loop: Header=BB67_9 Depth=2
	leaq	-5104(%rbp), %rdx
	movq	-64(%rbp), %rsi
	leaq	-16(%rbp), %rdi
	movl	$5000, %ecx             # imm = 0x1388
	callq	BZ2_bzRead
	movl	%eax, -36(%rbp)
	cmpl	$-5, -16(%rbp)
	jne	.LBB67_12
# %bb.11:                               # %if.then19
	jmp	.LBB67_49
.LBB67_12:                              # %if.end20
                                        #   in Loop: Header=BB67_9 Depth=2
	cmpl	$0, -16(%rbp)
	je	.LBB67_14
# %bb.13:                               # %lor.lhs.false23
                                        #   in Loop: Header=BB67_9 Depth=2
	cmpl	$4, -16(%rbp)
	jne	.LBB67_16
.LBB67_14:                              # %land.lhs.true
                                        #   in Loop: Header=BB67_9 Depth=2
	cmpl	$0, -36(%rbp)
	jle	.LBB67_16
# %bb.15:                               # %if.then28
                                        #   in Loop: Header=BB67_9 Depth=2
	leaq	-5104(%rbp), %rdi
	movslq	-36(%rbp), %rdx
	movq	-24(%rbp), %rcx
	movl	$1, %esi
	callq	fwrite
.LBB67_16:                              # %if.end32
                                        #   in Loop: Header=BB67_9 Depth=2
	movq	-24(%rbp), %rdi
	callq	ferror
	cmpl	$0, %eax
	je	.LBB67_18
# %bb.17:                               # %if.then35
	jmp	.LBB67_66
.LBB67_18:                              # %if.end36
                                        #   in Loop: Header=BB67_9 Depth=2
	jmp	.LBB67_9
.LBB67_19:                              # %while.end
                                        #   in Loop: Header=BB67_5 Depth=1
	cmpl	$4, -16(%rbp)
	je	.LBB67_21
# %bb.20:                               # %if.then39
	jmp	.LBB67_62
.LBB67_21:                              # %if.end40
                                        #   in Loop: Header=BB67_5 Depth=1
	movq	-64(%rbp), %rsi
	leaq	-16(%rbp), %rdi
	leaq	-80(%rbp), %rdx
	leaq	-48(%rbp), %rcx
	callq	BZ2_bzReadGetUnused
	cmpl	$0, -16(%rbp)
	je	.LBB67_23
# %bb.22:                               # %if.then43
	movabsq	$.L.str.88, %rdi
	callq	panic
.LBB67_23:                              # %if.end44
                                        #   in Loop: Header=BB67_5 Depth=1
	movq	-80(%rbp), %rax
	movq	%rax, -88(%rbp)
	movl	$0, -40(%rbp)
.LBB67_24:                              # %for.cond
                                        #   Parent Loop BB67_5 Depth=1
                                        # =>  This Inner Loop Header: Depth=2
	movl	-40(%rbp), %eax
	cmpl	-48(%rbp), %eax
	jge	.LBB67_27
# %bb.25:                               # %for.body
                                        #   in Loop: Header=BB67_24 Depth=2
	movq	-88(%rbp), %rax
	movslq	-40(%rbp), %rcx
	movb	(%rax,%rcx), %al
	movslq	-40(%rbp), %rcx
	movb	%al, -10112(%rbp,%rcx)
# %bb.26:                               # %for.inc
                                        #   in Loop: Header=BB67_24 Depth=2
	movl	-40(%rbp), %eax
	addl	$1, %eax
	movl	%eax, -40(%rbp)
	jmp	.LBB67_24
.LBB67_27:                              # %for.end
                                        #   in Loop: Header=BB67_5 Depth=1
	movq	-64(%rbp), %rsi
	leaq	-16(%rbp), %rdi
	callq	BZ2_bzReadClose
	cmpl	$0, -16(%rbp)
	je	.LBB67_29
# %bb.28:                               # %if.then52
	movabsq	$.L.str.88, %rdi
	callq	panic
.LBB67_29:                              # %if.end53
                                        #   in Loop: Header=BB67_5 Depth=1
	cmpl	$0, -48(%rbp)
	jne	.LBB67_32
# %bb.30:                               # %land.lhs.true56
                                        #   in Loop: Header=BB67_5 Depth=1
	movq	-32(%rbp), %rdi
	callq	myfeof
	movzbl	%al, %eax
	cmpl	$0, %eax
	je	.LBB67_32
# %bb.31:                               # %if.then60
	jmp	.LBB67_33
.LBB67_32:                              # %if.end61
                                        #   in Loop: Header=BB67_5 Depth=1
	jmp	.LBB67_5
.LBB67_33:                              # %while.end62
	jmp	.LBB67_34
.LBB67_34:                              # %closeok
	movq	-32(%rbp), %rdi
	callq	ferror
	cmpl	$0, %eax
	je	.LBB67_36
# %bb.35:                               # %if.then65
	jmp	.LBB67_66
.LBB67_36:                              # %if.end66
	movq	-32(%rbp), %rdi
	callq	fclose
	movl	%eax, -44(%rbp)
	cmpl	$-1, -44(%rbp)
	jne	.LBB67_38
# %bb.37:                               # %if.then70
	jmp	.LBB67_66
.LBB67_38:                              # %if.end71
	movq	-24(%rbp), %rdi
	callq	ferror
	cmpl	$0, %eax
	je	.LBB67_40
# %bb.39:                               # %if.then74
	jmp	.LBB67_66
.LBB67_40:                              # %if.end75
	movq	-24(%rbp), %rdi
	callq	fflush
	movl	%eax, -44(%rbp)
	cmpl	$0, -44(%rbp)
	je	.LBB67_42
# %bb.41:                               # %if.then79
	jmp	.LBB67_66
.LBB67_42:                              # %if.end80
	movq	-24(%rbp), %rax
	cmpq	stdout, %rax
	je	.LBB67_46
# %bb.43:                               # %if.then83
	movq	-24(%rbp), %rdi
	callq	fclose
	movl	%eax, -44(%rbp)
	movq	$0, outputHandleJustInCase
	cmpl	$-1, -44(%rbp)
	jne	.LBB67_45
# %bb.44:                               # %if.then87
	jmp	.LBB67_66
.LBB67_45:                              # %if.end88
	jmp	.LBB67_46
.LBB67_46:                              # %if.end89
	movq	$0, outputHandleJustInCase
	cmpl	$2, verbosity
	jl	.LBB67_48
# %bb.47:                               # %if.then92
	movq	stderr, %rdi
	movabsq	$.L.str.89, %rsi
	movb	$0, %al
	callq	fprintf
.LBB67_48:                              # %if.end94
	movb	$1, -9(%rbp)
	jmp	.LBB67_80
.LBB67_49:                              # %trycat
	cmpb	$0, forceOverwrite
	je	.LBB67_61
# %bb.50:                               # %if.then96
	movq	-32(%rbp), %rdi
	callq	rewind
.LBB67_51:                              # %while.body97
                                        # =>This Inner Loop Header: Depth=1
	movq	-32(%rbp), %rdi
	callq	myfeof
	cmpb	$0, %al
	je	.LBB67_53
# %bb.52:                               # %if.then100
	jmp	.LBB67_60
.LBB67_53:                              # %if.end101
                                        #   in Loop: Header=BB67_51 Depth=1
	leaq	-5104(%rbp), %rdi
	movq	-32(%rbp), %rcx
	movl	$1, %esi
	movl	$5000, %edx             # imm = 0x1388
	callq	fread
	movl	%eax, -36(%rbp)
	movq	-32(%rbp), %rdi
	callq	ferror
	cmpl	$0, %eax
	je	.LBB67_55
# %bb.54:                               # %if.then107
	jmp	.LBB67_66
.LBB67_55:                              # %if.end108
                                        #   in Loop: Header=BB67_51 Depth=1
	cmpl	$0, -36(%rbp)
	jle	.LBB67_57
# %bb.56:                               # %if.then111
                                        #   in Loop: Header=BB67_51 Depth=1
	leaq	-5104(%rbp), %rdi
	movslq	-36(%rbp), %rdx
	movq	-24(%rbp), %rcx
	movl	$1, %esi
	callq	fwrite
.LBB67_57:                              # %if.end115
                                        #   in Loop: Header=BB67_51 Depth=1
	movq	-24(%rbp), %rdi
	callq	ferror
	cmpl	$0, %eax
	je	.LBB67_59
# %bb.58:                               # %if.then118
	jmp	.LBB67_66
.LBB67_59:                              # %if.end119
                                        #   in Loop: Header=BB67_51 Depth=1
	jmp	.LBB67_51
.LBB67_60:                              # %while.end120
	jmp	.LBB67_34
.LBB67_61:                              # %if.end121
	jmp	.LBB67_62
.LBB67_62:                              # %errhandler
	movq	-64(%rbp), %rsi
	leaq	-92(%rbp), %rdi
	callq	BZ2_bzReadClose
	movl	-16(%rbp), %eax
	addl	$9, %eax
	movl	%eax, %ecx
	subl	$6, %ecx
	ja	.LBB67_79
# %bb.63:                               # %errhandler
	movq	.LJTI67_0(,%rax,8), %rax
	jmpq	*%rax
.LBB67_64:                              # %sw.bb
	callq	configError
.LBB67_65:                              # %sw.bb122
	jmp	.LBB67_66
.LBB67_66:                              # %errhandler_io
	callq	ioError
.LBB67_67:                              # %sw.bb123
	callq	crcError
.LBB67_68:                              # %sw.bb124
	callq	outOfMemory
.LBB67_69:                              # %sw.bb125
	callq	compressedStreamEOF
.LBB67_70:                              # %sw.bb126
	movq	-32(%rbp), %rax
	cmpq	stdin, %rax
	je	.LBB67_72
# %bb.71:                               # %if.then129
	movq	-32(%rbp), %rdi
	callq	fclose
.LBB67_72:                              # %if.end131
	movq	-24(%rbp), %rax
	cmpq	stdout, %rax
	je	.LBB67_74
# %bb.73:                               # %if.then134
	movq	-24(%rbp), %rdi
	callq	fclose
.LBB67_74:                              # %if.end136
	cmpl	$1, -52(%rbp)
	jne	.LBB67_76
# %bb.75:                               # %if.then139
	movb	$0, -9(%rbp)
	jmp	.LBB67_80
.LBB67_76:                              # %if.else
	cmpb	$0, noisy
	je	.LBB67_78
# %bb.77:                               # %if.then141
	movq	stderr, %rdi
	movq	progName, %rdx
	movabsq	$.L.str.90, %rsi
	movabsq	$inName, %rcx
	movb	$0, %al
	callq	fprintf
.LBB67_78:                              # %if.end143
	movb	$1, -9(%rbp)
	jmp	.LBB67_80
.LBB67_79:                              # %sw.default
	movabsq	$.L.str.91, %rdi
	callq	panic
.LBB67_80:                              # %return
	movb	-9(%rbp), %bl
	cmpl	$1521678539, -68(%rbp)  # imm = 0x5AB2F8CB
	jne	.LBB67_82
.LBB67_81:
	movzbl	%bl, %eax
	addq	$10104, %rsp            # imm = 0x2778
	popq	%rbx
	popq	%rbp
	.cfi_def_cfa %rsp, 8
	retq
.LBB67_82:                              # %func_exit
	.cfi_def_cfa %rbp, 16
	callq	detect_breach
	jmp	.LBB67_81
.Lfunc_end67:
	.size	uncompressStream.25, .Lfunc_end67-uncompressStream.25
	.cfi_endproc
	.section	.rodata,"a",@progbits
	.p2align	3
.LJTI67_0:
	.quad	.LBB67_64
	.quad	.LBB67_79
	.quad	.LBB67_69
	.quad	.LBB67_65
	.quad	.LBB67_70
	.quad	.LBB67_67
	.quad	.LBB67_68
                                        # -- End function
	.text
	.p2align	4, 0x90         # -- Begin function uInt64_from_UInt32s.26
	.type	uInt64_from_UInt32s.26,@function
uInt64_from_UInt32s.26:                 # @uInt64_from_UInt32s.26
	.cfi_startproc
# %bb.0:                                # %entry
	pushq	%rbp
	.cfi_def_cfa_offset 16
	.cfi_offset %rbp, -16
	movq	%rsp, %rbp
	.cfi_def_cfa_register %rbp
	subq	$32, %rsp
	movl	$449527156, -20(%rbp)   # imm = 0x1ACB3D74
	movq	%rdi, -16(%rbp)
	movl	%esi, -4(%rbp)
	movl	%edx, -8(%rbp)
	movl	-8(%rbp), %eax
	shrl	$24, %eax
	andl	$255, %eax
	movq	-16(%rbp), %rcx
	movb	%al, 7(%rcx)
	movl	-8(%rbp), %eax
	shrl	$16, %eax
	andl	$255, %eax
	movq	-16(%rbp), %rcx
	movb	%al, 6(%rcx)
	movl	-8(%rbp), %eax
	shrl	$8, %eax
	andl	$255, %eax
	movq	-16(%rbp), %rcx
	movb	%al, 5(%rcx)
	movl	-8(%rbp), %eax
	andl	$255, %eax
	movq	-16(%rbp), %rcx
	movb	%al, 4(%rcx)
	movl	-4(%rbp), %eax
	shrl	$24, %eax
	andl	$255, %eax
	movq	-16(%rbp), %rcx
	movb	%al, 3(%rcx)
	movl	-4(%rbp), %eax
	shrl	$16, %eax
	andl	$255, %eax
	movq	-16(%rbp), %rcx
	movb	%al, 2(%rcx)
	movl	-4(%rbp), %eax
	shrl	$8, %eax
	andl	$255, %eax
	movq	-16(%rbp), %rcx
	movb	%al, 1(%rcx)
	movl	-4(%rbp), %eax
	andl	$255, %eax
	movq	-16(%rbp), %rcx
	movb	%al, (%rcx)
	cmpl	$449527156, -20(%rbp)   # imm = 0x1ACB3D74
	jne	.LBB68_2
.LBB68_1:
	addq	$32, %rsp
	popq	%rbp
	.cfi_def_cfa %rsp, 8
	retq
.LBB68_2:                               # %func_exit
	.cfi_def_cfa %rbp, 16
	callq	detect_breach
	jmp	.LBB68_1
.Lfunc_end68:
	.size	uInt64_from_UInt32s.26, .Lfunc_end68-uInt64_from_UInt32s.26
	.cfi_endproc
                                        # -- End function
	.p2align	4, 0x90         # -- Begin function testStream.27
	.type	testStream.27,@function
testStream.27:                          # @testStream.27
	.cfi_startproc
# %bb.0:                                # %entry
	pushq	%rbp
	.cfi_def_cfa_offset 16
	.cfi_offset %rbp, -16
	movq	%rsp, %rbp
	.cfi_def_cfa_register %rbp
	pushq	%rbx
	subq	$10088, %rsp            # imm = 0x2768
	.cfi_offset %rbx, -24
	movl	$108932984, -52(%rbp)   # imm = 0x67E2F78
	movq	%rdi, -32(%rbp)
	movq	$0, -48(%rbp)
	movl	$0, -24(%rbp)
	movl	$0, -36(%rbp)
	movq	-32(%rbp), %rdi
	callq	ferror
	cmpl	$0, %eax
	je	.LBB69_2
# %bb.1:                                # %if.then
	jmp	.LBB69_38
.LBB69_2:                               # %if.end
	jmp	.LBB69_3
.LBB69_3:                               # %while.body
                                        # =>This Loop Header: Depth=1
                                        #     Child Loop BB69_7 Depth 2
                                        #     Child Loop BB69_16 Depth 2
	leaq	-5088(%rbp), %r8
	movq	-32(%rbp), %rsi
	movl	verbosity, %edx
	movzbl	smallMode, %ecx
	movl	-24(%rbp), %r9d
	leaq	-16(%rbp), %rdi
	callq	BZ2_bzReadOpen
	movq	%rax, -48(%rbp)
	cmpq	$0, -48(%rbp)
	je	.LBB69_5
# %bb.4:                                # %lor.lhs.false
                                        #   in Loop: Header=BB69_3 Depth=1
	cmpl	$0, -16(%rbp)
	je	.LBB69_6
.LBB69_5:                               # %if.then5
	jmp	.LBB69_32
.LBB69_6:                               # %if.end6
                                        #   in Loop: Header=BB69_3 Depth=1
	movl	-36(%rbp), %eax
	addl	$1, %eax
	movl	%eax, -36(%rbp)
.LBB69_7:                               # %while.cond7
                                        #   Parent Loop BB69_3 Depth=1
                                        # =>  This Inner Loop Header: Depth=2
	cmpl	$0, -16(%rbp)
	jne	.LBB69_11
# %bb.8:                                # %while.body10
                                        #   in Loop: Header=BB69_7 Depth=2
	leaq	-10096(%rbp), %rdx
	movq	-48(%rbp), %rsi
	leaq	-16(%rbp), %rdi
	movl	$5000, %ecx             # imm = 0x1388
	callq	BZ2_bzRead
	movl	%eax, -76(%rbp)
	cmpl	$-5, -16(%rbp)
	jne	.LBB69_10
# %bb.9:                                # %if.then15
	jmp	.LBB69_32
.LBB69_10:                              # %if.end16
                                        #   in Loop: Header=BB69_7 Depth=2
	jmp	.LBB69_7
.LBB69_11:                              # %while.end
                                        #   in Loop: Header=BB69_3 Depth=1
	cmpl	$4, -16(%rbp)
	je	.LBB69_13
# %bb.12:                               # %if.then19
	jmp	.LBB69_32
.LBB69_13:                              # %if.end20
                                        #   in Loop: Header=BB69_3 Depth=1
	movq	-48(%rbp), %rsi
	leaq	-16(%rbp), %rdi
	leaq	-72(%rbp), %rdx
	leaq	-24(%rbp), %rcx
	callq	BZ2_bzReadGetUnused
	cmpl	$0, -16(%rbp)
	je	.LBB69_15
# %bb.14:                               # %if.then23
	movabsq	$.L.str.98, %rdi
	callq	panic
.LBB69_15:                              # %if.end24
                                        #   in Loop: Header=BB69_3 Depth=1
	movq	-72(%rbp), %rax
	movq	%rax, -64(%rbp)
	movl	$0, -20(%rbp)
.LBB69_16:                              # %for.cond
                                        #   Parent Loop BB69_3 Depth=1
                                        # =>  This Inner Loop Header: Depth=2
	movl	-20(%rbp), %eax
	cmpl	-24(%rbp), %eax
	jge	.LBB69_19
# %bb.17:                               # %for.body
                                        #   in Loop: Header=BB69_16 Depth=2
	movq	-64(%rbp), %rax
	movslq	-20(%rbp), %rcx
	movb	(%rax,%rcx), %al
	movslq	-20(%rbp), %rcx
	movb	%al, -5088(%rbp,%rcx)
# %bb.18:                               # %for.inc
                                        #   in Loop: Header=BB69_16 Depth=2
	movl	-20(%rbp), %eax
	addl	$1, %eax
	movl	%eax, -20(%rbp)
	jmp	.LBB69_16
.LBB69_19:                              # %for.end
                                        #   in Loop: Header=BB69_3 Depth=1
	movq	-48(%rbp), %rsi
	leaq	-16(%rbp), %rdi
	callq	BZ2_bzReadClose
	cmpl	$0, -16(%rbp)
	je	.LBB69_21
# %bb.20:                               # %if.then32
	movabsq	$.L.str.98, %rdi
	callq	panic
.LBB69_21:                              # %if.end33
                                        #   in Loop: Header=BB69_3 Depth=1
	cmpl	$0, -24(%rbp)
	jne	.LBB69_24
# %bb.22:                               # %land.lhs.true
                                        #   in Loop: Header=BB69_3 Depth=1
	movq	-32(%rbp), %rdi
	callq	myfeof
	movzbl	%al, %eax
	cmpl	$0, %eax
	je	.LBB69_24
# %bb.23:                               # %if.then39
	jmp	.LBB69_25
.LBB69_24:                              # %if.end40
                                        #   in Loop: Header=BB69_3 Depth=1
	jmp	.LBB69_3
.LBB69_25:                              # %while.end41
	movq	-32(%rbp), %rdi
	callq	ferror
	cmpl	$0, %eax
	je	.LBB69_27
# %bb.26:                               # %if.then44
	jmp	.LBB69_38
.LBB69_27:                              # %if.end45
	movq	-32(%rbp), %rdi
	callq	fclose
	movl	%eax, -56(%rbp)
	cmpl	$-1, -56(%rbp)
	jne	.LBB69_29
# %bb.28:                               # %if.then49
	jmp	.LBB69_38
.LBB69_29:                              # %if.end50
	cmpl	$2, verbosity
	jl	.LBB69_31
# %bb.30:                               # %if.then53
	movq	stderr, %rdi
	movabsq	$.L.str.89, %rsi
	movb	$0, %al
	callq	fprintf
.LBB69_31:                              # %if.end55
	movb	$1, -9(%rbp)
	jmp	.LBB69_50
.LBB69_32:                              # %errhandler
	movq	-48(%rbp), %rsi
	leaq	-80(%rbp), %rdi
	callq	BZ2_bzReadClose
	cmpl	$0, verbosity
	jne	.LBB69_34
# %bb.33:                               # %if.then58
	movq	stderr, %rdi
	movq	progName, %rdx
	movabsq	$.L.str.99, %rsi
	movabsq	$inName, %rcx
	movb	$0, %al
	callq	fprintf
.LBB69_34:                              # %if.end60
	movl	-16(%rbp), %eax
	addl	$9, %eax
	movl	%eax, %ecx
	subl	$6, %ecx
	ja	.LBB69_49
# %bb.35:                               # %if.end60
	movq	.LJTI69_0(,%rax,8), %rax
	jmpq	*%rax
.LBB69_36:                              # %sw.bb
	callq	configError
.LBB69_37:                              # %sw.bb61
	jmp	.LBB69_38
.LBB69_38:                              # %errhandler_io
	callq	ioError
.LBB69_39:                              # %sw.bb62
	movq	stderr, %rdi
	movabsq	$.L.str.100, %rsi
	movb	$0, %al
	callq	fprintf
	movb	$0, -9(%rbp)
	jmp	.LBB69_50
.LBB69_40:                              # %sw.bb64
	callq	outOfMemory
.LBB69_41:                              # %sw.bb65
	movq	stderr, %rdi
	movabsq	$.L.str.101, %rsi
	movb	$0, %al
	callq	fprintf
	movb	$0, -9(%rbp)
	jmp	.LBB69_50
.LBB69_42:                              # %sw.bb67
	movq	-32(%rbp), %rax
	cmpq	stdin, %rax
	je	.LBB69_44
# %bb.43:                               # %if.then70
	movq	-32(%rbp), %rdi
	callq	fclose
.LBB69_44:                              # %if.end72
	cmpl	$1, -36(%rbp)
	jne	.LBB69_46
# %bb.45:                               # %if.then75
	movq	stderr, %rdi
	movabsq	$.L.str.102, %rsi
	movb	$0, %al
	callq	fprintf
	movb	$0, -9(%rbp)
	jmp	.LBB69_50
.LBB69_46:                              # %if.else
	cmpb	$0, noisy
	je	.LBB69_48
# %bb.47:                               # %if.then78
	movq	stderr, %rdi
	movabsq	$.L.str.103, %rsi
	movb	$0, %al
	callq	fprintf
.LBB69_48:                              # %if.end80
	movb	$1, -9(%rbp)
	jmp	.LBB69_50
.LBB69_49:                              # %sw.default
	movabsq	$.L.str.104, %rdi
	callq	panic
.LBB69_50:                              # %return
	movb	-9(%rbp), %bl
	cmpl	$108932984, -52(%rbp)   # imm = 0x67E2F78
	jne	.LBB69_52
.LBB69_51:
	movzbl	%bl, %eax
	addq	$10088, %rsp            # imm = 0x2768
	popq	%rbx
	popq	%rbp
	.cfi_def_cfa %rsp, 8
	retq
.LBB69_52:                              # %func_exit
	.cfi_def_cfa %rbp, 16
	callq	detect_breach
	jmp	.LBB69_51
.Lfunc_end69:
	.size	testStream.27, .Lfunc_end69-testStream.27
	.cfi_endproc
	.section	.rodata,"a",@progbits
	.p2align	3
.LJTI69_0:
	.quad	.LBB69_36
	.quad	.LBB69_49
	.quad	.LBB69_41
	.quad	.LBB69_37
	.quad	.LBB69_42
	.quad	.LBB69_39
	.quad	.LBB69_40
                                        # -- End function
	.text
	.p2align	4, 0x90         # -- Begin function testStream.28
	.type	testStream.28,@function
testStream.28:                          # @testStream.28
	.cfi_startproc
# %bb.0:                                # %entry
	pushq	%rbp
	.cfi_def_cfa_offset 16
	.cfi_offset %rbp, -16
	movq	%rsp, %rbp
	.cfi_def_cfa_register %rbp
	pushq	%rbx
	subq	$10088, %rsp            # imm = 0x2768
	.cfi_offset %rbx, -24
	movl	$1837304788, -56(%rbp)  # imm = 0x6D830BD4
	movq	%rdi, -32(%rbp)
	movq	$0, -48(%rbp)
	movl	$0, -24(%rbp)
	movl	$0, -36(%rbp)
	movq	-32(%rbp), %rdi
	callq	ferror
	cmpl	$0, %eax
	je	.LBB70_2
# %bb.1:                                # %if.then
	jmp	.LBB70_38
.LBB70_2:                               # %if.end
	jmp	.LBB70_3
.LBB70_3:                               # %while.body
                                        # =>This Loop Header: Depth=1
                                        #     Child Loop BB70_7 Depth 2
                                        #     Child Loop BB70_16 Depth 2
	leaq	-5088(%rbp), %r8
	movq	-32(%rbp), %rsi
	movl	verbosity, %edx
	movzbl	smallMode, %ecx
	movl	-24(%rbp), %r9d
	leaq	-16(%rbp), %rdi
	callq	BZ2_bzReadOpen
	movq	%rax, -48(%rbp)
	cmpq	$0, -48(%rbp)
	je	.LBB70_5
# %bb.4:                                # %lor.lhs.false
                                        #   in Loop: Header=BB70_3 Depth=1
	cmpl	$0, -16(%rbp)
	je	.LBB70_6
.LBB70_5:                               # %if.then5
	jmp	.LBB70_32
.LBB70_6:                               # %if.end6
                                        #   in Loop: Header=BB70_3 Depth=1
	movl	-36(%rbp), %eax
	addl	$1, %eax
	movl	%eax, -36(%rbp)
.LBB70_7:                               # %while.cond7
                                        #   Parent Loop BB70_3 Depth=1
                                        # =>  This Inner Loop Header: Depth=2
	cmpl	$0, -16(%rbp)
	jne	.LBB70_11
# %bb.8:                                # %while.body10
                                        #   in Loop: Header=BB70_7 Depth=2
	leaq	-10096(%rbp), %rdx
	movq	-48(%rbp), %rsi
	leaq	-16(%rbp), %rdi
	movl	$5000, %ecx             # imm = 0x1388
	callq	BZ2_bzRead
	movl	%eax, -80(%rbp)
	cmpl	$-5, -16(%rbp)
	jne	.LBB70_10
# %bb.9:                                # %if.then15
	jmp	.LBB70_32
.LBB70_10:                              # %if.end16
                                        #   in Loop: Header=BB70_7 Depth=2
	jmp	.LBB70_7
.LBB70_11:                              # %while.end
                                        #   in Loop: Header=BB70_3 Depth=1
	cmpl	$4, -16(%rbp)
	je	.LBB70_13
# %bb.12:                               # %if.then19
	jmp	.LBB70_32
.LBB70_13:                              # %if.end20
                                        #   in Loop: Header=BB70_3 Depth=1
	movq	-48(%rbp), %rsi
	leaq	-16(%rbp), %rdi
	leaq	-64(%rbp), %rdx
	leaq	-24(%rbp), %rcx
	callq	BZ2_bzReadGetUnused
	cmpl	$0, -16(%rbp)
	je	.LBB70_15
# %bb.14:                               # %if.then23
	movabsq	$.L.str.98, %rdi
	callq	panic
.LBB70_15:                              # %if.end24
                                        #   in Loop: Header=BB70_3 Depth=1
	movq	-64(%rbp), %rax
	movq	%rax, -72(%rbp)
	movl	$0, -20(%rbp)
.LBB70_16:                              # %for.cond
                                        #   Parent Loop BB70_3 Depth=1
                                        # =>  This Inner Loop Header: Depth=2
	movl	-20(%rbp), %eax
	cmpl	-24(%rbp), %eax
	jge	.LBB70_19
# %bb.17:                               # %for.body
                                        #   in Loop: Header=BB70_16 Depth=2
	movq	-72(%rbp), %rax
	movslq	-20(%rbp), %rcx
	movb	(%rax,%rcx), %al
	movslq	-20(%rbp), %rcx
	movb	%al, -5088(%rbp,%rcx)
# %bb.18:                               # %for.inc
                                        #   in Loop: Header=BB70_16 Depth=2
	movl	-20(%rbp), %eax
	addl	$1, %eax
	movl	%eax, -20(%rbp)
	jmp	.LBB70_16
.LBB70_19:                              # %for.end
                                        #   in Loop: Header=BB70_3 Depth=1
	movq	-48(%rbp), %rsi
	leaq	-16(%rbp), %rdi
	callq	BZ2_bzReadClose
	cmpl	$0, -16(%rbp)
	je	.LBB70_21
# %bb.20:                               # %if.then32
	movabsq	$.L.str.98, %rdi
	callq	panic
.LBB70_21:                              # %if.end33
                                        #   in Loop: Header=BB70_3 Depth=1
	cmpl	$0, -24(%rbp)
	jne	.LBB70_24
# %bb.22:                               # %land.lhs.true
                                        #   in Loop: Header=BB70_3 Depth=1
	movq	-32(%rbp), %rdi
	callq	myfeof
	movzbl	%al, %eax
	cmpl	$0, %eax
	je	.LBB70_24
# %bb.23:                               # %if.then39
	jmp	.LBB70_25
.LBB70_24:                              # %if.end40
                                        #   in Loop: Header=BB70_3 Depth=1
	jmp	.LBB70_3
.LBB70_25:                              # %while.end41
	movq	-32(%rbp), %rdi
	callq	ferror
	cmpl	$0, %eax
	je	.LBB70_27
# %bb.26:                               # %if.then44
	jmp	.LBB70_38
.LBB70_27:                              # %if.end45
	movq	-32(%rbp), %rdi
	callq	fclose
	movl	%eax, -52(%rbp)
	cmpl	$-1, -52(%rbp)
	jne	.LBB70_29
# %bb.28:                               # %if.then49
	jmp	.LBB70_38
.LBB70_29:                              # %if.end50
	cmpl	$2, verbosity
	jl	.LBB70_31
# %bb.30:                               # %if.then53
	movq	stderr, %rdi
	movabsq	$.L.str.89, %rsi
	movb	$0, %al
	callq	fprintf
.LBB70_31:                              # %if.end55
	movb	$1, -9(%rbp)
	jmp	.LBB70_50
.LBB70_32:                              # %errhandler
	movq	-48(%rbp), %rsi
	leaq	-76(%rbp), %rdi
	callq	BZ2_bzReadClose
	cmpl	$0, verbosity
	jne	.LBB70_34
# %bb.33:                               # %if.then58
	movq	stderr, %rdi
	movq	progName, %rdx
	movabsq	$.L.str.99, %rsi
	movabsq	$inName, %rcx
	movb	$0, %al
	callq	fprintf
.LBB70_34:                              # %if.end60
	movl	-16(%rbp), %eax
	addl	$9, %eax
	movl	%eax, %ecx
	subl	$6, %ecx
	ja	.LBB70_49
# %bb.35:                               # %if.end60
	movq	.LJTI70_0(,%rax,8), %rax
	jmpq	*%rax
.LBB70_36:                              # %sw.bb
	callq	configError
.LBB70_37:                              # %sw.bb61
	jmp	.LBB70_38
.LBB70_38:                              # %errhandler_io
	callq	ioError
.LBB70_39:                              # %sw.bb62
	movq	stderr, %rdi
	movabsq	$.L.str.100, %rsi
	movb	$0, %al
	callq	fprintf
	movb	$0, -9(%rbp)
	jmp	.LBB70_50
.LBB70_40:                              # %sw.bb64
	callq	outOfMemory
.LBB70_41:                              # %sw.bb65
	movq	stderr, %rdi
	movabsq	$.L.str.101, %rsi
	movb	$0, %al
	callq	fprintf
	movb	$0, -9(%rbp)
	jmp	.LBB70_50
.LBB70_42:                              # %sw.bb67
	movq	-32(%rbp), %rax
	cmpq	stdin, %rax
	je	.LBB70_44
# %bb.43:                               # %if.then70
	movq	-32(%rbp), %rdi
	callq	fclose
.LBB70_44:                              # %if.end72
	cmpl	$1, -36(%rbp)
	jne	.LBB70_46
# %bb.45:                               # %if.then75
	movq	stderr, %rdi
	movabsq	$.L.str.102, %rsi
	movb	$0, %al
	callq	fprintf
	movb	$0, -9(%rbp)
	jmp	.LBB70_50
.LBB70_46:                              # %if.else
	cmpb	$0, noisy
	je	.LBB70_48
# %bb.47:                               # %if.then78
	movq	stderr, %rdi
	movabsq	$.L.str.103, %rsi
	movb	$0, %al
	callq	fprintf
.LBB70_48:                              # %if.end80
	movb	$1, -9(%rbp)
	jmp	.LBB70_50
.LBB70_49:                              # %sw.default
	movabsq	$.L.str.104, %rdi
	callq	panic
.LBB70_50:                              # %return
	movb	-9(%rbp), %bl
	cmpl	$1837304788, -56(%rbp)  # imm = 0x6D830BD4
	jne	.LBB70_52
.LBB70_51:
	movzbl	%bl, %eax
	addq	$10088, %rsp            # imm = 0x2768
	popq	%rbx
	popq	%rbp
	.cfi_def_cfa %rsp, 8
	retq
.LBB70_52:                              # %func_exit
	.cfi_def_cfa %rbp, 16
	callq	detect_breach
	jmp	.LBB70_51
.Lfunc_end70:
	.size	testStream.28, .Lfunc_end70-testStream.28
	.cfi_endproc
	.section	.rodata,"a",@progbits
	.p2align	3
.LJTI70_0:
	.quad	.LBB70_36
	.quad	.LBB70_49
	.quad	.LBB70_41
	.quad	.LBB70_37
	.quad	.LBB70_42
	.quad	.LBB70_39
	.quad	.LBB70_40
                                        # -- End function
	.section	.rodata.cst8,"aM",@progbits,8
	.p2align	3               # -- Begin function compressStream.29
.LCPI71_0:
	.quad	4636737291354636288     # double 100
.LCPI71_1:
	.quad	4607182418800017408     # double 1
.LCPI71_2:
	.quad	4620693217682128896     # double 8
	.text
	.p2align	4, 0x90
	.type	compressStream.29,@function
compressStream.29:                      # @compressStream.29
	.cfi_startproc
# %bb.0:                                # %entry
	pushq	%rbp
	.cfi_def_cfa_offset 16
	.cfi_offset %rbp, -16
	movq	%rsp, %rbp
	.cfi_def_cfa_register %rbp
	subq	$5200, %rsp             # imm = 0x1450
	movl	$149355890, -76(%rbp)   # imm = 0x8E6FD72
	movq	%rdi, -24(%rbp)
	movq	%rsi, -32(%rbp)
	movq	$0, -56(%rbp)
	movq	-24(%rbp), %rdi
	callq	ferror
	cmpl	$0, %eax
	je	.LBB71_2
# %bb.1:                                # %if.then
	jmp	.LBB71_46
.LBB71_2:                               # %if.end
	movq	-32(%rbp), %rdi
	callq	ferror
	cmpl	$0, %eax
	je	.LBB71_4
# %bb.3:                                # %if.then3
	jmp	.LBB71_46
.LBB71_4:                               # %if.end4
	movq	-32(%rbp), %rsi
	movl	blockSize100k, %edx
	movl	verbosity, %ecx
	movl	workFactor, %r8d
	leaq	-4(%rbp), %rdi
	callq	BZ2_bzWriteOpen
	movq	%rax, -56(%rbp)
	cmpl	$0, -4(%rbp)
	je	.LBB71_6
# %bb.5:                                # %if.then6
	jmp	.LBB71_40
.LBB71_6:                               # %if.end7
	cmpl	$2, verbosity
	jl	.LBB71_8
# %bb.7:                                # %if.then9
	movq	stderr, %rdi
	movabsq	$.L.str.73, %rsi
	movb	$0, %al
	callq	fprintf
.LBB71_8:                               # %if.end11
	jmp	.LBB71_9
.LBB71_9:                               # %while.body
                                        # =>This Inner Loop Header: Depth=1
	movq	-24(%rbp), %rdi
	callq	myfeof
	cmpb	$0, %al
	je	.LBB71_11
# %bb.10:                               # %if.then14
	jmp	.LBB71_18
.LBB71_11:                              # %if.end15
                                        #   in Loop: Header=BB71_9 Depth=1
	leaq	-5184(%rbp), %rdi
	movq	-24(%rbp), %rcx
	movl	$1, %esi
	movl	$5000, %edx             # imm = 0x1388
	callq	fread
	movl	%eax, -40(%rbp)
	movq	-24(%rbp), %rdi
	callq	ferror
	cmpl	$0, %eax
	je	.LBB71_13
# %bb.12:                               # %if.then19
	jmp	.LBB71_46
.LBB71_13:                              # %if.end20
                                        #   in Loop: Header=BB71_9 Depth=1
	cmpl	$0, -40(%rbp)
	jle	.LBB71_15
# %bb.14:                               # %if.then23
                                        #   in Loop: Header=BB71_9 Depth=1
	leaq	-5184(%rbp), %rdx
	movq	-56(%rbp), %rsi
	movl	-40(%rbp), %ecx
	leaq	-4(%rbp), %rdi
	callq	BZ2_bzWrite
.LBB71_15:                              # %if.end25
                                        #   in Loop: Header=BB71_9 Depth=1
	cmpl	$0, -4(%rbp)
	je	.LBB71_17
# %bb.16:                               # %if.then28
	jmp	.LBB71_40
.LBB71_17:                              # %if.end29
                                        #   in Loop: Header=BB71_9 Depth=1
	jmp	.LBB71_9
.LBB71_18:                              # %while.end
	movq	-56(%rbp), %rsi
	leaq	-4(%rbp), %rdi
	movl	$0, %edx
	leaq	-16(%rbp), %rcx
	leaq	-12(%rbp), %r8
	leaq	-44(%rbp), %r9
	leaq	-36(%rbp), %rax
	movq	%rax, (%rsp)
	callq	BZ2_bzWriteClose64
	cmpl	$0, -4(%rbp)
	je	.LBB71_20
# %bb.19:                               # %if.then32
	jmp	.LBB71_40
.LBB71_20:                              # %if.end33
	movq	-32(%rbp), %rdi
	callq	ferror
	cmpl	$0, %eax
	je	.LBB71_22
# %bb.21:                               # %if.then36
	jmp	.LBB71_46
.LBB71_22:                              # %if.end37
	movq	-32(%rbp), %rdi
	callq	fflush
	movl	%eax, -8(%rbp)
	cmpl	$-1, -8(%rbp)
	jne	.LBB71_24
# %bb.23:                               # %if.then41
	jmp	.LBB71_46
.LBB71_24:                              # %if.end42
	movq	-32(%rbp), %rax
	cmpq	stdout, %rax
	je	.LBB71_28
# %bb.25:                               # %if.then45
	movq	-32(%rbp), %rdi
	callq	fclose
	movl	%eax, -8(%rbp)
	movq	$0, outputHandleJustInCase
	cmpl	$-1, -8(%rbp)
	jne	.LBB71_27
# %bb.26:                               # %if.then49
	jmp	.LBB71_46
.LBB71_27:                              # %if.end50
	jmp	.LBB71_28
.LBB71_28:                              # %if.end51
	movq	$0, outputHandleJustInCase
	movq	-24(%rbp), %rdi
	callq	ferror
	cmpl	$0, %eax
	je	.LBB71_30
# %bb.29:                               # %if.then54
	jmp	.LBB71_46
.LBB71_30:                              # %if.end55
	movq	-24(%rbp), %rdi
	callq	fclose
	movl	%eax, -8(%rbp)
	cmpl	$-1, -8(%rbp)
	jne	.LBB71_32
# %bb.31:                               # %if.then59
	jmp	.LBB71_46
.LBB71_32:                              # %if.end60
	cmpl	$1, verbosity
	jl	.LBB71_38
# %bb.33:                               # %if.then63
	cmpl	$0, -16(%rbp)
	jne	.LBB71_36
# %bb.34:                               # %land.lhs.true
	cmpl	$0, -12(%rbp)
	jne	.LBB71_36
# %bb.35:                               # %if.then68
	movq	stderr, %rdi
	movabsq	$.L.str.74, %rsi
	movb	$0, %al
	callq	fprintf
	jmp	.LBB71_37
.LBB71_36:                              # %if.else
	movl	-16(%rbp), %esi
	movl	-12(%rbp), %edx
	leaq	-96(%rbp), %rdi
	callq	uInt64_from_UInt32s
	movl	-44(%rbp), %esi
	movl	-36(%rbp), %edx
	leaq	-88(%rbp), %rdi
	callq	uInt64_from_UInt32s
	leaq	-96(%rbp), %rdi
	callq	uInt64_to_double
	vmovsd	%xmm0, -72(%rbp)
	leaq	-88(%rbp), %rdi
	callq	uInt64_to_double
	leaq	-176(%rbp), %rdi
	vmovsd	%xmm0, -64(%rbp)
	leaq	-96(%rbp), %rsi
	callq	uInt64_toAscii
	leaq	-144(%rbp), %rdi
	leaq	-88(%rbp), %rsi
	callq	uInt64_toAscii
	leaq	-144(%rbp), %rcx
	leaq	-176(%rbp), %rdx
	vmovsd	.LCPI71_0(%rip), %xmm2  # xmm2 = mem[0],zero
	vmovsd	.LCPI71_1(%rip), %xmm3  # xmm3 = mem[0],zero
	vmovsd	.LCPI71_2(%rip), %xmm1  # xmm1 = mem[0],zero
	movq	stderr, %rdi
	vmovsd	-72(%rbp), %xmm0        # xmm0 = mem[0],zero
	vdivsd	-64(%rbp), %xmm0, %xmm0
	vmulsd	-64(%rbp), %xmm1, %xmm1
	vdivsd	-72(%rbp), %xmm1, %xmm1
	vmovsd	-64(%rbp), %xmm4        # xmm4 = mem[0],zero
	vdivsd	-72(%rbp), %xmm4, %xmm4
	vsubsd	%xmm4, %xmm3, %xmm3
	vmulsd	%xmm3, %xmm2, %xmm2
	movabsq	$.L.str.75, %rsi
	movb	$3, %al
	callq	fprintf
.LBB71_37:                              # %if.end80
	jmp	.LBB71_38
.LBB71_38:                              # %if.end81
	cmpl	$149355890, -76(%rbp)   # imm = 0x8E6FD72
	jne	.LBB71_48
.LBB71_39:
	addq	$5200, %rsp             # imm = 0x1450
	popq	%rbp
	.cfi_def_cfa %rsp, 8
	retq
.LBB71_40:                              # %errhandler
	.cfi_def_cfa %rbp, 16
	movq	-56(%rbp), %rsi
	leaq	-36(%rbp), %rax
	movq	%rax, (%rsp)
	leaq	-100(%rbp), %rdi
	leaq	-16(%rbp), %rcx
	leaq	-12(%rbp), %r8
	leaq	-44(%rbp), %r9
	movl	$1, %edx
	callq	BZ2_bzWriteClose64
	movl	-4(%rbp), %eax
	movl	%eax, %ecx
	subl	$-9, %ecx
	je	.LBB71_43
	jmp	.LBB71_41
.LBB71_41:                              # %errhandler
	movl	%eax, %ecx
	subl	$-6, %ecx
	je	.LBB71_45
	jmp	.LBB71_42
.LBB71_42:                              # %errhandler
	subl	$-3, %eax
	je	.LBB71_44
	jmp	.LBB71_47
.LBB71_43:                              # %sw.bb
	callq	configError
.LBB71_44:                              # %sw.bb82
	callq	outOfMemory
.LBB71_45:                              # %sw.bb83
	jmp	.LBB71_46
.LBB71_46:                              # %errhandler_io
	callq	ioError
.LBB71_47:                              # %sw.default
	movabsq	$.L.str.76, %rdi
	callq	panic
.LBB71_48:                              # %func_exit
	callq	detect_breach
	jmp	.LBB71_39
.Lfunc_end71:
	.size	compressStream.29, .Lfunc_end71-compressStream.29
	.cfi_endproc
                                        # -- End function
	.p2align	4, 0x90         # -- Begin function addFlagsFromEnvVar.30
	.type	addFlagsFromEnvVar.30,@function
addFlagsFromEnvVar.30:                  # @addFlagsFromEnvVar.30
	.cfi_startproc
# %bb.0:                                # %entry
	pushq	%rbp
	.cfi_def_cfa_offset 16
	.cfi_offset %rbp, -16
	movq	%rsp, %rbp
	.cfi_def_cfa_register %rbp
	subq	$48, %rsp
	movl	$489977936, -24(%rbp)   # imm = 0x1D347850
	movq	%rdi, -40(%rbp)
	movq	%rsi, -48(%rbp)
	movq	-48(%rbp), %rdi
	callq	getenv
	movq	%rax, -32(%rbp)
	cmpq	$0, -32(%rbp)
	je	.LBB72_22
# %bb.1:                                # %if.then
	movq	-32(%rbp), %rax
	movq	%rax, -16(%rbp)
	movl	$0, -4(%rbp)
.LBB72_2:                               # %while.body
                                        # =>This Loop Header: Depth=1
                                        #     Child Loop BB72_5 Depth 2
                                        #     Child Loop BB72_8 Depth 2
                                        #     Child Loop BB72_16 Depth 2
	movq	-16(%rbp), %rax
	movslq	-4(%rbp), %rcx
	movsbl	(%rax,%rcx), %eax
	cmpl	$0, %eax
	jne	.LBB72_4
# %bb.3:                                # %if.then3
	jmp	.LBB72_21
.LBB72_4:                               # %if.end
                                        #   in Loop: Header=BB72_2 Depth=1
	movl	-4(%rbp), %eax
	movq	-16(%rbp), %rcx
	cltq
	addq	%rax, %rcx
	movq	%rcx, -16(%rbp)
	movl	$0, -4(%rbp)
.LBB72_5:                               # %while.cond4
                                        #   Parent Loop BB72_2 Depth=1
                                        # =>  This Inner Loop Header: Depth=2
	callq	__ctype_b_loc
	movq	(%rax), %rax
	movq	-16(%rbp), %rcx
	movsbl	(%rcx), %ecx
	movslq	%ecx, %rcx
	movzwl	(%rax,%rcx,2), %eax
	andl	$8192, %eax             # imm = 0x2000
	cmpl	$0, %eax
	je	.LBB72_7
# %bb.6:                                # %while.body11
                                        #   in Loop: Header=BB72_5 Depth=2
	movq	-16(%rbp), %rax
	addq	$1, %rax
	movq	%rax, -16(%rbp)
	jmp	.LBB72_5
.LBB72_7:                               # %while.end
                                        #   in Loop: Header=BB72_2 Depth=1
	jmp	.LBB72_8
.LBB72_8:                               # %while.cond12
                                        #   Parent Loop BB72_2 Depth=1
                                        # =>  This Inner Loop Header: Depth=2
	xorl	%eax, %eax
	movq	-16(%rbp), %rcx
	movslq	-4(%rbp), %rdx
	movsbl	(%rcx,%rdx), %ecx
	cmpl	$0, %ecx
	je	.LBB72_10
# %bb.9:                                # %land.rhs
                                        #   in Loop: Header=BB72_8 Depth=2
	callq	__ctype_b_loc
	movq	(%rax), %rax
	movq	-16(%rbp), %rcx
	movslq	-4(%rbp), %rdx
	movsbl	(%rcx,%rdx), %ecx
	movslq	%ecx, %rcx
	movzwl	(%rax,%rcx,2), %eax
	andl	$8192, %eax             # imm = 0x2000
	cmpl	$0, %eax
	setne	%al
	xorb	$-1, %al
.LBB72_10:                              # %land.end
                                        #   in Loop: Header=BB72_8 Depth=2
	testb	$1, %al
	jne	.LBB72_11
	jmp	.LBB72_12
.LBB72_11:                              # %while.body27
                                        #   in Loop: Header=BB72_8 Depth=2
	movl	-4(%rbp), %eax
	addl	$1, %eax
	movl	%eax, -4(%rbp)
	jmp	.LBB72_8
.LBB72_12:                              # %while.end28
                                        #   in Loop: Header=BB72_2 Depth=1
	cmpl	$0, -4(%rbp)
	jle	.LBB72_20
# %bb.13:                               # %if.then31
                                        #   in Loop: Header=BB72_2 Depth=1
	movl	-4(%rbp), %eax
	movl	%eax, -20(%rbp)
	cmpl	$1024, -20(%rbp)        # imm = 0x400
	jle	.LBB72_15
# %bb.14:                               # %if.then34
                                        #   in Loop: Header=BB72_2 Depth=1
	movl	$1024, -20(%rbp)        # imm = 0x400
.LBB72_15:                              # %if.end35
                                        #   in Loop: Header=BB72_2 Depth=1
	movl	$0, -8(%rbp)
.LBB72_16:                              # %for.cond
                                        #   Parent Loop BB72_2 Depth=1
                                        # =>  This Inner Loop Header: Depth=2
	movl	-8(%rbp), %eax
	cmpl	-20(%rbp), %eax
	jge	.LBB72_19
# %bb.17:                               # %for.body
                                        #   in Loop: Header=BB72_16 Depth=2
	movq	-16(%rbp), %rax
	movslq	-8(%rbp), %rcx
	movb	(%rax,%rcx), %al
	movslq	-8(%rbp), %rcx
	movb	%al, tmpName(,%rcx)
