	.text
	.file	"bzlib.c"
	.globl	BZ2_bz__AssertH__fail   # -- Begin function BZ2_bz__AssertH__fail
	.p2align	4, 0x90
	.type	BZ2_bz__AssertH__fail,@function
BZ2_bz__AssertH__fail:                  # @BZ2_bz__AssertH__fail
	.cfi_startproc
# %bb.0:                                # %entry
	pushq	%rbp
	.cfi_def_cfa_offset 16
	.cfi_offset %rbp, -16
	movq	%rsp, %rbp
	.cfi_def_cfa_register %rbp
	pushq	%r14
	pushq	%rbx
	subq	$16, %rsp
	.cfi_offset %rbx, -32
	.cfi_offset %r14, -24
	movl	%edi, -20(%rbp)
	movq	stderr, %rbx
	movl	-20(%rbp), %r14d
	callq	BZ2_bzlibVersion
	movq	%rbx, %rdi
	movabsq	$.L.str, %rsi
	movl	%r14d, %edx
	movq	%rax, %rcx
	movb	$0, %al
	callq	fprintf
	cmpl	$1007, -20(%rbp)        # imm = 0x3EF
	jne	.LBB0_2
# %bb.1:                                # %if.then
	movq	stderr, %rdi
	movabsq	$.L.str.1, %rsi
	movb	$0, %al
	callq	fprintf
.LBB0_2:                                # %if.end
	movl	$3, %edi
	callq	exit
.Lfunc_end0:
	.size	BZ2_bz__AssertH__fail, .Lfunc_end0-BZ2_bz__AssertH__fail
	.cfi_endproc
                                        # -- End function
	.globl	BZ2_bzlibVersion        # -- Begin function BZ2_bzlibVersion
	.p2align	4, 0x90
	.type	BZ2_bzlibVersion,@function
BZ2_bzlibVersion:                       # @BZ2_bzlibVersion
	.cfi_startproc
# %bb.0:                                # %entry
	pushq	%rbp
	.cfi_def_cfa_offset 16
	.cfi_offset %rbp, -16
	movq	%rsp, %rbp
	.cfi_def_cfa_register %rbp
	movabsq	$.L.str.5, %rax
	popq	%rbp
	.cfi_def_cfa %rsp, 8
	retq
.Lfunc_end1:
	.size	BZ2_bzlibVersion, .Lfunc_end1-BZ2_bzlibVersion
	.cfi_endproc
                                        # -- End function
	.globl	BZ2_bzCompressInit      # -- Begin function BZ2_bzCompressInit
	.p2align	4, 0x90
	.type	BZ2_bzCompressInit,@function
BZ2_bzCompressInit:                     # @BZ2_bzCompressInit
	.cfi_startproc
# %bb.0:                                # %rand_bb
	pushq	%rbp
	.cfi_def_cfa_offset 16
	.cfi_offset %rbp, -16
	movq	%rsp, %rbp
	.cfi_def_cfa_register %rbp
	pushq	%r15
	pushq	%r14
	pushq	%r12
	pushq	%rbx
	.cfi_offset %rbx, -48
	.cfi_offset %r12, -40
	.cfi_offset %r14, -32
	.cfi_offset %r15, -24
	movl	%ecx, %r14d
	movl	%edx, %r15d
	movl	%esi, %r12d
	movq	%rdi, %rbx
	callq	get_rand
	cmpl	$0, %eax
	jne	.LBB2_17
# %bb.1:                                # %func_BZ2_bzCompressInit.12
	movq	%rbx, %rdi
	movl	%r12d, %esi
	movl	%r15d, %edx
	movl	%r14d, %ecx
	callq	BZ2_bzCompressInit.12
	popq	%rbx
	popq	%r12
	popq	%r14
	popq	%r15
	popq	%rbp
	.cfi_def_cfa %rsp, 8
	retq
.LBB2_2:                                # %func_BZ2_bzCompressInit.85
	.cfi_def_cfa %rbp, 16
	movq	%rbx, %rdi
	movl	%r12d, %esi
	movl	%r15d, %edx
	movl	%r14d, %ecx
	callq	BZ2_bzCompressInit.85
	popq	%rbx
	popq	%r12
	popq	%r14
	popq	%r15
	popq	%rbp
	.cfi_def_cfa %rsp, 8
	retq
.LBB2_3:                                # %func_BZ2_bzCompressInit.108
	.cfi_def_cfa %rbp, 16
	movq	%rbx, %rdi
	movl	%r12d, %esi
	movl	%r15d, %edx
	movl	%r14d, %ecx
	callq	BZ2_bzCompressInit.108
	popq	%rbx
	popq	%r12
	popq	%r14
	popq	%r15
	popq	%rbp
	.cfi_def_cfa %rsp, 8
	retq
.LBB2_4:                                # %func_BZ2_bzCompressInit.126
	.cfi_def_cfa %rbp, 16
	movq	%rbx, %rdi
	movl	%r12d, %esi
	movl	%r15d, %edx
	movl	%r14d, %ecx
	callq	BZ2_bzCompressInit.126
	popq	%rbx
	popq	%r12
	popq	%r14
	popq	%r15
	popq	%rbp
	.cfi_def_cfa %rsp, 8
	retq
.LBB2_5:                                # %func_BZ2_bzCompressInit.152
	.cfi_def_cfa %rbp, 16
	movq	%rbx, %rdi
	movl	%r12d, %esi
	movl	%r15d, %edx
	movl	%r14d, %ecx
	callq	BZ2_bzCompressInit.152
	popq	%rbx
	popq	%r12
	popq	%r14
	popq	%r15
	popq	%rbp
	.cfi_def_cfa %rsp, 8
	retq
.LBB2_6:                                # %func_BZ2_bzCompressInit.162
	.cfi_def_cfa %rbp, 16
	movq	%rbx, %rdi
	movl	%r12d, %esi
	movl	%r15d, %edx
	movl	%r14d, %ecx
	callq	BZ2_bzCompressInit.162
	popq	%rbx
	popq	%r12
	popq	%r14
	popq	%r15
	popq	%rbp
	.cfi_def_cfa %rsp, 8
	retq
.LBB2_7:                                # %func_BZ2_bzCompressInit.179
	.cfi_def_cfa %rbp, 16
	movq	%rbx, %rdi
	movl	%r12d, %esi
	movl	%r15d, %edx
	movl	%r14d, %ecx
	callq	BZ2_bzCompressInit.179
	popq	%rbx
	popq	%r12
	popq	%r14
	popq	%r15
	popq	%rbp
	.cfi_def_cfa %rsp, 8
	retq
.LBB2_8:                                # %func_BZ2_bzCompressInit.194
	.cfi_def_cfa %rbp, 16
	movq	%rbx, %rdi
	movl	%r12d, %esi
	movl	%r15d, %edx
	movl	%r14d, %ecx
	callq	BZ2_bzCompressInit.194
	popq	%rbx
	popq	%r12
	popq	%r14
	popq	%r15
	popq	%rbp
	.cfi_def_cfa %rsp, 8
	retq
.LBB2_9:                                # %func_BZ2_bzCompressInit.197
	.cfi_def_cfa %rbp, 16
	movq	%rbx, %rdi
	movl	%r12d, %esi
	movl	%r15d, %edx
	movl	%r14d, %ecx
	callq	BZ2_bzCompressInit.197
	popq	%rbx
	popq	%r12
	popq	%r14
	popq	%r15
	popq	%rbp
	.cfi_def_cfa %rsp, 8
	retq
.LBB2_10:                               # %func_BZ2_bzCompressInit.214
	.cfi_def_cfa %rbp, 16
	movq	%rbx, %rdi
	movl	%r12d, %esi
	movl	%r15d, %edx
	movl	%r14d, %ecx
	callq	BZ2_bzCompressInit.214
	popq	%rbx
	popq	%r12
	popq	%r14
	popq	%r15
	popq	%rbp
	.cfi_def_cfa %rsp, 8
	retq
.LBB2_11:                               # %func_BZ2_bzCompressInit.284
	.cfi_def_cfa %rbp, 16
	movq	%rbx, %rdi
	movl	%r12d, %esi
	movl	%r15d, %edx
	movl	%r14d, %ecx
	callq	BZ2_bzCompressInit.284
	popq	%rbx
	popq	%r12
	popq	%r14
	popq	%r15
	popq	%rbp
	.cfi_def_cfa %rsp, 8
	retq
.LBB2_12:                               # %func_BZ2_bzCompressInit.286
	.cfi_def_cfa %rbp, 16
	movq	%rbx, %rdi
	movl	%r12d, %esi
	movl	%r15d, %edx
	movl	%r14d, %ecx
	callq	BZ2_bzCompressInit.286
	popq	%rbx
	popq	%r12
	popq	%r14
	popq	%r15
	popq	%rbp
	.cfi_def_cfa %rsp, 8
	retq
.LBB2_13:                               # %func_BZ2_bzCompressInit.293
	.cfi_def_cfa %rbp, 16
	movq	%rbx, %rdi
	movl	%r12d, %esi
	movl	%r15d, %edx
	movl	%r14d, %ecx
	callq	BZ2_bzCompressInit.293
	popq	%rbx
	popq	%r12
	popq	%r14
	popq	%r15
	popq	%rbp
	.cfi_def_cfa %rsp, 8
	retq
.LBB2_14:                               # %func_BZ2_bzCompressInit.298
	.cfi_def_cfa %rbp, 16
	movq	%rbx, %rdi
	movl	%r12d, %esi
	movl	%r15d, %edx
	movl	%r14d, %ecx
	callq	BZ2_bzCompressInit.298
	popq	%rbx
	popq	%r12
	popq	%r14
	popq	%r15
	popq	%rbp
	.cfi_def_cfa %rsp, 8
	retq
.LBB2_15:                               # %func_BZ2_bzCompressInit.307
	.cfi_def_cfa %rbp, 16
	movq	%rbx, %rdi
	movl	%r12d, %esi
	movl	%r15d, %edx
	movl	%r14d, %ecx
	callq	BZ2_bzCompressInit.307
	popq	%rbx
	popq	%r12
	popq	%r14
	popq	%r15
	popq	%rbp
	.cfi_def_cfa %rsp, 8
	retq
.LBB2_16:                               # %func_BZ2_bzCompressInit.323
	.cfi_def_cfa %rbp, 16
	movq	%rbx, %rdi
	movl	%r12d, %esi
	movl	%r15d, %edx
	movl	%r14d, %ecx
	callq	BZ2_bzCompressInit.323
	popq	%rbx
	popq	%r12
	popq	%r14
	popq	%r15
	popq	%rbp
	.cfi_def_cfa %rsp, 8
	retq
.LBB2_17:                               # %ctrl0
	.cfi_def_cfa %rbp, 16
	cmpl	$1, %eax
	je	.LBB2_2
# %bb.18:                               # %ctrl1
	cmpl	$2, %eax
	je	.LBB2_3
# %bb.19:                               # %ctrl2
	cmpl	$3, %eax
	je	.LBB2_4
# %bb.20:                               # %ctrl3
	cmpl	$4, %eax
	je	.LBB2_5
# %bb.21:                               # %ctrl4
	cmpl	$5, %eax
	je	.LBB2_6
# %bb.22:                               # %ctrl5
	cmpl	$6, %eax
	je	.LBB2_7
# %bb.23:                               # %ctrl6
	cmpl	$7, %eax
	je	.LBB2_8
# %bb.24:                               # %ctrl7
	cmpl	$8, %eax
	je	.LBB2_9
# %bb.25:                               # %ctrl8
	cmpl	$9, %eax
	je	.LBB2_10
# %bb.26:                               # %ctrl9
	cmpl	$10, %eax
	je	.LBB2_11
# %bb.27:                               # %ctrl10
	cmpl	$11, %eax
	je	.LBB2_12
# %bb.28:                               # %ctrl11
	cmpl	$12, %eax
	je	.LBB2_13
# %bb.29:                               # %ctrl12
	cmpl	$13, %eax
	je	.LBB2_14
# %bb.30:                               # %ctrl13
	cmpl	$14, %eax
	je	.LBB2_15
	jmp	.LBB2_16
.Lfunc_end2:
	.size	BZ2_bzCompressInit, .Lfunc_end2-BZ2_bzCompressInit
	.cfi_endproc
                                        # -- End function
	.p2align	4, 0x90         # -- Begin function bz_config_ok
	.type	bz_config_ok,@function
bz_config_ok:                           # @bz_config_ok
	.cfi_startproc
# %bb.0:                                # %entry
	pushq	%rbp
	.cfi_def_cfa_offset 16
	.cfi_offset %rbp, -16
	movq	%rsp, %rbp
	.cfi_def_cfa_register %rbp
	movl	$1, %eax
	popq	%rbp
	.cfi_def_cfa %rsp, 8
	retq
.Lfunc_end3:
	.size	bz_config_ok, .Lfunc_end3-bz_config_ok
	.cfi_endproc
                                        # -- End function
	.p2align	4, 0x90         # -- Begin function default_bzalloc
	.type	default_bzalloc,@function
default_bzalloc:                        # @default_bzalloc
	.cfi_startproc
# %bb.0:                                # %rand_bb
	pushq	%rbp
	.cfi_def_cfa_offset 16
	.cfi_offset %rbp, -16
	movq	%rsp, %rbp
	.cfi_def_cfa_register %rbp
	pushq	%r15
	pushq	%r14
	pushq	%rbx
	pushq	%rax
	.cfi_offset %rbx, -40
	.cfi_offset %r14, -32
	.cfi_offset %r15, -24
	movl	%edx, %r14d
	movl	%esi, %r15d
	movq	%rdi, %rbx
	callq	get_rand
	cmpl	$0, %eax
	jne	.LBB4_17
# %bb.1:                                # %func_default_bzalloc.47
	movq	%rbx, %rdi
	movl	%r15d, %esi
	movl	%r14d, %edx
	callq	default_bzalloc.47
	addq	$8, %rsp
	popq	%rbx
	popq	%r14
	popq	%r15
	popq	%rbp
	.cfi_def_cfa %rsp, 8
	retq
.LBB4_2:                                # %func_default_bzalloc.185
	.cfi_def_cfa %rbp, 16
	movq	%rbx, %rdi
	movl	%r15d, %esi
	movl	%r14d, %edx
	callq	default_bzalloc.185
	addq	$8, %rsp
	popq	%rbx
	popq	%r14
	popq	%r15
	popq	%rbp
	.cfi_def_cfa %rsp, 8
	retq
.LBB4_3:                                # %func_default_bzalloc.220
	.cfi_def_cfa %rbp, 16
	movq	%rbx, %rdi
	movl	%r15d, %esi
	movl	%r14d, %edx
	callq	default_bzalloc.220
	addq	$8, %rsp
	popq	%rbx
	popq	%r14
	popq	%r15
	popq	%rbp
	.cfi_def_cfa %rsp, 8
	retq
.LBB4_4:                                # %func_default_bzalloc.235
	.cfi_def_cfa %rbp, 16
	movq	%rbx, %rdi
	movl	%r15d, %esi
	movl	%r14d, %edx
	callq	default_bzalloc.235
	addq	$8, %rsp
	popq	%rbx
	popq	%r14
	popq	%r15
	popq	%rbp
	.cfi_def_cfa %rsp, 8
	retq
.LBB4_5:                                # %func_default_bzalloc.261
	.cfi_def_cfa %rbp, 16
	movq	%rbx, %rdi
	movl	%r15d, %esi
	movl	%r14d, %edx
	callq	default_bzalloc.261
	addq	$8, %rsp
	popq	%rbx
	popq	%r14
	popq	%r15
	popq	%rbp
	.cfi_def_cfa %rsp, 8
	retq
.LBB4_6:                                # %func_default_bzalloc.263
	.cfi_def_cfa %rbp, 16
	movq	%rbx, %rdi
	movl	%r15d, %esi
	movl	%r14d, %edx
	callq	default_bzalloc.263
	addq	$8, %rsp
	popq	%rbx
	popq	%r14
	popq	%r15
	popq	%rbp
	.cfi_def_cfa %rsp, 8
	retq
.LBB4_7:                                # %func_default_bzalloc.270
	.cfi_def_cfa %rbp, 16
	movq	%rbx, %rdi
	movl	%r15d, %esi
	movl	%r14d, %edx
	callq	default_bzalloc.270
	addq	$8, %rsp
	popq	%rbx
	popq	%r14
	popq	%r15
	popq	%rbp
	.cfi_def_cfa %rsp, 8
	retq
.LBB4_8:                                # %func_default_bzalloc.274
	.cfi_def_cfa %rbp, 16
	movq	%rbx, %rdi
	movl	%r15d, %esi
	movl	%r14d, %edx
	callq	default_bzalloc.274
	addq	$8, %rsp
	popq	%rbx
	popq	%r14
	popq	%r15
	popq	%rbp
	.cfi_def_cfa %rsp, 8
	retq
.LBB4_9:                                # %func_default_bzalloc.287
	.cfi_def_cfa %rbp, 16
	movq	%rbx, %rdi
	movl	%r15d, %esi
	movl	%r14d, %edx
	callq	default_bzalloc.287
	addq	$8, %rsp
	popq	%rbx
	popq	%r14
	popq	%r15
	popq	%rbp
	.cfi_def_cfa %rsp, 8
	retq
.LBB4_10:                               # %func_default_bzalloc.313
	.cfi_def_cfa %rbp, 16
	movq	%rbx, %rdi
	movl	%r15d, %esi
	movl	%r14d, %edx
	callq	default_bzalloc.313
	addq	$8, %rsp
	popq	%rbx
	popq	%r14
	popq	%r15
	popq	%rbp
	.cfi_def_cfa %rsp, 8
	retq
.LBB4_11:                               # %func_default_bzalloc.328
	.cfi_def_cfa %rbp, 16
	movq	%rbx, %rdi
	movl	%r15d, %esi
	movl	%r14d, %edx
	callq	default_bzalloc.328
	addq	$8, %rsp
	popq	%rbx
	popq	%r14
	popq	%r15
	popq	%rbp
	.cfi_def_cfa %rsp, 8
	retq
.LBB4_12:                               # %func_default_bzalloc.379
	.cfi_def_cfa %rbp, 16
	movq	%rbx, %rdi
	movl	%r15d, %esi
	movl	%r14d, %edx
	callq	default_bzalloc.379
	addq	$8, %rsp
	popq	%rbx
	popq	%r14
	popq	%r15
	popq	%rbp
	.cfi_def_cfa %rsp, 8
	retq
.LBB4_13:                               # %func_default_bzalloc.386
	.cfi_def_cfa %rbp, 16
	movq	%rbx, %rdi
	movl	%r15d, %esi
	movl	%r14d, %edx
	callq	default_bzalloc.386
	addq	$8, %rsp
	popq	%rbx
	popq	%r14
	popq	%r15
	popq	%rbp
	.cfi_def_cfa %rsp, 8
	retq
.LBB4_14:                               # %func_default_bzalloc.387
	.cfi_def_cfa %rbp, 16
	movq	%rbx, %rdi
	movl	%r15d, %esi
	movl	%r14d, %edx
	callq	default_bzalloc.387
	addq	$8, %rsp
	popq	%rbx
	popq	%r14
	popq	%r15
	popq	%rbp
	.cfi_def_cfa %rsp, 8
	retq
.LBB4_15:                               # %func_default_bzalloc.388
	.cfi_def_cfa %rbp, 16
	movq	%rbx, %rdi
	movl	%r15d, %esi
	movl	%r14d, %edx
	callq	default_bzalloc.388
	addq	$8, %rsp
	popq	%rbx
	popq	%r14
	popq	%r15
	popq	%rbp
	.cfi_def_cfa %rsp, 8
	retq
.LBB4_16:                               # %func_default_bzalloc.390
	.cfi_def_cfa %rbp, 16
	movq	%rbx, %rdi
	movl	%r15d, %esi
	movl	%r14d, %edx
	callq	default_bzalloc.390
	addq	$8, %rsp
	popq	%rbx
	popq	%r14
	popq	%r15
	popq	%rbp
	.cfi_def_cfa %rsp, 8
	retq
.LBB4_17:                               # %ctrl0
	.cfi_def_cfa %rbp, 16
	cmpl	$1, %eax
	je	.LBB4_2
# %bb.18:                               # %ctrl1
	cmpl	$2, %eax
	je	.LBB4_3
# %bb.19:                               # %ctrl2
	cmpl	$3, %eax
	je	.LBB4_4
# %bb.20:                               # %ctrl3
	cmpl	$4, %eax
	je	.LBB4_5
# %bb.21:                               # %ctrl4
	cmpl	$5, %eax
	je	.LBB4_6
# %bb.22:                               # %ctrl5
	cmpl	$6, %eax
	je	.LBB4_7
# %bb.23:                               # %ctrl6
	cmpl	$7, %eax
	je	.LBB4_8
# %bb.24:                               # %ctrl7
	cmpl	$8, %eax
	je	.LBB4_9
# %bb.25:                               # %ctrl8
	cmpl	$9, %eax
	je	.LBB4_10
# %bb.26:                               # %ctrl9
	cmpl	$10, %eax
	je	.LBB4_11
# %bb.27:                               # %ctrl10
	cmpl	$11, %eax
	je	.LBB4_12
# %bb.28:                               # %ctrl11
	cmpl	$12, %eax
	je	.LBB4_13
# %bb.29:                               # %ctrl12
	cmpl	$13, %eax
	je	.LBB4_14
# %bb.30:                               # %ctrl13
	cmpl	$14, %eax
	je	.LBB4_15
	jmp	.LBB4_16
.Lfunc_end4:
	.size	default_bzalloc, .Lfunc_end4-default_bzalloc
	.cfi_endproc
                                        # -- End function
	.p2align	4, 0x90         # -- Begin function default_bzfree
	.type	default_bzfree,@function
default_bzfree:                         # @default_bzfree
	.cfi_startproc
# %bb.0:                                # %rand_bb
	pushq	%rbp
	.cfi_def_cfa_offset 16
	.cfi_offset %rbp, -16
	movq	%rsp, %rbp
	.cfi_def_cfa_register %rbp
	pushq	%r14
	pushq	%rbx
	.cfi_offset %rbx, -32
	.cfi_offset %r14, -24
	movq	%rsi, %r14
	movq	%rdi, %rbx
	callq	get_rand
	cmpl	$0, %eax
	jne	.LBB5_2
# %bb.1:                                # %func_default_bzfree.7
	movq	%rbx, %rdi
	movq	%r14, %rsi
	callq	default_bzfree.7
	popq	%rbx
	popq	%r14
	popq	%rbp
	.cfi_def_cfa %rsp, 8
	retq
.LBB5_2:                                # %func_default_bzfree.16
	.cfi_def_cfa %rbp, 16
	movq	%rbx, %rdi
	movq	%r14, %rsi
	callq	default_bzfree.16
	popq	%rbx
	popq	%r14
	popq	%rbp
	.cfi_def_cfa %rsp, 8
	retq
.Lfunc_end5:
	.size	default_bzfree, .Lfunc_end5-default_bzfree
	.cfi_endproc
                                        # -- End function
	.p2align	4, 0x90         # -- Begin function init_RL
	.type	init_RL,@function
init_RL:                                # @init_RL
	.cfi_startproc
# %bb.0:                                # %entry
	pushq	%rbp
	.cfi_def_cfa_offset 16
	.cfi_offset %rbp, -16
	movq	%rsp, %rbp
	.cfi_def_cfa_register %rbp
	movq	%rdi, -8(%rbp)
	movq	-8(%rbp), %rax
	movl	$256, 92(%rax)          # imm = 0x100
	movq	-8(%rbp), %rax
	movl	$0, 96(%rax)
	popq	%rbp
	.cfi_def_cfa %rsp, 8
	retq
.Lfunc_end6:
	.size	init_RL, .Lfunc_end6-init_RL
	.cfi_endproc
                                        # -- End function
	.p2align	4, 0x90         # -- Begin function prepare_new_block
	.type	prepare_new_block,@function
prepare_new_block:                      # @prepare_new_block
	.cfi_startproc
# %bb.0:                                # %rand_bb
	pushq	%rbp
	.cfi_def_cfa_offset 16
	.cfi_offset %rbp, -16
	movq	%rsp, %rbp
	.cfi_def_cfa_register %rbp
	pushq	%rbx
	pushq	%rax
	.cfi_offset %rbx, -24
	movq	%rdi, %rbx
	callq	get_rand
	cmpl	$0, %eax
	jne	.LBB7_2
# %bb.1:                                # %func_prepare_new_block.31
	movq	%rbx, %rdi
	callq	prepare_new_block.31
	addq	$8, %rsp
	popq	%rbx
	popq	%rbp
	.cfi_def_cfa %rsp, 8
	retq
.LBB7_2:                                # %func_prepare_new_block.70
	.cfi_def_cfa %rbp, 16
	movq	%rbx, %rdi
	callq	prepare_new_block.70
	addq	$8, %rsp
	popq	%rbx
	popq	%rbp
	.cfi_def_cfa %rsp, 8
	retq
.Lfunc_end7:
	.size	prepare_new_block, .Lfunc_end7-prepare_new_block
	.cfi_endproc
                                        # -- End function
	.globl	BZ2_bzCompress          # -- Begin function BZ2_bzCompress
	.p2align	4, 0x90
	.type	BZ2_bzCompress,@function
BZ2_bzCompress:                         # @BZ2_bzCompress
	.cfi_startproc
# %bb.0:                                # %rand_bb
	pushq	%rbp
	.cfi_def_cfa_offset 16
	.cfi_offset %rbp, -16
	movq	%rsp, %rbp
	.cfi_def_cfa_register %rbp
	pushq	%r14
	pushq	%rbx
	.cfi_offset %rbx, -32
	.cfi_offset %r14, -24
	movl	%esi, %r14d
	movq	%rdi, %rbx
	callq	get_rand
	cmpl	$0, %eax
	jne	.LBB8_17
# %bb.1:                                # %func_BZ2_bzCompress.67
	movq	%rbx, %rdi
	movl	%r14d, %esi
	callq	BZ2_bzCompress.67
	popq	%rbx
	popq	%r14
	popq	%rbp
	.cfi_def_cfa %rsp, 8
	retq
.LBB8_2:                                # %func_BZ2_bzCompress.81
	.cfi_def_cfa %rbp, 16
	movq	%rbx, %rdi
	movl	%r14d, %esi
	callq	BZ2_bzCompress.81
	popq	%rbx
	popq	%r14
	popq	%rbp
	.cfi_def_cfa %rsp, 8
	retq
.LBB8_3:                                # %func_BZ2_bzCompress.106
	.cfi_def_cfa %rbp, 16
	movq	%rbx, %rdi
	movl	%r14d, %esi
	callq	BZ2_bzCompress.106
	popq	%rbx
	popq	%r14
	popq	%rbp
	.cfi_def_cfa %rsp, 8
	retq
.LBB8_4:                                # %func_BZ2_bzCompress.149
	.cfi_def_cfa %rbp, 16
	movq	%rbx, %rdi
	movl	%r14d, %esi
	callq	BZ2_bzCompress.149
	popq	%rbx
	popq	%r14
	popq	%rbp
	.cfi_def_cfa %rsp, 8
	retq
.LBB8_5:                                # %func_BZ2_bzCompress.164
	.cfi_def_cfa %rbp, 16
	movq	%rbx, %rdi
	movl	%r14d, %esi
	callq	BZ2_bzCompress.164
	popq	%rbx
	popq	%r14
	popq	%rbp
	.cfi_def_cfa %rsp, 8
	retq
.LBB8_6:                                # %func_BZ2_bzCompress.171
	.cfi_def_cfa %rbp, 16
	movq	%rbx, %rdi
	movl	%r14d, %esi
	callq	BZ2_bzCompress.171
	popq	%rbx
	popq	%r14
	popq	%rbp
	.cfi_def_cfa %rsp, 8
	retq
.LBB8_7:                                # %func_BZ2_bzCompress.193
	.cfi_def_cfa %rbp, 16
	movq	%rbx, %rdi
	movl	%r14d, %esi
	callq	BZ2_bzCompress.193
	popq	%rbx
	popq	%r14
	popq	%rbp
	.cfi_def_cfa %rsp, 8
	retq
.LBB8_8:                                # %func_BZ2_bzCompress.198
	.cfi_def_cfa %rbp, 16
	movq	%rbx, %rdi
	movl	%r14d, %esi
	callq	BZ2_bzCompress.198
	popq	%rbx
	popq	%r14
	popq	%rbp
	.cfi_def_cfa %rsp, 8
	retq
.LBB8_9:                                # %func_BZ2_bzCompress.216
	.cfi_def_cfa %rbp, 16
	movq	%rbx, %rdi
	movl	%r14d, %esi
	callq	BZ2_bzCompress.216
	popq	%rbx
	popq	%r14
	popq	%rbp
	.cfi_def_cfa %rsp, 8
	retq
.LBB8_10:                               # %func_BZ2_bzCompress.232
	.cfi_def_cfa %rbp, 16
	movq	%rbx, %rdi
	movl	%r14d, %esi
	callq	BZ2_bzCompress.232
	popq	%rbx
	popq	%r14
	popq	%rbp
	.cfi_def_cfa %rsp, 8
	retq
.LBB8_11:                               # %func_BZ2_bzCompress.254
	.cfi_def_cfa %rbp, 16
	movq	%rbx, %rdi
	movl	%r14d, %esi
	callq	BZ2_bzCompress.254
	popq	%rbx
	popq	%r14
	popq	%rbp
	.cfi_def_cfa %rsp, 8
	retq
.LBB8_12:                               # %func_BZ2_bzCompress.280
	.cfi_def_cfa %rbp, 16
	movq	%rbx, %rdi
	movl	%r14d, %esi
	callq	BZ2_bzCompress.280
	popq	%rbx
	popq	%r14
	popq	%rbp
	.cfi_def_cfa %rsp, 8
	retq
.LBB8_13:                               # %func_BZ2_bzCompress.326
	.cfi_def_cfa %rbp, 16
	movq	%rbx, %rdi
	movl	%r14d, %esi
	callq	BZ2_bzCompress.326
	popq	%rbx
	popq	%r14
	popq	%rbp
	.cfi_def_cfa %rsp, 8
	retq
.LBB8_14:                               # %func_BZ2_bzCompress.349
	.cfi_def_cfa %rbp, 16
	movq	%rbx, %rdi
	movl	%r14d, %esi
	callq	BZ2_bzCompress.349
	popq	%rbx
	popq	%r14
	popq	%rbp
	.cfi_def_cfa %rsp, 8
	retq
.LBB8_15:                               # %func_BZ2_bzCompress.353
	.cfi_def_cfa %rbp, 16
	movq	%rbx, %rdi
	movl	%r14d, %esi
	callq	BZ2_bzCompress.353
	popq	%rbx
	popq	%r14
	popq	%rbp
	.cfi_def_cfa %rsp, 8
	retq
.LBB8_16:                               # %func_BZ2_bzCompress.370
	.cfi_def_cfa %rbp, 16
	movq	%rbx, %rdi
	movl	%r14d, %esi
	callq	BZ2_bzCompress.370
	popq	%rbx
	popq	%r14
	popq	%rbp
	.cfi_def_cfa %rsp, 8
	retq
.LBB8_17:                               # %ctrl0
	.cfi_def_cfa %rbp, 16
	cmpl	$1, %eax
	je	.LBB8_2
# %bb.18:                               # %ctrl1
	cmpl	$2, %eax
	je	.LBB8_3
# %bb.19:                               # %ctrl2
	cmpl	$3, %eax
	je	.LBB8_4
# %bb.20:                               # %ctrl3
	cmpl	$4, %eax
	je	.LBB8_5
# %bb.21:                               # %ctrl4
	cmpl	$5, %eax
	je	.LBB8_6
# %bb.22:                               # %ctrl5
	cmpl	$6, %eax
	je	.LBB8_7
# %bb.23:                               # %ctrl6
	cmpl	$7, %eax
	je	.LBB8_8
# %bb.24:                               # %ctrl7
	cmpl	$8, %eax
	je	.LBB8_9
# %bb.25:                               # %ctrl8
	cmpl	$9, %eax
	je	.LBB8_10
# %bb.26:                               # %ctrl9
	cmpl	$10, %eax
	je	.LBB8_11
# %bb.27:                               # %ctrl10
	cmpl	$11, %eax
	je	.LBB8_12
# %bb.28:                               # %ctrl11
	cmpl	$12, %eax
	je	.LBB8_13
# %bb.29:                               # %ctrl12
	cmpl	$13, %eax
	je	.LBB8_14
# %bb.30:                               # %ctrl13
	cmpl	$14, %eax
	je	.LBB8_15
	jmp	.LBB8_16
.Lfunc_end8:
	.size	BZ2_bzCompress, .Lfunc_end8-BZ2_bzCompress
	.cfi_endproc
                                        # -- End function
	.p2align	4, 0x90         # -- Begin function handle_compress
	.type	handle_compress,@function
handle_compress:                        # @handle_compress
	.cfi_startproc
# %bb.0:                                # %rand_bb
	pushq	%rbp
	.cfi_def_cfa_offset 16
	.cfi_offset %rbp, -16
	movq	%rsp, %rbp
	.cfi_def_cfa_register %rbp
	pushq	%rbx
	pushq	%rax
	.cfi_offset %rbx, -24
	movq	%rdi, %rbx
	callq	get_rand
	cmpl	$0, %eax
	jne	.LBB9_17
# %bb.1:                                # %func_handle_compress.9
	movq	%rbx, %rdi
	callq	handle_compress.9
	movzbl	%al, %eax
	addq	$8, %rsp
	popq	%rbx
	popq	%rbp
	.cfi_def_cfa %rsp, 8
	retq
.LBB9_2:                                # %func_handle_compress.17
	.cfi_def_cfa %rbp, 16
	movq	%rbx, %rdi
	callq	handle_compress.17
	movzbl	%al, %eax
	addq	$8, %rsp
	popq	%rbx
	popq	%rbp
	.cfi_def_cfa %rsp, 8
	retq
.LBB9_3:                                # %func_handle_compress.35
	.cfi_def_cfa %rbp, 16
	movq	%rbx, %rdi
	callq	handle_compress.35
	movzbl	%al, %eax
	addq	$8, %rsp
	popq	%rbx
	popq	%rbp
	.cfi_def_cfa %rsp, 8
	retq
.LBB9_4:                                # %func_handle_compress.71
	.cfi_def_cfa %rbp, 16
	movq	%rbx, %rdi
	callq	handle_compress.71
	movzbl	%al, %eax
	addq	$8, %rsp
	popq	%rbx
	popq	%rbp
	.cfi_def_cfa %rsp, 8
	retq
.LBB9_5:                                # %func_handle_compress.78
	.cfi_def_cfa %rbp, 16
	movq	%rbx, %rdi
	callq	handle_compress.78
	movzbl	%al, %eax
	addq	$8, %rsp
	popq	%rbx
	popq	%rbp
	.cfi_def_cfa %rsp, 8
	retq
.LBB9_6:                                # %func_handle_compress.112
	.cfi_def_cfa %rbp, 16
	movq	%rbx, %rdi
	callq	handle_compress.112
	movzbl	%al, %eax
	addq	$8, %rsp
	popq	%rbx
	popq	%rbp
	.cfi_def_cfa %rsp, 8
	retq
.LBB9_7:                                # %func_handle_compress.121
	.cfi_def_cfa %rbp, 16
	movq	%rbx, %rdi
	callq	handle_compress.121
	movzbl	%al, %eax
	addq	$8, %rsp
	popq	%rbx
	popq	%rbp
	.cfi_def_cfa %rsp, 8
	retq
.LBB9_8:                                # %func_handle_compress.122
	.cfi_def_cfa %rbp, 16
	movq	%rbx, %rdi
	callq	handle_compress.122
	movzbl	%al, %eax
	addq	$8, %rsp
	popq	%rbx
	popq	%rbp
	.cfi_def_cfa %rsp, 8
	retq
.LBB9_9:                                # %func_handle_compress.147
	.cfi_def_cfa %rbp, 16
	movq	%rbx, %rdi
	callq	handle_compress.147
	movzbl	%al, %eax
	addq	$8, %rsp
	popq	%rbx
	popq	%rbp
	.cfi_def_cfa %rsp, 8
	retq
.LBB9_10:                               # %func_handle_compress.154
	.cfi_def_cfa %rbp, 16
	movq	%rbx, %rdi
	callq	handle_compress.154
	movzbl	%al, %eax
	addq	$8, %rsp
	popq	%rbx
	popq	%rbp
	.cfi_def_cfa %rsp, 8
	retq
.LBB9_11:                               # %func_handle_compress.208
	.cfi_def_cfa %rbp, 16
	movq	%rbx, %rdi
	callq	handle_compress.208
	movzbl	%al, %eax
	addq	$8, %rsp
	popq	%rbx
	popq	%rbp
	.cfi_def_cfa %rsp, 8
	retq
.LBB9_12:                               # %func_handle_compress.236
	.cfi_def_cfa %rbp, 16
	movq	%rbx, %rdi
	callq	handle_compress.236
	movzbl	%al, %eax
	addq	$8, %rsp
	popq	%rbx
	popq	%rbp
	.cfi_def_cfa %rsp, 8
	retq
.LBB9_13:                               # %func_handle_compress.272
	.cfi_def_cfa %rbp, 16
	movq	%rbx, %rdi
	callq	handle_compress.272
	movzbl	%al, %eax
	addq	$8, %rsp
	popq	%rbx
	popq	%rbp
	.cfi_def_cfa %rsp, 8
	retq
.LBB9_14:                               # %func_handle_compress.277
	.cfi_def_cfa %rbp, 16
	movq	%rbx, %rdi
	callq	handle_compress.277
	movzbl	%al, %eax
	addq	$8, %rsp
	popq	%rbx
	popq	%rbp
	.cfi_def_cfa %rsp, 8
	retq
.LBB9_15:                               # %func_handle_compress.278
	.cfi_def_cfa %rbp, 16
	movq	%rbx, %rdi
	callq	handle_compress.278
	movzbl	%al, %eax
	addq	$8, %rsp
	popq	%rbx
	popq	%rbp
	.cfi_def_cfa %rsp, 8
	retq
.LBB9_16:                               # %func_handle_compress.294
	.cfi_def_cfa %rbp, 16
	movq	%rbx, %rdi
	callq	handle_compress.294
	movzbl	%al, %eax
	addq	$8, %rsp
	popq	%rbx
	popq	%rbp
	.cfi_def_cfa %rsp, 8
	retq
.LBB9_17:                               # %ctrl0
	.cfi_def_cfa %rbp, 16
	cmpl	$1, %eax
	je	.LBB9_2
# %bb.18:                               # %ctrl1
	cmpl	$2, %eax
	je	.LBB9_3
# %bb.19:                               # %ctrl2
	cmpl	$3, %eax
	je	.LBB9_4
# %bb.20:                               # %ctrl3
	cmpl	$4, %eax
	je	.LBB9_5
# %bb.21:                               # %ctrl4
	cmpl	$5, %eax
	je	.LBB9_6
# %bb.22:                               # %ctrl5
	cmpl	$6, %eax
	je	.LBB9_7
# %bb.23:                               # %ctrl6
	cmpl	$7, %eax
	je	.LBB9_8
# %bb.24:                               # %ctrl7
	cmpl	$8, %eax
	je	.LBB9_9
# %bb.25:                               # %ctrl8
	cmpl	$9, %eax
	je	.LBB9_10
# %bb.26:                               # %ctrl9
	cmpl	$10, %eax
	je	.LBB9_11
# %bb.27:                               # %ctrl10
	cmpl	$11, %eax
	je	.LBB9_12
# %bb.28:                               # %ctrl11
	cmpl	$12, %eax
	je	.LBB9_13
# %bb.29:                               # %ctrl12
	cmpl	$13, %eax
	je	.LBB9_14
# %bb.30:                               # %ctrl13
	cmpl	$14, %eax
	je	.LBB9_15
	jmp	.LBB9_16
.Lfunc_end9:
	.size	handle_compress, .Lfunc_end9-handle_compress
	.cfi_endproc
                                        # -- End function
	.p2align	4, 0x90         # -- Begin function isempty_RL
	.type	isempty_RL,@function
isempty_RL:                             # @isempty_RL
	.cfi_startproc
# %bb.0:                                # %rand_bb
	pushq	%rbp
	.cfi_def_cfa_offset 16
	.cfi_offset %rbp, -16
	movq	%rsp, %rbp
	.cfi_def_cfa_register %rbp
	pushq	%rbx
	pushq	%rax
	.cfi_offset %rbx, -24
	movq	%rdi, %rbx
	callq	get_rand
	cmpl	$0, %eax
	jne	.LBB10_2
# %bb.1:                                # %func_isempty_RL.2
	movq	%rbx, %rdi
	callq	isempty_RL.2
	movzbl	%al, %eax
	addq	$8, %rsp
	popq	%rbx
	popq	%rbp
	.cfi_def_cfa %rsp, 8
	retq
.LBB10_2:                               # %func_isempty_RL.37
	.cfi_def_cfa %rbp, 16
	movq	%rbx, %rdi
	callq	isempty_RL.37
	movzbl	%al, %eax
	addq	$8, %rsp
	popq	%rbx
	popq	%rbp
	.cfi_def_cfa %rsp, 8
	retq
.Lfunc_end10:
	.size	isempty_RL, .Lfunc_end10-isempty_RL
	.cfi_endproc
                                        # -- End function
	.globl	BZ2_bzCompressEnd       # -- Begin function BZ2_bzCompressEnd
	.p2align	4, 0x90
	.type	BZ2_bzCompressEnd,@function
BZ2_bzCompressEnd:                      # @BZ2_bzCompressEnd
	.cfi_startproc
# %bb.0:                                # %rand_bb
	pushq	%rbp
	.cfi_def_cfa_offset 16
	.cfi_offset %rbp, -16
	movq	%rsp, %rbp
	.cfi_def_cfa_register %rbp
	pushq	%rbx
	pushq	%rax
	.cfi_offset %rbx, -24
	movq	%rdi, %rbx
	callq	get_rand
	cmpl	$0, %eax
	jne	.LBB11_7
# %bb.1:                                # %func_BZ2_bzCompressEnd.18
	movq	%rbx, %rdi
	callq	BZ2_bzCompressEnd.18
	addq	$8, %rsp
	popq	%rbx
	popq	%rbp
	.cfi_def_cfa %rsp, 8
	retq
.LBB11_2:                               # %func_BZ2_bzCompressEnd.19
	.cfi_def_cfa %rbp, 16
	movq	%rbx, %rdi
	callq	BZ2_bzCompressEnd.19
	addq	$8, %rsp
	popq	%rbx
	popq	%rbp
	.cfi_def_cfa %rsp, 8
	retq
.LBB11_3:                               # %func_BZ2_bzCompressEnd.101
	.cfi_def_cfa %rbp, 16
	movq	%rbx, %rdi
	callq	BZ2_bzCompressEnd.101
	addq	$8, %rsp
	popq	%rbx
	popq	%rbp
	.cfi_def_cfa %rsp, 8
	retq
.LBB11_4:                               # %func_BZ2_bzCompressEnd.103
	.cfi_def_cfa %rbp, 16
	movq	%rbx, %rdi
	callq	BZ2_bzCompressEnd.103
	addq	$8, %rsp
	popq	%rbx
	popq	%rbp
	.cfi_def_cfa %rsp, 8
	retq
.LBB11_5:                               # %func_BZ2_bzCompressEnd.127
	.cfi_def_cfa %rbp, 16
	movq	%rbx, %rdi
	callq	BZ2_bzCompressEnd.127
	addq	$8, %rsp
	popq	%rbx
	popq	%rbp
	.cfi_def_cfa %rsp, 8
	retq
.LBB11_6:                               # %func_BZ2_bzCompressEnd.153
	.cfi_def_cfa %rbp, 16
	movq	%rbx, %rdi
	callq	BZ2_bzCompressEnd.153
	addq	$8, %rsp
	popq	%rbx
	popq	%rbp
	.cfi_def_cfa %rsp, 8
	retq
.LBB11_7:                               # %ctrl0
	.cfi_def_cfa %rbp, 16
	cmpl	$1, %eax
	je	.LBB11_2
# %bb.8:                                # %ctrl1
	cmpl	$2, %eax
	je	.LBB11_3
# %bb.9:                                # %ctrl2
	cmpl	$3, %eax
	je	.LBB11_4
# %bb.10:                               # %ctrl3
	cmpl	$4, %eax
	je	.LBB11_5
	jmp	.LBB11_6
.Lfunc_end11:
	.size	BZ2_bzCompressEnd, .Lfunc_end11-BZ2_bzCompressEnd
	.cfi_endproc
                                        # -- End function
	.globl	BZ2_bzDecompressInit    # -- Begin function BZ2_bzDecompressInit
	.p2align	4, 0x90
	.type	BZ2_bzDecompressInit,@function
BZ2_bzDecompressInit:                   # @BZ2_bzDecompressInit
	.cfi_startproc
# %bb.0:                                # %rand_bb
	pushq	%rbp
	.cfi_def_cfa_offset 16
	.cfi_offset %rbp, -16
	movq	%rsp, %rbp
	.cfi_def_cfa_register %rbp
	pushq	%r15
	pushq	%r14
	pushq	%rbx
	pushq	%rax
	.cfi_offset %rbx, -40
	.cfi_offset %r14, -32
	.cfi_offset %r15, -24
	movl	%edx, %r14d
	movl	%esi, %r15d
	movq	%rdi, %rbx
	callq	get_rand
	cmpl	$0, %eax
	jne	.LBB12_17
# %bb.1:                                # %func_BZ2_bzDecompressInit.1
	movq	%rbx, %rdi
	movl	%r15d, %esi
	movl	%r14d, %edx
	callq	BZ2_bzDecompressInit.1
	addq	$8, %rsp
	popq	%rbx
	popq	%r14
	popq	%r15
	popq	%rbp
	.cfi_def_cfa %rsp, 8
	retq
.LBB12_2:                               # %func_BZ2_bzDecompressInit.13
	.cfi_def_cfa %rbp, 16
	movq	%rbx, %rdi
	movl	%r15d, %esi
	movl	%r14d, %edx
	callq	BZ2_bzDecompressInit.13
	addq	$8, %rsp
	popq	%rbx
	popq	%r14
	popq	%r15
	popq	%rbp
	.cfi_def_cfa %rsp, 8
	retq
.LBB12_3:                               # %func_BZ2_bzDecompressInit.32
	.cfi_def_cfa %rbp, 16
	movq	%rbx, %rdi
	movl	%r15d, %esi
	movl	%r14d, %edx
	callq	BZ2_bzDecompressInit.32
	addq	$8, %rsp
	popq	%rbx
	popq	%r14
	popq	%r15
	popq	%rbp
	.cfi_def_cfa %rsp, 8
	retq
.LBB12_4:                               # %func_BZ2_bzDecompressInit.39
	.cfi_def_cfa %rbp, 16
	movq	%rbx, %rdi
	movl	%r15d, %esi
	movl	%r14d, %edx
	callq	BZ2_bzDecompressInit.39
	addq	$8, %rsp
	popq	%rbx
	popq	%r14
	popq	%r15
	popq	%rbp
	.cfi_def_cfa %rsp, 8
	retq
.LBB12_5:                               # %func_BZ2_bzDecompressInit.42
	.cfi_def_cfa %rbp, 16
	movq	%rbx, %rdi
	movl	%r15d, %esi
	movl	%r14d, %edx
	callq	BZ2_bzDecompressInit.42
	addq	$8, %rsp
	popq	%rbx
	popq	%r14
	popq	%r15
	popq	%rbp
	.cfi_def_cfa %rsp, 8
	retq
.LBB12_6:                               # %func_BZ2_bzDecompressInit.43
	.cfi_def_cfa %rbp, 16
	movq	%rbx, %rdi
	movl	%r15d, %esi
	movl	%r14d, %edx
	callq	BZ2_bzDecompressInit.43
	addq	$8, %rsp
	popq	%rbx
	popq	%r14
	popq	%r15
	popq	%rbp
	.cfi_def_cfa %rsp, 8
	retq
.LBB12_7:                               # %func_BZ2_bzDecompressInit.53
	.cfi_def_cfa %rbp, 16
	movq	%rbx, %rdi
	movl	%r15d, %esi
	movl	%r14d, %edx
	callq	BZ2_bzDecompressInit.53
	addq	$8, %rsp
	popq	%rbx
	popq	%r14
	popq	%r15
	popq	%rbp
	.cfi_def_cfa %rsp, 8
	retq
.LBB12_8:                               # %func_BZ2_bzDecompressInit.155
	.cfi_def_cfa %rbp, 16
	movq	%rbx, %rdi
	movl	%r15d, %esi
	movl	%r14d, %edx
	callq	BZ2_bzDecompressInit.155
	addq	$8, %rsp
	popq	%rbx
	popq	%r14
	popq	%r15
	popq	%rbp
	.cfi_def_cfa %rsp, 8
	retq
.LBB12_9:                               # %func_BZ2_bzDecompressInit.165
	.cfi_def_cfa %rbp, 16
	movq	%rbx, %rdi
	movl	%r15d, %esi
	movl	%r14d, %edx
	callq	BZ2_bzDecompressInit.165
	addq	$8, %rsp
	popq	%rbx
	popq	%r14
	popq	%r15
	popq	%rbp
	.cfi_def_cfa %rsp, 8
	retq
.LBB12_10:                              # %func_BZ2_bzDecompressInit.192
	.cfi_def_cfa %rbp, 16
	movq	%rbx, %rdi
	movl	%r15d, %esi
	movl	%r14d, %edx
	callq	BZ2_bzDecompressInit.192
	addq	$8, %rsp
	popq	%rbx
	popq	%r14
	popq	%r15
	popq	%rbp
	.cfi_def_cfa %rsp, 8
	retq
.LBB12_11:                              # %func_BZ2_bzDecompressInit.229
	.cfi_def_cfa %rbp, 16
	movq	%rbx, %rdi
	movl	%r15d, %esi
	movl	%r14d, %edx
	callq	BZ2_bzDecompressInit.229
	addq	$8, %rsp
	popq	%rbx
	popq	%r14
	popq	%r15
	popq	%rbp
	.cfi_def_cfa %rsp, 8
	retq
.LBB12_12:                              # %func_BZ2_bzDecompressInit.246
	.cfi_def_cfa %rbp, 16
	movq	%rbx, %rdi
	movl	%r15d, %esi
	movl	%r14d, %edx
	callq	BZ2_bzDecompressInit.246
	addq	$8, %rsp
	popq	%rbx
	popq	%r14
	popq	%r15
	popq	%rbp
	.cfi_def_cfa %rsp, 8
	retq
.LBB12_13:                              # %func_BZ2_bzDecompressInit.268
	.cfi_def_cfa %rbp, 16
	movq	%rbx, %rdi
	movl	%r15d, %esi
	movl	%r14d, %edx
	callq	BZ2_bzDecompressInit.268
	addq	$8, %rsp
	popq	%rbx
	popq	%r14
	popq	%r15
	popq	%rbp
	.cfi_def_cfa %rsp, 8
	retq
.LBB12_14:                              # %func_BZ2_bzDecompressInit.269
	.cfi_def_cfa %rbp, 16
	movq	%rbx, %rdi
	movl	%r15d, %esi
	movl	%r14d, %edx
	callq	BZ2_bzDecompressInit.269
	addq	$8, %rsp
	popq	%rbx
	popq	%r14
	popq	%r15
	popq	%rbp
	.cfi_def_cfa %rsp, 8
	retq
.LBB12_15:                              # %func_BZ2_bzDecompressInit.289
	.cfi_def_cfa %rbp, 16
	movq	%rbx, %rdi
	movl	%r15d, %esi
	movl	%r14d, %edx
	callq	BZ2_bzDecompressInit.289
	addq	$8, %rsp
	popq	%rbx
	popq	%r14
	popq	%r15
	popq	%rbp
	.cfi_def_cfa %rsp, 8
	retq
.LBB12_16:                              # %func_BZ2_bzDecompressInit.312
	.cfi_def_cfa %rbp, 16
	movq	%rbx, %rdi
	movl	%r15d, %esi
	movl	%r14d, %edx
	callq	BZ2_bzDecompressInit.312
	addq	$8, %rsp
	popq	%rbx
	popq	%r14
	popq	%r15
	popq	%rbp
	.cfi_def_cfa %rsp, 8
	retq
.LBB12_17:                              # %ctrl0
	.cfi_def_cfa %rbp, 16
	cmpl	$1, %eax
	je	.LBB12_2
# %bb.18:                               # %ctrl1
	cmpl	$2, %eax
	je	.LBB12_3
# %bb.19:                               # %ctrl2
	cmpl	$3, %eax
	je	.LBB12_4
# %bb.20:                               # %ctrl3
	cmpl	$4, %eax
	je	.LBB12_5
# %bb.21:                               # %ctrl4
	cmpl	$5, %eax
	je	.LBB12_6
# %bb.22:                               # %ctrl5
	cmpl	$6, %eax
	je	.LBB12_7
# %bb.23:                               # %ctrl6
	cmpl	$7, %eax
	je	.LBB12_8
# %bb.24:                               # %ctrl7
	cmpl	$8, %eax
	je	.LBB12_9
# %bb.25:                               # %ctrl8
	cmpl	$9, %eax
	je	.LBB12_10
# %bb.26:                               # %ctrl9
	cmpl	$10, %eax
	je	.LBB12_11
# %bb.27:                               # %ctrl10
	cmpl	$11, %eax
	je	.LBB12_12
# %bb.28:                               # %ctrl11
	cmpl	$12, %eax
	je	.LBB12_13
# %bb.29:                               # %ctrl12
	cmpl	$13, %eax
	je	.LBB12_14
# %bb.30:                               # %ctrl13
	cmpl	$14, %eax
	je	.LBB12_15
	jmp	.LBB12_16
.Lfunc_end12:
	.size	BZ2_bzDecompressInit, .Lfunc_end12-BZ2_bzDecompressInit
	.cfi_endproc
                                        # -- End function
	.globl	BZ2_indexIntoF          # -- Begin function BZ2_indexIntoF
	.p2align	4, 0x90
	.type	BZ2_indexIntoF,@function
BZ2_indexIntoF:                         # @BZ2_indexIntoF
	.cfi_startproc
# %bb.0:                                # %rand_bb
	pushq	%rbp
	.cfi_def_cfa_offset 16
	.cfi_offset %rbp, -16
	movq	%rsp, %rbp
	.cfi_def_cfa_register %rbp
	pushq	%r14
	pushq	%rbx
	.cfi_offset %rbx, -32
	.cfi_offset %r14, -24
	movq	%rsi, %r14
	movl	%edi, %ebx
	callq	get_rand
	cmpl	$0, %eax
	jne	.LBB13_17
# %bb.1:                                # %func_BZ2_indexIntoF.41
	movl	%ebx, %edi
	movq	%r14, %rsi
	callq	BZ2_indexIntoF.41
	popq	%rbx
	popq	%r14
	popq	%rbp
	.cfi_def_cfa %rsp, 8
	retq
.LBB13_2:                               # %func_BZ2_indexIntoF.63
	.cfi_def_cfa %rbp, 16
	movl	%ebx, %edi
	movq	%r14, %rsi
	callq	BZ2_indexIntoF.63
	popq	%rbx
	popq	%r14
	popq	%rbp
	.cfi_def_cfa %rsp, 8
	retq
.LBB13_3:                               # %func_BZ2_indexIntoF.65
	.cfi_def_cfa %rbp, 16
	movl	%ebx, %edi
	movq	%r14, %rsi
	callq	BZ2_indexIntoF.65
	popq	%rbx
	popq	%r14
	popq	%rbp
	.cfi_def_cfa %rsp, 8
	retq
.LBB13_4:                               # %func_BZ2_indexIntoF.87
	.cfi_def_cfa %rbp, 16
	movl	%ebx, %edi
	movq	%r14, %rsi
	callq	BZ2_indexIntoF.87
	popq	%rbx
	popq	%r14
	popq	%rbp
	.cfi_def_cfa %rsp, 8
	retq
.LBB13_5:                               # %func_BZ2_indexIntoF.99
	.cfi_def_cfa %rbp, 16
	movl	%ebx, %edi
	movq	%r14, %rsi
	callq	BZ2_indexIntoF.99
	popq	%rbx
	popq	%r14
	popq	%rbp
	.cfi_def_cfa %rsp, 8
	retq
.LBB13_6:                               # %func_BZ2_indexIntoF.191
	.cfi_def_cfa %rbp, 16
	movl	%ebx, %edi
	movq	%r14, %rsi
	callq	BZ2_indexIntoF.191
	popq	%rbx
	popq	%r14
	popq	%rbp
	.cfi_def_cfa %rsp, 8
	retq
.LBB13_7:                               # %func_BZ2_indexIntoF.253
	.cfi_def_cfa %rbp, 16
	movl	%ebx, %edi
	movq	%r14, %rsi
	callq	BZ2_indexIntoF.253
	popq	%rbx
	popq	%r14
	popq	%rbp
	.cfi_def_cfa %rsp, 8
	retq
.LBB13_8:                               # %func_BZ2_indexIntoF.290
	.cfi_def_cfa %rbp, 16
	movl	%ebx, %edi
	movq	%r14, %rsi
	callq	BZ2_indexIntoF.290
	popq	%rbx
	popq	%r14
	popq	%rbp
	.cfi_def_cfa %rsp, 8
	retq
.LBB13_9:                               # %func_BZ2_indexIntoF.302
	.cfi_def_cfa %rbp, 16
	movl	%ebx, %edi
	movq	%r14, %rsi
	callq	BZ2_indexIntoF.302
	popq	%rbx
	popq	%r14
	popq	%rbp
	.cfi_def_cfa %rsp, 8
	retq
.LBB13_10:                              # %func_BZ2_indexIntoF.305
	.cfi_def_cfa %rbp, 16
	movl	%ebx, %edi
	movq	%r14, %rsi
	callq	BZ2_indexIntoF.305
	popq	%rbx
	popq	%r14
	popq	%rbp
	.cfi_def_cfa %rsp, 8
	retq
.LBB13_11:                              # %func_BZ2_indexIntoF.318
	.cfi_def_cfa %rbp, 16
	movl	%ebx, %edi
	movq	%r14, %rsi
	callq	BZ2_indexIntoF.318
	popq	%rbx
	popq	%r14
	popq	%rbp
	.cfi_def_cfa %rsp, 8
	retq
.LBB13_12:                              # %func_BZ2_indexIntoF.320
	.cfi_def_cfa %rbp, 16
	movl	%ebx, %edi
	movq	%r14, %rsi
	callq	BZ2_indexIntoF.320
	popq	%rbx
	popq	%r14
	popq	%rbp
	.cfi_def_cfa %rsp, 8
	retq
.LBB13_13:                              # %func_BZ2_indexIntoF.325
	.cfi_def_cfa %rbp, 16
	movl	%ebx, %edi
	movq	%r14, %rsi
	callq	BZ2_indexIntoF.325
	popq	%rbx
	popq	%r14
	popq	%rbp
	.cfi_def_cfa %rsp, 8
	retq
.LBB13_14:                              # %func_BZ2_indexIntoF.339
	.cfi_def_cfa %rbp, 16
	movl	%ebx, %edi
	movq	%r14, %rsi
	callq	BZ2_indexIntoF.339
	popq	%rbx
	popq	%r14
	popq	%rbp
	.cfi_def_cfa %rsp, 8
	retq
.LBB13_15:                              # %func_BZ2_indexIntoF.342
	.cfi_def_cfa %rbp, 16
	movl	%ebx, %edi
	movq	%r14, %rsi
	callq	BZ2_indexIntoF.342
	popq	%rbx
	popq	%r14
	popq	%rbp
	.cfi_def_cfa %rsp, 8
	retq
.LBB13_16:                              # %func_BZ2_indexIntoF.366
	.cfi_def_cfa %rbp, 16
	movl	%ebx, %edi
	movq	%r14, %rsi
	callq	BZ2_indexIntoF.366
	popq	%rbx
	popq	%r14
	popq	%rbp
	.cfi_def_cfa %rsp, 8
	retq
.LBB13_17:                              # %ctrl0
	.cfi_def_cfa %rbp, 16
	cmpl	$1, %eax
	je	.LBB13_2
# %bb.18:                               # %ctrl1
	cmpl	$2, %eax
	je	.LBB13_3
# %bb.19:                               # %ctrl2
	cmpl	$3, %eax
	je	.LBB13_4
# %bb.20:                               # %ctrl3
	cmpl	$4, %eax
	je	.LBB13_5
# %bb.21:                               # %ctrl4
	cmpl	$5, %eax
	je	.LBB13_6
# %bb.22:                               # %ctrl5
	cmpl	$6, %eax
	je	.LBB13_7
# %bb.23:                               # %ctrl6
	cmpl	$7, %eax
	je	.LBB13_8
# %bb.24:                               # %ctrl7
	cmpl	$8, %eax
	je	.LBB13_9
# %bb.25:                               # %ctrl8
	cmpl	$9, %eax
	je	.LBB13_10
# %bb.26:                               # %ctrl9
	cmpl	$10, %eax
	je	.LBB13_11
# %bb.27:                               # %ctrl10
	cmpl	$11, %eax
	je	.LBB13_12
# %bb.28:                               # %ctrl11
	cmpl	$12, %eax
	je	.LBB13_13
# %bb.29:                               # %ctrl12
	cmpl	$13, %eax
	je	.LBB13_14
# %bb.30:                               # %ctrl13
	cmpl	$14, %eax
	je	.LBB13_15
	jmp	.LBB13_16
.Lfunc_end13:
	.size	BZ2_indexIntoF, .Lfunc_end13-BZ2_indexIntoF
	.cfi_endproc
                                        # -- End function
	.globl	BZ2_bzDecompress        # -- Begin function BZ2_bzDecompress
	.p2align	4, 0x90
	.type	BZ2_bzDecompress,@function
BZ2_bzDecompress:                       # @BZ2_bzDecompress
	.cfi_startproc
# %bb.0:                                # %rand_bb
	pushq	%rbp
	.cfi_def_cfa_offset 16
	.cfi_offset %rbp, -16
	movq	%rsp, %rbp
	.cfi_def_cfa_register %rbp
	pushq	%rbx
	pushq	%rax
	.cfi_offset %rbx, -24
	movq	%rdi, %rbx
	callq	get_rand
	cmpl	$0, %eax
	jne	.LBB14_17
# %bb.1:                                # %func_BZ2_bzDecompress.3
	movq	%rbx, %rdi
	callq	BZ2_bzDecompress.3
	addq	$8, %rsp
	popq	%rbx
	popq	%rbp
	.cfi_def_cfa %rsp, 8
	retq
.LBB14_2:                               # %func_BZ2_bzDecompress.14
	.cfi_def_cfa %rbp, 16
	movq	%rbx, %rdi
	callq	BZ2_bzDecompress.14
	addq	$8, %rsp
	popq	%rbx
	popq	%rbp
	.cfi_def_cfa %rsp, 8
	retq
.LBB14_3:                               # %func_BZ2_bzDecompress.33
	.cfi_def_cfa %rbp, 16
	movq	%rbx, %rdi
	callq	BZ2_bzDecompress.33
	addq	$8, %rsp
	popq	%rbx
	popq	%rbp
	.cfi_def_cfa %rsp, 8
	retq
.LBB14_4:                               # %func_BZ2_bzDecompress.46
	.cfi_def_cfa %rbp, 16
	movq	%rbx, %rdi
	callq	BZ2_bzDecompress.46
	addq	$8, %rsp
	popq	%rbx
	popq	%rbp
	.cfi_def_cfa %rsp, 8
	retq
.LBB14_5:                               # %func_BZ2_bzDecompress.84
	.cfi_def_cfa %rbp, 16
	movq	%rbx, %rdi
	callq	BZ2_bzDecompress.84
	addq	$8, %rsp
	popq	%rbx
	popq	%rbp
	.cfi_def_cfa %rsp, 8
	retq
.LBB14_6:                               # %func_BZ2_bzDecompress.110
	.cfi_def_cfa %rbp, 16
	movq	%rbx, %rdi
	callq	BZ2_bzDecompress.110
	addq	$8, %rsp
	popq	%rbx
	popq	%rbp
	.cfi_def_cfa %rsp, 8
	retq
.LBB14_7:                               # %func_BZ2_bzDecompress.111
	.cfi_def_cfa %rbp, 16
	movq	%rbx, %rdi
	callq	BZ2_bzDecompress.111
	addq	$8, %rsp
	popq	%rbx
	popq	%rbp
	.cfi_def_cfa %rsp, 8
	retq
.LBB14_8:                               # %func_BZ2_bzDecompress.118
	.cfi_def_cfa %rbp, 16
	movq	%rbx, %rdi
	callq	BZ2_bzDecompress.118
	addq	$8, %rsp
	popq	%rbx
	popq	%rbp
	.cfi_def_cfa %rsp, 8
	retq
.LBB14_9:                               # %func_BZ2_bzDecompress.132
	.cfi_def_cfa %rbp, 16
	movq	%rbx, %rdi
	callq	BZ2_bzDecompress.132
	addq	$8, %rsp
	popq	%rbx
	popq	%rbp
	.cfi_def_cfa %rsp, 8
	retq
.LBB14_10:                              # %func_BZ2_bzDecompress.145
	.cfi_def_cfa %rbp, 16
	movq	%rbx, %rdi
	callq	BZ2_bzDecompress.145
	addq	$8, %rsp
	popq	%rbx
	popq	%rbp
	.cfi_def_cfa %rsp, 8
	retq
.LBB14_11:                              # %func_BZ2_bzDecompress.150
	.cfi_def_cfa %rbp, 16
	movq	%rbx, %rdi
	callq	BZ2_bzDecompress.150
	addq	$8, %rsp
	popq	%rbx
	popq	%rbp
	.cfi_def_cfa %rsp, 8
	retq
.LBB14_12:                              # %func_BZ2_bzDecompress.163
	.cfi_def_cfa %rbp, 16
	movq	%rbx, %rdi
	callq	BZ2_bzDecompress.163
	addq	$8, %rsp
	popq	%rbx
	popq	%rbp
	.cfi_def_cfa %rsp, 8
	retq
.LBB14_13:                              # %func_BZ2_bzDecompress.203
	.cfi_def_cfa %rbp, 16
	movq	%rbx, %rdi
	callq	BZ2_bzDecompress.203
	addq	$8, %rsp
	popq	%rbx
	popq	%rbp
	.cfi_def_cfa %rsp, 8
	retq
.LBB14_14:                              # %func_BZ2_bzDecompress.222
	.cfi_def_cfa %rbp, 16
	movq	%rbx, %rdi
	callq	BZ2_bzDecompress.222
	addq	$8, %rsp
	popq	%rbx
	popq	%rbp
	.cfi_def_cfa %rsp, 8
	retq
.LBB14_15:                              # %func_BZ2_bzDecompress.275
	.cfi_def_cfa %rbp, 16
	movq	%rbx, %rdi
	callq	BZ2_bzDecompress.275
	addq	$8, %rsp
	popq	%rbx
	popq	%rbp
	.cfi_def_cfa %rsp, 8
	retq
.LBB14_16:                              # %func_BZ2_bzDecompress.281
	.cfi_def_cfa %rbp, 16
	movq	%rbx, %rdi
	callq	BZ2_bzDecompress.281
	addq	$8, %rsp
	popq	%rbx
	popq	%rbp
	.cfi_def_cfa %rsp, 8
	retq
.LBB14_17:                              # %ctrl0
	.cfi_def_cfa %rbp, 16
	cmpl	$1, %eax
	je	.LBB14_2
# %bb.18:                               # %ctrl1
	cmpl	$2, %eax
	je	.LBB14_3
# %bb.19:                               # %ctrl2
	cmpl	$3, %eax
	je	.LBB14_4
# %bb.20:                               # %ctrl3
	cmpl	$4, %eax
	je	.LBB14_5
# %bb.21:                               # %ctrl4
	cmpl	$5, %eax
	je	.LBB14_6
# %bb.22:                               # %ctrl5
	cmpl	$6, %eax
	je	.LBB14_7
# %bb.23:                               # %ctrl6
	cmpl	$7, %eax
	je	.LBB14_8
# %bb.24:                               # %ctrl7
	cmpl	$8, %eax
	je	.LBB14_9
# %bb.25:                               # %ctrl8
	cmpl	$9, %eax
	je	.LBB14_10
# %bb.26:                               # %ctrl9
	cmpl	$10, %eax
	je	.LBB14_11
# %bb.27:                               # %ctrl10
	cmpl	$11, %eax
	je	.LBB14_12
# %bb.28:                               # %ctrl11
	cmpl	$12, %eax
	je	.LBB14_13
# %bb.29:                               # %ctrl12
	cmpl	$13, %eax
	je	.LBB14_14
# %bb.30:                               # %ctrl13
	cmpl	$14, %eax
	je	.LBB14_15
	jmp	.LBB14_16
.Lfunc_end14:
	.size	BZ2_bzDecompress, .Lfunc_end14-BZ2_bzDecompress
	.cfi_endproc
                                        # -- End function
	.p2align	4, 0x90         # -- Begin function unRLE_obuf_to_output_SMALL
	.type	unRLE_obuf_to_output_SMALL,@function
unRLE_obuf_to_output_SMALL:             # @unRLE_obuf_to_output_SMALL
	.cfi_startproc
# %bb.0:                                # %rand_bb
	pushq	%rbp
	.cfi_def_cfa_offset 16
	.cfi_offset %rbp, -16
	movq	%rsp, %rbp
	.cfi_def_cfa_register %rbp
	pushq	%rbx
	pushq	%rax
	.cfi_offset %rbx, -24
	movq	%rdi, %rbx
	callq	get_rand
	cmpl	$0, %eax
	jne	.LBB15_7
# %bb.1:                                # %func_unRLE_obuf_to_output_SMALL.23
	movq	%rbx, %rdi
	callq	unRLE_obuf_to_output_SMALL.23
	movzbl	%al, %eax
	addq	$8, %rsp
	popq	%rbx
	popq	%rbp
	.cfi_def_cfa %rsp, 8
	retq
.LBB15_2:                               # %func_unRLE_obuf_to_output_SMALL.66
	.cfi_def_cfa %rbp, 16
	movq	%rbx, %rdi
	callq	unRLE_obuf_to_output_SMALL.66
	movzbl	%al, %eax
	addq	$8, %rsp
	popq	%rbx
	popq	%rbp
	.cfi_def_cfa %rsp, 8
	retq
.LBB15_3:                               # %func_unRLE_obuf_to_output_SMALL.72
	.cfi_def_cfa %rbp, 16
	movq	%rbx, %rdi
	callq	unRLE_obuf_to_output_SMALL.72
	movzbl	%al, %eax
	addq	$8, %rsp
	popq	%rbx
	popq	%rbp
	.cfi_def_cfa %rsp, 8
	retq
.LBB15_4:                               # %func_unRLE_obuf_to_output_SMALL.96
	.cfi_def_cfa %rbp, 16
	movq	%rbx, %rdi
	callq	unRLE_obuf_to_output_SMALL.96
	movzbl	%al, %eax
	addq	$8, %rsp
	popq	%rbx
	popq	%rbp
	.cfi_def_cfa %rsp, 8
	retq
.LBB15_5:                               # %func_unRLE_obuf_to_output_SMALL.143
	.cfi_def_cfa %rbp, 16
	movq	%rbx, %rdi
	callq	unRLE_obuf_to_output_SMALL.143
	movzbl	%al, %eax
	addq	$8, %rsp
	popq	%rbx
	popq	%rbp
	.cfi_def_cfa %rsp, 8
	retq
.LBB15_6:                               # %func_unRLE_obuf_to_output_SMALL.161
	.cfi_def_cfa %rbp, 16
	movq	%rbx, %rdi
	callq	unRLE_obuf_to_output_SMALL.161
	movzbl	%al, %eax
	addq	$8, %rsp
	popq	%rbx
	popq	%rbp
	.cfi_def_cfa %rsp, 8
	retq
.LBB15_7:                               # %ctrl0
	.cfi_def_cfa %rbp, 16
	cmpl	$1, %eax
	je	.LBB15_2
# %bb.8:                                # %ctrl1
	cmpl	$2, %eax
	je	.LBB15_3
# %bb.9:                                # %ctrl2
	cmpl	$3, %eax
	je	.LBB15_4
# %bb.10:                               # %ctrl3
	cmpl	$4, %eax
	je	.LBB15_5
	jmp	.LBB15_6
.Lfunc_end15:
	.size	unRLE_obuf_to_output_SMALL, .Lfunc_end15-unRLE_obuf_to_output_SMALL
	.cfi_endproc
                                        # -- End function
	.p2align	4, 0x90         # -- Begin function unRLE_obuf_to_output_FAST
	.type	unRLE_obuf_to_output_FAST,@function
unRLE_obuf_to_output_FAST:              # @unRLE_obuf_to_output_FAST
	.cfi_startproc
# %bb.0:                                # %rand_bb
	pushq	%rbp
	.cfi_def_cfa_offset 16
	.cfi_offset %rbp, -16
	movq	%rsp, %rbp
	.cfi_def_cfa_register %rbp
	pushq	%rbx
	pushq	%rax
	.cfi_offset %rbx, -24
	movq	%rdi, %rbx
	callq	get_rand
	cmpl	$0, %eax
	jne	.LBB16_17
# %bb.1:                                # %func_unRLE_obuf_to_output_FAST.20
	movq	%rbx, %rdi
	callq	unRLE_obuf_to_output_FAST.20
	movzbl	%al, %eax
	addq	$8, %rsp
	popq	%rbx
	popq	%rbp
	.cfi_def_cfa %rsp, 8
	retq
.LBB16_2:                               # %func_unRLE_obuf_to_output_FAST.144
	.cfi_def_cfa %rbp, 16
	movq	%rbx, %rdi
	callq	unRLE_obuf_to_output_FAST.144
	movzbl	%al, %eax
	addq	$8, %rsp
	popq	%rbx
	popq	%rbp
	.cfi_def_cfa %rsp, 8
	retq
.LBB16_3:                               # %func_unRLE_obuf_to_output_FAST.156
	.cfi_def_cfa %rbp, 16
	movq	%rbx, %rdi
	callq	unRLE_obuf_to_output_FAST.156
	movzbl	%al, %eax
	addq	$8, %rsp
	popq	%rbx
	popq	%rbp
	.cfi_def_cfa %rsp, 8
	retq
.LBB16_4:                               # %func_unRLE_obuf_to_output_FAST.189
	.cfi_def_cfa %rbp, 16
	movq	%rbx, %rdi
	callq	unRLE_obuf_to_output_FAST.189
	movzbl	%al, %eax
	addq	$8, %rsp
	popq	%rbx
	popq	%rbp
	.cfi_def_cfa %rsp, 8
	retq
.LBB16_5:                               # %func_unRLE_obuf_to_output_FAST.190
	.cfi_def_cfa %rbp, 16
	movq	%rbx, %rdi
	callq	unRLE_obuf_to_output_FAST.190
	movzbl	%al, %eax
	addq	$8, %rsp
	popq	%rbx
	popq	%rbp
	.cfi_def_cfa %rsp, 8
	retq
.LBB16_6:                               # %func_unRLE_obuf_to_output_FAST.195
	.cfi_def_cfa %rbp, 16
	movq	%rbx, %rdi
	callq	unRLE_obuf_to_output_FAST.195
	movzbl	%al, %eax
	addq	$8, %rsp
	popq	%rbx
	popq	%rbp
	.cfi_def_cfa %rsp, 8
	retq
.LBB16_7:                               # %func_unRLE_obuf_to_output_FAST.210
	.cfi_def_cfa %rbp, 16
	movq	%rbx, %rdi
	callq	unRLE_obuf_to_output_FAST.210
	movzbl	%al, %eax
	addq	$8, %rsp
	popq	%rbx
	popq	%rbp
	.cfi_def_cfa %rsp, 8
	retq
.LBB16_8:                               # %func_unRLE_obuf_to_output_FAST.215
	.cfi_def_cfa %rbp, 16
	movq	%rbx, %rdi
	callq	unRLE_obuf_to_output_FAST.215
	movzbl	%al, %eax
	addq	$8, %rsp
	popq	%rbx
	popq	%rbp
	.cfi_def_cfa %rsp, 8
	retq
.LBB16_9:                               # %func_unRLE_obuf_to_output_FAST.231
	.cfi_def_cfa %rbp, 16
	movq	%rbx, %rdi
	callq	unRLE_obuf_to_output_FAST.231
	movzbl	%al, %eax
	addq	$8, %rsp
	popq	%rbx
	popq	%rbp
	.cfi_def_cfa %rsp, 8
	retq
.LBB16_10:                              # %func_unRLE_obuf_to_output_FAST.295
	.cfi_def_cfa %rbp, 16
	movq	%rbx, %rdi
	callq	unRLE_obuf_to_output_FAST.295
	movzbl	%al, %eax
	addq	$8, %rsp
	popq	%rbx
	popq	%rbp
	.cfi_def_cfa %rsp, 8
	retq
.LBB16_11:                              # %func_unRLE_obuf_to_output_FAST.301
	.cfi_def_cfa %rbp, 16
	movq	%rbx, %rdi
	callq	unRLE_obuf_to_output_FAST.301
	movzbl	%al, %eax
	addq	$8, %rsp
	popq	%rbx
	popq	%rbp
	.cfi_def_cfa %rsp, 8
	retq
.LBB16_12:                              # %func_unRLE_obuf_to_output_FAST.329
	.cfi_def_cfa %rbp, 16
	movq	%rbx, %rdi
	callq	unRLE_obuf_to_output_FAST.329
	movzbl	%al, %eax
	addq	$8, %rsp
	popq	%rbx
	popq	%rbp
	.cfi_def_cfa %rsp, 8
	retq
.LBB16_13:                              # %func_unRLE_obuf_to_output_FAST.331
	.cfi_def_cfa %rbp, 16
	movq	%rbx, %rdi
	callq	unRLE_obuf_to_output_FAST.331
	movzbl	%al, %eax
	addq	$8, %rsp
	popq	%rbx
	popq	%rbp
	.cfi_def_cfa %rsp, 8
	retq
.LBB16_14:                              # %func_unRLE_obuf_to_output_FAST.344
	.cfi_def_cfa %rbp, 16
	movq	%rbx, %rdi
	callq	unRLE_obuf_to_output_FAST.344
	movzbl	%al, %eax
	addq	$8, %rsp
	popq	%rbx
	popq	%rbp
	.cfi_def_cfa %rsp, 8
	retq
.LBB16_15:                              # %func_unRLE_obuf_to_output_FAST.360
	.cfi_def_cfa %rbp, 16
	movq	%rbx, %rdi
	callq	unRLE_obuf_to_output_FAST.360
	movzbl	%al, %eax
	addq	$8, %rsp
	popq	%rbx
	popq	%rbp
	.cfi_def_cfa %rsp, 8
	retq
.LBB16_16:                              # %func_unRLE_obuf_to_output_FAST.364
	.cfi_def_cfa %rbp, 16
	movq	%rbx, %rdi
	callq	unRLE_obuf_to_output_FAST.364
	movzbl	%al, %eax
	addq	$8, %rsp
	popq	%rbx
	popq	%rbp
	.cfi_def_cfa %rsp, 8
	retq
.LBB16_17:                              # %ctrl0
	.cfi_def_cfa %rbp, 16
	cmpl	$1, %eax
	je	.LBB16_2
# %bb.18:                               # %ctrl1
	cmpl	$2, %eax
	je	.LBB16_3
# %bb.19:                               # %ctrl2
	cmpl	$3, %eax
	je	.LBB16_4
# %bb.20:                               # %ctrl3
	cmpl	$4, %eax
	je	.LBB16_5
# %bb.21:                               # %ctrl4
	cmpl	$5, %eax
	je	.LBB16_6
# %bb.22:                               # %ctrl5
	cmpl	$6, %eax
	je	.LBB16_7
# %bb.23:                               # %ctrl6
	cmpl	$7, %eax
	je	.LBB16_8
# %bb.24:                               # %ctrl7
	cmpl	$8, %eax
	je	.LBB16_9
# %bb.25:                               # %ctrl8
	cmpl	$9, %eax
	je	.LBB16_10
# %bb.26:                               # %ctrl9
	cmpl	$10, %eax
	je	.LBB16_11
# %bb.27:                               # %ctrl10
	cmpl	$11, %eax
	je	.LBB16_12
# %bb.28:                               # %ctrl11
	cmpl	$12, %eax
	je	.LBB16_13
# %bb.29:                               # %ctrl12
	cmpl	$13, %eax
	je	.LBB16_14
# %bb.30:                               # %ctrl13
	cmpl	$14, %eax
	je	.LBB16_15
	jmp	.LBB16_16
.Lfunc_end16:
	.size	unRLE_obuf_to_output_FAST, .Lfunc_end16-unRLE_obuf_to_output_FAST
	.cfi_endproc
                                        # -- End function
	.globl	BZ2_bzDecompressEnd     # -- Begin function BZ2_bzDecompressEnd
	.p2align	4, 0x90
	.type	BZ2_bzDecompressEnd,@function
BZ2_bzDecompressEnd:                    # @BZ2_bzDecompressEnd
	.cfi_startproc
# %bb.0:                                # %rand_bb
	pushq	%rbp
	.cfi_def_cfa_offset 16
	.cfi_offset %rbp, -16
	movq	%rsp, %rbp
	.cfi_def_cfa_register %rbp
	pushq	%rbx
	pushq	%rax
	.cfi_offset %rbx, -24
	movq	%rdi, %rbx
	callq	get_rand
	cmpl	$0, %eax
	jne	.LBB17_7
# %bb.1:                                # %func_BZ2_bzDecompressEnd.8
	movq	%rbx, %rdi
	callq	BZ2_bzDecompressEnd.8
	addq	$8, %rsp
	popq	%rbx
	popq	%rbp
	.cfi_def_cfa %rsp, 8
	retq
.LBB17_2:                               # %func_BZ2_bzDecompressEnd.83
	.cfi_def_cfa %rbp, 16
	movq	%rbx, %rdi
	callq	BZ2_bzDecompressEnd.83
	addq	$8, %rsp
	popq	%rbx
	popq	%rbp
	.cfi_def_cfa %rsp, 8
	retq
.LBB17_3:                               # %func_BZ2_bzDecompressEnd.123
	.cfi_def_cfa %rbp, 16
	movq	%rbx, %rdi
	callq	BZ2_bzDecompressEnd.123
	addq	$8, %rsp
	popq	%rbx
	popq	%rbp
	.cfi_def_cfa %rsp, 8
	retq
.LBB17_4:                               # %func_BZ2_bzDecompressEnd.139
	.cfi_def_cfa %rbp, 16
	movq	%rbx, %rdi
	callq	BZ2_bzDecompressEnd.139
	addq	$8, %rsp
	popq	%rbx
	popq	%rbp
	.cfi_def_cfa %rsp, 8
	retq
.LBB17_5:                               # %func_BZ2_bzDecompressEnd.140
	.cfi_def_cfa %rbp, 16
	movq	%rbx, %rdi
	callq	BZ2_bzDecompressEnd.140
	addq	$8, %rsp
	popq	%rbx
	popq	%rbp
	.cfi_def_cfa %rsp, 8
	retq
.LBB17_6:                               # %func_BZ2_bzDecompressEnd.199
	.cfi_def_cfa %rbp, 16
	movq	%rbx, %rdi
	callq	BZ2_bzDecompressEnd.199
	addq	$8, %rsp
	popq	%rbx
	popq	%rbp
	.cfi_def_cfa %rsp, 8
	retq
.LBB17_7:                               # %ctrl0
	.cfi_def_cfa %rbp, 16
	cmpl	$1, %eax
	je	.LBB17_2
# %bb.8:                                # %ctrl1
	cmpl	$2, %eax
	je	.LBB17_3
# %bb.9:                                # %ctrl2
	cmpl	$3, %eax
	je	.LBB17_4
# %bb.10:                               # %ctrl3
	cmpl	$4, %eax
	je	.LBB17_5
	jmp	.LBB17_6
.Lfunc_end17:
	.size	BZ2_bzDecompressEnd, .Lfunc_end17-BZ2_bzDecompressEnd
	.cfi_endproc
                                        # -- End function
	.globl	BZ2_bzWriteOpen         # -- Begin function BZ2_bzWriteOpen
	.p2align	4, 0x90
	.type	BZ2_bzWriteOpen,@function
BZ2_bzWriteOpen:                        # @BZ2_bzWriteOpen
	.cfi_startproc
# %bb.0:                                # %rand_bb
	pushq	%rbp
	.cfi_def_cfa_offset 16
	.cfi_offset %rbp, -16
	movq	%rsp, %rbp
	.cfi_def_cfa_register %rbp
	pushq	%r15
	pushq	%r14
	pushq	%r13
	pushq	%r12
	pushq	%rbx
	pushq	%rax
	.cfi_offset %rbx, -56
	.cfi_offset %r12, -48
	.cfi_offset %r13, -40
	.cfi_offset %r14, -32
	.cfi_offset %r15, -24
	movl	%r8d, %r14d
	movl	%ecx, %r15d
	movl	%edx, %r12d
	movq	%rsi, %r13
	movq	%rdi, %rbx
	callq	get_rand
	cmpl	$0, %eax
	jne	.LBB18_17
# %bb.1:                                # %func_BZ2_bzWriteOpen.11
	movq	%rbx, %rdi
	movq	%r13, %rsi
	movl	%r12d, %edx
	movl	%r15d, %ecx
	movl	%r14d, %r8d
	callq	BZ2_bzWriteOpen.11
	addq	$8, %rsp
	popq	%rbx
	popq	%r12
	popq	%r13
	popq	%r14
	popq	%r15
	popq	%rbp
	.cfi_def_cfa %rsp, 8
	retq
.LBB18_2:                               # %func_BZ2_bzWriteOpen.58
	.cfi_def_cfa %rbp, 16
	movq	%rbx, %rdi
	movq	%r13, %rsi
	movl	%r12d, %edx
	movl	%r15d, %ecx
	movl	%r14d, %r8d
	callq	BZ2_bzWriteOpen.58
	addq	$8, %rsp
	popq	%rbx
	popq	%r12
	popq	%r13
	popq	%r14
	popq	%r15
	popq	%rbp
	.cfi_def_cfa %rsp, 8
	retq
.LBB18_3:                               # %func_BZ2_bzWriteOpen.102
	.cfi_def_cfa %rbp, 16
	movq	%rbx, %rdi
	movq	%r13, %rsi
	movl	%r12d, %edx
	movl	%r15d, %ecx
	movl	%r14d, %r8d
	callq	BZ2_bzWriteOpen.102
	addq	$8, %rsp
	popq	%rbx
	popq	%r12
	popq	%r13
	popq	%r14
	popq	%r15
	popq	%rbp
	.cfi_def_cfa %rsp, 8
	retq
.LBB18_4:                               # %func_BZ2_bzWriteOpen.141
	.cfi_def_cfa %rbp, 16
	movq	%rbx, %rdi
	movq	%r13, %rsi
	movl	%r12d, %edx
	movl	%r15d, %ecx
	movl	%r14d, %r8d
	callq	BZ2_bzWriteOpen.141
	addq	$8, %rsp
	popq	%rbx
	popq	%r12
	popq	%r13
	popq	%r14
	popq	%r15
	popq	%rbp
	.cfi_def_cfa %rsp, 8
	retq
.LBB18_5:                               # %func_BZ2_bzWriteOpen.159
	.cfi_def_cfa %rbp, 16
	movq	%rbx, %rdi
	movq	%r13, %rsi
	movl	%r12d, %edx
	movl	%r15d, %ecx
	movl	%r14d, %r8d
	callq	BZ2_bzWriteOpen.159
	addq	$8, %rsp
	popq	%rbx
	popq	%r12
	popq	%r13
	popq	%r14
	popq	%r15
	popq	%rbp
	.cfi_def_cfa %rsp, 8
	retq
.LBB18_6:                               # %func_BZ2_bzWriteOpen.181
	.cfi_def_cfa %rbp, 16
	movq	%rbx, %rdi
	movq	%r13, %rsi
	movl	%r12d, %edx
	movl	%r15d, %ecx
	movl	%r14d, %r8d
	callq	BZ2_bzWriteOpen.181
	addq	$8, %rsp
	popq	%rbx
	popq	%r12
	popq	%r13
	popq	%r14
	popq	%r15
	popq	%rbp
	.cfi_def_cfa %rsp, 8
	retq
.LBB18_7:                               # %func_BZ2_bzWriteOpen.209
	.cfi_def_cfa %rbp, 16
	movq	%rbx, %rdi
	movq	%r13, %rsi
	movl	%r12d, %edx
	movl	%r15d, %ecx
	movl	%r14d, %r8d
	callq	BZ2_bzWriteOpen.209
	addq	$8, %rsp
	popq	%rbx
	popq	%r12
	popq	%r13
	popq	%r14
	popq	%r15
	popq	%rbp
	.cfi_def_cfa %rsp, 8
	retq
.LBB18_8:                               # %func_BZ2_bzWriteOpen.225
	.cfi_def_cfa %rbp, 16
	movq	%rbx, %rdi
	movq	%r13, %rsi
	movl	%r12d, %edx
	movl	%r15d, %ecx
	movl	%r14d, %r8d
	callq	BZ2_bzWriteOpen.225
	addq	$8, %rsp
	popq	%rbx
	popq	%r12
	popq	%r13
	popq	%r14
	popq	%r15
	popq	%rbp
	.cfi_def_cfa %rsp, 8
	retq
.LBB18_9:                               # %func_BZ2_bzWriteOpen.247
	.cfi_def_cfa %rbp, 16
	movq	%rbx, %rdi
	movq	%r13, %rsi
	movl	%r12d, %edx
	movl	%r15d, %ecx
	movl	%r14d, %r8d
	callq	BZ2_bzWriteOpen.247
	addq	$8, %rsp
	popq	%rbx
	popq	%r12
	popq	%r13
	popq	%r14
	popq	%r15
	popq	%rbp
	.cfi_def_cfa %rsp, 8
	retq
.LBB18_10:                              # %func_BZ2_bzWriteOpen.248
	.cfi_def_cfa %rbp, 16
	movq	%rbx, %rdi
	movq	%r13, %rsi
	movl	%r12d, %edx
	movl	%r15d, %ecx
	movl	%r14d, %r8d
	callq	BZ2_bzWriteOpen.248
	addq	$8, %rsp
	popq	%rbx
	popq	%r12
	popq	%r13
	popq	%r14
	popq	%r15
	popq	%rbp
	.cfi_def_cfa %rsp, 8
	retq
.LBB18_11:                              # %func_BZ2_bzWriteOpen.257
	.cfi_def_cfa %rbp, 16
	movq	%rbx, %rdi
	movq	%r13, %rsi
	movl	%r12d, %edx
	movl	%r15d, %ecx
	movl	%r14d, %r8d
	callq	BZ2_bzWriteOpen.257
	addq	$8, %rsp
	popq	%rbx
	popq	%r12
	popq	%r13
	popq	%r14
	popq	%r15
	popq	%rbp
	.cfi_def_cfa %rsp, 8
	retq
.LBB18_12:                              # %func_BZ2_bzWriteOpen.279
	.cfi_def_cfa %rbp, 16
	movq	%rbx, %rdi
	movq	%r13, %rsi
	movl	%r12d, %edx
	movl	%r15d, %ecx
	movl	%r14d, %r8d
	callq	BZ2_bzWriteOpen.279
	addq	$8, %rsp
	popq	%rbx
	popq	%r12
	popq	%r13
	popq	%r14
	popq	%r15
	popq	%rbp
	.cfi_def_cfa %rsp, 8
	retq
.LBB18_13:                              # %func_BZ2_bzWriteOpen.322
	.cfi_def_cfa %rbp, 16
	movq	%rbx, %rdi
	movq	%r13, %rsi
	movl	%r12d, %edx
	movl	%r15d, %ecx
	movl	%r14d, %r8d
	callq	BZ2_bzWriteOpen.322
	addq	$8, %rsp
	popq	%rbx
	popq	%r12
	popq	%r13
	popq	%r14
	popq	%r15
	popq	%rbp
	.cfi_def_cfa %rsp, 8
	retq
.LBB18_14:                              # %func_BZ2_bzWriteOpen.336
	.cfi_def_cfa %rbp, 16
	movq	%rbx, %rdi
	movq	%r13, %rsi
	movl	%r12d, %edx
	movl	%r15d, %ecx
	movl	%r14d, %r8d
	callq	BZ2_bzWriteOpen.336
	addq	$8, %rsp
	popq	%rbx
	popq	%r12
	popq	%r13
	popq	%r14
	popq	%r15
	popq	%rbp
	.cfi_def_cfa %rsp, 8
	retq
.LBB18_15:                              # %func_BZ2_bzWriteOpen.340
	.cfi_def_cfa %rbp, 16
	movq	%rbx, %rdi
	movq	%r13, %rsi
	movl	%r12d, %edx
	movl	%r15d, %ecx
	movl	%r14d, %r8d
	callq	BZ2_bzWriteOpen.340
	addq	$8, %rsp
	popq	%rbx
	popq	%r12
	popq	%r13
	popq	%r14
	popq	%r15
	popq	%rbp
	.cfi_def_cfa %rsp, 8
	retq
.LBB18_16:                              # %func_BZ2_bzWriteOpen.350
	.cfi_def_cfa %rbp, 16
	movq	%rbx, %rdi
	movq	%r13, %rsi
	movl	%r12d, %edx
	movl	%r15d, %ecx
	movl	%r14d, %r8d
	callq	BZ2_bzWriteOpen.350
	addq	$8, %rsp
	popq	%rbx
	popq	%r12
	popq	%r13
	popq	%r14
	popq	%r15
	popq	%rbp
	.cfi_def_cfa %rsp, 8
	retq
.LBB18_17:                              # %ctrl0
	.cfi_def_cfa %rbp, 16
	cmpl	$1, %eax
	je	.LBB18_2
# %bb.18:                               # %ctrl1
	cmpl	$2, %eax
	je	.LBB18_3
# %bb.19:                               # %ctrl2
	cmpl	$3, %eax
	je	.LBB18_4
# %bb.20:                               # %ctrl3
	cmpl	$4, %eax
	je	.LBB18_5
# %bb.21:                               # %ctrl4
	cmpl	$5, %eax
	je	.LBB18_6
# %bb.22:                               # %ctrl5
	cmpl	$6, %eax
	je	.LBB18_7
# %bb.23:                               # %ctrl6
	cmpl	$7, %eax
	je	.LBB18_8
# %bb.24:                               # %ctrl7
	cmpl	$8, %eax
	je	.LBB18_9
# %bb.25:                               # %ctrl8
	cmpl	$9, %eax
	je	.LBB18_10
# %bb.26:                               # %ctrl9
	cmpl	$10, %eax
	je	.LBB18_11
# %bb.27:                               # %ctrl10
	cmpl	$11, %eax
	je	.LBB18_12
# %bb.28:                               # %ctrl11
	cmpl	$12, %eax
	je	.LBB18_13
# %bb.29:                               # %ctrl12
	cmpl	$13, %eax
	je	.LBB18_14
# %bb.30:                               # %ctrl13
	cmpl	$14, %eax
	je	.LBB18_15
	jmp	.LBB18_16
.Lfunc_end18:
	.size	BZ2_bzWriteOpen, .Lfunc_end18-BZ2_bzWriteOpen
	.cfi_endproc
                                        # -- End function
	.globl	BZ2_bzWrite             # -- Begin function BZ2_bzWrite
	.p2align	4, 0x90
	.type	BZ2_bzWrite,@function
BZ2_bzWrite:                            # @BZ2_bzWrite
	.cfi_startproc
# %bb.0:                                # %rand_bb
	pushq	%rbp
	.cfi_def_cfa_offset 16
	.cfi_offset %rbp, -16
	movq	%rsp, %rbp
	.cfi_def_cfa_register %rbp
	pushq	%r15
	pushq	%r14
	pushq	%r12
	pushq	%rbx
	.cfi_offset %rbx, -48
	.cfi_offset %r12, -40
	.cfi_offset %r14, -32
	.cfi_offset %r15, -24
	movl	%ecx, %r14d
	movq	%rdx, %r15
	movq	%rsi, %r12
	movq	%rdi, %rbx
	callq	get_rand
	cmpl	$0, %eax
	jne	.LBB19_17
# %bb.1:                                # %func_BZ2_bzWrite.6
	movq	%rbx, %rdi
	movq	%r12, %rsi
	movq	%r15, %rdx
	movl	%r14d, %ecx
	callq	BZ2_bzWrite.6
	popq	%rbx
	popq	%r12
	popq	%r14
	popq	%r15
	popq	%rbp
	.cfi_def_cfa %rsp, 8
	retq
.LBB19_2:                               # %func_BZ2_bzWrite.98
	.cfi_def_cfa %rbp, 16
	movq	%rbx, %rdi
	movq	%r12, %rsi
	movq	%r15, %rdx
	movl	%r14d, %ecx
	callq	BZ2_bzWrite.98
	popq	%rbx
	popq	%r12
	popq	%r14
	popq	%r15
	popq	%rbp
	.cfi_def_cfa %rsp, 8
	retq
.LBB19_3:                               # %func_BZ2_bzWrite.158
	.cfi_def_cfa %rbp, 16
	movq	%rbx, %rdi
	movq	%r12, %rsi
	movq	%r15, %rdx
	movl	%r14d, %ecx
	callq	BZ2_bzWrite.158
	popq	%rbx
	popq	%r12
	popq	%r14
	popq	%r15
	popq	%rbp
	.cfi_def_cfa %rsp, 8
	retq
.LBB19_4:                               # %func_BZ2_bzWrite.169
	.cfi_def_cfa %rbp, 16
	movq	%rbx, %rdi
	movq	%r12, %rsi
	movq	%r15, %rdx
	movl	%r14d, %ecx
	callq	BZ2_bzWrite.169
	popq	%rbx
	popq	%r12
	popq	%r14
	popq	%r15
	popq	%rbp
	.cfi_def_cfa %rsp, 8
	retq
.LBB19_5:                               # %func_BZ2_bzWrite.173
	.cfi_def_cfa %rbp, 16
	movq	%rbx, %rdi
	movq	%r12, %rsi
	movq	%r15, %rdx
	movl	%r14d, %ecx
	callq	BZ2_bzWrite.173
	popq	%rbx
	popq	%r12
	popq	%r14
	popq	%r15
	popq	%rbp
	.cfi_def_cfa %rsp, 8
	retq
.LBB19_6:                               # %func_BZ2_bzWrite.238
	.cfi_def_cfa %rbp, 16
	movq	%rbx, %rdi
	movq	%r12, %rsi
	movq	%r15, %rdx
	movl	%r14d, %ecx
	callq	BZ2_bzWrite.238
	popq	%rbx
	popq	%r12
	popq	%r14
	popq	%r15
	popq	%rbp
	.cfi_def_cfa %rsp, 8
	retq
.LBB19_7:                               # %func_BZ2_bzWrite.266
	.cfi_def_cfa %rbp, 16
	movq	%rbx, %rdi
	movq	%r12, %rsi
	movq	%r15, %rdx
	movl	%r14d, %ecx
	callq	BZ2_bzWrite.266
	popq	%rbx
	popq	%r12
	popq	%r14
	popq	%r15
	popq	%rbp
	.cfi_def_cfa %rsp, 8
	retq
.LBB19_8:                               # %func_BZ2_bzWrite.343
	.cfi_def_cfa %rbp, 16
	movq	%rbx, %rdi
	movq	%r12, %rsi
	movq	%r15, %rdx
	movl	%r14d, %ecx
	callq	BZ2_bzWrite.343
	popq	%rbx
	popq	%r12
	popq	%r14
	popq	%r15
	popq	%rbp
	.cfi_def_cfa %rsp, 8
	retq
.LBB19_9:                               # %func_BZ2_bzWrite.358
	.cfi_def_cfa %rbp, 16
	movq	%rbx, %rdi
	movq	%r12, %rsi
	movq	%r15, %rdx
	movl	%r14d, %ecx
	callq	BZ2_bzWrite.358
	popq	%rbx
	popq	%r12
	popq	%r14
	popq	%r15
	popq	%rbp
	.cfi_def_cfa %rsp, 8
	retq
.LBB19_10:                              # %func_BZ2_bzWrite.371
	.cfi_def_cfa %rbp, 16
	movq	%rbx, %rdi
	movq	%r12, %rsi
	movq	%r15, %rdx
	movl	%r14d, %ecx
	callq	BZ2_bzWrite.371
	popq	%rbx
	popq	%r12
	popq	%r14
	popq	%r15
	popq	%rbp
	.cfi_def_cfa %rsp, 8
	retq
.LBB19_11:                              # %func_BZ2_bzWrite.376
	.cfi_def_cfa %rbp, 16
	movq	%rbx, %rdi
	movq	%r12, %rsi
	movq	%r15, %rdx
	movl	%r14d, %ecx
	callq	BZ2_bzWrite.376
	popq	%rbx
	popq	%r12
	popq	%r14
	popq	%r15
	popq	%rbp
	.cfi_def_cfa %rsp, 8
	retq
.LBB19_12:                              # %func_BZ2_bzWrite.392
	.cfi_def_cfa %rbp, 16
	movq	%rbx, %rdi
	movq	%r12, %rsi
	movq	%r15, %rdx
	movl	%r14d, %ecx
	callq	BZ2_bzWrite.392
	popq	%rbx
	popq	%r12
	popq	%r14
	popq	%r15
	popq	%rbp
	.cfi_def_cfa %rsp, 8
	retq
.LBB19_13:                              # %func_BZ2_bzWrite.393
	.cfi_def_cfa %rbp, 16
	movq	%rbx, %rdi
	movq	%r12, %rsi
	movq	%r15, %rdx
	movl	%r14d, %ecx
	callq	BZ2_bzWrite.393
	popq	%rbx
	popq	%r12
	popq	%r14
	popq	%r15
	popq	%rbp
	.cfi_def_cfa %rsp, 8
	retq
.LBB19_14:                              # %func_BZ2_bzWrite.394
	.cfi_def_cfa %rbp, 16
	movq	%rbx, %rdi
	movq	%r12, %rsi
	movq	%r15, %rdx
	movl	%r14d, %ecx
	callq	BZ2_bzWrite.394
	popq	%rbx
	popq	%r12
	popq	%r14
	popq	%r15
	popq	%rbp
	.cfi_def_cfa %rsp, 8
	retq
.LBB19_15:                              # %func_BZ2_bzWrite.395
	.cfi_def_cfa %rbp, 16
	movq	%rbx, %rdi
	movq	%r12, %rsi
	movq	%r15, %rdx
	movl	%r14d, %ecx
	callq	BZ2_bzWrite.395
	popq	%rbx
	popq	%r12
	popq	%r14
	popq	%r15
	popq	%rbp
	.cfi_def_cfa %rsp, 8
	retq
.LBB19_16:                              # %func_BZ2_bzWrite.396
	.cfi_def_cfa %rbp, 16
	movq	%rbx, %rdi
	movq	%r12, %rsi
	movq	%r15, %rdx
	movl	%r14d, %ecx
	callq	BZ2_bzWrite.396
	popq	%rbx
	popq	%r12
	popq	%r14
	popq	%r15
	popq	%rbp
	.cfi_def_cfa %rsp, 8
	retq
.LBB19_17:                              # %ctrl0
	.cfi_def_cfa %rbp, 16
	cmpl	$1, %eax
	je	.LBB19_2
# %bb.18:                               # %ctrl1
	cmpl	$2, %eax
	je	.LBB19_3
# %bb.19:                               # %ctrl2
	cmpl	$3, %eax
	je	.LBB19_4
# %bb.20:                               # %ctrl3
	cmpl	$4, %eax
	je	.LBB19_5
# %bb.21:                               # %ctrl4
	cmpl	$5, %eax
	je	.LBB19_6
# %bb.22:                               # %ctrl5
	cmpl	$6, %eax
	je	.LBB19_7
# %bb.23:                               # %ctrl6
	cmpl	$7, %eax
	je	.LBB19_8
# %bb.24:                               # %ctrl7
	cmpl	$8, %eax
	je	.LBB19_9
# %bb.25:                               # %ctrl8
	cmpl	$9, %eax
	je	.LBB19_10
# %bb.26:                               # %ctrl9
	cmpl	$10, %eax
	je	.LBB19_11
# %bb.27:                               # %ctrl10
	cmpl	$11, %eax
	je	.LBB19_12
# %bb.28:                               # %ctrl11
	cmpl	$12, %eax
	je	.LBB19_13
# %bb.29:                               # %ctrl12
	cmpl	$13, %eax
	je	.LBB19_14
# %bb.30:                               # %ctrl13
	cmpl	$14, %eax
	je	.LBB19_15
	jmp	.LBB19_16
.Lfunc_end19:
	.size	BZ2_bzWrite, .Lfunc_end19-BZ2_bzWrite
	.cfi_endproc
                                        # -- End function
	.globl	BZ2_bzWriteClose        # -- Begin function BZ2_bzWriteClose
	.p2align	4, 0x90
	.type	BZ2_bzWriteClose,@function
BZ2_bzWriteClose:                       # @BZ2_bzWriteClose
	.cfi_startproc
# %bb.0:                                # %rand_bb
	pushq	%rbp
	.cfi_def_cfa_offset 16
	.cfi_offset %rbp, -16
	movq	%rsp, %rbp
	.cfi_def_cfa_register %rbp
	pushq	%r15
	pushq	%r14
	pushq	%r13
	pushq	%r12
	pushq	%rbx
	pushq	%rax
	.cfi_offset %rbx, -56
	.cfi_offset %r12, -48
	.cfi_offset %r13, -40
	.cfi_offset %r14, -32
	.cfi_offset %r15, -24
	movq	%r8, %r14
	movq	%rcx, %r15
	movl	%edx, %r12d
	movq	%rsi, %r13
	movq	%rdi, %rbx
	callq	get_rand
	cmpl	$0, %eax
	jne	.LBB20_17
# %bb.1:                                # %func_BZ2_bzWriteClose.10
	movq	%rbx, %rdi
	movq	%r13, %rsi
	movl	%r12d, %edx
	movq	%r15, %rcx
	movq	%r14, %r8
	callq	BZ2_bzWriteClose.10
	addq	$8, %rsp
	popq	%rbx
	popq	%r12
	popq	%r13
	popq	%r14
	popq	%r15
	popq	%rbp
	.cfi_def_cfa %rsp, 8
	retq
.LBB20_2:                               # %func_BZ2_bzWriteClose.56
	.cfi_def_cfa %rbp, 16
	movq	%rbx, %rdi
	movq	%r13, %rsi
	movl	%r12d, %edx
	movq	%r15, %rcx
	movq	%r14, %r8
	callq	BZ2_bzWriteClose.56
	addq	$8, %rsp
	popq	%rbx
	popq	%r12
	popq	%r13
	popq	%r14
	popq	%r15
	popq	%rbp
	.cfi_def_cfa %rsp, 8
	retq
.LBB20_3:                               # %func_BZ2_bzWriteClose.68
	.cfi_def_cfa %rbp, 16
	movq	%rbx, %rdi
	movq	%r13, %rsi
	movl	%r12d, %edx
	movq	%r15, %rcx
	movq	%r14, %r8
	callq	BZ2_bzWriteClose.68
	addq	$8, %rsp
	popq	%rbx
	popq	%r12
	popq	%r13
	popq	%r14
	popq	%r15
	popq	%rbp
	.cfi_def_cfa %rsp, 8
	retq
.LBB20_4:                               # %func_BZ2_bzWriteClose.82
	.cfi_def_cfa %rbp, 16
	movq	%rbx, %rdi
	movq	%r13, %rsi
	movl	%r12d, %edx
	movq	%r15, %rcx
	movq	%r14, %r8
	callq	BZ2_bzWriteClose.82
	addq	$8, %rsp
	popq	%rbx
	popq	%r12
	popq	%r13
	popq	%r14
	popq	%r15
	popq	%rbp
	.cfi_def_cfa %rsp, 8
	retq
.LBB20_5:                               # %func_BZ2_bzWriteClose.116
	.cfi_def_cfa %rbp, 16
	movq	%rbx, %rdi
	movq	%r13, %rsi
	movl	%r12d, %edx
	movq	%r15, %rcx
	movq	%r14, %r8
	callq	BZ2_bzWriteClose.116
	addq	$8, %rsp
	popq	%rbx
	popq	%r12
	popq	%r13
	popq	%r14
	popq	%r15
	popq	%rbp
	.cfi_def_cfa %rsp, 8
	retq
.LBB20_6:                               # %func_BZ2_bzWriteClose.119
	.cfi_def_cfa %rbp, 16
	movq	%rbx, %rdi
	movq	%r13, %rsi
	movl	%r12d, %edx
	movq	%r15, %rcx
	movq	%r14, %r8
	callq	BZ2_bzWriteClose.119
	addq	$8, %rsp
	popq	%rbx
	popq	%r12
	popq	%r13
	popq	%r14
	popq	%r15
	popq	%rbp
	.cfi_def_cfa %rsp, 8
	retq
.LBB20_7:                               # %func_BZ2_bzWriteClose.136
	.cfi_def_cfa %rbp, 16
	movq	%rbx, %rdi
	movq	%r13, %rsi
	movl	%r12d, %edx
	movq	%r15, %rcx
	movq	%r14, %r8
	callq	BZ2_bzWriteClose.136
	addq	$8, %rsp
	popq	%rbx
	popq	%r12
	popq	%r13
	popq	%r14
	popq	%r15
	popq	%rbp
	.cfi_def_cfa %rsp, 8
	retq
.LBB20_8:                               # %func_BZ2_bzWriteClose.148
	.cfi_def_cfa %rbp, 16
	movq	%rbx, %rdi
	movq	%r13, %rsi
	movl	%r12d, %edx
	movq	%r15, %rcx
	movq	%r14, %r8
	callq	BZ2_bzWriteClose.148
	addq	$8, %rsp
	popq	%rbx
	popq	%r12
	popq	%r13
	popq	%r14
	popq	%r15
	popq	%rbp
	.cfi_def_cfa %rsp, 8
	retq
.LBB20_9:                               # %func_BZ2_bzWriteClose.182
	.cfi_def_cfa %rbp, 16
	movq	%rbx, %rdi
	movq	%r13, %rsi
	movl	%r12d, %edx
	movq	%r15, %rcx
	movq	%r14, %r8
	callq	BZ2_bzWriteClose.182
	addq	$8, %rsp
	popq	%rbx
	popq	%r12
	popq	%r13
	popq	%r14
	popq	%r15
	popq	%rbp
	.cfi_def_cfa %rsp, 8
	retq
.LBB20_10:                              # %func_BZ2_bzWriteClose.186
	.cfi_def_cfa %rbp, 16
	movq	%rbx, %rdi
	movq	%r13, %rsi
	movl	%r12d, %edx
	movq	%r15, %rcx
	movq	%r14, %r8
	callq	BZ2_bzWriteClose.186
	addq	$8, %rsp
	popq	%rbx
	popq	%r12
	popq	%r13
	popq	%r14
	popq	%r15
	popq	%rbp
	.cfi_def_cfa %rsp, 8
	retq
.LBB20_11:                              # %func_BZ2_bzWriteClose.187
	.cfi_def_cfa %rbp, 16
	movq	%rbx, %rdi
	movq	%r13, %rsi
	movl	%r12d, %edx
	movq	%r15, %rcx
	movq	%r14, %r8
	callq	BZ2_bzWriteClose.187
	addq	$8, %rsp
	popq	%rbx
	popq	%r12
	popq	%r13
	popq	%r14
	popq	%r15
	popq	%rbp
	.cfi_def_cfa %rsp, 8
	retq
.LBB20_12:                              # %func_BZ2_bzWriteClose.200
	.cfi_def_cfa %rbp, 16
	movq	%rbx, %rdi
	movq	%r13, %rsi
	movl	%r12d, %edx
	movq	%r15, %rcx
	movq	%r14, %r8
	callq	BZ2_bzWriteClose.200
	addq	$8, %rsp
	popq	%rbx
	popq	%r12
	popq	%r13
	popq	%r14
	popq	%r15
	popq	%rbp
	.cfi_def_cfa %rsp, 8
	retq
.LBB20_13:                              # %func_BZ2_bzWriteClose.207
	.cfi_def_cfa %rbp, 16
	movq	%rbx, %rdi
	movq	%r13, %rsi
	movl	%r12d, %edx
	movq	%r15, %rcx
	movq	%r14, %r8
	callq	BZ2_bzWriteClose.207
	addq	$8, %rsp
	popq	%rbx
	popq	%r12
	popq	%r13
	popq	%r14
	popq	%r15
	popq	%rbp
	.cfi_def_cfa %rsp, 8
	retq
.LBB20_14:                              # %func_BZ2_bzWriteClose.234
	.cfi_def_cfa %rbp, 16
	movq	%rbx, %rdi
	movq	%r13, %rsi
	movl	%r12d, %edx
	movq	%r15, %rcx
	movq	%r14, %r8
	callq	BZ2_bzWriteClose.234
	addq	$8, %rsp
	popq	%rbx
	popq	%r12
	popq	%r13
	popq	%r14
	popq	%r15
	popq	%rbp
	.cfi_def_cfa %rsp, 8
	retq
.LBB20_15:                              # %func_BZ2_bzWriteClose.244
	.cfi_def_cfa %rbp, 16
	movq	%rbx, %rdi
	movq	%r13, %rsi
	movl	%r12d, %edx
	movq	%r15, %rcx
	movq	%r14, %r8
	callq	BZ2_bzWriteClose.244
	addq	$8, %rsp
	popq	%rbx
	popq	%r12
	popq	%r13
	popq	%r14
	popq	%r15
	popq	%rbp
	.cfi_def_cfa %rsp, 8
	retq
.LBB20_16:                              # %func_BZ2_bzWriteClose.256
	.cfi_def_cfa %rbp, 16
	movq	%rbx, %rdi
	movq	%r13, %rsi
	movl	%r12d, %edx
	movq	%r15, %rcx
	movq	%r14, %r8
	callq	BZ2_bzWriteClose.256
	addq	$8, %rsp
	popq	%rbx
	popq	%r12
	popq	%r13
	popq	%r14
	popq	%r15
	popq	%rbp
	.cfi_def_cfa %rsp, 8
	retq
.LBB20_17:                              # %ctrl0
	.cfi_def_cfa %rbp, 16
	cmpl	$1, %eax
	je	.LBB20_2
# %bb.18:                               # %ctrl1
	cmpl	$2, %eax
	je	.LBB20_3
# %bb.19:                               # %ctrl2
	cmpl	$3, %eax
	je	.LBB20_4
# %bb.20:                               # %ctrl3
	cmpl	$4, %eax
	je	.LBB20_5
# %bb.21:                               # %ctrl4
	cmpl	$5, %eax
	je	.LBB20_6
# %bb.22:                               # %ctrl5
	cmpl	$6, %eax
	je	.LBB20_7
# %bb.23:                               # %ctrl6
	cmpl	$7, %eax
	je	.LBB20_8
# %bb.24:                               # %ctrl7
	cmpl	$8, %eax
	je	.LBB20_9
# %bb.25:                               # %ctrl8
	cmpl	$9, %eax
	je	.LBB20_10
# %bb.26:                               # %ctrl9
	cmpl	$10, %eax
	je	.LBB20_11
# %bb.27:                               # %ctrl10
	cmpl	$11, %eax
	je	.LBB20_12
# %bb.28:                               # %ctrl11
	cmpl	$12, %eax
	je	.LBB20_13
# %bb.29:                               # %ctrl12
	cmpl	$13, %eax
	je	.LBB20_14
# %bb.30:                               # %ctrl13
	cmpl	$14, %eax
	je	.LBB20_15
	jmp	.LBB20_16
.Lfunc_end20:
	.size	BZ2_bzWriteClose, .Lfunc_end20-BZ2_bzWriteClose
	.cfi_endproc
                                        # -- End function
	.globl	BZ2_bzWriteClose64      # -- Begin function BZ2_bzWriteClose64
	.p2align	4, 0x90
	.type	BZ2_bzWriteClose64,@function
BZ2_bzWriteClose64:                     # @BZ2_bzWriteClose64
	.cfi_startproc
# %bb.0:                                # %rand_bb
	pushq	%rbp
	.cfi_def_cfa_offset 16
	.cfi_offset %rbp, -16
	movq	%rsp, %rbp
	.cfi_def_cfa_register %rbp
	pushq	%r15
	pushq	%r14
	pushq	%r13
	pushq	%r12
	pushq	%rbx
	subq	$24, %rsp
	.cfi_offset %rbx, -56
	.cfi_offset %r12, -48
	.cfi_offset %r13, -40
	.cfi_offset %r14, -32
	.cfi_offset %r15, -24
	movq	%r9, -48(%rbp)          # 8-byte Spill
	movq	%r8, %r13
	movq	%rcx, %rbx
	movl	%edx, %r14d
	movq	%rsi, %r15
	movq	%rdi, %r12
	callq	get_rand
	cmpl	$0, %eax
	jne	.LBB21_17
# %bb.1:                                # %func_BZ2_bzWriteClose64.45
	movq	%r12, %rdi
	movq	%r15, %rsi
	movl	%r14d, %edx
	movq	%rbx, %rcx
	movq	%r13, %r8
	movq	-48(%rbp), %r9          # 8-byte Reload
	movq	16(%rbp), %rax
	movq	%rax, (%rsp)
	callq	BZ2_bzWriteClose64.45
	addq	$24, %rsp
	popq	%rbx
	popq	%r12
	popq	%r13
	popq	%r14
	popq	%r15
	popq	%rbp
	.cfi_def_cfa %rsp, 8
	retq
.LBB21_2:                               # %func_BZ2_bzWriteClose64.91
	.cfi_def_cfa %rbp, 16
	movq	%r15, %rsi
	movq	%r12, %r9
	movq	16(%rbp), %rax
	movq	%rax, (%rsp)
	callq	BZ2_bzWriteClose64.91
	addq	$24, %rsp
	popq	%rbx
	popq	%r12
	popq	%r13
	popq	%r14
	popq	%r15
	popq	%rbp
	.cfi_def_cfa %rsp, 8
	retq
.LBB21_3:                               # %func_BZ2_bzWriteClose64.95
	.cfi_def_cfa %rbp, 16
	movq	%r10, %rdi
	movl	%ebx, %edx
	movq	%r14, %rcx
	movq	%r13, %r8
	movq	%r11, (%rsp)
	callq	BZ2_bzWriteClose64.95
	addq	$24, %rsp
	popq	%rbx
	popq	%r12
	popq	%r13
	popq	%r14
	popq	%r15
	popq	%rbp
	.cfi_def_cfa %rsp, 8
	retq
.LBB21_4:                               # %func_BZ2_bzWriteClose64.180
	.cfi_def_cfa %rbp, 16
	movq	%r10, %rdi
	movq	-56(%rbp), %rsi         # 8-byte Reload
	movl	%ebx, %edx
	movq	%r14, %rcx
	movq	%r13, %r8
	movq	-48(%rbp), %r9          # 8-byte Reload
	movq	%r11, (%rsp)
	callq	BZ2_bzWriteClose64.180
	addq	$24, %rsp
	popq	%rbx
	popq	%r12
	popq	%r13
	popq	%r14
	popq	%r15
	popq	%rbp
	.cfi_def_cfa %rsp, 8
	retq
.LBB21_5:                               # %func_BZ2_bzWriteClose64.227
	.cfi_def_cfa %rbp, 16
	movq	%r10, %rdi
	movq	-56(%rbp), %rsi         # 8-byte Reload
	movl	%ebx, %edx
	movq	%r14, %rcx
	movq	%r9, %r8
	movq	-48(%rbp), %r9          # 8-byte Reload
	movq	%r11, (%rsp)
	callq	BZ2_bzWriteClose64.227
	addq	$24, %rsp
	popq	%rbx
	popq	%r12
	popq	%r13
	popq	%r14
	popq	%r15
	popq	%rbp
	.cfi_def_cfa %rsp, 8
	retq
.LBB21_6:                               # %func_BZ2_bzWriteClose64.249
	.cfi_def_cfa %rbp, 16
	movq	%r10, %rdi
	movq	-56(%rbp), %rsi         # 8-byte Reload
	movl	%ebx, %edx
	movq	%r13, %rcx
	movq	%r9, %r8
	movq	-48(%rbp), %r9          # 8-byte Reload
	movq	%r11, (%rsp)
	callq	BZ2_bzWriteClose64.249
	addq	$24, %rsp
	popq	%rbx
	popq	%r12
	popq	%r13
	popq	%r14
	popq	%r15
	popq	%rbp
	.cfi_def_cfa %rsp, 8
	retq
.LBB21_7:                               # %func_BZ2_bzWriteClose64.265
	.cfi_def_cfa %rbp, 16
	movq	%r10, %rdi
	movq	-56(%rbp), %rsi         # 8-byte Reload
	movl	%r14d, %edx
	movq	%r13, %rcx
	movq	%r9, %r8
	movq	-48(%rbp), %r9          # 8-byte Reload
	movq	%r11, (%rsp)
	callq	BZ2_bzWriteClose64.265
	addq	$24, %rsp
	popq	%rbx
	popq	%r12
	popq	%r13
	popq	%r14
	popq	%r15
	popq	%rbp
	.cfi_def_cfa %rsp, 8
	retq
.LBB21_8:                               # %func_BZ2_bzWriteClose64.292
	.cfi_def_cfa %rbp, 16
	movq	%r10, %rdi
	movq	%rbx, %rsi
	movl	%r14d, %edx
	movq	%r13, %rcx
	movq	%r9, %r8
	movq	-48(%rbp), %r9          # 8-byte Reload
	movq	%r11, (%rsp)
	callq	BZ2_bzWriteClose64.292
	addq	$24, %rsp
	popq	%rbx
	popq	%r12
	popq	%r13
	popq	%r14
	popq	%r15
	popq	%rbp
	.cfi_def_cfa %rsp, 8
	retq
.LBB21_9:                               # %func_BZ2_bzWriteClose64.296
	.cfi_def_cfa %rbp, 16
	movq	%r10, %rdi
	movq	%rbx, %rsi
	movl	%r14d, %edx
	movq	%r13, %rcx
	movq	%r9, %r8
	movq	-48(%rbp), %r9          # 8-byte Reload
	movq	%r11, (%rsp)
	callq	BZ2_bzWriteClose64.296
	addq	$24, %rsp
	popq	%rbx
	popq	%r12
	popq	%r13
	popq	%r14
	popq	%r15
	popq	%rbp
	.cfi_def_cfa %rsp, 8
	retq
.LBB21_10:                              # %func_BZ2_bzWriteClose64.297
	.cfi_def_cfa %rbp, 16
	movq	%r10, %rdi
	movq	%rbx, %rsi
	movl	%r14d, %edx
	movq	%r13, %rcx
	movq	%r9, %r8
	movq	-48(%rbp), %r9          # 8-byte Reload
	movq	%r11, (%rsp)
	callq	BZ2_bzWriteClose64.297
	addq	$24, %rsp
	popq	%rbx
	popq	%r12
	popq	%r13
	popq	%r14
	popq	%r15
	popq	%rbp
	.cfi_def_cfa %rsp, 8
	retq
.LBB21_11:                              # %func_BZ2_bzWriteClose64.314
	.cfi_def_cfa %rbp, 16
	movq	%r10, %rdi
	movq	%rbx, %rsi
	movl	%r14d, %edx
	movq	%r13, %rcx
	movq	%r9, %r8
	movq	-48(%rbp), %r9          # 8-byte Reload
	movq	%r11, (%rsp)
	callq	BZ2_bzWriteClose64.314
	addq	$24, %rsp
	popq	%rbx
	popq	%r12
	popq	%r13
	popq	%r14
	popq	%r15
	popq	%rbp
	.cfi_def_cfa %rsp, 8
	retq
.LBB21_12:                              # %func_BZ2_bzWriteClose64.324
	.cfi_def_cfa %rbp, 16
	movq	%r10, %rdi
	movq	%rbx, %rsi
	movl	%r14d, %edx
	movq	%r13, %rcx
	movq	%r9, %r8
	movq	-48(%rbp), %r9          # 8-byte Reload
	movq	%r11, (%rsp)
	callq	BZ2_bzWriteClose64.324
	addq	$24, %rsp
	popq	%rbx
	popq	%r12
	popq	%r13
	popq	%r14
	popq	%r15
	popq	%rbp
	.cfi_def_cfa %rsp, 8
	retq
.LBB21_13:                              # %func_BZ2_bzWriteClose64.346
	.cfi_def_cfa %rbp, 16
	movq	%r10, %rdi
	movq	%rbx, %rsi
	movl	%r14d, %edx
	movq	%r13, %rcx
	movq	%r9, %r8
	movq	-48(%rbp), %r9          # 8-byte Reload
	movq	%r11, (%rsp)
	callq	BZ2_bzWriteClose64.346
	addq	$24, %rsp
	popq	%rbx
	popq	%r12
	popq	%r13
	popq	%r14
	popq	%r15
	popq	%rbp
	.cfi_def_cfa %rsp, 8
	retq
.LBB21_14:                              # %func_BZ2_bzWriteClose64.357
	.cfi_def_cfa %rbp, 16
	movq	%r10, %rdi
	movq	%rbx, %rsi
	movl	%r14d, %edx
	movq	%r13, %rcx
	movq	%r9, %r8
	movq	-48(%rbp), %r9          # 8-byte Reload
	movq	%r11, (%rsp)
	callq	BZ2_bzWriteClose64.357
	addq	$24, %rsp
	popq	%rbx
	popq	%r12
	popq	%r13
	popq	%r14
	popq	%r15
	popq	%rbp
	.cfi_def_cfa %rsp, 8
	retq
.LBB21_15:                              # %func_BZ2_bzWriteClose64.378
	.cfi_def_cfa %rbp, 16
	movq	%r15, %rsi
	movq	%r12, %r9
	movq	16(%rbp), %rax
	movq	%rax, (%rsp)
	callq	BZ2_bzWriteClose64.378
	addq	$24, %rsp
	popq	%rbx
	popq	%r12
	popq	%r13
	popq	%r14
	popq	%r15
	popq	%rbp
	.cfi_def_cfa %rsp, 8
	retq
.LBB21_16:                              # %func_BZ2_bzWriteClose64.383
	.cfi_def_cfa %rbp, 16
	movq	%r15, %rsi
	movq	%r12, %r9
	movq	16(%rbp), %rax
	movq	%rax, (%rsp)
	callq	BZ2_bzWriteClose64.383
	addq	$24, %rsp
	popq	%rbx
	popq	%r12
	popq	%r13
	popq	%r14
	popq	%r15
	popq	%rbp
	.cfi_def_cfa %rsp, 8
	retq
.LBB21_17:                              # %ctrl0
	.cfi_def_cfa %rbp, 16
	movq	%r12, %rdi
	movl	%r14d, %edx
	movq	%rbx, %rcx
	movq	%r13, %r8
	movq	-48(%rbp), %r12         # 8-byte Reload
	cmpl	$1, %eax
	je	.LBB21_2
# %bb.18:                               # %ctrl1
	cmpl	$2, %eax
	movq	16(%rbp), %r11
	movq	%r12, %r9
	movq	%r8, %r13
	movq	%rcx, %r14
	movl	%edx, %ebx
	movq	%r15, %rsi
	movq	%rdi, %r10
	je	.LBB21_3
# %bb.19:                               # %ctrl2
	movq	%rsi, -56(%rbp)         # 8-byte Spill
	cmpl	$3, %eax
	je	.LBB21_4
# %bb.20:                               # %ctrl3
	cmpl	$4, %eax
	movq	%r13, %r9
	je	.LBB21_5
# %bb.21:                               # %ctrl4
	cmpl	$5, %eax
	movq	%r14, %r13
	je	.LBB21_6
# %bb.22:                               # %ctrl5
	cmpl	$6, %eax
	movl	%ebx, %r14d
	je	.LBB21_7
# %bb.23:                               # %ctrl6
	cmpl	$7, %eax
	movq	-56(%rbp), %rbx         # 8-byte Reload
	je	.LBB21_8
# %bb.24:                               # %ctrl7
	cmpl	$8, %eax
	je	.LBB21_9
# %bb.25:                               # %ctrl8
	cmpl	$9, %eax
	je	.LBB21_10
# %bb.26:                               # %ctrl9
	cmpl	$10, %eax
	je	.LBB21_11
# %bb.27:                               # %ctrl10
	cmpl	$11, %eax
	je	.LBB21_12
# %bb.28:                               # %ctrl11
	cmpl	$12, %eax
	je	.LBB21_13
# %bb.29:                               # %ctrl12
	cmpl	$13, %eax
	je	.LBB21_14
# %bb.30:                               # %ctrl13
	cmpl	$14, %eax
	je	.LBB21_15
	jmp	.LBB21_16
.Lfunc_end21:
	.size	BZ2_bzWriteClose64, .Lfunc_end21-BZ2_bzWriteClose64
	.cfi_endproc
                                        # -- End function
	.globl	BZ2_bzReadOpen          # -- Begin function BZ2_bzReadOpen
	.p2align	4, 0x90
	.type	BZ2_bzReadOpen,@function
BZ2_bzReadOpen:                         # @BZ2_bzReadOpen
	.cfi_startproc
# %bb.0:                                # %rand_bb
	pushq	%rbp
	.cfi_def_cfa_offset 16
	.cfi_offset %rbp, -16
	movq	%rsp, %rbp
	.cfi_def_cfa_register %rbp
	pushq	%r15
	pushq	%r14
	pushq	%r13
	pushq	%r12
	pushq	%rbx
	pushq	%rax
	.cfi_offset %rbx, -56
	.cfi_offset %r12, -48
	.cfi_offset %r13, -40
	.cfi_offset %r14, -32
	.cfi_offset %r15, -24
	movl	%r9d, -44(%rbp)         # 4-byte Spill
	movq	%r8, %r12
	movl	%ecx, %r13d
	movl	%edx, %ebx
	movq	%rsi, %r14
	movq	%rdi, %r15
	callq	get_rand
	cmpl	$0, %eax
	jne	.LBB22_17
# %bb.1:                                # %func_BZ2_bzReadOpen.28
	movq	%r15, %rdi
	movq	%r14, %rsi
	movl	%ebx, %edx
	movl	%r13d, %ecx
	movq	%r12, %r8
	movl	-44(%rbp), %r9d         # 4-byte Reload
	callq	BZ2_bzReadOpen.28
	addq	$8, %rsp
	popq	%rbx
	popq	%r12
	popq	%r13
	popq	%r14
	popq	%r15
	popq	%rbp
	.cfi_def_cfa %rsp, 8
	retq
.LBB22_2:                               # %func_BZ2_bzReadOpen.59
	.cfi_def_cfa %rbp, 16
	movl	%r13d, %ecx
	movq	%r11, %r8
	movl	%r10d, %r9d
	callq	BZ2_bzReadOpen.59
	addq	$8, %rsp
	popq	%rbx
	popq	%r12
	popq	%r13
	popq	%r14
	popq	%r15
	popq	%rbp
	.cfi_def_cfa %rsp, 8
	retq
.LBB22_3:                               # %func_BZ2_bzReadOpen.196
	.cfi_def_cfa %rbp, 16
	movq	%rbx, %rdi
	movq	%r14, %rsi
	movl	%r12d, %edx
	movl	%r15d, %ecx
	callq	BZ2_bzReadOpen.196
	addq	$8, %rsp
	popq	%rbx
	popq	%r12
	popq	%r13
	popq	%r14
	popq	%r15
	popq	%rbp
	.cfi_def_cfa %rsp, 8
	retq
.LBB22_4:                               # %func_BZ2_bzReadOpen.217
	.cfi_def_cfa %rbp, 16
	movq	%rbx, %rdi
	movq	%r14, %rsi
	movl	%r12d, %edx
	movl	%r15d, %ecx
	callq	BZ2_bzReadOpen.217
	addq	$8, %rsp
	popq	%rbx
	popq	%r12
	popq	%r13
	popq	%r14
	popq	%r15
	popq	%rbp
	.cfi_def_cfa %rsp, 8
	retq
.LBB22_5:                               # %func_BZ2_bzReadOpen.221
	.cfi_def_cfa %rbp, 16
	movq	%rbx, %rdi
	movq	%r14, %rsi
	movl	%r12d, %edx
	movl	%r15d, %ecx
	callq	BZ2_bzReadOpen.221
	addq	$8, %rsp
	popq	%rbx
	popq	%r12
	popq	%r13
	popq	%r14
	popq	%r15
	popq	%rbp
	.cfi_def_cfa %rsp, 8
	retq
.LBB22_6:                               # %func_BZ2_bzReadOpen.233
	.cfi_def_cfa %rbp, 16
	movq	%rbx, %rdi
	movq	%r14, %rsi
	movl	%r12d, %edx
	movl	%r15d, %ecx
	callq	BZ2_bzReadOpen.233
	addq	$8, %rsp
	popq	%rbx
	popq	%r12
	popq	%r13
	popq	%r14
	popq	%r15
	popq	%rbp
	.cfi_def_cfa %rsp, 8
	retq
.LBB22_7:                               # %func_BZ2_bzReadOpen.251
	.cfi_def_cfa %rbp, 16
	movq	%rbx, %rdi
	movq	%r14, %rsi
	movl	%r12d, %edx
	movl	%r15d, %ecx
	callq	BZ2_bzReadOpen.251
	addq	$8, %rsp
	popq	%rbx
	popq	%r12
	popq	%r13
	popq	%r14
	popq	%r15
	popq	%rbp
	.cfi_def_cfa %rsp, 8
	retq
.LBB22_8:                               # %func_BZ2_bzReadOpen.282
	.cfi_def_cfa %rbp, 16
	movq	%rbx, %rdi
	movq	%r14, %rsi
	movl	%r12d, %edx
	movl	%r15d, %ecx
	callq	BZ2_bzReadOpen.282
	addq	$8, %rsp
	popq	%rbx
	popq	%r12
	popq	%r13
	popq	%r14
	popq	%r15
	popq	%rbp
	.cfi_def_cfa %rsp, 8
	retq
.LBB22_9:                               # %func_BZ2_bzReadOpen.300
	.cfi_def_cfa %rbp, 16
	movq	%rbx, %rdi
	movq	%r14, %rsi
	movl	%r12d, %edx
	movl	%r15d, %ecx
	callq	BZ2_bzReadOpen.300
	addq	$8, %rsp
	popq	%rbx
	popq	%r12
	popq	%r13
	popq	%r14
	popq	%r15
	popq	%rbp
	.cfi_def_cfa %rsp, 8
	retq
.LBB22_10:                              # %func_BZ2_bzReadOpen.310
	.cfi_def_cfa %rbp, 16
	movq	%rbx, %rdi
	movq	%r14, %rsi
	movl	%r12d, %edx
	movl	%r15d, %ecx
	callq	BZ2_bzReadOpen.310
	addq	$8, %rsp
	popq	%rbx
	popq	%r12
	popq	%r13
	popq	%r14
	popq	%r15
	popq	%rbp
	.cfi_def_cfa %rsp, 8
	retq
.LBB22_11:                              # %func_BZ2_bzReadOpen.316
	.cfi_def_cfa %rbp, 16
	movq	%rbx, %rdi
	movq	%r14, %rsi
	movl	%r12d, %edx
	movl	%r15d, %ecx
	callq	BZ2_bzReadOpen.316
	addq	$8, %rsp
	popq	%rbx
	popq	%r12
	popq	%r13
	popq	%r14
	popq	%r15
	popq	%rbp
	.cfi_def_cfa %rsp, 8
	retq
.LBB22_12:                              # %func_BZ2_bzReadOpen.327
	.cfi_def_cfa %rbp, 16
	movq	%rbx, %rdi
	movq	%r14, %rsi
	movl	%r12d, %edx
	movl	%r15d, %ecx
	callq	BZ2_bzReadOpen.327
	addq	$8, %rsp
	popq	%rbx
	popq	%r12
	popq	%r13
	popq	%r14
	popq	%r15
	popq	%rbp
	.cfi_def_cfa %rsp, 8
	retq
.LBB22_13:                              # %func_BZ2_bzReadOpen.368
	.cfi_def_cfa %rbp, 16
	movq	%rbx, %rdi
	movq	%r14, %rsi
	movl	%r12d, %edx
	movl	%r15d, %ecx
	callq	BZ2_bzReadOpen.368
	addq	$8, %rsp
	popq	%rbx
	popq	%r12
	popq	%r13
	popq	%r14
	popq	%r15
	popq	%rbp
	.cfi_def_cfa %rsp, 8
	retq
.LBB22_14:                              # %func_BZ2_bzReadOpen.374
	.cfi_def_cfa %rbp, 16
	movq	%rbx, %rdi
	movq	%r14, %rsi
	movl	%r12d, %edx
	movl	%r15d, %ecx
	callq	BZ2_bzReadOpen.374
	addq	$8, %rsp
	popq	%rbx
	popq	%r12
	popq	%r13
	popq	%r14
	popq	%r15
	popq	%rbp
	.cfi_def_cfa %rsp, 8
	retq
.LBB22_15:                              # %func_BZ2_bzReadOpen.377
	.cfi_def_cfa %rbp, 16
	movl	%r13d, %ecx
	movq	%r11, %r8
	movl	%r10d, %r9d
	callq	BZ2_bzReadOpen.377
	addq	$8, %rsp
	popq	%rbx
	popq	%r12
	popq	%r13
	popq	%r14
	popq	%r15
	popq	%rbp
	.cfi_def_cfa %rsp, 8
	retq
.LBB22_16:                              # %func_BZ2_bzReadOpen.381
	.cfi_def_cfa %rbp, 16
	movl	%r13d, %ecx
	movq	%r11, %r8
	movl	%r10d, %r9d
	callq	BZ2_bzReadOpen.381
	addq	$8, %rsp
	popq	%rbx
	popq	%r12
	popq	%r13
	popq	%r14
	popq	%r15
	popq	%rbp
	.cfi_def_cfa %rsp, 8
	retq
.LBB22_17:                              # %ctrl0
	.cfi_def_cfa %rbp, 16
	movq	%r15, %rdi
	movq	%r14, %rsi
	movl	%ebx, %edx
	movq	%r12, %r11
	movl	-44(%rbp), %r10d        # 4-byte Reload
	cmpl	$1, %eax
	je	.LBB22_2
# %bb.18:                               # %ctrl1
	cmpl	$2, %eax
	movl	%r10d, %r9d
	movq	%r11, %r8
	movl	%r13d, %r15d
	movl	%edx, %r12d
	movq	%rsi, %r14
	movq	%rdi, %rbx
	je	.LBB22_3
# %bb.19:                               # %ctrl2
	cmpl	$3, %eax
	je	.LBB22_4
# %bb.20:                               # %ctrl3
	cmpl	$4, %eax
	je	.LBB22_5
# %bb.21:                               # %ctrl4
	cmpl	$5, %eax
	je	.LBB22_6
# %bb.22:                               # %ctrl5
	cmpl	$6, %eax
	je	.LBB22_7
# %bb.23:                               # %ctrl6
	cmpl	$7, %eax
	je	.LBB22_8
# %bb.24:                               # %ctrl7
	cmpl	$8, %eax
	je	.LBB22_9
# %bb.25:                               # %ctrl8
	cmpl	$9, %eax
	je	.LBB22_10
# %bb.26:                               # %ctrl9
	cmpl	$10, %eax
	je	.LBB22_11
# %bb.27:                               # %ctrl10
	cmpl	$11, %eax
	je	.LBB22_12
# %bb.28:                               # %ctrl11
	cmpl	$12, %eax
	je	.LBB22_13
# %bb.29:                               # %ctrl12
	cmpl	$13, %eax
	je	.LBB22_14
# %bb.30:                               # %ctrl13
	cmpl	$14, %eax
	je	.LBB22_15
	jmp	.LBB22_16
.Lfunc_end22:
	.size	BZ2_bzReadOpen, .Lfunc_end22-BZ2_bzReadOpen
	.cfi_endproc
                                        # -- End function
	.globl	BZ2_bzReadClose         # -- Begin function BZ2_bzReadClose
	.p2align	4, 0x90
	.type	BZ2_bzReadClose,@function
BZ2_bzReadClose:                        # @BZ2_bzReadClose
	.cfi_startproc
# %bb.0:                                # %rand_bb
	pushq	%rbp
	.cfi_def_cfa_offset 16
	.cfi_offset %rbp, -16
	movq	%rsp, %rbp
	.cfi_def_cfa_register %rbp
	pushq	%r14
	pushq	%rbx
	.cfi_offset %rbx, -32
	.cfi_offset %r14, -24
	movq	%rsi, %r14
	movq	%rdi, %rbx
	callq	get_rand
	cmpl	$0, %eax
	jne	.LBB23_7
# %bb.1:                                # %func_BZ2_bzReadClose.55
	movq	%rbx, %rdi
	movq	%r14, %rsi
	callq	BZ2_bzReadClose.55
	popq	%rbx
	popq	%r14
	popq	%rbp
	.cfi_def_cfa %rsp, 8
	retq
.LBB23_2:                               # %func_BZ2_bzReadClose.69
	.cfi_def_cfa %rbp, 16
	movq	%rbx, %rdi
	movq	%r14, %rsi
	callq	BZ2_bzReadClose.69
	popq	%rbx
	popq	%r14
	popq	%rbp
	.cfi_def_cfa %rsp, 8
	retq
.LBB23_3:                               # %func_BZ2_bzReadClose.77
	.cfi_def_cfa %rbp, 16
	movq	%rbx, %rdi
	movq	%r14, %rsi
	callq	BZ2_bzReadClose.77
	popq	%rbx
	popq	%r14
	popq	%rbp
	.cfi_def_cfa %rsp, 8
	retq
.LBB23_4:                               # %func_BZ2_bzReadClose.97
	.cfi_def_cfa %rbp, 16
	movq	%rbx, %rdi
	movq	%r14, %rsi
	callq	BZ2_bzReadClose.97
	popq	%rbx
	popq	%r14
	popq	%rbp
	.cfi_def_cfa %rsp, 8
	retq
.LBB23_5:                               # %func_BZ2_bzReadClose.100
	.cfi_def_cfa %rbp, 16
	movq	%rbx, %rdi
	movq	%r14, %rsi
	callq	BZ2_bzReadClose.100
	popq	%rbx
	popq	%r14
	popq	%rbp
	.cfi_def_cfa %rsp, 8
	retq
.LBB23_6:                               # %func_BZ2_bzReadClose.105
	.cfi_def_cfa %rbp, 16
	movq	%rbx, %rdi
	movq	%r14, %rsi
	callq	BZ2_bzReadClose.105
	popq	%rbx
	popq	%r14
	popq	%rbp
	.cfi_def_cfa %rsp, 8
	retq
.LBB23_7:                               # %ctrl0
	.cfi_def_cfa %rbp, 16
	cmpl	$1, %eax
	je	.LBB23_2
# %bb.8:                                # %ctrl1
	cmpl	$2, %eax
	je	.LBB23_3
# %bb.9:                                # %ctrl2
	cmpl	$3, %eax
	je	.LBB23_4
# %bb.10:                               # %ctrl3
	cmpl	$4, %eax
	je	.LBB23_5
	jmp	.LBB23_6
.Lfunc_end23:
	.size	BZ2_bzReadClose, .Lfunc_end23-BZ2_bzReadClose
	.cfi_endproc
                                        # -- End function
	.globl	BZ2_bzRead              # -- Begin function BZ2_bzRead
	.p2align	4, 0x90
	.type	BZ2_bzRead,@function
BZ2_bzRead:                             # @BZ2_bzRead
	.cfi_startproc
# %bb.0:                                # %rand_bb
	pushq	%rbp
	.cfi_def_cfa_offset 16
	.cfi_offset %rbp, -16
	movq	%rsp, %rbp
	.cfi_def_cfa_register %rbp
	pushq	%r15
	pushq	%r14
	pushq	%r12
	pushq	%rbx
	.cfi_offset %rbx, -48
	.cfi_offset %r12, -40
	.cfi_offset %r14, -32
	.cfi_offset %r15, -24
	movl	%ecx, %r14d
	movq	%rdx, %r15
	movq	%rsi, %r12
	movq	%rdi, %rbx
	callq	get_rand
	cmpl	$0, %eax
	jne	.LBB24_17
# %bb.1:                                # %func_BZ2_bzRead.48
	movq	%rbx, %rdi
	movq	%r12, %rsi
	movq	%r15, %rdx
	movl	%r14d, %ecx
	callq	BZ2_bzRead.48
	popq	%rbx
	popq	%r12
	popq	%r14
	popq	%r15
	popq	%rbp
	.cfi_def_cfa %rsp, 8
	retq
.LBB24_2:                               # %func_BZ2_bzRead.79
	.cfi_def_cfa %rbp, 16
	movq	%rbx, %rdi
	movq	%r12, %rsi
	movq	%r15, %rdx
	movl	%r14d, %ecx
	callq	BZ2_bzRead.79
	popq	%rbx
	popq	%r12
	popq	%r14
	popq	%r15
	popq	%rbp
	.cfi_def_cfa %rsp, 8
	retq
.LBB24_3:                               # %func_BZ2_bzRead.89
	.cfi_def_cfa %rbp, 16
	movq	%rbx, %rdi
	movq	%r12, %rsi
	movq	%r15, %rdx
	movl	%r14d, %ecx
	callq	BZ2_bzRead.89
	popq	%rbx
	popq	%r12
	popq	%r14
	popq	%r15
	popq	%rbp
	.cfi_def_cfa %rsp, 8
	retq
.LBB24_4:                               # %func_BZ2_bzRead.90
	.cfi_def_cfa %rbp, 16
	movq	%rbx, %rdi
	movq	%r12, %rsi
	movq	%r15, %rdx
	movl	%r14d, %ecx
	callq	BZ2_bzRead.90
	popq	%rbx
	popq	%r12
	popq	%r14
	popq	%r15
	popq	%rbp
	.cfi_def_cfa %rsp, 8
	retq
.LBB24_5:                               # %func_BZ2_bzRead.109
	.cfi_def_cfa %rbp, 16
	movq	%rbx, %rdi
	movq	%r12, %rsi
	movq	%r15, %rdx
	movl	%r14d, %ecx
	callq	BZ2_bzRead.109
	popq	%rbx
	popq	%r12
	popq	%r14
	popq	%r15
	popq	%rbp
	.cfi_def_cfa %rsp, 8
	retq
.LBB24_6:                               # %func_BZ2_bzRead.124
	.cfi_def_cfa %rbp, 16
	movq	%rbx, %rdi
	movq	%r12, %rsi
	movq	%r15, %rdx
	movl	%r14d, %ecx
	callq	BZ2_bzRead.124
	popq	%rbx
	popq	%r12
	popq	%r14
	popq	%r15
	popq	%rbp
	.cfi_def_cfa %rsp, 8
	retq
.LBB24_7:                               # %func_BZ2_bzRead.142
	.cfi_def_cfa %rbp, 16
	movq	%rbx, %rdi
	movq	%r12, %rsi
	movq	%r15, %rdx
	movl	%r14d, %ecx
	callq	BZ2_bzRead.142
	popq	%rbx
	popq	%r12
	popq	%r14
	popq	%r15
	popq	%rbp
	.cfi_def_cfa %rsp, 8
	retq
.LBB24_8:                               # %func_BZ2_bzRead.166
	.cfi_def_cfa %rbp, 16
	movq	%rbx, %rdi
	movq	%r12, %rsi
	movq	%r15, %rdx
	movl	%r14d, %ecx
	callq	BZ2_bzRead.166
	popq	%rbx
	popq	%r12
	popq	%r14
	popq	%r15
	popq	%rbp
	.cfi_def_cfa %rsp, 8
	retq
.LBB24_9:                               # %func_BZ2_bzRead.170
	.cfi_def_cfa %rbp, 16
	movq	%rbx, %rdi
	movq	%r12, %rsi
	movq	%r15, %rdx
	movl	%r14d, %ecx
	callq	BZ2_bzRead.170
	popq	%rbx
	popq	%r12
	popq	%r14
	popq	%r15
	popq	%rbp
	.cfi_def_cfa %rsp, 8
	retq
.LBB24_10:                              # %func_BZ2_bzRead.206
	.cfi_def_cfa %rbp, 16
	movq	%rbx, %rdi
	movq	%r12, %rsi
	movq	%r15, %rdx
	movl	%r14d, %ecx
	callq	BZ2_bzRead.206
	popq	%rbx
	popq	%r12
	popq	%r14
	popq	%r15
	popq	%rbp
	.cfi_def_cfa %rsp, 8
	retq
.LBB24_11:                              # %func_BZ2_bzRead.219
	.cfi_def_cfa %rbp, 16
	movq	%rbx, %rdi
	movq	%r12, %rsi
	movq	%r15, %rdx
	movl	%r14d, %ecx
	callq	BZ2_bzRead.219
	popq	%rbx
	popq	%r12
	popq	%r14
	popq	%r15
	popq	%rbp
	.cfi_def_cfa %rsp, 8
	retq
.LBB24_12:                              # %func_BZ2_bzRead.285
	.cfi_def_cfa %rbp, 16
	movq	%rbx, %rdi
	movq	%r12, %rsi
	movq	%r15, %rdx
	movl	%r14d, %ecx
	callq	BZ2_bzRead.285
	popq	%rbx
	popq	%r12
	popq	%r14
	popq	%r15
	popq	%rbp
	.cfi_def_cfa %rsp, 8
	retq
.LBB24_13:                              # %func_BZ2_bzRead.330
	.cfi_def_cfa %rbp, 16
	movq	%rbx, %rdi
	movq	%r12, %rsi
	movq	%r15, %rdx
	movl	%r14d, %ecx
	callq	BZ2_bzRead.330
	popq	%rbx
	popq	%r12
	popq	%r14
	popq	%r15
	popq	%rbp
	.cfi_def_cfa %rsp, 8
	retq
.LBB24_14:                              # %func_BZ2_bzRead.332
	.cfi_def_cfa %rbp, 16
	movq	%rbx, %rdi
	movq	%r12, %rsi
	movq	%r15, %rdx
	movl	%r14d, %ecx
	callq	BZ2_bzRead.332
	popq	%rbx
	popq	%r12
	popq	%r14
	popq	%r15
	popq	%rbp
	.cfi_def_cfa %rsp, 8
	retq
.LBB24_15:                              # %func_BZ2_bzRead.351
	.cfi_def_cfa %rbp, 16
	movq	%rbx, %rdi
	movq	%r12, %rsi
	movq	%r15, %rdx
	movl	%r14d, %ecx
	callq	BZ2_bzRead.351
	popq	%rbx
	popq	%r12
	popq	%r14
	popq	%r15
	popq	%rbp
	.cfi_def_cfa %rsp, 8
	retq
.LBB24_16:                              # %func_BZ2_bzRead.356
	.cfi_def_cfa %rbp, 16
	movq	%rbx, %rdi
	movq	%r12, %rsi
	movq	%r15, %rdx
	movl	%r14d, %ecx
	callq	BZ2_bzRead.356
	popq	%rbx
	popq	%r12
	popq	%r14
	popq	%r15
	popq	%rbp
	.cfi_def_cfa %rsp, 8
	retq
.LBB24_17:                              # %ctrl0
	.cfi_def_cfa %rbp, 16
	cmpl	$1, %eax
	je	.LBB24_2
# %bb.18:                               # %ctrl1
	cmpl	$2, %eax
	je	.LBB24_3
# %bb.19:                               # %ctrl2
	cmpl	$3, %eax
	je	.LBB24_4
# %bb.20:                               # %ctrl3
	cmpl	$4, %eax
	je	.LBB24_5
# %bb.21:                               # %ctrl4
	cmpl	$5, %eax
	je	.LBB24_6
# %bb.22:                               # %ctrl5
	cmpl	$6, %eax
	je	.LBB24_7
# %bb.23:                               # %ctrl6
	cmpl	$7, %eax
	je	.LBB24_8
# %bb.24:                               # %ctrl7
	cmpl	$8, %eax
	je	.LBB24_9
# %bb.25:                               # %ctrl8
	cmpl	$9, %eax
	je	.LBB24_10
# %bb.26:                               # %ctrl9
	cmpl	$10, %eax
	je	.LBB24_11
# %bb.27:                               # %ctrl10
	cmpl	$11, %eax
	je	.LBB24_12
# %bb.28:                               # %ctrl11
	cmpl	$12, %eax
	je	.LBB24_13
# %bb.29:                               # %ctrl12
	cmpl	$13, %eax
	je	.LBB24_14
# %bb.30:                               # %ctrl13
	cmpl	$14, %eax
	je	.LBB24_15
	jmp	.LBB24_16
.Lfunc_end24:
	.size	BZ2_bzRead, .Lfunc_end24-BZ2_bzRead
	.cfi_endproc
                                        # -- End function
	.p2align	4, 0x90         # -- Begin function myfeof
	.type	myfeof,@function
myfeof:                                 # @myfeof
	.cfi_startproc
# %bb.0:                                # %rand_bb
	pushq	%rbp
	.cfi_def_cfa_offset 16
	.cfi_offset %rbp, -16
	movq	%rsp, %rbp
	.cfi_def_cfa_register %rbp
	pushq	%rbx
	pushq	%rax
	.cfi_offset %rbx, -24
	movq	%rdi, %rbx
	callq	get_rand
	cmpl	$0, %eax
	jne	.LBB25_7
# %bb.1:                                # %func_myfeof.50
	movq	%rbx, %rdi
	callq	myfeof.50
	movzbl	%al, %eax
	addq	$8, %rsp
	popq	%rbx
	popq	%rbp
	.cfi_def_cfa %rsp, 8
	retq
.LBB25_2:                               # %func_myfeof.73
	.cfi_def_cfa %rbp, 16
	movq	%rbx, %rdi
	callq	myfeof.73
	movzbl	%al, %eax
	addq	$8, %rsp
	popq	%rbx
	popq	%rbp
	.cfi_def_cfa %rsp, 8
	retq
.LBB25_3:                               # %func_myfeof.117
	.cfi_def_cfa %rbp, 16
	movq	%rbx, %rdi
	callq	myfeof.117
	movzbl	%al, %eax
	addq	$8, %rsp
	popq	%rbx
	popq	%rbp
	.cfi_def_cfa %rsp, 8
	retq
.LBB25_4:                               # %func_myfeof.128
	.cfi_def_cfa %rbp, 16
	movq	%rbx, %rdi
	callq	myfeof.128
	movzbl	%al, %eax
	addq	$8, %rsp
	popq	%rbx
	popq	%rbp
	.cfi_def_cfa %rsp, 8
	retq
.LBB25_5:                               # %func_myfeof.134
	.cfi_def_cfa %rbp, 16
	movq	%rbx, %rdi
	callq	myfeof.134
	movzbl	%al, %eax
	addq	$8, %rsp
	popq	%rbx
	popq	%rbp
	.cfi_def_cfa %rsp, 8
	retq
.LBB25_6:                               # %func_myfeof.168
	.cfi_def_cfa %rbp, 16
	movq	%rbx, %rdi
	callq	myfeof.168
	movzbl	%al, %eax
	addq	$8, %rsp
	popq	%rbx
	popq	%rbp
	.cfi_def_cfa %rsp, 8
	retq
.LBB25_7:                               # %ctrl0
	.cfi_def_cfa %rbp, 16
	cmpl	$1, %eax
	je	.LBB25_2
# %bb.8:                                # %ctrl1
	cmpl	$2, %eax
	je	.LBB25_3
# %bb.9:                                # %ctrl2
	cmpl	$3, %eax
	je	.LBB25_4
# %bb.10:                               # %ctrl3
	cmpl	$4, %eax
	je	.LBB25_5
	jmp	.LBB25_6
.Lfunc_end25:
	.size	myfeof, .Lfunc_end25-myfeof
	.cfi_endproc
                                        # -- End function
	.globl	BZ2_bzReadGetUnused     # -- Begin function BZ2_bzReadGetUnused
	.p2align	4, 0x90
	.type	BZ2_bzReadGetUnused,@function
BZ2_bzReadGetUnused:                    # @BZ2_bzReadGetUnused
	.cfi_startproc
# %bb.0:                                # %rand_bb
	pushq	%rbp
	.cfi_def_cfa_offset 16
	.cfi_offset %rbp, -16
	movq	%rsp, %rbp
	.cfi_def_cfa_register %rbp
	pushq	%r15
	pushq	%r14
	pushq	%r12
	pushq	%rbx
	.cfi_offset %rbx, -48
	.cfi_offset %r12, -40
	.cfi_offset %r14, -32
	.cfi_offset %r15, -24
	movq	%rcx, %r14
	movq	%rdx, %r15
	movq	%rsi, %r12
	movq	%rdi, %rbx
	callq	get_rand
	cmpl	$0, %eax
	jne	.LBB26_17
# %bb.1:                                # %func_BZ2_bzReadGetUnused.40
	movq	%rbx, %rdi
	movq	%r12, %rsi
	movq	%r15, %rdx
	movq	%r14, %rcx
	callq	BZ2_bzReadGetUnused.40
	popq	%rbx
	popq	%r12
	popq	%r14
	popq	%r15
	popq	%rbp
	.cfi_def_cfa %rsp, 8
	retq
.LBB26_2:                               # %func_BZ2_bzReadGetUnused.74
	.cfi_def_cfa %rbp, 16
	movq	%rbx, %rdi
	movq	%r12, %rsi
	movq	%r15, %rdx
	movq	%r14, %rcx
	callq	BZ2_bzReadGetUnused.74
	popq	%rbx
	popq	%r12
	popq	%r14
	popq	%r15
	popq	%rbp
	.cfi_def_cfa %rsp, 8
	retq
.LBB26_3:                               # %func_BZ2_bzReadGetUnused.160
	.cfi_def_cfa %rbp, 16
	movq	%rbx, %rdi
	movq	%r12, %rsi
	movq	%r15, %rdx
	movq	%r14, %rcx
	callq	BZ2_bzReadGetUnused.160
	popq	%rbx
	popq	%r12
	popq	%r14
	popq	%r15
	popq	%rbp
	.cfi_def_cfa %rsp, 8
	retq
.LBB26_4:                               # %func_BZ2_bzReadGetUnused.174
	.cfi_def_cfa %rbp, 16
	movq	%rbx, %rdi
	movq	%r12, %rsi
	movq	%r15, %rdx
	movq	%r14, %rcx
	callq	BZ2_bzReadGetUnused.174
	popq	%rbx
	popq	%r12
	popq	%r14
	popq	%r15
	popq	%rbp
	.cfi_def_cfa %rsp, 8
	retq
.LBB26_5:                               # %func_BZ2_bzReadGetUnused.188
	.cfi_def_cfa %rbp, 16
	movq	%rbx, %rdi
	movq	%r12, %rsi
	movq	%r15, %rdx
	movq	%r14, %rcx
	callq	BZ2_bzReadGetUnused.188
	popq	%rbx
	popq	%r12
	popq	%r14
	popq	%r15
	popq	%rbp
	.cfi_def_cfa %rsp, 8
	retq
.LBB26_6:                               # %func_BZ2_bzReadGetUnused.201
	.cfi_def_cfa %rbp, 16
	movq	%rbx, %rdi
	movq	%r12, %rsi
	movq	%r15, %rdx
	movq	%r14, %rcx
	callq	BZ2_bzReadGetUnused.201
	popq	%rbx
	popq	%r12
	popq	%r14
	popq	%r15
	popq	%rbp
	.cfi_def_cfa %rsp, 8
	retq
.LBB26_7:                               # %func_BZ2_bzReadGetUnused.240
	.cfi_def_cfa %rbp, 16
	movq	%rbx, %rdi
	movq	%r12, %rsi
	movq	%r15, %rdx
	movq	%r14, %rcx
	callq	BZ2_bzReadGetUnused.240
	popq	%rbx
	popq	%r12
	popq	%r14
	popq	%r15
	popq	%rbp
	.cfi_def_cfa %rsp, 8
	retq
.LBB26_8:                               # %func_BZ2_bzReadGetUnused.241
	.cfi_def_cfa %rbp, 16
	movq	%rbx, %rdi
	movq	%r12, %rsi
	movq	%r15, %rdx
	movq	%r14, %rcx
	callq	BZ2_bzReadGetUnused.241
	popq	%rbx
	popq	%r12
	popq	%r14
	popq	%r15
	popq	%rbp
	.cfi_def_cfa %rsp, 8
	retq
.LBB26_9:                               # %func_BZ2_bzReadGetUnused.291
	.cfi_def_cfa %rbp, 16
	movq	%rbx, %rdi
	movq	%r12, %rsi
	movq	%r15, %rdx
	movq	%r14, %rcx
	callq	BZ2_bzReadGetUnused.291
	popq	%rbx
	popq	%r12
	popq	%r14
	popq	%r15
	popq	%rbp
	.cfi_def_cfa %rsp, 8
	retq
.LBB26_10:                              # %func_BZ2_bzReadGetUnused.306
	.cfi_def_cfa %rbp, 16
	movq	%rbx, %rdi
	movq	%r12, %rsi
	movq	%r15, %rdx
	movq	%r14, %rcx
	callq	BZ2_bzReadGetUnused.306
	popq	%rbx
	popq	%r12
	popq	%r14
	popq	%r15
	popq	%rbp
	.cfi_def_cfa %rsp, 8
	retq
.LBB26_11:                              # %func_BZ2_bzReadGetUnused.317
	.cfi_def_cfa %rbp, 16
	movq	%rbx, %rdi
	movq	%r12, %rsi
	movq	%r15, %rdx
	movq	%r14, %rcx
	callq	BZ2_bzReadGetUnused.317
	popq	%rbx
	popq	%r12
	popq	%r14
	popq	%r15
	popq	%rbp
	.cfi_def_cfa %rsp, 8
	retq
.LBB26_12:                              # %func_BZ2_bzReadGetUnused.319
	.cfi_def_cfa %rbp, 16
	movq	%rbx, %rdi
	movq	%r12, %rsi
	movq	%r15, %rdx
	movq	%r14, %rcx
	callq	BZ2_bzReadGetUnused.319
	popq	%rbx
	popq	%r12
	popq	%r14
	popq	%r15
	popq	%rbp
	.cfi_def_cfa %rsp, 8
	retq
.LBB26_13:                              # %func_BZ2_bzReadGetUnused.334
	.cfi_def_cfa %rbp, 16
	movq	%rbx, %rdi
	movq	%r12, %rsi
	movq	%r15, %rdx
	movq	%r14, %rcx
	callq	BZ2_bzReadGetUnused.334
	popq	%rbx
	popq	%r12
	popq	%r14
	popq	%r15
	popq	%rbp
	.cfi_def_cfa %rsp, 8
	retq
.LBB26_14:                              # %func_BZ2_bzReadGetUnused.362
	.cfi_def_cfa %rbp, 16
	movq	%rbx, %rdi
	movq	%r12, %rsi
	movq	%r15, %rdx
	movq	%r14, %rcx
	callq	BZ2_bzReadGetUnused.362
	popq	%rbx
	popq	%r12
	popq	%r14
	popq	%r15
	popq	%rbp
	.cfi_def_cfa %rsp, 8
	retq
.LBB26_15:                              # %func_BZ2_bzReadGetUnused.363
	.cfi_def_cfa %rbp, 16
	movq	%rbx, %rdi
	movq	%r12, %rsi
	movq	%r15, %rdx
	movq	%r14, %rcx
	callq	BZ2_bzReadGetUnused.363
	popq	%rbx
	popq	%r12
	popq	%r14
	popq	%r15
	popq	%rbp
	.cfi_def_cfa %rsp, 8
	retq
.LBB26_16:                              # %func_BZ2_bzReadGetUnused.373
	.cfi_def_cfa %rbp, 16
	movq	%rbx, %rdi
	movq	%r12, %rsi
	movq	%r15, %rdx
	movq	%r14, %rcx
	callq	BZ2_bzReadGetUnused.373
	popq	%rbx
	popq	%r12
	popq	%r14
	popq	%r15
	popq	%rbp
	.cfi_def_cfa %rsp, 8
	retq
.LBB26_17:                              # %ctrl0
	.cfi_def_cfa %rbp, 16
	cmpl	$1, %eax
	je	.LBB26_2
# %bb.18:                               # %ctrl1
	cmpl	$2, %eax
	je	.LBB26_3
# %bb.19:                               # %ctrl2
	cmpl	$3, %eax
	je	.LBB26_4
# %bb.20:                               # %ctrl3
	cmpl	$4, %eax
	je	.LBB26_5
# %bb.21:                               # %ctrl4
	cmpl	$5, %eax
	je	.LBB26_6
# %bb.22:                               # %ctrl5
	cmpl	$6, %eax
	je	.LBB26_7
# %bb.23:                               # %ctrl6
	cmpl	$7, %eax
	je	.LBB26_8
# %bb.24:                               # %ctrl7
	cmpl	$8, %eax
	je	.LBB26_9
# %bb.25:                               # %ctrl8
	cmpl	$9, %eax
	je	.LBB26_10
# %bb.26:                               # %ctrl9
	cmpl	$10, %eax
	je	.LBB26_11
# %bb.27:                               # %ctrl10
	cmpl	$11, %eax
	je	.LBB26_12
# %bb.28:                               # %ctrl11
	cmpl	$12, %eax
	je	.LBB26_13
# %bb.29:                               # %ctrl12
	cmpl	$13, %eax
	je	.LBB26_14
# %bb.30:                               # %ctrl13
	cmpl	$14, %eax
	je	.LBB26_15
	jmp	.LBB26_16
.Lfunc_end26:
	.size	BZ2_bzReadGetUnused, .Lfunc_end26-BZ2_bzReadGetUnused
	.cfi_endproc
                                        # -- End function
	.globl	BZ2_bzBuffToBuffCompress # -- Begin function BZ2_bzBuffToBuffCompress
	.p2align	4, 0x90
	.type	BZ2_bzBuffToBuffCompress,@function
BZ2_bzBuffToBuffCompress:               # @BZ2_bzBuffToBuffCompress
	.cfi_startproc
# %bb.0:                                # %rand_bb
	pushq	%rbp
	.cfi_def_cfa_offset 16
	.cfi_offset %rbp, -16
	movq	%rsp, %rbp
	.cfi_def_cfa_register %rbp
	pushq	%r15
	pushq	%r14
	pushq	%r13
	pushq	%r12
	pushq	%rbx
	subq	$24, %rsp
	.cfi_offset %rbx, -56
	.cfi_offset %r12, -48
	.cfi_offset %r13, -40
	.cfi_offset %r14, -32
	.cfi_offset %r15, -24
	movl	%r9d, -44(%rbp)         # 4-byte Spill
	movl	%r8d, %r13d
	movl	%ecx, %ebx
	movq	%rdx, %r14
	movq	%rsi, %r15
	movq	%rdi, %r12
	callq	get_rand
	cmpl	$0, %eax
	jne	.LBB27_17
# %bb.1:                                # %func_BZ2_bzBuffToBuffCompress.4
	movq	%r12, %rdi
	movq	%r15, %rsi
	movq	%r14, %rdx
	movl	%ebx, %ecx
	movl	%r13d, %r8d
	movl	-44(%rbp), %r9d         # 4-byte Reload
	movl	16(%rbp), %eax
	movl	%eax, (%rsp)
	callq	BZ2_bzBuffToBuffCompress.4
	addq	$24, %rsp
	popq	%rbx
	popq	%r12
	popq	%r13
	popq	%r14
	popq	%r15
	popq	%rbp
	.cfi_def_cfa %rsp, 8
	retq
.LBB27_2:                               # %func_BZ2_bzBuffToBuffCompress.25
	.cfi_def_cfa %rbp, 16
	movq	%r15, %rsi
	movl	%r12d, %r9d
	movl	16(%rbp), %eax
	movl	%eax, (%rsp)
	callq	BZ2_bzBuffToBuffCompress.25
	addq	$24, %rsp
	popq	%rbx
	popq	%r12
	popq	%r13
	popq	%r14
	popq	%r15
	popq	%rbp
	.cfi_def_cfa %rsp, 8
	retq
.LBB27_3:                               # %func_BZ2_bzBuffToBuffCompress.30
	.cfi_def_cfa %rbp, 16
	movq	%r10, %rdi
	movq	%rbx, %rdx
	movl	%r14d, %ecx
	movl	%r13d, %r8d
	movl	%r11d, (%rsp)
	callq	BZ2_bzBuffToBuffCompress.30
	addq	$24, %rsp
	popq	%rbx
	popq	%r12
	popq	%r13
	popq	%r14
	popq	%r15
	popq	%rbp
	.cfi_def_cfa %rsp, 8
	retq
.LBB27_4:                               # %func_BZ2_bzBuffToBuffCompress.114
	.cfi_def_cfa %rbp, 16
	movq	%r10, %rdi
	movq	-56(%rbp), %rsi         # 8-byte Reload
	movq	%rbx, %rdx
	movl	%r14d, %ecx
	movl	%r13d, %r8d
	movl	-44(%rbp), %r9d         # 4-byte Reload
	movl	%r11d, (%rsp)
	callq	BZ2_bzBuffToBuffCompress.114
	addq	$24, %rsp
	popq	%rbx
	popq	%r12
	popq	%r13
	popq	%r14
	popq	%r15
	popq	%rbp
	.cfi_def_cfa %rsp, 8
	retq
.LBB27_5:                               # %func_BZ2_bzBuffToBuffCompress.135
	.cfi_def_cfa %rbp, 16
	movq	%r10, %rdi
	movq	-56(%rbp), %rsi         # 8-byte Reload
	movq	%rbx, %rdx
	movl	%r14d, %ecx
	movl	%r9d, %r8d
	movl	-44(%rbp), %r9d         # 4-byte Reload
	movl	%r11d, (%rsp)
	callq	BZ2_bzBuffToBuffCompress.135
	addq	$24, %rsp
	popq	%rbx
	popq	%r12
	popq	%r13
	popq	%r14
	popq	%r15
	popq	%rbp
	.cfi_def_cfa %rsp, 8
	retq
.LBB27_6:                               # %func_BZ2_bzBuffToBuffCompress.178
	.cfi_def_cfa %rbp, 16
	movq	%r10, %rdi
	movq	-56(%rbp), %rsi         # 8-byte Reload
	movq	%rbx, %rdx
	movl	%r13d, %ecx
	movl	%r9d, %r8d
	movl	-44(%rbp), %r9d         # 4-byte Reload
	movl	%r11d, (%rsp)
	callq	BZ2_bzBuffToBuffCompress.178
	addq	$24, %rsp
	popq	%rbx
	popq	%r12
	popq	%r13
	popq	%r14
	popq	%r15
	popq	%rbp
	.cfi_def_cfa %rsp, 8
	retq
.LBB27_7:                               # %func_BZ2_bzBuffToBuffCompress.204
	.cfi_def_cfa %rbp, 16
	movq	%r10, %rdi
	movq	-56(%rbp), %rsi         # 8-byte Reload
	movq	%r14, %rdx
	movl	%r13d, %ecx
	movl	%r9d, %r8d
	movl	-44(%rbp), %r9d         # 4-byte Reload
	movl	%r11d, (%rsp)
	callq	BZ2_bzBuffToBuffCompress.204
	addq	$24, %rsp
	popq	%rbx
	popq	%r12
	popq	%r13
	popq	%r14
	popq	%r15
	popq	%rbp
	.cfi_def_cfa %rsp, 8
	retq
.LBB27_8:                               # %func_BZ2_bzBuffToBuffCompress.224
	.cfi_def_cfa %rbp, 16
	movq	%r10, %rdi
	movq	%rbx, %rsi
	movq	%r14, %rdx
	movl	%r13d, %ecx
	movl	%r9d, %r8d
	movl	-44(%rbp), %r9d         # 4-byte Reload
	movl	%r11d, (%rsp)
	callq	BZ2_bzBuffToBuffCompress.224
	addq	$24, %rsp
	popq	%rbx
	popq	%r12
	popq	%r13
	popq	%r14
	popq	%r15
	popq	%rbp
	.cfi_def_cfa %rsp, 8
	retq
.LBB27_9:                               # %func_BZ2_bzBuffToBuffCompress.242
	.cfi_def_cfa %rbp, 16
	movq	%r10, %rdi
	movq	%rbx, %rsi
	movq	%r14, %rdx
	movl	%r13d, %ecx
	movl	%r9d, %r8d
	movl	-44(%rbp), %r9d         # 4-byte Reload
	movl	%r11d, (%rsp)
	callq	BZ2_bzBuffToBuffCompress.242
	addq	$24, %rsp
	popq	%rbx
	popq	%r12
	popq	%r13
	popq	%r14
	popq	%r15
	popq	%rbp
	.cfi_def_cfa %rsp, 8
	retq
.LBB27_10:                              # %func_BZ2_bzBuffToBuffCompress.255
	.cfi_def_cfa %rbp, 16
	movq	%r10, %rdi
	movq	%rbx, %rsi
	movq	%r14, %rdx
	movl	%r13d, %ecx
	movl	%r9d, %r8d
	movl	-44(%rbp), %r9d         # 4-byte Reload
	movl	%r11d, (%rsp)
	callq	BZ2_bzBuffToBuffCompress.255
	addq	$24, %rsp
	popq	%rbx
	popq	%r12
	popq	%r13
	popq	%r14
	popq	%r15
	popq	%rbp
	.cfi_def_cfa %rsp, 8
	retq
.LBB27_11:                              # %func_BZ2_bzBuffToBuffCompress.259
	.cfi_def_cfa %rbp, 16
	movq	%r10, %rdi
	movq	%rbx, %rsi
	movq	%r14, %rdx
	movl	%r13d, %ecx
	movl	%r9d, %r8d
	movl	-44(%rbp), %r9d         # 4-byte Reload
	movl	%r11d, (%rsp)
	callq	BZ2_bzBuffToBuffCompress.259
	addq	$24, %rsp
	popq	%rbx
	popq	%r12
	popq	%r13
	popq	%r14
	popq	%r15
	popq	%rbp
	.cfi_def_cfa %rsp, 8
	retq
.LBB27_12:                              # %func_BZ2_bzBuffToBuffCompress.262
	.cfi_def_cfa %rbp, 16
	movq	%r10, %rdi
	movq	%rbx, %rsi
	movq	%r14, %rdx
	movl	%r13d, %ecx
	movl	%r9d, %r8d
	movl	-44(%rbp), %r9d         # 4-byte Reload
	movl	%r11d, (%rsp)
	callq	BZ2_bzBuffToBuffCompress.262
	addq	$24, %rsp
	popq	%rbx
	popq	%r12
	popq	%r13
	popq	%r14
	popq	%r15
	popq	%rbp
	.cfi_def_cfa %rsp, 8
	retq
.LBB27_13:                              # %func_BZ2_bzBuffToBuffCompress.303
	.cfi_def_cfa %rbp, 16
	movq	%r10, %rdi
	movq	%rbx, %rsi
	movq	%r14, %rdx
	movl	%r13d, %ecx
	movl	%r9d, %r8d
	movl	-44(%rbp), %r9d         # 4-byte Reload
	movl	%r11d, (%rsp)
	callq	BZ2_bzBuffToBuffCompress.303
	addq	$24, %rsp
	popq	%rbx
	popq	%r12
	popq	%r13
	popq	%r14
	popq	%r15
	popq	%rbp
	.cfi_def_cfa %rsp, 8
	retq
.LBB27_14:                              # %func_BZ2_bzBuffToBuffCompress.321
	.cfi_def_cfa %rbp, 16
	movq	%r10, %rdi
	movq	%rbx, %rsi
	movq	%r14, %rdx
	movl	%r13d, %ecx
	movl	%r9d, %r8d
	movl	-44(%rbp), %r9d         # 4-byte Reload
	movl	%r11d, (%rsp)
	callq	BZ2_bzBuffToBuffCompress.321
	addq	$24, %rsp
	popq	%rbx
	popq	%r12
	popq	%r13
	popq	%r14
	popq	%r15
	popq	%rbp
	.cfi_def_cfa %rsp, 8
	retq
.LBB27_15:                              # %func_BZ2_bzBuffToBuffCompress.337
	.cfi_def_cfa %rbp, 16
	movq	%r15, %rsi
	movl	%r12d, %r9d
	movl	16(%rbp), %eax
	movl	%eax, (%rsp)
	callq	BZ2_bzBuffToBuffCompress.337
	addq	$24, %rsp
	popq	%rbx
	popq	%r12
	popq	%r13
	popq	%r14
	popq	%r15
	popq	%rbp
	.cfi_def_cfa %rsp, 8
	retq
.LBB27_16:                              # %func_BZ2_bzBuffToBuffCompress.384
	.cfi_def_cfa %rbp, 16
	movq	%r15, %rsi
	movl	%r12d, %r9d
	movl	16(%rbp), %eax
	movl	%eax, (%rsp)
	callq	BZ2_bzBuffToBuffCompress.384
	addq	$24, %rsp
	popq	%rbx
	popq	%r12
	popq	%r13
	popq	%r14
	popq	%r15
	popq	%rbp
	.cfi_def_cfa %rsp, 8
	retq
.LBB27_17:                              # %ctrl0
	.cfi_def_cfa %rbp, 16
	movq	%r12, %rdi
	movq	%r14, %rdx
	movl	%ebx, %ecx
	movl	%r13d, %r8d
	movl	-44(%rbp), %r12d        # 4-byte Reload
	cmpl	$1, %eax
	je	.LBB27_2
# %bb.18:                               # %ctrl1
	cmpl	$2, %eax
	movl	16(%rbp), %r11d
	movl	%r12d, %r9d
	movl	%r8d, %r13d
	movl	%ecx, %r14d
	movq	%rdx, %rbx
	movq	%r15, %rsi
	movq	%rdi, %r10
	je	.LBB27_3
# %bb.19:                               # %ctrl2
	movq	%rsi, -56(%rbp)         # 8-byte Spill
	cmpl	$3, %eax
	je	.LBB27_4
# %bb.20:                               # %ctrl3
	cmpl	$4, %eax
	movl	%r13d, %r9d
	je	.LBB27_5
# %bb.21:                               # %ctrl4
	cmpl	$5, %eax
	movl	%r14d, %r13d
	je	.LBB27_6
# %bb.22:                               # %ctrl5
	cmpl	$6, %eax
	movq	%rbx, %r14
	je	.LBB27_7
# %bb.23:                               # %ctrl6
	cmpl	$7, %eax
	movq	-56(%rbp), %rbx         # 8-byte Reload
	je	.LBB27_8
# %bb.24:                               # %ctrl7
	cmpl	$8, %eax
	je	.LBB27_9
# %bb.25:                               # %ctrl8
	cmpl	$9, %eax
	je	.LBB27_10
# %bb.26:                               # %ctrl9
	cmpl	$10, %eax
	je	.LBB27_11
# %bb.27:                               # %ctrl10
	cmpl	$11, %eax
	je	.LBB27_12
# %bb.28:                               # %ctrl11
	cmpl	$12, %eax
	je	.LBB27_13
# %bb.29:                               # %ctrl12
	cmpl	$13, %eax
	je	.LBB27_14
# %bb.30:                               # %ctrl13
	cmpl	$14, %eax
	je	.LBB27_15
	jmp	.LBB27_16
.Lfunc_end27:
	.size	BZ2_bzBuffToBuffCompress, .Lfunc_end27-BZ2_bzBuffToBuffCompress
	.cfi_endproc
                                        # -- End function
	.globl	BZ2_bzBuffToBuffDecompress # -- Begin function BZ2_bzBuffToBuffDecompress
	.p2align	4, 0x90
	.type	BZ2_bzBuffToBuffDecompress,@function
BZ2_bzBuffToBuffDecompress:             # @BZ2_bzBuffToBuffDecompress
	.cfi_startproc
# %bb.0:                                # %rand_bb
	pushq	%rbp
	.cfi_def_cfa_offset 16
	.cfi_offset %rbp, -16
	movq	%rsp, %rbp
	.cfi_def_cfa_register %rbp
	pushq	%r15
	pushq	%r14
	pushq	%r13
	pushq	%r12
	pushq	%rbx
	pushq	%rax
	.cfi_offset %rbx, -56
	.cfi_offset %r12, -48
	.cfi_offset %r13, -40
	.cfi_offset %r14, -32
	.cfi_offset %r15, -24
	movl	%r9d, -44(%rbp)         # 4-byte Spill
	movl	%r8d, %r12d
	movl	%ecx, %r13d
	movq	%rdx, %rbx
	movq	%rsi, %r14
	movq	%rdi, %r15
	callq	get_rand
	cmpl	$0, %eax
	jne	.LBB28_17
# %bb.1:                                # %func_BZ2_bzBuffToBuffDecompress.131
	movq	%r15, %rdi
	movq	%r14, %rsi
	movq	%rbx, %rdx
	movl	%r13d, %ecx
	movl	%r12d, %r8d
	movl	-44(%rbp), %r9d         # 4-byte Reload
	callq	BZ2_bzBuffToBuffDecompress.131
	addq	$8, %rsp
	popq	%rbx
	popq	%r12
	popq	%r13
	popq	%r14
	popq	%r15
	popq	%rbp
	.cfi_def_cfa %rsp, 8
	retq
.LBB28_2:                               # %func_BZ2_bzBuffToBuffDecompress.157
	.cfi_def_cfa %rbp, 16
	movl	%r13d, %ecx
	movl	%r11d, %r8d
	movl	%r10d, %r9d
	callq	BZ2_bzBuffToBuffDecompress.157
	addq	$8, %rsp
	popq	%rbx
	popq	%r12
	popq	%r13
	popq	%r14
	popq	%r15
	popq	%rbp
	.cfi_def_cfa %rsp, 8
	retq
.LBB28_3:                               # %func_BZ2_bzBuffToBuffDecompress.218
	.cfi_def_cfa %rbp, 16
	movq	%rbx, %rdi
	movq	%r14, %rsi
	movq	%r12, %rdx
	movl	%r15d, %ecx
	callq	BZ2_bzBuffToBuffDecompress.218
	addq	$8, %rsp
	popq	%rbx
	popq	%r12
	popq	%r13
	popq	%r14
	popq	%r15
	popq	%rbp
	.cfi_def_cfa %rsp, 8
	retq
.LBB28_4:                               # %func_BZ2_bzBuffToBuffDecompress.258
	.cfi_def_cfa %rbp, 16
	movq	%rbx, %rdi
	movq	%r14, %rsi
	movq	%r12, %rdx
	movl	%r15d, %ecx
	callq	BZ2_bzBuffToBuffDecompress.258
	addq	$8, %rsp
	popq	%rbx
	popq	%r12
	popq	%r13
	popq	%r14
	popq	%r15
	popq	%rbp
	.cfi_def_cfa %rsp, 8
	retq
.LBB28_5:                               # %func_BZ2_bzBuffToBuffDecompress.283
	.cfi_def_cfa %rbp, 16
	movq	%rbx, %rdi
	movq	%r14, %rsi
	movq	%r12, %rdx
	movl	%r15d, %ecx
	callq	BZ2_bzBuffToBuffDecompress.283
	addq	$8, %rsp
	popq	%rbx
	popq	%r12
	popq	%r13
	popq	%r14
	popq	%r15
	popq	%rbp
	.cfi_def_cfa %rsp, 8
	retq
.LBB28_6:                               # %func_BZ2_bzBuffToBuffDecompress.299
	.cfi_def_cfa %rbp, 16
	movq	%rbx, %rdi
	movq	%r14, %rsi
	movq	%r12, %rdx
	movl	%r15d, %ecx
	callq	BZ2_bzBuffToBuffDecompress.299
	addq	$8, %rsp
	popq	%rbx
	popq	%r12
	popq	%r13
	popq	%r14
	popq	%r15
	popq	%rbp
	.cfi_def_cfa %rsp, 8
	retq
.LBB28_7:                               # %func_BZ2_bzBuffToBuffDecompress.335
	.cfi_def_cfa %rbp, 16
	movq	%rbx, %rdi
	movq	%r14, %rsi
	movq	%r12, %rdx
	movl	%r15d, %ecx
	callq	BZ2_bzBuffToBuffDecompress.335
	addq	$8, %rsp
	popq	%rbx
	popq	%r12
	popq	%r13
	popq	%r14
	popq	%r15
	popq	%rbp
	.cfi_def_cfa %rsp, 8
	retq
.LBB28_8:                               # %func_BZ2_bzBuffToBuffDecompress.338
	.cfi_def_cfa %rbp, 16
	movq	%rbx, %rdi
	movq	%r14, %rsi
	movq	%r12, %rdx
	movl	%r15d, %ecx
	callq	BZ2_bzBuffToBuffDecompress.338
	addq	$8, %rsp
	popq	%rbx
	popq	%r12
	popq	%r13
	popq	%r14
	popq	%r15
	popq	%rbp
	.cfi_def_cfa %rsp, 8
	retq
.LBB28_9:                               # %func_BZ2_bzBuffToBuffDecompress.341
	.cfi_def_cfa %rbp, 16
	movq	%rbx, %rdi
	movq	%r14, %rsi
	movq	%r12, %rdx
	movl	%r15d, %ecx
	callq	BZ2_bzBuffToBuffDecompress.341
	addq	$8, %rsp
	popq	%rbx
	popq	%r12
	popq	%r13
	popq	%r14
	popq	%r15
	popq	%rbp
	.cfi_def_cfa %rsp, 8
	retq
.LBB28_10:                              # %func_BZ2_bzBuffToBuffDecompress.347
	.cfi_def_cfa %rbp, 16
	movq	%rbx, %rdi
	movq	%r14, %rsi
	movq	%r12, %rdx
	movl	%r15d, %ecx
	callq	BZ2_bzBuffToBuffDecompress.347
	addq	$8, %rsp
	popq	%rbx
	popq	%r12
	popq	%r13
	popq	%r14
	popq	%r15
	popq	%rbp
	.cfi_def_cfa %rsp, 8
	retq
.LBB28_11:                              # %func_BZ2_bzBuffToBuffDecompress.354
	.cfi_def_cfa %rbp, 16
	movq	%rbx, %rdi
	movq	%r14, %rsi
	movq	%r12, %rdx
	movl	%r15d, %ecx
	callq	BZ2_bzBuffToBuffDecompress.354
	addq	$8, %rsp
	popq	%rbx
	popq	%r12
	popq	%r13
	popq	%r14
	popq	%r15
	popq	%rbp
	.cfi_def_cfa %rsp, 8
	retq
.LBB28_12:                              # %func_BZ2_bzBuffToBuffDecompress.361
	.cfi_def_cfa %rbp, 16
	movq	%rbx, %rdi
	movq	%r14, %rsi
	movq	%r12, %rdx
	movl	%r15d, %ecx
	callq	BZ2_bzBuffToBuffDecompress.361
	addq	$8, %rsp
	popq	%rbx
	popq	%r12
	popq	%r13
	popq	%r14
	popq	%r15
	popq	%rbp
	.cfi_def_cfa %rsp, 8
	retq
.LBB28_13:                              # %func_BZ2_bzBuffToBuffDecompress.372
	.cfi_def_cfa %rbp, 16
	movq	%rbx, %rdi
	movq	%r14, %rsi
	movq	%r12, %rdx
	movl	%r15d, %ecx
	callq	BZ2_bzBuffToBuffDecompress.372
	addq	$8, %rsp
	popq	%rbx
	popq	%r12
	popq	%r13
	popq	%r14
	popq	%r15
	popq	%rbp
	.cfi_def_cfa %rsp, 8
	retq
.LBB28_14:                              # %func_BZ2_bzBuffToBuffDecompress.385
	.cfi_def_cfa %rbp, 16
	movq	%rbx, %rdi
	movq	%r14, %rsi
	movq	%r12, %rdx
	movl	%r15d, %ecx
	callq	BZ2_bzBuffToBuffDecompress.385
	addq	$8, %rsp
	popq	%rbx
	popq	%r12
	popq	%r13
	popq	%r14
	popq	%r15
	popq	%rbp
	.cfi_def_cfa %rsp, 8
	retq
.LBB28_15:                              # %func_BZ2_bzBuffToBuffDecompress.389
	.cfi_def_cfa %rbp, 16
	movl	%r13d, %ecx
	movl	%r11d, %r8d
	movl	%r10d, %r9d
	callq	BZ2_bzBuffToBuffDecompress.389
	addq	$8, %rsp
	popq	%rbx
	popq	%r12
	popq	%r13
	popq	%r14
	popq	%r15
	popq	%rbp
	.cfi_def_cfa %rsp, 8
	retq
.LBB28_16:                              # %func_BZ2_bzBuffToBuffDecompress.391
	.cfi_def_cfa %rbp, 16
	movl	%r13d, %ecx
	movl	%r11d, %r8d
	movl	%r10d, %r9d
	callq	BZ2_bzBuffToBuffDecompress.391
	addq	$8, %rsp
	popq	%rbx
	popq	%r12
	popq	%r13
	popq	%r14
	popq	%r15
	popq	%rbp
	.cfi_def_cfa %rsp, 8
	retq
.LBB28_17:                              # %ctrl0
	.cfi_def_cfa %rbp, 16
	movq	%r15, %rdi
	movq	%r14, %rsi
	movq	%rbx, %rdx
	movl	%r12d, %r11d
	movl	-44(%rbp), %r10d        # 4-byte Reload
	cmpl	$1, %eax
	je	.LBB28_2
# %bb.18:                               # %ctrl1
	cmpl	$2, %eax
	movl	%r10d, %r9d
	movl	%r11d, %r8d
	movl	%r13d, %r15d
	movq	%rdx, %r12
	movq	%rsi, %r14
	movq	%rdi, %rbx
	je	.LBB28_3
# %bb.19:                               # %ctrl2
	cmpl	$3, %eax
	je	.LBB28_4
# %bb.20:                               # %ctrl3
	cmpl	$4, %eax
	je	.LBB28_5
# %bb.21:                               # %ctrl4
	cmpl	$5, %eax
	je	.LBB28_6
# %bb.22:                               # %ctrl5
	cmpl	$6, %eax
	je	.LBB28_7
# %bb.23:                               # %ctrl6
	cmpl	$7, %eax
	je	.LBB28_8
# %bb.24:                               # %ctrl7
	cmpl	$8, %eax
	je	.LBB28_9
# %bb.25:                               # %ctrl8
	cmpl	$9, %eax
	je	.LBB28_10
# %bb.26:                               # %ctrl9
	cmpl	$10, %eax
	je	.LBB28_11
# %bb.27:                               # %ctrl10
	cmpl	$11, %eax
	je	.LBB28_12
# %bb.28:                               # %ctrl11
	cmpl	$12, %eax
	je	.LBB28_13
# %bb.29:                               # %ctrl12
	cmpl	$13, %eax
	je	.LBB28_14
# %bb.30:                               # %ctrl13
	cmpl	$14, %eax
	je	.LBB28_15
	jmp	.LBB28_16
.Lfunc_end28:
	.size	BZ2_bzBuffToBuffDecompress, .Lfunc_end28-BZ2_bzBuffToBuffDecompress
	.cfi_endproc
                                        # -- End function
	.globl	BZ2_bzopen              # -- Begin function BZ2_bzopen
	.p2align	4, 0x90
	.type	BZ2_bzopen,@function
BZ2_bzopen:                             # @BZ2_bzopen
	.cfi_startproc
# %bb.0:                                # %rand_bb
	pushq	%rbp
	.cfi_def_cfa_offset 16
	.cfi_offset %rbp, -16
	movq	%rsp, %rbp
	.cfi_def_cfa_register %rbp
	pushq	%r14
	pushq	%rbx
	.cfi_offset %rbx, -32
	.cfi_offset %r14, -24
	movq	%rsi, %r14
	movq	%rdi, %rbx
	callq	get_rand
	cmpl	$0, %eax
	jne	.LBB29_2
# %bb.1:                                # %func_BZ2_bzopen.29
	movq	%rbx, %rdi
	movq	%r14, %rsi
	callq	BZ2_bzopen.29
	popq	%rbx
	popq	%r14
	popq	%rbp
	.cfi_def_cfa %rsp, 8
	retq
.LBB29_2:                               # %func_BZ2_bzopen.36
	.cfi_def_cfa %rbp, 16
	movq	%rbx, %rdi
	movq	%r14, %rsi
	callq	BZ2_bzopen.36
	popq	%rbx
	popq	%r14
	popq	%rbp
	.cfi_def_cfa %rsp, 8
	retq
.Lfunc_end29:
	.size	BZ2_bzopen, .Lfunc_end29-BZ2_bzopen
	.cfi_endproc
                                        # -- End function
	.p2align	4, 0x90         # -- Begin function bzopen_or_bzdopen
	.type	bzopen_or_bzdopen,@function
bzopen_or_bzdopen:                      # @bzopen_or_bzdopen
	.cfi_startproc
# %bb.0:                                # %rand_bb
	pushq	%rbp
	.cfi_def_cfa_offset 16
	.cfi_offset %rbp, -16
	movq	%rsp, %rbp
	.cfi_def_cfa_register %rbp
	pushq	%r15
	pushq	%r14
	pushq	%r12
	pushq	%rbx
	.cfi_offset %rbx, -48
	.cfi_offset %r12, -40
	.cfi_offset %r14, -32
	.cfi_offset %r15, -24
	movl	%ecx, %r14d
	movq	%rdx, %r15
	movl	%esi, %r12d
	movq	%rdi, %rbx
	callq	get_rand
	cmpl	$0, %eax
	jne	.LBB30_17
# %bb.1:                                # %func_bzopen_or_bzdopen.34
	movq	%rbx, %rdi
	movl	%r12d, %esi
	movq	%r15, %rdx
	movl	%r14d, %ecx
	callq	bzopen_or_bzdopen.34
	popq	%rbx
	popq	%r12
	popq	%r14
	popq	%r15
	popq	%rbp
	.cfi_def_cfa %rsp, 8
	retq
.LBB30_2:                               # %func_bzopen_or_bzdopen.88
	.cfi_def_cfa %rbp, 16
	movq	%rbx, %rdi
	movl	%r12d, %esi
	movq	%r15, %rdx
	movl	%r14d, %ecx
	callq	bzopen_or_bzdopen.88
	popq	%rbx
	popq	%r12
	popq	%r14
	popq	%r15
	popq	%rbp
	.cfi_def_cfa %rsp, 8
	retq
.LBB30_3:                               # %func_bzopen_or_bzdopen.94
	.cfi_def_cfa %rbp, 16
	movq	%rbx, %rdi
	movl	%r12d, %esi
	movq	%r15, %rdx
	movl	%r14d, %ecx
	callq	bzopen_or_bzdopen.94
	popq	%rbx
	popq	%r12
	popq	%r14
	popq	%r15
	popq	%rbp
	.cfi_def_cfa %rsp, 8
	retq
.LBB30_4:                               # %func_bzopen_or_bzdopen.104
	.cfi_def_cfa %rbp, 16
	movq	%rbx, %rdi
	movl	%r12d, %esi
	movq	%r15, %rdx
	movl	%r14d, %ecx
	callq	bzopen_or_bzdopen.104
	popq	%rbx
	popq	%r12
	popq	%r14
	popq	%r15
	popq	%rbp
	.cfi_def_cfa %rsp, 8
	retq
.LBB30_5:                               # %func_bzopen_or_bzdopen.129
	.cfi_def_cfa %rbp, 16
	movq	%rbx, %rdi
	movl	%r12d, %esi
	movq	%r15, %rdx
	movl	%r14d, %ecx
	callq	bzopen_or_bzdopen.129
	popq	%rbx
	popq	%r12
	popq	%r14
	popq	%r15
	popq	%rbp
	.cfi_def_cfa %rsp, 8
	retq
.LBB30_6:                               # %func_bzopen_or_bzdopen.130
	.cfi_def_cfa %rbp, 16
	movq	%rbx, %rdi
	movl	%r12d, %esi
	movq	%r15, %rdx
	movl	%r14d, %ecx
	callq	bzopen_or_bzdopen.130
	popq	%rbx
	popq	%r12
	popq	%r14
	popq	%r15
	popq	%rbp
	.cfi_def_cfa %rsp, 8
	retq
.LBB30_7:                               # %func_bzopen_or_bzdopen.183
	.cfi_def_cfa %rbp, 16
	movq	%rbx, %rdi
	movl	%r12d, %esi
	movq	%r15, %rdx
	movl	%r14d, %ecx
	callq	bzopen_or_bzdopen.183
	popq	%rbx
	popq	%r12
	popq	%r14
	popq	%r15
	popq	%rbp
	.cfi_def_cfa %rsp, 8
	retq
.LBB30_8:                               # %func_bzopen_or_bzdopen.184
	.cfi_def_cfa %rbp, 16
	movq	%rbx, %rdi
	movl	%r12d, %esi
	movq	%r15, %rdx
	movl	%r14d, %ecx
	callq	bzopen_or_bzdopen.184
	popq	%rbx
	popq	%r12
	popq	%r14
	popq	%r15
	popq	%rbp
	.cfi_def_cfa %rsp, 8
	retq
.LBB30_9:                               # %func_bzopen_or_bzdopen.211
	.cfi_def_cfa %rbp, 16
	movq	%rbx, %rdi
	movl	%r12d, %esi
	movq	%r15, %rdx
	movl	%r14d, %ecx
	callq	bzopen_or_bzdopen.211
	popq	%rbx
	popq	%r12
	popq	%r14
	popq	%r15
	popq	%rbp
	.cfi_def_cfa %rsp, 8
	retq
.LBB30_10:                              # %func_bzopen_or_bzdopen.212
	.cfi_def_cfa %rbp, 16
	movq	%rbx, %rdi
	movl	%r12d, %esi
	movq	%r15, %rdx
	movl	%r14d, %ecx
	callq	bzopen_or_bzdopen.212
	popq	%rbx
	popq	%r12
	popq	%r14
	popq	%r15
	popq	%rbp
	.cfi_def_cfa %rsp, 8
	retq
.LBB30_11:                              # %func_bzopen_or_bzdopen.243
	.cfi_def_cfa %rbp, 16
	movq	%rbx, %rdi
	movl	%r12d, %esi
	movq	%r15, %rdx
	movl	%r14d, %ecx
	callq	bzopen_or_bzdopen.243
	popq	%rbx
	popq	%r12
	popq	%r14
	popq	%r15
	popq	%rbp
	.cfi_def_cfa %rsp, 8
	retq
.LBB30_12:                              # %func_bzopen_or_bzdopen.250
	.cfi_def_cfa %rbp, 16
	movq	%rbx, %rdi
	movl	%r12d, %esi
	movq	%r15, %rdx
	movl	%r14d, %ecx
	callq	bzopen_or_bzdopen.250
	popq	%rbx
	popq	%r12
	popq	%r14
	popq	%r15
	popq	%rbp
	.cfi_def_cfa %rsp, 8
	retq
.LBB30_13:                              # %func_bzopen_or_bzdopen.252
	.cfi_def_cfa %rbp, 16
	movq	%rbx, %rdi
	movl	%r12d, %esi
	movq	%r15, %rdx
	movl	%r14d, %ecx
	callq	bzopen_or_bzdopen.252
	popq	%rbx
	popq	%r12
	popq	%r14
	popq	%r15
	popq	%rbp
	.cfi_def_cfa %rsp, 8
	retq
.LBB30_14:                              # %func_bzopen_or_bzdopen.260
	.cfi_def_cfa %rbp, 16
	movq	%rbx, %rdi
	movl	%r12d, %esi
	movq	%r15, %rdx
	movl	%r14d, %ecx
	callq	bzopen_or_bzdopen.260
	popq	%rbx
	popq	%r12
	popq	%r14
	popq	%r15
	popq	%rbp
	.cfi_def_cfa %rsp, 8
	retq
.LBB30_15:                              # %func_bzopen_or_bzdopen.264
	.cfi_def_cfa %rbp, 16
	movq	%rbx, %rdi
	movl	%r12d, %esi
	movq	%r15, %rdx
	movl	%r14d, %ecx
	callq	bzopen_or_bzdopen.264
	popq	%rbx
	popq	%r12
	popq	%r14
	popq	%r15
	popq	%rbp
	.cfi_def_cfa %rsp, 8
	retq
.LBB30_16:                              # %func_bzopen_or_bzdopen.288
	.cfi_def_cfa %rbp, 16
	movq	%rbx, %rdi
	movl	%r12d, %esi
	movq	%r15, %rdx
	movl	%r14d, %ecx
	callq	bzopen_or_bzdopen.288
	popq	%rbx
	popq	%r12
	popq	%r14
	popq	%r15
	popq	%rbp
	.cfi_def_cfa %rsp, 8
	retq
.LBB30_17:                              # %ctrl0
	.cfi_def_cfa %rbp, 16
	cmpl	$1, %eax
	je	.LBB30_2
# %bb.18:                               # %ctrl1
	cmpl	$2, %eax
	je	.LBB30_3
# %bb.19:                               # %ctrl2
	cmpl	$3, %eax
	je	.LBB30_4
# %bb.20:                               # %ctrl3
	cmpl	$4, %eax
	je	.LBB30_5
# %bb.21:                               # %ctrl4
	cmpl	$5, %eax
	je	.LBB30_6
# %bb.22:                               # %ctrl5
	cmpl	$6, %eax
	je	.LBB30_7
# %bb.23:                               # %ctrl6
	cmpl	$7, %eax
	je	.LBB30_8
# %bb.24:                               # %ctrl7
	cmpl	$8, %eax
	je	.LBB30_9
# %bb.25:                               # %ctrl8
	cmpl	$9, %eax
	je	.LBB30_10
# %bb.26:                               # %ctrl9
	cmpl	$10, %eax
	je	.LBB30_11
# %bb.27:                               # %ctrl10
	cmpl	$11, %eax
	je	.LBB30_12
# %bb.28:                               # %ctrl11
	cmpl	$12, %eax
	je	.LBB30_13
# %bb.29:                               # %ctrl12
	cmpl	$13, %eax
	je	.LBB30_14
# %bb.30:                               # %ctrl13
	cmpl	$14, %eax
	je	.LBB30_15
	jmp	.LBB30_16
.Lfunc_end30:
	.size	bzopen_or_bzdopen, .Lfunc_end30-bzopen_or_bzdopen
	.cfi_endproc
                                        # -- End function
	.globl	BZ2_bzdopen             # -- Begin function BZ2_bzdopen
	.p2align	4, 0x90
	.type	BZ2_bzdopen,@function
BZ2_bzdopen:                            # @BZ2_bzdopen
	.cfi_startproc
# %bb.0:                                # %rand_bb
	pushq	%rbp
	.cfi_def_cfa_offset 16
	.cfi_offset %rbp, -16
	movq	%rsp, %rbp
	.cfi_def_cfa_register %rbp
	pushq	%r14
	pushq	%rbx
	.cfi_offset %rbx, -32
	.cfi_offset %r14, -24
	movq	%rsi, %r14
	movl	%edi, %ebx
	callq	get_rand
	cmpl	$0, %eax
	jne	.LBB31_2
# %bb.1:                                # %func_BZ2_bzdopen.62
	movl	%ebx, %edi
	movq	%r14, %rsi
	callq	BZ2_bzdopen.62
	popq	%rbx
	popq	%r14
	popq	%rbp
	.cfi_def_cfa %rsp, 8
	retq
.LBB31_2:                               # %func_BZ2_bzdopen.202
	.cfi_def_cfa %rbp, 16
	movl	%ebx, %edi
	movq	%r14, %rsi
	callq	BZ2_bzdopen.202
	popq	%rbx
	popq	%r14
	popq	%rbp
	.cfi_def_cfa %rsp, 8
	retq
.Lfunc_end31:
	.size	BZ2_bzdopen, .Lfunc_end31-BZ2_bzdopen
	.cfi_endproc
                                        # -- End function
	.globl	BZ2_bzread              # -- Begin function BZ2_bzread
	.p2align	4, 0x90
	.type	BZ2_bzread,@function
BZ2_bzread:                             # @BZ2_bzread
	.cfi_startproc
# %bb.0:                                # %rand_bb
	pushq	%rbp
	.cfi_def_cfa_offset 16
	.cfi_offset %rbp, -16
	movq	%rsp, %rbp
	.cfi_def_cfa_register %rbp
	pushq	%r15
	pushq	%r14
	pushq	%rbx
	pushq	%rax
	.cfi_offset %rbx, -40
	.cfi_offset %r14, -32
	.cfi_offset %r15, -24
	movl	%edx, %r14d
	movq	%rsi, %r15
	movq	%rdi, %rbx
	callq	get_rand
	cmpl	$0, %eax
	jne	.LBB32_17
# %bb.1:                                # %func_BZ2_bzread.21
	movq	%rbx, %rdi
	movq	%r15, %rsi
	movl	%r14d, %edx
	callq	BZ2_bzread.21
	addq	$8, %rsp
	popq	%rbx
	popq	%r14
	popq	%r15
	popq	%rbp
	.cfi_def_cfa %rsp, 8
	retq
.LBB32_2:                               # %func_BZ2_bzread.27
	.cfi_def_cfa %rbp, 16
	movq	%rbx, %rdi
	movq	%r15, %rsi
	movl	%r14d, %edx
	callq	BZ2_bzread.27
	addq	$8, %rsp
	popq	%rbx
	popq	%r14
	popq	%r15
	popq	%rbp
	.cfi_def_cfa %rsp, 8
	retq
.LBB32_3:                               # %func_BZ2_bzread.54
	.cfi_def_cfa %rbp, 16
	movq	%rbx, %rdi
	movq	%r15, %rsi
	movl	%r14d, %edx
	callq	BZ2_bzread.54
	addq	$8, %rsp
	popq	%rbx
	popq	%r14
	popq	%r15
	popq	%rbp
	.cfi_def_cfa %rsp, 8
	retq
.LBB32_4:                               # %func_BZ2_bzread.80
	.cfi_def_cfa %rbp, 16
	movq	%rbx, %rdi
	movq	%r15, %rsi
	movl	%r14d, %edx
	callq	BZ2_bzread.80
	addq	$8, %rsp
	popq	%rbx
	popq	%r14
	popq	%r15
	popq	%rbp
	.cfi_def_cfa %rsp, 8
	retq
.LBB32_5:                               # %func_BZ2_bzread.120
	.cfi_def_cfa %rbp, 16
	movq	%rbx, %rdi
	movq	%r15, %rsi
	movl	%r14d, %edx
	callq	BZ2_bzread.120
	addq	$8, %rsp
	popq	%rbx
	popq	%r14
	popq	%r15
	popq	%rbp
	.cfi_def_cfa %rsp, 8
	retq
.LBB32_6:                               # %func_BZ2_bzread.175
	.cfi_def_cfa %rbp, 16
	movq	%rbx, %rdi
	movq	%r15, %rsi
	movl	%r14d, %edx
	callq	BZ2_bzread.175
	addq	$8, %rsp
	popq	%rbx
	popq	%r14
	popq	%r15
	popq	%rbp
	.cfi_def_cfa %rsp, 8
	retq
.LBB32_7:                               # %func_BZ2_bzread.228
	.cfi_def_cfa %rbp, 16
	movq	%rbx, %rdi
	movq	%r15, %rsi
	movl	%r14d, %edx
	callq	BZ2_bzread.228
	addq	$8, %rsp
	popq	%rbx
	popq	%r14
	popq	%r15
	popq	%rbp
	.cfi_def_cfa %rsp, 8
	retq
.LBB32_8:                               # %func_BZ2_bzread.239
	.cfi_def_cfa %rbp, 16
	movq	%rbx, %rdi
	movq	%r15, %rsi
	movl	%r14d, %edx
	callq	BZ2_bzread.239
	addq	$8, %rsp
	popq	%rbx
	popq	%r14
	popq	%r15
	popq	%rbp
	.cfi_def_cfa %rsp, 8
	retq
.LBB32_9:                               # %func_BZ2_bzread.308
	.cfi_def_cfa %rbp, 16
	movq	%rbx, %rdi
	movq	%r15, %rsi
	movl	%r14d, %edx
	callq	BZ2_bzread.308
	addq	$8, %rsp
	popq	%rbx
	popq	%r14
	popq	%r15
	popq	%rbp
	.cfi_def_cfa %rsp, 8
	retq
.LBB32_10:                              # %func_BZ2_bzread.309
	.cfi_def_cfa %rbp, 16
	movq	%rbx, %rdi
	movq	%r15, %rsi
	movl	%r14d, %edx
	callq	BZ2_bzread.309
	addq	$8, %rsp
	popq	%rbx
	popq	%r14
	popq	%r15
	popq	%rbp
	.cfi_def_cfa %rsp, 8
	retq
.LBB32_11:                              # %func_BZ2_bzread.333
	.cfi_def_cfa %rbp, 16
	movq	%rbx, %rdi
	movq	%r15, %rsi
	movl	%r14d, %edx
	callq	BZ2_bzread.333
	addq	$8, %rsp
	popq	%rbx
	popq	%r14
	popq	%r15
	popq	%rbp
	.cfi_def_cfa %rsp, 8
	retq
.LBB32_12:                              # %func_BZ2_bzread.348
	.cfi_def_cfa %rbp, 16
	movq	%rbx, %rdi
	movq	%r15, %rsi
	movl	%r14d, %edx
	callq	BZ2_bzread.348
	addq	$8, %rsp
	popq	%rbx
	popq	%r14
	popq	%r15
	popq	%rbp
	.cfi_def_cfa %rsp, 8
	retq
.LBB32_13:                              # %func_BZ2_bzread.365
	.cfi_def_cfa %rbp, 16
	movq	%rbx, %rdi
	movq	%r15, %rsi
	movl	%r14d, %edx
	callq	BZ2_bzread.365
	addq	$8, %rsp
	popq	%rbx
	popq	%r14
	popq	%r15
	popq	%rbp
	.cfi_def_cfa %rsp, 8
	retq
.LBB32_14:                              # %func_BZ2_bzread.367
	.cfi_def_cfa %rbp, 16
	movq	%rbx, %rdi
	movq	%r15, %rsi
	movl	%r14d, %edx
	callq	BZ2_bzread.367
	addq	$8, %rsp
	popq	%rbx
	popq	%r14
	popq	%r15
	popq	%rbp
	.cfi_def_cfa %rsp, 8
	retq
.LBB32_15:                              # %func_BZ2_bzread.369
	.cfi_def_cfa %rbp, 16
	movq	%rbx, %rdi
	movq	%r15, %rsi
	movl	%r14d, %edx
	callq	BZ2_bzread.369
	addq	$8, %rsp
	popq	%rbx
	popq	%r14
	popq	%r15
	popq	%rbp
	.cfi_def_cfa %rsp, 8
	retq
.LBB32_16:                              # %func_BZ2_bzread.375
	.cfi_def_cfa %rbp, 16
	movq	%rbx, %rdi
	movq	%r15, %rsi
	movl	%r14d, %edx
	callq	BZ2_bzread.375
	addq	$8, %rsp
	popq	%rbx
	popq	%r14
	popq	%r15
	popq	%rbp
	.cfi_def_cfa %rsp, 8
	retq
.LBB32_17:                              # %ctrl0
	.cfi_def_cfa %rbp, 16
	cmpl	$1, %eax
	je	.LBB32_2
# %bb.18:                               # %ctrl1
	cmpl	$2, %eax
	je	.LBB32_3
# %bb.19:                               # %ctrl2
	cmpl	$3, %eax
	je	.LBB32_4
# %bb.20:                               # %ctrl3
	cmpl	$4, %eax
	je	.LBB32_5
# %bb.21:                               # %ctrl4
	cmpl	$5, %eax
	je	.LBB32_6
# %bb.22:                               # %ctrl5
	cmpl	$6, %eax
	je	.LBB32_7
# %bb.23:                               # %ctrl6
	cmpl	$7, %eax
	je	.LBB32_8
# %bb.24:                               # %ctrl7
	cmpl	$8, %eax
	je	.LBB32_9
# %bb.25:                               # %ctrl8
	cmpl	$9, %eax
	je	.LBB32_10
# %bb.26:                               # %ctrl9
	cmpl	$10, %eax
	je	.LBB32_11
# %bb.27:                               # %ctrl10
	cmpl	$11, %eax
	je	.LBB32_12
# %bb.28:                               # %ctrl11
	cmpl	$12, %eax
	je	.LBB32_13
# %bb.29:                               # %ctrl12
	cmpl	$13, %eax
	je	.LBB32_14
# %bb.30:                               # %ctrl13
	cmpl	$14, %eax
	je	.LBB32_15
	jmp	.LBB32_16
.Lfunc_end32:
	.size	BZ2_bzread, .Lfunc_end32-BZ2_bzread
	.cfi_endproc
                                        # -- End function
	.globl	BZ2_bzwrite             # -- Begin function BZ2_bzwrite
	.p2align	4, 0x90
	.type	BZ2_bzwrite,@function
BZ2_bzwrite:                            # @BZ2_bzwrite
	.cfi_startproc
# %bb.0:                                # %rand_bb
	pushq	%rbp
	.cfi_def_cfa_offset 16
	.cfi_offset %rbp, -16
	movq	%rsp, %rbp
	.cfi_def_cfa_register %rbp
	pushq	%r15
	pushq	%r14
	pushq	%rbx
	pushq	%rax
	.cfi_offset %rbx, -40
	.cfi_offset %r14, -32
	.cfi_offset %r15, -24
	movl	%edx, %r14d
	movq	%rsi, %r15
	movq	%rdi, %rbx
	callq	get_rand
	cmpl	$0, %eax
	jne	.LBB33_17
# %bb.1:                                # %func_BZ2_bzwrite.24
	movq	%rbx, %rdi
	movq	%r15, %rsi
	movl	%r14d, %edx
	callq	BZ2_bzwrite.24
	addq	$8, %rsp
	popq	%rbx
	popq	%r14
	popq	%r15
	popq	%rbp
	.cfi_def_cfa %rsp, 8
	retq
.LBB33_2:                               # %func_BZ2_bzwrite.49
	.cfi_def_cfa %rbp, 16
	movq	%rbx, %rdi
	movq	%r15, %rsi
	movl	%r14d, %edx
	callq	BZ2_bzwrite.49
	addq	$8, %rsp
	popq	%rbx
	popq	%r14
	popq	%r15
	popq	%rbp
	.cfi_def_cfa %rsp, 8
	retq
.LBB33_3:                               # %func_BZ2_bzwrite.61
	.cfi_def_cfa %rbp, 16
	movq	%rbx, %rdi
	movq	%r15, %rsi
	movl	%r14d, %edx
	callq	BZ2_bzwrite.61
	addq	$8, %rsp
	popq	%rbx
	popq	%r14
	popq	%r15
	popq	%rbp
	.cfi_def_cfa %rsp, 8
	retq
.LBB33_4:                               # %func_BZ2_bzwrite.92
	.cfi_def_cfa %rbp, 16
	movq	%rbx, %rdi
	movq	%r15, %rsi
	movl	%r14d, %edx
	callq	BZ2_bzwrite.92
	addq	$8, %rsp
	popq	%rbx
	popq	%r14
	popq	%r15
	popq	%rbp
	.cfi_def_cfa %rsp, 8
	retq
.LBB33_5:                               # %func_BZ2_bzwrite.151
	.cfi_def_cfa %rbp, 16
	movq	%rbx, %rdi
	movq	%r15, %rsi
	movl	%r14d, %edx
	callq	BZ2_bzwrite.151
	addq	$8, %rsp
	popq	%rbx
	popq	%r14
	popq	%r15
	popq	%rbp
	.cfi_def_cfa %rsp, 8
	retq
.LBB33_6:                               # %func_BZ2_bzwrite.167
	.cfi_def_cfa %rbp, 16
	movq	%rbx, %rdi
	movq	%r15, %rsi
	movl	%r14d, %edx
	callq	BZ2_bzwrite.167
	addq	$8, %rsp
	popq	%rbx
	popq	%r14
	popq	%r15
	popq	%rbp
	.cfi_def_cfa %rsp, 8
	retq
.LBB33_7:                               # %func_BZ2_bzwrite.172
	.cfi_def_cfa %rbp, 16
	movq	%rbx, %rdi
	movq	%r15, %rsi
	movl	%r14d, %edx
	callq	BZ2_bzwrite.172
	addq	$8, %rsp
	popq	%rbx
	popq	%r14
	popq	%r15
	popq	%rbp
	.cfi_def_cfa %rsp, 8
	retq
.LBB33_8:                               # %func_BZ2_bzwrite.205
	.cfi_def_cfa %rbp, 16
	movq	%rbx, %rdi
	movq	%r15, %rsi
	movl	%r14d, %edx
	callq	BZ2_bzwrite.205
	addq	$8, %rsp
	popq	%rbx
	popq	%r14
	popq	%r15
	popq	%rbp
	.cfi_def_cfa %rsp, 8
	retq
.LBB33_9:                               # %func_BZ2_bzwrite.223
	.cfi_def_cfa %rbp, 16
	movq	%rbx, %rdi
	movq	%r15, %rsi
	movl	%r14d, %edx
	callq	BZ2_bzwrite.223
	addq	$8, %rsp
	popq	%rbx
	popq	%r14
	popq	%r15
	popq	%rbp
	.cfi_def_cfa %rsp, 8
	retq
.LBB33_10:                              # %func_BZ2_bzwrite.226
	.cfi_def_cfa %rbp, 16
	movq	%rbx, %rdi
	movq	%r15, %rsi
	movl	%r14d, %edx
	callq	BZ2_bzwrite.226
	addq	$8, %rsp
	popq	%rbx
	popq	%r14
	popq	%r15
	popq	%rbp
	.cfi_def_cfa %rsp, 8
	retq
.LBB33_11:                              # %func_BZ2_bzwrite.230
	.cfi_def_cfa %rbp, 16
	movq	%rbx, %rdi
	movq	%r15, %rsi
	movl	%r14d, %edx
	callq	BZ2_bzwrite.230
	addq	$8, %rsp
	popq	%rbx
	popq	%r14
	popq	%r15
	popq	%rbp
	.cfi_def_cfa %rsp, 8
	retq
.LBB33_12:                              # %func_BZ2_bzwrite.245
	.cfi_def_cfa %rbp, 16
	movq	%rbx, %rdi
	movq	%r15, %rsi
	movl	%r14d, %edx
	callq	BZ2_bzwrite.245
	addq	$8, %rsp
	popq	%rbx
	popq	%r14
	popq	%r15
	popq	%rbp
	.cfi_def_cfa %rsp, 8
	retq
.LBB33_13:                              # %func_BZ2_bzwrite.271
	.cfi_def_cfa %rbp, 16
	movq	%rbx, %rdi
	movq	%r15, %rsi
	movl	%r14d, %edx
	callq	BZ2_bzwrite.271
	addq	$8, %rsp
	popq	%rbx
	popq	%r14
	popq	%r15
	popq	%rbp
	.cfi_def_cfa %rsp, 8
	retq
.LBB33_14:                              # %func_BZ2_bzwrite.273
	.cfi_def_cfa %rbp, 16
	movq	%rbx, %rdi
	movq	%r15, %rsi
	movl	%r14d, %edx
	callq	BZ2_bzwrite.273
	addq	$8, %rsp
	popq	%rbx
	popq	%r14
	popq	%r15
	popq	%rbp
	.cfi_def_cfa %rsp, 8
	retq
.LBB33_15:                              # %func_BZ2_bzwrite.311
	.cfi_def_cfa %rbp, 16
	movq	%rbx, %rdi
	movq	%r15, %rsi
	movl	%r14d, %edx
	callq	BZ2_bzwrite.311
	addq	$8, %rsp
	popq	%rbx
	popq	%r14
	popq	%r15
	popq	%rbp
	.cfi_def_cfa %rsp, 8
	retq
.LBB33_16:                              # %func_BZ2_bzwrite.315
	.cfi_def_cfa %rbp, 16
	movq	%rbx, %rdi
	movq	%r15, %rsi
	movl	%r14d, %edx
	callq	BZ2_bzwrite.315
	addq	$8, %rsp
	popq	%rbx
	popq	%r14
	popq	%r15
	popq	%rbp
	.cfi_def_cfa %rsp, 8
	retq
.LBB33_17:                              # %ctrl0
	.cfi_def_cfa %rbp, 16
	cmpl	$1, %eax
	je	.LBB33_2
# %bb.18:                               # %ctrl1
	cmpl	$2, %eax
	je	.LBB33_3
# %bb.19:                               # %ctrl2
	cmpl	$3, %eax
	je	.LBB33_4
# %bb.20:                               # %ctrl3
	cmpl	$4, %eax
	je	.LBB33_5
# %bb.21:                               # %ctrl4
	cmpl	$5, %eax
	je	.LBB33_6
# %bb.22:                               # %ctrl5
	cmpl	$6, %eax
	je	.LBB33_7
# %bb.23:                               # %ctrl6
	cmpl	$7, %eax
	je	.LBB33_8
# %bb.24:                               # %ctrl7
	cmpl	$8, %eax
	je	.LBB33_9
# %bb.25:                               # %ctrl8
	cmpl	$9, %eax
	je	.LBB33_10
# %bb.26:                               # %ctrl9
	cmpl	$10, %eax
	je	.LBB33_11
# %bb.27:                               # %ctrl10
	cmpl	$11, %eax
	je	.LBB33_12
# %bb.28:                               # %ctrl11
	cmpl	$12, %eax
	je	.LBB33_13
# %bb.29:                               # %ctrl12
	cmpl	$13, %eax
	je	.LBB33_14
# %bb.30:                               # %ctrl13
	cmpl	$14, %eax
	je	.LBB33_15
	jmp	.LBB33_16
.Lfunc_end33:
	.size	BZ2_bzwrite, .Lfunc_end33-BZ2_bzwrite
	.cfi_endproc
                                        # -- End function
	.globl	BZ2_bzflush             # -- Begin function BZ2_bzflush
	.p2align	4, 0x90
	.type	BZ2_bzflush,@function
BZ2_bzflush:                            # @BZ2_bzflush
	.cfi_startproc
# %bb.0:                                # %entry
	pushq	%rbp
	.cfi_def_cfa_offset 16
	.cfi_offset %rbp, -16
	movq	%rsp, %rbp
	.cfi_def_cfa_register %rbp
	movq	%rdi, -8(%rbp)
	xorl	%eax, %eax
	popq	%rbp
	.cfi_def_cfa %rsp, 8
	retq
.Lfunc_end34:
	.size	BZ2_bzflush, .Lfunc_end34-BZ2_bzflush
	.cfi_endproc
                                        # -- End function
	.globl	BZ2_bzclose             # -- Begin function BZ2_bzclose
	.p2align	4, 0x90
	.type	BZ2_bzclose,@function
BZ2_bzclose:                            # @BZ2_bzclose
	.cfi_startproc
# %bb.0:                                # %rand_bb
	pushq	%rbp
	.cfi_def_cfa_offset 16
	.cfi_offset %rbp, -16
	movq	%rsp, %rbp
	.cfi_def_cfa_register %rbp
	pushq	%rbx
	pushq	%rax
	.cfi_offset %rbx, -24
	movq	%rdi, %rbx
	callq	get_rand
	cmpl	$0, %eax
	jne	.LBB35_7
# %bb.1:                                # %func_BZ2_bzclose.38
	movq	%rbx, %rdi
	callq	BZ2_bzclose.38
	addq	$8, %rsp
	popq	%rbx
	popq	%rbp
	.cfi_def_cfa %rsp, 8
	retq
.LBB35_2:                               # %func_BZ2_bzclose.52
	.cfi_def_cfa %rbp, 16
	movq	%rbx, %rdi
	callq	BZ2_bzclose.52
	addq	$8, %rsp
	popq	%rbx
	popq	%rbp
	.cfi_def_cfa %rsp, 8
	retq
.LBB35_3:                               # %func_BZ2_bzclose.86
	.cfi_def_cfa %rbp, 16
	movq	%rbx, %rdi
	callq	BZ2_bzclose.86
	addq	$8, %rsp
	popq	%rbx
	popq	%rbp
	.cfi_def_cfa %rsp, 8
	retq
.LBB35_4:                               # %func_BZ2_bzclose.93
	.cfi_def_cfa %rbp, 16
	movq	%rbx, %rdi
	callq	BZ2_bzclose.93
	addq	$8, %rsp
	popq	%rbx
	popq	%rbp
	.cfi_def_cfa %rsp, 8
	retq
.LBB35_5:                               # %func_BZ2_bzclose.115
	.cfi_def_cfa %rbp, 16
	movq	%rbx, %rdi
	callq	BZ2_bzclose.115
	addq	$8, %rsp
	popq	%rbx
	popq	%rbp
	.cfi_def_cfa %rsp, 8
	retq
.LBB35_6:                               # %func_BZ2_bzclose.133
	.cfi_def_cfa %rbp, 16
	movq	%rbx, %rdi
	callq	BZ2_bzclose.133
	addq	$8, %rsp
	popq	%rbx
	popq	%rbp
	.cfi_def_cfa %rsp, 8
	retq
.LBB35_7:                               # %ctrl0
	.cfi_def_cfa %rbp, 16
	cmpl	$1, %eax
	je	.LBB35_2
# %bb.8:                                # %ctrl1
	cmpl	$2, %eax
	je	.LBB35_3
# %bb.9:                                # %ctrl2
	cmpl	$3, %eax
	je	.LBB35_4
# %bb.10:                               # %ctrl3
	cmpl	$4, %eax
	je	.LBB35_5
	jmp	.LBB35_6
.Lfunc_end35:
	.size	BZ2_bzclose, .Lfunc_end35-BZ2_bzclose
	.cfi_endproc
                                        # -- End function
	.globl	BZ2_bzerror             # -- Begin function BZ2_bzerror
	.p2align	4, 0x90
	.type	BZ2_bzerror,@function
BZ2_bzerror:                            # @BZ2_bzerror
	.cfi_startproc
# %bb.0:                                # %rand_bb
	pushq	%rbp
	.cfi_def_cfa_offset 16
	.cfi_offset %rbp, -16
	movq	%rsp, %rbp
	.cfi_def_cfa_register %rbp
	pushq	%r14
	pushq	%rbx
	.cfi_offset %rbx, -32
	.cfi_offset %r14, -24
	movq	%rsi, %r14
	movq	%rdi, %rbx
	callq	get_rand
	cmpl	$0, %eax
	jne	.LBB36_7
# %bb.1:                                # %func_BZ2_bzerror.5
	movq	%rbx, %rdi
	movq	%r14, %rsi
	callq	BZ2_bzerror.5
	popq	%rbx
	popq	%r14
	popq	%rbp
	.cfi_def_cfa %rsp, 8
	retq
.LBB36_2:                               # %func_BZ2_bzerror.26
	.cfi_def_cfa %rbp, 16
	movq	%rbx, %rdi
	movq	%r14, %rsi
	callq	BZ2_bzerror.26
	popq	%rbx
	popq	%r14
	popq	%rbp
	.cfi_def_cfa %rsp, 8
	retq
.LBB36_3:                               # %func_BZ2_bzerror.44
	.cfi_def_cfa %rbp, 16
	movq	%rbx, %rdi
	movq	%r14, %rsi
	callq	BZ2_bzerror.44
	popq	%rbx
	popq	%r14
	popq	%rbp
	.cfi_def_cfa %rsp, 8
	retq
.LBB36_4:                               # %func_BZ2_bzerror.107
	.cfi_def_cfa %rbp, 16
	movq	%rbx, %rdi
	movq	%r14, %rsi
	callq	BZ2_bzerror.107
	popq	%rbx
	popq	%r14
	popq	%rbp
	.cfi_def_cfa %rsp, 8
	retq
.LBB36_5:                               # %func_BZ2_bzerror.113
	.cfi_def_cfa %rbp, 16
	movq	%rbx, %rdi
	movq	%r14, %rsi
	callq	BZ2_bzerror.113
	popq	%rbx
	popq	%r14
	popq	%rbp
	.cfi_def_cfa %rsp, 8
	retq
.LBB36_6:                               # %func_BZ2_bzerror.137
	.cfi_def_cfa %rbp, 16
	movq	%rbx, %rdi
	movq	%r14, %rsi
	callq	BZ2_bzerror.137
	popq	%rbx
	popq	%r14
	popq	%rbp
	.cfi_def_cfa %rsp, 8
	retq
.LBB36_7:                               # %ctrl0
	.cfi_def_cfa %rbp, 16
	cmpl	$1, %eax
	je	.LBB36_2
# %bb.8:                                # %ctrl1
	cmpl	$2, %eax
	je	.LBB36_3
# %bb.9:                                # %ctrl2
	cmpl	$3, %eax
	je	.LBB36_4
# %bb.10:                               # %ctrl3
	cmpl	$4, %eax
	je	.LBB36_5
	jmp	.LBB36_6
.Lfunc_end36:
	.size	BZ2_bzerror, .Lfunc_end36-BZ2_bzerror
	.cfi_endproc
                                        # -- End function
	.p2align	4, 0x90         # -- Begin function copy_output_until_stop
	.type	copy_output_until_stop,@function
copy_output_until_stop:                 # @copy_output_until_stop
	.cfi_startproc
# %bb.0:                                # %rand_bb
	pushq	%rbp
	.cfi_def_cfa_offset 16
	.cfi_offset %rbp, -16
	movq	%rsp, %rbp
	.cfi_def_cfa_register %rbp
	pushq	%rbx
	pushq	%rax
	.cfi_offset %rbx, -24
	movq	%rdi, %rbx
	callq	get_rand
	cmpl	$0, %eax
	jne	.LBB37_2
# %bb.1:                                # %func_copy_output_until_stop.15
	movq	%rbx, %rdi
	callq	copy_output_until_stop.15
	movzbl	%al, %eax
	addq	$8, %rsp
	popq	%rbx
	popq	%rbp
	.cfi_def_cfa %rsp, 8
	retq
.LBB37_2:                               # %func_copy_output_until_stop.22
	.cfi_def_cfa %rbp, 16
	movq	%rbx, %rdi
	callq	copy_output_until_stop.22
	movzbl	%al, %eax
	addq	$8, %rsp
	popq	%rbx
	popq	%rbp
	.cfi_def_cfa %rsp, 8
	retq
.Lfunc_end37:
	.size	copy_output_until_stop, .Lfunc_end37-copy_output_until_stop
	.cfi_endproc
                                        # -- End function
	.p2align	4, 0x90         # -- Begin function copy_input_until_stop
	.type	copy_input_until_stop,@function
copy_input_until_stop:                  # @copy_input_until_stop
	.cfi_startproc
# %bb.0:                                # %rand_bb
	pushq	%rbp
	.cfi_def_cfa_offset 16
	.cfi_offset %rbp, -16
	movq	%rsp, %rbp
	.cfi_def_cfa_register %rbp
	pushq	%rbx
	pushq	%rax
	.cfi_offset %rbx, -24
	movq	%rdi, %rbx
	callq	get_rand
	cmpl	$0, %eax
	jne	.LBB38_17
# %bb.1:                                # %func_copy_input_until_stop.64
	movq	%rbx, %rdi
	callq	copy_input_until_stop.64
	movzbl	%al, %eax
	addq	$8, %rsp
	popq	%rbx
	popq	%rbp
	.cfi_def_cfa %rsp, 8
	retq
.LBB38_2:                               # %func_copy_input_until_stop.75
	.cfi_def_cfa %rbp, 16
	movq	%rbx, %rdi
	callq	copy_input_until_stop.75
	movzbl	%al, %eax
	addq	$8, %rsp
	popq	%rbx
	popq	%rbp
	.cfi_def_cfa %rsp, 8
	retq
.LBB38_3:                               # %func_copy_input_until_stop.138
	.cfi_def_cfa %rbp, 16
	movq	%rbx, %rdi
	callq	copy_input_until_stop.138
	movzbl	%al, %eax
	addq	$8, %rsp
	popq	%rbx
	popq	%rbp
	.cfi_def_cfa %rsp, 8
	retq
.LBB38_4:                               # %func_copy_input_until_stop.176
	.cfi_def_cfa %rbp, 16
	movq	%rbx, %rdi
	callq	copy_input_until_stop.176
	movzbl	%al, %eax
	addq	$8, %rsp
	popq	%rbx
	popq	%rbp
	.cfi_def_cfa %rsp, 8
	retq
.LBB38_5:                               # %func_copy_input_until_stop.177
	.cfi_def_cfa %rbp, 16
	movq	%rbx, %rdi
	callq	copy_input_until_stop.177
	movzbl	%al, %eax
	addq	$8, %rsp
	popq	%rbx
	popq	%rbp
	.cfi_def_cfa %rsp, 8
	retq
.LBB38_6:                               # %func_copy_input_until_stop.213
	.cfi_def_cfa %rbp, 16
	movq	%rbx, %rdi
	callq	copy_input_until_stop.213
	movzbl	%al, %eax
	addq	$8, %rsp
	popq	%rbx
	popq	%rbp
	.cfi_def_cfa %rsp, 8
	retq
.LBB38_7:                               # %func_copy_input_until_stop.237
	.cfi_def_cfa %rbp, 16
	movq	%rbx, %rdi
	callq	copy_input_until_stop.237
	movzbl	%al, %eax
	addq	$8, %rsp
	popq	%rbx
	popq	%rbp
	.cfi_def_cfa %rsp, 8
	retq
.LBB38_8:                               # %func_copy_input_until_stop.267
	.cfi_def_cfa %rbp, 16
	movq	%rbx, %rdi
	callq	copy_input_until_stop.267
	movzbl	%al, %eax
	addq	$8, %rsp
	popq	%rbx
	popq	%rbp
	.cfi_def_cfa %rsp, 8
	retq
.LBB38_9:                               # %func_copy_input_until_stop.276
	.cfi_def_cfa %rbp, 16
	movq	%rbx, %rdi
	callq	copy_input_until_stop.276
	movzbl	%al, %eax
	addq	$8, %rsp
	popq	%rbx
	popq	%rbp
	.cfi_def_cfa %rsp, 8
	retq
.LBB38_10:                              # %func_copy_input_until_stop.304
	.cfi_def_cfa %rbp, 16
	movq	%rbx, %rdi
	callq	copy_input_until_stop.304
	movzbl	%al, %eax
	addq	$8, %rsp
	popq	%rbx
	popq	%rbp
	.cfi_def_cfa %rsp, 8
	retq
.LBB38_11:                              # %func_copy_input_until_stop.345
	.cfi_def_cfa %rbp, 16
	movq	%rbx, %rdi
	callq	copy_input_until_stop.345
	movzbl	%al, %eax
	addq	$8, %rsp
	popq	%rbx
	popq	%rbp
	.cfi_def_cfa %rsp, 8
	retq
.LBB38_12:                              # %func_copy_input_until_stop.352
	.cfi_def_cfa %rbp, 16
	movq	%rbx, %rdi
	callq	copy_input_until_stop.352
	movzbl	%al, %eax
	addq	$8, %rsp
	popq	%rbx
	popq	%rbp
	.cfi_def_cfa %rsp, 8
	retq
.LBB38_13:                              # %func_copy_input_until_stop.355
	.cfi_def_cfa %rbp, 16
	movq	%rbx, %rdi
	callq	copy_input_until_stop.355
	movzbl	%al, %eax
	addq	$8, %rsp
	popq	%rbx
	popq	%rbp
	.cfi_def_cfa %rsp, 8
	retq
.LBB38_14:                              # %func_copy_input_until_stop.359
	.cfi_def_cfa %rbp, 16
	movq	%rbx, %rdi
	callq	copy_input_until_stop.359
	movzbl	%al, %eax
	addq	$8, %rsp
	popq	%rbx
	popq	%rbp
	.cfi_def_cfa %rsp, 8
	retq
.LBB38_15:                              # %func_copy_input_until_stop.380
	.cfi_def_cfa %rbp, 16
	movq	%rbx, %rdi
	callq	copy_input_until_stop.380
	movzbl	%al, %eax
	addq	$8, %rsp
	popq	%rbx
	popq	%rbp
	.cfi_def_cfa %rsp, 8
	retq
.LBB38_16:                              # %func_copy_input_until_stop.382
	.cfi_def_cfa %rbp, 16
	movq	%rbx, %rdi
	callq	copy_input_until_stop.382
	movzbl	%al, %eax
	addq	$8, %rsp
	popq	%rbx
	popq	%rbp
	.cfi_def_cfa %rsp, 8
	retq
.LBB38_17:                              # %ctrl0
	.cfi_def_cfa %rbp, 16
	cmpl	$1, %eax
	je	.LBB38_2
# %bb.18:                               # %ctrl1
	cmpl	$2, %eax
	je	.LBB38_3
# %bb.19:                               # %ctrl2
	cmpl	$3, %eax
	je	.LBB38_4
# %bb.20:                               # %ctrl3
	cmpl	$4, %eax
	je	.LBB38_5
# %bb.21:                               # %ctrl4
	cmpl	$5, %eax
	je	.LBB38_6
# %bb.22:                               # %ctrl5
	cmpl	$6, %eax
	je	.LBB38_7
# %bb.23:                               # %ctrl6
	cmpl	$7, %eax
	je	.LBB38_8
# %bb.24:                               # %ctrl7
	cmpl	$8, %eax
	je	.LBB38_9
# %bb.25:                               # %ctrl8
	cmpl	$9, %eax
	je	.LBB38_10
# %bb.26:                               # %ctrl9
	cmpl	$10, %eax
	je	.LBB38_11
# %bb.27:                               # %ctrl10
	cmpl	$11, %eax
	je	.LBB38_12
# %bb.28:                               # %ctrl11
	cmpl	$12, %eax
	je	.LBB38_13
# %bb.29:                               # %ctrl12
	cmpl	$13, %eax
	je	.LBB38_14
# %bb.30:                               # %ctrl13
	cmpl	$14, %eax
	je	.LBB38_15
	jmp	.LBB38_16
.Lfunc_end38:
	.size	copy_input_until_stop, .Lfunc_end38-copy_input_until_stop
	.cfi_endproc
                                        # -- End function
	.p2align	4, 0x90         # -- Begin function flush_RL
	.type	flush_RL,@function
flush_RL:                               # @flush_RL
	.cfi_startproc
# %bb.0:                                # %entry
	pushq	%rbp
	.cfi_def_cfa_offset 16
	.cfi_offset %rbp, -16
	movq	%rsp, %rbp
	.cfi_def_cfa_register %rbp
	subq	$16, %rsp
	movq	%rdi, -8(%rbp)
	movq	-8(%rbp), %rax
	cmpl	$256, 92(%rax)          # imm = 0x100
	jae	.LBB39_2
# %bb.1:                                # %if.then
	movq	-8(%rbp), %rdi
	callq	add_pair_to_block
.LBB39_2:                               # %if.end
	movq	-8(%rbp), %rdi
	callq	init_RL
	addq	$16, %rsp
	popq	%rbp
	.cfi_def_cfa %rsp, 8
	retq
.Lfunc_end39:
	.size	flush_RL, .Lfunc_end39-flush_RL
	.cfi_endproc
                                        # -- End function
	.p2align	4, 0x90         # -- Begin function add_pair_to_block
	.type	add_pair_to_block,@function
add_pair_to_block:                      # @add_pair_to_block
	.cfi_startproc
# %bb.0:                                # %rand_bb
	pushq	%rbp
	.cfi_def_cfa_offset 16
	.cfi_offset %rbp, -16
	movq	%rsp, %rbp
	.cfi_def_cfa_register %rbp
	pushq	%rbx
	pushq	%rax
	.cfi_offset %rbx, -24
	movq	%rdi, %rbx
	callq	get_rand
	cmpl	$0, %eax
	jne	.LBB40_7
# %bb.1:                                # %func_add_pair_to_block.51
	movq	%rbx, %rdi
	callq	add_pair_to_block.51
	addq	$8, %rsp
	popq	%rbx
	popq	%rbp
	.cfi_def_cfa %rsp, 8
	retq
.LBB40_2:                               # %func_add_pair_to_block.57
	.cfi_def_cfa %rbp, 16
	movq	%rbx, %rdi
	callq	add_pair_to_block.57
	addq	$8, %rsp
	popq	%rbx
	popq	%rbp
	.cfi_def_cfa %rsp, 8
	retq
.LBB40_3:                               # %func_add_pair_to_block.60
	.cfi_def_cfa %rbp, 16
	movq	%rbx, %rdi
	callq	add_pair_to_block.60
	addq	$8, %rsp
	popq	%rbx
	popq	%rbp
	.cfi_def_cfa %rsp, 8
	retq
.LBB40_4:                               # %func_add_pair_to_block.76
	.cfi_def_cfa %rbp, 16
	movq	%rbx, %rdi
	callq	add_pair_to_block.76
	addq	$8, %rsp
	popq	%rbx
	popq	%rbp
	.cfi_def_cfa %rsp, 8
	retq
.LBB40_5:                               # %func_add_pair_to_block.125
	.cfi_def_cfa %rbp, 16
	movq	%rbx, %rdi
	callq	add_pair_to_block.125
	addq	$8, %rsp
	popq	%rbx
	popq	%rbp
	.cfi_def_cfa %rsp, 8
	retq
.LBB40_6:                               # %func_add_pair_to_block.146
	.cfi_def_cfa %rbp, 16
	movq	%rbx, %rdi
	callq	add_pair_to_block.146
	addq	$8, %rsp
	popq	%rbx
	popq	%rbp
	.cfi_def_cfa %rsp, 8
	retq
.LBB40_7:                               # %ctrl0
	.cfi_def_cfa %rbp, 16
	cmpl	$1, %eax
	je	.LBB40_2
# %bb.8:                                # %ctrl1
	cmpl	$2, %eax
	je	.LBB40_3
# %bb.9:                                # %ctrl2
	cmpl	$3, %eax
	je	.LBB40_4
# %bb.10:                               # %ctrl3
	cmpl	$4, %eax
	je	.LBB40_5
	jmp	.LBB40_6
.Lfunc_end40:
	.size	add_pair_to_block, .Lfunc_end40-add_pair_to_block
	.cfi_endproc
                                        # -- End function
	.globl	BZ2_bzDecompressInit.1  # -- Begin function BZ2_bzDecompressInit.1
	.p2align	4, 0x90
	.type	BZ2_bzDecompressInit.1,@function
BZ2_bzDecompressInit.1:                 # @BZ2_bzDecompressInit.1
	.cfi_startproc
# %bb.0:                                # %entry
	pushq	%rbp
	.cfi_def_cfa_offset 16
	.cfi_offset %rbp, -16
	movq	%rsp, %rbp
	.cfi_def_cfa_register %rbp
	pushq	%rbx
	subq	$40, %rsp
	.cfi_offset %rbx, -24
	movl	$1937788087, -40(%rbp)  # imm = 0x73804CB7
	movq	%rdi, -24(%rbp)
	movl	%esi, -36(%rbp)
	movl	%edx, -32(%rbp)
	callq	bz_config_ok
	cmpl	$0, %eax
	jne	.LBB41_2
# %bb.1:                                # %if.then
	movl	$-9, -28(%rbp)
	jmp	.LBB41_17
.LBB41_2:                               # %if.end
	cmpq	$0, -24(%rbp)
	jne	.LBB41_4
# %bb.3:                                # %if.then1
	movl	$-2, -28(%rbp)
	jmp	.LBB41_17
.LBB41_4:                               # %if.end2
	cmpl	$0, -32(%rbp)
	je	.LBB41_7
# %bb.5:                                # %land.lhs.true
	cmpl	$1, -32(%rbp)
	je	.LBB41_7
# %bb.6:                                # %if.then5
	movl	$-2, -28(%rbp)
	jmp	.LBB41_17
.LBB41_7:                               # %if.end6
	cmpl	$0, -36(%rbp)
	jl	.LBB41_9
# %bb.8:                                # %lor.lhs.false
	cmpl	$4, -36(%rbp)
	jle	.LBB41_10
.LBB41_9:                               # %if.then9
	movl	$-2, -28(%rbp)
	jmp	.LBB41_17
.LBB41_10:                              # %if.end10
	movq	-24(%rbp), %rax
	cmpq	$0, 56(%rax)
	jne	.LBB41_12
# %bb.11:                               # %if.then12
	movq	-24(%rbp), %rax
	movabsq	$default_bzalloc, %rcx
	movq	%rcx, 56(%rax)
.LBB41_12:                              # %if.end14
	movq	-24(%rbp), %rax
	cmpq	$0, 64(%rax)
	jne	.LBB41_14
# %bb.13:                               # %if.then16
	movq	-24(%rbp), %rax
	movabsq	$default_bzfree, %rcx
	movq	%rcx, 64(%rax)
.LBB41_14:                              # %if.end18
	movq	-24(%rbp), %rax
	movq	56(%rax), %rax
	movq	-24(%rbp), %rcx
	movq	72(%rcx), %rdi
	movl	$64144, %esi            # imm = 0xFA90
	movl	$1, %edx
	callq	*%rax
	movq	%rax, -16(%rbp)
	cmpq	$0, -16(%rbp)
	jne	.LBB41_16
# %bb.15:                               # %if.then22
	movl	$-3, -28(%rbp)
	jmp	.LBB41_17
.LBB41_16:                              # %if.end23
	movq	-24(%rbp), %rax
	movq	-16(%rbp), %rcx
	movq	%rax, (%rcx)
	movq	-16(%rbp), %rax
	movq	-24(%rbp), %rcx
	movq	%rax, 48(%rcx)
	movq	-16(%rbp), %rax
	movl	$10, 8(%rax)
	movq	-16(%rbp), %rax
	movl	$0, 36(%rax)
	movq	-16(%rbp), %rax
	movl	$0, 32(%rax)
	movq	-16(%rbp), %rax
	movl	$0, 3188(%rax)
	movq	-24(%rbp), %rax
	movl	$0, 12(%rax)
	movq	-24(%rbp), %rax
	movl	$0, 16(%rax)
	movq	-24(%rbp), %rax
	movl	$0, 36(%rax)
	movq	-24(%rbp), %rax
	movl	$0, 40(%rax)
	movl	-32(%rbp), %eax
	movq	-16(%rbp), %rcx
	movb	%al, 44(%rcx)
	movq	-16(%rbp), %rax
	movq	$0, 3168(%rax)
	movq	-16(%rbp), %rax
	movq	$0, 3160(%rax)
	movq	-16(%rbp), %rax
	movq	$0, 3152(%rax)
	movq	-16(%rbp), %rax
	movl	$0, 48(%rax)
	movl	-36(%rbp), %eax
	movq	-16(%rbp), %rcx
	movl	%eax, 52(%rcx)
	movl	$0, -28(%rbp)
.LBB41_17:                              # %return
	movl	-28(%rbp), %ebx
	cmpl	$1937788087, -40(%rbp)  # imm = 0x73804CB7
	jne	.LBB41_19
.LBB41_18:
	movl	%ebx, %eax
	addq	$40, %rsp
	popq	%rbx
	popq	%rbp
	.cfi_def_cfa %rsp, 8
	retq
.LBB41_19:                              # %func_exit
	.cfi_def_cfa %rbp, 16
	callq	detect_breach
	jmp	.LBB41_18
.Lfunc_end41:
	.size	BZ2_bzDecompressInit.1, .Lfunc_end41-BZ2_bzDecompressInit.1
	.cfi_endproc
                                        # -- End function
	.p2align	4, 0x90         # -- Begin function isempty_RL.2
	.type	isempty_RL.2,@function
isempty_RL.2:                           # @isempty_RL.2
	.cfi_startproc
# %bb.0:                                # %entry
	pushq	%rbp
	.cfi_def_cfa_offset 16
	.cfi_offset %rbp, -16
	movq	%rsp, %rbp
	.cfi_def_cfa_register %rbp
	pushq	%rbx
	subq	$24, %rsp
	.cfi_offset %rbx, -24
	movl	$374153665, -16(%rbp)   # imm = 0x164D21C1
	movq	%rdi, -24(%rbp)
	movq	-24(%rbp), %rax
	cmpl	$256, 92(%rax)          # imm = 0x100
	jae	.LBB42_3
# %bb.1:                                # %land.lhs.true
	movq	-24(%rbp), %rax
	cmpl	$0, 96(%rax)
	jle	.LBB42_3
# %bb.2:                                # %if.then
	movb	$0, -9(%rbp)
	jmp	.LBB42_4
.LBB42_3:                               # %if.else
	movb	$1, -9(%rbp)
.LBB42_4:                               # %return
	movb	-9(%rbp), %bl
	cmpl	$374153665, -16(%rbp)   # imm = 0x164D21C1
	jne	.LBB42_6
.LBB42_5:
	movzbl	%bl, %eax
	addq	$24, %rsp
	popq	%rbx
	popq	%rbp
	.cfi_def_cfa %rsp, 8
	retq
.LBB42_6:                               # %func_exit
	.cfi_def_cfa %rbp, 16
	callq	detect_breach
	jmp	.LBB42_5
.Lfunc_end42:
	.size	isempty_RL.2, .Lfunc_end42-isempty_RL.2
	.cfi_endproc
                                        # -- End function
	.globl	BZ2_bzDecompress.3      # -- Begin function BZ2_bzDecompress.3
	.p2align	4, 0x90
	.type	BZ2_bzDecompress.3,@function
BZ2_bzDecompress.3:                     # @BZ2_bzDecompress.3
	.cfi_startproc
# %bb.0:                                # %entry
	pushq	%rbp
	.cfi_def_cfa_offset 16
	.cfi_offset %rbp, -16
	movq	%rsp, %rbp
	.cfi_def_cfa_register %rbp
	pushq	%rbx
	subq	$40, %rsp
	.cfi_offset %rbx, -24
	movl	$1257159050, -44(%rbp)  # imm = 0x4AEEB98A
	movq	%rdi, -40(%rbp)
	cmpq	$0, -40(%rbp)
	jne	.LBB43_2
# %bb.1:                                # %if.then
	movl	$-2, -24(%rbp)
	jmp	.LBB43_37
.LBB43_2:                               # %if.end
	movq	-40(%rbp), %rax
	movq	48(%rax), %rax
	movq	%rax, -16(%rbp)
	cmpq	$0, -16(%rbp)
	jne	.LBB43_4
# %bb.3:                                # %if.then2
	movl	$-2, -24(%rbp)
	jmp	.LBB43_37
.LBB43_4:                               # %if.end3
	movq	-16(%rbp), %rax
	movq	(%rax), %rax
	cmpq	-40(%rbp), %rax
	je	.LBB43_6
# %bb.5:                                # %if.then6
	movl	$-2, -24(%rbp)
	jmp	.LBB43_37
.LBB43_6:                               # %if.end7
	jmp	.LBB43_7
.LBB43_7:                               # %while.body
                                        # =>This Inner Loop Header: Depth=1
	movq	-16(%rbp), %rax
	cmpl	$1, 8(%rax)
	jne	.LBB43_9
# %bb.8:                                # %if.then10
	movl	$-1, -24(%rbp)
	jmp	.LBB43_37
.LBB43_9:                               # %if.end11
                                        #   in Loop: Header=BB43_7 Depth=1
	movq	-16(%rbp), %rax
	cmpl	$2, 8(%rax)
	jne	.LBB43_26
# %bb.10:                               # %if.then14
                                        #   in Loop: Header=BB43_7 Depth=1
	movq	-16(%rbp), %rax
	cmpb	$0, 44(%rax)
	je	.LBB43_12
# %bb.11:                               # %if.then15
                                        #   in Loop: Header=BB43_7 Depth=1
	movq	-16(%rbp), %rdi
	callq	unRLE_obuf_to_output_SMALL
	movb	%al, -17(%rbp)
	jmp	.LBB43_13
.LBB43_12:                              # %if.else
                                        #   in Loop: Header=BB43_7 Depth=1
	movq	-16(%rbp), %rdi
	callq	unRLE_obuf_to_output_FAST
	movb	%al, -17(%rbp)
.LBB43_13:                              # %if.end17
                                        #   in Loop: Header=BB43_7 Depth=1
	cmpb	$0, -17(%rbp)
	je	.LBB43_15
# %bb.14:                               # %if.then19
	movl	$-4, -24(%rbp)
	jmp	.LBB43_37
.LBB43_15:                              # %if.end20
                                        #   in Loop: Header=BB43_7 Depth=1
	movq	-16(%rbp), %rax
	movl	1092(%rax), %eax
	movq	-16(%rbp), %rcx
	movl	64080(%rcx), %ecx
	addl	$1, %ecx
	cmpl	%ecx, %eax
	jne	.LBB43_24
# %bb.16:                               # %land.lhs.true
                                        #   in Loop: Header=BB43_7 Depth=1
	movq	-16(%rbp), %rax
	cmpl	$0, 16(%rax)
	jne	.LBB43_24
# %bb.17:                               # %if.then23
                                        #   in Loop: Header=BB43_7 Depth=1
	movq	-16(%rbp), %rax
	movl	3184(%rax), %eax
	xorl	$-1, %eax
	movq	-16(%rbp), %rcx
	movl	%eax, 3184(%rcx)
	movq	-16(%rbp), %rax
	cmpl	$3, 52(%rax)
	jl	.LBB43_19
# %bb.18:                               # %if.then26
                                        #   in Loop: Header=BB43_7 Depth=1
	movq	stderr, %rdi
	movq	-16(%rbp), %rax
	movl	3176(%rax), %edx
	movq	-16(%rbp), %rax
	movl	3184(%rax), %ecx
	movabsq	$.L.str.2, %rsi
	movb	$0, %al
	callq	fprintf
.LBB43_19:                              # %if.end29
                                        #   in Loop: Header=BB43_7 Depth=1
	movq	-16(%rbp), %rax
	cmpl	$2, 52(%rax)
	jl	.LBB43_21
# %bb.20:                               # %if.then32
                                        #   in Loop: Header=BB43_7 Depth=1
	movq	stderr, %rdi
	movabsq	$.L.str.3, %rsi
	movb	$0, %al
	callq	fprintf
.LBB43_21:                              # %if.end34
                                        #   in Loop: Header=BB43_7 Depth=1
	movq	-16(%rbp), %rax
	movl	3184(%rax), %eax
	movq	-16(%rbp), %rcx
	cmpl	3176(%rcx), %eax
	je	.LBB43_23
# %bb.22:                               # %if.then38
	movl	$-4, -24(%rbp)
	jmp	.LBB43_37
.LBB43_23:                              # %if.end39
                                        #   in Loop: Header=BB43_7 Depth=1
	movq	-16(%rbp), %rax
	movl	3188(%rax), %eax
	shll	$1, %eax
	movq	-16(%rbp), %rcx
	movl	3188(%rcx), %ecx
	shrl	$31, %ecx
	orl	%ecx, %eax
	movq	-16(%rbp), %rcx
	movl	%eax, 3188(%rcx)
	movq	-16(%rbp), %rax
	movl	3184(%rax), %eax
	movq	-16(%rbp), %rcx
	xorl	3188(%rcx), %eax
	movl	%eax, 3188(%rcx)
	movq	-16(%rbp), %rax
	movl	$14, 8(%rax)
	jmp	.LBB43_25
.LBB43_24:                              # %if.else45
	movl	$0, -24(%rbp)
	jmp	.LBB43_37
.LBB43_25:                              # %if.end46
                                        #   in Loop: Header=BB43_7 Depth=1
	jmp	.LBB43_26
.LBB43_26:                              # %if.end47
                                        #   in Loop: Header=BB43_7 Depth=1
	movq	-16(%rbp), %rax
	cmpl	$10, 8(%rax)
	jl	.LBB43_36
# %bb.27:                               # %if.then50
                                        #   in Loop: Header=BB43_7 Depth=1
	movq	-16(%rbp), %rdi
	callq	BZ2_decompress
	movl	%eax, -28(%rbp)
	cmpl	$4, -28(%rbp)
	jne	.LBB43_33
# %bb.28:                               # %if.then53
	movq	-16(%rbp), %rax
	cmpl	$3, 52(%rax)
	jl	.LBB43_30
# %bb.29:                               # %if.then56
	movq	stderr, %rdi
	movq	-16(%rbp), %rax
	movl	3180(%rax), %edx
	movq	-16(%rbp), %rax
	movl	3188(%rax), %ecx
	movabsq	$.L.str.4, %rsi
	movb	$0, %al
	callq	fprintf
.LBB43_30:                              # %if.end59
	movq	-16(%rbp), %rax
	movl	3188(%rax), %eax
	movq	-16(%rbp), %rcx
	cmpl	3180(%rcx), %eax
	je	.LBB43_32
# %bb.31:                               # %if.then63
	movl	$-4, -24(%rbp)
	jmp	.LBB43_37
.LBB43_32:                              # %if.end64
	movl	-28(%rbp), %eax
	movl	%eax, -24(%rbp)
	jmp	.LBB43_37
.LBB43_33:                              # %if.end65
                                        #   in Loop: Header=BB43_7 Depth=1
	movq	-16(%rbp), %rax
	cmpl	$2, 8(%rax)
	je	.LBB43_35
# %bb.34:                               # %if.then68
	movl	-28(%rbp), %eax
	movl	%eax, -24(%rbp)
	jmp	.LBB43_37
.LBB43_35:                              # %if.end69
                                        #   in Loop: Header=BB43_7 Depth=1
	jmp	.LBB43_36
.LBB43_36:                              # %if.end70
                                        #   in Loop: Header=BB43_7 Depth=1
	jmp	.LBB43_7
.LBB43_37:                              # %return
	movl	-24(%rbp), %ebx
	cmpl	$1257159050, -44(%rbp)  # imm = 0x4AEEB98A
	jne	.LBB43_39
.LBB43_38:
	movl	%ebx, %eax
	addq	$40, %rsp
	popq	%rbx
	popq	%rbp
	.cfi_def_cfa %rsp, 8
	retq
.LBB43_39:                              # %func_exit
	.cfi_def_cfa %rbp, 16
	callq	detect_breach
	jmp	.LBB43_38
.Lfunc_end43:
	.size	BZ2_bzDecompress.3, .Lfunc_end43-BZ2_bzDecompress.3
	.cfi_endproc
                                        # -- End function
	.globl	BZ2_bzBuffToBuffCompress.4 # -- Begin function BZ2_bzBuffToBuffCompress.4
	.p2align	4, 0x90
	.type	BZ2_bzBuffToBuffCompress.4,@function
BZ2_bzBuffToBuffCompress.4:             # @BZ2_bzBuffToBuffCompress.4
	.cfi_startproc
# %bb.0:                                # %entry
	pushq	%rbp
	.cfi_def_cfa_offset 16
	.cfi_offset %rbp, -16
	movq	%rsp, %rbp
	.cfi_def_cfa_register %rbp
	pushq	%rbx
	subq	$136, %rsp
	.cfi_offset %rbx, -24
	movl	16(%rbp), %eax
	movl	$858092546, -36(%rbp)   # imm = 0x33257402
	movq	%rdi, -48(%rbp)
	movq	%rsi, -32(%rbp)
	movq	%rdx, -56(%rbp)
	movl	%ecx, -40(%rbp)
	movl	%r8d, -24(%rbp)
	movl	%r9d, -20(%rbp)
	cmpq	$0, -48(%rbp)
	je	.LBB44_9
# %bb.1:                                # %lor.lhs.false
	cmpq	$0, -32(%rbp)
	je	.LBB44_9
# %bb.2:                                # %lor.lhs.false2
	cmpq	$0, -56(%rbp)
	je	.LBB44_9
# %bb.3:                                # %lor.lhs.false4
	cmpl	$1, -24(%rbp)
	jl	.LBB44_9
# %bb.4:                                # %lor.lhs.false6
	cmpl	$9, -24(%rbp)
	jg	.LBB44_9
# %bb.5:                                # %lor.lhs.false8
	cmpl	$0, -20(%rbp)
	jl	.LBB44_9
# %bb.6:                                # %lor.lhs.false10
	cmpl	$4, -20(%rbp)
	jg	.LBB44_9
# %bb.7:                                # %lor.lhs.false12
	cmpl	$0, 16(%rbp)
	jl	.LBB44_9
# %bb.8:                                # %lor.lhs.false14
	cmpl	$250, 16(%rbp)
	jle	.LBB44_10
.LBB44_9:                               # %if.then
	movl	$-2, -16(%rbp)
	jmp	.LBB44_21
.LBB44_10:                              # %if.end
	cmpl	$0, 16(%rbp)
	jne	.LBB44_12
# %bb.11:                               # %if.then17
	movl	$30, 16(%rbp)
.LBB44_12:                              # %if.end18
	movq	$0, -80(%rbp)
	movq	$0, -72(%rbp)
	movq	$0, -64(%rbp)
	movl	-24(%rbp), %esi
	movl	-20(%rbp), %edx
	movl	16(%rbp), %ecx
	leaq	-136(%rbp), %rdi
	callq	BZ2_bzCompressInit
	movl	%eax, -12(%rbp)
	cmpl	$0, -12(%rbp)
	je	.LBB44_14
# %bb.13:                               # %if.then20
	movl	-12(%rbp), %eax
	movl	%eax, -16(%rbp)
	jmp	.LBB44_21
.LBB44_14:                              # %if.end21
	movq	-56(%rbp), %rax
	movq	%rax, -136(%rbp)
	movq	-48(%rbp), %rax
	movq	%rax, -112(%rbp)
	movl	-40(%rbp), %eax
	movl	%eax, -128(%rbp)
	movq	-32(%rbp), %rax
	movl	(%rax), %eax
	movl	%eax, -104(%rbp)
	leaq	-136(%rbp), %rdi
	movl	$2, %esi
	callq	BZ2_bzCompress
	movl	%eax, -12(%rbp)
	cmpl	$3, -12(%rbp)
	jne	.LBB44_16
# %bb.15:                               # %if.then24
	jmp	.LBB44_19
.LBB44_16:                              # %if.end25
	cmpl	$4, -12(%rbp)
	je	.LBB44_18
# %bb.17:                               # %if.then27
	jmp	.LBB44_20
.LBB44_18:                              # %if.end28
	movl	-104(%rbp), %eax
	movq	-32(%rbp), %rcx
	movl	(%rcx), %edx
	subl	%eax, %edx
	movl	%edx, (%rcx)
	leaq	-136(%rbp), %rdi
	callq	BZ2_bzCompressEnd
	movl	$0, -16(%rbp)
	jmp	.LBB44_21
.LBB44_19:                              # %output_overflow
	leaq	-136(%rbp), %rdi
	callq	BZ2_bzCompressEnd
	movl	$-8, -16(%rbp)
	jmp	.LBB44_21
.LBB44_20:                              # %errhandler
	leaq	-136(%rbp), %rdi
	callq	BZ2_bzCompressEnd
	movl	-12(%rbp), %eax
	movl	%eax, -16(%rbp)
.LBB44_21:                              # %return
	movl	-16(%rbp), %ebx
	cmpl	$858092546, -36(%rbp)   # imm = 0x33257402
	jne	.LBB44_23
.LBB44_22:
	movl	%ebx, %eax
	addq	$136, %rsp
	popq	%rbx
	popq	%rbp
	.cfi_def_cfa %rsp, 8
	retq
.LBB44_23:                              # %func_exit
	.cfi_def_cfa %rbp, 16
	callq	detect_breach
	jmp	.LBB44_22
.Lfunc_end44:
	.size	BZ2_bzBuffToBuffCompress.4, .Lfunc_end44-BZ2_bzBuffToBuffCompress.4
	.cfi_endproc
                                        # -- End function
	.globl	BZ2_bzerror.5           # -- Begin function BZ2_bzerror.5
	.p2align	4, 0x90
	.type	BZ2_bzerror.5,@function
BZ2_bzerror.5:                          # @BZ2_bzerror.5
	.cfi_startproc
# %bb.0:                                # %entry
	pushq	%rbp
	.cfi_def_cfa_offset 16
	.cfi_offset %rbp, -16
	movq	%rsp, %rbp
	.cfi_def_cfa_register %rbp
	pushq	%rbx
	subq	$24, %rsp
	.cfi_offset %rbx, -24
	movl	$1641274697, -16(%rbp)  # imm = 0x61D3DD49
	movq	%rdi, -24(%rbp)
	movq	%rsi, -32(%rbp)
	movq	-24(%rbp), %rax
	movl	5096(%rax), %eax
	movl	%eax, -12(%rbp)
	cmpl	$0, -12(%rbp)
	jle	.LBB45_2
# %bb.1:                                # %if.then
	movl	$0, -12(%rbp)
.LBB45_2:                               # %if.end
	movl	-12(%rbp), %eax
	movq	-32(%rbp), %rcx
	movl	%eax, (%rcx)
	imull	$-1, -12(%rbp), %eax
	cltq
	movq	bzerrorstrings(,%rax,8), %rbx
	cmpl	$1641274697, -16(%rbp)  # imm = 0x61D3DD49
	jne	.LBB45_4
.LBB45_3:
	movq	%rbx, %rax
	addq	$24, %rsp
	popq	%rbx
	popq	%rbp
	.cfi_def_cfa %rsp, 8
	retq
.LBB45_4:                               # %func_exit
	.cfi_def_cfa %rbp, 16
	callq	detect_breach
	jmp	.LBB45_3
.Lfunc_end45:
	.size	BZ2_bzerror.5, .Lfunc_end45-BZ2_bzerror.5
	.cfi_endproc
                                        # -- End function
	.globl	BZ2_bzWrite.6           # -- Begin function BZ2_bzWrite.6
	.p2align	4, 0x90
	.type	BZ2_bzWrite.6,@function
BZ2_bzWrite.6:                          # @BZ2_bzWrite.6
	.cfi_startproc
# %bb.0:                                # %entry
	pushq	%rbp
	.cfi_def_cfa_offset 16
	.cfi_offset %rbp, -16
	movq	%rsp, %rbp
	.cfi_def_cfa_register %rbp
	subq	$64, %rsp
	movl	$178209893, -32(%rbp)   # imm = 0xA9F4465
	movq	%rdi, -16(%rbp)
	movq	%rsi, -56(%rbp)
	movq	%rdx, -48(%rbp)
	movl	%ecx, -20(%rbp)
	movq	-56(%rbp), %rax
	movq	%rax, -8(%rbp)
	cmpq	$0, -16(%rbp)
	je	.LBB46_2
# %bb.1:                                # %if.then
	movq	-16(%rbp), %rax
	movl	$0, (%rax)
.LBB46_2:                               # %if.end
	cmpq	$0, -8(%rbp)
	je	.LBB46_4
# %bb.3:                                # %if.then2
	movq	-8(%rbp), %rax
	movl	$0, 5096(%rax)
.LBB46_4:                               # %if.end3
	cmpq	$0, -8(%rbp)
	je	.LBB46_7
# %bb.5:                                # %lor.lhs.false
	cmpq	$0, -48(%rbp)
	je	.LBB46_7
# %bb.6:                                # %lor.lhs.false6
	cmpl	$0, -20(%rbp)
	jge	.LBB46_12
.LBB46_7:                               # %if.then8
	cmpq	$0, -16(%rbp)
	je	.LBB46_9
# %bb.8:                                # %if.then10
	movq	-16(%rbp), %rax
	movl	$-2, (%rax)
.LBB46_9:                               # %if.end11
	cmpq	$0, -8(%rbp)
	je	.LBB46_11
# %bb.10:                               # %if.then13
	movq	-8(%rbp), %rax
	movl	$-2, 5096(%rax)
.LBB46_11:                              # %if.end15
	jmp	.LBB46_53
.LBB46_12:                              # %if.end16
	movq	-8(%rbp), %rax
	cmpb	$0, 5012(%rax)
	jne	.LBB46_18
# %bb.13:                               # %if.then17
	cmpq	$0, -16(%rbp)
	je	.LBB46_15
# %bb.14:                               # %if.then19
	movq	-16(%rbp), %rax
	movl	$-1, (%rax)
.LBB46_15:                              # %if.end20
	cmpq	$0, -8(%rbp)
	je	.LBB46_17
# %bb.16:                               # %if.then22
	movq	-8(%rbp), %rax
	movl	$-1, 5096(%rax)
.LBB46_17:                              # %if.end24
	jmp	.LBB46_53
.LBB46_18:                              # %if.end25
	movq	-8(%rbp), %rax
	movq	(%rax), %rdi
	callq	ferror
	cmpl	$0, %eax
	je	.LBB46_24
# %bb.19:                               # %if.then27
	cmpq	$0, -16(%rbp)
	je	.LBB46_21
# %bb.20:                               # %if.then29
	movq	-16(%rbp), %rax
	movl	$-6, (%rax)
.LBB46_21:                              # %if.end30
	cmpq	$0, -8(%rbp)
	je	.LBB46_23
# %bb.22:                               # %if.then32
	movq	-8(%rbp), %rax
	movl	$-6, 5096(%rax)
.LBB46_23:                              # %if.end34
	jmp	.LBB46_53
.LBB46_24:                              # %if.end35
	cmpl	$0, -20(%rbp)
	jne	.LBB46_30
# %bb.25:                               # %if.then37
	cmpq	$0, -16(%rbp)
	je	.LBB46_27
# %bb.26:                               # %if.then39
	movq	-16(%rbp), %rax
	movl	$0, (%rax)
.LBB46_27:                              # %if.end40
	cmpq	$0, -8(%rbp)
	je	.LBB46_29
# %bb.28:                               # %if.then42
	movq	-8(%rbp), %rax
	movl	$0, 5096(%rax)
.LBB46_29:                              # %if.end44
	jmp	.LBB46_53
.LBB46_30:                              # %if.end45
	movl	-20(%rbp), %eax
	movq	-8(%rbp), %rcx
	movl	%eax, 5024(%rcx)
	movq	-48(%rbp), %rax
	movq	-8(%rbp), %rcx
	movq	%rax, 5016(%rcx)
.LBB46_31:                              # %while.body
                                        # =>This Inner Loop Header: Depth=1
	movq	-8(%rbp), %rax
	movl	$5000, 5048(%rax)       # imm = 0x1388
	movq	-8(%rbp), %rax
	addq	$8, %rax
	movq	-8(%rbp), %rcx
	movq	%rax, 5040(%rcx)
	movq	-8(%rbp), %rdi
	addq	$5016, %rdi             # imm = 0x1398
	xorl	%esi, %esi
	callq	BZ2_bzCompress
	movl	%eax, -24(%rbp)
	cmpl	$1, -24(%rbp)
	je	.LBB46_37
# %bb.32:                               # %if.then53
	cmpq	$0, -16(%rbp)
	je	.LBB46_34
# %bb.33:                               # %if.then55
	movl	-24(%rbp), %eax
	movq	-16(%rbp), %rcx
	movl	%eax, (%rcx)
.LBB46_34:                              # %if.end56
	cmpq	$0, -8(%rbp)
	je	.LBB46_36
# %bb.35:                               # %if.then58
	movl	-24(%rbp), %eax
	movq	-8(%rbp), %rcx
	movl	%eax, 5096(%rcx)
.LBB46_36:                              # %if.end60
	jmp	.LBB46_53
.LBB46_37:                              # %if.end61
                                        #   in Loop: Header=BB46_31 Depth=1
	movq	-8(%rbp), %rax
	cmpl	$5000, 5048(%rax)       # imm = 0x1388
	jae	.LBB46_46
# %bb.38:                               # %if.then65
                                        #   in Loop: Header=BB46_31 Depth=1
	movq	-8(%rbp), %rax
	movl	$5000, %ecx             # imm = 0x1388
	subl	5048(%rax), %ecx
	movl	%ecx, -28(%rbp)
	movq	-8(%rbp), %rdi
	addq	$8, %rdi
	movslq	-28(%rbp), %rdx
	movq	-8(%rbp), %rax
	movq	(%rax), %rcx
	movl	$1, %esi
	callq	fwrite
	movl	%eax, -36(%rbp)
	movl	-28(%rbp), %eax
	cmpl	-36(%rbp), %eax
	jne	.LBB46_40
# %bb.39:                               # %lor.lhs.false75
                                        #   in Loop: Header=BB46_31 Depth=1
	movq	-8(%rbp), %rax
	movq	(%rax), %rdi
	callq	ferror
	cmpl	$0, %eax
	je	.LBB46_45
.LBB46_40:                              # %if.then79
	cmpq	$0, -16(%rbp)
	je	.LBB46_42
# %bb.41:                               # %if.then82
	movq	-16(%rbp), %rax
	movl	$-6, (%rax)
.LBB46_42:                              # %if.end83
	cmpq	$0, -8(%rbp)
	je	.LBB46_44
# %bb.43:                               # %if.then86
	movq	-8(%rbp), %rax
	movl	$-6, 5096(%rax)
.LBB46_44:                              # %if.end88
	jmp	.LBB46_53
.LBB46_45:                              # %if.end89
                                        #   in Loop: Header=BB46_31 Depth=1
	jmp	.LBB46_46
.LBB46_46:                              # %if.end90
                                        #   in Loop: Header=BB46_31 Depth=1
	movq	-8(%rbp), %rax
	cmpl	$0, 5024(%rax)
	jne	.LBB46_52
# %bb.47:                               # %if.then95
	cmpq	$0, -16(%rbp)
	je	.LBB46_49
# %bb.48:                               # %if.then98
	movq	-16(%rbp), %rax
	movl	$0, (%rax)
.LBB46_49:                              # %if.end99
	cmpq	$0, -8(%rbp)
	je	.LBB46_51
# %bb.50:                               # %if.then102
	movq	-8(%rbp), %rax
	movl	$0, 5096(%rax)
.LBB46_51:                              # %if.end104
	jmp	.LBB46_53
.LBB46_52:                              # %if.end105
                                        #   in Loop: Header=BB46_31 Depth=1
	jmp	.LBB46_31
.LBB46_53:                              # %return
	cmpl	$178209893, -32(%rbp)   # imm = 0xA9F4465
	jne	.LBB46_55
.LBB46_54:
	addq	$64, %rsp
	popq	%rbp
	.cfi_def_cfa %rsp, 8
	retq
.LBB46_55:                              # %func_exit
	.cfi_def_cfa %rbp, 16
	callq	detect_breach
	jmp	.LBB46_54
.Lfunc_end46:
	.size	BZ2_bzWrite.6, .Lfunc_end46-BZ2_bzWrite.6
	.cfi_endproc
                                        # -- End function
	.p2align	4, 0x90         # -- Begin function default_bzfree.7
	.type	default_bzfree.7,@function
default_bzfree.7:                       # @default_bzfree.7
	.cfi_startproc
# %bb.0:                                # %entry
	pushq	%rbp
	.cfi_def_cfa_offset 16
	.cfi_offset %rbp, -16
	movq	%rsp, %rbp
	.cfi_def_cfa_register %rbp
	subq	$32, %rsp
	movl	$892663512, -4(%rbp)    # imm = 0x3534F6D8
	movq	%rdi, -24(%rbp)
	movq	%rsi, -16(%rbp)
	cmpq	$0, -16(%rbp)
	je	.LBB47_2
# %bb.1:                                # %if.then
	movq	-16(%rbp), %rdi
	callq	free
.LBB47_2:                               # %if.end
	cmpl	$892663512, -4(%rbp)    # imm = 0x3534F6D8
	jne	.LBB47_4
.LBB47_3:
	addq	$32, %rsp
	popq	%rbp
	.cfi_def_cfa %rsp, 8
	retq
.LBB47_4:                               # %func_exit
	.cfi_def_cfa %rbp, 16
	callq	detect_breach
	jmp	.LBB47_3
.Lfunc_end47:
	.size	default_bzfree.7, .Lfunc_end47-default_bzfree.7
	.cfi_endproc
                                        # -- End function
	.globl	BZ2_bzDecompressEnd.8   # -- Begin function BZ2_bzDecompressEnd.8
	.p2align	4, 0x90
	.type	BZ2_bzDecompressEnd.8,@function
BZ2_bzDecompressEnd.8:                  # @BZ2_bzDecompressEnd.8
	.cfi_startproc
# %bb.0:                                # %entry
	pushq	%rbp
	.cfi_def_cfa_offset 16
	.cfi_offset %rbp, -16
	movq	%rsp, %rbp
	.cfi_def_cfa_register %rbp
	pushq	%rbx
	subq	$40, %rsp
	.cfi_offset %rbx, -24
	movl	$1512862013, -36(%rbp)  # imm = 0x5A2C713D
	movq	%rdi, -16(%rbp)
	cmpq	$0, -16(%rbp)
	jne	.LBB48_2
# %bb.1:                                # %if.then
	movl	$-2, -20(%rbp)
	jmp	.LBB48_13
.LBB48_2:                               # %if.end
	movq	-16(%rbp), %rax
	movq	48(%rax), %rax
	movq	%rax, -32(%rbp)
	cmpq	$0, -32(%rbp)
	jne	.LBB48_4
# %bb.3:                                # %if.then2
	movl	$-2, -20(%rbp)
	jmp	.LBB48_13
.LBB48_4:                               # %if.end3
	movq	-32(%rbp), %rax
	movq	(%rax), %rax
	cmpq	-16(%rbp), %rax
	je	.LBB48_6
# %bb.5:                                # %if.then6
	movl	$-2, -20(%rbp)
	jmp	.LBB48_13
.LBB48_6:                               # %if.end7
	movq	-32(%rbp), %rax
	cmpq	$0, 3152(%rax)
	je	.LBB48_8
# %bb.7:                                # %if.then9
	movq	-16(%rbp), %rax
	movq	64(%rax), %rax
	movq	-16(%rbp), %rcx
	movq	72(%rcx), %rdi
	movq	-32(%rbp), %rcx
	movq	3152(%rcx), %rsi
	callq	*%rax
.LBB48_8:                               # %if.end11
	movq	-32(%rbp), %rax
	cmpq	$0, 3160(%rax)
	je	.LBB48_10
# %bb.9:                                # %if.then13
	movq	-16(%rbp), %rax
	movq	64(%rax), %rax
	movq	-16(%rbp), %rcx
	movq	72(%rcx), %rdi
	movq	-32(%rbp), %rcx
	movq	3160(%rcx), %rsi
	callq	*%rax
.LBB48_10:                              # %if.end17
	movq	-32(%rbp), %rax
	cmpq	$0, 3168(%rax)
	je	.LBB48_12
# %bb.11:                               # %if.then19
	movq	-16(%rbp), %rax
	movq	64(%rax), %rax
	movq	-16(%rbp), %rcx
	movq	72(%rcx), %rdi
	movq	-32(%rbp), %rcx
	movq	3168(%rcx), %rsi
	callq	*%rax
.LBB48_12:                              # %if.end23
	movq	-16(%rbp), %rax
	movq	64(%rax), %rax
	movq	-16(%rbp), %rcx
	movq	72(%rcx), %rdi
	movq	-16(%rbp), %rcx
	movq	48(%rcx), %rsi
	callq	*%rax
	movq	-16(%rbp), %rax
	movq	$0, 48(%rax)
	movl	$0, -20(%rbp)
.LBB48_13:                              # %return
	movl	-20(%rbp), %ebx
	cmpl	$1512862013, -36(%rbp)  # imm = 0x5A2C713D
	jne	.LBB48_15
.LBB48_14:
	movl	%ebx, %eax
	addq	$40, %rsp
	popq	%rbx
	popq	%rbp
	.cfi_def_cfa %rsp, 8
	retq
.LBB48_15:                              # %func_exit
	.cfi_def_cfa %rbp, 16
	callq	detect_breach
	jmp	.LBB48_14
.Lfunc_end48:
	.size	BZ2_bzDecompressEnd.8, .Lfunc_end48-BZ2_bzDecompressEnd.8
	.cfi_endproc
                                        # -- End function
	.p2align	4, 0x90         # -- Begin function handle_compress.9
	.type	handle_compress.9,@function
handle_compress.9:                      # @handle_compress.9
	.cfi_startproc
# %bb.0:                                # %entry
	pushq	%rbp
	.cfi_def_cfa_offset 16
	.cfi_offset %rbp, -16
	movq	%rsp, %rbp
	.cfi_def_cfa_register %rbp
	pushq	%rbx
	subq	$40, %rsp
	.cfi_offset %rbx, -24
	movl	$1230519949, -28(%rbp)  # imm = 0x49583E8D
	movq	%rdi, -40(%rbp)
	movb	$0, -9(%rbp)
	movb	$0, -10(%rbp)
	movq	-40(%rbp), %rax
	movq	48(%rax), %rax
	movq	%rax, -24(%rbp)
.LBB49_1:                               # %while.body
                                        # =>This Inner Loop Header: Depth=1
	movq	-24(%rbp), %rax
	cmpl	$1, 12(%rax)
	jne	.LBB49_13
# %bb.2:                                # %if.then
                                        #   in Loop: Header=BB49_1 Depth=1
	movq	-24(%rbp), %rdi
	callq	copy_output_until_stop
	movzbl	%al, %eax
	movzbl	-10(%rbp), %ecx
	orl	%eax, %ecx
	movb	%cl, -10(%rbp)
	movq	-24(%rbp), %rax
	movl	120(%rax), %eax
	movq	-24(%rbp), %rcx
	cmpl	116(%rcx), %eax
	jge	.LBB49_4
# %bb.3:                                # %if.then6
	jmp	.LBB49_25
.LBB49_4:                               # %if.end
                                        #   in Loop: Header=BB49_1 Depth=1
	movq	-24(%rbp), %rax
	cmpl	$4, 8(%rax)
	jne	.LBB49_8
# %bb.5:                                # %land.lhs.true
                                        #   in Loop: Header=BB49_1 Depth=1
	movq	-24(%rbp), %rax
	cmpl	$0, 16(%rax)
	jne	.LBB49_8
# %bb.6:                                # %land.lhs.true11
                                        #   in Loop: Header=BB49_1 Depth=1
	movq	-24(%rbp), %rdi
	callq	isempty_RL
	movzbl	%al, %eax
	cmpl	$0, %eax
	je	.LBB49_8
# %bb.7:                                # %if.then14
	jmp	.LBB49_25
.LBB49_8:                               # %if.end15
                                        #   in Loop: Header=BB49_1 Depth=1
	movq	-24(%rbp), %rdi
	callq	prepare_new_block
	movq	-24(%rbp), %rax
	movl	$2, 12(%rax)
	movq	-24(%rbp), %rax
	cmpl	$3, 8(%rax)
	jne	.LBB49_12
# %bb.9:                                # %land.lhs.true20
                                        #   in Loop: Header=BB49_1 Depth=1
	movq	-24(%rbp), %rax
	cmpl	$0, 16(%rax)
	jne	.LBB49_12
# %bb.10:                               # %land.lhs.true24
                                        #   in Loop: Header=BB49_1 Depth=1
	movq	-24(%rbp), %rdi
	callq	isempty_RL
	movzbl	%al, %eax
	cmpl	$0, %eax
	je	.LBB49_12
# %bb.11:                               # %if.then28
	jmp	.LBB49_25
.LBB49_12:                              # %if.end29
                                        #   in Loop: Header=BB49_1 Depth=1
	jmp	.LBB49_13
.LBB49_13:                              # %if.end30
                                        #   in Loop: Header=BB49_1 Depth=1
	movq	-24(%rbp), %rax
	cmpl	$2, 12(%rax)
	jne	.LBB49_24
# %bb.14:                               # %if.then34
                                        #   in Loop: Header=BB49_1 Depth=1
	movq	-24(%rbp), %rdi
	callq	copy_input_until_stop
	movzbl	%al, %eax
	movzbl	-9(%rbp), %ecx
	orl	%eax, %ecx
	movb	%cl, -9(%rbp)
	movq	-24(%rbp), %rax
	cmpl	$2, 8(%rax)
	je	.LBB49_17
# %bb.15:                               # %land.lhs.true43
                                        #   in Loop: Header=BB49_1 Depth=1
	movq	-24(%rbp), %rax
	cmpl	$0, 16(%rax)
	jne	.LBB49_17
# %bb.16:                               # %if.then47
                                        #   in Loop: Header=BB49_1 Depth=1
	movq	-24(%rbp), %rdi
	callq	flush_RL
	movq	-24(%rbp), %rdi
	movq	-24(%rbp), %rax
	cmpl	$4, 8(%rax)
	sete	%al
	andb	$1, %al
	movzbl	%al, %eax
	movzbl	%al, %esi
	callq	BZ2_compressBlock
	movq	-24(%rbp), %rax
	movl	$1, 12(%rax)
	jmp	.LBB49_23
.LBB49_17:                              # %if.else
                                        #   in Loop: Header=BB49_1 Depth=1
	movq	-24(%rbp), %rax
	movl	108(%rax), %eax
	movq	-24(%rbp), %rcx
	cmpl	112(%rcx), %eax
	jl	.LBB49_19
# %bb.18:                               # %if.then55
                                        #   in Loop: Header=BB49_1 Depth=1
	movq	-24(%rbp), %rdi
	xorl	%esi, %esi
	callq	BZ2_compressBlock
	movq	-24(%rbp), %rax
	movl	$1, 12(%rax)
	jmp	.LBB49_22
.LBB49_19:                              # %if.else57
                                        #   in Loop: Header=BB49_1 Depth=1
	movq	-24(%rbp), %rax
	movq	(%rax), %rax
	cmpl	$0, 8(%rax)
	jne	.LBB49_21
# %bb.20:                               # %if.then61
	jmp	.LBB49_25
.LBB49_21:                              # %if.end62
                                        #   in Loop: Header=BB49_1 Depth=1
	jmp	.LBB49_22
.LBB49_22:                              # %if.end63
                                        #   in Loop: Header=BB49_1 Depth=1
	jmp	.LBB49_23
.LBB49_23:                              # %if.end64
                                        #   in Loop: Header=BB49_1 Depth=1
	jmp	.LBB49_24
.LBB49_24:                              # %if.end65
                                        #   in Loop: Header=BB49_1 Depth=1
	jmp	.LBB49_1
.LBB49_25:                              # %while.end
	movzbl	-9(%rbp), %eax
	cmpl	$0, %eax
	movb	$1, %al
	jne	.LBB49_27
# %bb.26:                               # %lor.rhs
	movzbl	-10(%rbp), %eax
	cmpl	$0, %eax
	setne	%al
.LBB49_27:                              # %lor.end
	andb	$1, %al
	movzbl	%al, %ebx
	cmpl	$1230519949, -28(%rbp)  # imm = 0x49583E8D
	jne	.LBB49_29
.LBB49_28:
	movzbl	%bl, %eax
	addq	$40, %rsp
	popq	%rbx
	popq	%rbp
	.cfi_def_cfa %rsp, 8
	retq
.LBB49_29:                              # %func_exit
	.cfi_def_cfa %rbp, 16
	callq	detect_breach
	jmp	.LBB49_28
.Lfunc_end49:
	.size	handle_compress.9, .Lfunc_end49-handle_compress.9
	.cfi_endproc
                                        # -- End function
	.globl	BZ2_bzWriteClose.10     # -- Begin function BZ2_bzWriteClose.10
	.p2align	4, 0x90
	.type	BZ2_bzWriteClose.10,@function
BZ2_bzWriteClose.10:                    # @BZ2_bzWriteClose.10
	.cfi_startproc
# %bb.0:                                # %entry
	pushq	%rbp
	.cfi_def_cfa_offset 16
	.cfi_offset %rbp, -16
	movq	%rsp, %rbp
	.cfi_def_cfa_register %rbp
	subq	$48, %rsp
	movl	$1115729741, -8(%rbp)   # imm = 0x4280AF4D
	movq	%rdi, -24(%rbp)
	movq	%rsi, -40(%rbp)
	movl	%edx, -4(%rbp)
	movq	%rcx, -32(%rbp)
	movq	%r8, -16(%rbp)
	movq	-24(%rbp), %rdi
	movq	-40(%rbp), %rsi
	movl	-4(%rbp), %edx
	movq	-32(%rbp), %rcx
	movq	-16(%rbp), %r9
	xorl	%r8d, %r8d
	movq	$0, (%rsp)
	callq	BZ2_bzWriteClose64
	cmpl	$1115729741, -8(%rbp)   # imm = 0x4280AF4D
	jne	.LBB50_2
.LBB50_1:
	addq	$48, %rsp
	popq	%rbp
	.cfi_def_cfa %rsp, 8
	retq
.LBB50_2:                               # %func_exit
	.cfi_def_cfa %rbp, 16
	callq	detect_breach
	jmp	.LBB50_1
.Lfunc_end50:
	.size	BZ2_bzWriteClose.10, .Lfunc_end50-BZ2_bzWriteClose.10
	.cfi_endproc
                                        # -- End function
	.globl	BZ2_bzWriteOpen.11      # -- Begin function BZ2_bzWriteOpen.11
	.p2align	4, 0x90
	.type	BZ2_bzWriteOpen.11,@function
BZ2_bzWriteOpen.11:                     # @BZ2_bzWriteOpen.11
	.cfi_startproc
# %bb.0:                                # %entry
	pushq	%rbp
	.cfi_def_cfa_offset 16
	.cfi_offset %rbp, -16
	movq	%rsp, %rbp
	.cfi_def_cfa_register %rbp
	pushq	%rbx
	subq	$56, %rsp
	.cfi_offset %rbx, -24
	movl	$1779049532, -60(%rbp)  # imm = 0x6A0A243C
	movq	%rdi, -24(%rbp)
	movq	%rsi, -56(%rbp)
	movl	%edx, -32(%rbp)
	movl	%ecx, -36(%rbp)
	movl	%r8d, -28(%rbp)
	movq	$0, -16(%rbp)
	cmpq	$0, -24(%rbp)
	je	.LBB51_2
# %bb.1:                                # %if.then
	movq	-24(%rbp), %rax
	movl	$0, (%rax)
.LBB51_2:                               # %if.end
	cmpq	$0, -16(%rbp)
	je	.LBB51_4
# %bb.3:                                # %if.then2
	movq	-16(%rbp), %rax
	movl	$0, 5096(%rax)
.LBB51_4:                               # %if.end3
	cmpq	$0, -56(%rbp)
	je	.LBB51_11
# %bb.5:                                # %lor.lhs.false
	cmpl	$1, -32(%rbp)
	jl	.LBB51_11
# %bb.6:                                # %lor.lhs.false6
	cmpl	$9, -32(%rbp)
	jg	.LBB51_11
# %bb.7:                                # %lor.lhs.false8
	cmpl	$0, -28(%rbp)
	jl	.LBB51_11
# %bb.8:                                # %lor.lhs.false10
	cmpl	$250, -28(%rbp)
	jg	.LBB51_11
# %bb.9:                                # %lor.lhs.false12
	cmpl	$0, -36(%rbp)
	jl	.LBB51_11
# %bb.10:                               # %lor.lhs.false14
	cmpl	$4, -36(%rbp)
	jle	.LBB51_16
.LBB51_11:                              # %if.then16
	cmpq	$0, -24(%rbp)
	je	.LBB51_13
# %bb.12:                               # %if.then18
	movq	-24(%rbp), %rax
	movl	$-2, (%rax)
.LBB51_13:                              # %if.end19
	cmpq	$0, -16(%rbp)
	je	.LBB51_15
# %bb.14:                               # %if.then21
	movq	-16(%rbp), %rax
	movl	$-2, 5096(%rax)
.LBB51_15:                              # %if.end23
	movq	$0, -48(%rbp)
	jmp	.LBB51_41
.LBB51_16:                              # %if.end24
	movq	-56(%rbp), %rdi
	callq	ferror
	cmpl	$0, %eax
	je	.LBB51_22
# %bb.17:                               # %if.then25
	cmpq	$0, -24(%rbp)
	je	.LBB51_19
# %bb.18:                               # %if.then27
	movq	-24(%rbp), %rax
	movl	$-6, (%rax)
.LBB51_19:                              # %if.end28
	cmpq	$0, -16(%rbp)
	je	.LBB51_21
# %bb.20:                               # %if.then30
	movq	-16(%rbp), %rax
	movl	$-6, 5096(%rax)
.LBB51_21:                              # %if.end32
	movq	$0, -48(%rbp)
	jmp	.LBB51_41
.LBB51_22:                              # %if.end33
	movl	$5104, %edi             # imm = 0x13F0
	callq	malloc
	movq	%rax, -16(%rbp)
	cmpq	$0, -16(%rbp)
	jne	.LBB51_28
# %bb.23:                               # %if.then36
	cmpq	$0, -24(%rbp)
	je	.LBB51_25
# %bb.24:                               # %if.then38
	movq	-24(%rbp), %rax
	movl	$-3, (%rax)
.LBB51_25:                              # %if.end39
	cmpq	$0, -16(%rbp)
	je	.LBB51_27
# %bb.26:                               # %if.then41
	movq	-16(%rbp), %rax
	movl	$-3, 5096(%rax)
.LBB51_27:                              # %if.end43
	movq	$0, -48(%rbp)
	jmp	.LBB51_41
.LBB51_28:                              # %if.end44
	cmpq	$0, -24(%rbp)
	je	.LBB51_30
# %bb.29:                               # %if.then46
	movq	-24(%rbp), %rax
	movl	$0, (%rax)
.LBB51_30:                              # %if.end47
	cmpq	$0, -16(%rbp)
	je	.LBB51_32
# %bb.31:                               # %if.then49
	movq	-16(%rbp), %rax
	movl	$0, 5096(%rax)
.LBB51_32:                              # %if.end51
	movq	-16(%rbp), %rax
	movb	$0, 5100(%rax)
	movq	-16(%rbp), %rax
	movl	$0, 5008(%rax)
	movq	-56(%rbp), %rax
	movq	-16(%rbp), %rcx
	movq	%rax, (%rcx)
	movq	-16(%rbp), %rax
	movb	$1, 5012(%rax)
	movq	-16(%rbp), %rax
	movq	$0, 5072(%rax)
	movq	-16(%rbp), %rax
	movq	$0, 5080(%rax)
	movq	-16(%rbp), %rax
	movq	$0, 5088(%rax)
	cmpl	$0, -28(%rbp)
	jne	.LBB51_34
# %bb.33:                               # %if.then55
	movl	$30, -28(%rbp)
.LBB51_34:                              # %if.end56
	movq	-16(%rbp), %rdi
	addq	$5016, %rdi             # imm = 0x1398
	movl	-32(%rbp), %esi
	movl	-36(%rbp), %edx
	movl	-28(%rbp), %ecx
	callq	BZ2_bzCompressInit
	movl	%eax, -40(%rbp)
	cmpl	$0, -40(%rbp)
	je	.LBB51_40
# %bb.35:                               # %if.then60
	cmpq	$0, -24(%rbp)
	je	.LBB51_37
# %bb.36:                               # %if.then62
	movl	-40(%rbp), %eax
	movq	-24(%rbp), %rcx
	movl	%eax, (%rcx)
.LBB51_37:                              # %if.end63
	cmpq	$0, -16(%rbp)
	je	.LBB51_39
# %bb.38:                               # %if.then65
	movl	-40(%rbp), %eax
	movq	-16(%rbp), %rcx
	movl	%eax, 5096(%rcx)
.LBB51_39:                              # %if.end67
	movq	-16(%rbp), %rdi
	callq	free
	movq	$0, -48(%rbp)
	jmp	.LBB51_41
.LBB51_40:                              # %if.end68
	movq	-16(%rbp), %rax
	movl	$0, 5024(%rax)
	movq	-16(%rbp), %rax
	movb	$1, 5100(%rax)
	movq	-16(%rbp), %rax
	movq	%rax, -48(%rbp)
.LBB51_41:                              # %return
	movq	-48(%rbp), %rbx
	cmpl	$1779049532, -60(%rbp)  # imm = 0x6A0A243C
	jne	.LBB51_43
.LBB51_42:
	movq	%rbx, %rax
	addq	$56, %rsp
	popq	%rbx
	popq	%rbp
	.cfi_def_cfa %rsp, 8
	retq
.LBB51_43:                              # %func_exit
	.cfi_def_cfa %rbp, 16
	callq	detect_breach
	jmp	.LBB51_42
.Lfunc_end51:
	.size	BZ2_bzWriteOpen.11, .Lfunc_end51-BZ2_bzWriteOpen.11
	.cfi_endproc
                                        # -- End function
	.globl	BZ2_bzCompressInit.12   # -- Begin function BZ2_bzCompressInit.12
	.p2align	4, 0x90
	.type	BZ2_bzCompressInit.12,@function
BZ2_bzCompressInit.12:                  # @BZ2_bzCompressInit.12
	.cfi_startproc
# %bb.0:                                # %entry
	pushq	%rbp
	.cfi_def_cfa_offset 16
	.cfi_offset %rbp, -16
	movq	%rsp, %rbp
	.cfi_def_cfa_register %rbp
	pushq	%rbx
	subq	$40, %rsp
	.cfi_offset %rbx, -24
	movl	$1117158651, -44(%rbp)  # imm = 0x42967CFB
	movq	%rdi, -24(%rbp)
	movl	%esi, -36(%rbp)
	movl	%edx, -48(%rbp)
	movl	%ecx, -32(%rbp)
	callq	bz_config_ok
	cmpl	$0, %eax
	jne	.LBB52_2
# %bb.1:                                # %if.then
	movl	$-9, -28(%rbp)
	jmp	.LBB52_29
.LBB52_2:                               # %if.end
	cmpq	$0, -24(%rbp)
	je	.LBB52_7
# %bb.3:                                # %lor.lhs.false
	cmpl	$1, -36(%rbp)
	jl	.LBB52_7
# %bb.4:                                # %lor.lhs.false2
	cmpl	$9, -36(%rbp)
	jg	.LBB52_7
# %bb.5:                                # %lor.lhs.false4
	cmpl	$0, -32(%rbp)
	jl	.LBB52_7
# %bb.6:                                # %lor.lhs.false6
	cmpl	$250, -32(%rbp)
	jle	.LBB52_8
.LBB52_7:                               # %if.then8
	movl	$-2, -28(%rbp)
	jmp	.LBB52_29
.LBB52_8:                               # %if.end9
	cmpl	$0, -32(%rbp)
	jne	.LBB52_10
# %bb.9:                                # %if.then11
	movl	$30, -32(%rbp)
.LBB52_10:                              # %if.end12
	movq	-24(%rbp), %rax
	cmpq	$0, 56(%rax)
	jne	.LBB52_12
# %bb.11:                               # %if.then14
	movq	-24(%rbp), %rax
	movabsq	$default_bzalloc, %rcx
	movq	%rcx, 56(%rax)
.LBB52_12:                              # %if.end16
	movq	-24(%rbp), %rax
	cmpq	$0, 64(%rax)
	jne	.LBB52_14
# %bb.13:                               # %if.then18
	movq	-24(%rbp), %rax
	movabsq	$default_bzfree, %rcx
	movq	%rcx, 64(%rax)
.LBB52_14:                              # %if.end20
	movq	-24(%rbp), %rax
	movq	56(%rax), %rax
	movq	-24(%rbp), %rcx
	movq	72(%rcx), %rdi
	movl	$55768, %esi            # imm = 0xD9D8
	movl	$1, %edx
	callq	*%rax
	movq	%rax, -16(%rbp)
	cmpq	$0, -16(%rbp)
	jne	.LBB52_16
# %bb.15:                               # %if.then24
	movl	$-3, -28(%rbp)
	jmp	.LBB52_29
.LBB52_16:                              # %if.end25
	movq	-24(%rbp), %rax
	movq	-16(%rbp), %rcx
	movq	%rax, (%rcx)
	movq	-16(%rbp), %rax
	movq	$0, 24(%rax)
	movq	-16(%rbp), %rax
	movq	$0, 32(%rax)
	movq	-16(%rbp), %rax
	movq	$0, 40(%rax)
	imull	$100000, -36(%rbp), %eax # imm = 0x186A0
	movl	%eax, -40(%rbp)
	movq	-24(%rbp), %rax
	movq	56(%rax), %rax
	movq	-24(%rbp), %rcx
	movq	72(%rcx), %rdi
	movslq	-40(%rbp), %rsi
	shlq	$2, %rsi
                                        # kill: def $esi killed $esi killed $rsi
	movl	$1, %edx
	callq	*%rax
	movq	-16(%rbp), %rcx
	movq	%rax, 24(%rcx)
	movq	-24(%rbp), %rax
	movq	56(%rax), %rax
	movq	-24(%rbp), %rcx
	movq	72(%rcx), %rdi
	movl	-40(%rbp), %ecx
	addl	$34, %ecx
	movslq	%ecx, %rsi
	shlq	$2, %rsi
                                        # kill: def $esi killed $esi killed $rsi
	movl	$1, %edx
	callq	*%rax
	movq	-16(%rbp), %rcx
	movq	%rax, 32(%rcx)
	movq	-24(%rbp), %rax
	movq	56(%rax), %rax
	movq	-24(%rbp), %rcx
	movq	72(%rcx), %rdi
	movl	$262148, %esi           # imm = 0x40004
	movl	$1, %edx
	callq	*%rax
	movq	-16(%rbp), %rcx
	movq	%rax, 40(%rcx)
	movq	-16(%rbp), %rax
	cmpq	$0, 24(%rax)
	je	.LBB52_19
# %bb.17:                               # %lor.lhs.false47
	movq	-16(%rbp), %rax
	cmpq	$0, 32(%rax)
	je	.LBB52_19
# %bb.18:                               # %lor.lhs.false51
	movq	-16(%rbp), %rax
	cmpq	$0, 40(%rax)
	jne	.LBB52_28
.LBB52_19:                              # %if.then55
	movq	-16(%rbp), %rax
	cmpq	$0, 24(%rax)
	je	.LBB52_21
# %bb.20:                               # %if.then59
	movq	-24(%rbp), %rax
	movq	64(%rax), %rax
	movq	-24(%rbp), %rcx
	movq	72(%rcx), %rdi
	movq	-16(%rbp), %rcx
	movq	24(%rcx), %rsi
	callq	*%rax
.LBB52_21:                              # %if.end63
	movq	-16(%rbp), %rax
	cmpq	$0, 32(%rax)
	je	.LBB52_23
# %bb.22:                               # %if.then67
	movq	-24(%rbp), %rax
	movq	64(%rax), %rax
	movq	-24(%rbp), %rcx
	movq	72(%rcx), %rdi
	movq	-16(%rbp), %rcx
	movq	32(%rcx), %rsi
	callq	*%rax
.LBB52_23:                              # %if.end71
	movq	-16(%rbp), %rax
	cmpq	$0, 40(%rax)
	je	.LBB52_25
# %bb.24:                               # %if.then75
	movq	-24(%rbp), %rax
	movq	64(%rax), %rax
	movq	-24(%rbp), %rcx
	movq	72(%rcx), %rdi
	movq	-16(%rbp), %rcx
	movq	40(%rcx), %rsi
	callq	*%rax
.LBB52_25:                              # %if.end79
	cmpq	$0, -16(%rbp)
	je	.LBB52_27
# %bb.26:                               # %if.then82
	movq	-24(%rbp), %rax
	movq	64(%rax), %rax
	movq	-24(%rbp), %rcx
	movq	72(%rcx), %rdi
	movq	-16(%rbp), %rsi
	callq	*%rax
.LBB52_27:                              # %if.end85
	movl	$-3, -28(%rbp)
	jmp	.LBB52_29
.LBB52_28:                              # %if.end86
	movq	-16(%rbp), %rax
	movl	$0, 660(%rax)
	movq	-16(%rbp), %rax
	movl	$2, 12(%rax)
	movq	-16(%rbp), %rax
	movl	$2, 8(%rax)
	movq	-16(%rbp), %rax
	movl	$0, 652(%rax)
	movl	-36(%rbp), %eax
	movq	-16(%rbp), %rcx
	movl	%eax, 664(%rcx)
	imull	$100000, -36(%rbp), %eax # imm = 0x186A0
	subl	$19, %eax
	movq	-16(%rbp), %rcx
	movl	%eax, 112(%rcx)
	movl	-48(%rbp), %eax
	movq	-16(%rbp), %rcx
	movl	%eax, 656(%rcx)
	movl	-32(%rbp), %eax
	movq	-16(%rbp), %rcx
	movl	%eax, 88(%rcx)
	movq	-16(%rbp), %rax
	movq	32(%rax), %rax
	movq	-16(%rbp), %rcx
	movq	%rax, 64(%rcx)
	movq	-16(%rbp), %rax
	movq	24(%rax), %rax
	movq	-16(%rbp), %rcx
	movq	%rax, 72(%rcx)
	movq	-16(%rbp), %rax
	movq	$0, 80(%rax)
	movq	-16(%rbp), %rax
	movq	24(%rax), %rax
	movq	-16(%rbp), %rcx
	movq	%rax, 56(%rcx)
	movq	-16(%rbp), %rax
	movq	-24(%rbp), %rcx
	movq	%rax, 48(%rcx)
	movq	-24(%rbp), %rax
	movl	$0, 12(%rax)
	movq	-24(%rbp), %rax
	movl	$0, 16(%rax)
	movq	-24(%rbp), %rax
	movl	$0, 36(%rax)
	movq	-24(%rbp), %rax
	movl	$0, 40(%rax)
	movq	-16(%rbp), %rdi
	callq	init_RL
	movq	-16(%rbp), %rdi
	callq	prepare_new_block
	movl	$0, -28(%rbp)
.LBB52_29:                              # %return
	movl	-28(%rbp), %ebx
	cmpl	$1117158651, -44(%rbp)  # imm = 0x42967CFB
	jne	.LBB52_31
.LBB52_30:
	movl	%ebx, %eax
	addq	$40, %rsp
	popq	%rbx
	popq	%rbp
	.cfi_def_cfa %rsp, 8
	retq
.LBB52_31:                              # %func_exit
	.cfi_def_cfa %rbp, 16
	callq	detect_breach
	jmp	.LBB52_30
.Lfunc_end52:
	.size	BZ2_bzCompressInit.12, .Lfunc_end52-BZ2_bzCompressInit.12
	.cfi_endproc
                                        # -- End function
	.globl	BZ2_bzDecompressInit.13 # -- Begin function BZ2_bzDecompressInit.13
	.p2align	4, 0x90
	.type	BZ2_bzDecompressInit.13,@function
BZ2_bzDecompressInit.13:                # @BZ2_bzDecompressInit.13
	.cfi_startproc
# %bb.0:                                # %entry
	pushq	%rbp
	.cfi_def_cfa_offset 16
	.cfi_offset %rbp, -16
	movq	%rsp, %rbp
	.cfi_def_cfa_register %rbp
	pushq	%rbx
	subq	$40, %rsp
	.cfi_offset %rbx, -24
	movl	$225430397, -40(%rbp)   # imm = 0xD6FCB7D
	movq	%rdi, -24(%rbp)
	movl	%esi, -32(%rbp)
	movl	%edx, -36(%rbp)
	callq	bz_config_ok
	cmpl	$0, %eax
	jne	.LBB53_2
# %bb.1:                                # %if.then
	movl	$-9, -28(%rbp)
	jmp	.LBB53_17
.LBB53_2:                               # %if.end
	cmpq	$0, -24(%rbp)
	jne	.LBB53_4
# %bb.3:                                # %if.then1
	movl	$-2, -28(%rbp)
	jmp	.LBB53_17
.LBB53_4:                               # %if.end2
	cmpl	$0, -36(%rbp)
	je	.LBB53_7
# %bb.5:                                # %land.lhs.true
	cmpl	$1, -36(%rbp)
	je	.LBB53_7
# %bb.6:                                # %if.then5
	movl	$-2, -28(%rbp)
	jmp	.LBB53_17
.LBB53_7:                               # %if.end6
	cmpl	$0, -32(%rbp)
	jl	.LBB53_9
# %bb.8:                                # %lor.lhs.false
	cmpl	$4, -32(%rbp)
	jle	.LBB53_10
.LBB53_9:                               # %if.then9
	movl	$-2, -28(%rbp)
	jmp	.LBB53_17
.LBB53_10:                              # %if.end10
	movq	-24(%rbp), %rax
	cmpq	$0, 56(%rax)
	jne	.LBB53_12
# %bb.11:                               # %if.then12
	movq	-24(%rbp), %rax
	movabsq	$default_bzalloc, %rcx
	movq	%rcx, 56(%rax)
.LBB53_12:                              # %if.end14
	movq	-24(%rbp), %rax
	cmpq	$0, 64(%rax)
	jne	.LBB53_14
# %bb.13:                               # %if.then16
	movq	-24(%rbp), %rax
	movabsq	$default_bzfree, %rcx
	movq	%rcx, 64(%rax)
.LBB53_14:                              # %if.end18
	movq	-24(%rbp), %rax
	movq	56(%rax), %rax
	movq	-24(%rbp), %rcx
	movq	72(%rcx), %rdi
	movl	$64144, %esi            # imm = 0xFA90
	movl	$1, %edx
	callq	*%rax
	movq	%rax, -16(%rbp)
	cmpq	$0, -16(%rbp)
	jne	.LBB53_16
# %bb.15:                               # %if.then22
	movl	$-3, -28(%rbp)
	jmp	.LBB53_17
.LBB53_16:                              # %if.end23
	movq	-24(%rbp), %rax
	movq	-16(%rbp), %rcx
	movq	%rax, (%rcx)
	movq	-16(%rbp), %rax
	movq	-24(%rbp), %rcx
	movq	%rax, 48(%rcx)
	movq	-16(%rbp), %rax
	movl	$10, 8(%rax)
	movq	-16(%rbp), %rax
	movl	$0, 36(%rax)
	movq	-16(%rbp), %rax
	movl	$0, 32(%rax)
	movq	-16(%rbp), %rax
	movl	$0, 3188(%rax)
	movq	-24(%rbp), %rax
	movl	$0, 12(%rax)
	movq	-24(%rbp), %rax
	movl	$0, 16(%rax)
	movq	-24(%rbp), %rax
	movl	$0, 36(%rax)
	movq	-24(%rbp), %rax
	movl	$0, 40(%rax)
	movl	-36(%rbp), %eax
	movq	-16(%rbp), %rcx
	movb	%al, 44(%rcx)
	movq	-16(%rbp), %rax
	movq	$0, 3168(%rax)
	movq	-16(%rbp), %rax
	movq	$0, 3160(%rax)
	movq	-16(%rbp), %rax
	movq	$0, 3152(%rax)
	movq	-16(%rbp), %rax
	movl	$0, 48(%rax)
	movl	-32(%rbp), %eax
	movq	-16(%rbp), %rcx
	movl	%eax, 52(%rcx)
	movl	$0, -28(%rbp)
.LBB53_17:                              # %return
	movl	-28(%rbp), %ebx
	cmpl	$225430397, -40(%rbp)   # imm = 0xD6FCB7D
	jne	.LBB53_19
.LBB53_18:
	movl	%ebx, %eax
	addq	$40, %rsp
	popq	%rbx
	popq	%rbp
	.cfi_def_cfa %rsp, 8
	retq
.LBB53_19:                              # %func_exit
	.cfi_def_cfa %rbp, 16
	callq	detect_breach
	jmp	.LBB53_18
.Lfunc_end53:
	.size	BZ2_bzDecompressInit.13, .Lfunc_end53-BZ2_bzDecompressInit.13
	.cfi_endproc
                                        # -- End function
	.globl	BZ2_bzDecompress.14     # -- Begin function BZ2_bzDecompress.14
	.p2align	4, 0x90
	.type	BZ2_bzDecompress.14,@function
BZ2_bzDecompress.14:                    # @BZ2_bzDecompress.14
	.cfi_startproc
# %bb.0:                                # %entry
	pushq	%rbp
	.cfi_def_cfa_offset 16
	.cfi_offset %rbp, -16
	movq	%rsp, %rbp
	.cfi_def_cfa_register %rbp
	pushq	%rbx
	subq	$40, %rsp
	.cfi_offset %rbx, -24
	movl	$2003122940, -44(%rbp)  # imm = 0x77653AFC
	movq	%rdi, -40(%rbp)
	cmpq	$0, -40(%rbp)
	jne	.LBB54_2
# %bb.1:                                # %if.then
	movl	$-2, -24(%rbp)
	jmp	.LBB54_37
.LBB54_2:                               # %if.end
	movq	-40(%rbp), %rax
	movq	48(%rax), %rax
	movq	%rax, -16(%rbp)
	cmpq	$0, -16(%rbp)
	jne	.LBB54_4
# %bb.3:                                # %if.then2
	movl	$-2, -24(%rbp)
	jmp	.LBB54_37
.LBB54_4:                               # %if.end3
	movq	-16(%rbp), %rax
	movq	(%rax), %rax
	cmpq	-40(%rbp), %rax
	je	.LBB54_6
# %bb.5:                                # %if.then6
	movl	$-2, -24(%rbp)
	jmp	.LBB54_37
.LBB54_6:                               # %if.end7
	jmp	.LBB54_7
.LBB54_7:                               # %while.body
                                        # =>This Inner Loop Header: Depth=1
	movq	-16(%rbp), %rax
	cmpl	$1, 8(%rax)
	jne	.LBB54_9
# %bb.8:                                # %if.then10
	movl	$-1, -24(%rbp)
	jmp	.LBB54_37
.LBB54_9:                               # %if.end11
                                        #   in Loop: Header=BB54_7 Depth=1
	movq	-16(%rbp), %rax
	cmpl	$2, 8(%rax)
	jne	.LBB54_26
# %bb.10:                               # %if.then14
                                        #   in Loop: Header=BB54_7 Depth=1
	movq	-16(%rbp), %rax
	cmpb	$0, 44(%rax)
	je	.LBB54_12
# %bb.11:                               # %if.then15
                                        #   in Loop: Header=BB54_7 Depth=1
	movq	-16(%rbp), %rdi
	callq	unRLE_obuf_to_output_SMALL
	movb	%al, -17(%rbp)
	jmp	.LBB54_13
.LBB54_12:                              # %if.else
                                        #   in Loop: Header=BB54_7 Depth=1
	movq	-16(%rbp), %rdi
	callq	unRLE_obuf_to_output_FAST
	movb	%al, -17(%rbp)
.LBB54_13:                              # %if.end17
                                        #   in Loop: Header=BB54_7 Depth=1
	cmpb	$0, -17(%rbp)
	je	.LBB54_15
# %bb.14:                               # %if.then19
	movl	$-4, -24(%rbp)
	jmp	.LBB54_37
.LBB54_15:                              # %if.end20
                                        #   in Loop: Header=BB54_7 Depth=1
	movq	-16(%rbp), %rax
	movl	1092(%rax), %eax
	movq	-16(%rbp), %rcx
	movl	64080(%rcx), %ecx
	addl	$1, %ecx
	cmpl	%ecx, %eax
	jne	.LBB54_24
# %bb.16:                               # %land.lhs.true
                                        #   in Loop: Header=BB54_7 Depth=1
	movq	-16(%rbp), %rax
	cmpl	$0, 16(%rax)
	jne	.LBB54_24
# %bb.17:                               # %if.then23
                                        #   in Loop: Header=BB54_7 Depth=1
	movq	-16(%rbp), %rax
	movl	3184(%rax), %eax
	xorl	$-1, %eax
	movq	-16(%rbp), %rcx
	movl	%eax, 3184(%rcx)
	movq	-16(%rbp), %rax
	cmpl	$3, 52(%rax)
	jl	.LBB54_19
# %bb.18:                               # %if.then26
                                        #   in Loop: Header=BB54_7 Depth=1
	movq	stderr, %rdi
	movq	-16(%rbp), %rax
	movl	3176(%rax), %edx
	movq	-16(%rbp), %rax
	movl	3184(%rax), %ecx
	movabsq	$.L.str.2, %rsi
	movb	$0, %al
	callq	fprintf
.LBB54_19:                              # %if.end29
                                        #   in Loop: Header=BB54_7 Depth=1
	movq	-16(%rbp), %rax
	cmpl	$2, 52(%rax)
	jl	.LBB54_21
# %bb.20:                               # %if.then32
                                        #   in Loop: Header=BB54_7 Depth=1
	movq	stderr, %rdi
	movabsq	$.L.str.3, %rsi
	movb	$0, %al
	callq	fprintf
.LBB54_21:                              # %if.end34
                                        #   in Loop: Header=BB54_7 Depth=1
	movq	-16(%rbp), %rax
	movl	3184(%rax), %eax
	movq	-16(%rbp), %rcx
	cmpl	3176(%rcx), %eax
	je	.LBB54_23
# %bb.22:                               # %if.then38
	movl	$-4, -24(%rbp)
	jmp	.LBB54_37
.LBB54_23:                              # %if.end39
                                        #   in Loop: Header=BB54_7 Depth=1
	movq	-16(%rbp), %rax
	movl	3188(%rax), %eax
	shll	$1, %eax
	movq	-16(%rbp), %rcx
	movl	3188(%rcx), %ecx
	shrl	$31, %ecx
	orl	%ecx, %eax
	movq	-16(%rbp), %rcx
	movl	%eax, 3188(%rcx)
	movq	-16(%rbp), %rax
	movl	3184(%rax), %eax
	movq	-16(%rbp), %rcx
	xorl	3188(%rcx), %eax
	movl	%eax, 3188(%rcx)
	movq	-16(%rbp), %rax
	movl	$14, 8(%rax)
	jmp	.LBB54_25
.LBB54_24:                              # %if.else45
	movl	$0, -24(%rbp)
	jmp	.LBB54_37
.LBB54_25:                              # %if.end46
                                        #   in Loop: Header=BB54_7 Depth=1
	jmp	.LBB54_26
.LBB54_26:                              # %if.end47
                                        #   in Loop: Header=BB54_7 Depth=1
	movq	-16(%rbp), %rax
	cmpl	$10, 8(%rax)
	jl	.LBB54_36
# %bb.27:                               # %if.then50
                                        #   in Loop: Header=BB54_7 Depth=1
	movq	-16(%rbp), %rdi
	callq	BZ2_decompress
	movl	%eax, -28(%rbp)
	cmpl	$4, -28(%rbp)
	jne	.LBB54_33
# %bb.28:                               # %if.then53
	movq	-16(%rbp), %rax
	cmpl	$3, 52(%rax)
	jl	.LBB54_30
# %bb.29:                               # %if.then56
	movq	stderr, %rdi
	movq	-16(%rbp), %rax
	movl	3180(%rax), %edx
	movq	-16(%rbp), %rax
	movl	3188(%rax), %ecx
	movabsq	$.L.str.4, %rsi
	movb	$0, %al
	callq	fprintf
.LBB54_30:                              # %if.end59
	movq	-16(%rbp), %rax
	movl	3188(%rax), %eax
	movq	-16(%rbp), %rcx
	cmpl	3180(%rcx), %eax
	je	.LBB54_32
# %bb.31:                               # %if.then63
	movl	$-4, -24(%rbp)
	jmp	.LBB54_37
.LBB54_32:                              # %if.end64
	movl	-28(%rbp), %eax
	movl	%eax, -24(%rbp)
	jmp	.LBB54_37
.LBB54_33:                              # %if.end65
                                        #   in Loop: Header=BB54_7 Depth=1
	movq	-16(%rbp), %rax
	cmpl	$2, 8(%rax)
	je	.LBB54_35
# %bb.34:                               # %if.then68
	movl	-28(%rbp), %eax
	movl	%eax, -24(%rbp)
	jmp	.LBB54_37
.LBB54_35:                              # %if.end69
                                        #   in Loop: Header=BB54_7 Depth=1
	jmp	.LBB54_36
.LBB54_36:                              # %if.end70
                                        #   in Loop: Header=BB54_7 Depth=1
	jmp	.LBB54_7
.LBB54_37:                              # %return
	movl	-24(%rbp), %ebx
	cmpl	$2003122940, -44(%rbp)  # imm = 0x77653AFC
	jne	.LBB54_39
.LBB54_38:
	movl	%ebx, %eax
	addq	$40, %rsp
	popq	%rbx
	popq	%rbp
	.cfi_def_cfa %rsp, 8
	retq
.LBB54_39:                              # %func_exit
	.cfi_def_cfa %rbp, 16
	callq	detect_breach
	jmp	.LBB54_38
.Lfunc_end54:
	.size	BZ2_bzDecompress.14, .Lfunc_end54-BZ2_bzDecompress.14
	.cfi_endproc
                                        # -- End function
	.p2align	4, 0x90         # -- Begin function copy_output_until_stop.15
	.type	copy_output_until_stop.15,@function
copy_output_until_stop.15:              # @copy_output_until_stop.15
	.cfi_startproc
# %bb.0:                                # %entry
	pushq	%rbp
	.cfi_def_cfa_offset 16
	.cfi_offset %rbp, -16
	movq	%rsp, %rbp
	.cfi_def_cfa_register %rbp
	pushq	%rbx
	subq	$24, %rsp
	.cfi_offset %rbx, -24
	movl	$1071143816, -28(%rbp)  # imm = 0x3FD85B88
	movq	%rdi, -24(%rbp)
	movb	$0, -9(%rbp)
.LBB55_1:                               # %while.body
                                        # =>This Inner Loop Header: Depth=1
	movq	-24(%rbp), %rax
	movq	(%rax), %rax
	cmpl	$0, 32(%rax)
	jne	.LBB55_3
# %bb.2:                                # %if.then
	jmp	.LBB55_8
.LBB55_3:                               # %if.end
                                        #   in Loop: Header=BB55_1 Depth=1
	movq	-24(%rbp), %rax
	movl	120(%rax), %eax
	movq	-24(%rbp), %rcx
	cmpl	116(%rcx), %eax
	jl	.LBB55_5
# %bb.4:                                # %if.then2
	jmp	.LBB55_8
.LBB55_5:                               # %if.end3
                                        #   in Loop: Header=BB55_1 Depth=1
	movb	$1, -9(%rbp)
	movq	-24(%rbp), %rax
	movq	80(%rax), %rax
	movq	-24(%rbp), %rcx
	movslq	120(%rcx), %rcx
	movb	(%rax,%rcx), %al
	movq	-24(%rbp), %rcx
	movq	(%rcx), %rcx
	movq	24(%rcx), %rcx
	movb	%al, (%rcx)
	movq	-24(%rbp), %rax
	movl	120(%rax), %ecx
	addl	$1, %ecx
	movl	%ecx, 120(%rax)
	movq	-24(%rbp), %rax
	movq	(%rax), %rax
	movl	32(%rax), %ecx
	addl	$-1, %ecx
	movl	%ecx, 32(%rax)
	movq	-24(%rbp), %rax
	movq	(%rax), %rax
	movq	24(%rax), %rcx
	addq	$1, %rcx
	movq	%rcx, 24(%rax)
	movq	-24(%rbp), %rax
	movq	(%rax), %rax
	movl	36(%rax), %ecx
	addl	$1, %ecx
	movl	%ecx, 36(%rax)
	movq	-24(%rbp), %rax
	movq	(%rax), %rax
	cmpl	$0, 36(%rax)
	jne	.LBB55_7
# %bb.6:                                # %if.then16
                                        #   in Loop: Header=BB55_1 Depth=1
	movq	-24(%rbp), %rax
	movq	(%rax), %rax
	movl	40(%rax), %ecx
	addl	$1, %ecx
	movl	%ecx, 40(%rax)
.LBB55_7:                               # %if.end19
                                        #   in Loop: Header=BB55_1 Depth=1
	jmp	.LBB55_1
.LBB55_8:                               # %while.end
	movb	-9(%rbp), %bl
	cmpl	$1071143816, -28(%rbp)  # imm = 0x3FD85B88
	jne	.LBB55_10
.LBB55_9:
	movzbl	%bl, %eax
	addq	$24, %rsp
	popq	%rbx
	popq	%rbp
	.cfi_def_cfa %rsp, 8
	retq
.LBB55_10:                              # %func_exit
	.cfi_def_cfa %rbp, 16
	callq	detect_breach
	jmp	.LBB55_9
.Lfunc_end55:
	.size	copy_output_until_stop.15, .Lfunc_end55-copy_output_until_stop.15
	.cfi_endproc
                                        # -- End function
	.p2align	4, 0x90         # -- Begin function default_bzfree.16
	.type	default_bzfree.16,@function
default_bzfree.16:                      # @default_bzfree.16
	.cfi_startproc
# %bb.0:                                # %entry
	pushq	%rbp
	.cfi_def_cfa_offset 16
	.cfi_offset %rbp, -16
	movq	%rsp, %rbp
	.cfi_def_cfa_register %rbp
	subq	$32, %rsp
	movl	$27337301, -4(%rbp)     # imm = 0x1A12255
	movq	%rdi, -24(%rbp)
	movq	%rsi, -16(%rbp)
	cmpq	$0, -16(%rbp)
	je	.LBB56_2
# %bb.1:                                # %if.then
	movq	-16(%rbp), %rdi
	callq	free
.LBB56_2:                               # %if.end
	cmpl	$27337301, -4(%rbp)     # imm = 0x1A12255
	jne	.LBB56_4
.LBB56_3:
	addq	$32, %rsp
	popq	%rbp
	.cfi_def_cfa %rsp, 8
	retq
.LBB56_4:                               # %func_exit
	.cfi_def_cfa %rbp, 16
	callq	detect_breach
	jmp	.LBB56_3
.Lfunc_end56:
	.size	default_bzfree.16, .Lfunc_end56-default_bzfree.16
	.cfi_endproc
                                        # -- End function
	.p2align	4, 0x90         # -- Begin function handle_compress.17
	.type	handle_compress.17,@function
handle_compress.17:                     # @handle_compress.17
	.cfi_startproc
# %bb.0:                                # %entry
	pushq	%rbp
	.cfi_def_cfa_offset 16
	.cfi_offset %rbp, -16
	movq	%rsp, %rbp
	.cfi_def_cfa_register %rbp
	pushq	%rbx
	subq	$40, %rsp
	.cfi_offset %rbx, -24
	movl	$428950923, -28(%rbp)   # imm = 0x1991458B
	movq	%rdi, -40(%rbp)
	movb	$0, -9(%rbp)
	movb	$0, -10(%rbp)
	movq	-40(%rbp), %rax
	movq	48(%rax), %rax
	movq	%rax, -24(%rbp)
.LBB57_1:                               # %while.body
                                        # =>This Inner Loop Header: Depth=1
	movq	-24(%rbp), %rax
	cmpl	$1, 12(%rax)
	jne	.LBB57_13
# %bb.2:                                # %if.then
                                        #   in Loop: Header=BB57_1 Depth=1
	movq	-24(%rbp), %rdi
	callq	copy_output_until_stop
	movzbl	%al, %eax
	movzbl	-10(%rbp), %ecx
	orl	%eax, %ecx
	movb	%cl, -10(%rbp)
	movq	-24(%rbp), %rax
	movl	120(%rax), %eax
	movq	-24(%rbp), %rcx
	cmpl	116(%rcx), %eax
	jge	.LBB57_4
# %bb.3:                                # %if.then6
	jmp	.LBB57_25
.LBB57_4:                               # %if.end
                                        #   in Loop: Header=BB57_1 Depth=1
	movq	-24(%rbp), %rax
	cmpl	$4, 8(%rax)
	jne	.LBB57_8
# %bb.5:                                # %land.lhs.true
                                        #   in Loop: Header=BB57_1 Depth=1
	movq	-24(%rbp), %rax
	cmpl	$0, 16(%rax)
	jne	.LBB57_8
# %bb.6:                                # %land.lhs.true11
                                        #   in Loop: Header=BB57_1 Depth=1
	movq	-24(%rbp), %rdi
	callq	isempty_RL
	movzbl	%al, %eax
	cmpl	$0, %eax
	je	.LBB57_8
# %bb.7:                                # %if.then14
	jmp	.LBB57_25
.LBB57_8:                               # %if.end15
                                        #   in Loop: Header=BB57_1 Depth=1
	movq	-24(%rbp), %rdi
	callq	prepare_new_block
	movq	-24(%rbp), %rax
	movl	$2, 12(%rax)
	movq	-24(%rbp), %rax
	cmpl	$3, 8(%rax)
	jne	.LBB57_12
# %bb.9:                                # %land.lhs.true20
                                        #   in Loop: Header=BB57_1 Depth=1
	movq	-24(%rbp), %rax
	cmpl	$0, 16(%rax)
	jne	.LBB57_12
# %bb.10:                               # %land.lhs.true24
                                        #   in Loop: Header=BB57_1 Depth=1
	movq	-24(%rbp), %rdi
	callq	isempty_RL
	movzbl	%al, %eax
	cmpl	$0, %eax
	je	.LBB57_12
# %bb.11:                               # %if.then28
	jmp	.LBB57_25
.LBB57_12:                              # %if.end29
                                        #   in Loop: Header=BB57_1 Depth=1
	jmp	.LBB57_13
.LBB57_13:                              # %if.end30
                                        #   in Loop: Header=BB57_1 Depth=1
	movq	-24(%rbp), %rax
	cmpl	$2, 12(%rax)
	jne	.LBB57_24
# %bb.14:                               # %if.then34
                                        #   in Loop: Header=BB57_1 Depth=1
	movq	-24(%rbp), %rdi
	callq	copy_input_until_stop
	movzbl	%al, %eax
	movzbl	-9(%rbp), %ecx
	orl	%eax, %ecx
	movb	%cl, -9(%rbp)
	movq	-24(%rbp), %rax
	cmpl	$2, 8(%rax)
	je	.LBB57_17
# %bb.15:                               # %land.lhs.true43
                                        #   in Loop: Header=BB57_1 Depth=1
	movq	-24(%rbp), %rax
	cmpl	$0, 16(%rax)
	jne	.LBB57_17
# %bb.16:                               # %if.then47
                                        #   in Loop: Header=BB57_1 Depth=1
	movq	-24(%rbp), %rdi
	callq	flush_RL
	movq	-24(%rbp), %rdi
	movq	-24(%rbp), %rax
	cmpl	$4, 8(%rax)
	sete	%al
	andb	$1, %al
	movzbl	%al, %eax
	movzbl	%al, %esi
	callq	BZ2_compressBlock
	movq	-24(%rbp), %rax
	movl	$1, 12(%rax)
	jmp	.LBB57_23
.LBB57_17:                              # %if.else
                                        #   in Loop: Header=BB57_1 Depth=1
	movq	-24(%rbp), %rax
	movl	108(%rax), %eax
	movq	-24(%rbp), %rcx
	cmpl	112(%rcx), %eax
	jl	.LBB57_19
# %bb.18:                               # %if.then55
                                        #   in Loop: Header=BB57_1 Depth=1
	movq	-24(%rbp), %rdi
	xorl	%esi, %esi
	callq	BZ2_compressBlock
	movq	-24(%rbp), %rax
	movl	$1, 12(%rax)
	jmp	.LBB57_22
.LBB57_19:                              # %if.else57
                                        #   in Loop: Header=BB57_1 Depth=1
	movq	-24(%rbp), %rax
	movq	(%rax), %rax
	cmpl	$0, 8(%rax)
	jne	.LBB57_21
# %bb.20:                               # %if.then61
	jmp	.LBB57_25
.LBB57_21:                              # %if.end62
                                        #   in Loop: Header=BB57_1 Depth=1
	jmp	.LBB57_22
.LBB57_22:                              # %if.end63
                                        #   in Loop: Header=BB57_1 Depth=1
	jmp	.LBB57_23
.LBB57_23:                              # %if.end64
                                        #   in Loop: Header=BB57_1 Depth=1
	jmp	.LBB57_24
.LBB57_24:                              # %if.end65
                                        #   in Loop: Header=BB57_1 Depth=1
	jmp	.LBB57_1
.LBB57_25:                              # %while.end
	movzbl	-9(%rbp), %eax
	cmpl	$0, %eax
	movb	$1, %al
	jne	.LBB57_27
# %bb.26:                               # %lor.rhs
	movzbl	-10(%rbp), %eax
	cmpl	$0, %eax
	setne	%al
.LBB57_27:                              # %lor.end
	andb	$1, %al
	movzbl	%al, %ebx
	cmpl	$428950923, -28(%rbp)   # imm = 0x1991458B
	jne	.LBB57_29
.LBB57_28:
	movzbl	%bl, %eax
	addq	$40, %rsp
	popq	%rbx
	popq	%rbp
	.cfi_def_cfa %rsp, 8
	retq
.LBB57_29:                              # %func_exit
	.cfi_def_cfa %rbp, 16
	callq	detect_breach
	jmp	.LBB57_28
.Lfunc_end57:
	.size	handle_compress.17, .Lfunc_end57-handle_compress.17
	.cfi_endproc
                                        # -- End function
	.globl	BZ2_bzCompressEnd.18    # -- Begin function BZ2_bzCompressEnd.18
	.p2align	4, 0x90
	.type	BZ2_bzCompressEnd.18,@function
BZ2_bzCompressEnd.18:                   # @BZ2_bzCompressEnd.18
	.cfi_startproc
# %bb.0:                                # %entry
	pushq	%rbp
	.cfi_def_cfa_offset 16
	.cfi_offset %rbp, -16
	movq	%rsp, %rbp
	.cfi_def_cfa_register %rbp
	pushq	%rbx
	subq	$40, %rsp
	.cfi_offset %rbx, -24
	movl	$750001610, -36(%rbp)   # imm = 0x2CB41DCA
	movq	%rdi, -16(%rbp)
	cmpq	$0, -16(%rbp)
	jne	.LBB58_2
# %bb.1:                                # %if.then
	movl	$-2, -20(%rbp)
	jmp	.LBB58_13
.LBB58_2:                               # %if.end
	movq	-16(%rbp), %rax
	movq	48(%rax), %rax
	movq	%rax, -32(%rbp)
	cmpq	$0, -32(%rbp)
	jne	.LBB58_4
# %bb.3:                                # %if.then2
	movl	$-2, -20(%rbp)
	jmp	.LBB58_13
.LBB58_4:                               # %if.end3
	movq	-32(%rbp), %rax
	movq	(%rax), %rax
	cmpq	-16(%rbp), %rax
	je	.LBB58_6
# %bb.5:                                # %if.then6
	movl	$-2, -20(%rbp)
	jmp	.LBB58_13
.LBB58_6:                               # %if.end7
	movq	-32(%rbp), %rax
	cmpq	$0, 24(%rax)
	je	.LBB58_8
# %bb.7:                                # %if.then9
	movq	-16(%rbp), %rax
	movq	64(%rax), %rax
	movq	-16(%rbp), %rcx
	movq	72(%rcx), %rdi
	movq	-32(%rbp), %rcx
	movq	24(%rcx), %rsi
	callq	*%rax
.LBB58_8:                               # %if.end11
	movq	-32(%rbp), %rax
	cmpq	$0, 32(%rax)
	je	.LBB58_10
# %bb.9:                                # %if.then13
	movq	-16(%rbp), %rax
	movq	64(%rax), %rax
	movq	-16(%rbp), %rcx
	movq	72(%rcx), %rdi
	movq	-32(%rbp), %rcx
	movq	32(%rcx), %rsi
	callq	*%rax
.LBB58_10:                              # %if.end17
	movq	-32(%rbp), %rax
	cmpq	$0, 40(%rax)
	je	.LBB58_12
# %bb.11:                               # %if.then19
	movq	-16(%rbp), %rax
	movq	64(%rax), %rax
	movq	-16(%rbp), %rcx
	movq	72(%rcx), %rdi
	movq	-32(%rbp), %rcx
	movq	40(%rcx), %rsi
	callq	*%rax
.LBB58_12:                              # %if.end23
	movq	-16(%rbp), %rax
	movq	64(%rax), %rax
	movq	-16(%rbp), %rcx
	movq	72(%rcx), %rdi
	movq	-16(%rbp), %rcx
	movq	48(%rcx), %rsi
	callq	*%rax
	movq	-16(%rbp), %rax
	movq	$0, 48(%rax)
	movl	$0, -20(%rbp)
.LBB58_13:                              # %return
	movl	-20(%rbp), %ebx
	cmpl	$750001610, -36(%rbp)   # imm = 0x2CB41DCA
	jne	.LBB58_15
.LBB58_14:
	movl	%ebx, %eax
	addq	$40, %rsp
	popq	%rbx
	popq	%rbp
	.cfi_def_cfa %rsp, 8
	retq
.LBB58_15:                              # %func_exit
	.cfi_def_cfa %rbp, 16
	callq	detect_breach
	jmp	.LBB58_14
.Lfunc_end58:
	.size	BZ2_bzCompressEnd.18, .Lfunc_end58-BZ2_bzCompressEnd.18
	.cfi_endproc
                                        # -- End function
	.globl	BZ2_bzCompressEnd.19    # -- Begin function BZ2_bzCompressEnd.19
	.p2align	4, 0x90
	.type	BZ2_bzCompressEnd.19,@function
BZ2_bzCompressEnd.19:                   # @BZ2_bzCompressEnd.19
	.cfi_startproc
# %bb.0:                                # %entry
	pushq	%rbp
	.cfi_def_cfa_offset 16
	.cfi_offset %rbp, -16
	movq	%rsp, %rbp
	.cfi_def_cfa_register %rbp
	pushq	%rbx
	subq	$40, %rsp
	.cfi_offset %rbx, -24
	movl	$726131050, -36(%rbp)   # imm = 0x2B47E16A
	movq	%rdi, -16(%rbp)
	cmpq	$0, -16(%rbp)
	jne	.LBB59_2
# %bb.1:                                # %if.then
	movl	$-2, -20(%rbp)
	jmp	.LBB59_13
.LBB59_2:                               # %if.end
	movq	-16(%rbp), %rax
	movq	48(%rax), %rax
	movq	%rax, -32(%rbp)
	cmpq	$0, -32(%rbp)
	jne	.LBB59_4
# %bb.3:                                # %if.then2
	movl	$-2, -20(%rbp)
	jmp	.LBB59_13
.LBB59_4:                               # %if.end3
	movq	-32(%rbp), %rax
	movq	(%rax), %rax
	cmpq	-16(%rbp), %rax
	je	.LBB59_6
# %bb.5:                                # %if.then6
	movl	$-2, -20(%rbp)
	jmp	.LBB59_13
.LBB59_6:                               # %if.end7
	movq	-32(%rbp), %rax
	cmpq	$0, 24(%rax)
	je	.LBB59_8
# %bb.7:                                # %if.then9
	movq	-16(%rbp), %rax
	movq	64(%rax), %rax
	movq	-16(%rbp), %rcx
	movq	72(%rcx), %rdi
	movq	-32(%rbp), %rcx
	movq	24(%rcx), %rsi
	callq	*%rax
.LBB59_8:                               # %if.end11
	movq	-32(%rbp), %rax
	cmpq	$0, 32(%rax)
	je	.LBB59_10
# %bb.9:                                # %if.then13
	movq	-16(%rbp), %rax
	movq	64(%rax), %rax
	movq	-16(%rbp), %rcx
	movq	72(%rcx), %rdi
	movq	-32(%rbp), %rcx
	movq	32(%rcx), %rsi
	callq	*%rax
.LBB59_10:                              # %if.end17
	movq	-32(%rbp), %rax
	cmpq	$0, 40(%rax)
	je	.LBB59_12
# %bb.11:                               # %if.then19
	movq	-16(%rbp), %rax
	movq	64(%rax), %rax
	movq	-16(%rbp), %rcx
	movq	72(%rcx), %rdi
	movq	-32(%rbp), %rcx
	movq	40(%rcx), %rsi
	callq	*%rax
.LBB59_12:                              # %if.end23
	movq	-16(%rbp), %rax
	movq	64(%rax), %rax
	movq	-16(%rbp), %rcx
	movq	72(%rcx), %rdi
	movq	-16(%rbp), %rcx
	movq	48(%rcx), %rsi
	callq	*%rax
	movq	-16(%rbp), %rax
	movq	$0, 48(%rax)
	movl	$0, -20(%rbp)
.LBB59_13:                              # %return
	movl	-20(%rbp), %ebx
	cmpl	$726131050, -36(%rbp)   # imm = 0x2B47E16A
	jne	.LBB59_15
.LBB59_14:
	movl	%ebx, %eax
	addq	$40, %rsp
	popq	%rbx
	popq	%rbp
	.cfi_def_cfa %rsp, 8
	retq
.LBB59_15:                              # %func_exit
	.cfi_def_cfa %rbp, 16
	callq	detect_breach
	jmp	.LBB59_14
.Lfunc_end59:
	.size	BZ2_bzCompressEnd.19, .Lfunc_end59-BZ2_bzCompressEnd.19
	.cfi_endproc
                                        # -- End function
	.p2align	4, 0x90         # -- Begin function unRLE_obuf_to_output_FAST.20
	.type	unRLE_obuf_to_output_FAST.20,@function
unRLE_obuf_to_output_FAST.20:           # @unRLE_obuf_to_output_FAST.20
	.cfi_startproc
# %bb.0:                                # %entry
	pushq	%rbp
	.cfi_def_cfa_offset 16
	.cfi_offset %rbp, -16
	movq	%rsp, %rbp
	.cfi_def_cfa_register %rbp
	pushq	%rbx
	subq	$88, %rsp
	.cfi_offset %rbx, -24
	movl	$1407099574, -88(%rbp)  # imm = 0x53DEA2B6
	movq	%rdi, -24(%rbp)
	movq	-24(%rbp), %rax
	cmpb	$0, 20(%rax)
	je	.LBB60_48
# %bb.1:                                # %if.then
	jmp	.LBB60_2
.LBB60_2:                               # %while.body
                                        # =>This Loop Header: Depth=1
                                        #     Child Loop BB60_3 Depth 2
	jmp	.LBB60_3
.LBB60_3:                               # %while.body2
                                        #   Parent Loop BB60_2 Depth=1
                                        # =>  This Inner Loop Header: Depth=2
	movq	-24(%rbp), %rax
	movq	(%rax), %rax
	cmpl	$0, 32(%rax)
	jne	.LBB60_5
# %bb.4:                                # %if.then3
	movb	$0, -33(%rbp)
	jmp	.LBB60_82
.LBB60_5:                               # %if.end
                                        #   in Loop: Header=BB60_3 Depth=2
	movq	-24(%rbp), %rax
	cmpl	$0, 16(%rax)
	jne	.LBB60_7
# %bb.6:                                # %if.then5
                                        #   in Loop: Header=BB60_2 Depth=1
	jmp	.LBB60_10
.LBB60_7:                               # %if.end6
                                        #   in Loop: Header=BB60_3 Depth=2
	movq	-24(%rbp), %rax
	movb	12(%rax), %al
	movq	-24(%rbp), %rcx
	movq	(%rcx), %rcx
	movq	24(%rcx), %rcx
	movb	%al, (%rcx)
	movq	-24(%rbp), %rax
	movl	3184(%rax), %eax
	shll	$8, %eax
	movq	-24(%rbp), %rcx
	movl	3184(%rcx), %ecx
	shrl	$24, %ecx
	movq	-24(%rbp), %rdx
	movzbl	12(%rdx), %edx
	xorl	%edx, %ecx
	movl	%ecx, %ecx
	xorl	BZ2_crc32Table(,%rcx,4), %eax
	movq	-24(%rbp), %rcx
	movl	%eax, 3184(%rcx)
	movq	-24(%rbp), %rax
	movl	16(%rax), %ecx
	addl	$-1, %ecx
	movl	%ecx, 16(%rax)
	movq	-24(%rbp), %rax
	movq	(%rax), %rax
	movq	24(%rax), %rcx
	addq	$1, %rcx
	movq	%rcx, 24(%rax)
	movq	-24(%rbp), %rax
	movq	(%rax), %rax
	movl	32(%rax), %ecx
	addl	$-1, %ecx
	movl	%ecx, 32(%rax)
	movq	-24(%rbp), %rax
	movq	(%rax), %rax
	movl	36(%rax), %ecx
	addl	$1, %ecx
	movl	%ecx, 36(%rax)
	movq	-24(%rbp), %rax
	movq	(%rax), %rax
	cmpl	$0, 36(%rax)
	jne	.LBB60_9
# %bb.8:                                # %if.then23
                                        #   in Loop: Header=BB60_3 Depth=2
	movq	-24(%rbp), %rax
	movq	(%rax), %rax
	movl	40(%rax), %ecx
	addl	$1, %ecx
	movl	%ecx, 40(%rax)
.LBB60_9:                               # %if.end26
                                        #   in Loop: Header=BB60_3 Depth=2
	jmp	.LBB60_3
.LBB60_10:                              # %while.end
                                        #   in Loop: Header=BB60_2 Depth=1
	movq	-24(%rbp), %rax
	movl	1092(%rax), %eax
	movq	-24(%rbp), %rcx
	movl	64080(%rcx), %ecx
	addl	$1, %ecx
	cmpl	%ecx, %eax
	jne	.LBB60_12
# %bb.11:                               # %if.then29
	movb	$0, -33(%rbp)
	jmp	.LBB60_82
.LBB60_12:                              # %if.end30
                                        #   in Loop: Header=BB60_2 Depth=1
	movq	-24(%rbp), %rax
	movl	1092(%rax), %eax
	movq	-24(%rbp), %rcx
	movl	64080(%rcx), %ecx
	addl	$1, %ecx
	cmpl	%ecx, %eax
	jle	.LBB60_14
# %bb.13:                               # %if.then36
	movb	$1, -33(%rbp)
	jmp	.LBB60_82
.LBB60_14:                              # %if.end37
                                        #   in Loop: Header=BB60_2 Depth=1
	movq	-24(%rbp), %rax
	movl	$1, 16(%rax)
	movq	-24(%rbp), %rax
	movl	64(%rax), %eax
	movq	-24(%rbp), %rcx
	movb	%al, 12(%rcx)
	movq	-24(%rbp), %rax
	movq	3152(%rax), %rax
	movq	-24(%rbp), %rcx
	movl	60(%rcx), %ecx
	movl	(%rax,%rcx,4), %eax
	movq	-24(%rbp), %rcx
	movl	%eax, 60(%rcx)
	movq	-24(%rbp), %rax
	movl	60(%rax), %eax
	andl	$255, %eax
	movb	%al, -9(%rbp)
	movq	-24(%rbp), %rax
	movl	60(%rax), %ecx
	shrl	$8, %ecx
	movl	%ecx, 60(%rax)
	movq	-24(%rbp), %rax
	cmpl	$0, 24(%rax)
	jne	.LBB60_18
# %bb.15:                               # %if.then50
                                        #   in Loop: Header=BB60_2 Depth=1
	movq	-24(%rbp), %rax
	movslq	28(%rax), %rax
	movl	BZ2_rNums(,%rax,4), %eax
	movq	-24(%rbp), %rcx
	movl	%eax, 24(%rcx)
	movq	-24(%rbp), %rax
	movl	28(%rax), %ecx
	addl	$1, %ecx
	movl	%ecx, 28(%rax)
	movq	-24(%rbp), %rax
	cmpl	$512, 28(%rax)          # imm = 0x200
	jne	.LBB60_17
# %bb.16:                               # %if.then59
                                        #   in Loop: Header=BB60_2 Depth=1
	movq	-24(%rbp), %rax
	movl	$0, 28(%rax)
.LBB60_17:                              # %if.end61
                                        #   in Loop: Header=BB60_2 Depth=1
	jmp	.LBB60_18
.LBB60_18:                              # %if.end62
                                        #   in Loop: Header=BB60_2 Depth=1
	xorl	%eax, %eax
	movq	-24(%rbp), %rcx
	movl	24(%rcx), %edx
	addl	$-1, %edx
	movl	%edx, 24(%rcx)
	movq	-24(%rbp), %rcx
	movl	24(%rcx), %ecx
	cmpl	$1, %ecx
	movl	$1, %ecx
	cmovel	%ecx, %eax
	movzbl	-9(%rbp), %ecx
	xorl	%eax, %ecx
	movb	%cl, -9(%rbp)
	movq	-24(%rbp), %rax
	movl	1092(%rax), %ecx
	addl	$1, %ecx
	movl	%ecx, 1092(%rax)
	movq	-24(%rbp), %rax
	movl	1092(%rax), %eax
	movq	-24(%rbp), %rcx
	movl	64080(%rcx), %ecx
	addl	$1, %ecx
	cmpl	%ecx, %eax
	jne	.LBB60_21
# %bb.19:                               # %if.then78
                                        #   in Loop: Header=BB60_2 Depth=1
	jmp	.LBB60_20
.LBB60_20:                              # %while.body.backedge
                                        #   in Loop: Header=BB60_2 Depth=1
	jmp	.LBB60_2
.LBB60_21:                              # %if.end79
                                        #   in Loop: Header=BB60_2 Depth=1
	movzbl	-9(%rbp), %eax
	movq	-24(%rbp), %rcx
	cmpl	64(%rcx), %eax
	je	.LBB60_23
# %bb.22:                               # %if.then84
                                        #   in Loop: Header=BB60_2 Depth=1
	movzbl	-9(%rbp), %eax
	movq	-24(%rbp), %rcx
	movl	%eax, 64(%rcx)
	jmp	.LBB60_20
.LBB60_23:                              # %if.end87
                                        #   in Loop: Header=BB60_2 Depth=1
	movq	-24(%rbp), %rax
	movl	$2, 16(%rax)
	movq	-24(%rbp), %rax
	movq	3152(%rax), %rax
	movq	-24(%rbp), %rcx
	movl	60(%rcx), %ecx
	movl	(%rax,%rcx,4), %eax
	movq	-24(%rbp), %rcx
	movl	%eax, 60(%rcx)
	movq	-24(%rbp), %rax
	movl	60(%rax), %eax
	andl	$255, %eax
	movb	%al, -9(%rbp)
	movq	-24(%rbp), %rax
	movl	60(%rax), %ecx
	shrl	$8, %ecx
	movl	%ecx, 60(%rax)
	movq	-24(%rbp), %rax
	cmpl	$0, 24(%rax)
	jne	.LBB60_27
# %bb.24:                               # %if.then102
                                        #   in Loop: Header=BB60_2 Depth=1
	movq	-24(%rbp), %rax
	movslq	28(%rax), %rax
	movl	BZ2_rNums(,%rax,4), %eax
	movq	-24(%rbp), %rcx
	movl	%eax, 24(%rcx)
	movq	-24(%rbp), %rax
	movl	28(%rax), %ecx
	addl	$1, %ecx
	movl	%ecx, 28(%rax)
	movq	-24(%rbp), %rax
	cmpl	$512, 28(%rax)          # imm = 0x200
	jne	.LBB60_26
# %bb.25:                               # %if.then112
                                        #   in Loop: Header=BB60_2 Depth=1
	movq	-24(%rbp), %rax
	movl	$0, 28(%rax)
.LBB60_26:                              # %if.end114
                                        #   in Loop: Header=BB60_2 Depth=1
	jmp	.LBB60_27
.LBB60_27:                              # %if.end115
                                        #   in Loop: Header=BB60_2 Depth=1
	xorl	%eax, %eax
	movq	-24(%rbp), %rcx
	movl	24(%rcx), %edx
	addl	$-1, %edx
	movl	%edx, 24(%rcx)
	movq	-24(%rbp), %rcx
	movl	24(%rcx), %ecx
	cmpl	$1, %ecx
	movl	$1, %ecx
	cmovel	%ecx, %eax
	movzbl	-9(%rbp), %ecx
	xorl	%eax, %ecx
	movb	%cl, -9(%rbp)
	movq	-24(%rbp), %rax
	movl	1092(%rax), %ecx
	addl	$1, %ecx
	movl	%ecx, 1092(%rax)
	movq	-24(%rbp), %rax
	movl	1092(%rax), %eax
	movq	-24(%rbp), %rcx
	movl	64080(%rcx), %ecx
	addl	$1, %ecx
	cmpl	%ecx, %eax
	jne	.LBB60_29
# %bb.28:                               # %if.then132
                                        #   in Loop: Header=BB60_2 Depth=1
	jmp	.LBB60_20
.LBB60_29:                              # %if.end133
                                        #   in Loop: Header=BB60_2 Depth=1
	movzbl	-9(%rbp), %eax
	movq	-24(%rbp), %rcx
	cmpl	64(%rcx), %eax
	je	.LBB60_31
# %bb.30:                               # %if.then138
                                        #   in Loop: Header=BB60_2 Depth=1
	movzbl	-9(%rbp), %eax
	movq	-24(%rbp), %rcx
	movl	%eax, 64(%rcx)
	jmp	.LBB60_20
.LBB60_31:                              # %if.end141
                                        #   in Loop: Header=BB60_2 Depth=1
	movq	-24(%rbp), %rax
	movl	$3, 16(%rax)
	movq	-24(%rbp), %rax
	movq	3152(%rax), %rax
	movq	-24(%rbp), %rcx
	movl	60(%rcx), %ecx
	movl	(%rax,%rcx,4), %eax
	movq	-24(%rbp), %rcx
	movl	%eax, 60(%rcx)
	movq	-24(%rbp), %rax
	movl	60(%rax), %eax
	andl	$255, %eax
	movb	%al, -9(%rbp)
	movq	-24(%rbp), %rax
	movl	60(%rax), %ecx
	shrl	$8, %ecx
	movl	%ecx, 60(%rax)
	movq	-24(%rbp), %rax
	cmpl	$0, 24(%rax)
	jne	.LBB60_35
# %bb.32:                               # %if.then156
                                        #   in Loop: Header=BB60_2 Depth=1
	movq	-24(%rbp), %rax
	movslq	28(%rax), %rax
	movl	BZ2_rNums(,%rax,4), %eax
	movq	-24(%rbp), %rcx
	movl	%eax, 24(%rcx)
	movq	-24(%rbp), %rax
	movl	28(%rax), %ecx
	addl	$1, %ecx
	movl	%ecx, 28(%rax)
	movq	-24(%rbp), %rax
	cmpl	$512, 28(%rax)          # imm = 0x200
	jne	.LBB60_34
# %bb.33:                               # %if.then166
                                        #   in Loop: Header=BB60_2 Depth=1
	movq	-24(%rbp), %rax
	movl	$0, 28(%rax)
.LBB60_34:                              # %if.end168
                                        #   in Loop: Header=BB60_2 Depth=1
	jmp	.LBB60_35
.LBB60_35:                              # %if.end169
                                        #   in Loop: Header=BB60_2 Depth=1
	xorl	%eax, %eax
	movq	-24(%rbp), %rcx
	movl	24(%rcx), %edx
	addl	$-1, %edx
	movl	%edx, 24(%rcx)
	movq	-24(%rbp), %rcx
	movl	24(%rcx), %ecx
	cmpl	$1, %ecx
	movl	$1, %ecx
	cmovel	%ecx, %eax
	movzbl	-9(%rbp), %ecx
	xorl	%eax, %ecx
	movb	%cl, -9(%rbp)
	movq	-24(%rbp), %rax
	movl	1092(%rax), %ecx
	addl	$1, %ecx
	movl	%ecx, 1092(%rax)
	movq	-24(%rbp), %rax
	movl	1092(%rax), %eax
	movq	-24(%rbp), %rcx
	movl	64080(%rcx), %ecx
	addl	$1, %ecx
	cmpl	%ecx, %eax
	jne	.LBB60_37
# %bb.36:                               # %if.then186
                                        #   in Loop: Header=BB60_2 Depth=1
	jmp	.LBB60_20
.LBB60_37:                              # %if.end187
                                        #   in Loop: Header=BB60_2 Depth=1
	movzbl	-9(%rbp), %eax
	movq	-24(%rbp), %rcx
	cmpl	64(%rcx), %eax
	je	.LBB60_39
# %bb.38:                               # %if.then192
                                        #   in Loop: Header=BB60_2 Depth=1
	movzbl	-9(%rbp), %eax
	movq	-24(%rbp), %rcx
	movl	%eax, 64(%rcx)
	jmp	.LBB60_20
.LBB60_39:                              # %if.end195
                                        #   in Loop: Header=BB60_2 Depth=1
	movq	-24(%rbp), %rax
	movq	3152(%rax), %rax
	movq	-24(%rbp), %rcx
	movl	60(%rcx), %ecx
	movl	(%rax,%rcx,4), %eax
	movq	-24(%rbp), %rcx
	movl	%eax, 60(%rcx)
	movq	-24(%rbp), %rax
	movl	60(%rax), %eax
	andl	$255, %eax
	movb	%al, -9(%rbp)
	movq	-24(%rbp), %rax
	movl	60(%rax), %ecx
	shrl	$8, %ecx
	movl	%ecx, 60(%rax)
	movq	-24(%rbp), %rax
	cmpl	$0, 24(%rax)
	jne	.LBB60_43
# %bb.40:                               # %if.then209
                                        #   in Loop: Header=BB60_2 Depth=1
	movq	-24(%rbp), %rax
	movslq	28(%rax), %rax
	movl	BZ2_rNums(,%rax,4), %eax
	movq	-24(%rbp), %rcx
	movl	%eax, 24(%rcx)
	movq	-24(%rbp), %rax
	movl	28(%rax), %ecx
	addl	$1, %ecx
	movl	%ecx, 28(%rax)
	movq	-24(%rbp), %rax
	cmpl	$512, 28(%rax)          # imm = 0x200
	jne	.LBB60_42
# %bb.41:                               # %if.then219
                                        #   in Loop: Header=BB60_2 Depth=1
	movq	-24(%rbp), %rax
	movl	$0, 28(%rax)
.LBB60_42:                              # %if.end221
                                        #   in Loop: Header=BB60_2 Depth=1
	jmp	.LBB60_43
.LBB60_43:                              # %if.end222
                                        #   in Loop: Header=BB60_2 Depth=1
	xorl	%eax, %eax
	movq	-24(%rbp), %rcx
	movl	24(%rcx), %edx
	addl	$-1, %edx
	movl	%edx, 24(%rcx)
	movq	-24(%rbp), %rcx
	movl	24(%rcx), %ecx
	cmpl	$1, %ecx
	movl	$1, %ecx
	cmovel	%ecx, %eax
	movzbl	-9(%rbp), %ecx
	xorl	%eax, %ecx
	movb	%cl, -9(%rbp)
	movq	-24(%rbp), %rax
	movl	1092(%rax), %ecx
	addl	$1, %ecx
	movl	%ecx, 1092(%rax)
	movzbl	-9(%rbp), %eax
	addl	$4, %eax
	movq	-24(%rbp), %rcx
	movl	%eax, 16(%rcx)
	movq	-24(%rbp), %rax
	movq	3152(%rax), %rax
	movq	-24(%rbp), %rcx
	movl	60(%rcx), %ecx
	movl	(%rax,%rcx,4), %eax
	movq	-24(%rbp), %rcx
	movl	%eax, 60(%rcx)
	movq	-24(%rbp), %rax
	movl	60(%rax), %eax
	andl	$255, %eax
	movzbl	%al, %eax
	movq	-24(%rbp), %rcx
	movl	%eax, 64(%rcx)
	movq	-24(%rbp), %rax
	movl	60(%rax), %ecx
	shrl	$8, %ecx
	movl	%ecx, 60(%rax)
	movq	-24(%rbp), %rax
	cmpl	$0, 24(%rax)
	jne	.LBB60_47
# %bb.44:                               # %if.then252
                                        #   in Loop: Header=BB60_2 Depth=1
	movq	-24(%rbp), %rax
	movslq	28(%rax), %rax
	movl	BZ2_rNums(,%rax,4), %eax
	movq	-24(%rbp), %rcx
	movl	%eax, 24(%rcx)
	movq	-24(%rbp), %rax
	movl	28(%rax), %ecx
	addl	$1, %ecx
	movl	%ecx, 28(%rax)
	movq	-24(%rbp), %rax
	cmpl	$512, 28(%rax)          # imm = 0x200
	jne	.LBB60_46
# %bb.45:                               # %if.then262
                                        #   in Loop: Header=BB60_2 Depth=1
	movq	-24(%rbp), %rax
	movl	$0, 28(%rax)
.LBB60_46:                              # %if.end264
                                        #   in Loop: Header=BB60_2 Depth=1
	jmp	.LBB60_47
.LBB60_47:                              # %if.end265
                                        #   in Loop: Header=BB60_2 Depth=1
	xorl	%eax, %eax
	movq	-24(%rbp), %rcx
	movl	24(%rcx), %edx
	addl	$-1, %edx
	movl	%edx, 24(%rcx)
	movq	-24(%rbp), %rcx
	movl	24(%rcx), %ecx
	cmpl	$1, %ecx
	movl	$1, %ecx
	cmovel	%ecx, %eax
	movq	-24(%rbp), %rcx
	xorl	64(%rcx), %eax
	movl	%eax, 64(%rcx)
	movq	-24(%rbp), %rax
	movl	1092(%rax), %ecx
	addl	$1, %ecx
	movl	%ecx, 1092(%rax)
	jmp	.LBB60_20
.LBB60_48:                              # %if.else
	movq	-24(%rbp), %rax
	movl	3184(%rax), %eax
	movl	%eax, -56(%rbp)
	movq	-24(%rbp), %rax
	movb	12(%rax), %al
	movb	%al, -25(%rbp)
	movq	-24(%rbp), %rax
	movl	16(%rax), %eax
	movl	%eax, -44(%rbp)
	movq	-24(%rbp), %rax
	movl	1092(%rax), %eax
	movl	%eax, -40(%rbp)
	movq	-24(%rbp), %rax
	movl	64(%rax), %eax
	movl	%eax, -48(%rbp)
	movq	-24(%rbp), %rax
	movq	3152(%rax), %rax
	movq	%rax, -80(%rbp)
	movq	-24(%rbp), %rax
	movl	60(%rax), %eax
	movl	%eax, -32(%rbp)
	movq	-24(%rbp), %rax
	movq	(%rax), %rax
	movq	24(%rax), %rax
	movq	%rax, -72(%rbp)
	movq	-24(%rbp), %rax
	movq	(%rax), %rax
	movl	32(%rax), %eax
	movl	%eax, -52(%rbp)
	movl	-52(%rbp), %eax
	movl	%eax, -84(%rbp)
	movq	-24(%rbp), %rax
	movl	64080(%rax), %eax
	addl	$1, %eax
	movl	%eax, -60(%rbp)
.LBB60_49:                              # %while.body289
                                        # =>This Loop Header: Depth=1
                                        #     Child Loop BB60_51 Depth 2
	cmpl	$0, -44(%rbp)
	jle	.LBB60_60
# %bb.50:                               # %if.then292
                                        #   in Loop: Header=BB60_49 Depth=1
	jmp	.LBB60_51
.LBB60_51:                              # %while.body294
                                        #   Parent Loop BB60_49 Depth=1
                                        # =>  This Inner Loop Header: Depth=2
	cmpl	$0, -52(%rbp)
	jne	.LBB60_53
# %bb.52:                               # %if.then297
	jmp	.LBB60_78
.LBB60_53:                              # %if.end298
                                        #   in Loop: Header=BB60_51 Depth=2
	cmpl	$1, -44(%rbp)
	jne	.LBB60_55
# %bb.54:                               # %if.then301
                                        #   in Loop: Header=BB60_49 Depth=1
	jmp	.LBB60_56
.LBB60_55:                              # %if.end302
                                        #   in Loop: Header=BB60_51 Depth=2
	movb	-25(%rbp), %al
	movq	-72(%rbp), %rcx
	movb	%al, (%rcx)
	movl	-56(%rbp), %eax
	shll	$8, %eax
	movl	-56(%rbp), %ecx
	shrl	$24, %ecx
	movzbl	-25(%rbp), %edx
	xorl	%edx, %ecx
	movl	%ecx, %ecx
	xorl	BZ2_crc32Table(,%rcx,4), %eax
	movl	%eax, -56(%rbp)
	movl	-44(%rbp), %eax
	addl	$-1, %eax
	movl	%eax, -44(%rbp)
	movq	-72(%rbp), %rax
	addq	$1, %rax
	movq	%rax, -72(%rbp)
	movl	-52(%rbp), %eax
	addl	$-1, %eax
	movl	%eax, -52(%rbp)
	jmp	.LBB60_51
.LBB60_56:                              # %while.end313
                                        #   in Loop: Header=BB60_49 Depth=1
	jmp	.LBB60_57
.LBB60_57:                              # %s_state_out_len_eq_one
                                        #   in Loop: Header=BB60_49 Depth=1
	cmpl	$0, -52(%rbp)
	jne	.LBB60_59
# %bb.58:                               # %if.then316
	movl	$1, -44(%rbp)
	jmp	.LBB60_78
.LBB60_59:                              # %if.end317
                                        #   in Loop: Header=BB60_49 Depth=1
	movb	-25(%rbp), %al
	movq	-72(%rbp), %rcx
	movb	%al, (%rcx)
	movl	-56(%rbp), %eax
	shll	$8, %eax
	movl	-56(%rbp), %ecx
	shrl	$24, %ecx
	movzbl	-25(%rbp), %edx
	xorl	%edx, %ecx
	movl	%ecx, %ecx
	xorl	BZ2_crc32Table(,%rcx,4), %eax
	movl	%eax, -56(%rbp)
	movq	-72(%rbp), %rax
	addq	$1, %rax
	movq	%rax, -72(%rbp)
	movl	-52(%rbp), %eax
	addl	$-1, %eax
	movl	%eax, -52(%rbp)
.LBB60_60:                              # %if.end327
                                        #   in Loop: Header=BB60_49 Depth=1
	movl	-40(%rbp), %eax
	cmpl	-60(%rbp), %eax
	jle	.LBB60_62
# %bb.61:                               # %if.then330
	movb	$1, -33(%rbp)
	jmp	.LBB60_82
.LBB60_62:                              # %if.end331
                                        #   in Loop: Header=BB60_49 Depth=1
	movl	-40(%rbp), %eax
	cmpl	-60(%rbp), %eax
	jne	.LBB60_64
# %bb.63:                               # %if.then334
	movl	$0, -44(%rbp)
	jmp	.LBB60_78
.LBB60_64:                              # %if.end335
                                        #   in Loop: Header=BB60_49 Depth=1
	movl	-48(%rbp), %eax
	movb	%al, -25(%rbp)
	movq	-80(%rbp), %rax
	movl	-32(%rbp), %ecx
	movl	(%rax,%rcx,4), %eax
	movl	%eax, -32(%rbp)
	movl	-32(%rbp), %eax
	andl	$255, %eax
	movb	%al, -9(%rbp)
	movl	-32(%rbp), %eax
	shrl	$8, %eax
	movl	%eax, -32(%rbp)
	movl	-40(%rbp), %eax
	addl	$1, %eax
	movl	%eax, -40(%rbp)
	movzbl	-9(%rbp), %eax
	cmpl	-48(%rbp), %eax
	je	.LBB60_66
# %bb.65:                               # %if.then346
                                        #   in Loop: Header=BB60_49 Depth=1
	movzbl	-9(%rbp), %eax
	movl	%eax, -48(%rbp)
	jmp	.LBB60_57
.LBB60_66:                              # %if.end348
                                        #   in Loop: Header=BB60_49 Depth=1
	movl	-40(%rbp), %eax
	cmpl	-60(%rbp), %eax
	jne	.LBB60_68
# %bb.67:                               # %if.then351
                                        #   in Loop: Header=BB60_49 Depth=1
	jmp	.LBB60_57
.LBB60_68:                              # %if.end352
                                        #   in Loop: Header=BB60_49 Depth=1
	movl	$2, -44(%rbp)
	movq	-80(%rbp), %rax
	movl	-32(%rbp), %ecx
	movl	(%rax,%rcx,4), %eax
	movl	%eax, -32(%rbp)
	movl	-32(%rbp), %eax
	andl	$255, %eax
	movb	%al, -9(%rbp)
	movl	-32(%rbp), %eax
	shrl	$8, %eax
	movl	%eax, -32(%rbp)
	movl	-40(%rbp), %eax
	addl	$1, %eax
	movl	%eax, -40(%rbp)
	movl	-40(%rbp), %eax
	cmpl	-60(%rbp), %eax
	jne	.LBB60_71
# %bb.69:                               # %if.then361
                                        #   in Loop: Header=BB60_49 Depth=1
	jmp	.LBB60_70
.LBB60_70:                              # %while.body289.backedge
                                        #   in Loop: Header=BB60_49 Depth=1
	jmp	.LBB60_49
.LBB60_71:                              # %if.end362
                                        #   in Loop: Header=BB60_49 Depth=1
	movzbl	-9(%rbp), %eax
	cmpl	-48(%rbp), %eax
	je	.LBB60_73
# %bb.72:                               # %if.then366
                                        #   in Loop: Header=BB60_49 Depth=1
	movzbl	-9(%rbp), %eax
	movl	%eax, -48(%rbp)
	jmp	.LBB60_70
.LBB60_73:                              # %if.end368
