	.text
	.file	"bzlib.c"
	.globl	BZ2_bz__AssertH__fail   # -- Begin function BZ2_bz__AssertH__fail
	.p2align	4, 0x90
	.type	BZ2_bz__AssertH__fail,@function
BZ2_bz__AssertH__fail:                  # @BZ2_bz__AssertH__fail
	.cfi_startproc
# %bb.0:                                # %entry
	pushq	%rbp
	.cfi_def_cfa_offset 16
	.cfi_offset %rbp, -16
	movq	%rsp, %rbp
	.cfi_def_cfa_register %rbp
	pushq	%r14
	pushq	%rbx
	subq	$16, %rsp
	.cfi_offset %rbx, -32
	.cfi_offset %r14, -24
	movl	%edi, -20(%rbp)
	movq	stderr, %rbx
	movl	-20(%rbp), %r14d
	callq	BZ2_bzlibVersion
	movq	%rbx, %rdi
	movabsq	$.L.str, %rsi
	movl	%r14d, %edx
	movq	%rax, %rcx
	movb	$0, %al
	callq	fprintf
	cmpl	$1007, -20(%rbp)        # imm = 0x3EF
	jne	.LBB0_2
# %bb.1:                                # %if.then
	movq	stderr, %rdi
	movabsq	$.L.str.1, %rsi
	movb	$0, %al
	callq	fprintf
.LBB0_2:                                # %if.end
	movl	$3, %edi
	callq	exit
.Lfunc_end0:
	.size	BZ2_bz__AssertH__fail, .Lfunc_end0-BZ2_bz__AssertH__fail
	.cfi_endproc
                                        # -- End function
	.globl	BZ2_bzlibVersion        # -- Begin function BZ2_bzlibVersion
	.p2align	4, 0x90
	.type	BZ2_bzlibVersion,@function
BZ2_bzlibVersion:                       # @BZ2_bzlibVersion
	.cfi_startproc
# %bb.0:                                # %entry
	pushq	%rbp
	.cfi_def_cfa_offset 16
	.cfi_offset %rbp, -16
	movq	%rsp, %rbp
	.cfi_def_cfa_register %rbp
	movabsq	$.L.str.5, %rax
	popq	%rbp
	.cfi_def_cfa %rsp, 8
	retq
.Lfunc_end1:
	.size	BZ2_bzlibVersion, .Lfunc_end1-BZ2_bzlibVersion
	.cfi_endproc
                                        # -- End function
	.globl	BZ2_bzCompressInit      # -- Begin function BZ2_bzCompressInit
	.p2align	4, 0x90
	.type	BZ2_bzCompressInit,@function
BZ2_bzCompressInit:                     # @BZ2_bzCompressInit
	.cfi_startproc
# %bb.0:                                # %rand_bb
	pushq	%rbp
	.cfi_def_cfa_offset 16
	.cfi_offset %rbp, -16
	movq	%rsp, %rbp
	.cfi_def_cfa_register %rbp
	pushq	%r15
	pushq	%r14
	pushq	%r12
	pushq	%rbx
	.cfi_offset %rbx, -48
	.cfi_offset %r12, -40
	.cfi_offset %r14, -32
	.cfi_offset %r15, -24
	movl	%ecx, %r14d
	movl	%edx, %r15d
	movl	%esi, %r12d
	movq	%rdi, %rbx
	callq	get_rand
	cmpl	$0, %eax
	jne	.LBB2_9
# %bb.1:                                # %func_BZ2_bzCompressInit.112
	movq	%rbx, %rdi
	movl	%r12d, %esi
	movl	%r15d, %edx
	movl	%r14d, %ecx
	callq	BZ2_bzCompressInit.112
	popq	%rbx
	popq	%r12
	popq	%r14
	popq	%r15
	popq	%rbp
	.cfi_def_cfa %rsp, 8
	retq
.LBB2_2:                                # %func_BZ2_bzCompressInit.120
	.cfi_def_cfa %rbp, 16
	movq	%rbx, %rdi
	movl	%r12d, %esi
	movl	%r15d, %edx
	movl	%r14d, %ecx
	callq	BZ2_bzCompressInit.120
	popq	%rbx
	popq	%r12
	popq	%r14
	popq	%r15
	popq	%rbp
	.cfi_def_cfa %rsp, 8
	retq
.LBB2_3:                                # %func_BZ2_bzCompressInit.173
	.cfi_def_cfa %rbp, 16
	movq	%rbx, %rdi
	movl	%r12d, %esi
	movl	%r15d, %edx
	movl	%r14d, %ecx
	callq	BZ2_bzCompressInit.173
	popq	%rbx
	popq	%r12
	popq	%r14
	popq	%r15
	popq	%rbp
	.cfi_def_cfa %rsp, 8
	retq
.LBB2_4:                                # %func_BZ2_bzCompressInit.181
	.cfi_def_cfa %rbp, 16
	movq	%rbx, %rdi
	movl	%r12d, %esi
	movl	%r15d, %edx
	movl	%r14d, %ecx
	callq	BZ2_bzCompressInit.181
	popq	%rbx
	popq	%r12
	popq	%r14
	popq	%r15
	popq	%rbp
	.cfi_def_cfa %rsp, 8
	retq
.LBB2_5:                                # %func_BZ2_bzCompressInit.191
	.cfi_def_cfa %rbp, 16
	movq	%rbx, %rdi
	movl	%r12d, %esi
	movl	%r15d, %edx
	movl	%r14d, %ecx
	callq	BZ2_bzCompressInit.191
	popq	%rbx
	popq	%r12
	popq	%r14
	popq	%r15
	popq	%rbp
	.cfi_def_cfa %rsp, 8
	retq
.LBB2_6:                                # %func_BZ2_bzCompressInit.199
	.cfi_def_cfa %rbp, 16
	movq	%rbx, %rdi
	movl	%r12d, %esi
	movl	%r15d, %edx
	movl	%r14d, %ecx
	callq	BZ2_bzCompressInit.199
	popq	%rbx
	popq	%r12
	popq	%r14
	popq	%r15
	popq	%rbp
	.cfi_def_cfa %rsp, 8
	retq
.LBB2_7:                                # %func_BZ2_bzCompressInit.202
	.cfi_def_cfa %rbp, 16
	movq	%rbx, %rdi
	movl	%r12d, %esi
	movl	%r15d, %edx
	movl	%r14d, %ecx
	callq	BZ2_bzCompressInit.202
	popq	%rbx
	popq	%r12
	popq	%r14
	popq	%r15
	popq	%rbp
	.cfi_def_cfa %rsp, 8
	retq
.LBB2_8:                                # %func_BZ2_bzCompressInit.206
	.cfi_def_cfa %rbp, 16
	movq	%rbx, %rdi
	movl	%r12d, %esi
	movl	%r15d, %edx
	movl	%r14d, %ecx
	callq	BZ2_bzCompressInit.206
	popq	%rbx
	popq	%r12
	popq	%r14
	popq	%r15
	popq	%rbp
	.cfi_def_cfa %rsp, 8
	retq
.LBB2_9:                                # %ctrl0
	.cfi_def_cfa %rbp, 16
	cmpl	$1, %eax
	je	.LBB2_2
# %bb.10:                               # %ctrl1
	cmpl	$2, %eax
	je	.LBB2_3
# %bb.11:                               # %ctrl2
	cmpl	$3, %eax
	je	.LBB2_4
# %bb.12:                               # %ctrl3
	cmpl	$4, %eax
	je	.LBB2_5
# %bb.13:                               # %ctrl4
	cmpl	$5, %eax
	je	.LBB2_6
# %bb.14:                               # %ctrl5
	cmpl	$6, %eax
	je	.LBB2_7
	jmp	.LBB2_8
.Lfunc_end2:
	.size	BZ2_bzCompressInit, .Lfunc_end2-BZ2_bzCompressInit
	.cfi_endproc
                                        # -- End function
	.p2align	4, 0x90         # -- Begin function bz_config_ok
	.type	bz_config_ok,@function
bz_config_ok:                           # @bz_config_ok
	.cfi_startproc
# %bb.0:                                # %entry
	pushq	%rbp
	.cfi_def_cfa_offset 16
	.cfi_offset %rbp, -16
	movq	%rsp, %rbp
	.cfi_def_cfa_register %rbp
	movl	$1, %eax
	popq	%rbp
	.cfi_def_cfa %rsp, 8
	retq
.Lfunc_end3:
	.size	bz_config_ok, .Lfunc_end3-bz_config_ok
	.cfi_endproc
                                        # -- End function
	.p2align	4, 0x90         # -- Begin function default_bzalloc
	.type	default_bzalloc,@function
default_bzalloc:                        # @default_bzalloc
	.cfi_startproc
# %bb.0:                                # %rand_bb
	pushq	%rbp
	.cfi_def_cfa_offset 16
	.cfi_offset %rbp, -16
	movq	%rsp, %rbp
	.cfi_def_cfa_register %rbp
	pushq	%r15
	pushq	%r14
	pushq	%rbx
	pushq	%rax
	.cfi_offset %rbx, -40
	.cfi_offset %r14, -32
	.cfi_offset %r15, -24
	movl	%edx, %r14d
	movl	%esi, %r15d
	movq	%rdi, %rbx
	callq	get_rand
	cmpl	$0, %eax
	jne	.LBB4_9
# %bb.1:                                # %func_default_bzalloc.47
	movq	%rbx, %rdi
	movl	%r15d, %esi
	movl	%r14d, %edx
	callq	default_bzalloc.47
	addq	$8, %rsp
	popq	%rbx
	popq	%r14
	popq	%r15
	popq	%rbp
	.cfi_def_cfa %rsp, 8
	retq
.LBB4_2:                                # %func_default_bzalloc.103
	.cfi_def_cfa %rbp, 16
	movq	%rbx, %rdi
	movl	%r15d, %esi
	movl	%r14d, %edx
	callq	default_bzalloc.103
	addq	$8, %rsp
	popq	%rbx
	popq	%r14
	popq	%r15
	popq	%rbp
	.cfi_def_cfa %rsp, 8
	retq
.LBB4_3:                                # %func_default_bzalloc.113
	.cfi_def_cfa %rbp, 16
	movq	%rbx, %rdi
	movl	%r15d, %esi
	movl	%r14d, %edx
	callq	default_bzalloc.113
	addq	$8, %rsp
	popq	%rbx
	popq	%r14
	popq	%r15
	popq	%rbp
	.cfi_def_cfa %rsp, 8
	retq
.LBB4_4:                                # %func_default_bzalloc.216
	.cfi_def_cfa %rbp, 16
	movq	%rbx, %rdi
	movl	%r15d, %esi
	movl	%r14d, %edx
	callq	default_bzalloc.216
	addq	$8, %rsp
	popq	%rbx
	popq	%r14
	popq	%r15
	popq	%rbp
	.cfi_def_cfa %rsp, 8
	retq
.LBB4_5:                                # %func_default_bzalloc.223
	.cfi_def_cfa %rbp, 16
	movq	%rbx, %rdi
	movl	%r15d, %esi
	movl	%r14d, %edx
	callq	default_bzalloc.223
	addq	$8, %rsp
	popq	%rbx
	popq	%r14
	popq	%r15
	popq	%rbp
	.cfi_def_cfa %rsp, 8
	retq
.LBB4_6:                                # %func_default_bzalloc.225
	.cfi_def_cfa %rbp, 16
	movq	%rbx, %rdi
	movl	%r15d, %esi
	movl	%r14d, %edx
	callq	default_bzalloc.225
	addq	$8, %rsp
	popq	%rbx
	popq	%r14
	popq	%r15
	popq	%rbp
	.cfi_def_cfa %rsp, 8
	retq
.LBB4_7:                                # %func_default_bzalloc.226
	.cfi_def_cfa %rbp, 16
	movq	%rbx, %rdi
	movl	%r15d, %esi
	movl	%r14d, %edx
	callq	default_bzalloc.226
	addq	$8, %rsp
	popq	%rbx
	popq	%r14
	popq	%r15
	popq	%rbp
	.cfi_def_cfa %rsp, 8
	retq
.LBB4_8:                                # %func_default_bzalloc.227
	.cfi_def_cfa %rbp, 16
	movq	%rbx, %rdi
	movl	%r15d, %esi
	movl	%r14d, %edx
	callq	default_bzalloc.227
	addq	$8, %rsp
	popq	%rbx
	popq	%r14
	popq	%r15
	popq	%rbp
	.cfi_def_cfa %rsp, 8
	retq
.LBB4_9:                                # %ctrl0
	.cfi_def_cfa %rbp, 16
	cmpl	$1, %eax
	je	.LBB4_2
# %bb.10:                               # %ctrl1
	cmpl	$2, %eax
	je	.LBB4_3
# %bb.11:                               # %ctrl2
	cmpl	$3, %eax
	je	.LBB4_4
# %bb.12:                               # %ctrl3
	cmpl	$4, %eax
	je	.LBB4_5
# %bb.13:                               # %ctrl4
	cmpl	$5, %eax
	je	.LBB4_6
# %bb.14:                               # %ctrl5
	cmpl	$6, %eax
	je	.LBB4_7
	jmp	.LBB4_8
.Lfunc_end4:
	.size	default_bzalloc, .Lfunc_end4-default_bzalloc
	.cfi_endproc
                                        # -- End function
	.p2align	4, 0x90         # -- Begin function default_bzfree
	.type	default_bzfree,@function
default_bzfree:                         # @default_bzfree
	.cfi_startproc
# %bb.0:                                # %rand_bb
	pushq	%rbp
	.cfi_def_cfa_offset 16
	.cfi_offset %rbp, -16
	movq	%rsp, %rbp
	.cfi_def_cfa_register %rbp
	pushq	%r14
	pushq	%rbx
	.cfi_offset %rbx, -32
	.cfi_offset %r14, -24
	movq	%rsi, %r14
	movq	%rdi, %rbx
	callq	get_rand
	cmpl	$0, %eax
	jne	.LBB5_2
# %bb.1:                                # %func_default_bzfree.22
	movq	%rbx, %rdi
	movq	%r14, %rsi
	callq	default_bzfree.22
	popq	%rbx
	popq	%r14
	popq	%rbp
	.cfi_def_cfa %rsp, 8
	retq
.LBB5_2:                                # %func_default_bzfree.39
	.cfi_def_cfa %rbp, 16
	movq	%rbx, %rdi
	movq	%r14, %rsi
	callq	default_bzfree.39
	popq	%rbx
	popq	%r14
	popq	%rbp
	.cfi_def_cfa %rsp, 8
	retq
.Lfunc_end5:
	.size	default_bzfree, .Lfunc_end5-default_bzfree
	.cfi_endproc
                                        # -- End function
	.p2align	4, 0x90         # -- Begin function init_RL
	.type	init_RL,@function
init_RL:                                # @init_RL
	.cfi_startproc
# %bb.0:                                # %entry
	pushq	%rbp
	.cfi_def_cfa_offset 16
	.cfi_offset %rbp, -16
	movq	%rsp, %rbp
	.cfi_def_cfa_register %rbp
	movq	%rdi, -8(%rbp)
	movq	-8(%rbp), %rax
	movl	$256, 92(%rax)          # imm = 0x100
	movq	-8(%rbp), %rax
	movl	$0, 96(%rax)
	popq	%rbp
	.cfi_def_cfa %rsp, 8
	retq
.Lfunc_end6:
	.size	init_RL, .Lfunc_end6-init_RL
	.cfi_endproc
                                        # -- End function
	.p2align	4, 0x90         # -- Begin function prepare_new_block
	.type	prepare_new_block,@function
prepare_new_block:                      # @prepare_new_block
	.cfi_startproc
# %bb.0:                                # %rand_bb
	pushq	%rbp
	.cfi_def_cfa_offset 16
	.cfi_offset %rbp, -16
	movq	%rsp, %rbp
	.cfi_def_cfa_register %rbp
	pushq	%rbx
	pushq	%rax
	.cfi_offset %rbx, -24
	movq	%rdi, %rbx
	callq	get_rand
	cmpl	$0, %eax
	jne	.LBB7_2
# %bb.1:                                # %func_prepare_new_block.73
	movq	%rbx, %rdi
	callq	prepare_new_block.73
	addq	$8, %rsp
	popq	%rbx
	popq	%rbp
	.cfi_def_cfa %rsp, 8
	retq
.LBB7_2:                                # %func_prepare_new_block.80
	.cfi_def_cfa %rbp, 16
	movq	%rbx, %rdi
	callq	prepare_new_block.80
	addq	$8, %rsp
	popq	%rbx
	popq	%rbp
	.cfi_def_cfa %rsp, 8
	retq
.Lfunc_end7:
	.size	prepare_new_block, .Lfunc_end7-prepare_new_block
	.cfi_endproc
                                        # -- End function
	.globl	BZ2_bzCompress          # -- Begin function BZ2_bzCompress
	.p2align	4, 0x90
	.type	BZ2_bzCompress,@function
BZ2_bzCompress:                         # @BZ2_bzCompress
	.cfi_startproc
# %bb.0:                                # %rand_bb
	pushq	%rbp
	.cfi_def_cfa_offset 16
	.cfi_offset %rbp, -16
	movq	%rsp, %rbp
	.cfi_def_cfa_register %rbp
	pushq	%r14
	pushq	%rbx
	.cfi_offset %rbx, -32
	.cfi_offset %r14, -24
	movl	%esi, %r14d
	movq	%rdi, %rbx
	callq	get_rand
	cmpl	$0, %eax
	jne	.LBB8_9
# %bb.1:                                # %func_BZ2_bzCompress.3
	movq	%rbx, %rdi
	movl	%r14d, %esi
	callq	BZ2_bzCompress.3
	popq	%rbx
	popq	%r14
	popq	%rbp
	.cfi_def_cfa %rsp, 8
	retq
.LBB8_2:                                # %func_BZ2_bzCompress.28
	.cfi_def_cfa %rbp, 16
	movq	%rbx, %rdi
	movl	%r14d, %esi
	callq	BZ2_bzCompress.28
	popq	%rbx
	popq	%r14
	popq	%rbp
	.cfi_def_cfa %rsp, 8
	retq
.LBB8_3:                                # %func_BZ2_bzCompress.29
	.cfi_def_cfa %rbp, 16
	movq	%rbx, %rdi
	movl	%r14d, %esi
	callq	BZ2_bzCompress.29
	popq	%rbx
	popq	%r14
	popq	%rbp
	.cfi_def_cfa %rsp, 8
	retq
.LBB8_4:                                # %func_BZ2_bzCompress.67
	.cfi_def_cfa %rbp, 16
	movq	%rbx, %rdi
	movl	%r14d, %esi
	callq	BZ2_bzCompress.67
	popq	%rbx
	popq	%r14
	popq	%rbp
	.cfi_def_cfa %rsp, 8
	retq
.LBB8_5:                                # %func_BZ2_bzCompress.88
	.cfi_def_cfa %rbp, 16
	movq	%rbx, %rdi
	movl	%r14d, %esi
	callq	BZ2_bzCompress.88
	popq	%rbx
	popq	%r14
	popq	%rbp
	.cfi_def_cfa %rsp, 8
	retq
.LBB8_6:                                # %func_BZ2_bzCompress.125
	.cfi_def_cfa %rbp, 16
	movq	%rbx, %rdi
	movl	%r14d, %esi
	callq	BZ2_bzCompress.125
	popq	%rbx
	popq	%r14
	popq	%rbp
	.cfi_def_cfa %rsp, 8
	retq
.LBB8_7:                                # %func_BZ2_bzCompress.196
	.cfi_def_cfa %rbp, 16
	movq	%rbx, %rdi
	movl	%r14d, %esi
	callq	BZ2_bzCompress.196
	popq	%rbx
	popq	%r14
	popq	%rbp
	.cfi_def_cfa %rsp, 8
	retq
.LBB8_8:                                # %func_BZ2_bzCompress.218
	.cfi_def_cfa %rbp, 16
	movq	%rbx, %rdi
	movl	%r14d, %esi
	callq	BZ2_bzCompress.218
	popq	%rbx
	popq	%r14
	popq	%rbp
	.cfi_def_cfa %rsp, 8
	retq
.LBB8_9:                                # %ctrl0
	.cfi_def_cfa %rbp, 16
	cmpl	$1, %eax
	je	.LBB8_2
# %bb.10:                               # %ctrl1
	cmpl	$2, %eax
	je	.LBB8_3
# %bb.11:                               # %ctrl2
	cmpl	$3, %eax
	je	.LBB8_4
# %bb.12:                               # %ctrl3
	cmpl	$4, %eax
	je	.LBB8_5
# %bb.13:                               # %ctrl4
	cmpl	$5, %eax
	je	.LBB8_6
# %bb.14:                               # %ctrl5
	cmpl	$6, %eax
	je	.LBB8_7
	jmp	.LBB8_8
.Lfunc_end8:
	.size	BZ2_bzCompress, .Lfunc_end8-BZ2_bzCompress
	.cfi_endproc
                                        # -- End function
	.p2align	4, 0x90         # -- Begin function handle_compress
	.type	handle_compress,@function
handle_compress:                        # @handle_compress
	.cfi_startproc
# %bb.0:                                # %rand_bb
	pushq	%rbp
	.cfi_def_cfa_offset 16
	.cfi_offset %rbp, -16
	movq	%rsp, %rbp
	.cfi_def_cfa_register %rbp
	pushq	%rbx
	pushq	%rax
	.cfi_offset %rbx, -24
	movq	%rdi, %rbx
	callq	get_rand
	cmpl	$0, %eax
	jne	.LBB9_9
# %bb.1:                                # %func_handle_compress.23
	movq	%rbx, %rdi
	callq	handle_compress.23
	movzbl	%al, %eax
	addq	$8, %rsp
	popq	%rbx
	popq	%rbp
	.cfi_def_cfa %rsp, 8
	retq
.LBB9_2:                                # %func_handle_compress.48
	.cfi_def_cfa %rbp, 16
	movq	%rbx, %rdi
	callq	handle_compress.48
	movzbl	%al, %eax
	addq	$8, %rsp
	popq	%rbx
	popq	%rbp
	.cfi_def_cfa %rsp, 8
	retq
.LBB9_3:                                # %func_handle_compress.50
	.cfi_def_cfa %rbp, 16
	movq	%rbx, %rdi
	callq	handle_compress.50
	movzbl	%al, %eax
	addq	$8, %rsp
	popq	%rbx
	popq	%rbp
	.cfi_def_cfa %rsp, 8
	retq
.LBB9_4:                                # %func_handle_compress.72
	.cfi_def_cfa %rbp, 16
	movq	%rbx, %rdi
	callq	handle_compress.72
	movzbl	%al, %eax
	addq	$8, %rsp
	popq	%rbx
	popq	%rbp
	.cfi_def_cfa %rsp, 8
	retq
.LBB9_5:                                # %func_handle_compress.86
	.cfi_def_cfa %rbp, 16
	movq	%rbx, %rdi
	callq	handle_compress.86
	movzbl	%al, %eax
	addq	$8, %rsp
	popq	%rbx
	popq	%rbp
	.cfi_def_cfa %rsp, 8
	retq
.LBB9_6:                                # %func_handle_compress.133
	.cfi_def_cfa %rbp, 16
	movq	%rbx, %rdi
	callq	handle_compress.133
	movzbl	%al, %eax
	addq	$8, %rsp
	popq	%rbx
	popq	%rbp
	.cfi_def_cfa %rsp, 8
	retq
.LBB9_7:                                # %func_handle_compress.176
	.cfi_def_cfa %rbp, 16
	movq	%rbx, %rdi
	callq	handle_compress.176
	movzbl	%al, %eax
	addq	$8, %rsp
	popq	%rbx
	popq	%rbp
	.cfi_def_cfa %rsp, 8
	retq
.LBB9_8:                                # %func_handle_compress.208
	.cfi_def_cfa %rbp, 16
	movq	%rbx, %rdi
	callq	handle_compress.208
	movzbl	%al, %eax
	addq	$8, %rsp
	popq	%rbx
	popq	%rbp
	.cfi_def_cfa %rsp, 8
	retq
.LBB9_9:                                # %ctrl0
	.cfi_def_cfa %rbp, 16
	cmpl	$1, %eax
	je	.LBB9_2
# %bb.10:                               # %ctrl1
	cmpl	$2, %eax
	je	.LBB9_3
# %bb.11:                               # %ctrl2
	cmpl	$3, %eax
	je	.LBB9_4
# %bb.12:                               # %ctrl3
	cmpl	$4, %eax
	je	.LBB9_5
# %bb.13:                               # %ctrl4
	cmpl	$5, %eax
	je	.LBB9_6
# %bb.14:                               # %ctrl5
	cmpl	$6, %eax
	je	.LBB9_7
	jmp	.LBB9_8
.Lfunc_end9:
	.size	handle_compress, .Lfunc_end9-handle_compress
	.cfi_endproc
                                        # -- End function
	.p2align	4, 0x90         # -- Begin function isempty_RL
	.type	isempty_RL,@function
isempty_RL:                             # @isempty_RL
	.cfi_startproc
# %bb.0:                                # %rand_bb
	pushq	%rbp
	.cfi_def_cfa_offset 16
	.cfi_offset %rbp, -16
	movq	%rsp, %rbp
	.cfi_def_cfa_register %rbp
	pushq	%rbx
	pushq	%rax
	.cfi_offset %rbx, -24
	movq	%rdi, %rbx
	callq	get_rand
	cmpl	$0, %eax
	jne	.LBB10_2
# %bb.1:                                # %func_isempty_RL.7
	movq	%rbx, %rdi
	callq	isempty_RL.7
	movzbl	%al, %eax
	addq	$8, %rsp
	popq	%rbx
	popq	%rbp
	.cfi_def_cfa %rsp, 8
	retq
.LBB10_2:                               # %func_isempty_RL.12
	.cfi_def_cfa %rbp, 16
	movq	%rbx, %rdi
	callq	isempty_RL.12
	movzbl	%al, %eax
	addq	$8, %rsp
	popq	%rbx
	popq	%rbp
	.cfi_def_cfa %rsp, 8
	retq
.Lfunc_end10:
	.size	isempty_RL, .Lfunc_end10-isempty_RL
	.cfi_endproc
                                        # -- End function
	.globl	BZ2_bzCompressEnd       # -- Begin function BZ2_bzCompressEnd
	.p2align	4, 0x90
	.type	BZ2_bzCompressEnd,@function
BZ2_bzCompressEnd:                      # @BZ2_bzCompressEnd
	.cfi_startproc
# %bb.0:                                # %rand_bb
	pushq	%rbp
	.cfi_def_cfa_offset 16
	.cfi_offset %rbp, -16
	movq	%rsp, %rbp
	.cfi_def_cfa_register %rbp
	pushq	%rbx
	pushq	%rax
	.cfi_offset %rbx, -24
	movq	%rdi, %rbx
	callq	get_rand
	cmpl	$0, %eax
	jne	.LBB11_7
# %bb.1:                                # %func_BZ2_bzCompressEnd.10
	movq	%rbx, %rdi
	callq	BZ2_bzCompressEnd.10
	addq	$8, %rsp
	popq	%rbx
	popq	%rbp
	.cfi_def_cfa %rsp, 8
	retq
.LBB11_2:                               # %func_BZ2_bzCompressEnd.45
	.cfi_def_cfa %rbp, 16
	movq	%rbx, %rdi
	callq	BZ2_bzCompressEnd.45
	addq	$8, %rsp
	popq	%rbx
	popq	%rbp
	.cfi_def_cfa %rsp, 8
	retq
.LBB11_3:                               # %func_BZ2_bzCompressEnd.62
	.cfi_def_cfa %rbp, 16
	movq	%rbx, %rdi
	callq	BZ2_bzCompressEnd.62
	addq	$8, %rsp
	popq	%rbx
	popq	%rbp
	.cfi_def_cfa %rsp, 8
	retq
.LBB11_4:                               # %func_BZ2_bzCompressEnd.217
	.cfi_def_cfa %rbp, 16
	movq	%rbx, %rdi
	callq	BZ2_bzCompressEnd.217
	addq	$8, %rsp
	popq	%rbx
	popq	%rbp
	.cfi_def_cfa %rsp, 8
	retq
.LBB11_5:                               # %func_BZ2_bzCompressEnd.219
	.cfi_def_cfa %rbp, 16
	movq	%rbx, %rdi
	callq	BZ2_bzCompressEnd.219
	addq	$8, %rsp
	popq	%rbx
	popq	%rbp
	.cfi_def_cfa %rsp, 8
	retq
.LBB11_6:                               # %func_BZ2_bzCompressEnd.224
	.cfi_def_cfa %rbp, 16
	movq	%rbx, %rdi
	callq	BZ2_bzCompressEnd.224
	addq	$8, %rsp
	popq	%rbx
	popq	%rbp
	.cfi_def_cfa %rsp, 8
	retq
.LBB11_7:                               # %ctrl0
	.cfi_def_cfa %rbp, 16
	cmpl	$1, %eax
	je	.LBB11_2
# %bb.8:                                # %ctrl1
	cmpl	$2, %eax
	je	.LBB11_3
# %bb.9:                                # %ctrl2
	cmpl	$3, %eax
	je	.LBB11_4
# %bb.10:                               # %ctrl3
	cmpl	$4, %eax
	je	.LBB11_5
	jmp	.LBB11_6
.Lfunc_end11:
	.size	BZ2_bzCompressEnd, .Lfunc_end11-BZ2_bzCompressEnd
	.cfi_endproc
                                        # -- End function
	.globl	BZ2_bzDecompressInit    # -- Begin function BZ2_bzDecompressInit
	.p2align	4, 0x90
	.type	BZ2_bzDecompressInit,@function
BZ2_bzDecompressInit:                   # @BZ2_bzDecompressInit
	.cfi_startproc
# %bb.0:                                # %rand_bb
	pushq	%rbp
	.cfi_def_cfa_offset 16
	.cfi_offset %rbp, -16
	movq	%rsp, %rbp
	.cfi_def_cfa_register %rbp
	pushq	%r15
	pushq	%r14
	pushq	%rbx
	pushq	%rax
	.cfi_offset %rbx, -40
	.cfi_offset %r14, -32
	.cfi_offset %r15, -24
	movl	%edx, %r14d
	movl	%esi, %r15d
	movq	%rdi, %rbx
	callq	get_rand
	cmpl	$0, %eax
	jne	.LBB12_9
# %bb.1:                                # %func_BZ2_bzDecompressInit.25
	movq	%rbx, %rdi
	movl	%r15d, %esi
	movl	%r14d, %edx
	callq	BZ2_bzDecompressInit.25
	addq	$8, %rsp
	popq	%rbx
	popq	%r14
	popq	%r15
	popq	%rbp
	.cfi_def_cfa %rsp, 8
	retq
.LBB12_2:                               # %func_BZ2_bzDecompressInit.32
	.cfi_def_cfa %rbp, 16
	movq	%rbx, %rdi
	movl	%r15d, %esi
	movl	%r14d, %edx
	callq	BZ2_bzDecompressInit.32
	addq	$8, %rsp
	popq	%rbx
	popq	%r14
	popq	%r15
	popq	%rbp
	.cfi_def_cfa %rsp, 8
	retq
.LBB12_3:                               # %func_BZ2_bzDecompressInit.40
	.cfi_def_cfa %rbp, 16
	movq	%rbx, %rdi
	movl	%r15d, %esi
	movl	%r14d, %edx
	callq	BZ2_bzDecompressInit.40
	addq	$8, %rsp
	popq	%rbx
	popq	%r14
	popq	%r15
	popq	%rbp
	.cfi_def_cfa %rsp, 8
	retq
.LBB12_4:                               # %func_BZ2_bzDecompressInit.49
	.cfi_def_cfa %rbp, 16
	movq	%rbx, %rdi
	movl	%r15d, %esi
	movl	%r14d, %edx
	callq	BZ2_bzDecompressInit.49
	addq	$8, %rsp
	popq	%rbx
	popq	%r14
	popq	%r15
	popq	%rbp
	.cfi_def_cfa %rsp, 8
	retq
.LBB12_5:                               # %func_BZ2_bzDecompressInit.55
	.cfi_def_cfa %rbp, 16
	movq	%rbx, %rdi
	movl	%r15d, %esi
	movl	%r14d, %edx
	callq	BZ2_bzDecompressInit.55
	addq	$8, %rsp
	popq	%rbx
	popq	%r14
	popq	%r15
	popq	%rbp
	.cfi_def_cfa %rsp, 8
	retq
.LBB12_6:                               # %func_BZ2_bzDecompressInit.75
	.cfi_def_cfa %rbp, 16
	movq	%rbx, %rdi
	movl	%r15d, %esi
	movl	%r14d, %edx
	callq	BZ2_bzDecompressInit.75
	addq	$8, %rsp
	popq	%rbx
	popq	%r14
	popq	%r15
	popq	%rbp
	.cfi_def_cfa %rsp, 8
	retq
.LBB12_7:                               # %func_BZ2_bzDecompressInit.78
	.cfi_def_cfa %rbp, 16
	movq	%rbx, %rdi
	movl	%r15d, %esi
	movl	%r14d, %edx
	callq	BZ2_bzDecompressInit.78
	addq	$8, %rsp
	popq	%rbx
	popq	%r14
	popq	%r15
	popq	%rbp
	.cfi_def_cfa %rsp, 8
	retq
.LBB12_8:                               # %func_BZ2_bzDecompressInit.107
	.cfi_def_cfa %rbp, 16
	movq	%rbx, %rdi
	movl	%r15d, %esi
	movl	%r14d, %edx
	callq	BZ2_bzDecompressInit.107
	addq	$8, %rsp
	popq	%rbx
	popq	%r14
	popq	%r15
	popq	%rbp
	.cfi_def_cfa %rsp, 8
	retq
.LBB12_9:                               # %ctrl0
	.cfi_def_cfa %rbp, 16
	cmpl	$1, %eax
	je	.LBB12_2
# %bb.10:                               # %ctrl1
	cmpl	$2, %eax
	je	.LBB12_3
# %bb.11:                               # %ctrl2
	cmpl	$3, %eax
	je	.LBB12_4
# %bb.12:                               # %ctrl3
	cmpl	$4, %eax
	je	.LBB12_5
# %bb.13:                               # %ctrl4
	cmpl	$5, %eax
	je	.LBB12_6
# %bb.14:                               # %ctrl5
	cmpl	$6, %eax
	je	.LBB12_7
	jmp	.LBB12_8
.Lfunc_end12:
	.size	BZ2_bzDecompressInit, .Lfunc_end12-BZ2_bzDecompressInit
	.cfi_endproc
                                        # -- End function
	.globl	BZ2_indexIntoF          # -- Begin function BZ2_indexIntoF
	.p2align	4, 0x90
	.type	BZ2_indexIntoF,@function
BZ2_indexIntoF:                         # @BZ2_indexIntoF
	.cfi_startproc
# %bb.0:                                # %rand_bb
	pushq	%rbp
	.cfi_def_cfa_offset 16
	.cfi_offset %rbp, -16
	movq	%rsp, %rbp
	.cfi_def_cfa_register %rbp
	pushq	%r14
	pushq	%rbx
	.cfi_offset %rbx, -32
	.cfi_offset %r14, -24
	movq	%rsi, %r14
	movl	%edi, %ebx
	callq	get_rand
	cmpl	$0, %eax
	jne	.LBB13_9
# %bb.1:                                # %func_BZ2_indexIntoF.1
	movl	%ebx, %edi
	movq	%r14, %rsi
	callq	BZ2_indexIntoF.1
	popq	%rbx
	popq	%r14
	popq	%rbp
	.cfi_def_cfa %rsp, 8
	retq
.LBB13_2:                               # %func_BZ2_indexIntoF.4
	.cfi_def_cfa %rbp, 16
	movl	%ebx, %edi
	movq	%r14, %rsi
	callq	BZ2_indexIntoF.4
	popq	%rbx
	popq	%r14
	popq	%rbp
	.cfi_def_cfa %rsp, 8
	retq
.LBB13_3:                               # %func_BZ2_indexIntoF.13
	.cfi_def_cfa %rbp, 16
	movl	%ebx, %edi
	movq	%r14, %rsi
	callq	BZ2_indexIntoF.13
	popq	%rbx
	popq	%r14
	popq	%rbp
	.cfi_def_cfa %rsp, 8
	retq
.LBB13_4:                               # %func_BZ2_indexIntoF.27
	.cfi_def_cfa %rbp, 16
	movl	%ebx, %edi
	movq	%r14, %rsi
	callq	BZ2_indexIntoF.27
	popq	%rbx
	popq	%r14
	popq	%rbp
	.cfi_def_cfa %rsp, 8
	retq
.LBB13_5:                               # %func_BZ2_indexIntoF.83
	.cfi_def_cfa %rbp, 16
	movl	%ebx, %edi
	movq	%r14, %rsi
	callq	BZ2_indexIntoF.83
	popq	%rbx
	popq	%r14
	popq	%rbp
	.cfi_def_cfa %rsp, 8
	retq
.LBB13_6:                               # %func_BZ2_indexIntoF.108
	.cfi_def_cfa %rbp, 16
	movl	%ebx, %edi
	movq	%r14, %rsi
	callq	BZ2_indexIntoF.108
	popq	%rbx
	popq	%r14
	popq	%rbp
	.cfi_def_cfa %rsp, 8
	retq
.LBB13_7:                               # %func_BZ2_indexIntoF.150
	.cfi_def_cfa %rbp, 16
	movl	%ebx, %edi
	movq	%r14, %rsi
	callq	BZ2_indexIntoF.150
	popq	%rbx
	popq	%r14
	popq	%rbp
	.cfi_def_cfa %rsp, 8
	retq
.LBB13_8:                               # %func_BZ2_indexIntoF.153
	.cfi_def_cfa %rbp, 16
	movl	%ebx, %edi
	movq	%r14, %rsi
	callq	BZ2_indexIntoF.153
	popq	%rbx
	popq	%r14
	popq	%rbp
	.cfi_def_cfa %rsp, 8
	retq
.LBB13_9:                               # %ctrl0
	.cfi_def_cfa %rbp, 16
	cmpl	$1, %eax
	je	.LBB13_2
# %bb.10:                               # %ctrl1
	cmpl	$2, %eax
	je	.LBB13_3
# %bb.11:                               # %ctrl2
	cmpl	$3, %eax
	je	.LBB13_4
# %bb.12:                               # %ctrl3
	cmpl	$4, %eax
	je	.LBB13_5
# %bb.13:                               # %ctrl4
	cmpl	$5, %eax
	je	.LBB13_6
# %bb.14:                               # %ctrl5
	cmpl	$6, %eax
	je	.LBB13_7
	jmp	.LBB13_8
.Lfunc_end13:
	.size	BZ2_indexIntoF, .Lfunc_end13-BZ2_indexIntoF
	.cfi_endproc
                                        # -- End function
	.globl	BZ2_bzDecompress        # -- Begin function BZ2_bzDecompress
	.p2align	4, 0x90
	.type	BZ2_bzDecompress,@function
BZ2_bzDecompress:                       # @BZ2_bzDecompress
	.cfi_startproc
# %bb.0:                                # %rand_bb
	pushq	%rbp
	.cfi_def_cfa_offset 16
	.cfi_offset %rbp, -16
	movq	%rsp, %rbp
	.cfi_def_cfa_register %rbp
	pushq	%rbx
	pushq	%rax
	.cfi_offset %rbx, -24
	movq	%rdi, %rbx
	callq	get_rand
	cmpl	$0, %eax
	jne	.LBB14_9
# %bb.1:                                # %func_BZ2_bzDecompress.20
	movq	%rbx, %rdi
	callq	BZ2_bzDecompress.20
	addq	$8, %rsp
	popq	%rbx
	popq	%rbp
	.cfi_def_cfa %rsp, 8
	retq
.LBB14_2:                               # %func_BZ2_bzDecompress.64
	.cfi_def_cfa %rbp, 16
	movq	%rbx, %rdi
	callq	BZ2_bzDecompress.64
	addq	$8, %rsp
	popq	%rbx
	popq	%rbp
	.cfi_def_cfa %rsp, 8
	retq
.LBB14_3:                               # %func_BZ2_bzDecompress.93
	.cfi_def_cfa %rbp, 16
	movq	%rbx, %rdi
	callq	BZ2_bzDecompress.93
	addq	$8, %rsp
	popq	%rbx
	popq	%rbp
	.cfi_def_cfa %rsp, 8
	retq
.LBB14_4:                               # %func_BZ2_bzDecompress.164
	.cfi_def_cfa %rbp, 16
	movq	%rbx, %rdi
	callq	BZ2_bzDecompress.164
	addq	$8, %rsp
	popq	%rbx
	popq	%rbp
	.cfi_def_cfa %rsp, 8
	retq
.LBB14_5:                               # %func_BZ2_bzDecompress.169
	.cfi_def_cfa %rbp, 16
	movq	%rbx, %rdi
	callq	BZ2_bzDecompress.169
	addq	$8, %rsp
	popq	%rbx
	popq	%rbp
	.cfi_def_cfa %rsp, 8
	retq
.LBB14_6:                               # %func_BZ2_bzDecompress.177
	.cfi_def_cfa %rbp, 16
	movq	%rbx, %rdi
	callq	BZ2_bzDecompress.177
	addq	$8, %rsp
	popq	%rbx
	popq	%rbp
	.cfi_def_cfa %rsp, 8
	retq
.LBB14_7:                               # %func_BZ2_bzDecompress.180
	.cfi_def_cfa %rbp, 16
	movq	%rbx, %rdi
	callq	BZ2_bzDecompress.180
	addq	$8, %rsp
	popq	%rbx
	popq	%rbp
	.cfi_def_cfa %rsp, 8
	retq
.LBB14_8:                               # %func_BZ2_bzDecompress.186
	.cfi_def_cfa %rbp, 16
	movq	%rbx, %rdi
	callq	BZ2_bzDecompress.186
	addq	$8, %rsp
	popq	%rbx
	popq	%rbp
	.cfi_def_cfa %rsp, 8
	retq
.LBB14_9:                               # %ctrl0
	.cfi_def_cfa %rbp, 16
	cmpl	$1, %eax
	je	.LBB14_2
# %bb.10:                               # %ctrl1
	cmpl	$2, %eax
	je	.LBB14_3
# %bb.11:                               # %ctrl2
	cmpl	$3, %eax
	je	.LBB14_4
# %bb.12:                               # %ctrl3
	cmpl	$4, %eax
	je	.LBB14_5
# %bb.13:                               # %ctrl4
	cmpl	$5, %eax
	je	.LBB14_6
# %bb.14:                               # %ctrl5
	cmpl	$6, %eax
	je	.LBB14_7
	jmp	.LBB14_8
.Lfunc_end14:
	.size	BZ2_bzDecompress, .Lfunc_end14-BZ2_bzDecompress
	.cfi_endproc
                                        # -- End function
	.p2align	4, 0x90         # -- Begin function unRLE_obuf_to_output_SMALL
	.type	unRLE_obuf_to_output_SMALL,@function
unRLE_obuf_to_output_SMALL:             # @unRLE_obuf_to_output_SMALL
	.cfi_startproc
# %bb.0:                                # %rand_bb
	pushq	%rbp
	.cfi_def_cfa_offset 16
	.cfi_offset %rbp, -16
	movq	%rsp, %rbp
	.cfi_def_cfa_register %rbp
	pushq	%rbx
	pushq	%rax
	.cfi_offset %rbx, -24
	movq	%rdi, %rbx
	callq	get_rand
	cmpl	$0, %eax
	jne	.LBB15_7
# %bb.1:                                # %func_unRLE_obuf_to_output_SMALL.33
	movq	%rbx, %rdi
	callq	unRLE_obuf_to_output_SMALL.33
	movzbl	%al, %eax
	addq	$8, %rsp
	popq	%rbx
	popq	%rbp
	.cfi_def_cfa %rsp, 8
	retq
.LBB15_2:                               # %func_unRLE_obuf_to_output_SMALL.42
	.cfi_def_cfa %rbp, 16
	movq	%rbx, %rdi
	callq	unRLE_obuf_to_output_SMALL.42
	movzbl	%al, %eax
	addq	$8, %rsp
	popq	%rbx
	popq	%rbp
	.cfi_def_cfa %rsp, 8
	retq
.LBB15_3:                               # %func_unRLE_obuf_to_output_SMALL.71
	.cfi_def_cfa %rbp, 16
	movq	%rbx, %rdi
	callq	unRLE_obuf_to_output_SMALL.71
	movzbl	%al, %eax
	addq	$8, %rsp
	popq	%rbx
	popq	%rbp
	.cfi_def_cfa %rsp, 8
	retq
.LBB15_4:                               # %func_unRLE_obuf_to_output_SMALL.100
	.cfi_def_cfa %rbp, 16
	movq	%rbx, %rdi
	callq	unRLE_obuf_to_output_SMALL.100
	movzbl	%al, %eax
	addq	$8, %rsp
	popq	%rbx
	popq	%rbp
	.cfi_def_cfa %rsp, 8
	retq
.LBB15_5:                               # %func_unRLE_obuf_to_output_SMALL.124
	.cfi_def_cfa %rbp, 16
	movq	%rbx, %rdi
	callq	unRLE_obuf_to_output_SMALL.124
	movzbl	%al, %eax
	addq	$8, %rsp
	popq	%rbx
	popq	%rbp
	.cfi_def_cfa %rsp, 8
	retq
.LBB15_6:                               # %func_unRLE_obuf_to_output_SMALL.129
	.cfi_def_cfa %rbp, 16
	movq	%rbx, %rdi
	callq	unRLE_obuf_to_output_SMALL.129
	movzbl	%al, %eax
	addq	$8, %rsp
	popq	%rbx
	popq	%rbp
	.cfi_def_cfa %rsp, 8
	retq
.LBB15_7:                               # %ctrl0
	.cfi_def_cfa %rbp, 16
	cmpl	$1, %eax
	je	.LBB15_2
# %bb.8:                                # %ctrl1
	cmpl	$2, %eax
	je	.LBB15_3
# %bb.9:                                # %ctrl2
	cmpl	$3, %eax
	je	.LBB15_4
# %bb.10:                               # %ctrl3
	cmpl	$4, %eax
	je	.LBB15_5
	jmp	.LBB15_6
.Lfunc_end15:
	.size	unRLE_obuf_to_output_SMALL, .Lfunc_end15-unRLE_obuf_to_output_SMALL
	.cfi_endproc
                                        # -- End function
	.p2align	4, 0x90         # -- Begin function unRLE_obuf_to_output_FAST
	.type	unRLE_obuf_to_output_FAST,@function
unRLE_obuf_to_output_FAST:              # @unRLE_obuf_to_output_FAST
	.cfi_startproc
# %bb.0:                                # %rand_bb
	pushq	%rbp
	.cfi_def_cfa_offset 16
	.cfi_offset %rbp, -16
	movq	%rsp, %rbp
	.cfi_def_cfa_register %rbp
	pushq	%rbx
	pushq	%rax
	.cfi_offset %rbx, -24
	movq	%rdi, %rbx
	callq	get_rand
	cmpl	$0, %eax
	jne	.LBB16_9
# %bb.1:                                # %func_unRLE_obuf_to_output_FAST.11
	movq	%rbx, %rdi
	callq	unRLE_obuf_to_output_FAST.11
	movzbl	%al, %eax
	addq	$8, %rsp
	popq	%rbx
	popq	%rbp
	.cfi_def_cfa %rsp, 8
	retq
.LBB16_2:                               # %func_unRLE_obuf_to_output_FAST.35
	.cfi_def_cfa %rbp, 16
	movq	%rbx, %rdi
	callq	unRLE_obuf_to_output_FAST.35
	movzbl	%al, %eax
	addq	$8, %rsp
	popq	%rbx
	popq	%rbp
	.cfi_def_cfa %rsp, 8
	retq
.LBB16_3:                               # %func_unRLE_obuf_to_output_FAST.58
	.cfi_def_cfa %rbp, 16
	movq	%rbx, %rdi
	callq	unRLE_obuf_to_output_FAST.58
	movzbl	%al, %eax
	addq	$8, %rsp
	popq	%rbx
	popq	%rbp
	.cfi_def_cfa %rsp, 8
	retq
.LBB16_4:                               # %func_unRLE_obuf_to_output_FAST.89
	.cfi_def_cfa %rbp, 16
	movq	%rbx, %rdi
	callq	unRLE_obuf_to_output_FAST.89
	movzbl	%al, %eax
	addq	$8, %rsp
	popq	%rbx
	popq	%rbp
	.cfi_def_cfa %rsp, 8
	retq
.LBB16_5:                               # %func_unRLE_obuf_to_output_FAST.95
	.cfi_def_cfa %rbp, 16
	movq	%rbx, %rdi
	callq	unRLE_obuf_to_output_FAST.95
	movzbl	%al, %eax
	addq	$8, %rsp
	popq	%rbx
	popq	%rbp
	.cfi_def_cfa %rsp, 8
	retq
.LBB16_6:                               # %func_unRLE_obuf_to_output_FAST.127
	.cfi_def_cfa %rbp, 16
	movq	%rbx, %rdi
	callq	unRLE_obuf_to_output_FAST.127
	movzbl	%al, %eax
	addq	$8, %rsp
	popq	%rbx
	popq	%rbp
	.cfi_def_cfa %rsp, 8
	retq
.LBB16_7:                               # %func_unRLE_obuf_to_output_FAST.141
	.cfi_def_cfa %rbp, 16
	movq	%rbx, %rdi
	callq	unRLE_obuf_to_output_FAST.141
	movzbl	%al, %eax
	addq	$8, %rsp
	popq	%rbx
	popq	%rbp
	.cfi_def_cfa %rsp, 8
	retq
.LBB16_8:                               # %func_unRLE_obuf_to_output_FAST.160
	.cfi_def_cfa %rbp, 16
	movq	%rbx, %rdi
	callq	unRLE_obuf_to_output_FAST.160
	movzbl	%al, %eax
	addq	$8, %rsp
	popq	%rbx
	popq	%rbp
	.cfi_def_cfa %rsp, 8
	retq
.LBB16_9:                               # %ctrl0
	.cfi_def_cfa %rbp, 16
	cmpl	$1, %eax
	je	.LBB16_2
# %bb.10:                               # %ctrl1
	cmpl	$2, %eax
	je	.LBB16_3
# %bb.11:                               # %ctrl2
	cmpl	$3, %eax
	je	.LBB16_4
# %bb.12:                               # %ctrl3
	cmpl	$4, %eax
	je	.LBB16_5
# %bb.13:                               # %ctrl4
	cmpl	$5, %eax
	je	.LBB16_6
# %bb.14:                               # %ctrl5
	cmpl	$6, %eax
	je	.LBB16_7
	jmp	.LBB16_8
.Lfunc_end16:
	.size	unRLE_obuf_to_output_FAST, .Lfunc_end16-unRLE_obuf_to_output_FAST
	.cfi_endproc
                                        # -- End function
	.globl	BZ2_bzDecompressEnd     # -- Begin function BZ2_bzDecompressEnd
	.p2align	4, 0x90
	.type	BZ2_bzDecompressEnd,@function
BZ2_bzDecompressEnd:                    # @BZ2_bzDecompressEnd
	.cfi_startproc
# %bb.0:                                # %rand_bb
	pushq	%rbp
	.cfi_def_cfa_offset 16
	.cfi_offset %rbp, -16
	movq	%rsp, %rbp
	.cfi_def_cfa_register %rbp
	pushq	%rbx
	pushq	%rax
	.cfi_offset %rbx, -24
	movq	%rdi, %rbx
	callq	get_rand
	cmpl	$0, %eax
	jne	.LBB17_7
# %bb.1:                                # %func_BZ2_bzDecompressEnd.24
	movq	%rbx, %rdi
	callq	BZ2_bzDecompressEnd.24
	addq	$8, %rsp
	popq	%rbx
	popq	%rbp
	.cfi_def_cfa %rsp, 8
	retq
.LBB17_2:                               # %func_BZ2_bzDecompressEnd.46
	.cfi_def_cfa %rbp, 16
	movq	%rbx, %rdi
	callq	BZ2_bzDecompressEnd.46
	addq	$8, %rsp
	popq	%rbx
	popq	%rbp
	.cfi_def_cfa %rsp, 8
	retq
.LBB17_3:                               # %func_BZ2_bzDecompressEnd.53
	.cfi_def_cfa %rbp, 16
	movq	%rbx, %rdi
	callq	BZ2_bzDecompressEnd.53
	addq	$8, %rsp
	popq	%rbx
	popq	%rbp
	.cfi_def_cfa %rsp, 8
	retq
.LBB17_4:                               # %func_BZ2_bzDecompressEnd.54
	.cfi_def_cfa %rbp, 16
	movq	%rbx, %rdi
	callq	BZ2_bzDecompressEnd.54
	addq	$8, %rsp
	popq	%rbx
	popq	%rbp
	.cfi_def_cfa %rsp, 8
	retq
.LBB17_5:                               # %func_BZ2_bzDecompressEnd.69
	.cfi_def_cfa %rbp, 16
	movq	%rbx, %rdi
	callq	BZ2_bzDecompressEnd.69
	addq	$8, %rsp
	popq	%rbx
	popq	%rbp
	.cfi_def_cfa %rsp, 8
	retq
.LBB17_6:                               # %func_BZ2_bzDecompressEnd.74
	.cfi_def_cfa %rbp, 16
	movq	%rbx, %rdi
	callq	BZ2_bzDecompressEnd.74
	addq	$8, %rsp
	popq	%rbx
	popq	%rbp
	.cfi_def_cfa %rsp, 8
	retq
.LBB17_7:                               # %ctrl0
	.cfi_def_cfa %rbp, 16
	cmpl	$1, %eax
	je	.LBB17_2
# %bb.8:                                # %ctrl1
	cmpl	$2, %eax
	je	.LBB17_3
# %bb.9:                                # %ctrl2
	cmpl	$3, %eax
	je	.LBB17_4
# %bb.10:                               # %ctrl3
	cmpl	$4, %eax
	je	.LBB17_5
	jmp	.LBB17_6
.Lfunc_end17:
	.size	BZ2_bzDecompressEnd, .Lfunc_end17-BZ2_bzDecompressEnd
	.cfi_endproc
                                        # -- End function
	.globl	BZ2_bzWriteOpen         # -- Begin function BZ2_bzWriteOpen
	.p2align	4, 0x90
	.type	BZ2_bzWriteOpen,@function
BZ2_bzWriteOpen:                        # @BZ2_bzWriteOpen
	.cfi_startproc
# %bb.0:                                # %rand_bb
	pushq	%rbp
	.cfi_def_cfa_offset 16
	.cfi_offset %rbp, -16
	movq	%rsp, %rbp
	.cfi_def_cfa_register %rbp
	pushq	%r15
	pushq	%r14
	pushq	%r13
	pushq	%r12
	pushq	%rbx
	pushq	%rax
	.cfi_offset %rbx, -56
	.cfi_offset %r12, -48
	.cfi_offset %r13, -40
	.cfi_offset %r14, -32
	.cfi_offset %r15, -24
	movl	%r8d, %r14d
	movl	%ecx, %r15d
	movl	%edx, %r12d
	movq	%rsi, %r13
	movq	%rdi, %rbx
	callq	get_rand
	cmpl	$0, %eax
	jne	.LBB18_9
# %bb.1:                                # %func_BZ2_bzWriteOpen.14
	movq	%rbx, %rdi
	movq	%r13, %rsi
	movl	%r12d, %edx
	movl	%r15d, %ecx
	movl	%r14d, %r8d
	callq	BZ2_bzWriteOpen.14
	addq	$8, %rsp
	popq	%rbx
	popq	%r12
	popq	%r13
	popq	%r14
	popq	%r15
	popq	%rbp
	.cfi_def_cfa %rsp, 8
	retq
.LBB18_2:                               # %func_BZ2_bzWriteOpen.92
	.cfi_def_cfa %rbp, 16
	movq	%rbx, %rdi
	movq	%r13, %rsi
	movl	%r12d, %edx
	movl	%r15d, %ecx
	movl	%r14d, %r8d
	callq	BZ2_bzWriteOpen.92
	addq	$8, %rsp
	popq	%rbx
	popq	%r12
	popq	%r13
	popq	%r14
	popq	%r15
	popq	%rbp
	.cfi_def_cfa %rsp, 8
	retq
.LBB18_3:                               # %func_BZ2_bzWriteOpen.132
	.cfi_def_cfa %rbp, 16
	movq	%rbx, %rdi
	movq	%r13, %rsi
	movl	%r12d, %edx
	movl	%r15d, %ecx
	movl	%r14d, %r8d
	callq	BZ2_bzWriteOpen.132
	addq	$8, %rsp
	popq	%rbx
	popq	%r12
	popq	%r13
	popq	%r14
	popq	%r15
	popq	%rbp
	.cfi_def_cfa %rsp, 8
	retq
.LBB18_4:                               # %func_BZ2_bzWriteOpen.174
	.cfi_def_cfa %rbp, 16
	movq	%rbx, %rdi
	movq	%r13, %rsi
	movl	%r12d, %edx
	movl	%r15d, %ecx
	movl	%r14d, %r8d
	callq	BZ2_bzWriteOpen.174
	addq	$8, %rsp
	popq	%rbx
	popq	%r12
	popq	%r13
	popq	%r14
	popq	%r15
	popq	%rbp
	.cfi_def_cfa %rsp, 8
	retq
.LBB18_5:                               # %func_BZ2_bzWriteOpen.214
	.cfi_def_cfa %rbp, 16
	movq	%rbx, %rdi
	movq	%r13, %rsi
	movl	%r12d, %edx
	movl	%r15d, %ecx
	movl	%r14d, %r8d
	callq	BZ2_bzWriteOpen.214
	addq	$8, %rsp
	popq	%rbx
	popq	%r12
	popq	%r13
	popq	%r14
	popq	%r15
	popq	%rbp
	.cfi_def_cfa %rsp, 8
	retq
.LBB18_6:                               # %func_BZ2_bzWriteOpen.215
	.cfi_def_cfa %rbp, 16
	movq	%rbx, %rdi
	movq	%r13, %rsi
	movl	%r12d, %edx
	movl	%r15d, %ecx
	movl	%r14d, %r8d
	callq	BZ2_bzWriteOpen.215
	addq	$8, %rsp
	popq	%rbx
	popq	%r12
	popq	%r13
	popq	%r14
	popq	%r15
	popq	%rbp
	.cfi_def_cfa %rsp, 8
	retq
.LBB18_7:                               # %func_BZ2_bzWriteOpen.220
	.cfi_def_cfa %rbp, 16
	movq	%rbx, %rdi
	movq	%r13, %rsi
	movl	%r12d, %edx
	movl	%r15d, %ecx
	movl	%r14d, %r8d
	callq	BZ2_bzWriteOpen.220
	addq	$8, %rsp
	popq	%rbx
	popq	%r12
	popq	%r13
	popq	%r14
	popq	%r15
	popq	%rbp
	.cfi_def_cfa %rsp, 8
	retq
.LBB18_8:                               # %func_BZ2_bzWriteOpen.222
	.cfi_def_cfa %rbp, 16
	movq	%rbx, %rdi
	movq	%r13, %rsi
	movl	%r12d, %edx
	movl	%r15d, %ecx
	movl	%r14d, %r8d
	callq	BZ2_bzWriteOpen.222
	addq	$8, %rsp
	popq	%rbx
	popq	%r12
	popq	%r13
	popq	%r14
	popq	%r15
	popq	%rbp
	.cfi_def_cfa %rsp, 8
	retq
.LBB18_9:                               # %ctrl0
	.cfi_def_cfa %rbp, 16
	cmpl	$1, %eax
	je	.LBB18_2
# %bb.10:                               # %ctrl1
	cmpl	$2, %eax
	je	.LBB18_3
# %bb.11:                               # %ctrl2
	cmpl	$3, %eax
	je	.LBB18_4
# %bb.12:                               # %ctrl3
	cmpl	$4, %eax
	je	.LBB18_5
# %bb.13:                               # %ctrl4
	cmpl	$5, %eax
	je	.LBB18_6
# %bb.14:                               # %ctrl5
	cmpl	$6, %eax
	je	.LBB18_7
	jmp	.LBB18_8
.Lfunc_end18:
	.size	BZ2_bzWriteOpen, .Lfunc_end18-BZ2_bzWriteOpen
	.cfi_endproc
                                        # -- End function
	.globl	BZ2_bzWrite             # -- Begin function BZ2_bzWrite
	.p2align	4, 0x90
	.type	BZ2_bzWrite,@function
BZ2_bzWrite:                            # @BZ2_bzWrite
	.cfi_startproc
# %bb.0:                                # %rand_bb
	pushq	%rbp
	.cfi_def_cfa_offset 16
	.cfi_offset %rbp, -16
	movq	%rsp, %rbp
	.cfi_def_cfa_register %rbp
	pushq	%r15
	pushq	%r14
	pushq	%r12
	pushq	%rbx
	.cfi_offset %rbx, -48
	.cfi_offset %r12, -40
	.cfi_offset %r14, -32
	.cfi_offset %r15, -24
	movl	%ecx, %r14d
	movq	%rdx, %r15
	movq	%rsi, %r12
	movq	%rdi, %rbx
	callq	get_rand
	cmpl	$0, %eax
	jne	.LBB19_9
# %bb.1:                                # %func_BZ2_bzWrite.15
	movq	%rbx, %rdi
	movq	%r12, %rsi
	movq	%r15, %rdx
	movl	%r14d, %ecx
	callq	BZ2_bzWrite.15
	popq	%rbx
	popq	%r12
	popq	%r14
	popq	%r15
	popq	%rbp
	.cfi_def_cfa %rsp, 8
	retq
.LBB19_2:                               # %func_BZ2_bzWrite.90
	.cfi_def_cfa %rbp, 16
	movq	%rbx, %rdi
	movq	%r12, %rsi
	movq	%r15, %rdx
	movl	%r14d, %ecx
	callq	BZ2_bzWrite.90
	popq	%rbx
	popq	%r12
	popq	%r14
	popq	%r15
	popq	%rbp
	.cfi_def_cfa %rsp, 8
	retq
.LBB19_3:                               # %func_BZ2_bzWrite.91
	.cfi_def_cfa %rbp, 16
	movq	%rbx, %rdi
	movq	%r12, %rsi
	movq	%r15, %rdx
	movl	%r14d, %ecx
	callq	BZ2_bzWrite.91
	popq	%rbx
	popq	%r12
	popq	%r14
	popq	%r15
	popq	%rbp
	.cfi_def_cfa %rsp, 8
	retq
.LBB19_4:                               # %func_BZ2_bzWrite.152
	.cfi_def_cfa %rbp, 16
	movq	%rbx, %rdi
	movq	%r12, %rsi
	movq	%r15, %rdx
	movl	%r14d, %ecx
	callq	BZ2_bzWrite.152
	popq	%rbx
	popq	%r12
	popq	%r14
	popq	%r15
	popq	%rbp
	.cfi_def_cfa %rsp, 8
	retq
.LBB19_5:                               # %func_BZ2_bzWrite.163
	.cfi_def_cfa %rbp, 16
	movq	%rbx, %rdi
	movq	%r12, %rsi
	movq	%r15, %rdx
	movl	%r14d, %ecx
	callq	BZ2_bzWrite.163
	popq	%rbx
	popq	%r12
	popq	%r14
	popq	%r15
	popq	%rbp
	.cfi_def_cfa %rsp, 8
	retq
.LBB19_6:                               # %func_BZ2_bzWrite.170
	.cfi_def_cfa %rbp, 16
	movq	%rbx, %rdi
	movq	%r12, %rsi
	movq	%r15, %rdx
	movl	%r14d, %ecx
	callq	BZ2_bzWrite.170
	popq	%rbx
	popq	%r12
	popq	%r14
	popq	%r15
	popq	%rbp
	.cfi_def_cfa %rsp, 8
	retq
.LBB19_7:                               # %func_BZ2_bzWrite.178
	.cfi_def_cfa %rbp, 16
	movq	%rbx, %rdi
	movq	%r12, %rsi
	movq	%r15, %rdx
	movl	%r14d, %ecx
	callq	BZ2_bzWrite.178
	popq	%rbx
	popq	%r12
	popq	%r14
	popq	%r15
	popq	%rbp
	.cfi_def_cfa %rsp, 8
	retq
.LBB19_8:                               # %func_BZ2_bzWrite.179
	.cfi_def_cfa %rbp, 16
	movq	%rbx, %rdi
	movq	%r12, %rsi
	movq	%r15, %rdx
	movl	%r14d, %ecx
	callq	BZ2_bzWrite.179
	popq	%rbx
	popq	%r12
	popq	%r14
	popq	%r15
	popq	%rbp
	.cfi_def_cfa %rsp, 8
	retq
.LBB19_9:                               # %ctrl0
	.cfi_def_cfa %rbp, 16
	cmpl	$1, %eax
	je	.LBB19_2
# %bb.10:                               # %ctrl1
	cmpl	$2, %eax
	je	.LBB19_3
# %bb.11:                               # %ctrl2
	cmpl	$3, %eax
	je	.LBB19_4
# %bb.12:                               # %ctrl3
	cmpl	$4, %eax
	je	.LBB19_5
# %bb.13:                               # %ctrl4
	cmpl	$5, %eax
	je	.LBB19_6
# %bb.14:                               # %ctrl5
	cmpl	$6, %eax
	je	.LBB19_7
	jmp	.LBB19_8
.Lfunc_end19:
	.size	BZ2_bzWrite, .Lfunc_end19-BZ2_bzWrite
	.cfi_endproc
                                        # -- End function
	.globl	BZ2_bzWriteClose        # -- Begin function BZ2_bzWriteClose
	.p2align	4, 0x90
	.type	BZ2_bzWriteClose,@function
BZ2_bzWriteClose:                       # @BZ2_bzWriteClose
	.cfi_startproc
# %bb.0:                                # %rand_bb
	pushq	%rbp
	.cfi_def_cfa_offset 16
	.cfi_offset %rbp, -16
	movq	%rsp, %rbp
	.cfi_def_cfa_register %rbp
	pushq	%r15
	pushq	%r14
	pushq	%r13
	pushq	%r12
	pushq	%rbx
	pushq	%rax
	.cfi_offset %rbx, -56
	.cfi_offset %r12, -48
	.cfi_offset %r13, -40
	.cfi_offset %r14, -32
	.cfi_offset %r15, -24
	movq	%r8, %r14
	movq	%rcx, %r15
	movl	%edx, %r12d
	movq	%rsi, %r13
	movq	%rdi, %rbx
	callq	get_rand
	cmpl	$0, %eax
	jne	.LBB20_9
# %bb.1:                                # %func_BZ2_bzWriteClose.17
	movq	%rbx, %rdi
	movq	%r13, %rsi
	movl	%r12d, %edx
	movq	%r15, %rcx
	movq	%r14, %r8
	callq	BZ2_bzWriteClose.17
	addq	$8, %rsp
	popq	%rbx
	popq	%r12
	popq	%r13
	popq	%r14
	popq	%r15
	popq	%rbp
	.cfi_def_cfa %rsp, 8
	retq
.LBB20_2:                               # %func_BZ2_bzWriteClose.87
	.cfi_def_cfa %rbp, 16
	movq	%rbx, %rdi
	movq	%r13, %rsi
	movl	%r12d, %edx
	movq	%r15, %rcx
	movq	%r14, %r8
	callq	BZ2_bzWriteClose.87
	addq	$8, %rsp
	popq	%rbx
	popq	%r12
	popq	%r13
	popq	%r14
	popq	%r15
	popq	%rbp
	.cfi_def_cfa %rsp, 8
	retq
.LBB20_3:                               # %func_BZ2_bzWriteClose.96
	.cfi_def_cfa %rbp, 16
	movq	%rbx, %rdi
	movq	%r13, %rsi
	movl	%r12d, %edx
	movq	%r15, %rcx
	movq	%r14, %r8
	callq	BZ2_bzWriteClose.96
	addq	$8, %rsp
	popq	%rbx
	popq	%r12
	popq	%r13
	popq	%r14
	popq	%r15
	popq	%rbp
	.cfi_def_cfa %rsp, 8
	retq
.LBB20_4:                               # %func_BZ2_bzWriteClose.104
	.cfi_def_cfa %rbp, 16
	movq	%rbx, %rdi
	movq	%r13, %rsi
	movl	%r12d, %edx
	movq	%r15, %rcx
	movq	%r14, %r8
	callq	BZ2_bzWriteClose.104
	addq	$8, %rsp
	popq	%rbx
	popq	%r12
	popq	%r13
	popq	%r14
	popq	%r15
	popq	%rbp
	.cfi_def_cfa %rsp, 8
	retq
.LBB20_5:                               # %func_BZ2_bzWriteClose.116
	.cfi_def_cfa %rbp, 16
	movq	%rbx, %rdi
	movq	%r13, %rsi
	movl	%r12d, %edx
	movq	%r15, %rcx
	movq	%r14, %r8
	callq	BZ2_bzWriteClose.116
	addq	$8, %rsp
	popq	%rbx
	popq	%r12
	popq	%r13
	popq	%r14
	popq	%r15
	popq	%rbp
	.cfi_def_cfa %rsp, 8
	retq
.LBB20_6:                               # %func_BZ2_bzWriteClose.117
	.cfi_def_cfa %rbp, 16
	movq	%rbx, %rdi
	movq	%r13, %rsi
	movl	%r12d, %edx
	movq	%r15, %rcx
	movq	%r14, %r8
	callq	BZ2_bzWriteClose.117
	addq	$8, %rsp
	popq	%rbx
	popq	%r12
	popq	%r13
	popq	%r14
	popq	%r15
	popq	%rbp
	.cfi_def_cfa %rsp, 8
	retq
.LBB20_7:                               # %func_BZ2_bzWriteClose.126
	.cfi_def_cfa %rbp, 16
	movq	%rbx, %rdi
	movq	%r13, %rsi
	movl	%r12d, %edx
	movq	%r15, %rcx
	movq	%r14, %r8
	callq	BZ2_bzWriteClose.126
	addq	$8, %rsp
	popq	%rbx
	popq	%r12
	popq	%r13
	popq	%r14
	popq	%r15
	popq	%rbp
	.cfi_def_cfa %rsp, 8
	retq
.LBB20_8:                               # %func_BZ2_bzWriteClose.147
	.cfi_def_cfa %rbp, 16
	movq	%rbx, %rdi
	movq	%r13, %rsi
	movl	%r12d, %edx
	movq	%r15, %rcx
	movq	%r14, %r8
	callq	BZ2_bzWriteClose.147
	addq	$8, %rsp
	popq	%rbx
	popq	%r12
	popq	%r13
	popq	%r14
	popq	%r15
	popq	%rbp
	.cfi_def_cfa %rsp, 8
	retq
.LBB20_9:                               # %ctrl0
	.cfi_def_cfa %rbp, 16
	cmpl	$1, %eax
	je	.LBB20_2
# %bb.10:                               # %ctrl1
	cmpl	$2, %eax
	je	.LBB20_3
# %bb.11:                               # %ctrl2
	cmpl	$3, %eax
	je	.LBB20_4
# %bb.12:                               # %ctrl3
	cmpl	$4, %eax
	je	.LBB20_5
# %bb.13:                               # %ctrl4
	cmpl	$5, %eax
	je	.LBB20_6
# %bb.14:                               # %ctrl5
	cmpl	$6, %eax
	je	.LBB20_7
	jmp	.LBB20_8
.Lfunc_end20:
	.size	BZ2_bzWriteClose, .Lfunc_end20-BZ2_bzWriteClose
	.cfi_endproc
                                        # -- End function
	.globl	BZ2_bzWriteClose64      # -- Begin function BZ2_bzWriteClose64
	.p2align	4, 0x90
	.type	BZ2_bzWriteClose64,@function
BZ2_bzWriteClose64:                     # @BZ2_bzWriteClose64
	.cfi_startproc
# %bb.0:                                # %rand_bb
	pushq	%rbp
	.cfi_def_cfa_offset 16
	.cfi_offset %rbp, -16
	movq	%rsp, %rbp
	.cfi_def_cfa_register %rbp
	pushq	%r15
	pushq	%r14
	pushq	%r13
	pushq	%r12
	pushq	%rbx
	subq	$24, %rsp
	.cfi_offset %rbx, -56
	.cfi_offset %r12, -48
	.cfi_offset %r13, -40
	.cfi_offset %r14, -32
	.cfi_offset %r15, -24
	movq	%r9, -48(%rbp)          # 8-byte Spill
	movq	%r8, %r13
	movq	%rcx, %r15
	movl	%edx, %ebx
	movq	%rsi, %r14
	movq	%rdi, %r12
	callq	get_rand
	cmpl	$0, %eax
	jne	.LBB21_9
# %bb.1:                                # %func_BZ2_bzWriteClose64.36
	movq	%r12, %rdi
	movq	%r14, %rsi
	movl	%ebx, %edx
	movq	%r15, %rcx
	movq	%r13, %r8
	movq	-48(%rbp), %r9          # 8-byte Reload
	movq	16(%rbp), %rax
	movq	%rax, (%rsp)
	callq	BZ2_bzWriteClose64.36
	addq	$24, %rsp
	popq	%rbx
	popq	%r12
	popq	%r13
	popq	%r14
	popq	%r15
	popq	%rbp
	.cfi_def_cfa %rsp, 8
	retq
.LBB21_2:                               # %func_BZ2_bzWriteClose64.65
	.cfi_def_cfa %rbp, 16
	movq	%r12, %rdi
	movq	%r14, %rsi
	movl	%ebx, %edx
	movq	%r15, %rcx
	movq	%r13, %r8
	movq	%r10, (%rsp)
	callq	BZ2_bzWriteClose64.65
	addq	$24, %rsp
	popq	%rbx
	popq	%r12
	popq	%r13
	popq	%r14
	popq	%r15
	popq	%rbp
	.cfi_def_cfa %rsp, 8
	retq
.LBB21_3:                               # %func_BZ2_bzWriteClose64.82
	.cfi_def_cfa %rbp, 16
	movq	%r12, %rdi
	movq	%r14, %rsi
	movl	%ebx, %edx
	movq	%r15, %rcx
	movq	%r13, %r8
	movq	%r10, (%rsp)
	callq	BZ2_bzWriteClose64.82
	addq	$24, %rsp
	popq	%rbx
	popq	%r12
	popq	%r13
	popq	%r14
	popq	%r15
	popq	%rbp
	.cfi_def_cfa %rsp, 8
	retq
.LBB21_4:                               # %func_BZ2_bzWriteClose64.140
	.cfi_def_cfa %rbp, 16
	movq	%r12, %rdi
	movq	%r14, %rsi
	movl	%ebx, %edx
	movq	%r15, %rcx
	movq	%r13, %r8
	movq	%r10, (%rsp)
	callq	BZ2_bzWriteClose64.140
	addq	$24, %rsp
	popq	%rbx
	popq	%r12
	popq	%r13
	popq	%r14
	popq	%r15
	popq	%rbp
	.cfi_def_cfa %rsp, 8
	retq
.LBB21_5:                               # %func_BZ2_bzWriteClose64.144
	.cfi_def_cfa %rbp, 16
	movq	%r12, %rdi
	movq	%r14, %rsi
	movl	%ebx, %edx
	movq	%r15, %rcx
	movq	%r13, %r8
	movq	%r10, (%rsp)
	callq	BZ2_bzWriteClose64.144
	addq	$24, %rsp
	popq	%rbx
	popq	%r12
	popq	%r13
	popq	%r14
	popq	%r15
	popq	%rbp
	.cfi_def_cfa %rsp, 8
	retq
.LBB21_6:                               # %func_BZ2_bzWriteClose64.149
	.cfi_def_cfa %rbp, 16
	movq	%r12, %rdi
	movq	%r14, %rsi
	movl	%ebx, %edx
	movq	%r15, %rcx
	movq	%r13, %r8
	movq	%r10, (%rsp)
	callq	BZ2_bzWriteClose64.149
	addq	$24, %rsp
	popq	%rbx
	popq	%r12
	popq	%r13
	popq	%r14
	popq	%r15
	popq	%rbp
	.cfi_def_cfa %rsp, 8
	retq
.LBB21_7:                               # %func_BZ2_bzWriteClose64.162
	.cfi_def_cfa %rbp, 16
	movq	%r10, (%rsp)
	callq	BZ2_bzWriteClose64.162
	addq	$24, %rsp
	popq	%rbx
	popq	%r12
	popq	%r13
	popq	%r14
	popq	%r15
	popq	%rbp
	.cfi_def_cfa %rsp, 8
	retq
.LBB21_8:                               # %func_BZ2_bzWriteClose64.166
	.cfi_def_cfa %rbp, 16
	movq	%r10, (%rsp)
	callq	BZ2_bzWriteClose64.166
	addq	$24, %rsp
	popq	%rbx
	popq	%r12
	popq	%r13
	popq	%r14
	popq	%r15
	popq	%rbp
	.cfi_def_cfa %rsp, 8
	retq
.LBB21_9:                               # %ctrl0
	.cfi_def_cfa %rbp, 16
	movq	-48(%rbp), %r9          # 8-byte Reload
	movq	16(%rbp), %r10
	cmpl	$1, %eax
	je	.LBB21_2
# %bb.10:                               # %ctrl1
	cmpl	$2, %eax
	je	.LBB21_3
# %bb.11:                               # %ctrl2
	cmpl	$3, %eax
	je	.LBB21_4
# %bb.12:                               # %ctrl3
	cmpl	$4, %eax
	je	.LBB21_5
# %bb.13:                               # %ctrl4
	cmpl	$5, %eax
	je	.LBB21_6
# %bb.14:                               # %ctrl5
	cmpl	$6, %eax
	movq	%r13, %r8
	movq	%r15, %rcx
	movl	%ebx, %edx
	movq	%r14, %rsi
	movq	%r12, %rdi
	je	.LBB21_7
	jmp	.LBB21_8
.Lfunc_end21:
	.size	BZ2_bzWriteClose64, .Lfunc_end21-BZ2_bzWriteClose64
	.cfi_endproc
                                        # -- End function
	.globl	BZ2_bzReadOpen          # -- Begin function BZ2_bzReadOpen
	.p2align	4, 0x90
	.type	BZ2_bzReadOpen,@function
BZ2_bzReadOpen:                         # @BZ2_bzReadOpen
	.cfi_startproc
# %bb.0:                                # %rand_bb
	pushq	%rbp
	.cfi_def_cfa_offset 16
	.cfi_offset %rbp, -16
	movq	%rsp, %rbp
	.cfi_def_cfa_register %rbp
	pushq	%r15
	pushq	%r14
	pushq	%r13
	pushq	%r12
	pushq	%rbx
	pushq	%rax
	.cfi_offset %rbx, -56
	.cfi_offset %r12, -48
	.cfi_offset %r13, -40
	.cfi_offset %r14, -32
	.cfi_offset %r15, -24
	movl	%r9d, -44(%rbp)         # 4-byte Spill
	movq	%r8, %r12
	movl	%ecx, %r13d
	movl	%edx, %ebx
	movq	%rsi, %r14
	movq	%rdi, %r15
	callq	get_rand
	cmpl	$0, %eax
	jne	.LBB22_9
# %bb.1:                                # %func_BZ2_bzReadOpen.99
	movq	%r15, %rdi
	movq	%r14, %rsi
	movl	%ebx, %edx
	movl	%r13d, %ecx
	movq	%r12, %r8
	movl	-44(%rbp), %r9d         # 4-byte Reload
	callq	BZ2_bzReadOpen.99
	addq	$8, %rsp
	popq	%rbx
	popq	%r12
	popq	%r13
	popq	%r14
	popq	%r15
	popq	%rbp
	.cfi_def_cfa %rsp, 8
	retq
.LBB22_2:                               # %func_BZ2_bzReadOpen.105
	.cfi_def_cfa %rbp, 16
	movq	%r15, %rdi
	movq	%r14, %rsi
	movl	%ebx, %edx
	movl	%r13d, %ecx
	movq	%r12, %r8
	callq	BZ2_bzReadOpen.105
	addq	$8, %rsp
	popq	%rbx
	popq	%r12
	popq	%r13
	popq	%r14
	popq	%r15
	popq	%rbp
	.cfi_def_cfa %rsp, 8
	retq
.LBB22_3:                               # %func_BZ2_bzReadOpen.123
	.cfi_def_cfa %rbp, 16
	movq	%r15, %rdi
	movq	%r14, %rsi
	movl	%ebx, %edx
	movl	%r13d, %ecx
	movq	%r12, %r8
	callq	BZ2_bzReadOpen.123
	addq	$8, %rsp
	popq	%rbx
	popq	%r12
	popq	%r13
	popq	%r14
	popq	%r15
	popq	%rbp
	.cfi_def_cfa %rsp, 8
	retq
.LBB22_4:                               # %func_BZ2_bzReadOpen.143
	.cfi_def_cfa %rbp, 16
	movq	%r15, %rdi
	movq	%r14, %rsi
	movl	%ebx, %edx
	movl	%r13d, %ecx
	movq	%r12, %r8
	callq	BZ2_bzReadOpen.143
	addq	$8, %rsp
	popq	%rbx
	popq	%r12
	popq	%r13
	popq	%r14
	popq	%r15
	popq	%rbp
	.cfi_def_cfa %rsp, 8
	retq
.LBB22_5:                               # %func_BZ2_bzReadOpen.154
	.cfi_def_cfa %rbp, 16
	movq	%r15, %rdi
	movq	%r14, %rsi
	movl	%ebx, %edx
	movl	%r13d, %ecx
	movq	%r12, %r8
	callq	BZ2_bzReadOpen.154
	addq	$8, %rsp
	popq	%rbx
	popq	%r12
	popq	%r13
	popq	%r14
	popq	%r15
	popq	%rbp
	.cfi_def_cfa %rsp, 8
	retq
.LBB22_6:                               # %func_BZ2_bzReadOpen.157
	.cfi_def_cfa %rbp, 16
	movq	%r15, %rdi
	movq	%r14, %rsi
	movl	%ebx, %edx
	movl	%r13d, %ecx
	movq	%r12, %r8
	callq	BZ2_bzReadOpen.157
	addq	$8, %rsp
	popq	%rbx
	popq	%r12
	popq	%r13
	popq	%r14
	popq	%r15
	popq	%rbp
	.cfi_def_cfa %rsp, 8
	retq
.LBB22_7:                               # %func_BZ2_bzReadOpen.167
	.cfi_def_cfa %rbp, 16
	callq	BZ2_bzReadOpen.167
	addq	$8, %rsp
	popq	%rbx
	popq	%r12
	popq	%r13
	popq	%r14
	popq	%r15
	popq	%rbp
	.cfi_def_cfa %rsp, 8
	retq
.LBB22_8:                               # %func_BZ2_bzReadOpen.185
	.cfi_def_cfa %rbp, 16
	callq	BZ2_bzReadOpen.185
	addq	$8, %rsp
	popq	%rbx
	popq	%r12
	popq	%r13
	popq	%r14
	popq	%r15
	popq	%rbp
	.cfi_def_cfa %rsp, 8
	retq
.LBB22_9:                               # %ctrl0
	.cfi_def_cfa %rbp, 16
	movl	-44(%rbp), %r9d         # 4-byte Reload
	cmpl	$1, %eax
	je	.LBB22_2
# %bb.10:                               # %ctrl1
	cmpl	$2, %eax
	je	.LBB22_3
# %bb.11:                               # %ctrl2
	cmpl	$3, %eax
	je	.LBB22_4
# %bb.12:                               # %ctrl3
	cmpl	$4, %eax
	je	.LBB22_5
# %bb.13:                               # %ctrl4
	cmpl	$5, %eax
	je	.LBB22_6
# %bb.14:                               # %ctrl5
	cmpl	$6, %eax
	movq	%r12, %r8
	movl	%r13d, %ecx
	movl	%ebx, %edx
	movq	%r14, %rsi
	movq	%r15, %rdi
	je	.LBB22_7
	jmp	.LBB22_8
.Lfunc_end22:
	.size	BZ2_bzReadOpen, .Lfunc_end22-BZ2_bzReadOpen
	.cfi_endproc
                                        # -- End function
	.globl	BZ2_bzReadClose         # -- Begin function BZ2_bzReadClose
	.p2align	4, 0x90
	.type	BZ2_bzReadClose,@function
BZ2_bzReadClose:                        # @BZ2_bzReadClose
	.cfi_startproc
# %bb.0:                                # %rand_bb
	pushq	%rbp
	.cfi_def_cfa_offset 16
	.cfi_offset %rbp, -16
	movq	%rsp, %rbp
	.cfi_def_cfa_register %rbp
	pushq	%r14
	pushq	%rbx
	.cfi_offset %rbx, -32
	.cfi_offset %r14, -24
	movq	%rsi, %r14
	movq	%rdi, %rbx
	callq	get_rand
	cmpl	$0, %eax
	jne	.LBB23_7
# %bb.1:                                # %func_BZ2_bzReadClose.8
	movq	%rbx, %rdi
	movq	%r14, %rsi
	callq	BZ2_bzReadClose.8
	popq	%rbx
	popq	%r14
	popq	%rbp
	.cfi_def_cfa %rsp, 8
	retq
.LBB23_2:                               # %func_BZ2_bzReadClose.16
	.cfi_def_cfa %rbp, 16
	movq	%rbx, %rdi
	movq	%r14, %rsi
	callq	BZ2_bzReadClose.16
	popq	%rbx
	popq	%r14
	popq	%rbp
	.cfi_def_cfa %rsp, 8
	retq
.LBB23_3:                               # %func_BZ2_bzReadClose.57
	.cfi_def_cfa %rbp, 16
	movq	%rbx, %rdi
	movq	%r14, %rsi
	callq	BZ2_bzReadClose.57
	popq	%rbx
	popq	%r14
	popq	%rbp
	.cfi_def_cfa %rsp, 8
	retq
.LBB23_4:                               # %func_BZ2_bzReadClose.110
	.cfi_def_cfa %rbp, 16
	movq	%rbx, %rdi
	movq	%r14, %rsi
	callq	BZ2_bzReadClose.110
	popq	%rbx
	popq	%r14
	popq	%rbp
	.cfi_def_cfa %rsp, 8
	retq
.LBB23_5:                               # %func_BZ2_bzReadClose.146
	.cfi_def_cfa %rbp, 16
	movq	%rbx, %rdi
	movq	%r14, %rsi
	callq	BZ2_bzReadClose.146
	popq	%rbx
	popq	%r14
	popq	%rbp
	.cfi_def_cfa %rsp, 8
	retq
.LBB23_6:                               # %func_BZ2_bzReadClose.159
	.cfi_def_cfa %rbp, 16
	movq	%rbx, %rdi
	movq	%r14, %rsi
	callq	BZ2_bzReadClose.159
	popq	%rbx
	popq	%r14
	popq	%rbp
	.cfi_def_cfa %rsp, 8
	retq
.LBB23_7:                               # %ctrl0
	.cfi_def_cfa %rbp, 16
	cmpl	$1, %eax
	je	.LBB23_2
# %bb.8:                                # %ctrl1
	cmpl	$2, %eax
	je	.LBB23_3
# %bb.9:                                # %ctrl2
	cmpl	$3, %eax
	je	.LBB23_4
# %bb.10:                               # %ctrl3
	cmpl	$4, %eax
	je	.LBB23_5
	jmp	.LBB23_6
.Lfunc_end23:
	.size	BZ2_bzReadClose, .Lfunc_end23-BZ2_bzReadClose
	.cfi_endproc
                                        # -- End function
	.globl	BZ2_bzRead              # -- Begin function BZ2_bzRead
	.p2align	4, 0x90
	.type	BZ2_bzRead,@function
BZ2_bzRead:                             # @BZ2_bzRead
	.cfi_startproc
# %bb.0:                                # %rand_bb
	pushq	%rbp
	.cfi_def_cfa_offset 16
	.cfi_offset %rbp, -16
	movq	%rsp, %rbp
	.cfi_def_cfa_register %rbp
	pushq	%r15
	pushq	%r14
	pushq	%r12
	pushq	%rbx
	.cfi_offset %rbx, -48
	.cfi_offset %r12, -40
	.cfi_offset %r14, -32
	.cfi_offset %r15, -24
	movl	%ecx, %r14d
	movq	%rdx, %r15
	movq	%rsi, %r12
	movq	%rdi, %rbx
	callq	get_rand
	cmpl	$0, %eax
	jne	.LBB24_9
# %bb.1:                                # %func_BZ2_bzRead.2
	movq	%rbx, %rdi
	movq	%r12, %rsi
	movq	%r15, %rdx
	movl	%r14d, %ecx
	callq	BZ2_bzRead.2
	popq	%rbx
	popq	%r12
	popq	%r14
	popq	%r15
	popq	%rbp
	.cfi_def_cfa %rsp, 8
	retq
.LBB24_2:                               # %func_BZ2_bzRead.76
	.cfi_def_cfa %rbp, 16
	movq	%rbx, %rdi
	movq	%r12, %rsi
	movq	%r15, %rdx
	movl	%r14d, %ecx
	callq	BZ2_bzRead.76
	popq	%rbx
	popq	%r12
	popq	%r14
	popq	%r15
	popq	%rbp
	.cfi_def_cfa %rsp, 8
	retq
.LBB24_3:                               # %func_BZ2_bzRead.111
	.cfi_def_cfa %rbp, 16
	movq	%rbx, %rdi
	movq	%r12, %rsi
	movq	%r15, %rdx
	movl	%r14d, %ecx
	callq	BZ2_bzRead.111
	popq	%rbx
	popq	%r12
	popq	%r14
	popq	%r15
	popq	%rbp
	.cfi_def_cfa %rsp, 8
	retq
.LBB24_4:                               # %func_BZ2_bzRead.136
	.cfi_def_cfa %rbp, 16
	movq	%rbx, %rdi
	movq	%r12, %rsi
	movq	%r15, %rdx
	movl	%r14d, %ecx
	callq	BZ2_bzRead.136
	popq	%rbx
	popq	%r12
	popq	%r14
	popq	%r15
	popq	%rbp
	.cfi_def_cfa %rsp, 8
	retq
.LBB24_5:                               # %func_BZ2_bzRead.151
	.cfi_def_cfa %rbp, 16
	movq	%rbx, %rdi
	movq	%r12, %rsi
	movq	%r15, %rdx
	movl	%r14d, %ecx
	callq	BZ2_bzRead.151
	popq	%rbx
	popq	%r12
	popq	%r14
	popq	%r15
	popq	%rbp
	.cfi_def_cfa %rsp, 8
	retq
.LBB24_6:                               # %func_BZ2_bzRead.158
	.cfi_def_cfa %rbp, 16
	movq	%rbx, %rdi
	movq	%r12, %rsi
	movq	%r15, %rdx
	movl	%r14d, %ecx
	callq	BZ2_bzRead.158
	popq	%rbx
	popq	%r12
	popq	%r14
	popq	%r15
	popq	%rbp
	.cfi_def_cfa %rsp, 8
	retq
.LBB24_7:                               # %func_BZ2_bzRead.161
	.cfi_def_cfa %rbp, 16
	movq	%rbx, %rdi
	movq	%r12, %rsi
	movq	%r15, %rdx
	movl	%r14d, %ecx
	callq	BZ2_bzRead.161
	popq	%rbx
	popq	%r12
	popq	%r14
	popq	%r15
	popq	%rbp
	.cfi_def_cfa %rsp, 8
	retq
.LBB24_8:                               # %func_BZ2_bzRead.184
	.cfi_def_cfa %rbp, 16
	movq	%rbx, %rdi
	movq	%r12, %rsi
	movq	%r15, %rdx
	movl	%r14d, %ecx
	callq	BZ2_bzRead.184
	popq	%rbx
	popq	%r12
	popq	%r14
	popq	%r15
	popq	%rbp
	.cfi_def_cfa %rsp, 8
	retq
.LBB24_9:                               # %ctrl0
	.cfi_def_cfa %rbp, 16
	cmpl	$1, %eax
	je	.LBB24_2
# %bb.10:                               # %ctrl1
	cmpl	$2, %eax
	je	.LBB24_3
# %bb.11:                               # %ctrl2
	cmpl	$3, %eax
	je	.LBB24_4
# %bb.12:                               # %ctrl3
	cmpl	$4, %eax
	je	.LBB24_5
# %bb.13:                               # %ctrl4
	cmpl	$5, %eax
	je	.LBB24_6
# %bb.14:                               # %ctrl5
	cmpl	$6, %eax
	je	.LBB24_7
	jmp	.LBB24_8
.Lfunc_end24:
	.size	BZ2_bzRead, .Lfunc_end24-BZ2_bzRead
	.cfi_endproc
                                        # -- End function
	.p2align	4, 0x90         # -- Begin function myfeof
	.type	myfeof,@function
myfeof:                                 # @myfeof
	.cfi_startproc
# %bb.0:                                # %rand_bb
	pushq	%rbp
	.cfi_def_cfa_offset 16
	.cfi_offset %rbp, -16
	movq	%rsp, %rbp
	.cfi_def_cfa_register %rbp
	pushq	%rbx
	pushq	%rax
	.cfi_offset %rbx, -24
	movq	%rdi, %rbx
	callq	get_rand
	cmpl	$0, %eax
	jne	.LBB25_7
# %bb.1:                                # %func_myfeof.44
	movq	%rbx, %rdi
	callq	myfeof.44
	movzbl	%al, %eax
	addq	$8, %rsp
	popq	%rbx
	popq	%rbp
	.cfi_def_cfa %rsp, 8
	retq
.LBB25_2:                               # %func_myfeof.128
	.cfi_def_cfa %rbp, 16
	movq	%rbx, %rdi
	callq	myfeof.128
	movzbl	%al, %eax
	addq	$8, %rsp
	popq	%rbx
	popq	%rbp
	.cfi_def_cfa %rsp, 8
	retq
.LBB25_3:                               # %func_myfeof.135
	.cfi_def_cfa %rbp, 16
	movq	%rbx, %rdi
	callq	myfeof.135
	movzbl	%al, %eax
	addq	$8, %rsp
	popq	%rbx
	popq	%rbp
	.cfi_def_cfa %rsp, 8
	retq
.LBB25_4:                               # %func_myfeof.138
	.cfi_def_cfa %rbp, 16
	movq	%rbx, %rdi
	callq	myfeof.138
	movzbl	%al, %eax
	addq	$8, %rsp
	popq	%rbx
	popq	%rbp
	.cfi_def_cfa %rsp, 8
	retq
.LBB25_5:                               # %func_myfeof.142
	.cfi_def_cfa %rbp, 16
	movq	%rbx, %rdi
	callq	myfeof.142
	movzbl	%al, %eax
	addq	$8, %rsp
	popq	%rbx
	popq	%rbp
	.cfi_def_cfa %rsp, 8
	retq
.LBB25_6:                               # %func_myfeof.145
	.cfi_def_cfa %rbp, 16
	movq	%rbx, %rdi
	callq	myfeof.145
	movzbl	%al, %eax
	addq	$8, %rsp
	popq	%rbx
	popq	%rbp
	.cfi_def_cfa %rsp, 8
	retq
.LBB25_7:                               # %ctrl0
	.cfi_def_cfa %rbp, 16
	cmpl	$1, %eax
	je	.LBB25_2
# %bb.8:                                # %ctrl1
	cmpl	$2, %eax
	je	.LBB25_3
# %bb.9:                                # %ctrl2
	cmpl	$3, %eax
	je	.LBB25_4
# %bb.10:                               # %ctrl3
	cmpl	$4, %eax
	je	.LBB25_5
	jmp	.LBB25_6
.Lfunc_end25:
	.size	myfeof, .Lfunc_end25-myfeof
	.cfi_endproc
                                        # -- End function
	.globl	BZ2_bzReadGetUnused     # -- Begin function BZ2_bzReadGetUnused
	.p2align	4, 0x90
	.type	BZ2_bzReadGetUnused,@function
BZ2_bzReadGetUnused:                    # @BZ2_bzReadGetUnused
	.cfi_startproc
# %bb.0:                                # %rand_bb
	pushq	%rbp
	.cfi_def_cfa_offset 16
	.cfi_offset %rbp, -16
	movq	%rsp, %rbp
	.cfi_def_cfa_register %rbp
	pushq	%r15
	pushq	%r14
	pushq	%r12
	pushq	%rbx
	.cfi_offset %rbx, -48
	.cfi_offset %r12, -40
	.cfi_offset %r14, -32
	.cfi_offset %r15, -24
	movq	%rcx, %r14
	movq	%rdx, %r15
	movq	%rsi, %r12
	movq	%rdi, %rbx
	callq	get_rand
	cmpl	$0, %eax
	jne	.LBB26_9
# %bb.1:                                # %func_BZ2_bzReadGetUnused.38
	movq	%rbx, %rdi
	movq	%r12, %rsi
	movq	%r15, %rdx
	movq	%r14, %rcx
	callq	BZ2_bzReadGetUnused.38
	popq	%rbx
	popq	%r12
	popq	%r14
	popq	%r15
	popq	%rbp
	.cfi_def_cfa %rsp, 8
	retq
.LBB26_2:                               # %func_BZ2_bzReadGetUnused.51
	.cfi_def_cfa %rbp, 16
	movq	%rbx, %rdi
	movq	%r12, %rsi
	movq	%r15, %rdx
	movq	%r14, %rcx
	callq	BZ2_bzReadGetUnused.51
	popq	%rbx
	popq	%r12
	popq	%r14
	popq	%r15
	popq	%rbp
	.cfi_def_cfa %rsp, 8
	retq
.LBB26_3:                               # %func_BZ2_bzReadGetUnused.60
	.cfi_def_cfa %rbp, 16
	movq	%rbx, %rdi
	movq	%r12, %rsi
	movq	%r15, %rdx
	movq	%r14, %rcx
	callq	BZ2_bzReadGetUnused.60
	popq	%rbx
	popq	%r12
	popq	%r14
	popq	%r15
	popq	%rbp
	.cfi_def_cfa %rsp, 8
	retq
.LBB26_4:                               # %func_BZ2_bzReadGetUnused.63
	.cfi_def_cfa %rbp, 16
	movq	%rbx, %rdi
	movq	%r12, %rsi
	movq	%r15, %rdx
	movq	%r14, %rcx
	callq	BZ2_bzReadGetUnused.63
	popq	%rbx
	popq	%r12
	popq	%r14
	popq	%r15
	popq	%rbp
	.cfi_def_cfa %rsp, 8
	retq
.LBB26_5:                               # %func_BZ2_bzReadGetUnused.183
	.cfi_def_cfa %rbp, 16
	movq	%rbx, %rdi
	movq	%r12, %rsi
	movq	%r15, %rdx
	movq	%r14, %rcx
	callq	BZ2_bzReadGetUnused.183
	popq	%rbx
	popq	%r12
	popq	%r14
	popq	%r15
	popq	%rbp
	.cfi_def_cfa %rsp, 8
	retq
.LBB26_6:                               # %func_BZ2_bzReadGetUnused.195
	.cfi_def_cfa %rbp, 16
	movq	%rbx, %rdi
	movq	%r12, %rsi
	movq	%r15, %rdx
	movq	%r14, %rcx
	callq	BZ2_bzReadGetUnused.195
	popq	%rbx
	popq	%r12
	popq	%r14
	popq	%r15
	popq	%rbp
	.cfi_def_cfa %rsp, 8
	retq
.LBB26_7:                               # %func_BZ2_bzReadGetUnused.197
	.cfi_def_cfa %rbp, 16
	movq	%rbx, %rdi
	movq	%r12, %rsi
	movq	%r15, %rdx
	movq	%r14, %rcx
	callq	BZ2_bzReadGetUnused.197
	popq	%rbx
	popq	%r12
	popq	%r14
	popq	%r15
	popq	%rbp
	.cfi_def_cfa %rsp, 8
	retq
.LBB26_8:                               # %func_BZ2_bzReadGetUnused.213
	.cfi_def_cfa %rbp, 16
	movq	%rbx, %rdi
	movq	%r12, %rsi
	movq	%r15, %rdx
	movq	%r14, %rcx
	callq	BZ2_bzReadGetUnused.213
	popq	%rbx
	popq	%r12
	popq	%r14
	popq	%r15
	popq	%rbp
	.cfi_def_cfa %rsp, 8
	retq
.LBB26_9:                               # %ctrl0
	.cfi_def_cfa %rbp, 16
	cmpl	$1, %eax
	je	.LBB26_2
# %bb.10:                               # %ctrl1
	cmpl	$2, %eax
	je	.LBB26_3
# %bb.11:                               # %ctrl2
	cmpl	$3, %eax
	je	.LBB26_4
# %bb.12:                               # %ctrl3
	cmpl	$4, %eax
	je	.LBB26_5
# %bb.13:                               # %ctrl4
	cmpl	$5, %eax
	je	.LBB26_6
# %bb.14:                               # %ctrl5
	cmpl	$6, %eax
	je	.LBB26_7
	jmp	.LBB26_8
.Lfunc_end26:
	.size	BZ2_bzReadGetUnused, .Lfunc_end26-BZ2_bzReadGetUnused
	.cfi_endproc
                                        # -- End function
	.globl	BZ2_bzBuffToBuffCompress # -- Begin function BZ2_bzBuffToBuffCompress
	.p2align	4, 0x90
	.type	BZ2_bzBuffToBuffCompress,@function
BZ2_bzBuffToBuffCompress:               # @BZ2_bzBuffToBuffCompress
	.cfi_startproc
# %bb.0:                                # %rand_bb
	pushq	%rbp
	.cfi_def_cfa_offset 16
	.cfi_offset %rbp, -16
	movq	%rsp, %rbp
	.cfi_def_cfa_register %rbp
	pushq	%r15
	pushq	%r14
	pushq	%r13
	pushq	%r12
	pushq	%rbx
	subq	$24, %rsp
	.cfi_offset %rbx, -56
	.cfi_offset %r12, -48
	.cfi_offset %r13, -40
	.cfi_offset %r14, -32
	.cfi_offset %r15, -24
	movl	%r9d, -44(%rbp)         # 4-byte Spill
	movl	%r8d, %r13d
	movl	%ecx, %r15d
	movq	%rdx, %rbx
	movq	%rsi, %r14
	movq	%rdi, %r12
	callq	get_rand
	cmpl	$0, %eax
	jne	.LBB27_9
# %bb.1:                                # %func_BZ2_bzBuffToBuffCompress.121
	movq	%r12, %rdi
	movq	%r14, %rsi
	movq	%rbx, %rdx
	movl	%r15d, %ecx
	movl	%r13d, %r8d
	movl	-44(%rbp), %r9d         # 4-byte Reload
	movl	16(%rbp), %eax
	movl	%eax, (%rsp)
	callq	BZ2_bzBuffToBuffCompress.121
	addq	$24, %rsp
	popq	%rbx
	popq	%r12
	popq	%r13
	popq	%r14
	popq	%r15
	popq	%rbp
	.cfi_def_cfa %rsp, 8
	retq
.LBB27_2:                               # %func_BZ2_bzBuffToBuffCompress.134
	.cfi_def_cfa %rbp, 16
	movq	%r12, %rdi
	movq	%r14, %rsi
	movq	%rbx, %rdx
	movl	%r15d, %ecx
	movl	%r13d, %r8d
	movl	%r10d, (%rsp)
	callq	BZ2_bzBuffToBuffCompress.134
	addq	$24, %rsp
	popq	%rbx
	popq	%r12
	popq	%r13
	popq	%r14
	popq	%r15
	popq	%rbp
	.cfi_def_cfa %rsp, 8
	retq
.LBB27_3:                               # %func_BZ2_bzBuffToBuffCompress.175
	.cfi_def_cfa %rbp, 16
	movq	%r12, %rdi
	movq	%r14, %rsi
	movq	%rbx, %rdx
	movl	%r15d, %ecx
	movl	%r13d, %r8d
	movl	%r10d, (%rsp)
	callq	BZ2_bzBuffToBuffCompress.175
	addq	$24, %rsp
	popq	%rbx
	popq	%r12
	popq	%r13
	popq	%r14
	popq	%r15
	popq	%rbp
	.cfi_def_cfa %rsp, 8
	retq
.LBB27_4:                               # %func_BZ2_bzBuffToBuffCompress.187
	.cfi_def_cfa %rbp, 16
	movq	%r12, %rdi
	movq	%r14, %rsi
	movq	%rbx, %rdx
	movl	%r15d, %ecx
	movl	%r13d, %r8d
	movl	%r10d, (%rsp)
	callq	BZ2_bzBuffToBuffCompress.187
	addq	$24, %rsp
	popq	%rbx
	popq	%r12
	popq	%r13
	popq	%r14
	popq	%r15
	popq	%rbp
	.cfi_def_cfa %rsp, 8
	retq
.LBB27_5:                               # %func_BZ2_bzBuffToBuffCompress.201
	.cfi_def_cfa %rbp, 16
	movq	%r12, %rdi
	movq	%r14, %rsi
	movq	%rbx, %rdx
	movl	%r15d, %ecx
	movl	%r13d, %r8d
	movl	%r10d, (%rsp)
	callq	BZ2_bzBuffToBuffCompress.201
	addq	$24, %rsp
	popq	%rbx
	popq	%r12
	popq	%r13
	popq	%r14
	popq	%r15
	popq	%rbp
	.cfi_def_cfa %rsp, 8
	retq
.LBB27_6:                               # %func_BZ2_bzBuffToBuffCompress.205
	.cfi_def_cfa %rbp, 16
	movq	%r12, %rdi
	movq	%r14, %rsi
	movq	%rbx, %rdx
	movl	%r15d, %ecx
	movl	%r13d, %r8d
	movl	%r10d, (%rsp)
	callq	BZ2_bzBuffToBuffCompress.205
	addq	$24, %rsp
	popq	%rbx
	popq	%r12
	popq	%r13
	popq	%r14
	popq	%r15
	popq	%rbp
	.cfi_def_cfa %rsp, 8
	retq
.LBB27_7:                               # %func_BZ2_bzBuffToBuffCompress.210
	.cfi_def_cfa %rbp, 16
	movl	%r10d, (%rsp)
	callq	BZ2_bzBuffToBuffCompress.210
	addq	$24, %rsp
	popq	%rbx
	popq	%r12
	popq	%r13
	popq	%r14
	popq	%r15
	popq	%rbp
	.cfi_def_cfa %rsp, 8
	retq
.LBB27_8:                               # %func_BZ2_bzBuffToBuffCompress.228
	.cfi_def_cfa %rbp, 16
	movl	%r10d, (%rsp)
	callq	BZ2_bzBuffToBuffCompress.228
	addq	$24, %rsp
	popq	%rbx
	popq	%r12
	popq	%r13
	popq	%r14
	popq	%r15
	popq	%rbp
	.cfi_def_cfa %rsp, 8
	retq
.LBB27_9:                               # %ctrl0
	.cfi_def_cfa %rbp, 16
	movl	-44(%rbp), %r9d         # 4-byte Reload
	movl	16(%rbp), %r10d
	cmpl	$1, %eax
	je	.LBB27_2
# %bb.10:                               # %ctrl1
	cmpl	$2, %eax
	je	.LBB27_3
# %bb.11:                               # %ctrl2
	cmpl	$3, %eax
	je	.LBB27_4
# %bb.12:                               # %ctrl3
	cmpl	$4, %eax
	je	.LBB27_5
# %bb.13:                               # %ctrl4
	cmpl	$5, %eax
	je	.LBB27_6
# %bb.14:                               # %ctrl5
	cmpl	$6, %eax
	movl	%r13d, %r8d
	movl	%r15d, %ecx
	movq	%rbx, %rdx
	movq	%r14, %rsi
	movq	%r12, %rdi
	je	.LBB27_7
	jmp	.LBB27_8
.Lfunc_end27:
	.size	BZ2_bzBuffToBuffCompress, .Lfunc_end27-BZ2_bzBuffToBuffCompress
	.cfi_endproc
                                        # -- End function
	.globl	BZ2_bzBuffToBuffDecompress # -- Begin function BZ2_bzBuffToBuffDecompress
	.p2align	4, 0x90
	.type	BZ2_bzBuffToBuffDecompress,@function
BZ2_bzBuffToBuffDecompress:             # @BZ2_bzBuffToBuffDecompress
	.cfi_startproc
# %bb.0:                                # %rand_bb
	pushq	%rbp
	.cfi_def_cfa_offset 16
	.cfi_offset %rbp, -16
	movq	%rsp, %rbp
	.cfi_def_cfa_register %rbp
	pushq	%r15
	pushq	%r14
	pushq	%r13
	pushq	%r12
	pushq	%rbx
	pushq	%rax
	.cfi_offset %rbx, -56
	.cfi_offset %r12, -48
	.cfi_offset %r13, -40
	.cfi_offset %r14, -32
	.cfi_offset %r15, -24
	movl	%r9d, -44(%rbp)         # 4-byte Spill
	movl	%r8d, %r12d
	movl	%ecx, %r13d
	movq	%rdx, %rbx
	movq	%rsi, %r14
	movq	%rdi, %r15
	callq	get_rand
	cmpl	$0, %eax
	jne	.LBB28_9
# %bb.1:                                # %func_BZ2_bzBuffToBuffDecompress.70
	movq	%r15, %rdi
	movq	%r14, %rsi
	movq	%rbx, %rdx
	movl	%r13d, %ecx
	movl	%r12d, %r8d
	movl	-44(%rbp), %r9d         # 4-byte Reload
	callq	BZ2_bzBuffToBuffDecompress.70
	addq	$8, %rsp
	popq	%rbx
	popq	%r12
	popq	%r13
	popq	%r14
	popq	%r15
	popq	%rbp
	.cfi_def_cfa %rsp, 8
	retq
.LBB28_2:                               # %func_BZ2_bzBuffToBuffDecompress.114
	.cfi_def_cfa %rbp, 16
	movq	%r15, %rdi
	movq	%r14, %rsi
	movq	%rbx, %rdx
	movl	%r13d, %ecx
	movl	%r12d, %r8d
	callq	BZ2_bzBuffToBuffDecompress.114
	addq	$8, %rsp
	popq	%rbx
	popq	%r12
	popq	%r13
	popq	%r14
	popq	%r15
	popq	%rbp
	.cfi_def_cfa %rsp, 8
	retq
.LBB28_3:                               # %func_BZ2_bzBuffToBuffDecompress.118
	.cfi_def_cfa %rbp, 16
	movq	%r15, %rdi
	movq	%r14, %rsi
	movq	%rbx, %rdx
	movl	%r13d, %ecx
	movl	%r12d, %r8d
	callq	BZ2_bzBuffToBuffDecompress.118
	addq	$8, %rsp
	popq	%rbx
	popq	%r12
	popq	%r13
	popq	%r14
	popq	%r15
	popq	%rbp
	.cfi_def_cfa %rsp, 8
	retq
.LBB28_4:                               # %func_BZ2_bzBuffToBuffDecompress.130
	.cfi_def_cfa %rbp, 16
	movq	%r15, %rdi
	movq	%r14, %rsi
	movq	%rbx, %rdx
	movl	%r13d, %ecx
	movl	%r12d, %r8d
	callq	BZ2_bzBuffToBuffDecompress.130
	addq	$8, %rsp
	popq	%rbx
	popq	%r12
	popq	%r13
	popq	%r14
	popq	%r15
	popq	%rbp
	.cfi_def_cfa %rsp, 8
	retq
.LBB28_5:                               # %func_BZ2_bzBuffToBuffDecompress.139
	.cfi_def_cfa %rbp, 16
	movq	%r15, %rdi
	movq	%r14, %rsi
	movq	%rbx, %rdx
	movl	%r13d, %ecx
	movl	%r12d, %r8d
	callq	BZ2_bzBuffToBuffDecompress.139
	addq	$8, %rsp
	popq	%rbx
	popq	%r12
	popq	%r13
	popq	%r14
	popq	%r15
	popq	%rbp
	.cfi_def_cfa %rsp, 8
	retq
.LBB28_6:                               # %func_BZ2_bzBuffToBuffDecompress.189
	.cfi_def_cfa %rbp, 16
	movq	%r15, %rdi
	movq	%r14, %rsi
	movq	%rbx, %rdx
	movl	%r13d, %ecx
	movl	%r12d, %r8d
	callq	BZ2_bzBuffToBuffDecompress.189
	addq	$8, %rsp
	popq	%rbx
	popq	%r12
	popq	%r13
	popq	%r14
	popq	%r15
	popq	%rbp
	.cfi_def_cfa %rsp, 8
	retq
.LBB28_7:                               # %func_BZ2_bzBuffToBuffDecompress.192
	.cfi_def_cfa %rbp, 16
	callq	BZ2_bzBuffToBuffDecompress.192
	addq	$8, %rsp
	popq	%rbx
	popq	%r12
	popq	%r13
	popq	%r14
	popq	%r15
	popq	%rbp
	.cfi_def_cfa %rsp, 8
	retq
.LBB28_8:                               # %func_BZ2_bzBuffToBuffDecompress.193
	.cfi_def_cfa %rbp, 16
	callq	BZ2_bzBuffToBuffDecompress.193
	addq	$8, %rsp
	popq	%rbx
	popq	%r12
	popq	%r13
	popq	%r14
	popq	%r15
	popq	%rbp
	.cfi_def_cfa %rsp, 8
	retq
.LBB28_9:                               # %ctrl0
	.cfi_def_cfa %rbp, 16
	movl	-44(%rbp), %r9d         # 4-byte Reload
	cmpl	$1, %eax
	je	.LBB28_2
# %bb.10:                               # %ctrl1
	cmpl	$2, %eax
	je	.LBB28_3
# %bb.11:                               # %ctrl2
	cmpl	$3, %eax
	je	.LBB28_4
# %bb.12:                               # %ctrl3
	cmpl	$4, %eax
	je	.LBB28_5
# %bb.13:                               # %ctrl4
	cmpl	$5, %eax
	je	.LBB28_6
# %bb.14:                               # %ctrl5
	cmpl	$6, %eax
	movl	%r12d, %r8d
	movl	%r13d, %ecx
	movq	%rbx, %rdx
	movq	%r14, %rsi
	movq	%r15, %rdi
	je	.LBB28_7
	jmp	.LBB28_8
.Lfunc_end28:
	.size	BZ2_bzBuffToBuffDecompress, .Lfunc_end28-BZ2_bzBuffToBuffDecompress
	.cfi_endproc
                                        # -- End function
	.globl	BZ2_bzopen              # -- Begin function BZ2_bzopen
	.p2align	4, 0x90
	.type	BZ2_bzopen,@function
BZ2_bzopen:                             # @BZ2_bzopen
	.cfi_startproc
# %bb.0:                                # %rand_bb
	pushq	%rbp
	.cfi_def_cfa_offset 16
	.cfi_offset %rbp, -16
	movq	%rsp, %rbp
	.cfi_def_cfa_register %rbp
	pushq	%r14
	pushq	%rbx
	.cfi_offset %rbx, -32
	.cfi_offset %r14, -24
	movq	%rsi, %r14
	movq	%rdi, %rbx
	callq	get_rand
	cmpl	$0, %eax
	jne	.LBB29_2
# %bb.1:                                # %func_BZ2_bzopen.26
	movq	%rbx, %rdi
	movq	%r14, %rsi
	callq	BZ2_bzopen.26
	popq	%rbx
	popq	%r14
	popq	%rbp
	.cfi_def_cfa %rsp, 8
	retq
.LBB29_2:                               # %func_BZ2_bzopen.30
	.cfi_def_cfa %rbp, 16
	movq	%rbx, %rdi
	movq	%r14, %rsi
	callq	BZ2_bzopen.30
	popq	%rbx
	popq	%r14
	popq	%rbp
	.cfi_def_cfa %rsp, 8
	retq
.Lfunc_end29:
	.size	BZ2_bzopen, .Lfunc_end29-BZ2_bzopen
	.cfi_endproc
                                        # -- End function
	.p2align	4, 0x90         # -- Begin function bzopen_or_bzdopen
	.type	bzopen_or_bzdopen,@function
bzopen_or_bzdopen:                      # @bzopen_or_bzdopen
	.cfi_startproc
# %bb.0:                                # %rand_bb
	pushq	%rbp
	.cfi_def_cfa_offset 16
	.cfi_offset %rbp, -16
	movq	%rsp, %rbp
	.cfi_def_cfa_register %rbp
	pushq	%r15
	pushq	%r14
	pushq	%r12
	pushq	%rbx
	.cfi_offset %rbx, -48
	.cfi_offset %r12, -40
	.cfi_offset %r14, -32
	.cfi_offset %r15, -24
	movl	%ecx, %r14d
	movq	%rdx, %r15
	movl	%esi, %r12d
	movq	%rdi, %rbx
	callq	get_rand
	cmpl	$0, %eax
	jne	.LBB30_9
# %bb.1:                                # %func_bzopen_or_bzdopen.31
	movq	%rbx, %rdi
	movl	%r12d, %esi
	movq	%r15, %rdx
	movl	%r14d, %ecx
	callq	bzopen_or_bzdopen.31
	popq	%rbx
	popq	%r12
	popq	%r14
	popq	%r15
	popq	%rbp
	.cfi_def_cfa %rsp, 8
	retq
.LBB30_2:                               # %func_bzopen_or_bzdopen.68
	.cfi_def_cfa %rbp, 16
	movq	%rbx, %rdi
	movl	%r12d, %esi
	movq	%r15, %rdx
	movl	%r14d, %ecx
	callq	bzopen_or_bzdopen.68
	popq	%rbx
	popq	%r12
	popq	%r14
	popq	%r15
	popq	%rbp
	.cfi_def_cfa %rsp, 8
	retq
.LBB30_3:                               # %func_bzopen_or_bzdopen.98
	.cfi_def_cfa %rbp, 16
	movq	%rbx, %rdi
	movl	%r12d, %esi
	movq	%r15, %rdx
	movl	%r14d, %ecx
	callq	bzopen_or_bzdopen.98
	popq	%rbx
	popq	%r12
	popq	%r14
	popq	%r15
	popq	%rbp
	.cfi_def_cfa %rsp, 8
	retq
.LBB30_4:                               # %func_bzopen_or_bzdopen.171
	.cfi_def_cfa %rbp, 16
	movq	%rbx, %rdi
	movl	%r12d, %esi
	movq	%r15, %rdx
	movl	%r14d, %ecx
	callq	bzopen_or_bzdopen.171
	popq	%rbx
	popq	%r12
	popq	%r14
	popq	%r15
	popq	%rbp
	.cfi_def_cfa %rsp, 8
	retq
.LBB30_5:                               # %func_bzopen_or_bzdopen.188
	.cfi_def_cfa %rbp, 16
	movq	%rbx, %rdi
	movl	%r12d, %esi
	movq	%r15, %rdx
	movl	%r14d, %ecx
	callq	bzopen_or_bzdopen.188
	popq	%rbx
	popq	%r12
	popq	%r14
	popq	%r15
	popq	%rbp
	.cfi_def_cfa %rsp, 8
	retq
.LBB30_6:                               # %func_bzopen_or_bzdopen.198
	.cfi_def_cfa %rbp, 16
	movq	%rbx, %rdi
	movl	%r12d, %esi
	movq	%r15, %rdx
	movl	%r14d, %ecx
	callq	bzopen_or_bzdopen.198
	popq	%rbx
	popq	%r12
	popq	%r14
	popq	%r15
	popq	%rbp
	.cfi_def_cfa %rsp, 8
	retq
.LBB30_7:                               # %func_bzopen_or_bzdopen.207
	.cfi_def_cfa %rbp, 16
	movq	%rbx, %rdi
	movl	%r12d, %esi
	movq	%r15, %rdx
	movl	%r14d, %ecx
	callq	bzopen_or_bzdopen.207
	popq	%rbx
	popq	%r12
	popq	%r14
	popq	%r15
	popq	%rbp
	.cfi_def_cfa %rsp, 8
	retq
.LBB30_8:                               # %func_bzopen_or_bzdopen.212
	.cfi_def_cfa %rbp, 16
	movq	%rbx, %rdi
	movl	%r12d, %esi
	movq	%r15, %rdx
	movl	%r14d, %ecx
	callq	bzopen_or_bzdopen.212
	popq	%rbx
	popq	%r12
	popq	%r14
	popq	%r15
	popq	%rbp
	.cfi_def_cfa %rsp, 8
	retq
.LBB30_9:                               # %ctrl0
	.cfi_def_cfa %rbp, 16
	cmpl	$1, %eax
	je	.LBB30_2
# %bb.10:                               # %ctrl1
	cmpl	$2, %eax
	je	.LBB30_3
# %bb.11:                               # %ctrl2
	cmpl	$3, %eax
	je	.LBB30_4
# %bb.12:                               # %ctrl3
	cmpl	$4, %eax
	je	.LBB30_5
# %bb.13:                               # %ctrl4
	cmpl	$5, %eax
	je	.LBB30_6
# %bb.14:                               # %ctrl5
	cmpl	$6, %eax
	je	.LBB30_7
	jmp	.LBB30_8
.Lfunc_end30:
	.size	bzopen_or_bzdopen, .Lfunc_end30-bzopen_or_bzdopen
	.cfi_endproc
                                        # -- End function
	.globl	BZ2_bzdopen             # -- Begin function BZ2_bzdopen
	.p2align	4, 0x90
	.type	BZ2_bzdopen,@function
BZ2_bzdopen:                            # @BZ2_bzdopen
	.cfi_startproc
# %bb.0:                                # %rand_bb
	pushq	%rbp
	.cfi_def_cfa_offset 16
	.cfi_offset %rbp, -16
	movq	%rsp, %rbp
	.cfi_def_cfa_register %rbp
	pushq	%r14
	pushq	%rbx
	.cfi_offset %rbx, -32
	.cfi_offset %r14, -24
	movq	%rsi, %r14
	movl	%edi, %ebx
	callq	get_rand
	cmpl	$0, %eax
	jne	.LBB31_2
# %bb.1:                                # %func_BZ2_bzdopen.6
	movl	%ebx, %edi
	movq	%r14, %rsi
	callq	BZ2_bzdopen.6
	popq	%rbx
	popq	%r14
	popq	%rbp
	.cfi_def_cfa %rsp, 8
	retq
.LBB31_2:                               # %func_BZ2_bzdopen.18
	.cfi_def_cfa %rbp, 16
	movl	%ebx, %edi
	movq	%r14, %rsi
	callq	BZ2_bzdopen.18
	popq	%rbx
	popq	%r14
	popq	%rbp
	.cfi_def_cfa %rsp, 8
	retq
.Lfunc_end31:
	.size	BZ2_bzdopen, .Lfunc_end31-BZ2_bzdopen
	.cfi_endproc
                                        # -- End function
	.globl	BZ2_bzread              # -- Begin function BZ2_bzread
	.p2align	4, 0x90
	.type	BZ2_bzread,@function
BZ2_bzread:                             # @BZ2_bzread
	.cfi_startproc
# %bb.0:                                # %rand_bb
	pushq	%rbp
	.cfi_def_cfa_offset 16
	.cfi_offset %rbp, -16
	movq	%rsp, %rbp
	.cfi_def_cfa_register %rbp
	pushq	%r15
	pushq	%r14
	pushq	%rbx
	pushq	%rax
	.cfi_offset %rbx, -40
	.cfi_offset %r14, -32
	.cfi_offset %r15, -24
	movl	%edx, %r14d
	movq	%rsi, %r15
	movq	%rdi, %rbx
	callq	get_rand
	cmpl	$0, %eax
	jne	.LBB32_9
# %bb.1:                                # %func_BZ2_bzread.41
	movq	%rbx, %rdi
	movq	%r15, %rsi
	movl	%r14d, %edx
	callq	BZ2_bzread.41
	addq	$8, %rsp
	popq	%rbx
	popq	%r14
	popq	%r15
	popq	%rbp
	.cfi_def_cfa %rsp, 8
	retq
.LBB32_2:                               # %func_BZ2_bzread.115
	.cfi_def_cfa %rbp, 16
	movq	%rbx, %rdi
	movq	%r15, %rsi
	movl	%r14d, %edx
	callq	BZ2_bzread.115
	addq	$8, %rsp
	popq	%rbx
	popq	%r14
	popq	%r15
	popq	%rbp
	.cfi_def_cfa %rsp, 8
	retq
.LBB32_3:                               # %func_BZ2_bzread.119
	.cfi_def_cfa %rbp, 16
	movq	%rbx, %rdi
	movq	%r15, %rsi
	movl	%r14d, %edx
	callq	BZ2_bzread.119
	addq	$8, %rsp
	popq	%rbx
	popq	%r14
	popq	%r15
	popq	%rbp
	.cfi_def_cfa %rsp, 8
	retq
.LBB32_4:                               # %func_BZ2_bzread.168
	.cfi_def_cfa %rbp, 16
	movq	%rbx, %rdi
	movq	%r15, %rsi
	movl	%r14d, %edx
	callq	BZ2_bzread.168
	addq	$8, %rsp
	popq	%rbx
	popq	%r14
	popq	%r15
	popq	%rbp
	.cfi_def_cfa %rsp, 8
	retq
.LBB32_5:                               # %func_BZ2_bzread.182
	.cfi_def_cfa %rbp, 16
	movq	%rbx, %rdi
	movq	%r15, %rsi
	movl	%r14d, %edx
	callq	BZ2_bzread.182
	addq	$8, %rsp
	popq	%rbx
	popq	%r14
	popq	%r15
	popq	%rbp
	.cfi_def_cfa %rsp, 8
	retq
.LBB32_6:                               # %func_BZ2_bzread.194
	.cfi_def_cfa %rbp, 16
	movq	%rbx, %rdi
	movq	%r15, %rsi
	movl	%r14d, %edx
	callq	BZ2_bzread.194
	addq	$8, %rsp
	popq	%rbx
	popq	%r14
	popq	%r15
	popq	%rbp
	.cfi_def_cfa %rsp, 8
	retq
.LBB32_7:                               # %func_BZ2_bzread.203
	.cfi_def_cfa %rbp, 16
	movq	%rbx, %rdi
	movq	%r15, %rsi
	movl	%r14d, %edx
	callq	BZ2_bzread.203
	addq	$8, %rsp
	popq	%rbx
	popq	%r14
	popq	%r15
	popq	%rbp
	.cfi_def_cfa %rsp, 8
	retq
.LBB32_8:                               # %func_BZ2_bzread.211
	.cfi_def_cfa %rbp, 16
	movq	%rbx, %rdi
	movq	%r15, %rsi
	movl	%r14d, %edx
	callq	BZ2_bzread.211
	addq	$8, %rsp
	popq	%rbx
	popq	%r14
	popq	%r15
	popq	%rbp
	.cfi_def_cfa %rsp, 8
	retq
.LBB32_9:                               # %ctrl0
	.cfi_def_cfa %rbp, 16
	cmpl	$1, %eax
	je	.LBB32_2
# %bb.10:                               # %ctrl1
	cmpl	$2, %eax
	je	.LBB32_3
# %bb.11:                               # %ctrl2
	cmpl	$3, %eax
	je	.LBB32_4
# %bb.12:                               # %ctrl3
	cmpl	$4, %eax
	je	.LBB32_5
# %bb.13:                               # %ctrl4
	cmpl	$5, %eax
	je	.LBB32_6
# %bb.14:                               # %ctrl5
	cmpl	$6, %eax
	je	.LBB32_7
	jmp	.LBB32_8
.Lfunc_end32:
	.size	BZ2_bzread, .Lfunc_end32-BZ2_bzread
	.cfi_endproc
                                        # -- End function
	.globl	BZ2_bzwrite             # -- Begin function BZ2_bzwrite
	.p2align	4, 0x90
	.type	BZ2_bzwrite,@function
BZ2_bzwrite:                            # @BZ2_bzwrite
	.cfi_startproc
# %bb.0:                                # %rand_bb
	pushq	%rbp
	.cfi_def_cfa_offset 16
	.cfi_offset %rbp, -16
	movq	%rsp, %rbp
	.cfi_def_cfa_register %rbp
	pushq	%r15
	pushq	%r14
	pushq	%rbx
	pushq	%rax
	.cfi_offset %rbx, -40
	.cfi_offset %r14, -32
	.cfi_offset %r15, -24
	movl	%edx, %r14d
	movq	%rsi, %r15
	movq	%rdi, %rbx
	callq	get_rand
	cmpl	$0, %eax
	jne	.LBB33_9
# %bb.1:                                # %func_BZ2_bzwrite.19
	movq	%rbx, %rdi
	movq	%r15, %rsi
	movl	%r14d, %edx
	callq	BZ2_bzwrite.19
	addq	$8, %rsp
	popq	%rbx
	popq	%r14
	popq	%r15
	popq	%rbp
	.cfi_def_cfa %rsp, 8
	retq
.LBB33_2:                               # %func_BZ2_bzwrite.56
	.cfi_def_cfa %rbp, 16
	movq	%rbx, %rdi
	movq	%r15, %rsi
	movl	%r14d, %edx
	callq	BZ2_bzwrite.56
	addq	$8, %rsp
	popq	%rbx
	popq	%r14
	popq	%r15
	popq	%rbp
	.cfi_def_cfa %rsp, 8
	retq
.LBB33_3:                               # %func_BZ2_bzwrite.84
	.cfi_def_cfa %rbp, 16
	movq	%rbx, %rdi
	movq	%r15, %rsi
	movl	%r14d, %edx
	callq	BZ2_bzwrite.84
	addq	$8, %rsp
	popq	%rbx
	popq	%r14
	popq	%r15
	popq	%rbp
	.cfi_def_cfa %rsp, 8
	retq
.LBB33_4:                               # %func_BZ2_bzwrite.85
	.cfi_def_cfa %rbp, 16
	movq	%rbx, %rdi
	movq	%r15, %rsi
	movl	%r14d, %edx
	callq	BZ2_bzwrite.85
	addq	$8, %rsp
	popq	%rbx
	popq	%r14
	popq	%r15
	popq	%rbp
	.cfi_def_cfa %rsp, 8
	retq
.LBB33_5:                               # %func_BZ2_bzwrite.190
	.cfi_def_cfa %rbp, 16
	movq	%rbx, %rdi
	movq	%r15, %rsi
	movl	%r14d, %edx
	callq	BZ2_bzwrite.190
	addq	$8, %rsp
	popq	%rbx
	popq	%r14
	popq	%r15
	popq	%rbp
	.cfi_def_cfa %rsp, 8
	retq
.LBB33_6:                               # %func_BZ2_bzwrite.200
	.cfi_def_cfa %rbp, 16
	movq	%rbx, %rdi
	movq	%r15, %rsi
	movl	%r14d, %edx
	callq	BZ2_bzwrite.200
	addq	$8, %rsp
	popq	%rbx
	popq	%r14
	popq	%r15
	popq	%rbp
	.cfi_def_cfa %rsp, 8
	retq
.LBB33_7:                               # %func_BZ2_bzwrite.204
	.cfi_def_cfa %rbp, 16
	movq	%rbx, %rdi
	movq	%r15, %rsi
	movl	%r14d, %edx
	callq	BZ2_bzwrite.204
	addq	$8, %rsp
	popq	%rbx
	popq	%r14
	popq	%r15
	popq	%rbp
	.cfi_def_cfa %rsp, 8
	retq
.LBB33_8:                               # %func_BZ2_bzwrite.221
	.cfi_def_cfa %rbp, 16
	movq	%rbx, %rdi
	movq	%r15, %rsi
	movl	%r14d, %edx
	callq	BZ2_bzwrite.221
	addq	$8, %rsp
	popq	%rbx
	popq	%r14
	popq	%r15
	popq	%rbp
	.cfi_def_cfa %rsp, 8
	retq
.LBB33_9:                               # %ctrl0
	.cfi_def_cfa %rbp, 16
	cmpl	$1, %eax
	je	.LBB33_2
# %bb.10:                               # %ctrl1
	cmpl	$2, %eax
	je	.LBB33_3
# %bb.11:                               # %ctrl2
	cmpl	$3, %eax
	je	.LBB33_4
# %bb.12:                               # %ctrl3
	cmpl	$4, %eax
	je	.LBB33_5
# %bb.13:                               # %ctrl4
	cmpl	$5, %eax
	je	.LBB33_6
# %bb.14:                               # %ctrl5
	cmpl	$6, %eax
	je	.LBB33_7
	jmp	.LBB33_8
.Lfunc_end33:
	.size	BZ2_bzwrite, .Lfunc_end33-BZ2_bzwrite
	.cfi_endproc
                                        # -- End function
	.globl	BZ2_bzflush             # -- Begin function BZ2_bzflush
	.p2align	4, 0x90
	.type	BZ2_bzflush,@function
BZ2_bzflush:                            # @BZ2_bzflush
	.cfi_startproc
# %bb.0:                                # %entry
	pushq	%rbp
	.cfi_def_cfa_offset 16
	.cfi_offset %rbp, -16
	movq	%rsp, %rbp
	.cfi_def_cfa_register %rbp
	movq	%rdi, -8(%rbp)
	xorl	%eax, %eax
	popq	%rbp
	.cfi_def_cfa %rsp, 8
	retq
.Lfunc_end34:
	.size	BZ2_bzflush, .Lfunc_end34-BZ2_bzflush
	.cfi_endproc
                                        # -- End function
	.globl	BZ2_bzclose             # -- Begin function BZ2_bzclose
	.p2align	4, 0x90
	.type	BZ2_bzclose,@function
BZ2_bzclose:                            # @BZ2_bzclose
	.cfi_startproc
# %bb.0:                                # %rand_bb
	pushq	%rbp
	.cfi_def_cfa_offset 16
	.cfi_offset %rbp, -16
	movq	%rsp, %rbp
	.cfi_def_cfa_register %rbp
	pushq	%rbx
	pushq	%rax
	.cfi_offset %rbx, -24
	movq	%rdi, %rbx
	callq	get_rand
	cmpl	$0, %eax
	jne	.LBB35_7
# %bb.1:                                # %func_BZ2_bzclose.21
	movq	%rbx, %rdi
	callq	BZ2_bzclose.21
	addq	$8, %rsp
	popq	%rbx
	popq	%rbp
	.cfi_def_cfa %rsp, 8
	retq
.LBB35_2:                               # %func_BZ2_bzclose.37
	.cfi_def_cfa %rbp, 16
	movq	%rbx, %rdi
	callq	BZ2_bzclose.37
	addq	$8, %rsp
	popq	%rbx
	popq	%rbp
	.cfi_def_cfa %rsp, 8
	retq
.LBB35_3:                               # %func_BZ2_bzclose.94
	.cfi_def_cfa %rbp, 16
	movq	%rbx, %rdi
	callq	BZ2_bzclose.94
	addq	$8, %rsp
	popq	%rbx
	popq	%rbp
	.cfi_def_cfa %rsp, 8
	retq
.LBB35_4:                               # %func_BZ2_bzclose.109
	.cfi_def_cfa %rbp, 16
	movq	%rbx, %rdi
	callq	BZ2_bzclose.109
	addq	$8, %rsp
	popq	%rbx
	popq	%rbp
	.cfi_def_cfa %rsp, 8
	retq
.LBB35_5:                               # %func_BZ2_bzclose.148
	.cfi_def_cfa %rbp, 16
	movq	%rbx, %rdi
	callq	BZ2_bzclose.148
	addq	$8, %rsp
	popq	%rbx
	popq	%rbp
	.cfi_def_cfa %rsp, 8
	retq
.LBB35_6:                               # %func_BZ2_bzclose.156
	.cfi_def_cfa %rbp, 16
	movq	%rbx, %rdi
	callq	BZ2_bzclose.156
	addq	$8, %rsp
	popq	%rbx
	popq	%rbp
	.cfi_def_cfa %rsp, 8
	retq
.LBB35_7:                               # %ctrl0
	.cfi_def_cfa %rbp, 16
	cmpl	$1, %eax
	je	.LBB35_2
# %bb.8:                                # %ctrl1
	cmpl	$2, %eax
	je	.LBB35_3
# %bb.9:                                # %ctrl2
	cmpl	$3, %eax
	je	.LBB35_4
# %bb.10:                               # %ctrl3
	cmpl	$4, %eax
	je	.LBB35_5
	jmp	.LBB35_6
.Lfunc_end35:
	.size	BZ2_bzclose, .Lfunc_end35-BZ2_bzclose
	.cfi_endproc
                                        # -- End function
	.globl	BZ2_bzerror             # -- Begin function BZ2_bzerror
	.p2align	4, 0x90
	.type	BZ2_bzerror,@function
BZ2_bzerror:                            # @BZ2_bzerror
	.cfi_startproc
# %bb.0:                                # %rand_bb
	pushq	%rbp
	.cfi_def_cfa_offset 16
	.cfi_offset %rbp, -16
	movq	%rsp, %rbp
	.cfi_def_cfa_register %rbp
	pushq	%r14
	pushq	%rbx
	.cfi_offset %rbx, -32
	.cfi_offset %r14, -24
	movq	%rsi, %r14
	movq	%rdi, %rbx
	callq	get_rand
	cmpl	$0, %eax
	jne	.LBB36_7
# %bb.1:                                # %func_BZ2_bzerror.5
	movq	%rbx, %rdi
	movq	%r14, %rsi
	callq	BZ2_bzerror.5
	popq	%rbx
	popq	%r14
	popq	%rbp
	.cfi_def_cfa %rsp, 8
	retq
.LBB36_2:                               # %func_BZ2_bzerror.59
	.cfi_def_cfa %rbp, 16
	movq	%rbx, %rdi
	movq	%r14, %rsi
	callq	BZ2_bzerror.59
	popq	%rbx
	popq	%r14
	popq	%rbp
	.cfi_def_cfa %rsp, 8
	retq
.LBB36_3:                               # %func_BZ2_bzerror.101
	.cfi_def_cfa %rbp, 16
	movq	%rbx, %rdi
	movq	%r14, %rsi
	callq	BZ2_bzerror.101
	popq	%rbx
	popq	%r14
	popq	%rbp
	.cfi_def_cfa %rsp, 8
	retq
.LBB36_4:                               # %func_BZ2_bzerror.122
	.cfi_def_cfa %rbp, 16
	movq	%rbx, %rdi
	movq	%r14, %rsi
	callq	BZ2_bzerror.122
	popq	%rbx
	popq	%r14
	popq	%rbp
	.cfi_def_cfa %rsp, 8
	retq
.LBB36_5:                               # %func_BZ2_bzerror.172
	.cfi_def_cfa %rbp, 16
	movq	%rbx, %rdi
	movq	%r14, %rsi
	callq	BZ2_bzerror.172
	popq	%rbx
	popq	%r14
	popq	%rbp
	.cfi_def_cfa %rsp, 8
	retq
.LBB36_6:                               # %func_BZ2_bzerror.209
	.cfi_def_cfa %rbp, 16
	movq	%rbx, %rdi
	movq	%r14, %rsi
	callq	BZ2_bzerror.209
	popq	%rbx
	popq	%r14
	popq	%rbp
	.cfi_def_cfa %rsp, 8
	retq
.LBB36_7:                               # %ctrl0
	.cfi_def_cfa %rbp, 16
	cmpl	$1, %eax
	je	.LBB36_2
# %bb.8:                                # %ctrl1
	cmpl	$2, %eax
	je	.LBB36_3
# %bb.9:                                # %ctrl2
	cmpl	$3, %eax
	je	.LBB36_4
# %bb.10:                               # %ctrl3
	cmpl	$4, %eax
	je	.LBB36_5
	jmp	.LBB36_6
.Lfunc_end36:
	.size	BZ2_bzerror, .Lfunc_end36-BZ2_bzerror
	.cfi_endproc
                                        # -- End function
	.p2align	4, 0x90         # -- Begin function copy_output_until_stop
	.type	copy_output_until_stop,@function
copy_output_until_stop:                 # @copy_output_until_stop
	.cfi_startproc
# %bb.0:                                # %rand_bb
	pushq	%rbp
	.cfi_def_cfa_offset 16
	.cfi_offset %rbp, -16
	movq	%rsp, %rbp
	.cfi_def_cfa_register %rbp
	pushq	%rbx
	pushq	%rax
	.cfi_offset %rbx, -24
	movq	%rdi, %rbx
	callq	get_rand
	cmpl	$0, %eax
	jne	.LBB37_2
# %bb.1:                                # %func_copy_output_until_stop.79
	movq	%rbx, %rdi
	callq	copy_output_until_stop.79
	movzbl	%al, %eax
	addq	$8, %rsp
	popq	%rbx
	popq	%rbp
	.cfi_def_cfa %rsp, 8
	retq
.LBB37_2:                               # %func_copy_output_until_stop.131
	.cfi_def_cfa %rbp, 16
	movq	%rbx, %rdi
	callq	copy_output_until_stop.131
	movzbl	%al, %eax
	addq	$8, %rsp
	popq	%rbx
	popq	%rbp
	.cfi_def_cfa %rsp, 8
	retq
.Lfunc_end37:
	.size	copy_output_until_stop, .Lfunc_end37-copy_output_until_stop
	.cfi_endproc
                                        # -- End function
	.p2align	4, 0x90         # -- Begin function copy_input_until_stop
	.type	copy_input_until_stop,@function
copy_input_until_stop:                  # @copy_input_until_stop
	.cfi_startproc
# %bb.0:                                # %rand_bb
	pushq	%rbp
	.cfi_def_cfa_offset 16
	.cfi_offset %rbp, -16
	movq	%rsp, %rbp
	.cfi_def_cfa_register %rbp
	pushq	%rbx
	pushq	%rax
	.cfi_offset %rbx, -24
	movq	%rdi, %rbx
	callq	get_rand
	cmpl	$0, %eax
	jne	.LBB38_9
# %bb.1:                                # %func_copy_input_until_stop.9
	movq	%rbx, %rdi
	callq	copy_input_until_stop.9
	movzbl	%al, %eax
	addq	$8, %rsp
	popq	%rbx
	popq	%rbp
	.cfi_def_cfa %rsp, 8
	retq
.LBB38_2:                               # %func_copy_input_until_stop.52
	.cfi_def_cfa %rbp, 16
	movq	%rbx, %rdi
	callq	copy_input_until_stop.52
	movzbl	%al, %eax
	addq	$8, %rsp
	popq	%rbx
	popq	%rbp
	.cfi_def_cfa %rsp, 8
	retq
.LBB38_3:                               # %func_copy_input_until_stop.61
	.cfi_def_cfa %rbp, 16
	movq	%rbx, %rdi
	callq	copy_input_until_stop.61
	movzbl	%al, %eax
	addq	$8, %rsp
	popq	%rbx
	popq	%rbp
	.cfi_def_cfa %rsp, 8
	retq
.LBB38_4:                               # %func_copy_input_until_stop.66
	.cfi_def_cfa %rbp, 16
	movq	%rbx, %rdi
	callq	copy_input_until_stop.66
	movzbl	%al, %eax
	addq	$8, %rsp
	popq	%rbx
	popq	%rbp
	.cfi_def_cfa %rsp, 8
	retq
.LBB38_5:                               # %func_copy_input_until_stop.77
	.cfi_def_cfa %rbp, 16
	movq	%rbx, %rdi
	callq	copy_input_until_stop.77
	movzbl	%al, %eax
	addq	$8, %rsp
	popq	%rbx
	popq	%rbp
	.cfi_def_cfa %rsp, 8
	retq
.LBB38_6:                               # %func_copy_input_until_stop.81
	.cfi_def_cfa %rbp, 16
	movq	%rbx, %rdi
	callq	copy_input_until_stop.81
	movzbl	%al, %eax
	addq	$8, %rsp
	popq	%rbx
	popq	%rbp
	.cfi_def_cfa %rsp, 8
	retq
.LBB38_7:                               # %func_copy_input_until_stop.102
	.cfi_def_cfa %rbp, 16
	movq	%rbx, %rdi
	callq	copy_input_until_stop.102
	movzbl	%al, %eax
	addq	$8, %rsp
	popq	%rbx
	popq	%rbp
	.cfi_def_cfa %rsp, 8
	retq
.LBB38_8:                               # %func_copy_input_until_stop.165
	.cfi_def_cfa %rbp, 16
	movq	%rbx, %rdi
	callq	copy_input_until_stop.165
	movzbl	%al, %eax
	addq	$8, %rsp
	popq	%rbx
	popq	%rbp
	.cfi_def_cfa %rsp, 8
	retq
.LBB38_9:                               # %ctrl0
	.cfi_def_cfa %rbp, 16
	cmpl	$1, %eax
	je	.LBB38_2
# %bb.10:                               # %ctrl1
	cmpl	$2, %eax
	je	.LBB38_3
# %bb.11:                               # %ctrl2
	cmpl	$3, %eax
	je	.LBB38_4
# %bb.12:                               # %ctrl3
	cmpl	$4, %eax
	je	.LBB38_5
# %bb.13:                               # %ctrl4
	cmpl	$5, %eax
	je	.LBB38_6
# %bb.14:                               # %ctrl5
	cmpl	$6, %eax
	je	.LBB38_7
	jmp	.LBB38_8
.Lfunc_end38:
	.size	copy_input_until_stop, .Lfunc_end38-copy_input_until_stop
	.cfi_endproc
                                        # -- End function
	.p2align	4, 0x90         # -- Begin function flush_RL
	.type	flush_RL,@function
flush_RL:                               # @flush_RL
	.cfi_startproc
# %bb.0:                                # %entry
	pushq	%rbp
	.cfi_def_cfa_offset 16
	.cfi_offset %rbp, -16
	movq	%rsp, %rbp
	.cfi_def_cfa_register %rbp
	subq	$16, %rsp
	movq	%rdi, -8(%rbp)
	movq	-8(%rbp), %rax
	cmpl	$256, 92(%rax)          # imm = 0x100
	jae	.LBB39_2
# %bb.1:                                # %if.then
	movq	-8(%rbp), %rdi
	callq	add_pair_to_block
.LBB39_2:                               # %if.end
	movq	-8(%rbp), %rdi
	callq	init_RL
	addq	$16, %rsp
	popq	%rbp
	.cfi_def_cfa %rsp, 8
	retq
.Lfunc_end39:
	.size	flush_RL, .Lfunc_end39-flush_RL
	.cfi_endproc
                                        # -- End function
	.p2align	4, 0x90         # -- Begin function add_pair_to_block
	.type	add_pair_to_block,@function
add_pair_to_block:                      # @add_pair_to_block
	.cfi_startproc
# %bb.0:                                # %rand_bb
	pushq	%rbp
	.cfi_def_cfa_offset 16
	.cfi_offset %rbp, -16
	movq	%rsp, %rbp
	.cfi_def_cfa_register %rbp
	pushq	%rbx
	pushq	%rax
	.cfi_offset %rbx, -24
	movq	%rdi, %rbx
	callq	get_rand
	cmpl	$0, %eax
	jne	.LBB40_7
# %bb.1:                                # %func_add_pair_to_block.34
	movq	%rbx, %rdi
	callq	add_pair_to_block.34
	addq	$8, %rsp
	popq	%rbx
	popq	%rbp
	.cfi_def_cfa %rsp, 8
	retq
.LBB40_2:                               # %func_add_pair_to_block.43
	.cfi_def_cfa %rbp, 16
	movq	%rbx, %rdi
	callq	add_pair_to_block.43
	addq	$8, %rsp
	popq	%rbx
	popq	%rbp
	.cfi_def_cfa %rsp, 8
	retq
.LBB40_3:                               # %func_add_pair_to_block.97
	.cfi_def_cfa %rbp, 16
	movq	%rbx, %rdi
	callq	add_pair_to_block.97
	addq	$8, %rsp
	popq	%rbx
	popq	%rbp
	.cfi_def_cfa %rsp, 8
	retq
.LBB40_4:                               # %func_add_pair_to_block.106
	.cfi_def_cfa %rbp, 16
	movq	%rbx, %rdi
	callq	add_pair_to_block.106
	addq	$8, %rsp
	popq	%rbx
	popq	%rbp
	.cfi_def_cfa %rsp, 8
	retq
.LBB40_5:                               # %func_add_pair_to_block.137
	.cfi_def_cfa %rbp, 16
	movq	%rbx, %rdi
	callq	add_pair_to_block.137
	addq	$8, %rsp
	popq	%rbx
	popq	%rbp
	.cfi_def_cfa %rsp, 8
	retq
.LBB40_6:                               # %func_add_pair_to_block.155
	.cfi_def_cfa %rbp, 16
	movq	%rbx, %rdi
	callq	add_pair_to_block.155
	addq	$8, %rsp
	popq	%rbx
	popq	%rbp
	.cfi_def_cfa %rsp, 8
	retq
.LBB40_7:                               # %ctrl0
	.cfi_def_cfa %rbp, 16
	cmpl	$1, %eax
	je	.LBB40_2
# %bb.8:                                # %ctrl1
	cmpl	$2, %eax
	je	.LBB40_3
# %bb.9:                                # %ctrl2
	cmpl	$3, %eax
	je	.LBB40_4
# %bb.10:                               # %ctrl3
	cmpl	$4, %eax
	je	.LBB40_5
	jmp	.LBB40_6
.Lfunc_end40:
	.size	add_pair_to_block, .Lfunc_end40-add_pair_to_block
	.cfi_endproc
                                        # -- End function
	.globl	BZ2_indexIntoF.1        # -- Begin function BZ2_indexIntoF.1
	.p2align	4, 0x90
	.type	BZ2_indexIntoF.1,@function
BZ2_indexIntoF.1:                       # @BZ2_indexIntoF.1
	.cfi_startproc
# %bb.0:                                # %entry
	pushq	%rbp
	.cfi_def_cfa_offset 16
	.cfi_offset %rbp, -16
	movq	%rsp, %rbp
	.cfi_def_cfa_register %rbp
	pushq	%rbx
	subq	$40, %rsp
	.cfi_offset %rbx, -24
	movl	$1613125095, -28(%rbp)  # imm = 0x602655E7
	movl	%edi, -24(%rbp)
	movq	%rsi, -40(%rbp)
	movl	$0, -12(%rbp)
	movl	$256, -16(%rbp)         # imm = 0x100
.LBB41_1:                               # %do.body
                                        # =>This Inner Loop Header: Depth=1
	movl	-12(%rbp), %eax
	addl	-16(%rbp), %eax
	sarl	$1, %eax
	movl	%eax, -20(%rbp)
	movl	-24(%rbp), %eax
	movq	-40(%rbp), %rcx
	movslq	-20(%rbp), %rdx
	cmpl	(%rcx,%rdx,4), %eax
	jl	.LBB41_3
# %bb.2:                                # %if.then
                                        #   in Loop: Header=BB41_1 Depth=1
	movl	-20(%rbp), %eax
	movl	%eax, -12(%rbp)
	jmp	.LBB41_4
.LBB41_3:                               # %if.else
                                        #   in Loop: Header=BB41_1 Depth=1
	movl	-20(%rbp), %eax
	movl	%eax, -16(%rbp)
.LBB41_4:                               # %if.end
                                        #   in Loop: Header=BB41_1 Depth=1
	jmp	.LBB41_5
.LBB41_5:                               # %do.cond
                                        #   in Loop: Header=BB41_1 Depth=1
	movl	-16(%rbp), %eax
	subl	-12(%rbp), %eax
	cmpl	$1, %eax
	jne	.LBB41_1
# %bb.6:                                # %do.end
	movl	-12(%rbp), %ebx
	cmpl	$1613125095, -28(%rbp)  # imm = 0x602655E7
	jne	.LBB41_8
.LBB41_7:
	movl	%ebx, %eax
	addq	$40, %rsp
	popq	%rbx
	popq	%rbp
	.cfi_def_cfa %rsp, 8
	retq
.LBB41_8:                               # %func_exit
	.cfi_def_cfa %rbp, 16
	callq	detect_breach
	jmp	.LBB41_7
.Lfunc_end41:
	.size	BZ2_indexIntoF.1, .Lfunc_end41-BZ2_indexIntoF.1
	.cfi_endproc
                                        # -- End function
	.globl	BZ2_bzRead.2            # -- Begin function BZ2_bzRead.2
	.p2align	4, 0x90
	.type	BZ2_bzRead.2,@function
BZ2_bzRead.2:                           # @BZ2_bzRead.2
	.cfi_startproc
# %bb.0:                                # %entry
	pushq	%rbp
	.cfi_def_cfa_offset 16
	.cfi_offset %rbp, -16
	movq	%rsp, %rbp
	.cfi_def_cfa_register %rbp
	pushq	%rbx
	subq	$56, %rsp
	.cfi_offset %rbx, -24
	movl	$1422513089, -44(%rbp)  # imm = 0x54C9D3C1
	movq	%rdi, -24(%rbp)
	movq	%rsi, -64(%rbp)
	movq	%rdx, -56(%rbp)
	movl	%ecx, -36(%rbp)
	movq	-64(%rbp), %rax
	movq	%rax, -16(%rbp)
	cmpq	$0, -24(%rbp)
	je	.LBB42_2
# %bb.1:                                # %if.then
	movq	-24(%rbp), %rax
	movl	$0, (%rax)
.LBB42_2:                               # %if.end
	cmpq	$0, -16(%rbp)
	je	.LBB42_4
# %bb.3:                                # %if.then2
	movq	-16(%rbp), %rax
	movl	$0, 5096(%rax)
.LBB42_4:                               # %if.end3
	cmpq	$0, -16(%rbp)
	je	.LBB42_7
# %bb.5:                                # %lor.lhs.false
	cmpq	$0, -56(%rbp)
	je	.LBB42_7
# %bb.6:                                # %lor.lhs.false6
	cmpl	$0, -36(%rbp)
	jge	.LBB42_12
.LBB42_7:                               # %if.then8
	cmpq	$0, -24(%rbp)
	je	.LBB42_9
# %bb.8:                                # %if.then10
	movq	-24(%rbp), %rax
	movl	$-2, (%rax)
.LBB42_9:                               # %if.end11
	cmpq	$0, -16(%rbp)
	je	.LBB42_11
# %bb.10:                               # %if.then13
	movq	-16(%rbp), %rax
	movl	$-2, 5096(%rax)
.LBB42_11:                              # %if.end15
	movl	$0, -28(%rbp)
	jmp	.LBB42_69
.LBB42_12:                              # %if.end16
	movq	-16(%rbp), %rax
	cmpb	$0, 5012(%rax)
	je	.LBB42_18
# %bb.13:                               # %if.then17
	cmpq	$0, -24(%rbp)
	je	.LBB42_15
# %bb.14:                               # %if.then19
	movq	-24(%rbp), %rax
	movl	$-1, (%rax)
.LBB42_15:                              # %if.end20
	cmpq	$0, -16(%rbp)
	je	.LBB42_17
# %bb.16:                               # %if.then22
	movq	-16(%rbp), %rax
	movl	$-1, 5096(%rax)
.LBB42_17:                              # %if.end24
	movl	$0, -28(%rbp)
	jmp	.LBB42_69
.LBB42_18:                              # %if.end25
	cmpl	$0, -36(%rbp)
	jne	.LBB42_24
# %bb.19:                               # %if.then27
	cmpq	$0, -24(%rbp)
	je	.LBB42_21
# %bb.20:                               # %if.then29
	movq	-24(%rbp), %rax
	movl	$0, (%rax)
.LBB42_21:                              # %if.end30
	cmpq	$0, -16(%rbp)
	je	.LBB42_23
# %bb.22:                               # %if.then32
	movq	-16(%rbp), %rax
	movl	$0, 5096(%rax)
.LBB42_23:                              # %if.end34
	movl	$0, -28(%rbp)
	jmp	.LBB42_69
.LBB42_24:                              # %if.end35
	movl	-36(%rbp), %eax
	movq	-16(%rbp), %rcx
	movl	%eax, 5048(%rcx)
	movq	-56(%rbp), %rax
	movq	-16(%rbp), %rcx
	movq	%rax, 5040(%rcx)
.LBB42_25:                              # %while.body
                                        # =>This Inner Loop Header: Depth=1
	movq	-16(%rbp), %rax
	movq	(%rax), %rdi
	callq	ferror
	cmpl	$0, %eax
	je	.LBB42_31
# %bb.26:                               # %if.then38
	cmpq	$0, -24(%rbp)
	je	.LBB42_28
# %bb.27:                               # %if.then40
	movq	-24(%rbp), %rax
	movl	$-6, (%rax)
.LBB42_28:                              # %if.end41
	cmpq	$0, -16(%rbp)
	je	.LBB42_30
# %bb.29:                               # %if.then43
	movq	-16(%rbp), %rax
	movl	$-6, 5096(%rax)
.LBB42_30:                              # %if.end45
	movl	$0, -28(%rbp)
	jmp	.LBB42_69
.LBB42_31:                              # %if.end46
                                        #   in Loop: Header=BB42_25 Depth=1
	movq	-16(%rbp), %rax
	cmpl	$0, 5024(%rax)
	jne	.LBB42_40
# %bb.32:                               # %land.lhs.true
                                        #   in Loop: Header=BB42_25 Depth=1
	movq	-16(%rbp), %rax
	movq	(%rax), %rdi
	callq	myfeof
	cmpb	$0, %al
	jne	.LBB42_40
# %bb.33:                               # %if.then52
                                        #   in Loop: Header=BB42_25 Depth=1
	movq	-16(%rbp), %rdi
	addq	$8, %rdi
	movq	-16(%rbp), %rax
	movq	(%rax), %rcx
	movl	$1, %esi
	movl	$5000, %edx             # imm = 0x1388
	callq	fread
	movl	%eax, -40(%rbp)
	movq	-16(%rbp), %rax
	movq	(%rax), %rdi
	callq	ferror
	cmpl	$0, %eax
	je	.LBB42_39
# %bb.34:                               # %if.then59
	cmpq	$0, -24(%rbp)
	je	.LBB42_36
# %bb.35:                               # %if.then62
	movq	-24(%rbp), %rax
	movl	$-6, (%rax)
.LBB42_36:                              # %if.end63
	cmpq	$0, -16(%rbp)
	je	.LBB42_38
# %bb.37:                               # %if.then66
	movq	-16(%rbp), %rax
	movl	$-6, 5096(%rax)
.LBB42_38:                              # %if.end68
	movl	$0, -28(%rbp)
	jmp	.LBB42_69
.LBB42_39:                              # %if.end69
                                        #   in Loop: Header=BB42_25 Depth=1
	movl	-40(%rbp), %eax
	movq	-16(%rbp), %rcx
	movl	%eax, 5008(%rcx)
	movq	-16(%rbp), %rax
	movl	5008(%rax), %eax
	movq	-16(%rbp), %rcx
	movl	%eax, 5024(%rcx)
	movq	-16(%rbp), %rax
	addq	$8, %rax
	movq	-16(%rbp), %rcx
	movq	%rax, 5016(%rcx)
.LBB42_40:                              # %if.end76
                                        #   in Loop: Header=BB42_25 Depth=1
	movq	-16(%rbp), %rdi
	addq	$5016, %rdi             # imm = 0x1398
	callq	BZ2_bzDecompress
	movl	%eax, -32(%rbp)
	cmpl	$0, -32(%rbp)
	je	.LBB42_47
# %bb.41:                               # %land.lhs.true81
                                        #   in Loop: Header=BB42_25 Depth=1
	cmpl	$4, -32(%rbp)
	je	.LBB42_47
# %bb.42:                               # %if.then84
	cmpq	$0, -24(%rbp)
	je	.LBB42_44
# %bb.43:                               # %if.then87
	movl	-32(%rbp), %eax
	movq	-24(%rbp), %rcx
	movl	%eax, (%rcx)
.LBB42_44:                              # %if.end88
	cmpq	$0, -16(%rbp)
	je	.LBB42_46
# %bb.45:                               # %if.then91
	movl	-32(%rbp), %eax
	movq	-16(%rbp), %rcx
	movl	%eax, 5096(%rcx)
.LBB42_46:                              # %if.end93
	movl	$0, -28(%rbp)
	jmp	.LBB42_69
.LBB42_47:                              # %if.end94
                                        #   in Loop: Header=BB42_25 Depth=1
	cmpl	$0, -32(%rbp)
	jne	.LBB42_56
# %bb.48:                               # %land.lhs.true97
                                        #   in Loop: Header=BB42_25 Depth=1
	movq	-16(%rbp), %rax
	movq	(%rax), %rdi
	callq	myfeof
	movzbl	%al, %eax
	cmpl	$0, %eax
	je	.LBB42_56
# %bb.49:                               # %land.lhs.true102
                                        #   in Loop: Header=BB42_25 Depth=1
	movq	-16(%rbp), %rax
	cmpl	$0, 5024(%rax)
	jne	.LBB42_56
# %bb.50:                               # %land.lhs.true107
                                        #   in Loop: Header=BB42_25 Depth=1
	movq	-16(%rbp), %rax
	cmpl	$0, 5048(%rax)
	jbe	.LBB42_56
# %bb.51:                               # %if.then112
	cmpq	$0, -24(%rbp)
	je	.LBB42_53
# %bb.52:                               # %if.then115
	movq	-24(%rbp), %rax
	movl	$-7, (%rax)
.LBB42_53:                              # %if.end116
	cmpq	$0, -16(%rbp)
	je	.LBB42_55
# %bb.54:                               # %if.then119
	movq	-16(%rbp), %rax
	movl	$-7, 5096(%rax)
.LBB42_55:                              # %if.end121
	movl	$0, -28(%rbp)
	jmp	.LBB42_69
.LBB42_56:                              # %if.end122
                                        #   in Loop: Header=BB42_25 Depth=1
	cmpl	$4, -32(%rbp)
	jne	.LBB42_62
# %bb.57:                               # %if.then125
	cmpq	$0, -24(%rbp)
	je	.LBB42_59
# %bb.58:                               # %if.then128
	movq	-24(%rbp), %rax
	movl	$4, (%rax)
.LBB42_59:                              # %if.end129
	cmpq	$0, -16(%rbp)
	je	.LBB42_61
# %bb.60:                               # %if.then132
	movq	-16(%rbp), %rax
	movl	$4, 5096(%rax)
.LBB42_61:                              # %if.end134
	movl	-36(%rbp), %eax
	movq	-16(%rbp), %rcx
	subl	5048(%rcx), %eax
	movl	%eax, -28(%rbp)
	jmp	.LBB42_69
.LBB42_62:                              # %if.end137
                                        #   in Loop: Header=BB42_25 Depth=1
	movq	-16(%rbp), %rax
	cmpl	$0, 5048(%rax)
	jne	.LBB42_68
# %bb.63:                               # %if.then142
	cmpq	$0, -24(%rbp)
	je	.LBB42_65
# %bb.64:                               # %if.then145
	movq	-24(%rbp), %rax
	movl	$0, (%rax)
.LBB42_65:                              # %if.end146
	cmpq	$0, -16(%rbp)
	je	.LBB42_67
# %bb.66:                               # %if.then149
	movq	-16(%rbp), %rax
	movl	$0, 5096(%rax)
.LBB42_67:                              # %if.end151
	movl	-36(%rbp), %eax
	movl	%eax, -28(%rbp)
	jmp	.LBB42_69
.LBB42_68:                              # %if.end152
                                        #   in Loop: Header=BB42_25 Depth=1
	jmp	.LBB42_25
.LBB42_69:                              # %return
	movl	-28(%rbp), %ebx
	cmpl	$1422513089, -44(%rbp)  # imm = 0x54C9D3C1
	jne	.LBB42_71
.LBB42_70:
	movl	%ebx, %eax
	addq	$56, %rsp
	popq	%rbx
	popq	%rbp
	.cfi_def_cfa %rsp, 8
	retq
.LBB42_71:                              # %func_exit
	.cfi_def_cfa %rbp, 16
	callq	detect_breach
	jmp	.LBB42_70
.Lfunc_end42:
	.size	BZ2_bzRead.2, .Lfunc_end42-BZ2_bzRead.2
	.cfi_endproc
                                        # -- End function
	.globl	BZ2_bzCompress.3        # -- Begin function BZ2_bzCompress.3
	.p2align	4, 0x90
	.type	BZ2_bzCompress.3,@function
BZ2_bzCompress.3:                       # @BZ2_bzCompress.3
	.cfi_startproc
# %bb.0:                                # %entry
	pushq	%rbp
	.cfi_def_cfa_offset 16
	.cfi_offset %rbp, -16
	movq	%rsp, %rbp
	.cfi_def_cfa_register %rbp
	pushq	%rbx
	subq	$40, %rsp
	.cfi_offset %rbx, -24
	movl	$1000740736, -44(%rbp)  # imm = 0x3BA61780
	movq	%rdi, -40(%rbp)
	movl	%esi, -28(%rbp)
	cmpq	$0, -40(%rbp)
	jne	.LBB43_2
# %bb.1:                                # %if.then
	movl	$-2, -16(%rbp)
	jmp	.LBB43_39
.LBB43_2:                               # %if.end
	movq	-40(%rbp), %rax
	movq	48(%rax), %rax
	movq	%rax, -24(%rbp)
	cmpq	$0, -24(%rbp)
	jne	.LBB43_4
# %bb.3:                                # %if.then2
	movl	$-2, -16(%rbp)
	jmp	.LBB43_39
.LBB43_4:                               # %if.end3
	movq	-24(%rbp), %rax
	movq	(%rax), %rax
	cmpq	-40(%rbp), %rax
	je	.LBB43_6
# %bb.5:                                # %if.then6
	movl	$-2, -16(%rbp)
	jmp	.LBB43_39
.LBB43_6:                               # %if.end7
	jmp	.LBB43_7
.LBB43_7:                               # %preswitch
                                        # =>This Inner Loop Header: Depth=1
	movq	-24(%rbp), %rax
	movl	8(%rax), %eax
	addl	$-1, %eax
	movl	%eax, %ecx
	subl	$3, %ecx
	ja	.LBB43_38
# %bb.8:                                # %preswitch
                                        #   in Loop: Header=BB43_7 Depth=1
	movq	.LJTI43_0(,%rax,8), %rax
	jmpq	*%rax
.LBB43_9:                               # %sw.bb
	movl	$-1, -16(%rbp)
	jmp	.LBB43_39
.LBB43_10:                              # %sw.bb8
                                        #   in Loop: Header=BB43_7 Depth=1
	cmpl	$0, -28(%rbp)
	jne	.LBB43_12
# %bb.11:                               # %if.then10
	movq	-40(%rbp), %rdi
	callq	handle_compress
	movb	%al, -9(%rbp)
	movzbl	-9(%rbp), %eax
	cmpl	$0, %eax
	movl	$1, %eax
	movl	$4294967294, %ecx       # imm = 0xFFFFFFFE
	cmovnel	%eax, %ecx
	movl	%ecx, -16(%rbp)
	jmp	.LBB43_39
.LBB43_12:                              # %if.else
                                        #   in Loop: Header=BB43_7 Depth=1
	cmpl	$1, -28(%rbp)
	jne	.LBB43_15
# %bb.13:                               # %if.then13
                                        #   in Loop: Header=BB43_7 Depth=1
	movq	-40(%rbp), %rax
	movl	8(%rax), %eax
	movq	-24(%rbp), %rcx
	movl	%eax, 16(%rcx)
	movq	-24(%rbp), %rax
	movl	$3, 8(%rax)
.LBB43_14:                              # %preswitch.backedge
                                        #   in Loop: Header=BB43_7 Depth=1
	jmp	.LBB43_7
.LBB43_15:                              # %if.else15
                                        #   in Loop: Header=BB43_7 Depth=1
	cmpl	$2, -28(%rbp)
	jne	.LBB43_17
# %bb.16:                               # %if.then18
                                        #   in Loop: Header=BB43_7 Depth=1
	movq	-40(%rbp), %rax
	movl	8(%rax), %eax
	movq	-24(%rbp), %rcx
	movl	%eax, 16(%rcx)
	movq	-24(%rbp), %rax
	movl	$4, 8(%rax)
	jmp	.LBB43_14
.LBB43_17:                              # %if.else22
	movl	$-2, -16(%rbp)
	jmp	.LBB43_39
.LBB43_18:                              # %sw.bb23
	cmpl	$1, -28(%rbp)
	je	.LBB43_20
# %bb.19:                               # %if.then26
	movl	$-1, -16(%rbp)
	jmp	.LBB43_39
.LBB43_20:                              # %if.end27
	movq	-24(%rbp), %rax
	movl	16(%rax), %eax
	movq	-24(%rbp), %rcx
	movq	(%rcx), %rcx
	cmpl	8(%rcx), %eax
	je	.LBB43_22
# %bb.21:                               # %if.then33
	movl	$-1, -16(%rbp)
	jmp	.LBB43_39
.LBB43_22:                              # %if.end34
	movq	-40(%rbp), %rdi
	callq	handle_compress
	movb	%al, -9(%rbp)
	movq	-24(%rbp), %rax
	cmpl	$0, 16(%rax)
	ja	.LBB43_25
# %bb.23:                               # %lor.lhs.false
	movq	-24(%rbp), %rdi
	callq	isempty_RL
	cmpb	$0, %al
	je	.LBB43_25
# %bb.24:                               # %lor.lhs.false41
	movq	-24(%rbp), %rax
	movl	120(%rax), %eax
	movq	-24(%rbp), %rcx
	cmpl	116(%rcx), %eax
	jge	.LBB43_26
.LBB43_25:                              # %if.then44
	movl	$2, -16(%rbp)
	jmp	.LBB43_39
.LBB43_26:                              # %if.end45
	movq	-24(%rbp), %rax
	movl	$2, 8(%rax)
	movl	$1, -16(%rbp)
	jmp	.LBB43_39
.LBB43_27:                              # %sw.bb47
	cmpl	$2, -28(%rbp)
	je	.LBB43_29
# %bb.28:                               # %if.then50
	movl	$-1, -16(%rbp)
	jmp	.LBB43_39
.LBB43_29:                              # %if.end51
	movq	-24(%rbp), %rax
	movl	16(%rax), %eax
	movq	-24(%rbp), %rcx
	movq	(%rcx), %rcx
	cmpl	8(%rcx), %eax
	je	.LBB43_31
# %bb.30:                               # %if.then57
	movl	$-1, -16(%rbp)
	jmp	.LBB43_39
.LBB43_31:                              # %if.end58
	movq	-40(%rbp), %rdi
	callq	handle_compress
	movb	%al, -9(%rbp)
	cmpb	$0, -9(%rbp)
	jne	.LBB43_33
# %bb.32:                               # %if.then61
	movl	$-1, -16(%rbp)
	jmp	.LBB43_39
.LBB43_33:                              # %if.end62
	movq	-24(%rbp), %rax
	cmpl	$0, 16(%rax)
	ja	.LBB43_36
# %bb.34:                               # %lor.lhs.false66
	movq	-24(%rbp), %rdi
	callq	isempty_RL
	cmpb	$0, %al
	je	.LBB43_36
# %bb.35:                               # %lor.lhs.false69
	movq	-24(%rbp), %rax
	movl	120(%rax), %eax
	movq	-24(%rbp), %rcx
	cmpl	116(%rcx), %eax
	jge	.LBB43_37
.LBB43_36:                              # %if.then74
	movl	$3, -16(%rbp)
	jmp	.LBB43_39
.LBB43_37:                              # %if.end75
	movq	-24(%rbp), %rax
	movl	$1, 8(%rax)
	movl	$4, -16(%rbp)
	jmp	.LBB43_39
.LBB43_38:                              # %sw.epilog
	movl	$0, -16(%rbp)
.LBB43_39:                              # %return
	movl	-16(%rbp), %ebx
	cmpl	$1000740736, -44(%rbp)  # imm = 0x3BA61780
	jne	.LBB43_41
.LBB43_40:
	movl	%ebx, %eax
	addq	$40, %rsp
	popq	%rbx
	popq	%rbp
	.cfi_def_cfa %rsp, 8
	retq
.LBB43_41:                              # %func_exit
	.cfi_def_cfa %rbp, 16
	callq	detect_breach
	jmp	.LBB43_40
.Lfunc_end43:
	.size	BZ2_bzCompress.3, .Lfunc_end43-BZ2_bzCompress.3
	.cfi_endproc
	.section	.rodata,"a",@progbits
	.p2align	3
.LJTI43_0:
	.quad	.LBB43_9
	.quad	.LBB43_10
	.quad	.LBB43_18
	.quad	.LBB43_27
                                        # -- End function
	.text
	.globl	BZ2_indexIntoF.4        # -- Begin function BZ2_indexIntoF.4
	.p2align	4, 0x90
	.type	BZ2_indexIntoF.4,@function
BZ2_indexIntoF.4:                       # @BZ2_indexIntoF.4
	.cfi_startproc
# %bb.0:                                # %entry
	pushq	%rbp
	.cfi_def_cfa_offset 16
	.cfi_offset %rbp, -16
	movq	%rsp, %rbp
	.cfi_def_cfa_register %rbp
	pushq	%rbx
	subq	$40, %rsp
	.cfi_offset %rbx, -24
	movl	$1966370545, -28(%rbp)  # imm = 0x75346EF1
	movl	%edi, -24(%rbp)
	movq	%rsi, -40(%rbp)
	movl	$0, -12(%rbp)
	movl	$256, -16(%rbp)         # imm = 0x100
.LBB44_1:                               # %do.body
                                        # =>This Inner Loop Header: Depth=1
	movl	-12(%rbp), %eax
	addl	-16(%rbp), %eax
	sarl	$1, %eax
	movl	%eax, -20(%rbp)
	movl	-24(%rbp), %eax
	movq	-40(%rbp), %rcx
	movslq	-20(%rbp), %rdx
	cmpl	(%rcx,%rdx,4), %eax
	jl	.LBB44_3
# %bb.2:                                # %if.then
                                        #   in Loop: Header=BB44_1 Depth=1
	movl	-20(%rbp), %eax
	movl	%eax, -12(%rbp)
	jmp	.LBB44_4
.LBB44_3:                               # %if.else
                                        #   in Loop: Header=BB44_1 Depth=1
	movl	-20(%rbp), %eax
	movl	%eax, -16(%rbp)
.LBB44_4:                               # %if.end
                                        #   in Loop: Header=BB44_1 Depth=1
	jmp	.LBB44_5
.LBB44_5:                               # %do.cond
                                        #   in Loop: Header=BB44_1 Depth=1
	movl	-16(%rbp), %eax
	subl	-12(%rbp), %eax
	cmpl	$1, %eax
	jne	.LBB44_1
# %bb.6:                                # %do.end
	movl	-12(%rbp), %ebx
	cmpl	$1966370545, -28(%rbp)  # imm = 0x75346EF1
	jne	.LBB44_8
.LBB44_7:
	movl	%ebx, %eax
	addq	$40, %rsp
	popq	%rbx
	popq	%rbp
	.cfi_def_cfa %rsp, 8
	retq
.LBB44_8:                               # %func_exit
	.cfi_def_cfa %rbp, 16
	callq	detect_breach
	jmp	.LBB44_7
.Lfunc_end44:
	.size	BZ2_indexIntoF.4, .Lfunc_end44-BZ2_indexIntoF.4
	.cfi_endproc
                                        # -- End function
	.globl	BZ2_bzerror.5           # -- Begin function BZ2_bzerror.5
	.p2align	4, 0x90
	.type	BZ2_bzerror.5,@function
BZ2_bzerror.5:                          # @BZ2_bzerror.5
	.cfi_startproc
# %bb.0:                                # %entry
	pushq	%rbp
	.cfi_def_cfa_offset 16
	.cfi_offset %rbp, -16
	movq	%rsp, %rbp
	.cfi_def_cfa_register %rbp
	pushq	%rbx
	subq	$24, %rsp
	.cfi_offset %rbx, -24
	movl	$536970185, -16(%rbp)   # imm = 0x200183C9
	movq	%rdi, -32(%rbp)
	movq	%rsi, -24(%rbp)
	movq	-32(%rbp), %rax
	movl	5096(%rax), %eax
	movl	%eax, -12(%rbp)
	cmpl	$0, -12(%rbp)
	jle	.LBB45_2
# %bb.1:                                # %if.then
	movl	$0, -12(%rbp)
.LBB45_2:                               # %if.end
	movl	-12(%rbp), %eax
	movq	-24(%rbp), %rcx
	movl	%eax, (%rcx)
	imull	$-1, -12(%rbp), %eax
	cltq
	movq	bzerrorstrings(,%rax,8), %rbx
	cmpl	$536970185, -16(%rbp)   # imm = 0x200183C9
	jne	.LBB45_4
.LBB45_3:
	movq	%rbx, %rax
	addq	$24, %rsp
	popq	%rbx
	popq	%rbp
	.cfi_def_cfa %rsp, 8
	retq
.LBB45_4:                               # %func_exit
	.cfi_def_cfa %rbp, 16
	callq	detect_breach
	jmp	.LBB45_3
.Lfunc_end45:
	.size	BZ2_bzerror.5, .Lfunc_end45-BZ2_bzerror.5
	.cfi_endproc
                                        # -- End function
	.globl	BZ2_bzdopen.6           # -- Begin function BZ2_bzdopen.6
	.p2align	4, 0x90
	.type	BZ2_bzdopen.6,@function
BZ2_bzdopen.6:                          # @BZ2_bzdopen.6
	.cfi_startproc
# %bb.0:                                # %entry
	pushq	%rbp
	.cfi_def_cfa_offset 16
	.cfi_offset %rbp, -16
	movq	%rsp, %rbp
	.cfi_def_cfa_register %rbp
	pushq	%rbx
	subq	$24, %rsp
	.cfi_offset %rbx, -24
	movl	$1120858538, -12(%rbp)  # imm = 0x42CEF1AA
	movl	%edi, -16(%rbp)
	movq	%rsi, -24(%rbp)
	movl	-16(%rbp), %esi
	movq	-24(%rbp), %rdx
	xorl	%edi, %edi
	movl	$1, %ecx
	callq	bzopen_or_bzdopen
	movq	%rax, %rbx
	cmpl	$1120858538, -12(%rbp)  # imm = 0x42CEF1AA
	jne	.LBB46_2
.LBB46_1:
	movq	%rbx, %rax
	addq	$24, %rsp
	popq	%rbx
	popq	%rbp
	.cfi_def_cfa %rsp, 8
	retq
.LBB46_2:                               # %func_exit
	.cfi_def_cfa %rbp, 16
	callq	detect_breach
	jmp	.LBB46_1
.Lfunc_end46:
	.size	BZ2_bzdopen.6, .Lfunc_end46-BZ2_bzdopen.6
	.cfi_endproc
                                        # -- End function
	.p2align	4, 0x90         # -- Begin function isempty_RL.7
	.type	isempty_RL.7,@function
isempty_RL.7:                           # @isempty_RL.7
	.cfi_startproc
# %bb.0:                                # %entry
	pushq	%rbp
	.cfi_def_cfa_offset 16
	.cfi_offset %rbp, -16
	movq	%rsp, %rbp
	.cfi_def_cfa_register %rbp
	pushq	%rbx
	subq	$24, %rsp
	.cfi_offset %rbx, -24
	movl	$1560105908, -16(%rbp)  # imm = 0x5CFD53B4
	movq	%rdi, -24(%rbp)
	movq	-24(%rbp), %rax
	cmpl	$256, 92(%rax)          # imm = 0x100
	jae	.LBB47_3
# %bb.1:                                # %land.lhs.true
	movq	-24(%rbp), %rax
	cmpl	$0, 96(%rax)
	jle	.LBB47_3
# %bb.2:                                # %if.then
	movb	$0, -9(%rbp)
	jmp	.LBB47_4
.LBB47_3:                               # %if.else
	movb	$1, -9(%rbp)
.LBB47_4:                               # %return
	movb	-9(%rbp), %bl
	cmpl	$1560105908, -16(%rbp)  # imm = 0x5CFD53B4
	jne	.LBB47_6
.LBB47_5:
	movzbl	%bl, %eax
	addq	$24, %rsp
	popq	%rbx
	popq	%rbp
	.cfi_def_cfa %rsp, 8
	retq
.LBB47_6:                               # %func_exit
	.cfi_def_cfa %rbp, 16
	callq	detect_breach
	jmp	.LBB47_5
.Lfunc_end47:
	.size	isempty_RL.7, .Lfunc_end47-isempty_RL.7
	.cfi_endproc
                                        # -- End function
	.globl	BZ2_bzReadClose.8       # -- Begin function BZ2_bzReadClose.8
	.p2align	4, 0x90
	.type	BZ2_bzReadClose.8,@function
BZ2_bzReadClose.8:                      # @BZ2_bzReadClose.8
	.cfi_startproc
# %bb.0:                                # %entry
	pushq	%rbp
	.cfi_def_cfa_offset 16
	.cfi_offset %rbp, -16
	movq	%rsp, %rbp
	.cfi_def_cfa_register %rbp
	subq	$32, %rsp
	movl	$118668754, -20(%rbp)   # imm = 0x712BDD2
	movq	%rdi, -16(%rbp)
	movq	%rsi, -32(%rbp)
	movq	-32(%rbp), %rax
	movq	%rax, -8(%rbp)
	cmpq	$0, -16(%rbp)
	je	.LBB48_2
# %bb.1:                                # %if.then
	movq	-16(%rbp), %rax
	movl	$0, (%rax)
.LBB48_2:                               # %if.end
	cmpq	$0, -8(%rbp)
	je	.LBB48_4
# %bb.3:                                # %if.then2
	movq	-8(%rbp), %rax
	movl	$0, 5096(%rax)
.LBB48_4:                               # %if.end3
	cmpq	$0, -8(%rbp)
	jne	.LBB48_10
# %bb.5:                                # %if.then5
	cmpq	$0, -16(%rbp)
	je	.LBB48_7
# %bb.6:                                # %if.then7
	movq	-16(%rbp), %rax
	movl	$0, (%rax)
.LBB48_7:                               # %if.end8
	cmpq	$0, -8(%rbp)
	je	.LBB48_9
# %bb.8:                                # %if.then10
	movq	-8(%rbp), %rax
	movl	$0, 5096(%rax)
.LBB48_9:                               # %if.end12
	jmp	.LBB48_19
.LBB48_10:                              # %if.end13
	movq	-8(%rbp), %rax
	cmpb	$0, 5012(%rax)
	je	.LBB48_16
# %bb.11:                               # %if.then14
	cmpq	$0, -16(%rbp)
	je	.LBB48_13
# %bb.12:                               # %if.then16
	movq	-16(%rbp), %rax
	movl	$-1, (%rax)
.LBB48_13:                              # %if.end17
	cmpq	$0, -8(%rbp)
	je	.LBB48_15
# %bb.14:                               # %if.then19
	movq	-8(%rbp), %rax
	movl	$-1, 5096(%rax)
.LBB48_15:                              # %if.end21
	jmp	.LBB48_19
.LBB48_16:                              # %if.end22
	movq	-8(%rbp), %rax
	cmpb	$0, 5100(%rax)
	je	.LBB48_18
# %bb.17:                               # %if.then24
	movq	-8(%rbp), %rdi
	addq	$5016, %rdi             # imm = 0x1398
	callq	BZ2_bzDecompressEnd
.LBB48_18:                              # %if.end25
	movq	-8(%rbp), %rdi
	callq	free
.LBB48_19:                              # %return
	cmpl	$118668754, -20(%rbp)   # imm = 0x712BDD2
	jne	.LBB48_21
.LBB48_20:
	addq	$32, %rsp
	popq	%rbp
	.cfi_def_cfa %rsp, 8
	retq
.LBB48_21:                              # %func_exit
	.cfi_def_cfa %rbp, 16
	callq	detect_breach
	jmp	.LBB48_20
.Lfunc_end48:
	.size	BZ2_bzReadClose.8, .Lfunc_end48-BZ2_bzReadClose.8
	.cfi_endproc
                                        # -- End function
	.p2align	4, 0x90         # -- Begin function copy_input_until_stop.9
	.type	copy_input_until_stop.9,@function
copy_input_until_stop.9:                # @copy_input_until_stop.9
	.cfi_startproc
# %bb.0:                                # %entry
	pushq	%rbp
	.cfi_def_cfa_offset 16
	.cfi_offset %rbp, -16
	movq	%rsp, %rbp
	.cfi_def_cfa_register %rbp
	pushq	%rbx
	subq	$24, %rsp
	.cfi_offset %rbx, -24
	movl	$460585085, -32(%rbp)   # imm = 0x1B73F87D
	movq	%rdi, -16(%rbp)
	movb	$0, -17(%rbp)
	movq	-16(%rbp), %rax
	cmpl	$2, 8(%rax)
	jne	.LBB49_20
# %bb.1:                                # %if.then
	jmp	.LBB49_2
.LBB49_2:                               # %while.body
                                        # =>This Inner Loop Header: Depth=1
	movq	-16(%rbp), %rax
	movl	108(%rax), %eax
	movq	-16(%rbp), %rcx
	cmpl	112(%rcx), %eax
	jl	.LBB49_4
# %bb.3:                                # %if.then2
	jmp	.LBB49_19
.LBB49_4:                               # %if.end
                                        #   in Loop: Header=BB49_2 Depth=1
	movq	-16(%rbp), %rax
	movq	(%rax), %rax
	cmpl	$0, 8(%rax)
	jne	.LBB49_6
# %bb.5:                                # %if.then4
	jmp	.LBB49_19
.LBB49_6:                               # %if.end5
                                        #   in Loop: Header=BB49_2 Depth=1
	movb	$1, -17(%rbp)
	movq	-16(%rbp), %rax
	movq	(%rax), %rax
	movq	(%rax), %rax
	movzbl	(%rax), %eax
	movl	%eax, -28(%rbp)
	movl	-28(%rbp), %eax
	movq	-16(%rbp), %rcx
	cmpl	92(%rcx), %eax
	je	.LBB49_9
# %bb.7:                                # %land.lhs.true
                                        #   in Loop: Header=BB49_2 Depth=1
	movq	-16(%rbp), %rax
	cmpl	$1, 96(%rax)
	jne	.LBB49_9
# %bb.8:                                # %if.then11
                                        #   in Loop: Header=BB49_2 Depth=1
	movq	-16(%rbp), %rax
	movl	92(%rax), %eax
	movb	%al, -18(%rbp)
	movq	-16(%rbp), %rax
	movl	648(%rax), %eax
	shll	$8, %eax
	movq	-16(%rbp), %rcx
	movl	648(%rcx), %ecx
	shrl	$24, %ecx
	movzbl	-18(%rbp), %edx
	xorl	%edx, %ecx
	movl	%ecx, %ecx
	xorl	BZ2_crc32Table(,%rcx,4), %eax
	movq	-16(%rbp), %rcx
	movl	%eax, 648(%rcx)
	movq	-16(%rbp), %rax
	movq	-16(%rbp), %rcx
	movl	92(%rcx), %ecx
	movb	$1, 128(%rax,%rcx)
	movb	-18(%rbp), %al
	movq	-16(%rbp), %rcx
	movq	64(%rcx), %rcx
	movq	-16(%rbp), %rdx
	movslq	108(%rdx), %rdx
	movb	%al, (%rcx,%rdx)
	movq	-16(%rbp), %rax
	movl	108(%rax), %ecx
	addl	$1, %ecx
	movl	%ecx, 108(%rax)
	movl	-28(%rbp), %eax
	movq	-16(%rbp), %rcx
	movl	%eax, 92(%rcx)
	jmp	.LBB49_16
.LBB49_9:                               # %if.else
                                        #   in Loop: Header=BB49_2 Depth=1
	movl	-28(%rbp), %eax
	movq	-16(%rbp), %rcx
	cmpl	92(%rcx), %eax
	jne	.LBB49_11
# %bb.10:                               # %lor.lhs.false
                                        #   in Loop: Header=BB49_2 Depth=1
	movq	-16(%rbp), %rax
	cmpl	$255, 96(%rax)
	jne	.LBB49_14
.LBB49_11:                              # %if.then32
                                        #   in Loop: Header=BB49_2 Depth=1
	movq	-16(%rbp), %rax
	cmpl	$256, 92(%rax)          # imm = 0x100
	jae	.LBB49_13
# %bb.12:                               # %if.then36
                                        #   in Loop: Header=BB49_2 Depth=1
	movq	-16(%rbp), %rdi
	callq	add_pair_to_block
.LBB49_13:                              # %if.end37
                                        #   in Loop: Header=BB49_2 Depth=1
	movl	-28(%rbp), %eax
	movq	-16(%rbp), %rcx
	movl	%eax, 92(%rcx)
	movq	-16(%rbp), %rax
	movl	$1, 96(%rax)
	jmp	.LBB49_15
.LBB49_14:                              # %if.else40
                                        #   in Loop: Header=BB49_2 Depth=1
	movq	-16(%rbp), %rax
	movl	96(%rax), %ecx
	addl	$1, %ecx
	movl	%ecx, 96(%rax)
.LBB49_15:                              # %if.end43
                                        #   in Loop: Header=BB49_2 Depth=1
	jmp	.LBB49_16
.LBB49_16:                              # %if.end44
                                        #   in Loop: Header=BB49_2 Depth=1
	movq	-16(%rbp), %rax
	movq	(%rax), %rax
	movq	(%rax), %rcx
	addq	$1, %rcx
	movq	%rcx, (%rax)
	movq	-16(%rbp), %rax
	movq	(%rax), %rax
	movl	8(%rax), %ecx
	addl	$-1, %ecx
	movl	%ecx, 8(%rax)
	movq	-16(%rbp), %rax
	movq	(%rax), %rax
	movl	12(%rax), %ecx
	addl	$1, %ecx
	movl	%ecx, 12(%rax)
	movq	-16(%rbp), %rax
	movq	(%rax), %rax
	cmpl	$0, 12(%rax)
	jne	.LBB49_18
# %bb.17:                               # %if.then55
                                        #   in Loop: Header=BB49_2 Depth=1
	movq	-16(%rbp), %rax
	movq	(%rax), %rax
	movl	16(%rax), %ecx
	addl	$1, %ecx
	movl	%ecx, 16(%rax)
.LBB49_18:                              # %if.end58
                                        #   in Loop: Header=BB49_2 Depth=1
	jmp	.LBB49_2
.LBB49_19:                              # %while.end
	jmp	.LBB49_41
.LBB49_20:                              # %if.else59
	jmp	.LBB49_21
.LBB49_21:                              # %while.body60
                                        # =>This Inner Loop Header: Depth=1
	movq	-16(%rbp), %rax
	movl	108(%rax), %eax
	movq	-16(%rbp), %rcx
	cmpl	112(%rcx), %eax
	jl	.LBB49_23
# %bb.22:                               # %if.then65
	jmp	.LBB49_40
.LBB49_23:                              # %if.end66
                                        #   in Loop: Header=BB49_21 Depth=1
	movq	-16(%rbp), %rax
	movq	(%rax), %rax
	cmpl	$0, 8(%rax)
	jne	.LBB49_25
# %bb.24:                               # %if.then71
	jmp	.LBB49_40
.LBB49_25:                              # %if.end72
                                        #   in Loop: Header=BB49_21 Depth=1
	movq	-16(%rbp), %rax
	cmpl	$0, 16(%rax)
	jne	.LBB49_27
# %bb.26:                               # %if.then75
	jmp	.LBB49_40
.LBB49_27:                              # %if.end76
                                        #   in Loop: Header=BB49_21 Depth=1
	movb	$1, -17(%rbp)
	movq	-16(%rbp), %rax
	movq	(%rax), %rax
	movq	(%rax), %rax
	movzbl	(%rax), %eax
	movl	%eax, -24(%rbp)
	movl	-24(%rbp), %eax
	movq	-16(%rbp), %rcx
	cmpl	92(%rcx), %eax
	je	.LBB49_30
# %bb.28:                               # %land.lhs.true84
                                        #   in Loop: Header=BB49_21 Depth=1
	movq	-16(%rbp), %rax
	cmpl	$1, 96(%rax)
	jne	.LBB49_30
# %bb.29:                               # %if.then88
                                        #   in Loop: Header=BB49_21 Depth=1
	movq	-16(%rbp), %rax
	movl	92(%rax), %eax
	movb	%al, -19(%rbp)
	movq	-16(%rbp), %rax
	movl	648(%rax), %eax
	shll	$8, %eax
	movq	-16(%rbp), %rcx
	movl	648(%rcx), %ecx
	shrl	$24, %ecx
	movzbl	-19(%rbp), %edx
	xorl	%edx, %ecx
	movl	%ecx, %ecx
	xorl	BZ2_crc32Table(,%rcx,4), %eax
	movq	-16(%rbp), %rcx
	movl	%eax, 648(%rcx)
	movq	-16(%rbp), %rax
	movq	-16(%rbp), %rcx
	movl	92(%rcx), %ecx
	movb	$1, 128(%rax,%rcx)
	movb	-19(%rbp), %al
	movq	-16(%rbp), %rcx
	movq	64(%rcx), %rcx
	movq	-16(%rbp), %rdx
	movslq	108(%rdx), %rdx
	movb	%al, (%rcx,%rdx)
	movq	-16(%rbp), %rax
	movl	108(%rax), %ecx
	addl	$1, %ecx
	movl	%ecx, 108(%rax)
	movl	-24(%rbp), %eax
	movq	-16(%rbp), %rcx
	movl	%eax, 92(%rcx)
	jmp	.LBB49_37
.LBB49_30:                              # %if.else113
                                        #   in Loop: Header=BB49_21 Depth=1
	movl	-24(%rbp), %eax
	movq	-16(%rbp), %rcx
	cmpl	92(%rcx), %eax
	jne	.LBB49_32
# %bb.31:                               # %lor.lhs.false117
                                        #   in Loop: Header=BB49_21 Depth=1
	movq	-16(%rbp), %rax
	cmpl	$255, 96(%rax)
	jne	.LBB49_35
.LBB49_32:                              # %if.then121
                                        #   in Loop: Header=BB49_21 Depth=1
	movq	-16(%rbp), %rax
	cmpl	$256, 92(%rax)          # imm = 0x100
	jae	.LBB49_34
# %bb.33:                               # %if.then125
                                        #   in Loop: Header=BB49_21 Depth=1
	movq	-16(%rbp), %rdi
	callq	add_pair_to_block
.LBB49_34:                              # %if.end126
                                        #   in Loop: Header=BB49_21 Depth=1
	movl	-24(%rbp), %eax
	movq	-16(%rbp), %rcx
	movl	%eax, 92(%rcx)
	movq	-16(%rbp), %rax
	movl	$1, 96(%rax)
	jmp	.LBB49_36
.LBB49_35:                              # %if.else129
                                        #   in Loop: Header=BB49_21 Depth=1
	movq	-16(%rbp), %rax
	movl	96(%rax), %ecx
	addl	$1, %ecx
	movl	%ecx, 96(%rax)
.LBB49_36:                              # %if.end132
                                        #   in Loop: Header=BB49_21 Depth=1
	jmp	.LBB49_37
.LBB49_37:                              # %if.end133
                                        #   in Loop: Header=BB49_21 Depth=1
	movq	-16(%rbp), %rax
	movq	(%rax), %rax
	movq	(%rax), %rcx
	addq	$1, %rcx
	movq	%rcx, (%rax)
	movq	-16(%rbp), %rax
	movq	(%rax), %rax
	movl	8(%rax), %ecx
	addl	$-1, %ecx
	movl	%ecx, 8(%rax)
	movq	-16(%rbp), %rax
	movq	(%rax), %rax
	movl	12(%rax), %ecx
	addl	$1, %ecx
	movl	%ecx, 12(%rax)
	movq	-16(%rbp), %rax
	movq	(%rax), %rax
	cmpl	$0, 12(%rax)
	jne	.LBB49_39
# %bb.38:                               # %if.then147
                                        #   in Loop: Header=BB49_21 Depth=1
	movq	-16(%rbp), %rax
	movq	(%rax), %rax
	movl	16(%rax), %ecx
	addl	$1, %ecx
	movl	%ecx, 16(%rax)
.LBB49_39:                              # %if.end151
                                        #   in Loop: Header=BB49_21 Depth=1
	movq	-16(%rbp), %rax
	movl	16(%rax), %ecx
	addl	$-1, %ecx
	movl	%ecx, 16(%rax)
	jmp	.LBB49_21
.LBB49_40:                              # %while.end154
	jmp	.LBB49_41
.LBB49_41:                              # %if.end155
	movb	-17(%rbp), %bl
	cmpl	$460585085, -32(%rbp)   # imm = 0x1B73F87D
	jne	.LBB49_43
.LBB49_42:
	movzbl	%bl, %eax
	addq	$24, %rsp
	popq	%rbx
	popq	%rbp
	.cfi_def_cfa %rsp, 8
	retq
.LBB49_43:                              # %func_exit
	.cfi_def_cfa %rbp, 16
	callq	detect_breach
	jmp	.LBB49_42
.Lfunc_end49:
	.size	copy_input_until_stop.9, .Lfunc_end49-copy_input_until_stop.9
	.cfi_endproc
                                        # -- End function
	.globl	BZ2_bzCompressEnd.10    # -- Begin function BZ2_bzCompressEnd.10
	.p2align	4, 0x90
	.type	BZ2_bzCompressEnd.10,@function
BZ2_bzCompressEnd.10:                   # @BZ2_bzCompressEnd.10
	.cfi_startproc
# %bb.0:                                # %entry
	pushq	%rbp
	.cfi_def_cfa_offset 16
	.cfi_offset %rbp, -16
	movq	%rsp, %rbp
	.cfi_def_cfa_register %rbp
	pushq	%rbx
	subq	$40, %rsp
	.cfi_offset %rbx, -24
	movl	$2033043039, -36(%rbp)  # imm = 0x792DC65F
	movq	%rdi, -16(%rbp)
	cmpq	$0, -16(%rbp)
	jne	.LBB50_2
# %bb.1:                                # %if.then
	movl	$-2, -20(%rbp)
	jmp	.LBB50_13
.LBB50_2:                               # %if.end
	movq	-16(%rbp), %rax
	movq	48(%rax), %rax
	movq	%rax, -32(%rbp)
	cmpq	$0, -32(%rbp)
	jne	.LBB50_4
# %bb.3:                                # %if.then2
	movl	$-2, -20(%rbp)
	jmp	.LBB50_13
.LBB50_4:                               # %if.end3
	movq	-32(%rbp), %rax
	movq	(%rax), %rax
	cmpq	-16(%rbp), %rax
	je	.LBB50_6
# %bb.5:                                # %if.then6
	movl	$-2, -20(%rbp)
	jmp	.LBB50_13
.LBB50_6:                               # %if.end7
	movq	-32(%rbp), %rax
	cmpq	$0, 24(%rax)
	je	.LBB50_8
# %bb.7:                                # %if.then9
	movq	-16(%rbp), %rax
	movq	64(%rax), %rax
	movq	-16(%rbp), %rcx
	movq	72(%rcx), %rdi
	movq	-32(%rbp), %rcx
	movq	24(%rcx), %rsi
	callq	*%rax
.LBB50_8:                               # %if.end11
	movq	-32(%rbp), %rax
	cmpq	$0, 32(%rax)
	je	.LBB50_10
# %bb.9:                                # %if.then13
	movq	-16(%rbp), %rax
	movq	64(%rax), %rax
	movq	-16(%rbp), %rcx
	movq	72(%rcx), %rdi
	movq	-32(%rbp), %rcx
	movq	32(%rcx), %rsi
	callq	*%rax
.LBB50_10:                              # %if.end17
	movq	-32(%rbp), %rax
	cmpq	$0, 40(%rax)
	je	.LBB50_12
# %bb.11:                               # %if.then19
	movq	-16(%rbp), %rax
	movq	64(%rax), %rax
	movq	-16(%rbp), %rcx
	movq	72(%rcx), %rdi
	movq	-32(%rbp), %rcx
	movq	40(%rcx), %rsi
	callq	*%rax
.LBB50_12:                              # %if.end23
	movq	-16(%rbp), %rax
	movq	64(%rax), %rax
	movq	-16(%rbp), %rcx
	movq	72(%rcx), %rdi
	movq	-16(%rbp), %rcx
	movq	48(%rcx), %rsi
	callq	*%rax
	movq	-16(%rbp), %rax
	movq	$0, 48(%rax)
	movl	$0, -20(%rbp)
.LBB50_13:                              # %return
	movl	-20(%rbp), %ebx
	cmpl	$2033043039, -36(%rbp)  # imm = 0x792DC65F
	jne	.LBB50_15
.LBB50_14:
	movl	%ebx, %eax
	addq	$40, %rsp
	popq	%rbx
	popq	%rbp
	.cfi_def_cfa %rsp, 8
	retq
.LBB50_15:                              # %func_exit
	.cfi_def_cfa %rbp, 16
	callq	detect_breach
	jmp	.LBB50_14
.Lfunc_end50:
	.size	BZ2_bzCompressEnd.10, .Lfunc_end50-BZ2_bzCompressEnd.10
	.cfi_endproc
                                        # -- End function
	.p2align	4, 0x90         # -- Begin function unRLE_obuf_to_output_FAST.11
	.type	unRLE_obuf_to_output_FAST.11,@function
unRLE_obuf_to_output_FAST.11:           # @unRLE_obuf_to_output_FAST.11
	.cfi_startproc
# %bb.0:                                # %entry
	pushq	%rbp
	.cfi_def_cfa_offset 16
	.cfi_offset %rbp, -16
	movq	%rsp, %rbp
	.cfi_def_cfa_register %rbp
	pushq	%rbx
	subq	$88, %rsp
	.cfi_offset %rbx, -24
	movl	$1582265839, -84(%rbp)  # imm = 0x5E4F75EF
	movq	%rdi, -24(%rbp)
	movq	-24(%rbp), %rax
	cmpb	$0, 20(%rax)
	je	.LBB51_48
# %bb.1:                                # %if.then
	jmp	.LBB51_2
.LBB51_2:                               # %while.body
                                        # =>This Loop Header: Depth=1
                                        #     Child Loop BB51_3 Depth 2
	jmp	.LBB51_3
.LBB51_3:                               # %while.body2
                                        #   Parent Loop BB51_2 Depth=1
                                        # =>  This Inner Loop Header: Depth=2
	movq	-24(%rbp), %rax
	movq	(%rax), %rax
	cmpl	$0, 32(%rax)
	jne	.LBB51_5
# %bb.4:                                # %if.then3
	movb	$0, -33(%rbp)
	jmp	.LBB51_82
.LBB51_5:                               # %if.end
                                        #   in Loop: Header=BB51_3 Depth=2
	movq	-24(%rbp), %rax
	cmpl	$0, 16(%rax)
	jne	.LBB51_7
# %bb.6:                                # %if.then5
                                        #   in Loop: Header=BB51_2 Depth=1
	jmp	.LBB51_10
.LBB51_7:                               # %if.end6
                                        #   in Loop: Header=BB51_3 Depth=2
	movq	-24(%rbp), %rax
	movb	12(%rax), %al
	movq	-24(%rbp), %rcx
	movq	(%rcx), %rcx
	movq	24(%rcx), %rcx
	movb	%al, (%rcx)
	movq	-24(%rbp), %rax
	movl	3184(%rax), %eax
	shll	$8, %eax
	movq	-24(%rbp), %rcx
	movl	3184(%rcx), %ecx
	shrl	$24, %ecx
	movq	-24(%rbp), %rdx
	movzbl	12(%rdx), %edx
	xorl	%edx, %ecx
	movl	%ecx, %ecx
	xorl	BZ2_crc32Table(,%rcx,4), %eax
	movq	-24(%rbp), %rcx
	movl	%eax, 3184(%rcx)
	movq	-24(%rbp), %rax
	movl	16(%rax), %ecx
	addl	$-1, %ecx
	movl	%ecx, 16(%rax)
	movq	-24(%rbp), %rax
	movq	(%rax), %rax
	movq	24(%rax), %rcx
	addq	$1, %rcx
	movq	%rcx, 24(%rax)
	movq	-24(%rbp), %rax
	movq	(%rax), %rax
	movl	32(%rax), %ecx
	addl	$-1, %ecx
	movl	%ecx, 32(%rax)
	movq	-24(%rbp), %rax
	movq	(%rax), %rax
	movl	36(%rax), %ecx
	addl	$1, %ecx
	movl	%ecx, 36(%rax)
	movq	-24(%rbp), %rax
	movq	(%rax), %rax
	cmpl	$0, 36(%rax)
	jne	.LBB51_9
# %bb.8:                                # %if.then23
                                        #   in Loop: Header=BB51_3 Depth=2
	movq	-24(%rbp), %rax
	movq	(%rax), %rax
	movl	40(%rax), %ecx
	addl	$1, %ecx
	movl	%ecx, 40(%rax)
.LBB51_9:                               # %if.end26
                                        #   in Loop: Header=BB51_3 Depth=2
	jmp	.LBB51_3
.LBB51_10:                              # %while.end
                                        #   in Loop: Header=BB51_2 Depth=1
	movq	-24(%rbp), %rax
	movl	1092(%rax), %eax
	movq	-24(%rbp), %rcx
	movl	64080(%rcx), %ecx
	addl	$1, %ecx
	cmpl	%ecx, %eax
	jne	.LBB51_12
# %bb.11:                               # %if.then29
	movb	$0, -33(%rbp)
	jmp	.LBB51_82
.LBB51_12:                              # %if.end30
                                        #   in Loop: Header=BB51_2 Depth=1
	movq	-24(%rbp), %rax
	movl	1092(%rax), %eax
	movq	-24(%rbp), %rcx
	movl	64080(%rcx), %ecx
	addl	$1, %ecx
	cmpl	%ecx, %eax
	jle	.LBB51_14
# %bb.13:                               # %if.then36
	movb	$1, -33(%rbp)
	jmp	.LBB51_82
.LBB51_14:                              # %if.end37
                                        #   in Loop: Header=BB51_2 Depth=1
	movq	-24(%rbp), %rax
	movl	$1, 16(%rax)
	movq	-24(%rbp), %rax
	movl	64(%rax), %eax
	movq	-24(%rbp), %rcx
	movb	%al, 12(%rcx)
	movq	-24(%rbp), %rax
	movq	3152(%rax), %rax
	movq	-24(%rbp), %rcx
	movl	60(%rcx), %ecx
	movl	(%rax,%rcx,4), %eax
	movq	-24(%rbp), %rcx
	movl	%eax, 60(%rcx)
	movq	-24(%rbp), %rax
	movl	60(%rax), %eax
	andl	$255, %eax
	movb	%al, -9(%rbp)
	movq	-24(%rbp), %rax
	movl	60(%rax), %ecx
	shrl	$8, %ecx
	movl	%ecx, 60(%rax)
	movq	-24(%rbp), %rax
	cmpl	$0, 24(%rax)
	jne	.LBB51_18
# %bb.15:                               # %if.then50
                                        #   in Loop: Header=BB51_2 Depth=1
	movq	-24(%rbp), %rax
	movslq	28(%rax), %rax
	movl	BZ2_rNums(,%rax,4), %eax
	movq	-24(%rbp), %rcx
	movl	%eax, 24(%rcx)
	movq	-24(%rbp), %rax
	movl	28(%rax), %ecx
	addl	$1, %ecx
	movl	%ecx, 28(%rax)
	movq	-24(%rbp), %rax
	cmpl	$512, 28(%rax)          # imm = 0x200
	jne	.LBB51_17
# %bb.16:                               # %if.then59
                                        #   in Loop: Header=BB51_2 Depth=1
	movq	-24(%rbp), %rax
	movl	$0, 28(%rax)
.LBB51_17:                              # %if.end61
                                        #   in Loop: Header=BB51_2 Depth=1
	jmp	.LBB51_18
.LBB51_18:                              # %if.end62
                                        #   in Loop: Header=BB51_2 Depth=1
	xorl	%eax, %eax
	movq	-24(%rbp), %rcx
	movl	24(%rcx), %edx
	addl	$-1, %edx
	movl	%edx, 24(%rcx)
	movq	-24(%rbp), %rcx
	movl	24(%rcx), %ecx
	cmpl	$1, %ecx
	movl	$1, %ecx
	cmovel	%ecx, %eax
	movzbl	-9(%rbp), %ecx
	xorl	%eax, %ecx
	movb	%cl, -9(%rbp)
	movq	-24(%rbp), %rax
	movl	1092(%rax), %ecx
	addl	$1, %ecx
	movl	%ecx, 1092(%rax)
	movq	-24(%rbp), %rax
	movl	1092(%rax), %eax
	movq	-24(%rbp), %rcx
	movl	64080(%rcx), %ecx
	addl	$1, %ecx
	cmpl	%ecx, %eax
	jne	.LBB51_21
# %bb.19:                               # %if.then78
                                        #   in Loop: Header=BB51_2 Depth=1
	jmp	.LBB51_20
.LBB51_20:                              # %while.body.backedge
                                        #   in Loop: Header=BB51_2 Depth=1
	jmp	.LBB51_2
.LBB51_21:                              # %if.end79
                                        #   in Loop: Header=BB51_2 Depth=1
	movzbl	-9(%rbp), %eax
	movq	-24(%rbp), %rcx
	cmpl	64(%rcx), %eax
	je	.LBB51_23
# %bb.22:                               # %if.then84
                                        #   in Loop: Header=BB51_2 Depth=1
	movzbl	-9(%rbp), %eax
	movq	-24(%rbp), %rcx
	movl	%eax, 64(%rcx)
	jmp	.LBB51_20
.LBB51_23:                              # %if.end87
                                        #   in Loop: Header=BB51_2 Depth=1
	movq	-24(%rbp), %rax
	movl	$2, 16(%rax)
	movq	-24(%rbp), %rax
	movq	3152(%rax), %rax
	movq	-24(%rbp), %rcx
	movl	60(%rcx), %ecx
	movl	(%rax,%rcx,4), %eax
	movq	-24(%rbp), %rcx
	movl	%eax, 60(%rcx)
	movq	-24(%rbp), %rax
	movl	60(%rax), %eax
	andl	$255, %eax
	movb	%al, -9(%rbp)
	movq	-24(%rbp), %rax
	movl	60(%rax), %ecx
	shrl	$8, %ecx
	movl	%ecx, 60(%rax)
	movq	-24(%rbp), %rax
	cmpl	$0, 24(%rax)
	jne	.LBB51_27
# %bb.24:                               # %if.then102
                                        #   in Loop: Header=BB51_2 Depth=1
	movq	-24(%rbp), %rax
	movslq	28(%rax), %rax
	movl	BZ2_rNums(,%rax,4), %eax
	movq	-24(%rbp), %rcx
	movl	%eax, 24(%rcx)
	movq	-24(%rbp), %rax
	movl	28(%rax), %ecx
	addl	$1, %ecx
	movl	%ecx, 28(%rax)
	movq	-24(%rbp), %rax
	cmpl	$512, 28(%rax)          # imm = 0x200
	jne	.LBB51_26
# %bb.25:                               # %if.then112
                                        #   in Loop: Header=BB51_2 Depth=1
	movq	-24(%rbp), %rax
	movl	$0, 28(%rax)
.LBB51_26:                              # %if.end114
                                        #   in Loop: Header=BB51_2 Depth=1
	jmp	.LBB51_27
.LBB51_27:                              # %if.end115
                                        #   in Loop: Header=BB51_2 Depth=1
	xorl	%eax, %eax
	movq	-24(%rbp), %rcx
	movl	24(%rcx), %edx
	addl	$-1, %edx
	movl	%edx, 24(%rcx)
	movq	-24(%rbp), %rcx
	movl	24(%rcx), %ecx
	cmpl	$1, %ecx
	movl	$1, %ecx
	cmovel	%ecx, %eax
	movzbl	-9(%rbp), %ecx
	xorl	%eax, %ecx
	movb	%cl, -9(%rbp)
	movq	-24(%rbp), %rax
	movl	1092(%rax), %ecx
	addl	$1, %ecx
	movl	%ecx, 1092(%rax)
	movq	-24(%rbp), %rax
	movl	1092(%rax), %eax
	movq	-24(%rbp), %rcx
	movl	64080(%rcx), %ecx
	addl	$1, %ecx
	cmpl	%ecx, %eax
	jne	.LBB51_29
# %bb.28:                               # %if.then132
                                        #   in Loop: Header=BB51_2 Depth=1
	jmp	.LBB51_20
.LBB51_29:                              # %if.end133
                                        #   in Loop: Header=BB51_2 Depth=1
	movzbl	-9(%rbp), %eax
	movq	-24(%rbp), %rcx
	cmpl	64(%rcx), %eax
	je	.LBB51_31
# %bb.30:                               # %if.then138
                                        #   in Loop: Header=BB51_2 Depth=1
	movzbl	-9(%rbp), %eax
	movq	-24(%rbp), %rcx
	movl	%eax, 64(%rcx)
	jmp	.LBB51_20
.LBB51_31:                              # %if.end141
                                        #   in Loop: Header=BB51_2 Depth=1
	movq	-24(%rbp), %rax
	movl	$3, 16(%rax)
	movq	-24(%rbp), %rax
	movq	3152(%rax), %rax
	movq	-24(%rbp), %rcx
	movl	60(%rcx), %ecx
	movl	(%rax,%rcx,4), %eax
	movq	-24(%rbp), %rcx
	movl	%eax, 60(%rcx)
	movq	-24(%rbp), %rax
	movl	60(%rax), %eax
	andl	$255, %eax
	movb	%al, -9(%rbp)
	movq	-24(%rbp), %rax
	movl	60(%rax), %ecx
	shrl	$8, %ecx
	movl	%ecx, 60(%rax)
	movq	-24(%rbp), %rax
	cmpl	$0, 24(%rax)
	jne	.LBB51_35
# %bb.32:                               # %if.then156
                                        #   in Loop: Header=BB51_2 Depth=1
	movq	-24(%rbp), %rax
	movslq	28(%rax), %rax
	movl	BZ2_rNums(,%rax,4), %eax
	movq	-24(%rbp), %rcx
	movl	%eax, 24(%rcx)
	movq	-24(%rbp), %rax
	movl	28(%rax), %ecx
	addl	$1, %ecx
	movl	%ecx, 28(%rax)
	movq	-24(%rbp), %rax
	cmpl	$512, 28(%rax)          # imm = 0x200
	jne	.LBB51_34
# %bb.33:                               # %if.then166
                                        #   in Loop: Header=BB51_2 Depth=1
	movq	-24(%rbp), %rax
	movl	$0, 28(%rax)
.LBB51_34:                              # %if.end168
                                        #   in Loop: Header=BB51_2 Depth=1
	jmp	.LBB51_35
.LBB51_35:                              # %if.end169
                                        #   in Loop: Header=BB51_2 Depth=1
	xorl	%eax, %eax
	movq	-24(%rbp), %rcx
	movl	24(%rcx), %edx
	addl	$-1, %edx
	movl	%edx, 24(%rcx)
	movq	-24(%rbp), %rcx
	movl	24(%rcx), %ecx
	cmpl	$1, %ecx
	movl	$1, %ecx
	cmovel	%ecx, %eax
	movzbl	-9(%rbp), %ecx
	xorl	%eax, %ecx
	movb	%cl, -9(%rbp)
	movq	-24(%rbp), %rax
	movl	1092(%rax), %ecx
	addl	$1, %ecx
	movl	%ecx, 1092(%rax)
	movq	-24(%rbp), %rax
	movl	1092(%rax), %eax
	movq	-24(%rbp), %rcx
	movl	64080(%rcx), %ecx
	addl	$1, %ecx
	cmpl	%ecx, %eax
	jne	.LBB51_37
# %bb.36:                               # %if.then186
                                        #   in Loop: Header=BB51_2 Depth=1
	jmp	.LBB51_20
.LBB51_37:                              # %if.end187
                                        #   in Loop: Header=BB51_2 Depth=1
	movzbl	-9(%rbp), %eax
	movq	-24(%rbp), %rcx
	cmpl	64(%rcx), %eax
	je	.LBB51_39
# %bb.38:                               # %if.then192
                                        #   in Loop: Header=BB51_2 Depth=1
	movzbl	-9(%rbp), %eax
	movq	-24(%rbp), %rcx
	movl	%eax, 64(%rcx)
	jmp	.LBB51_20
.LBB51_39:                              # %if.end195
                                        #   in Loop: Header=BB51_2 Depth=1
	movq	-24(%rbp), %rax
	movq	3152(%rax), %rax
	movq	-24(%rbp), %rcx
	movl	60(%rcx), %ecx
	movl	(%rax,%rcx,4), %eax
	movq	-24(%rbp), %rcx
	movl	%eax, 60(%rcx)
	movq	-24(%rbp), %rax
	movl	60(%rax), %eax
	andl	$255, %eax
	movb	%al, -9(%rbp)
	movq	-24(%rbp), %rax
	movl	60(%rax), %ecx
	shrl	$8, %ecx
	movl	%ecx, 60(%rax)
	movq	-24(%rbp), %rax
	cmpl	$0, 24(%rax)
	jne	.LBB51_43
# %bb.40:                               # %if.then209
                                        #   in Loop: Header=BB51_2 Depth=1
	movq	-24(%rbp), %rax
	movslq	28(%rax), %rax
	movl	BZ2_rNums(,%rax,4), %eax
	movq	-24(%rbp), %rcx
	movl	%eax, 24(%rcx)
	movq	-24(%rbp), %rax
	movl	28(%rax), %ecx
	addl	$1, %ecx
	movl	%ecx, 28(%rax)
	movq	-24(%rbp), %rax
	cmpl	$512, 28(%rax)          # imm = 0x200
	jne	.LBB51_42
# %bb.41:                               # %if.then219
                                        #   in Loop: Header=BB51_2 Depth=1
	movq	-24(%rbp), %rax
	movl	$0, 28(%rax)
.LBB51_42:                              # %if.end221
                                        #   in Loop: Header=BB51_2 Depth=1
	jmp	.LBB51_43
.LBB51_43:                              # %if.end222
                                        #   in Loop: Header=BB51_2 Depth=1
	xorl	%eax, %eax
	movq	-24(%rbp), %rcx
	movl	24(%rcx), %edx
	addl	$-1, %edx
	movl	%edx, 24(%rcx)
	movq	-24(%rbp), %rcx
	movl	24(%rcx), %ecx
	cmpl	$1, %ecx
	movl	$1, %ecx
	cmovel	%ecx, %eax
	movzbl	-9(%rbp), %ecx
	xorl	%eax, %ecx
	movb	%cl, -9(%rbp)
	movq	-24(%rbp), %rax
	movl	1092(%rax), %ecx
	addl	$1, %ecx
	movl	%ecx, 1092(%rax)
	movzbl	-9(%rbp), %eax
	addl	$4, %eax
	movq	-24(%rbp), %rcx
	movl	%eax, 16(%rcx)
	movq	-24(%rbp), %rax
	movq	3152(%rax), %rax
	movq	-24(%rbp), %rcx
	movl	60(%rcx), %ecx
	movl	(%rax,%rcx,4), %eax
	movq	-24(%rbp), %rcx
	movl	%eax, 60(%rcx)
	movq	-24(%rbp), %rax
	movl	60(%rax), %eax
	andl	$255, %eax
	movzbl	%al, %eax
	movq	-24(%rbp), %rcx
	movl	%eax, 64(%rcx)
	movq	-24(%rbp), %rax
	movl	60(%rax), %ecx
	shrl	$8, %ecx
	movl	%ecx, 60(%rax)
	movq	-24(%rbp), %rax
	cmpl	$0, 24(%rax)
	jne	.LBB51_47
# %bb.44:                               # %if.then252
                                        #   in Loop: Header=BB51_2 Depth=1
	movq	-24(%rbp), %rax
	movslq	28(%rax), %rax
	movl	BZ2_rNums(,%rax,4), %eax
	movq	-24(%rbp), %rcx
	movl	%eax, 24(%rcx)
	movq	-24(%rbp), %rax
	movl	28(%rax), %ecx
	addl	$1, %ecx
	movl	%ecx, 28(%rax)
	movq	-24(%rbp), %rax
	cmpl	$512, 28(%rax)          # imm = 0x200
	jne	.LBB51_46
# %bb.45:                               # %if.then262
                                        #   in Loop: Header=BB51_2 Depth=1
	movq	-24(%rbp), %rax
	movl	$0, 28(%rax)
.LBB51_46:                              # %if.end264
                                        #   in Loop: Header=BB51_2 Depth=1
	jmp	.LBB51_47
.LBB51_47:                              # %if.end265
                                        #   in Loop: Header=BB51_2 Depth=1
	xorl	%eax, %eax
	movq	-24(%rbp), %rcx
	movl	24(%rcx), %edx
	addl	$-1, %edx
	movl	%edx, 24(%rcx)
	movq	-24(%rbp), %rcx
	movl	24(%rcx), %ecx
	cmpl	$1, %ecx
	movl	$1, %ecx
	cmovel	%ecx, %eax
	movq	-24(%rbp), %rcx
	xorl	64(%rcx), %eax
	movl	%eax, 64(%rcx)
	movq	-24(%rbp), %rax
	movl	1092(%rax), %ecx
	addl	$1, %ecx
	movl	%ecx, 1092(%rax)
	jmp	.LBB51_20
.LBB51_48:                              # %if.else
	movq	-24(%rbp), %rax
	movl	3184(%rax), %eax
	movl	%eax, -56(%rbp)
	movq	-24(%rbp), %rax
	movb	12(%rax), %al
	movb	%al, -25(%rbp)
	movq	-24(%rbp), %rax
	movl	16(%rax), %eax
	movl	%eax, -44(%rbp)
	movq	-24(%rbp), %rax
	movl	1092(%rax), %eax
	movl	%eax, -40(%rbp)
	movq	-24(%rbp), %rax
	movl	64(%rax), %eax
	movl	%eax, -52(%rbp)
	movq	-24(%rbp), %rax
	movq	3152(%rax), %rax
	movq	%rax, -80(%rbp)
	movq	-24(%rbp), %rax
	movl	60(%rax), %eax
	movl	%eax, -32(%rbp)
	movq	-24(%rbp), %rax
	movq	(%rax), %rax
	movq	24(%rax), %rax
	movq	%rax, -72(%rbp)
	movq	-24(%rbp), %rax
	movq	(%rax), %rax
	movl	32(%rax), %eax
	movl	%eax, -48(%rbp)
	movl	-48(%rbp), %eax
	movl	%eax, -88(%rbp)
	movq	-24(%rbp), %rax
	movl	64080(%rax), %eax
	addl	$1, %eax
	movl	%eax, -60(%rbp)
.LBB51_49:                              # %while.body289
                                        # =>This Loop Header: Depth=1
                                        #     Child Loop BB51_51 Depth 2
	cmpl	$0, -44(%rbp)
	jle	.LBB51_60
# %bb.50:                               # %if.then292
                                        #   in Loop: Header=BB51_49 Depth=1
	jmp	.LBB51_51
.LBB51_51:                              # %while.body294
                                        #   Parent Loop BB51_49 Depth=1
                                        # =>  This Inner Loop Header: Depth=2
	cmpl	$0, -48(%rbp)
	jne	.LBB51_53
# %bb.52:                               # %if.then297
	jmp	.LBB51_78
.LBB51_53:                              # %if.end298
                                        #   in Loop: Header=BB51_51 Depth=2
	cmpl	$1, -44(%rbp)
	jne	.LBB51_55
# %bb.54:                               # %if.then301
                                        #   in Loop: Header=BB51_49 Depth=1
	jmp	.LBB51_56
.LBB51_55:                              # %if.end302
                                        #   in Loop: Header=BB51_51 Depth=2
	movb	-25(%rbp), %al
	movq	-72(%rbp), %rcx
	movb	%al, (%rcx)
	movl	-56(%rbp), %eax
	shll	$8, %eax
	movl	-56(%rbp), %ecx
	shrl	$24, %ecx
	movzbl	-25(%rbp), %edx
	xorl	%edx, %ecx
	movl	%ecx, %ecx
	xorl	BZ2_crc32Table(,%rcx,4), %eax
	movl	%eax, -56(%rbp)
	movl	-44(%rbp), %eax
	addl	$-1, %eax
	movl	%eax, -44(%rbp)
	movq	-72(%rbp), %rax
	addq	$1, %rax
	movq	%rax, -72(%rbp)
	movl	-48(%rbp), %eax
	addl	$-1, %eax
	movl	%eax, -48(%rbp)
	jmp	.LBB51_51
.LBB51_56:                              # %while.end313
                                        #   in Loop: Header=BB51_49 Depth=1
	jmp	.LBB51_57
.LBB51_57:                              # %s_state_out_len_eq_one
                                        #   in Loop: Header=BB51_49 Depth=1
	cmpl	$0, -48(%rbp)
	jne	.LBB51_59
# %bb.58:                               # %if.then316
	movl	$1, -44(%rbp)
	jmp	.LBB51_78
.LBB51_59:                              # %if.end317
                                        #   in Loop: Header=BB51_49 Depth=1
	movb	-25(%rbp), %al
	movq	-72(%rbp), %rcx
	movb	%al, (%rcx)
	movl	-56(%rbp), %eax
	shll	$8, %eax
	movl	-56(%rbp), %ecx
	shrl	$24, %ecx
	movzbl	-25(%rbp), %edx
	xorl	%edx, %ecx
	movl	%ecx, %ecx
	xorl	BZ2_crc32Table(,%rcx,4), %eax
	movl	%eax, -56(%rbp)
	movq	-72(%rbp), %rax
	addq	$1, %rax
	movq	%rax, -72(%rbp)
	movl	-48(%rbp), %eax
	addl	$-1, %eax
	movl	%eax, -48(%rbp)
.LBB51_60:                              # %if.end327
                                        #   in Loop: Header=BB51_49 Depth=1
	movl	-40(%rbp), %eax
	cmpl	-60(%rbp), %eax
	jle	.LBB51_62
# %bb.61:                               # %if.then330
	movb	$1, -33(%rbp)
	jmp	.LBB51_82
.LBB51_62:                              # %if.end331
                                        #   in Loop: Header=BB51_49 Depth=1
	movl	-40(%rbp), %eax
	cmpl	-60(%rbp), %eax
	jne	.LBB51_64
# %bb.63:                               # %if.then334
	movl	$0, -44(%rbp)
	jmp	.LBB51_78
.LBB51_64:                              # %if.end335
                                        #   in Loop: Header=BB51_49 Depth=1
	movl	-52(%rbp), %eax
	movb	%al, -25(%rbp)
	movq	-80(%rbp), %rax
	movl	-32(%rbp), %ecx
	movl	(%rax,%rcx,4), %eax
	movl	%eax, -32(%rbp)
	movl	-32(%rbp), %eax
	andl	$255, %eax
	movb	%al, -9(%rbp)
	movl	-32(%rbp), %eax
	shrl	$8, %eax
	movl	%eax, -32(%rbp)
	movl	-40(%rbp), %eax
	addl	$1, %eax
	movl	%eax, -40(%rbp)
	movzbl	-9(%rbp), %eax
	cmpl	-52(%rbp), %eax
	je	.LBB51_66
# %bb.65:                               # %if.then346
                                        #   in Loop: Header=BB51_49 Depth=1
	movzbl	-9(%rbp), %eax
	movl	%eax, -52(%rbp)
	jmp	.LBB51_57
.LBB51_66:                              # %if.end348
                                        #   in Loop: Header=BB51_49 Depth=1
	movl	-40(%rbp), %eax
	cmpl	-60(%rbp), %eax
	jne	.LBB51_68
# %bb.67:                               # %if.then351
                                        #   in Loop: Header=BB51_49 Depth=1
	jmp	.LBB51_57
.LBB51_68:                              # %if.end352
                                        #   in Loop: Header=BB51_49 Depth=1
	movl	$2, -44(%rbp)
	movq	-80(%rbp), %rax
	movl	-32(%rbp), %ecx
	movl	(%rax,%rcx,4), %eax
	movl	%eax, -32(%rbp)
	movl	-32(%rbp), %eax
	andl	$255, %eax
	movb	%al, -9(%rbp)
	movl	-32(%rbp), %eax
	shrl	$8, %eax
	movl	%eax, -32(%rbp)
	movl	-40(%rbp), %eax
	addl	$1, %eax
	movl	%eax, -40(%rbp)
	movl	-40(%rbp), %eax
	cmpl	-60(%rbp), %eax
	jne	.LBB51_71
# %bb.69:                               # %if.then361
                                        #   in Loop: Header=BB51_49 Depth=1
	jmp	.LBB51_70
.LBB51_70:                              # %while.body289.backedge
                                        #   in Loop: Header=BB51_49 Depth=1
	jmp	.LBB51_49
.LBB51_71:                              # %if.end362
                                        #   in Loop: Header=BB51_49 Depth=1
	movzbl	-9(%rbp), %eax
	cmpl	-52(%rbp), %eax
	je	.LBB51_73
# %bb.72:                               # %if.then366
                                        #   in Loop: Header=BB51_49 Depth=1
	movzbl	-9(%rbp), %eax
	movl	%eax, -52(%rbp)
	jmp	.LBB51_70
.LBB51_73:                              # %if.end368
                                        #   in Loop: Header=BB51_49 Depth=1
	movl	$3, -44(%rbp)
	movq	-80(%rbp), %rax
	movl	-32(%rbp), %ecx
	movl	(%rax,%rcx,4), %eax
	movl	%eax, -32(%rbp)
	movl	-32(%rbp), %eax
	andl	$255, %eax
	movb	%al, -9(%rbp)
	movl	-32(%rbp), %eax
	shrl	$8, %eax
	movl	%eax, -32(%rbp)
	movl	-40(%rbp), %eax
	addl	$1, %eax
	movl	%eax, -40(%rbp)
	movl	-40(%rbp), %eax
	cmpl	-60(%rbp), %eax
	jne	.LBB51_75
# %bb.74:                               # %if.then377
                                        #   in Loop: Header=BB51_49 Depth=1
	jmp	.LBB51_70
.LBB51_75:                              # %if.end378
                                        #   in Loop: Header=BB51_49 Depth=1
	movzbl	-9(%rbp), %eax
	cmpl	-52(%rbp), %eax
	je	.LBB51_77
# %bb.76:                               # %if.then382
                                        #   in Loop: Header=BB51_49 Depth=1
	movzbl	-9(%rbp), %eax
	movl	%eax, -52(%rbp)
	jmp	.LBB51_70
.LBB51_77:                              # %if.end384
                                        #   in Loop: Header=BB51_49 Depth=1
	movq	-80(%rbp), %rax
	movl	-32(%rbp), %ecx
	movl	(%rax,%rcx,4), %eax
	movl	%eax, -32(%rbp)
	movl	-32(%rbp), %eax
	andl	$255, %eax
	movb	%al, -9(%rbp)
	movl	-32(%rbp), %eax
	shrl	$8, %eax
	movl	%eax, -32(%rbp)
	movl	-40(%rbp), %eax
	addl	$1, %eax
	movl	%eax, -40(%rbp)
	movzbl	-9(%rbp), %eax
	addl	$4, %eax
	movl	%eax, -44(%rbp)
	movq	-80(%rbp), %rax
	movl	-32(%rbp), %ecx
	movl	(%rax,%rcx,4), %eax
	movl	%eax, -32(%rbp)
	movl	-32(%rbp), %eax
	andl	$255, %eax
	movzbl	%al, %eax
	movl	%eax, -52(%rbp)
	movl	-32(%rbp), %eax
	shrl	$8, %eax
	movl	%eax, -32(%rbp)
	movl	-40(%rbp), %eax
	addl	$1, %eax
	movl	%eax, -40(%rbp)
	jmp	.LBB51_70
.LBB51_78:                              # %return_notr
	movq	-24(%rbp), %rax
	movq	(%rax), %rax
	movl	36(%rax), %eax
	movl	%eax, -92(%rbp)
	movl	-88(%rbp), %eax
	subl	-48(%rbp), %eax
	movq	-24(%rbp), %rcx
	movq	(%rcx), %rcx
	addl	36(%rcx), %eax
	movl	%eax, 36(%rcx)
	movq	-24(%rbp), %rax
	movq	(%rax), %rax
	movl	36(%rax), %eax
	cmpl	-92(%rbp), %eax
	jae	.LBB51_80
# %bb.79:                               # %if.then409
	movq	-24(%rbp), %rax
	movq	(%rax), %rax
	movl	40(%rax), %ecx
	addl	$1, %ecx
	movl	%ecx, 40(%rax)
.LBB51_80:                              # %if.end413
	movl	-56(%rbp), %eax
	movq	-24(%rbp), %rcx
	movl	%eax, 3184(%rcx)
	movb	-25(%rbp), %al
	movq	-24(%rbp), %rcx
	movb	%al, 12(%rcx)
	movl	-44(%rbp), %eax
	movq	-24(%rbp), %rcx
	movl	%eax, 16(%rcx)
	movl	-40(%rbp), %eax
	movq	-24(%rbp), %rcx
	movl	%eax, 1092(%rcx)
	movl	-52(%rbp), %eax
	movq	-24(%rbp), %rcx
	movl	%eax, 64(%rcx)
	movq	-80(%rbp), %rax
	movq	-24(%rbp), %rcx
	movq	%rax, 3152(%rcx)
	movl	-32(%rbp), %eax
	movq	-24(%rbp), %rcx
	movl	%eax, 60(%rcx)
	movq	-72(%rbp), %rax
	movq	-24(%rbp), %rcx
	movq	(%rcx), %rcx
	movq	%rax, 24(%rcx)
	movl	-48(%rbp), %eax
	movq	-24(%rbp), %rcx
	movq	(%rcx), %rcx
	movl	%eax, 32(%rcx)
# %bb.81:                               # %if.end425
	movb	$0, -33(%rbp)
.LBB51_82:                              # %return
	movb	-33(%rbp), %bl
	cmpl	$1582265839, -84(%rbp)  # imm = 0x5E4F75EF
	jne	.LBB51_84
.LBB51_83:
	movzbl	%bl, %eax
	addq	$88, %rsp
	popq	%rbx
	popq	%rbp
	.cfi_def_cfa %rsp, 8
	retq
.LBB51_84:                              # %func_exit
	.cfi_def_cfa %rbp, 16
	callq	detect_breach
	jmp	.LBB51_83
.Lfunc_end51:
	.size	unRLE_obuf_to_output_FAST.11, .Lfunc_end51-unRLE_obuf_to_output_FAST.11
	.cfi_endproc
                                        # -- End function
	.p2align	4, 0x90         # -- Begin function isempty_RL.12
	.type	isempty_RL.12,@function
isempty_RL.12:                          # @isempty_RL.12
	.cfi_startproc
# %bb.0:                                # %entry
	pushq	%rbp
	.cfi_def_cfa_offset 16
	.cfi_offset %rbp, -16
	movq	%rsp, %rbp
	.cfi_def_cfa_register %rbp
	pushq	%rbx
	subq	$24, %rsp
	.cfi_offset %rbx, -24
	movl	$440957897, -16(%rbp)   # imm = 0x1A487BC9
	movq	%rdi, -24(%rbp)
	movq	-24(%rbp), %rax
	cmpl	$256, 92(%rax)          # imm = 0x100
	jae	.LBB52_3
# %bb.1:                                # %land.lhs.true
	movq	-24(%rbp), %rax
	cmpl	$0, 96(%rax)
	jle	.LBB52_3
# %bb.2:                                # %if.then
	movb	$0, -9(%rbp)
	jmp	.LBB52_4
.LBB52_3:                               # %if.else
	movb	$1, -9(%rbp)
.LBB52_4:                               # %return
	movb	-9(%rbp), %bl
	cmpl	$440957897, -16(%rbp)   # imm = 0x1A487BC9
	jne	.LBB52_6
.LBB52_5:
	movzbl	%bl, %eax
	addq	$24, %rsp
	popq	%rbx
	popq	%rbp
	.cfi_def_cfa %rsp, 8
	retq
.LBB52_6:                               # %func_exit
	.cfi_def_cfa %rbp, 16
	callq	detect_breach
	jmp	.LBB52_5
.Lfunc_end52:
	.size	isempty_RL.12, .Lfunc_end52-isempty_RL.12
	.cfi_endproc
                                        # -- End function
	.globl	BZ2_indexIntoF.13       # -- Begin function BZ2_indexIntoF.13
	.p2align	4, 0x90
	.type	BZ2_indexIntoF.13,@function
BZ2_indexIntoF.13:                      # @BZ2_indexIntoF.13
	.cfi_startproc
# %bb.0:                                # %entry
	pushq	%rbp
	.cfi_def_cfa_offset 16
	.cfi_offset %rbp, -16
	movq	%rsp, %rbp
	.cfi_def_cfa_register %rbp
	pushq	%rbx
	subq	$40, %rsp
	.cfi_offset %rbx, -24
	movl	$1017103229, -24(%rbp)  # imm = 0x3C9FC37D
	movl	%edi, -28(%rbp)
	movq	%rsi, -40(%rbp)
	movl	$0, -12(%rbp)
	movl	$256, -16(%rbp)         # imm = 0x100
.LBB53_1:                               # %do.body
                                        # =>This Inner Loop Header: Depth=1
	movl	-12(%rbp), %eax
	addl	-16(%rbp), %eax
	sarl	$1, %eax
	movl	%eax, -20(%rbp)
	movl	-28(%rbp), %eax
	movq	-40(%rbp), %rcx
	movslq	-20(%rbp), %rdx
	cmpl	(%rcx,%rdx,4), %eax
	jl	.LBB53_3
# %bb.2:                                # %if.then
                                        #   in Loop: Header=BB53_1 Depth=1
	movl	-20(%rbp), %eax
	movl	%eax, -12(%rbp)
	jmp	.LBB53_4
.LBB53_3:                               # %if.else
                                        #   in Loop: Header=BB53_1 Depth=1
	movl	-20(%rbp), %eax
	movl	%eax, -16(%rbp)
.LBB53_4:                               # %if.end
                                        #   in Loop: Header=BB53_1 Depth=1
	jmp	.LBB53_5
.LBB53_5:                               # %do.cond
                                        #   in Loop: Header=BB53_1 Depth=1
	movl	-16(%rbp), %eax
	subl	-12(%rbp), %eax
	cmpl	$1, %eax
	jne	.LBB53_1
# %bb.6:                                # %do.end
	movl	-12(%rbp), %ebx
	cmpl	$1017103229, -24(%rbp)  # imm = 0x3C9FC37D
	jne	.LBB53_8
.LBB53_7:
	movl	%ebx, %eax
	addq	$40, %rsp
	popq	%rbx
	popq	%rbp
	.cfi_def_cfa %rsp, 8
	retq
.LBB53_8:                               # %func_exit
	.cfi_def_cfa %rbp, 16
	callq	detect_breach
	jmp	.LBB53_7
.Lfunc_end53:
	.size	BZ2_indexIntoF.13, .Lfunc_end53-BZ2_indexIntoF.13
	.cfi_endproc
                                        # -- End function
	.globl	BZ2_bzWriteOpen.14      # -- Begin function BZ2_bzWriteOpen.14
	.p2align	4, 0x90
	.type	BZ2_bzWriteOpen.14,@function
BZ2_bzWriteOpen.14:                     # @BZ2_bzWriteOpen.14
	.cfi_startproc
# %bb.0:                                # %entry
	pushq	%rbp
	.cfi_def_cfa_offset 16
	.cfi_offset %rbp, -16
	movq	%rsp, %rbp
	.cfi_def_cfa_register %rbp
	pushq	%rbx
	subq	$56, %rsp
	.cfi_offset %rbx, -24
	movl	$1068313530, -60(%rbp)  # imm = 0x3FAD2BBA
	movq	%rdi, -24(%rbp)
	movq	%rsi, -56(%rbp)
	movl	%edx, -36(%rbp)
	movl	%ecx, -32(%rbp)
	movl	%r8d, -28(%rbp)
	movq	$0, -16(%rbp)
	cmpq	$0, -24(%rbp)
	je	.LBB54_2
# %bb.1:                                # %if.then
	movq	-24(%rbp), %rax
	movl	$0, (%rax)
.LBB54_2:                               # %if.end
	cmpq	$0, -16(%rbp)
	je	.LBB54_4
# %bb.3:                                # %if.then2
	movq	-16(%rbp), %rax
	movl	$0, 5096(%rax)
.LBB54_4:                               # %if.end3
	cmpq	$0, -56(%rbp)
	je	.LBB54_11
# %bb.5:                                # %lor.lhs.false
	cmpl	$1, -36(%rbp)
	jl	.LBB54_11
# %bb.6:                                # %lor.lhs.false6
	cmpl	$9, -36(%rbp)
	jg	.LBB54_11
# %bb.7:                                # %lor.lhs.false8
	cmpl	$0, -28(%rbp)
	jl	.LBB54_11
# %bb.8:                                # %lor.lhs.false10
	cmpl	$250, -28(%rbp)
	jg	.LBB54_11
# %bb.9:                                # %lor.lhs.false12
	cmpl	$0, -32(%rbp)
	jl	.LBB54_11
# %bb.10:                               # %lor.lhs.false14
	cmpl	$4, -32(%rbp)
	jle	.LBB54_16
.LBB54_11:                              # %if.then16
	cmpq	$0, -24(%rbp)
	je	.LBB54_13
# %bb.12:                               # %if.then18
	movq	-24(%rbp), %rax
	movl	$-2, (%rax)
.LBB54_13:                              # %if.end19
	cmpq	$0, -16(%rbp)
	je	.LBB54_15
# %bb.14:                               # %if.then21
	movq	-16(%rbp), %rax
	movl	$-2, 5096(%rax)
.LBB54_15:                              # %if.end23
	movq	$0, -48(%rbp)
	jmp	.LBB54_41
.LBB54_16:                              # %if.end24
	movq	-56(%rbp), %rdi
	callq	ferror
	cmpl	$0, %eax
	je	.LBB54_22
# %bb.17:                               # %if.then25
	cmpq	$0, -24(%rbp)
	je	.LBB54_19
# %bb.18:                               # %if.then27
	movq	-24(%rbp), %rax
	movl	$-6, (%rax)
.LBB54_19:                              # %if.end28
	cmpq	$0, -16(%rbp)
	je	.LBB54_21
# %bb.20:                               # %if.then30
	movq	-16(%rbp), %rax
	movl	$-6, 5096(%rax)
.LBB54_21:                              # %if.end32
	movq	$0, -48(%rbp)
	jmp	.LBB54_41
.LBB54_22:                              # %if.end33
	movl	$5104, %edi             # imm = 0x13F0
	callq	malloc
	movq	%rax, -16(%rbp)
	cmpq	$0, -16(%rbp)
	jne	.LBB54_28
# %bb.23:                               # %if.then36
	cmpq	$0, -24(%rbp)
	je	.LBB54_25
# %bb.24:                               # %if.then38
	movq	-24(%rbp), %rax
	movl	$-3, (%rax)
.LBB54_25:                              # %if.end39
	cmpq	$0, -16(%rbp)
	je	.LBB54_27
# %bb.26:                               # %if.then41
	movq	-16(%rbp), %rax
	movl	$-3, 5096(%rax)
.LBB54_27:                              # %if.end43
	movq	$0, -48(%rbp)
	jmp	.LBB54_41
.LBB54_28:                              # %if.end44
	cmpq	$0, -24(%rbp)
	je	.LBB54_30
# %bb.29:                               # %if.then46
	movq	-24(%rbp), %rax
	movl	$0, (%rax)
.LBB54_30:                              # %if.end47
	cmpq	$0, -16(%rbp)
	je	.LBB54_32
# %bb.31:                               # %if.then49
	movq	-16(%rbp), %rax
	movl	$0, 5096(%rax)
.LBB54_32:                              # %if.end51
	movq	-16(%rbp), %rax
	movb	$0, 5100(%rax)
	movq	-16(%rbp), %rax
	movl	$0, 5008(%rax)
	movq	-56(%rbp), %rax
	movq	-16(%rbp), %rcx
	movq	%rax, (%rcx)
	movq	-16(%rbp), %rax
	movb	$1, 5012(%rax)
	movq	-16(%rbp), %rax
	movq	$0, 5072(%rax)
	movq	-16(%rbp), %rax
	movq	$0, 5080(%rax)
	movq	-16(%rbp), %rax
	movq	$0, 5088(%rax)
	cmpl	$0, -28(%rbp)
	jne	.LBB54_34
# %bb.33:                               # %if.then55
	movl	$30, -28(%rbp)
.LBB54_34:                              # %if.end56
	movq	-16(%rbp), %rdi
	addq	$5016, %rdi             # imm = 0x1398
	movl	-36(%rbp), %esi
	movl	-32(%rbp), %edx
	movl	-28(%rbp), %ecx
	callq	BZ2_bzCompressInit
	movl	%eax, -40(%rbp)
	cmpl	$0, -40(%rbp)
	je	.LBB54_40
# %bb.35:                               # %if.then60
	cmpq	$0, -24(%rbp)
	je	.LBB54_37
# %bb.36:                               # %if.then62
	movl	-40(%rbp), %eax
	movq	-24(%rbp), %rcx
	movl	%eax, (%rcx)
.LBB54_37:                              # %if.end63
	cmpq	$0, -16(%rbp)
	je	.LBB54_39
# %bb.38:                               # %if.then65
	movl	-40(%rbp), %eax
	movq	-16(%rbp), %rcx
	movl	%eax, 5096(%rcx)
.LBB54_39:                              # %if.end67
	movq	-16(%rbp), %rdi
	callq	free
	movq	$0, -48(%rbp)
	jmp	.LBB54_41
.LBB54_40:                              # %if.end68
	movq	-16(%rbp), %rax
	movl	$0, 5024(%rax)
	movq	-16(%rbp), %rax
	movb	$1, 5100(%rax)
	movq	-16(%rbp), %rax
	movq	%rax, -48(%rbp)
.LBB54_41:                              # %return
	movq	-48(%rbp), %rbx
	cmpl	$1068313530, -60(%rbp)  # imm = 0x3FAD2BBA
	jne	.LBB54_43
.LBB54_42:
	movq	%rbx, %rax
	addq	$56, %rsp
	popq	%rbx
	popq	%rbp
	.cfi_def_cfa %rsp, 8
	retq
.LBB54_43:                              # %func_exit
	.cfi_def_cfa %rbp, 16
	callq	detect_breach
	jmp	.LBB54_42
.Lfunc_end54:
	.size	BZ2_bzWriteOpen.14, .Lfunc_end54-BZ2_bzWriteOpen.14
	.cfi_endproc
                                        # -- End function
	.globl	BZ2_bzWrite.15          # -- Begin function BZ2_bzWrite.15
	.p2align	4, 0x90
	.type	BZ2_bzWrite.15,@function
BZ2_bzWrite.15:                         # @BZ2_bzWrite.15
	.cfi_startproc
# %bb.0:                                # %entry
	pushq	%rbp
	.cfi_def_cfa_offset 16
	.cfi_offset %rbp, -16
	movq	%rsp, %rbp
	.cfi_def_cfa_register %rbp
	subq	$64, %rsp
	movl	$1458629163, -36(%rbp)  # imm = 0x56F0EA2B
	movq	%rdi, -16(%rbp)
	movq	%rsi, -56(%rbp)
	movq	%rdx, -48(%rbp)
	movl	%ecx, -20(%rbp)
	movq	-56(%rbp), %rax
	movq	%rax, -8(%rbp)
	cmpq	$0, -16(%rbp)
	je	.LBB55_2
# %bb.1:                                # %if.then
	movq	-16(%rbp), %rax
	movl	$0, (%rax)
.LBB55_2:                               # %if.end
	cmpq	$0, -8(%rbp)
	je	.LBB55_4
# %bb.3:                                # %if.then2
	movq	-8(%rbp), %rax
	movl	$0, 5096(%rax)
.LBB55_4:                               # %if.end3
	cmpq	$0, -8(%rbp)
	je	.LBB55_7
# %bb.5:                                # %lor.lhs.false
	cmpq	$0, -48(%rbp)
	je	.LBB55_7
# %bb.6:                                # %lor.lhs.false6
	cmpl	$0, -20(%rbp)
	jge	.LBB55_12
.LBB55_7:                               # %if.then8
	cmpq	$0, -16(%rbp)
	je	.LBB55_9
# %bb.8:                                # %if.then10
	movq	-16(%rbp), %rax
	movl	$-2, (%rax)
.LBB55_9:                               # %if.end11
	cmpq	$0, -8(%rbp)
	je	.LBB55_11
# %bb.10:                               # %if.then13
	movq	-8(%rbp), %rax
	movl	$-2, 5096(%rax)
.LBB55_11:                              # %if.end15
	jmp	.LBB55_53
.LBB55_12:                              # %if.end16
	movq	-8(%rbp), %rax
	cmpb	$0, 5012(%rax)
	jne	.LBB55_18
# %bb.13:                               # %if.then17
	cmpq	$0, -16(%rbp)
	je	.LBB55_15
# %bb.14:                               # %if.then19
	movq	-16(%rbp), %rax
	movl	$-1, (%rax)
.LBB55_15:                              # %if.end20
	cmpq	$0, -8(%rbp)
	je	.LBB55_17
# %bb.16:                               # %if.then22
	movq	-8(%rbp), %rax
	movl	$-1, 5096(%rax)
.LBB55_17:                              # %if.end24
	jmp	.LBB55_53
.LBB55_18:                              # %if.end25
	movq	-8(%rbp), %rax
	movq	(%rax), %rdi
	callq	ferror
	cmpl	$0, %eax
	je	.LBB55_24
# %bb.19:                               # %if.then27
	cmpq	$0, -16(%rbp)
	je	.LBB55_21
# %bb.20:                               # %if.then29
	movq	-16(%rbp), %rax
	movl	$-6, (%rax)
.LBB55_21:                              # %if.end30
	cmpq	$0, -8(%rbp)
	je	.LBB55_23
# %bb.22:                               # %if.then32
	movq	-8(%rbp), %rax
	movl	$-6, 5096(%rax)
.LBB55_23:                              # %if.end34
	jmp	.LBB55_53
.LBB55_24:                              # %if.end35
	cmpl	$0, -20(%rbp)
	jne	.LBB55_30
# %bb.25:                               # %if.then37
	cmpq	$0, -16(%rbp)
	je	.LBB55_27
# %bb.26:                               # %if.then39
	movq	-16(%rbp), %rax
	movl	$0, (%rax)
.LBB55_27:                              # %if.end40
	cmpq	$0, -8(%rbp)
	je	.LBB55_29
# %bb.28:                               # %if.then42
	movq	-8(%rbp), %rax
	movl	$0, 5096(%rax)
.LBB55_29:                              # %if.end44
	jmp	.LBB55_53
.LBB55_30:                              # %if.end45
	movl	-20(%rbp), %eax
	movq	-8(%rbp), %rcx
	movl	%eax, 5024(%rcx)
	movq	-48(%rbp), %rax
	movq	-8(%rbp), %rcx
	movq	%rax, 5016(%rcx)
.LBB55_31:                              # %while.body
                                        # =>This Inner Loop Header: Depth=1
	movq	-8(%rbp), %rax
	movl	$5000, 5048(%rax)       # imm = 0x1388
	movq	-8(%rbp), %rax
	addq	$8, %rax
	movq	-8(%rbp), %rcx
	movq	%rax, 5040(%rcx)
	movq	-8(%rbp), %rdi
	addq	$5016, %rdi             # imm = 0x1398
	xorl	%esi, %esi
	callq	BZ2_bzCompress
	movl	%eax, -24(%rbp)
	cmpl	$1, -24(%rbp)
	je	.LBB55_37
# %bb.32:                               # %if.then53
	cmpq	$0, -16(%rbp)
	je	.LBB55_34
# %bb.33:                               # %if.then55
	movl	-24(%rbp), %eax
	movq	-16(%rbp), %rcx
	movl	%eax, (%rcx)
.LBB55_34:                              # %if.end56
	cmpq	$0, -8(%rbp)
	je	.LBB55_36
# %bb.35:                               # %if.then58
	movl	-24(%rbp), %eax
	movq	-8(%rbp), %rcx
	movl	%eax, 5096(%rcx)
.LBB55_36:                              # %if.end60
	jmp	.LBB55_53
.LBB55_37:                              # %if.end61
                                        #   in Loop: Header=BB55_31 Depth=1
	movq	-8(%rbp), %rax
	cmpl	$5000, 5048(%rax)       # imm = 0x1388
	jae	.LBB55_46
# %bb.38:                               # %if.then65
                                        #   in Loop: Header=BB55_31 Depth=1
	movq	-8(%rbp), %rax
	movl	$5000, %ecx             # imm = 0x1388
	subl	5048(%rax), %ecx
	movl	%ecx, -28(%rbp)
	movq	-8(%rbp), %rdi
	addq	$8, %rdi
	movslq	-28(%rbp), %rdx
	movq	-8(%rbp), %rax
	movq	(%rax), %rcx
	movl	$1, %esi
	callq	fwrite
	movl	%eax, -32(%rbp)
	movl	-28(%rbp), %eax
	cmpl	-32(%rbp), %eax
	jne	.LBB55_40
# %bb.39:                               # %lor.lhs.false75
                                        #   in Loop: Header=BB55_31 Depth=1
	movq	-8(%rbp), %rax
	movq	(%rax), %rdi
	callq	ferror
	cmpl	$0, %eax
	je	.LBB55_45
.LBB55_40:                              # %if.then79
	cmpq	$0, -16(%rbp)
	je	.LBB55_42
# %bb.41:                               # %if.then82
	movq	-16(%rbp), %rax
	movl	$-6, (%rax)
.LBB55_42:                              # %if.end83
	cmpq	$0, -8(%rbp)
	je	.LBB55_44
# %bb.43:                               # %if.then86
	movq	-8(%rbp), %rax
	movl	$-6, 5096(%rax)
.LBB55_44:                              # %if.end88
	jmp	.LBB55_53
.LBB55_45:                              # %if.end89
                                        #   in Loop: Header=BB55_31 Depth=1
	jmp	.LBB55_46
.LBB55_46:                              # %if.end90
                                        #   in Loop: Header=BB55_31 Depth=1
	movq	-8(%rbp), %rax
	cmpl	$0, 5024(%rax)
	jne	.LBB55_52
# %bb.47:                               # %if.then95
	cmpq	$0, -16(%rbp)
	je	.LBB55_49
# %bb.48:                               # %if.then98
	movq	-16(%rbp), %rax
	movl	$0, (%rax)
.LBB55_49:                              # %if.end99
	cmpq	$0, -8(%rbp)
	je	.LBB55_51
# %bb.50:                               # %if.then102
	movq	-8(%rbp), %rax
	movl	$0, 5096(%rax)
.LBB55_51:                              # %if.end104
	jmp	.LBB55_53
.LBB55_52:                              # %if.end105
                                        #   in Loop: Header=BB55_31 Depth=1
	jmp	.LBB55_31
.LBB55_53:                              # %return
	cmpl	$1458629163, -36(%rbp)  # imm = 0x56F0EA2B
	jne	.LBB55_55
.LBB55_54:
	addq	$64, %rsp
	popq	%rbp
	.cfi_def_cfa %rsp, 8
	retq
.LBB55_55:                              # %func_exit
	.cfi_def_cfa %rbp, 16
	callq	detect_breach
	jmp	.LBB55_54
.Lfunc_end55:
	.size	BZ2_bzWrite.15, .Lfunc_end55-BZ2_bzWrite.15
	.cfi_endproc
                                        # -- End function
	.globl	BZ2_bzReadClose.16      # -- Begin function BZ2_bzReadClose.16
	.p2align	4, 0x90
	.type	BZ2_bzReadClose.16,@function
BZ2_bzReadClose.16:                     # @BZ2_bzReadClose.16
	.cfi_startproc
# %bb.0:                                # %entry
	pushq	%rbp
	.cfi_def_cfa_offset 16
	.cfi_offset %rbp, -16
	movq	%rsp, %rbp
	.cfi_def_cfa_register %rbp
	subq	$32, %rsp
	movl	$1239748871, -20(%rbp)  # imm = 0x49E51107
	movq	%rdi, -16(%rbp)
	movq	%rsi, -32(%rbp)
	movq	-32(%rbp), %rax
	movq	%rax, -8(%rbp)
	cmpq	$0, -16(%rbp)
	je	.LBB56_2
# %bb.1:                                # %if.then
	movq	-16(%rbp), %rax
	movl	$0, (%rax)
.LBB56_2:                               # %if.end
	cmpq	$0, -8(%rbp)
	je	.LBB56_4
# %bb.3:                                # %if.then2
	movq	-8(%rbp), %rax
	movl	$0, 5096(%rax)
.LBB56_4:                               # %if.end3
	cmpq	$0, -8(%rbp)
	jne	.LBB56_10
# %bb.5:                                # %if.then5
	cmpq	$0, -16(%rbp)
	je	.LBB56_7
# %bb.6:                                # %if.then7
	movq	-16(%rbp), %rax
	movl	$0, (%rax)
.LBB56_7:                               # %if.end8
	cmpq	$0, -8(%rbp)
	je	.LBB56_9
# %bb.8:                                # %if.then10
	movq	-8(%rbp), %rax
	movl	$0, 5096(%rax)
.LBB56_9:                               # %if.end12
	jmp	.LBB56_19
.LBB56_10:                              # %if.end13
	movq	-8(%rbp), %rax
	cmpb	$0, 5012(%rax)
	je	.LBB56_16
# %bb.11:                               # %if.then14
	cmpq	$0, -16(%rbp)
	je	.LBB56_13
# %bb.12:                               # %if.then16
	movq	-16(%rbp), %rax
	movl	$-1, (%rax)
.LBB56_13:                              # %if.end17
	cmpq	$0, -8(%rbp)
	je	.LBB56_15
# %bb.14:                               # %if.then19
	movq	-8(%rbp), %rax
	movl	$-1, 5096(%rax)
.LBB56_15:                              # %if.end21
	jmp	.LBB56_19
.LBB56_16:                              # %if.end22
	movq	-8(%rbp), %rax
	cmpb	$0, 5100(%rax)
	je	.LBB56_18
# %bb.17:                               # %if.then24
	movq	-8(%rbp), %rdi
	addq	$5016, %rdi             # imm = 0x1398
	callq	BZ2_bzDecompressEnd
.LBB56_18:                              # %if.end25
	movq	-8(%rbp), %rdi
	callq	free
.LBB56_19:                              # %return
	cmpl	$1239748871, -20(%rbp)  # imm = 0x49E51107
	jne	.LBB56_21
.LBB56_20:
	addq	$32, %rsp
	popq	%rbp
	.cfi_def_cfa %rsp, 8
	retq
.LBB56_21:                              # %func_exit
	.cfi_def_cfa %rbp, 16
	callq	detect_breach
	jmp	.LBB56_20
.Lfunc_end56:
	.size	BZ2_bzReadClose.16, .Lfunc_end56-BZ2_bzReadClose.16
	.cfi_endproc
                                        # -- End function
	.globl	BZ2_bzWriteClose.17     # -- Begin function BZ2_bzWriteClose.17
	.p2align	4, 0x90
	.type	BZ2_bzWriteClose.17,@function
BZ2_bzWriteClose.17:                    # @BZ2_bzWriteClose.17
	.cfi_startproc
# %bb.0:                                # %entry
	pushq	%rbp
	.cfi_def_cfa_offset 16
	.cfi_offset %rbp, -16
	movq	%rsp, %rbp
	.cfi_def_cfa_register %rbp
	subq	$48, %rsp
	movl	$1363251097, -4(%rbp)   # imm = 0x51418F99
	movq	%rdi, -40(%rbp)
	movq	%rsi, -32(%rbp)
	movl	%edx, -8(%rbp)
	movq	%rcx, -16(%rbp)
	movq	%r8, -24(%rbp)
	movq	-40(%rbp), %rdi
	movq	-32(%rbp), %rsi
	movl	-8(%rbp), %edx
	movq	-16(%rbp), %rcx
	movq	-24(%rbp), %r9
	xorl	%r8d, %r8d
	movq	$0, (%rsp)
	callq	BZ2_bzWriteClose64
	cmpl	$1363251097, -4(%rbp)   # imm = 0x51418F99
	jne	.LBB57_2
.LBB57_1:
	addq	$48, %rsp
	popq	%rbp
	.cfi_def_cfa %rsp, 8
	retq
.LBB57_2:                               # %func_exit
	.cfi_def_cfa %rbp, 16
	callq	detect_breach
	jmp	.LBB57_1
.Lfunc_end57:
	.size	BZ2_bzWriteClose.17, .Lfunc_end57-BZ2_bzWriteClose.17
	.cfi_endproc
                                        # -- End function
	.globl	BZ2_bzdopen.18          # -- Begin function BZ2_bzdopen.18
	.p2align	4, 0x90
	.type	BZ2_bzdopen.18,@function
BZ2_bzdopen.18:                         # @BZ2_bzdopen.18
	.cfi_startproc
# %bb.0:                                # %entry
	pushq	%rbp
	.cfi_def_cfa_offset 16
	.cfi_offset %rbp, -16
	movq	%rsp, %rbp
	.cfi_def_cfa_register %rbp
	pushq	%rbx
	subq	$24, %rsp
	.cfi_offset %rbx, -24
	movl	$1703847817, -16(%rbp)  # imm = 0x658EA789
	movl	%edi, -12(%rbp)
	movq	%rsi, -24(%rbp)
	movl	-12(%rbp), %esi
	movq	-24(%rbp), %rdx
	xorl	%edi, %edi
	movl	$1, %ecx
	callq	bzopen_or_bzdopen
	movq	%rax, %rbx
	cmpl	$1703847817, -16(%rbp)  # imm = 0x658EA789
	jne	.LBB58_2
.LBB58_1:
	movq	%rbx, %rax
	addq	$24, %rsp
	popq	%rbx
	popq	%rbp
	.cfi_def_cfa %rsp, 8
	retq
.LBB58_2:                               # %func_exit
	.cfi_def_cfa %rbp, 16
	callq	detect_breach
	jmp	.LBB58_1
.Lfunc_end58:
	.size	BZ2_bzdopen.18, .Lfunc_end58-BZ2_bzdopen.18
	.cfi_endproc
                                        # -- End function
	.globl	BZ2_bzwrite.19          # -- Begin function BZ2_bzwrite.19
	.p2align	4, 0x90
	.type	BZ2_bzwrite.19,@function
BZ2_bzwrite.19:                         # @BZ2_bzwrite.19
	.cfi_startproc
# %bb.0:                                # %entry
	pushq	%rbp
	.cfi_def_cfa_offset 16
	.cfi_offset %rbp, -16
	movq	%rsp, %rbp
	.cfi_def_cfa_register %rbp
	pushq	%rbx
	subq	$40, %rsp
	.cfi_offset %rbx, -24
	movl	$1065190027, -24(%rbp)  # imm = 0x3F7D828B
	movq	%rdi, -40(%rbp)
	movq	%rsi, -32(%rbp)
	movl	%edx, -12(%rbp)
	movq	-40(%rbp), %rsi
	movq	-32(%rbp), %rdx
	movl	-12(%rbp), %ecx
	leaq	-20(%rbp), %rdi
	callq	BZ2_bzWrite
	cmpl	$0, -20(%rbp)
	jne	.LBB59_2
# %bb.1:                                # %if.then
	movl	-12(%rbp), %eax
	movl	%eax, -16(%rbp)
	jmp	.LBB59_3
.LBB59_2:                               # %if.else
	movl	$-1, -16(%rbp)
.LBB59_3:                               # %return
	movl	-16(%rbp), %ebx
	cmpl	$1065190027, -24(%rbp)  # imm = 0x3F7D828B
	jne	.LBB59_5
.LBB59_4:
	movl	%ebx, %eax
	addq	$40, %rsp
	popq	%rbx
	popq	%rbp
	.cfi_def_cfa %rsp, 8
	retq
.LBB59_5:                               # %func_exit
	.cfi_def_cfa %rbp, 16
	callq	detect_breach
	jmp	.LBB59_4
.Lfunc_end59:
	.size	BZ2_bzwrite.19, .Lfunc_end59-BZ2_bzwrite.19
	.cfi_endproc
                                        # -- End function
	.globl	BZ2_bzDecompress.20     # -- Begin function BZ2_bzDecompress.20
	.p2align	4, 0x90
	.type	BZ2_bzDecompress.20,@function
BZ2_bzDecompress.20:                    # @BZ2_bzDecompress.20
	.cfi_startproc
# %bb.0:                                # %entry
	pushq	%rbp
	.cfi_def_cfa_offset 16
	.cfi_offset %rbp, -16
	movq	%rsp, %rbp
	.cfi_def_cfa_register %rbp
	pushq	%rbx
	subq	$40, %rsp
	.cfi_offset %rbx, -24
	movl	$17750559, -44(%rbp)    # imm = 0x10EDA1F
	movq	%rdi, -40(%rbp)
	cmpq	$0, -40(%rbp)
	jne	.LBB60_2
# %bb.1:                                # %if.then
	movl	$-2, -24(%rbp)
	jmp	.LBB60_37
.LBB60_2:                               # %if.end
	movq	-40(%rbp), %rax
	movq	48(%rax), %rax
	movq	%rax, -16(%rbp)
	cmpq	$0, -16(%rbp)
	jne	.LBB60_4
# %bb.3:                                # %if.then2
	movl	$-2, -24(%rbp)
	jmp	.LBB60_37
.LBB60_4:                               # %if.end3
	movq	-16(%rbp), %rax
	movq	(%rax), %rax
	cmpq	-40(%rbp), %rax
	je	.LBB60_6
# %bb.5:                                # %if.then6
	movl	$-2, -24(%rbp)
	jmp	.LBB60_37
.LBB60_6:                               # %if.end7
	jmp	.LBB60_7
.LBB60_7:                               # %while.body
                                        # =>This Inner Loop Header: Depth=1
	movq	-16(%rbp), %rax
	cmpl	$1, 8(%rax)
	jne	.LBB60_9
# %bb.8:                                # %if.then10
	movl	$-1, -24(%rbp)
	jmp	.LBB60_37
.LBB60_9:                               # %if.end11
                                        #   in Loop: Header=BB60_7 Depth=1
	movq	-16(%rbp), %rax
	cmpl	$2, 8(%rax)
	jne	.LBB60_26
# %bb.10:                               # %if.then14
                                        #   in Loop: Header=BB60_7 Depth=1
	movq	-16(%rbp), %rax
	cmpb	$0, 44(%rax)
	je	.LBB60_12
# %bb.11:                               # %if.then15
                                        #   in Loop: Header=BB60_7 Depth=1
	movq	-16(%rbp), %rdi
	callq	unRLE_obuf_to_output_SMALL
	movb	%al, -17(%rbp)
	jmp	.LBB60_13
.LBB60_12:                              # %if.else
                                        #   in Loop: Header=BB60_7 Depth=1
	movq	-16(%rbp), %rdi
	callq	unRLE_obuf_to_output_FAST
	movb	%al, -17(%rbp)
.LBB60_13:                              # %if.end17
                                        #   in Loop: Header=BB60_7 Depth=1
	cmpb	$0, -17(%rbp)
	je	.LBB60_15
# %bb.14:                               # %if.then19
	movl	$-4, -24(%rbp)
	jmp	.LBB60_37
.LBB60_15:                              # %if.end20
                                        #   in Loop: Header=BB60_7 Depth=1
	movq	-16(%rbp), %rax
	movl	1092(%rax), %eax
	movq	-16(%rbp), %rcx
	movl	64080(%rcx), %ecx
	addl	$1, %ecx
	cmpl	%ecx, %eax
	jne	.LBB60_24
# %bb.16:                               # %land.lhs.true
                                        #   in Loop: Header=BB60_7 Depth=1
	movq	-16(%rbp), %rax
	cmpl	$0, 16(%rax)
	jne	.LBB60_24
# %bb.17:                               # %if.then23
                                        #   in Loop: Header=BB60_7 Depth=1
	movq	-16(%rbp), %rax
	movl	3184(%rax), %eax
	xorl	$-1, %eax
	movq	-16(%rbp), %rcx
	movl	%eax, 3184(%rcx)
	movq	-16(%rbp), %rax
	cmpl	$3, 52(%rax)
	jl	.LBB60_19
# %bb.18:                               # %if.then26
                                        #   in Loop: Header=BB60_7 Depth=1
	movq	stderr, %rdi
	movq	-16(%rbp), %rax
	movl	3176(%rax), %edx
	movq	-16(%rbp), %rax
	movl	3184(%rax), %ecx
	movabsq	$.L.str.2, %rsi
	movb	$0, %al
	callq	fprintf
.LBB60_19:                              # %if.end29
                                        #   in Loop: Header=BB60_7 Depth=1
	movq	-16(%rbp), %rax
	cmpl	$2, 52(%rax)
	jl	.LBB60_21
# %bb.20:                               # %if.then32
                                        #   in Loop: Header=BB60_7 Depth=1
	movq	stderr, %rdi
	movabsq	$.L.str.3, %rsi
	movb	$0, %al
	callq	fprintf
.LBB60_21:                              # %if.end34
                                        #   in Loop: Header=BB60_7 Depth=1
	movq	-16(%rbp), %rax
	movl	3184(%rax), %eax
	movq	-16(%rbp), %rcx
	cmpl	3176(%rcx), %eax
	je	.LBB60_23
# %bb.22:                               # %if.then38
	movl	$-4, -24(%rbp)
	jmp	.LBB60_37
.LBB60_23:                              # %if.end39
                                        #   in Loop: Header=BB60_7 Depth=1
	movq	-16(%rbp), %rax
	movl	3188(%rax), %eax
	shll	$1, %eax
	movq	-16(%rbp), %rcx
	movl	3188(%rcx), %ecx
	shrl	$31, %ecx
	orl	%ecx, %eax
	movq	-16(%rbp), %rcx
	movl	%eax, 3188(%rcx)
	movq	-16(%rbp), %rax
	movl	3184(%rax), %eax
	movq	-16(%rbp), %rcx
	xorl	3188(%rcx), %eax
	movl	%eax, 3188(%rcx)
	movq	-16(%rbp), %rax
	movl	$14, 8(%rax)
	jmp	.LBB60_25
.LBB60_24:                              # %if.else45
	movl	$0, -24(%rbp)
	jmp	.LBB60_37
.LBB60_25:                              # %if.end46
                                        #   in Loop: Header=BB60_7 Depth=1
	jmp	.LBB60_26
.LBB60_26:                              # %if.end47
                                        #   in Loop: Header=BB60_7 Depth=1
	movq	-16(%rbp), %rax
	cmpl	$10, 8(%rax)
	jl	.LBB60_36
# %bb.27:                               # %if.then50
                                        #   in Loop: Header=BB60_7 Depth=1
	movq	-16(%rbp), %rdi
	callq	BZ2_decompress
	movl	%eax, -28(%rbp)
	cmpl	$4, -28(%rbp)
	jne	.LBB60_33
# %bb.28:                               # %if.then53
	movq	-16(%rbp), %rax
	cmpl	$3, 52(%rax)
	jl	.LBB60_30
# %bb.29:                               # %if.then56
	movq	stderr, %rdi
	movq	-16(%rbp), %rax
	movl	3180(%rax), %edx
	movq	-16(%rbp), %rax
	movl	3188(%rax), %ecx
	movabsq	$.L.str.4, %rsi
	movb	$0, %al
	callq	fprintf
.LBB60_30:                              # %if.end59
	movq	-16(%rbp), %rax
	movl	3188(%rax), %eax
	movq	-16(%rbp), %rcx
	cmpl	3180(%rcx), %eax
	je	.LBB60_32
# %bb.31:                               # %if.then63
	movl	$-4, -24(%rbp)
	jmp	.LBB60_37
.LBB60_32:                              # %if.end64
	movl	-28(%rbp), %eax
	movl	%eax, -24(%rbp)
	jmp	.LBB60_37
.LBB60_33:                              # %if.end65
                                        #   in Loop: Header=BB60_7 Depth=1
	movq	-16(%rbp), %rax
	cmpl	$2, 8(%rax)
	je	.LBB60_35
# %bb.34:                               # %if.then68
	movl	-28(%rbp), %eax
	movl	%eax, -24(%rbp)
	jmp	.LBB60_37
.LBB60_35:                              # %if.end69
                                        #   in Loop: Header=BB60_7 Depth=1
	jmp	.LBB60_36
.LBB60_36:                              # %if.end70
                                        #   in Loop: Header=BB60_7 Depth=1
	jmp	.LBB60_7
.LBB60_37:                              # %return
	movl	-24(%rbp), %ebx
	cmpl	$17750559, -44(%rbp)    # imm = 0x10EDA1F
	jne	.LBB60_39
.LBB60_38:
	movl	%ebx, %eax
	addq	$40, %rsp
	popq	%rbx
	popq	%rbp
	.cfi_def_cfa %rsp, 8
	retq
.LBB60_39:                              # %func_exit
	.cfi_def_cfa %rbp, 16
	callq	detect_breach
	jmp	.LBB60_38
.Lfunc_end60:
	.size	BZ2_bzDecompress.20, .Lfunc_end60-BZ2_bzDecompress.20
	.cfi_endproc
                                        # -- End function
	.globl	BZ2_bzclose.21          # -- Begin function BZ2_bzclose.21
	.p2align	4, 0x90
	.type	BZ2_bzclose.21,@function
BZ2_bzclose.21:                         # @BZ2_bzclose.21
	.cfi_startproc
# %bb.0:                                # %entry
	pushq	%rbp
	.cfi_def_cfa_offset 16
	.cfi_offset %rbp, -16
	movq	%rsp, %rbp
	.cfi_def_cfa_register %rbp
	subq	$32, %rsp
	movl	$1341590347, -28(%rbp)  # imm = 0x4FF70B4B
	movq	%rdi, -8(%rbp)
	movq	-8(%rbp), %rax
	movq	(%rax), %rax
	movq	%rax, -24(%rbp)
	cmpq	$0, -8(%rbp)
	jne	.LBB61_2
# %bb.1:                                # %if.then
	jmp	.LBB61_10
.LBB61_2:                               # %if.end
	movq	-8(%rbp), %rax
	cmpb	$0, 5012(%rax)
	je	.LBB61_6
# %bb.3:                                # %if.then1
	movq	-8(%rbp), %rsi
	leaq	-12(%rbp), %rdi
	xorl	%edx, %edx
	xorl	%ecx, %ecx
	xorl	%r8d, %r8d
	callq	BZ2_bzWriteClose
	cmpl	$0, -12(%rbp)
	je	.LBB61_5
# %bb.4:                                # %if.then3
	movq	-8(%rbp), %rsi
	xorl	%edi, %edi
	movl	$1, %edx
	xorl	%ecx, %ecx
	xorl	%r8d, %r8d
	callq	BZ2_bzWriteClose
.LBB61_5:                               # %if.end4
	jmp	.LBB61_7
.LBB61_6:                               # %if.else
	movq	-8(%rbp), %rsi
	leaq	-12(%rbp), %rdi
	callq	BZ2_bzReadClose
.LBB61_7:                               # %if.end5
	movq	-24(%rbp), %rax
	cmpq	stdin, %rax
	je	.LBB61_10
# %bb.8:                                # %land.lhs.true
	movq	-24(%rbp), %rax
	cmpq	stdout, %rax
	je	.LBB61_10
# %bb.9:                                # %if.then8
	movq	-24(%rbp), %rdi
	callq	fclose
.LBB61_10:                              # %if.end9
	cmpl	$1341590347, -28(%rbp)  # imm = 0x4FF70B4B
	jne	.LBB61_12
.LBB61_11:
	addq	$32, %rsp
	popq	%rbp
	.cfi_def_cfa %rsp, 8
	retq
.LBB61_12:                              # %func_exit
	.cfi_def_cfa %rbp, 16
	callq	detect_breach
	jmp	.LBB61_11
.Lfunc_end61:
	.size	BZ2_bzclose.21, .Lfunc_end61-BZ2_bzclose.21
	.cfi_endproc
                                        # -- End function
	.p2align	4, 0x90         # -- Begin function default_bzfree.22
	.type	default_bzfree.22,@function
default_bzfree.22:                      # @default_bzfree.22
	.cfi_startproc
# %bb.0:                                # %entry
	pushq	%rbp
	.cfi_def_cfa_offset 16
	.cfi_offset %rbp, -16
	movq	%rsp, %rbp
	.cfi_def_cfa_register %rbp
	subq	$32, %rsp
	movl	$261139754, -4(%rbp)    # imm = 0xF90AD2A
	movq	%rdi, -24(%rbp)
	movq	%rsi, -16(%rbp)
	cmpq	$0, -16(%rbp)
	je	.LBB62_2
# %bb.1:                                # %if.then
	movq	-16(%rbp), %rdi
	callq	free
.LBB62_2:                               # %if.end
	cmpl	$261139754, -4(%rbp)    # imm = 0xF90AD2A
	jne	.LBB62_4
.LBB62_3:
	addq	$32, %rsp
	popq	%rbp
	.cfi_def_cfa %rsp, 8
	retq
.LBB62_4:                               # %func_exit
	.cfi_def_cfa %rbp, 16
	callq	detect_breach
	jmp	.LBB62_3
.Lfunc_end62:
	.size	default_bzfree.22, .Lfunc_end62-default_bzfree.22
	.cfi_endproc
                                        # -- End function
	.p2align	4, 0x90         # -- Begin function handle_compress.23
	.type	handle_compress.23,@function
handle_compress.23:                     # @handle_compress.23
	.cfi_startproc
# %bb.0:                                # %entry
	pushq	%rbp
	.cfi_def_cfa_offset 16
	.cfi_offset %rbp, -16
	movq	%rsp, %rbp
	.cfi_def_cfa_register %rbp
	pushq	%rbx
	subq	$40, %rsp
	.cfi_offset %rbx, -24
	movl	$287186224, -28(%rbp)   # imm = 0x111E1D30
	movq	%rdi, -40(%rbp)
	movb	$0, -9(%rbp)
	movb	$0, -10(%rbp)
	movq	-40(%rbp), %rax
	movq	48(%rax), %rax
	movq	%rax, -24(%rbp)
.LBB63_1:                               # %while.body
                                        # =>This Inner Loop Header: Depth=1
	movq	-24(%rbp), %rax
	cmpl	$1, 12(%rax)
	jne	.LBB63_13
# %bb.2:                                # %if.then
                                        #   in Loop: Header=BB63_1 Depth=1
	movq	-24(%rbp), %rdi
	callq	copy_output_until_stop
	movzbl	%al, %eax
	movzbl	-10(%rbp), %ecx
	orl	%eax, %ecx
	movb	%cl, -10(%rbp)
	movq	-24(%rbp), %rax
	movl	120(%rax), %eax
	movq	-24(%rbp), %rcx
	cmpl	116(%rcx), %eax
	jge	.LBB63_4
# %bb.3:                                # %if.then6
	jmp	.LBB63_25
.LBB63_4:                               # %if.end
                                        #   in Loop: Header=BB63_1 Depth=1
	movq	-24(%rbp), %rax
	cmpl	$4, 8(%rax)
	jne	.LBB63_8
# %bb.5:                                # %land.lhs.true
                                        #   in Loop: Header=BB63_1 Depth=1
	movq	-24(%rbp), %rax
	cmpl	$0, 16(%rax)
	jne	.LBB63_8
# %bb.6:                                # %land.lhs.true11
                                        #   in Loop: Header=BB63_1 Depth=1
	movq	-24(%rbp), %rdi
	callq	isempty_RL
	movzbl	%al, %eax
	cmpl	$0, %eax
	je	.LBB63_8
# %bb.7:                                # %if.then14
	jmp	.LBB63_25
.LBB63_8:                               # %if.end15
                                        #   in Loop: Header=BB63_1 Depth=1
	movq	-24(%rbp), %rdi
	callq	prepare_new_block
	movq	-24(%rbp), %rax
	movl	$2, 12(%rax)
	movq	-24(%rbp), %rax
	cmpl	$3, 8(%rax)
	jne	.LBB63_12
# %bb.9:                                # %land.lhs.true20
                                        #   in Loop: Header=BB63_1 Depth=1
	movq	-24(%rbp), %rax
	cmpl	$0, 16(%rax)
	jne	.LBB63_12
# %bb.10:                               # %land.lhs.true24
                                        #   in Loop: Header=BB63_1 Depth=1
	movq	-24(%rbp), %rdi
	callq	isempty_RL
	movzbl	%al, %eax
	cmpl	$0, %eax
	je	.LBB63_12
# %bb.11:                               # %if.then28
	jmp	.LBB63_25
.LBB63_12:                              # %if.end29
                                        #   in Loop: Header=BB63_1 Depth=1
	jmp	.LBB63_13
.LBB63_13:                              # %if.end30
                                        #   in Loop: Header=BB63_1 Depth=1
	movq	-24(%rbp), %rax
	cmpl	$2, 12(%rax)
	jne	.LBB63_24
# %bb.14:                               # %if.then34
                                        #   in Loop: Header=BB63_1 Depth=1
	movq	-24(%rbp), %rdi
	callq	copy_input_until_stop
	movzbl	%al, %eax
	movzbl	-9(%rbp), %ecx
	orl	%eax, %ecx
	movb	%cl, -9(%rbp)
	movq	-24(%rbp), %rax
	cmpl	$2, 8(%rax)
	je	.LBB63_17
# %bb.15:                               # %land.lhs.true43
                                        #   in Loop: Header=BB63_1 Depth=1
	movq	-24(%rbp), %rax
	cmpl	$0, 16(%rax)
	jne	.LBB63_17
# %bb.16:                               # %if.then47
                                        #   in Loop: Header=BB63_1 Depth=1
	movq	-24(%rbp), %rdi
	callq	flush_RL
	movq	-24(%rbp), %rdi
	movq	-24(%rbp), %rax
	cmpl	$4, 8(%rax)
	sete	%al
	andb	$1, %al
	movzbl	%al, %eax
	movzbl	%al, %esi
	callq	BZ2_compressBlock
	movq	-24(%rbp), %rax
	movl	$1, 12(%rax)
	jmp	.LBB63_23
.LBB63_17:                              # %if.else
                                        #   in Loop: Header=BB63_1 Depth=1
	movq	-24(%rbp), %rax
	movl	108(%rax), %eax
	movq	-24(%rbp), %rcx
	cmpl	112(%rcx), %eax
	jl	.LBB63_19
# %bb.18:                               # %if.then55
                                        #   in Loop: Header=BB63_1 Depth=1
	movq	-24(%rbp), %rdi
	xorl	%esi, %esi
	callq	BZ2_compressBlock
	movq	-24(%rbp), %rax
	movl	$1, 12(%rax)
	jmp	.LBB63_22
.LBB63_19:                              # %if.else57
                                        #   in Loop: Header=BB63_1 Depth=1
	movq	-24(%rbp), %rax
	movq	(%rax), %rax
	cmpl	$0, 8(%rax)
	jne	.LBB63_21
# %bb.20:                               # %if.then61
	jmp	.LBB63_25
.LBB63_21:                              # %if.end62
                                        #   in Loop: Header=BB63_1 Depth=1
	jmp	.LBB63_22
.LBB63_22:                              # %if.end63
                                        #   in Loop: Header=BB63_1 Depth=1
	jmp	.LBB63_23
.LBB63_23:                              # %if.end64
                                        #   in Loop: Header=BB63_1 Depth=1
	jmp	.LBB63_24
.LBB63_24:                              # %if.end65
                                        #   in Loop: Header=BB63_1 Depth=1
	jmp	.LBB63_1
.LBB63_25:                              # %while.end
	movzbl	-9(%rbp), %eax
	cmpl	$0, %eax
	movb	$1, %al
	jne	.LBB63_27
# %bb.26:                               # %lor.rhs
	movzbl	-10(%rbp), %eax
	cmpl	$0, %eax
	setne	%al
.LBB63_27:                              # %lor.end
	andb	$1, %al
	movzbl	%al, %ebx
	cmpl	$287186224, -28(%rbp)   # imm = 0x111E1D30
	jne	.LBB63_29
.LBB63_28:
	movzbl	%bl, %eax
	addq	$40, %rsp
	popq	%rbx
	popq	%rbp
	.cfi_def_cfa %rsp, 8
	retq
.LBB63_29:                              # %func_exit
	.cfi_def_cfa %rbp, 16
	callq	detect_breach
	jmp	.LBB63_28
.Lfunc_end63:
	.size	handle_compress.23, .Lfunc_end63-handle_compress.23
	.cfi_endproc
                                        # -- End function
	.globl	BZ2_bzDecompressEnd.24  # -- Begin function BZ2_bzDecompressEnd.24
	.p2align	4, 0x90
	.type	BZ2_bzDecompressEnd.24,@function
BZ2_bzDecompressEnd.24:                 # @BZ2_bzDecompressEnd.24
	.cfi_startproc
# %bb.0:                                # %entry
	pushq	%rbp
	.cfi_def_cfa_offset 16
	.cfi_offset %rbp, -16
	movq	%rsp, %rbp
	.cfi_def_cfa_register %rbp
	pushq	%rbx
	subq	$40, %rsp
	.cfi_offset %rbx, -24
	movl	$1917896356, -36(%rbp)  # imm = 0x7250C6A4
	movq	%rdi, -16(%rbp)
	cmpq	$0, -16(%rbp)
	jne	.LBB64_2
# %bb.1:                                # %if.then
	movl	$-2, -20(%rbp)
	jmp	.LBB64_13
.LBB64_2:                               # %if.end
	movq	-16(%rbp), %rax
	movq	48(%rax), %rax
	movq	%rax, -32(%rbp)
	cmpq	$0, -32(%rbp)
	jne	.LBB64_4
# %bb.3:                                # %if.then2
	movl	$-2, -20(%rbp)
	jmp	.LBB64_13
.LBB64_4:                               # %if.end3
	movq	-32(%rbp), %rax
	movq	(%rax), %rax
	cmpq	-16(%rbp), %rax
	je	.LBB64_6
# %bb.5:                                # %if.then6
	movl	$-2, -20(%rbp)
	jmp	.LBB64_13
.LBB64_6:                               # %if.end7
	movq	-32(%rbp), %rax
	cmpq	$0, 3152(%rax)
	je	.LBB64_8
# %bb.7:                                # %if.then9
	movq	-16(%rbp), %rax
	movq	64(%rax), %rax
	movq	-16(%rbp), %rcx
	movq	72(%rcx), %rdi
	movq	-32(%rbp), %rcx
	movq	3152(%rcx), %rsi
	callq	*%rax
.LBB64_8:                               # %if.end11
	movq	-32(%rbp), %rax
	cmpq	$0, 3160(%rax)
	je	.LBB64_10
# %bb.9:                                # %if.then13
	movq	-16(%rbp), %rax
	movq	64(%rax), %rax
	movq	-16(%rbp), %rcx
	movq	72(%rcx), %rdi
	movq	-32(%rbp), %rcx
	movq	3160(%rcx), %rsi
	callq	*%rax
.LBB64_10:                              # %if.end17
	movq	-32(%rbp), %rax
	cmpq	$0, 3168(%rax)
	je	.LBB64_12
# %bb.11:                               # %if.then19
	movq	-16(%rbp), %rax
	movq	64(%rax), %rax
	movq	-16(%rbp), %rcx
	movq	72(%rcx), %rdi
	movq	-32(%rbp), %rcx
	movq	3168(%rcx), %rsi
	callq	*%rax
.LBB64_12:                              # %if.end23
	movq	-16(%rbp), %rax
	movq	64(%rax), %rax
	movq	-16(%rbp), %rcx
	movq	72(%rcx), %rdi
	movq	-16(%rbp), %rcx
	movq	48(%rcx), %rsi
	callq	*%rax
	movq	-16(%rbp), %rax
	movq	$0, 48(%rax)
	movl	$0, -20(%rbp)
.LBB64_13:                              # %return
	movl	-20(%rbp), %ebx
	cmpl	$1917896356, -36(%rbp)  # imm = 0x7250C6A4
	jne	.LBB64_15
.LBB64_14:
	movl	%ebx, %eax
	addq	$40, %rsp
	popq	%rbx
	popq	%rbp
	.cfi_def_cfa %rsp, 8
	retq
.LBB64_15:                              # %func_exit
	.cfi_def_cfa %rbp, 16
	callq	detect_breach
	jmp	.LBB64_14
.Lfunc_end64:
	.size	BZ2_bzDecompressEnd.24, .Lfunc_end64-BZ2_bzDecompressEnd.24
	.cfi_endproc
                                        # -- End function
	.globl	BZ2_bzDecompressInit.25 # -- Begin function BZ2_bzDecompressInit.25
	.p2align	4, 0x90
	.type	BZ2_bzDecompressInit.25,@function
BZ2_bzDecompressInit.25:                # @BZ2_bzDecompressInit.25
	.cfi_startproc
# %bb.0:                                # %entry
	pushq	%rbp
	.cfi_def_cfa_offset 16
	.cfi_offset %rbp, -16
	movq	%rsp, %rbp
	.cfi_def_cfa_register %rbp
	pushq	%rbx
	subq	$40, %rsp
	.cfi_offset %rbx, -24
	movl	$1591473597, -40(%rbp)  # imm = 0x5EDBF5BD
	movq	%rdi, -24(%rbp)
	movl	%esi, -36(%rbp)
	movl	%edx, -32(%rbp)
	callq	bz_config_ok
	cmpl	$0, %eax
	jne	.LBB65_2
# %bb.1:                                # %if.then
	movl	$-9, -28(%rbp)
	jmp	.LBB65_17
.LBB65_2:                               # %if.end
	cmpq	$0, -24(%rbp)
	jne	.LBB65_4
# %bb.3:                                # %if.then1
	movl	$-2, -28(%rbp)
	jmp	.LBB65_17
.LBB65_4:                               # %if.end2
	cmpl	$0, -32(%rbp)
	je	.LBB65_7
# %bb.5:                                # %land.lhs.true
	cmpl	$1, -32(%rbp)
	je	.LBB65_7
# %bb.6:                                # %if.then5
	movl	$-2, -28(%rbp)
	jmp	.LBB65_17
.LBB65_7:                               # %if.end6
	cmpl	$0, -36(%rbp)
	jl	.LBB65_9
# %bb.8:                                # %lor.lhs.false
	cmpl	$4, -36(%rbp)
	jle	.LBB65_10
.LBB65_9:                               # %if.then9
	movl	$-2, -28(%rbp)
	jmp	.LBB65_17
.LBB65_10:                              # %if.end10
	movq	-24(%rbp), %rax
	cmpq	$0, 56(%rax)
	jne	.LBB65_12
# %bb.11:                               # %if.then12
	movq	-24(%rbp), %rax
	movabsq	$default_bzalloc, %rcx
	movq	%rcx, 56(%rax)
.LBB65_12:                              # %if.end14
	movq	-24(%rbp), %rax
	cmpq	$0, 64(%rax)
	jne	.LBB65_14
# %bb.13:                               # %if.then16
	movq	-24(%rbp), %rax
	movabsq	$default_bzfree, %rcx
	movq	%rcx, 64(%rax)
.LBB65_14:                              # %if.end18
	movq	-24(%rbp), %rax
	movq	56(%rax), %rax
	movq	-24(%rbp), %rcx
	movq	72(%rcx), %rdi
	movl	$64144, %esi            # imm = 0xFA90
	movl	$1, %edx
	callq	*%rax
	movq	%rax, -16(%rbp)
	cmpq	$0, -16(%rbp)
	jne	.LBB65_16
# %bb.15:                               # %if.then22
	movl	$-3, -28(%rbp)
	jmp	.LBB65_17
.LBB65_16:                              # %if.end23
	movq	-24(%rbp), %rax
	movq	-16(%rbp), %rcx
	movq	%rax, (%rcx)
	movq	-16(%rbp), %rax
	movq	-24(%rbp), %rcx
	movq	%rax, 48(%rcx)
	movq	-16(%rbp), %rax
	movl	$10, 8(%rax)
	movq	-16(%rbp), %rax
	movl	$0, 36(%rax)
	movq	-16(%rbp), %rax
	movl	$0, 32(%rax)
	movq	-16(%rbp), %rax
	movl	$0, 3188(%rax)
	movq	-24(%rbp), %rax
	movl	$0, 12(%rax)
	movq	-24(%rbp), %rax
	movl	$0, 16(%rax)
	movq	-24(%rbp), %rax
	movl	$0, 36(%rax)
	movq	-24(%rbp), %rax
	movl	$0, 40(%rax)
	movl	-32(%rbp), %eax
	movq	-16(%rbp), %rcx
	movb	%al, 44(%rcx)
	movq	-16(%rbp), %rax
	movq	$0, 3168(%rax)
	movq	-16(%rbp), %rax
	movq	$0, 3160(%rax)
	movq	-16(%rbp), %rax
	movq	$0, 3152(%rax)
	movq	-16(%rbp), %rax
	movl	$0, 48(%rax)
	movl	-36(%rbp), %eax
	movq	-16(%rbp), %rcx
	movl	%eax, 52(%rcx)
	movl	$0, -28(%rbp)
.LBB65_17:                              # %return
	movl	-28(%rbp), %ebx
	cmpl	$1591473597, -40(%rbp)  # imm = 0x5EDBF5BD
	jne	.LBB65_19
.LBB65_18:
	movl	%ebx, %eax
	addq	$40, %rsp
	popq	%rbx
	popq	%rbp
	.cfi_def_cfa %rsp, 8
	retq
.LBB65_19:                              # %func_exit
	.cfi_def_cfa %rbp, 16
	callq	detect_breach
	jmp	.LBB65_18
.Lfunc_end65:
	.size	BZ2_bzDecompressInit.25, .Lfunc_end65-BZ2_bzDecompressInit.25
	.cfi_endproc
                                        # -- End function
	.globl	BZ2_bzopen.26           # -- Begin function BZ2_bzopen.26
	.p2align	4, 0x90
	.type	BZ2_bzopen.26,@function
BZ2_bzopen.26:                          # @BZ2_bzopen.26
	.cfi_startproc
# %bb.0:                                # %entry
	pushq	%rbp
	.cfi_def_cfa_offset 16
	.cfi_offset %rbp, -16
	movq	%rsp, %rbp
	.cfi_def_cfa_register %rbp
	pushq	%rbx
	subq	$24, %rsp
	.cfi_offset %rbx, -24
	movl	$644194906, -12(%rbp)   # imm = 0x2665A25A
	movq	%rdi, -24(%rbp)
	movq	%rsi, -32(%rbp)
	movq	-24(%rbp), %rdi
	movq	-32(%rbp), %rdx
	movl	$4294967295, %esi       # imm = 0xFFFFFFFF
	xorl	%ecx, %ecx
	callq	bzopen_or_bzdopen
	movq	%rax, %rbx
	cmpl	$644194906, -12(%rbp)   # imm = 0x2665A25A
	jne	.LBB66_2
.LBB66_1:
	movq	%rbx, %rax
	addq	$24, %rsp
	popq	%rbx
	popq	%rbp
	.cfi_def_cfa %rsp, 8
	retq
.LBB66_2:                               # %func_exit
	.cfi_def_cfa %rbp, 16
	callq	detect_breach
	jmp	.LBB66_1
.Lfunc_end66:
	.size	BZ2_bzopen.26, .Lfunc_end66-BZ2_bzopen.26
	.cfi_endproc
                                        # -- End function
	.globl	BZ2_indexIntoF.27       # -- Begin function BZ2_indexIntoF.27
	.p2align	4, 0x90
	.type	BZ2_indexIntoF.27,@function
BZ2_indexIntoF.27:                      # @BZ2_indexIntoF.27
	.cfi_startproc
# %bb.0:                                # %entry
	pushq	%rbp
	.cfi_def_cfa_offset 16
	.cfi_offset %rbp, -16
	movq	%rsp, %rbp
	.cfi_def_cfa_register %rbp
	pushq	%rbx
	subq	$40, %rsp
	.cfi_offset %rbx, -24
	movl	$323719698, -28(%rbp)   # imm = 0x134B9212
	movl	%edi, -24(%rbp)
	movq	%rsi, -40(%rbp)
	movl	$0, -12(%rbp)
	movl	$256, -16(%rbp)         # imm = 0x100
.LBB67_1:                               # %do.body
                                        # =>This Inner Loop Header: Depth=1
	movl	-12(%rbp), %eax
	addl	-16(%rbp), %eax
	sarl	$1, %eax
	movl	%eax, -20(%rbp)
	movl	-24(%rbp), %eax
	movq	-40(%rbp), %rcx
	movslq	-20(%rbp), %rdx
	cmpl	(%rcx,%rdx,4), %eax
	jl	.LBB67_3
# %bb.2:                                # %if.then
                                        #   in Loop: Header=BB67_1 Depth=1
	movl	-20(%rbp), %eax
	movl	%eax, -12(%rbp)
	jmp	.LBB67_4
.LBB67_3:                               # %if.else
                                        #   in Loop: Header=BB67_1 Depth=1
	movl	-20(%rbp), %eax
	movl	%eax, -16(%rbp)
.LBB67_4:                               # %if.end
                                        #   in Loop: Header=BB67_1 Depth=1
	jmp	.LBB67_5
.LBB67_5:                               # %do.cond
                                        #   in Loop: Header=BB67_1 Depth=1
	movl	-16(%rbp), %eax
	subl	-12(%rbp), %eax
	cmpl	$1, %eax
	jne	.LBB67_1
# %bb.6:                                # %do.end
	movl	-12(%rbp), %ebx
	cmpl	$323719698, -28(%rbp)   # imm = 0x134B9212
	jne	.LBB67_8
.LBB67_7:
	movl	%ebx, %eax
	addq	$40, %rsp
	popq	%rbx
	popq	%rbp
	.cfi_def_cfa %rsp, 8
	retq
.LBB67_8:                               # %func_exit
	.cfi_def_cfa %rbp, 16
	callq	detect_breach
	jmp	.LBB67_7
.Lfunc_end67:
	.size	BZ2_indexIntoF.27, .Lfunc_end67-BZ2_indexIntoF.27
	.cfi_endproc
                                        # -- End function
	.globl	BZ2_bzCompress.28       # -- Begin function BZ2_bzCompress.28
	.p2align	4, 0x90
	.type	BZ2_bzCompress.28,@function
BZ2_bzCompress.28:                      # @BZ2_bzCompress.28
	.cfi_startproc
# %bb.0:                                # %entry
	pushq	%rbp
	.cfi_def_cfa_offset 16
	.cfi_offset %rbp, -16
	movq	%rsp, %rbp
	.cfi_def_cfa_register %rbp
	pushq	%rbx
	subq	$40, %rsp
	.cfi_offset %rbx, -24
	movl	$1294713996, -44(%rbp)  # imm = 0x4D2BC48C
	movq	%rdi, -40(%rbp)
	movl	%esi, -28(%rbp)
	cmpq	$0, -40(%rbp)
	jne	.LBB68_2
# %bb.1:                                # %if.then
	movl	$-2, -16(%rbp)
	jmp	.LBB68_39
.LBB68_2:                               # %if.end
	movq	-40(%rbp), %rax
	movq	48(%rax), %rax
	movq	%rax, -24(%rbp)
	cmpq	$0, -24(%rbp)
	jne	.LBB68_4
# %bb.3:                                # %if.then2
	movl	$-2, -16(%rbp)
	jmp	.LBB68_39
.LBB68_4:                               # %if.end3
	movq	-24(%rbp), %rax
	movq	(%rax), %rax
	cmpq	-40(%rbp), %rax
	je	.LBB68_6
# %bb.5:                                # %if.then6
	movl	$-2, -16(%rbp)
	jmp	.LBB68_39
.LBB68_6:                               # %if.end7
	jmp	.LBB68_7
.LBB68_7:                               # %preswitch
                                        # =>This Inner Loop Header: Depth=1
	movq	-24(%rbp), %rax
	movl	8(%rax), %eax
	addl	$-1, %eax
	movl	%eax, %ecx
	subl	$3, %ecx
	ja	.LBB68_38
# %bb.8:                                # %preswitch
                                        #   in Loop: Header=BB68_7 Depth=1
	movq	.LJTI68_0(,%rax,8), %rax
	jmpq	*%rax
.LBB68_9:                               # %sw.bb
	movl	$-1, -16(%rbp)
	jmp	.LBB68_39
.LBB68_10:                              # %sw.bb8
                                        #   in Loop: Header=BB68_7 Depth=1
	cmpl	$0, -28(%rbp)
	jne	.LBB68_12
# %bb.11:                               # %if.then10
	movq	-40(%rbp), %rdi
	callq	handle_compress
	movb	%al, -9(%rbp)
	movzbl	-9(%rbp), %eax
	cmpl	$0, %eax
	movl	$1, %eax
	movl	$4294967294, %ecx       # imm = 0xFFFFFFFE
	cmovnel	%eax, %ecx
	movl	%ecx, -16(%rbp)
	jmp	.LBB68_39
.LBB68_12:                              # %if.else
                                        #   in Loop: Header=BB68_7 Depth=1
	cmpl	$1, -28(%rbp)
	jne	.LBB68_15
# %bb.13:                               # %if.then13
                                        #   in Loop: Header=BB68_7 Depth=1
	movq	-40(%rbp), %rax
	movl	8(%rax), %eax
	movq	-24(%rbp), %rcx
	movl	%eax, 16(%rcx)
	movq	-24(%rbp), %rax
	movl	$3, 8(%rax)
.LBB68_14:                              # %preswitch.backedge
                                        #   in Loop: Header=BB68_7 Depth=1
	jmp	.LBB68_7
.LBB68_15:                              # %if.else15
                                        #   in Loop: Header=BB68_7 Depth=1
	cmpl	$2, -28(%rbp)
	jne	.LBB68_17
# %bb.16:                               # %if.then18
                                        #   in Loop: Header=BB68_7 Depth=1
	movq	-40(%rbp), %rax
	movl	8(%rax), %eax
	movq	-24(%rbp), %rcx
	movl	%eax, 16(%rcx)
	movq	-24(%rbp), %rax
	movl	$4, 8(%rax)
	jmp	.LBB68_14
.LBB68_17:                              # %if.else22
	movl	$-2, -16(%rbp)
	jmp	.LBB68_39
.LBB68_18:                              # %sw.bb23
	cmpl	$1, -28(%rbp)
	je	.LBB68_20
# %bb.19:                               # %if.then26
	movl	$-1, -16(%rbp)
	jmp	.LBB68_39
.LBB68_20:                              # %if.end27
	movq	-24(%rbp), %rax
	movl	16(%rax), %eax
	movq	-24(%rbp), %rcx
	movq	(%rcx), %rcx
	cmpl	8(%rcx), %eax
	je	.LBB68_22
# %bb.21:                               # %if.then33
	movl	$-1, -16(%rbp)
	jmp	.LBB68_39
.LBB68_22:                              # %if.end34
	movq	-40(%rbp), %rdi
	callq	handle_compress
	movb	%al, -9(%rbp)
	movq	-24(%rbp), %rax
	cmpl	$0, 16(%rax)
	ja	.LBB68_25
# %bb.23:                               # %lor.lhs.false
	movq	-24(%rbp), %rdi
	callq	isempty_RL
	cmpb	$0, %al
	je	.LBB68_25
# %bb.24:                               # %lor.lhs.false41
	movq	-24(%rbp), %rax
	movl	120(%rax), %eax
	movq	-24(%rbp), %rcx
	cmpl	116(%rcx), %eax
	jge	.LBB68_26
.LBB68_25:                              # %if.then44
	movl	$2, -16(%rbp)
	jmp	.LBB68_39
.LBB68_26:                              # %if.end45
	movq	-24(%rbp), %rax
	movl	$2, 8(%rax)
	movl	$1, -16(%rbp)
	jmp	.LBB68_39
.LBB68_27:                              # %sw.bb47
	cmpl	$2, -28(%rbp)
	je	.LBB68_29
# %bb.28:                               # %if.then50
	movl	$-1, -16(%rbp)
	jmp	.LBB68_39
.LBB68_29:                              # %if.end51
	movq	-24(%rbp), %rax
	movl	16(%rax), %eax
	movq	-24(%rbp), %rcx
	movq	(%rcx), %rcx
	cmpl	8(%rcx), %eax
	je	.LBB68_31
# %bb.30:                               # %if.then57
	movl	$-1, -16(%rbp)
	jmp	.LBB68_39
.LBB68_31:                              # %if.end58
	movq	-40(%rbp), %rdi
	callq	handle_compress
	movb	%al, -9(%rbp)
	cmpb	$0, -9(%rbp)
	jne	.LBB68_33
# %bb.32:                               # %if.then61
	movl	$-1, -16(%rbp)
	jmp	.LBB68_39
.LBB68_33:                              # %if.end62
	movq	-24(%rbp), %rax
	cmpl	$0, 16(%rax)
	ja	.LBB68_36
# %bb.34:                               # %lor.lhs.false66
	movq	-24(%rbp), %rdi
	callq	isempty_RL
	cmpb	$0, %al
	je	.LBB68_36
# %bb.35:                               # %lor.lhs.false69
	movq	-24(%rbp), %rax
	movl	120(%rax), %eax
	movq	-24(%rbp), %rcx
	cmpl	116(%rcx), %eax
	jge	.LBB68_37
.LBB68_36:                              # %if.then74
	movl	$3, -16(%rbp)
	jmp	.LBB68_39
.LBB68_37:                              # %if.end75
	movq	-24(%rbp), %rax
	movl	$1, 8(%rax)
	movl	$4, -16(%rbp)
	jmp	.LBB68_39
.LBB68_38:                              # %sw.epilog
	movl	$0, -16(%rbp)
.LBB68_39:                              # %return
	movl	-16(%rbp), %ebx
	cmpl	$1294713996, -44(%rbp)  # imm = 0x4D2BC48C
	jne	.LBB68_41
.LBB68_40:
	movl	%ebx, %eax
	addq	$40, %rsp
	popq	%rbx
	popq	%rbp
	.cfi_def_cfa %rsp, 8
	retq
.LBB68_41:                              # %func_exit
	.cfi_def_cfa %rbp, 16
	callq	detect_breach
	jmp	.LBB68_40
.Lfunc_end68:
	.size	BZ2_bzCompress.28, .Lfunc_end68-BZ2_bzCompress.28
	.cfi_endproc
	.section	.rodata,"a",@progbits
	.p2align	3
.LJTI68_0:
	.quad	.LBB68_9
	.quad	.LBB68_10
	.quad	.LBB68_18
	.quad	.LBB68_27
                                        # -- End function
	.text
	.globl	BZ2_bzCompress.29       # -- Begin function BZ2_bzCompress.29
	.p2align	4, 0x90
	.type	BZ2_bzCompress.29,@function
BZ2_bzCompress.29:                      # @BZ2_bzCompress.29
	.cfi_startproc
# %bb.0:                                # %entry
	pushq	%rbp
	.cfi_def_cfa_offset 16
	.cfi_offset %rbp, -16
	movq	%rsp, %rbp
	.cfi_def_cfa_register %rbp
	pushq	%rbx
	subq	$40, %rsp
	.cfi_offset %rbx, -24
	movl	$1970489202, -44(%rbp)  # imm = 0x75734772
	movq	%rdi, -40(%rbp)
	movl	%esi, -28(%rbp)
	cmpq	$0, -40(%rbp)
	jne	.LBB69_2
# %bb.1:                                # %if.then
	movl	$-2, -16(%rbp)
	jmp	.LBB69_39
.LBB69_2:                               # %if.end
	movq	-40(%rbp), %rax
	movq	48(%rax), %rax
	movq	%rax, -24(%rbp)
	cmpq	$0, -24(%rbp)
	jne	.LBB69_4
# %bb.3:                                # %if.then2
	movl	$-2, -16(%rbp)
	jmp	.LBB69_39
.LBB69_4:                               # %if.end3
	movq	-24(%rbp), %rax
	movq	(%rax), %rax
	cmpq	-40(%rbp), %rax
	je	.LBB69_6
# %bb.5:                                # %if.then6
	movl	$-2, -16(%rbp)
	jmp	.LBB69_39
.LBB69_6:                               # %if.end7
	jmp	.LBB69_7
.LBB69_7:                               # %preswitch
                                        # =>This Inner Loop Header: Depth=1
	movq	-24(%rbp), %rax
	movl	8(%rax), %eax
	addl	$-1, %eax
	movl	%eax, %ecx
	subl	$3, %ecx
	ja	.LBB69_38
# %bb.8:                                # %preswitch
                                        #   in Loop: Header=BB69_7 Depth=1
	movq	.LJTI69_0(,%rax,8), %rax
	jmpq	*%rax
.LBB69_9:                               # %sw.bb
	movl	$-1, -16(%rbp)
	jmp	.LBB69_39
.LBB69_10:                              # %sw.bb8
                                        #   in Loop: Header=BB69_7 Depth=1
	cmpl	$0, -28(%rbp)
	jne	.LBB69_12
# %bb.11:                               # %if.then10
	movq	-40(%rbp), %rdi
	callq	handle_compress
	movb	%al, -9(%rbp)
	movzbl	-9(%rbp), %eax
	cmpl	$0, %eax
	movl	$1, %eax
	movl	$4294967294, %ecx       # imm = 0xFFFFFFFE
	cmovnel	%eax, %ecx
	movl	%ecx, -16(%rbp)
	jmp	.LBB69_39
.LBB69_12:                              # %if.else
                                        #   in Loop: Header=BB69_7 Depth=1
	cmpl	$1, -28(%rbp)
	jne	.LBB69_15
# %bb.13:                               # %if.then13
                                        #   in Loop: Header=BB69_7 Depth=1
	movq	-40(%rbp), %rax
	movl	8(%rax), %eax
	movq	-24(%rbp), %rcx
	movl	%eax, 16(%rcx)
	movq	-24(%rbp), %rax
	movl	$3, 8(%rax)
.LBB69_14:                              # %preswitch.backedge
                                        #   in Loop: Header=BB69_7 Depth=1
	jmp	.LBB69_7
.LBB69_15:                              # %if.else15
                                        #   in Loop: Header=BB69_7 Depth=1
	cmpl	$2, -28(%rbp)
	jne	.LBB69_17
# %bb.16:                               # %if.then18
                                        #   in Loop: Header=BB69_7 Depth=1
	movq	-40(%rbp), %rax
	movl	8(%rax), %eax
	movq	-24(%rbp), %rcx
	movl	%eax, 16(%rcx)
	movq	-24(%rbp), %rax
	movl	$4, 8(%rax)
	jmp	.LBB69_14
.LBB69_17:                              # %if.else22
	movl	$-2, -16(%rbp)
	jmp	.LBB69_39
.LBB69_18:                              # %sw.bb23
	cmpl	$1, -28(%rbp)
	je	.LBB69_20
# %bb.19:                               # %if.then26
	movl	$-1, -16(%rbp)
	jmp	.LBB69_39
.LBB69_20:                              # %if.end27
	movq	-24(%rbp), %rax
	movl	16(%rax), %eax
	movq	-24(%rbp), %rcx
	movq	(%rcx), %rcx
	cmpl	8(%rcx), %eax
	je	.LBB69_22
# %bb.21:                               # %if.then33
	movl	$-1, -16(%rbp)
	jmp	.LBB69_39
.LBB69_22:                              # %if.end34
	movq	-40(%rbp), %rdi
	callq	handle_compress
	movb	%al, -9(%rbp)
	movq	-24(%rbp), %rax
	cmpl	$0, 16(%rax)
	ja	.LBB69_25
# %bb.23:                               # %lor.lhs.false
	movq	-24(%rbp), %rdi
	callq	isempty_RL
	cmpb	$0, %al
	je	.LBB69_25
# %bb.24:                               # %lor.lhs.false41
	movq	-24(%rbp), %rax
	movl	120(%rax), %eax
	movq	-24(%rbp), %rcx
	cmpl	116(%rcx), %eax
	jge	.LBB69_26
.LBB69_25:                              # %if.then44
	movl	$2, -16(%rbp)
	jmp	.LBB69_39
.LBB69_26:                              # %if.end45
	movq	-24(%rbp), %rax
	movl	$2, 8(%rax)
	movl	$1, -16(%rbp)
	jmp	.LBB69_39
.LBB69_27:                              # %sw.bb47
	cmpl	$2, -28(%rbp)
	je	.LBB69_29
# %bb.28:                               # %if.then50
	movl	$-1, -16(%rbp)
	jmp	.LBB69_39
.LBB69_29:                              # %if.end51
	movq	-24(%rbp), %rax
	movl	16(%rax), %eax
	movq	-24(%rbp), %rcx
	movq	(%rcx), %rcx
	cmpl	8(%rcx), %eax
	je	.LBB69_31
# %bb.30:                               # %if.then57
	movl	$-1, -16(%rbp)
	jmp	.LBB69_39
.LBB69_31:                              # %if.end58
	movq	-40(%rbp), %rdi
	callq	handle_compress
	movb	%al, -9(%rbp)
	cmpb	$0, -9(%rbp)
	jne	.LBB69_33
# %bb.32:                               # %if.then61
	movl	$-1, -16(%rbp)
	jmp	.LBB69_39
.LBB69_33:                              # %if.end62
	movq	-24(%rbp), %rax
	cmpl	$0, 16(%rax)
	ja	.LBB69_36
# %bb.34:                               # %lor.lhs.false66
	movq	-24(%rbp), %rdi
	callq	isempty_RL
	cmpb	$0, %al
	je	.LBB69_36
# %bb.35:                               # %lor.lhs.false69
	movq	-24(%rbp), %rax
	movl	120(%rax), %eax
	movq	-24(%rbp), %rcx
	cmpl	116(%rcx), %eax
	jge	.LBB69_37
.LBB69_36:                              # %if.then74
	movl	$3, -16(%rbp)
	jmp	.LBB69_39
.LBB69_37:                              # %if.end75
	movq	-24(%rbp), %rax
	movl	$1, 8(%rax)
	movl	$4, -16(%rbp)
	jmp	.LBB69_39
.LBB69_38:                              # %sw.epilog
	movl	$0, -16(%rbp)
.LBB69_39:                              # %return
	movl	-16(%rbp), %ebx
	cmpl	$1970489202, -44(%rbp)  # imm = 0x75734772
	jne	.LBB69_41
.LBB69_40:
	movl	%ebx, %eax
	addq	$40, %rsp
	popq	%rbx
	popq	%rbp
	.cfi_def_cfa %rsp, 8
	retq
.LBB69_41:                              # %func_exit
	.cfi_def_cfa %rbp, 16
	callq	detect_breach
	jmp	.LBB69_40
.Lfunc_end69:
	.size	BZ2_bzCompress.29, .Lfunc_end69-BZ2_bzCompress.29
	.cfi_endproc
	.section	.rodata,"a",@progbits
	.p2align	3
.LJTI69_0:
	.quad	.LBB69_9
	.quad	.LBB69_10
	.quad	.LBB69_18
	.quad	.LBB69_27
                                        # -- End function
	.text
	.globl	BZ2_bzopen.30           # -- Begin function BZ2_bzopen.30
	.p2align	4, 0x90
	.type	BZ2_bzopen.30,@function
BZ2_bzopen.30:                          # @BZ2_bzopen.30
	.cfi_startproc
# %bb.0:                                # %entry
	pushq	%rbp
	.cfi_def_cfa_offset 16
	.cfi_offset %rbp, -16
	movq	%rsp, %rbp
	.cfi_def_cfa_register %rbp
	pushq	%rbx
	subq	$24, %rsp
	.cfi_offset %rbx, -24
	movl	$1070214515, -12(%rbp)  # imm = 0x3FCA2D73
	movq	%rdi, -32(%rbp)
	movq	%rsi, -24(%rbp)
	movq	-32(%rbp), %rdi
	movq	-24(%rbp), %rdx
	movl	$4294967295, %esi       # imm = 0xFFFFFFFF
	xorl	%ecx, %ecx
	callq	bzopen_or_bzdopen
	movq	%rax, %rbx
	cmpl	$1070214515, -12(%rbp)  # imm = 0x3FCA2D73
	jne	.LBB70_2
.LBB70_1:
	movq	%rbx, %rax
	addq	$24, %rsp
	popq	%rbx
	popq	%rbp
	.cfi_def_cfa %rsp, 8
	retq
.LBB70_2:                               # %func_exit
	.cfi_def_cfa %rbp, 16
	callq	detect_breach
	jmp	.LBB70_1
.Lfunc_end70:
	.size	BZ2_bzopen.30, .Lfunc_end70-BZ2_bzopen.30
	.cfi_endproc
                                        # -- End function
	.p2align	4, 0x90         # -- Begin function bzopen_or_bzdopen.31
	.type	bzopen_or_bzdopen.31,@function
bzopen_or_bzdopen.31:                   # @bzopen_or_bzdopen.31
	.cfi_startproc
# %bb.0:                                # %entry
	pushq	%rbp
	.cfi_def_cfa_offset 16
	.cfi_offset %rbp, -16
	movq	%rsp, %rbp
	.cfi_def_cfa_register %rbp
	pushq	%rbx
	subq	$5096, %rsp             # imm = 0x13E8
	.cfi_offset %rbx, -24
	movl	$2003702957, -84(%rbp)  # imm = 0x776E14AD
	movq	%rdi, -64(%rbp)
	movl	%esi, -76(%rbp)
	movq	%rdx, -32(%rbp)
	movl	%ecx, -80(%rbp)
	movl	$9, -12(%rbp)
	movl	$0, -16(%rbp)
	leaq	-98(%rbp), %rdi
	xorl	%esi, %esi
	movl	$10, %edx
	callq	memset
	movq	$0, -24(%rbp)
	movq	$0, -48(%rbp)
	movl	$0, -40(%rbp)
	movl	$30, -88(%rbp)
	movl	$0, -36(%rbp)
	movl	$0, -68(%rbp)
	cmpq	$0, -32(%rbp)
	jne	.LBB71_2
# %bb.1:                                # %if.then
	movq	$0, -56(%rbp)
	jmp	.LBB71_39
.LBB71_2:                               # %if.end
	jmp	.LBB71_3
.LBB71_3:                               # %while.cond
                                        # =>This Inner Loop Header: Depth=1
	movq	-32(%rbp), %rax
	cmpb	$0, (%rax)
	je	.LBB71_14
# %bb.4:                                # %while.body
                                        #   in Loop: Header=BB71_3 Depth=1
	movq	-32(%rbp), %rax
	movsbl	(%rax), %eax
	movl	%eax, %ecx
	subl	$114, %ecx
	je	.LBB71_7
	jmp	.LBB71_5
.LBB71_5:                               # %while.body
                                        #   in Loop: Header=BB71_3 Depth=1
	movl	%eax, %ecx
	subl	$115, %ecx
	je	.LBB71_9
	jmp	.LBB71_6
.LBB71_6:                               # %while.body
                                        #   in Loop: Header=BB71_3 Depth=1
	subl	$119, %eax
	je	.LBB71_8
	jmp	.LBB71_10
.LBB71_7:                               # %sw.bb
                                        #   in Loop: Header=BB71_3 Depth=1
	movl	$0, -16(%rbp)
	jmp	.LBB71_13
.LBB71_8:                               # %sw.bb1
                                        #   in Loop: Header=BB71_3 Depth=1
	movl	$1, -16(%rbp)
	jmp	.LBB71_13
.LBB71_9:                               # %sw.bb2
                                        #   in Loop: Header=BB71_3 Depth=1
	movl	$1, -36(%rbp)
	jmp	.LBB71_13
.LBB71_10:                              # %sw.default
                                        #   in Loop: Header=BB71_3 Depth=1
	callq	__ctype_b_loc
	movq	(%rax), %rax
	movq	-32(%rbp), %rcx
	movsbl	(%rcx), %ecx
	movslq	%ecx, %rcx
	movzwl	(%rax,%rcx,2), %eax
	andl	$2048, %eax             # imm = 0x800
	cmpl	$0, %eax
	je	.LBB71_12
# %bb.11:                               # %if.then6
                                        #   in Loop: Header=BB71_3 Depth=1
	movq	-32(%rbp), %rax
	movsbl	(%rax), %eax
	subl	$48, %eax
	movl	%eax, -12(%rbp)
.LBB71_12:                              # %if.end8
                                        #   in Loop: Header=BB71_3 Depth=1
	jmp	.LBB71_13
.LBB71_13:                              # %sw.epilog
                                        #   in Loop: Header=BB71_3 Depth=1
	movq	-32(%rbp), %rax
	addq	$1, %rax
	movq	%rax, -32(%rbp)
	jmp	.LBB71_3
.LBB71_14:                              # %while.end
	leaq	-98(%rbp), %rdi
	movl	-16(%rbp), %eax
	cmpl	$0, %eax
	movabsq	$.L.str.6, %rax
	movabsq	$.L.str.7, %rsi
	cmovneq	%rax, %rsi
	callq	strcat
	leaq	-98(%rbp), %rdi
	movabsq	$.L.str.8, %rsi
	callq	strcat
	cmpl	$0, -80(%rbp)
	jne	.LBB71_23
# %bb.15:                               # %if.then15
	cmpq	$0, -64(%rbp)
	je	.LBB71_17
# %bb.16:                               # %lor.lhs.false
	movq	-64(%rbp), %rdi
	movl	$.L.str.9, %esi
	callq	strcmp
	cmpl	$0, %eax
	jne	.LBB71_21
.LBB71_17:                              # %if.then21
	cmpl	$0, -16(%rbp)
	je	.LBB71_19
# %bb.18:                               # %cond.true
	movq	stdout, %rax
	jmp	.LBB71_20
.LBB71_19:                              # %cond.false
	movq	stdin, %rax
.LBB71_20:                              # %cond.end
	movq	%rax, -24(%rbp)
	jmp	.LBB71_22
.LBB71_21:                              # %if.else
	leaq	-98(%rbp), %rsi
	movq	-64(%rbp), %rdi
	callq	fopen
	movq	%rax, -24(%rbp)
.LBB71_22:                              # %if.end26
	jmp	.LBB71_24
.LBB71_23:                              # %if.else27
	leaq	-98(%rbp), %rsi
	movl	-76(%rbp), %edi
	callq	fdopen
	movq	%rax, -24(%rbp)
.LBB71_24:                              # %if.end30
	cmpq	$0, -24(%rbp)
	jne	.LBB71_26
# %bb.25:                               # %if.then33
	movq	$0, -56(%rbp)
	jmp	.LBB71_39
.LBB71_26:                              # %if.end34
	cmpl	$0, -16(%rbp)
	je	.LBB71_32
# %bb.27:                               # %if.then36
	cmpl	$1, -12(%rbp)
	jge	.LBB71_29
# %bb.28:                               # %if.then39
	movl	$1, -12(%rbp)
.LBB71_29:                              # %if.end40
	cmpl	$9, -12(%rbp)
	jle	.LBB71_31
# %bb.30:                               # %if.then43
	movl	$9, -12(%rbp)
.LBB71_31:                              # %if.end44
	movq	-24(%rbp), %rsi
	movl	-12(%rbp), %edx
	movl	-40(%rbp), %ecx
	movl	-88(%rbp), %r8d
	leaq	-72(%rbp), %rdi
	callq	BZ2_bzWriteOpen
	movq	%rax, -48(%rbp)
	jmp	.LBB71_33
.LBB71_32:                              # %if.else46
	leaq	-5104(%rbp), %r8
	movq	-24(%rbp), %rsi
	movl	-40(%rbp), %edx
	movl	-36(%rbp), %ecx
	movl	-68(%rbp), %r9d
	leaq	-72(%rbp), %rdi
	callq	BZ2_bzReadOpen
	movq	%rax, -48(%rbp)
.LBB71_33:                              # %if.end49
	cmpq	$0, -48(%rbp)
	jne	.LBB71_38
# %bb.34:                               # %if.then52
	movq	-24(%rbp), %rax
	cmpq	stdin, %rax
	je	.LBB71_37
# %bb.35:                               # %land.lhs.true
	movq	-24(%rbp), %rax
	cmpq	stdout, %rax
	je	.LBB71_37
# %bb.36:                               # %if.then57
	movq	-24(%rbp), %rdi
	callq	fclose
.LBB71_37:                              # %if.end59
	movq	$0, -56(%rbp)
	jmp	.LBB71_39
.LBB71_38:                              # %if.end60
	movq	-48(%rbp), %rax
	movq	%rax, -56(%rbp)
.LBB71_39:                              # %return
	movq	-56(%rbp), %rbx
	cmpl	$2003702957, -84(%rbp)  # imm = 0x776E14AD
	jne	.LBB71_41
.LBB71_40:
	movq	%rbx, %rax
	addq	$5096, %rsp             # imm = 0x13E8
	popq	%rbx
	popq	%rbp
	.cfi_def_cfa %rsp, 8
	retq
.LBB71_41:                              # %func_exit
	.cfi_def_cfa %rbp, 16
	callq	detect_breach
	jmp	.LBB71_40
.Lfunc_end71:
	.size	bzopen_or_bzdopen.31, .Lfunc_end71-bzopen_or_bzdopen.31
	.cfi_endproc
                                        # -- End function
	.globl	BZ2_bzDecompressInit.32 # -- Begin function BZ2_bzDecompressInit.32
	.p2align	4, 0x90
	.type	BZ2_bzDecompressInit.32,@function
BZ2_bzDecompressInit.32:                # @BZ2_bzDecompressInit.32
	.cfi_startproc
# %bb.0:                                # %entry
	pushq	%rbp
	.cfi_def_cfa_offset 16
	.cfi_offset %rbp, -16
	movq	%rsp, %rbp
	.cfi_def_cfa_register %rbp
	pushq	%rbx
	subq	$40, %rsp
	.cfi_offset %rbx, -24
	movl	$1258627678, -40(%rbp)  # imm = 0x4B05225E
	movq	%rdi, -16(%rbp)
	movl	%esi, -36(%rbp)
	movl	%edx, -32(%rbp)
	callq	bz_config_ok
	cmpl	$0, %eax
	jne	.LBB72_2
# %bb.1:                                # %if.then
	movl	$-9, -28(%rbp)
	jmp	.LBB72_17
.LBB72_2:                               # %if.end
	cmpq	$0, -16(%rbp)
	jne	.LBB72_4
# %bb.3:                                # %if.then1
	movl	$-2, -28(%rbp)
	jmp	.LBB72_17
.LBB72_4:                               # %if.end2
	cmpl	$0, -32(%rbp)
	je	.LBB72_7
# %bb.5:                                # %land.lhs.true
	cmpl	$1, -32(%rbp)
	je	.LBB72_7
# %bb.6:                                # %if.then5
	movl	$-2, -28(%rbp)
	jmp	.LBB72_17
.LBB72_7:                               # %if.end6
	cmpl	$0, -36(%rbp)
	jl	.LBB72_9
# %bb.8:                                # %lor.lhs.false
	cmpl	$4, -36(%rbp)
	jle	.LBB72_10
.LBB72_9:                               # %if.then9
	movl	$-2, -28(%rbp)
	jmp	.LBB72_17
.LBB72_10:                              # %if.end10
	movq	-16(%rbp), %rax
	cmpq	$0, 56(%rax)
	jne	.LBB72_12
# %bb.11:                               # %if.then12
	movq	-16(%rbp), %rax
	movabsq	$default_bzalloc, %rcx
	movq	%rcx, 56(%rax)
.LBB72_12:                              # %if.end14
	movq	-16(%rbp), %rax
	cmpq	$0, 64(%rax)
	jne	.LBB72_14
# %bb.13:                               # %if.then16
	movq	-16(%rbp), %rax
	movabsq	$default_bzfree, %rcx
	movq	%rcx, 64(%rax)
.LBB72_14:                              # %if.end18
	movq	-16(%rbp), %rax
	movq	56(%rax), %rax
	movq	-16(%rbp), %rcx
	movq	72(%rcx), %rdi
	movl	$64144, %esi            # imm = 0xFA90
	movl	$1, %edx
	callq	*%rax
	movq	%rax, -24(%rbp)
	cmpq	$0, -24(%rbp)
	jne	.LBB72_16
# %bb.15:                               # %if.then22
	movl	$-3, -28(%rbp)
	jmp	.LBB72_17
.LBB72_16:                              # %if.end23
	movq	-16(%rbp), %rax
	movq	-24(%rbp), %rcx
	movq	%rax, (%rcx)
	movq	-24(%rbp), %rax
	movq	-16(%rbp), %rcx
	movq	%rax, 48(%rcx)
	movq	-24(%rbp), %rax
	movl	$10, 8(%rax)
	movq	-24(%rbp), %rax
	movl	$0, 36(%rax)
	movq	-24(%rbp), %rax
	movl	$0, 32(%rax)
	movq	-24(%rbp), %rax
	movl	$0, 3188(%rax)
	movq	-16(%rbp), %rax
	movl	$0, 12(%rax)
	movq	-16(%rbp), %rax
	movl	$0, 16(%rax)
	movq	-16(%rbp), %rax
	movl	$0, 36(%rax)
	movq	-16(%rbp), %rax
	movl	$0, 40(%rax)
	movl	-32(%rbp), %eax
	movq	-24(%rbp), %rcx
	movb	%al, 44(%rcx)
	movq	-24(%rbp), %rax
	movq	$0, 3168(%rax)
	movq	-24(%rbp), %rax
	movq	$0, 3160(%rax)
	movq	-24(%rbp), %rax
	movq	$0, 3152(%rax)
	movq	-24(%rbp), %rax
	movl	$0, 48(%rax)
	movl	-36(%rbp), %eax
	movq	-24(%rbp), %rcx
	movl	%eax, 52(%rcx)
	movl	$0, -28(%rbp)
.LBB72_17:                              # %return
	movl	-28(%rbp), %ebx
	cmpl	$1258627678, -40(%rbp)  # imm = 0x4B05225E
	jne	.LBB72_19
.LBB72_18:
	movl	%ebx, %eax
	addq	$40, %rsp
	popq	%rbx
	popq	%rbp
	.cfi_def_cfa %rsp, 8
	retq
.LBB72_19:                              # %func_exit
	.cfi_def_cfa %rbp, 16
	callq	detect_breach
	jmp	.LBB72_18
.Lfunc_end72:
	.size	BZ2_bzDecompressInit.32, .Lfunc_end72-BZ2_bzDecompressInit.32
	.cfi_endproc
                                        # -- End function
	.p2align	4, 0x90         # -- Begin function unRLE_obuf_to_output_SMALL.33
	.type	unRLE_obuf_to_output_SMALL.33,@function
unRLE_obuf_to_output_SMALL.33:          # @unRLE_obuf_to_output_SMALL.33
	.cfi_startproc
# %bb.0:                                # %entry
	pushq	%rbp
	.cfi_def_cfa_offset 16
	.cfi_offset %rbp, -16
	movq	%rsp, %rbp
	.cfi_def_cfa_register %rbp
	pushq	%rbx
	subq	$24, %rsp
	.cfi_offset %rbx, -24
	movl	$1338786131, -32(%rbp)  # imm = 0x4FCC4153
	movq	%rdi, -24(%rbp)
	movq	-24(%rbp), %rax
	cmpb	$0, 20(%rax)
	je	.LBB73_48
# %bb.1:                                # %if.then
	jmp	.LBB73_2
.LBB73_2:                               # %while.body
                                        # =>This Loop Header: Depth=1
                                        #     Child Loop BB73_3 Depth 2
	jmp	.LBB73_3
.LBB73_3:                               # %while.body2
                                        #   Parent Loop BB73_2 Depth=1
                                        # =>  This Inner Loop Header: Depth=2
	movq	-24(%rbp), %rax
	movq	(%rax), %rax
	cmpl	$0, 32(%rax)
	jne	.LBB73_5
# %bb.4:                                # %if.then3
	movb	$0, -25(%rbp)
	jmp	.LBB73_75
.LBB73_5:                               # %if.end
                                        #   in Loop: Header=BB73_3 Depth=2
	movq	-24(%rbp), %rax
	cmpl	$0, 16(%rax)
	jne	.LBB73_7
# %bb.6:                                # %if.then5
                                        #   in Loop: Header=BB73_2 Depth=1
	jmp	.LBB73_10
.LBB73_7:                               # %if.end6
                                        #   in Loop: Header=BB73_3 Depth=2
	movq	-24(%rbp), %rax
	movb	12(%rax), %al
	movq	-24(%rbp), %rcx
	movq	(%rcx), %rcx
	movq	24(%rcx), %rcx
	movb	%al, (%rcx)
	movq	-24(%rbp), %rax
	movl	3184(%rax), %eax
	shll	$8, %eax
	movq	-24(%rbp), %rcx
	movl	3184(%rcx), %ecx
	shrl	$24, %ecx
	movq	-24(%rbp), %rdx
	movzbl	12(%rdx), %edx
	xorl	%edx, %ecx
	movl	%ecx, %ecx
	xorl	BZ2_crc32Table(,%rcx,4), %eax
	movq	-24(%rbp), %rcx
	movl	%eax, 3184(%rcx)
	movq	-24(%rbp), %rax
	movl	16(%rax), %ecx
	addl	$-1, %ecx
	movl	%ecx, 16(%rax)
	movq	-24(%rbp), %rax
	movq	(%rax), %rax
	movq	24(%rax), %rcx
	addq	$1, %rcx
	movq	%rcx, 24(%rax)
	movq	-24(%rbp), %rax
	movq	(%rax), %rax
	movl	32(%rax), %ecx
	addl	$-1, %ecx
	movl	%ecx, 32(%rax)
	movq	-24(%rbp), %rax
	movq	(%rax), %rax
	movl	36(%rax), %ecx
	addl	$1, %ecx
	movl	%ecx, 36(%rax)
	movq	-24(%rbp), %rax
	movq	(%rax), %rax
	cmpl	$0, 36(%rax)
	jne	.LBB73_9
# %bb.8:                                # %if.then23
                                        #   in Loop: Header=BB73_3 Depth=2
	movq	-24(%rbp), %rax
	movq	(%rax), %rax
	movl	40(%rax), %ecx
	addl	$1, %ecx
	movl	%ecx, 40(%rax)
.LBB73_9:                               # %if.end26
                                        #   in Loop: Header=BB73_3 Depth=2
	jmp	.LBB73_3
.LBB73_10:                              # %while.end
                                        #   in Loop: Header=BB73_2 Depth=1
	movq	-24(%rbp), %rax
	movl	1092(%rax), %eax
	movq	-24(%rbp), %rcx
	movl	64080(%rcx), %ecx
	addl	$1, %ecx
	cmpl	%ecx, %eax
	jne	.LBB73_12
# %bb.11:                               # %if.then29
	movb	$0, -25(%rbp)
	jmp	.LBB73_75
.LBB73_12:                              # %if.end30
                                        #   in Loop: Header=BB73_2 Depth=1
	movq	-24(%rbp), %rax
	movl	1092(%rax), %eax
	movq	-24(%rbp), %rcx
	movl	64080(%rcx), %ecx
	addl	$1, %ecx
	cmpl	%ecx, %eax
	jle	.LBB73_14
# %bb.13:                               # %if.then36
	movb	$1, -25(%rbp)
	jmp	.LBB73_75
.LBB73_14:                              # %if.end37
                                        #   in Loop: Header=BB73_2 Depth=1
	movq	-24(%rbp), %rax
	movl	$1, 16(%rax)
	movq	-24(%rbp), %rax
	movl	64(%rax), %eax
	movq	-24(%rbp), %rcx
	movb	%al, 12(%rcx)
	movq	-24(%rbp), %rax
	movl	60(%rax), %edi
	movq	-24(%rbp), %rsi
	addq	$1096, %rsi             # imm = 0x448
	callq	BZ2_indexIntoF
	movb	%al, -9(%rbp)
	movq	-24(%rbp), %rax
	movq	3160(%rax), %rax
	movq	-24(%rbp), %rcx
	movl	60(%rcx), %ecx
	movzwl	(%rax,%rcx,2), %eax
	movq	-24(%rbp), %rcx
	movq	3168(%rcx), %rcx
	movq	-24(%rbp), %rdx
	movl	60(%rdx), %edx
	shrl	$1, %edx
	movl	%edx, %edx
	movzbl	(%rcx,%rdx), %edx
	movq	-24(%rbp), %rcx
	movl	60(%rcx), %ecx
	shll	$2, %ecx
	andl	$4, %ecx
                                        # kill: def $cl killed $ecx
	shrl	%cl, %edx
	andl	$15, %edx
	shll	$16, %edx
	orl	%edx, %eax
	movq	-24(%rbp), %rcx
	movl	%eax, 60(%rcx)
	movq	-24(%rbp), %rax
	cmpl	$0, 24(%rax)
	jne	.LBB73_18
# %bb.15:                               # %if.then59
                                        #   in Loop: Header=BB73_2 Depth=1
	movq	-24(%rbp), %rax
	movslq	28(%rax), %rax
	movl	BZ2_rNums(,%rax,4), %eax
	movq	-24(%rbp), %rcx
	movl	%eax, 24(%rcx)
	movq	-24(%rbp), %rax
	movl	28(%rax), %ecx
	addl	$1, %ecx
	movl	%ecx, 28(%rax)
	movq	-24(%rbp), %rax
	cmpl	$512, 28(%rax)          # imm = 0x200
	jne	.LBB73_17
# %bb.16:                               # %if.then68
                                        #   in Loop: Header=BB73_2 Depth=1
	movq	-24(%rbp), %rax
	movl	$0, 28(%rax)
.LBB73_17:                              # %if.end70
                                        #   in Loop: Header=BB73_2 Depth=1
	jmp	.LBB73_18
.LBB73_18:                              # %if.end71
                                        #   in Loop: Header=BB73_2 Depth=1
	xorl	%eax, %eax
	movq	-24(%rbp), %rcx
	movl	24(%rcx), %edx
	addl	$-1, %edx
	movl	%edx, 24(%rcx)
	movq	-24(%rbp), %rcx
	movl	24(%rcx), %ecx
	cmpl	$1, %ecx
	movl	$1, %ecx
	cmovel	%ecx, %eax
	movzbl	-9(%rbp), %ecx
	xorl	%eax, %ecx
	movb	%cl, -9(%rbp)
	movq	-24(%rbp), %rax
	movl	1092(%rax), %ecx
	addl	$1, %ecx
	movl	%ecx, 1092(%rax)
	movq	-24(%rbp), %rax
	movl	1092(%rax), %eax
	movq	-24(%rbp), %rcx
	movl	64080(%rcx), %ecx
	addl	$1, %ecx
	cmpl	%ecx, %eax
	jne	.LBB73_21
# %bb.19:                               # %if.then87
                                        #   in Loop: Header=BB73_2 Depth=1
	jmp	.LBB73_20
.LBB73_20:                              # %while.body.backedge
                                        #   in Loop: Header=BB73_2 Depth=1
	jmp	.LBB73_2
.LBB73_21:                              # %if.end88
                                        #   in Loop: Header=BB73_2 Depth=1
	movzbl	-9(%rbp), %eax
	movq	-24(%rbp), %rcx
	cmpl	64(%rcx), %eax
	je	.LBB73_23
# %bb.22:                               # %if.then93
                                        #   in Loop: Header=BB73_2 Depth=1
	movzbl	-9(%rbp), %eax
	movq	-24(%rbp), %rcx
	movl	%eax, 64(%rcx)
	jmp	.LBB73_20
.LBB73_23:                              # %if.end96
                                        #   in Loop: Header=BB73_2 Depth=1
	movq	-24(%rbp), %rax
	movl	$2, 16(%rax)
	movq	-24(%rbp), %rax
	movl	60(%rax), %edi
	movq	-24(%rbp), %rsi
	addq	$1096, %rsi             # imm = 0x448
	callq	BZ2_indexIntoF
	movb	%al, -9(%rbp)
	movq	-24(%rbp), %rax
	movq	3160(%rax), %rax
	movq	-24(%rbp), %rcx
	movl	60(%rcx), %ecx
	movzwl	(%rax,%rcx,2), %eax
	movq	-24(%rbp), %rcx
	movq	3168(%rcx), %rcx
	movq	-24(%rbp), %rdx
	movl	60(%rdx), %edx
	shrl	$1, %edx
	movl	%edx, %edx
	movzbl	(%rcx,%rdx), %edx
	movq	-24(%rbp), %rcx
	movl	60(%rcx), %ecx
	shll	$2, %ecx
	andl	$4, %ecx
                                        # kill: def $cl killed $ecx
	shrl	%cl, %edx
	andl	$15, %edx
	shll	$16, %edx
	orl	%edx, %eax
	movq	-24(%rbp), %rcx
	movl	%eax, 60(%rcx)
	movq	-24(%rbp), %rax
	cmpl	$0, 24(%rax)
	jne	.LBB73_27
# %bb.24:                               # %if.then125
                                        #   in Loop: Header=BB73_2 Depth=1
	movq	-24(%rbp), %rax
	movslq	28(%rax), %rax
	movl	BZ2_rNums(,%rax,4), %eax
	movq	-24(%rbp), %rcx
	movl	%eax, 24(%rcx)
	movq	-24(%rbp), %rax
	movl	28(%rax), %ecx
	addl	$1, %ecx
	movl	%ecx, 28(%rax)
	movq	-24(%rbp), %rax
	cmpl	$512, 28(%rax)          # imm = 0x200
	jne	.LBB73_26
# %bb.25:                               # %if.then135
                                        #   in Loop: Header=BB73_2 Depth=1
	movq	-24(%rbp), %rax
	movl	$0, 28(%rax)
.LBB73_26:                              # %if.end137
                                        #   in Loop: Header=BB73_2 Depth=1
	jmp	.LBB73_27
.LBB73_27:                              # %if.end138
                                        #   in Loop: Header=BB73_2 Depth=1
	xorl	%eax, %eax
	movq	-24(%rbp), %rcx
	movl	24(%rcx), %edx
	addl	$-1, %edx
	movl	%edx, 24(%rcx)
	movq	-24(%rbp), %rcx
	movl	24(%rcx), %ecx
	cmpl	$1, %ecx
	movl	$1, %ecx
	cmovel	%ecx, %eax
	movzbl	-9(%rbp), %ecx
	xorl	%eax, %ecx
	movb	%cl, -9(%rbp)
	movq	-24(%rbp), %rax
	movl	1092(%rax), %ecx
	addl	$1, %ecx
	movl	%ecx, 1092(%rax)
	movq	-24(%rbp), %rax
	movl	1092(%rax), %eax
	movq	-24(%rbp), %rcx
	movl	64080(%rcx), %ecx
	addl	$1, %ecx
	cmpl	%ecx, %eax
	jne	.LBB73_29
# %bb.28:                               # %if.then155
                                        #   in Loop: Header=BB73_2 Depth=1
	jmp	.LBB73_20
.LBB73_29:                              # %if.end156
                                        #   in Loop: Header=BB73_2 Depth=1
	movzbl	-9(%rbp), %eax
	movq	-24(%rbp), %rcx
	cmpl	64(%rcx), %eax
	je	.LBB73_31
# %bb.30:                               # %if.then161
                                        #   in Loop: Header=BB73_2 Depth=1
	movzbl	-9(%rbp), %eax
	movq	-24(%rbp), %rcx
	movl	%eax, 64(%rcx)
	jmp	.LBB73_20
.LBB73_31:                              # %if.end164
                                        #   in Loop: Header=BB73_2 Depth=1
	movq	-24(%rbp), %rax
	movl	$3, 16(%rax)
	movq	-24(%rbp), %rax
	movl	60(%rax), %edi
	movq	-24(%rbp), %rsi
	addq	$1096, %rsi             # imm = 0x448
	callq	BZ2_indexIntoF
	movb	%al, -9(%rbp)
	movq	-24(%rbp), %rax
	movq	3160(%rax), %rax
	movq	-24(%rbp), %rcx
	movl	60(%rcx), %ecx
	movzwl	(%rax,%rcx,2), %eax
	movq	-24(%rbp), %rcx
	movq	3168(%rcx), %rcx
	movq	-24(%rbp), %rdx
	movl	60(%rdx), %edx
	shrl	$1, %edx
	movl	%edx, %edx
	movzbl	(%rcx,%rdx), %edx
	movq	-24(%rbp), %rcx
	movl	60(%rcx), %ecx
	shll	$2, %ecx
	andl	$4, %ecx
                                        # kill: def $cl killed $ecx
	shrl	%cl, %edx
	andl	$15, %edx
	shll	$16, %edx
	orl	%edx, %eax
	movq	-24(%rbp), %rcx
	movl	%eax, 60(%rcx)
	movq	-24(%rbp), %rax
	cmpl	$0, 24(%rax)
	jne	.LBB73_35
# %bb.32:                               # %if.then193
                                        #   in Loop: Header=BB73_2 Depth=1
	movq	-24(%rbp), %rax
	movslq	28(%rax), %rax
	movl	BZ2_rNums(,%rax,4), %eax
	movq	-24(%rbp), %rcx
	movl	%eax, 24(%rcx)
	movq	-24(%rbp), %rax
	movl	28(%rax), %ecx
	addl	$1, %ecx
	movl	%ecx, 28(%rax)
	movq	-24(%rbp), %rax
	cmpl	$512, 28(%rax)          # imm = 0x200
	jne	.LBB73_34
# %bb.33:                               # %if.then203
                                        #   in Loop: Header=BB73_2 Depth=1
	movq	-24(%rbp), %rax
	movl	$0, 28(%rax)
.LBB73_34:                              # %if.end205
                                        #   in Loop: Header=BB73_2 Depth=1
	jmp	.LBB73_35
.LBB73_35:                              # %if.end206
                                        #   in Loop: Header=BB73_2 Depth=1
	xorl	%eax, %eax
	movq	-24(%rbp), %rcx
	movl	24(%rcx), %edx
	addl	$-1, %edx
	movl	%edx, 24(%rcx)
	movq	-24(%rbp), %rcx
	movl	24(%rcx), %ecx
	cmpl	$1, %ecx
	movl	$1, %ecx
	cmovel	%ecx, %eax
	movzbl	-9(%rbp), %ecx
	xorl	%eax, %ecx
	movb	%cl, -9(%rbp)
	movq	-24(%rbp), %rax
	movl	1092(%rax), %ecx
	addl	$1, %ecx
	movl	%ecx, 1092(%rax)
	movq	-24(%rbp), %rax
	movl	1092(%rax), %eax
	movq	-24(%rbp), %rcx
	movl	64080(%rcx), %ecx
	addl	$1, %ecx
	cmpl	%ecx, %eax
	jne	.LBB73_37
# %bb.36:                               # %if.then223
                                        #   in Loop: Header=BB73_2 Depth=1
	jmp	.LBB73_20
.LBB73_37:                              # %if.end224
                                        #   in Loop: Header=BB73_2 Depth=1
	movzbl	-9(%rbp), %eax
	movq	-24(%rbp), %rcx
	cmpl	64(%rcx), %eax
	je	.LBB73_39
# %bb.38:                               # %if.then229
                                        #   in Loop: Header=BB73_2 Depth=1
	movzbl	-9(%rbp), %eax
	movq	-24(%rbp), %rcx
	movl	%eax, 64(%rcx)
	jmp	.LBB73_20
.LBB73_39:                              # %if.end232
                                        #   in Loop: Header=BB73_2 Depth=1
	movq	-24(%rbp), %rax
	movl	60(%rax), %edi
	movq	-24(%rbp), %rsi
	addq	$1096, %rsi             # imm = 0x448
	callq	BZ2_indexIntoF
	movb	%al, -9(%rbp)
	movq	-24(%rbp), %rax
	movq	3160(%rax), %rax
	movq	-24(%rbp), %rcx
	movl	60(%rcx), %ecx
	movzwl	(%rax,%rcx,2), %eax
	movq	-24(%rbp), %rcx
	movq	3168(%rcx), %rcx
	movq	-24(%rbp), %rdx
	movl	60(%rdx), %edx
	shrl	$1, %edx
	movl	%edx, %edx
	movzbl	(%rcx,%rdx), %edx
	movq	-24(%rbp), %rcx
	movl	60(%rcx), %ecx
	shll	$2, %ecx
	andl	$4, %ecx
                                        # kill: def $cl killed $ecx
	shrl	%cl, %edx
	andl	$15, %edx
	shll	$16, %edx
	orl	%edx, %eax
	movq	-24(%rbp), %rcx
	movl	%eax, 60(%rcx)
	movq	-24(%rbp), %rax
	cmpl	$0, 24(%rax)
	jne	.LBB73_43
# %bb.40:                               # %if.then260
                                        #   in Loop: Header=BB73_2 Depth=1
	movq	-24(%rbp), %rax
	movslq	28(%rax), %rax
	movl	BZ2_rNums(,%rax,4), %eax
	movq	-24(%rbp), %rcx
	movl	%eax, 24(%rcx)
	movq	-24(%rbp), %rax
	movl	28(%rax), %ecx
	addl	$1, %ecx
	movl	%ecx, 28(%rax)
	movq	-24(%rbp), %rax
	cmpl	$512, 28(%rax)          # imm = 0x200
	jne	.LBB73_42
# %bb.41:                               # %if.then270
                                        #   in Loop: Header=BB73_2 Depth=1
	movq	-24(%rbp), %rax
	movl	$0, 28(%rax)
.LBB73_42:                              # %if.end272
                                        #   in Loop: Header=BB73_2 Depth=1
	jmp	.LBB73_43
.LBB73_43:                              # %if.end273
                                        #   in Loop: Header=BB73_2 Depth=1
	xorl	%eax, %eax
	movq	-24(%rbp), %rcx
	movl	24(%rcx), %edx
	addl	$-1, %edx
	movl	%edx, 24(%rcx)
	movq	-24(%rbp), %rcx
	movl	24(%rcx), %ecx
	cmpl	$1, %ecx
	movl	$1, %ecx
	cmovel	%ecx, %eax
	movzbl	-9(%rbp), %ecx
	xorl	%eax, %ecx
	movb	%cl, -9(%rbp)
	movq	-24(%rbp), %rax
	movl	1092(%rax), %ecx
	addl	$1, %ecx
	movl	%ecx, 1092(%rax)
	movzbl	-9(%rbp), %eax
	addl	$4, %eax
	movq	-24(%rbp), %rcx
	movl	%eax, 16(%rcx)
	movq	-24(%rbp), %rax
	movl	60(%rax), %edi
	movq	-24(%rbp), %rsi
	addq	$1096, %rsi             # imm = 0x448
	callq	BZ2_indexIntoF
	movq	-24(%rbp), %rcx
	movl	%eax, 64(%rcx)
	movq	-24(%rbp), %rax
	movq	3160(%rax), %rax
	movq	-24(%rbp), %rcx
	movl	60(%rcx), %ecx
	movzwl	(%rax,%rcx,2), %eax
	movq	-24(%rbp), %rcx
	movq	3168(%rcx), %rcx
	movq	-24(%rbp), %rdx
	movl	60(%rdx), %edx
	shrl	$1, %edx
	movl	%edx, %edx
	movzbl	(%rcx,%rdx), %edx
	movq	-24(%rbp), %rcx
	movl	60(%rcx), %ecx
	shll	$2, %ecx
	andl	$4, %ecx
                                        # kill: def $cl killed $ecx
	shrl	%cl, %edx
	andl	$15, %edx
	shll	$16, %edx
	orl	%edx, %eax
	movq	-24(%rbp), %rcx
	movl	%eax, 60(%rcx)
	movq	-24(%rbp), %rax
	cmpl	$0, 24(%rax)
	jne	.LBB73_47
# %bb.44:                               # %if.then315
                                        #   in Loop: Header=BB73_2 Depth=1
	movq	-24(%rbp), %rax
	movslq	28(%rax), %rax
	movl	BZ2_rNums(,%rax,4), %eax
	movq	-24(%rbp), %rcx
	movl	%eax, 24(%rcx)
	movq	-24(%rbp), %rax
	movl	28(%rax), %ecx
	addl	$1, %ecx
	movl	%ecx, 28(%rax)
	movq	-24(%rbp), %rax
	cmpl	$512, 28(%rax)          # imm = 0x200
	jne	.LBB73_46
# %bb.45:                               # %if.then325
                                        #   in Loop: Header=BB73_2 Depth=1
	movq	-24(%rbp), %rax
	movl	$0, 28(%rax)
.LBB73_46:                              # %if.end327
                                        #   in Loop: Header=BB73_2 Depth=1
	jmp	.LBB73_47
.LBB73_47:                              # %if.end328
                                        #   in Loop: Header=BB73_2 Depth=1
	xorl	%eax, %eax
	movq	-24(%rbp), %rcx
	movl	24(%rcx), %edx
	addl	$-1, %edx
	movl	%edx, 24(%rcx)
	movq	-24(%rbp), %rcx
	movl	24(%rcx), %ecx
	cmpl	$1, %ecx
	movl	$1, %ecx
	cmovel	%ecx, %eax
	movq	-24(%rbp), %rcx
	xorl	64(%rcx), %eax
	movl	%eax, 64(%rcx)
	movq	-24(%rbp), %rax
	movl	1092(%rax), %ecx
	addl	$1, %ecx
	movl	%ecx, 1092(%rax)
	jmp	.LBB73_20
.LBB73_48:                              # %if.else
	jmp	.LBB73_49
.LBB73_49:                              # %while.body339
                                        # =>This Loop Header: Depth=1
                                        #     Child Loop BB73_50 Depth 2
	jmp	.LBB73_50
.LBB73_50:                              # %while.body341
                                        #   Parent Loop BB73_49 Depth=1
                                        # =>  This Inner Loop Header: Depth=2
	movq	-24(%rbp), %rax
	movq	(%rax), %rax
	cmpl	$0, 32(%rax)
	jne	.LBB73_52
# %bb.51:                               # %if.then346
	movb	$0, -25(%rbp)
	jmp	.LBB73_75
.LBB73_52:                              # %if.end347
                                        #   in Loop: Header=BB73_50 Depth=2
	movq	-24(%rbp), %rax
	cmpl	$0, 16(%rax)
	jne	.LBB73_54
# %bb.53:                               # %if.then351
                                        #   in Loop: Header=BB73_49 Depth=1
	jmp	.LBB73_57
.LBB73_54:                              # %if.end352
                                        #   in Loop: Header=BB73_50 Depth=2
	movq	-24(%rbp), %rax
	movb	12(%rax), %al
	movq	-24(%rbp), %rcx
	movq	(%rcx), %rcx
	movq	24(%rcx), %rcx
	movb	%al, (%rcx)
	movq	-24(%rbp), %rax
	movl	3184(%rax), %eax
	shll	$8, %eax
	movq	-24(%rbp), %rcx
	movl	3184(%rcx), %ecx
	shrl	$24, %ecx
	movq	-24(%rbp), %rdx
	movzbl	12(%rdx), %edx
	xorl	%edx, %ecx
	movl	%ecx, %ecx
	xorl	BZ2_crc32Table(,%rcx,4), %eax
	movq	-24(%rbp), %rcx
	movl	%eax, 3184(%rcx)
	movq	-24(%rbp), %rax
	movl	16(%rax), %ecx
	addl	$-1, %ecx
	movl	%ecx, 16(%rax)
	movq	-24(%rbp), %rax
	movq	(%rax), %rax
	movq	24(%rax), %rcx
	addq	$1, %rcx
	movq	%rcx, 24(%rax)
	movq	-24(%rbp), %rax
	movq	(%rax), %rax
	movl	32(%rax), %ecx
	addl	$-1, %ecx
	movl	%ecx, 32(%rax)
	movq	-24(%rbp), %rax
	movq	(%rax), %rax
	movl	36(%rax), %ecx
	addl	$1, %ecx
	movl	%ecx, 36(%rax)
	movq	-24(%rbp), %rax
	movq	(%rax), %rax
	cmpl	$0, 36(%rax)
	jne	.LBB73_56
# %bb.55:                               # %if.then382
                                        #   in Loop: Header=BB73_50 Depth=2
	movq	-24(%rbp), %rax
	movq	(%rax), %rax
	movl	40(%rax), %ecx
	addl	$1, %ecx
	movl	%ecx, 40(%rax)
.LBB73_56:                              # %if.end386
                                        #   in Loop: Header=BB73_50 Depth=2
	jmp	.LBB73_50
.LBB73_57:                              # %while.end387
                                        #   in Loop: Header=BB73_49 Depth=1
	movq	-24(%rbp), %rax
	movl	1092(%rax), %eax
	movq	-24(%rbp), %rcx
	movl	64080(%rcx), %ecx
	addl	$1, %ecx
	cmpl	%ecx, %eax
	jne	.LBB73_59
# %bb.58:                               # %if.then393
	movb	$0, -25(%rbp)
	jmp	.LBB73_75
.LBB73_59:                              # %if.end394
                                        #   in Loop: Header=BB73_49 Depth=1
	movq	-24(%rbp), %rax
	movl	1092(%rax), %eax
	movq	-24(%rbp), %rcx
	movl	64080(%rcx), %ecx
	addl	$1, %ecx
	cmpl	%ecx, %eax
	jle	.LBB73_61
# %bb.60:                               # %if.then400
	movb	$1, -25(%rbp)
	jmp	.LBB73_75
.LBB73_61:                              # %if.end401
                                        #   in Loop: Header=BB73_49 Depth=1
	movq	-24(%rbp), %rax
	movl	$1, 16(%rax)
	movq	-24(%rbp), %rax
	movl	64(%rax), %eax
	movq	-24(%rbp), %rcx
	movb	%al, 12(%rcx)
	movq	-24(%rbp), %rax
	movl	60(%rax), %edi
	movq	-24(%rbp), %rsi
	addq	$1096, %rsi             # imm = 0x448
	callq	BZ2_indexIntoF
	movb	%al, -9(%rbp)
	movq	-24(%rbp), %rax
	movq	3160(%rax), %rax
	movq	-24(%rbp), %rcx
	movl	60(%rcx), %ecx
