	.text
	.file	"bzlib.c"
	.globl	BZ2_bz__AssertH__fail   # -- Begin function BZ2_bz__AssertH__fail
	.p2align	4, 0x90
	.type	BZ2_bz__AssertH__fail,@function
BZ2_bz__AssertH__fail:                  # @BZ2_bz__AssertH__fail
	.cfi_startproc
# %bb.0:                                # %entry
	pushq	%rbp
	.cfi_def_cfa_offset 16
	.cfi_offset %rbp, -16
	movq	%rsp, %rbp
	.cfi_def_cfa_register %rbp
	pushq	%r14
	pushq	%rbx
	subq	$16, %rsp
	.cfi_offset %rbx, -32
	.cfi_offset %r14, -24
	movl	%edi, -20(%rbp)
	movq	stderr, %rbx
	movl	-20(%rbp), %r14d
	callq	BZ2_bzlibVersion
	movq	%rbx, %rdi
	movabsq	$.L.str, %rsi
	movl	%r14d, %edx
	movq	%rax, %rcx
	movb	$0, %al
	callq	fprintf
	cmpl	$1007, -20(%rbp)        # imm = 0x3EF
	jne	.LBB0_2
# %bb.1:                                # %if.then
	movq	stderr, %rdi
	movabsq	$.L.str.1, %rsi
	movb	$0, %al
	callq	fprintf
.LBB0_2:                                # %if.end
	movl	$3, %edi
	callq	exit
.Lfunc_end0:
	.size	BZ2_bz__AssertH__fail, .Lfunc_end0-BZ2_bz__AssertH__fail
	.cfi_endproc
                                        # -- End function
	.globl	BZ2_bzlibVersion        # -- Begin function BZ2_bzlibVersion
	.p2align	4, 0x90
	.type	BZ2_bzlibVersion,@function
BZ2_bzlibVersion:                       # @BZ2_bzlibVersion
	.cfi_startproc
# %bb.0:                                # %entry
	pushq	%rbp
	.cfi_def_cfa_offset 16
	.cfi_offset %rbp, -16
	movq	%rsp, %rbp
	.cfi_def_cfa_register %rbp
	movabsq	$.L.str.5, %rax
	popq	%rbp
	.cfi_def_cfa %rsp, 8
	retq
.Lfunc_end1:
	.size	BZ2_bzlibVersion, .Lfunc_end1-BZ2_bzlibVersion
	.cfi_endproc
                                        # -- End function
	.globl	BZ2_bzCompressInit      # -- Begin function BZ2_bzCompressInit
	.p2align	4, 0x90
	.type	BZ2_bzCompressInit,@function
BZ2_bzCompressInit:                     # @BZ2_bzCompressInit
	.cfi_startproc
# %bb.0:                                # %rand_bb
	pushq	%rbp
	.cfi_def_cfa_offset 16
	.cfi_offset %rbp, -16
	movq	%rsp, %rbp
	.cfi_def_cfa_register %rbp
	pushq	%r15
	pushq	%r14
	pushq	%r12
	pushq	%rbx
	.cfi_offset %rbx, -48
	.cfi_offset %r12, -40
	.cfi_offset %r14, -32
	.cfi_offset %r15, -24
	movl	%ecx, %r14d
	movl	%edx, %r15d
	movl	%esi, %r12d
	movq	%rdi, %rbx
	callq	get_rand
	cmpl	$0, %eax
	jne	.LBB2_5
# %bb.1:                                # %func_BZ2_bzCompressInit.13
	movq	%rbx, %rdi
	movl	%r12d, %esi
	movl	%r15d, %edx
	movl	%r14d, %ecx
	callq	BZ2_bzCompressInit.13
	popq	%rbx
	popq	%r12
	popq	%r14
	popq	%r15
	popq	%rbp
	.cfi_def_cfa %rsp, 8
	retq
.LBB2_2:                                # %func_BZ2_bzCompressInit.48
	.cfi_def_cfa %rbp, 16
	movq	%rbx, %rdi
	movl	%r12d, %esi
	movl	%r15d, %edx
	movl	%r14d, %ecx
	callq	BZ2_bzCompressInit.48
	popq	%rbx
	popq	%r12
	popq	%r14
	popq	%r15
	popq	%rbp
	.cfi_def_cfa %rsp, 8
	retq
.LBB2_3:                                # %func_BZ2_bzCompressInit.57
	.cfi_def_cfa %rbp, 16
	movq	%rbx, %rdi
	movl	%r12d, %esi
	movl	%r15d, %edx
	movl	%r14d, %ecx
	callq	BZ2_bzCompressInit.57
	popq	%rbx
	popq	%r12
	popq	%r14
	popq	%r15
	popq	%rbp
	.cfi_def_cfa %rsp, 8
	retq
.LBB2_4:                                # %func_BZ2_bzCompressInit.85
	.cfi_def_cfa %rbp, 16
	movq	%rbx, %rdi
	movl	%r12d, %esi
	movl	%r15d, %edx
	movl	%r14d, %ecx
	callq	BZ2_bzCompressInit.85
	popq	%rbx
	popq	%r12
	popq	%r14
	popq	%r15
	popq	%rbp
	.cfi_def_cfa %rsp, 8
	retq
.LBB2_5:                                # %ctrl0
	.cfi_def_cfa %rbp, 16
	cmpl	$1, %eax
	je	.LBB2_2
# %bb.6:                                # %ctrl1
	cmpl	$2, %eax
	je	.LBB2_3
	jmp	.LBB2_4
.Lfunc_end2:
	.size	BZ2_bzCompressInit, .Lfunc_end2-BZ2_bzCompressInit
	.cfi_endproc
                                        # -- End function
	.p2align	4, 0x90         # -- Begin function bz_config_ok
	.type	bz_config_ok,@function
bz_config_ok:                           # @bz_config_ok
	.cfi_startproc
# %bb.0:                                # %entry
	pushq	%rbp
	.cfi_def_cfa_offset 16
	.cfi_offset %rbp, -16
	movq	%rsp, %rbp
	.cfi_def_cfa_register %rbp
	movl	$1, %eax
	popq	%rbp
	.cfi_def_cfa %rsp, 8
	retq
.Lfunc_end3:
	.size	bz_config_ok, .Lfunc_end3-bz_config_ok
	.cfi_endproc
                                        # -- End function
	.p2align	4, 0x90         # -- Begin function default_bzalloc
	.type	default_bzalloc,@function
default_bzalloc:                        # @default_bzalloc
	.cfi_startproc
# %bb.0:                                # %rand_bb
	pushq	%rbp
	.cfi_def_cfa_offset 16
	.cfi_offset %rbp, -16
	movq	%rsp, %rbp
	.cfi_def_cfa_register %rbp
	pushq	%r15
	pushq	%r14
	pushq	%rbx
	pushq	%rax
	.cfi_offset %rbx, -40
	.cfi_offset %r14, -32
	.cfi_offset %r15, -24
	movl	%edx, %r14d
	movl	%esi, %r15d
	movq	%rdi, %rbx
	callq	get_rand
	cmpl	$0, %eax
	jne	.LBB4_5
# %bb.1:                                # %func_default_bzalloc.46
	movq	%rbx, %rdi
	movl	%r15d, %esi
	movl	%r14d, %edx
	callq	default_bzalloc.46
	addq	$8, %rsp
	popq	%rbx
	popq	%r14
	popq	%r15
	popq	%rbp
	.cfi_def_cfa %rsp, 8
	retq
.LBB4_2:                                # %func_default_bzalloc.65
	.cfi_def_cfa %rbp, 16
	movq	%rbx, %rdi
	movl	%r15d, %esi
	movl	%r14d, %edx
	callq	default_bzalloc.65
	addq	$8, %rsp
	popq	%rbx
	popq	%r14
	popq	%r15
	popq	%rbp
	.cfi_def_cfa %rsp, 8
	retq
.LBB4_3:                                # %func_default_bzalloc.87
	.cfi_def_cfa %rbp, 16
	movq	%rbx, %rdi
	movl	%r15d, %esi
	movl	%r14d, %edx
	callq	default_bzalloc.87
	addq	$8, %rsp
	popq	%rbx
	popq	%r14
	popq	%r15
	popq	%rbp
	.cfi_def_cfa %rsp, 8
	retq
.LBB4_4:                                # %func_default_bzalloc.88
	.cfi_def_cfa %rbp, 16
	movq	%rbx, %rdi
	movl	%r15d, %esi
	movl	%r14d, %edx
	callq	default_bzalloc.88
	addq	$8, %rsp
	popq	%rbx
	popq	%r14
	popq	%r15
	popq	%rbp
	.cfi_def_cfa %rsp, 8
	retq
.LBB4_5:                                # %ctrl0
	.cfi_def_cfa %rbp, 16
	cmpl	$1, %eax
	je	.LBB4_2
# %bb.6:                                # %ctrl1
	cmpl	$2, %eax
	je	.LBB4_3
	jmp	.LBB4_4
.Lfunc_end4:
	.size	default_bzalloc, .Lfunc_end4-default_bzalloc
	.cfi_endproc
                                        # -- End function
	.p2align	4, 0x90         # -- Begin function default_bzfree
	.type	default_bzfree,@function
default_bzfree:                         # @default_bzfree
	.cfi_startproc
# %bb.0:                                # %rand_bb
	pushq	%rbp
	.cfi_def_cfa_offset 16
	.cfi_offset %rbp, -16
	movq	%rsp, %rbp
	.cfi_def_cfa_register %rbp
	pushq	%r14
	pushq	%rbx
	.cfi_offset %rbx, -32
	.cfi_offset %r14, -24
	movq	%rsi, %r14
	movq	%rdi, %rbx
	callq	get_rand
	cmpl	$0, %eax
	jne	.LBB5_2
# %bb.1:                                # %func_default_bzfree.68
	movq	%rbx, %rdi
	movq	%r14, %rsi
	callq	default_bzfree.68
	popq	%rbx
	popq	%r14
	popq	%rbp
	.cfi_def_cfa %rsp, 8
	retq
.LBB5_2:                                # %func_default_bzfree.83
	.cfi_def_cfa %rbp, 16
	movq	%rbx, %rdi
	movq	%r14, %rsi
	callq	default_bzfree.83
	popq	%rbx
	popq	%r14
	popq	%rbp
	.cfi_def_cfa %rsp, 8
	retq
.Lfunc_end5:
	.size	default_bzfree, .Lfunc_end5-default_bzfree
	.cfi_endproc
                                        # -- End function
	.p2align	4, 0x90         # -- Begin function init_RL
	.type	init_RL,@function
init_RL:                                # @init_RL
	.cfi_startproc
# %bb.0:                                # %entry
	pushq	%rbp
	.cfi_def_cfa_offset 16
	.cfi_offset %rbp, -16
	movq	%rsp, %rbp
	.cfi_def_cfa_register %rbp
	movq	%rdi, -8(%rbp)
	movq	-8(%rbp), %rax
	movl	$256, 92(%rax)          # imm = 0x100
	movq	-8(%rbp), %rax
	movl	$0, 96(%rax)
	popq	%rbp
	.cfi_def_cfa %rsp, 8
	retq
.Lfunc_end6:
	.size	init_RL, .Lfunc_end6-init_RL
	.cfi_endproc
                                        # -- End function
	.p2align	4, 0x90         # -- Begin function prepare_new_block
	.type	prepare_new_block,@function
prepare_new_block:                      # @prepare_new_block
	.cfi_startproc
# %bb.0:                                # %rand_bb
	pushq	%rbp
	.cfi_def_cfa_offset 16
	.cfi_offset %rbp, -16
	movq	%rsp, %rbp
	.cfi_def_cfa_register %rbp
	pushq	%rbx
	pushq	%rax
	.cfi_offset %rbx, -24
	movq	%rdi, %rbx
	callq	get_rand
	cmpl	$0, %eax
	jne	.LBB7_2
# %bb.1:                                # %func_prepare_new_block.69
	movq	%rbx, %rdi
	callq	prepare_new_block.69
	addq	$8, %rsp
	popq	%rbx
	popq	%rbp
	.cfi_def_cfa %rsp, 8
	retq
.LBB7_2:                                # %func_prepare_new_block.78
	.cfi_def_cfa %rbp, 16
	movq	%rbx, %rdi
	callq	prepare_new_block.78
	addq	$8, %rsp
	popq	%rbx
	popq	%rbp
	.cfi_def_cfa %rsp, 8
	retq
.Lfunc_end7:
	.size	prepare_new_block, .Lfunc_end7-prepare_new_block
	.cfi_endproc
                                        # -- End function
	.globl	BZ2_bzCompress          # -- Begin function BZ2_bzCompress
	.p2align	4, 0x90
	.type	BZ2_bzCompress,@function
BZ2_bzCompress:                         # @BZ2_bzCompress
	.cfi_startproc
# %bb.0:                                # %rand_bb
	pushq	%rbp
	.cfi_def_cfa_offset 16
	.cfi_offset %rbp, -16
	movq	%rsp, %rbp
	.cfi_def_cfa_register %rbp
	pushq	%r14
	pushq	%rbx
	.cfi_offset %rbx, -32
	.cfi_offset %r14, -24
	movl	%esi, %r14d
	movq	%rdi, %rbx
	callq	get_rand
	cmpl	$0, %eax
	jne	.LBB8_5
# %bb.1:                                # %func_BZ2_bzCompress.44
	movq	%rbx, %rdi
	movl	%r14d, %esi
	callq	BZ2_bzCompress.44
	popq	%rbx
	popq	%r14
	popq	%rbp
	.cfi_def_cfa %rsp, 8
	retq
.LBB8_2:                                # %func_BZ2_bzCompress.49
	.cfi_def_cfa %rbp, 16
	movq	%rbx, %rdi
	movl	%r14d, %esi
	callq	BZ2_bzCompress.49
	popq	%rbx
	popq	%r14
	popq	%rbp
	.cfi_def_cfa %rsp, 8
	retq
.LBB8_3:                                # %func_BZ2_bzCompress.113
	.cfi_def_cfa %rbp, 16
	movq	%rbx, %rdi
	movl	%r14d, %esi
	callq	BZ2_bzCompress.113
	popq	%rbx
	popq	%r14
	popq	%rbp
	.cfi_def_cfa %rsp, 8
	retq
.LBB8_4:                                # %func_BZ2_bzCompress.121
	.cfi_def_cfa %rbp, 16
	movq	%rbx, %rdi
	movl	%r14d, %esi
	callq	BZ2_bzCompress.121
	popq	%rbx
	popq	%r14
	popq	%rbp
	.cfi_def_cfa %rsp, 8
	retq
.LBB8_5:                                # %ctrl0
	.cfi_def_cfa %rbp, 16
	cmpl	$1, %eax
	je	.LBB8_2
# %bb.6:                                # %ctrl1
	cmpl	$2, %eax
	je	.LBB8_3
	jmp	.LBB8_4
.Lfunc_end8:
	.size	BZ2_bzCompress, .Lfunc_end8-BZ2_bzCompress
	.cfi_endproc
                                        # -- End function
	.p2align	4, 0x90         # -- Begin function handle_compress
	.type	handle_compress,@function
handle_compress:                        # @handle_compress
	.cfi_startproc
# %bb.0:                                # %rand_bb
	pushq	%rbp
	.cfi_def_cfa_offset 16
	.cfi_offset %rbp, -16
	movq	%rsp, %rbp
	.cfi_def_cfa_register %rbp
	pushq	%rbx
	pushq	%rax
	.cfi_offset %rbx, -24
	movq	%rdi, %rbx
	callq	get_rand
	cmpl	$0, %eax
	jne	.LBB9_5
# %bb.1:                                # %func_handle_compress.75
	movq	%rbx, %rdi
	callq	handle_compress.75
	movzbl	%al, %eax
	addq	$8, %rsp
	popq	%rbx
	popq	%rbp
	.cfi_def_cfa %rsp, 8
	retq
.LBB9_2:                                # %func_handle_compress.94
	.cfi_def_cfa %rbp, 16
	movq	%rbx, %rdi
	callq	handle_compress.94
	movzbl	%al, %eax
	addq	$8, %rsp
	popq	%rbx
	popq	%rbp
	.cfi_def_cfa %rsp, 8
	retq
.LBB9_3:                                # %func_handle_compress.105
	.cfi_def_cfa %rbp, 16
	movq	%rbx, %rdi
	callq	handle_compress.105
	movzbl	%al, %eax
	addq	$8, %rsp
	popq	%rbx
	popq	%rbp
	.cfi_def_cfa %rsp, 8
	retq
.LBB9_4:                                # %func_handle_compress.109
	.cfi_def_cfa %rbp, 16
	movq	%rbx, %rdi
	callq	handle_compress.109
	movzbl	%al, %eax
	addq	$8, %rsp
	popq	%rbx
	popq	%rbp
	.cfi_def_cfa %rsp, 8
	retq
.LBB9_5:                                # %ctrl0
	.cfi_def_cfa %rbp, 16
	cmpl	$1, %eax
	je	.LBB9_2
# %bb.6:                                # %ctrl1
	cmpl	$2, %eax
	je	.LBB9_3
	jmp	.LBB9_4
.Lfunc_end9:
	.size	handle_compress, .Lfunc_end9-handle_compress
	.cfi_endproc
                                        # -- End function
	.p2align	4, 0x90         # -- Begin function isempty_RL
	.type	isempty_RL,@function
isempty_RL:                             # @isempty_RL
	.cfi_startproc
# %bb.0:                                # %rand_bb
	pushq	%rbp
	.cfi_def_cfa_offset 16
	.cfi_offset %rbp, -16
	movq	%rsp, %rbp
	.cfi_def_cfa_register %rbp
	pushq	%rbx
	pushq	%rax
	.cfi_offset %rbx, -24
	movq	%rdi, %rbx
	callq	get_rand
	cmpl	$0, %eax
	jne	.LBB10_2
# %bb.1:                                # %func_isempty_RL.41
	movq	%rbx, %rdi
	callq	isempty_RL.41
	movzbl	%al, %eax
	addq	$8, %rsp
	popq	%rbx
	popq	%rbp
	.cfi_def_cfa %rsp, 8
	retq
.LBB10_2:                               # %func_isempty_RL.82
	.cfi_def_cfa %rbp, 16
	movq	%rbx, %rdi
	callq	isempty_RL.82
	movzbl	%al, %eax
	addq	$8, %rsp
	popq	%rbx
	popq	%rbp
	.cfi_def_cfa %rsp, 8
	retq
.Lfunc_end10:
	.size	isempty_RL, .Lfunc_end10-isempty_RL
	.cfi_endproc
                                        # -- End function
	.globl	BZ2_bzCompressEnd       # -- Begin function BZ2_bzCompressEnd
	.p2align	4, 0x90
	.type	BZ2_bzCompressEnd,@function
BZ2_bzCompressEnd:                      # @BZ2_bzCompressEnd
	.cfi_startproc
# %bb.0:                                # %rand_bb
	pushq	%rbp
	.cfi_def_cfa_offset 16
	.cfi_offset %rbp, -16
	movq	%rsp, %rbp
	.cfi_def_cfa_register %rbp
	pushq	%rbx
	pushq	%rax
	.cfi_offset %rbx, -24
	movq	%rdi, %rbx
	callq	get_rand
	cmpl	$0, %eax
	jne	.LBB11_5
# %bb.1:                                # %func_BZ2_bzCompressEnd.31
	movq	%rbx, %rdi
	callq	BZ2_bzCompressEnd.31
	addq	$8, %rsp
	popq	%rbx
	popq	%rbp
	.cfi_def_cfa %rsp, 8
	retq
.LBB11_2:                               # %func_BZ2_bzCompressEnd.54
	.cfi_def_cfa %rbp, 16
	movq	%rbx, %rdi
	callq	BZ2_bzCompressEnd.54
	addq	$8, %rsp
	popq	%rbx
	popq	%rbp
	.cfi_def_cfa %rsp, 8
	retq
.LBB11_3:                               # %func_BZ2_bzCompressEnd.90
	.cfi_def_cfa %rbp, 16
	movq	%rbx, %rdi
	callq	BZ2_bzCompressEnd.90
	addq	$8, %rsp
	popq	%rbx
	popq	%rbp
	.cfi_def_cfa %rsp, 8
	retq
.LBB11_4:                               # %func_BZ2_bzCompressEnd.93
	.cfi_def_cfa %rbp, 16
	movq	%rbx, %rdi
	callq	BZ2_bzCompressEnd.93
	addq	$8, %rsp
	popq	%rbx
	popq	%rbp
	.cfi_def_cfa %rsp, 8
	retq
.LBB11_5:                               # %ctrl0
	.cfi_def_cfa %rbp, 16
	cmpl	$1, %eax
	je	.LBB11_2
# %bb.6:                                # %ctrl1
	cmpl	$2, %eax
	je	.LBB11_3
	jmp	.LBB11_4
.Lfunc_end11:
	.size	BZ2_bzCompressEnd, .Lfunc_end11-BZ2_bzCompressEnd
	.cfi_endproc
                                        # -- End function
	.globl	BZ2_bzDecompressInit    # -- Begin function BZ2_bzDecompressInit
	.p2align	4, 0x90
	.type	BZ2_bzDecompressInit,@function
BZ2_bzDecompressInit:                   # @BZ2_bzDecompressInit
	.cfi_startproc
# %bb.0:                                # %rand_bb
	pushq	%rbp
	.cfi_def_cfa_offset 16
	.cfi_offset %rbp, -16
	movq	%rsp, %rbp
	.cfi_def_cfa_register %rbp
	pushq	%r15
	pushq	%r14
	pushq	%rbx
	pushq	%rax
	.cfi_offset %rbx, -40
	.cfi_offset %r14, -32
	.cfi_offset %r15, -24
	movl	%edx, %r14d
	movl	%esi, %r15d
	movq	%rdi, %rbx
	callq	get_rand
	cmpl	$0, %eax
	jne	.LBB12_5
# %bb.1:                                # %func_BZ2_bzDecompressInit.20
	movq	%rbx, %rdi
	movl	%r15d, %esi
	movl	%r14d, %edx
	callq	BZ2_bzDecompressInit.20
	addq	$8, %rsp
	popq	%rbx
	popq	%r14
	popq	%r15
	popq	%rbp
	.cfi_def_cfa %rsp, 8
	retq
.LBB12_2:                               # %func_BZ2_bzDecompressInit.35
	.cfi_def_cfa %rbp, 16
	movq	%rbx, %rdi
	movl	%r15d, %esi
	movl	%r14d, %edx
	callq	BZ2_bzDecompressInit.35
	addq	$8, %rsp
	popq	%rbx
	popq	%r14
	popq	%r15
	popq	%rbp
	.cfi_def_cfa %rsp, 8
	retq
.LBB12_3:                               # %func_BZ2_bzDecompressInit.76
	.cfi_def_cfa %rbp, 16
	movq	%rbx, %rdi
	movl	%r15d, %esi
	movl	%r14d, %edx
	callq	BZ2_bzDecompressInit.76
	addq	$8, %rsp
	popq	%rbx
	popq	%r14
	popq	%r15
	popq	%rbp
	.cfi_def_cfa %rsp, 8
	retq
.LBB12_4:                               # %func_BZ2_bzDecompressInit.95
	.cfi_def_cfa %rbp, 16
	movq	%rbx, %rdi
	movl	%r15d, %esi
	movl	%r14d, %edx
	callq	BZ2_bzDecompressInit.95
	addq	$8, %rsp
	popq	%rbx
	popq	%r14
	popq	%r15
	popq	%rbp
	.cfi_def_cfa %rsp, 8
	retq
.LBB12_5:                               # %ctrl0
	.cfi_def_cfa %rbp, 16
	cmpl	$1, %eax
	je	.LBB12_2
# %bb.6:                                # %ctrl1
	cmpl	$2, %eax
	je	.LBB12_3
	jmp	.LBB12_4
.Lfunc_end12:
	.size	BZ2_bzDecompressInit, .Lfunc_end12-BZ2_bzDecompressInit
	.cfi_endproc
                                        # -- End function
	.globl	BZ2_indexIntoF          # -- Begin function BZ2_indexIntoF
	.p2align	4, 0x90
	.type	BZ2_indexIntoF,@function
BZ2_indexIntoF:                         # @BZ2_indexIntoF
	.cfi_startproc
# %bb.0:                                # %rand_bb
	pushq	%rbp
	.cfi_def_cfa_offset 16
	.cfi_offset %rbp, -16
	movq	%rsp, %rbp
	.cfi_def_cfa_register %rbp
	pushq	%r14
	pushq	%rbx
	.cfi_offset %rbx, -32
	.cfi_offset %r14, -24
	movq	%rsi, %r14
	movl	%edi, %ebx
	callq	get_rand
	cmpl	$0, %eax
	jne	.LBB13_5
# %bb.1:                                # %func_BZ2_indexIntoF.4
	movl	%ebx, %edi
	movq	%r14, %rsi
	callq	BZ2_indexIntoF.4
	popq	%rbx
	popq	%r14
	popq	%rbp
	.cfi_def_cfa %rsp, 8
	retq
.LBB13_2:                               # %func_BZ2_indexIntoF.56
	.cfi_def_cfa %rbp, 16
	movl	%ebx, %edi
	movq	%r14, %rsi
	callq	BZ2_indexIntoF.56
	popq	%rbx
	popq	%r14
	popq	%rbp
	.cfi_def_cfa %rsp, 8
	retq
.LBB13_3:                               # %func_BZ2_indexIntoF.64
	.cfi_def_cfa %rbp, 16
	movl	%ebx, %edi
	movq	%r14, %rsi
	callq	BZ2_indexIntoF.64
	popq	%rbx
	popq	%r14
	popq	%rbp
	.cfi_def_cfa %rsp, 8
	retq
.LBB13_4:                               # %func_BZ2_indexIntoF.67
	.cfi_def_cfa %rbp, 16
	movl	%ebx, %edi
	movq	%r14, %rsi
	callq	BZ2_indexIntoF.67
	popq	%rbx
	popq	%r14
	popq	%rbp
	.cfi_def_cfa %rsp, 8
	retq
.LBB13_5:                               # %ctrl0
	.cfi_def_cfa %rbp, 16
	cmpl	$1, %eax
	je	.LBB13_2
# %bb.6:                                # %ctrl1
	cmpl	$2, %eax
	je	.LBB13_3
	jmp	.LBB13_4
.Lfunc_end13:
	.size	BZ2_indexIntoF, .Lfunc_end13-BZ2_indexIntoF
	.cfi_endproc
                                        # -- End function
	.globl	BZ2_bzDecompress        # -- Begin function BZ2_bzDecompress
	.p2align	4, 0x90
	.type	BZ2_bzDecompress,@function
BZ2_bzDecompress:                       # @BZ2_bzDecompress
	.cfi_startproc
# %bb.0:                                # %rand_bb
	pushq	%rbp
	.cfi_def_cfa_offset 16
	.cfi_offset %rbp, -16
	movq	%rsp, %rbp
	.cfi_def_cfa_register %rbp
	pushq	%rbx
	pushq	%rax
	.cfi_offset %rbx, -24
	movq	%rdi, %rbx
	callq	get_rand
	cmpl	$0, %eax
	jne	.LBB14_5
# %bb.1:                                # %func_BZ2_bzDecompress.21
	movq	%rbx, %rdi
	callq	BZ2_bzDecompress.21
	addq	$8, %rsp
	popq	%rbx
	popq	%rbp
	.cfi_def_cfa %rsp, 8
	retq
.LBB14_2:                               # %func_BZ2_bzDecompress.36
	.cfi_def_cfa %rbp, 16
	movq	%rbx, %rdi
	callq	BZ2_bzDecompress.36
	addq	$8, %rsp
	popq	%rbx
	popq	%rbp
	.cfi_def_cfa %rsp, 8
	retq
.LBB14_3:                               # %func_BZ2_bzDecompress.42
	.cfi_def_cfa %rbp, 16
	movq	%rbx, %rdi
	callq	BZ2_bzDecompress.42
	addq	$8, %rsp
	popq	%rbx
	popq	%rbp
	.cfi_def_cfa %rsp, 8
	retq
.LBB14_4:                               # %func_BZ2_bzDecompress.50
	.cfi_def_cfa %rbp, 16
	movq	%rbx, %rdi
	callq	BZ2_bzDecompress.50
	addq	$8, %rsp
	popq	%rbx
	popq	%rbp
	.cfi_def_cfa %rsp, 8
	retq
.LBB14_5:                               # %ctrl0
	.cfi_def_cfa %rbp, 16
	cmpl	$1, %eax
	je	.LBB14_2
# %bb.6:                                # %ctrl1
	cmpl	$2, %eax
	je	.LBB14_3
	jmp	.LBB14_4
.Lfunc_end14:
	.size	BZ2_bzDecompress, .Lfunc_end14-BZ2_bzDecompress
	.cfi_endproc
                                        # -- End function
	.p2align	4, 0x90         # -- Begin function unRLE_obuf_to_output_SMALL
	.type	unRLE_obuf_to_output_SMALL,@function
unRLE_obuf_to_output_SMALL:             # @unRLE_obuf_to_output_SMALL
	.cfi_startproc
# %bb.0:                                # %rand_bb
	pushq	%rbp
	.cfi_def_cfa_offset 16
	.cfi_offset %rbp, -16
	movq	%rsp, %rbp
	.cfi_def_cfa_register %rbp
	pushq	%rbx
	pushq	%rax
	.cfi_offset %rbx, -24
	movq	%rdi, %rbx
	callq	get_rand
	cmpl	$0, %eax
	jne	.LBB15_5
# %bb.1:                                # %func_unRLE_obuf_to_output_SMALL.10
	movq	%rbx, %rdi
	callq	unRLE_obuf_to_output_SMALL.10
	movzbl	%al, %eax
	addq	$8, %rsp
	popq	%rbx
	popq	%rbp
	.cfi_def_cfa %rsp, 8
	retq
.LBB15_2:                               # %func_unRLE_obuf_to_output_SMALL.26
	.cfi_def_cfa %rbp, 16
	movq	%rbx, %rdi
	callq	unRLE_obuf_to_output_SMALL.26
	movzbl	%al, %eax
	addq	$8, %rsp
	popq	%rbx
	popq	%rbp
	.cfi_def_cfa %rsp, 8
	retq
.LBB15_3:                               # %func_unRLE_obuf_to_output_SMALL.28
	.cfi_def_cfa %rbp, 16
	movq	%rbx, %rdi
	callq	unRLE_obuf_to_output_SMALL.28
	movzbl	%al, %eax
	addq	$8, %rsp
	popq	%rbx
	popq	%rbp
	.cfi_def_cfa %rsp, 8
	retq
.LBB15_4:                               # %func_unRLE_obuf_to_output_SMALL.38
	.cfi_def_cfa %rbp, 16
	movq	%rbx, %rdi
	callq	unRLE_obuf_to_output_SMALL.38
	movzbl	%al, %eax
	addq	$8, %rsp
	popq	%rbx
	popq	%rbp
	.cfi_def_cfa %rsp, 8
	retq
.LBB15_5:                               # %ctrl0
	.cfi_def_cfa %rbp, 16
	cmpl	$1, %eax
	je	.LBB15_2
# %bb.6:                                # %ctrl1
	cmpl	$2, %eax
	je	.LBB15_3
	jmp	.LBB15_4
.Lfunc_end15:
	.size	unRLE_obuf_to_output_SMALL, .Lfunc_end15-unRLE_obuf_to_output_SMALL
	.cfi_endproc
                                        # -- End function
	.p2align	4, 0x90         # -- Begin function unRLE_obuf_to_output_FAST
	.type	unRLE_obuf_to_output_FAST,@function
unRLE_obuf_to_output_FAST:              # @unRLE_obuf_to_output_FAST
	.cfi_startproc
# %bb.0:                                # %rand_bb
	pushq	%rbp
	.cfi_def_cfa_offset 16
	.cfi_offset %rbp, -16
	movq	%rsp, %rbp
	.cfi_def_cfa_register %rbp
	pushq	%rbx
	pushq	%rax
	.cfi_offset %rbx, -24
	movq	%rdi, %rbx
	callq	get_rand
	cmpl	$0, %eax
	jne	.LBB16_5
# %bb.1:                                # %func_unRLE_obuf_to_output_FAST.32
	movq	%rbx, %rdi
	callq	unRLE_obuf_to_output_FAST.32
	movzbl	%al, %eax
	addq	$8, %rsp
	popq	%rbx
	popq	%rbp
	.cfi_def_cfa %rsp, 8
	retq
.LBB16_2:                               # %func_unRLE_obuf_to_output_FAST.37
	.cfi_def_cfa %rbp, 16
	movq	%rbx, %rdi
	callq	unRLE_obuf_to_output_FAST.37
	movzbl	%al, %eax
	addq	$8, %rsp
	popq	%rbx
	popq	%rbp
	.cfi_def_cfa %rsp, 8
	retq
.LBB16_3:                               # %func_unRLE_obuf_to_output_FAST.40
	.cfi_def_cfa %rbp, 16
	movq	%rbx, %rdi
	callq	unRLE_obuf_to_output_FAST.40
	movzbl	%al, %eax
	addq	$8, %rsp
	popq	%rbx
	popq	%rbp
	.cfi_def_cfa %rsp, 8
	retq
.LBB16_4:                               # %func_unRLE_obuf_to_output_FAST.59
	.cfi_def_cfa %rbp, 16
	movq	%rbx, %rdi
	callq	unRLE_obuf_to_output_FAST.59
	movzbl	%al, %eax
	addq	$8, %rsp
	popq	%rbx
	popq	%rbp
	.cfi_def_cfa %rsp, 8
	retq
.LBB16_5:                               # %ctrl0
	.cfi_def_cfa %rbp, 16
	cmpl	$1, %eax
	je	.LBB16_2
# %bb.6:                                # %ctrl1
	cmpl	$2, %eax
	je	.LBB16_3
	jmp	.LBB16_4
.Lfunc_end16:
	.size	unRLE_obuf_to_output_FAST, .Lfunc_end16-unRLE_obuf_to_output_FAST
	.cfi_endproc
                                        # -- End function
	.globl	BZ2_bzDecompressEnd     # -- Begin function BZ2_bzDecompressEnd
	.p2align	4, 0x90
	.type	BZ2_bzDecompressEnd,@function
BZ2_bzDecompressEnd:                    # @BZ2_bzDecompressEnd
	.cfi_startproc
# %bb.0:                                # %rand_bb
	pushq	%rbp
	.cfi_def_cfa_offset 16
	.cfi_offset %rbp, -16
	movq	%rsp, %rbp
	.cfi_def_cfa_register %rbp
	pushq	%rbx
	pushq	%rax
	.cfi_offset %rbx, -24
	movq	%rdi, %rbx
	callq	get_rand
	cmpl	$0, %eax
	jne	.LBB17_5
# %bb.1:                                # %func_BZ2_bzDecompressEnd.120
	movq	%rbx, %rdi
	callq	BZ2_bzDecompressEnd.120
	addq	$8, %rsp
	popq	%rbx
	popq	%rbp
	.cfi_def_cfa %rsp, 8
	retq
.LBB17_2:                               # %func_BZ2_bzDecompressEnd.122
	.cfi_def_cfa %rbp, 16
	movq	%rbx, %rdi
	callq	BZ2_bzDecompressEnd.122
	addq	$8, %rsp
	popq	%rbx
	popq	%rbp
	.cfi_def_cfa %rsp, 8
	retq
.LBB17_3:                               # %func_BZ2_bzDecompressEnd.123
	.cfi_def_cfa %rbp, 16
	movq	%rbx, %rdi
	callq	BZ2_bzDecompressEnd.123
	addq	$8, %rsp
	popq	%rbx
	popq	%rbp
	.cfi_def_cfa %rsp, 8
	retq
.LBB17_4:                               # %func_BZ2_bzDecompressEnd.124
	.cfi_def_cfa %rbp, 16
	movq	%rbx, %rdi
	callq	BZ2_bzDecompressEnd.124
	addq	$8, %rsp
	popq	%rbx
	popq	%rbp
	.cfi_def_cfa %rsp, 8
	retq
.LBB17_5:                               # %ctrl0
	.cfi_def_cfa %rbp, 16
	cmpl	$1, %eax
	je	.LBB17_2
# %bb.6:                                # %ctrl1
	cmpl	$2, %eax
	je	.LBB17_3
	jmp	.LBB17_4
.Lfunc_end17:
	.size	BZ2_bzDecompressEnd, .Lfunc_end17-BZ2_bzDecompressEnd
	.cfi_endproc
                                        # -- End function
	.globl	BZ2_bzWriteOpen         # -- Begin function BZ2_bzWriteOpen
	.p2align	4, 0x90
	.type	BZ2_bzWriteOpen,@function
BZ2_bzWriteOpen:                        # @BZ2_bzWriteOpen
	.cfi_startproc
# %bb.0:                                # %rand_bb
	pushq	%rbp
	.cfi_def_cfa_offset 16
	.cfi_offset %rbp, -16
	movq	%rsp, %rbp
	.cfi_def_cfa_register %rbp
	pushq	%r15
	pushq	%r14
	pushq	%r13
	pushq	%r12
	pushq	%rbx
	pushq	%rax
	.cfi_offset %rbx, -56
	.cfi_offset %r12, -48
	.cfi_offset %r13, -40
	.cfi_offset %r14, -32
	.cfi_offset %r15, -24
	movl	%r8d, %r14d
	movl	%ecx, %r15d
	movl	%edx, %r12d
	movq	%rsi, %r13
	movq	%rdi, %rbx
	callq	get_rand
	cmpl	$0, %eax
	jne	.LBB18_5
# %bb.1:                                # %func_BZ2_bzWriteOpen.8
	movq	%rbx, %rdi
	movq	%r13, %rsi
	movl	%r12d, %edx
	movl	%r15d, %ecx
	movl	%r14d, %r8d
	callq	BZ2_bzWriteOpen.8
	addq	$8, %rsp
	popq	%rbx
	popq	%r12
	popq	%r13
	popq	%r14
	popq	%r15
	popq	%rbp
	.cfi_def_cfa %rsp, 8
	retq
.LBB18_2:                               # %func_BZ2_bzWriteOpen.15
	.cfi_def_cfa %rbp, 16
	movq	%rbx, %rdi
	movq	%r13, %rsi
	movl	%r12d, %edx
	movl	%r15d, %ecx
	movl	%r14d, %r8d
	callq	BZ2_bzWriteOpen.15
	addq	$8, %rsp
	popq	%rbx
	popq	%r12
	popq	%r13
	popq	%r14
	popq	%r15
	popq	%rbp
	.cfi_def_cfa %rsp, 8
	retq
.LBB18_3:                               # %func_BZ2_bzWriteOpen.47
	.cfi_def_cfa %rbp, 16
	movq	%rbx, %rdi
	movq	%r13, %rsi
	movl	%r12d, %edx
	movl	%r15d, %ecx
	movl	%r14d, %r8d
	callq	BZ2_bzWriteOpen.47
	addq	$8, %rsp
	popq	%rbx
	popq	%r12
	popq	%r13
	popq	%r14
	popq	%r15
	popq	%rbp
	.cfi_def_cfa %rsp, 8
	retq
.LBB18_4:                               # %func_BZ2_bzWriteOpen.71
	.cfi_def_cfa %rbp, 16
	movq	%rbx, %rdi
	movq	%r13, %rsi
	movl	%r12d, %edx
	movl	%r15d, %ecx
	movl	%r14d, %r8d
	callq	BZ2_bzWriteOpen.71
	addq	$8, %rsp
	popq	%rbx
	popq	%r12
	popq	%r13
	popq	%r14
	popq	%r15
	popq	%rbp
	.cfi_def_cfa %rsp, 8
	retq
.LBB18_5:                               # %ctrl0
	.cfi_def_cfa %rbp, 16
	cmpl	$1, %eax
	je	.LBB18_2
# %bb.6:                                # %ctrl1
	cmpl	$2, %eax
	je	.LBB18_3
	jmp	.LBB18_4
.Lfunc_end18:
	.size	BZ2_bzWriteOpen, .Lfunc_end18-BZ2_bzWriteOpen
	.cfi_endproc
                                        # -- End function
	.globl	BZ2_bzWrite             # -- Begin function BZ2_bzWrite
	.p2align	4, 0x90
	.type	BZ2_bzWrite,@function
BZ2_bzWrite:                            # @BZ2_bzWrite
	.cfi_startproc
# %bb.0:                                # %rand_bb
	pushq	%rbp
	.cfi_def_cfa_offset 16
	.cfi_offset %rbp, -16
	movq	%rsp, %rbp
	.cfi_def_cfa_register %rbp
	pushq	%r15
	pushq	%r14
	pushq	%r12
	pushq	%rbx
	.cfi_offset %rbx, -48
	.cfi_offset %r12, -40
	.cfi_offset %r14, -32
	.cfi_offset %r15, -24
	movl	%ecx, %r14d
	movq	%rdx, %r15
	movq	%rsi, %r12
	movq	%rdi, %rbx
	callq	get_rand
	cmpl	$0, %eax
	jne	.LBB19_5
# %bb.1:                                # %func_BZ2_bzWrite.55
	movq	%rbx, %rdi
	movq	%r12, %rsi
	movq	%r15, %rdx
	movl	%r14d, %ecx
	callq	BZ2_bzWrite.55
	popq	%rbx
	popq	%r12
	popq	%r14
	popq	%r15
	popq	%rbp
	.cfi_def_cfa %rsp, 8
	retq
.LBB19_2:                               # %func_BZ2_bzWrite.103
	.cfi_def_cfa %rbp, 16
	movq	%rbx, %rdi
	movq	%r12, %rsi
	movq	%r15, %rdx
	movl	%r14d, %ecx
	callq	BZ2_bzWrite.103
	popq	%rbx
	popq	%r12
	popq	%r14
	popq	%r15
	popq	%rbp
	.cfi_def_cfa %rsp, 8
	retq
.LBB19_3:                               # %func_BZ2_bzWrite.112
	.cfi_def_cfa %rbp, 16
	movq	%rbx, %rdi
	movq	%r12, %rsi
	movq	%r15, %rdx
	movl	%r14d, %ecx
	callq	BZ2_bzWrite.112
	popq	%rbx
	popq	%r12
	popq	%r14
	popq	%r15
	popq	%rbp
	.cfi_def_cfa %rsp, 8
	retq
.LBB19_4:                               # %func_BZ2_bzWrite.114
	.cfi_def_cfa %rbp, 16
	movq	%rbx, %rdi
	movq	%r12, %rsi
	movq	%r15, %rdx
	movl	%r14d, %ecx
	callq	BZ2_bzWrite.114
	popq	%rbx
	popq	%r12
	popq	%r14
	popq	%r15
	popq	%rbp
	.cfi_def_cfa %rsp, 8
	retq
.LBB19_5:                               # %ctrl0
	.cfi_def_cfa %rbp, 16
	cmpl	$1, %eax
	je	.LBB19_2
# %bb.6:                                # %ctrl1
	cmpl	$2, %eax
	je	.LBB19_3
	jmp	.LBB19_4
.Lfunc_end19:
	.size	BZ2_bzWrite, .Lfunc_end19-BZ2_bzWrite
	.cfi_endproc
                                        # -- End function
	.globl	BZ2_bzWriteClose        # -- Begin function BZ2_bzWriteClose
	.p2align	4, 0x90
	.type	BZ2_bzWriteClose,@function
BZ2_bzWriteClose:                       # @BZ2_bzWriteClose
	.cfi_startproc
# %bb.0:                                # %rand_bb
	pushq	%rbp
	.cfi_def_cfa_offset 16
	.cfi_offset %rbp, -16
	movq	%rsp, %rbp
	.cfi_def_cfa_register %rbp
	pushq	%r15
	pushq	%r14
	pushq	%r13
	pushq	%r12
	pushq	%rbx
	pushq	%rax
	.cfi_offset %rbx, -56
	.cfi_offset %r12, -48
	.cfi_offset %r13, -40
	.cfi_offset %r14, -32
	.cfi_offset %r15, -24
	movq	%r8, %r14
	movq	%rcx, %r15
	movl	%edx, %r12d
	movq	%rsi, %r13
	movq	%rdi, %rbx
	callq	get_rand
	cmpl	$0, %eax
	jne	.LBB20_5
# %bb.1:                                # %func_BZ2_bzWriteClose.7
	movq	%rbx, %rdi
	movq	%r13, %rsi
	movl	%r12d, %edx
	movq	%r15, %rcx
	movq	%r14, %r8
	callq	BZ2_bzWriteClose.7
	addq	$8, %rsp
	popq	%rbx
	popq	%r12
	popq	%r13
	popq	%r14
	popq	%r15
	popq	%rbp
	.cfi_def_cfa %rsp, 8
	retq
.LBB20_2:                               # %func_BZ2_bzWriteClose.30
	.cfi_def_cfa %rbp, 16
	movq	%rbx, %rdi
	movq	%r13, %rsi
	movl	%r12d, %edx
	movq	%r15, %rcx
	movq	%r14, %r8
	callq	BZ2_bzWriteClose.30
	addq	$8, %rsp
	popq	%rbx
	popq	%r12
	popq	%r13
	popq	%r14
	popq	%r15
	popq	%rbp
	.cfi_def_cfa %rsp, 8
	retq
.LBB20_3:                               # %func_BZ2_bzWriteClose.33
	.cfi_def_cfa %rbp, 16
	movq	%rbx, %rdi
	movq	%r13, %rsi
	movl	%r12d, %edx
	movq	%r15, %rcx
	movq	%r14, %r8
	callq	BZ2_bzWriteClose.33
	addq	$8, %rsp
	popq	%rbx
	popq	%r12
	popq	%r13
	popq	%r14
	popq	%r15
	popq	%rbp
	.cfi_def_cfa %rsp, 8
	retq
.LBB20_4:                               # %func_BZ2_bzWriteClose.60
	.cfi_def_cfa %rbp, 16
	movq	%rbx, %rdi
	movq	%r13, %rsi
	movl	%r12d, %edx
	movq	%r15, %rcx
	movq	%r14, %r8
	callq	BZ2_bzWriteClose.60
	addq	$8, %rsp
	popq	%rbx
	popq	%r12
	popq	%r13
	popq	%r14
	popq	%r15
	popq	%rbp
	.cfi_def_cfa %rsp, 8
	retq
.LBB20_5:                               # %ctrl0
	.cfi_def_cfa %rbp, 16
	cmpl	$1, %eax
	je	.LBB20_2
# %bb.6:                                # %ctrl1
	cmpl	$2, %eax
	je	.LBB20_3
	jmp	.LBB20_4
.Lfunc_end20:
	.size	BZ2_bzWriteClose, .Lfunc_end20-BZ2_bzWriteClose
	.cfi_endproc
                                        # -- End function
	.globl	BZ2_bzWriteClose64      # -- Begin function BZ2_bzWriteClose64
	.p2align	4, 0x90
	.type	BZ2_bzWriteClose64,@function
BZ2_bzWriteClose64:                     # @BZ2_bzWriteClose64
	.cfi_startproc
# %bb.0:                                # %rand_bb
	pushq	%rbp
	.cfi_def_cfa_offset 16
	.cfi_offset %rbp, -16
	movq	%rsp, %rbp
	.cfi_def_cfa_register %rbp
	pushq	%r15
	pushq	%r14
	pushq	%r13
	pushq	%r12
	pushq	%rbx
	subq	$24, %rsp
	.cfi_offset %rbx, -56
	.cfi_offset %r12, -48
	.cfi_offset %r13, -40
	.cfi_offset %r14, -32
	.cfi_offset %r15, -24
	movq	%r9, -48(%rbp)          # 8-byte Spill
	movq	%r8, %r12
	movq	%rcx, %r13
	movl	%edx, %ebx
	movq	%rsi, %r14
	movq	%rdi, %r15
	callq	get_rand
	cmpl	$0, %eax
	jne	.LBB21_5
# %bb.1:                                # %func_BZ2_bzWriteClose64.99
	movq	%r15, %rdi
	movq	%r14, %rsi
	movl	%ebx, %edx
	movq	%r13, %rcx
	movq	%r12, %r8
	movq	-48(%rbp), %r9          # 8-byte Reload
	movq	16(%rbp), %rax
	movq	%rax, (%rsp)
	callq	BZ2_bzWriteClose64.99
	addq	$24, %rsp
	popq	%rbx
	popq	%r12
	popq	%r13
	popq	%r14
	popq	%r15
	popq	%rbp
	.cfi_def_cfa %rsp, 8
	retq
.LBB21_2:                               # %func_BZ2_bzWriteClose64.126
	.cfi_def_cfa %rbp, 16
	movq	%r15, %rdi
	movq	%r14, %rsi
	movl	%ebx, %edx
	movq	%r13, %rcx
	movq	%r12, %r8
	movq	%r10, (%rsp)
	callq	BZ2_bzWriteClose64.126
	addq	$24, %rsp
	popq	%rbx
	popq	%r12
	popq	%r13
	popq	%r14
	popq	%r15
	popq	%rbp
	.cfi_def_cfa %rsp, 8
	retq
.LBB21_3:                               # %func_BZ2_bzWriteClose64.127
	.cfi_def_cfa %rbp, 16
	movq	%rax, (%rsp)
	callq	BZ2_bzWriteClose64.127
	addq	$24, %rsp
	popq	%rbx
	popq	%r12
	popq	%r13
	popq	%r14
	popq	%r15
	popq	%rbp
	.cfi_def_cfa %rsp, 8
	retq
.LBB21_4:                               # %func_BZ2_bzWriteClose64.128
	.cfi_def_cfa %rbp, 16
	movq	%rax, (%rsp)
	callq	BZ2_bzWriteClose64.128
	addq	$24, %rsp
	popq	%rbx
	popq	%r12
	popq	%r13
	popq	%r14
	popq	%r15
	popq	%rbp
	.cfi_def_cfa %rsp, 8
	retq
.LBB21_5:                               # %ctrl0
	.cfi_def_cfa %rbp, 16
	movq	16(%rbp), %r10
	movq	-48(%rbp), %r9          # 8-byte Reload
	cmpl	$1, %eax
	je	.LBB21_2
# %bb.6:                                # %ctrl1
	cmpl	$2, %eax
	movq	%r10, %rax
	movq	%r12, %r8
	movq	%r13, %rcx
	movl	%ebx, %edx
	movq	%r14, %rsi
	movq	%r15, %rdi
	je	.LBB21_3
	jmp	.LBB21_4
.Lfunc_end21:
	.size	BZ2_bzWriteClose64, .Lfunc_end21-BZ2_bzWriteClose64
	.cfi_endproc
                                        # -- End function
	.globl	BZ2_bzReadOpen          # -- Begin function BZ2_bzReadOpen
	.p2align	4, 0x90
	.type	BZ2_bzReadOpen,@function
BZ2_bzReadOpen:                         # @BZ2_bzReadOpen
	.cfi_startproc
# %bb.0:                                # %rand_bb
	pushq	%rbp
	.cfi_def_cfa_offset 16
	.cfi_offset %rbp, -16
	movq	%rsp, %rbp
	.cfi_def_cfa_register %rbp
	pushq	%r15
	pushq	%r14
	pushq	%r13
	pushq	%r12
	pushq	%rbx
	pushq	%rax
	.cfi_offset %rbx, -56
	.cfi_offset %r12, -48
	.cfi_offset %r13, -40
	.cfi_offset %r14, -32
	.cfi_offset %r15, -24
	movl	%r9d, -44(%rbp)         # 4-byte Spill
	movq	%r8, %r12
	movl	%ecx, %r13d
	movl	%edx, %ebx
	movq	%rsi, %r14
	movq	%rdi, %r15
	callq	get_rand
	cmpl	$0, %eax
	jne	.LBB22_5
# %bb.1:                                # %func_BZ2_bzReadOpen.3
	movq	%r15, %rdi
	movq	%r14, %rsi
	movl	%ebx, %edx
	movl	%r13d, %ecx
	movq	%r12, %r8
	movl	-44(%rbp), %r9d         # 4-byte Reload
	callq	BZ2_bzReadOpen.3
	addq	$8, %rsp
	popq	%rbx
	popq	%r12
	popq	%r13
	popq	%r14
	popq	%r15
	popq	%rbp
	.cfi_def_cfa %rsp, 8
	retq
.LBB22_2:                               # %func_BZ2_bzReadOpen.72
	.cfi_def_cfa %rbp, 16
	movq	%r15, %rdi
	movq	%r14, %rsi
	movl	%ebx, %edx
	movl	%r13d, %ecx
	movq	%r12, %r8
	callq	BZ2_bzReadOpen.72
	addq	$8, %rsp
	popq	%rbx
	popq	%r12
	popq	%r13
	popq	%r14
	popq	%r15
	popq	%rbp
	.cfi_def_cfa %rsp, 8
	retq
.LBB22_3:                               # %func_BZ2_bzReadOpen.101
	.cfi_def_cfa %rbp, 16
	callq	BZ2_bzReadOpen.101
	addq	$8, %rsp
	popq	%rbx
	popq	%r12
	popq	%r13
	popq	%r14
	popq	%r15
	popq	%rbp
	.cfi_def_cfa %rsp, 8
	retq
.LBB22_4:                               # %func_BZ2_bzReadOpen.102
	.cfi_def_cfa %rbp, 16
	callq	BZ2_bzReadOpen.102
	addq	$8, %rsp
	popq	%rbx
	popq	%r12
	popq	%r13
	popq	%r14
	popq	%r15
	popq	%rbp
	.cfi_def_cfa %rsp, 8
	retq
.LBB22_5:                               # %ctrl0
	.cfi_def_cfa %rbp, 16
	movl	-44(%rbp), %r9d         # 4-byte Reload
	cmpl	$1, %eax
	je	.LBB22_2
# %bb.6:                                # %ctrl1
	cmpl	$2, %eax
	movq	%r12, %r8
	movl	%r13d, %ecx
	movl	%ebx, %edx
	movq	%r14, %rsi
	movq	%r15, %rdi
	je	.LBB22_3
	jmp	.LBB22_4
.Lfunc_end22:
	.size	BZ2_bzReadOpen, .Lfunc_end22-BZ2_bzReadOpen
	.cfi_endproc
                                        # -- End function
	.globl	BZ2_bzReadClose         # -- Begin function BZ2_bzReadClose
	.p2align	4, 0x90
	.type	BZ2_bzReadClose,@function
BZ2_bzReadClose:                        # @BZ2_bzReadClose
	.cfi_startproc
# %bb.0:                                # %rand_bb
	pushq	%rbp
	.cfi_def_cfa_offset 16
	.cfi_offset %rbp, -16
	movq	%rsp, %rbp
	.cfi_def_cfa_register %rbp
	pushq	%r14
	pushq	%rbx
	.cfi_offset %rbx, -32
	.cfi_offset %r14, -24
	movq	%rsi, %r14
	movq	%rdi, %rbx
	callq	get_rand
	cmpl	$0, %eax
	jne	.LBB23_5
# %bb.1:                                # %func_BZ2_bzReadClose.1
	movq	%rbx, %rdi
	movq	%r14, %rsi
	callq	BZ2_bzReadClose.1
	popq	%rbx
	popq	%r14
	popq	%rbp
	.cfi_def_cfa %rsp, 8
	retq
.LBB23_2:                               # %func_BZ2_bzReadClose.53
	.cfi_def_cfa %rbp, 16
	movq	%rbx, %rdi
	movq	%r14, %rsi
	callq	BZ2_bzReadClose.53
	popq	%rbx
	popq	%r14
	popq	%rbp
	.cfi_def_cfa %rsp, 8
	retq
.LBB23_3:                               # %func_BZ2_bzReadClose.84
	.cfi_def_cfa %rbp, 16
	movq	%rbx, %rdi
	movq	%r14, %rsi
	callq	BZ2_bzReadClose.84
	popq	%rbx
	popq	%r14
	popq	%rbp
	.cfi_def_cfa %rsp, 8
	retq
.LBB23_4:                               # %func_BZ2_bzReadClose.91
	.cfi_def_cfa %rbp, 16
	movq	%rbx, %rdi
	movq	%r14, %rsi
	callq	BZ2_bzReadClose.91
	popq	%rbx
	popq	%r14
	popq	%rbp
	.cfi_def_cfa %rsp, 8
	retq
.LBB23_5:                               # %ctrl0
	.cfi_def_cfa %rbp, 16
	cmpl	$1, %eax
	je	.LBB23_2
# %bb.6:                                # %ctrl1
	cmpl	$2, %eax
	je	.LBB23_3
	jmp	.LBB23_4
.Lfunc_end23:
	.size	BZ2_bzReadClose, .Lfunc_end23-BZ2_bzReadClose
	.cfi_endproc
                                        # -- End function
	.globl	BZ2_bzRead              # -- Begin function BZ2_bzRead
	.p2align	4, 0x90
	.type	BZ2_bzRead,@function
BZ2_bzRead:                             # @BZ2_bzRead
	.cfi_startproc
# %bb.0:                                # %rand_bb
	pushq	%rbp
	.cfi_def_cfa_offset 16
	.cfi_offset %rbp, -16
	movq	%rsp, %rbp
	.cfi_def_cfa_register %rbp
	pushq	%r15
	pushq	%r14
	pushq	%r12
	pushq	%rbx
	.cfi_offset %rbx, -48
	.cfi_offset %r12, -40
	.cfi_offset %r14, -32
	.cfi_offset %r15, -24
	movl	%ecx, %r14d
	movq	%rdx, %r15
	movq	%rsi, %r12
	movq	%rdi, %rbx
	callq	get_rand
	cmpl	$0, %eax
	jne	.LBB24_5
# %bb.1:                                # %func_BZ2_bzRead.27
	movq	%rbx, %rdi
	movq	%r12, %rsi
	movq	%r15, %rdx
	movl	%r14d, %ecx
	callq	BZ2_bzRead.27
	popq	%rbx
	popq	%r12
	popq	%r14
	popq	%r15
	popq	%rbp
	.cfi_def_cfa %rsp, 8
	retq
.LBB24_2:                               # %func_BZ2_bzRead.106
	.cfi_def_cfa %rbp, 16
	movq	%rbx, %rdi
	movq	%r12, %rsi
	movq	%r15, %rdx
	movl	%r14d, %ecx
	callq	BZ2_bzRead.106
	popq	%rbx
	popq	%r12
	popq	%r14
	popq	%r15
	popq	%rbp
	.cfi_def_cfa %rsp, 8
	retq
.LBB24_3:                               # %func_BZ2_bzRead.111
	.cfi_def_cfa %rbp, 16
	movq	%rbx, %rdi
	movq	%r12, %rsi
	movq	%r15, %rdx
	movl	%r14d, %ecx
	callq	BZ2_bzRead.111
	popq	%rbx
	popq	%r12
	popq	%r14
	popq	%r15
	popq	%rbp
	.cfi_def_cfa %rsp, 8
	retq
.LBB24_4:                               # %func_BZ2_bzRead.117
	.cfi_def_cfa %rbp, 16
	movq	%rbx, %rdi
	movq	%r12, %rsi
	movq	%r15, %rdx
	movl	%r14d, %ecx
	callq	BZ2_bzRead.117
	popq	%rbx
	popq	%r12
	popq	%r14
	popq	%r15
	popq	%rbp
	.cfi_def_cfa %rsp, 8
	retq
.LBB24_5:                               # %ctrl0
	.cfi_def_cfa %rbp, 16
	cmpl	$1, %eax
	je	.LBB24_2
# %bb.6:                                # %ctrl1
	cmpl	$2, %eax
	je	.LBB24_3
	jmp	.LBB24_4
.Lfunc_end24:
	.size	BZ2_bzRead, .Lfunc_end24-BZ2_bzRead
	.cfi_endproc
                                        # -- End function
	.p2align	4, 0x90         # -- Begin function myfeof
	.type	myfeof,@function
myfeof:                                 # @myfeof
	.cfi_startproc
# %bb.0:                                # %rand_bb
	pushq	%rbp
	.cfi_def_cfa_offset 16
	.cfi_offset %rbp, -16
	movq	%rsp, %rbp
	.cfi_def_cfa_register %rbp
	pushq	%rbx
	pushq	%rax
	.cfi_offset %rbx, -24
	movq	%rdi, %rbx
	callq	get_rand
	cmpl	$0, %eax
	jne	.LBB25_5
# %bb.1:                                # %func_myfeof.14
	movq	%rbx, %rdi
	callq	myfeof.14
	movzbl	%al, %eax
	addq	$8, %rsp
	popq	%rbx
	popq	%rbp
	.cfi_def_cfa %rsp, 8
	retq
.LBB25_2:                               # %func_myfeof.34
	.cfi_def_cfa %rbp, 16
	movq	%rbx, %rdi
	callq	myfeof.34
	movzbl	%al, %eax
	addq	$8, %rsp
	popq	%rbx
	popq	%rbp
	.cfi_def_cfa %rsp, 8
	retq
.LBB25_3:                               # %func_myfeof.61
	.cfi_def_cfa %rbp, 16
	movq	%rbx, %rdi
	callq	myfeof.61
	movzbl	%al, %eax
	addq	$8, %rsp
	popq	%rbx
	popq	%rbp
	.cfi_def_cfa %rsp, 8
	retq
.LBB25_4:                               # %func_myfeof.92
	.cfi_def_cfa %rbp, 16
	movq	%rbx, %rdi
	callq	myfeof.92
	movzbl	%al, %eax
	addq	$8, %rsp
	popq	%rbx
	popq	%rbp
	.cfi_def_cfa %rsp, 8
	retq
.LBB25_5:                               # %ctrl0
	.cfi_def_cfa %rbp, 16
	cmpl	$1, %eax
	je	.LBB25_2
# %bb.6:                                # %ctrl1
	cmpl	$2, %eax
	je	.LBB25_3
	jmp	.LBB25_4
.Lfunc_end25:
	.size	myfeof, .Lfunc_end25-myfeof
	.cfi_endproc
                                        # -- End function
	.globl	BZ2_bzReadGetUnused     # -- Begin function BZ2_bzReadGetUnused
	.p2align	4, 0x90
	.type	BZ2_bzReadGetUnused,@function
BZ2_bzReadGetUnused:                    # @BZ2_bzReadGetUnused
	.cfi_startproc
# %bb.0:                                # %rand_bb
	pushq	%rbp
	.cfi_def_cfa_offset 16
	.cfi_offset %rbp, -16
	movq	%rsp, %rbp
	.cfi_def_cfa_register %rbp
	pushq	%r15
	pushq	%r14
	pushq	%r12
	pushq	%rbx
	.cfi_offset %rbx, -48
	.cfi_offset %r12, -40
	.cfi_offset %r14, -32
	.cfi_offset %r15, -24
	movq	%rcx, %r14
	movq	%rdx, %r15
	movq	%rsi, %r12
	movq	%rdi, %rbx
	callq	get_rand
	cmpl	$0, %eax
	jne	.LBB26_5
# %bb.1:                                # %func_BZ2_bzReadGetUnused.11
	movq	%rbx, %rdi
	movq	%r12, %rsi
	movq	%r15, %rdx
	movq	%r14, %rcx
	callq	BZ2_bzReadGetUnused.11
	popq	%rbx
	popq	%r12
	popq	%r14
	popq	%r15
	popq	%rbp
	.cfi_def_cfa %rsp, 8
	retq
.LBB26_2:                               # %func_BZ2_bzReadGetUnused.24
	.cfi_def_cfa %rbp, 16
	movq	%rbx, %rdi
	movq	%r12, %rsi
	movq	%r15, %rdx
	movq	%r14, %rcx
	callq	BZ2_bzReadGetUnused.24
	popq	%rbx
	popq	%r12
	popq	%r14
	popq	%r15
	popq	%rbp
	.cfi_def_cfa %rsp, 8
	retq
.LBB26_3:                               # %func_BZ2_bzReadGetUnused.51
	.cfi_def_cfa %rbp, 16
	movq	%rbx, %rdi
	movq	%r12, %rsi
	movq	%r15, %rdx
	movq	%r14, %rcx
	callq	BZ2_bzReadGetUnused.51
	popq	%rbx
	popq	%r12
	popq	%r14
	popq	%r15
	popq	%rbp
	.cfi_def_cfa %rsp, 8
	retq
.LBB26_4:                               # %func_BZ2_bzReadGetUnused.63
	.cfi_def_cfa %rbp, 16
	movq	%rbx, %rdi
	movq	%r12, %rsi
	movq	%r15, %rdx
	movq	%r14, %rcx
	callq	BZ2_bzReadGetUnused.63
	popq	%rbx
	popq	%r12
	popq	%r14
	popq	%r15
	popq	%rbp
	.cfi_def_cfa %rsp, 8
	retq
.LBB26_5:                               # %ctrl0
	.cfi_def_cfa %rbp, 16
	cmpl	$1, %eax
	je	.LBB26_2
# %bb.6:                                # %ctrl1
	cmpl	$2, %eax
	je	.LBB26_3
	jmp	.LBB26_4
.Lfunc_end26:
	.size	BZ2_bzReadGetUnused, .Lfunc_end26-BZ2_bzReadGetUnused
	.cfi_endproc
                                        # -- End function
	.globl	BZ2_bzBuffToBuffCompress # -- Begin function BZ2_bzBuffToBuffCompress
	.p2align	4, 0x90
	.type	BZ2_bzBuffToBuffCompress,@function
BZ2_bzBuffToBuffCompress:               # @BZ2_bzBuffToBuffCompress
	.cfi_startproc
# %bb.0:                                # %rand_bb
	pushq	%rbp
	.cfi_def_cfa_offset 16
	.cfi_offset %rbp, -16
	movq	%rsp, %rbp
	.cfi_def_cfa_register %rbp
	pushq	%r15
	pushq	%r14
	pushq	%r13
	pushq	%r12
	pushq	%rbx
	subq	$24, %rsp
	.cfi_offset %rbx, -56
	.cfi_offset %r12, -48
	.cfi_offset %r13, -40
	.cfi_offset %r14, -32
	.cfi_offset %r15, -24
	movl	%r9d, -44(%rbp)         # 4-byte Spill
	movl	%r8d, %r12d
	movl	%ecx, %r13d
	movq	%rdx, %rbx
	movq	%rsi, %r14
	movq	%rdi, %r15
	callq	get_rand
	cmpl	$0, %eax
	jne	.LBB27_5
# %bb.1:                                # %func_BZ2_bzBuffToBuffCompress.2
	movq	%r15, %rdi
	movq	%r14, %rsi
	movq	%rbx, %rdx
	movl	%r13d, %ecx
	movl	%r12d, %r8d
	movl	-44(%rbp), %r9d         # 4-byte Reload
	movl	16(%rbp), %eax
	movl	%eax, (%rsp)
	callq	BZ2_bzBuffToBuffCompress.2
	addq	$24, %rsp
	popq	%rbx
	popq	%r12
	popq	%r13
	popq	%r14
	popq	%r15
	popq	%rbp
	.cfi_def_cfa %rsp, 8
	retq
.LBB27_2:                               # %func_BZ2_bzBuffToBuffCompress.58
	.cfi_def_cfa %rbp, 16
	movq	%r15, %rdi
	movq	%r14, %rsi
	movq	%rbx, %rdx
	movl	%r13d, %ecx
	movl	%r12d, %r8d
	movl	%r10d, (%rsp)
	callq	BZ2_bzBuffToBuffCompress.58
	addq	$24, %rsp
	popq	%rbx
	popq	%r12
	popq	%r13
	popq	%r14
	popq	%r15
	popq	%rbp
	.cfi_def_cfa %rsp, 8
	retq
.LBB27_3:                               # %func_BZ2_bzBuffToBuffCompress.108
	.cfi_def_cfa %rbp, 16
	movl	%eax, (%rsp)
	callq	BZ2_bzBuffToBuffCompress.108
	addq	$24, %rsp
	popq	%rbx
	popq	%r12
	popq	%r13
	popq	%r14
	popq	%r15
	popq	%rbp
	.cfi_def_cfa %rsp, 8
	retq
.LBB27_4:                               # %func_BZ2_bzBuffToBuffCompress.115
	.cfi_def_cfa %rbp, 16
	movl	%eax, (%rsp)
	callq	BZ2_bzBuffToBuffCompress.115
	addq	$24, %rsp
	popq	%rbx
	popq	%r12
	popq	%r13
	popq	%r14
	popq	%r15
	popq	%rbp
	.cfi_def_cfa %rsp, 8
	retq
.LBB27_5:                               # %ctrl0
	.cfi_def_cfa %rbp, 16
	movl	16(%rbp), %r10d
	movl	-44(%rbp), %r9d         # 4-byte Reload
	cmpl	$1, %eax
	je	.LBB27_2
# %bb.6:                                # %ctrl1
	cmpl	$2, %eax
	movl	%r10d, %eax
	movl	%r12d, %r8d
	movl	%r13d, %ecx
	movq	%rbx, %rdx
	movq	%r14, %rsi
	movq	%r15, %rdi
	je	.LBB27_3
	jmp	.LBB27_4
.Lfunc_end27:
	.size	BZ2_bzBuffToBuffCompress, .Lfunc_end27-BZ2_bzBuffToBuffCompress
	.cfi_endproc
                                        # -- End function
	.globl	BZ2_bzBuffToBuffDecompress # -- Begin function BZ2_bzBuffToBuffDecompress
	.p2align	4, 0x90
	.type	BZ2_bzBuffToBuffDecompress,@function
BZ2_bzBuffToBuffDecompress:             # @BZ2_bzBuffToBuffDecompress
	.cfi_startproc
# %bb.0:                                # %rand_bb
	pushq	%rbp
	.cfi_def_cfa_offset 16
	.cfi_offset %rbp, -16
	movq	%rsp, %rbp
	.cfi_def_cfa_register %rbp
	pushq	%r15
	pushq	%r14
	pushq	%r13
	pushq	%r12
	pushq	%rbx
	pushq	%rax
	.cfi_offset %rbx, -56
	.cfi_offset %r12, -48
	.cfi_offset %r13, -40
	.cfi_offset %r14, -32
	.cfi_offset %r15, -24
	movl	%r9d, -44(%rbp)         # 4-byte Spill
	movl	%r8d, %r12d
	movl	%ecx, %r13d
	movq	%rdx, %rbx
	movq	%rsi, %r14
	movq	%rdi, %r15
	callq	get_rand
	cmpl	$0, %eax
	jne	.LBB28_5
# %bb.1:                                # %func_BZ2_bzBuffToBuffDecompress.74
	movq	%r15, %rdi
	movq	%r14, %rsi
	movq	%rbx, %rdx
	movl	%r13d, %ecx
	movl	%r12d, %r8d
	movl	-44(%rbp), %r9d         # 4-byte Reload
	callq	BZ2_bzBuffToBuffDecompress.74
	addq	$8, %rsp
	popq	%rbx
	popq	%r12
	popq	%r13
	popq	%r14
	popq	%r15
	popq	%rbp
	.cfi_def_cfa %rsp, 8
	retq
.LBB28_2:                               # %func_BZ2_bzBuffToBuffDecompress.77
	.cfi_def_cfa %rbp, 16
	movq	%r15, %rdi
	movq	%r14, %rsi
	movq	%rbx, %rdx
	movl	%r13d, %ecx
	movl	%r12d, %r8d
	callq	BZ2_bzBuffToBuffDecompress.77
	addq	$8, %rsp
	popq	%rbx
	popq	%r12
	popq	%r13
	popq	%r14
	popq	%r15
	popq	%rbp
	.cfi_def_cfa %rsp, 8
	retq
.LBB28_3:                               # %func_BZ2_bzBuffToBuffDecompress.80
	.cfi_def_cfa %rbp, 16
	callq	BZ2_bzBuffToBuffDecompress.80
	addq	$8, %rsp
	popq	%rbx
	popq	%r12
	popq	%r13
	popq	%r14
	popq	%r15
	popq	%rbp
	.cfi_def_cfa %rsp, 8
	retq
.LBB28_4:                               # %func_BZ2_bzBuffToBuffDecompress.86
	.cfi_def_cfa %rbp, 16
	callq	BZ2_bzBuffToBuffDecompress.86
	addq	$8, %rsp
	popq	%rbx
	popq	%r12
	popq	%r13
	popq	%r14
	popq	%r15
	popq	%rbp
	.cfi_def_cfa %rsp, 8
	retq
.LBB28_5:                               # %ctrl0
	.cfi_def_cfa %rbp, 16
	movl	-44(%rbp), %r9d         # 4-byte Reload
	cmpl	$1, %eax
	je	.LBB28_2
# %bb.6:                                # %ctrl1
	cmpl	$2, %eax
	movl	%r12d, %r8d
	movl	%r13d, %ecx
	movq	%rbx, %rdx
	movq	%r14, %rsi
	movq	%r15, %rdi
	je	.LBB28_3
	jmp	.LBB28_4
.Lfunc_end28:
	.size	BZ2_bzBuffToBuffDecompress, .Lfunc_end28-BZ2_bzBuffToBuffDecompress
	.cfi_endproc
                                        # -- End function
	.globl	BZ2_bzopen              # -- Begin function BZ2_bzopen
	.p2align	4, 0x90
	.type	BZ2_bzopen,@function
BZ2_bzopen:                             # @BZ2_bzopen
	.cfi_startproc
# %bb.0:                                # %rand_bb
	pushq	%rbp
	.cfi_def_cfa_offset 16
	.cfi_offset %rbp, -16
	movq	%rsp, %rbp
	.cfi_def_cfa_register %rbp
	pushq	%r14
	pushq	%rbx
	.cfi_offset %rbx, -32
	.cfi_offset %r14, -24
	movq	%rsi, %r14
	movq	%rdi, %rbx
	callq	get_rand
	cmpl	$0, %eax
	jne	.LBB29_2
# %bb.1:                                # %func_BZ2_bzopen.9
	movq	%rbx, %rdi
	movq	%r14, %rsi
	callq	BZ2_bzopen.9
	popq	%rbx
	popq	%r14
	popq	%rbp
	.cfi_def_cfa %rsp, 8
	retq
.LBB29_2:                               # %func_BZ2_bzopen.29
	.cfi_def_cfa %rbp, 16
	movq	%rbx, %rdi
	movq	%r14, %rsi
	callq	BZ2_bzopen.29
	popq	%rbx
	popq	%r14
	popq	%rbp
	.cfi_def_cfa %rsp, 8
	retq
.Lfunc_end29:
	.size	BZ2_bzopen, .Lfunc_end29-BZ2_bzopen
	.cfi_endproc
                                        # -- End function
	.p2align	4, 0x90         # -- Begin function bzopen_or_bzdopen
	.type	bzopen_or_bzdopen,@function
bzopen_or_bzdopen:                      # @bzopen_or_bzdopen
	.cfi_startproc
# %bb.0:                                # %rand_bb
	pushq	%rbp
	.cfi_def_cfa_offset 16
	.cfi_offset %rbp, -16
	movq	%rsp, %rbp
	.cfi_def_cfa_register %rbp
	pushq	%r15
	pushq	%r14
	pushq	%r12
	pushq	%rbx
	.cfi_offset %rbx, -48
	.cfi_offset %r12, -40
	.cfi_offset %r14, -32
	.cfi_offset %r15, -24
	movl	%ecx, %r14d
	movq	%rdx, %r15
	movl	%esi, %r12d
	movq	%rdi, %rbx
	callq	get_rand
	cmpl	$0, %eax
	jne	.LBB30_5
# %bb.1:                                # %func_bzopen_or_bzdopen.18
	movq	%rbx, %rdi
	movl	%r12d, %esi
	movq	%r15, %rdx
	movl	%r14d, %ecx
	callq	bzopen_or_bzdopen.18
	popq	%rbx
	popq	%r12
	popq	%r14
	popq	%r15
	popq	%rbp
	.cfi_def_cfa %rsp, 8
	retq
.LBB30_2:                               # %func_bzopen_or_bzdopen.23
	.cfi_def_cfa %rbp, 16
	movq	%rbx, %rdi
	movl	%r12d, %esi
	movq	%r15, %rdx
	movl	%r14d, %ecx
	callq	bzopen_or_bzdopen.23
	popq	%rbx
	popq	%r12
	popq	%r14
	popq	%r15
	popq	%rbp
	.cfi_def_cfa %rsp, 8
	retq
.LBB30_3:                               # %func_bzopen_or_bzdopen.62
	.cfi_def_cfa %rbp, 16
	movq	%rbx, %rdi
	movl	%r12d, %esi
	movq	%r15, %rdx
	movl	%r14d, %ecx
	callq	bzopen_or_bzdopen.62
	popq	%rbx
	popq	%r12
	popq	%r14
	popq	%r15
	popq	%rbp
	.cfi_def_cfa %rsp, 8
	retq
.LBB30_4:                               # %func_bzopen_or_bzdopen.81
	.cfi_def_cfa %rbp, 16
	movq	%rbx, %rdi
	movl	%r12d, %esi
	movq	%r15, %rdx
	movl	%r14d, %ecx
	callq	bzopen_or_bzdopen.81
	popq	%rbx
	popq	%r12
	popq	%r14
	popq	%r15
	popq	%rbp
	.cfi_def_cfa %rsp, 8
	retq
.LBB30_5:                               # %ctrl0
	.cfi_def_cfa %rbp, 16
	cmpl	$1, %eax
	je	.LBB30_2
# %bb.6:                                # %ctrl1
	cmpl	$2, %eax
	je	.LBB30_3
	jmp	.LBB30_4
.Lfunc_end30:
	.size	bzopen_or_bzdopen, .Lfunc_end30-bzopen_or_bzdopen
	.cfi_endproc
                                        # -- End function
	.globl	BZ2_bzdopen             # -- Begin function BZ2_bzdopen
	.p2align	4, 0x90
	.type	BZ2_bzdopen,@function
BZ2_bzdopen:                            # @BZ2_bzdopen
	.cfi_startproc
# %bb.0:                                # %rand_bb
	pushq	%rbp
	.cfi_def_cfa_offset 16
	.cfi_offset %rbp, -16
	movq	%rsp, %rbp
	.cfi_def_cfa_register %rbp
	pushq	%r14
	pushq	%rbx
	.cfi_offset %rbx, -32
	.cfi_offset %r14, -24
	movq	%rsi, %r14
	movl	%edi, %ebx
	callq	get_rand
	cmpl	$0, %eax
	jne	.LBB31_2
# %bb.1:                                # %func_BZ2_bzdopen.45
	movl	%ebx, %edi
	movq	%r14, %rsi
	callq	BZ2_bzdopen.45
	popq	%rbx
	popq	%r14
	popq	%rbp
	.cfi_def_cfa %rsp, 8
	retq
.LBB31_2:                               # %func_BZ2_bzdopen.52
	.cfi_def_cfa %rbp, 16
	movl	%ebx, %edi
	movq	%r14, %rsi
	callq	BZ2_bzdopen.52
	popq	%rbx
	popq	%r14
	popq	%rbp
	.cfi_def_cfa %rsp, 8
	retq
.Lfunc_end31:
	.size	BZ2_bzdopen, .Lfunc_end31-BZ2_bzdopen
	.cfi_endproc
                                        # -- End function
	.globl	BZ2_bzread              # -- Begin function BZ2_bzread
	.p2align	4, 0x90
	.type	BZ2_bzread,@function
BZ2_bzread:                             # @BZ2_bzread
	.cfi_startproc
# %bb.0:                                # %rand_bb
	pushq	%rbp
	.cfi_def_cfa_offset 16
	.cfi_offset %rbp, -16
	movq	%rsp, %rbp
	.cfi_def_cfa_register %rbp
	pushq	%r15
	pushq	%r14
	pushq	%rbx
	pushq	%rax
	.cfi_offset %rbx, -40
	.cfi_offset %r14, -32
	.cfi_offset %r15, -24
	movl	%edx, %r14d
	movq	%rsi, %r15
	movq	%rdi, %rbx
	callq	get_rand
	cmpl	$0, %eax
	jne	.LBB32_5
# %bb.1:                                # %func_BZ2_bzread.96
	movq	%rbx, %rdi
	movq	%r15, %rsi
	movl	%r14d, %edx
	callq	BZ2_bzread.96
	addq	$8, %rsp
	popq	%rbx
	popq	%r14
	popq	%r15
	popq	%rbp
	.cfi_def_cfa %rsp, 8
	retq
.LBB32_2:                               # %func_BZ2_bzread.97
	.cfi_def_cfa %rbp, 16
	movq	%rbx, %rdi
	movq	%r15, %rsi
	movl	%r14d, %edx
	callq	BZ2_bzread.97
	addq	$8, %rsp
	popq	%rbx
	popq	%r14
	popq	%r15
	popq	%rbp
	.cfi_def_cfa %rsp, 8
	retq
.LBB32_3:                               # %func_BZ2_bzread.98
	.cfi_def_cfa %rbp, 16
	movq	%rbx, %rdi
	movq	%r15, %rsi
	movl	%r14d, %edx
	callq	BZ2_bzread.98
	addq	$8, %rsp
	popq	%rbx
	popq	%r14
	popq	%r15
	popq	%rbp
	.cfi_def_cfa %rsp, 8
	retq
.LBB32_4:                               # %func_BZ2_bzread.100
	.cfi_def_cfa %rbp, 16
	movq	%rbx, %rdi
	movq	%r15, %rsi
	movl	%r14d, %edx
	callq	BZ2_bzread.100
	addq	$8, %rsp
	popq	%rbx
	popq	%r14
	popq	%r15
	popq	%rbp
	.cfi_def_cfa %rsp, 8
	retq
.LBB32_5:                               # %ctrl0
	.cfi_def_cfa %rbp, 16
	cmpl	$1, %eax
	je	.LBB32_2
# %bb.6:                                # %ctrl1
	cmpl	$2, %eax
	je	.LBB32_3
	jmp	.LBB32_4
.Lfunc_end32:
	.size	BZ2_bzread, .Lfunc_end32-BZ2_bzread
	.cfi_endproc
                                        # -- End function
	.globl	BZ2_bzwrite             # -- Begin function BZ2_bzwrite
	.p2align	4, 0x90
	.type	BZ2_bzwrite,@function
BZ2_bzwrite:                            # @BZ2_bzwrite
	.cfi_startproc
# %bb.0:                                # %rand_bb
	pushq	%rbp
	.cfi_def_cfa_offset 16
	.cfi_offset %rbp, -16
	movq	%rsp, %rbp
	.cfi_def_cfa_register %rbp
	pushq	%r15
	pushq	%r14
	pushq	%rbx
	pushq	%rax
	.cfi_offset %rbx, -40
	.cfi_offset %r14, -32
	.cfi_offset %r15, -24
	movl	%edx, %r14d
	movq	%rsi, %r15
	movq	%rdi, %rbx
	callq	get_rand
	cmpl	$0, %eax
	jne	.LBB33_5
# %bb.1:                                # %func_BZ2_bzwrite.16
	movq	%rbx, %rdi
	movq	%r15, %rsi
	movl	%r14d, %edx
	callq	BZ2_bzwrite.16
	addq	$8, %rsp
	popq	%rbx
	popq	%r14
	popq	%r15
	popq	%rbp
	.cfi_def_cfa %rsp, 8
	retq
.LBB33_2:                               # %func_BZ2_bzwrite.17
	.cfi_def_cfa %rbp, 16
	movq	%rbx, %rdi
	movq	%r15, %rsi
	movl	%r14d, %edx
	callq	BZ2_bzwrite.17
	addq	$8, %rsp
	popq	%rbx
	popq	%r14
	popq	%r15
	popq	%rbp
	.cfi_def_cfa %rsp, 8
	retq
.LBB33_3:                               # %func_BZ2_bzwrite.89
	.cfi_def_cfa %rbp, 16
	movq	%rbx, %rdi
	movq	%r15, %rsi
	movl	%r14d, %edx
	callq	BZ2_bzwrite.89
	addq	$8, %rsp
	popq	%rbx
	popq	%r14
	popq	%r15
	popq	%rbp
	.cfi_def_cfa %rsp, 8
	retq
.LBB33_4:                               # %func_BZ2_bzwrite.107
	.cfi_def_cfa %rbp, 16
	movq	%rbx, %rdi
	movq	%r15, %rsi
	movl	%r14d, %edx
	callq	BZ2_bzwrite.107
	addq	$8, %rsp
	popq	%rbx
	popq	%r14
	popq	%r15
	popq	%rbp
	.cfi_def_cfa %rsp, 8
	retq
.LBB33_5:                               # %ctrl0
	.cfi_def_cfa %rbp, 16
	cmpl	$1, %eax
	je	.LBB33_2
# %bb.6:                                # %ctrl1
	cmpl	$2, %eax
	je	.LBB33_3
	jmp	.LBB33_4
.Lfunc_end33:
	.size	BZ2_bzwrite, .Lfunc_end33-BZ2_bzwrite
	.cfi_endproc
                                        # -- End function
	.globl	BZ2_bzflush             # -- Begin function BZ2_bzflush
	.p2align	4, 0x90
	.type	BZ2_bzflush,@function
BZ2_bzflush:                            # @BZ2_bzflush
	.cfi_startproc
# %bb.0:                                # %entry
	pushq	%rbp
	.cfi_def_cfa_offset 16
	.cfi_offset %rbp, -16
	movq	%rsp, %rbp
	.cfi_def_cfa_register %rbp
	movq	%rdi, -8(%rbp)
	xorl	%eax, %eax
	popq	%rbp
	.cfi_def_cfa %rsp, 8
	retq
.Lfunc_end34:
	.size	BZ2_bzflush, .Lfunc_end34-BZ2_bzflush
	.cfi_endproc
                                        # -- End function
	.globl	BZ2_bzclose             # -- Begin function BZ2_bzclose
	.p2align	4, 0x90
	.type	BZ2_bzclose,@function
BZ2_bzclose:                            # @BZ2_bzclose
	.cfi_startproc
# %bb.0:                                # %rand_bb
	pushq	%rbp
	.cfi_def_cfa_offset 16
	.cfi_offset %rbp, -16
	movq	%rsp, %rbp
	.cfi_def_cfa_register %rbp
	pushq	%rbx
	pushq	%rax
	.cfi_offset %rbx, -24
	movq	%rdi, %rbx
	callq	get_rand
	cmpl	$0, %eax
	jne	.LBB35_5
# %bb.1:                                # %func_BZ2_bzclose.12
	movq	%rbx, %rdi
	callq	BZ2_bzclose.12
	addq	$8, %rsp
	popq	%rbx
	popq	%rbp
	.cfi_def_cfa %rsp, 8
	retq
.LBB35_2:                               # %func_BZ2_bzclose.70
	.cfi_def_cfa %rbp, 16
	movq	%rbx, %rdi
	callq	BZ2_bzclose.70
	addq	$8, %rsp
	popq	%rbx
	popq	%rbp
	.cfi_def_cfa %rsp, 8
	retq
.LBB35_3:                               # %func_BZ2_bzclose.73
	.cfi_def_cfa %rbp, 16
	movq	%rbx, %rdi
	callq	BZ2_bzclose.73
	addq	$8, %rsp
	popq	%rbx
	popq	%rbp
	.cfi_def_cfa %rsp, 8
	retq
.LBB35_4:                               # %func_BZ2_bzclose.79
	.cfi_def_cfa %rbp, 16
	movq	%rbx, %rdi
	callq	BZ2_bzclose.79
	addq	$8, %rsp
	popq	%rbx
	popq	%rbp
	.cfi_def_cfa %rsp, 8
	retq
.LBB35_5:                               # %ctrl0
	.cfi_def_cfa %rbp, 16
	cmpl	$1, %eax
	je	.LBB35_2
# %bb.6:                                # %ctrl1
	cmpl	$2, %eax
	je	.LBB35_3
	jmp	.LBB35_4
.Lfunc_end35:
	.size	BZ2_bzclose, .Lfunc_end35-BZ2_bzclose
	.cfi_endproc
                                        # -- End function
	.globl	BZ2_bzerror             # -- Begin function BZ2_bzerror
	.p2align	4, 0x90
	.type	BZ2_bzerror,@function
BZ2_bzerror:                            # @BZ2_bzerror
	.cfi_startproc
# %bb.0:                                # %rand_bb
	pushq	%rbp
	.cfi_def_cfa_offset 16
	.cfi_offset %rbp, -16
	movq	%rsp, %rbp
	.cfi_def_cfa_register %rbp
	pushq	%r14
	pushq	%rbx
	.cfi_offset %rbx, -32
	.cfi_offset %r14, -24
	movq	%rsi, %r14
	movq	%rdi, %rbx
	callq	get_rand
	cmpl	$0, %eax
	jne	.LBB36_5
# %bb.1:                                # %func_BZ2_bzerror.5
	movq	%rbx, %rdi
	movq	%r14, %rsi
	callq	BZ2_bzerror.5
	popq	%rbx
	popq	%r14
	popq	%rbp
	.cfi_def_cfa %rsp, 8
	retq
.LBB36_2:                               # %func_BZ2_bzerror.6
	.cfi_def_cfa %rbp, 16
	movq	%rbx, %rdi
	movq	%r14, %rsi
	callq	BZ2_bzerror.6
	popq	%rbx
	popq	%r14
	popq	%rbp
	.cfi_def_cfa %rsp, 8
	retq
.LBB36_3:                               # %func_BZ2_bzerror.118
	.cfi_def_cfa %rbp, 16
	movq	%rbx, %rdi
	movq	%r14, %rsi
	callq	BZ2_bzerror.118
	popq	%rbx
	popq	%r14
	popq	%rbp
	.cfi_def_cfa %rsp, 8
	retq
.LBB36_4:                               # %func_BZ2_bzerror.125
	.cfi_def_cfa %rbp, 16
	movq	%rbx, %rdi
	movq	%r14, %rsi
	callq	BZ2_bzerror.125
	popq	%rbx
	popq	%r14
	popq	%rbp
	.cfi_def_cfa %rsp, 8
	retq
.LBB36_5:                               # %ctrl0
	.cfi_def_cfa %rbp, 16
	cmpl	$1, %eax
	je	.LBB36_2
# %bb.6:                                # %ctrl1
	cmpl	$2, %eax
	je	.LBB36_3
	jmp	.LBB36_4
.Lfunc_end36:
	.size	BZ2_bzerror, .Lfunc_end36-BZ2_bzerror
	.cfi_endproc
                                        # -- End function
	.p2align	4, 0x90         # -- Begin function copy_output_until_stop
	.type	copy_output_until_stop,@function
copy_output_until_stop:                 # @copy_output_until_stop
	.cfi_startproc
# %bb.0:                                # %rand_bb
	pushq	%rbp
	.cfi_def_cfa_offset 16
	.cfi_offset %rbp, -16
	movq	%rsp, %rbp
	.cfi_def_cfa_register %rbp
	pushq	%rbx
	pushq	%rax
	.cfi_offset %rbx, -24
	movq	%rdi, %rbx
	callq	get_rand
	cmpl	$0, %eax
	jne	.LBB37_2
# %bb.1:                                # %func_copy_output_until_stop.19
	movq	%rbx, %rdi
	callq	copy_output_until_stop.19
	movzbl	%al, %eax
	addq	$8, %rsp
	popq	%rbx
	popq	%rbp
	.cfi_def_cfa %rsp, 8
	retq
.LBB37_2:                               # %func_copy_output_until_stop.22
	.cfi_def_cfa %rbp, 16
	movq	%rbx, %rdi
	callq	copy_output_until_stop.22
	movzbl	%al, %eax
	addq	$8, %rsp
	popq	%rbx
	popq	%rbp
	.cfi_def_cfa %rsp, 8
	retq
.Lfunc_end37:
	.size	copy_output_until_stop, .Lfunc_end37-copy_output_until_stop
	.cfi_endproc
                                        # -- End function
	.p2align	4, 0x90         # -- Begin function copy_input_until_stop
	.type	copy_input_until_stop,@function
copy_input_until_stop:                  # @copy_input_until_stop
	.cfi_startproc
# %bb.0:                                # %rand_bb
	pushq	%rbp
	.cfi_def_cfa_offset 16
	.cfi_offset %rbp, -16
	movq	%rsp, %rbp
	.cfi_def_cfa_register %rbp
	pushq	%rbx
	pushq	%rax
	.cfi_offset %rbx, -24
	movq	%rdi, %rbx
	callq	get_rand
	cmpl	$0, %eax
	jne	.LBB38_5
# %bb.1:                                # %func_copy_input_until_stop.39
	movq	%rbx, %rdi
	callq	copy_input_until_stop.39
	movzbl	%al, %eax
	addq	$8, %rsp
	popq	%rbx
	popq	%rbp
	.cfi_def_cfa %rsp, 8
	retq
.LBB38_2:                               # %func_copy_input_until_stop.43
	.cfi_def_cfa %rbp, 16
	movq	%rbx, %rdi
	callq	copy_input_until_stop.43
	movzbl	%al, %eax
	addq	$8, %rsp
	popq	%rbx
	popq	%rbp
	.cfi_def_cfa %rsp, 8
	retq
.LBB38_3:                               # %func_copy_input_until_stop.110
	.cfi_def_cfa %rbp, 16
	movq	%rbx, %rdi
	callq	copy_input_until_stop.110
	movzbl	%al, %eax
	addq	$8, %rsp
	popq	%rbx
	popq	%rbp
	.cfi_def_cfa %rsp, 8
	retq
.LBB38_4:                               # %func_copy_input_until_stop.116
	.cfi_def_cfa %rbp, 16
	movq	%rbx, %rdi
	callq	copy_input_until_stop.116
	movzbl	%al, %eax
	addq	$8, %rsp
	popq	%rbx
	popq	%rbp
	.cfi_def_cfa %rsp, 8
	retq
.LBB38_5:                               # %ctrl0
	.cfi_def_cfa %rbp, 16
	cmpl	$1, %eax
	je	.LBB38_2
# %bb.6:                                # %ctrl1
	cmpl	$2, %eax
	je	.LBB38_3
	jmp	.LBB38_4
.Lfunc_end38:
	.size	copy_input_until_stop, .Lfunc_end38-copy_input_until_stop
	.cfi_endproc
                                        # -- End function
	.p2align	4, 0x90         # -- Begin function flush_RL
	.type	flush_RL,@function
flush_RL:                               # @flush_RL
	.cfi_startproc
# %bb.0:                                # %entry
	pushq	%rbp
	.cfi_def_cfa_offset 16
	.cfi_offset %rbp, -16
	movq	%rsp, %rbp
	.cfi_def_cfa_register %rbp
	subq	$16, %rsp
	movq	%rdi, -8(%rbp)
	movq	-8(%rbp), %rax
	cmpl	$256, 92(%rax)          # imm = 0x100
	jae	.LBB39_2
# %bb.1:                                # %if.then
	movq	-8(%rbp), %rdi
	callq	add_pair_to_block
.LBB39_2:                               # %if.end
	movq	-8(%rbp), %rdi
	callq	init_RL
	addq	$16, %rsp
	popq	%rbp
	.cfi_def_cfa %rsp, 8
	retq
.Lfunc_end39:
	.size	flush_RL, .Lfunc_end39-flush_RL
	.cfi_endproc
                                        # -- End function
	.p2align	4, 0x90         # -- Begin function add_pair_to_block
	.type	add_pair_to_block,@function
add_pair_to_block:                      # @add_pair_to_block
	.cfi_startproc
# %bb.0:                                # %rand_bb
	pushq	%rbp
	.cfi_def_cfa_offset 16
	.cfi_offset %rbp, -16
	movq	%rsp, %rbp
	.cfi_def_cfa_register %rbp
	pushq	%rbx
	pushq	%rax
	.cfi_offset %rbx, -24
	movq	%rdi, %rbx
	callq	get_rand
	cmpl	$0, %eax
	jne	.LBB40_5
# %bb.1:                                # %func_add_pair_to_block.25
	movq	%rbx, %rdi
	callq	add_pair_to_block.25
	addq	$8, %rsp
	popq	%rbx
	popq	%rbp
	.cfi_def_cfa %rsp, 8
	retq
.LBB40_2:                               # %func_add_pair_to_block.66
	.cfi_def_cfa %rbp, 16
	movq	%rbx, %rdi
	callq	add_pair_to_block.66
	addq	$8, %rsp
	popq	%rbx
	popq	%rbp
	.cfi_def_cfa %rsp, 8
	retq
.LBB40_3:                               # %func_add_pair_to_block.104
	.cfi_def_cfa %rbp, 16
	movq	%rbx, %rdi
	callq	add_pair_to_block.104
	addq	$8, %rsp
	popq	%rbx
	popq	%rbp
	.cfi_def_cfa %rsp, 8
	retq
.LBB40_4:                               # %func_add_pair_to_block.119
	.cfi_def_cfa %rbp, 16
	movq	%rbx, %rdi
	callq	add_pair_to_block.119
	addq	$8, %rsp
	popq	%rbx
	popq	%rbp
	.cfi_def_cfa %rsp, 8
	retq
.LBB40_5:                               # %ctrl0
	.cfi_def_cfa %rbp, 16
	cmpl	$1, %eax
	je	.LBB40_2
# %bb.6:                                # %ctrl1
	cmpl	$2, %eax
	je	.LBB40_3
	jmp	.LBB40_4
.Lfunc_end40:
	.size	add_pair_to_block, .Lfunc_end40-add_pair_to_block
	.cfi_endproc
                                        # -- End function
	.globl	BZ2_bzReadClose.1       # -- Begin function BZ2_bzReadClose.1
	.p2align	4, 0x90
	.type	BZ2_bzReadClose.1,@function
BZ2_bzReadClose.1:                      # @BZ2_bzReadClose.1
	.cfi_startproc
# %bb.0:                                # %entry
	pushq	%rbp
	.cfi_def_cfa_offset 16
	.cfi_offset %rbp, -16
	movq	%rsp, %rbp
	.cfi_def_cfa_register %rbp
	subq	$32, %rsp
	movl	$744975424, -20(%rbp)   # imm = 0x2C676C40
	movq	%rdi, -16(%rbp)
	movq	%rsi, -32(%rbp)
	movq	-32(%rbp), %rax
	movq	%rax, -8(%rbp)
	cmpq	$0, -16(%rbp)
	je	.LBB41_2
# %bb.1:                                # %if.then
	movq	-16(%rbp), %rax
	movl	$0, (%rax)
.LBB41_2:                               # %if.end
	cmpq	$0, -8(%rbp)
	je	.LBB41_4
# %bb.3:                                # %if.then2
	movq	-8(%rbp), %rax
	movl	$0, 5096(%rax)
.LBB41_4:                               # %if.end3
	cmpq	$0, -8(%rbp)
	jne	.LBB41_10
# %bb.5:                                # %if.then5
	cmpq	$0, -16(%rbp)
	je	.LBB41_7
# %bb.6:                                # %if.then7
	movq	-16(%rbp), %rax
	movl	$0, (%rax)
.LBB41_7:                               # %if.end8
	cmpq	$0, -8(%rbp)
	je	.LBB41_9
# %bb.8:                                # %if.then10
	movq	-8(%rbp), %rax
	movl	$0, 5096(%rax)
.LBB41_9:                               # %if.end12
	jmp	.LBB41_19
.LBB41_10:                              # %if.end13
	movq	-8(%rbp), %rax
	cmpb	$0, 5012(%rax)
	je	.LBB41_16
# %bb.11:                               # %if.then14
	cmpq	$0, -16(%rbp)
	je	.LBB41_13
# %bb.12:                               # %if.then16
	movq	-16(%rbp), %rax
	movl	$-1, (%rax)
.LBB41_13:                              # %if.end17
	cmpq	$0, -8(%rbp)
	je	.LBB41_15
# %bb.14:                               # %if.then19
	movq	-8(%rbp), %rax
	movl	$-1, 5096(%rax)
.LBB41_15:                              # %if.end21
	jmp	.LBB41_19
.LBB41_16:                              # %if.end22
	movq	-8(%rbp), %rax
	cmpb	$0, 5100(%rax)
	je	.LBB41_18
# %bb.17:                               # %if.then24
	movq	-8(%rbp), %rdi
	addq	$5016, %rdi             # imm = 0x1398
	callq	BZ2_bzDecompressEnd
.LBB41_18:                              # %if.end25
	movq	-8(%rbp), %rdi
	callq	free
.LBB41_19:                              # %return
	cmpl	$744975424, -20(%rbp)   # imm = 0x2C676C40
	jne	.LBB41_21
.LBB41_20:
	addq	$32, %rsp
	popq	%rbp
	.cfi_def_cfa %rsp, 8
	retq
.LBB41_21:                              # %func_exit
	.cfi_def_cfa %rbp, 16
	callq	detect_breach
	jmp	.LBB41_20
.Lfunc_end41:
	.size	BZ2_bzReadClose.1, .Lfunc_end41-BZ2_bzReadClose.1
	.cfi_endproc
                                        # -- End function
	.globl	BZ2_bzBuffToBuffCompress.2 # -- Begin function BZ2_bzBuffToBuffCompress.2
	.p2align	4, 0x90
	.type	BZ2_bzBuffToBuffCompress.2,@function
BZ2_bzBuffToBuffCompress.2:             # @BZ2_bzBuffToBuffCompress.2
	.cfi_startproc
# %bb.0:                                # %entry
	pushq	%rbp
	.cfi_def_cfa_offset 16
	.cfi_offset %rbp, -16
	movq	%rsp, %rbp
	.cfi_def_cfa_register %rbp
	pushq	%rbx
	subq	$136, %rsp
	.cfi_offset %rbx, -24
	movl	16(%rbp), %eax
	movl	$297746659, -36(%rbp)   # imm = 0x11BF40E3
	movq	%rdi, -56(%rbp)
	movq	%rsi, -32(%rbp)
	movq	%rdx, -48(%rbp)
	movl	%ecx, -40(%rbp)
	movl	%r8d, -20(%rbp)
	movl	%r9d, -24(%rbp)
	cmpq	$0, -56(%rbp)
	je	.LBB42_9
# %bb.1:                                # %lor.lhs.false
	cmpq	$0, -32(%rbp)
	je	.LBB42_9
# %bb.2:                                # %lor.lhs.false2
	cmpq	$0, -48(%rbp)
	je	.LBB42_9
# %bb.3:                                # %lor.lhs.false4
	cmpl	$1, -20(%rbp)
	jl	.LBB42_9
# %bb.4:                                # %lor.lhs.false6
	cmpl	$9, -20(%rbp)
	jg	.LBB42_9
# %bb.5:                                # %lor.lhs.false8
	cmpl	$0, -24(%rbp)
	jl	.LBB42_9
# %bb.6:                                # %lor.lhs.false10
	cmpl	$4, -24(%rbp)
	jg	.LBB42_9
# %bb.7:                                # %lor.lhs.false12
	cmpl	$0, 16(%rbp)
	jl	.LBB42_9
# %bb.8:                                # %lor.lhs.false14
	cmpl	$250, 16(%rbp)
	jle	.LBB42_10
.LBB42_9:                               # %if.then
	movl	$-2, -16(%rbp)
	jmp	.LBB42_21
.LBB42_10:                              # %if.end
	cmpl	$0, 16(%rbp)
	jne	.LBB42_12
# %bb.11:                               # %if.then17
	movl	$30, 16(%rbp)
.LBB42_12:                              # %if.end18
	movq	$0, -80(%rbp)
	movq	$0, -72(%rbp)
	movq	$0, -64(%rbp)
	movl	-20(%rbp), %esi
	movl	-24(%rbp), %edx
	movl	16(%rbp), %ecx
	leaq	-136(%rbp), %rdi
	callq	BZ2_bzCompressInit
	movl	%eax, -12(%rbp)
	cmpl	$0, -12(%rbp)
	je	.LBB42_14
# %bb.13:                               # %if.then20
	movl	-12(%rbp), %eax
	movl	%eax, -16(%rbp)
	jmp	.LBB42_21
.LBB42_14:                              # %if.end21
	movq	-48(%rbp), %rax
	movq	%rax, -136(%rbp)
	movq	-56(%rbp), %rax
	movq	%rax, -112(%rbp)
	movl	-40(%rbp), %eax
	movl	%eax, -128(%rbp)
	movq	-32(%rbp), %rax
	movl	(%rax), %eax
	movl	%eax, -104(%rbp)
	leaq	-136(%rbp), %rdi
	movl	$2, %esi
	callq	BZ2_bzCompress
	movl	%eax, -12(%rbp)
	cmpl	$3, -12(%rbp)
	jne	.LBB42_16
# %bb.15:                               # %if.then24
	jmp	.LBB42_19
.LBB42_16:                              # %if.end25
	cmpl	$4, -12(%rbp)
	je	.LBB42_18
# %bb.17:                               # %if.then27
	jmp	.LBB42_20
.LBB42_18:                              # %if.end28
	movl	-104(%rbp), %eax
	movq	-32(%rbp), %rcx
	movl	(%rcx), %edx
	subl	%eax, %edx
	movl	%edx, (%rcx)
	leaq	-136(%rbp), %rdi
	callq	BZ2_bzCompressEnd
	movl	$0, -16(%rbp)
	jmp	.LBB42_21
.LBB42_19:                              # %output_overflow
	leaq	-136(%rbp), %rdi
	callq	BZ2_bzCompressEnd
	movl	$-8, -16(%rbp)
	jmp	.LBB42_21
.LBB42_20:                              # %errhandler
	leaq	-136(%rbp), %rdi
	callq	BZ2_bzCompressEnd
	movl	-12(%rbp), %eax
	movl	%eax, -16(%rbp)
.LBB42_21:                              # %return
	movl	-16(%rbp), %ebx
	cmpl	$297746659, -36(%rbp)   # imm = 0x11BF40E3
	jne	.LBB42_23
.LBB42_22:
	movl	%ebx, %eax
	addq	$136, %rsp
	popq	%rbx
	popq	%rbp
	.cfi_def_cfa %rsp, 8
	retq
.LBB42_23:                              # %func_exit
	.cfi_def_cfa %rbp, 16
	callq	detect_breach
	jmp	.LBB42_22
.Lfunc_end42:
	.size	BZ2_bzBuffToBuffCompress.2, .Lfunc_end42-BZ2_bzBuffToBuffCompress.2
	.cfi_endproc
                                        # -- End function
	.globl	BZ2_bzReadOpen.3        # -- Begin function BZ2_bzReadOpen.3
	.p2align	4, 0x90
	.type	BZ2_bzReadOpen.3,@function
BZ2_bzReadOpen.3:                       # @BZ2_bzReadOpen.3
	.cfi_startproc
# %bb.0:                                # %entry
	pushq	%rbp
	.cfi_def_cfa_offset 16
	.cfi_offset %rbp, -16
	movq	%rsp, %rbp
	.cfi_def_cfa_register %rbp
	pushq	%rbx
	subq	$72, %rsp
	.cfi_offset %rbx, -24
	movl	$758320687, -76(%rbp)   # imm = 0x2D330E2F
	movq	%rdi, -32(%rbp)
	movq	%rsi, -72(%rbp)
	movl	%edx, -40(%rbp)
	movl	%ecx, -44(%rbp)
	movq	%r8, -56(%rbp)
	movl	%r9d, -20(%rbp)
	movq	$0, -16(%rbp)
	cmpq	$0, -32(%rbp)
	je	.LBB43_2
# %bb.1:                                # %if.then
	movq	-32(%rbp), %rax
	movl	$0, (%rax)
.LBB43_2:                               # %if.end
	cmpq	$0, -16(%rbp)
	je	.LBB43_4
# %bb.3:                                # %if.then2
	movq	-16(%rbp), %rax
	movl	$0, 5096(%rax)
.LBB43_4:                               # %if.end3
	cmpq	$0, -72(%rbp)
	je	.LBB43_14
# %bb.5:                                # %lor.lhs.false
	cmpl	$0, -44(%rbp)
	je	.LBB43_7
# %bb.6:                                # %land.lhs.true
	cmpl	$1, -44(%rbp)
	jne	.LBB43_14
.LBB43_7:                               # %lor.lhs.false7
	cmpl	$0, -40(%rbp)
	jl	.LBB43_14
# %bb.8:                                # %lor.lhs.false9
	cmpl	$4, -40(%rbp)
	jg	.LBB43_14
# %bb.9:                                # %lor.lhs.false11
	cmpq	$0, -56(%rbp)
	jne	.LBB43_11
# %bb.10:                               # %land.lhs.true13
	cmpl	$0, -20(%rbp)
	jne	.LBB43_14
.LBB43_11:                              # %lor.lhs.false15
	cmpq	$0, -56(%rbp)
	je	.LBB43_19
# %bb.12:                               # %land.lhs.true17
	cmpl	$0, -20(%rbp)
	jl	.LBB43_14
# %bb.13:                               # %lor.lhs.false19
	cmpl	$5000, -20(%rbp)        # imm = 0x1388
	jle	.LBB43_19
.LBB43_14:                              # %if.then21
	cmpq	$0, -32(%rbp)
	je	.LBB43_16
# %bb.15:                               # %if.then23
	movq	-32(%rbp), %rax
	movl	$-2, (%rax)
.LBB43_16:                              # %if.end24
	cmpq	$0, -16(%rbp)
	je	.LBB43_18
# %bb.17:                               # %if.then26
	movq	-16(%rbp), %rax
	movl	$-2, 5096(%rax)
.LBB43_18:                              # %if.end28
	movq	$0, -64(%rbp)
	jmp	.LBB43_45
.LBB43_19:                              # %if.end29
	movq	-72(%rbp), %rdi
	callq	ferror
	cmpl	$0, %eax
	je	.LBB43_25
# %bb.20:                               # %if.then30
	cmpq	$0, -32(%rbp)
	je	.LBB43_22
# %bb.21:                               # %if.then32
	movq	-32(%rbp), %rax
	movl	$-6, (%rax)
.LBB43_22:                              # %if.end33
	cmpq	$0, -16(%rbp)
	je	.LBB43_24
# %bb.23:                               # %if.then35
	movq	-16(%rbp), %rax
	movl	$-6, 5096(%rax)
.LBB43_24:                              # %if.end37
	movq	$0, -64(%rbp)
	jmp	.LBB43_45
.LBB43_25:                              # %if.end38
	movl	$5104, %edi             # imm = 0x13F0
	callq	malloc
	movq	%rax, -16(%rbp)
	cmpq	$0, -16(%rbp)
	jne	.LBB43_31
# %bb.26:                               # %if.then41
	cmpq	$0, -32(%rbp)
	je	.LBB43_28
# %bb.27:                               # %if.then43
	movq	-32(%rbp), %rax
	movl	$-3, (%rax)
.LBB43_28:                              # %if.end44
	cmpq	$0, -16(%rbp)
	je	.LBB43_30
# %bb.29:                               # %if.then46
	movq	-16(%rbp), %rax
	movl	$-3, 5096(%rax)
.LBB43_30:                              # %if.end48
	movq	$0, -64(%rbp)
	jmp	.LBB43_45
.LBB43_31:                              # %if.end49
	cmpq	$0, -32(%rbp)
	je	.LBB43_33
# %bb.32:                               # %if.then51
	movq	-32(%rbp), %rax
	movl	$0, (%rax)
.LBB43_33:                              # %if.end52
	cmpq	$0, -16(%rbp)
	je	.LBB43_35
# %bb.34:                               # %if.then54
	movq	-16(%rbp), %rax
	movl	$0, 5096(%rax)
.LBB43_35:                              # %if.end56
	movq	-16(%rbp), %rax
	movb	$0, 5100(%rax)
	movq	-72(%rbp), %rax
	movq	-16(%rbp), %rcx
	movq	%rax, (%rcx)
	movq	-16(%rbp), %rax
	movl	$0, 5008(%rax)
	movq	-16(%rbp), %rax
	movb	$0, 5012(%rax)
	movq	-16(%rbp), %rax
	movq	$0, 5072(%rax)
	movq	-16(%rbp), %rax
	movq	$0, 5080(%rax)
	movq	-16(%rbp), %rax
	movq	$0, 5088(%rax)
.LBB43_36:                              # %while.cond
                                        # =>This Inner Loop Header: Depth=1
	cmpl	$0, -20(%rbp)
	jle	.LBB43_38
# %bb.37:                               # %while.body
                                        #   in Loop: Header=BB43_36 Depth=1
	movq	-56(%rbp), %rax
	movb	(%rax), %al
	movq	-16(%rbp), %rcx
	movq	-16(%rbp), %rdx
	movslq	5008(%rdx), %rdx
	movb	%al, 8(%rcx,%rdx)
	movq	-16(%rbp), %rax
	movl	5008(%rax), %ecx
	addl	$1, %ecx
	movl	%ecx, 5008(%rax)
	movq	-56(%rbp), %rax
	addq	$1, %rax
	movq	%rax, -56(%rbp)
	movl	-20(%rbp), %eax
	addl	$-1, %eax
	movl	%eax, -20(%rbp)
	jmp	.LBB43_36
.LBB43_38:                              # %while.end
	movq	-16(%rbp), %rdi
	addq	$5016, %rdi             # imm = 0x1398
	movl	-40(%rbp), %esi
	movl	-44(%rbp), %edx
	callq	BZ2_bzDecompressInit
	movl	%eax, -36(%rbp)
	cmpl	$0, -36(%rbp)
	je	.LBB43_44
# %bb.39:                               # %if.then65
	cmpq	$0, -32(%rbp)
	je	.LBB43_41
# %bb.40:                               # %if.then67
	movl	-36(%rbp), %eax
	movq	-32(%rbp), %rcx
	movl	%eax, (%rcx)
.LBB43_41:                              # %if.end68
	cmpq	$0, -16(%rbp)
	je	.LBB43_43
# %bb.42:                               # %if.then70
	movl	-36(%rbp), %eax
	movq	-16(%rbp), %rcx
	movl	%eax, 5096(%rcx)
.LBB43_43:                              # %if.end72
	movq	-16(%rbp), %rdi
	callq	free
	movq	$0, -64(%rbp)
	jmp	.LBB43_45
.LBB43_44:                              # %if.end73
	movq	-16(%rbp), %rax
	movl	5008(%rax), %eax
	movq	-16(%rbp), %rcx
	movl	%eax, 5024(%rcx)
	movq	-16(%rbp), %rax
	addq	$8, %rax
	movq	-16(%rbp), %rcx
	movq	%rax, 5016(%rcx)
	movq	-16(%rbp), %rax
	movb	$1, 5100(%rax)
	movq	-16(%rbp), %rax
	movq	%rax, -64(%rbp)
.LBB43_45:                              # %return
	movq	-64(%rbp), %rbx
	cmpl	$758320687, -76(%rbp)   # imm = 0x2D330E2F
	jne	.LBB43_47
.LBB43_46:
	movq	%rbx, %rax
	addq	$72, %rsp
	popq	%rbx
	popq	%rbp
	.cfi_def_cfa %rsp, 8
	retq
.LBB43_47:                              # %func_exit
	.cfi_def_cfa %rbp, 16
	callq	detect_breach
	jmp	.LBB43_46
.Lfunc_end43:
	.size	BZ2_bzReadOpen.3, .Lfunc_end43-BZ2_bzReadOpen.3
	.cfi_endproc
                                        # -- End function
	.globl	BZ2_indexIntoF.4        # -- Begin function BZ2_indexIntoF.4
	.p2align	4, 0x90
	.type	BZ2_indexIntoF.4,@function
BZ2_indexIntoF.4:                       # @BZ2_indexIntoF.4
	.cfi_startproc
# %bb.0:                                # %entry
	pushq	%rbp
	.cfi_def_cfa_offset 16
	.cfi_offset %rbp, -16
	movq	%rsp, %rbp
	.cfi_def_cfa_register %rbp
	pushq	%rbx
	subq	$40, %rsp
	.cfi_offset %rbx, -24
	movl	$734163032, -24(%rbp)   # imm = 0x2BC27058
	movl	%edi, -28(%rbp)
	movq	%rsi, -40(%rbp)
	movl	$0, -12(%rbp)
	movl	$256, -20(%rbp)         # imm = 0x100
.LBB44_1:                               # %do.body
                                        # =>This Inner Loop Header: Depth=1
	movl	-12(%rbp), %eax
	addl	-20(%rbp), %eax
	sarl	$1, %eax
	movl	%eax, -16(%rbp)
	movl	-28(%rbp), %eax
	movq	-40(%rbp), %rcx
	movslq	-16(%rbp), %rdx
	cmpl	(%rcx,%rdx,4), %eax
	jl	.LBB44_3
# %bb.2:                                # %if.then
                                        #   in Loop: Header=BB44_1 Depth=1
	movl	-16(%rbp), %eax
	movl	%eax, -12(%rbp)
	jmp	.LBB44_4
.LBB44_3:                               # %if.else
                                        #   in Loop: Header=BB44_1 Depth=1
	movl	-16(%rbp), %eax
	movl	%eax, -20(%rbp)
.LBB44_4:                               # %if.end
                                        #   in Loop: Header=BB44_1 Depth=1
	jmp	.LBB44_5
.LBB44_5:                               # %do.cond
                                        #   in Loop: Header=BB44_1 Depth=1
	movl	-20(%rbp), %eax
	subl	-12(%rbp), %eax
	cmpl	$1, %eax
	jne	.LBB44_1
# %bb.6:                                # %do.end
	movl	-12(%rbp), %ebx
	cmpl	$734163032, -24(%rbp)   # imm = 0x2BC27058
	jne	.LBB44_8
.LBB44_7:
	movl	%ebx, %eax
	addq	$40, %rsp
	popq	%rbx
	popq	%rbp
	.cfi_def_cfa %rsp, 8
	retq
.LBB44_8:                               # %func_exit
	.cfi_def_cfa %rbp, 16
	callq	detect_breach
	jmp	.LBB44_7
.Lfunc_end44:
	.size	BZ2_indexIntoF.4, .Lfunc_end44-BZ2_indexIntoF.4
	.cfi_endproc
                                        # -- End function
	.globl	BZ2_bzerror.5           # -- Begin function BZ2_bzerror.5
	.p2align	4, 0x90
	.type	BZ2_bzerror.5,@function
BZ2_bzerror.5:                          # @BZ2_bzerror.5
	.cfi_startproc
# %bb.0:                                # %entry
	pushq	%rbp
	.cfi_def_cfa_offset 16
	.cfi_offset %rbp, -16
	movq	%rsp, %rbp
	.cfi_def_cfa_register %rbp
	pushq	%rbx
	subq	$24, %rsp
	.cfi_offset %rbx, -24
	movl	$573170336, -16(%rbp)   # imm = 0x2229E2A0
	movq	%rdi, -24(%rbp)
	movq	%rsi, -32(%rbp)
	movq	-24(%rbp), %rax
	movl	5096(%rax), %eax
	movl	%eax, -12(%rbp)
	cmpl	$0, -12(%rbp)
	jle	.LBB45_2
# %bb.1:                                # %if.then
	movl	$0, -12(%rbp)
.LBB45_2:                               # %if.end
	movl	-12(%rbp), %eax
	movq	-32(%rbp), %rcx
	movl	%eax, (%rcx)
	imull	$-1, -12(%rbp), %eax
	cltq
	movq	bzerrorstrings(,%rax,8), %rbx
	cmpl	$573170336, -16(%rbp)   # imm = 0x2229E2A0
	jne	.LBB45_4
.LBB45_3:
	movq	%rbx, %rax
	addq	$24, %rsp
	popq	%rbx
	popq	%rbp
	.cfi_def_cfa %rsp, 8
	retq
.LBB45_4:                               # %func_exit
	.cfi_def_cfa %rbp, 16
	callq	detect_breach
	jmp	.LBB45_3
.Lfunc_end45:
	.size	BZ2_bzerror.5, .Lfunc_end45-BZ2_bzerror.5
	.cfi_endproc
                                        # -- End function
	.globl	BZ2_bzerror.6           # -- Begin function BZ2_bzerror.6
	.p2align	4, 0x90
	.type	BZ2_bzerror.6,@function
BZ2_bzerror.6:                          # @BZ2_bzerror.6
	.cfi_startproc
# %bb.0:                                # %entry
	pushq	%rbp
	.cfi_def_cfa_offset 16
	.cfi_offset %rbp, -16
	movq	%rsp, %rbp
	.cfi_def_cfa_register %rbp
	pushq	%rbx
	subq	$24, %rsp
	.cfi_offset %rbx, -24
	movl	$2123025759, -16(%rbp)  # imm = 0x7E8ACD5F
	movq	%rdi, -24(%rbp)
	movq	%rsi, -32(%rbp)
	movq	-24(%rbp), %rax
	movl	5096(%rax), %eax
	movl	%eax, -12(%rbp)
	cmpl	$0, -12(%rbp)
	jle	.LBB46_2
# %bb.1:                                # %if.then
	movl	$0, -12(%rbp)
.LBB46_2:                               # %if.end
	movl	-12(%rbp), %eax
	movq	-32(%rbp), %rcx
	movl	%eax, (%rcx)
	imull	$-1, -12(%rbp), %eax
	cltq
	movq	bzerrorstrings(,%rax,8), %rbx
	cmpl	$2123025759, -16(%rbp)  # imm = 0x7E8ACD5F
	jne	.LBB46_4
.LBB46_3:
	movq	%rbx, %rax
	addq	$24, %rsp
	popq	%rbx
	popq	%rbp
	.cfi_def_cfa %rsp, 8
	retq
.LBB46_4:                               # %func_exit
	.cfi_def_cfa %rbp, 16
	callq	detect_breach
	jmp	.LBB46_3
.Lfunc_end46:
	.size	BZ2_bzerror.6, .Lfunc_end46-BZ2_bzerror.6
	.cfi_endproc
                                        # -- End function
	.globl	BZ2_bzWriteClose.7      # -- Begin function BZ2_bzWriteClose.7
	.p2align	4, 0x90
	.type	BZ2_bzWriteClose.7,@function
BZ2_bzWriteClose.7:                     # @BZ2_bzWriteClose.7
	.cfi_startproc
# %bb.0:                                # %entry
	pushq	%rbp
	.cfi_def_cfa_offset 16
	.cfi_offset %rbp, -16
	movq	%rsp, %rbp
	.cfi_def_cfa_register %rbp
	subq	$48, %rsp
	movl	$1794865957, -8(%rbp)   # imm = 0x6AFB7B25
	movq	%rdi, -40(%rbp)
	movq	%rsi, -16(%rbp)
	movl	%edx, -4(%rbp)
	movq	%rcx, -32(%rbp)
	movq	%r8, -24(%rbp)
	movq	-40(%rbp), %rdi
	movq	-16(%rbp), %rsi
	movl	-4(%rbp), %edx
	movq	-32(%rbp), %rcx
	movq	-24(%rbp), %r9
	xorl	%r8d, %r8d
	movq	$0, (%rsp)
	callq	BZ2_bzWriteClose64
	cmpl	$1794865957, -8(%rbp)   # imm = 0x6AFB7B25
	jne	.LBB47_2
.LBB47_1:
	addq	$48, %rsp
	popq	%rbp
	.cfi_def_cfa %rsp, 8
	retq
.LBB47_2:                               # %func_exit
	.cfi_def_cfa %rbp, 16
	callq	detect_breach
	jmp	.LBB47_1
.Lfunc_end47:
	.size	BZ2_bzWriteClose.7, .Lfunc_end47-BZ2_bzWriteClose.7
	.cfi_endproc
                                        # -- End function
	.globl	BZ2_bzWriteOpen.8       # -- Begin function BZ2_bzWriteOpen.8
	.p2align	4, 0x90
	.type	BZ2_bzWriteOpen.8,@function
BZ2_bzWriteOpen.8:                      # @BZ2_bzWriteOpen.8
	.cfi_startproc
# %bb.0:                                # %entry
	pushq	%rbp
	.cfi_def_cfa_offset 16
	.cfi_offset %rbp, -16
	movq	%rsp, %rbp
	.cfi_def_cfa_register %rbp
	pushq	%rbx
	subq	$56, %rsp
	.cfi_offset %rbx, -24
	movl	$854200102, -60(%rbp)   # imm = 0x32EA0F26
	movq	%rdi, -24(%rbp)
	movq	%rsi, -56(%rbp)
	movl	%edx, -36(%rbp)
	movl	%ecx, -40(%rbp)
	movl	%r8d, -28(%rbp)
	movq	$0, -16(%rbp)
	cmpq	$0, -24(%rbp)
	je	.LBB48_2
# %bb.1:                                # %if.then
	movq	-24(%rbp), %rax
	movl	$0, (%rax)
.LBB48_2:                               # %if.end
	cmpq	$0, -16(%rbp)
	je	.LBB48_4
# %bb.3:                                # %if.then2
	movq	-16(%rbp), %rax
	movl	$0, 5096(%rax)
.LBB48_4:                               # %if.end3
	cmpq	$0, -56(%rbp)
	je	.LBB48_11
# %bb.5:                                # %lor.lhs.false
	cmpl	$1, -36(%rbp)
	jl	.LBB48_11
# %bb.6:                                # %lor.lhs.false6
	cmpl	$9, -36(%rbp)
	jg	.LBB48_11
# %bb.7:                                # %lor.lhs.false8
	cmpl	$0, -28(%rbp)
	jl	.LBB48_11
# %bb.8:                                # %lor.lhs.false10
	cmpl	$250, -28(%rbp)
	jg	.LBB48_11
# %bb.9:                                # %lor.lhs.false12
	cmpl	$0, -40(%rbp)
	jl	.LBB48_11
# %bb.10:                               # %lor.lhs.false14
	cmpl	$4, -40(%rbp)
	jle	.LBB48_16
.LBB48_11:                              # %if.then16
	cmpq	$0, -24(%rbp)
	je	.LBB48_13
# %bb.12:                               # %if.then18
	movq	-24(%rbp), %rax
	movl	$-2, (%rax)
.LBB48_13:                              # %if.end19
	cmpq	$0, -16(%rbp)
	je	.LBB48_15
# %bb.14:                               # %if.then21
	movq	-16(%rbp), %rax
	movl	$-2, 5096(%rax)
.LBB48_15:                              # %if.end23
	movq	$0, -48(%rbp)
	jmp	.LBB48_41
.LBB48_16:                              # %if.end24
	movq	-56(%rbp), %rdi
	callq	ferror
	cmpl	$0, %eax
	je	.LBB48_22
# %bb.17:                               # %if.then25
	cmpq	$0, -24(%rbp)
	je	.LBB48_19
# %bb.18:                               # %if.then27
	movq	-24(%rbp), %rax
	movl	$-6, (%rax)
.LBB48_19:                              # %if.end28
	cmpq	$0, -16(%rbp)
	je	.LBB48_21
# %bb.20:                               # %if.then30
	movq	-16(%rbp), %rax
	movl	$-6, 5096(%rax)
.LBB48_21:                              # %if.end32
	movq	$0, -48(%rbp)
	jmp	.LBB48_41
.LBB48_22:                              # %if.end33
	movl	$5104, %edi             # imm = 0x13F0
	callq	malloc
	movq	%rax, -16(%rbp)
	cmpq	$0, -16(%rbp)
	jne	.LBB48_28
# %bb.23:                               # %if.then36
	cmpq	$0, -24(%rbp)
	je	.LBB48_25
# %bb.24:                               # %if.then38
	movq	-24(%rbp), %rax
	movl	$-3, (%rax)
.LBB48_25:                              # %if.end39
	cmpq	$0, -16(%rbp)
	je	.LBB48_27
# %bb.26:                               # %if.then41
	movq	-16(%rbp), %rax
	movl	$-3, 5096(%rax)
.LBB48_27:                              # %if.end43
	movq	$0, -48(%rbp)
	jmp	.LBB48_41
.LBB48_28:                              # %if.end44
	cmpq	$0, -24(%rbp)
	je	.LBB48_30
# %bb.29:                               # %if.then46
	movq	-24(%rbp), %rax
	movl	$0, (%rax)
.LBB48_30:                              # %if.end47
	cmpq	$0, -16(%rbp)
	je	.LBB48_32
# %bb.31:                               # %if.then49
	movq	-16(%rbp), %rax
	movl	$0, 5096(%rax)
.LBB48_32:                              # %if.end51
	movq	-16(%rbp), %rax
	movb	$0, 5100(%rax)
	movq	-16(%rbp), %rax
	movl	$0, 5008(%rax)
	movq	-56(%rbp), %rax
	movq	-16(%rbp), %rcx
	movq	%rax, (%rcx)
	movq	-16(%rbp), %rax
	movb	$1, 5012(%rax)
	movq	-16(%rbp), %rax
	movq	$0, 5072(%rax)
	movq	-16(%rbp), %rax
	movq	$0, 5080(%rax)
	movq	-16(%rbp), %rax
	movq	$0, 5088(%rax)
	cmpl	$0, -28(%rbp)
	jne	.LBB48_34
# %bb.33:                               # %if.then55
	movl	$30, -28(%rbp)
.LBB48_34:                              # %if.end56
	movq	-16(%rbp), %rdi
	addq	$5016, %rdi             # imm = 0x1398
	movl	-36(%rbp), %esi
	movl	-40(%rbp), %edx
	movl	-28(%rbp), %ecx
	callq	BZ2_bzCompressInit
	movl	%eax, -32(%rbp)
	cmpl	$0, -32(%rbp)
	je	.LBB48_40
# %bb.35:                               # %if.then60
	cmpq	$0, -24(%rbp)
	je	.LBB48_37
# %bb.36:                               # %if.then62
	movl	-32(%rbp), %eax
	movq	-24(%rbp), %rcx
	movl	%eax, (%rcx)
.LBB48_37:                              # %if.end63
	cmpq	$0, -16(%rbp)
	je	.LBB48_39
# %bb.38:                               # %if.then65
	movl	-32(%rbp), %eax
	movq	-16(%rbp), %rcx
	movl	%eax, 5096(%rcx)
.LBB48_39:                              # %if.end67
	movq	-16(%rbp), %rdi
	callq	free
	movq	$0, -48(%rbp)
	jmp	.LBB48_41
.LBB48_40:                              # %if.end68
	movq	-16(%rbp), %rax
	movl	$0, 5024(%rax)
	movq	-16(%rbp), %rax
	movb	$1, 5100(%rax)
	movq	-16(%rbp), %rax
	movq	%rax, -48(%rbp)
.LBB48_41:                              # %return
	movq	-48(%rbp), %rbx
	cmpl	$854200102, -60(%rbp)   # imm = 0x32EA0F26
	jne	.LBB48_43
.LBB48_42:
	movq	%rbx, %rax
	addq	$56, %rsp
	popq	%rbx
	popq	%rbp
	.cfi_def_cfa %rsp, 8
	retq
.LBB48_43:                              # %func_exit
	.cfi_def_cfa %rbp, 16
	callq	detect_breach
	jmp	.LBB48_42
.Lfunc_end48:
	.size	BZ2_bzWriteOpen.8, .Lfunc_end48-BZ2_bzWriteOpen.8
	.cfi_endproc
                                        # -- End function
	.globl	BZ2_bzopen.9            # -- Begin function BZ2_bzopen.9
	.p2align	4, 0x90
	.type	BZ2_bzopen.9,@function
BZ2_bzopen.9:                           # @BZ2_bzopen.9
	.cfi_startproc
# %bb.0:                                # %entry
	pushq	%rbp
	.cfi_def_cfa_offset 16
	.cfi_offset %rbp, -16
	movq	%rsp, %rbp
	.cfi_def_cfa_register %rbp
	pushq	%rbx
	subq	$24, %rsp
	.cfi_offset %rbx, -24
	movl	$337106551, -12(%rbp)   # imm = 0x1417D677
	movq	%rdi, -32(%rbp)
	movq	%rsi, -24(%rbp)
	movq	-32(%rbp), %rdi
	movq	-24(%rbp), %rdx
	movl	$4294967295, %esi       # imm = 0xFFFFFFFF
	xorl	%ecx, %ecx
	callq	bzopen_or_bzdopen
	movq	%rax, %rbx
	cmpl	$337106551, -12(%rbp)   # imm = 0x1417D677
	jne	.LBB49_2
.LBB49_1:
	movq	%rbx, %rax
	addq	$24, %rsp
	popq	%rbx
	popq	%rbp
	.cfi_def_cfa %rsp, 8
	retq
.LBB49_2:                               # %func_exit
	.cfi_def_cfa %rbp, 16
	callq	detect_breach
	jmp	.LBB49_1
.Lfunc_end49:
	.size	BZ2_bzopen.9, .Lfunc_end49-BZ2_bzopen.9
	.cfi_endproc
                                        # -- End function
	.p2align	4, 0x90         # -- Begin function unRLE_obuf_to_output_SMALL.10
	.type	unRLE_obuf_to_output_SMALL.10,@function
unRLE_obuf_to_output_SMALL.10:          # @unRLE_obuf_to_output_SMALL.10
	.cfi_startproc
# %bb.0:                                # %entry
	pushq	%rbp
	.cfi_def_cfa_offset 16
	.cfi_offset %rbp, -16
	movq	%rsp, %rbp
	.cfi_def_cfa_register %rbp
	pushq	%rbx
	subq	$24, %rsp
	.cfi_offset %rbx, -24
	movl	$2106570632, -32(%rbp)  # imm = 0x7D8FB788
	movq	%rdi, -24(%rbp)
	movq	-24(%rbp), %rax
	cmpb	$0, 20(%rax)
	je	.LBB50_48
# %bb.1:                                # %if.then
	jmp	.LBB50_2
.LBB50_2:                               # %while.body
                                        # =>This Loop Header: Depth=1
                                        #     Child Loop BB50_3 Depth 2
	jmp	.LBB50_3
.LBB50_3:                               # %while.body2
                                        #   Parent Loop BB50_2 Depth=1
                                        # =>  This Inner Loop Header: Depth=2
	movq	-24(%rbp), %rax
	movq	(%rax), %rax
	cmpl	$0, 32(%rax)
	jne	.LBB50_5
# %bb.4:                                # %if.then3
	movb	$0, -25(%rbp)
	jmp	.LBB50_75
.LBB50_5:                               # %if.end
                                        #   in Loop: Header=BB50_3 Depth=2
	movq	-24(%rbp), %rax
	cmpl	$0, 16(%rax)
	jne	.LBB50_7
# %bb.6:                                # %if.then5
                                        #   in Loop: Header=BB50_2 Depth=1
	jmp	.LBB50_10
.LBB50_7:                               # %if.end6
                                        #   in Loop: Header=BB50_3 Depth=2
	movq	-24(%rbp), %rax
	movb	12(%rax), %al
	movq	-24(%rbp), %rcx
	movq	(%rcx), %rcx
	movq	24(%rcx), %rcx
	movb	%al, (%rcx)
	movq	-24(%rbp), %rax
	movl	3184(%rax), %eax
	shll	$8, %eax
	movq	-24(%rbp), %rcx
	movl	3184(%rcx), %ecx
	shrl	$24, %ecx
	movq	-24(%rbp), %rdx
	movzbl	12(%rdx), %edx
	xorl	%edx, %ecx
	movl	%ecx, %ecx
	xorl	BZ2_crc32Table(,%rcx,4), %eax
	movq	-24(%rbp), %rcx
	movl	%eax, 3184(%rcx)
	movq	-24(%rbp), %rax
	movl	16(%rax), %ecx
	addl	$-1, %ecx
	movl	%ecx, 16(%rax)
	movq	-24(%rbp), %rax
	movq	(%rax), %rax
	movq	24(%rax), %rcx
	addq	$1, %rcx
	movq	%rcx, 24(%rax)
	movq	-24(%rbp), %rax
	movq	(%rax), %rax
	movl	32(%rax), %ecx
	addl	$-1, %ecx
	movl	%ecx, 32(%rax)
	movq	-24(%rbp), %rax
	movq	(%rax), %rax
	movl	36(%rax), %ecx
	addl	$1, %ecx
	movl	%ecx, 36(%rax)
	movq	-24(%rbp), %rax
	movq	(%rax), %rax
	cmpl	$0, 36(%rax)
	jne	.LBB50_9
# %bb.8:                                # %if.then23
                                        #   in Loop: Header=BB50_3 Depth=2
	movq	-24(%rbp), %rax
	movq	(%rax), %rax
	movl	40(%rax), %ecx
	addl	$1, %ecx
	movl	%ecx, 40(%rax)
.LBB50_9:                               # %if.end26
                                        #   in Loop: Header=BB50_3 Depth=2
	jmp	.LBB50_3
.LBB50_10:                              # %while.end
                                        #   in Loop: Header=BB50_2 Depth=1
	movq	-24(%rbp), %rax
	movl	1092(%rax), %eax
	movq	-24(%rbp), %rcx
	movl	64080(%rcx), %ecx
	addl	$1, %ecx
	cmpl	%ecx, %eax
	jne	.LBB50_12
# %bb.11:                               # %if.then29
	movb	$0, -25(%rbp)
	jmp	.LBB50_75
.LBB50_12:                              # %if.end30
                                        #   in Loop: Header=BB50_2 Depth=1
	movq	-24(%rbp), %rax
	movl	1092(%rax), %eax
	movq	-24(%rbp), %rcx
	movl	64080(%rcx), %ecx
	addl	$1, %ecx
	cmpl	%ecx, %eax
	jle	.LBB50_14
# %bb.13:                               # %if.then36
	movb	$1, -25(%rbp)
	jmp	.LBB50_75
.LBB50_14:                              # %if.end37
                                        #   in Loop: Header=BB50_2 Depth=1
	movq	-24(%rbp), %rax
	movl	$1, 16(%rax)
	movq	-24(%rbp), %rax
	movl	64(%rax), %eax
	movq	-24(%rbp), %rcx
	movb	%al, 12(%rcx)
	movq	-24(%rbp), %rax
	movl	60(%rax), %edi
	movq	-24(%rbp), %rsi
	addq	$1096, %rsi             # imm = 0x448
	callq	BZ2_indexIntoF
	movb	%al, -9(%rbp)
	movq	-24(%rbp), %rax
	movq	3160(%rax), %rax
	movq	-24(%rbp), %rcx
	movl	60(%rcx), %ecx
	movzwl	(%rax,%rcx,2), %eax
	movq	-24(%rbp), %rcx
	movq	3168(%rcx), %rcx
	movq	-24(%rbp), %rdx
	movl	60(%rdx), %edx
	shrl	$1, %edx
	movl	%edx, %edx
	movzbl	(%rcx,%rdx), %edx
	movq	-24(%rbp), %rcx
	movl	60(%rcx), %ecx
	shll	$2, %ecx
	andl	$4, %ecx
                                        # kill: def $cl killed $ecx
	shrl	%cl, %edx
	andl	$15, %edx
	shll	$16, %edx
	orl	%edx, %eax
	movq	-24(%rbp), %rcx
	movl	%eax, 60(%rcx)
	movq	-24(%rbp), %rax
	cmpl	$0, 24(%rax)
	jne	.LBB50_18
# %bb.15:                               # %if.then59
                                        #   in Loop: Header=BB50_2 Depth=1
	movq	-24(%rbp), %rax
	movslq	28(%rax), %rax
	movl	BZ2_rNums(,%rax,4), %eax
	movq	-24(%rbp), %rcx
	movl	%eax, 24(%rcx)
	movq	-24(%rbp), %rax
	movl	28(%rax), %ecx
	addl	$1, %ecx
	movl	%ecx, 28(%rax)
	movq	-24(%rbp), %rax
	cmpl	$512, 28(%rax)          # imm = 0x200
	jne	.LBB50_17
# %bb.16:                               # %if.then68
                                        #   in Loop: Header=BB50_2 Depth=1
	movq	-24(%rbp), %rax
	movl	$0, 28(%rax)
.LBB50_17:                              # %if.end70
                                        #   in Loop: Header=BB50_2 Depth=1
	jmp	.LBB50_18
.LBB50_18:                              # %if.end71
                                        #   in Loop: Header=BB50_2 Depth=1
	xorl	%eax, %eax
	movq	-24(%rbp), %rcx
	movl	24(%rcx), %edx
	addl	$-1, %edx
	movl	%edx, 24(%rcx)
	movq	-24(%rbp), %rcx
	movl	24(%rcx), %ecx
	cmpl	$1, %ecx
	movl	$1, %ecx
	cmovel	%ecx, %eax
	movzbl	-9(%rbp), %ecx
	xorl	%eax, %ecx
	movb	%cl, -9(%rbp)
	movq	-24(%rbp), %rax
	movl	1092(%rax), %ecx
	addl	$1, %ecx
	movl	%ecx, 1092(%rax)
	movq	-24(%rbp), %rax
	movl	1092(%rax), %eax
	movq	-24(%rbp), %rcx
	movl	64080(%rcx), %ecx
	addl	$1, %ecx
	cmpl	%ecx, %eax
	jne	.LBB50_21
# %bb.19:                               # %if.then87
                                        #   in Loop: Header=BB50_2 Depth=1
	jmp	.LBB50_20
.LBB50_20:                              # %while.body.backedge
                                        #   in Loop: Header=BB50_2 Depth=1
	jmp	.LBB50_2
.LBB50_21:                              # %if.end88
                                        #   in Loop: Header=BB50_2 Depth=1
	movzbl	-9(%rbp), %eax
	movq	-24(%rbp), %rcx
	cmpl	64(%rcx), %eax
	je	.LBB50_23
# %bb.22:                               # %if.then93
                                        #   in Loop: Header=BB50_2 Depth=1
	movzbl	-9(%rbp), %eax
	movq	-24(%rbp), %rcx
	movl	%eax, 64(%rcx)
	jmp	.LBB50_20
.LBB50_23:                              # %if.end96
                                        #   in Loop: Header=BB50_2 Depth=1
	movq	-24(%rbp), %rax
	movl	$2, 16(%rax)
	movq	-24(%rbp), %rax
	movl	60(%rax), %edi
	movq	-24(%rbp), %rsi
	addq	$1096, %rsi             # imm = 0x448
	callq	BZ2_indexIntoF
	movb	%al, -9(%rbp)
	movq	-24(%rbp), %rax
	movq	3160(%rax), %rax
	movq	-24(%rbp), %rcx
	movl	60(%rcx), %ecx
	movzwl	(%rax,%rcx,2), %eax
	movq	-24(%rbp), %rcx
	movq	3168(%rcx), %rcx
	movq	-24(%rbp), %rdx
	movl	60(%rdx), %edx
	shrl	$1, %edx
	movl	%edx, %edx
	movzbl	(%rcx,%rdx), %edx
	movq	-24(%rbp), %rcx
	movl	60(%rcx), %ecx
	shll	$2, %ecx
	andl	$4, %ecx
                                        # kill: def $cl killed $ecx
	shrl	%cl, %edx
	andl	$15, %edx
	shll	$16, %edx
	orl	%edx, %eax
	movq	-24(%rbp), %rcx
	movl	%eax, 60(%rcx)
	movq	-24(%rbp), %rax
	cmpl	$0, 24(%rax)
	jne	.LBB50_27
# %bb.24:                               # %if.then125
                                        #   in Loop: Header=BB50_2 Depth=1
	movq	-24(%rbp), %rax
	movslq	28(%rax), %rax
	movl	BZ2_rNums(,%rax,4), %eax
	movq	-24(%rbp), %rcx
	movl	%eax, 24(%rcx)
	movq	-24(%rbp), %rax
	movl	28(%rax), %ecx
	addl	$1, %ecx
	movl	%ecx, 28(%rax)
	movq	-24(%rbp), %rax
	cmpl	$512, 28(%rax)          # imm = 0x200
	jne	.LBB50_26
# %bb.25:                               # %if.then135
                                        #   in Loop: Header=BB50_2 Depth=1
	movq	-24(%rbp), %rax
	movl	$0, 28(%rax)
.LBB50_26:                              # %if.end137
                                        #   in Loop: Header=BB50_2 Depth=1
	jmp	.LBB50_27
.LBB50_27:                              # %if.end138
                                        #   in Loop: Header=BB50_2 Depth=1
	xorl	%eax, %eax
	movq	-24(%rbp), %rcx
	movl	24(%rcx), %edx
	addl	$-1, %edx
	movl	%edx, 24(%rcx)
	movq	-24(%rbp), %rcx
	movl	24(%rcx), %ecx
	cmpl	$1, %ecx
	movl	$1, %ecx
	cmovel	%ecx, %eax
	movzbl	-9(%rbp), %ecx
	xorl	%eax, %ecx
	movb	%cl, -9(%rbp)
	movq	-24(%rbp), %rax
	movl	1092(%rax), %ecx
	addl	$1, %ecx
	movl	%ecx, 1092(%rax)
	movq	-24(%rbp), %rax
	movl	1092(%rax), %eax
	movq	-24(%rbp), %rcx
	movl	64080(%rcx), %ecx
	addl	$1, %ecx
	cmpl	%ecx, %eax
	jne	.LBB50_29
# %bb.28:                               # %if.then155
                                        #   in Loop: Header=BB50_2 Depth=1
	jmp	.LBB50_20
.LBB50_29:                              # %if.end156
                                        #   in Loop: Header=BB50_2 Depth=1
	movzbl	-9(%rbp), %eax
	movq	-24(%rbp), %rcx
	cmpl	64(%rcx), %eax
	je	.LBB50_31
# %bb.30:                               # %if.then161
                                        #   in Loop: Header=BB50_2 Depth=1
	movzbl	-9(%rbp), %eax
	movq	-24(%rbp), %rcx
	movl	%eax, 64(%rcx)
	jmp	.LBB50_20
.LBB50_31:                              # %if.end164
                                        #   in Loop: Header=BB50_2 Depth=1
	movq	-24(%rbp), %rax
	movl	$3, 16(%rax)
	movq	-24(%rbp), %rax
	movl	60(%rax), %edi
	movq	-24(%rbp), %rsi
	addq	$1096, %rsi             # imm = 0x448
	callq	BZ2_indexIntoF
	movb	%al, -9(%rbp)
	movq	-24(%rbp), %rax
	movq	3160(%rax), %rax
	movq	-24(%rbp), %rcx
	movl	60(%rcx), %ecx
	movzwl	(%rax,%rcx,2), %eax
	movq	-24(%rbp), %rcx
	movq	3168(%rcx), %rcx
	movq	-24(%rbp), %rdx
	movl	60(%rdx), %edx
	shrl	$1, %edx
	movl	%edx, %edx
	movzbl	(%rcx,%rdx), %edx
	movq	-24(%rbp), %rcx
	movl	60(%rcx), %ecx
	shll	$2, %ecx
	andl	$4, %ecx
                                        # kill: def $cl killed $ecx
	shrl	%cl, %edx
	andl	$15, %edx
	shll	$16, %edx
	orl	%edx, %eax
	movq	-24(%rbp), %rcx
	movl	%eax, 60(%rcx)
	movq	-24(%rbp), %rax
	cmpl	$0, 24(%rax)
	jne	.LBB50_35
# %bb.32:                               # %if.then193
                                        #   in Loop: Header=BB50_2 Depth=1
	movq	-24(%rbp), %rax
	movslq	28(%rax), %rax
	movl	BZ2_rNums(,%rax,4), %eax
	movq	-24(%rbp), %rcx
	movl	%eax, 24(%rcx)
	movq	-24(%rbp), %rax
	movl	28(%rax), %ecx
	addl	$1, %ecx
	movl	%ecx, 28(%rax)
	movq	-24(%rbp), %rax
	cmpl	$512, 28(%rax)          # imm = 0x200
	jne	.LBB50_34
# %bb.33:                               # %if.then203
                                        #   in Loop: Header=BB50_2 Depth=1
	movq	-24(%rbp), %rax
	movl	$0, 28(%rax)
.LBB50_34:                              # %if.end205
                                        #   in Loop: Header=BB50_2 Depth=1
	jmp	.LBB50_35
.LBB50_35:                              # %if.end206
                                        #   in Loop: Header=BB50_2 Depth=1
	xorl	%eax, %eax
	movq	-24(%rbp), %rcx
	movl	24(%rcx), %edx
	addl	$-1, %edx
	movl	%edx, 24(%rcx)
	movq	-24(%rbp), %rcx
	movl	24(%rcx), %ecx
	cmpl	$1, %ecx
	movl	$1, %ecx
	cmovel	%ecx, %eax
	movzbl	-9(%rbp), %ecx
	xorl	%eax, %ecx
	movb	%cl, -9(%rbp)
	movq	-24(%rbp), %rax
	movl	1092(%rax), %ecx
	addl	$1, %ecx
	movl	%ecx, 1092(%rax)
	movq	-24(%rbp), %rax
	movl	1092(%rax), %eax
	movq	-24(%rbp), %rcx
	movl	64080(%rcx), %ecx
	addl	$1, %ecx
	cmpl	%ecx, %eax
	jne	.LBB50_37
# %bb.36:                               # %if.then223
                                        #   in Loop: Header=BB50_2 Depth=1
	jmp	.LBB50_20
.LBB50_37:                              # %if.end224
                                        #   in Loop: Header=BB50_2 Depth=1
	movzbl	-9(%rbp), %eax
	movq	-24(%rbp), %rcx
	cmpl	64(%rcx), %eax
	je	.LBB50_39
# %bb.38:                               # %if.then229
                                        #   in Loop: Header=BB50_2 Depth=1
	movzbl	-9(%rbp), %eax
	movq	-24(%rbp), %rcx
	movl	%eax, 64(%rcx)
	jmp	.LBB50_20
.LBB50_39:                              # %if.end232
                                        #   in Loop: Header=BB50_2 Depth=1
	movq	-24(%rbp), %rax
	movl	60(%rax), %edi
	movq	-24(%rbp), %rsi
	addq	$1096, %rsi             # imm = 0x448
	callq	BZ2_indexIntoF
	movb	%al, -9(%rbp)
	movq	-24(%rbp), %rax
	movq	3160(%rax), %rax
	movq	-24(%rbp), %rcx
	movl	60(%rcx), %ecx
	movzwl	(%rax,%rcx,2), %eax
	movq	-24(%rbp), %rcx
	movq	3168(%rcx), %rcx
	movq	-24(%rbp), %rdx
	movl	60(%rdx), %edx
	shrl	$1, %edx
	movl	%edx, %edx
	movzbl	(%rcx,%rdx), %edx
	movq	-24(%rbp), %rcx
	movl	60(%rcx), %ecx
	shll	$2, %ecx
	andl	$4, %ecx
                                        # kill: def $cl killed $ecx
	shrl	%cl, %edx
	andl	$15, %edx
	shll	$16, %edx
	orl	%edx, %eax
	movq	-24(%rbp), %rcx
	movl	%eax, 60(%rcx)
	movq	-24(%rbp), %rax
	cmpl	$0, 24(%rax)
	jne	.LBB50_43
# %bb.40:                               # %if.then260
                                        #   in Loop: Header=BB50_2 Depth=1
	movq	-24(%rbp), %rax
	movslq	28(%rax), %rax
	movl	BZ2_rNums(,%rax,4), %eax
	movq	-24(%rbp), %rcx
	movl	%eax, 24(%rcx)
	movq	-24(%rbp), %rax
	movl	28(%rax), %ecx
	addl	$1, %ecx
	movl	%ecx, 28(%rax)
	movq	-24(%rbp), %rax
	cmpl	$512, 28(%rax)          # imm = 0x200
	jne	.LBB50_42
# %bb.41:                               # %if.then270
                                        #   in Loop: Header=BB50_2 Depth=1
	movq	-24(%rbp), %rax
	movl	$0, 28(%rax)
.LBB50_42:                              # %if.end272
                                        #   in Loop: Header=BB50_2 Depth=1
	jmp	.LBB50_43
.LBB50_43:                              # %if.end273
                                        #   in Loop: Header=BB50_2 Depth=1
	xorl	%eax, %eax
	movq	-24(%rbp), %rcx
	movl	24(%rcx), %edx
	addl	$-1, %edx
	movl	%edx, 24(%rcx)
	movq	-24(%rbp), %rcx
	movl	24(%rcx), %ecx
	cmpl	$1, %ecx
	movl	$1, %ecx
	cmovel	%ecx, %eax
	movzbl	-9(%rbp), %ecx
	xorl	%eax, %ecx
	movb	%cl, -9(%rbp)
	movq	-24(%rbp), %rax
	movl	1092(%rax), %ecx
	addl	$1, %ecx
	movl	%ecx, 1092(%rax)
	movzbl	-9(%rbp), %eax
	addl	$4, %eax
	movq	-24(%rbp), %rcx
	movl	%eax, 16(%rcx)
	movq	-24(%rbp), %rax
	movl	60(%rax), %edi
	movq	-24(%rbp), %rsi
	addq	$1096, %rsi             # imm = 0x448
	callq	BZ2_indexIntoF
	movq	-24(%rbp), %rcx
	movl	%eax, 64(%rcx)
	movq	-24(%rbp), %rax
	movq	3160(%rax), %rax
	movq	-24(%rbp), %rcx
	movl	60(%rcx), %ecx
	movzwl	(%rax,%rcx,2), %eax
	movq	-24(%rbp), %rcx
	movq	3168(%rcx), %rcx
	movq	-24(%rbp), %rdx
	movl	60(%rdx), %edx
	shrl	$1, %edx
	movl	%edx, %edx
	movzbl	(%rcx,%rdx), %edx
	movq	-24(%rbp), %rcx
	movl	60(%rcx), %ecx
	shll	$2, %ecx
	andl	$4, %ecx
                                        # kill: def $cl killed $ecx
	shrl	%cl, %edx
	andl	$15, %edx
	shll	$16, %edx
	orl	%edx, %eax
	movq	-24(%rbp), %rcx
	movl	%eax, 60(%rcx)
	movq	-24(%rbp), %rax
	cmpl	$0, 24(%rax)
	jne	.LBB50_47
# %bb.44:                               # %if.then315
                                        #   in Loop: Header=BB50_2 Depth=1
	movq	-24(%rbp), %rax
	movslq	28(%rax), %rax
	movl	BZ2_rNums(,%rax,4), %eax
	movq	-24(%rbp), %rcx
	movl	%eax, 24(%rcx)
	movq	-24(%rbp), %rax
	movl	28(%rax), %ecx
	addl	$1, %ecx
	movl	%ecx, 28(%rax)
	movq	-24(%rbp), %rax
	cmpl	$512, 28(%rax)          # imm = 0x200
	jne	.LBB50_46
# %bb.45:                               # %if.then325
                                        #   in Loop: Header=BB50_2 Depth=1
	movq	-24(%rbp), %rax
	movl	$0, 28(%rax)
.LBB50_46:                              # %if.end327
                                        #   in Loop: Header=BB50_2 Depth=1
	jmp	.LBB50_47
.LBB50_47:                              # %if.end328
                                        #   in Loop: Header=BB50_2 Depth=1
	xorl	%eax, %eax
	movq	-24(%rbp), %rcx
	movl	24(%rcx), %edx
	addl	$-1, %edx
	movl	%edx, 24(%rcx)
	movq	-24(%rbp), %rcx
	movl	24(%rcx), %ecx
	cmpl	$1, %ecx
	movl	$1, %ecx
	cmovel	%ecx, %eax
	movq	-24(%rbp), %rcx
	xorl	64(%rcx), %eax
	movl	%eax, 64(%rcx)
	movq	-24(%rbp), %rax
	movl	1092(%rax), %ecx
	addl	$1, %ecx
	movl	%ecx, 1092(%rax)
	jmp	.LBB50_20
.LBB50_48:                              # %if.else
	jmp	.LBB50_49
.LBB50_49:                              # %while.body339
                                        # =>This Loop Header: Depth=1
                                        #     Child Loop BB50_50 Depth 2
	jmp	.LBB50_50
.LBB50_50:                              # %while.body341
                                        #   Parent Loop BB50_49 Depth=1
                                        # =>  This Inner Loop Header: Depth=2
	movq	-24(%rbp), %rax
	movq	(%rax), %rax
	cmpl	$0, 32(%rax)
	jne	.LBB50_52
# %bb.51:                               # %if.then346
	movb	$0, -25(%rbp)
	jmp	.LBB50_75
.LBB50_52:                              # %if.end347
                                        #   in Loop: Header=BB50_50 Depth=2
	movq	-24(%rbp), %rax
	cmpl	$0, 16(%rax)
	jne	.LBB50_54
# %bb.53:                               # %if.then351
                                        #   in Loop: Header=BB50_49 Depth=1
	jmp	.LBB50_57
.LBB50_54:                              # %if.end352
                                        #   in Loop: Header=BB50_50 Depth=2
	movq	-24(%rbp), %rax
	movb	12(%rax), %al
	movq	-24(%rbp), %rcx
	movq	(%rcx), %rcx
	movq	24(%rcx), %rcx
	movb	%al, (%rcx)
	movq	-24(%rbp), %rax
	movl	3184(%rax), %eax
	shll	$8, %eax
	movq	-24(%rbp), %rcx
	movl	3184(%rcx), %ecx
	shrl	$24, %ecx
	movq	-24(%rbp), %rdx
	movzbl	12(%rdx), %edx
	xorl	%edx, %ecx
	movl	%ecx, %ecx
	xorl	BZ2_crc32Table(,%rcx,4), %eax
	movq	-24(%rbp), %rcx
	movl	%eax, 3184(%rcx)
	movq	-24(%rbp), %rax
	movl	16(%rax), %ecx
	addl	$-1, %ecx
	movl	%ecx, 16(%rax)
	movq	-24(%rbp), %rax
	movq	(%rax), %rax
	movq	24(%rax), %rcx
	addq	$1, %rcx
	movq	%rcx, 24(%rax)
	movq	-24(%rbp), %rax
	movq	(%rax), %rax
	movl	32(%rax), %ecx
	addl	$-1, %ecx
	movl	%ecx, 32(%rax)
	movq	-24(%rbp), %rax
	movq	(%rax), %rax
	movl	36(%rax), %ecx
	addl	$1, %ecx
	movl	%ecx, 36(%rax)
	movq	-24(%rbp), %rax
	movq	(%rax), %rax
	cmpl	$0, 36(%rax)
	jne	.LBB50_56
# %bb.55:                               # %if.then382
                                        #   in Loop: Header=BB50_50 Depth=2
	movq	-24(%rbp), %rax
	movq	(%rax), %rax
	movl	40(%rax), %ecx
	addl	$1, %ecx
	movl	%ecx, 40(%rax)
.LBB50_56:                              # %if.end386
                                        #   in Loop: Header=BB50_50 Depth=2
	jmp	.LBB50_50
.LBB50_57:                              # %while.end387
                                        #   in Loop: Header=BB50_49 Depth=1
	movq	-24(%rbp), %rax
	movl	1092(%rax), %eax
	movq	-24(%rbp), %rcx
	movl	64080(%rcx), %ecx
	addl	$1, %ecx
	cmpl	%ecx, %eax
	jne	.LBB50_59
# %bb.58:                               # %if.then393
	movb	$0, -25(%rbp)
	jmp	.LBB50_75
.LBB50_59:                              # %if.end394
                                        #   in Loop: Header=BB50_49 Depth=1
	movq	-24(%rbp), %rax
	movl	1092(%rax), %eax
	movq	-24(%rbp), %rcx
	movl	64080(%rcx), %ecx
	addl	$1, %ecx
	cmpl	%ecx, %eax
	jle	.LBB50_61
# %bb.60:                               # %if.then400
	movb	$1, -25(%rbp)
	jmp	.LBB50_75
.LBB50_61:                              # %if.end401
                                        #   in Loop: Header=BB50_49 Depth=1
	movq	-24(%rbp), %rax
	movl	$1, 16(%rax)
	movq	-24(%rbp), %rax
	movl	64(%rax), %eax
	movq	-24(%rbp), %rcx
	movb	%al, 12(%rcx)
	movq	-24(%rbp), %rax
	movl	60(%rax), %edi
	movq	-24(%rbp), %rsi
	addq	$1096, %rsi             # imm = 0x448
	callq	BZ2_indexIntoF
	movb	%al, -9(%rbp)
	movq	-24(%rbp), %rax
	movq	3160(%rax), %rax
	movq	-24(%rbp), %rcx
	movl	60(%rcx), %ecx
	movzwl	(%rax,%rcx,2), %eax
	movq	-24(%rbp), %rcx
	movq	3168(%rcx), %rcx
	movq	-24(%rbp), %rdx
	movl	60(%rdx), %edx
	shrl	$1, %edx
	movl	%edx, %edx
	movzbl	(%rcx,%rdx), %edx
	movq	-24(%rbp), %rcx
	movl	60(%rcx), %ecx
	shll	$2, %ecx
	andl	$4, %ecx
                                        # kill: def $cl killed $ecx
	shrl	%cl, %edx
	andl	$15, %edx
	shll	$16, %edx
	orl	%edx, %eax
	movq	-24(%rbp), %rcx
	movl	%eax, 60(%rcx)
	movq	-24(%rbp), %rax
	movl	1092(%rax), %ecx
	addl	$1, %ecx
	movl	%ecx, 1092(%rax)
	movq	-24(%rbp), %rax
	movl	1092(%rax), %eax
	movq	-24(%rbp), %rcx
	movl	64080(%rcx), %ecx
	addl	$1, %ecx
	cmpl	%ecx, %eax
	jne	.LBB50_64
# %bb.62:                               # %if.then437
                                        #   in Loop: Header=BB50_49 Depth=1
	jmp	.LBB50_63
.LBB50_63:                              # %while.body339.backedge
                                        #   in Loop: Header=BB50_49 Depth=1
	jmp	.LBB50_49
.LBB50_64:                              # %if.end438
                                        #   in Loop: Header=BB50_49 Depth=1
	movzbl	-9(%rbp), %eax
	movq	-24(%rbp), %rcx
	cmpl	64(%rcx), %eax
	je	.LBB50_66
# %bb.65:                               # %if.then443
                                        #   in Loop: Header=BB50_49 Depth=1
	movzbl	-9(%rbp), %eax
	movq	-24(%rbp), %rcx
	movl	%eax, 64(%rcx)
	jmp	.LBB50_63
.LBB50_66:                              # %if.end446
                                        #   in Loop: Header=BB50_49 Depth=1
	movq	-24(%rbp), %rax
	movl	$2, 16(%rax)
	movq	-24(%rbp), %rax
	movl	60(%rax), %edi
	movq	-24(%rbp), %rsi
	addq	$1096, %rsi             # imm = 0x448
	callq	BZ2_indexIntoF
	movb	%al, -9(%rbp)
	movq	-24(%rbp), %rax
	movq	3160(%rax), %rax
	movq	-24(%rbp), %rcx
	movl	60(%rcx), %ecx
	movzwl	(%rax,%rcx,2), %eax
	movq	-24(%rbp), %rcx
	movq	3168(%rcx), %rcx
	movq	-24(%rbp), %rdx
	movl	60(%rdx), %edx
	shrl	$1, %edx
	movl	%edx, %edx
	movzbl	(%rcx,%rdx), %edx
	movq	-24(%rbp), %rcx
	movl	60(%rcx), %ecx
	shll	$2, %ecx
	andl	$4, %ecx
                                        # kill: def $cl killed $ecx
	shrl	%cl, %edx
	andl	$15, %edx
	shll	$16, %edx
	orl	%edx, %eax
	movq	-24(%rbp), %rcx
	movl	%eax, 60(%rcx)
	movq	-24(%rbp), %rax
	movl	1092(%rax), %ecx
	addl	$1, %ecx
	movl	%ecx, 1092(%rax)
	movq	-24(%rbp), %rax
	movl	1092(%rax), %eax
	movq	-24(%rbp), %rcx
	movl	64080(%rcx), %ecx
	addl	$1, %ecx
	cmpl	%ecx, %eax
	jne	.LBB50_68
# %bb.67:                               # %if.then479
                                        #   in Loop: Header=BB50_49 Depth=1
	jmp	.LBB50_63
.LBB50_68:                              # %if.end480
                                        #   in Loop: Header=BB50_49 Depth=1
	movzbl	-9(%rbp), %eax
	movq	-24(%rbp), %rcx
	cmpl	64(%rcx), %eax
	je	.LBB50_70
# %bb.69:                               # %if.then485
                                        #   in Loop: Header=BB50_49 Depth=1
	movzbl	-9(%rbp), %eax
	movq	-24(%rbp), %rcx
	movl	%eax, 64(%rcx)
	jmp	.LBB50_63
.LBB50_70:                              # %if.end488
                                        #   in Loop: Header=BB50_49 Depth=1
	movq	-24(%rbp), %rax
	movl	$3, 16(%rax)
	movq	-24(%rbp), %rax
	movl	60(%rax), %edi
	movq	-24(%rbp), %rsi
	addq	$1096, %rsi             # imm = 0x448
	callq	BZ2_indexIntoF
	movb	%al, -9(%rbp)
	movq	-24(%rbp), %rax
	movq	3160(%rax), %rax
	movq	-24(%rbp), %rcx
	movl	60(%rcx), %ecx
	movzwl	(%rax,%rcx,2), %eax
	movq	-24(%rbp), %rcx
	movq	3168(%rcx), %rcx
	movq	-24(%rbp), %rdx
	movl	60(%rdx), %edx
	shrl	$1, %edx
	movl	%edx, %edx
	movzbl	(%rcx,%rdx), %edx
	movq	-24(%rbp), %rcx
	movl	60(%rcx), %ecx
	shll	$2, %ecx
	andl	$4, %ecx
                                        # kill: def $cl killed $ecx
	shrl	%cl, %edx
	andl	$15, %edx
	shll	$16, %edx
	orl	%edx, %eax
	movq	-24(%rbp), %rcx
	movl	%eax, 60(%rcx)
	movq	-24(%rbp), %rax
	movl	1092(%rax), %ecx
	addl	$1, %ecx
	movl	%ecx, 1092(%rax)
	movq	-24(%rbp), %rax
	movl	1092(%rax), %eax
	movq	-24(%rbp), %rcx
	movl	64080(%rcx), %ecx
	addl	$1, %ecx
	cmpl	%ecx, %eax
	jne	.LBB50_72
# %bb.71:                               # %if.then521
                                        #   in Loop: Header=BB50_49 Depth=1
	jmp	.LBB50_63
.LBB50_72:                              # %if.end522
                                        #   in Loop: Header=BB50_49 Depth=1
	movzbl	-9(%rbp), %eax
	movq	-24(%rbp), %rcx
	cmpl	64(%rcx), %eax
	je	.LBB50_74
# %bb.73:                               # %if.then527
                                        #   in Loop: Header=BB50_49 Depth=1
	movzbl	-9(%rbp), %eax
	movq	-24(%rbp), %rcx
	movl	%eax, 64(%rcx)
	jmp	.LBB50_63
.LBB50_74:                              # %if.end530
                                        #   in Loop: Header=BB50_49 Depth=1
	movq	-24(%rbp), %rax
	movl	60(%rax), %edi
	movq	-24(%rbp), %rsi
	addq	$1096, %rsi             # imm = 0x448
	callq	BZ2_indexIntoF
	movb	%al, -9(%rbp)
	movq	-24(%rbp), %rax
	movq	3160(%rax), %rax
	movq	-24(%rbp), %rcx
	movl	60(%rcx), %ecx
	movzwl	(%rax,%rcx,2), %eax
	movq	-24(%rbp), %rcx
	movq	3168(%rcx), %rcx
	movq	-24(%rbp), %rdx
	movl	60(%rdx), %edx
	shrl	$1, %edx
	movl	%edx, %edx
	movzbl	(%rcx,%rdx), %edx
	movq	-24(%rbp), %rcx
	movl	60(%rcx), %ecx
	shll	$2, %ecx
	andl	$4, %ecx
                                        # kill: def $cl killed $ecx
	shrl	%cl, %edx
	andl	$15, %edx
	shll	$16, %edx
	orl	%edx, %eax
	movq	-24(%rbp), %rcx
	movl	%eax, 60(%rcx)
	movq	-24(%rbp), %rax
	movl	1092(%rax), %ecx
	addl	$1, %ecx
	movl	%ecx, 1092(%rax)
	movzbl	-9(%rbp), %eax
	addl	$4, %eax
	movq	-24(%rbp), %rcx
	movl	%eax, 16(%rcx)
	movq	-24(%rbp), %rax
	movl	60(%rax), %edi
	movq	-24(%rbp), %rsi
	addq	$1096, %rsi             # imm = 0x448
	callq	BZ2_indexIntoF
	movq	-24(%rbp), %rcx
	movl	%eax, 64(%rcx)
	movq	-24(%rbp), %rax
	movq	3160(%rax), %rax
	movq	-24(%rbp), %rcx
	movl	60(%rcx), %ecx
	movzwl	(%rax,%rcx,2), %eax
	movq	-24(%rbp), %rcx
	movq	3168(%rcx), %rcx
	movq	-24(%rbp), %rdx
	movl	60(%rdx), %edx
	shrl	$1, %edx
	movl	%edx, %edx
	movzbl	(%rcx,%rdx), %edx
	movq	-24(%rbp), %rcx
	movl	60(%rcx), %ecx
	shll	$2, %ecx
	andl	$4, %ecx
                                        # kill: def $cl killed $ecx
	shrl	%cl, %edx
	andl	$15, %edx
	shll	$16, %edx
	orl	%edx, %eax
	movq	-24(%rbp), %rcx
	movl	%eax, 60(%rcx)
	movq	-24(%rbp), %rax
	movl	1092(%rax), %ecx
	addl	$1, %ecx
	movl	%ecx, 1092(%rax)
	jmp	.LBB50_63
.LBB50_75:                              # %return
	movb	-25(%rbp), %bl
	cmpl	$2106570632, -32(%rbp)  # imm = 0x7D8FB788
	jne	.LBB50_77
.LBB50_76:
	movzbl	%bl, %eax
	addq	$24, %rsp
	popq	%rbx
	popq	%rbp
	.cfi_def_cfa %rsp, 8
	retq
.LBB50_77:                              # %func_exit
	.cfi_def_cfa %rbp, 16
	callq	detect_breach
	jmp	.LBB50_76
.Lfunc_end50:
	.size	unRLE_obuf_to_output_SMALL.10, .Lfunc_end50-unRLE_obuf_to_output_SMALL.10
	.cfi_endproc
                                        # -- End function
	.globl	BZ2_bzReadGetUnused.11  # -- Begin function BZ2_bzReadGetUnused.11
	.p2align	4, 0x90
	.type	BZ2_bzReadGetUnused.11,@function
BZ2_bzReadGetUnused.11:                 # @BZ2_bzReadGetUnused.11
	.cfi_startproc
# %bb.0:                                # %entry
	pushq	%rbp
	.cfi_def_cfa_offset 16
	.cfi_offset %rbp, -16
	movq	%rsp, %rbp
	.cfi_def_cfa_register %rbp
	subq	$48, %rsp
	movl	$1284499835, -20(%rbp)  # imm = 0x4C8FE97B
	movq	%rdi, -16(%rbp)
	movq	%rsi, -48(%rbp)
	movq	%rdx, -32(%rbp)
	movq	%rcx, -40(%rbp)
	movq	-48(%rbp), %rax
	movq	%rax, -8(%rbp)
	cmpq	$0, -8(%rbp)
	jne	.LBB51_6
# %bb.1:                                # %if.then
	cmpq	$0, -16(%rbp)
	je	.LBB51_3
# %bb.2:                                # %if.then2
	movq	-16(%rbp), %rax
	movl	$-2, (%rax)
.LBB51_3:                               # %if.end
	cmpq	$0, -8(%rbp)
	je	.LBB51_5
# %bb.4:                                # %if.then4
	movq	-8(%rbp), %rax
	movl	$-2, 5096(%rax)
.LBB51_5:                               # %if.end5
	jmp	.LBB51_24
.LBB51_6:                               # %if.end6
	movq	-8(%rbp), %rax
	cmpl	$4, 5096(%rax)
	je	.LBB51_12
# %bb.7:                                # %if.then9
	cmpq	$0, -16(%rbp)
	je	.LBB51_9
# %bb.8:                                # %if.then11
	movq	-16(%rbp), %rax
	movl	$-1, (%rax)
.LBB51_9:                               # %if.end12
	cmpq	$0, -8(%rbp)
	je	.LBB51_11
# %bb.10:                               # %if.then14
	movq	-8(%rbp), %rax
	movl	$-1, 5096(%rax)
.LBB51_11:                              # %if.end16
	jmp	.LBB51_24
.LBB51_12:                              # %if.end17
	cmpq	$0, -32(%rbp)
	je	.LBB51_14
# %bb.13:                               # %lor.lhs.false
	cmpq	$0, -40(%rbp)
	jne	.LBB51_19
.LBB51_14:                              # %if.then20
	cmpq	$0, -16(%rbp)
	je	.LBB51_16
# %bb.15:                               # %if.then22
	movq	-16(%rbp), %rax
	movl	$-2, (%rax)
.LBB51_16:                              # %if.end23
	cmpq	$0, -8(%rbp)
	je	.LBB51_18
# %bb.17:                               # %if.then25
	movq	-8(%rbp), %rax
	movl	$-2, 5096(%rax)
.LBB51_18:                              # %if.end27
	jmp	.LBB51_24
.LBB51_19:                              # %if.end28
	cmpq	$0, -16(%rbp)
	je	.LBB51_21
# %bb.20:                               # %if.then30
	movq	-16(%rbp), %rax
	movl	$0, (%rax)
.LBB51_21:                              # %if.end31
	cmpq	$0, -8(%rbp)
	je	.LBB51_23
# %bb.22:                               # %if.then33
	movq	-8(%rbp), %rax
	movl	$0, 5096(%rax)
.LBB51_23:                              # %if.end35
	movq	-8(%rbp), %rax
	movl	5024(%rax), %eax
	movq	-40(%rbp), %rcx
	movl	%eax, (%rcx)
	movq	-8(%rbp), %rax
	movq	5016(%rax), %rax
	movq	-32(%rbp), %rcx
	movq	%rax, (%rcx)
.LBB51_24:                              # %return
	cmpl	$1284499835, -20(%rbp)  # imm = 0x4C8FE97B
	jne	.LBB51_26
.LBB51_25:
	addq	$48, %rsp
	popq	%rbp
	.cfi_def_cfa %rsp, 8
	retq
.LBB51_26:                              # %func_exit
	.cfi_def_cfa %rbp, 16
	callq	detect_breach
	jmp	.LBB51_25
.Lfunc_end51:
	.size	BZ2_bzReadGetUnused.11, .Lfunc_end51-BZ2_bzReadGetUnused.11
	.cfi_endproc
                                        # -- End function
	.globl	BZ2_bzclose.12          # -- Begin function BZ2_bzclose.12
	.p2align	4, 0x90
	.type	BZ2_bzclose.12,@function
BZ2_bzclose.12:                         # @BZ2_bzclose.12
	.cfi_startproc
# %bb.0:                                # %entry
	pushq	%rbp
	.cfi_def_cfa_offset 16
	.cfi_offset %rbp, -16
	movq	%rsp, %rbp
	.cfi_def_cfa_register %rbp
	subq	$32, %rsp
	movl	$1434076280, -28(%rbp)  # imm = 0x557A4478
	movq	%rdi, -8(%rbp)
	movq	-8(%rbp), %rax
	movq	(%rax), %rax
	movq	%rax, -24(%rbp)
	cmpq	$0, -8(%rbp)
	jne	.LBB52_2
# %bb.1:                                # %if.then
	jmp	.LBB52_10
.LBB52_2:                               # %if.end
	movq	-8(%rbp), %rax
	cmpb	$0, 5012(%rax)
	je	.LBB52_6
# %bb.3:                                # %if.then1
	movq	-8(%rbp), %rsi
	leaq	-12(%rbp), %rdi
	xorl	%edx, %edx
	xorl	%ecx, %ecx
	xorl	%r8d, %r8d
	callq	BZ2_bzWriteClose
	cmpl	$0, -12(%rbp)
	je	.LBB52_5
# %bb.4:                                # %if.then3
	movq	-8(%rbp), %rsi
	xorl	%edi, %edi
	movl	$1, %edx
	xorl	%ecx, %ecx
	xorl	%r8d, %r8d
	callq	BZ2_bzWriteClose
.LBB52_5:                               # %if.end4
	jmp	.LBB52_7
.LBB52_6:                               # %if.else
	movq	-8(%rbp), %rsi
	leaq	-12(%rbp), %rdi
	callq	BZ2_bzReadClose
.LBB52_7:                               # %if.end5
	movq	-24(%rbp), %rax
	cmpq	stdin, %rax
	je	.LBB52_10
# %bb.8:                                # %land.lhs.true
	movq	-24(%rbp), %rax
	cmpq	stdout, %rax
	je	.LBB52_10
# %bb.9:                                # %if.then8
	movq	-24(%rbp), %rdi
	callq	fclose
.LBB52_10:                              # %if.end9
	cmpl	$1434076280, -28(%rbp)  # imm = 0x557A4478
	jne	.LBB52_12
.LBB52_11:
	addq	$32, %rsp
	popq	%rbp
	.cfi_def_cfa %rsp, 8
	retq
.LBB52_12:                              # %func_exit
	.cfi_def_cfa %rbp, 16
	callq	detect_breach
	jmp	.LBB52_11
.Lfunc_end52:
	.size	BZ2_bzclose.12, .Lfunc_end52-BZ2_bzclose.12
	.cfi_endproc
                                        # -- End function
	.globl	BZ2_bzCompressInit.13   # -- Begin function BZ2_bzCompressInit.13
	.p2align	4, 0x90
	.type	BZ2_bzCompressInit.13,@function
BZ2_bzCompressInit.13:                  # @BZ2_bzCompressInit.13
	.cfi_startproc
# %bb.0:                                # %entry
	pushq	%rbp
	.cfi_def_cfa_offset 16
	.cfi_offset %rbp, -16
	movq	%rsp, %rbp
	.cfi_def_cfa_register %rbp
	pushq	%rbx
	subq	$40, %rsp
	.cfi_offset %rbx, -24
	movl	$1206509879, -44(%rbp)  # imm = 0x47E9E137
	movq	%rdi, -24(%rbp)
	movl	%esi, -28(%rbp)
	movl	%edx, -48(%rbp)
	movl	%ecx, -36(%rbp)
	callq	bz_config_ok
	cmpl	$0, %eax
	jne	.LBB53_2
# %bb.1:                                # %if.then
	movl	$-9, -32(%rbp)
	jmp	.LBB53_29
.LBB53_2:                               # %if.end
	cmpq	$0, -24(%rbp)
	je	.LBB53_7
# %bb.3:                                # %lor.lhs.false
	cmpl	$1, -28(%rbp)
	jl	.LBB53_7
# %bb.4:                                # %lor.lhs.false2
	cmpl	$9, -28(%rbp)
	jg	.LBB53_7
# %bb.5:                                # %lor.lhs.false4
	cmpl	$0, -36(%rbp)
	jl	.LBB53_7
# %bb.6:                                # %lor.lhs.false6
	cmpl	$250, -36(%rbp)
	jle	.LBB53_8
.LBB53_7:                               # %if.then8
	movl	$-2, -32(%rbp)
	jmp	.LBB53_29
.LBB53_8:                               # %if.end9
	cmpl	$0, -36(%rbp)
	jne	.LBB53_10
# %bb.9:                                # %if.then11
	movl	$30, -36(%rbp)
.LBB53_10:                              # %if.end12
	movq	-24(%rbp), %rax
	cmpq	$0, 56(%rax)
	jne	.LBB53_12
# %bb.11:                               # %if.then14
	movq	-24(%rbp), %rax
	movabsq	$default_bzalloc, %rcx
	movq	%rcx, 56(%rax)
.LBB53_12:                              # %if.end16
	movq	-24(%rbp), %rax
	cmpq	$0, 64(%rax)
	jne	.LBB53_14
# %bb.13:                               # %if.then18
	movq	-24(%rbp), %rax
	movabsq	$default_bzfree, %rcx
	movq	%rcx, 64(%rax)
.LBB53_14:                              # %if.end20
	movq	-24(%rbp), %rax
	movq	56(%rax), %rax
	movq	-24(%rbp), %rcx
	movq	72(%rcx), %rdi
	movl	$55768, %esi            # imm = 0xD9D8
	movl	$1, %edx
	callq	*%rax
	movq	%rax, -16(%rbp)
	cmpq	$0, -16(%rbp)
	jne	.LBB53_16
# %bb.15:                               # %if.then24
	movl	$-3, -32(%rbp)
	jmp	.LBB53_29
.LBB53_16:                              # %if.end25
	movq	-24(%rbp), %rax
	movq	-16(%rbp), %rcx
	movq	%rax, (%rcx)
	movq	-16(%rbp), %rax
	movq	$0, 24(%rax)
	movq	-16(%rbp), %rax
	movq	$0, 32(%rax)
	movq	-16(%rbp), %rax
	movq	$0, 40(%rax)
	imull	$100000, -28(%rbp), %eax # imm = 0x186A0
	movl	%eax, -40(%rbp)
	movq	-24(%rbp), %rax
	movq	56(%rax), %rax
	movq	-24(%rbp), %rcx
	movq	72(%rcx), %rdi
	movslq	-40(%rbp), %rsi
	shlq	$2, %rsi
                                        # kill: def $esi killed $esi killed $rsi
	movl	$1, %edx
	callq	*%rax
	movq	-16(%rbp), %rcx
	movq	%rax, 24(%rcx)
	movq	-24(%rbp), %rax
	movq	56(%rax), %rax
	movq	-24(%rbp), %rcx
	movq	72(%rcx), %rdi
	movl	-40(%rbp), %ecx
	addl	$34, %ecx
	movslq	%ecx, %rsi
	shlq	$2, %rsi
                                        # kill: def $esi killed $esi killed $rsi
	movl	$1, %edx
	callq	*%rax
	movq	-16(%rbp), %rcx
	movq	%rax, 32(%rcx)
	movq	-24(%rbp), %rax
	movq	56(%rax), %rax
	movq	-24(%rbp), %rcx
	movq	72(%rcx), %rdi
	movl	$262148, %esi           # imm = 0x40004
	movl	$1, %edx
	callq	*%rax
	movq	-16(%rbp), %rcx
	movq	%rax, 40(%rcx)
	movq	-16(%rbp), %rax
	cmpq	$0, 24(%rax)
	je	.LBB53_19
# %bb.17:                               # %lor.lhs.false47
	movq	-16(%rbp), %rax
	cmpq	$0, 32(%rax)
	je	.LBB53_19
# %bb.18:                               # %lor.lhs.false51
	movq	-16(%rbp), %rax
	cmpq	$0, 40(%rax)
	jne	.LBB53_28
.LBB53_19:                              # %if.then55
	movq	-16(%rbp), %rax
	cmpq	$0, 24(%rax)
	je	.LBB53_21
# %bb.20:                               # %if.then59
	movq	-24(%rbp), %rax
	movq	64(%rax), %rax
	movq	-24(%rbp), %rcx
	movq	72(%rcx), %rdi
	movq	-16(%rbp), %rcx
	movq	24(%rcx), %rsi
	callq	*%rax
.LBB53_21:                              # %if.end63
	movq	-16(%rbp), %rax
	cmpq	$0, 32(%rax)
	je	.LBB53_23
# %bb.22:                               # %if.then67
	movq	-24(%rbp), %rax
	movq	64(%rax), %rax
	movq	-24(%rbp), %rcx
	movq	72(%rcx), %rdi
	movq	-16(%rbp), %rcx
	movq	32(%rcx), %rsi
	callq	*%rax
.LBB53_23:                              # %if.end71
	movq	-16(%rbp), %rax
	cmpq	$0, 40(%rax)
	je	.LBB53_25
# %bb.24:                               # %if.then75
	movq	-24(%rbp), %rax
	movq	64(%rax), %rax
	movq	-24(%rbp), %rcx
	movq	72(%rcx), %rdi
	movq	-16(%rbp), %rcx
	movq	40(%rcx), %rsi
	callq	*%rax
.LBB53_25:                              # %if.end79
	cmpq	$0, -16(%rbp)
	je	.LBB53_27
# %bb.26:                               # %if.then82
	movq	-24(%rbp), %rax
	movq	64(%rax), %rax
	movq	-24(%rbp), %rcx
	movq	72(%rcx), %rdi
	movq	-16(%rbp), %rsi
	callq	*%rax
.LBB53_27:                              # %if.end85
	movl	$-3, -32(%rbp)
	jmp	.LBB53_29
.LBB53_28:                              # %if.end86
	movq	-16(%rbp), %rax
	movl	$0, 660(%rax)
	movq	-16(%rbp), %rax
	movl	$2, 12(%rax)
	movq	-16(%rbp), %rax
	movl	$2, 8(%rax)
	movq	-16(%rbp), %rax
	movl	$0, 652(%rax)
	movl	-28(%rbp), %eax
	movq	-16(%rbp), %rcx
	movl	%eax, 664(%rcx)
	imull	$100000, -28(%rbp), %eax # imm = 0x186A0
	subl	$19, %eax
	movq	-16(%rbp), %rcx
	movl	%eax, 112(%rcx)
	movl	-48(%rbp), %eax
	movq	-16(%rbp), %rcx
	movl	%eax, 656(%rcx)
	movl	-36(%rbp), %eax
	movq	-16(%rbp), %rcx
	movl	%eax, 88(%rcx)
	movq	-16(%rbp), %rax
	movq	32(%rax), %rax
	movq	-16(%rbp), %rcx
	movq	%rax, 64(%rcx)
	movq	-16(%rbp), %rax
	movq	24(%rax), %rax
	movq	-16(%rbp), %rcx
	movq	%rax, 72(%rcx)
	movq	-16(%rbp), %rax
	movq	$0, 80(%rax)
	movq	-16(%rbp), %rax
	movq	24(%rax), %rax
	movq	-16(%rbp), %rcx
	movq	%rax, 56(%rcx)
	movq	-16(%rbp), %rax
	movq	-24(%rbp), %rcx
	movq	%rax, 48(%rcx)
	movq	-24(%rbp), %rax
	movl	$0, 12(%rax)
	movq	-24(%rbp), %rax
	movl	$0, 16(%rax)
	movq	-24(%rbp), %rax
	movl	$0, 36(%rax)
	movq	-24(%rbp), %rax
	movl	$0, 40(%rax)
	movq	-16(%rbp), %rdi
	callq	init_RL
	movq	-16(%rbp), %rdi
	callq	prepare_new_block
	movl	$0, -32(%rbp)
.LBB53_29:                              # %return
	movl	-32(%rbp), %ebx
	cmpl	$1206509879, -44(%rbp)  # imm = 0x47E9E137
	jne	.LBB53_31
.LBB53_30:
	movl	%ebx, %eax
	addq	$40, %rsp
	popq	%rbx
	popq	%rbp
	.cfi_def_cfa %rsp, 8
	retq
.LBB53_31:                              # %func_exit
	.cfi_def_cfa %rbp, 16
	callq	detect_breach
	jmp	.LBB53_30
.Lfunc_end53:
	.size	BZ2_bzCompressInit.13, .Lfunc_end53-BZ2_bzCompressInit.13
	.cfi_endproc
                                        # -- End function
	.p2align	4, 0x90         # -- Begin function myfeof.14
	.type	myfeof.14,@function
myfeof.14:                              # @myfeof.14
	.cfi_startproc
# %bb.0:                                # %entry
	pushq	%rbp
	.cfi_def_cfa_offset 16
	.cfi_offset %rbp, -16
	movq	%rsp, %rbp
	.cfi_def_cfa_register %rbp
	pushq	%rbx
	subq	$24, %rsp
	.cfi_offset %rbx, -24
	movl	$754207358, -20(%rbp)   # imm = 0x2CF44A7E
	movq	%rdi, -32(%rbp)
	movq	-32(%rbp), %rdi
	callq	fgetc
	movl	%eax, -16(%rbp)
	cmpl	$-1, -16(%rbp)
	jne	.LBB54_2
# %bb.1:                                # %if.then
	movb	$1, -9(%rbp)
	jmp	.LBB54_3
.LBB54_2:                               # %if.end
	movl	-16(%rbp), %edi
	movq	-32(%rbp), %rsi
	callq	ungetc
	movb	$0, -9(%rbp)
.LBB54_3:                               # %return
	movb	-9(%rbp), %bl
	cmpl	$754207358, -20(%rbp)   # imm = 0x2CF44A7E
	jne	.LBB54_5
.LBB54_4:
	movzbl	%bl, %eax
	addq	$24, %rsp
	popq	%rbx
	popq	%rbp
	.cfi_def_cfa %rsp, 8
	retq
.LBB54_5:                               # %func_exit
	.cfi_def_cfa %rbp, 16
	callq	detect_breach
	jmp	.LBB54_4
.Lfunc_end54:
	.size	myfeof.14, .Lfunc_end54-myfeof.14
	.cfi_endproc
                                        # -- End function
	.globl	BZ2_bzWriteOpen.15      # -- Begin function BZ2_bzWriteOpen.15
	.p2align	4, 0x90
	.type	BZ2_bzWriteOpen.15,@function
BZ2_bzWriteOpen.15:                     # @BZ2_bzWriteOpen.15
	.cfi_startproc
# %bb.0:                                # %entry
	pushq	%rbp
	.cfi_def_cfa_offset 16
	.cfi_offset %rbp, -16
	movq	%rsp, %rbp
	.cfi_def_cfa_register %rbp
	pushq	%rbx
	subq	$56, %rsp
	.cfi_offset %rbx, -24
	movl	$317070620, -60(%rbp)   # imm = 0x12E61D1C
	movq	%rdi, -24(%rbp)
	movq	%rsi, -56(%rbp)
	movl	%edx, -36(%rbp)
	movl	%ecx, -32(%rbp)
	movl	%r8d, -28(%rbp)
	movq	$0, -16(%rbp)
	cmpq	$0, -24(%rbp)
	je	.LBB55_2
# %bb.1:                                # %if.then
	movq	-24(%rbp), %rax
	movl	$0, (%rax)
.LBB55_2:                               # %if.end
	cmpq	$0, -16(%rbp)
	je	.LBB55_4
# %bb.3:                                # %if.then2
	movq	-16(%rbp), %rax
	movl	$0, 5096(%rax)
.LBB55_4:                               # %if.end3
	cmpq	$0, -56(%rbp)
	je	.LBB55_11
# %bb.5:                                # %lor.lhs.false
	cmpl	$1, -36(%rbp)
	jl	.LBB55_11
# %bb.6:                                # %lor.lhs.false6
	cmpl	$9, -36(%rbp)
	jg	.LBB55_11
# %bb.7:                                # %lor.lhs.false8
	cmpl	$0, -28(%rbp)
	jl	.LBB55_11
# %bb.8:                                # %lor.lhs.false10
	cmpl	$250, -28(%rbp)
	jg	.LBB55_11
# %bb.9:                                # %lor.lhs.false12
	cmpl	$0, -32(%rbp)
	jl	.LBB55_11
# %bb.10:                               # %lor.lhs.false14
	cmpl	$4, -32(%rbp)
	jle	.LBB55_16
.LBB55_11:                              # %if.then16
	cmpq	$0, -24(%rbp)
	je	.LBB55_13
# %bb.12:                               # %if.then18
	movq	-24(%rbp), %rax
	movl	$-2, (%rax)
.LBB55_13:                              # %if.end19
	cmpq	$0, -16(%rbp)
	je	.LBB55_15
# %bb.14:                               # %if.then21
	movq	-16(%rbp), %rax
	movl	$-2, 5096(%rax)
.LBB55_15:                              # %if.end23
	movq	$0, -48(%rbp)
	jmp	.LBB55_41
.LBB55_16:                              # %if.end24
	movq	-56(%rbp), %rdi
	callq	ferror
	cmpl	$0, %eax
	je	.LBB55_22
# %bb.17:                               # %if.then25
	cmpq	$0, -24(%rbp)
	je	.LBB55_19
# %bb.18:                               # %if.then27
	movq	-24(%rbp), %rax
	movl	$-6, (%rax)
.LBB55_19:                              # %if.end28
	cmpq	$0, -16(%rbp)
	je	.LBB55_21
# %bb.20:                               # %if.then30
	movq	-16(%rbp), %rax
	movl	$-6, 5096(%rax)
.LBB55_21:                              # %if.end32
	movq	$0, -48(%rbp)
	jmp	.LBB55_41
.LBB55_22:                              # %if.end33
	movl	$5104, %edi             # imm = 0x13F0
	callq	malloc
	movq	%rax, -16(%rbp)
	cmpq	$0, -16(%rbp)
	jne	.LBB55_28
# %bb.23:                               # %if.then36
	cmpq	$0, -24(%rbp)
	je	.LBB55_25
# %bb.24:                               # %if.then38
	movq	-24(%rbp), %rax
	movl	$-3, (%rax)
.LBB55_25:                              # %if.end39
	cmpq	$0, -16(%rbp)
	je	.LBB55_27
# %bb.26:                               # %if.then41
	movq	-16(%rbp), %rax
	movl	$-3, 5096(%rax)
.LBB55_27:                              # %if.end43
	movq	$0, -48(%rbp)
	jmp	.LBB55_41
.LBB55_28:                              # %if.end44
	cmpq	$0, -24(%rbp)
	je	.LBB55_30
# %bb.29:                               # %if.then46
	movq	-24(%rbp), %rax
	movl	$0, (%rax)
.LBB55_30:                              # %if.end47
	cmpq	$0, -16(%rbp)
	je	.LBB55_32
# %bb.31:                               # %if.then49
	movq	-16(%rbp), %rax
	movl	$0, 5096(%rax)
.LBB55_32:                              # %if.end51
	movq	-16(%rbp), %rax
	movb	$0, 5100(%rax)
	movq	-16(%rbp), %rax
	movl	$0, 5008(%rax)
	movq	-56(%rbp), %rax
	movq	-16(%rbp), %rcx
	movq	%rax, (%rcx)
	movq	-16(%rbp), %rax
	movb	$1, 5012(%rax)
	movq	-16(%rbp), %rax
	movq	$0, 5072(%rax)
	movq	-16(%rbp), %rax
	movq	$0, 5080(%rax)
	movq	-16(%rbp), %rax
	movq	$0, 5088(%rax)
	cmpl	$0, -28(%rbp)
	jne	.LBB55_34
# %bb.33:                               # %if.then55
	movl	$30, -28(%rbp)
.LBB55_34:                              # %if.end56
	movq	-16(%rbp), %rdi
	addq	$5016, %rdi             # imm = 0x1398
	movl	-36(%rbp), %esi
	movl	-32(%rbp), %edx
	movl	-28(%rbp), %ecx
	callq	BZ2_bzCompressInit
	movl	%eax, -40(%rbp)
	cmpl	$0, -40(%rbp)
	je	.LBB55_40
# %bb.35:                               # %if.then60
	cmpq	$0, -24(%rbp)
	je	.LBB55_37
# %bb.36:                               # %if.then62
	movl	-40(%rbp), %eax
	movq	-24(%rbp), %rcx
	movl	%eax, (%rcx)
.LBB55_37:                              # %if.end63
	cmpq	$0, -16(%rbp)
	je	.LBB55_39
# %bb.38:                               # %if.then65
	movl	-40(%rbp), %eax
	movq	-16(%rbp), %rcx
	movl	%eax, 5096(%rcx)
.LBB55_39:                              # %if.end67
	movq	-16(%rbp), %rdi
	callq	free
	movq	$0, -48(%rbp)
	jmp	.LBB55_41
.LBB55_40:                              # %if.end68
	movq	-16(%rbp), %rax
	movl	$0, 5024(%rax)
	movq	-16(%rbp), %rax
	movb	$1, 5100(%rax)
	movq	-16(%rbp), %rax
	movq	%rax, -48(%rbp)
.LBB55_41:                              # %return
	movq	-48(%rbp), %rbx
	cmpl	$317070620, -60(%rbp)   # imm = 0x12E61D1C
	jne	.LBB55_43
.LBB55_42:
	movq	%rbx, %rax
	addq	$56, %rsp
	popq	%rbx
	popq	%rbp
	.cfi_def_cfa %rsp, 8
	retq
.LBB55_43:                              # %func_exit
	.cfi_def_cfa %rbp, 16
	callq	detect_breach
	jmp	.LBB55_42
.Lfunc_end55:
	.size	BZ2_bzWriteOpen.15, .Lfunc_end55-BZ2_bzWriteOpen.15
	.cfi_endproc
                                        # -- End function
	.globl	BZ2_bzwrite.16          # -- Begin function BZ2_bzwrite.16
	.p2align	4, 0x90
	.type	BZ2_bzwrite.16,@function
BZ2_bzwrite.16:                         # @BZ2_bzwrite.16
	.cfi_startproc
# %bb.0:                                # %entry
	pushq	%rbp
	.cfi_def_cfa_offset 16
	.cfi_offset %rbp, -16
	movq	%rsp, %rbp
	.cfi_def_cfa_register %rbp
	pushq	%rbx
	subq	$40, %rsp
	.cfi_offset %rbx, -24
	movl	$1510891485, -20(%rbp)  # imm = 0x5A0E5FDD
	movq	%rdi, -32(%rbp)
	movq	%rsi, -40(%rbp)
	movl	%edx, -12(%rbp)
	movq	-32(%rbp), %rsi
	movq	-40(%rbp), %rdx
	movl	-12(%rbp), %ecx
	leaq	-24(%rbp), %rdi
	callq	BZ2_bzWrite
	cmpl	$0, -24(%rbp)
	jne	.LBB56_2
# %bb.1:                                # %if.then
	movl	-12(%rbp), %eax
	movl	%eax, -16(%rbp)
	jmp	.LBB56_3
.LBB56_2:                               # %if.else
	movl	$-1, -16(%rbp)
.LBB56_3:                               # %return
	movl	-16(%rbp), %ebx
	cmpl	$1510891485, -20(%rbp)  # imm = 0x5A0E5FDD
	jne	.LBB56_5
.LBB56_4:
	movl	%ebx, %eax
	addq	$40, %rsp
	popq	%rbx
	popq	%rbp
	.cfi_def_cfa %rsp, 8
	retq
.LBB56_5:                               # %func_exit
	.cfi_def_cfa %rbp, 16
	callq	detect_breach
	jmp	.LBB56_4
.Lfunc_end56:
	.size	BZ2_bzwrite.16, .Lfunc_end56-BZ2_bzwrite.16
	.cfi_endproc
                                        # -- End function
	.globl	BZ2_bzwrite.17          # -- Begin function BZ2_bzwrite.17
	.p2align	4, 0x90
	.type	BZ2_bzwrite.17,@function
BZ2_bzwrite.17:                         # @BZ2_bzwrite.17
	.cfi_startproc
# %bb.0:                                # %entry
	pushq	%rbp
	.cfi_def_cfa_offset 16
	.cfi_offset %rbp, -16
	movq	%rsp, %rbp
	.cfi_def_cfa_register %rbp
	pushq	%rbx
	subq	$40, %rsp
	.cfi_offset %rbx, -24
	movl	$773451014, -20(%rbp)   # imm = 0x2E19ED06
	movq	%rdi, -40(%rbp)
	movq	%rsi, -32(%rbp)
	movl	%edx, -12(%rbp)
	movq	-40(%rbp), %rsi
	movq	-32(%rbp), %rdx
	movl	-12(%rbp), %ecx
	leaq	-24(%rbp), %rdi
	callq	BZ2_bzWrite
	cmpl	$0, -24(%rbp)
	jne	.LBB57_2
# %bb.1:                                # %if.then
	movl	-12(%rbp), %eax
	movl	%eax, -16(%rbp)
	jmp	.LBB57_3
.LBB57_2:                               # %if.else
	movl	$-1, -16(%rbp)
.LBB57_3:                               # %return
	movl	-16(%rbp), %ebx
	cmpl	$773451014, -20(%rbp)   # imm = 0x2E19ED06
	jne	.LBB57_5
.LBB57_4:
	movl	%ebx, %eax
	addq	$40, %rsp
	popq	%rbx
	popq	%rbp
	.cfi_def_cfa %rsp, 8
	retq
.LBB57_5:                               # %func_exit
	.cfi_def_cfa %rbp, 16
	callq	detect_breach
	jmp	.LBB57_4
.Lfunc_end57:
	.size	BZ2_bzwrite.17, .Lfunc_end57-BZ2_bzwrite.17
	.cfi_endproc
                                        # -- End function
	.p2align	4, 0x90         # -- Begin function bzopen_or_bzdopen.18
	.type	bzopen_or_bzdopen.18,@function
bzopen_or_bzdopen.18:                   # @bzopen_or_bzdopen.18
	.cfi_startproc
# %bb.0:                                # %entry
	pushq	%rbp
	.cfi_def_cfa_offset 16
	.cfi_offset %rbp, -16
	movq	%rsp, %rbp
	.cfi_def_cfa_register %rbp
	pushq	%rbx
	subq	$5096, %rsp             # imm = 0x13E8
	.cfi_offset %rbx, -24
	movl	$1373338131, -68(%rbp)  # imm = 0x51DB7A13
	movq	%rdi, -64(%rbp)
	movl	%esi, -72(%rbp)
	movq	%rdx, -32(%rbp)
	movl	%ecx, -76(%rbp)
	movl	$9, -12(%rbp)
	movl	$0, -16(%rbp)
	leaq	-98(%rbp), %rdi
	xorl	%esi, %esi
	movl	$10, %edx
	callq	memset
	movq	$0, -24(%rbp)
	movq	$0, -56(%rbp)
	movl	$0, -36(%rbp)
	movl	$30, -88(%rbp)
	movl	$0, -40(%rbp)
	movl	$0, -80(%rbp)
	cmpq	$0, -32(%rbp)
	jne	.LBB58_2
# %bb.1:                                # %if.then
	movq	$0, -48(%rbp)
	jmp	.LBB58_39
.LBB58_2:                               # %if.end
	jmp	.LBB58_3
.LBB58_3:                               # %while.cond
                                        # =>This Inner Loop Header: Depth=1
	movq	-32(%rbp), %rax
	cmpb	$0, (%rax)
	je	.LBB58_14
# %bb.4:                                # %while.body
                                        #   in Loop: Header=BB58_3 Depth=1
	movq	-32(%rbp), %rax
	movsbl	(%rax), %eax
	movl	%eax, %ecx
	subl	$114, %ecx
	je	.LBB58_7
	jmp	.LBB58_5
.LBB58_5:                               # %while.body
                                        #   in Loop: Header=BB58_3 Depth=1
	movl	%eax, %ecx
	subl	$115, %ecx
	je	.LBB58_9
	jmp	.LBB58_6
.LBB58_6:                               # %while.body
                                        #   in Loop: Header=BB58_3 Depth=1
	subl	$119, %eax
	je	.LBB58_8
	jmp	.LBB58_10
.LBB58_7:                               # %sw.bb
                                        #   in Loop: Header=BB58_3 Depth=1
	movl	$0, -16(%rbp)
	jmp	.LBB58_13
.LBB58_8:                               # %sw.bb1
                                        #   in Loop: Header=BB58_3 Depth=1
	movl	$1, -16(%rbp)
	jmp	.LBB58_13
.LBB58_9:                               # %sw.bb2
                                        #   in Loop: Header=BB58_3 Depth=1
	movl	$1, -40(%rbp)
	jmp	.LBB58_13
.LBB58_10:                              # %sw.default
                                        #   in Loop: Header=BB58_3 Depth=1
	callq	__ctype_b_loc
	movq	(%rax), %rax
	movq	-32(%rbp), %rcx
	movsbl	(%rcx), %ecx
	movslq	%ecx, %rcx
	movzwl	(%rax,%rcx,2), %eax
	andl	$2048, %eax             # imm = 0x800
	cmpl	$0, %eax
	je	.LBB58_12
# %bb.11:                               # %if.then6
                                        #   in Loop: Header=BB58_3 Depth=1
	movq	-32(%rbp), %rax
	movsbl	(%rax), %eax
	subl	$48, %eax
	movl	%eax, -12(%rbp)
.LBB58_12:                              # %if.end8
                                        #   in Loop: Header=BB58_3 Depth=1
	jmp	.LBB58_13
.LBB58_13:                              # %sw.epilog
                                        #   in Loop: Header=BB58_3 Depth=1
	movq	-32(%rbp), %rax
	addq	$1, %rax
	movq	%rax, -32(%rbp)
	jmp	.LBB58_3
.LBB58_14:                              # %while.end
	leaq	-98(%rbp), %rdi
	movl	-16(%rbp), %eax
	cmpl	$0, %eax
	movabsq	$.L.str.6, %rax
	movabsq	$.L.str.7, %rsi
	cmovneq	%rax, %rsi
	callq	strcat
	leaq	-98(%rbp), %rdi
	movabsq	$.L.str.8, %rsi
	callq	strcat
	cmpl	$0, -76(%rbp)
	jne	.LBB58_23
# %bb.15:                               # %if.then15
	cmpq	$0, -64(%rbp)
	je	.LBB58_17
# %bb.16:                               # %lor.lhs.false
	movq	-64(%rbp), %rdi
	movl	$.L.str.9, %esi
	callq	strcmp
	cmpl	$0, %eax
	jne	.LBB58_21
.LBB58_17:                              # %if.then21
	cmpl	$0, -16(%rbp)
	je	.LBB58_19
# %bb.18:                               # %cond.true
	movq	stdout, %rax
	jmp	.LBB58_20
.LBB58_19:                              # %cond.false
	movq	stdin, %rax
.LBB58_20:                              # %cond.end
	movq	%rax, -24(%rbp)
	jmp	.LBB58_22
.LBB58_21:                              # %if.else
	leaq	-98(%rbp), %rsi
	movq	-64(%rbp), %rdi
	callq	fopen
	movq	%rax, -24(%rbp)
.LBB58_22:                              # %if.end26
	jmp	.LBB58_24
.LBB58_23:                              # %if.else27
	leaq	-98(%rbp), %rsi
	movl	-72(%rbp), %edi
	callq	fdopen
	movq	%rax, -24(%rbp)
.LBB58_24:                              # %if.end30
	cmpq	$0, -24(%rbp)
	jne	.LBB58_26
# %bb.25:                               # %if.then33
	movq	$0, -48(%rbp)
	jmp	.LBB58_39
.LBB58_26:                              # %if.end34
	cmpl	$0, -16(%rbp)
	je	.LBB58_32
# %bb.27:                               # %if.then36
	cmpl	$1, -12(%rbp)
	jge	.LBB58_29
# %bb.28:                               # %if.then39
	movl	$1, -12(%rbp)
.LBB58_29:                              # %if.end40
	cmpl	$9, -12(%rbp)
	jle	.LBB58_31
# %bb.30:                               # %if.then43
	movl	$9, -12(%rbp)
.LBB58_31:                              # %if.end44
	movq	-24(%rbp), %rsi
	movl	-12(%rbp), %edx
	movl	-36(%rbp), %ecx
	movl	-88(%rbp), %r8d
	leaq	-84(%rbp), %rdi
	callq	BZ2_bzWriteOpen
	movq	%rax, -56(%rbp)
	jmp	.LBB58_33
.LBB58_32:                              # %if.else46
	leaq	-5104(%rbp), %r8
	movq	-24(%rbp), %rsi
	movl	-36(%rbp), %edx
	movl	-40(%rbp), %ecx
	movl	-80(%rbp), %r9d
	leaq	-84(%rbp), %rdi
	callq	BZ2_bzReadOpen
	movq	%rax, -56(%rbp)
.LBB58_33:                              # %if.end49
	cmpq	$0, -56(%rbp)
	jne	.LBB58_38
# %bb.34:                               # %if.then52
	movq	-24(%rbp), %rax
	cmpq	stdin, %rax
	je	.LBB58_37
# %bb.35:                               # %land.lhs.true
	movq	-24(%rbp), %rax
	cmpq	stdout, %rax
	je	.LBB58_37
# %bb.36:                               # %if.then57
	movq	-24(%rbp), %rdi
	callq	fclose
.LBB58_37:                              # %if.end59
	movq	$0, -48(%rbp)
	jmp	.LBB58_39
.LBB58_38:                              # %if.end60
	movq	-56(%rbp), %rax
	movq	%rax, -48(%rbp)
.LBB58_39:                              # %return
	movq	-48(%rbp), %rbx
	cmpl	$1373338131, -68(%rbp)  # imm = 0x51DB7A13
	jne	.LBB58_41
.LBB58_40:
	movq	%rbx, %rax
	addq	$5096, %rsp             # imm = 0x13E8
	popq	%rbx
	popq	%rbp
	.cfi_def_cfa %rsp, 8
	retq
.LBB58_41:                              # %func_exit
	.cfi_def_cfa %rbp, 16
	callq	detect_breach
	jmp	.LBB58_40
.Lfunc_end58:
	.size	bzopen_or_bzdopen.18, .Lfunc_end58-bzopen_or_bzdopen.18
	.cfi_endproc
                                        # -- End function
	.p2align	4, 0x90         # -- Begin function copy_output_until_stop.19
	.type	copy_output_until_stop.19,@function
copy_output_until_stop.19:              # @copy_output_until_stop.19
	.cfi_startproc
# %bb.0:                                # %entry
	pushq	%rbp
	.cfi_def_cfa_offset 16
	.cfi_offset %rbp, -16
	movq	%rsp, %rbp
	.cfi_def_cfa_register %rbp
	pushq	%rbx
	subq	$24, %rsp
	.cfi_offset %rbx, -24
	movl	$436471330, -28(%rbp)   # imm = 0x1A040622
	movq	%rdi, -24(%rbp)
	movb	$0, -9(%rbp)
.LBB59_1:                               # %while.body
                                        # =>This Inner Loop Header: Depth=1
	movq	-24(%rbp), %rax
	movq	(%rax), %rax
	cmpl	$0, 32(%rax)
	jne	.LBB59_3
# %bb.2:                                # %if.then
	jmp	.LBB59_8
.LBB59_3:                               # %if.end
                                        #   in Loop: Header=BB59_1 Depth=1
	movq	-24(%rbp), %rax
	movl	120(%rax), %eax
	movq	-24(%rbp), %rcx
	cmpl	116(%rcx), %eax
	jl	.LBB59_5
# %bb.4:                                # %if.then2
	jmp	.LBB59_8
.LBB59_5:                               # %if.end3
                                        #   in Loop: Header=BB59_1 Depth=1
	movb	$1, -9(%rbp)
	movq	-24(%rbp), %rax
	movq	80(%rax), %rax
	movq	-24(%rbp), %rcx
	movslq	120(%rcx), %rcx
	movb	(%rax,%rcx), %al
	movq	-24(%rbp), %rcx
	movq	(%rcx), %rcx
	movq	24(%rcx), %rcx
	movb	%al, (%rcx)
	movq	-24(%rbp), %rax
	movl	120(%rax), %ecx
	addl	$1, %ecx
	movl	%ecx, 120(%rax)
	movq	-24(%rbp), %rax
	movq	(%rax), %rax
	movl	32(%rax), %ecx
	addl	$-1, %ecx
	movl	%ecx, 32(%rax)
	movq	-24(%rbp), %rax
	movq	(%rax), %rax
	movq	24(%rax), %rcx
	addq	$1, %rcx
	movq	%rcx, 24(%rax)
	movq	-24(%rbp), %rax
	movq	(%rax), %rax
	movl	36(%rax), %ecx
	addl	$1, %ecx
	movl	%ecx, 36(%rax)
	movq	-24(%rbp), %rax
	movq	(%rax), %rax
	cmpl	$0, 36(%rax)
	jne	.LBB59_7
# %bb.6:                                # %if.then16
                                        #   in Loop: Header=BB59_1 Depth=1
	movq	-24(%rbp), %rax
	movq	(%rax), %rax
	movl	40(%rax), %ecx
	addl	$1, %ecx
	movl	%ecx, 40(%rax)
.LBB59_7:                               # %if.end19
                                        #   in Loop: Header=BB59_1 Depth=1
	jmp	.LBB59_1
.LBB59_8:                               # %while.end
	movb	-9(%rbp), %bl
	cmpl	$436471330, -28(%rbp)   # imm = 0x1A040622
	jne	.LBB59_10
.LBB59_9:
	movzbl	%bl, %eax
	addq	$24, %rsp
	popq	%rbx
	popq	%rbp
	.cfi_def_cfa %rsp, 8
	retq
.LBB59_10:                              # %func_exit
	.cfi_def_cfa %rbp, 16
	callq	detect_breach
	jmp	.LBB59_9
.Lfunc_end59:
	.size	copy_output_until_stop.19, .Lfunc_end59-copy_output_until_stop.19
	.cfi_endproc
                                        # -- End function
	.globl	BZ2_bzDecompressInit.20 # -- Begin function BZ2_bzDecompressInit.20
	.p2align	4, 0x90
	.type	BZ2_bzDecompressInit.20,@function
BZ2_bzDecompressInit.20:                # @BZ2_bzDecompressInit.20
	.cfi_startproc
# %bb.0:                                # %entry
	pushq	%rbp
	.cfi_def_cfa_offset 16
	.cfi_offset %rbp, -16
	movq	%rsp, %rbp
	.cfi_def_cfa_register %rbp
	pushq	%rbx
	subq	$40, %rsp
	.cfi_offset %rbx, -24
	movl	$337881403, -40(%rbp)   # imm = 0x1423A93B
	movq	%rdi, -24(%rbp)
	movl	%esi, -36(%rbp)
	movl	%edx, -32(%rbp)
	callq	bz_config_ok
	cmpl	$0, %eax
	jne	.LBB60_2
# %bb.1:                                # %if.then
	movl	$-9, -28(%rbp)
	jmp	.LBB60_17
.LBB60_2:                               # %if.end
	cmpq	$0, -24(%rbp)
	jne	.LBB60_4
# %bb.3:                                # %if.then1
	movl	$-2, -28(%rbp)
	jmp	.LBB60_17
.LBB60_4:                               # %if.end2
	cmpl	$0, -32(%rbp)
	je	.LBB60_7
# %bb.5:                                # %land.lhs.true
	cmpl	$1, -32(%rbp)
	je	.LBB60_7
# %bb.6:                                # %if.then5
	movl	$-2, -28(%rbp)
	jmp	.LBB60_17
.LBB60_7:                               # %if.end6
	cmpl	$0, -36(%rbp)
	jl	.LBB60_9
# %bb.8:                                # %lor.lhs.false
	cmpl	$4, -36(%rbp)
	jle	.LBB60_10
.LBB60_9:                               # %if.then9
	movl	$-2, -28(%rbp)
	jmp	.LBB60_17
.LBB60_10:                              # %if.end10
	movq	-24(%rbp), %rax
	cmpq	$0, 56(%rax)
	jne	.LBB60_12
# %bb.11:                               # %if.then12
	movq	-24(%rbp), %rax
	movabsq	$default_bzalloc, %rcx
	movq	%rcx, 56(%rax)
.LBB60_12:                              # %if.end14
	movq	-24(%rbp), %rax
	cmpq	$0, 64(%rax)
	jne	.LBB60_14
# %bb.13:                               # %if.then16
	movq	-24(%rbp), %rax
	movabsq	$default_bzfree, %rcx
	movq	%rcx, 64(%rax)
.LBB60_14:                              # %if.end18
	movq	-24(%rbp), %rax
	movq	56(%rax), %rax
	movq	-24(%rbp), %rcx
	movq	72(%rcx), %rdi
	movl	$64144, %esi            # imm = 0xFA90
	movl	$1, %edx
	callq	*%rax
	movq	%rax, -16(%rbp)
	cmpq	$0, -16(%rbp)
	jne	.LBB60_16
# %bb.15:                               # %if.then22
	movl	$-3, -28(%rbp)
	jmp	.LBB60_17
.LBB60_16:                              # %if.end23
	movq	-24(%rbp), %rax
	movq	-16(%rbp), %rcx
	movq	%rax, (%rcx)
	movq	-16(%rbp), %rax
	movq	-24(%rbp), %rcx
	movq	%rax, 48(%rcx)
	movq	-16(%rbp), %rax
	movl	$10, 8(%rax)
	movq	-16(%rbp), %rax
	movl	$0, 36(%rax)
	movq	-16(%rbp), %rax
	movl	$0, 32(%rax)
	movq	-16(%rbp), %rax
	movl	$0, 3188(%rax)
	movq	-24(%rbp), %rax
	movl	$0, 12(%rax)
	movq	-24(%rbp), %rax
	movl	$0, 16(%rax)
	movq	-24(%rbp), %rax
	movl	$0, 36(%rax)
	movq	-24(%rbp), %rax
	movl	$0, 40(%rax)
	movl	-32(%rbp), %eax
	movq	-16(%rbp), %rcx
	movb	%al, 44(%rcx)
	movq	-16(%rbp), %rax
	movq	$0, 3168(%rax)
	movq	-16(%rbp), %rax
	movq	$0, 3160(%rax)
	movq	-16(%rbp), %rax
	movq	$0, 3152(%rax)
	movq	-16(%rbp), %rax
	movl	$0, 48(%rax)
	movl	-36(%rbp), %eax
	movq	-16(%rbp), %rcx
	movl	%eax, 52(%rcx)
	movl	$0, -28(%rbp)
.LBB60_17:                              # %return
	movl	-28(%rbp), %ebx
	cmpl	$337881403, -40(%rbp)   # imm = 0x1423A93B
	jne	.LBB60_19
.LBB60_18:
	movl	%ebx, %eax
	addq	$40, %rsp
	popq	%rbx
	popq	%rbp
	.cfi_def_cfa %rsp, 8
	retq
.LBB60_19:                              # %func_exit
	.cfi_def_cfa %rbp, 16
	callq	detect_breach
	jmp	.LBB60_18
.Lfunc_end60:
	.size	BZ2_bzDecompressInit.20, .Lfunc_end60-BZ2_bzDecompressInit.20
	.cfi_endproc
                                        # -- End function
	.globl	BZ2_bzDecompress.21     # -- Begin function BZ2_bzDecompress.21
	.p2align	4, 0x90
	.type	BZ2_bzDecompress.21,@function
BZ2_bzDecompress.21:                    # @BZ2_bzDecompress.21
	.cfi_startproc
# %bb.0:                                # %entry
	pushq	%rbp
	.cfi_def_cfa_offset 16
	.cfi_offset %rbp, -16
	movq	%rsp, %rbp
	.cfi_def_cfa_register %rbp
	pushq	%rbx
	subq	$40, %rsp
	.cfi_offset %rbx, -24
	movl	$1517171782, -44(%rbp)  # imm = 0x5A6E3446
	movq	%rdi, -40(%rbp)
	cmpq	$0, -40(%rbp)
	jne	.LBB61_2
# %bb.1:                                # %if.then
	movl	$-2, -24(%rbp)
	jmp	.LBB61_37
.LBB61_2:                               # %if.end
	movq	-40(%rbp), %rax
	movq	48(%rax), %rax
	movq	%rax, -16(%rbp)
	cmpq	$0, -16(%rbp)
	jne	.LBB61_4
# %bb.3:                                # %if.then2
	movl	$-2, -24(%rbp)
	jmp	.LBB61_37
.LBB61_4:                               # %if.end3
	movq	-16(%rbp), %rax
	movq	(%rax), %rax
	cmpq	-40(%rbp), %rax
	je	.LBB61_6
# %bb.5:                                # %if.then6
	movl	$-2, -24(%rbp)
	jmp	.LBB61_37
.LBB61_6:                               # %if.end7
	jmp	.LBB61_7
.LBB61_7:                               # %while.body
                                        # =>This Inner Loop Header: Depth=1
	movq	-16(%rbp), %rax
	cmpl	$1, 8(%rax)
	jne	.LBB61_9
# %bb.8:                                # %if.then10
	movl	$-1, -24(%rbp)
	jmp	.LBB61_37
.LBB61_9:                               # %if.end11
                                        #   in Loop: Header=BB61_7 Depth=1
	movq	-16(%rbp), %rax
	cmpl	$2, 8(%rax)
	jne	.LBB61_26
# %bb.10:                               # %if.then14
                                        #   in Loop: Header=BB61_7 Depth=1
	movq	-16(%rbp), %rax
	cmpb	$0, 44(%rax)
	je	.LBB61_12
# %bb.11:                               # %if.then15
                                        #   in Loop: Header=BB61_7 Depth=1
	movq	-16(%rbp), %rdi
	callq	unRLE_obuf_to_output_SMALL
	movb	%al, -17(%rbp)
	jmp	.LBB61_13
.LBB61_12:                              # %if.else
                                        #   in Loop: Header=BB61_7 Depth=1
	movq	-16(%rbp), %rdi
	callq	unRLE_obuf_to_output_FAST
	movb	%al, -17(%rbp)
.LBB61_13:                              # %if.end17
                                        #   in Loop: Header=BB61_7 Depth=1
	cmpb	$0, -17(%rbp)
	je	.LBB61_15
# %bb.14:                               # %if.then19
	movl	$-4, -24(%rbp)
	jmp	.LBB61_37
.LBB61_15:                              # %if.end20
                                        #   in Loop: Header=BB61_7 Depth=1
	movq	-16(%rbp), %rax
	movl	1092(%rax), %eax
	movq	-16(%rbp), %rcx
	movl	64080(%rcx), %ecx
	addl	$1, %ecx
	cmpl	%ecx, %eax
	jne	.LBB61_24
# %bb.16:                               # %land.lhs.true
                                        #   in Loop: Header=BB61_7 Depth=1
	movq	-16(%rbp), %rax
	cmpl	$0, 16(%rax)
	jne	.LBB61_24
# %bb.17:                               # %if.then23
                                        #   in Loop: Header=BB61_7 Depth=1
	movq	-16(%rbp), %rax
	movl	3184(%rax), %eax
	xorl	$-1, %eax
	movq	-16(%rbp), %rcx
	movl	%eax, 3184(%rcx)
	movq	-16(%rbp), %rax
	cmpl	$3, 52(%rax)
	jl	.LBB61_19
# %bb.18:                               # %if.then26
                                        #   in Loop: Header=BB61_7 Depth=1
	movq	stderr, %rdi
	movq	-16(%rbp), %rax
	movl	3176(%rax), %edx
	movq	-16(%rbp), %rax
	movl	3184(%rax), %ecx
	movabsq	$.L.str.2, %rsi
	movb	$0, %al
	callq	fprintf
.LBB61_19:                              # %if.end29
                                        #   in Loop: Header=BB61_7 Depth=1
	movq	-16(%rbp), %rax
	cmpl	$2, 52(%rax)
	jl	.LBB61_21
# %bb.20:                               # %if.then32
                                        #   in Loop: Header=BB61_7 Depth=1
	movq	stderr, %rdi
	movabsq	$.L.str.3, %rsi
	movb	$0, %al
	callq	fprintf
.LBB61_21:                              # %if.end34
                                        #   in Loop: Header=BB61_7 Depth=1
	movq	-16(%rbp), %rax
	movl	3184(%rax), %eax
	movq	-16(%rbp), %rcx
	cmpl	3176(%rcx), %eax
	je	.LBB61_23
# %bb.22:                               # %if.then38
	movl	$-4, -24(%rbp)
	jmp	.LBB61_37
.LBB61_23:                              # %if.end39
                                        #   in Loop: Header=BB61_7 Depth=1
	movq	-16(%rbp), %rax
	movl	3188(%rax), %eax
	shll	$1, %eax
	movq	-16(%rbp), %rcx
	movl	3188(%rcx), %ecx
	shrl	$31, %ecx
	orl	%ecx, %eax
	movq	-16(%rbp), %rcx
	movl	%eax, 3188(%rcx)
	movq	-16(%rbp), %rax
	movl	3184(%rax), %eax
	movq	-16(%rbp), %rcx
	xorl	3188(%rcx), %eax
	movl	%eax, 3188(%rcx)
	movq	-16(%rbp), %rax
	movl	$14, 8(%rax)
	jmp	.LBB61_25
.LBB61_24:                              # %if.else45
	movl	$0, -24(%rbp)
	jmp	.LBB61_37
.LBB61_25:                              # %if.end46
                                        #   in Loop: Header=BB61_7 Depth=1
	jmp	.LBB61_26
.LBB61_26:                              # %if.end47
                                        #   in Loop: Header=BB61_7 Depth=1
	movq	-16(%rbp), %rax
	cmpl	$10, 8(%rax)
	jl	.LBB61_36
# %bb.27:                               # %if.then50
                                        #   in Loop: Header=BB61_7 Depth=1
	movq	-16(%rbp), %rdi
	callq	BZ2_decompress
	movl	%eax, -28(%rbp)
	cmpl	$4, -28(%rbp)
	jne	.LBB61_33
# %bb.28:                               # %if.then53
	movq	-16(%rbp), %rax
	cmpl	$3, 52(%rax)
	jl	.LBB61_30
# %bb.29:                               # %if.then56
	movq	stderr, %rdi
	movq	-16(%rbp), %rax
	movl	3180(%rax), %edx
	movq	-16(%rbp), %rax
	movl	3188(%rax), %ecx
	movabsq	$.L.str.4, %rsi
	movb	$0, %al
	callq	fprintf
.LBB61_30:                              # %if.end59
	movq	-16(%rbp), %rax
	movl	3188(%rax), %eax
	movq	-16(%rbp), %rcx
	cmpl	3180(%rcx), %eax
	je	.LBB61_32
# %bb.31:                               # %if.then63
	movl	$-4, -24(%rbp)
	jmp	.LBB61_37
.LBB61_32:                              # %if.end64
	movl	-28(%rbp), %eax
	movl	%eax, -24(%rbp)
	jmp	.LBB61_37
.LBB61_33:                              # %if.end65
                                        #   in Loop: Header=BB61_7 Depth=1
	movq	-16(%rbp), %rax
	cmpl	$2, 8(%rax)
	je	.LBB61_35
# %bb.34:                               # %if.then68
	movl	-28(%rbp), %eax
	movl	%eax, -24(%rbp)
	jmp	.LBB61_37
.LBB61_35:                              # %if.end69
                                        #   in Loop: Header=BB61_7 Depth=1
	jmp	.LBB61_36
.LBB61_36:                              # %if.end70
                                        #   in Loop: Header=BB61_7 Depth=1
	jmp	.LBB61_7
.LBB61_37:                              # %return
	movl	-24(%rbp), %ebx
	cmpl	$1517171782, -44(%rbp)  # imm = 0x5A6E3446
	jne	.LBB61_39
.LBB61_38:
	movl	%ebx, %eax
	addq	$40, %rsp
	popq	%rbx
	popq	%rbp
	.cfi_def_cfa %rsp, 8
	retq
.LBB61_39:                              # %func_exit
	.cfi_def_cfa %rbp, 16
	callq	detect_breach
	jmp	.LBB61_38
.Lfunc_end61:
	.size	BZ2_bzDecompress.21, .Lfunc_end61-BZ2_bzDecompress.21
	.cfi_endproc
                                        # -- End function
	.p2align	4, 0x90         # -- Begin function copy_output_until_stop.22
	.type	copy_output_until_stop.22,@function
copy_output_until_stop.22:              # @copy_output_until_stop.22
	.cfi_startproc
# %bb.0:                                # %entry
	pushq	%rbp
	.cfi_def_cfa_offset 16
	.cfi_offset %rbp, -16
	movq	%rsp, %rbp
	.cfi_def_cfa_register %rbp
	pushq	%rbx
	subq	$24, %rsp
	.cfi_offset %rbx, -24
	movl	$995967387, -28(%rbp)   # imm = 0x3B5D419B
	movq	%rdi, -24(%rbp)
	movb	$0, -9(%rbp)
.LBB62_1:                               # %while.body
                                        # =>This Inner Loop Header: Depth=1
	movq	-24(%rbp), %rax
	movq	(%rax), %rax
	cmpl	$0, 32(%rax)
	jne	.LBB62_3
# %bb.2:                                # %if.then
	jmp	.LBB62_8
.LBB62_3:                               # %if.end
                                        #   in Loop: Header=BB62_1 Depth=1
	movq	-24(%rbp), %rax
	movl	120(%rax), %eax
	movq	-24(%rbp), %rcx
	cmpl	116(%rcx), %eax
	jl	.LBB62_5
# %bb.4:                                # %if.then2
	jmp	.LBB62_8
.LBB62_5:                               # %if.end3
                                        #   in Loop: Header=BB62_1 Depth=1
	movb	$1, -9(%rbp)
	movq	-24(%rbp), %rax
	movq	80(%rax), %rax
	movq	-24(%rbp), %rcx
	movslq	120(%rcx), %rcx
	movb	(%rax,%rcx), %al
	movq	-24(%rbp), %rcx
	movq	(%rcx), %rcx
	movq	24(%rcx), %rcx
	movb	%al, (%rcx)
	movq	-24(%rbp), %rax
	movl	120(%rax), %ecx
	addl	$1, %ecx
	movl	%ecx, 120(%rax)
	movq	-24(%rbp), %rax
	movq	(%rax), %rax
	movl	32(%rax), %ecx
	addl	$-1, %ecx
	movl	%ecx, 32(%rax)
	movq	-24(%rbp), %rax
	movq	(%rax), %rax
	movq	24(%rax), %rcx
	addq	$1, %rcx
	movq	%rcx, 24(%rax)
	movq	-24(%rbp), %rax
	movq	(%rax), %rax
	movl	36(%rax), %ecx
	addl	$1, %ecx
	movl	%ecx, 36(%rax)
	movq	-24(%rbp), %rax
	movq	(%rax), %rax
	cmpl	$0, 36(%rax)
	jne	.LBB62_7
# %bb.6:                                # %if.then16
                                        #   in Loop: Header=BB62_1 Depth=1
	movq	-24(%rbp), %rax
	movq	(%rax), %rax
	movl	40(%rax), %ecx
	addl	$1, %ecx
	movl	%ecx, 40(%rax)
.LBB62_7:                               # %if.end19
                                        #   in Loop: Header=BB62_1 Depth=1
	jmp	.LBB62_1
.LBB62_8:                               # %while.end
	movb	-9(%rbp), %bl
	cmpl	$995967387, -28(%rbp)   # imm = 0x3B5D419B
	jne	.LBB62_10
.LBB62_9:
	movzbl	%bl, %eax
	addq	$24, %rsp
	popq	%rbx
	popq	%rbp
	.cfi_def_cfa %rsp, 8
	retq
.LBB62_10:                              # %func_exit
	.cfi_def_cfa %rbp, 16
	callq	detect_breach
	jmp	.LBB62_9
.Lfunc_end62:
	.size	copy_output_until_stop.22, .Lfunc_end62-copy_output_until_stop.22
	.cfi_endproc
                                        # -- End function
	.p2align	4, 0x90         # -- Begin function bzopen_or_bzdopen.23
	.type	bzopen_or_bzdopen.23,@function
bzopen_or_bzdopen.23:                   # @bzopen_or_bzdopen.23
	.cfi_startproc
# %bb.0:                                # %entry
	pushq	%rbp
	.cfi_def_cfa_offset 16
	.cfi_offset %rbp, -16
	movq	%rsp, %rbp
	.cfi_def_cfa_register %rbp
	pushq	%rbx
	subq	$5096, %rsp             # imm = 0x13E8
	.cfi_offset %rbx, -24
	movl	$870360641, -76(%rbp)   # imm = 0x33E0A641
	movq	%rdi, -64(%rbp)
	movl	%esi, -72(%rbp)
	movq	%rdx, -32(%rbp)
	movl	%ecx, -80(%rbp)
	movl	$9, -12(%rbp)
	movl	$0, -16(%rbp)
	leaq	-98(%rbp), %rdi
	xorl	%esi, %esi
	movl	$10, %edx
	callq	memset
	movq	$0, -24(%rbp)
	movq	$0, -48(%rbp)
	movl	$0, -40(%rbp)
	movl	$30, -84(%rbp)
	movl	$0, -36(%rbp)
	movl	$0, -88(%rbp)
	cmpq	$0, -32(%rbp)
	jne	.LBB63_2
# %bb.1:                                # %if.then
	movq	$0, -56(%rbp)
	jmp	.LBB63_39
.LBB63_2:                               # %if.end
	jmp	.LBB63_3
.LBB63_3:                               # %while.cond
                                        # =>This Inner Loop Header: Depth=1
	movq	-32(%rbp), %rax
	cmpb	$0, (%rax)
	je	.LBB63_14
# %bb.4:                                # %while.body
                                        #   in Loop: Header=BB63_3 Depth=1
	movq	-32(%rbp), %rax
	movsbl	(%rax), %eax
	movl	%eax, %ecx
	subl	$114, %ecx
	je	.LBB63_7
	jmp	.LBB63_5
.LBB63_5:                               # %while.body
                                        #   in Loop: Header=BB63_3 Depth=1
	movl	%eax, %ecx
	subl	$115, %ecx
	je	.LBB63_9
	jmp	.LBB63_6
.LBB63_6:                               # %while.body
                                        #   in Loop: Header=BB63_3 Depth=1
	subl	$119, %eax
	je	.LBB63_8
	jmp	.LBB63_10
.LBB63_7:                               # %sw.bb
                                        #   in Loop: Header=BB63_3 Depth=1
	movl	$0, -16(%rbp)
	jmp	.LBB63_13
.LBB63_8:                               # %sw.bb1
                                        #   in Loop: Header=BB63_3 Depth=1
	movl	$1, -16(%rbp)
	jmp	.LBB63_13
.LBB63_9:                               # %sw.bb2
                                        #   in Loop: Header=BB63_3 Depth=1
	movl	$1, -36(%rbp)
	jmp	.LBB63_13
.LBB63_10:                              # %sw.default
                                        #   in Loop: Header=BB63_3 Depth=1
	callq	__ctype_b_loc
	movq	(%rax), %rax
	movq	-32(%rbp), %rcx
	movsbl	(%rcx), %ecx
	movslq	%ecx, %rcx
	movzwl	(%rax,%rcx,2), %eax
	andl	$2048, %eax             # imm = 0x800
	cmpl	$0, %eax
	je	.LBB63_12
# %bb.11:                               # %if.then6
                                        #   in Loop: Header=BB63_3 Depth=1
	movq	-32(%rbp), %rax
	movsbl	(%rax), %eax
	subl	$48, %eax
	movl	%eax, -12(%rbp)
.LBB63_12:                              # %if.end8
                                        #   in Loop: Header=BB63_3 Depth=1
	jmp	.LBB63_13
.LBB63_13:                              # %sw.epilog
                                        #   in Loop: Header=BB63_3 Depth=1
	movq	-32(%rbp), %rax
	addq	$1, %rax
	movq	%rax, -32(%rbp)
	jmp	.LBB63_3
.LBB63_14:                              # %while.end
	leaq	-98(%rbp), %rdi
	movl	-16(%rbp), %eax
	cmpl	$0, %eax
	movabsq	$.L.str.6, %rax
	movabsq	$.L.str.7, %rsi
	cmovneq	%rax, %rsi
	callq	strcat
	leaq	-98(%rbp), %rdi
	movabsq	$.L.str.8, %rsi
	callq	strcat
	cmpl	$0, -80(%rbp)
	jne	.LBB63_23
# %bb.15:                               # %if.then15
	cmpq	$0, -64(%rbp)
	je	.LBB63_17
# %bb.16:                               # %lor.lhs.false
	movq	-64(%rbp), %rdi
	movl	$.L.str.9, %esi
	callq	strcmp
	cmpl	$0, %eax
	jne	.LBB63_21
.LBB63_17:                              # %if.then21
	cmpl	$0, -16(%rbp)
	je	.LBB63_19
# %bb.18:                               # %cond.true
	movq	stdout, %rax
	jmp	.LBB63_20
.LBB63_19:                              # %cond.false
	movq	stdin, %rax
.LBB63_20:                              # %cond.end
	movq	%rax, -24(%rbp)
	jmp	.LBB63_22
.LBB63_21:                              # %if.else
	leaq	-98(%rbp), %rsi
	movq	-64(%rbp), %rdi
	callq	fopen
	movq	%rax, -24(%rbp)
.LBB63_22:                              # %if.end26
	jmp	.LBB63_24
.LBB63_23:                              # %if.else27
	leaq	-98(%rbp), %rsi
	movl	-72(%rbp), %edi
	callq	fdopen
	movq	%rax, -24(%rbp)
.LBB63_24:                              # %if.end30
	cmpq	$0, -24(%rbp)
	jne	.LBB63_26
# %bb.25:                               # %if.then33
	movq	$0, -56(%rbp)
	jmp	.LBB63_39
.LBB63_26:                              # %if.end34
	cmpl	$0, -16(%rbp)
	je	.LBB63_32
# %bb.27:                               # %if.then36
	cmpl	$1, -12(%rbp)
	jge	.LBB63_29
# %bb.28:                               # %if.then39
	movl	$1, -12(%rbp)
.LBB63_29:                              # %if.end40
	cmpl	$9, -12(%rbp)
	jle	.LBB63_31
# %bb.30:                               # %if.then43
	movl	$9, -12(%rbp)
.LBB63_31:                              # %if.end44
	movq	-24(%rbp), %rsi
	movl	-12(%rbp), %edx
	movl	-40(%rbp), %ecx
	movl	-84(%rbp), %r8d
	leaq	-68(%rbp), %rdi
	callq	BZ2_bzWriteOpen
	movq	%rax, -48(%rbp)
	jmp	.LBB63_33
.LBB63_32:                              # %if.else46
	leaq	-5104(%rbp), %r8
	movq	-24(%rbp), %rsi
	movl	-40(%rbp), %edx
	movl	-36(%rbp), %ecx
	movl	-88(%rbp), %r9d
	leaq	-68(%rbp), %rdi
	callq	BZ2_bzReadOpen
	movq	%rax, -48(%rbp)
.LBB63_33:                              # %if.end49
	cmpq	$0, -48(%rbp)
	jne	.LBB63_38
# %bb.34:                               # %if.then52
	movq	-24(%rbp), %rax
	cmpq	stdin, %rax
	je	.LBB63_37
# %bb.35:                               # %land.lhs.true
	movq	-24(%rbp), %rax
	cmpq	stdout, %rax
	je	.LBB63_37
# %bb.36:                               # %if.then57
	movq	-24(%rbp), %rdi
	callq	fclose
.LBB63_37:                              # %if.end59
	movq	$0, -56(%rbp)
	jmp	.LBB63_39
.LBB63_38:                              # %if.end60
	movq	-48(%rbp), %rax
	movq	%rax, -56(%rbp)
.LBB63_39:                              # %return
	movq	-56(%rbp), %rbx
	cmpl	$870360641, -76(%rbp)   # imm = 0x33E0A641
	jne	.LBB63_41
.LBB63_40:
	movq	%rbx, %rax
	addq	$5096, %rsp             # imm = 0x13E8
	popq	%rbx
	popq	%rbp
	.cfi_def_cfa %rsp, 8
	retq
.LBB63_41:                              # %func_exit
	.cfi_def_cfa %rbp, 16
	callq	detect_breach
	jmp	.LBB63_40
.Lfunc_end63:
	.size	bzopen_or_bzdopen.23, .Lfunc_end63-bzopen_or_bzdopen.23
	.cfi_endproc
                                        # -- End function
	.globl	BZ2_bzReadGetUnused.24  # -- Begin function BZ2_bzReadGetUnused.24
	.p2align	4, 0x90
	.type	BZ2_bzReadGetUnused.24,@function
BZ2_bzReadGetUnused.24:                 # @BZ2_bzReadGetUnused.24
	.cfi_startproc
# %bb.0:                                # %entry
	pushq	%rbp
	.cfi_def_cfa_offset 16
	.cfi_offset %rbp, -16
	movq	%rsp, %rbp
	.cfi_def_cfa_register %rbp
	subq	$48, %rsp
	movl	$498654049, -20(%rbp)   # imm = 0x1DB8DB61
	movq	%rdi, -16(%rbp)
	movq	%rsi, -48(%rbp)
	movq	%rdx, -40(%rbp)
	movq	%rcx, -32(%rbp)
	movq	-48(%rbp), %rax
	movq	%rax, -8(%rbp)
	cmpq	$0, -8(%rbp)
	jne	.LBB64_6
# %bb.1:                                # %if.then
	cmpq	$0, -16(%rbp)
	je	.LBB64_3
# %bb.2:                                # %if.then2
	movq	-16(%rbp), %rax
	movl	$-2, (%rax)
.LBB64_3:                               # %if.end
	cmpq	$0, -8(%rbp)
	je	.LBB64_5
# %bb.4:                                # %if.then4
	movq	-8(%rbp), %rax
	movl	$-2, 5096(%rax)
.LBB64_5:                               # %if.end5
	jmp	.LBB64_24
.LBB64_6:                               # %if.end6
	movq	-8(%rbp), %rax
	cmpl	$4, 5096(%rax)
	je	.LBB64_12
# %bb.7:                                # %if.then9
	cmpq	$0, -16(%rbp)
	je	.LBB64_9
# %bb.8:                                # %if.then11
	movq	-16(%rbp), %rax
	movl	$-1, (%rax)
.LBB64_9:                               # %if.end12
	cmpq	$0, -8(%rbp)
	je	.LBB64_11
# %bb.10:                               # %if.then14
	movq	-8(%rbp), %rax
	movl	$-1, 5096(%rax)
.LBB64_11:                              # %if.end16
	jmp	.LBB64_24
.LBB64_12:                              # %if.end17
	cmpq	$0, -40(%rbp)
	je	.LBB64_14
# %bb.13:                               # %lor.lhs.false
	cmpq	$0, -32(%rbp)
	jne	.LBB64_19
.LBB64_14:                              # %if.then20
	cmpq	$0, -16(%rbp)
	je	.LBB64_16
# %bb.15:                               # %if.then22
	movq	-16(%rbp), %rax
	movl	$-2, (%rax)
.LBB64_16:                              # %if.end23
	cmpq	$0, -8(%rbp)
	je	.LBB64_18
# %bb.17:                               # %if.then25
	movq	-8(%rbp), %rax
	movl	$-2, 5096(%rax)
.LBB64_18:                              # %if.end27
	jmp	.LBB64_24
.LBB64_19:                              # %if.end28
	cmpq	$0, -16(%rbp)
	je	.LBB64_21
# %bb.20:                               # %if.then30
	movq	-16(%rbp), %rax
	movl	$0, (%rax)
.LBB64_21:                              # %if.end31
	cmpq	$0, -8(%rbp)
	je	.LBB64_23
# %bb.22:                               # %if.then33
	movq	-8(%rbp), %rax
	movl	$0, 5096(%rax)
.LBB64_23:                              # %if.end35
	movq	-8(%rbp), %rax
	movl	5024(%rax), %eax
	movq	-32(%rbp), %rcx
	movl	%eax, (%rcx)
	movq	-8(%rbp), %rax
	movq	5016(%rax), %rax
	movq	-40(%rbp), %rcx
	movq	%rax, (%rcx)
.LBB64_24:                              # %return
	cmpl	$498654049, -20(%rbp)   # imm = 0x1DB8DB61
	jne	.LBB64_26
.LBB64_25:
	addq	$48, %rsp
	popq	%rbp
	.cfi_def_cfa %rsp, 8
	retq
.LBB64_26:                              # %func_exit
	.cfi_def_cfa %rbp, 16
	callq	detect_breach
	jmp	.LBB64_25
.Lfunc_end64:
	.size	BZ2_bzReadGetUnused.24, .Lfunc_end64-BZ2_bzReadGetUnused.24
	.cfi_endproc
                                        # -- End function
	.p2align	4, 0x90         # -- Begin function add_pair_to_block.25
	.type	add_pair_to_block.25,@function
add_pair_to_block.25:                   # @add_pair_to_block.25
	.cfi_startproc
# %bb.0:                                # %entry
	pushq	%rbp
	.cfi_def_cfa_offset 16
	.cfi_offset %rbp, -16
	movq	%rsp, %rbp
	.cfi_def_cfa_register %rbp
	subq	$32, %rsp
	movl	$1192833403, -24(%rbp)  # imm = 0x4719317B
	movq	%rdi, -16(%rbp)
	movq	-16(%rbp), %rax
	movl	92(%rax), %eax
	movb	%al, -1(%rbp)
	movl	$0, -20(%rbp)
.LBB65_1:                               # %for.cond
                                        # =>This Inner Loop Header: Depth=1
	movl	-20(%rbp), %eax
	movq	-16(%rbp), %rcx
	cmpl	96(%rcx), %eax
	jge	.LBB65_4
# %bb.2:                                # %for.body
                                        #   in Loop: Header=BB65_1 Depth=1
	movq	-16(%rbp), %rax
	movl	648(%rax), %eax
	shll	$8, %eax
	movq	-16(%rbp), %rcx
	movl	648(%rcx), %ecx
	shrl	$24, %ecx
	movzbl	-1(%rbp), %edx
	xorl	%edx, %ecx
	movl	%ecx, %ecx
	xorl	BZ2_crc32Table(,%rcx,4), %eax
	movq	-16(%rbp), %rcx
	movl	%eax, 648(%rcx)
# %bb.3:                                # %for.inc
                                        #   in Loop: Header=BB65_1 Depth=1
	movl	-20(%rbp), %eax
	addl	$1, %eax
	movl	%eax, -20(%rbp)
	jmp	.LBB65_1
.LBB65_4:                               # %for.end
	movq	-16(%rbp), %rax
	movl	92(%rax), %ecx
	movb	$1, 128(%rax,%rcx)
	movq	-16(%rbp), %rax
	movl	96(%rax), %eax
	movl	%eax, %ecx
	subl	$1, %ecx
	je	.LBB65_7
	jmp	.LBB65_5
.LBB65_5:                               # %for.end
	movl	%eax, %ecx
	subl	$2, %ecx
	je	.LBB65_8
	jmp	.LBB65_6
.LBB65_6:                               # %for.end
	subl	$3, %eax
	je	.LBB65_9
	jmp	.LBB65_10
.LBB65_7:                               # %sw.bb
	movb	-1(%rbp), %al
	movq	-16(%rbp), %rcx
	movq	64(%rcx), %rcx
	movq	-16(%rbp), %rdx
	movslq	108(%rdx), %rdx
	movb	%al, (%rcx,%rdx)
	movq	-16(%rbp), %rax
	movl	108(%rax), %ecx
	addl	$1, %ecx
	movl	%ecx, 108(%rax)
	jmp	.LBB65_11
.LBB65_8:                               # %sw.bb14
	movb	-1(%rbp), %al
	movq	-16(%rbp), %rcx
	movq	64(%rcx), %rcx
	movq	-16(%rbp), %rdx
	movslq	108(%rdx), %rdx
	movb	%al, (%rcx,%rdx)
	movq	-16(%rbp), %rax
	movl	108(%rax), %ecx
	addl	$1, %ecx
	movl	%ecx, 108(%rax)
	movb	-1(%rbp), %al
	movq	-16(%rbp), %rcx
	movq	64(%rcx), %rcx
	movq	-16(%rbp), %rdx
	movslq	108(%rdx), %rdx
	movb	%al, (%rcx,%rdx)
	movq	-16(%rbp), %rax
	movl	108(%rax), %ecx
	addl	$1, %ecx
	movl	%ecx, 108(%rax)
	jmp	.LBB65_11
.LBB65_9:                               # %sw.bb27
	movb	-1(%rbp), %al
	movq	-16(%rbp), %rcx
	movq	64(%rcx), %rcx
	movq	-16(%rbp), %rdx
	movslq	108(%rdx), %rdx
	movb	%al, (%rcx,%rdx)
	movq	-16(%rbp), %rax
	movl	108(%rax), %ecx
	addl	$1, %ecx
	movl	%ecx, 108(%rax)
	movb	-1(%rbp), %al
	movq	-16(%rbp), %rcx
	movq	64(%rcx), %rcx
	movq	-16(%rbp), %rdx
	movslq	108(%rdx), %rdx
	movb	%al, (%rcx,%rdx)
	movq	-16(%rbp), %rax
	movl	108(%rax), %ecx
	addl	$1, %ecx
	movl	%ecx, 108(%rax)
	movb	-1(%rbp), %al
	movq	-16(%rbp), %rcx
	movq	64(%rcx), %rcx
	movq	-16(%rbp), %rdx
	movslq	108(%rdx), %rdx
	movb	%al, (%rcx,%rdx)
	movq	-16(%rbp), %rax
	movl	108(%rax), %ecx
	addl	$1, %ecx
	movl	%ecx, 108(%rax)
	jmp	.LBB65_11
.LBB65_10:                              # %sw.default
	movq	-16(%rbp), %rax
	movq	-16(%rbp), %rcx
	movl	96(%rcx), %ecx
	subl	$4, %ecx
	movslq	%ecx, %rcx
	movb	$1, 128(%rax,%rcx)
	movb	-1(%rbp), %al
	movq	-16(%rbp), %rcx
	movq	64(%rcx), %rcx
	movq	-16(%rbp), %rdx
	movslq	108(%rdx), %rdx
	movb	%al, (%rcx,%rdx)
	movq	-16(%rbp), %rax
	movl	108(%rax), %ecx
	addl	$1, %ecx
	movl	%ecx, 108(%rax)
	movb	-1(%rbp), %al
	movq	-16(%rbp), %rcx
	movq	64(%rcx), %rcx
	movq	-16(%rbp), %rdx
	movslq	108(%rdx), %rdx
	movb	%al, (%rcx,%rdx)
	movq	-16(%rbp), %rax
	movl	108(%rax), %ecx
	addl	$1, %ecx
	movl	%ecx, 108(%rax)
	movb	-1(%rbp), %al
	movq	-16(%rbp), %rcx
	movq	64(%rcx), %rcx
	movq	-16(%rbp), %rdx
	movslq	108(%rdx), %rdx
	movb	%al, (%rcx,%rdx)
	movq	-16(%rbp), %rax
	movl	108(%rax), %ecx
	addl	$1, %ecx
	movl	%ecx, 108(%rax)
	movb	-1(%rbp), %al
	movq	-16(%rbp), %rcx
	movq	64(%rcx), %rcx
	movq	-16(%rbp), %rdx
	movslq	108(%rdx), %rdx
	movb	%al, (%rcx,%rdx)
	movq	-16(%rbp), %rax
	movl	108(%rax), %ecx
	addl	$1, %ecx
	movl	%ecx, 108(%rax)
	movq	-16(%rbp), %rax
	movl	96(%rax), %eax
	subl	$4, %eax
	movq	-16(%rbp), %rcx
	movq	64(%rcx), %rcx
	movq	-16(%rbp), %rdx
	movslq	108(%rdx), %rdx
	movb	%al, (%rcx,%rdx)
	movq	-16(%rbp), %rax
	movl	108(%rax), %ecx
	addl	$1, %ecx
	movl	%ecx, 108(%rax)
.LBB65_11:                              # %sw.epilog
	cmpl	$1192833403, -24(%rbp)  # imm = 0x4719317B
	jne	.LBB65_13
.LBB65_12:
	addq	$32, %rsp
	popq	%rbp
	.cfi_def_cfa %rsp, 8
	retq
.LBB65_13:                              # %func_exit
	.cfi_def_cfa %rbp, 16
	callq	detect_breach
	jmp	.LBB65_12
.Lfunc_end65:
	.size	add_pair_to_block.25, .Lfunc_end65-add_pair_to_block.25
	.cfi_endproc
                                        # -- End function
	.p2align	4, 0x90         # -- Begin function unRLE_obuf_to_output_SMALL.26
	.type	unRLE_obuf_to_output_SMALL.26,@function
unRLE_obuf_to_output_SMALL.26:          # @unRLE_obuf_to_output_SMALL.26
	.cfi_startproc
# %bb.0:                                # %entry
	pushq	%rbp
	.cfi_def_cfa_offset 16
	.cfi_offset %rbp, -16
	movq	%rsp, %rbp
	.cfi_def_cfa_register %rbp
	pushq	%rbx
	subq	$24, %rsp
	.cfi_offset %rbx, -24
	movl	$980260568, -32(%rbp)   # imm = 0x3A6D96D8
	movq	%rdi, -24(%rbp)
	movq	-24(%rbp), %rax
	cmpb	$0, 20(%rax)
	je	.LBB66_48
# %bb.1:                                # %if.then
	jmp	.LBB66_2
.LBB66_2:                               # %while.body
                                        # =>This Loop Header: Depth=1
                                        #     Child Loop BB66_3 Depth 2
	jmp	.LBB66_3
.LBB66_3:                               # %while.body2
                                        #   Parent Loop BB66_2 Depth=1
                                        # =>  This Inner Loop Header: Depth=2
	movq	-24(%rbp), %rax
	movq	(%rax), %rax
	cmpl	$0, 32(%rax)
	jne	.LBB66_5
# %bb.4:                                # %if.then3
	movb	$0, -25(%rbp)
	jmp	.LBB66_75
.LBB66_5:                               # %if.end
                                        #   in Loop: Header=BB66_3 Depth=2
	movq	-24(%rbp), %rax
	cmpl	$0, 16(%rax)
	jne	.LBB66_7
# %bb.6:                                # %if.then5
                                        #   in Loop: Header=BB66_2 Depth=1
	jmp	.LBB66_10
.LBB66_7:                               # %if.end6
                                        #   in Loop: Header=BB66_3 Depth=2
	movq	-24(%rbp), %rax
	movb	12(%rax), %al
	movq	-24(%rbp), %rcx
	movq	(%rcx), %rcx
	movq	24(%rcx), %rcx
	movb	%al, (%rcx)
	movq	-24(%rbp), %rax
	movl	3184(%rax), %eax
	shll	$8, %eax
	movq	-24(%rbp), %rcx
	movl	3184(%rcx), %ecx
	shrl	$24, %ecx
	movq	-24(%rbp), %rdx
	movzbl	12(%rdx), %edx
	xorl	%edx, %ecx
	movl	%ecx, %ecx
	xorl	BZ2_crc32Table(,%rcx,4), %eax
	movq	-24(%rbp), %rcx
	movl	%eax, 3184(%rcx)
	movq	-24(%rbp), %rax
	movl	16(%rax), %ecx
	addl	$-1, %ecx
	movl	%ecx, 16(%rax)
	movq	-24(%rbp), %rax
	movq	(%rax), %rax
	movq	24(%rax), %rcx
	addq	$1, %rcx
	movq	%rcx, 24(%rax)
	movq	-24(%rbp), %rax
	movq	(%rax), %rax
	movl	32(%rax), %ecx
	addl	$-1, %ecx
	movl	%ecx, 32(%rax)
	movq	-24(%rbp), %rax
	movq	(%rax), %rax
	movl	36(%rax), %ecx
	addl	$1, %ecx
	movl	%ecx, 36(%rax)
	movq	-24(%rbp), %rax
	movq	(%rax), %rax
	cmpl	$0, 36(%rax)
	jne	.LBB66_9
# %bb.8:                                # %if.then23
                                        #   in Loop: Header=BB66_3 Depth=2
	movq	-24(%rbp), %rax
	movq	(%rax), %rax
	movl	40(%rax), %ecx
	addl	$1, %ecx
	movl	%ecx, 40(%rax)
.LBB66_9:                               # %if.end26
                                        #   in Loop: Header=BB66_3 Depth=2
	jmp	.LBB66_3
.LBB66_10:                              # %while.end
                                        #   in Loop: Header=BB66_2 Depth=1
	movq	-24(%rbp), %rax
	movl	1092(%rax), %eax
	movq	-24(%rbp), %rcx
	movl	64080(%rcx), %ecx
	addl	$1, %ecx
	cmpl	%ecx, %eax
	jne	.LBB66_12
# %bb.11:                               # %if.then29
	movb	$0, -25(%rbp)
	jmp	.LBB66_75
.LBB66_12:                              # %if.end30
                                        #   in Loop: Header=BB66_2 Depth=1
	movq	-24(%rbp), %rax
	movl	1092(%rax), %eax
	movq	-24(%rbp), %rcx
	movl	64080(%rcx), %ecx
	addl	$1, %ecx
	cmpl	%ecx, %eax
	jle	.LBB66_14
# %bb.13:                               # %if.then36
	movb	$1, -25(%rbp)
	jmp	.LBB66_75
.LBB66_14:                              # %if.end37
                                        #   in Loop: Header=BB66_2 Depth=1
	movq	-24(%rbp), %rax
	movl	$1, 16(%rax)
	movq	-24(%rbp), %rax
	movl	64(%rax), %eax
	movq	-24(%rbp), %rcx
	movb	%al, 12(%rcx)
	movq	-24(%rbp), %rax
	movl	60(%rax), %edi
	movq	-24(%rbp), %rsi
	addq	$1096, %rsi             # imm = 0x448
	callq	BZ2_indexIntoF
	movb	%al, -9(%rbp)
	movq	-24(%rbp), %rax
	movq	3160(%rax), %rax
	movq	-24(%rbp), %rcx
	movl	60(%rcx), %ecx
	movzwl	(%rax,%rcx,2), %eax
	movq	-24(%rbp), %rcx
	movq	3168(%rcx), %rcx
	movq	-24(%rbp), %rdx
	movl	60(%rdx), %edx
	shrl	$1, %edx
	movl	%edx, %edx
	movzbl	(%rcx,%rdx), %edx
	movq	-24(%rbp), %rcx
	movl	60(%rcx), %ecx
	shll	$2, %ecx
	andl	$4, %ecx
                                        # kill: def $cl killed $ecx
	shrl	%cl, %edx
	andl	$15, %edx
	shll	$16, %edx
	orl	%edx, %eax
	movq	-24(%rbp), %rcx
	movl	%eax, 60(%rcx)
	movq	-24(%rbp), %rax
	cmpl	$0, 24(%rax)
	jne	.LBB66_18
# %bb.15:                               # %if.then59
                                        #   in Loop: Header=BB66_2 Depth=1
	movq	-24(%rbp), %rax
	movslq	28(%rax), %rax
	movl	BZ2_rNums(,%rax,4), %eax
	movq	-24(%rbp), %rcx
	movl	%eax, 24(%rcx)
	movq	-24(%rbp), %rax
	movl	28(%rax), %ecx
	addl	$1, %ecx
	movl	%ecx, 28(%rax)
	movq	-24(%rbp), %rax
	cmpl	$512, 28(%rax)          # imm = 0x200
	jne	.LBB66_17
# %bb.16:                               # %if.then68
                                        #   in Loop: Header=BB66_2 Depth=1
	movq	-24(%rbp), %rax
	movl	$0, 28(%rax)
.LBB66_17:                              # %if.end70
                                        #   in Loop: Header=BB66_2 Depth=1
	jmp	.LBB66_18
.LBB66_18:                              # %if.end71
                                        #   in Loop: Header=BB66_2 Depth=1
	xorl	%eax, %eax
	movq	-24(%rbp), %rcx
	movl	24(%rcx), %edx
	addl	$-1, %edx
	movl	%edx, 24(%rcx)
	movq	-24(%rbp), %rcx
	movl	24(%rcx), %ecx
	cmpl	$1, %ecx
	movl	$1, %ecx
	cmovel	%ecx, %eax
	movzbl	-9(%rbp), %ecx
	xorl	%eax, %ecx
	movb	%cl, -9(%rbp)
	movq	-24(%rbp), %rax
	movl	1092(%rax), %ecx
	addl	$1, %ecx
	movl	%ecx, 1092(%rax)
	movq	-24(%rbp), %rax
	movl	1092(%rax), %eax
	movq	-24(%rbp), %rcx
	movl	64080(%rcx), %ecx
	addl	$1, %ecx
	cmpl	%ecx, %eax
	jne	.LBB66_21
# %bb.19:                               # %if.then87
                                        #   in Loop: Header=BB66_2 Depth=1
	jmp	.LBB66_20
.LBB66_20:                              # %while.body.backedge
                                        #   in Loop: Header=BB66_2 Depth=1
	jmp	.LBB66_2
.LBB66_21:                              # %if.end88
                                        #   in Loop: Header=BB66_2 Depth=1
	movzbl	-9(%rbp), %eax
	movq	-24(%rbp), %rcx
	cmpl	64(%rcx), %eax
	je	.LBB66_23
# %bb.22:                               # %if.then93
                                        #   in Loop: Header=BB66_2 Depth=1
	movzbl	-9(%rbp), %eax
	movq	-24(%rbp), %rcx
	movl	%eax, 64(%rcx)
	jmp	.LBB66_20
.LBB66_23:                              # %if.end96
                                        #   in Loop: Header=BB66_2 Depth=1
	movq	-24(%rbp), %rax
	movl	$2, 16(%rax)
	movq	-24(%rbp), %rax
	movl	60(%rax), %edi
	movq	-24(%rbp), %rsi
	addq	$1096, %rsi             # imm = 0x448
	callq	BZ2_indexIntoF
	movb	%al, -9(%rbp)
	movq	-24(%rbp), %rax
	movq	3160(%rax), %rax
	movq	-24(%rbp), %rcx
	movl	60(%rcx), %ecx
	movzwl	(%rax,%rcx,2), %eax
	movq	-24(%rbp), %rcx
	movq	3168(%rcx), %rcx
	movq	-24(%rbp), %rdx
	movl	60(%rdx), %edx
	shrl	$1, %edx
	movl	%edx, %edx
	movzbl	(%rcx,%rdx), %edx
	movq	-24(%rbp), %rcx
	movl	60(%rcx), %ecx
	shll	$2, %ecx
	andl	$4, %ecx
                                        # kill: def $cl killed $ecx
	shrl	%cl, %edx
	andl	$15, %edx
	shll	$16, %edx
	orl	%edx, %eax
	movq	-24(%rbp), %rcx
	movl	%eax, 60(%rcx)
	movq	-24(%rbp), %rax
	cmpl	$0, 24(%rax)
	jne	.LBB66_27
# %bb.24:                               # %if.then125
                                        #   in Loop: Header=BB66_2 Depth=1
	movq	-24(%rbp), %rax
	movslq	28(%rax), %rax
	movl	BZ2_rNums(,%rax,4), %eax
	movq	-24(%rbp), %rcx
	movl	%eax, 24(%rcx)
	movq	-24(%rbp), %rax
	movl	28(%rax), %ecx
	addl	$1, %ecx
	movl	%ecx, 28(%rax)
	movq	-24(%rbp), %rax
	cmpl	$512, 28(%rax)          # imm = 0x200
	jne	.LBB66_26
# %bb.25:                               # %if.then135
                                        #   in Loop: Header=BB66_2 Depth=1
	movq	-24(%rbp), %rax
	movl	$0, 28(%rax)
.LBB66_26:                              # %if.end137
                                        #   in Loop: Header=BB66_2 Depth=1
	jmp	.LBB66_27
.LBB66_27:                              # %if.end138
                                        #   in Loop: Header=BB66_2 Depth=1
	xorl	%eax, %eax
	movq	-24(%rbp), %rcx
	movl	24(%rcx), %edx
	addl	$-1, %edx
	movl	%edx, 24(%rcx)
	movq	-24(%rbp), %rcx
	movl	24(%rcx), %ecx
	cmpl	$1, %ecx
	movl	$1, %ecx
	cmovel	%ecx, %eax
	movzbl	-9(%rbp), %ecx
	xorl	%eax, %ecx
	movb	%cl, -9(%rbp)
	movq	-24(%rbp), %rax
	movl	1092(%rax), %ecx
	addl	$1, %ecx
	movl	%ecx, 1092(%rax)
	movq	-24(%rbp), %rax
	movl	1092(%rax), %eax
	movq	-24(%rbp), %rcx
	movl	64080(%rcx), %ecx
	addl	$1, %ecx
	cmpl	%ecx, %eax
	jne	.LBB66_29
# %bb.28:                               # %if.then155
                                        #   in Loop: Header=BB66_2 Depth=1
	jmp	.LBB66_20
.LBB66_29:                              # %if.end156
                                        #   in Loop: Header=BB66_2 Depth=1
	movzbl	-9(%rbp), %eax
	movq	-24(%rbp), %rcx
	cmpl	64(%rcx), %eax
	je	.LBB66_31
# %bb.30:                               # %if.then161
                                        #   in Loop: Header=BB66_2 Depth=1
	movzbl	-9(%rbp), %eax
	movq	-24(%rbp), %rcx
	movl	%eax, 64(%rcx)
	jmp	.LBB66_20
.LBB66_31:                              # %if.end164
                                        #   in Loop: Header=BB66_2 Depth=1
	movq	-24(%rbp), %rax
	movl	$3, 16(%rax)
	movq	-24(%rbp), %rax
	movl	60(%rax), %edi
	movq	-24(%rbp), %rsi
	addq	$1096, %rsi             # imm = 0x448
	callq	BZ2_indexIntoF
	movb	%al, -9(%rbp)
	movq	-24(%rbp), %rax
	movq	3160(%rax), %rax
	movq	-24(%rbp), %rcx
	movl	60(%rcx), %ecx
	movzwl	(%rax,%rcx,2), %eax
	movq	-24(%rbp), %rcx
	movq	3168(%rcx), %rcx
	movq	-24(%rbp), %rdx
	movl	60(%rdx), %edx
	shrl	$1, %edx
	movl	%edx, %edx
	movzbl	(%rcx,%rdx), %edx
	movq	-24(%rbp), %rcx
	movl	60(%rcx), %ecx
	shll	$2, %ecx
	andl	$4, %ecx
                                        # kill: def $cl killed $ecx
	shrl	%cl, %edx
	andl	$15, %edx
	shll	$16, %edx
	orl	%edx, %eax
	movq	-24(%rbp), %rcx
	movl	%eax, 60(%rcx)
	movq	-24(%rbp), %rax
	cmpl	$0, 24(%rax)
	jne	.LBB66_35
# %bb.32:                               # %if.then193
                                        #   in Loop: Header=BB66_2 Depth=1
	movq	-24(%rbp), %rax
	movslq	28(%rax), %rax
	movl	BZ2_rNums(,%rax,4), %eax
	movq	-24(%rbp), %rcx
	movl	%eax, 24(%rcx)
	movq	-24(%rbp), %rax
	movl	28(%rax), %ecx
	addl	$1, %ecx
	movl	%ecx, 28(%rax)
	movq	-24(%rbp), %rax
	cmpl	$512, 28(%rax)          # imm = 0x200
	jne	.LBB66_34
# %bb.33:                               # %if.then203
                                        #   in Loop: Header=BB66_2 Depth=1
	movq	-24(%rbp), %rax
	movl	$0, 28(%rax)
.LBB66_34:                              # %if.end205
                                        #   in Loop: Header=BB66_2 Depth=1
	jmp	.LBB66_35
.LBB66_35:                              # %if.end206
                                        #   in Loop: Header=BB66_2 Depth=1
	xorl	%eax, %eax
	movq	-24(%rbp), %rcx
	movl	24(%rcx), %edx
	addl	$-1, %edx
	movl	%edx, 24(%rcx)
	movq	-24(%rbp), %rcx
	movl	24(%rcx), %ecx
	cmpl	$1, %ecx
	movl	$1, %ecx
	cmovel	%ecx, %eax
	movzbl	-9(%rbp), %ecx
	xorl	%eax, %ecx
	movb	%cl, -9(%rbp)
	movq	-24(%rbp), %rax
	movl	1092(%rax), %ecx
	addl	$1, %ecx
	movl	%ecx, 1092(%rax)
	movq	-24(%rbp), %rax
	movl	1092(%rax), %eax
	movq	-24(%rbp), %rcx
	movl	64080(%rcx), %ecx
	addl	$1, %ecx
	cmpl	%ecx, %eax
	jne	.LBB66_37
# %bb.36:                               # %if.then223
                                        #   in Loop: Header=BB66_2 Depth=1
	jmp	.LBB66_20
.LBB66_37:                              # %if.end224
                                        #   in Loop: Header=BB66_2 Depth=1
	movzbl	-9(%rbp), %eax
	movq	-24(%rbp), %rcx
	cmpl	64(%rcx), %eax
	je	.LBB66_39
# %bb.38:                               # %if.then229
                                        #   in Loop: Header=BB66_2 Depth=1
	movzbl	-9(%rbp), %eax
	movq	-24(%rbp), %rcx
	movl	%eax, 64(%rcx)
	jmp	.LBB66_20
.LBB66_39:                              # %if.end232
                                        #   in Loop: Header=BB66_2 Depth=1
	movq	-24(%rbp), %rax
	movl	60(%rax), %edi
	movq	-24(%rbp), %rsi
	addq	$1096, %rsi             # imm = 0x448
	callq	BZ2_indexIntoF
	movb	%al, -9(%rbp)
	movq	-24(%rbp), %rax
	movq	3160(%rax), %rax
	movq	-24(%rbp), %rcx
	movl	60(%rcx), %ecx
	movzwl	(%rax,%rcx,2), %eax
	movq	-24(%rbp), %rcx
	movq	3168(%rcx), %rcx
	movq	-24(%rbp), %rdx
	movl	60(%rdx), %edx
	shrl	$1, %edx
	movl	%edx, %edx
	movzbl	(%rcx,%rdx), %edx
	movq	-24(%rbp), %rcx
	movl	60(%rcx), %ecx
	shll	$2, %ecx
	andl	$4, %ecx
                                        # kill: def $cl killed $ecx
	shrl	%cl, %edx
	andl	$15, %edx
	shll	$16, %edx
	orl	%edx, %eax
	movq	-24(%rbp), %rcx
	movl	%eax, 60(%rcx)
	movq	-24(%rbp), %rax
	cmpl	$0, 24(%rax)
	jne	.LBB66_43
# %bb.40:                               # %if.then260
                                        #   in Loop: Header=BB66_2 Depth=1
	movq	-24(%rbp), %rax
	movslq	28(%rax), %rax
	movl	BZ2_rNums(,%rax,4), %eax
	movq	-24(%rbp), %rcx
	movl	%eax, 24(%rcx)
	movq	-24(%rbp), %rax
	movl	28(%rax), %ecx
	addl	$1, %ecx
	movl	%ecx, 28(%rax)
	movq	-24(%rbp), %rax
	cmpl	$512, 28(%rax)          # imm = 0x200
	jne	.LBB66_42
# %bb.41:                               # %if.then270
                                        #   in Loop: Header=BB66_2 Depth=1
	movq	-24(%rbp), %rax
	movl	$0, 28(%rax)
.LBB66_42:                              # %if.end272
                                        #   in Loop: Header=BB66_2 Depth=1
	jmp	.LBB66_43
.LBB66_43:                              # %if.end273
                                        #   in Loop: Header=BB66_2 Depth=1
	xorl	%eax, %eax
	movq	-24(%rbp), %rcx
	movl	24(%rcx), %edx
	addl	$-1, %edx
	movl	%edx, 24(%rcx)
	movq	-24(%rbp), %rcx
	movl	24(%rcx), %ecx
	cmpl	$1, %ecx
	movl	$1, %ecx
	cmovel	%ecx, %eax
	movzbl	-9(%rbp), %ecx
	xorl	%eax, %ecx
	movb	%cl, -9(%rbp)
	movq	-24(%rbp), %rax
	movl	1092(%rax), %ecx
	addl	$1, %ecx
	movl	%ecx, 1092(%rax)
	movzbl	-9(%rbp), %eax
	addl	$4, %eax
	movq	-24(%rbp), %rcx
	movl	%eax, 16(%rcx)
	movq	-24(%rbp), %rax
	movl	60(%rax), %edi
	movq	-24(%rbp), %rsi
	addq	$1096, %rsi             # imm = 0x448
	callq	BZ2_indexIntoF
	movq	-24(%rbp), %rcx
	movl	%eax, 64(%rcx)
	movq	-24(%rbp), %rax
	movq	3160(%rax), %rax
	movq	-24(%rbp), %rcx
	movl	60(%rcx), %ecx
	movzwl	(%rax,%rcx,2), %eax
	movq	-24(%rbp), %rcx
	movq	3168(%rcx), %rcx
	movq	-24(%rbp), %rdx
	movl	60(%rdx), %edx
	shrl	$1, %edx
	movl	%edx, %edx
	movzbl	(%rcx,%rdx), %edx
	movq	-24(%rbp), %rcx
	movl	60(%rcx), %ecx
	shll	$2, %ecx
	andl	$4, %ecx
                                        # kill: def $cl killed $ecx
	shrl	%cl, %edx
	andl	$15, %edx
	shll	$16, %edx
	orl	%edx, %eax
	movq	-24(%rbp), %rcx
	movl	%eax, 60(%rcx)
	movq	-24(%rbp), %rax
	cmpl	$0, 24(%rax)
	jne	.LBB66_47
# %bb.44:                               # %if.then315
                                        #   in Loop: Header=BB66_2 Depth=1
	movq	-24(%rbp), %rax
	movslq	28(%rax), %rax
	movl	BZ2_rNums(,%rax,4), %eax
	movq	-24(%rbp), %rcx
	movl	%eax, 24(%rcx)
	movq	-24(%rbp), %rax
	movl	28(%rax), %ecx
	addl	$1, %ecx
	movl	%ecx, 28(%rax)
	movq	-24(%rbp), %rax
	cmpl	$512, 28(%rax)          # imm = 0x200
	jne	.LBB66_46
# %bb.45:                               # %if.then325
                                        #   in Loop: Header=BB66_2 Depth=1
	movq	-24(%rbp), %rax
	movl	$0, 28(%rax)
.LBB66_46:                              # %if.end327
                                        #   in Loop: Header=BB66_2 Depth=1
	jmp	.LBB66_47
.LBB66_47:                              # %if.end328
                                        #   in Loop: Header=BB66_2 Depth=1
	xorl	%eax, %eax
	movq	-24(%rbp), %rcx
	movl	24(%rcx), %edx
	addl	$-1, %edx
	movl	%edx, 24(%rcx)
	movq	-24(%rbp), %rcx
	movl	24(%rcx), %ecx
	cmpl	$1, %ecx
	movl	$1, %ecx
	cmovel	%ecx, %eax
	movq	-24(%rbp), %rcx
	xorl	64(%rcx), %eax
	movl	%eax, 64(%rcx)
	movq	-24(%rbp), %rax
	movl	1092(%rax), %ecx
	addl	$1, %ecx
	movl	%ecx, 1092(%rax)
	jmp	.LBB66_20
.LBB66_48:                              # %if.else
	jmp	.LBB66_49
.LBB66_49:                              # %while.body339
                                        # =>This Loop Header: Depth=1
                                        #     Child Loop BB66_50 Depth 2
	jmp	.LBB66_50
.LBB66_50:                              # %while.body341
                                        #   Parent Loop BB66_49 Depth=1
                                        # =>  This Inner Loop Header: Depth=2
	movq	-24(%rbp), %rax
	movq	(%rax), %rax
	cmpl	$0, 32(%rax)
	jne	.LBB66_52
# %bb.51:                               # %if.then346
	movb	$0, -25(%rbp)
	jmp	.LBB66_75
.LBB66_52:                              # %if.end347
                                        #   in Loop: Header=BB66_50 Depth=2
	movq	-24(%rbp), %rax
	cmpl	$0, 16(%rax)
	jne	.LBB66_54
# %bb.53:                               # %if.then351
                                        #   in Loop: Header=BB66_49 Depth=1
	jmp	.LBB66_57
.LBB66_54:                              # %if.end352
                                        #   in Loop: Header=BB66_50 Depth=2
	movq	-24(%rbp), %rax
	movb	12(%rax), %al
	movq	-24(%rbp), %rcx
	movq	(%rcx), %rcx
	movq	24(%rcx), %rcx
	movb	%al, (%rcx)
	movq	-24(%rbp), %rax
	movl	3184(%rax), %eax
	shll	$8, %eax
	movq	-24(%rbp), %rcx
	movl	3184(%rcx), %ecx
	shrl	$24, %ecx
	movq	-24(%rbp), %rdx
	movzbl	12(%rdx), %edx
	xorl	%edx, %ecx
	movl	%ecx, %ecx
	xorl	BZ2_crc32Table(,%rcx,4), %eax
	movq	-24(%rbp), %rcx
	movl	%eax, 3184(%rcx)
	movq	-24(%rbp), %rax
	movl	16(%rax), %ecx
	addl	$-1, %ecx
	movl	%ecx, 16(%rax)
	movq	-24(%rbp), %rax
	movq	(%rax), %rax
	movq	24(%rax), %rcx
	addq	$1, %rcx
	movq	%rcx, 24(%rax)
	movq	-24(%rbp), %rax
	movq	(%rax), %rax
	movl	32(%rax), %ecx
	addl	$-1, %ecx
	movl	%ecx, 32(%rax)
	movq	-24(%rbp), %rax
	movq	(%rax), %rax
	movl	36(%rax), %ecx
	addl	$1, %ecx
	movl	%ecx, 36(%rax)
	movq	-24(%rbp), %rax
	movq	(%rax), %rax
	cmpl	$0, 36(%rax)
	jne	.LBB66_56
# %bb.55:                               # %if.then382
                                        #   in Loop: Header=BB66_50 Depth=2
	movq	-24(%rbp), %rax
	movq	(%rax), %rax
	movl	40(%rax), %ecx
	addl	$1, %ecx
	movl	%ecx, 40(%rax)
.LBB66_56:                              # %if.end386
                                        #   in Loop: Header=BB66_50 Depth=2
	jmp	.LBB66_50
.LBB66_57:                              # %while.end387
                                        #   in Loop: Header=BB66_49 Depth=1
	movq	-24(%rbp), %rax
	movl	1092(%rax), %eax
	movq	-24(%rbp), %rcx
	movl	64080(%rcx), %ecx
	addl	$1, %ecx
	cmpl	%ecx, %eax
	jne	.LBB66_59
# %bb.58:                               # %if.then393
	movb	$0, -25(%rbp)
	jmp	.LBB66_75
.LBB66_59:                              # %if.end394
                                        #   in Loop: Header=BB66_49 Depth=1
	movq	-24(%rbp), %rax
	movl	1092(%rax), %eax
	movq	-24(%rbp), %rcx
	movl	64080(%rcx), %ecx
	addl	$1, %ecx
	cmpl	%ecx, %eax
	jle	.LBB66_61
# %bb.60:                               # %if.then400
	movb	$1, -25(%rbp)
	jmp	.LBB66_75
.LBB66_61:                              # %if.end401
                                        #   in Loop: Header=BB66_49 Depth=1
	movq	-24(%rbp), %rax
	movl	$1, 16(%rax)
	movq	-24(%rbp), %rax
	movl	64(%rax), %eax
	movq	-24(%rbp), %rcx
	movb	%al, 12(%rcx)
	movq	-24(%rbp), %rax
	movl	60(%rax), %edi
	movq	-24(%rbp), %rsi
	addq	$1096, %rsi             # imm = 0x448
	callq	BZ2_indexIntoF
	movb	%al, -9(%rbp)
	movq	-24(%rbp), %rax
	movq	3160(%rax), %rax
	movq	-24(%rbp), %rcx
	movl	60(%rcx), %ecx
	movzwl	(%rax,%rcx,2), %eax
	movq	-24(%rbp), %rcx
	movq	3168(%rcx), %rcx
	movq	-24(%rbp), %rdx
	movl	60(%rdx), %edx
	shrl	$1, %edx
	movl	%edx, %edx
	movzbl	(%rcx,%rdx), %edx
	movq	-24(%rbp), %rcx
	movl	60(%rcx), %ecx
	shll	$2, %ecx
	andl	$4, %ecx
                                        # kill: def $cl killed $ecx
	shrl	%cl, %edx
	andl	$15, %edx
	shll	$16, %edx
	orl	%edx, %eax
	movq	-24(%rbp), %rcx
	movl	%eax, 60(%rcx)
	movq	-24(%rbp), %rax
	movl	1092(%rax), %ecx
	addl	$1, %ecx
	movl	%ecx, 1092(%rax)
	movq	-24(%rbp), %rax
	movl	1092(%rax), %eax
	movq	-24(%rbp), %rcx
	movl	64080(%rcx), %ecx
	addl	$1, %ecx
	cmpl	%ecx, %eax
	jne	.LBB66_64
# %bb.62:                               # %if.then437
                                        #   in Loop: Header=BB66_49 Depth=1
	jmp	.LBB66_63
.LBB66_63:                              # %while.body339.backedge
                                        #   in Loop: Header=BB66_49 Depth=1
	jmp	.LBB66_49
.LBB66_64:                              # %if.end438
                                        #   in Loop: Header=BB66_49 Depth=1
	movzbl	-9(%rbp), %eax
	movq	-24(%rbp), %rcx
	cmpl	64(%rcx), %eax
	je	.LBB66_66
# %bb.65:                               # %if.then443
                                        #   in Loop: Header=BB66_49 Depth=1
	movzbl	-9(%rbp), %eax
	movq	-24(%rbp), %rcx
	movl	%eax, 64(%rcx)
	jmp	.LBB66_63
.LBB66_66:                              # %if.end446
                                        #   in Loop: Header=BB66_49 Depth=1
	movq	-24(%rbp), %rax
	movl	$2, 16(%rax)
	movq	-24(%rbp), %rax
	movl	60(%rax), %edi
	movq	-24(%rbp), %rsi
	addq	$1096, %rsi             # imm = 0x448
	callq	BZ2_indexIntoF
	movb	%al, -9(%rbp)
	movq	-24(%rbp), %rax
	movq	3160(%rax), %rax
	movq	-24(%rbp), %rcx
	movl	60(%rcx), %ecx
	movzwl	(%rax,%rcx,2), %eax
	movq	-24(%rbp), %rcx
	movq	3168(%rcx), %rcx
	movq	-24(%rbp), %rdx
	movl	60(%rdx), %edx
	shrl	$1, %edx
	movl	%edx, %edx
	movzbl	(%rcx,%rdx), %edx
	movq	-24(%rbp), %rcx
	movl	60(%rcx), %ecx
	shll	$2, %ecx
	andl	$4, %ecx
                                        # kill: def $cl killed $ecx
	shrl	%cl, %edx
	andl	$15, %edx
	shll	$16, %edx
	orl	%edx, %eax
	movq	-24(%rbp), %rcx
	movl	%eax, 60(%rcx)
	movq	-24(%rbp), %rax
	movl	1092(%rax), %ecx
	addl	$1, %ecx
	movl	%ecx, 1092(%rax)
	movq	-24(%rbp), %rax
	movl	1092(%rax), %eax
	movq	-24(%rbp), %rcx
	movl	64080(%rcx), %ecx
	addl	$1, %ecx
	cmpl	%ecx, %eax
	jne	.LBB66_68
# %bb.67:                               # %if.then479
                                        #   in Loop: Header=BB66_49 Depth=1
	jmp	.LBB66_63
.LBB66_68:                              # %if.end480
                                        #   in Loop: Header=BB66_49 Depth=1
	movzbl	-9(%rbp), %eax
	movq	-24(%rbp), %rcx
	cmpl	64(%rcx), %eax
	je	.LBB66_70
# %bb.69:                               # %if.then485
                                        #   in Loop: Header=BB66_49 Depth=1
	movzbl	-9(%rbp), %eax
	movq	-24(%rbp), %rcx
	movl	%eax, 64(%rcx)
	jmp	.LBB66_63
.LBB66_70:                              # %if.end488
                                        #   in Loop: Header=BB66_49 Depth=1
	movq	-24(%rbp), %rax
	movl	$3, 16(%rax)
	movq	-24(%rbp), %rax
	movl	60(%rax), %edi
	movq	-24(%rbp), %rsi
	addq	$1096, %rsi             # imm = 0x448
	callq	BZ2_indexIntoF
	movb	%al, -9(%rbp)
	movq	-24(%rbp), %rax
	movq	3160(%rax), %rax
	movq	-24(%rbp), %rcx
	movl	60(%rcx), %ecx
	movzwl	(%rax,%rcx,2), %eax
	movq	-24(%rbp), %rcx
	movq	3168(%rcx), %rcx
	movq	-24(%rbp), %rdx
	movl	60(%rdx), %edx
	shrl	$1, %edx
	movl	%edx, %edx
	movzbl	(%rcx,%rdx), %edx
	movq	-24(%rbp), %rcx
	movl	60(%rcx), %ecx
	shll	$2, %ecx
	andl	$4, %ecx
                                        # kill: def $cl killed $ecx
	shrl	%cl, %edx
	andl	$15, %edx
	shll	$16, %edx
	orl	%edx, %eax
	movq	-24(%rbp), %rcx
	movl	%eax, 60(%rcx)
	movq	-24(%rbp), %rax
	movl	1092(%rax), %ecx
	addl	$1, %ecx
	movl	%ecx, 1092(%rax)
	movq	-24(%rbp), %rax
	movl	1092(%rax), %eax
	movq	-24(%rbp), %rcx
	movl	64080(%rcx), %ecx
	addl	$1, %ecx
	cmpl	%ecx, %eax
	jne	.LBB66_72
# %bb.71:                               # %if.then521
                                        #   in Loop: Header=BB66_49 Depth=1
	jmp	.LBB66_63
.LBB66_72:                              # %if.end522
                                        #   in Loop: Header=BB66_49 Depth=1
	movzbl	-9(%rbp), %eax
	movq	-24(%rbp), %rcx
	cmpl	64(%rcx), %eax
	je	.LBB66_74
# %bb.73:                               # %if.then527
                                        #   in Loop: Header=BB66_49 Depth=1
	movzbl	-9(%rbp), %eax
	movq	-24(%rbp), %rcx
	movl	%eax, 64(%rcx)
	jmp	.LBB66_63
.LBB66_74:                              # %if.end530
                                        #   in Loop: Header=BB66_49 Depth=1
	movq	-24(%rbp), %rax
	movl	60(%rax), %edi
	movq	-24(%rbp), %rsi
	addq	$1096, %rsi             # imm = 0x448
	callq	BZ2_indexIntoF
	movb	%al, -9(%rbp)
	movq	-24(%rbp), %rax
	movq	3160(%rax), %rax
	movq	-24(%rbp), %rcx
	movl	60(%rcx), %ecx
	movzwl	(%rax,%rcx,2), %eax
	movq	-24(%rbp), %rcx
	movq	3168(%rcx), %rcx
	movq	-24(%rbp), %rdx
	movl	60(%rdx), %edx
	shrl	$1, %edx
	movl	%edx, %edx
	movzbl	(%rcx,%rdx), %edx
	movq	-24(%rbp), %rcx
	movl	60(%rcx), %ecx
	shll	$2, %ecx
	andl	$4, %ecx
                                        # kill: def $cl killed $ecx
	shrl	%cl, %edx
	andl	$15, %edx
	shll	$16, %edx
	orl	%edx, %eax
	movq	-24(%rbp), %rcx
	movl	%eax, 60(%rcx)
	movq	-24(%rbp), %rax
	movl	1092(%rax), %ecx
	addl	$1, %ecx
	movl	%ecx, 1092(%rax)
	movzbl	-9(%rbp), %eax
	addl	$4, %eax
	movq	-24(%rbp), %rcx
	movl	%eax, 16(%rcx)
	movq	-24(%rbp), %rax
	movl	60(%rax), %edi
	movq	-24(%rbp), %rsi
	addq	$1096, %rsi             # imm = 0x448
	callq	BZ2_indexIntoF
	movq	-24(%rbp), %rcx
	movl	%eax, 64(%rcx)
	movq	-24(%rbp), %rax
	movq	3160(%rax), %rax
	movq	-24(%rbp), %rcx
	movl	60(%rcx), %ecx
	movzwl	(%rax,%rcx,2), %eax
	movq	-24(%rbp), %rcx
	movq	3168(%rcx), %rcx
	movq	-24(%rbp), %rdx
	movl	60(%rdx), %edx
	shrl	$1, %edx
	movl	%edx, %edx
	movzbl	(%rcx,%rdx), %edx
	movq	-24(%rbp), %rcx
	movl	60(%rcx), %ecx
	shll	$2, %ecx
	andl	$4, %ecx
                                        # kill: def $cl killed $ecx
	shrl	%cl, %edx
	andl	$15, %edx
	shll	$16, %edx
	orl	%edx, %eax
	movq	-24(%rbp), %rcx
	movl	%eax, 60(%rcx)
	movq	-24(%rbp), %rax
	movl	1092(%rax), %ecx
	addl	$1, %ecx
	movl	%ecx, 1092(%rax)
	jmp	.LBB66_63
.LBB66_75:                              # %return
	movb	-25(%rbp), %bl
	cmpl	$980260568, -32(%rbp)   # imm = 0x3A6D96D8
	jne	.LBB66_77
.LBB66_76:
	movzbl	%bl, %eax
	addq	$24, %rsp
	popq	%rbx
	popq	%rbp
	.cfi_def_cfa %rsp, 8
	retq
.LBB66_77:                              # %func_exit
	.cfi_def_cfa %rbp, 16
	callq	detect_breach
	jmp	.LBB66_76
.Lfunc_end66:
	.size	unRLE_obuf_to_output_SMALL.26, .Lfunc_end66-unRLE_obuf_to_output_SMALL.26
	.cfi_endproc
                                        # -- End function
	.globl	BZ2_bzRead.27           # -- Begin function BZ2_bzRead.27
	.p2align	4, 0x90
	.type	BZ2_bzRead.27,@function
BZ2_bzRead.27:                          # @BZ2_bzRead.27
	.cfi_startproc
# %bb.0:                                # %entry
	pushq	%rbp
	.cfi_def_cfa_offset 16
	.cfi_offset %rbp, -16
	movq	%rsp, %rbp
	.cfi_def_cfa_register %rbp
	pushq	%rbx
	subq	$56, %rsp
	.cfi_offset %rbx, -24
	movl	$134484240, -44(%rbp)   # imm = 0x8041110
	movq	%rdi, -24(%rbp)
	movq	%rsi, -64(%rbp)
	movq	%rdx, -56(%rbp)
	movl	%ecx, -36(%rbp)
	movq	-64(%rbp), %rax
	movq	%rax, -16(%rbp)
	cmpq	$0, -24(%rbp)
	je	.LBB67_2
# %bb.1:                                # %if.then
	movq	-24(%rbp), %rax
	movl	$0, (%rax)
.LBB67_2:                               # %if.end
	cmpq	$0, -16(%rbp)
	je	.LBB67_4
# %bb.3:                                # %if.then2
	movq	-16(%rbp), %rax
	movl	$0, 5096(%rax)
.LBB67_4:                               # %if.end3
	cmpq	$0, -16(%rbp)
	je	.LBB67_7
# %bb.5:                                # %lor.lhs.false
	cmpq	$0, -56(%rbp)
	je	.LBB67_7
# %bb.6:                                # %lor.lhs.false6
	cmpl	$0, -36(%rbp)
	jge	.LBB67_12
.LBB67_7:                               # %if.then8
	cmpq	$0, -24(%rbp)
	je	.LBB67_9
# %bb.8:                                # %if.then10
	movq	-24(%rbp), %rax
	movl	$-2, (%rax)
.LBB67_9:                               # %if.end11
	cmpq	$0, -16(%rbp)
	je	.LBB67_11
# %bb.10:                               # %if.then13
	movq	-16(%rbp), %rax
	movl	$-2, 5096(%rax)
.LBB67_11:                              # %if.end15
	movl	$0, -28(%rbp)
	jmp	.LBB67_69
.LBB67_12:                              # %if.end16
	movq	-16(%rbp), %rax
	cmpb	$0, 5012(%rax)
	je	.LBB67_18
# %bb.13:                               # %if.then17
	cmpq	$0, -24(%rbp)
	je	.LBB67_15
# %bb.14:                               # %if.then19
	movq	-24(%rbp), %rax
	movl	$-1, (%rax)
.LBB67_15:                              # %if.end20
	cmpq	$0, -16(%rbp)
	je	.LBB67_17
# %bb.16:                               # %if.then22
	movq	-16(%rbp), %rax
	movl	$-1, 5096(%rax)
.LBB67_17:                              # %if.end24
	movl	$0, -28(%rbp)
	jmp	.LBB67_69
.LBB67_18:                              # %if.end25
	cmpl	$0, -36(%rbp)
	jne	.LBB67_24
# %bb.19:                               # %if.then27
	cmpq	$0, -24(%rbp)
	je	.LBB67_21
# %bb.20:                               # %if.then29
	movq	-24(%rbp), %rax
	movl	$0, (%rax)
.LBB67_21:                              # %if.end30
	cmpq	$0, -16(%rbp)
	je	.LBB67_23
# %bb.22:                               # %if.then32
	movq	-16(%rbp), %rax
	movl	$0, 5096(%rax)
.LBB67_23:                              # %if.end34
	movl	$0, -28(%rbp)
	jmp	.LBB67_69
.LBB67_24:                              # %if.end35
	movl	-36(%rbp), %eax
	movq	-16(%rbp), %rcx
	movl	%eax, 5048(%rcx)
	movq	-56(%rbp), %rax
	movq	-16(%rbp), %rcx
	movq	%rax, 5040(%rcx)
.LBB67_25:                              # %while.body
                                        # =>This Inner Loop Header: Depth=1
	movq	-16(%rbp), %rax
	movq	(%rax), %rdi
	callq	ferror
	cmpl	$0, %eax
	je	.LBB67_31
# %bb.26:                               # %if.then38
	cmpq	$0, -24(%rbp)
	je	.LBB67_28
# %bb.27:                               # %if.then40
	movq	-24(%rbp), %rax
	movl	$-6, (%rax)
.LBB67_28:                              # %if.end41
	cmpq	$0, -16(%rbp)
	je	.LBB67_30
# %bb.29:                               # %if.then43
	movq	-16(%rbp), %rax
	movl	$-6, 5096(%rax)
.LBB67_30:                              # %if.end45
	movl	$0, -28(%rbp)
	jmp	.LBB67_69
.LBB67_31:                              # %if.end46
                                        #   in Loop: Header=BB67_25 Depth=1
	movq	-16(%rbp), %rax
	cmpl	$0, 5024(%rax)
	jne	.LBB67_40
# %bb.32:                               # %land.lhs.true
                                        #   in Loop: Header=BB67_25 Depth=1
	movq	-16(%rbp), %rax
	movq	(%rax), %rdi
	callq	myfeof
	cmpb	$0, %al
	jne	.LBB67_40
# %bb.33:                               # %if.then52
                                        #   in Loop: Header=BB67_25 Depth=1
	movq	-16(%rbp), %rdi
	addq	$8, %rdi
	movq	-16(%rbp), %rax
	movq	(%rax), %rcx
	movl	$1, %esi
	movl	$5000, %edx             # imm = 0x1388
	callq	fread
	movl	%eax, -40(%rbp)
	movq	-16(%rbp), %rax
	movq	(%rax), %rdi
	callq	ferror
	cmpl	$0, %eax
	je	.LBB67_39
# %bb.34:                               # %if.then59
	cmpq	$0, -24(%rbp)
	je	.LBB67_36
# %bb.35:                               # %if.then62
	movq	-24(%rbp), %rax
	movl	$-6, (%rax)
.LBB67_36:                              # %if.end63
	cmpq	$0, -16(%rbp)
	je	.LBB67_38
# %bb.37:                               # %if.then66
	movq	-16(%rbp), %rax
	movl	$-6, 5096(%rax)
.LBB67_38:                              # %if.end68
	movl	$0, -28(%rbp)
	jmp	.LBB67_69
.LBB67_39:                              # %if.end69
                                        #   in Loop: Header=BB67_25 Depth=1
	movl	-40(%rbp), %eax
	movq	-16(%rbp), %rcx
	movl	%eax, 5008(%rcx)
	movq	-16(%rbp), %rax
	movl	5008(%rax), %eax
	movq	-16(%rbp), %rcx
	movl	%eax, 5024(%rcx)
	movq	-16(%rbp), %rax
	addq	$8, %rax
	movq	-16(%rbp), %rcx
	movq	%rax, 5016(%rcx)
.LBB67_40:                              # %if.end76
                                        #   in Loop: Header=BB67_25 Depth=1
	movq	-16(%rbp), %rdi
	addq	$5016, %rdi             # imm = 0x1398
	callq	BZ2_bzDecompress
	movl	%eax, -32(%rbp)
	cmpl	$0, -32(%rbp)
	je	.LBB67_47
# %bb.41:                               # %land.lhs.true81
                                        #   in Loop: Header=BB67_25 Depth=1
	cmpl	$4, -32(%rbp)
	je	.LBB67_47
# %bb.42:                               # %if.then84
	cmpq	$0, -24(%rbp)
	je	.LBB67_44
# %bb.43:                               # %if.then87
	movl	-32(%rbp), %eax
	movq	-24(%rbp), %rcx
	movl	%eax, (%rcx)
.LBB67_44:                              # %if.end88
	cmpq	$0, -16(%rbp)
	je	.LBB67_46
# %bb.45:                               # %if.then91
	movl	-32(%rbp), %eax
	movq	-16(%rbp), %rcx
	movl	%eax, 5096(%rcx)
.LBB67_46:                              # %if.end93
	movl	$0, -28(%rbp)
	jmp	.LBB67_69
.LBB67_47:                              # %if.end94
                                        #   in Loop: Header=BB67_25 Depth=1
	cmpl	$0, -32(%rbp)
	jne	.LBB67_56
# %bb.48:                               # %land.lhs.true97
                                        #   in Loop: Header=BB67_25 Depth=1
	movq	-16(%rbp), %rax
	movq	(%rax), %rdi
	callq	myfeof
	movzbl	%al, %eax
	cmpl	$0, %eax
	je	.LBB67_56
# %bb.49:                               # %land.lhs.true102
                                        #   in Loop: Header=BB67_25 Depth=1
	movq	-16(%rbp), %rax
	cmpl	$0, 5024(%rax)
	jne	.LBB67_56
# %bb.50:                               # %land.lhs.true107
                                        #   in Loop: Header=BB67_25 Depth=1
	movq	-16(%rbp), %rax
	cmpl	$0, 5048(%rax)
	jbe	.LBB67_56
# %bb.51:                               # %if.then112
	cmpq	$0, -24(%rbp)
	je	.LBB67_53
# %bb.52:                               # %if.then115
	movq	-24(%rbp), %rax
	movl	$-7, (%rax)
.LBB67_53:                              # %if.end116
	cmpq	$0, -16(%rbp)
	je	.LBB67_55
# %bb.54:                               # %if.then119
	movq	-16(%rbp), %rax
	movl	$-7, 5096(%rax)
.LBB67_55:                              # %if.end121
	movl	$0, -28(%rbp)
	jmp	.LBB67_69
.LBB67_56:                              # %if.end122
                                        #   in Loop: Header=BB67_25 Depth=1
	cmpl	$4, -32(%rbp)
	jne	.LBB67_62
# %bb.57:                               # %if.then125
	cmpq	$0, -24(%rbp)
	je	.LBB67_59
# %bb.58:                               # %if.then128
	movq	-24(%rbp), %rax
	movl	$4, (%rax)
.LBB67_59:                              # %if.end129
	cmpq	$0, -16(%rbp)
	je	.LBB67_61
# %bb.60:                               # %if.then132
	movq	-16(%rbp), %rax
	movl	$4, 5096(%rax)
.LBB67_61:                              # %if.end134
	movl	-36(%rbp), %eax
	movq	-16(%rbp), %rcx
	subl	5048(%rcx), %eax
	movl	%eax, -28(%rbp)
	jmp	.LBB67_69
.LBB67_62:                              # %if.end137
                                        #   in Loop: Header=BB67_25 Depth=1
	movq	-16(%rbp), %rax
	cmpl	$0, 5048(%rax)
	jne	.LBB67_68
# %bb.63:                               # %if.then142
	cmpq	$0, -24(%rbp)
	je	.LBB67_65
# %bb.64:                               # %if.then145
	movq	-24(%rbp), %rax
	movl	$0, (%rax)
.LBB67_65:                              # %if.end146
	cmpq	$0, -16(%rbp)
	je	.LBB67_67
# %bb.66:                               # %if.then149
	movq	-16(%rbp), %rax
	movl	$0, 5096(%rax)
.LBB67_67:                              # %if.end151
	movl	-36(%rbp), %eax
	movl	%eax, -28(%rbp)
	jmp	.LBB67_69
.LBB67_68:                              # %if.end152
                                        #   in Loop: Header=BB67_25 Depth=1
	jmp	.LBB67_25
.LBB67_69:                              # %return
	movl	-28(%rbp), %ebx
	cmpl	$134484240, -44(%rbp)   # imm = 0x8041110
	jne	.LBB67_71
.LBB67_70:
	movl	%ebx, %eax
	addq	$56, %rsp
	popq	%rbx
	popq	%rbp
	.cfi_def_cfa %rsp, 8
	retq
.LBB67_71:                              # %func_exit
	.cfi_def_cfa %rbp, 16
	callq	detect_breach
	jmp	.LBB67_70
.Lfunc_end67:
	.size	BZ2_bzRead.27, .Lfunc_end67-BZ2_bzRead.27
	.cfi_endproc
                                        # -- End function
	.p2align	4, 0x90         # -- Begin function unRLE_obuf_to_output_SMALL.28
	.type	unRLE_obuf_to_output_SMALL.28,@function
unRLE_obuf_to_output_SMALL.28:          # @unRLE_obuf_to_output_SMALL.28
	.cfi_startproc
# %bb.0:                                # %entry
	pushq	%rbp
	.cfi_def_cfa_offset 16
	.cfi_offset %rbp, -16
	movq	%rsp, %rbp
	.cfi_def_cfa_register %rbp
	pushq	%rbx
	subq	$24, %rsp
	.cfi_offset %rbx, -24
	movl	$160342795, -32(%rbp)   # imm = 0x98EA30B
	movq	%rdi, -24(%rbp)
	movq	-24(%rbp), %rax
	cmpb	$0, 20(%rax)
	je	.LBB68_48
# %bb.1:                                # %if.then
	jmp	.LBB68_2
.LBB68_2:                               # %while.body
                                        # =>This Loop Header: Depth=1
                                        #     Child Loop BB68_3 Depth 2
	jmp	.LBB68_3
.LBB68_3:                               # %while.body2
                                        #   Parent Loop BB68_2 Depth=1
                                        # =>  This Inner Loop Header: Depth=2
	movq	-24(%rbp), %rax
	movq	(%rax), %rax
	cmpl	$0, 32(%rax)
	jne	.LBB68_5
# %bb.4:                                # %if.then3
	movb	$0, -25(%rbp)
	jmp	.LBB68_75
.LBB68_5:                               # %if.end
                                        #   in Loop: Header=BB68_3 Depth=2
	movq	-24(%rbp), %rax
	cmpl	$0, 16(%rax)
	jne	.LBB68_7
# %bb.6:                                # %if.then5
                                        #   in Loop: Header=BB68_2 Depth=1
	jmp	.LBB68_10
.LBB68_7:                               # %if.end6
                                        #   in Loop: Header=BB68_3 Depth=2
	movq	-24(%rbp), %rax
	movb	12(%rax), %al
	movq	-24(%rbp), %rcx
	movq	(%rcx), %rcx
	movq	24(%rcx), %rcx
	movb	%al, (%rcx)
	movq	-24(%rbp), %rax
	movl	3184(%rax), %eax
	shll	$8, %eax
	movq	-24(%rbp), %rcx
	movl	3184(%rcx), %ecx
	shrl	$24, %ecx
	movq	-24(%rbp), %rdx
	movzbl	12(%rdx), %edx
	xorl	%edx, %ecx
	movl	%ecx, %ecx
	xorl	BZ2_crc32Table(,%rcx,4), %eax
	movq	-24(%rbp), %rcx
	movl	%eax, 3184(%rcx)
	movq	-24(%rbp), %rax
	movl	16(%rax), %ecx
	addl	$-1, %ecx
	movl	%ecx, 16(%rax)
	movq	-24(%rbp), %rax
	movq	(%rax), %rax
	movq	24(%rax), %rcx
	addq	$1, %rcx
	movq	%rcx, 24(%rax)
	movq	-24(%rbp), %rax
	movq	(%rax), %rax
	movl	32(%rax), %ecx
	addl	$-1, %ecx
	movl	%ecx, 32(%rax)
	movq	-24(%rbp), %rax
	movq	(%rax), %rax
	movl	36(%rax), %ecx
	addl	$1, %ecx
	movl	%ecx, 36(%rax)
	movq	-24(%rbp), %rax
	movq	(%rax), %rax
	cmpl	$0, 36(%rax)
	jne	.LBB68_9
# %bb.8:                                # %if.then23
                                        #   in Loop: Header=BB68_3 Depth=2
	movq	-24(%rbp), %rax
	movq	(%rax), %rax
	movl	40(%rax), %ecx
	addl	$1, %ecx
	movl	%ecx, 40(%rax)
.LBB68_9:                               # %if.end26
                                        #   in Loop: Header=BB68_3 Depth=2
	jmp	.LBB68_3
.LBB68_10:                              # %while.end
                                        #   in Loop: Header=BB68_2 Depth=1
	movq	-24(%rbp), %rax
	movl	1092(%rax), %eax
	movq	-24(%rbp), %rcx
	movl	64080(%rcx), %ecx
	addl	$1, %ecx
	cmpl	%ecx, %eax
	jne	.LBB68_12
# %bb.11:                               # %if.then29
	movb	$0, -25(%rbp)
	jmp	.LBB68_75
.LBB68_12:                              # %if.end30
                                        #   in Loop: Header=BB68_2 Depth=1
	movq	-24(%rbp), %rax
	movl	1092(%rax), %eax
	movq	-24(%rbp), %rcx
	movl	64080(%rcx), %ecx
	addl	$1, %ecx
	cmpl	%ecx, %eax
	jle	.LBB68_14
# %bb.13:                               # %if.then36
	movb	$1, -25(%rbp)
	jmp	.LBB68_75
.LBB68_14:                              # %if.end37
                                        #   in Loop: Header=BB68_2 Depth=1
	movq	-24(%rbp), %rax
	movl	$1, 16(%rax)
	movq	-24(%rbp), %rax
	movl	64(%rax), %eax
	movq	-24(%rbp), %rcx
	movb	%al, 12(%rcx)
	movq	-24(%rbp), %rax
	movl	60(%rax), %edi
	movq	-24(%rbp), %rsi
	addq	$1096, %rsi             # imm = 0x448
	callq	BZ2_indexIntoF
	movb	%al, -9(%rbp)
	movq	-24(%rbp), %rax
	movq	3160(%rax), %rax
	movq	-24(%rbp), %rcx
	movl	60(%rcx), %ecx
	movzwl	(%rax,%rcx,2), %eax
	movq	-24(%rbp), %rcx
	movq	3168(%rcx), %rcx
	movq	-24(%rbp), %rdx
	movl	60(%rdx), %edx
	shrl	$1, %edx
	movl	%edx, %edx
	movzbl	(%rcx,%rdx), %edx
	movq	-24(%rbp), %rcx
	movl	60(%rcx), %ecx
	shll	$2, %ecx
	andl	$4, %ecx
                                        # kill: def $cl killed $ecx
	shrl	%cl, %edx
	andl	$15, %edx
	shll	$16, %edx
	orl	%edx, %eax
	movq	-24(%rbp), %rcx
	movl	%eax, 60(%rcx)
	movq	-24(%rbp), %rax
	cmpl	$0, 24(%rax)
	jne	.LBB68_18
# %bb.15:                               # %if.then59
                                        #   in Loop: Header=BB68_2 Depth=1
	movq	-24(%rbp), %rax
	movslq	28(%rax), %rax
	movl	BZ2_rNums(,%rax,4), %eax
	movq	-24(%rbp), %rcx
	movl	%eax, 24(%rcx)
	movq	-24(%rbp), %rax
	movl	28(%rax), %ecx
	addl	$1, %ecx
	movl	%ecx, 28(%rax)
	movq	-24(%rbp), %rax
	cmpl	$512, 28(%rax)          # imm = 0x200
	jne	.LBB68_17
# %bb.16:                               # %if.then68
                                        #   in Loop: Header=BB68_2 Depth=1
	movq	-24(%rbp), %rax
	movl	$0, 28(%rax)
.LBB68_17:                              # %if.end70
                                        #   in Loop: Header=BB68_2 Depth=1
	jmp	.LBB68_18
.LBB68_18:                              # %if.end71
                                        #   in Loop: Header=BB68_2 Depth=1
	xorl	%eax, %eax
	movq	-24(%rbp), %rcx
	movl	24(%rcx), %edx
	addl	$-1, %edx
	movl	%edx, 24(%rcx)
	movq	-24(%rbp), %rcx
	movl	24(%rcx), %ecx
	cmpl	$1, %ecx
	movl	$1, %ecx
	cmovel	%ecx, %eax
	movzbl	-9(%rbp), %ecx
	xorl	%eax, %ecx
	movb	%cl, -9(%rbp)
	movq	-24(%rbp), %rax
	movl	1092(%rax), %ecx
	addl	$1, %ecx
	movl	%ecx, 1092(%rax)
	movq	-24(%rbp), %rax
	movl	1092(%rax), %eax
	movq	-24(%rbp), %rcx
	movl	64080(%rcx), %ecx
	addl	$1, %ecx
	cmpl	%ecx, %eax
	jne	.LBB68_21
# %bb.19:                               # %if.then87
                                        #   in Loop: Header=BB68_2 Depth=1
	jmp	.LBB68_20
.LBB68_20:                              # %while.body.backedge
                                        #   in Loop: Header=BB68_2 Depth=1
	jmp	.LBB68_2
.LBB68_21:                              # %if.end88
                                        #   in Loop: Header=BB68_2 Depth=1
	movzbl	-9(%rbp), %eax
	movq	-24(%rbp), %rcx
	cmpl	64(%rcx), %eax
	je	.LBB68_23
# %bb.22:                               # %if.then93
                                        #   in Loop: Header=BB68_2 Depth=1
	movzbl	-9(%rbp), %eax
	movq	-24(%rbp), %rcx
	movl	%eax, 64(%rcx)
	jmp	.LBB68_20
.LBB68_23:                              # %if.end96
                                        #   in Loop: Header=BB68_2 Depth=1
	movq	-24(%rbp), %rax
	movl	$2, 16(%rax)
	movq	-24(%rbp), %rax
	movl	60(%rax), %edi
	movq	-24(%rbp), %rsi
	addq	$1096, %rsi             # imm = 0x448
	callq	BZ2_indexIntoF
	movb	%al, -9(%rbp)
	movq	-24(%rbp), %rax
	movq	3160(%rax), %rax
	movq	-24(%rbp), %rcx
	movl	60(%rcx), %ecx
	movzwl	(%rax,%rcx,2), %eax
	movq	-24(%rbp), %rcx
	movq	3168(%rcx), %rcx
	movq	-24(%rbp), %rdx
	movl	60(%rdx), %edx
	shrl	$1, %edx
	movl	%edx, %edx
	movzbl	(%rcx,%rdx), %edx
	movq	-24(%rbp), %rcx
	movl	60(%rcx), %ecx
	shll	$2, %ecx
	andl	$4, %ecx
                                        # kill: def $cl killed $ecx
	shrl	%cl, %edx
	andl	$15, %edx
	shll	$16, %edx
	orl	%edx, %eax
	movq	-24(%rbp), %rcx
	movl	%eax, 60(%rcx)
	movq	-24(%rbp), %rax
	cmpl	$0, 24(%rax)
	jne	.LBB68_27
# %bb.24:                               # %if.then125
                                        #   in Loop: Header=BB68_2 Depth=1
	movq	-24(%rbp), %rax
	movslq	28(%rax), %rax
	movl	BZ2_rNums(,%rax,4), %eax
	movq	-24(%rbp), %rcx
	movl	%eax, 24(%rcx)
	movq	-24(%rbp), %rax
	movl	28(%rax), %ecx
	addl	$1, %ecx
	movl	%ecx, 28(%rax)
	movq	-24(%rbp), %rax
	cmpl	$512, 28(%rax)          # imm = 0x200
	jne	.LBB68_26
# %bb.25:                               # %if.then135
                                        #   in Loop: Header=BB68_2 Depth=1
	movq	-24(%rbp), %rax
	movl	$0, 28(%rax)
.LBB68_26:                              # %if.end137
                                        #   in Loop: Header=BB68_2 Depth=1
	jmp	.LBB68_27
.LBB68_27:                              # %if.end138
                                        #   in Loop: Header=BB68_2 Depth=1
	xorl	%eax, %eax
	movq	-24(%rbp), %rcx
	movl	24(%rcx), %edx
	addl	$-1, %edx
	movl	%edx, 24(%rcx)
	movq	-24(%rbp), %rcx
	movl	24(%rcx), %ecx
	cmpl	$1, %ecx
	movl	$1, %ecx
	cmovel	%ecx, %eax
	movzbl	-9(%rbp), %ecx
	xorl	%eax, %ecx
	movb	%cl, -9(%rbp)
	movq	-24(%rbp), %rax
	movl	1092(%rax), %ecx
	addl	$1, %ecx
	movl	%ecx, 1092(%rax)
	movq	-24(%rbp), %rax
	movl	1092(%rax), %eax
	movq	-24(%rbp), %rcx
	movl	64080(%rcx), %ecx
	addl	$1, %ecx
	cmpl	%ecx, %eax
	jne	.LBB68_29
# %bb.28:                               # %if.then155
                                        #   in Loop: Header=BB68_2 Depth=1
	jmp	.LBB68_20
.LBB68_29:                              # %if.end156
                                        #   in Loop: Header=BB68_2 Depth=1
	movzbl	-9(%rbp), %eax
	movq	-24(%rbp), %rcx
	cmpl	64(%rcx), %eax
	je	.LBB68_31
# %bb.30:                               # %if.then161
                                        #   in Loop: Header=BB68_2 Depth=1
	movzbl	-9(%rbp), %eax
	movq	-24(%rbp), %rcx
	movl	%eax, 64(%rcx)
	jmp	.LBB68_20
.LBB68_31:                              # %if.end164
                                        #   in Loop: Header=BB68_2 Depth=1
	movq	-24(%rbp), %rax
	movl	$3, 16(%rax)
	movq	-24(%rbp), %rax
	movl	60(%rax), %edi
	movq	-24(%rbp), %rsi
	addq	$1096, %rsi             # imm = 0x448
	callq	BZ2_indexIntoF
	movb	%al, -9(%rbp)
	movq	-24(%rbp), %rax
	movq	3160(%rax), %rax
	movq	-24(%rbp), %rcx
	movl	60(%rcx), %ecx
	movzwl	(%rax,%rcx,2), %eax
	movq	-24(%rbp), %rcx
	movq	3168(%rcx), %rcx
	movq	-24(%rbp), %rdx
	movl	60(%rdx), %edx
	shrl	$1, %edx
	movl	%edx, %edx
	movzbl	(%rcx,%rdx), %edx
	movq	-24(%rbp), %rcx
	movl	60(%rcx), %ecx
	shll	$2, %ecx
	andl	$4, %ecx
                                        # kill: def $cl killed $ecx
	shrl	%cl, %edx
	andl	$15, %edx
	shll	$16, %edx
	orl	%edx, %eax
	movq	-24(%rbp), %rcx
	movl	%eax, 60(%rcx)
	movq	-24(%rbp), %rax
	cmpl	$0, 24(%rax)
	jne	.LBB68_35
# %bb.32:                               # %if.then193
                                        #   in Loop: Header=BB68_2 Depth=1
	movq	-24(%rbp), %rax
	movslq	28(%rax), %rax
	movl	BZ2_rNums(,%rax,4), %eax
	movq	-24(%rbp), %rcx
	movl	%eax, 24(%rcx)
	movq	-24(%rbp), %rax
	movl	28(%rax), %ecx
	addl	$1, %ecx
	movl	%ecx, 28(%rax)
	movq	-24(%rbp), %rax
	cmpl	$512, 28(%rax)          # imm = 0x200
	jne	.LBB68_34
# %bb.33:                               # %if.then203
                                        #   in Loop: Header=BB68_2 Depth=1
	movq	-24(%rbp), %rax
	movl	$0, 28(%rax)
.LBB68_34:                              # %if.end205
                                        #   in Loop: Header=BB68_2 Depth=1
	jmp	.LBB68_35
.LBB68_35:                              # %if.end206
                                        #   in Loop: Header=BB68_2 Depth=1
	xorl	%eax, %eax
	movq	-24(%rbp), %rcx
	movl	24(%rcx), %edx
	addl	$-1, %edx
	movl	%edx, 24(%rcx)
	movq	-24(%rbp), %rcx
	movl	24(%rcx), %ecx
	cmpl	$1, %ecx
	movl	$1, %ecx
	cmovel	%ecx, %eax
	movzbl	-9(%rbp), %ecx
	xorl	%eax, %ecx
	movb	%cl, -9(%rbp)
	movq	-24(%rbp), %rax
	movl	1092(%rax), %ecx
	addl	$1, %ecx
	movl	%ecx, 1092(%rax)
	movq	-24(%rbp), %rax
	movl	1092(%rax), %eax
	movq	-24(%rbp), %rcx
	movl	64080(%rcx), %ecx
	addl	$1, %ecx
	cmpl	%ecx, %eax
	jne	.LBB68_37
# %bb.36:                               # %if.then223
                                        #   in Loop: Header=BB68_2 Depth=1
	jmp	.LBB68_20
.LBB68_37:                              # %if.end224
                                        #   in Loop: Header=BB68_2 Depth=1
	movzbl	-9(%rbp), %eax
	movq	-24(%rbp), %rcx
	cmpl	64(%rcx), %eax
	je	.LBB68_39
# %bb.38:                               # %if.then229
                                        #   in Loop: Header=BB68_2 Depth=1
	movzbl	-9(%rbp), %eax
	movq	-24(%rbp), %rcx
	movl	%eax, 64(%rcx)
	jmp	.LBB68_20
.LBB68_39:                              # %if.end232
                                        #   in Loop: Header=BB68_2 Depth=1
	movq	-24(%rbp), %rax
	movl	60(%rax), %edi
	movq	-24(%rbp), %rsi
	addq	$1096, %rsi             # imm = 0x448
	callq	BZ2_indexIntoF
	movb	%al, -9(%rbp)
	movq	-24(%rbp), %rax
	movq	3160(%rax), %rax
	movq	-24(%rbp), %rcx
	movl	60(%rcx), %ecx
	movzwl	(%rax,%rcx,2), %eax
	movq	-24(%rbp), %rcx
	movq	3168(%rcx), %rcx
	movq	-24(%rbp), %rdx
	movl	60(%rdx), %edx
	shrl	$1, %edx
	movl	%edx, %edx
	movzbl	(%rcx,%rdx), %edx
	movq	-24(%rbp), %rcx
	movl	60(%rcx), %ecx
	shll	$2, %ecx
	andl	$4, %ecx
                                        # kill: def $cl killed $ecx
	shrl	%cl, %edx
	andl	$15, %edx
	shll	$16, %edx
	orl	%edx, %eax
	movq	-24(%rbp), %rcx
	movl	%eax, 60(%rcx)
	movq	-24(%rbp), %rax
	cmpl	$0, 24(%rax)
	jne	.LBB68_43
# %bb.40:                               # %if.then260
                                        #   in Loop: Header=BB68_2 Depth=1
	movq	-24(%rbp), %rax
	movslq	28(%rax), %rax
	movl	BZ2_rNums(,%rax,4), %eax
	movq	-24(%rbp), %rcx
	movl	%eax, 24(%rcx)
	movq	-24(%rbp), %rax
	movl	28(%rax), %ecx
	addl	$1, %ecx
	movl	%ecx, 28(%rax)
	movq	-24(%rbp), %rax
	cmpl	$512, 28(%rax)          # imm = 0x200
	jne	.LBB68_42
# %bb.41:                               # %if.then270
                                        #   in Loop: Header=BB68_2 Depth=1
	movq	-24(%rbp), %rax
	movl	$0, 28(%rax)
.LBB68_42:                              # %if.end272
                                        #   in Loop: Header=BB68_2 Depth=1
	jmp	.LBB68_43
.LBB68_43:                              # %if.end273
                                        #   in Loop: Header=BB68_2 Depth=1
	xorl	%eax, %eax
	movq	-24(%rbp), %rcx
	movl	24(%rcx), %edx
	addl	$-1, %edx
	movl	%edx, 24(%rcx)
	movq	-24(%rbp), %rcx
	movl	24(%rcx), %ecx
	cmpl	$1, %ecx
	movl	$1, %ecx
	cmovel	%ecx, %eax
	movzbl	-9(%rbp), %ecx
	xorl	%eax, %ecx
	movb	%cl, -9(%rbp)
	movq	-24(%rbp), %rax
	movl	1092(%rax), %ecx
	addl	$1, %ecx
	movl	%ecx, 1092(%rax)
	movzbl	-9(%rbp), %eax
	addl	$4, %eax
	movq	-24(%rbp), %rcx
	movl	%eax, 16(%rcx)
	movq	-24(%rbp), %rax
	movl	60(%rax), %edi
	movq	-24(%rbp), %rsi
	addq	$1096, %rsi             # imm = 0x448
	callq	BZ2_indexIntoF
	movq	-24(%rbp), %rcx
	movl	%eax, 64(%rcx)
	movq	-24(%rbp), %rax
	movq	3160(%rax), %rax
	movq	-24(%rbp), %rcx
	movl	60(%rcx), %ecx
	movzwl	(%rax,%rcx,2), %eax
	movq	-24(%rbp), %rcx
	movq	3168(%rcx), %rcx
	movq	-24(%rbp), %rdx
	movl	60(%rdx), %edx
	shrl	$1, %edx
	movl	%edx, %edx
	movzbl	(%rcx,%rdx), %edx
	movq	-24(%rbp), %rcx
	movl	60(%rcx), %ecx
	shll	$2, %ecx
	andl	$4, %ecx
                                        # kill: def $cl killed $ecx
	shrl	%cl, %edx
	andl	$15, %edx
	shll	$16, %edx
	orl	%edx, %eax
	movq	-24(%rbp), %rcx
	movl	%eax, 60(%rcx)
	movq	-24(%rbp), %rax
	cmpl	$0, 24(%rax)
	jne	.LBB68_47
# %bb.44:                               # %if.then315
                                        #   in Loop: Header=BB68_2 Depth=1
	movq	-24(%rbp), %rax
	movslq	28(%rax), %rax
	movl	BZ2_rNums(,%rax,4), %eax
	movq	-24(%rbp), %rcx
	movl	%eax, 24(%rcx)
	movq	-24(%rbp), %rax
	movl	28(%rax), %ecx
	addl	$1, %ecx
	movl	%ecx, 28(%rax)
	movq	-24(%rbp), %rax
	cmpl	$512, 28(%rax)          # imm = 0x200
	jne	.LBB68_46
# %bb.45:                               # %if.then325
                                        #   in Loop: Header=BB68_2 Depth=1
	movq	-24(%rbp), %rax
	movl	$0, 28(%rax)
.LBB68_46:                              # %if.end327
                                        #   in Loop: Header=BB68_2 Depth=1
	jmp	.LBB68_47
.LBB68_47:                              # %if.end328
                                        #   in Loop: Header=BB68_2 Depth=1
	xorl	%eax, %eax
	movq	-24(%rbp), %rcx
	movl	24(%rcx), %edx
	addl	$-1, %edx
	movl	%edx, 24(%rcx)
	movq	-24(%rbp), %rcx
	movl	24(%rcx), %ecx
	cmpl	$1, %ecx
	movl	$1, %ecx
	cmovel	%ecx, %eax
	movq	-24(%rbp), %rcx
	xorl	64(%rcx), %eax
	movl	%eax, 64(%rcx)
	movq	-24(%rbp), %rax
	movl	1092(%rax), %ecx
	addl	$1, %ecx
	movl	%ecx, 1092(%rax)
	jmp	.LBB68_20
.LBB68_48:                              # %if.else
	jmp	.LBB68_49
.LBB68_49:                              # %while.body339
                                        # =>This Loop Header: Depth=1
                                        #     Child Loop BB68_50 Depth 2
	jmp	.LBB68_50
.LBB68_50:                              # %while.body341
                                        #   Parent Loop BB68_49 Depth=1
                                        # =>  This Inner Loop Header: Depth=2
	movq	-24(%rbp), %rax
	movq	(%rax), %rax
	cmpl	$0, 32(%rax)
	jne	.LBB68_52
# %bb.51:                               # %if.then346
	movb	$0, -25(%rbp)
	jmp	.LBB68_75
.LBB68_52:                              # %if.end347
                                        #   in Loop: Header=BB68_50 Depth=2
	movq	-24(%rbp), %rax
	cmpl	$0, 16(%rax)
	jne	.LBB68_54
# %bb.53:                               # %if.then351
                                        #   in Loop: Header=BB68_49 Depth=1
	jmp	.LBB68_57
.LBB68_54:                              # %if.end352
                                        #   in Loop: Header=BB68_50 Depth=2
	movq	-24(%rbp), %rax
	movb	12(%rax), %al
	movq	-24(%rbp), %rcx
	movq	(%rcx), %rcx
	movq	24(%rcx), %rcx
	movb	%al, (%rcx)
	movq	-24(%rbp), %rax
	movl	3184(%rax), %eax
	shll	$8, %eax
	movq	-24(%rbp), %rcx
	movl	3184(%rcx), %ecx
	shrl	$24, %ecx
	movq	-24(%rbp), %rdx
	movzbl	12(%rdx), %edx
	xorl	%edx, %ecx
	movl	%ecx, %ecx
	xorl	BZ2_crc32Table(,%rcx,4), %eax
	movq	-24(%rbp), %rcx
	movl	%eax, 3184(%rcx)
	movq	-24(%rbp), %rax
	movl	16(%rax), %ecx
	addl	$-1, %ecx
	movl	%ecx, 16(%rax)
	movq	-24(%rbp), %rax
	movq	(%rax), %rax
	movq	24(%rax), %rcx
	addq	$1, %rcx
	movq	%rcx, 24(%rax)
	movq	-24(%rbp), %rax
	movq	(%rax), %rax
	movl	32(%rax), %ecx
	addl	$-1, %ecx
	movl	%ecx, 32(%rax)
	movq	-24(%rbp), %rax
	movq	(%rax), %rax
	movl	36(%rax), %ecx
	addl	$1, %ecx
	movl	%ecx, 36(%rax)
	movq	-24(%rbp), %rax
	movq	(%rax), %rax
	cmpl	$0, 36(%rax)
	jne	.LBB68_56
# %bb.55:                               # %if.then382
                                        #   in Loop: Header=BB68_50 Depth=2
	movq	-24(%rbp), %rax
	movq	(%rax), %rax
	movl	40(%rax), %ecx
	addl	$1, %ecx
	movl	%ecx, 40(%rax)
.LBB68_56:                              # %if.end386
                                        #   in Loop: Header=BB68_50 Depth=2
	jmp	.LBB68_50
.LBB68_57:                              # %while.end387
                                        #   in Loop: Header=BB68_49 Depth=1
	movq	-24(%rbp), %rax
	movl	1092(%rax), %eax
	movq	-24(%rbp), %rcx
	movl	64080(%rcx), %ecx
	addl	$1, %ecx
	cmpl	%ecx, %eax
	jne	.LBB68_59
# %bb.58:                               # %if.then393
	movb	$0, -25(%rbp)
	jmp	.LBB68_75
.LBB68_59:                              # %if.end394
                                        #   in Loop: Header=BB68_49 Depth=1
	movq	-24(%rbp), %rax
	movl	1092(%rax), %eax
	movq	-24(%rbp), %rcx
	movl	64080(%rcx), %ecx
	addl	$1, %ecx
	cmpl	%ecx, %eax
	jle	.LBB68_61
# %bb.60:                               # %if.then400
	movb	$1, -25(%rbp)
	jmp	.LBB68_75
.LBB68_61:                              # %if.end401
                                        #   in Loop: Header=BB68_49 Depth=1
	movq	-24(%rbp), %rax
	movl	$1, 16(%rax)
	movq	-24(%rbp), %rax
	movl	64(%rax), %eax
	movq	-24(%rbp), %rcx
	movb	%al, 12(%rcx)
	movq	-24(%rbp), %rax
	movl	60(%rax), %edi
	movq	-24(%rbp), %rsi
	addq	$1096, %rsi             # imm = 0x448
	callq	BZ2_indexIntoF
	movb	%al, -9(%rbp)
	movq	-24(%rbp), %rax
	movq	3160(%rax), %rax
	movq	-24(%rbp), %rcx
	movl	60(%rcx), %ecx
	movzwl	(%rax,%rcx,2), %eax
	movq	-24(%rbp), %rcx
	movq	3168(%rcx), %rcx
	movq	-24(%rbp), %rdx
	movl	60(%rdx), %edx
	shrl	$1, %edx
	movl	%edx, %edx
	movzbl	(%rcx,%rdx), %edx
	movq	-24(%rbp), %rcx
	movl	60(%rcx), %ecx
	shll	$2, %ecx
	andl	$4, %ecx
                                        # kill: def $cl killed $ecx
	shrl	%cl, %edx
	andl	$15, %edx
	shll	$16, %edx
	orl	%edx, %eax
	movq	-24(%rbp), %rcx
	movl	%eax, 60(%rcx)
	movq	-24(%rbp), %rax
	movl	1092(%rax), %ecx
	addl	$1, %ecx
	movl	%ecx, 1092(%rax)
	movq	-24(%rbp), %rax
	movl	1092(%rax), %eax
	movq	-24(%rbp), %rcx
	movl	64080(%rcx), %ecx
	addl	$1, %ecx
	cmpl	%ecx, %eax
	jne	.LBB68_64
# %bb.62:                               # %if.then437
                                        #   in Loop: Header=BB68_49 Depth=1
	jmp	.LBB68_63
.LBB68_63:                              # %while.body339.backedge
                                        #   in Loop: Header=BB68_49 Depth=1
	jmp	.LBB68_49
.LBB68_64:                              # %if.end438
                                        #   in Loop: Header=BB68_49 Depth=1
	movzbl	-9(%rbp), %eax
	movq	-24(%rbp), %rcx
	cmpl	64(%rcx), %eax
	je	.LBB68_66
# %bb.65:                               # %if.then443
                                        #   in Loop: Header=BB68_49 Depth=1
	movzbl	-9(%rbp), %eax
	movq	-24(%rbp), %rcx
	movl	%eax, 64(%rcx)
	jmp	.LBB68_63
.LBB68_66:                              # %if.end446
                                        #   in Loop: Header=BB68_49 Depth=1
	movq	-24(%rbp), %rax
	movl	$2, 16(%rax)
	movq	-24(%rbp), %rax
	movl	60(%rax), %edi
	movq	-24(%rbp), %rsi
	addq	$1096, %rsi             # imm = 0x448
	callq	BZ2_indexIntoF
	movb	%al, -9(%rbp)
	movq	-24(%rbp), %rax
	movq	3160(%rax), %rax
	movq	-24(%rbp), %rcx
	movl	60(%rcx), %ecx
	movzwl	(%rax,%rcx,2), %eax
	movq	-24(%rbp), %rcx
	movq	3168(%rcx), %rcx
	movq	-24(%rbp), %rdx
	movl	60(%rdx), %edx
	shrl	$1, %edx
	movl	%edx, %edx
	movzbl	(%rcx,%rdx), %edx
	movq	-24(%rbp), %rcx
	movl	60(%rcx), %ecx
	shll	$2, %ecx
	andl	$4, %ecx
                                        # kill: def $cl killed $ecx
	shrl	%cl, %edx
	andl	$15, %edx
	shll	$16, %edx
	orl	%edx, %eax
	movq	-24(%rbp), %rcx
	movl	%eax, 60(%rcx)
	movq	-24(%rbp), %rax
	movl	1092(%rax), %ecx
	addl	$1, %ecx
	movl	%ecx, 1092(%rax)
	movq	-24(%rbp), %rax
	movl	1092(%rax), %eax
	movq	-24(%rbp), %rcx
	movl	64080(%rcx), %ecx
	addl	$1, %ecx
	cmpl	%ecx, %eax
	jne	.LBB68_68
# %bb.67:                               # %if.then479
                                        #   in Loop: Header=BB68_49 Depth=1
	jmp	.LBB68_63
.LBB68_68:                              # %if.end480
                                        #   in Loop: Header=BB68_49 Depth=1
	movzbl	-9(%rbp), %eax
	movq	-24(%rbp), %rcx
	cmpl	64(%rcx), %eax
	je	.LBB68_70
# %bb.69:                               # %if.then485
                                        #   in Loop: Header=BB68_49 Depth=1
	movzbl	-9(%rbp), %eax
	movq	-24(%rbp), %rcx
	movl	%eax, 64(%rcx)
	jmp	.LBB68_63
.LBB68_70:                              # %if.end488
                                        #   in Loop: Header=BB68_49 Depth=1
	movq	-24(%rbp), %rax
	movl	$3, 16(%rax)
	movq	-24(%rbp), %rax
	movl	60(%rax), %edi
	movq	-24(%rbp), %rsi
	addq	$1096, %rsi             # imm = 0x448
	callq	BZ2_indexIntoF
	movb	%al, -9(%rbp)
	movq	-24(%rbp), %rax
	movq	3160(%rax), %rax
	movq	-24(%rbp), %rcx
	movl	60(%rcx), %ecx
	movzwl	(%rax,%rcx,2), %eax
	movq	-24(%rbp), %rcx
	movq	3168(%rcx), %rcx
	movq	-24(%rbp), %rdx
	movl	60(%rdx), %edx
	shrl	$1, %edx
	movl	%edx, %edx
	movzbl	(%rcx,%rdx), %edx
	movq	-24(%rbp), %rcx
	movl	60(%rcx), %ecx
	shll	$2, %ecx
	andl	$4, %ecx
                                        # kill: def $cl killed $ecx
	shrl	%cl, %edx
	andl	$15, %edx
	shll	$16, %edx
	orl	%edx, %eax
	movq	-24(%rbp), %rcx
	movl	%eax, 60(%rcx)
	movq	-24(%rbp), %rax
	movl	1092(%rax), %ecx
	addl	$1, %ecx
	movl	%ecx, 1092(%rax)
	movq	-24(%rbp), %rax
	movl	1092(%rax), %eax
	movq	-24(%rbp), %rcx
	movl	64080(%rcx), %ecx
	addl	$1, %ecx
	cmpl	%ecx, %eax
	jne	.LBB68_72
# %bb.71:                               # %if.then521
                                        #   in Loop: Header=BB68_49 Depth=1
	jmp	.LBB68_63
.LBB68_72:                              # %if.end522
                                        #   in Loop: Header=BB68_49 Depth=1
	movzbl	-9(%rbp), %eax
	movq	-24(%rbp), %rcx
	cmpl	64(%rcx), %eax
	je	.LBB68_74
# %bb.73:                               # %if.then527
                                        #   in Loop: Header=BB68_49 Depth=1
	movzbl	-9(%rbp), %eax
	movq	-24(%rbp), %rcx
	movl	%eax, 64(%rcx)
	jmp	.LBB68_63
.LBB68_74:                              # %if.end530
                                        #   in Loop: Header=BB68_49 Depth=1
	movq	-24(%rbp), %rax
	movl	60(%rax), %edi
	movq	-24(%rbp), %rsi
	addq	$1096, %rsi             # imm = 0x448
	callq	BZ2_indexIntoF
	movb	%al, -9(%rbp)
	movq	-24(%rbp), %rax
	movq	3160(%rax), %rax
	movq	-24(%rbp), %rcx
	movl	60(%rcx), %ecx
	movzwl	(%rax,%rcx,2), %eax
	movq	-24(%rbp), %rcx
	movq	3168(%rcx), %rcx
	movq	-24(%rbp), %rdx
	movl	60(%rdx), %edx
	shrl	$1, %edx
	movl	%edx, %edx
	movzbl	(%rcx,%rdx), %edx
	movq	-24(%rbp), %rcx
	movl	60(%rcx), %ecx
	shll	$2, %ecx
	andl	$4, %ecx
                                        # kill: def $cl killed $ecx
	shrl	%cl, %edx
	andl	$15, %edx
	shll	$16, %edx
	orl	%edx, %eax
	movq	-24(%rbp), %rcx
	movl	%eax, 60(%rcx)
	movq	-24(%rbp), %rax
	movl	1092(%rax), %ecx
	addl	$1, %ecx
	movl	%ecx, 1092(%rax)
	movzbl	-9(%rbp), %eax
	addl	$4, %eax
	movq	-24(%rbp), %rcx
	movl	%eax, 16(%rcx)
	movq	-24(%rbp), %rax
	movl	60(%rax), %edi
	movq	-24(%rbp), %rsi
	addq	$1096, %rsi             # imm = 0x448
	callq	BZ2_indexIntoF
	movq	-24(%rbp), %rcx
	movl	%eax, 64(%rcx)
	movq	-24(%rbp), %rax
	movq	3160(%rax), %rax
	movq	-24(%rbp), %rcx
	movl	60(%rcx), %ecx
	movzwl	(%rax,%rcx,2), %eax
	movq	-24(%rbp), %rcx
	movq	3168(%rcx), %rcx
	movq	-24(%rbp), %rdx
	movl	60(%rdx), %edx
	shrl	$1, %edx
	movl	%edx, %edx
	movzbl	(%rcx,%rdx), %edx
	movq	-24(%rbp), %rcx
	movl	60(%rcx), %ecx
	shll	$2, %ecx
	andl	$4, %ecx
                                        # kill: def $cl killed $ecx
	shrl	%cl, %edx
	andl	$15, %edx
	shll	$16, %edx
	orl	%edx, %eax
	movq	-24(%rbp), %rcx
	movl	%eax, 60(%rcx)
	movq	-24(%rbp), %rax
	movl	1092(%rax), %ecx
	addl	$1, %ecx
	movl	%ecx, 1092(%rax)
	jmp	.LBB68_63
.LBB68_75:                              # %return
	movb	-25(%rbp), %bl
	cmpl	$160342795, -32(%rbp)   # imm = 0x98EA30B
	jne	.LBB68_77
.LBB68_76:
	movzbl	%bl, %eax
	addq	$24, %rsp
	popq	%rbx
	popq	%rbp
	.cfi_def_cfa %rsp, 8
	retq
.LBB68_77:                              # %func_exit
	.cfi_def_cfa %rbp, 16
	callq	detect_breach
	jmp	.LBB68_76
.Lfunc_end68:
	.size	unRLE_obuf_to_output_SMALL.28, .Lfunc_end68-unRLE_obuf_to_output_SMALL.28
	.cfi_endproc
                                        # -- End function
	.globl	BZ2_bzopen.29           # -- Begin function BZ2_bzopen.29
	.p2align	4, 0x90
	.type	BZ2_bzopen.29,@function
BZ2_bzopen.29:                          # @BZ2_bzopen.29
	.cfi_startproc
# %bb.0:                                # %entry
	pushq	%rbp
	.cfi_def_cfa_offset 16
	.cfi_offset %rbp, -16
	movq	%rsp, %rbp
	.cfi_def_cfa_register %rbp
	pushq	%rbx
	subq	$24, %rsp
	.cfi_offset %rbx, -24
	movl	$1520469974, -12(%rbp)  # imm = 0x5AA087D6
	movq	%rdi, -24(%rbp)
	movq	%rsi, -32(%rbp)
	movq	-24(%rbp), %rdi
	movq	-32(%rbp), %rdx
	movl	$4294967295, %esi       # imm = 0xFFFFFFFF
	xorl	%ecx, %ecx
	callq	bzopen_or_bzdopen
	movq	%rax, %rbx
	cmpl	$1520469974, -12(%rbp)  # imm = 0x5AA087D6
	jne	.LBB69_2
.LBB69_1:
	movq	%rbx, %rax
	addq	$24, %rsp
	popq	%rbx
	popq	%rbp
	.cfi_def_cfa %rsp, 8
	retq
.LBB69_2:                               # %func_exit
	.cfi_def_cfa %rbp, 16
	callq	detect_breach
	jmp	.LBB69_1
.Lfunc_end69:
	.size	BZ2_bzopen.29, .Lfunc_end69-BZ2_bzopen.29
	.cfi_endproc
                                        # -- End function
	.globl	BZ2_bzWriteClose.30     # -- Begin function BZ2_bzWriteClose.30
	.p2align	4, 0x90
	.type	BZ2_bzWriteClose.30,@function
BZ2_bzWriteClose.30:                    # @BZ2_bzWriteClose.30
	.cfi_startproc
# %bb.0:                                # %entry
	pushq	%rbp
	.cfi_def_cfa_offset 16
	.cfi_offset %rbp, -16
	movq	%rsp, %rbp
	.cfi_def_cfa_register %rbp
	subq	$48, %rsp
	movl	$263447148, -8(%rbp)    # imm = 0xFB3E26C
	movq	%rdi, -24(%rbp)
	movq	%rsi, -16(%rbp)
	movl	%edx, -4(%rbp)
	movq	%rcx, -32(%rbp)
	movq	%r8, -40(%rbp)
	movq	-24(%rbp), %rdi
	movq	-16(%rbp), %rsi
	movl	-4(%rbp), %edx
	movq	-32(%rbp), %rcx
	movq	-40(%rbp), %r9
	xorl	%r8d, %r8d
	movq	$0, (%rsp)
	callq	BZ2_bzWriteClose64
	cmpl	$263447148, -8(%rbp)    # imm = 0xFB3E26C
	jne	.LBB70_2
.LBB70_1:
	addq	$48, %rsp
	popq	%rbp
	.cfi_def_cfa %rsp, 8
	retq
.LBB70_2:                               # %func_exit
	.cfi_def_cfa %rbp, 16
	callq	detect_breach
	jmp	.LBB70_1
.Lfunc_end70:
	.size	BZ2_bzWriteClose.30, .Lfunc_end70-BZ2_bzWriteClose.30
	.cfi_endproc
                                        # -- End function
	.globl	BZ2_bzCompressEnd.31    # -- Begin function BZ2_bzCompressEnd.31
	.p2align	4, 0x90
	.type	BZ2_bzCompressEnd.31,@function
BZ2_bzCompressEnd.31:                   # @BZ2_bzCompressEnd.31
	.cfi_startproc
# %bb.0:                                # %entry
	pushq	%rbp
	.cfi_def_cfa_offset 16
	.cfi_offset %rbp, -16
	movq	%rsp, %rbp
	.cfi_def_cfa_register %rbp
	pushq	%rbx
	subq	$40, %rsp
	.cfi_offset %rbx, -24
	movl	$1767357784, -36(%rbp)  # imm = 0x6957BD58
	movq	%rdi, -16(%rbp)
	cmpq	$0, -16(%rbp)
	jne	.LBB71_2
# %bb.1:                                # %if.then
	movl	$-2, -20(%rbp)
	jmp	.LBB71_13
.LBB71_2:                               # %if.end
	movq	-16(%rbp), %rax
	movq	48(%rax), %rax
	movq	%rax, -32(%rbp)
	cmpq	$0, -32(%rbp)
	jne	.LBB71_4
# %bb.3:                                # %if.then2
	movl	$-2, -20(%rbp)
	jmp	.LBB71_13
.LBB71_4:                               # %if.end3
	movq	-32(%rbp), %rax
	movq	(%rax), %rax
	cmpq	-16(%rbp), %rax
	je	.LBB71_6
# %bb.5:                                # %if.then6
	movl	$-2, -20(%rbp)
	jmp	.LBB71_13
.LBB71_6:                               # %if.end7
	movq	-32(%rbp), %rax
	cmpq	$0, 24(%rax)
	je	.LBB71_8
# %bb.7:                                # %if.then9
	movq	-16(%rbp), %rax
	movq	64(%rax), %rax
	movq	-16(%rbp), %rcx
	movq	72(%rcx), %rdi
	movq	-32(%rbp), %rcx
	movq	24(%rcx), %rsi
	callq	*%rax
.LBB71_8:                               # %if.end11
	movq	-32(%rbp), %rax
	cmpq	$0, 32(%rax)
	je	.LBB71_10
# %bb.9:                                # %if.then13
	movq	-16(%rbp), %rax
	movq	64(%rax), %rax
	movq	-16(%rbp), %rcx
	movq	72(%rcx), %rdi
	movq	-32(%rbp), %rcx
	movq	32(%rcx), %rsi
	callq	*%rax
.LBB71_10:                              # %if.end17
	movq	-32(%rbp), %rax
	cmpq	$0, 40(%rax)
	je	.LBB71_12
# %bb.11:                               # %if.then19
	movq	-16(%rbp), %rax
	movq	64(%rax), %rax
	movq	-16(%rbp), %rcx
	movq	72(%rcx), %rdi
	movq	-32(%rbp), %rcx
	movq	40(%rcx), %rsi
	callq	*%rax
.LBB71_12:                              # %if.end23
	movq	-16(%rbp), %rax
	movq	64(%rax), %rax
	movq	-16(%rbp), %rcx
	movq	72(%rcx), %rdi
	movq	-16(%rbp), %rcx
	movq	48(%rcx), %rsi
	callq	*%rax
	movq	-16(%rbp), %rax
	movq	$0, 48(%rax)
	movl	$0, -20(%rbp)
.LBB71_13:                              # %return
	movl	-20(%rbp), %ebx
	cmpl	$1767357784, -36(%rbp)  # imm = 0x6957BD58
	jne	.LBB71_15
.LBB71_14:
	movl	%ebx, %eax
	addq	$40, %rsp
	popq	%rbx
	popq	%rbp
	.cfi_def_cfa %rsp, 8
	retq
.LBB71_15:                              # %func_exit
	.cfi_def_cfa %rbp, 16
	callq	detect_breach
	jmp	.LBB71_14
.Lfunc_end71:
	.size	BZ2_bzCompressEnd.31, .Lfunc_end71-BZ2_bzCompressEnd.31
	.cfi_endproc
                                        # -- End function
	.p2align	4, 0x90         # -- Begin function unRLE_obuf_to_output_FAST.32
	.type	unRLE_obuf_to_output_FAST.32,@function
unRLE_obuf_to_output_FAST.32:           # @unRLE_obuf_to_output_FAST.32
	.cfi_startproc
# %bb.0:                                # %entry
	pushq	%rbp
	.cfi_def_cfa_offset 16
	.cfi_offset %rbp, -16
	movq	%rsp, %rbp
	.cfi_def_cfa_register %rbp
	pushq	%rbx
	subq	$88, %rsp
	.cfi_offset %rbx, -24
	movl	$424065190, -92(%rbp)   # imm = 0x1946B8A6
	movq	%rdi, -24(%rbp)
	movq	-24(%rbp), %rax
	cmpb	$0, 20(%rax)
	je	.LBB72_48
# %bb.1:                                # %if.then
	jmp	.LBB72_2
.LBB72_2:                               # %while.body
                                        # =>This Loop Header: Depth=1
                                        #     Child Loop BB72_3 Depth 2
	jmp	.LBB72_3
.LBB72_3:                               # %while.body2
                                        #   Parent Loop BB72_2 Depth=1
                                        # =>  This Inner Loop Header: Depth=2
	movq	-24(%rbp), %rax
	movq	(%rax), %rax
	cmpl	$0, 32(%rax)
	jne	.LBB72_5
# %bb.4:                                # %if.then3
	movb	$0, -33(%rbp)
	jmp	.LBB72_82
.LBB72_5:                               # %if.end
                                        #   in Loop: Header=BB72_3 Depth=2
	movq	-24(%rbp), %rax
	cmpl	$0, 16(%rax)
	jne	.LBB72_7
# %bb.6:                                # %if.then5
                                        #   in Loop: Header=BB72_2 Depth=1
	jmp	.LBB72_10
.LBB72_7:                               # %if.end6
                                        #   in Loop: Header=BB72_3 Depth=2
	movq	-24(%rbp), %rax
	movb	12(%rax), %al
	movq	-24(%rbp), %rcx
	movq	(%rcx), %rcx
	movq	24(%rcx), %rcx
	movb	%al, (%rcx)
	movq	-24(%rbp), %rax
	movl	3184(%rax), %eax
	shll	$8, %eax
	movq	-24(%rbp), %rcx
	movl	3184(%rcx), %ecx
	shrl	$24, %ecx
	movq	-24(%rbp), %rdx
	movzbl	12(%rdx), %edx
	xorl	%edx, %ecx
	movl	%ecx, %ecx
	xorl	BZ2_crc32Table(,%rcx,4), %eax
	movq	-24(%rbp), %rcx
	movl	%eax, 3184(%rcx)
	movq	-24(%rbp), %rax
	movl	16(%rax), %ecx
	addl	$-1, %ecx
	movl	%ecx, 16(%rax)
	movq	-24(%rbp), %rax
	movq	(%rax), %rax
	movq	24(%rax), %rcx
	addq	$1, %rcx
	movq	%rcx, 24(%rax)
	movq	-24(%rbp), %rax
	movq	(%rax), %rax
	movl	32(%rax), %ecx
	addl	$-1, %ecx
	movl	%ecx, 32(%rax)
	movq	-24(%rbp), %rax
	movq	(%rax), %rax
	movl	36(%rax), %ecx
	addl	$1, %ecx
	movl	%ecx, 36(%rax)
	movq	-24(%rbp), %rax
	movq	(%rax), %rax
	cmpl	$0, 36(%rax)
	jne	.LBB72_9
# %bb.8:                                # %if.then23
                                        #   in Loop: Header=BB72_3 Depth=2
	movq	-24(%rbp), %rax
	movq	(%rax), %rax
	movl	40(%rax), %ecx
	addl	$1, %ecx
	movl	%ecx, 40(%rax)
.LBB72_9:                               # %if.end26
                                        #   in Loop: Header=BB72_3 Depth=2
	jmp	.LBB72_3
.LBB72_10:                              # %while.end
                                        #   in Loop: Header=BB72_2 Depth=1
	movq	-24(%rbp), %rax
	movl	1092(%rax), %eax
	movq	-24(%rbp), %rcx
	movl	64080(%rcx), %ecx
	addl	$1, %ecx
	cmpl	%ecx, %eax
	jne	.LBB72_12
# %bb.11:                               # %if.then29
	movb	$0, -33(%rbp)
	jmp	.LBB72_82
.LBB72_12:                              # %if.end30
                                        #   in Loop: Header=BB72_2 Depth=1
	movq	-24(%rbp), %rax
	movl	1092(%rax), %eax
	movq	-24(%rbp), %rcx
	movl	64080(%rcx), %ecx
	addl	$1, %ecx
	cmpl	%ecx, %eax
	jle	.LBB72_14
# %bb.13:                               # %if.then36
	movb	$1, -33(%rbp)
	jmp	.LBB72_82
.LBB72_14:                              # %if.end37
                                        #   in Loop: Header=BB72_2 Depth=1
	movq	-24(%rbp), %rax
	movl	$1, 16(%rax)
	movq	-24(%rbp), %rax
	movl	64(%rax), %eax
	movq	-24(%rbp), %rcx
	movb	%al, 12(%rcx)
	movq	-24(%rbp), %rax
	movq	3152(%rax), %rax
	movq	-24(%rbp), %rcx
	movl	60(%rcx), %ecx
	movl	(%rax,%rcx,4), %eax
	movq	-24(%rbp), %rcx
	movl	%eax, 60(%rcx)
	movq	-24(%rbp), %rax
	movl	60(%rax), %eax
	andl	$255, %eax
	movb	%al, -9(%rbp)
	movq	-24(%rbp), %rax
	movl	60(%rax), %ecx
	shrl	$8, %ecx
	movl	%ecx, 60(%rax)
	movq	-24(%rbp), %rax
	cmpl	$0, 24(%rax)
	jne	.LBB72_18
# %bb.15:                               # %if.then50
                                        #   in Loop: Header=BB72_2 Depth=1
	movq	-24(%rbp), %rax
	movslq	28(%rax), %rax
	movl	BZ2_rNums(,%rax,4), %eax
	movq	-24(%rbp), %rcx
	movl	%eax, 24(%rcx)
	movq	-24(%rbp), %rax
	movl	28(%rax), %ecx
	addl	$1, %ecx
	movl	%ecx, 28(%rax)
	movq	-24(%rbp), %rax
	cmpl	$512, 28(%rax)          # imm = 0x200
	jne	.LBB72_17
# %bb.16:                               # %if.then59
                                        #   in Loop: Header=BB72_2 Depth=1
	movq	-24(%rbp), %rax
	movl	$0, 28(%rax)
.LBB72_17:                              # %if.end61
                                        #   in Loop: Header=BB72_2 Depth=1
	jmp	.LBB72_18
.LBB72_18:                              # %if.end62
                                        #   in Loop: Header=BB72_2 Depth=1
	xorl	%eax, %eax
	movq	-24(%rbp), %rcx
	movl	24(%rcx), %edx
	addl	$-1, %edx
	movl	%edx, 24(%rcx)
	movq	-24(%rbp), %rcx
	movl	24(%rcx), %ecx
	cmpl	$1, %ecx
	movl	$1, %ecx
	cmovel	%ecx, %eax
	movzbl	-9(%rbp), %ecx
	xorl	%eax, %ecx
	movb	%cl, -9(%rbp)
	movq	-24(%rbp), %rax
	movl	1092(%rax), %ecx
	addl	$1, %ecx
	movl	%ecx, 1092(%rax)
	movq	-24(%rbp), %rax
	movl	1092(%rax), %eax
	movq	-24(%rbp), %rcx
	movl	64080(%rcx), %ecx
	addl	$1, %ecx
	cmpl	%ecx, %eax
	jne	.LBB72_21
# %bb.19:                               # %if.then78
                                        #   in Loop: Header=BB72_2 Depth=1
	jmp	.LBB72_20
.LBB72_20:                              # %while.body.backedge
                                        #   in Loop: Header=BB72_2 Depth=1
	jmp	.LBB72_2
.LBB72_21:                              # %if.end79
                                        #   in Loop: Header=BB72_2 Depth=1
	movzbl	-9(%rbp), %eax
	movq	-24(%rbp), %rcx
	cmpl	64(%rcx), %eax
	je	.LBB72_23
# %bb.22:                               # %if.then84
                                        #   in Loop: Header=BB72_2 Depth=1
	movzbl	-9(%rbp), %eax
	movq	-24(%rbp), %rcx
	movl	%eax, 64(%rcx)
	jmp	.LBB72_20
.LBB72_23:                              # %if.end87
                                        #   in Loop: Header=BB72_2 Depth=1
	movq	-24(%rbp), %rax
	movl	$2, 16(%rax)
	movq	-24(%rbp), %rax
	movq	3152(%rax), %rax
	movq	-24(%rbp), %rcx
	movl	60(%rcx), %ecx
	movl	(%rax,%rcx,4), %eax
	movq	-24(%rbp), %rcx
	movl	%eax, 60(%rcx)
	movq	-24(%rbp), %rax
	movl	60(%rax), %eax
	andl	$255, %eax
	movb	%al, -9(%rbp)
	movq	-24(%rbp), %rax
	movl	60(%rax), %ecx
	shrl	$8, %ecx
	movl	%ecx, 60(%rax)
	movq	-24(%rbp), %rax
	cmpl	$0, 24(%rax)
	jne	.LBB72_27
# %bb.24:                               # %if.then102
                                        #   in Loop: Header=BB72_2 Depth=1
	movq	-24(%rbp), %rax
	movslq	28(%rax), %rax
	movl	BZ2_rNums(,%rax,4), %eax
	movq	-24(%rbp), %rcx
	movl	%eax, 24(%rcx)
	movq	-24(%rbp), %rax
	movl	28(%rax), %ecx
	addl	$1, %ecx
	movl	%ecx, 28(%rax)
	movq	-24(%rbp), %rax
	cmpl	$512, 28(%rax)          # imm = 0x200
	jne	.LBB72_26
# %bb.25:                               # %if.then112
                                        #   in Loop: Header=BB72_2 Depth=1
	movq	-24(%rbp), %rax
	movl	$0, 28(%rax)
.LBB72_26:                              # %if.end114
                                        #   in Loop: Header=BB72_2 Depth=1
	jmp	.LBB72_27
.LBB72_27:                              # %if.end115
                                        #   in Loop: Header=BB72_2 Depth=1
	xorl	%eax, %eax
	movq	-24(%rbp), %rcx
	movl	24(%rcx), %edx
	addl	$-1, %edx
	movl	%edx, 24(%rcx)
	movq	-24(%rbp), %rcx
	movl	24(%rcx), %ecx
	cmpl	$1, %ecx
	movl	$1, %ecx
	cmovel	%ecx, %eax
	movzbl	-9(%rbp), %ecx
	xorl	%eax, %ecx
	movb	%cl, -9(%rbp)
	movq	-24(%rbp), %rax
	movl	1092(%rax), %ecx
	addl	$1, %ecx
	movl	%ecx, 1092(%rax)
	movq	-24(%rbp), %rax
	movl	1092(%rax), %eax
	movq	-24(%rbp), %rcx
	movl	64080(%rcx), %ecx
	addl	$1, %ecx
	cmpl	%ecx, %eax
	jne	.LBB72_29
# %bb.28:                               # %if.then132
                                        #   in Loop: Header=BB72_2 Depth=1
	jmp	.LBB72_20
.LBB72_29:                              # %if.end133
                                        #   in Loop: Header=BB72_2 Depth=1
	movzbl	-9(%rbp), %eax
	movq	-24(%rbp), %rcx
	cmpl	64(%rcx), %eax
	je	.LBB72_31
# %bb.30:                               # %if.then138
                                        #   in Loop: Header=BB72_2 Depth=1
	movzbl	-9(%rbp), %eax
	movq	-24(%rbp), %rcx
	movl	%eax, 64(%rcx)
	jmp	.LBB72_20
.LBB72_31:                              # %if.end141
                                        #   in Loop: Header=BB72_2 Depth=1
	movq	-24(%rbp), %rax
	movl	$3, 16(%rax)
	movq	-24(%rbp), %rax
	movq	3152(%rax), %rax
	movq	-24(%rbp), %rcx
	movl	60(%rcx), %ecx
	movl	(%rax,%rcx,4), %eax
	movq	-24(%rbp), %rcx
	movl	%eax, 60(%rcx)
	movq	-24(%rbp), %rax
	movl	60(%rax), %eax
	andl	$255, %eax
	movb	%al, -9(%rbp)
	movq	-24(%rbp), %rax
	movl	60(%rax), %ecx
	shrl	$8, %ecx
	movl	%ecx, 60(%rax)
	movq	-24(%rbp), %rax
	cmpl	$0, 24(%rax)
	jne	.LBB72_35
# %bb.32:                               # %if.then156
                                        #   in Loop: Header=BB72_2 Depth=1
	movq	-24(%rbp), %rax
	movslq	28(%rax), %rax
	movl	BZ2_rNums(,%rax,4), %eax
	movq	-24(%rbp), %rcx
	movl	%eax, 24(%rcx)
	movq	-24(%rbp), %rax
	movl	28(%rax), %ecx
	addl	$1, %ecx
	movl	%ecx, 28(%rax)
	movq	-24(%rbp), %rax
