	.text
	.file	"bzlib.c"
	.globl	BZ2_bz__AssertH__fail   # -- Begin function BZ2_bz__AssertH__fail
	.p2align	4, 0x90
	.type	BZ2_bz__AssertH__fail,@function
BZ2_bz__AssertH__fail:                  # @BZ2_bz__AssertH__fail
	.cfi_startproc
# %bb.0:                                # %entry
	pushq	%rbp
	.cfi_def_cfa_offset 16
	.cfi_offset %rbp, -16
	movq	%rsp, %rbp
	.cfi_def_cfa_register %rbp
	pushq	%r14
	pushq	%rbx
	subq	$16, %rsp
	.cfi_offset %rbx, -32
	.cfi_offset %r14, -24
	movl	%edi, -20(%rbp)
	movq	stderr, %rbx
	movl	-20(%rbp), %r14d
	callq	BZ2_bzlibVersion
	movq	%rbx, %rdi
	movabsq	$.L.str, %rsi
	movl	%r14d, %edx
	movq	%rax, %rcx
	movb	$0, %al
	callq	fprintf
	cmpl	$1007, -20(%rbp)        # imm = 0x3EF
	jne	.LBB0_2
# %bb.1:                                # %if.then
	movq	stderr, %rdi
	movabsq	$.L.str.1, %rsi
	movb	$0, %al
	callq	fprintf
.LBB0_2:                                # %if.end
	movl	$3, %edi
	callq	exit
.Lfunc_end0:
	.size	BZ2_bz__AssertH__fail, .Lfunc_end0-BZ2_bz__AssertH__fail
	.cfi_endproc
                                        # -- End function
	.globl	BZ2_bzlibVersion        # -- Begin function BZ2_bzlibVersion
	.p2align	4, 0x90
	.type	BZ2_bzlibVersion,@function
BZ2_bzlibVersion:                       # @BZ2_bzlibVersion
	.cfi_startproc
# %bb.0:                                # %entry
	pushq	%rbp
	.cfi_def_cfa_offset 16
	.cfi_offset %rbp, -16
	movq	%rsp, %rbp
	.cfi_def_cfa_register %rbp
	movabsq	$.L.str.5, %rax
	popq	%rbp
	.cfi_def_cfa %rsp, 8
	retq
.Lfunc_end1:
	.size	BZ2_bzlibVersion, .Lfunc_end1-BZ2_bzlibVersion
	.cfi_endproc
                                        # -- End function
	.globl	BZ2_bzCompressInit      # -- Begin function BZ2_bzCompressInit
	.p2align	4, 0x90
	.type	BZ2_bzCompressInit,@function
BZ2_bzCompressInit:                     # @BZ2_bzCompressInit
	.cfi_startproc
# %bb.0:                                # %rand_bb
	pushq	%rbp
	.cfi_def_cfa_offset 16
	.cfi_offset %rbp, -16
	movq	%rsp, %rbp
	.cfi_def_cfa_register %rbp
	pushq	%r15
	pushq	%r14
	pushq	%r12
	pushq	%rbx
	.cfi_offset %rbx, -48
	.cfi_offset %r12, -40
	.cfi_offset %r14, -32
	.cfi_offset %r15, -24
	movl	%ecx, %r14d
	movl	%edx, %r15d
	movl	%esi, %r12d
	movq	%rdi, %rbx
	callq	get_urand
	cmpl	$0, %eax
	jne	.LBB2_5
# %bb.1:                                # %func_BZ2_bzCompressInit.63
	movq	%rbx, %rdi
	movl	%r12d, %esi
	movl	%r15d, %edx
	movl	%r14d, %ecx
	callq	BZ2_bzCompressInit.63
	popq	%rbx
	popq	%r12
	popq	%r14
	popq	%r15
	popq	%rbp
	.cfi_def_cfa %rsp, 8
	retq
.LBB2_2:                                # %func_BZ2_bzCompressInit.104
	.cfi_def_cfa %rbp, 16
	movq	%rbx, %rdi
	movl	%r12d, %esi
	movl	%r15d, %edx
	movl	%r14d, %ecx
	callq	BZ2_bzCompressInit.104
	popq	%rbx
	popq	%r12
	popq	%r14
	popq	%r15
	popq	%rbp
	.cfi_def_cfa %rsp, 8
	retq
.LBB2_3:                                # %func_BZ2_bzCompressInit.109
	.cfi_def_cfa %rbp, 16
	movq	%rbx, %rdi
	movl	%r12d, %esi
	movl	%r15d, %edx
	movl	%r14d, %ecx
	callq	BZ2_bzCompressInit.109
	popq	%rbx
	popq	%r12
	popq	%r14
	popq	%r15
	popq	%rbp
	.cfi_def_cfa %rsp, 8
	retq
.LBB2_4:                                # %func_BZ2_bzCompressInit.124
	.cfi_def_cfa %rbp, 16
	movq	%rbx, %rdi
	movl	%r12d, %esi
	movl	%r15d, %edx
	movl	%r14d, %ecx
	callq	BZ2_bzCompressInit.124
	popq	%rbx
	popq	%r12
	popq	%r14
	popq	%r15
	popq	%rbp
	.cfi_def_cfa %rsp, 8
	retq
.LBB2_5:                                # %ctrl0
	.cfi_def_cfa %rbp, 16
	cmpl	$1, %eax
	je	.LBB2_2
# %bb.6:                                # %ctrl1
	cmpl	$2, %eax
	je	.LBB2_3
	jmp	.LBB2_4
.Lfunc_end2:
	.size	BZ2_bzCompressInit, .Lfunc_end2-BZ2_bzCompressInit
	.cfi_endproc
                                        # -- End function
	.p2align	4, 0x90         # -- Begin function bz_config_ok
	.type	bz_config_ok,@function
bz_config_ok:                           # @bz_config_ok
	.cfi_startproc
# %bb.0:                                # %entry
	pushq	%rbp
	.cfi_def_cfa_offset 16
	.cfi_offset %rbp, -16
	movq	%rsp, %rbp
	.cfi_def_cfa_register %rbp
	movl	$1, %eax
	popq	%rbp
	.cfi_def_cfa %rsp, 8
	retq
.Lfunc_end3:
	.size	bz_config_ok, .Lfunc_end3-bz_config_ok
	.cfi_endproc
                                        # -- End function
	.p2align	4, 0x90         # -- Begin function default_bzalloc
	.type	default_bzalloc,@function
default_bzalloc:                        # @default_bzalloc
	.cfi_startproc
# %bb.0:                                # %rand_bb
	pushq	%rbp
	.cfi_def_cfa_offset 16
	.cfi_offset %rbp, -16
	movq	%rsp, %rbp
	.cfi_def_cfa_register %rbp
	pushq	%r15
	pushq	%r14
	pushq	%rbx
	pushq	%rax
	.cfi_offset %rbx, -40
	.cfi_offset %r14, -32
	.cfi_offset %r15, -24
	movl	%edx, %r14d
	movl	%esi, %r15d
	movq	%rdi, %rbx
	callq	get_urand
	cmpl	$0, %eax
	jne	.LBB4_5
# %bb.1:                                # %func_default_bzalloc.10
	movq	%rbx, %rdi
	movl	%r15d, %esi
	movl	%r14d, %edx
	callq	default_bzalloc.10
	addq	$8, %rsp
	popq	%rbx
	popq	%r14
	popq	%r15
	popq	%rbp
	.cfi_def_cfa %rsp, 8
	retq
.LBB4_2:                                # %func_default_bzalloc.16
	.cfi_def_cfa %rbp, 16
	movq	%rbx, %rdi
	movl	%r15d, %esi
	movl	%r14d, %edx
	callq	default_bzalloc.16
	addq	$8, %rsp
	popq	%rbx
	popq	%r14
	popq	%r15
	popq	%rbp
	.cfi_def_cfa %rsp, 8
	retq
.LBB4_3:                                # %func_default_bzalloc.24
	.cfi_def_cfa %rbp, 16
	movq	%rbx, %rdi
	movl	%r15d, %esi
	movl	%r14d, %edx
	callq	default_bzalloc.24
	addq	$8, %rsp
	popq	%rbx
	popq	%r14
	popq	%r15
	popq	%rbp
	.cfi_def_cfa %rsp, 8
	retq
.LBB4_4:                                # %func_default_bzalloc.38
	.cfi_def_cfa %rbp, 16
	movq	%rbx, %rdi
	movl	%r15d, %esi
	movl	%r14d, %edx
	callq	default_bzalloc.38
	addq	$8, %rsp
	popq	%rbx
	popq	%r14
	popq	%r15
	popq	%rbp
	.cfi_def_cfa %rsp, 8
	retq
.LBB4_5:                                # %ctrl0
	.cfi_def_cfa %rbp, 16
	cmpl	$1, %eax
	je	.LBB4_2
# %bb.6:                                # %ctrl1
	cmpl	$2, %eax
	je	.LBB4_3
	jmp	.LBB4_4
.Lfunc_end4:
	.size	default_bzalloc, .Lfunc_end4-default_bzalloc
	.cfi_endproc
                                        # -- End function
	.p2align	4, 0x90         # -- Begin function default_bzfree
	.type	default_bzfree,@function
default_bzfree:                         # @default_bzfree
	.cfi_startproc
# %bb.0:                                # %rand_bb
	pushq	%rbp
	.cfi_def_cfa_offset 16
	.cfi_offset %rbp, -16
	movq	%rsp, %rbp
	.cfi_def_cfa_register %rbp
	pushq	%r14
	pushq	%rbx
	.cfi_offset %rbx, -32
	.cfi_offset %r14, -24
	movq	%rsi, %r14
	movq	%rdi, %rbx
	callq	get_urand
	cmpl	$0, %eax
	jne	.LBB5_2
# %bb.1:                                # %func_default_bzfree.7
	movq	%rbx, %rdi
	movq	%r14, %rsi
	callq	default_bzfree.7
	popq	%rbx
	popq	%r14
	popq	%rbp
	.cfi_def_cfa %rsp, 8
	retq
.LBB5_2:                                # %func_default_bzfree.102
	.cfi_def_cfa %rbp, 16
	movq	%rbx, %rdi
	movq	%r14, %rsi
	callq	default_bzfree.102
	popq	%rbx
	popq	%r14
	popq	%rbp
	.cfi_def_cfa %rsp, 8
	retq
.Lfunc_end5:
	.size	default_bzfree, .Lfunc_end5-default_bzfree
	.cfi_endproc
                                        # -- End function
	.p2align	4, 0x90         # -- Begin function init_RL
	.type	init_RL,@function
init_RL:                                # @init_RL
	.cfi_startproc
# %bb.0:                                # %entry
	pushq	%rbp
	.cfi_def_cfa_offset 16
	.cfi_offset %rbp, -16
	movq	%rsp, %rbp
	.cfi_def_cfa_register %rbp
	movq	%rdi, -8(%rbp)
	movq	-8(%rbp), %rax
	movl	$256, 92(%rax)          # imm = 0x100
	movq	-8(%rbp), %rax
	movl	$0, 96(%rax)
	popq	%rbp
	.cfi_def_cfa %rsp, 8
	retq
.Lfunc_end6:
	.size	init_RL, .Lfunc_end6-init_RL
	.cfi_endproc
                                        # -- End function
	.p2align	4, 0x90         # -- Begin function prepare_new_block
	.type	prepare_new_block,@function
prepare_new_block:                      # @prepare_new_block
	.cfi_startproc
# %bb.0:                                # %rand_bb
	pushq	%rbp
	.cfi_def_cfa_offset 16
	.cfi_offset %rbp, -16
	movq	%rsp, %rbp
	.cfi_def_cfa_register %rbp
	pushq	%rbx
	pushq	%rax
	.cfi_offset %rbx, -24
	movq	%rdi, %rbx
	callq	get_urand
	cmpl	$0, %eax
	jne	.LBB7_2
# %bb.1:                                # %func_prepare_new_block.40
	movq	%rbx, %rdi
	callq	prepare_new_block.40
	addq	$8, %rsp
	popq	%rbx
	popq	%rbp
	.cfi_def_cfa %rsp, 8
	retq
.LBB7_2:                                # %func_prepare_new_block.75
	.cfi_def_cfa %rbp, 16
	movq	%rbx, %rdi
	callq	prepare_new_block.75
	addq	$8, %rsp
	popq	%rbx
	popq	%rbp
	.cfi_def_cfa %rsp, 8
	retq
.Lfunc_end7:
	.size	prepare_new_block, .Lfunc_end7-prepare_new_block
	.cfi_endproc
                                        # -- End function
	.globl	BZ2_bzCompress          # -- Begin function BZ2_bzCompress
	.p2align	4, 0x90
	.type	BZ2_bzCompress,@function
BZ2_bzCompress:                         # @BZ2_bzCompress
	.cfi_startproc
# %bb.0:                                # %rand_bb
	pushq	%rbp
	.cfi_def_cfa_offset 16
	.cfi_offset %rbp, -16
	movq	%rsp, %rbp
	.cfi_def_cfa_register %rbp
	pushq	%r14
	pushq	%rbx
	.cfi_offset %rbx, -32
	.cfi_offset %r14, -24
	movl	%esi, %r14d
	movq	%rdi, %rbx
	callq	get_urand
	cmpl	$0, %eax
	jne	.LBB8_5
# %bb.1:                                # %func_BZ2_bzCompress.85
	movq	%rbx, %rdi
	movl	%r14d, %esi
	callq	BZ2_bzCompress.85
	popq	%rbx
	popq	%r14
	popq	%rbp
	.cfi_def_cfa %rsp, 8
	retq
.LBB8_2:                                # %func_BZ2_bzCompress.94
	.cfi_def_cfa %rbp, 16
	movq	%rbx, %rdi
	movl	%r14d, %esi
	callq	BZ2_bzCompress.94
	popq	%rbx
	popq	%r14
	popq	%rbp
	.cfi_def_cfa %rsp, 8
	retq
.LBB8_3:                                # %func_BZ2_bzCompress.100
	.cfi_def_cfa %rbp, 16
	movq	%rbx, %rdi
	movl	%r14d, %esi
	callq	BZ2_bzCompress.100
	popq	%rbx
	popq	%r14
	popq	%rbp
	.cfi_def_cfa %rsp, 8
	retq
.LBB8_4:                                # %func_BZ2_bzCompress.126
	.cfi_def_cfa %rbp, 16
	movq	%rbx, %rdi
	movl	%r14d, %esi
	callq	BZ2_bzCompress.126
	popq	%rbx
	popq	%r14
	popq	%rbp
	.cfi_def_cfa %rsp, 8
	retq
.LBB8_5:                                # %ctrl0
	.cfi_def_cfa %rbp, 16
	cmpl	$1, %eax
	je	.LBB8_2
# %bb.6:                                # %ctrl1
	cmpl	$2, %eax
	je	.LBB8_3
	jmp	.LBB8_4
.Lfunc_end8:
	.size	BZ2_bzCompress, .Lfunc_end8-BZ2_bzCompress
	.cfi_endproc
                                        # -- End function
	.p2align	4, 0x90         # -- Begin function handle_compress
	.type	handle_compress,@function
handle_compress:                        # @handle_compress
	.cfi_startproc
# %bb.0:                                # %rand_bb
	pushq	%rbp
	.cfi_def_cfa_offset 16
	.cfi_offset %rbp, -16
	movq	%rsp, %rbp
	.cfi_def_cfa_register %rbp
	pushq	%rbx
	pushq	%rax
	.cfi_offset %rbx, -24
	movq	%rdi, %rbx
	callq	get_urand
	cmpl	$0, %eax
	jne	.LBB9_5
# %bb.1:                                # %func_handle_compress.12
	movq	%rbx, %rdi
	callq	handle_compress.12
	movzbl	%al, %eax
	addq	$8, %rsp
	popq	%rbx
	popq	%rbp
	.cfi_def_cfa %rsp, 8
	retq
.LBB9_2:                                # %func_handle_compress.20
	.cfi_def_cfa %rbp, 16
	movq	%rbx, %rdi
	callq	handle_compress.20
	movzbl	%al, %eax
	addq	$8, %rsp
	popq	%rbx
	popq	%rbp
	.cfi_def_cfa %rsp, 8
	retq
.LBB9_3:                                # %func_handle_compress.72
	.cfi_def_cfa %rbp, 16
	movq	%rbx, %rdi
	callq	handle_compress.72
	movzbl	%al, %eax
	addq	$8, %rsp
	popq	%rbx
	popq	%rbp
	.cfi_def_cfa %rsp, 8
	retq
.LBB9_4:                                # %func_handle_compress.81
	.cfi_def_cfa %rbp, 16
	movq	%rbx, %rdi
	callq	handle_compress.81
	movzbl	%al, %eax
	addq	$8, %rsp
	popq	%rbx
	popq	%rbp
	.cfi_def_cfa %rsp, 8
	retq
.LBB9_5:                                # %ctrl0
	.cfi_def_cfa %rbp, 16
	cmpl	$1, %eax
	je	.LBB9_2
# %bb.6:                                # %ctrl1
	cmpl	$2, %eax
	je	.LBB9_3
	jmp	.LBB9_4
.Lfunc_end9:
	.size	handle_compress, .Lfunc_end9-handle_compress
	.cfi_endproc
                                        # -- End function
	.p2align	4, 0x90         # -- Begin function isempty_RL
	.type	isempty_RL,@function
isempty_RL:                             # @isempty_RL
	.cfi_startproc
# %bb.0:                                # %rand_bb
	pushq	%rbp
	.cfi_def_cfa_offset 16
	.cfi_offset %rbp, -16
	movq	%rsp, %rbp
	.cfi_def_cfa_register %rbp
	pushq	%rbx
	pushq	%rax
	.cfi_offset %rbx, -24
	movq	%rdi, %rbx
	callq	get_urand
	cmpl	$0, %eax
	jne	.LBB10_2
# %bb.1:                                # %func_isempty_RL.6
	movq	%rbx, %rdi
	callq	isempty_RL.6
	movzbl	%al, %eax
	addq	$8, %rsp
	popq	%rbx
	popq	%rbp
	.cfi_def_cfa %rsp, 8
	retq
.LBB10_2:                               # %func_isempty_RL.68
	.cfi_def_cfa %rbp, 16
	movq	%rbx, %rdi
	callq	isempty_RL.68
	movzbl	%al, %eax
	addq	$8, %rsp
	popq	%rbx
	popq	%rbp
	.cfi_def_cfa %rsp, 8
	retq
.Lfunc_end10:
	.size	isempty_RL, .Lfunc_end10-isempty_RL
	.cfi_endproc
                                        # -- End function
	.globl	BZ2_bzCompressEnd       # -- Begin function BZ2_bzCompressEnd
	.p2align	4, 0x90
	.type	BZ2_bzCompressEnd,@function
BZ2_bzCompressEnd:                      # @BZ2_bzCompressEnd
	.cfi_startproc
# %bb.0:                                # %rand_bb
	pushq	%rbp
	.cfi_def_cfa_offset 16
	.cfi_offset %rbp, -16
	movq	%rsp, %rbp
	.cfi_def_cfa_register %rbp
	pushq	%rbx
	pushq	%rax
	.cfi_offset %rbx, -24
	movq	%rdi, %rbx
	callq	get_urand
	cmpl	$0, %eax
	jne	.LBB11_5
# %bb.1:                                # %func_BZ2_bzCompressEnd.47
	movq	%rbx, %rdi
	callq	BZ2_bzCompressEnd.47
	addq	$8, %rsp
	popq	%rbx
	popq	%rbp
	.cfi_def_cfa %rsp, 8
	retq
.LBB11_2:                               # %func_BZ2_bzCompressEnd.65
	.cfi_def_cfa %rbp, 16
	movq	%rbx, %rdi
	callq	BZ2_bzCompressEnd.65
	addq	$8, %rsp
	popq	%rbx
	popq	%rbp
	.cfi_def_cfa %rsp, 8
	retq
.LBB11_3:                               # %func_BZ2_bzCompressEnd.97
	.cfi_def_cfa %rbp, 16
	movq	%rbx, %rdi
	callq	BZ2_bzCompressEnd.97
	addq	$8, %rsp
	popq	%rbx
	popq	%rbp
	.cfi_def_cfa %rsp, 8
	retq
.LBB11_4:                               # %func_BZ2_bzCompressEnd.112
	.cfi_def_cfa %rbp, 16
	movq	%rbx, %rdi
	callq	BZ2_bzCompressEnd.112
	addq	$8, %rsp
	popq	%rbx
	popq	%rbp
	.cfi_def_cfa %rsp, 8
	retq
.LBB11_5:                               # %ctrl0
	.cfi_def_cfa %rbp, 16
	cmpl	$1, %eax
	je	.LBB11_2
# %bb.6:                                # %ctrl1
	cmpl	$2, %eax
	je	.LBB11_3
	jmp	.LBB11_4
.Lfunc_end11:
	.size	BZ2_bzCompressEnd, .Lfunc_end11-BZ2_bzCompressEnd
	.cfi_endproc
                                        # -- End function
	.globl	BZ2_bzDecompressInit    # -- Begin function BZ2_bzDecompressInit
	.p2align	4, 0x90
	.type	BZ2_bzDecompressInit,@function
BZ2_bzDecompressInit:                   # @BZ2_bzDecompressInit
	.cfi_startproc
# %bb.0:                                # %rand_bb
	pushq	%rbp
	.cfi_def_cfa_offset 16
	.cfi_offset %rbp, -16
	movq	%rsp, %rbp
	.cfi_def_cfa_register %rbp
	pushq	%r15
	pushq	%r14
	pushq	%rbx
	pushq	%rax
	.cfi_offset %rbx, -40
	.cfi_offset %r14, -32
	.cfi_offset %r15, -24
	movl	%edx, %r14d
	movl	%esi, %r15d
	movq	%rdi, %rbx
	callq	get_urand
	cmpl	$0, %eax
	jne	.LBB12_5
# %bb.1:                                # %func_BZ2_bzDecompressInit.15
	movq	%rbx, %rdi
	movl	%r15d, %esi
	movl	%r14d, %edx
	callq	BZ2_bzDecompressInit.15
	addq	$8, %rsp
	popq	%rbx
	popq	%r14
	popq	%r15
	popq	%rbp
	.cfi_def_cfa %rsp, 8
	retq
.LBB12_2:                               # %func_BZ2_bzDecompressInit.39
	.cfi_def_cfa %rbp, 16
	movq	%rbx, %rdi
	movl	%r15d, %esi
	movl	%r14d, %edx
	callq	BZ2_bzDecompressInit.39
	addq	$8, %rsp
	popq	%rbx
	popq	%r14
	popq	%r15
	popq	%rbp
	.cfi_def_cfa %rsp, 8
	retq
.LBB12_3:                               # %func_BZ2_bzDecompressInit.62
	.cfi_def_cfa %rbp, 16
	movq	%rbx, %rdi
	movl	%r15d, %esi
	movl	%r14d, %edx
	callq	BZ2_bzDecompressInit.62
	addq	$8, %rsp
	popq	%rbx
	popq	%r14
	popq	%r15
	popq	%rbp
	.cfi_def_cfa %rsp, 8
	retq
.LBB12_4:                               # %func_BZ2_bzDecompressInit.67
	.cfi_def_cfa %rbp, 16
	movq	%rbx, %rdi
	movl	%r15d, %esi
	movl	%r14d, %edx
	callq	BZ2_bzDecompressInit.67
	addq	$8, %rsp
	popq	%rbx
	popq	%r14
	popq	%r15
	popq	%rbp
	.cfi_def_cfa %rsp, 8
	retq
.LBB12_5:                               # %ctrl0
	.cfi_def_cfa %rbp, 16
	cmpl	$1, %eax
	je	.LBB12_2
# %bb.6:                                # %ctrl1
	cmpl	$2, %eax
	je	.LBB12_3
	jmp	.LBB12_4
.Lfunc_end12:
	.size	BZ2_bzDecompressInit, .Lfunc_end12-BZ2_bzDecompressInit
	.cfi_endproc
                                        # -- End function
	.globl	BZ2_indexIntoF          # -- Begin function BZ2_indexIntoF
	.p2align	4, 0x90
	.type	BZ2_indexIntoF,@function
BZ2_indexIntoF:                         # @BZ2_indexIntoF
	.cfi_startproc
# %bb.0:                                # %rand_bb
	pushq	%rbp
	.cfi_def_cfa_offset 16
	.cfi_offset %rbp, -16
	movq	%rsp, %rbp
	.cfi_def_cfa_register %rbp
	pushq	%r14
	pushq	%rbx
	.cfi_offset %rbx, -32
	.cfi_offset %r14, -24
	movq	%rsi, %r14
	movl	%edi, %ebx
	callq	get_urand
	cmpl	$0, %eax
	jne	.LBB13_5
# %bb.1:                                # %func_BZ2_indexIntoF.11
	movl	%ebx, %edi
	movq	%r14, %rsi
	callq	BZ2_indexIntoF.11
	popq	%rbx
	popq	%r14
	popq	%rbp
	.cfi_def_cfa %rsp, 8
	retq
.LBB13_2:                               # %func_BZ2_indexIntoF.61
	.cfi_def_cfa %rbp, 16
	movl	%ebx, %edi
	movq	%r14, %rsi
	callq	BZ2_indexIntoF.61
	popq	%rbx
	popq	%r14
	popq	%rbp
	.cfi_def_cfa %rsp, 8
	retq
.LBB13_3:                               # %func_BZ2_indexIntoF.120
	.cfi_def_cfa %rbp, 16
	movl	%ebx, %edi
	movq	%r14, %rsi
	callq	BZ2_indexIntoF.120
	popq	%rbx
	popq	%r14
	popq	%rbp
	.cfi_def_cfa %rsp, 8
	retq
.LBB13_4:                               # %func_BZ2_indexIntoF.122
	.cfi_def_cfa %rbp, 16
	movl	%ebx, %edi
	movq	%r14, %rsi
	callq	BZ2_indexIntoF.122
	popq	%rbx
	popq	%r14
	popq	%rbp
	.cfi_def_cfa %rsp, 8
	retq
.LBB13_5:                               # %ctrl0
	.cfi_def_cfa %rbp, 16
	cmpl	$1, %eax
	je	.LBB13_2
# %bb.6:                                # %ctrl1
	cmpl	$2, %eax
	je	.LBB13_3
	jmp	.LBB13_4
.Lfunc_end13:
	.size	BZ2_indexIntoF, .Lfunc_end13-BZ2_indexIntoF
	.cfi_endproc
                                        # -- End function
	.globl	BZ2_bzDecompress        # -- Begin function BZ2_bzDecompress
	.p2align	4, 0x90
	.type	BZ2_bzDecompress,@function
BZ2_bzDecompress:                       # @BZ2_bzDecompress
	.cfi_startproc
# %bb.0:                                # %rand_bb
	pushq	%rbp
	.cfi_def_cfa_offset 16
	.cfi_offset %rbp, -16
	movq	%rsp, %rbp
	.cfi_def_cfa_register %rbp
	pushq	%rbx
	pushq	%rax
	.cfi_offset %rbx, -24
	movq	%rdi, %rbx
	callq	get_urand
	cmpl	$0, %eax
	jne	.LBB14_5
# %bb.1:                                # %func_BZ2_bzDecompress.53
	movq	%rbx, %rdi
	callq	BZ2_bzDecompress.53
	addq	$8, %rsp
	popq	%rbx
	popq	%rbp
	.cfi_def_cfa %rsp, 8
	retq
.LBB14_2:                               # %func_BZ2_bzDecompress.55
	.cfi_def_cfa %rbp, 16
	movq	%rbx, %rdi
	callq	BZ2_bzDecompress.55
	addq	$8, %rsp
	popq	%rbx
	popq	%rbp
	.cfi_def_cfa %rsp, 8
	retq
.LBB14_3:                               # %func_BZ2_bzDecompress.56
	.cfi_def_cfa %rbp, 16
	movq	%rbx, %rdi
	callq	BZ2_bzDecompress.56
	addq	$8, %rsp
	popq	%rbx
	popq	%rbp
	.cfi_def_cfa %rsp, 8
	retq
.LBB14_4:                               # %func_BZ2_bzDecompress.113
	.cfi_def_cfa %rbp, 16
	movq	%rbx, %rdi
	callq	BZ2_bzDecompress.113
	addq	$8, %rsp
	popq	%rbx
	popq	%rbp
	.cfi_def_cfa %rsp, 8
	retq
.LBB14_5:                               # %ctrl0
	.cfi_def_cfa %rbp, 16
	cmpl	$1, %eax
	je	.LBB14_2
# %bb.6:                                # %ctrl1
	cmpl	$2, %eax
	je	.LBB14_3
	jmp	.LBB14_4
.Lfunc_end14:
	.size	BZ2_bzDecompress, .Lfunc_end14-BZ2_bzDecompress
	.cfi_endproc
                                        # -- End function
	.p2align	4, 0x90         # -- Begin function unRLE_obuf_to_output_SMALL
	.type	unRLE_obuf_to_output_SMALL,@function
unRLE_obuf_to_output_SMALL:             # @unRLE_obuf_to_output_SMALL
	.cfi_startproc
# %bb.0:                                # %rand_bb
	pushq	%rbp
	.cfi_def_cfa_offset 16
	.cfi_offset %rbp, -16
	movq	%rsp, %rbp
	.cfi_def_cfa_register %rbp
	pushq	%rbx
	pushq	%rax
	.cfi_offset %rbx, -24
	movq	%rdi, %rbx
	callq	get_urand
	cmpl	$0, %eax
	jne	.LBB15_5
# %bb.1:                                # %func_unRLE_obuf_to_output_SMALL.8
	movq	%rbx, %rdi
	callq	unRLE_obuf_to_output_SMALL.8
	movzbl	%al, %eax
	addq	$8, %rsp
	popq	%rbx
	popq	%rbp
	.cfi_def_cfa %rsp, 8
	retq
.LBB15_2:                               # %func_unRLE_obuf_to_output_SMALL.32
	.cfi_def_cfa %rbp, 16
	movq	%rbx, %rdi
	callq	unRLE_obuf_to_output_SMALL.32
	movzbl	%al, %eax
	addq	$8, %rsp
	popq	%rbx
	popq	%rbp
	.cfi_def_cfa %rsp, 8
	retq
.LBB15_3:                               # %func_unRLE_obuf_to_output_SMALL.35
	.cfi_def_cfa %rbp, 16
	movq	%rbx, %rdi
	callq	unRLE_obuf_to_output_SMALL.35
	movzbl	%al, %eax
	addq	$8, %rsp
	popq	%rbx
	popq	%rbp
	.cfi_def_cfa %rsp, 8
	retq
.LBB15_4:                               # %func_unRLE_obuf_to_output_SMALL.83
	.cfi_def_cfa %rbp, 16
	movq	%rbx, %rdi
	callq	unRLE_obuf_to_output_SMALL.83
	movzbl	%al, %eax
	addq	$8, %rsp
	popq	%rbx
	popq	%rbp
	.cfi_def_cfa %rsp, 8
	retq
.LBB15_5:                               # %ctrl0
	.cfi_def_cfa %rbp, 16
	cmpl	$1, %eax
	je	.LBB15_2
# %bb.6:                                # %ctrl1
	cmpl	$2, %eax
	je	.LBB15_3
	jmp	.LBB15_4
.Lfunc_end15:
	.size	unRLE_obuf_to_output_SMALL, .Lfunc_end15-unRLE_obuf_to_output_SMALL
	.cfi_endproc
                                        # -- End function
	.p2align	4, 0x90         # -- Begin function unRLE_obuf_to_output_FAST
	.type	unRLE_obuf_to_output_FAST,@function
unRLE_obuf_to_output_FAST:              # @unRLE_obuf_to_output_FAST
	.cfi_startproc
# %bb.0:                                # %rand_bb
	pushq	%rbp
	.cfi_def_cfa_offset 16
	.cfi_offset %rbp, -16
	movq	%rsp, %rbp
	.cfi_def_cfa_register %rbp
	pushq	%rbx
	pushq	%rax
	.cfi_offset %rbx, -24
	movq	%rdi, %rbx
	callq	get_urand
	cmpl	$0, %eax
	jne	.LBB16_5
# %bb.1:                                # %func_unRLE_obuf_to_output_FAST.22
	movq	%rbx, %rdi
	callq	unRLE_obuf_to_output_FAST.22
	movzbl	%al, %eax
	addq	$8, %rsp
	popq	%rbx
	popq	%rbp
	.cfi_def_cfa %rsp, 8
	retq
.LBB16_2:                               # %func_unRLE_obuf_to_output_FAST.46
	.cfi_def_cfa %rbp, 16
	movq	%rbx, %rdi
	callq	unRLE_obuf_to_output_FAST.46
	movzbl	%al, %eax
	addq	$8, %rsp
	popq	%rbx
	popq	%rbp
	.cfi_def_cfa %rsp, 8
	retq
.LBB16_3:                               # %func_unRLE_obuf_to_output_FAST.92
	.cfi_def_cfa %rbp, 16
	movq	%rbx, %rdi
	callq	unRLE_obuf_to_output_FAST.92
	movzbl	%al, %eax
	addq	$8, %rsp
	popq	%rbx
	popq	%rbp
	.cfi_def_cfa %rsp, 8
	retq
.LBB16_4:                               # %func_unRLE_obuf_to_output_FAST.96
	.cfi_def_cfa %rbp, 16
	movq	%rbx, %rdi
	callq	unRLE_obuf_to_output_FAST.96
	movzbl	%al, %eax
	addq	$8, %rsp
	popq	%rbx
	popq	%rbp
	.cfi_def_cfa %rsp, 8
	retq
.LBB16_5:                               # %ctrl0
	.cfi_def_cfa %rbp, 16
	cmpl	$1, %eax
	je	.LBB16_2
# %bb.6:                                # %ctrl1
	cmpl	$2, %eax
	je	.LBB16_3
	jmp	.LBB16_4
.Lfunc_end16:
	.size	unRLE_obuf_to_output_FAST, .Lfunc_end16-unRLE_obuf_to_output_FAST
	.cfi_endproc
                                        # -- End function
	.globl	BZ2_bzDecompressEnd     # -- Begin function BZ2_bzDecompressEnd
	.p2align	4, 0x90
	.type	BZ2_bzDecompressEnd,@function
BZ2_bzDecompressEnd:                    # @BZ2_bzDecompressEnd
	.cfi_startproc
# %bb.0:                                # %rand_bb
	pushq	%rbp
	.cfi_def_cfa_offset 16
	.cfi_offset %rbp, -16
	movq	%rsp, %rbp
	.cfi_def_cfa_register %rbp
	pushq	%rbx
	pushq	%rax
	.cfi_offset %rbx, -24
	movq	%rdi, %rbx
	callq	get_urand
	cmpl	$0, %eax
	jne	.LBB17_5
# %bb.1:                                # %func_BZ2_bzDecompressEnd.27
	movq	%rbx, %rdi
	callq	BZ2_bzDecompressEnd.27
	addq	$8, %rsp
	popq	%rbx
	popq	%rbp
	.cfi_def_cfa %rsp, 8
	retq
.LBB17_2:                               # %func_BZ2_bzDecompressEnd.49
	.cfi_def_cfa %rbp, 16
	movq	%rbx, %rdi
	callq	BZ2_bzDecompressEnd.49
	addq	$8, %rsp
	popq	%rbx
	popq	%rbp
	.cfi_def_cfa %rsp, 8
	retq
.LBB17_3:                               # %func_BZ2_bzDecompressEnd.54
	.cfi_def_cfa %rbp, 16
	movq	%rbx, %rdi
	callq	BZ2_bzDecompressEnd.54
	addq	$8, %rsp
	popq	%rbx
	popq	%rbp
	.cfi_def_cfa %rsp, 8
	retq
.LBB17_4:                               # %func_BZ2_bzDecompressEnd.74
	.cfi_def_cfa %rbp, 16
	movq	%rbx, %rdi
	callq	BZ2_bzDecompressEnd.74
	addq	$8, %rsp
	popq	%rbx
	popq	%rbp
	.cfi_def_cfa %rsp, 8
	retq
.LBB17_5:                               # %ctrl0
	.cfi_def_cfa %rbp, 16
	cmpl	$1, %eax
	je	.LBB17_2
# %bb.6:                                # %ctrl1
	cmpl	$2, %eax
	je	.LBB17_3
	jmp	.LBB17_4
.Lfunc_end17:
	.size	BZ2_bzDecompressEnd, .Lfunc_end17-BZ2_bzDecompressEnd
	.cfi_endproc
                                        # -- End function
	.globl	BZ2_bzWriteOpen         # -- Begin function BZ2_bzWriteOpen
	.p2align	4, 0x90
	.type	BZ2_bzWriteOpen,@function
BZ2_bzWriteOpen:                        # @BZ2_bzWriteOpen
	.cfi_startproc
# %bb.0:                                # %rand_bb
	pushq	%rbp
	.cfi_def_cfa_offset 16
	.cfi_offset %rbp, -16
	movq	%rsp, %rbp
	.cfi_def_cfa_register %rbp
	pushq	%r15
	pushq	%r14
	pushq	%r13
	pushq	%r12
	pushq	%rbx
	pushq	%rax
	.cfi_offset %rbx, -56
	.cfi_offset %r12, -48
	.cfi_offset %r13, -40
	.cfi_offset %r14, -32
	.cfi_offset %r15, -24
	movl	%r8d, %r14d
	movl	%ecx, %r15d
	movl	%edx, %r12d
	movq	%rsi, %r13
	movq	%rdi, %rbx
	callq	get_urand
	cmpl	$0, %eax
	jne	.LBB18_5
# %bb.1:                                # %func_BZ2_bzWriteOpen.17
	movq	%rbx, %rdi
	movq	%r13, %rsi
	movl	%r12d, %edx
	movl	%r15d, %ecx
	movl	%r14d, %r8d
	callq	BZ2_bzWriteOpen.17
	addq	$8, %rsp
	popq	%rbx
	popq	%r12
	popq	%r13
	popq	%r14
	popq	%r15
	popq	%rbp
	.cfi_def_cfa %rsp, 8
	retq
.LBB18_2:                               # %func_BZ2_bzWriteOpen.42
	.cfi_def_cfa %rbp, 16
	movq	%rbx, %rdi
	movq	%r13, %rsi
	movl	%r12d, %edx
	movl	%r15d, %ecx
	movl	%r14d, %r8d
	callq	BZ2_bzWriteOpen.42
	addq	$8, %rsp
	popq	%rbx
	popq	%r12
	popq	%r13
	popq	%r14
	popq	%r15
	popq	%rbp
	.cfi_def_cfa %rsp, 8
	retq
.LBB18_3:                               # %func_BZ2_bzWriteOpen.52
	.cfi_def_cfa %rbp, 16
	movq	%rbx, %rdi
	movq	%r13, %rsi
	movl	%r12d, %edx
	movl	%r15d, %ecx
	movl	%r14d, %r8d
	callq	BZ2_bzWriteOpen.52
	addq	$8, %rsp
	popq	%rbx
	popq	%r12
	popq	%r13
	popq	%r14
	popq	%r15
	popq	%rbp
	.cfi_def_cfa %rsp, 8
	retq
.LBB18_4:                               # %func_BZ2_bzWriteOpen.70
	.cfi_def_cfa %rbp, 16
	movq	%rbx, %rdi
	movq	%r13, %rsi
	movl	%r12d, %edx
	movl	%r15d, %ecx
	movl	%r14d, %r8d
	callq	BZ2_bzWriteOpen.70
	addq	$8, %rsp
	popq	%rbx
	popq	%r12
	popq	%r13
	popq	%r14
	popq	%r15
	popq	%rbp
	.cfi_def_cfa %rsp, 8
	retq
.LBB18_5:                               # %ctrl0
	.cfi_def_cfa %rbp, 16
	cmpl	$1, %eax
	je	.LBB18_2
# %bb.6:                                # %ctrl1
	cmpl	$2, %eax
	je	.LBB18_3
	jmp	.LBB18_4
.Lfunc_end18:
	.size	BZ2_bzWriteOpen, .Lfunc_end18-BZ2_bzWriteOpen
	.cfi_endproc
                                        # -- End function
	.globl	BZ2_bzWrite             # -- Begin function BZ2_bzWrite
	.p2align	4, 0x90
	.type	BZ2_bzWrite,@function
BZ2_bzWrite:                            # @BZ2_bzWrite
	.cfi_startproc
# %bb.0:                                # %rand_bb
	pushq	%rbp
	.cfi_def_cfa_offset 16
	.cfi_offset %rbp, -16
	movq	%rsp, %rbp
	.cfi_def_cfa_register %rbp
	pushq	%r15
	pushq	%r14
	pushq	%r12
	pushq	%rbx
	.cfi_offset %rbx, -48
	.cfi_offset %r12, -40
	.cfi_offset %r14, -32
	.cfi_offset %r15, -24
	movl	%ecx, %r14d
	movq	%rdx, %r15
	movq	%rsi, %r12
	movq	%rdi, %rbx
	callq	get_urand
	cmpl	$0, %eax
	jne	.LBB19_5
# %bb.1:                                # %func_BZ2_bzWrite.66
	movq	%rbx, %rdi
	movq	%r12, %rsi
	movq	%r15, %rdx
	movl	%r14d, %ecx
	callq	BZ2_bzWrite.66
	popq	%rbx
	popq	%r12
	popq	%r14
	popq	%r15
	popq	%rbp
	.cfi_def_cfa %rsp, 8
	retq
.LBB19_2:                               # %func_BZ2_bzWrite.103
	.cfi_def_cfa %rbp, 16
	movq	%rbx, %rdi
	movq	%r12, %rsi
	movq	%r15, %rdx
	movl	%r14d, %ecx
	callq	BZ2_bzWrite.103
	popq	%rbx
	popq	%r12
	popq	%r14
	popq	%r15
	popq	%rbp
	.cfi_def_cfa %rsp, 8
	retq
.LBB19_3:                               # %func_BZ2_bzWrite.115
	.cfi_def_cfa %rbp, 16
	movq	%rbx, %rdi
	movq	%r12, %rsi
	movq	%r15, %rdx
	movl	%r14d, %ecx
	callq	BZ2_bzWrite.115
	popq	%rbx
	popq	%r12
	popq	%r14
	popq	%r15
	popq	%rbp
	.cfi_def_cfa %rsp, 8
	retq
.LBB19_4:                               # %func_BZ2_bzWrite.125
	.cfi_def_cfa %rbp, 16
	movq	%rbx, %rdi
	movq	%r12, %rsi
	movq	%r15, %rdx
	movl	%r14d, %ecx
	callq	BZ2_bzWrite.125
	popq	%rbx
	popq	%r12
	popq	%r14
	popq	%r15
	popq	%rbp
	.cfi_def_cfa %rsp, 8
	retq
.LBB19_5:                               # %ctrl0
	.cfi_def_cfa %rbp, 16
	cmpl	$1, %eax
	je	.LBB19_2
# %bb.6:                                # %ctrl1
	cmpl	$2, %eax
	je	.LBB19_3
	jmp	.LBB19_4
.Lfunc_end19:
	.size	BZ2_bzWrite, .Lfunc_end19-BZ2_bzWrite
	.cfi_endproc
                                        # -- End function
	.globl	BZ2_bzWriteClose        # -- Begin function BZ2_bzWriteClose
	.p2align	4, 0x90
	.type	BZ2_bzWriteClose,@function
BZ2_bzWriteClose:                       # @BZ2_bzWriteClose
	.cfi_startproc
# %bb.0:                                # %rand_bb
	pushq	%rbp
	.cfi_def_cfa_offset 16
	.cfi_offset %rbp, -16
	movq	%rsp, %rbp
	.cfi_def_cfa_register %rbp
	pushq	%r15
	pushq	%r14
	pushq	%r13
	pushq	%r12
	pushq	%rbx
	pushq	%rax
	.cfi_offset %rbx, -56
	.cfi_offset %r12, -48
	.cfi_offset %r13, -40
	.cfi_offset %r14, -32
	.cfi_offset %r15, -24
	movq	%r8, %r14
	movq	%rcx, %r15
	movl	%edx, %r12d
	movq	%rsi, %r13
	movq	%rdi, %rbx
	callq	get_urand
	cmpl	$0, %eax
	jne	.LBB20_5
# %bb.1:                                # %func_BZ2_bzWriteClose.3
	movq	%rbx, %rdi
	movq	%r13, %rsi
	movl	%r12d, %edx
	movq	%r15, %rcx
	movq	%r14, %r8
	callq	BZ2_bzWriteClose.3
	addq	$8, %rsp
	popq	%rbx
	popq	%r12
	popq	%r13
	popq	%r14
	popq	%r15
	popq	%rbp
	.cfi_def_cfa %rsp, 8
	retq
.LBB20_2:                               # %func_BZ2_bzWriteClose.73
	.cfi_def_cfa %rbp, 16
	movq	%rbx, %rdi
	movq	%r13, %rsi
	movl	%r12d, %edx
	movq	%r15, %rcx
	movq	%r14, %r8
	callq	BZ2_bzWriteClose.73
	addq	$8, %rsp
	popq	%rbx
	popq	%r12
	popq	%r13
	popq	%r14
	popq	%r15
	popq	%rbp
	.cfi_def_cfa %rsp, 8
	retq
.LBB20_3:                               # %func_BZ2_bzWriteClose.79
	.cfi_def_cfa %rbp, 16
	movq	%rbx, %rdi
	movq	%r13, %rsi
	movl	%r12d, %edx
	movq	%r15, %rcx
	movq	%r14, %r8
	callq	BZ2_bzWriteClose.79
	addq	$8, %rsp
	popq	%rbx
	popq	%r12
	popq	%r13
	popq	%r14
	popq	%r15
	popq	%rbp
	.cfi_def_cfa %rsp, 8
	retq
.LBB20_4:                               # %func_BZ2_bzWriteClose.101
	.cfi_def_cfa %rbp, 16
	movq	%rbx, %rdi
	movq	%r13, %rsi
	movl	%r12d, %edx
	movq	%r15, %rcx
	movq	%r14, %r8
	callq	BZ2_bzWriteClose.101
	addq	$8, %rsp
	popq	%rbx
	popq	%r12
	popq	%r13
	popq	%r14
	popq	%r15
	popq	%rbp
	.cfi_def_cfa %rsp, 8
	retq
.LBB20_5:                               # %ctrl0
	.cfi_def_cfa %rbp, 16
	cmpl	$1, %eax
	je	.LBB20_2
# %bb.6:                                # %ctrl1
	cmpl	$2, %eax
	je	.LBB20_3
	jmp	.LBB20_4
.Lfunc_end20:
	.size	BZ2_bzWriteClose, .Lfunc_end20-BZ2_bzWriteClose
	.cfi_endproc
                                        # -- End function
	.globl	BZ2_bzWriteClose64      # -- Begin function BZ2_bzWriteClose64
	.p2align	4, 0x90
	.type	BZ2_bzWriteClose64,@function
BZ2_bzWriteClose64:                     # @BZ2_bzWriteClose64
	.cfi_startproc
# %bb.0:                                # %rand_bb
	pushq	%rbp
	.cfi_def_cfa_offset 16
	.cfi_offset %rbp, -16
	movq	%rsp, %rbp
	.cfi_def_cfa_register %rbp
	pushq	%r15
	pushq	%r14
	pushq	%r13
	pushq	%r12
	pushq	%rbx
	subq	$24, %rsp
	.cfi_offset %rbx, -56
	.cfi_offset %r12, -48
	.cfi_offset %r13, -40
	.cfi_offset %r14, -32
	.cfi_offset %r15, -24
	movq	%r9, -48(%rbp)          # 8-byte Spill
	movq	%r8, %r12
	movq	%rcx, %r13
	movl	%edx, %ebx
	movq	%rsi, %r14
	movq	%rdi, %r15
	callq	get_urand
	cmpl	$0, %eax
	jne	.LBB21_5
# %bb.1:                                # %func_BZ2_bzWriteClose64.33
	movq	%r15, %rdi
	movq	%r14, %rsi
	movl	%ebx, %edx
	movq	%r13, %rcx
	movq	%r12, %r8
	movq	-48(%rbp), %r9          # 8-byte Reload
	movq	16(%rbp), %rax
	movq	%rax, (%rsp)
	callq	BZ2_bzWriteClose64.33
	addq	$24, %rsp
	popq	%rbx
	popq	%r12
	popq	%r13
	popq	%r14
	popq	%r15
	popq	%rbp
	.cfi_def_cfa %rsp, 8
	retq
.LBB21_2:                               # %func_BZ2_bzWriteClose64.48
	.cfi_def_cfa %rbp, 16
	movq	%r15, %rdi
	movq	%r14, %rsi
	movl	%ebx, %edx
	movq	%r13, %rcx
	movq	%r12, %r8
	movq	%r10, (%rsp)
	callq	BZ2_bzWriteClose64.48
	addq	$24, %rsp
	popq	%rbx
	popq	%r12
	popq	%r13
	popq	%r14
	popq	%r15
	popq	%rbp
	.cfi_def_cfa %rsp, 8
	retq
.LBB21_3:                               # %func_BZ2_bzWriteClose64.50
	.cfi_def_cfa %rbp, 16
	movq	%rax, (%rsp)
	callq	BZ2_bzWriteClose64.50
	addq	$24, %rsp
	popq	%rbx
	popq	%r12
	popq	%r13
	popq	%r14
	popq	%r15
	popq	%rbp
	.cfi_def_cfa %rsp, 8
	retq
.LBB21_4:                               # %func_BZ2_bzWriteClose64.86
	.cfi_def_cfa %rbp, 16
	movq	%rax, (%rsp)
	callq	BZ2_bzWriteClose64.86
	addq	$24, %rsp
	popq	%rbx
	popq	%r12
	popq	%r13
	popq	%r14
	popq	%r15
	popq	%rbp
	.cfi_def_cfa %rsp, 8
	retq
.LBB21_5:                               # %ctrl0
	.cfi_def_cfa %rbp, 16
	movq	16(%rbp), %r10
	movq	-48(%rbp), %r9          # 8-byte Reload
	cmpl	$1, %eax
	je	.LBB21_2
# %bb.6:                                # %ctrl1
	cmpl	$2, %eax
	movq	%r10, %rax
	movq	%r12, %r8
	movq	%r13, %rcx
	movl	%ebx, %edx
	movq	%r14, %rsi
	movq	%r15, %rdi
	je	.LBB21_3
	jmp	.LBB21_4
.Lfunc_end21:
	.size	BZ2_bzWriteClose64, .Lfunc_end21-BZ2_bzWriteClose64
	.cfi_endproc
                                        # -- End function
	.globl	BZ2_bzReadOpen          # -- Begin function BZ2_bzReadOpen
	.p2align	4, 0x90
	.type	BZ2_bzReadOpen,@function
BZ2_bzReadOpen:                         # @BZ2_bzReadOpen
	.cfi_startproc
# %bb.0:                                # %rand_bb
	pushq	%rbp
	.cfi_def_cfa_offset 16
	.cfi_offset %rbp, -16
	movq	%rsp, %rbp
	.cfi_def_cfa_register %rbp
	pushq	%r15
	pushq	%r14
	pushq	%r13
	pushq	%r12
	pushq	%rbx
	pushq	%rax
	.cfi_offset %rbx, -56
	.cfi_offset %r12, -48
	.cfi_offset %r13, -40
	.cfi_offset %r14, -32
	.cfi_offset %r15, -24
	movl	%r9d, -44(%rbp)         # 4-byte Spill
	movq	%r8, %r12
	movl	%ecx, %r13d
	movl	%edx, %ebx
	movq	%rsi, %r14
	movq	%rdi, %r15
	callq	get_urand
	cmpl	$0, %eax
	jne	.LBB22_5
# %bb.1:                                # %func_BZ2_bzReadOpen.59
	movq	%r15, %rdi
	movq	%r14, %rsi
	movl	%ebx, %edx
	movl	%r13d, %ecx
	movq	%r12, %r8
	movl	-44(%rbp), %r9d         # 4-byte Reload
	callq	BZ2_bzReadOpen.59
	addq	$8, %rsp
	popq	%rbx
	popq	%r12
	popq	%r13
	popq	%r14
	popq	%r15
	popq	%rbp
	.cfi_def_cfa %rsp, 8
	retq
.LBB22_2:                               # %func_BZ2_bzReadOpen.71
	.cfi_def_cfa %rbp, 16
	movq	%r15, %rdi
	movq	%r14, %rsi
	movl	%ebx, %edx
	movl	%r13d, %ecx
	movq	%r12, %r8
	callq	BZ2_bzReadOpen.71
	addq	$8, %rsp
	popq	%rbx
	popq	%r12
	popq	%r13
	popq	%r14
	popq	%r15
	popq	%rbp
	.cfi_def_cfa %rsp, 8
	retq
.LBB22_3:                               # %func_BZ2_bzReadOpen.99
	.cfi_def_cfa %rbp, 16
	callq	BZ2_bzReadOpen.99
	addq	$8, %rsp
	popq	%rbx
	popq	%r12
	popq	%r13
	popq	%r14
	popq	%r15
	popq	%rbp
	.cfi_def_cfa %rsp, 8
	retq
.LBB22_4:                               # %func_BZ2_bzReadOpen.116
	.cfi_def_cfa %rbp, 16
	callq	BZ2_bzReadOpen.116
	addq	$8, %rsp
	popq	%rbx
	popq	%r12
	popq	%r13
	popq	%r14
	popq	%r15
	popq	%rbp
	.cfi_def_cfa %rsp, 8
	retq
.LBB22_5:                               # %ctrl0
	.cfi_def_cfa %rbp, 16
	movl	-44(%rbp), %r9d         # 4-byte Reload
	cmpl	$1, %eax
	je	.LBB22_2
# %bb.6:                                # %ctrl1
	cmpl	$2, %eax
	movq	%r12, %r8
	movl	%r13d, %ecx
	movl	%ebx, %edx
	movq	%r14, %rsi
	movq	%r15, %rdi
	je	.LBB22_3
	jmp	.LBB22_4
.Lfunc_end22:
	.size	BZ2_bzReadOpen, .Lfunc_end22-BZ2_bzReadOpen
	.cfi_endproc
                                        # -- End function
	.globl	BZ2_bzReadClose         # -- Begin function BZ2_bzReadClose
	.p2align	4, 0x90
	.type	BZ2_bzReadClose,@function
BZ2_bzReadClose:                        # @BZ2_bzReadClose
	.cfi_startproc
# %bb.0:                                # %rand_bb
	pushq	%rbp
	.cfi_def_cfa_offset 16
	.cfi_offset %rbp, -16
	movq	%rsp, %rbp
	.cfi_def_cfa_register %rbp
	pushq	%r14
	pushq	%rbx
	.cfi_offset %rbx, -32
	.cfi_offset %r14, -24
	movq	%rsi, %r14
	movq	%rdi, %rbx
	callq	get_urand
	cmpl	$0, %eax
	jne	.LBB23_5
# %bb.1:                                # %func_BZ2_bzReadClose.2
	movq	%rbx, %rdi
	movq	%r14, %rsi
	callq	BZ2_bzReadClose.2
	popq	%rbx
	popq	%r14
	popq	%rbp
	.cfi_def_cfa %rsp, 8
	retq
.LBB23_2:                               # %func_BZ2_bzReadClose.105
	.cfi_def_cfa %rbp, 16
	movq	%rbx, %rdi
	movq	%r14, %rsi
	callq	BZ2_bzReadClose.105
	popq	%rbx
	popq	%r14
	popq	%rbp
	.cfi_def_cfa %rsp, 8
	retq
.LBB23_3:                               # %func_BZ2_bzReadClose.107
	.cfi_def_cfa %rbp, 16
	movq	%rbx, %rdi
	movq	%r14, %rsi
	callq	BZ2_bzReadClose.107
	popq	%rbx
	popq	%r14
	popq	%rbp
	.cfi_def_cfa %rsp, 8
	retq
.LBB23_4:                               # %func_BZ2_bzReadClose.119
	.cfi_def_cfa %rbp, 16
	movq	%rbx, %rdi
	movq	%r14, %rsi
	callq	BZ2_bzReadClose.119
	popq	%rbx
	popq	%r14
	popq	%rbp
	.cfi_def_cfa %rsp, 8
	retq
.LBB23_5:                               # %ctrl0
	.cfi_def_cfa %rbp, 16
	cmpl	$1, %eax
	je	.LBB23_2
# %bb.6:                                # %ctrl1
	cmpl	$2, %eax
	je	.LBB23_3
	jmp	.LBB23_4
.Lfunc_end23:
	.size	BZ2_bzReadClose, .Lfunc_end23-BZ2_bzReadClose
	.cfi_endproc
                                        # -- End function
	.globl	BZ2_bzRead              # -- Begin function BZ2_bzRead
	.p2align	4, 0x90
	.type	BZ2_bzRead,@function
BZ2_bzRead:                             # @BZ2_bzRead
	.cfi_startproc
# %bb.0:                                # %rand_bb
	pushq	%rbp
	.cfi_def_cfa_offset 16
	.cfi_offset %rbp, -16
	movq	%rsp, %rbp
	.cfi_def_cfa_register %rbp
	pushq	%r15
	pushq	%r14
	pushq	%r12
	pushq	%rbx
	.cfi_offset %rbx, -48
	.cfi_offset %r12, -40
	.cfi_offset %r14, -32
	.cfi_offset %r15, -24
	movl	%ecx, %r14d
	movq	%rdx, %r15
	movq	%rsi, %r12
	movq	%rdi, %rbx
	callq	get_urand
	cmpl	$0, %eax
	jne	.LBB24_5
# %bb.1:                                # %func_BZ2_bzRead.58
	movq	%rbx, %rdi
	movq	%r12, %rsi
	movq	%r15, %rdx
	movl	%r14d, %ecx
	callq	BZ2_bzRead.58
	popq	%rbx
	popq	%r12
	popq	%r14
	popq	%r15
	popq	%rbp
	.cfi_def_cfa %rsp, 8
	retq
.LBB24_2:                               # %func_BZ2_bzRead.108
	.cfi_def_cfa %rbp, 16
	movq	%rbx, %rdi
	movq	%r12, %rsi
	movq	%r15, %rdx
	movl	%r14d, %ecx
	callq	BZ2_bzRead.108
	popq	%rbx
	popq	%r12
	popq	%r14
	popq	%r15
	popq	%rbp
	.cfi_def_cfa %rsp, 8
	retq
.LBB24_3:                               # %func_BZ2_bzRead.118
	.cfi_def_cfa %rbp, 16
	movq	%rbx, %rdi
	movq	%r12, %rsi
	movq	%r15, %rdx
	movl	%r14d, %ecx
	callq	BZ2_bzRead.118
	popq	%rbx
	popq	%r12
	popq	%r14
	popq	%r15
	popq	%rbp
	.cfi_def_cfa %rsp, 8
	retq
.LBB24_4:                               # %func_BZ2_bzRead.128
	.cfi_def_cfa %rbp, 16
	movq	%rbx, %rdi
	movq	%r12, %rsi
	movq	%r15, %rdx
	movl	%r14d, %ecx
	callq	BZ2_bzRead.128
	popq	%rbx
	popq	%r12
	popq	%r14
	popq	%r15
	popq	%rbp
	.cfi_def_cfa %rsp, 8
	retq
.LBB24_5:                               # %ctrl0
	.cfi_def_cfa %rbp, 16
	cmpl	$1, %eax
	je	.LBB24_2
# %bb.6:                                # %ctrl1
	cmpl	$2, %eax
	je	.LBB24_3
	jmp	.LBB24_4
.Lfunc_end24:
	.size	BZ2_bzRead, .Lfunc_end24-BZ2_bzRead
	.cfi_endproc
                                        # -- End function
	.p2align	4, 0x90         # -- Begin function myfeof
	.type	myfeof,@function
myfeof:                                 # @myfeof
	.cfi_startproc
# %bb.0:                                # %rand_bb
	pushq	%rbp
	.cfi_def_cfa_offset 16
	.cfi_offset %rbp, -16
	movq	%rsp, %rbp
	.cfi_def_cfa_register %rbp
	pushq	%rbx
	pushq	%rax
	.cfi_offset %rbx, -24
	movq	%rdi, %rbx
	callq	get_urand
	cmpl	$0, %eax
	jne	.LBB25_5
# %bb.1:                                # %func_myfeof.64
	movq	%rbx, %rdi
	callq	myfeof.64
	movzbl	%al, %eax
	addq	$8, %rsp
	popq	%rbx
	popq	%rbp
	.cfi_def_cfa %rsp, 8
	retq
.LBB25_2:                               # %func_myfeof.77
	.cfi_def_cfa %rbp, 16
	movq	%rbx, %rdi
	callq	myfeof.77
	movzbl	%al, %eax
	addq	$8, %rsp
	popq	%rbx
	popq	%rbp
	.cfi_def_cfa %rsp, 8
	retq
.LBB25_3:                               # %func_myfeof.89
	.cfi_def_cfa %rbp, 16
	movq	%rbx, %rdi
	callq	myfeof.89
	movzbl	%al, %eax
	addq	$8, %rsp
	popq	%rbx
	popq	%rbp
	.cfi_def_cfa %rsp, 8
	retq
.LBB25_4:                               # %func_myfeof.93
	.cfi_def_cfa %rbp, 16
	movq	%rbx, %rdi
	callq	myfeof.93
	movzbl	%al, %eax
	addq	$8, %rsp
	popq	%rbx
	popq	%rbp
	.cfi_def_cfa %rsp, 8
	retq
.LBB25_5:                               # %ctrl0
	.cfi_def_cfa %rbp, 16
	cmpl	$1, %eax
	je	.LBB25_2
# %bb.6:                                # %ctrl1
	cmpl	$2, %eax
	je	.LBB25_3
	jmp	.LBB25_4
.Lfunc_end25:
	.size	myfeof, .Lfunc_end25-myfeof
	.cfi_endproc
                                        # -- End function
	.globl	BZ2_bzReadGetUnused     # -- Begin function BZ2_bzReadGetUnused
	.p2align	4, 0x90
	.type	BZ2_bzReadGetUnused,@function
BZ2_bzReadGetUnused:                    # @BZ2_bzReadGetUnused
	.cfi_startproc
# %bb.0:                                # %rand_bb
	pushq	%rbp
	.cfi_def_cfa_offset 16
	.cfi_offset %rbp, -16
	movq	%rsp, %rbp
	.cfi_def_cfa_register %rbp
	pushq	%r15
	pushq	%r14
	pushq	%r12
	pushq	%rbx
	.cfi_offset %rbx, -48
	.cfi_offset %r12, -40
	.cfi_offset %r14, -32
	.cfi_offset %r15, -24
	movq	%rcx, %r14
	movq	%rdx, %r15
	movq	%rsi, %r12
	movq	%rdi, %rbx
	callq	get_urand
	cmpl	$0, %eax
	jne	.LBB26_5
# %bb.1:                                # %func_BZ2_bzReadGetUnused.4
	movq	%rbx, %rdi
	movq	%r12, %rsi
	movq	%r15, %rdx
	movq	%r14, %rcx
	callq	BZ2_bzReadGetUnused.4
	popq	%rbx
	popq	%r12
	popq	%r14
	popq	%r15
	popq	%rbp
	.cfi_def_cfa %rsp, 8
	retq
.LBB26_2:                               # %func_BZ2_bzReadGetUnused.29
	.cfi_def_cfa %rbp, 16
	movq	%rbx, %rdi
	movq	%r12, %rsi
	movq	%r15, %rdx
	movq	%r14, %rcx
	callq	BZ2_bzReadGetUnused.29
	popq	%rbx
	popq	%r12
	popq	%r14
	popq	%r15
	popq	%rbp
	.cfi_def_cfa %rsp, 8
	retq
.LBB26_3:                               # %func_BZ2_bzReadGetUnused.41
	.cfi_def_cfa %rbp, 16
	movq	%rbx, %rdi
	movq	%r12, %rsi
	movq	%r15, %rdx
	movq	%r14, %rcx
	callq	BZ2_bzReadGetUnused.41
	popq	%rbx
	popq	%r12
	popq	%r14
	popq	%r15
	popq	%rbp
	.cfi_def_cfa %rsp, 8
	retq
.LBB26_4:                               # %func_BZ2_bzReadGetUnused.110
	.cfi_def_cfa %rbp, 16
	movq	%rbx, %rdi
	movq	%r12, %rsi
	movq	%r15, %rdx
	movq	%r14, %rcx
	callq	BZ2_bzReadGetUnused.110
	popq	%rbx
	popq	%r12
	popq	%r14
	popq	%r15
	popq	%rbp
	.cfi_def_cfa %rsp, 8
	retq
.LBB26_5:                               # %ctrl0
	.cfi_def_cfa %rbp, 16
	cmpl	$1, %eax
	je	.LBB26_2
# %bb.6:                                # %ctrl1
	cmpl	$2, %eax
	je	.LBB26_3
	jmp	.LBB26_4
.Lfunc_end26:
	.size	BZ2_bzReadGetUnused, .Lfunc_end26-BZ2_bzReadGetUnused
	.cfi_endproc
                                        # -- End function
	.globl	BZ2_bzBuffToBuffCompress # -- Begin function BZ2_bzBuffToBuffCompress
	.p2align	4, 0x90
	.type	BZ2_bzBuffToBuffCompress,@function
BZ2_bzBuffToBuffCompress:               # @BZ2_bzBuffToBuffCompress
	.cfi_startproc
# %bb.0:                                # %rand_bb
	pushq	%rbp
	.cfi_def_cfa_offset 16
	.cfi_offset %rbp, -16
	movq	%rsp, %rbp
	.cfi_def_cfa_register %rbp
	pushq	%r15
	pushq	%r14
	pushq	%r13
	pushq	%r12
	pushq	%rbx
	subq	$24, %rsp
	.cfi_offset %rbx, -56
	.cfi_offset %r12, -48
	.cfi_offset %r13, -40
	.cfi_offset %r14, -32
	.cfi_offset %r15, -24
	movl	%r9d, -44(%rbp)         # 4-byte Spill
	movl	%r8d, %r12d
	movl	%ecx, %r13d
	movq	%rdx, %rbx
	movq	%rsi, %r14
	movq	%rdi, %r15
	callq	get_urand
	cmpl	$0, %eax
	jne	.LBB27_5
# %bb.1:                                # %func_BZ2_bzBuffToBuffCompress.23
	movq	%r15, %rdi
	movq	%r14, %rsi
	movq	%rbx, %rdx
	movl	%r13d, %ecx
	movl	%r12d, %r8d
	movl	-44(%rbp), %r9d         # 4-byte Reload
	movl	16(%rbp), %eax
	movl	%eax, (%rsp)
	callq	BZ2_bzBuffToBuffCompress.23
	addq	$24, %rsp
	popq	%rbx
	popq	%r12
	popq	%r13
	popq	%r14
	popq	%r15
	popq	%rbp
	.cfi_def_cfa %rsp, 8
	retq
.LBB27_2:                               # %func_BZ2_bzBuffToBuffCompress.57
	.cfi_def_cfa %rbp, 16
	movq	%r15, %rdi
	movq	%r14, %rsi
	movq	%rbx, %rdx
	movl	%r13d, %ecx
	movl	%r12d, %r8d
	movl	%r10d, (%rsp)
	callq	BZ2_bzBuffToBuffCompress.57
	addq	$24, %rsp
	popq	%rbx
	popq	%r12
	popq	%r13
	popq	%r14
	popq	%r15
	popq	%rbp
	.cfi_def_cfa %rsp, 8
	retq
.LBB27_3:                               # %func_BZ2_bzBuffToBuffCompress.60
	.cfi_def_cfa %rbp, 16
	movl	%eax, (%rsp)
	callq	BZ2_bzBuffToBuffCompress.60
	addq	$24, %rsp
	popq	%rbx
	popq	%r12
	popq	%r13
	popq	%r14
	popq	%r15
	popq	%rbp
	.cfi_def_cfa %rsp, 8
	retq
.LBB27_4:                               # %func_BZ2_bzBuffToBuffCompress.87
	.cfi_def_cfa %rbp, 16
	movl	%eax, (%rsp)
	callq	BZ2_bzBuffToBuffCompress.87
	addq	$24, %rsp
	popq	%rbx
	popq	%r12
	popq	%r13
	popq	%r14
	popq	%r15
	popq	%rbp
	.cfi_def_cfa %rsp, 8
	retq
.LBB27_5:                               # %ctrl0
	.cfi_def_cfa %rbp, 16
	movl	16(%rbp), %r10d
	movl	-44(%rbp), %r9d         # 4-byte Reload
	cmpl	$1, %eax
	je	.LBB27_2
# %bb.6:                                # %ctrl1
	cmpl	$2, %eax
	movl	%r10d, %eax
	movl	%r12d, %r8d
	movl	%r13d, %ecx
	movq	%rbx, %rdx
	movq	%r14, %rsi
	movq	%r15, %rdi
	je	.LBB27_3
	jmp	.LBB27_4
.Lfunc_end27:
	.size	BZ2_bzBuffToBuffCompress, .Lfunc_end27-BZ2_bzBuffToBuffCompress
	.cfi_endproc
                                        # -- End function
	.globl	BZ2_bzBuffToBuffDecompress # -- Begin function BZ2_bzBuffToBuffDecompress
	.p2align	4, 0x90
	.type	BZ2_bzBuffToBuffDecompress,@function
BZ2_bzBuffToBuffDecompress:             # @BZ2_bzBuffToBuffDecompress
	.cfi_startproc
# %bb.0:                                # %rand_bb
	pushq	%rbp
	.cfi_def_cfa_offset 16
	.cfi_offset %rbp, -16
	movq	%rsp, %rbp
	.cfi_def_cfa_register %rbp
	pushq	%r15
	pushq	%r14
	pushq	%r13
	pushq	%r12
	pushq	%rbx
	pushq	%rax
	.cfi_offset %rbx, -56
	.cfi_offset %r12, -48
	.cfi_offset %r13, -40
	.cfi_offset %r14, -32
	.cfi_offset %r15, -24
	movl	%r9d, -44(%rbp)         # 4-byte Spill
	movl	%r8d, %r12d
	movl	%ecx, %r13d
	movq	%rdx, %rbx
	movq	%rsi, %r14
	movq	%rdi, %r15
	callq	get_urand
	cmpl	$0, %eax
	jne	.LBB28_5
# %bb.1:                                # %func_BZ2_bzBuffToBuffDecompress.1
	movq	%r15, %rdi
	movq	%r14, %rsi
	movq	%rbx, %rdx
	movl	%r13d, %ecx
	movl	%r12d, %r8d
	movl	-44(%rbp), %r9d         # 4-byte Reload
	callq	BZ2_bzBuffToBuffDecompress.1
	addq	$8, %rsp
	popq	%rbx
	popq	%r12
	popq	%r13
	popq	%r14
	popq	%r15
	popq	%rbp
	.cfi_def_cfa %rsp, 8
	retq
.LBB28_2:                               # %func_BZ2_bzBuffToBuffDecompress.13
	.cfi_def_cfa %rbp, 16
	movq	%r15, %rdi
	movq	%r14, %rsi
	movq	%rbx, %rdx
	movl	%r13d, %ecx
	movl	%r12d, %r8d
	callq	BZ2_bzBuffToBuffDecompress.13
	addq	$8, %rsp
	popq	%rbx
	popq	%r12
	popq	%r13
	popq	%r14
	popq	%r15
	popq	%rbp
	.cfi_def_cfa %rsp, 8
	retq
.LBB28_3:                               # %func_BZ2_bzBuffToBuffDecompress.25
	.cfi_def_cfa %rbp, 16
	callq	BZ2_bzBuffToBuffDecompress.25
	addq	$8, %rsp
	popq	%rbx
	popq	%r12
	popq	%r13
	popq	%r14
	popq	%r15
	popq	%rbp
	.cfi_def_cfa %rsp, 8
	retq
.LBB28_4:                               # %func_BZ2_bzBuffToBuffDecompress.117
	.cfi_def_cfa %rbp, 16
	callq	BZ2_bzBuffToBuffDecompress.117
	addq	$8, %rsp
	popq	%rbx
	popq	%r12
	popq	%r13
	popq	%r14
	popq	%r15
	popq	%rbp
	.cfi_def_cfa %rsp, 8
	retq
.LBB28_5:                               # %ctrl0
	.cfi_def_cfa %rbp, 16
	movl	-44(%rbp), %r9d         # 4-byte Reload
	cmpl	$1, %eax
	je	.LBB28_2
# %bb.6:                                # %ctrl1
	cmpl	$2, %eax
	movl	%r12d, %r8d
	movl	%r13d, %ecx
	movq	%rbx, %rdx
	movq	%r14, %rsi
	movq	%r15, %rdi
	je	.LBB28_3
	jmp	.LBB28_4
.Lfunc_end28:
	.size	BZ2_bzBuffToBuffDecompress, .Lfunc_end28-BZ2_bzBuffToBuffDecompress
	.cfi_endproc
                                        # -- End function
	.globl	BZ2_bzopen              # -- Begin function BZ2_bzopen
	.p2align	4, 0x90
	.type	BZ2_bzopen,@function
BZ2_bzopen:                             # @BZ2_bzopen
	.cfi_startproc
# %bb.0:                                # %rand_bb
	pushq	%rbp
	.cfi_def_cfa_offset 16
	.cfi_offset %rbp, -16
	movq	%rsp, %rbp
	.cfi_def_cfa_register %rbp
	pushq	%r14
	pushq	%rbx
	.cfi_offset %rbx, -32
	.cfi_offset %r14, -24
	movq	%rsi, %r14
	movq	%rdi, %rbx
	callq	get_urand
	cmpl	$0, %eax
	jne	.LBB29_2
# %bb.1:                                # %func_BZ2_bzopen.21
	movq	%rbx, %rdi
	movq	%r14, %rsi
	callq	BZ2_bzopen.21
	popq	%rbx
	popq	%r14
	popq	%rbp
	.cfi_def_cfa %rsp, 8
	retq
.LBB29_2:                               # %func_BZ2_bzopen.36
	.cfi_def_cfa %rbp, 16
	movq	%rbx, %rdi
	movq	%r14, %rsi
	callq	BZ2_bzopen.36
	popq	%rbx
	popq	%r14
	popq	%rbp
	.cfi_def_cfa %rsp, 8
	retq
.Lfunc_end29:
	.size	BZ2_bzopen, .Lfunc_end29-BZ2_bzopen
	.cfi_endproc
                                        # -- End function
	.p2align	4, 0x90         # -- Begin function bzopen_or_bzdopen
	.type	bzopen_or_bzdopen,@function
bzopen_or_bzdopen:                      # @bzopen_or_bzdopen
	.cfi_startproc
# %bb.0:                                # %rand_bb
	pushq	%rbp
	.cfi_def_cfa_offset 16
	.cfi_offset %rbp, -16
	movq	%rsp, %rbp
	.cfi_def_cfa_register %rbp
	pushq	%r15
	pushq	%r14
	pushq	%r12
	pushq	%rbx
	.cfi_offset %rbx, -48
	.cfi_offset %r12, -40
	.cfi_offset %r14, -32
	.cfi_offset %r15, -24
	movl	%ecx, %r14d
	movq	%rdx, %r15
	movl	%esi, %r12d
	movq	%rdi, %rbx
	callq	get_urand
	cmpl	$0, %eax
	jne	.LBB30_5
# %bb.1:                                # %func_bzopen_or_bzdopen.34
	movq	%rbx, %rdi
	movl	%r12d, %esi
	movq	%r15, %rdx
	movl	%r14d, %ecx
	callq	bzopen_or_bzdopen.34
	popq	%rbx
	popq	%r12
	popq	%r14
	popq	%r15
	popq	%rbp
	.cfi_def_cfa %rsp, 8
	retq
.LBB30_2:                               # %func_bzopen_or_bzdopen.82
	.cfi_def_cfa %rbp, 16
	movq	%rbx, %rdi
	movl	%r12d, %esi
	movq	%r15, %rdx
	movl	%r14d, %ecx
	callq	bzopen_or_bzdopen.82
	popq	%rbx
	popq	%r12
	popq	%r14
	popq	%r15
	popq	%rbp
	.cfi_def_cfa %rsp, 8
	retq
.LBB30_3:                               # %func_bzopen_or_bzdopen.91
	.cfi_def_cfa %rbp, 16
	movq	%rbx, %rdi
	movl	%r12d, %esi
	movq	%r15, %rdx
	movl	%r14d, %ecx
	callq	bzopen_or_bzdopen.91
	popq	%rbx
	popq	%r12
	popq	%r14
	popq	%r15
	popq	%rbp
	.cfi_def_cfa %rsp, 8
	retq
.LBB30_4:                               # %func_bzopen_or_bzdopen.98
	.cfi_def_cfa %rbp, 16
	movq	%rbx, %rdi
	movl	%r12d, %esi
	movq	%r15, %rdx
	movl	%r14d, %ecx
	callq	bzopen_or_bzdopen.98
	popq	%rbx
	popq	%r12
	popq	%r14
	popq	%r15
	popq	%rbp
	.cfi_def_cfa %rsp, 8
	retq
.LBB30_5:                               # %ctrl0
	.cfi_def_cfa %rbp, 16
	cmpl	$1, %eax
	je	.LBB30_2
# %bb.6:                                # %ctrl1
	cmpl	$2, %eax
	je	.LBB30_3
	jmp	.LBB30_4
.Lfunc_end30:
	.size	bzopen_or_bzdopen, .Lfunc_end30-bzopen_or_bzdopen
	.cfi_endproc
                                        # -- End function
	.globl	BZ2_bzdopen             # -- Begin function BZ2_bzdopen
	.p2align	4, 0x90
	.type	BZ2_bzdopen,@function
BZ2_bzdopen:                            # @BZ2_bzdopen
	.cfi_startproc
# %bb.0:                                # %rand_bb
	pushq	%rbp
	.cfi_def_cfa_offset 16
	.cfi_offset %rbp, -16
	movq	%rsp, %rbp
	.cfi_def_cfa_register %rbp
	pushq	%r14
	pushq	%rbx
	.cfi_offset %rbx, -32
	.cfi_offset %r14, -24
	movq	%rsi, %r14
	movl	%edi, %ebx
	callq	get_urand
	cmpl	$0, %eax
	jne	.LBB31_2
# %bb.1:                                # %func_BZ2_bzdopen.78
	movl	%ebx, %edi
	movq	%r14, %rsi
	callq	BZ2_bzdopen.78
	popq	%rbx
	popq	%r14
	popq	%rbp
	.cfi_def_cfa %rsp, 8
	retq
.LBB31_2:                               # %func_BZ2_bzdopen.95
	.cfi_def_cfa %rbp, 16
	movl	%ebx, %edi
	movq	%r14, %rsi
	callq	BZ2_bzdopen.95
	popq	%rbx
	popq	%r14
	popq	%rbp
	.cfi_def_cfa %rsp, 8
	retq
.Lfunc_end31:
	.size	BZ2_bzdopen, .Lfunc_end31-BZ2_bzdopen
	.cfi_endproc
                                        # -- End function
	.globl	BZ2_bzread              # -- Begin function BZ2_bzread
	.p2align	4, 0x90
	.type	BZ2_bzread,@function
BZ2_bzread:                             # @BZ2_bzread
	.cfi_startproc
# %bb.0:                                # %rand_bb
	pushq	%rbp
	.cfi_def_cfa_offset 16
	.cfi_offset %rbp, -16
	movq	%rsp, %rbp
	.cfi_def_cfa_register %rbp
	pushq	%r15
	pushq	%r14
	pushq	%rbx
	pushq	%rax
	.cfi_offset %rbx, -40
	.cfi_offset %r14, -32
	.cfi_offset %r15, -24
	movl	%edx, %r14d
	movq	%rsi, %r15
	movq	%rdi, %rbx
	callq	get_urand
	cmpl	$0, %eax
	jne	.LBB32_5
# %bb.1:                                # %func_BZ2_bzread.26
	movq	%rbx, %rdi
	movq	%r15, %rsi
	movl	%r14d, %edx
	callq	BZ2_bzread.26
	addq	$8, %rsp
	popq	%rbx
	popq	%r14
	popq	%r15
	popq	%rbp
	.cfi_def_cfa %rsp, 8
	retq
.LBB32_2:                               # %func_BZ2_bzread.43
	.cfi_def_cfa %rbp, 16
	movq	%rbx, %rdi
	movq	%r15, %rsi
	movl	%r14d, %edx
	callq	BZ2_bzread.43
	addq	$8, %rsp
	popq	%rbx
	popq	%r14
	popq	%r15
	popq	%rbp
	.cfi_def_cfa %rsp, 8
	retq
.LBB32_3:                               # %func_BZ2_bzread.80
	.cfi_def_cfa %rbp, 16
	movq	%rbx, %rdi
	movq	%r15, %rsi
	movl	%r14d, %edx
	callq	BZ2_bzread.80
	addq	$8, %rsp
	popq	%rbx
	popq	%r14
	popq	%r15
	popq	%rbp
	.cfi_def_cfa %rsp, 8
	retq
.LBB32_4:                               # %func_BZ2_bzread.88
	.cfi_def_cfa %rbp, 16
	movq	%rbx, %rdi
	movq	%r15, %rsi
	movl	%r14d, %edx
	callq	BZ2_bzread.88
	addq	$8, %rsp
	popq	%rbx
	popq	%r14
	popq	%r15
	popq	%rbp
	.cfi_def_cfa %rsp, 8
	retq
.LBB32_5:                               # %ctrl0
	.cfi_def_cfa %rbp, 16
	cmpl	$1, %eax
	je	.LBB32_2
# %bb.6:                                # %ctrl1
	cmpl	$2, %eax
	je	.LBB32_3
	jmp	.LBB32_4
.Lfunc_end32:
	.size	BZ2_bzread, .Lfunc_end32-BZ2_bzread
	.cfi_endproc
                                        # -- End function
	.globl	BZ2_bzwrite             # -- Begin function BZ2_bzwrite
	.p2align	4, 0x90
	.type	BZ2_bzwrite,@function
BZ2_bzwrite:                            # @BZ2_bzwrite
	.cfi_startproc
# %bb.0:                                # %rand_bb
	pushq	%rbp
	.cfi_def_cfa_offset 16
	.cfi_offset %rbp, -16
	movq	%rsp, %rbp
	.cfi_def_cfa_register %rbp
	pushq	%r15
	pushq	%r14
	pushq	%rbx
	pushq	%rax
	.cfi_offset %rbx, -40
	.cfi_offset %r14, -32
	.cfi_offset %r15, -24
	movl	%edx, %r14d
	movq	%rsi, %r15
	movq	%rdi, %rbx
	callq	get_urand
	cmpl	$0, %eax
	jne	.LBB33_5
# %bb.1:                                # %func_BZ2_bzwrite.45
	movq	%rbx, %rdi
	movq	%r15, %rsi
	movl	%r14d, %edx
	callq	BZ2_bzwrite.45
	addq	$8, %rsp
	popq	%rbx
	popq	%r14
	popq	%r15
	popq	%rbp
	.cfi_def_cfa %rsp, 8
	retq
.LBB33_2:                               # %func_BZ2_bzwrite.114
	.cfi_def_cfa %rbp, 16
	movq	%rbx, %rdi
	movq	%r15, %rsi
	movl	%r14d, %edx
	callq	BZ2_bzwrite.114
	addq	$8, %rsp
	popq	%rbx
	popq	%r14
	popq	%r15
	popq	%rbp
	.cfi_def_cfa %rsp, 8
	retq
.LBB33_3:                               # %func_BZ2_bzwrite.121
	.cfi_def_cfa %rbp, 16
	movq	%rbx, %rdi
	movq	%r15, %rsi
	movl	%r14d, %edx
	callq	BZ2_bzwrite.121
	addq	$8, %rsp
	popq	%rbx
	popq	%r14
	popq	%r15
	popq	%rbp
	.cfi_def_cfa %rsp, 8
	retq
.LBB33_4:                               # %func_BZ2_bzwrite.127
	.cfi_def_cfa %rbp, 16
	movq	%rbx, %rdi
	movq	%r15, %rsi
	movl	%r14d, %edx
	callq	BZ2_bzwrite.127
	addq	$8, %rsp
	popq	%rbx
	popq	%r14
	popq	%r15
	popq	%rbp
	.cfi_def_cfa %rsp, 8
	retq
.LBB33_5:                               # %ctrl0
	.cfi_def_cfa %rbp, 16
	cmpl	$1, %eax
	je	.LBB33_2
# %bb.6:                                # %ctrl1
	cmpl	$2, %eax
	je	.LBB33_3
	jmp	.LBB33_4
.Lfunc_end33:
	.size	BZ2_bzwrite, .Lfunc_end33-BZ2_bzwrite
	.cfi_endproc
                                        # -- End function
	.globl	BZ2_bzflush             # -- Begin function BZ2_bzflush
	.p2align	4, 0x90
	.type	BZ2_bzflush,@function
BZ2_bzflush:                            # @BZ2_bzflush
	.cfi_startproc
# %bb.0:                                # %entry
	pushq	%rbp
	.cfi_def_cfa_offset 16
	.cfi_offset %rbp, -16
	movq	%rsp, %rbp
	.cfi_def_cfa_register %rbp
	movq	%rdi, -8(%rbp)
	xorl	%eax, %eax
	popq	%rbp
	.cfi_def_cfa %rsp, 8
	retq
.Lfunc_end34:
	.size	BZ2_bzflush, .Lfunc_end34-BZ2_bzflush
	.cfi_endproc
                                        # -- End function
	.globl	BZ2_bzclose             # -- Begin function BZ2_bzclose
	.p2align	4, 0x90
	.type	BZ2_bzclose,@function
BZ2_bzclose:                            # @BZ2_bzclose
	.cfi_startproc
# %bb.0:                                # %rand_bb
	pushq	%rbp
	.cfi_def_cfa_offset 16
	.cfi_offset %rbp, -16
	movq	%rsp, %rbp
	.cfi_def_cfa_register %rbp
	pushq	%rbx
	pushq	%rax
	.cfi_offset %rbx, -24
	movq	%rdi, %rbx
	callq	get_urand
	cmpl	$0, %eax
	jne	.LBB35_5
# %bb.1:                                # %func_BZ2_bzclose.5
	movq	%rbx, %rdi
	callq	BZ2_bzclose.5
	addq	$8, %rsp
	popq	%rbx
	popq	%rbp
	.cfi_def_cfa %rsp, 8
	retq
.LBB35_2:                               # %func_BZ2_bzclose.19
	.cfi_def_cfa %rbp, 16
	movq	%rbx, %rdi
	callq	BZ2_bzclose.19
	addq	$8, %rsp
	popq	%rbx
	popq	%rbp
	.cfi_def_cfa %rsp, 8
	retq
.LBB35_3:                               # %func_BZ2_bzclose.28
	.cfi_def_cfa %rbp, 16
	movq	%rbx, %rdi
	callq	BZ2_bzclose.28
	addq	$8, %rsp
	popq	%rbx
	popq	%rbp
	.cfi_def_cfa %rsp, 8
	retq
.LBB35_4:                               # %func_BZ2_bzclose.76
	.cfi_def_cfa %rbp, 16
	movq	%rbx, %rdi
	callq	BZ2_bzclose.76
	addq	$8, %rsp
	popq	%rbx
	popq	%rbp
	.cfi_def_cfa %rsp, 8
	retq
.LBB35_5:                               # %ctrl0
	.cfi_def_cfa %rbp, 16
	cmpl	$1, %eax
	je	.LBB35_2
# %bb.6:                                # %ctrl1
	cmpl	$2, %eax
	je	.LBB35_3
	jmp	.LBB35_4
.Lfunc_end35:
	.size	BZ2_bzclose, .Lfunc_end35-BZ2_bzclose
	.cfi_endproc
                                        # -- End function
	.globl	BZ2_bzerror             # -- Begin function BZ2_bzerror
	.p2align	4, 0x90
	.type	BZ2_bzerror,@function
BZ2_bzerror:                            # @BZ2_bzerror
	.cfi_startproc
# %bb.0:                                # %rand_bb
	pushq	%rbp
	.cfi_def_cfa_offset 16
	.cfi_offset %rbp, -16
	movq	%rsp, %rbp
	.cfi_def_cfa_register %rbp
	pushq	%r14
	pushq	%rbx
	.cfi_offset %rbx, -32
	.cfi_offset %r14, -24
	movq	%rsi, %r14
	movq	%rdi, %rbx
	callq	get_urand
	cmpl	$0, %eax
	jne	.LBB36_5
# %bb.1:                                # %func_BZ2_bzerror.18
	movq	%rbx, %rdi
	movq	%r14, %rsi
	callq	BZ2_bzerror.18
	popq	%rbx
	popq	%r14
	popq	%rbp
	.cfi_def_cfa %rsp, 8
	retq
.LBB36_2:                               # %func_BZ2_bzerror.84
	.cfi_def_cfa %rbp, 16
	movq	%rbx, %rdi
	movq	%r14, %rsi
	callq	BZ2_bzerror.84
	popq	%rbx
	popq	%r14
	popq	%rbp
	.cfi_def_cfa %rsp, 8
	retq
.LBB36_3:                               # %func_BZ2_bzerror.90
	.cfi_def_cfa %rbp, 16
	movq	%rbx, %rdi
	movq	%r14, %rsi
	callq	BZ2_bzerror.90
	popq	%rbx
	popq	%r14
	popq	%rbp
	.cfi_def_cfa %rsp, 8
	retq
.LBB36_4:                               # %func_BZ2_bzerror.106
	.cfi_def_cfa %rbp, 16
	movq	%rbx, %rdi
	movq	%r14, %rsi
	callq	BZ2_bzerror.106
	popq	%rbx
	popq	%r14
	popq	%rbp
	.cfi_def_cfa %rsp, 8
	retq
.LBB36_5:                               # %ctrl0
	.cfi_def_cfa %rbp, 16
	cmpl	$1, %eax
	je	.LBB36_2
# %bb.6:                                # %ctrl1
	cmpl	$2, %eax
	je	.LBB36_3
	jmp	.LBB36_4
.Lfunc_end36:
	.size	BZ2_bzerror, .Lfunc_end36-BZ2_bzerror
	.cfi_endproc
                                        # -- End function
	.p2align	4, 0x90         # -- Begin function copy_output_until_stop
	.type	copy_output_until_stop,@function
copy_output_until_stop:                 # @copy_output_until_stop
	.cfi_startproc
# %bb.0:                                # %rand_bb
	pushq	%rbp
	.cfi_def_cfa_offset 16
	.cfi_offset %rbp, -16
	movq	%rsp, %rbp
	.cfi_def_cfa_register %rbp
	pushq	%rbx
	pushq	%rax
	.cfi_offset %rbx, -24
	movq	%rdi, %rbx
	callq	get_urand
	cmpl	$0, %eax
	jne	.LBB37_2
# %bb.1:                                # %func_copy_output_until_stop.69
	movq	%rbx, %rdi
	callq	copy_output_until_stop.69
	movzbl	%al, %eax
	addq	$8, %rsp
	popq	%rbx
	popq	%rbp
	.cfi_def_cfa %rsp, 8
	retq
.LBB37_2:                               # %func_copy_output_until_stop.111
	.cfi_def_cfa %rbp, 16
	movq	%rbx, %rdi
	callq	copy_output_until_stop.111
	movzbl	%al, %eax
	addq	$8, %rsp
	popq	%rbx
	popq	%rbp
	.cfi_def_cfa %rsp, 8
	retq
.Lfunc_end37:
	.size	copy_output_until_stop, .Lfunc_end37-copy_output_until_stop
	.cfi_endproc
                                        # -- End function
	.p2align	4, 0x90         # -- Begin function copy_input_until_stop
	.type	copy_input_until_stop,@function
copy_input_until_stop:                  # @copy_input_until_stop
	.cfi_startproc
# %bb.0:                                # %rand_bb
	pushq	%rbp
	.cfi_def_cfa_offset 16
	.cfi_offset %rbp, -16
	movq	%rsp, %rbp
	.cfi_def_cfa_register %rbp
	pushq	%rbx
	pushq	%rax
	.cfi_offset %rbx, -24
	movq	%rdi, %rbx
	callq	get_urand
	cmpl	$0, %eax
	jne	.LBB38_5
# %bb.1:                                # %func_copy_input_until_stop.9
	movq	%rbx, %rdi
	callq	copy_input_until_stop.9
	movzbl	%al, %eax
	addq	$8, %rsp
	popq	%rbx
	popq	%rbp
	.cfi_def_cfa %rsp, 8
	retq
.LBB38_2:                               # %func_copy_input_until_stop.30
	.cfi_def_cfa %rbp, 16
	movq	%rbx, %rdi
	callq	copy_input_until_stop.30
	movzbl	%al, %eax
	addq	$8, %rsp
	popq	%rbx
	popq	%rbp
	.cfi_def_cfa %rsp, 8
	retq
.LBB38_3:                               # %func_copy_input_until_stop.31
	.cfi_def_cfa %rbp, 16
	movq	%rbx, %rdi
	callq	copy_input_until_stop.31
	movzbl	%al, %eax
	addq	$8, %rsp
	popq	%rbx
	popq	%rbp
	.cfi_def_cfa %rsp, 8
	retq
.LBB38_4:                               # %func_copy_input_until_stop.37
	.cfi_def_cfa %rbp, 16
	movq	%rbx, %rdi
	callq	copy_input_until_stop.37
	movzbl	%al, %eax
	addq	$8, %rsp
	popq	%rbx
	popq	%rbp
	.cfi_def_cfa %rsp, 8
	retq
.LBB38_5:                               # %ctrl0
	.cfi_def_cfa %rbp, 16
	cmpl	$1, %eax
	je	.LBB38_2
# %bb.6:                                # %ctrl1
	cmpl	$2, %eax
	je	.LBB38_3
	jmp	.LBB38_4
.Lfunc_end38:
	.size	copy_input_until_stop, .Lfunc_end38-copy_input_until_stop
	.cfi_endproc
                                        # -- End function
	.p2align	4, 0x90         # -- Begin function flush_RL
	.type	flush_RL,@function
flush_RL:                               # @flush_RL
	.cfi_startproc
# %bb.0:                                # %entry
	pushq	%rbp
	.cfi_def_cfa_offset 16
	.cfi_offset %rbp, -16
	movq	%rsp, %rbp
	.cfi_def_cfa_register %rbp
	subq	$16, %rsp
	movq	%rdi, -8(%rbp)
	movq	-8(%rbp), %rax
	cmpl	$256, 92(%rax)          # imm = 0x100
	jae	.LBB39_2
# %bb.1:                                # %if.then
	movq	-8(%rbp), %rdi
	callq	add_pair_to_block
.LBB39_2:                               # %if.end
	movq	-8(%rbp), %rdi
	callq	init_RL
	addq	$16, %rsp
	popq	%rbp
	.cfi_def_cfa %rsp, 8
	retq
.Lfunc_end39:
	.size	flush_RL, .Lfunc_end39-flush_RL
	.cfi_endproc
                                        # -- End function
	.p2align	4, 0x90         # -- Begin function add_pair_to_block
	.type	add_pair_to_block,@function
add_pair_to_block:                      # @add_pair_to_block
	.cfi_startproc
# %bb.0:                                # %rand_bb
	pushq	%rbp
	.cfi_def_cfa_offset 16
	.cfi_offset %rbp, -16
	movq	%rsp, %rbp
	.cfi_def_cfa_register %rbp
	pushq	%rbx
	pushq	%rax
	.cfi_offset %rbx, -24
	movq	%rdi, %rbx
	callq	get_urand
	cmpl	$0, %eax
	jne	.LBB40_5
# %bb.1:                                # %func_add_pair_to_block.14
	movq	%rbx, %rdi
	callq	add_pair_to_block.14
	addq	$8, %rsp
	popq	%rbx
	popq	%rbp
	.cfi_def_cfa %rsp, 8
	retq
.LBB40_2:                               # %func_add_pair_to_block.44
	.cfi_def_cfa %rbp, 16
	movq	%rbx, %rdi
	callq	add_pair_to_block.44
	addq	$8, %rsp
	popq	%rbx
	popq	%rbp
	.cfi_def_cfa %rsp, 8
	retq
.LBB40_3:                               # %func_add_pair_to_block.51
	.cfi_def_cfa %rbp, 16
	movq	%rbx, %rdi
	callq	add_pair_to_block.51
	addq	$8, %rsp
	popq	%rbx
	popq	%rbp
	.cfi_def_cfa %rsp, 8
	retq
.LBB40_4:                               # %func_add_pair_to_block.123
	.cfi_def_cfa %rbp, 16
	movq	%rbx, %rdi
	callq	add_pair_to_block.123
	addq	$8, %rsp
	popq	%rbx
	popq	%rbp
	.cfi_def_cfa %rsp, 8
	retq
.LBB40_5:                               # %ctrl0
	.cfi_def_cfa %rbp, 16
	cmpl	$1, %eax
	je	.LBB40_2
# %bb.6:                                # %ctrl1
	cmpl	$2, %eax
	je	.LBB40_3
	jmp	.LBB40_4
.Lfunc_end40:
	.size	add_pair_to_block, .Lfunc_end40-add_pair_to_block
	.cfi_endproc
                                        # -- End function
	.globl	BZ2_bzBuffToBuffDecompress.1 # -- Begin function BZ2_bzBuffToBuffDecompress.1
	.p2align	4, 0x90
	.type	BZ2_bzBuffToBuffDecompress.1,@function
BZ2_bzBuffToBuffDecompress.1:           # @BZ2_bzBuffToBuffDecompress.1
	.cfi_startproc
# %bb.0:                                # %entry
	pushq	%rbp
	.cfi_def_cfa_offset 16
	.cfi_offset %rbp, -16
	movq	%rsp, %rbp
	.cfi_def_cfa_register %rbp
	pushq	%rbx
	subq	$136, %rsp
	.cfi_offset %rbx, -24
	movl	$1122382901, -40(%rbp)  # imm = 0x42E63435
	movq	%rdi, -56(%rbp)
	movq	%rsi, -32(%rbp)
	movq	%rdx, -48(%rbp)
	movl	%ecx, -36(%rbp)
	movl	%r8d, -24(%rbp)
	movl	%r9d, -20(%rbp)
	cmpq	$0, -56(%rbp)
	je	.LBB41_7
# %bb.1:                                # %lor.lhs.false
	cmpq	$0, -32(%rbp)
	je	.LBB41_7
# %bb.2:                                # %lor.lhs.false2
	cmpq	$0, -48(%rbp)
	je	.LBB41_7
# %bb.3:                                # %lor.lhs.false4
	cmpl	$0, -24(%rbp)
	je	.LBB41_5
# %bb.4:                                # %land.lhs.true
	cmpl	$1, -24(%rbp)
	jne	.LBB41_7
.LBB41_5:                               # %lor.lhs.false7
	cmpl	$0, -20(%rbp)
	jl	.LBB41_7
# %bb.6:                                # %lor.lhs.false9
	cmpl	$4, -20(%rbp)
	jle	.LBB41_8
.LBB41_7:                               # %if.then
	movl	$-2, -16(%rbp)
	jmp	.LBB41_19
.LBB41_8:                               # %if.end
	movq	$0, -80(%rbp)
	movq	$0, -72(%rbp)
	movq	$0, -64(%rbp)
	movl	-20(%rbp), %esi
	movl	-24(%rbp), %edx
	leaq	-136(%rbp), %rdi
	callq	BZ2_bzDecompressInit
	movl	%eax, -12(%rbp)
	cmpl	$0, -12(%rbp)
	je	.LBB41_10
# %bb.9:                                # %if.then12
	movl	-12(%rbp), %eax
	movl	%eax, -16(%rbp)
	jmp	.LBB41_19
.LBB41_10:                              # %if.end13
	movq	-48(%rbp), %rax
	movq	%rax, -136(%rbp)
	movq	-56(%rbp), %rax
	movq	%rax, -112(%rbp)
	movl	-36(%rbp), %eax
	movl	%eax, -128(%rbp)
	movq	-32(%rbp), %rax
	movl	(%rax), %eax
	movl	%eax, -104(%rbp)
	leaq	-136(%rbp), %rdi
	callq	BZ2_bzDecompress
	movl	%eax, -12(%rbp)
	cmpl	$0, -12(%rbp)
	jne	.LBB41_12
# %bb.11:                               # %if.then16
	jmp	.LBB41_15
.LBB41_12:                              # %if.end17
	cmpl	$4, -12(%rbp)
	je	.LBB41_14
# %bb.13:                               # %if.then19
	jmp	.LBB41_18
.LBB41_14:                              # %if.end20
	movl	-104(%rbp), %eax
	movq	-32(%rbp), %rcx
	movl	(%rcx), %edx
	subl	%eax, %edx
	movl	%edx, (%rcx)
	leaq	-136(%rbp), %rdi
	callq	BZ2_bzDecompressEnd
	movl	$0, -16(%rbp)
	jmp	.LBB41_19
.LBB41_15:                              # %output_overflow_or_eof
	cmpl	$0, -104(%rbp)
	jbe	.LBB41_17
# %bb.16:                               # %if.then25
	leaq	-136(%rbp), %rdi
	callq	BZ2_bzDecompressEnd
	movl	$-7, -16(%rbp)
	jmp	.LBB41_19
.LBB41_17:                              # %if.else
	leaq	-136(%rbp), %rdi
	callq	BZ2_bzDecompressEnd
	movl	$-8, -16(%rbp)
	jmp	.LBB41_19
.LBB41_18:                              # %errhandler
	leaq	-136(%rbp), %rdi
	callq	BZ2_bzDecompressEnd
	movl	-12(%rbp), %eax
	movl	%eax, -16(%rbp)
.LBB41_19:                              # %return
	movl	-16(%rbp), %ebx
	cmpl	$1122382901, -40(%rbp)  # imm = 0x42E63435
	jne	.LBB41_21
.LBB41_20:
	movl	%ebx, %eax
	addq	$136, %rsp
	popq	%rbx
	popq	%rbp
	.cfi_def_cfa %rsp, 8
	retq
.LBB41_21:                              # %func_exit
	.cfi_def_cfa %rbp, 16
	callq	detect_breach
	jmp	.LBB41_20
.Lfunc_end41:
	.size	BZ2_bzBuffToBuffDecompress.1, .Lfunc_end41-BZ2_bzBuffToBuffDecompress.1
	.cfi_endproc
                                        # -- End function
	.globl	BZ2_bzReadClose.2       # -- Begin function BZ2_bzReadClose.2
	.p2align	4, 0x90
	.type	BZ2_bzReadClose.2,@function
BZ2_bzReadClose.2:                      # @BZ2_bzReadClose.2
	.cfi_startproc
# %bb.0:                                # %entry
	pushq	%rbp
	.cfi_def_cfa_offset 16
	.cfi_offset %rbp, -16
	movq	%rsp, %rbp
	.cfi_def_cfa_register %rbp
	subq	$32, %rsp
	movl	$1619892138, -20(%rbp)  # imm = 0x608D97AA
	movq	%rdi, -16(%rbp)
	movq	%rsi, -32(%rbp)
	movq	-32(%rbp), %rax
	movq	%rax, -8(%rbp)
	cmpq	$0, -16(%rbp)
	je	.LBB42_2
# %bb.1:                                # %if.then
	movq	-16(%rbp), %rax
	movl	$0, (%rax)
.LBB42_2:                               # %if.end
	cmpq	$0, -8(%rbp)
	je	.LBB42_4
# %bb.3:                                # %if.then2
	movq	-8(%rbp), %rax
	movl	$0, 5096(%rax)
.LBB42_4:                               # %if.end3
	cmpq	$0, -8(%rbp)
	jne	.LBB42_10
# %bb.5:                                # %if.then5
	cmpq	$0, -16(%rbp)
	je	.LBB42_7
# %bb.6:                                # %if.then7
	movq	-16(%rbp), %rax
	movl	$0, (%rax)
.LBB42_7:                               # %if.end8
	cmpq	$0, -8(%rbp)
	je	.LBB42_9
# %bb.8:                                # %if.then10
	movq	-8(%rbp), %rax
	movl	$0, 5096(%rax)
.LBB42_9:                               # %if.end12
	jmp	.LBB42_19
.LBB42_10:                              # %if.end13
	movq	-8(%rbp), %rax
	cmpb	$0, 5012(%rax)
	je	.LBB42_16
# %bb.11:                               # %if.then14
	cmpq	$0, -16(%rbp)
	je	.LBB42_13
# %bb.12:                               # %if.then16
	movq	-16(%rbp), %rax
	movl	$-1, (%rax)
.LBB42_13:                              # %if.end17
	cmpq	$0, -8(%rbp)
	je	.LBB42_15
# %bb.14:                               # %if.then19
	movq	-8(%rbp), %rax
	movl	$-1, 5096(%rax)
.LBB42_15:                              # %if.end21
	jmp	.LBB42_19
.LBB42_16:                              # %if.end22
	movq	-8(%rbp), %rax
	cmpb	$0, 5100(%rax)
	je	.LBB42_18
# %bb.17:                               # %if.then24
	movq	-8(%rbp), %rdi
	addq	$5016, %rdi             # imm = 0x1398
	callq	BZ2_bzDecompressEnd
.LBB42_18:                              # %if.end25
	movq	-8(%rbp), %rdi
	callq	free
.LBB42_19:                              # %return
	cmpl	$1619892138, -20(%rbp)  # imm = 0x608D97AA
	jne	.LBB42_21
.LBB42_20:
	addq	$32, %rsp
	popq	%rbp
	.cfi_def_cfa %rsp, 8
	retq
.LBB42_21:                              # %func_exit
	.cfi_def_cfa %rbp, 16
	callq	detect_breach
	jmp	.LBB42_20
.Lfunc_end42:
	.size	BZ2_bzReadClose.2, .Lfunc_end42-BZ2_bzReadClose.2
	.cfi_endproc
                                        # -- End function
	.globl	BZ2_bzWriteClose.3      # -- Begin function BZ2_bzWriteClose.3
	.p2align	4, 0x90
	.type	BZ2_bzWriteClose.3,@function
BZ2_bzWriteClose.3:                     # @BZ2_bzWriteClose.3
	.cfi_startproc
# %bb.0:                                # %entry
	pushq	%rbp
	.cfi_def_cfa_offset 16
	.cfi_offset %rbp, -16
	movq	%rsp, %rbp
	.cfi_def_cfa_register %rbp
	subq	$48, %rsp
	movl	$1717624510, -8(%rbp)   # imm = 0x6660DEBE
	movq	%rdi, -40(%rbp)
	movq	%rsi, -16(%rbp)
	movl	%edx, -4(%rbp)
	movq	%rcx, -32(%rbp)
	movq	%r8, -24(%rbp)
	movq	-40(%rbp), %rdi
	movq	-16(%rbp), %rsi
	movl	-4(%rbp), %edx
	movq	-32(%rbp), %rcx
	movq	-24(%rbp), %r9
	xorl	%r8d, %r8d
	movq	$0, (%rsp)
	callq	BZ2_bzWriteClose64
	cmpl	$1717624510, -8(%rbp)   # imm = 0x6660DEBE
	jne	.LBB43_2
.LBB43_1:
	addq	$48, %rsp
	popq	%rbp
	.cfi_def_cfa %rsp, 8
	retq
.LBB43_2:                               # %func_exit
	.cfi_def_cfa %rbp, 16
	callq	detect_breach
	jmp	.LBB43_1
.Lfunc_end43:
	.size	BZ2_bzWriteClose.3, .Lfunc_end43-BZ2_bzWriteClose.3
	.cfi_endproc
                                        # -- End function
	.globl	BZ2_bzReadGetUnused.4   # -- Begin function BZ2_bzReadGetUnused.4
	.p2align	4, 0x90
	.type	BZ2_bzReadGetUnused.4,@function
BZ2_bzReadGetUnused.4:                  # @BZ2_bzReadGetUnused.4
	.cfi_startproc
# %bb.0:                                # %entry
	pushq	%rbp
	.cfi_def_cfa_offset 16
	.cfi_offset %rbp, -16
	movq	%rsp, %rbp
	.cfi_def_cfa_register %rbp
	subq	$48, %rsp
	movl	$58488941, -20(%rbp)    # imm = 0x37C786D
	movq	%rdi, -16(%rbp)
	movq	%rsi, -48(%rbp)
	movq	%rdx, -40(%rbp)
	movq	%rcx, -32(%rbp)
	movq	-48(%rbp), %rax
	movq	%rax, -8(%rbp)
	cmpq	$0, -8(%rbp)
	jne	.LBB44_6
# %bb.1:                                # %if.then
	cmpq	$0, -16(%rbp)
	je	.LBB44_3
# %bb.2:                                # %if.then2
	movq	-16(%rbp), %rax
	movl	$-2, (%rax)
.LBB44_3:                               # %if.end
	cmpq	$0, -8(%rbp)
	je	.LBB44_5
# %bb.4:                                # %if.then4
	movq	-8(%rbp), %rax
	movl	$-2, 5096(%rax)
.LBB44_5:                               # %if.end5
	jmp	.LBB44_24
.LBB44_6:                               # %if.end6
	movq	-8(%rbp), %rax
	cmpl	$4, 5096(%rax)
	je	.LBB44_12
# %bb.7:                                # %if.then9
	cmpq	$0, -16(%rbp)
	je	.LBB44_9
# %bb.8:                                # %if.then11
	movq	-16(%rbp), %rax
	movl	$-1, (%rax)
.LBB44_9:                               # %if.end12
	cmpq	$0, -8(%rbp)
	je	.LBB44_11
# %bb.10:                               # %if.then14
	movq	-8(%rbp), %rax
	movl	$-1, 5096(%rax)
.LBB44_11:                              # %if.end16
	jmp	.LBB44_24
.LBB44_12:                              # %if.end17
	cmpq	$0, -40(%rbp)
	je	.LBB44_14
# %bb.13:                               # %lor.lhs.false
	cmpq	$0, -32(%rbp)
	jne	.LBB44_19
.LBB44_14:                              # %if.then20
	cmpq	$0, -16(%rbp)
	je	.LBB44_16
# %bb.15:                               # %if.then22
	movq	-16(%rbp), %rax
	movl	$-2, (%rax)
.LBB44_16:                              # %if.end23
	cmpq	$0, -8(%rbp)
	je	.LBB44_18
# %bb.17:                               # %if.then25
	movq	-8(%rbp), %rax
	movl	$-2, 5096(%rax)
.LBB44_18:                              # %if.end27
	jmp	.LBB44_24
.LBB44_19:                              # %if.end28
	cmpq	$0, -16(%rbp)
	je	.LBB44_21
# %bb.20:                               # %if.then30
	movq	-16(%rbp), %rax
	movl	$0, (%rax)
.LBB44_21:                              # %if.end31
	cmpq	$0, -8(%rbp)
	je	.LBB44_23
# %bb.22:                               # %if.then33
	movq	-8(%rbp), %rax
	movl	$0, 5096(%rax)
.LBB44_23:                              # %if.end35
	movq	-8(%rbp), %rax
	movl	5024(%rax), %eax
	movq	-32(%rbp), %rcx
	movl	%eax, (%rcx)
	movq	-8(%rbp), %rax
	movq	5016(%rax), %rax
	movq	-40(%rbp), %rcx
	movq	%rax, (%rcx)
.LBB44_24:                              # %return
	cmpl	$58488941, -20(%rbp)    # imm = 0x37C786D
	jne	.LBB44_26
.LBB44_25:
	addq	$48, %rsp
	popq	%rbp
	.cfi_def_cfa %rsp, 8
	retq
.LBB44_26:                              # %func_exit
	.cfi_def_cfa %rbp, 16
	callq	detect_breach
	jmp	.LBB44_25
.Lfunc_end44:
	.size	BZ2_bzReadGetUnused.4, .Lfunc_end44-BZ2_bzReadGetUnused.4
	.cfi_endproc
                                        # -- End function
	.globl	BZ2_bzclose.5           # -- Begin function BZ2_bzclose.5
	.p2align	4, 0x90
	.type	BZ2_bzclose.5,@function
BZ2_bzclose.5:                          # @BZ2_bzclose.5
	.cfi_startproc
# %bb.0:                                # %entry
	pushq	%rbp
	.cfi_def_cfa_offset 16
	.cfi_offset %rbp, -16
	movq	%rsp, %rbp
	.cfi_def_cfa_register %rbp
	subq	$32, %rsp
	movl	$833454877, -28(%rbp)   # imm = 0x31AD831D
	movq	%rdi, -8(%rbp)
	movq	-8(%rbp), %rax
	movq	(%rax), %rax
	movq	%rax, -24(%rbp)
	cmpq	$0, -8(%rbp)
	jne	.LBB45_2
# %bb.1:                                # %if.then
	jmp	.LBB45_10
.LBB45_2:                               # %if.end
	movq	-8(%rbp), %rax
	cmpb	$0, 5012(%rax)
	je	.LBB45_6
# %bb.3:                                # %if.then1
	movq	-8(%rbp), %rsi
	leaq	-12(%rbp), %rdi
	xorl	%edx, %edx
	xorl	%ecx, %ecx
	xorl	%r8d, %r8d
	callq	BZ2_bzWriteClose
	cmpl	$0, -12(%rbp)
	je	.LBB45_5
# %bb.4:                                # %if.then3
	movq	-8(%rbp), %rsi
	xorl	%edi, %edi
	movl	$1, %edx
	xorl	%ecx, %ecx
	xorl	%r8d, %r8d
	callq	BZ2_bzWriteClose
.LBB45_5:                               # %if.end4
	jmp	.LBB45_7
.LBB45_6:                               # %if.else
	movq	-8(%rbp), %rsi
	leaq	-12(%rbp), %rdi
	callq	BZ2_bzReadClose
.LBB45_7:                               # %if.end5
	movq	-24(%rbp), %rax
	cmpq	stdin, %rax
	je	.LBB45_10
# %bb.8:                                # %land.lhs.true
	movq	-24(%rbp), %rax
	cmpq	stdout, %rax
	je	.LBB45_10
# %bb.9:                                # %if.then8
	movq	-24(%rbp), %rdi
	callq	fclose
.LBB45_10:                              # %if.end9
	cmpl	$833454877, -28(%rbp)   # imm = 0x31AD831D
	jne	.LBB45_12
.LBB45_11:
	addq	$32, %rsp
	popq	%rbp
	.cfi_def_cfa %rsp, 8
	retq
.LBB45_12:                              # %func_exit
	.cfi_def_cfa %rbp, 16
	callq	detect_breach
	jmp	.LBB45_11
.Lfunc_end45:
	.size	BZ2_bzclose.5, .Lfunc_end45-BZ2_bzclose.5
	.cfi_endproc
                                        # -- End function
	.p2align	4, 0x90         # -- Begin function isempty_RL.6
	.type	isempty_RL.6,@function
isempty_RL.6:                           # @isempty_RL.6
	.cfi_startproc
# %bb.0:                                # %entry
	pushq	%rbp
	.cfi_def_cfa_offset 16
	.cfi_offset %rbp, -16
	movq	%rsp, %rbp
	.cfi_def_cfa_register %rbp
	pushq	%rbx
	subq	$24, %rsp
	.cfi_offset %rbx, -24
	movl	$504276585, -16(%rbp)   # imm = 0x1E0EA669
	movq	%rdi, -24(%rbp)
	movq	-24(%rbp), %rax
	cmpl	$256, 92(%rax)          # imm = 0x100
	jae	.LBB46_3
# %bb.1:                                # %land.lhs.true
	movq	-24(%rbp), %rax
	cmpl	$0, 96(%rax)
	jle	.LBB46_3
# %bb.2:                                # %if.then
	movb	$0, -9(%rbp)
	jmp	.LBB46_4
.LBB46_3:                               # %if.else
	movb	$1, -9(%rbp)
.LBB46_4:                               # %return
	movb	-9(%rbp), %bl
	cmpl	$504276585, -16(%rbp)   # imm = 0x1E0EA669
	jne	.LBB46_6
.LBB46_5:
	movzbl	%bl, %eax
	addq	$24, %rsp
	popq	%rbx
	popq	%rbp
	.cfi_def_cfa %rsp, 8
	retq
.LBB46_6:                               # %func_exit
	.cfi_def_cfa %rbp, 16
	callq	detect_breach
	jmp	.LBB46_5
.Lfunc_end46:
	.size	isempty_RL.6, .Lfunc_end46-isempty_RL.6
	.cfi_endproc
                                        # -- End function
	.p2align	4, 0x90         # -- Begin function default_bzfree.7
	.type	default_bzfree.7,@function
default_bzfree.7:                       # @default_bzfree.7
	.cfi_startproc
# %bb.0:                                # %entry
	pushq	%rbp
	.cfi_def_cfa_offset 16
	.cfi_offset %rbp, -16
	movq	%rsp, %rbp
	.cfi_def_cfa_register %rbp
	subq	$32, %rsp
	movl	$600988882, -4(%rbp)    # imm = 0x23D25CD2
	movq	%rdi, -24(%rbp)
	movq	%rsi, -16(%rbp)
	cmpq	$0, -16(%rbp)
	je	.LBB47_2
# %bb.1:                                # %if.then
	movq	-16(%rbp), %rdi
	callq	free
.LBB47_2:                               # %if.end
	cmpl	$600988882, -4(%rbp)    # imm = 0x23D25CD2
	jne	.LBB47_4
.LBB47_3:
	addq	$32, %rsp
	popq	%rbp
	.cfi_def_cfa %rsp, 8
	retq
.LBB47_4:                               # %func_exit
	.cfi_def_cfa %rbp, 16
	callq	detect_breach
	jmp	.LBB47_3
.Lfunc_end47:
	.size	default_bzfree.7, .Lfunc_end47-default_bzfree.7
	.cfi_endproc
                                        # -- End function
	.p2align	4, 0x90         # -- Begin function unRLE_obuf_to_output_SMALL.8
	.type	unRLE_obuf_to_output_SMALL.8,@function
unRLE_obuf_to_output_SMALL.8:           # @unRLE_obuf_to_output_SMALL.8
	.cfi_startproc
# %bb.0:                                # %entry
	pushq	%rbp
	.cfi_def_cfa_offset 16
	.cfi_offset %rbp, -16
	movq	%rsp, %rbp
	.cfi_def_cfa_register %rbp
	pushq	%rbx
	subq	$24, %rsp
	.cfi_offset %rbx, -24
	movl	$1716058048, -32(%rbp)  # imm = 0x6648F7C0
	movq	%rdi, -24(%rbp)
	movq	-24(%rbp), %rax
	cmpb	$0, 20(%rax)
	je	.LBB48_48
# %bb.1:                                # %if.then
	jmp	.LBB48_2
.LBB48_2:                               # %while.body
                                        # =>This Loop Header: Depth=1
                                        #     Child Loop BB48_3 Depth 2
	jmp	.LBB48_3
.LBB48_3:                               # %while.body2
                                        #   Parent Loop BB48_2 Depth=1
                                        # =>  This Inner Loop Header: Depth=2
	movq	-24(%rbp), %rax
	movq	(%rax), %rax
	cmpl	$0, 32(%rax)
	jne	.LBB48_5
# %bb.4:                                # %if.then3
	movb	$0, -25(%rbp)
	jmp	.LBB48_75
.LBB48_5:                               # %if.end
                                        #   in Loop: Header=BB48_3 Depth=2
	movq	-24(%rbp), %rax
	cmpl	$0, 16(%rax)
	jne	.LBB48_7
# %bb.6:                                # %if.then5
                                        #   in Loop: Header=BB48_2 Depth=1
	jmp	.LBB48_10
.LBB48_7:                               # %if.end6
                                        #   in Loop: Header=BB48_3 Depth=2
	movq	-24(%rbp), %rax
	movb	12(%rax), %al
	movq	-24(%rbp), %rcx
	movq	(%rcx), %rcx
	movq	24(%rcx), %rcx
	movb	%al, (%rcx)
	movq	-24(%rbp), %rax
	movl	3184(%rax), %eax
	shll	$8, %eax
	movq	-24(%rbp), %rcx
	movl	3184(%rcx), %ecx
	shrl	$24, %ecx
	movq	-24(%rbp), %rdx
	movzbl	12(%rdx), %edx
	xorl	%edx, %ecx
	movl	%ecx, %ecx
	xorl	BZ2_crc32Table(,%rcx,4), %eax
	movq	-24(%rbp), %rcx
	movl	%eax, 3184(%rcx)
	movq	-24(%rbp), %rax
	movl	16(%rax), %ecx
	addl	$-1, %ecx
	movl	%ecx, 16(%rax)
	movq	-24(%rbp), %rax
	movq	(%rax), %rax
	movq	24(%rax), %rcx
	addq	$1, %rcx
	movq	%rcx, 24(%rax)
	movq	-24(%rbp), %rax
	movq	(%rax), %rax
	movl	32(%rax), %ecx
	addl	$-1, %ecx
	movl	%ecx, 32(%rax)
	movq	-24(%rbp), %rax
	movq	(%rax), %rax
	movl	36(%rax), %ecx
	addl	$1, %ecx
	movl	%ecx, 36(%rax)
	movq	-24(%rbp), %rax
	movq	(%rax), %rax
	cmpl	$0, 36(%rax)
	jne	.LBB48_9
# %bb.8:                                # %if.then23
                                        #   in Loop: Header=BB48_3 Depth=2
	movq	-24(%rbp), %rax
	movq	(%rax), %rax
	movl	40(%rax), %ecx
	addl	$1, %ecx
	movl	%ecx, 40(%rax)
.LBB48_9:                               # %if.end26
                                        #   in Loop: Header=BB48_3 Depth=2
	jmp	.LBB48_3
.LBB48_10:                              # %while.end
                                        #   in Loop: Header=BB48_2 Depth=1
	movq	-24(%rbp), %rax
	movl	1092(%rax), %eax
	movq	-24(%rbp), %rcx
	movl	64080(%rcx), %ecx
	addl	$1, %ecx
	cmpl	%ecx, %eax
	jne	.LBB48_12
# %bb.11:                               # %if.then29
	movb	$0, -25(%rbp)
	jmp	.LBB48_75
.LBB48_12:                              # %if.end30
                                        #   in Loop: Header=BB48_2 Depth=1
	movq	-24(%rbp), %rax
	movl	1092(%rax), %eax
	movq	-24(%rbp), %rcx
	movl	64080(%rcx), %ecx
	addl	$1, %ecx
	cmpl	%ecx, %eax
	jle	.LBB48_14
# %bb.13:                               # %if.then36
	movb	$1, -25(%rbp)
	jmp	.LBB48_75
.LBB48_14:                              # %if.end37
                                        #   in Loop: Header=BB48_2 Depth=1
	movq	-24(%rbp), %rax
	movl	$1, 16(%rax)
	movq	-24(%rbp), %rax
	movl	64(%rax), %eax
	movq	-24(%rbp), %rcx
	movb	%al, 12(%rcx)
	movq	-24(%rbp), %rax
	movl	60(%rax), %edi
	movq	-24(%rbp), %rsi
	addq	$1096, %rsi             # imm = 0x448
	callq	BZ2_indexIntoF
	movb	%al, -9(%rbp)
	movq	-24(%rbp), %rax
	movq	3160(%rax), %rax
	movq	-24(%rbp), %rcx
	movl	60(%rcx), %ecx
	movzwl	(%rax,%rcx,2), %eax
	movq	-24(%rbp), %rcx
	movq	3168(%rcx), %rcx
	movq	-24(%rbp), %rdx
	movl	60(%rdx), %edx
	shrl	$1, %edx
	movl	%edx, %edx
	movzbl	(%rcx,%rdx), %edx
	movq	-24(%rbp), %rcx
	movl	60(%rcx), %ecx
	shll	$2, %ecx
	andl	$4, %ecx
                                        # kill: def $cl killed $ecx
	shrl	%cl, %edx
	andl	$15, %edx
	shll	$16, %edx
	orl	%edx, %eax
	movq	-24(%rbp), %rcx
	movl	%eax, 60(%rcx)
	movq	-24(%rbp), %rax
	cmpl	$0, 24(%rax)
	jne	.LBB48_18
# %bb.15:                               # %if.then59
                                        #   in Loop: Header=BB48_2 Depth=1
	movq	-24(%rbp), %rax
	movslq	28(%rax), %rax
	movl	BZ2_rNums(,%rax,4), %eax
	movq	-24(%rbp), %rcx
	movl	%eax, 24(%rcx)
	movq	-24(%rbp), %rax
	movl	28(%rax), %ecx
	addl	$1, %ecx
	movl	%ecx, 28(%rax)
	movq	-24(%rbp), %rax
	cmpl	$512, 28(%rax)          # imm = 0x200
	jne	.LBB48_17
# %bb.16:                               # %if.then68
                                        #   in Loop: Header=BB48_2 Depth=1
	movq	-24(%rbp), %rax
	movl	$0, 28(%rax)
.LBB48_17:                              # %if.end70
                                        #   in Loop: Header=BB48_2 Depth=1
	jmp	.LBB48_18
.LBB48_18:                              # %if.end71
                                        #   in Loop: Header=BB48_2 Depth=1
	xorl	%eax, %eax
	movq	-24(%rbp), %rcx
	movl	24(%rcx), %edx
	addl	$-1, %edx
	movl	%edx, 24(%rcx)
	movq	-24(%rbp), %rcx
	movl	24(%rcx), %ecx
	cmpl	$1, %ecx
	movl	$1, %ecx
	cmovel	%ecx, %eax
	movzbl	-9(%rbp), %ecx
	xorl	%eax, %ecx
	movb	%cl, -9(%rbp)
	movq	-24(%rbp), %rax
	movl	1092(%rax), %ecx
	addl	$1, %ecx
	movl	%ecx, 1092(%rax)
	movq	-24(%rbp), %rax
	movl	1092(%rax), %eax
	movq	-24(%rbp), %rcx
	movl	64080(%rcx), %ecx
	addl	$1, %ecx
	cmpl	%ecx, %eax
	jne	.LBB48_21
# %bb.19:                               # %if.then87
                                        #   in Loop: Header=BB48_2 Depth=1
	jmp	.LBB48_20
.LBB48_20:                              # %while.body.backedge
                                        #   in Loop: Header=BB48_2 Depth=1
	jmp	.LBB48_2
.LBB48_21:                              # %if.end88
                                        #   in Loop: Header=BB48_2 Depth=1
	movzbl	-9(%rbp), %eax
	movq	-24(%rbp), %rcx
	cmpl	64(%rcx), %eax
	je	.LBB48_23
# %bb.22:                               # %if.then93
                                        #   in Loop: Header=BB48_2 Depth=1
	movzbl	-9(%rbp), %eax
	movq	-24(%rbp), %rcx
	movl	%eax, 64(%rcx)
	jmp	.LBB48_20
.LBB48_23:                              # %if.end96
                                        #   in Loop: Header=BB48_2 Depth=1
	movq	-24(%rbp), %rax
	movl	$2, 16(%rax)
	movq	-24(%rbp), %rax
	movl	60(%rax), %edi
	movq	-24(%rbp), %rsi
	addq	$1096, %rsi             # imm = 0x448
	callq	BZ2_indexIntoF
	movb	%al, -9(%rbp)
	movq	-24(%rbp), %rax
	movq	3160(%rax), %rax
	movq	-24(%rbp), %rcx
	movl	60(%rcx), %ecx
	movzwl	(%rax,%rcx,2), %eax
	movq	-24(%rbp), %rcx
	movq	3168(%rcx), %rcx
	movq	-24(%rbp), %rdx
	movl	60(%rdx), %edx
	shrl	$1, %edx
	movl	%edx, %edx
	movzbl	(%rcx,%rdx), %edx
	movq	-24(%rbp), %rcx
	movl	60(%rcx), %ecx
	shll	$2, %ecx
	andl	$4, %ecx
                                        # kill: def $cl killed $ecx
	shrl	%cl, %edx
	andl	$15, %edx
	shll	$16, %edx
	orl	%edx, %eax
	movq	-24(%rbp), %rcx
	movl	%eax, 60(%rcx)
	movq	-24(%rbp), %rax
	cmpl	$0, 24(%rax)
	jne	.LBB48_27
# %bb.24:                               # %if.then125
                                        #   in Loop: Header=BB48_2 Depth=1
	movq	-24(%rbp), %rax
	movslq	28(%rax), %rax
	movl	BZ2_rNums(,%rax,4), %eax
	movq	-24(%rbp), %rcx
	movl	%eax, 24(%rcx)
	movq	-24(%rbp), %rax
	movl	28(%rax), %ecx
	addl	$1, %ecx
	movl	%ecx, 28(%rax)
	movq	-24(%rbp), %rax
	cmpl	$512, 28(%rax)          # imm = 0x200
	jne	.LBB48_26
# %bb.25:                               # %if.then135
                                        #   in Loop: Header=BB48_2 Depth=1
	movq	-24(%rbp), %rax
	movl	$0, 28(%rax)
.LBB48_26:                              # %if.end137
                                        #   in Loop: Header=BB48_2 Depth=1
	jmp	.LBB48_27
.LBB48_27:                              # %if.end138
                                        #   in Loop: Header=BB48_2 Depth=1
	xorl	%eax, %eax
	movq	-24(%rbp), %rcx
	movl	24(%rcx), %edx
	addl	$-1, %edx
	movl	%edx, 24(%rcx)
	movq	-24(%rbp), %rcx
	movl	24(%rcx), %ecx
	cmpl	$1, %ecx
	movl	$1, %ecx
	cmovel	%ecx, %eax
	movzbl	-9(%rbp), %ecx
	xorl	%eax, %ecx
	movb	%cl, -9(%rbp)
	movq	-24(%rbp), %rax
	movl	1092(%rax), %ecx
	addl	$1, %ecx
	movl	%ecx, 1092(%rax)
	movq	-24(%rbp), %rax
	movl	1092(%rax), %eax
	movq	-24(%rbp), %rcx
	movl	64080(%rcx), %ecx
	addl	$1, %ecx
	cmpl	%ecx, %eax
	jne	.LBB48_29
# %bb.28:                               # %if.then155
                                        #   in Loop: Header=BB48_2 Depth=1
	jmp	.LBB48_20
.LBB48_29:                              # %if.end156
                                        #   in Loop: Header=BB48_2 Depth=1
	movzbl	-9(%rbp), %eax
	movq	-24(%rbp), %rcx
	cmpl	64(%rcx), %eax
	je	.LBB48_31
# %bb.30:                               # %if.then161
                                        #   in Loop: Header=BB48_2 Depth=1
	movzbl	-9(%rbp), %eax
	movq	-24(%rbp), %rcx
	movl	%eax, 64(%rcx)
	jmp	.LBB48_20
.LBB48_31:                              # %if.end164
                                        #   in Loop: Header=BB48_2 Depth=1
	movq	-24(%rbp), %rax
	movl	$3, 16(%rax)
	movq	-24(%rbp), %rax
	movl	60(%rax), %edi
	movq	-24(%rbp), %rsi
	addq	$1096, %rsi             # imm = 0x448
	callq	BZ2_indexIntoF
	movb	%al, -9(%rbp)
	movq	-24(%rbp), %rax
	movq	3160(%rax), %rax
	movq	-24(%rbp), %rcx
	movl	60(%rcx), %ecx
	movzwl	(%rax,%rcx,2), %eax
	movq	-24(%rbp), %rcx
	movq	3168(%rcx), %rcx
	movq	-24(%rbp), %rdx
	movl	60(%rdx), %edx
	shrl	$1, %edx
	movl	%edx, %edx
	movzbl	(%rcx,%rdx), %edx
	movq	-24(%rbp), %rcx
	movl	60(%rcx), %ecx
	shll	$2, %ecx
	andl	$4, %ecx
                                        # kill: def $cl killed $ecx
	shrl	%cl, %edx
	andl	$15, %edx
	shll	$16, %edx
	orl	%edx, %eax
	movq	-24(%rbp), %rcx
	movl	%eax, 60(%rcx)
	movq	-24(%rbp), %rax
	cmpl	$0, 24(%rax)
	jne	.LBB48_35
# %bb.32:                               # %if.then193
                                        #   in Loop: Header=BB48_2 Depth=1
	movq	-24(%rbp), %rax
	movslq	28(%rax), %rax
	movl	BZ2_rNums(,%rax,4), %eax
	movq	-24(%rbp), %rcx
	movl	%eax, 24(%rcx)
	movq	-24(%rbp), %rax
	movl	28(%rax), %ecx
	addl	$1, %ecx
	movl	%ecx, 28(%rax)
	movq	-24(%rbp), %rax
	cmpl	$512, 28(%rax)          # imm = 0x200
	jne	.LBB48_34
# %bb.33:                               # %if.then203
                                        #   in Loop: Header=BB48_2 Depth=1
	movq	-24(%rbp), %rax
	movl	$0, 28(%rax)
.LBB48_34:                              # %if.end205
                                        #   in Loop: Header=BB48_2 Depth=1
	jmp	.LBB48_35
.LBB48_35:                              # %if.end206
                                        #   in Loop: Header=BB48_2 Depth=1
	xorl	%eax, %eax
	movq	-24(%rbp), %rcx
	movl	24(%rcx), %edx
	addl	$-1, %edx
	movl	%edx, 24(%rcx)
	movq	-24(%rbp), %rcx
	movl	24(%rcx), %ecx
	cmpl	$1, %ecx
	movl	$1, %ecx
	cmovel	%ecx, %eax
	movzbl	-9(%rbp), %ecx
	xorl	%eax, %ecx
	movb	%cl, -9(%rbp)
	movq	-24(%rbp), %rax
	movl	1092(%rax), %ecx
	addl	$1, %ecx
	movl	%ecx, 1092(%rax)
	movq	-24(%rbp), %rax
	movl	1092(%rax), %eax
	movq	-24(%rbp), %rcx
	movl	64080(%rcx), %ecx
	addl	$1, %ecx
	cmpl	%ecx, %eax
	jne	.LBB48_37
# %bb.36:                               # %if.then223
                                        #   in Loop: Header=BB48_2 Depth=1
	jmp	.LBB48_20
.LBB48_37:                              # %if.end224
                                        #   in Loop: Header=BB48_2 Depth=1
	movzbl	-9(%rbp), %eax
	movq	-24(%rbp), %rcx
	cmpl	64(%rcx), %eax
	je	.LBB48_39
# %bb.38:                               # %if.then229
                                        #   in Loop: Header=BB48_2 Depth=1
	movzbl	-9(%rbp), %eax
	movq	-24(%rbp), %rcx
	movl	%eax, 64(%rcx)
	jmp	.LBB48_20
.LBB48_39:                              # %if.end232
                                        #   in Loop: Header=BB48_2 Depth=1
	movq	-24(%rbp), %rax
	movl	60(%rax), %edi
	movq	-24(%rbp), %rsi
	addq	$1096, %rsi             # imm = 0x448
	callq	BZ2_indexIntoF
	movb	%al, -9(%rbp)
	movq	-24(%rbp), %rax
	movq	3160(%rax), %rax
	movq	-24(%rbp), %rcx
	movl	60(%rcx), %ecx
	movzwl	(%rax,%rcx,2), %eax
	movq	-24(%rbp), %rcx
	movq	3168(%rcx), %rcx
	movq	-24(%rbp), %rdx
	movl	60(%rdx), %edx
	shrl	$1, %edx
	movl	%edx, %edx
	movzbl	(%rcx,%rdx), %edx
	movq	-24(%rbp), %rcx
	movl	60(%rcx), %ecx
	shll	$2, %ecx
	andl	$4, %ecx
                                        # kill: def $cl killed $ecx
	shrl	%cl, %edx
	andl	$15, %edx
	shll	$16, %edx
	orl	%edx, %eax
	movq	-24(%rbp), %rcx
	movl	%eax, 60(%rcx)
	movq	-24(%rbp), %rax
	cmpl	$0, 24(%rax)
	jne	.LBB48_43
# %bb.40:                               # %if.then260
                                        #   in Loop: Header=BB48_2 Depth=1
	movq	-24(%rbp), %rax
	movslq	28(%rax), %rax
	movl	BZ2_rNums(,%rax,4), %eax
	movq	-24(%rbp), %rcx
	movl	%eax, 24(%rcx)
	movq	-24(%rbp), %rax
	movl	28(%rax), %ecx
	addl	$1, %ecx
	movl	%ecx, 28(%rax)
	movq	-24(%rbp), %rax
	cmpl	$512, 28(%rax)          # imm = 0x200
	jne	.LBB48_42
# %bb.41:                               # %if.then270
                                        #   in Loop: Header=BB48_2 Depth=1
	movq	-24(%rbp), %rax
	movl	$0, 28(%rax)
.LBB48_42:                              # %if.end272
                                        #   in Loop: Header=BB48_2 Depth=1
	jmp	.LBB48_43
.LBB48_43:                              # %if.end273
                                        #   in Loop: Header=BB48_2 Depth=1
	xorl	%eax, %eax
	movq	-24(%rbp), %rcx
	movl	24(%rcx), %edx
	addl	$-1, %edx
	movl	%edx, 24(%rcx)
	movq	-24(%rbp), %rcx
	movl	24(%rcx), %ecx
	cmpl	$1, %ecx
	movl	$1, %ecx
	cmovel	%ecx, %eax
	movzbl	-9(%rbp), %ecx
	xorl	%eax, %ecx
	movb	%cl, -9(%rbp)
	movq	-24(%rbp), %rax
	movl	1092(%rax), %ecx
	addl	$1, %ecx
	movl	%ecx, 1092(%rax)
	movzbl	-9(%rbp), %eax
	addl	$4, %eax
	movq	-24(%rbp), %rcx
	movl	%eax, 16(%rcx)
	movq	-24(%rbp), %rax
	movl	60(%rax), %edi
	movq	-24(%rbp), %rsi
	addq	$1096, %rsi             # imm = 0x448
	callq	BZ2_indexIntoF
	movq	-24(%rbp), %rcx
	movl	%eax, 64(%rcx)
	movq	-24(%rbp), %rax
	movq	3160(%rax), %rax
	movq	-24(%rbp), %rcx
	movl	60(%rcx), %ecx
	movzwl	(%rax,%rcx,2), %eax
	movq	-24(%rbp), %rcx
	movq	3168(%rcx), %rcx
	movq	-24(%rbp), %rdx
	movl	60(%rdx), %edx
	shrl	$1, %edx
	movl	%edx, %edx
	movzbl	(%rcx,%rdx), %edx
	movq	-24(%rbp), %rcx
	movl	60(%rcx), %ecx
	shll	$2, %ecx
	andl	$4, %ecx
                                        # kill: def $cl killed $ecx
	shrl	%cl, %edx
	andl	$15, %edx
	shll	$16, %edx
	orl	%edx, %eax
	movq	-24(%rbp), %rcx
	movl	%eax, 60(%rcx)
	movq	-24(%rbp), %rax
	cmpl	$0, 24(%rax)
	jne	.LBB48_47
# %bb.44:                               # %if.then315
                                        #   in Loop: Header=BB48_2 Depth=1
	movq	-24(%rbp), %rax
	movslq	28(%rax), %rax
	movl	BZ2_rNums(,%rax,4), %eax
	movq	-24(%rbp), %rcx
	movl	%eax, 24(%rcx)
	movq	-24(%rbp), %rax
	movl	28(%rax), %ecx
	addl	$1, %ecx
	movl	%ecx, 28(%rax)
	movq	-24(%rbp), %rax
	cmpl	$512, 28(%rax)          # imm = 0x200
	jne	.LBB48_46
# %bb.45:                               # %if.then325
                                        #   in Loop: Header=BB48_2 Depth=1
	movq	-24(%rbp), %rax
	movl	$0, 28(%rax)
.LBB48_46:                              # %if.end327
                                        #   in Loop: Header=BB48_2 Depth=1
	jmp	.LBB48_47
.LBB48_47:                              # %if.end328
                                        #   in Loop: Header=BB48_2 Depth=1
	xorl	%eax, %eax
	movq	-24(%rbp), %rcx
	movl	24(%rcx), %edx
	addl	$-1, %edx
	movl	%edx, 24(%rcx)
	movq	-24(%rbp), %rcx
	movl	24(%rcx), %ecx
	cmpl	$1, %ecx
	movl	$1, %ecx
	cmovel	%ecx, %eax
	movq	-24(%rbp), %rcx
	xorl	64(%rcx), %eax
	movl	%eax, 64(%rcx)
	movq	-24(%rbp), %rax
	movl	1092(%rax), %ecx
	addl	$1, %ecx
	movl	%ecx, 1092(%rax)
	jmp	.LBB48_20
.LBB48_48:                              # %if.else
	jmp	.LBB48_49
.LBB48_49:                              # %while.body339
                                        # =>This Loop Header: Depth=1
                                        #     Child Loop BB48_50 Depth 2
	jmp	.LBB48_50
.LBB48_50:                              # %while.body341
                                        #   Parent Loop BB48_49 Depth=1
                                        # =>  This Inner Loop Header: Depth=2
	movq	-24(%rbp), %rax
	movq	(%rax), %rax
	cmpl	$0, 32(%rax)
	jne	.LBB48_52
# %bb.51:                               # %if.then346
	movb	$0, -25(%rbp)
	jmp	.LBB48_75
.LBB48_52:                              # %if.end347
                                        #   in Loop: Header=BB48_50 Depth=2
	movq	-24(%rbp), %rax
	cmpl	$0, 16(%rax)
	jne	.LBB48_54
# %bb.53:                               # %if.then351
                                        #   in Loop: Header=BB48_49 Depth=1
	jmp	.LBB48_57
.LBB48_54:                              # %if.end352
                                        #   in Loop: Header=BB48_50 Depth=2
	movq	-24(%rbp), %rax
	movb	12(%rax), %al
	movq	-24(%rbp), %rcx
	movq	(%rcx), %rcx
	movq	24(%rcx), %rcx
	movb	%al, (%rcx)
	movq	-24(%rbp), %rax
	movl	3184(%rax), %eax
	shll	$8, %eax
	movq	-24(%rbp), %rcx
	movl	3184(%rcx), %ecx
	shrl	$24, %ecx
	movq	-24(%rbp), %rdx
	movzbl	12(%rdx), %edx
	xorl	%edx, %ecx
	movl	%ecx, %ecx
	xorl	BZ2_crc32Table(,%rcx,4), %eax
	movq	-24(%rbp), %rcx
	movl	%eax, 3184(%rcx)
	movq	-24(%rbp), %rax
	movl	16(%rax), %ecx
	addl	$-1, %ecx
	movl	%ecx, 16(%rax)
	movq	-24(%rbp), %rax
	movq	(%rax), %rax
	movq	24(%rax), %rcx
	addq	$1, %rcx
	movq	%rcx, 24(%rax)
	movq	-24(%rbp), %rax
	movq	(%rax), %rax
	movl	32(%rax), %ecx
	addl	$-1, %ecx
	movl	%ecx, 32(%rax)
	movq	-24(%rbp), %rax
	movq	(%rax), %rax
	movl	36(%rax), %ecx
	addl	$1, %ecx
	movl	%ecx, 36(%rax)
	movq	-24(%rbp), %rax
	movq	(%rax), %rax
	cmpl	$0, 36(%rax)
	jne	.LBB48_56
# %bb.55:                               # %if.then382
                                        #   in Loop: Header=BB48_50 Depth=2
	movq	-24(%rbp), %rax
	movq	(%rax), %rax
	movl	40(%rax), %ecx
	addl	$1, %ecx
	movl	%ecx, 40(%rax)
.LBB48_56:                              # %if.end386
                                        #   in Loop: Header=BB48_50 Depth=2
	jmp	.LBB48_50
.LBB48_57:                              # %while.end387
                                        #   in Loop: Header=BB48_49 Depth=1
	movq	-24(%rbp), %rax
	movl	1092(%rax), %eax
	movq	-24(%rbp), %rcx
	movl	64080(%rcx), %ecx
	addl	$1, %ecx
	cmpl	%ecx, %eax
	jne	.LBB48_59
# %bb.58:                               # %if.then393
	movb	$0, -25(%rbp)
	jmp	.LBB48_75
.LBB48_59:                              # %if.end394
                                        #   in Loop: Header=BB48_49 Depth=1
	movq	-24(%rbp), %rax
	movl	1092(%rax), %eax
	movq	-24(%rbp), %rcx
	movl	64080(%rcx), %ecx
	addl	$1, %ecx
	cmpl	%ecx, %eax
	jle	.LBB48_61
# %bb.60:                               # %if.then400
	movb	$1, -25(%rbp)
	jmp	.LBB48_75
.LBB48_61:                              # %if.end401
                                        #   in Loop: Header=BB48_49 Depth=1
	movq	-24(%rbp), %rax
	movl	$1, 16(%rax)
	movq	-24(%rbp), %rax
	movl	64(%rax), %eax
	movq	-24(%rbp), %rcx
	movb	%al, 12(%rcx)
	movq	-24(%rbp), %rax
	movl	60(%rax), %edi
	movq	-24(%rbp), %rsi
	addq	$1096, %rsi             # imm = 0x448
	callq	BZ2_indexIntoF
	movb	%al, -9(%rbp)
	movq	-24(%rbp), %rax
	movq	3160(%rax), %rax
	movq	-24(%rbp), %rcx
	movl	60(%rcx), %ecx
	movzwl	(%rax,%rcx,2), %eax
	movq	-24(%rbp), %rcx
	movq	3168(%rcx), %rcx
	movq	-24(%rbp), %rdx
	movl	60(%rdx), %edx
	shrl	$1, %edx
	movl	%edx, %edx
	movzbl	(%rcx,%rdx), %edx
	movq	-24(%rbp), %rcx
	movl	60(%rcx), %ecx
	shll	$2, %ecx
	andl	$4, %ecx
                                        # kill: def $cl killed $ecx
	shrl	%cl, %edx
	andl	$15, %edx
	shll	$16, %edx
	orl	%edx, %eax
	movq	-24(%rbp), %rcx
	movl	%eax, 60(%rcx)
	movq	-24(%rbp), %rax
	movl	1092(%rax), %ecx
	addl	$1, %ecx
	movl	%ecx, 1092(%rax)
	movq	-24(%rbp), %rax
	movl	1092(%rax), %eax
	movq	-24(%rbp), %rcx
	movl	64080(%rcx), %ecx
	addl	$1, %ecx
	cmpl	%ecx, %eax
	jne	.LBB48_64
# %bb.62:                               # %if.then437
                                        #   in Loop: Header=BB48_49 Depth=1
	jmp	.LBB48_63
.LBB48_63:                              # %while.body339.backedge
                                        #   in Loop: Header=BB48_49 Depth=1
	jmp	.LBB48_49
.LBB48_64:                              # %if.end438
                                        #   in Loop: Header=BB48_49 Depth=1
	movzbl	-9(%rbp), %eax
	movq	-24(%rbp), %rcx
	cmpl	64(%rcx), %eax
	je	.LBB48_66
# %bb.65:                               # %if.then443
                                        #   in Loop: Header=BB48_49 Depth=1
	movzbl	-9(%rbp), %eax
	movq	-24(%rbp), %rcx
	movl	%eax, 64(%rcx)
	jmp	.LBB48_63
.LBB48_66:                              # %if.end446
                                        #   in Loop: Header=BB48_49 Depth=1
	movq	-24(%rbp), %rax
	movl	$2, 16(%rax)
	movq	-24(%rbp), %rax
	movl	60(%rax), %edi
	movq	-24(%rbp), %rsi
	addq	$1096, %rsi             # imm = 0x448
	callq	BZ2_indexIntoF
	movb	%al, -9(%rbp)
	movq	-24(%rbp), %rax
	movq	3160(%rax), %rax
	movq	-24(%rbp), %rcx
	movl	60(%rcx), %ecx
	movzwl	(%rax,%rcx,2), %eax
	movq	-24(%rbp), %rcx
	movq	3168(%rcx), %rcx
	movq	-24(%rbp), %rdx
	movl	60(%rdx), %edx
	shrl	$1, %edx
	movl	%edx, %edx
	movzbl	(%rcx,%rdx), %edx
	movq	-24(%rbp), %rcx
	movl	60(%rcx), %ecx
	shll	$2, %ecx
	andl	$4, %ecx
                                        # kill: def $cl killed $ecx
	shrl	%cl, %edx
	andl	$15, %edx
	shll	$16, %edx
	orl	%edx, %eax
	movq	-24(%rbp), %rcx
	movl	%eax, 60(%rcx)
	movq	-24(%rbp), %rax
	movl	1092(%rax), %ecx
	addl	$1, %ecx
	movl	%ecx, 1092(%rax)
	movq	-24(%rbp), %rax
	movl	1092(%rax), %eax
	movq	-24(%rbp), %rcx
	movl	64080(%rcx), %ecx
	addl	$1, %ecx
	cmpl	%ecx, %eax
	jne	.LBB48_68
# %bb.67:                               # %if.then479
                                        #   in Loop: Header=BB48_49 Depth=1
	jmp	.LBB48_63
.LBB48_68:                              # %if.end480
                                        #   in Loop: Header=BB48_49 Depth=1
	movzbl	-9(%rbp), %eax
	movq	-24(%rbp), %rcx
	cmpl	64(%rcx), %eax
	je	.LBB48_70
# %bb.69:                               # %if.then485
                                        #   in Loop: Header=BB48_49 Depth=1
	movzbl	-9(%rbp), %eax
	movq	-24(%rbp), %rcx
	movl	%eax, 64(%rcx)
	jmp	.LBB48_63
.LBB48_70:                              # %if.end488
                                        #   in Loop: Header=BB48_49 Depth=1
	movq	-24(%rbp), %rax
	movl	$3, 16(%rax)
	movq	-24(%rbp), %rax
	movl	60(%rax), %edi
	movq	-24(%rbp), %rsi
	addq	$1096, %rsi             # imm = 0x448
	callq	BZ2_indexIntoF
	movb	%al, -9(%rbp)
	movq	-24(%rbp), %rax
	movq	3160(%rax), %rax
	movq	-24(%rbp), %rcx
	movl	60(%rcx), %ecx
	movzwl	(%rax,%rcx,2), %eax
	movq	-24(%rbp), %rcx
	movq	3168(%rcx), %rcx
	movq	-24(%rbp), %rdx
	movl	60(%rdx), %edx
	shrl	$1, %edx
	movl	%edx, %edx
	movzbl	(%rcx,%rdx), %edx
	movq	-24(%rbp), %rcx
	movl	60(%rcx), %ecx
	shll	$2, %ecx
	andl	$4, %ecx
                                        # kill: def $cl killed $ecx
	shrl	%cl, %edx
	andl	$15, %edx
	shll	$16, %edx
	orl	%edx, %eax
	movq	-24(%rbp), %rcx
	movl	%eax, 60(%rcx)
	movq	-24(%rbp), %rax
	movl	1092(%rax), %ecx
	addl	$1, %ecx
	movl	%ecx, 1092(%rax)
	movq	-24(%rbp), %rax
	movl	1092(%rax), %eax
	movq	-24(%rbp), %rcx
	movl	64080(%rcx), %ecx
	addl	$1, %ecx
	cmpl	%ecx, %eax
	jne	.LBB48_72
# %bb.71:                               # %if.then521
                                        #   in Loop: Header=BB48_49 Depth=1
	jmp	.LBB48_63
.LBB48_72:                              # %if.end522
                                        #   in Loop: Header=BB48_49 Depth=1
	movzbl	-9(%rbp), %eax
	movq	-24(%rbp), %rcx
	cmpl	64(%rcx), %eax
	je	.LBB48_74
# %bb.73:                               # %if.then527
                                        #   in Loop: Header=BB48_49 Depth=1
	movzbl	-9(%rbp), %eax
	movq	-24(%rbp), %rcx
	movl	%eax, 64(%rcx)
	jmp	.LBB48_63
.LBB48_74:                              # %if.end530
                                        #   in Loop: Header=BB48_49 Depth=1
	movq	-24(%rbp), %rax
	movl	60(%rax), %edi
	movq	-24(%rbp), %rsi
	addq	$1096, %rsi             # imm = 0x448
	callq	BZ2_indexIntoF
	movb	%al, -9(%rbp)
	movq	-24(%rbp), %rax
	movq	3160(%rax), %rax
	movq	-24(%rbp), %rcx
	movl	60(%rcx), %ecx
	movzwl	(%rax,%rcx,2), %eax
	movq	-24(%rbp), %rcx
	movq	3168(%rcx), %rcx
	movq	-24(%rbp), %rdx
	movl	60(%rdx), %edx
	shrl	$1, %edx
	movl	%edx, %edx
	movzbl	(%rcx,%rdx), %edx
	movq	-24(%rbp), %rcx
	movl	60(%rcx), %ecx
	shll	$2, %ecx
	andl	$4, %ecx
                                        # kill: def $cl killed $ecx
	shrl	%cl, %edx
	andl	$15, %edx
	shll	$16, %edx
	orl	%edx, %eax
	movq	-24(%rbp), %rcx
	movl	%eax, 60(%rcx)
	movq	-24(%rbp), %rax
	movl	1092(%rax), %ecx
	addl	$1, %ecx
	movl	%ecx, 1092(%rax)
	movzbl	-9(%rbp), %eax
	addl	$4, %eax
	movq	-24(%rbp), %rcx
	movl	%eax, 16(%rcx)
	movq	-24(%rbp), %rax
	movl	60(%rax), %edi
	movq	-24(%rbp), %rsi
	addq	$1096, %rsi             # imm = 0x448
	callq	BZ2_indexIntoF
	movq	-24(%rbp), %rcx
	movl	%eax, 64(%rcx)
	movq	-24(%rbp), %rax
	movq	3160(%rax), %rax
	movq	-24(%rbp), %rcx
	movl	60(%rcx), %ecx
	movzwl	(%rax,%rcx,2), %eax
	movq	-24(%rbp), %rcx
	movq	3168(%rcx), %rcx
	movq	-24(%rbp), %rdx
	movl	60(%rdx), %edx
	shrl	$1, %edx
	movl	%edx, %edx
	movzbl	(%rcx,%rdx), %edx
	movq	-24(%rbp), %rcx
	movl	60(%rcx), %ecx
	shll	$2, %ecx
	andl	$4, %ecx
                                        # kill: def $cl killed $ecx
	shrl	%cl, %edx
	andl	$15, %edx
	shll	$16, %edx
	orl	%edx, %eax
	movq	-24(%rbp), %rcx
	movl	%eax, 60(%rcx)
	movq	-24(%rbp), %rax
	movl	1092(%rax), %ecx
	addl	$1, %ecx
	movl	%ecx, 1092(%rax)
	jmp	.LBB48_63
.LBB48_75:                              # %return
	movb	-25(%rbp), %bl
	cmpl	$1716058048, -32(%rbp)  # imm = 0x6648F7C0
	jne	.LBB48_77
.LBB48_76:
	movzbl	%bl, %eax
	addq	$24, %rsp
	popq	%rbx
	popq	%rbp
	.cfi_def_cfa %rsp, 8
	retq
.LBB48_77:                              # %func_exit
	.cfi_def_cfa %rbp, 16
	callq	detect_breach
	jmp	.LBB48_76
.Lfunc_end48:
	.size	unRLE_obuf_to_output_SMALL.8, .Lfunc_end48-unRLE_obuf_to_output_SMALL.8
	.cfi_endproc
                                        # -- End function
	.p2align	4, 0x90         # -- Begin function copy_input_until_stop.9
	.type	copy_input_until_stop.9,@function
copy_input_until_stop.9:                # @copy_input_until_stop.9
	.cfi_startproc
# %bb.0:                                # %entry
	pushq	%rbp
	.cfi_def_cfa_offset 16
	.cfi_offset %rbp, -16
	movq	%rsp, %rbp
	.cfi_def_cfa_register %rbp
	pushq	%rbx
	subq	$24, %rsp
	.cfi_offset %rbx, -24
	movl	$1698734100, -32(%rbp)  # imm = 0x6540A014
	movq	%rdi, -16(%rbp)
	movb	$0, -17(%rbp)
	movq	-16(%rbp), %rax
	cmpl	$2, 8(%rax)
	jne	.LBB49_20
# %bb.1:                                # %if.then
	jmp	.LBB49_2
.LBB49_2:                               # %while.body
                                        # =>This Inner Loop Header: Depth=1
	movq	-16(%rbp), %rax
	movl	108(%rax), %eax
	movq	-16(%rbp), %rcx
	cmpl	112(%rcx), %eax
	jl	.LBB49_4
# %bb.3:                                # %if.then2
	jmp	.LBB49_19
.LBB49_4:                               # %if.end
                                        #   in Loop: Header=BB49_2 Depth=1
	movq	-16(%rbp), %rax
	movq	(%rax), %rax
	cmpl	$0, 8(%rax)
	jne	.LBB49_6
# %bb.5:                                # %if.then4
	jmp	.LBB49_19
.LBB49_6:                               # %if.end5
                                        #   in Loop: Header=BB49_2 Depth=1
	movb	$1, -17(%rbp)
	movq	-16(%rbp), %rax
	movq	(%rax), %rax
	movq	(%rax), %rax
	movzbl	(%rax), %eax
	movl	%eax, -28(%rbp)
	movl	-28(%rbp), %eax
	movq	-16(%rbp), %rcx
	cmpl	92(%rcx), %eax
	je	.LBB49_9
# %bb.7:                                # %land.lhs.true
                                        #   in Loop: Header=BB49_2 Depth=1
	movq	-16(%rbp), %rax
	cmpl	$1, 96(%rax)
	jne	.LBB49_9
# %bb.8:                                # %if.then11
                                        #   in Loop: Header=BB49_2 Depth=1
	movq	-16(%rbp), %rax
	movl	92(%rax), %eax
	movb	%al, -18(%rbp)
	movq	-16(%rbp), %rax
	movl	648(%rax), %eax
	shll	$8, %eax
	movq	-16(%rbp), %rcx
	movl	648(%rcx), %ecx
	shrl	$24, %ecx
	movzbl	-18(%rbp), %edx
	xorl	%edx, %ecx
	movl	%ecx, %ecx
	xorl	BZ2_crc32Table(,%rcx,4), %eax
	movq	-16(%rbp), %rcx
	movl	%eax, 648(%rcx)
	movq	-16(%rbp), %rax
	movq	-16(%rbp), %rcx
	movl	92(%rcx), %ecx
	movb	$1, 128(%rax,%rcx)
	movb	-18(%rbp), %al
	movq	-16(%rbp), %rcx
	movq	64(%rcx), %rcx
	movq	-16(%rbp), %rdx
	movslq	108(%rdx), %rdx
	movb	%al, (%rcx,%rdx)
	movq	-16(%rbp), %rax
	movl	108(%rax), %ecx
	addl	$1, %ecx
	movl	%ecx, 108(%rax)
	movl	-28(%rbp), %eax
	movq	-16(%rbp), %rcx
	movl	%eax, 92(%rcx)
	jmp	.LBB49_16
.LBB49_9:                               # %if.else
                                        #   in Loop: Header=BB49_2 Depth=1
	movl	-28(%rbp), %eax
	movq	-16(%rbp), %rcx
	cmpl	92(%rcx), %eax
	jne	.LBB49_11
# %bb.10:                               # %lor.lhs.false
                                        #   in Loop: Header=BB49_2 Depth=1
	movq	-16(%rbp), %rax
	cmpl	$255, 96(%rax)
	jne	.LBB49_14
.LBB49_11:                              # %if.then32
                                        #   in Loop: Header=BB49_2 Depth=1
	movq	-16(%rbp), %rax
	cmpl	$256, 92(%rax)          # imm = 0x100
	jae	.LBB49_13
# %bb.12:                               # %if.then36
                                        #   in Loop: Header=BB49_2 Depth=1
	movq	-16(%rbp), %rdi
	callq	add_pair_to_block
.LBB49_13:                              # %if.end37
                                        #   in Loop: Header=BB49_2 Depth=1
	movl	-28(%rbp), %eax
	movq	-16(%rbp), %rcx
	movl	%eax, 92(%rcx)
	movq	-16(%rbp), %rax
	movl	$1, 96(%rax)
	jmp	.LBB49_15
.LBB49_14:                              # %if.else40
                                        #   in Loop: Header=BB49_2 Depth=1
	movq	-16(%rbp), %rax
	movl	96(%rax), %ecx
	addl	$1, %ecx
	movl	%ecx, 96(%rax)
.LBB49_15:                              # %if.end43
                                        #   in Loop: Header=BB49_2 Depth=1
	jmp	.LBB49_16
.LBB49_16:                              # %if.end44
                                        #   in Loop: Header=BB49_2 Depth=1
	movq	-16(%rbp), %rax
	movq	(%rax), %rax
	movq	(%rax), %rcx
	addq	$1, %rcx
	movq	%rcx, (%rax)
	movq	-16(%rbp), %rax
	movq	(%rax), %rax
	movl	8(%rax), %ecx
	addl	$-1, %ecx
	movl	%ecx, 8(%rax)
	movq	-16(%rbp), %rax
	movq	(%rax), %rax
	movl	12(%rax), %ecx
	addl	$1, %ecx
	movl	%ecx, 12(%rax)
	movq	-16(%rbp), %rax
	movq	(%rax), %rax
	cmpl	$0, 12(%rax)
	jne	.LBB49_18
# %bb.17:                               # %if.then55
                                        #   in Loop: Header=BB49_2 Depth=1
	movq	-16(%rbp), %rax
	movq	(%rax), %rax
	movl	16(%rax), %ecx
	addl	$1, %ecx
	movl	%ecx, 16(%rax)
.LBB49_18:                              # %if.end58
                                        #   in Loop: Header=BB49_2 Depth=1
	jmp	.LBB49_2
.LBB49_19:                              # %while.end
	jmp	.LBB49_41
.LBB49_20:                              # %if.else59
	jmp	.LBB49_21
.LBB49_21:                              # %while.body60
                                        # =>This Inner Loop Header: Depth=1
	movq	-16(%rbp), %rax
	movl	108(%rax), %eax
	movq	-16(%rbp), %rcx
	cmpl	112(%rcx), %eax
	jl	.LBB49_23
# %bb.22:                               # %if.then65
	jmp	.LBB49_40
.LBB49_23:                              # %if.end66
                                        #   in Loop: Header=BB49_21 Depth=1
	movq	-16(%rbp), %rax
	movq	(%rax), %rax
	cmpl	$0, 8(%rax)
	jne	.LBB49_25
# %bb.24:                               # %if.then71
	jmp	.LBB49_40
.LBB49_25:                              # %if.end72
                                        #   in Loop: Header=BB49_21 Depth=1
	movq	-16(%rbp), %rax
	cmpl	$0, 16(%rax)
	jne	.LBB49_27
# %bb.26:                               # %if.then75
	jmp	.LBB49_40
.LBB49_27:                              # %if.end76
                                        #   in Loop: Header=BB49_21 Depth=1
	movb	$1, -17(%rbp)
	movq	-16(%rbp), %rax
	movq	(%rax), %rax
	movq	(%rax), %rax
	movzbl	(%rax), %eax
	movl	%eax, -24(%rbp)
	movl	-24(%rbp), %eax
	movq	-16(%rbp), %rcx
	cmpl	92(%rcx), %eax
	je	.LBB49_30
# %bb.28:                               # %land.lhs.true84
                                        #   in Loop: Header=BB49_21 Depth=1
	movq	-16(%rbp), %rax
	cmpl	$1, 96(%rax)
	jne	.LBB49_30
# %bb.29:                               # %if.then88
                                        #   in Loop: Header=BB49_21 Depth=1
	movq	-16(%rbp), %rax
	movl	92(%rax), %eax
	movb	%al, -19(%rbp)
	movq	-16(%rbp), %rax
	movl	648(%rax), %eax
	shll	$8, %eax
	movq	-16(%rbp), %rcx
	movl	648(%rcx), %ecx
	shrl	$24, %ecx
	movzbl	-19(%rbp), %edx
	xorl	%edx, %ecx
	movl	%ecx, %ecx
	xorl	BZ2_crc32Table(,%rcx,4), %eax
	movq	-16(%rbp), %rcx
	movl	%eax, 648(%rcx)
	movq	-16(%rbp), %rax
	movq	-16(%rbp), %rcx
	movl	92(%rcx), %ecx
	movb	$1, 128(%rax,%rcx)
	movb	-19(%rbp), %al
	movq	-16(%rbp), %rcx
	movq	64(%rcx), %rcx
	movq	-16(%rbp), %rdx
	movslq	108(%rdx), %rdx
	movb	%al, (%rcx,%rdx)
	movq	-16(%rbp), %rax
	movl	108(%rax), %ecx
	addl	$1, %ecx
	movl	%ecx, 108(%rax)
	movl	-24(%rbp), %eax
	movq	-16(%rbp), %rcx
	movl	%eax, 92(%rcx)
	jmp	.LBB49_37
.LBB49_30:                              # %if.else113
                                        #   in Loop: Header=BB49_21 Depth=1
	movl	-24(%rbp), %eax
	movq	-16(%rbp), %rcx
	cmpl	92(%rcx), %eax
	jne	.LBB49_32
# %bb.31:                               # %lor.lhs.false117
                                        #   in Loop: Header=BB49_21 Depth=1
	movq	-16(%rbp), %rax
	cmpl	$255, 96(%rax)
	jne	.LBB49_35
.LBB49_32:                              # %if.then121
                                        #   in Loop: Header=BB49_21 Depth=1
	movq	-16(%rbp), %rax
	cmpl	$256, 92(%rax)          # imm = 0x100
	jae	.LBB49_34
# %bb.33:                               # %if.then125
                                        #   in Loop: Header=BB49_21 Depth=1
	movq	-16(%rbp), %rdi
	callq	add_pair_to_block
.LBB49_34:                              # %if.end126
                                        #   in Loop: Header=BB49_21 Depth=1
	movl	-24(%rbp), %eax
	movq	-16(%rbp), %rcx
	movl	%eax, 92(%rcx)
	movq	-16(%rbp), %rax
	movl	$1, 96(%rax)
	jmp	.LBB49_36
.LBB49_35:                              # %if.else129
                                        #   in Loop: Header=BB49_21 Depth=1
	movq	-16(%rbp), %rax
	movl	96(%rax), %ecx
	addl	$1, %ecx
	movl	%ecx, 96(%rax)
.LBB49_36:                              # %if.end132
                                        #   in Loop: Header=BB49_21 Depth=1
	jmp	.LBB49_37
.LBB49_37:                              # %if.end133
                                        #   in Loop: Header=BB49_21 Depth=1
	movq	-16(%rbp), %rax
	movq	(%rax), %rax
	movq	(%rax), %rcx
	addq	$1, %rcx
	movq	%rcx, (%rax)
	movq	-16(%rbp), %rax
	movq	(%rax), %rax
	movl	8(%rax), %ecx
	addl	$-1, %ecx
	movl	%ecx, 8(%rax)
	movq	-16(%rbp), %rax
	movq	(%rax), %rax
	movl	12(%rax), %ecx
	addl	$1, %ecx
	movl	%ecx, 12(%rax)
	movq	-16(%rbp), %rax
	movq	(%rax), %rax
	cmpl	$0, 12(%rax)
	jne	.LBB49_39
# %bb.38:                               # %if.then147
                                        #   in Loop: Header=BB49_21 Depth=1
	movq	-16(%rbp), %rax
	movq	(%rax), %rax
	movl	16(%rax), %ecx
	addl	$1, %ecx
	movl	%ecx, 16(%rax)
.LBB49_39:                              # %if.end151
                                        #   in Loop: Header=BB49_21 Depth=1
	movq	-16(%rbp), %rax
	movl	16(%rax), %ecx
	addl	$-1, %ecx
	movl	%ecx, 16(%rax)
	jmp	.LBB49_21
.LBB49_40:                              # %while.end154
	jmp	.LBB49_41
.LBB49_41:                              # %if.end155
	movb	-17(%rbp), %bl
	cmpl	$1698734100, -32(%rbp)  # imm = 0x6540A014
	jne	.LBB49_43
.LBB49_42:
	movzbl	%bl, %eax
	addq	$24, %rsp
	popq	%rbx
	popq	%rbp
	.cfi_def_cfa %rsp, 8
	retq
.LBB49_43:                              # %func_exit
	.cfi_def_cfa %rbp, 16
	callq	detect_breach
	jmp	.LBB49_42
.Lfunc_end49:
	.size	copy_input_until_stop.9, .Lfunc_end49-copy_input_until_stop.9
	.cfi_endproc
                                        # -- End function
	.p2align	4, 0x90         # -- Begin function default_bzalloc.10
	.type	default_bzalloc.10,@function
default_bzalloc.10:                     # @default_bzalloc.10
	.cfi_startproc
# %bb.0:                                # %entry
	pushq	%rbp
	.cfi_def_cfa_offset 16
	.cfi_offset %rbp, -16
	movq	%rsp, %rbp
	.cfi_def_cfa_register %rbp
	pushq	%rbx
	subq	$40, %rsp
	.cfi_offset %rbx, -24
	movl	$217398397, -16(%rbp)   # imm = 0xCF53C7D
	movq	%rdi, -40(%rbp)
	movl	%esi, -20(%rbp)
	movl	%edx, -12(%rbp)
	movl	-20(%rbp), %eax
	imull	-12(%rbp), %eax
	movslq	%eax, %rdi
	callq	malloc
	movq	%rax, -32(%rbp)
	movq	-32(%rbp), %rbx
	cmpl	$217398397, -16(%rbp)   # imm = 0xCF53C7D
	jne	.LBB50_2
.LBB50_1:
	movq	%rbx, %rax
	addq	$40, %rsp
	popq	%rbx
	popq	%rbp
	.cfi_def_cfa %rsp, 8
	retq
.LBB50_2:                               # %func_exit
	.cfi_def_cfa %rbp, 16
	callq	detect_breach
	jmp	.LBB50_1
.Lfunc_end50:
	.size	default_bzalloc.10, .Lfunc_end50-default_bzalloc.10
	.cfi_endproc
                                        # -- End function
	.globl	BZ2_indexIntoF.11       # -- Begin function BZ2_indexIntoF.11
	.p2align	4, 0x90
	.type	BZ2_indexIntoF.11,@function
BZ2_indexIntoF.11:                      # @BZ2_indexIntoF.11
	.cfi_startproc
# %bb.0:                                # %entry
	pushq	%rbp
	.cfi_def_cfa_offset 16
	.cfi_offset %rbp, -16
	movq	%rsp, %rbp
	.cfi_def_cfa_register %rbp
	pushq	%rbx
	subq	$40, %rsp
	.cfi_offset %rbx, -24
	movl	$1816947104, -24(%rbp)  # imm = 0x6C4C69A0
	movl	%edi, -28(%rbp)
	movq	%rsi, -40(%rbp)
	movl	$0, -12(%rbp)
	movl	$256, -16(%rbp)         # imm = 0x100
.LBB51_1:                               # %do.body
                                        # =>This Inner Loop Header: Depth=1
	movl	-12(%rbp), %eax
	addl	-16(%rbp), %eax
	sarl	$1, %eax
	movl	%eax, -20(%rbp)
	movl	-28(%rbp), %eax
	movq	-40(%rbp), %rcx
	movslq	-20(%rbp), %rdx
	cmpl	(%rcx,%rdx,4), %eax
	jl	.LBB51_3
# %bb.2:                                # %if.then
                                        #   in Loop: Header=BB51_1 Depth=1
	movl	-20(%rbp), %eax
	movl	%eax, -12(%rbp)
	jmp	.LBB51_4
.LBB51_3:                               # %if.else
                                        #   in Loop: Header=BB51_1 Depth=1
	movl	-20(%rbp), %eax
	movl	%eax, -16(%rbp)
.LBB51_4:                               # %if.end
                                        #   in Loop: Header=BB51_1 Depth=1
	jmp	.LBB51_5
.LBB51_5:                               # %do.cond
                                        #   in Loop: Header=BB51_1 Depth=1
	movl	-16(%rbp), %eax
	subl	-12(%rbp), %eax
	cmpl	$1, %eax
	jne	.LBB51_1
# %bb.6:                                # %do.end
	movl	-12(%rbp), %ebx
	cmpl	$1816947104, -24(%rbp)  # imm = 0x6C4C69A0
	jne	.LBB51_8
.LBB51_7:
	movl	%ebx, %eax
	addq	$40, %rsp
	popq	%rbx
	popq	%rbp
	.cfi_def_cfa %rsp, 8
	retq
.LBB51_8:                               # %func_exit
	.cfi_def_cfa %rbp, 16
	callq	detect_breach
	jmp	.LBB51_7
.Lfunc_end51:
	.size	BZ2_indexIntoF.11, .Lfunc_end51-BZ2_indexIntoF.11
	.cfi_endproc
                                        # -- End function
	.p2align	4, 0x90         # -- Begin function handle_compress.12
	.type	handle_compress.12,@function
handle_compress.12:                     # @handle_compress.12
	.cfi_startproc
# %bb.0:                                # %entry
	pushq	%rbp
	.cfi_def_cfa_offset 16
	.cfi_offset %rbp, -16
	movq	%rsp, %rbp
	.cfi_def_cfa_register %rbp
	pushq	%rbx
	subq	$40, %rsp
	.cfi_offset %rbx, -24
	movl	$780836343, -28(%rbp)   # imm = 0x2E8A9DF7
	movq	%rdi, -40(%rbp)
	movb	$0, -10(%rbp)
	movb	$0, -9(%rbp)
	movq	-40(%rbp), %rax
	movq	48(%rax), %rax
	movq	%rax, -24(%rbp)
.LBB52_1:                               # %while.body
                                        # =>This Inner Loop Header: Depth=1
	movq	-24(%rbp), %rax
	cmpl	$1, 12(%rax)
	jne	.LBB52_13
# %bb.2:                                # %if.then
                                        #   in Loop: Header=BB52_1 Depth=1
	movq	-24(%rbp), %rdi
	callq	copy_output_until_stop
	movzbl	%al, %eax
	movzbl	-9(%rbp), %ecx
	orl	%eax, %ecx
	movb	%cl, -9(%rbp)
	movq	-24(%rbp), %rax
	movl	120(%rax), %eax
	movq	-24(%rbp), %rcx
	cmpl	116(%rcx), %eax
	jge	.LBB52_4
# %bb.3:                                # %if.then6
	jmp	.LBB52_25
.LBB52_4:                               # %if.end
                                        #   in Loop: Header=BB52_1 Depth=1
	movq	-24(%rbp), %rax
	cmpl	$4, 8(%rax)
	jne	.LBB52_8
# %bb.5:                                # %land.lhs.true
                                        #   in Loop: Header=BB52_1 Depth=1
	movq	-24(%rbp), %rax
	cmpl	$0, 16(%rax)
	jne	.LBB52_8
# %bb.6:                                # %land.lhs.true11
                                        #   in Loop: Header=BB52_1 Depth=1
	movq	-24(%rbp), %rdi
	callq	isempty_RL
	movzbl	%al, %eax
	cmpl	$0, %eax
	je	.LBB52_8
# %bb.7:                                # %if.then14
	jmp	.LBB52_25
.LBB52_8:                               # %if.end15
                                        #   in Loop: Header=BB52_1 Depth=1
	movq	-24(%rbp), %rdi
	callq	prepare_new_block
	movq	-24(%rbp), %rax
	movl	$2, 12(%rax)
	movq	-24(%rbp), %rax
	cmpl	$3, 8(%rax)
	jne	.LBB52_12
# %bb.9:                                # %land.lhs.true20
                                        #   in Loop: Header=BB52_1 Depth=1
	movq	-24(%rbp), %rax
	cmpl	$0, 16(%rax)
	jne	.LBB52_12
# %bb.10:                               # %land.lhs.true24
                                        #   in Loop: Header=BB52_1 Depth=1
	movq	-24(%rbp), %rdi
	callq	isempty_RL
	movzbl	%al, %eax
	cmpl	$0, %eax
	je	.LBB52_12
# %bb.11:                               # %if.then28
	jmp	.LBB52_25
.LBB52_12:                              # %if.end29
                                        #   in Loop: Header=BB52_1 Depth=1
	jmp	.LBB52_13
.LBB52_13:                              # %if.end30
                                        #   in Loop: Header=BB52_1 Depth=1
	movq	-24(%rbp), %rax
	cmpl	$2, 12(%rax)
	jne	.LBB52_24
# %bb.14:                               # %if.then34
                                        #   in Loop: Header=BB52_1 Depth=1
	movq	-24(%rbp), %rdi
	callq	copy_input_until_stop
	movzbl	%al, %eax
	movzbl	-10(%rbp), %ecx
	orl	%eax, %ecx
	movb	%cl, -10(%rbp)
	movq	-24(%rbp), %rax
	cmpl	$2, 8(%rax)
	je	.LBB52_17
# %bb.15:                               # %land.lhs.true43
                                        #   in Loop: Header=BB52_1 Depth=1
	movq	-24(%rbp), %rax
	cmpl	$0, 16(%rax)
	jne	.LBB52_17
# %bb.16:                               # %if.then47
                                        #   in Loop: Header=BB52_1 Depth=1
	movq	-24(%rbp), %rdi
	callq	flush_RL
	movq	-24(%rbp), %rdi
	movq	-24(%rbp), %rax
	cmpl	$4, 8(%rax)
	sete	%al
	andb	$1, %al
	movzbl	%al, %eax
	movzbl	%al, %esi
	callq	BZ2_compressBlock
	movq	-24(%rbp), %rax
	movl	$1, 12(%rax)
	jmp	.LBB52_23
.LBB52_17:                              # %if.else
                                        #   in Loop: Header=BB52_1 Depth=1
	movq	-24(%rbp), %rax
	movl	108(%rax), %eax
	movq	-24(%rbp), %rcx
	cmpl	112(%rcx), %eax
	jl	.LBB52_19
# %bb.18:                               # %if.then55
                                        #   in Loop: Header=BB52_1 Depth=1
	movq	-24(%rbp), %rdi
	xorl	%esi, %esi
	callq	BZ2_compressBlock
	movq	-24(%rbp), %rax
	movl	$1, 12(%rax)
	jmp	.LBB52_22
.LBB52_19:                              # %if.else57
                                        #   in Loop: Header=BB52_1 Depth=1
	movq	-24(%rbp), %rax
	movq	(%rax), %rax
	cmpl	$0, 8(%rax)
	jne	.LBB52_21
# %bb.20:                               # %if.then61
	jmp	.LBB52_25
.LBB52_21:                              # %if.end62
                                        #   in Loop: Header=BB52_1 Depth=1
	jmp	.LBB52_22
.LBB52_22:                              # %if.end63
                                        #   in Loop: Header=BB52_1 Depth=1
	jmp	.LBB52_23
.LBB52_23:                              # %if.end64
                                        #   in Loop: Header=BB52_1 Depth=1
	jmp	.LBB52_24
.LBB52_24:                              # %if.end65
                                        #   in Loop: Header=BB52_1 Depth=1
	jmp	.LBB52_1
.LBB52_25:                              # %while.end
	movzbl	-10(%rbp), %eax
	cmpl	$0, %eax
	movb	$1, %al
	jne	.LBB52_27
# %bb.26:                               # %lor.rhs
	movzbl	-9(%rbp), %eax
	cmpl	$0, %eax
	setne	%al
.LBB52_27:                              # %lor.end
	andb	$1, %al
	movzbl	%al, %ebx
	cmpl	$780836343, -28(%rbp)   # imm = 0x2E8A9DF7
	jne	.LBB52_29
.LBB52_28:
	movzbl	%bl, %eax
	addq	$40, %rsp
	popq	%rbx
	popq	%rbp
	.cfi_def_cfa %rsp, 8
	retq
.LBB52_29:                              # %func_exit
	.cfi_def_cfa %rbp, 16
	callq	detect_breach
	jmp	.LBB52_28
.Lfunc_end52:
	.size	handle_compress.12, .Lfunc_end52-handle_compress.12
	.cfi_endproc
                                        # -- End function
	.globl	BZ2_bzBuffToBuffDecompress.13 # -- Begin function BZ2_bzBuffToBuffDecompress.13
	.p2align	4, 0x90
	.type	BZ2_bzBuffToBuffDecompress.13,@function
BZ2_bzBuffToBuffDecompress.13:          # @BZ2_bzBuffToBuffDecompress.13
	.cfi_startproc
# %bb.0:                                # %entry
	pushq	%rbp
	.cfi_def_cfa_offset 16
	.cfi_offset %rbp, -16
	movq	%rsp, %rbp
	.cfi_def_cfa_register %rbp
	pushq	%rbx
	subq	$136, %rsp
	.cfi_offset %rbx, -24
	movl	$1346170984, -40(%rbp)  # imm = 0x503CF068
	movq	%rdi, -48(%rbp)
	movq	%rsi, -32(%rbp)
	movq	%rdx, -56(%rbp)
	movl	%ecx, -36(%rbp)
	movl	%r8d, -24(%rbp)
	movl	%r9d, -20(%rbp)
	cmpq	$0, -48(%rbp)
	je	.LBB53_7
# %bb.1:                                # %lor.lhs.false
	cmpq	$0, -32(%rbp)
	je	.LBB53_7
# %bb.2:                                # %lor.lhs.false2
	cmpq	$0, -56(%rbp)
	je	.LBB53_7
# %bb.3:                                # %lor.lhs.false4
	cmpl	$0, -24(%rbp)
	je	.LBB53_5
# %bb.4:                                # %land.lhs.true
	cmpl	$1, -24(%rbp)
	jne	.LBB53_7
.LBB53_5:                               # %lor.lhs.false7
	cmpl	$0, -20(%rbp)
	jl	.LBB53_7
# %bb.6:                                # %lor.lhs.false9
	cmpl	$4, -20(%rbp)
	jle	.LBB53_8
.LBB53_7:                               # %if.then
	movl	$-2, -12(%rbp)
	jmp	.LBB53_19
.LBB53_8:                               # %if.end
	movq	$0, -80(%rbp)
	movq	$0, -72(%rbp)
	movq	$0, -64(%rbp)
	movl	-20(%rbp), %esi
	movl	-24(%rbp), %edx
	leaq	-136(%rbp), %rdi
	callq	BZ2_bzDecompressInit
	movl	%eax, -16(%rbp)
	cmpl	$0, -16(%rbp)
	je	.LBB53_10
# %bb.9:                                # %if.then12
	movl	-16(%rbp), %eax
	movl	%eax, -12(%rbp)
	jmp	.LBB53_19
.LBB53_10:                              # %if.end13
	movq	-56(%rbp), %rax
	movq	%rax, -136(%rbp)
	movq	-48(%rbp), %rax
	movq	%rax, -112(%rbp)
	movl	-36(%rbp), %eax
	movl	%eax, -128(%rbp)
	movq	-32(%rbp), %rax
	movl	(%rax), %eax
	movl	%eax, -104(%rbp)
	leaq	-136(%rbp), %rdi
	callq	BZ2_bzDecompress
	movl	%eax, -16(%rbp)
	cmpl	$0, -16(%rbp)
	jne	.LBB53_12
# %bb.11:                               # %if.then16
	jmp	.LBB53_15
.LBB53_12:                              # %if.end17
	cmpl	$4, -16(%rbp)
	je	.LBB53_14
# %bb.13:                               # %if.then19
	jmp	.LBB53_18
.LBB53_14:                              # %if.end20
	movl	-104(%rbp), %eax
	movq	-32(%rbp), %rcx
	movl	(%rcx), %edx
	subl	%eax, %edx
	movl	%edx, (%rcx)
	leaq	-136(%rbp), %rdi
	callq	BZ2_bzDecompressEnd
	movl	$0, -12(%rbp)
	jmp	.LBB53_19
.LBB53_15:                              # %output_overflow_or_eof
	cmpl	$0, -104(%rbp)
	jbe	.LBB53_17
# %bb.16:                               # %if.then25
	leaq	-136(%rbp), %rdi
	callq	BZ2_bzDecompressEnd
	movl	$-7, -12(%rbp)
	jmp	.LBB53_19
.LBB53_17:                              # %if.else
	leaq	-136(%rbp), %rdi
	callq	BZ2_bzDecompressEnd
	movl	$-8, -12(%rbp)
	jmp	.LBB53_19
.LBB53_18:                              # %errhandler
	leaq	-136(%rbp), %rdi
	callq	BZ2_bzDecompressEnd
	movl	-16(%rbp), %eax
	movl	%eax, -12(%rbp)
.LBB53_19:                              # %return
	movl	-12(%rbp), %ebx
	cmpl	$1346170984, -40(%rbp)  # imm = 0x503CF068
	jne	.LBB53_21
.LBB53_20:
	movl	%ebx, %eax
	addq	$136, %rsp
	popq	%rbx
	popq	%rbp
	.cfi_def_cfa %rsp, 8
	retq
.LBB53_21:                              # %func_exit
	.cfi_def_cfa %rbp, 16
	callq	detect_breach
	jmp	.LBB53_20
.Lfunc_end53:
	.size	BZ2_bzBuffToBuffDecompress.13, .Lfunc_end53-BZ2_bzBuffToBuffDecompress.13
	.cfi_endproc
                                        # -- End function
	.p2align	4, 0x90         # -- Begin function add_pair_to_block.14
	.type	add_pair_to_block.14,@function
add_pair_to_block.14:                   # @add_pair_to_block.14
	.cfi_startproc
# %bb.0:                                # %entry
	pushq	%rbp
	.cfi_def_cfa_offset 16
	.cfi_offset %rbp, -16
	movq	%rsp, %rbp
	.cfi_def_cfa_register %rbp
	subq	$32, %rsp
	movl	$70521985, -24(%rbp)    # imm = 0x4341481
	movq	%rdi, -16(%rbp)
	movq	-16(%rbp), %rax
	movl	92(%rax), %eax
	movb	%al, -1(%rbp)
	movl	$0, -20(%rbp)
.LBB54_1:                               # %for.cond
                                        # =>This Inner Loop Header: Depth=1
	movl	-20(%rbp), %eax
	movq	-16(%rbp), %rcx
	cmpl	96(%rcx), %eax
	jge	.LBB54_4
# %bb.2:                                # %for.body
                                        #   in Loop: Header=BB54_1 Depth=1
	movq	-16(%rbp), %rax
	movl	648(%rax), %eax
	shll	$8, %eax
	movq	-16(%rbp), %rcx
	movl	648(%rcx), %ecx
	shrl	$24, %ecx
	movzbl	-1(%rbp), %edx
	xorl	%edx, %ecx
	movl	%ecx, %ecx
	xorl	BZ2_crc32Table(,%rcx,4), %eax
	movq	-16(%rbp), %rcx
	movl	%eax, 648(%rcx)
# %bb.3:                                # %for.inc
                                        #   in Loop: Header=BB54_1 Depth=1
	movl	-20(%rbp), %eax
	addl	$1, %eax
	movl	%eax, -20(%rbp)
	jmp	.LBB54_1
.LBB54_4:                               # %for.end
	movq	-16(%rbp), %rax
	movl	92(%rax), %ecx
	movb	$1, 128(%rax,%rcx)
	movq	-16(%rbp), %rax
	movl	96(%rax), %eax
	movl	%eax, %ecx
	subl	$1, %ecx
	je	.LBB54_7
	jmp	.LBB54_5
.LBB54_5:                               # %for.end
	movl	%eax, %ecx
	subl	$2, %ecx
	je	.LBB54_8
	jmp	.LBB54_6
.LBB54_6:                               # %for.end
	subl	$3, %eax
	je	.LBB54_9
	jmp	.LBB54_10
.LBB54_7:                               # %sw.bb
	movb	-1(%rbp), %al
	movq	-16(%rbp), %rcx
	movq	64(%rcx), %rcx
	movq	-16(%rbp), %rdx
	movslq	108(%rdx), %rdx
	movb	%al, (%rcx,%rdx)
	movq	-16(%rbp), %rax
	movl	108(%rax), %ecx
	addl	$1, %ecx
	movl	%ecx, 108(%rax)
	jmp	.LBB54_11
.LBB54_8:                               # %sw.bb14
	movb	-1(%rbp), %al
	movq	-16(%rbp), %rcx
	movq	64(%rcx), %rcx
	movq	-16(%rbp), %rdx
	movslq	108(%rdx), %rdx
	movb	%al, (%rcx,%rdx)
	movq	-16(%rbp), %rax
	movl	108(%rax), %ecx
	addl	$1, %ecx
	movl	%ecx, 108(%rax)
	movb	-1(%rbp), %al
	movq	-16(%rbp), %rcx
	movq	64(%rcx), %rcx
	movq	-16(%rbp), %rdx
	movslq	108(%rdx), %rdx
	movb	%al, (%rcx,%rdx)
	movq	-16(%rbp), %rax
	movl	108(%rax), %ecx
	addl	$1, %ecx
	movl	%ecx, 108(%rax)
	jmp	.LBB54_11
.LBB54_9:                               # %sw.bb27
	movb	-1(%rbp), %al
	movq	-16(%rbp), %rcx
	movq	64(%rcx), %rcx
	movq	-16(%rbp), %rdx
	movslq	108(%rdx), %rdx
	movb	%al, (%rcx,%rdx)
	movq	-16(%rbp), %rax
	movl	108(%rax), %ecx
	addl	$1, %ecx
	movl	%ecx, 108(%rax)
	movb	-1(%rbp), %al
	movq	-16(%rbp), %rcx
	movq	64(%rcx), %rcx
	movq	-16(%rbp), %rdx
	movslq	108(%rdx), %rdx
	movb	%al, (%rcx,%rdx)
	movq	-16(%rbp), %rax
	movl	108(%rax), %ecx
	addl	$1, %ecx
	movl	%ecx, 108(%rax)
	movb	-1(%rbp), %al
	movq	-16(%rbp), %rcx
	movq	64(%rcx), %rcx
	movq	-16(%rbp), %rdx
	movslq	108(%rdx), %rdx
	movb	%al, (%rcx,%rdx)
	movq	-16(%rbp), %rax
	movl	108(%rax), %ecx
	addl	$1, %ecx
	movl	%ecx, 108(%rax)
	jmp	.LBB54_11
.LBB54_10:                              # %sw.default
	movq	-16(%rbp), %rax
	movq	-16(%rbp), %rcx
	movl	96(%rcx), %ecx
	subl	$4, %ecx
	movslq	%ecx, %rcx
	movb	$1, 128(%rax,%rcx)
	movb	-1(%rbp), %al
	movq	-16(%rbp), %rcx
	movq	64(%rcx), %rcx
	movq	-16(%rbp), %rdx
	movslq	108(%rdx), %rdx
	movb	%al, (%rcx,%rdx)
	movq	-16(%rbp), %rax
	movl	108(%rax), %ecx
	addl	$1, %ecx
	movl	%ecx, 108(%rax)
	movb	-1(%rbp), %al
	movq	-16(%rbp), %rcx
	movq	64(%rcx), %rcx
	movq	-16(%rbp), %rdx
	movslq	108(%rdx), %rdx
	movb	%al, (%rcx,%rdx)
	movq	-16(%rbp), %rax
	movl	108(%rax), %ecx
	addl	$1, %ecx
	movl	%ecx, 108(%rax)
	movb	-1(%rbp), %al
	movq	-16(%rbp), %rcx
	movq	64(%rcx), %rcx
	movq	-16(%rbp), %rdx
	movslq	108(%rdx), %rdx
	movb	%al, (%rcx,%rdx)
	movq	-16(%rbp), %rax
	movl	108(%rax), %ecx
	addl	$1, %ecx
	movl	%ecx, 108(%rax)
	movb	-1(%rbp), %al
	movq	-16(%rbp), %rcx
	movq	64(%rcx), %rcx
	movq	-16(%rbp), %rdx
	movslq	108(%rdx), %rdx
	movb	%al, (%rcx,%rdx)
	movq	-16(%rbp), %rax
	movl	108(%rax), %ecx
	addl	$1, %ecx
	movl	%ecx, 108(%rax)
	movq	-16(%rbp), %rax
	movl	96(%rax), %eax
	subl	$4, %eax
	movq	-16(%rbp), %rcx
	movq	64(%rcx), %rcx
	movq	-16(%rbp), %rdx
	movslq	108(%rdx), %rdx
	movb	%al, (%rcx,%rdx)
	movq	-16(%rbp), %rax
	movl	108(%rax), %ecx
	addl	$1, %ecx
	movl	%ecx, 108(%rax)
.LBB54_11:                              # %sw.epilog
	cmpl	$70521985, -24(%rbp)    # imm = 0x4341481
	jne	.LBB54_13
.LBB54_12:
	addq	$32, %rsp
	popq	%rbp
	.cfi_def_cfa %rsp, 8
	retq
.LBB54_13:                              # %func_exit
	.cfi_def_cfa %rbp, 16
	callq	detect_breach
	jmp	.LBB54_12
.Lfunc_end54:
	.size	add_pair_to_block.14, .Lfunc_end54-add_pair_to_block.14
	.cfi_endproc
                                        # -- End function
	.globl	BZ2_bzDecompressInit.15 # -- Begin function BZ2_bzDecompressInit.15
	.p2align	4, 0x90
	.type	BZ2_bzDecompressInit.15,@function
BZ2_bzDecompressInit.15:                # @BZ2_bzDecompressInit.15
	.cfi_startproc
# %bb.0:                                # %entry
	pushq	%rbp
	.cfi_def_cfa_offset 16
	.cfi_offset %rbp, -16
	movq	%rsp, %rbp
	.cfi_def_cfa_register %rbp
	pushq	%rbx
	subq	$40, %rsp
	.cfi_offset %rbx, -24
	movl	$1020374571, -40(%rbp)  # imm = 0x3CD1AE2B
	movq	%rdi, -16(%rbp)
	movl	%esi, -32(%rbp)
	movl	%edx, -36(%rbp)
	callq	bz_config_ok
	cmpl	$0, %eax
	jne	.LBB55_2
# %bb.1:                                # %if.then
	movl	$-9, -28(%rbp)
	jmp	.LBB55_17
.LBB55_2:                               # %if.end
	cmpq	$0, -16(%rbp)
	jne	.LBB55_4
# %bb.3:                                # %if.then1
	movl	$-2, -28(%rbp)
	jmp	.LBB55_17
.LBB55_4:                               # %if.end2
	cmpl	$0, -36(%rbp)
	je	.LBB55_7
# %bb.5:                                # %land.lhs.true
	cmpl	$1, -36(%rbp)
	je	.LBB55_7
# %bb.6:                                # %if.then5
	movl	$-2, -28(%rbp)
	jmp	.LBB55_17
.LBB55_7:                               # %if.end6
	cmpl	$0, -32(%rbp)
	jl	.LBB55_9
# %bb.8:                                # %lor.lhs.false
	cmpl	$4, -32(%rbp)
	jle	.LBB55_10
.LBB55_9:                               # %if.then9
	movl	$-2, -28(%rbp)
	jmp	.LBB55_17
.LBB55_10:                              # %if.end10
	movq	-16(%rbp), %rax
	cmpq	$0, 56(%rax)
	jne	.LBB55_12
# %bb.11:                               # %if.then12
	movq	-16(%rbp), %rax
	movabsq	$default_bzalloc, %rcx
	movq	%rcx, 56(%rax)
.LBB55_12:                              # %if.end14
	movq	-16(%rbp), %rax
	cmpq	$0, 64(%rax)
	jne	.LBB55_14
# %bb.13:                               # %if.then16
	movq	-16(%rbp), %rax
	movabsq	$default_bzfree, %rcx
	movq	%rcx, 64(%rax)
.LBB55_14:                              # %if.end18
	movq	-16(%rbp), %rax
	movq	56(%rax), %rax
	movq	-16(%rbp), %rcx
	movq	72(%rcx), %rdi
	movl	$64144, %esi            # imm = 0xFA90
	movl	$1, %edx
	callq	*%rax
	movq	%rax, -24(%rbp)
	cmpq	$0, -24(%rbp)
	jne	.LBB55_16
# %bb.15:                               # %if.then22
	movl	$-3, -28(%rbp)
	jmp	.LBB55_17
.LBB55_16:                              # %if.end23
	movq	-16(%rbp), %rax
	movq	-24(%rbp), %rcx
	movq	%rax, (%rcx)
	movq	-24(%rbp), %rax
	movq	-16(%rbp), %rcx
	movq	%rax, 48(%rcx)
	movq	-24(%rbp), %rax
	movl	$10, 8(%rax)
	movq	-24(%rbp), %rax
	movl	$0, 36(%rax)
	movq	-24(%rbp), %rax
	movl	$0, 32(%rax)
	movq	-24(%rbp), %rax
	movl	$0, 3188(%rax)
	movq	-16(%rbp), %rax
	movl	$0, 12(%rax)
	movq	-16(%rbp), %rax
	movl	$0, 16(%rax)
	movq	-16(%rbp), %rax
	movl	$0, 36(%rax)
	movq	-16(%rbp), %rax
	movl	$0, 40(%rax)
	movl	-36(%rbp), %eax
	movq	-24(%rbp), %rcx
	movb	%al, 44(%rcx)
	movq	-24(%rbp), %rax
	movq	$0, 3168(%rax)
	movq	-24(%rbp), %rax
	movq	$0, 3160(%rax)
	movq	-24(%rbp), %rax
	movq	$0, 3152(%rax)
	movq	-24(%rbp), %rax
	movl	$0, 48(%rax)
	movl	-32(%rbp), %eax
	movq	-24(%rbp), %rcx
	movl	%eax, 52(%rcx)
	movl	$0, -28(%rbp)
.LBB55_17:                              # %return
	movl	-28(%rbp), %ebx
	cmpl	$1020374571, -40(%rbp)  # imm = 0x3CD1AE2B
	jne	.LBB55_19
.LBB55_18:
	movl	%ebx, %eax
	addq	$40, %rsp
	popq	%rbx
	popq	%rbp
	.cfi_def_cfa %rsp, 8
	retq
.LBB55_19:                              # %func_exit
	.cfi_def_cfa %rbp, 16
	callq	detect_breach
	jmp	.LBB55_18
.Lfunc_end55:
	.size	BZ2_bzDecompressInit.15, .Lfunc_end55-BZ2_bzDecompressInit.15
	.cfi_endproc
                                        # -- End function
	.p2align	4, 0x90         # -- Begin function default_bzalloc.16
	.type	default_bzalloc.16,@function
default_bzalloc.16:                     # @default_bzalloc.16
	.cfi_startproc
# %bb.0:                                # %entry
	pushq	%rbp
	.cfi_def_cfa_offset 16
	.cfi_offset %rbp, -16
	movq	%rsp, %rbp
	.cfi_def_cfa_register %rbp
	pushq	%rbx
	subq	$40, %rsp
	.cfi_offset %rbx, -24
	movl	$1380641264, -16(%rbp)  # imm = 0x524AE9F0
	movq	%rdi, -40(%rbp)
	movl	%esi, -20(%rbp)
	movl	%edx, -12(%rbp)
	movl	-20(%rbp), %eax
	imull	-12(%rbp), %eax
	movslq	%eax, %rdi
	callq	malloc
	movq	%rax, -32(%rbp)
	movq	-32(%rbp), %rbx
	cmpl	$1380641264, -16(%rbp)  # imm = 0x524AE9F0
	jne	.LBB56_2
.LBB56_1:
	movq	%rbx, %rax
	addq	$40, %rsp
	popq	%rbx
	popq	%rbp
	.cfi_def_cfa %rsp, 8
	retq
.LBB56_2:                               # %func_exit
	.cfi_def_cfa %rbp, 16
	callq	detect_breach
	jmp	.LBB56_1
.Lfunc_end56:
	.size	default_bzalloc.16, .Lfunc_end56-default_bzalloc.16
	.cfi_endproc
                                        # -- End function
	.globl	BZ2_bzWriteOpen.17      # -- Begin function BZ2_bzWriteOpen.17
	.p2align	4, 0x90
	.type	BZ2_bzWriteOpen.17,@function
BZ2_bzWriteOpen.17:                     # @BZ2_bzWriteOpen.17
	.cfi_startproc
# %bb.0:                                # %entry
	pushq	%rbp
	.cfi_def_cfa_offset 16
	.cfi_offset %rbp, -16
	movq	%rsp, %rbp
	.cfi_def_cfa_register %rbp
	pushq	%rbx
	subq	$56, %rsp
	.cfi_offset %rbx, -24
	movl	$1149517532, -60(%rbp)  # imm = 0x44843EDC
	movq	%rdi, -24(%rbp)
	movq	%rsi, -56(%rbp)
	movl	%edx, -32(%rbp)
	movl	%ecx, -40(%rbp)
	movl	%r8d, -28(%rbp)
	movq	$0, -16(%rbp)
	cmpq	$0, -24(%rbp)
	je	.LBB57_2
# %bb.1:                                # %if.then
	movq	-24(%rbp), %rax
	movl	$0, (%rax)
.LBB57_2:                               # %if.end
	cmpq	$0, -16(%rbp)
	je	.LBB57_4
# %bb.3:                                # %if.then2
	movq	-16(%rbp), %rax
	movl	$0, 5096(%rax)
.LBB57_4:                               # %if.end3
	cmpq	$0, -56(%rbp)
	je	.LBB57_11
# %bb.5:                                # %lor.lhs.false
	cmpl	$1, -32(%rbp)
	jl	.LBB57_11
# %bb.6:                                # %lor.lhs.false6
	cmpl	$9, -32(%rbp)
	jg	.LBB57_11
# %bb.7:                                # %lor.lhs.false8
	cmpl	$0, -28(%rbp)
	jl	.LBB57_11
# %bb.8:                                # %lor.lhs.false10
	cmpl	$250, -28(%rbp)
	jg	.LBB57_11
# %bb.9:                                # %lor.lhs.false12
	cmpl	$0, -40(%rbp)
	jl	.LBB57_11
# %bb.10:                               # %lor.lhs.false14
	cmpl	$4, -40(%rbp)
	jle	.LBB57_16
.LBB57_11:                              # %if.then16
	cmpq	$0, -24(%rbp)
	je	.LBB57_13
# %bb.12:                               # %if.then18
	movq	-24(%rbp), %rax
	movl	$-2, (%rax)
.LBB57_13:                              # %if.end19
	cmpq	$0, -16(%rbp)
	je	.LBB57_15
# %bb.14:                               # %if.then21
	movq	-16(%rbp), %rax
	movl	$-2, 5096(%rax)
.LBB57_15:                              # %if.end23
	movq	$0, -48(%rbp)
	jmp	.LBB57_41
.LBB57_16:                              # %if.end24
	movq	-56(%rbp), %rdi
	callq	ferror
	cmpl	$0, %eax
	je	.LBB57_22
# %bb.17:                               # %if.then25
	cmpq	$0, -24(%rbp)
	je	.LBB57_19
# %bb.18:                               # %if.then27
	movq	-24(%rbp), %rax
	movl	$-6, (%rax)
.LBB57_19:                              # %if.end28
	cmpq	$0, -16(%rbp)
	je	.LBB57_21
# %bb.20:                               # %if.then30
	movq	-16(%rbp), %rax
	movl	$-6, 5096(%rax)
.LBB57_21:                              # %if.end32
	movq	$0, -48(%rbp)
	jmp	.LBB57_41
.LBB57_22:                              # %if.end33
	movl	$5104, %edi             # imm = 0x13F0
	callq	malloc
	movq	%rax, -16(%rbp)
	cmpq	$0, -16(%rbp)
	jne	.LBB57_28
# %bb.23:                               # %if.then36
	cmpq	$0, -24(%rbp)
	je	.LBB57_25
# %bb.24:                               # %if.then38
	movq	-24(%rbp), %rax
	movl	$-3, (%rax)
.LBB57_25:                              # %if.end39
	cmpq	$0, -16(%rbp)
	je	.LBB57_27
# %bb.26:                               # %if.then41
	movq	-16(%rbp), %rax
	movl	$-3, 5096(%rax)
.LBB57_27:                              # %if.end43
	movq	$0, -48(%rbp)
	jmp	.LBB57_41
.LBB57_28:                              # %if.end44
	cmpq	$0, -24(%rbp)
	je	.LBB57_30
# %bb.29:                               # %if.then46
	movq	-24(%rbp), %rax
	movl	$0, (%rax)
.LBB57_30:                              # %if.end47
	cmpq	$0, -16(%rbp)
	je	.LBB57_32
# %bb.31:                               # %if.then49
	movq	-16(%rbp), %rax
	movl	$0, 5096(%rax)
.LBB57_32:                              # %if.end51
	movq	-16(%rbp), %rax
	movb	$0, 5100(%rax)
	movq	-16(%rbp), %rax
	movl	$0, 5008(%rax)
	movq	-56(%rbp), %rax
	movq	-16(%rbp), %rcx
	movq	%rax, (%rcx)
	movq	-16(%rbp), %rax
	movb	$1, 5012(%rax)
	movq	-16(%rbp), %rax
	movq	$0, 5072(%rax)
	movq	-16(%rbp), %rax
	movq	$0, 5080(%rax)
	movq	-16(%rbp), %rax
	movq	$0, 5088(%rax)
	cmpl	$0, -28(%rbp)
	jne	.LBB57_34
# %bb.33:                               # %if.then55
	movl	$30, -28(%rbp)
.LBB57_34:                              # %if.end56
	movq	-16(%rbp), %rdi
	addq	$5016, %rdi             # imm = 0x1398
	movl	-32(%rbp), %esi
	movl	-40(%rbp), %edx
	movl	-28(%rbp), %ecx
	callq	BZ2_bzCompressInit
	movl	%eax, -36(%rbp)
	cmpl	$0, -36(%rbp)
	je	.LBB57_40
# %bb.35:                               # %if.then60
	cmpq	$0, -24(%rbp)
	je	.LBB57_37
# %bb.36:                               # %if.then62
	movl	-36(%rbp), %eax
	movq	-24(%rbp), %rcx
	movl	%eax, (%rcx)
.LBB57_37:                              # %if.end63
	cmpq	$0, -16(%rbp)
	je	.LBB57_39
# %bb.38:                               # %if.then65
	movl	-36(%rbp), %eax
	movq	-16(%rbp), %rcx
	movl	%eax, 5096(%rcx)
.LBB57_39:                              # %if.end67
	movq	-16(%rbp), %rdi
	callq	free
	movq	$0, -48(%rbp)
	jmp	.LBB57_41
.LBB57_40:                              # %if.end68
	movq	-16(%rbp), %rax
	movl	$0, 5024(%rax)
	movq	-16(%rbp), %rax
	movb	$1, 5100(%rax)
	movq	-16(%rbp), %rax
	movq	%rax, -48(%rbp)
.LBB57_41:                              # %return
	movq	-48(%rbp), %rbx
	cmpl	$1149517532, -60(%rbp)  # imm = 0x44843EDC
	jne	.LBB57_43
.LBB57_42:
	movq	%rbx, %rax
	addq	$56, %rsp
	popq	%rbx
	popq	%rbp
	.cfi_def_cfa %rsp, 8
	retq
.LBB57_43:                              # %func_exit
	.cfi_def_cfa %rbp, 16
	callq	detect_breach
	jmp	.LBB57_42
.Lfunc_end57:
	.size	BZ2_bzWriteOpen.17, .Lfunc_end57-BZ2_bzWriteOpen.17
	.cfi_endproc
                                        # -- End function
	.globl	BZ2_bzerror.18          # -- Begin function BZ2_bzerror.18
	.p2align	4, 0x90
	.type	BZ2_bzerror.18,@function
BZ2_bzerror.18:                         # @BZ2_bzerror.18
	.cfi_startproc
# %bb.0:                                # %entry
	pushq	%rbp
	.cfi_def_cfa_offset 16
	.cfi_offset %rbp, -16
	movq	%rsp, %rbp
	.cfi_def_cfa_register %rbp
	pushq	%rbx
	subq	$24, %rsp
	.cfi_offset %rbx, -24
	movl	$1756621533, -16(%rbp)  # imm = 0x68B3EADD
	movq	%rdi, -32(%rbp)
	movq	%rsi, -24(%rbp)
	movq	-32(%rbp), %rax
	movl	5096(%rax), %eax
	movl	%eax, -12(%rbp)
	cmpl	$0, -12(%rbp)
	jle	.LBB58_2
# %bb.1:                                # %if.then
	movl	$0, -12(%rbp)
.LBB58_2:                               # %if.end
	movl	-12(%rbp), %eax
	movq	-24(%rbp), %rcx
	movl	%eax, (%rcx)
	imull	$-1, -12(%rbp), %eax
	cltq
	movq	bzerrorstrings(,%rax,8), %rbx
	cmpl	$1756621533, -16(%rbp)  # imm = 0x68B3EADD
	jne	.LBB58_4
.LBB58_3:
	movq	%rbx, %rax
	addq	$24, %rsp
	popq	%rbx
	popq	%rbp
	.cfi_def_cfa %rsp, 8
	retq
.LBB58_4:                               # %func_exit
	.cfi_def_cfa %rbp, 16
	callq	detect_breach
	jmp	.LBB58_3
.Lfunc_end58:
	.size	BZ2_bzerror.18, .Lfunc_end58-BZ2_bzerror.18
	.cfi_endproc
                                        # -- End function
	.globl	BZ2_bzclose.19          # -- Begin function BZ2_bzclose.19
	.p2align	4, 0x90
	.type	BZ2_bzclose.19,@function
BZ2_bzclose.19:                         # @BZ2_bzclose.19
	.cfi_startproc
# %bb.0:                                # %entry
	pushq	%rbp
	.cfi_def_cfa_offset 16
	.cfi_offset %rbp, -16
	movq	%rsp, %rbp
	.cfi_def_cfa_register %rbp
	subq	$32, %rsp
	movl	$1196248137, -28(%rbp)  # imm = 0x474D4C49
	movq	%rdi, -8(%rbp)
	movq	-8(%rbp), %rax
	movq	(%rax), %rax
	movq	%rax, -24(%rbp)
	cmpq	$0, -8(%rbp)
	jne	.LBB59_2
# %bb.1:                                # %if.then
	jmp	.LBB59_10
.LBB59_2:                               # %if.end
	movq	-8(%rbp), %rax
	cmpb	$0, 5012(%rax)
	je	.LBB59_6
# %bb.3:                                # %if.then1
	movq	-8(%rbp), %rsi
	leaq	-12(%rbp), %rdi
	xorl	%edx, %edx
	xorl	%ecx, %ecx
	xorl	%r8d, %r8d
	callq	BZ2_bzWriteClose
	cmpl	$0, -12(%rbp)
	je	.LBB59_5
# %bb.4:                                # %if.then3
	movq	-8(%rbp), %rsi
	xorl	%edi, %edi
	movl	$1, %edx
	xorl	%ecx, %ecx
	xorl	%r8d, %r8d
	callq	BZ2_bzWriteClose
.LBB59_5:                               # %if.end4
	jmp	.LBB59_7
.LBB59_6:                               # %if.else
	movq	-8(%rbp), %rsi
	leaq	-12(%rbp), %rdi
	callq	BZ2_bzReadClose
.LBB59_7:                               # %if.end5
	movq	-24(%rbp), %rax
	cmpq	stdin, %rax
	je	.LBB59_10
# %bb.8:                                # %land.lhs.true
	movq	-24(%rbp), %rax
	cmpq	stdout, %rax
	je	.LBB59_10
# %bb.9:                                # %if.then8
	movq	-24(%rbp), %rdi
	callq	fclose
.LBB59_10:                              # %if.end9
	cmpl	$1196248137, -28(%rbp)  # imm = 0x474D4C49
	jne	.LBB59_12
.LBB59_11:
	addq	$32, %rsp
	popq	%rbp
	.cfi_def_cfa %rsp, 8
	retq
.LBB59_12:                              # %func_exit
	.cfi_def_cfa %rbp, 16
	callq	detect_breach
	jmp	.LBB59_11
.Lfunc_end59:
	.size	BZ2_bzclose.19, .Lfunc_end59-BZ2_bzclose.19
	.cfi_endproc
                                        # -- End function
	.p2align	4, 0x90         # -- Begin function handle_compress.20
	.type	handle_compress.20,@function
handle_compress.20:                     # @handle_compress.20
	.cfi_startproc
# %bb.0:                                # %entry
	pushq	%rbp
	.cfi_def_cfa_offset 16
	.cfi_offset %rbp, -16
	movq	%rsp, %rbp
	.cfi_def_cfa_register %rbp
	pushq	%rbx
	subq	$40, %rsp
	.cfi_offset %rbx, -24
	movl	$1284714878, -28(%rbp)  # imm = 0x4C93317E
	movq	%rdi, -40(%rbp)
	movb	$0, -10(%rbp)
	movb	$0, -9(%rbp)
	movq	-40(%rbp), %rax
	movq	48(%rax), %rax
	movq	%rax, -24(%rbp)
.LBB60_1:                               # %while.body
                                        # =>This Inner Loop Header: Depth=1
	movq	-24(%rbp), %rax
	cmpl	$1, 12(%rax)
	jne	.LBB60_13
# %bb.2:                                # %if.then
                                        #   in Loop: Header=BB60_1 Depth=1
	movq	-24(%rbp), %rdi
	callq	copy_output_until_stop
	movzbl	%al, %eax
	movzbl	-9(%rbp), %ecx
	orl	%eax, %ecx
	movb	%cl, -9(%rbp)
	movq	-24(%rbp), %rax
	movl	120(%rax), %eax
	movq	-24(%rbp), %rcx
	cmpl	116(%rcx), %eax
	jge	.LBB60_4
# %bb.3:                                # %if.then6
	jmp	.LBB60_25
.LBB60_4:                               # %if.end
                                        #   in Loop: Header=BB60_1 Depth=1
	movq	-24(%rbp), %rax
	cmpl	$4, 8(%rax)
	jne	.LBB60_8
# %bb.5:                                # %land.lhs.true
                                        #   in Loop: Header=BB60_1 Depth=1
	movq	-24(%rbp), %rax
	cmpl	$0, 16(%rax)
	jne	.LBB60_8
# %bb.6:                                # %land.lhs.true11
                                        #   in Loop: Header=BB60_1 Depth=1
	movq	-24(%rbp), %rdi
	callq	isempty_RL
	movzbl	%al, %eax
	cmpl	$0, %eax
	je	.LBB60_8
# %bb.7:                                # %if.then14
	jmp	.LBB60_25
.LBB60_8:                               # %if.end15
                                        #   in Loop: Header=BB60_1 Depth=1
	movq	-24(%rbp), %rdi
	callq	prepare_new_block
	movq	-24(%rbp), %rax
	movl	$2, 12(%rax)
	movq	-24(%rbp), %rax
	cmpl	$3, 8(%rax)
	jne	.LBB60_12
# %bb.9:                                # %land.lhs.true20
                                        #   in Loop: Header=BB60_1 Depth=1
	movq	-24(%rbp), %rax
	cmpl	$0, 16(%rax)
	jne	.LBB60_12
# %bb.10:                               # %land.lhs.true24
                                        #   in Loop: Header=BB60_1 Depth=1
	movq	-24(%rbp), %rdi
	callq	isempty_RL
	movzbl	%al, %eax
	cmpl	$0, %eax
	je	.LBB60_12
# %bb.11:                               # %if.then28
	jmp	.LBB60_25
.LBB60_12:                              # %if.end29
                                        #   in Loop: Header=BB60_1 Depth=1
	jmp	.LBB60_13
.LBB60_13:                              # %if.end30
                                        #   in Loop: Header=BB60_1 Depth=1
	movq	-24(%rbp), %rax
	cmpl	$2, 12(%rax)
	jne	.LBB60_24
# %bb.14:                               # %if.then34
                                        #   in Loop: Header=BB60_1 Depth=1
	movq	-24(%rbp), %rdi
	callq	copy_input_until_stop
	movzbl	%al, %eax
	movzbl	-10(%rbp), %ecx
	orl	%eax, %ecx
	movb	%cl, -10(%rbp)
	movq	-24(%rbp), %rax
	cmpl	$2, 8(%rax)
	je	.LBB60_17
# %bb.15:                               # %land.lhs.true43
                                        #   in Loop: Header=BB60_1 Depth=1
	movq	-24(%rbp), %rax
	cmpl	$0, 16(%rax)
	jne	.LBB60_17
# %bb.16:                               # %if.then47
                                        #   in Loop: Header=BB60_1 Depth=1
	movq	-24(%rbp), %rdi
	callq	flush_RL
	movq	-24(%rbp), %rdi
	movq	-24(%rbp), %rax
	cmpl	$4, 8(%rax)
	sete	%al
	andb	$1, %al
	movzbl	%al, %eax
	movzbl	%al, %esi
	callq	BZ2_compressBlock
	movq	-24(%rbp), %rax
	movl	$1, 12(%rax)
	jmp	.LBB60_23
.LBB60_17:                              # %if.else
                                        #   in Loop: Header=BB60_1 Depth=1
	movq	-24(%rbp), %rax
	movl	108(%rax), %eax
	movq	-24(%rbp), %rcx
	cmpl	112(%rcx), %eax
	jl	.LBB60_19
# %bb.18:                               # %if.then55
                                        #   in Loop: Header=BB60_1 Depth=1
	movq	-24(%rbp), %rdi
	xorl	%esi, %esi
	callq	BZ2_compressBlock
	movq	-24(%rbp), %rax
	movl	$1, 12(%rax)
	jmp	.LBB60_22
.LBB60_19:                              # %if.else57
                                        #   in Loop: Header=BB60_1 Depth=1
	movq	-24(%rbp), %rax
	movq	(%rax), %rax
	cmpl	$0, 8(%rax)
	jne	.LBB60_21
# %bb.20:                               # %if.then61
	jmp	.LBB60_25
.LBB60_21:                              # %if.end62
                                        #   in Loop: Header=BB60_1 Depth=1
	jmp	.LBB60_22
.LBB60_22:                              # %if.end63
                                        #   in Loop: Header=BB60_1 Depth=1
	jmp	.LBB60_23
.LBB60_23:                              # %if.end64
                                        #   in Loop: Header=BB60_1 Depth=1
	jmp	.LBB60_24
.LBB60_24:                              # %if.end65
                                        #   in Loop: Header=BB60_1 Depth=1
	jmp	.LBB60_1
.LBB60_25:                              # %while.end
	movzbl	-10(%rbp), %eax
	cmpl	$0, %eax
	movb	$1, %al
	jne	.LBB60_27
# %bb.26:                               # %lor.rhs
	movzbl	-9(%rbp), %eax
	cmpl	$0, %eax
	setne	%al
.LBB60_27:                              # %lor.end
	andb	$1, %al
	movzbl	%al, %ebx
	cmpl	$1284714878, -28(%rbp)  # imm = 0x4C93317E
	jne	.LBB60_29
.LBB60_28:
	movzbl	%bl, %eax
	addq	$40, %rsp
	popq	%rbx
	popq	%rbp
	.cfi_def_cfa %rsp, 8
	retq
.LBB60_29:                              # %func_exit
	.cfi_def_cfa %rbp, 16
	callq	detect_breach
	jmp	.LBB60_28
.Lfunc_end60:
	.size	handle_compress.20, .Lfunc_end60-handle_compress.20
	.cfi_endproc
                                        # -- End function
	.globl	BZ2_bzopen.21           # -- Begin function BZ2_bzopen.21
	.p2align	4, 0x90
	.type	BZ2_bzopen.21,@function
BZ2_bzopen.21:                          # @BZ2_bzopen.21
	.cfi_startproc
# %bb.0:                                # %entry
	pushq	%rbp
	.cfi_def_cfa_offset 16
	.cfi_offset %rbp, -16
	movq	%rsp, %rbp
	.cfi_def_cfa_register %rbp
	pushq	%rbx
	subq	$24, %rsp
	.cfi_offset %rbx, -24
	movl	$1249761964, -12(%rbp)  # imm = 0x4A7DDAAC
	movq	%rdi, -24(%rbp)
	movq	%rsi, -32(%rbp)
	movq	-24(%rbp), %rdi
	movq	-32(%rbp), %rdx
	movl	$4294967295, %esi       # imm = 0xFFFFFFFF
	xorl	%ecx, %ecx
	callq	bzopen_or_bzdopen
	movq	%rax, %rbx
	cmpl	$1249761964, -12(%rbp)  # imm = 0x4A7DDAAC
	jne	.LBB61_2
.LBB61_1:
	movq	%rbx, %rax
	addq	$24, %rsp
	popq	%rbx
	popq	%rbp
	.cfi_def_cfa %rsp, 8
	retq
.LBB61_2:                               # %func_exit
	.cfi_def_cfa %rbp, 16
	callq	detect_breach
	jmp	.LBB61_1
.Lfunc_end61:
	.size	BZ2_bzopen.21, .Lfunc_end61-BZ2_bzopen.21
	.cfi_endproc
                                        # -- End function
	.p2align	4, 0x90         # -- Begin function unRLE_obuf_to_output_FAST.22
	.type	unRLE_obuf_to_output_FAST.22,@function
unRLE_obuf_to_output_FAST.22:           # @unRLE_obuf_to_output_FAST.22
	.cfi_startproc
# %bb.0:                                # %entry
	pushq	%rbp
	.cfi_def_cfa_offset 16
	.cfi_offset %rbp, -16
	movq	%rsp, %rbp
	.cfi_def_cfa_register %rbp
	pushq	%rbx
	subq	$88, %rsp
	.cfi_offset %rbx, -24
	movl	$1780184622, -88(%rbp)  # imm = 0x6A1B762E
	movq	%rdi, -24(%rbp)
	movq	-24(%rbp), %rax
	cmpb	$0, 20(%rax)
	je	.LBB62_48
# %bb.1:                                # %if.then
	jmp	.LBB62_2
.LBB62_2:                               # %while.body
                                        # =>This Loop Header: Depth=1
                                        #     Child Loop BB62_3 Depth 2
	jmp	.LBB62_3
.LBB62_3:                               # %while.body2
                                        #   Parent Loop BB62_2 Depth=1
                                        # =>  This Inner Loop Header: Depth=2
	movq	-24(%rbp), %rax
	movq	(%rax), %rax
	cmpl	$0, 32(%rax)
	jne	.LBB62_5
# %bb.4:                                # %if.then3
	movb	$0, -33(%rbp)
	jmp	.LBB62_82
.LBB62_5:                               # %if.end
                                        #   in Loop: Header=BB62_3 Depth=2
	movq	-24(%rbp), %rax
	cmpl	$0, 16(%rax)
	jne	.LBB62_7
# %bb.6:                                # %if.then5
                                        #   in Loop: Header=BB62_2 Depth=1
	jmp	.LBB62_10
.LBB62_7:                               # %if.end6
                                        #   in Loop: Header=BB62_3 Depth=2
	movq	-24(%rbp), %rax
	movb	12(%rax), %al
	movq	-24(%rbp), %rcx
	movq	(%rcx), %rcx
	movq	24(%rcx), %rcx
	movb	%al, (%rcx)
	movq	-24(%rbp), %rax
	movl	3184(%rax), %eax
	shll	$8, %eax
	movq	-24(%rbp), %rcx
	movl	3184(%rcx), %ecx
	shrl	$24, %ecx
	movq	-24(%rbp), %rdx
	movzbl	12(%rdx), %edx
	xorl	%edx, %ecx
	movl	%ecx, %ecx
	xorl	BZ2_crc32Table(,%rcx,4), %eax
	movq	-24(%rbp), %rcx
	movl	%eax, 3184(%rcx)
	movq	-24(%rbp), %rax
	movl	16(%rax), %ecx
	addl	$-1, %ecx
	movl	%ecx, 16(%rax)
	movq	-24(%rbp), %rax
	movq	(%rax), %rax
	movq	24(%rax), %rcx
	addq	$1, %rcx
	movq	%rcx, 24(%rax)
	movq	-24(%rbp), %rax
	movq	(%rax), %rax
	movl	32(%rax), %ecx
	addl	$-1, %ecx
	movl	%ecx, 32(%rax)
	movq	-24(%rbp), %rax
	movq	(%rax), %rax
	movl	36(%rax), %ecx
	addl	$1, %ecx
	movl	%ecx, 36(%rax)
	movq	-24(%rbp), %rax
	movq	(%rax), %rax
	cmpl	$0, 36(%rax)
	jne	.LBB62_9
# %bb.8:                                # %if.then23
                                        #   in Loop: Header=BB62_3 Depth=2
	movq	-24(%rbp), %rax
	movq	(%rax), %rax
	movl	40(%rax), %ecx
	addl	$1, %ecx
	movl	%ecx, 40(%rax)
.LBB62_9:                               # %if.end26
                                        #   in Loop: Header=BB62_3 Depth=2
	jmp	.LBB62_3
.LBB62_10:                              # %while.end
                                        #   in Loop: Header=BB62_2 Depth=1
	movq	-24(%rbp), %rax
	movl	1092(%rax), %eax
	movq	-24(%rbp), %rcx
	movl	64080(%rcx), %ecx
	addl	$1, %ecx
	cmpl	%ecx, %eax
	jne	.LBB62_12
# %bb.11:                               # %if.then29
	movb	$0, -33(%rbp)
	jmp	.LBB62_82
.LBB62_12:                              # %if.end30
                                        #   in Loop: Header=BB62_2 Depth=1
	movq	-24(%rbp), %rax
	movl	1092(%rax), %eax
	movq	-24(%rbp), %rcx
	movl	64080(%rcx), %ecx
	addl	$1, %ecx
	cmpl	%ecx, %eax
	jle	.LBB62_14
# %bb.13:                               # %if.then36
	movb	$1, -33(%rbp)
	jmp	.LBB62_82
.LBB62_14:                              # %if.end37
                                        #   in Loop: Header=BB62_2 Depth=1
	movq	-24(%rbp), %rax
	movl	$1, 16(%rax)
	movq	-24(%rbp), %rax
	movl	64(%rax), %eax
	movq	-24(%rbp), %rcx
	movb	%al, 12(%rcx)
	movq	-24(%rbp), %rax
	movq	3152(%rax), %rax
	movq	-24(%rbp), %rcx
	movl	60(%rcx), %ecx
	movl	(%rax,%rcx,4), %eax
	movq	-24(%rbp), %rcx
	movl	%eax, 60(%rcx)
	movq	-24(%rbp), %rax
	movl	60(%rax), %eax
	andl	$255, %eax
	movb	%al, -9(%rbp)
	movq	-24(%rbp), %rax
	movl	60(%rax), %ecx
	shrl	$8, %ecx
	movl	%ecx, 60(%rax)
	movq	-24(%rbp), %rax
	cmpl	$0, 24(%rax)
	jne	.LBB62_18
# %bb.15:                               # %if.then50
                                        #   in Loop: Header=BB62_2 Depth=1
	movq	-24(%rbp), %rax
	movslq	28(%rax), %rax
	movl	BZ2_rNums(,%rax,4), %eax
	movq	-24(%rbp), %rcx
	movl	%eax, 24(%rcx)
	movq	-24(%rbp), %rax
	movl	28(%rax), %ecx
	addl	$1, %ecx
	movl	%ecx, 28(%rax)
	movq	-24(%rbp), %rax
	cmpl	$512, 28(%rax)          # imm = 0x200
	jne	.LBB62_17
# %bb.16:                               # %if.then59
                                        #   in Loop: Header=BB62_2 Depth=1
	movq	-24(%rbp), %rax
	movl	$0, 28(%rax)
.LBB62_17:                              # %if.end61
                                        #   in Loop: Header=BB62_2 Depth=1
	jmp	.LBB62_18
.LBB62_18:                              # %if.end62
                                        #   in Loop: Header=BB62_2 Depth=1
	xorl	%eax, %eax
	movq	-24(%rbp), %rcx
	movl	24(%rcx), %edx
	addl	$-1, %edx
	movl	%edx, 24(%rcx)
	movq	-24(%rbp), %rcx
	movl	24(%rcx), %ecx
	cmpl	$1, %ecx
	movl	$1, %ecx
	cmovel	%ecx, %eax
	movzbl	-9(%rbp), %ecx
	xorl	%eax, %ecx
	movb	%cl, -9(%rbp)
	movq	-24(%rbp), %rax
	movl	1092(%rax), %ecx
	addl	$1, %ecx
	movl	%ecx, 1092(%rax)
	movq	-24(%rbp), %rax
	movl	1092(%rax), %eax
	movq	-24(%rbp), %rcx
	movl	64080(%rcx), %ecx
	addl	$1, %ecx
	cmpl	%ecx, %eax
	jne	.LBB62_21
# %bb.19:                               # %if.then78
                                        #   in Loop: Header=BB62_2 Depth=1
	jmp	.LBB62_20
.LBB62_20:                              # %while.body.backedge
                                        #   in Loop: Header=BB62_2 Depth=1
	jmp	.LBB62_2
.LBB62_21:                              # %if.end79
                                        #   in Loop: Header=BB62_2 Depth=1
	movzbl	-9(%rbp), %eax
	movq	-24(%rbp), %rcx
	cmpl	64(%rcx), %eax
	je	.LBB62_23
# %bb.22:                               # %if.then84
                                        #   in Loop: Header=BB62_2 Depth=1
	movzbl	-9(%rbp), %eax
	movq	-24(%rbp), %rcx
	movl	%eax, 64(%rcx)
	jmp	.LBB62_20
.LBB62_23:                              # %if.end87
                                        #   in Loop: Header=BB62_2 Depth=1
	movq	-24(%rbp), %rax
	movl	$2, 16(%rax)
	movq	-24(%rbp), %rax
	movq	3152(%rax), %rax
	movq	-24(%rbp), %rcx
	movl	60(%rcx), %ecx
	movl	(%rax,%rcx,4), %eax
	movq	-24(%rbp), %rcx
	movl	%eax, 60(%rcx)
	movq	-24(%rbp), %rax
	movl	60(%rax), %eax
	andl	$255, %eax
	movb	%al, -9(%rbp)
	movq	-24(%rbp), %rax
	movl	60(%rax), %ecx
	shrl	$8, %ecx
	movl	%ecx, 60(%rax)
	movq	-24(%rbp), %rax
	cmpl	$0, 24(%rax)
	jne	.LBB62_27
# %bb.24:                               # %if.then102
                                        #   in Loop: Header=BB62_2 Depth=1
	movq	-24(%rbp), %rax
	movslq	28(%rax), %rax
	movl	BZ2_rNums(,%rax,4), %eax
	movq	-24(%rbp), %rcx
	movl	%eax, 24(%rcx)
	movq	-24(%rbp), %rax
	movl	28(%rax), %ecx
	addl	$1, %ecx
	movl	%ecx, 28(%rax)
	movq	-24(%rbp), %rax
	cmpl	$512, 28(%rax)          # imm = 0x200
	jne	.LBB62_26
# %bb.25:                               # %if.then112
                                        #   in Loop: Header=BB62_2 Depth=1
	movq	-24(%rbp), %rax
	movl	$0, 28(%rax)
.LBB62_26:                              # %if.end114
                                        #   in Loop: Header=BB62_2 Depth=1
	jmp	.LBB62_27
.LBB62_27:                              # %if.end115
                                        #   in Loop: Header=BB62_2 Depth=1
	xorl	%eax, %eax
	movq	-24(%rbp), %rcx
	movl	24(%rcx), %edx
	addl	$-1, %edx
	movl	%edx, 24(%rcx)
	movq	-24(%rbp), %rcx
	movl	24(%rcx), %ecx
	cmpl	$1, %ecx
	movl	$1, %ecx
	cmovel	%ecx, %eax
	movzbl	-9(%rbp), %ecx
	xorl	%eax, %ecx
	movb	%cl, -9(%rbp)
	movq	-24(%rbp), %rax
	movl	1092(%rax), %ecx
	addl	$1, %ecx
	movl	%ecx, 1092(%rax)
	movq	-24(%rbp), %rax
	movl	1092(%rax), %eax
	movq	-24(%rbp), %rcx
	movl	64080(%rcx), %ecx
	addl	$1, %ecx
	cmpl	%ecx, %eax
	jne	.LBB62_29
# %bb.28:                               # %if.then132
                                        #   in Loop: Header=BB62_2 Depth=1
	jmp	.LBB62_20
.LBB62_29:                              # %if.end133
                                        #   in Loop: Header=BB62_2 Depth=1
	movzbl	-9(%rbp), %eax
	movq	-24(%rbp), %rcx
	cmpl	64(%rcx), %eax
	je	.LBB62_31
# %bb.30:                               # %if.then138
                                        #   in Loop: Header=BB62_2 Depth=1
	movzbl	-9(%rbp), %eax
	movq	-24(%rbp), %rcx
	movl	%eax, 64(%rcx)
	jmp	.LBB62_20
.LBB62_31:                              # %if.end141
                                        #   in Loop: Header=BB62_2 Depth=1
	movq	-24(%rbp), %rax
	movl	$3, 16(%rax)
	movq	-24(%rbp), %rax
	movq	3152(%rax), %rax
	movq	-24(%rbp), %rcx
	movl	60(%rcx), %ecx
	movl	(%rax,%rcx,4), %eax
	movq	-24(%rbp), %rcx
	movl	%eax, 60(%rcx)
	movq	-24(%rbp), %rax
	movl	60(%rax), %eax
	andl	$255, %eax
	movb	%al, -9(%rbp)
	movq	-24(%rbp), %rax
	movl	60(%rax), %ecx
	shrl	$8, %ecx
	movl	%ecx, 60(%rax)
	movq	-24(%rbp), %rax
	cmpl	$0, 24(%rax)
	jne	.LBB62_35
# %bb.32:                               # %if.then156
                                        #   in Loop: Header=BB62_2 Depth=1
	movq	-24(%rbp), %rax
	movslq	28(%rax), %rax
	movl	BZ2_rNums(,%rax,4), %eax
	movq	-24(%rbp), %rcx
	movl	%eax, 24(%rcx)
	movq	-24(%rbp), %rax
	movl	28(%rax), %ecx
	addl	$1, %ecx
	movl	%ecx, 28(%rax)
	movq	-24(%rbp), %rax
	cmpl	$512, 28(%rax)          # imm = 0x200
	jne	.LBB62_34
# %bb.33:                               # %if.then166
                                        #   in Loop: Header=BB62_2 Depth=1
	movq	-24(%rbp), %rax
	movl	$0, 28(%rax)
.LBB62_34:                              # %if.end168
                                        #   in Loop: Header=BB62_2 Depth=1
	jmp	.LBB62_35
.LBB62_35:                              # %if.end169
                                        #   in Loop: Header=BB62_2 Depth=1
	xorl	%eax, %eax
	movq	-24(%rbp), %rcx
	movl	24(%rcx), %edx
	addl	$-1, %edx
	movl	%edx, 24(%rcx)
	movq	-24(%rbp), %rcx
	movl	24(%rcx), %ecx
	cmpl	$1, %ecx
	movl	$1, %ecx
	cmovel	%ecx, %eax
	movzbl	-9(%rbp), %ecx
	xorl	%eax, %ecx
	movb	%cl, -9(%rbp)
	movq	-24(%rbp), %rax
	movl	1092(%rax), %ecx
	addl	$1, %ecx
	movl	%ecx, 1092(%rax)
	movq	-24(%rbp), %rax
	movl	1092(%rax), %eax
	movq	-24(%rbp), %rcx
	movl	64080(%rcx), %ecx
	addl	$1, %ecx
	cmpl	%ecx, %eax
	jne	.LBB62_37
# %bb.36:                               # %if.then186
                                        #   in Loop: Header=BB62_2 Depth=1
	jmp	.LBB62_20
.LBB62_37:                              # %if.end187
                                        #   in Loop: Header=BB62_2 Depth=1
	movzbl	-9(%rbp), %eax
	movq	-24(%rbp), %rcx
	cmpl	64(%rcx), %eax
	je	.LBB62_39
# %bb.38:                               # %if.then192
                                        #   in Loop: Header=BB62_2 Depth=1
	movzbl	-9(%rbp), %eax
	movq	-24(%rbp), %rcx
	movl	%eax, 64(%rcx)
	jmp	.LBB62_20
.LBB62_39:                              # %if.end195
                                        #   in Loop: Header=BB62_2 Depth=1
	movq	-24(%rbp), %rax
	movq	3152(%rax), %rax
	movq	-24(%rbp), %rcx
	movl	60(%rcx), %ecx
	movl	(%rax,%rcx,4), %eax
	movq	-24(%rbp), %rcx
	movl	%eax, 60(%rcx)
	movq	-24(%rbp), %rax
	movl	60(%rax), %eax
	andl	$255, %eax
	movb	%al, -9(%rbp)
	movq	-24(%rbp), %rax
	movl	60(%rax), %ecx
	shrl	$8, %ecx
	movl	%ecx, 60(%rax)
	movq	-24(%rbp), %rax
	cmpl	$0, 24(%rax)
	jne	.LBB62_43
# %bb.40:                               # %if.then209
                                        #   in Loop: Header=BB62_2 Depth=1
	movq	-24(%rbp), %rax
	movslq	28(%rax), %rax
	movl	BZ2_rNums(,%rax,4), %eax
	movq	-24(%rbp), %rcx
	movl	%eax, 24(%rcx)
	movq	-24(%rbp), %rax
	movl	28(%rax), %ecx
	addl	$1, %ecx
	movl	%ecx, 28(%rax)
	movq	-24(%rbp), %rax
	cmpl	$512, 28(%rax)          # imm = 0x200
	jne	.LBB62_42
# %bb.41:                               # %if.then219
                                        #   in Loop: Header=BB62_2 Depth=1
	movq	-24(%rbp), %rax
	movl	$0, 28(%rax)
.LBB62_42:                              # %if.end221
                                        #   in Loop: Header=BB62_2 Depth=1
	jmp	.LBB62_43
.LBB62_43:                              # %if.end222
                                        #   in Loop: Header=BB62_2 Depth=1
	xorl	%eax, %eax
	movq	-24(%rbp), %rcx
	movl	24(%rcx), %edx
	addl	$-1, %edx
	movl	%edx, 24(%rcx)
	movq	-24(%rbp), %rcx
	movl	24(%rcx), %ecx
	cmpl	$1, %ecx
	movl	$1, %ecx
	cmovel	%ecx, %eax
	movzbl	-9(%rbp), %ecx
	xorl	%eax, %ecx
	movb	%cl, -9(%rbp)
	movq	-24(%rbp), %rax
	movl	1092(%rax), %ecx
	addl	$1, %ecx
	movl	%ecx, 1092(%rax)
	movzbl	-9(%rbp), %eax
	addl	$4, %eax
	movq	-24(%rbp), %rcx
	movl	%eax, 16(%rcx)
	movq	-24(%rbp), %rax
	movq	3152(%rax), %rax
	movq	-24(%rbp), %rcx
	movl	60(%rcx), %ecx
	movl	(%rax,%rcx,4), %eax
	movq	-24(%rbp), %rcx
	movl	%eax, 60(%rcx)
	movq	-24(%rbp), %rax
	movl	60(%rax), %eax
	andl	$255, %eax
	movzbl	%al, %eax
	movq	-24(%rbp), %rcx
	movl	%eax, 64(%rcx)
	movq	-24(%rbp), %rax
	movl	60(%rax), %ecx
	shrl	$8, %ecx
	movl	%ecx, 60(%rax)
	movq	-24(%rbp), %rax
	cmpl	$0, 24(%rax)
	jne	.LBB62_47
# %bb.44:                               # %if.then252
                                        #   in Loop: Header=BB62_2 Depth=1
	movq	-24(%rbp), %rax
	movslq	28(%rax), %rax
	movl	BZ2_rNums(,%rax,4), %eax
	movq	-24(%rbp), %rcx
	movl	%eax, 24(%rcx)
	movq	-24(%rbp), %rax
	movl	28(%rax), %ecx
	addl	$1, %ecx
	movl	%ecx, 28(%rax)
	movq	-24(%rbp), %rax
	cmpl	$512, 28(%rax)          # imm = 0x200
	jne	.LBB62_46
# %bb.45:                               # %if.then262
                                        #   in Loop: Header=BB62_2 Depth=1
	movq	-24(%rbp), %rax
	movl	$0, 28(%rax)
.LBB62_46:                              # %if.end264
                                        #   in Loop: Header=BB62_2 Depth=1
	jmp	.LBB62_47
.LBB62_47:                              # %if.end265
                                        #   in Loop: Header=BB62_2 Depth=1
	xorl	%eax, %eax
	movq	-24(%rbp), %rcx
	movl	24(%rcx), %edx
	addl	$-1, %edx
	movl	%edx, 24(%rcx)
	movq	-24(%rbp), %rcx
	movl	24(%rcx), %ecx
	cmpl	$1, %ecx
	movl	$1, %ecx
	cmovel	%ecx, %eax
	movq	-24(%rbp), %rcx
	xorl	64(%rcx), %eax
	movl	%eax, 64(%rcx)
	movq	-24(%rbp), %rax
	movl	1092(%rax), %ecx
	addl	$1, %ecx
	movl	%ecx, 1092(%rax)
	jmp	.LBB62_20
.LBB62_48:                              # %if.else
	movq	-24(%rbp), %rax
	movl	3184(%rax), %eax
	movl	%eax, -56(%rbp)
	movq	-24(%rbp), %rax
	movb	12(%rax), %al
	movb	%al, -25(%rbp)
	movq	-24(%rbp), %rax
	movl	16(%rax), %eax
	movl	%eax, -44(%rbp)
	movq	-24(%rbp), %rax
	movl	1092(%rax), %eax
	movl	%eax, -40(%rbp)
	movq	-24(%rbp), %rax
	movl	64(%rax), %eax
	movl	%eax, -52(%rbp)
	movq	-24(%rbp), %rax
	movq	3152(%rax), %rax
	movq	%rax, -80(%rbp)
	movq	-24(%rbp), %rax
	movl	60(%rax), %eax
	movl	%eax, -32(%rbp)
	movq	-24(%rbp), %rax
	movq	(%rax), %rax
	movq	24(%rax), %rax
	movq	%rax, -72(%rbp)
	movq	-24(%rbp), %rax
	movq	(%rax), %rax
	movl	32(%rax), %eax
	movl	%eax, -48(%rbp)
	movl	-48(%rbp), %eax
	movl	%eax, -84(%rbp)
	movq	-24(%rbp), %rax
	movl	64080(%rax), %eax
	addl	$1, %eax
	movl	%eax, -60(%rbp)
.LBB62_49:                              # %while.body289
                                        # =>This Loop Header: Depth=1
                                        #     Child Loop BB62_51 Depth 2
	cmpl	$0, -44(%rbp)
	jle	.LBB62_60
# %bb.50:                               # %if.then292
                                        #   in Loop: Header=BB62_49 Depth=1
	jmp	.LBB62_51
.LBB62_51:                              # %while.body294
                                        #   Parent Loop BB62_49 Depth=1
                                        # =>  This Inner Loop Header: Depth=2
	cmpl	$0, -48(%rbp)
	jne	.LBB62_53
# %bb.52:                               # %if.then297
	jmp	.LBB62_78
.LBB62_53:                              # %if.end298
                                        #   in Loop: Header=BB62_51 Depth=2
	cmpl	$1, -44(%rbp)
	jne	.LBB62_55
# %bb.54:                               # %if.then301
                                        #   in Loop: Header=BB62_49 Depth=1
	jmp	.LBB62_56
.LBB62_55:                              # %if.end302
                                        #   in Loop: Header=BB62_51 Depth=2
	movb	-25(%rbp), %al
	movq	-72(%rbp), %rcx
	movb	%al, (%rcx)
	movl	-56(%rbp), %eax
	shll	$8, %eax
	movl	-56(%rbp), %ecx
	shrl	$24, %ecx
	movzbl	-25(%rbp), %edx
	xorl	%edx, %ecx
	movl	%ecx, %ecx
	xorl	BZ2_crc32Table(,%rcx,4), %eax
	movl	%eax, -56(%rbp)
	movl	-44(%rbp), %eax
	addl	$-1, %eax
	movl	%eax, -44(%rbp)
	movq	-72(%rbp), %rax
	addq	$1, %rax
	movq	%rax, -72(%rbp)
	movl	-48(%rbp), %eax
	addl	$-1, %eax
	movl	%eax, -48(%rbp)
	jmp	.LBB62_51
.LBB62_56:                              # %while.end313
                                        #   in Loop: Header=BB62_49 Depth=1
	jmp	.LBB62_57
.LBB62_57:                              # %s_state_out_len_eq_one
                                        #   in Loop: Header=BB62_49 Depth=1
	cmpl	$0, -48(%rbp)
	jne	.LBB62_59
# %bb.58:                               # %if.then316
	movl	$1, -44(%rbp)
	jmp	.LBB62_78
.LBB62_59:                              # %if.end317
                                        #   in Loop: Header=BB62_49 Depth=1
	movb	-25(%rbp), %al
	movq	-72(%rbp), %rcx
	movb	%al, (%rcx)
	movl	-56(%rbp), %eax
	shll	$8, %eax
	movl	-56(%rbp), %ecx
	shrl	$24, %ecx
	movzbl	-25(%rbp), %edx
	xorl	%edx, %ecx
	movl	%ecx, %ecx
	xorl	BZ2_crc32Table(,%rcx,4), %eax
	movl	%eax, -56(%rbp)
	movq	-72(%rbp), %rax
	addq	$1, %rax
	movq	%rax, -72(%rbp)
	movl	-48(%rbp), %eax
	addl	$-1, %eax
	movl	%eax, -48(%rbp)
.LBB62_60:                              # %if.end327
                                        #   in Loop: Header=BB62_49 Depth=1
	movl	-40(%rbp), %eax
	cmpl	-60(%rbp), %eax
	jle	.LBB62_62
# %bb.61:                               # %if.then330
	movb	$1, -33(%rbp)
	jmp	.LBB62_82
.LBB62_62:                              # %if.end331
                                        #   in Loop: Header=BB62_49 Depth=1
	movl	-40(%rbp), %eax
	cmpl	-60(%rbp), %eax
	jne	.LBB62_64
# %bb.63:                               # %if.then334
	movl	$0, -44(%rbp)
	jmp	.LBB62_78
.LBB62_64:                              # %if.end335
                                        #   in Loop: Header=BB62_49 Depth=1
	movl	-52(%rbp), %eax
	movb	%al, -25(%rbp)
	movq	-80(%rbp), %rax
	movl	-32(%rbp), %ecx
	movl	(%rax,%rcx,4), %eax
	movl	%eax, -32(%rbp)
	movl	-32(%rbp), %eax
	andl	$255, %eax
	movb	%al, -9(%rbp)
	movl	-32(%rbp), %eax
	shrl	$8, %eax
	movl	%eax, -32(%rbp)
	movl	-40(%rbp), %eax
	addl	$1, %eax
	movl	%eax, -40(%rbp)
	movzbl	-9(%rbp), %eax
	cmpl	-52(%rbp), %eax
	je	.LBB62_66
# %bb.65:                               # %if.then346
                                        #   in Loop: Header=BB62_49 Depth=1
	movzbl	-9(%rbp), %eax
	movl	%eax, -52(%rbp)
	jmp	.LBB62_57
.LBB62_66:                              # %if.end348
                                        #   in Loop: Header=BB62_49 Depth=1
	movl	-40(%rbp), %eax
	cmpl	-60(%rbp), %eax
	jne	.LBB62_68
# %bb.67:                               # %if.then351
                                        #   in Loop: Header=BB62_49 Depth=1
	jmp	.LBB62_57
.LBB62_68:                              # %if.end352
                                        #   in Loop: Header=BB62_49 Depth=1
	movl	$2, -44(%rbp)
	movq	-80(%rbp), %rax
	movl	-32(%rbp), %ecx
	movl	(%rax,%rcx,4), %eax
	movl	%eax, -32(%rbp)
	movl	-32(%rbp), %eax
	andl	$255, %eax
	movb	%al, -9(%rbp)
	movl	-32(%rbp), %eax
	shrl	$8, %eax
	movl	%eax, -32(%rbp)
	movl	-40(%rbp), %eax
	addl	$1, %eax
	movl	%eax, -40(%rbp)
	movl	-40(%rbp), %eax
	cmpl	-60(%rbp), %eax
	jne	.LBB62_71
# %bb.69:                               # %if.then361
                                        #   in Loop: Header=BB62_49 Depth=1
	jmp	.LBB62_70
.LBB62_70:                              # %while.body289.backedge
                                        #   in Loop: Header=BB62_49 Depth=1
	jmp	.LBB62_49
.LBB62_71:                              # %if.end362
                                        #   in Loop: Header=BB62_49 Depth=1
	movzbl	-9(%rbp), %eax
	cmpl	-52(%rbp), %eax
	je	.LBB62_73
# %bb.72:                               # %if.then366
                                        #   in Loop: Header=BB62_49 Depth=1
	movzbl	-9(%rbp), %eax
	movl	%eax, -52(%rbp)
	jmp	.LBB62_70
.LBB62_73:                              # %if.end368
                                        #   in Loop: Header=BB62_49 Depth=1
	movl	$3, -44(%rbp)
	movq	-80(%rbp), %rax
	movl	-32(%rbp), %ecx
	movl	(%rax,%rcx,4), %eax
	movl	%eax, -32(%rbp)
	movl	-32(%rbp), %eax
	andl	$255, %eax
	movb	%al, -9(%rbp)
	movl	-32(%rbp), %eax
	shrl	$8, %eax
	movl	%eax, -32(%rbp)
	movl	-40(%rbp), %eax
	addl	$1, %eax
	movl	%eax, -40(%rbp)
	movl	-40(%rbp), %eax
	cmpl	-60(%rbp), %eax
	jne	.LBB62_75
# %bb.74:                               # %if.then377
                                        #   in Loop: Header=BB62_49 Depth=1
	jmp	.LBB62_70
.LBB62_75:                              # %if.end378
                                        #   in Loop: Header=BB62_49 Depth=1
	movzbl	-9(%rbp), %eax
	cmpl	-52(%rbp), %eax
	je	.LBB62_77
# %bb.76:                               # %if.then382
                                        #   in Loop: Header=BB62_49 Depth=1
	movzbl	-9(%rbp), %eax
	movl	%eax, -52(%rbp)
	jmp	.LBB62_70
.LBB62_77:                              # %if.end384
                                        #   in Loop: Header=BB62_49 Depth=1
	movq	-80(%rbp), %rax
	movl	-32(%rbp), %ecx
	movl	(%rax,%rcx,4), %eax
	movl	%eax, -32(%rbp)
	movl	-32(%rbp), %eax
	andl	$255, %eax
	movb	%al, -9(%rbp)
	movl	-32(%rbp), %eax
	shrl	$8, %eax
	movl	%eax, -32(%rbp)
	movl	-40(%rbp), %eax
	addl	$1, %eax
	movl	%eax, -40(%rbp)
	movzbl	-9(%rbp), %eax
	addl	$4, %eax
	movl	%eax, -44(%rbp)
	movq	-80(%rbp), %rax
	movl	-32(%rbp), %ecx
	movl	(%rax,%rcx,4), %eax
	movl	%eax, -32(%rbp)
	movl	-32(%rbp), %eax
	andl	$255, %eax
	movzbl	%al, %eax
	movl	%eax, -52(%rbp)
	movl	-32(%rbp), %eax
	shrl	$8, %eax
	movl	%eax, -32(%rbp)
	movl	-40(%rbp), %eax
	addl	$1, %eax
	movl	%eax, -40(%rbp)
	jmp	.LBB62_70
.LBB62_78:                              # %return_notr
	movq	-24(%rbp), %rax
	movq	(%rax), %rax
	movl	36(%rax), %eax
	movl	%eax, -92(%rbp)
	movl	-84(%rbp), %eax
	subl	-48(%rbp), %eax
	movq	-24(%rbp), %rcx
	movq	(%rcx), %rcx
	addl	36(%rcx), %eax
	movl	%eax, 36(%rcx)
	movq	-24(%rbp), %rax
	movq	(%rax), %rax
	movl	36(%rax), %eax
	cmpl	-92(%rbp), %eax
	jae	.LBB62_80
# %bb.79:                               # %if.then409
	movq	-24(%rbp), %rax
	movq	(%rax), %rax
	movl	40(%rax), %ecx
	addl	$1, %ecx
	movl	%ecx, 40(%rax)
.LBB62_80:                              # %if.end413
	movl	-56(%rbp), %eax
	movq	-24(%rbp), %rcx
	movl	%eax, 3184(%rcx)
	movb	-25(%rbp), %al
	movq	-24(%rbp), %rcx
	movb	%al, 12(%rcx)
	movl	-44(%rbp), %eax
	movq	-24(%rbp), %rcx
	movl	%eax, 16(%rcx)
	movl	-40(%rbp), %eax
	movq	-24(%rbp), %rcx
	movl	%eax, 1092(%rcx)
	movl	-52(%rbp), %eax
	movq	-24(%rbp), %rcx
	movl	%eax, 64(%rcx)
	movq	-80(%rbp), %rax
	movq	-24(%rbp), %rcx
	movq	%rax, 3152(%rcx)
	movl	-32(%rbp), %eax
	movq	-24(%rbp), %rcx
	movl	%eax, 60(%rcx)
	movq	-72(%rbp), %rax
	movq	-24(%rbp), %rcx
	movq	(%rcx), %rcx
	movq	%rax, 24(%rcx)
	movl	-48(%rbp), %eax
	movq	-24(%rbp), %rcx
	movq	(%rcx), %rcx
	movl	%eax, 32(%rcx)
# %bb.81:                               # %if.end425
	movb	$0, -33(%rbp)
.LBB62_82:                              # %return
	movb	-33(%rbp), %bl
	cmpl	$1780184622, -88(%rbp)  # imm = 0x6A1B762E
	jne	.LBB62_84
.LBB62_83:
	movzbl	%bl, %eax
	addq	$88, %rsp
	popq	%rbx
	popq	%rbp
	.cfi_def_cfa %rsp, 8
	retq
.LBB62_84:                              # %func_exit
	.cfi_def_cfa %rbp, 16
	callq	detect_breach
	jmp	.LBB62_83
.Lfunc_end62:
	.size	unRLE_obuf_to_output_FAST.22, .Lfunc_end62-unRLE_obuf_to_output_FAST.22
	.cfi_endproc
                                        # -- End function
	.globl	BZ2_bzBuffToBuffCompress.23 # -- Begin function BZ2_bzBuffToBuffCompress.23
	.p2align	4, 0x90
	.type	BZ2_bzBuffToBuffCompress.23,@function
BZ2_bzBuffToBuffCompress.23:            # @BZ2_bzBuffToBuffCompress.23
	.cfi_startproc
# %bb.0:                                # %entry
	pushq	%rbp
	.cfi_def_cfa_offset 16
	.cfi_offset %rbp, -16
	movq	%rsp, %rbp
	.cfi_def_cfa_register %rbp
	pushq	%rbx
	subq	$136, %rsp
	.cfi_offset %rbx, -24
	movl	16(%rbp), %eax
	movl	$897161514, -36(%rbp)   # imm = 0x3579992A
	movq	%rdi, -56(%rbp)
	movq	%rsi, -32(%rbp)
	movq	%rdx, -48(%rbp)
	movl	%ecx, -40(%rbp)
	movl	%r8d, -20(%rbp)
	movl	%r9d, -24(%rbp)
	cmpq	$0, -56(%rbp)
	je	.LBB63_9
# %bb.1:                                # %lor.lhs.false
	cmpq	$0, -32(%rbp)
	je	.LBB63_9
# %bb.2:                                # %lor.lhs.false2
	cmpq	$0, -48(%rbp)
	je	.LBB63_9
# %bb.3:                                # %lor.lhs.false4
	cmpl	$1, -20(%rbp)
	jl	.LBB63_9
# %bb.4:                                # %lor.lhs.false6
	cmpl	$9, -20(%rbp)
	jg	.LBB63_9
# %bb.5:                                # %lor.lhs.false8
	cmpl	$0, -24(%rbp)
	jl	.LBB63_9
# %bb.6:                                # %lor.lhs.false10
	cmpl	$4, -24(%rbp)
	jg	.LBB63_9
# %bb.7:                                # %lor.lhs.false12
	cmpl	$0, 16(%rbp)
	jl	.LBB63_9
# %bb.8:                                # %lor.lhs.false14
	cmpl	$250, 16(%rbp)
	jle	.LBB63_10
.LBB63_9:                               # %if.then
	movl	$-2, -16(%rbp)
	jmp	.LBB63_21
.LBB63_10:                              # %if.end
	cmpl	$0, 16(%rbp)
	jne	.LBB63_12
# %bb.11:                               # %if.then17
	movl	$30, 16(%rbp)
.LBB63_12:                              # %if.end18
	movq	$0, -80(%rbp)
	movq	$0, -72(%rbp)
	movq	$0, -64(%rbp)
	movl	-20(%rbp), %esi
	movl	-24(%rbp), %edx
	movl	16(%rbp), %ecx
	leaq	-136(%rbp), %rdi
	callq	BZ2_bzCompressInit
	movl	%eax, -12(%rbp)
	cmpl	$0, -12(%rbp)
	je	.LBB63_14
# %bb.13:                               # %if.then20
	movl	-12(%rbp), %eax
	movl	%eax, -16(%rbp)
	jmp	.LBB63_21
.LBB63_14:                              # %if.end21
	movq	-48(%rbp), %rax
	movq	%rax, -136(%rbp)
	movq	-56(%rbp), %rax
	movq	%rax, -112(%rbp)
	movl	-40(%rbp), %eax
	movl	%eax, -128(%rbp)
	movq	-32(%rbp), %rax
	movl	(%rax), %eax
	movl	%eax, -104(%rbp)
	leaq	-136(%rbp), %rdi
	movl	$2, %esi
	callq	BZ2_bzCompress
	movl	%eax, -12(%rbp)
	cmpl	$3, -12(%rbp)
	jne	.LBB63_16
# %bb.15:                               # %if.then24
	jmp	.LBB63_19
.LBB63_16:                              # %if.end25
	cmpl	$4, -12(%rbp)
	je	.LBB63_18
# %bb.17:                               # %if.then27
	jmp	.LBB63_20
.LBB63_18:                              # %if.end28
	movl	-104(%rbp), %eax
	movq	-32(%rbp), %rcx
	movl	(%rcx), %edx
	subl	%eax, %edx
	movl	%edx, (%rcx)
	leaq	-136(%rbp), %rdi
	callq	BZ2_bzCompressEnd
	movl	$0, -16(%rbp)
	jmp	.LBB63_21
.LBB63_19:                              # %output_overflow
	leaq	-136(%rbp), %rdi
	callq	BZ2_bzCompressEnd
	movl	$-8, -16(%rbp)
	jmp	.LBB63_21
.LBB63_20:                              # %errhandler
	leaq	-136(%rbp), %rdi
	callq	BZ2_bzCompressEnd
	movl	-12(%rbp), %eax
	movl	%eax, -16(%rbp)
.LBB63_21:                              # %return
	movl	-16(%rbp), %ebx
	cmpl	$897161514, -36(%rbp)   # imm = 0x3579992A
	jne	.LBB63_23
.LBB63_22:
	movl	%ebx, %eax
	addq	$136, %rsp
	popq	%rbx
	popq	%rbp
	.cfi_def_cfa %rsp, 8
	retq
.LBB63_23:                              # %func_exit
	.cfi_def_cfa %rbp, 16
	callq	detect_breach
	jmp	.LBB63_22
.Lfunc_end63:
	.size	BZ2_bzBuffToBuffCompress.23, .Lfunc_end63-BZ2_bzBuffToBuffCompress.23
	.cfi_endproc
                                        # -- End function
	.p2align	4, 0x90         # -- Begin function default_bzalloc.24
	.type	default_bzalloc.24,@function
default_bzalloc.24:                     # @default_bzalloc.24
	.cfi_startproc
# %bb.0:                                # %entry
	pushq	%rbp
	.cfi_def_cfa_offset 16
	.cfi_offset %rbp, -16
	movq	%rsp, %rbp
	.cfi_def_cfa_register %rbp
	pushq	%rbx
	subq	$40, %rsp
	.cfi_offset %rbx, -24
	movl	$978242167, -20(%rbp)   # imm = 0x3A4ECA77
	movq	%rdi, -40(%rbp)
	movl	%esi, -12(%rbp)
	movl	%edx, -16(%rbp)
	movl	-12(%rbp), %eax
	imull	-16(%rbp), %eax
	movslq	%eax, %rdi
	callq	malloc
	movq	%rax, -32(%rbp)
	movq	-32(%rbp), %rbx
	cmpl	$978242167, -20(%rbp)   # imm = 0x3A4ECA77
	jne	.LBB64_2
.LBB64_1:
	movq	%rbx, %rax
	addq	$40, %rsp
	popq	%rbx
	popq	%rbp
	.cfi_def_cfa %rsp, 8
	retq
.LBB64_2:                               # %func_exit
	.cfi_def_cfa %rbp, 16
	callq	detect_breach
	jmp	.LBB64_1
.Lfunc_end64:
	.size	default_bzalloc.24, .Lfunc_end64-default_bzalloc.24
	.cfi_endproc
                                        # -- End function
	.globl	BZ2_bzBuffToBuffDecompress.25 # -- Begin function BZ2_bzBuffToBuffDecompress.25
	.p2align	4, 0x90
	.type	BZ2_bzBuffToBuffDecompress.25,@function
BZ2_bzBuffToBuffDecompress.25:          # @BZ2_bzBuffToBuffDecompress.25
	.cfi_startproc
# %bb.0:                                # %entry
	pushq	%rbp
	.cfi_def_cfa_offset 16
	.cfi_offset %rbp, -16
	movq	%rsp, %rbp
	.cfi_def_cfa_register %rbp
	pushq	%rbx
	subq	$136, %rsp
	.cfi_offset %rbx, -24
	movl	$1511485047, -36(%rbp)  # imm = 0x5A176E77
	movq	%rdi, -56(%rbp)
	movq	%rsi, -32(%rbp)
	movq	%rdx, -48(%rbp)
	movl	%ecx, -40(%rbp)
	movl	%r8d, -20(%rbp)
	movl	%r9d, -24(%rbp)
	cmpq	$0, -56(%rbp)
	je	.LBB65_7
# %bb.1:                                # %lor.lhs.false
	cmpq	$0, -32(%rbp)
	je	.LBB65_7
# %bb.2:                                # %lor.lhs.false2
	cmpq	$0, -48(%rbp)
	je	.LBB65_7
# %bb.3:                                # %lor.lhs.false4
	cmpl	$0, -20(%rbp)
	je	.LBB65_5
# %bb.4:                                # %land.lhs.true
	cmpl	$1, -20(%rbp)
	jne	.LBB65_7
.LBB65_5:                               # %lor.lhs.false7
	cmpl	$0, -24(%rbp)
	jl	.LBB65_7
# %bb.6:                                # %lor.lhs.false9
	cmpl	$4, -24(%rbp)
	jle	.LBB65_8
.LBB65_7:                               # %if.then
	movl	$-2, -16(%rbp)
	jmp	.LBB65_19
.LBB65_8:                               # %if.end
	movq	$0, -80(%rbp)
	movq	$0, -72(%rbp)
	movq	$0, -64(%rbp)
	movl	-24(%rbp), %esi
	movl	-20(%rbp), %edx
	leaq	-136(%rbp), %rdi
	callq	BZ2_bzDecompressInit
	movl	%eax, -12(%rbp)
	cmpl	$0, -12(%rbp)
	je	.LBB65_10
# %bb.9:                                # %if.then12
	movl	-12(%rbp), %eax
	movl	%eax, -16(%rbp)
	jmp	.LBB65_19
.LBB65_10:                              # %if.end13
	movq	-48(%rbp), %rax
	movq	%rax, -136(%rbp)
	movq	-56(%rbp), %rax
	movq	%rax, -112(%rbp)
	movl	-40(%rbp), %eax
	movl	%eax, -128(%rbp)
	movq	-32(%rbp), %rax
	movl	(%rax), %eax
	movl	%eax, -104(%rbp)
	leaq	-136(%rbp), %rdi
	callq	BZ2_bzDecompress
	movl	%eax, -12(%rbp)
	cmpl	$0, -12(%rbp)
	jne	.LBB65_12
# %bb.11:                               # %if.then16
	jmp	.LBB65_15
.LBB65_12:                              # %if.end17
	cmpl	$4, -12(%rbp)
	je	.LBB65_14
# %bb.13:                               # %if.then19
	jmp	.LBB65_18
.LBB65_14:                              # %if.end20
	movl	-104(%rbp), %eax
	movq	-32(%rbp), %rcx
	movl	(%rcx), %edx
	subl	%eax, %edx
	movl	%edx, (%rcx)
	leaq	-136(%rbp), %rdi
	callq	BZ2_bzDecompressEnd
	movl	$0, -16(%rbp)
	jmp	.LBB65_19
.LBB65_15:                              # %output_overflow_or_eof
	cmpl	$0, -104(%rbp)
	jbe	.LBB65_17
# %bb.16:                               # %if.then25
	leaq	-136(%rbp), %rdi
	callq	BZ2_bzDecompressEnd
	movl	$-7, -16(%rbp)
	jmp	.LBB65_19
.LBB65_17:                              # %if.else
	leaq	-136(%rbp), %rdi
	callq	BZ2_bzDecompressEnd
	movl	$-8, -16(%rbp)
	jmp	.LBB65_19
.LBB65_18:                              # %errhandler
	leaq	-136(%rbp), %rdi
	callq	BZ2_bzDecompressEnd
	movl	-12(%rbp), %eax
	movl	%eax, -16(%rbp)
.LBB65_19:                              # %return
	movl	-16(%rbp), %ebx
	cmpl	$1511485047, -36(%rbp)  # imm = 0x5A176E77
	jne	.LBB65_21
.LBB65_20:
	movl	%ebx, %eax
	addq	$136, %rsp
	popq	%rbx
	popq	%rbp
	.cfi_def_cfa %rsp, 8
	retq
.LBB65_21:                              # %func_exit
	.cfi_def_cfa %rbp, 16
	callq	detect_breach
	jmp	.LBB65_20
.Lfunc_end65:
	.size	BZ2_bzBuffToBuffDecompress.25, .Lfunc_end65-BZ2_bzBuffToBuffDecompress.25
	.cfi_endproc
                                        # -- End function
	.globl	BZ2_bzread.26           # -- Begin function BZ2_bzread.26
	.p2align	4, 0x90
	.type	BZ2_bzread.26,@function
BZ2_bzread.26:                          # @BZ2_bzread.26
	.cfi_startproc
# %bb.0:                                # %entry
	pushq	%rbp
	.cfi_def_cfa_offset 16
	.cfi_offset %rbp, -16
	movq	%rsp, %rbp
	.cfi_def_cfa_register %rbp
	pushq	%rbx
	subq	$40, %rsp
	.cfi_offset %rbx, -24
	movl	$1472171461, -24(%rbp)  # imm = 0x57BF8DC5
	movq	%rdi, -40(%rbp)
	movq	%rsi, -48(%rbp)
	movl	%edx, -28(%rbp)
	movq	-40(%rbp), %rax
	cmpl	$4, 5096(%rax)
	jne	.LBB66_2
# %bb.1:                                # %if.then
	movl	$0, -12(%rbp)
	jmp	.LBB66_6
.LBB66_2:                               # %if.end
	movq	-40(%rbp), %rsi
	movq	-48(%rbp), %rdx
	movl	-28(%rbp), %ecx
	leaq	-16(%rbp), %rdi
	callq	BZ2_bzRead
	movl	%eax, -20(%rbp)
	cmpl	$0, -16(%rbp)
	je	.LBB66_4
# %bb.3:                                # %lor.lhs.false
	cmpl	$4, -16(%rbp)
	jne	.LBB66_5
.LBB66_4:                               # %if.then3
	movl	-20(%rbp), %eax
	movl	%eax, -12(%rbp)
	jmp	.LBB66_6
.LBB66_5:                               # %if.else
	movl	$-1, -12(%rbp)
.LBB66_6:                               # %return
	movl	-12(%rbp), %ebx
	cmpl	$1472171461, -24(%rbp)  # imm = 0x57BF8DC5
	jne	.LBB66_8
.LBB66_7:
	movl	%ebx, %eax
	addq	$40, %rsp
	popq	%rbx
	popq	%rbp
	.cfi_def_cfa %rsp, 8
	retq
.LBB66_8:                               # %func_exit
	.cfi_def_cfa %rbp, 16
	callq	detect_breach
	jmp	.LBB66_7
.Lfunc_end66:
	.size	BZ2_bzread.26, .Lfunc_end66-BZ2_bzread.26
	.cfi_endproc
                                        # -- End function
	.globl	BZ2_bzDecompressEnd.27  # -- Begin function BZ2_bzDecompressEnd.27
	.p2align	4, 0x90
	.type	BZ2_bzDecompressEnd.27,@function
BZ2_bzDecompressEnd.27:                 # @BZ2_bzDecompressEnd.27
	.cfi_startproc
# %bb.0:                                # %entry
	pushq	%rbp
	.cfi_def_cfa_offset 16
	.cfi_offset %rbp, -16
	movq	%rsp, %rbp
	.cfi_def_cfa_register %rbp
	pushq	%rbx
	subq	$40, %rsp
	.cfi_offset %rbx, -24
	movl	$746641883, -36(%rbp)   # imm = 0x2C80D9DB
	movq	%rdi, -16(%rbp)
	cmpq	$0, -16(%rbp)
	jne	.LBB67_2
# %bb.1:                                # %if.then
	movl	$-2, -20(%rbp)
	jmp	.LBB67_13
.LBB67_2:                               # %if.end
	movq	-16(%rbp), %rax
	movq	48(%rax), %rax
	movq	%rax, -32(%rbp)
	cmpq	$0, -32(%rbp)
	jne	.LBB67_4
# %bb.3:                                # %if.then2
	movl	$-2, -20(%rbp)
	jmp	.LBB67_13
.LBB67_4:                               # %if.end3
	movq	-32(%rbp), %rax
	movq	(%rax), %rax
	cmpq	-16(%rbp), %rax
	je	.LBB67_6
# %bb.5:                                # %if.then6
	movl	$-2, -20(%rbp)
	jmp	.LBB67_13
.LBB67_6:                               # %if.end7
	movq	-32(%rbp), %rax
	cmpq	$0, 3152(%rax)
	je	.LBB67_8
# %bb.7:                                # %if.then9
	movq	-16(%rbp), %rax
	movq	64(%rax), %rax
	movq	-16(%rbp), %rcx
	movq	72(%rcx), %rdi
	movq	-32(%rbp), %rcx
	movq	3152(%rcx), %rsi
	callq	*%rax
.LBB67_8:                               # %if.end11
	movq	-32(%rbp), %rax
	cmpq	$0, 3160(%rax)
	je	.LBB67_10
# %bb.9:                                # %if.then13
	movq	-16(%rbp), %rax
	movq	64(%rax), %rax
	movq	-16(%rbp), %rcx
	movq	72(%rcx), %rdi
	movq	-32(%rbp), %rcx
	movq	3160(%rcx), %rsi
	callq	*%rax
.LBB67_10:                              # %if.end17
	movq	-32(%rbp), %rax
	cmpq	$0, 3168(%rax)
	je	.LBB67_12
# %bb.11:                               # %if.then19
	movq	-16(%rbp), %rax
	movq	64(%rax), %rax
	movq	-16(%rbp), %rcx
	movq	72(%rcx), %rdi
	movq	-32(%rbp), %rcx
	movq	3168(%rcx), %rsi
	callq	*%rax
.LBB67_12:                              # %if.end23
	movq	-16(%rbp), %rax
	movq	64(%rax), %rax
	movq	-16(%rbp), %rcx
	movq	72(%rcx), %rdi
	movq	-16(%rbp), %rcx
	movq	48(%rcx), %rsi
	callq	*%rax
	movq	-16(%rbp), %rax
	movq	$0, 48(%rax)
	movl	$0, -20(%rbp)
.LBB67_13:                              # %return
	movl	-20(%rbp), %ebx
	cmpl	$746641883, -36(%rbp)   # imm = 0x2C80D9DB
	jne	.LBB67_15
.LBB67_14:
	movl	%ebx, %eax
	addq	$40, %rsp
	popq	%rbx
	popq	%rbp
	.cfi_def_cfa %rsp, 8
	retq
.LBB67_15:                              # %func_exit
	.cfi_def_cfa %rbp, 16
	callq	detect_breach
	jmp	.LBB67_14
.Lfunc_end67:
	.size	BZ2_bzDecompressEnd.27, .Lfunc_end67-BZ2_bzDecompressEnd.27
	.cfi_endproc
                                        # -- End function
	.globl	BZ2_bzclose.28          # -- Begin function BZ2_bzclose.28
	.p2align	4, 0x90
	.type	BZ2_bzclose.28,@function
BZ2_bzclose.28:                         # @BZ2_bzclose.28
	.cfi_startproc
# %bb.0:                                # %entry
	pushq	%rbp
	.cfi_def_cfa_offset 16
	.cfi_offset %rbp, -16
	movq	%rsp, %rbp
	.cfi_def_cfa_register %rbp
	subq	$32, %rsp
	movl	$1742986282, -28(%rbp)  # imm = 0x67E3DC2A
	movq	%rdi, -8(%rbp)
	movq	-8(%rbp), %rax
	movq	(%rax), %rax
	movq	%rax, -24(%rbp)
	cmpq	$0, -8(%rbp)
	jne	.LBB68_2
# %bb.1:                                # %if.then
	jmp	.LBB68_10
.LBB68_2:                               # %if.end
	movq	-8(%rbp), %rax
	cmpb	$0, 5012(%rax)
	je	.LBB68_6
# %bb.3:                                # %if.then1
	movq	-8(%rbp), %rsi
	leaq	-12(%rbp), %rdi
	xorl	%edx, %edx
	xorl	%ecx, %ecx
	xorl	%r8d, %r8d
	callq	BZ2_bzWriteClose
	cmpl	$0, -12(%rbp)
	je	.LBB68_5
# %bb.4:                                # %if.then3
	movq	-8(%rbp), %rsi
	xorl	%edi, %edi
	movl	$1, %edx
	xorl	%ecx, %ecx
	xorl	%r8d, %r8d
	callq	BZ2_bzWriteClose
.LBB68_5:                               # %if.end4
	jmp	.LBB68_7
.LBB68_6:                               # %if.else
	movq	-8(%rbp), %rsi
	leaq	-12(%rbp), %rdi
	callq	BZ2_bzReadClose
.LBB68_7:                               # %if.end5
	movq	-24(%rbp), %rax
	cmpq	stdin, %rax
	je	.LBB68_10
# %bb.8:                                # %land.lhs.true
	movq	-24(%rbp), %rax
	cmpq	stdout, %rax
	je	.LBB68_10
# %bb.9:                                # %if.then8
	movq	-24(%rbp), %rdi
	callq	fclose
.LBB68_10:                              # %if.end9
	cmpl	$1742986282, -28(%rbp)  # imm = 0x67E3DC2A
	jne	.LBB68_12
.LBB68_11:
	addq	$32, %rsp
	popq	%rbp
	.cfi_def_cfa %rsp, 8
	retq
.LBB68_12:                              # %func_exit
	.cfi_def_cfa %rbp, 16
	callq	detect_breach
	jmp	.LBB68_11
.Lfunc_end68:
	.size	BZ2_bzclose.28, .Lfunc_end68-BZ2_bzclose.28
	.cfi_endproc
                                        # -- End function
	.globl	BZ2_bzReadGetUnused.29  # -- Begin function BZ2_bzReadGetUnused.29
	.p2align	4, 0x90
	.type	BZ2_bzReadGetUnused.29,@function
BZ2_bzReadGetUnused.29:                 # @BZ2_bzReadGetUnused.29
	.cfi_startproc
# %bb.0:                                # %entry
	pushq	%rbp
	.cfi_def_cfa_offset 16
	.cfi_offset %rbp, -16
	movq	%rsp, %rbp
	.cfi_def_cfa_register %rbp
	subq	$48, %rsp
	movl	$1535462484, -20(%rbp)  # imm = 0x5B854C54
	movq	%rdi, -16(%rbp)
	movq	%rsi, -48(%rbp)
	movq	%rdx, -32(%rbp)
	movq	%rcx, -40(%rbp)
	movq	-48(%rbp), %rax
	movq	%rax, -8(%rbp)
	cmpq	$0, -8(%rbp)
	jne	.LBB69_6
# %bb.1:                                # %if.then
	cmpq	$0, -16(%rbp)
	je	.LBB69_3
# %bb.2:                                # %if.then2
	movq	-16(%rbp), %rax
	movl	$-2, (%rax)
.LBB69_3:                               # %if.end
	cmpq	$0, -8(%rbp)
	je	.LBB69_5
# %bb.4:                                # %if.then4
	movq	-8(%rbp), %rax
	movl	$-2, 5096(%rax)
.LBB69_5:                               # %if.end5
	jmp	.LBB69_24
.LBB69_6:                               # %if.end6
	movq	-8(%rbp), %rax
	cmpl	$4, 5096(%rax)
	je	.LBB69_12
# %bb.7:                                # %if.then9
	cmpq	$0, -16(%rbp)
	je	.LBB69_9
# %bb.8:                                # %if.then11
	movq	-16(%rbp), %rax
	movl	$-1, (%rax)
.LBB69_9:                               # %if.end12
	cmpq	$0, -8(%rbp)
	je	.LBB69_11
# %bb.10:                               # %if.then14
	movq	-8(%rbp), %rax
	movl	$-1, 5096(%rax)
.LBB69_11:                              # %if.end16
	jmp	.LBB69_24
.LBB69_12:                              # %if.end17
	cmpq	$0, -32(%rbp)
	je	.LBB69_14
# %bb.13:                               # %lor.lhs.false
	cmpq	$0, -40(%rbp)
	jne	.LBB69_19
.LBB69_14:                              # %if.then20
	cmpq	$0, -16(%rbp)
	je	.LBB69_16
# %bb.15:                               # %if.then22
	movq	-16(%rbp), %rax
	movl	$-2, (%rax)
.LBB69_16:                              # %if.end23
	cmpq	$0, -8(%rbp)
	je	.LBB69_18
# %bb.17:                               # %if.then25
	movq	-8(%rbp), %rax
	movl	$-2, 5096(%rax)
.LBB69_18:                              # %if.end27
	jmp	.LBB69_24
.LBB69_19:                              # %if.end28
	cmpq	$0, -16(%rbp)
	je	.LBB69_21
# %bb.20:                               # %if.then30
	movq	-16(%rbp), %rax
	movl	$0, (%rax)
.LBB69_21:                              # %if.end31
	cmpq	$0, -8(%rbp)
	je	.LBB69_23
# %bb.22:                               # %if.then33
	movq	-8(%rbp), %rax
	movl	$0, 5096(%rax)
.LBB69_23:                              # %if.end35
	movq	-8(%rbp), %rax
	movl	5024(%rax), %eax
	movq	-40(%rbp), %rcx
	movl	%eax, (%rcx)
	movq	-8(%rbp), %rax
	movq	5016(%rax), %rax
	movq	-32(%rbp), %rcx
	movq	%rax, (%rcx)
.LBB69_24:                              # %return
	cmpl	$1535462484, -20(%rbp)  # imm = 0x5B854C54
	jne	.LBB69_26
.LBB69_25:
	addq	$48, %rsp
	popq	%rbp
	.cfi_def_cfa %rsp, 8
	retq
.LBB69_26:                              # %func_exit
	.cfi_def_cfa %rbp, 16
	callq	detect_breach
	jmp	.LBB69_25
.Lfunc_end69:
	.size	BZ2_bzReadGetUnused.29, .Lfunc_end69-BZ2_bzReadGetUnused.29
	.cfi_endproc
                                        # -- End function
	.p2align	4, 0x90         # -- Begin function copy_input_until_stop.30
	.type	copy_input_until_stop.30,@function
copy_input_until_stop.30:               # @copy_input_until_stop.30
	.cfi_startproc
# %bb.0:                                # %entry
	pushq	%rbp
	.cfi_def_cfa_offset 16
	.cfi_offset %rbp, -16
	movq	%rsp, %rbp
	.cfi_def_cfa_register %rbp
	pushq	%rbx
	subq	$24, %rsp
	.cfi_offset %rbx, -24
	movl	$1730412930, -32(%rbp)  # imm = 0x67240182
	movq	%rdi, -16(%rbp)
	movb	$0, -17(%rbp)
	movq	-16(%rbp), %rax
	cmpl	$2, 8(%rax)
	jne	.LBB70_20
# %bb.1:                                # %if.then
	jmp	.LBB70_2
.LBB70_2:                               # %while.body
                                        # =>This Inner Loop Header: Depth=1
	movq	-16(%rbp), %rax
	movl	108(%rax), %eax
	movq	-16(%rbp), %rcx
	cmpl	112(%rcx), %eax
	jl	.LBB70_4
# %bb.3:                                # %if.then2
	jmp	.LBB70_19
.LBB70_4:                               # %if.end
                                        #   in Loop: Header=BB70_2 Depth=1
	movq	-16(%rbp), %rax
	movq	(%rax), %rax
	cmpl	$0, 8(%rax)
	jne	.LBB70_6
# %bb.5:                                # %if.then4
	jmp	.LBB70_19
.LBB70_6:                               # %if.end5
                                        #   in Loop: Header=BB70_2 Depth=1
	movb	$1, -17(%rbp)
	movq	-16(%rbp), %rax
	movq	(%rax), %rax
	movq	(%rax), %rax
	movzbl	(%rax), %eax
	movl	%eax, -24(%rbp)
	movl	-24(%rbp), %eax
	movq	-16(%rbp), %rcx
	cmpl	92(%rcx), %eax
	je	.LBB70_9
# %bb.7:                                # %land.lhs.true
                                        #   in Loop: Header=BB70_2 Depth=1
	movq	-16(%rbp), %rax
	cmpl	$1, 96(%rax)
	jne	.LBB70_9
# %bb.8:                                # %if.then11
                                        #   in Loop: Header=BB70_2 Depth=1
	movq	-16(%rbp), %rax
	movl	92(%rax), %eax
	movb	%al, -19(%rbp)
	movq	-16(%rbp), %rax
	movl	648(%rax), %eax
	shll	$8, %eax
	movq	-16(%rbp), %rcx
	movl	648(%rcx), %ecx
	shrl	$24, %ecx
	movzbl	-19(%rbp), %edx
	xorl	%edx, %ecx
	movl	%ecx, %ecx
	xorl	BZ2_crc32Table(,%rcx,4), %eax
	movq	-16(%rbp), %rcx
	movl	%eax, 648(%rcx)
	movq	-16(%rbp), %rax
	movq	-16(%rbp), %rcx
	movl	92(%rcx), %ecx
	movb	$1, 128(%rax,%rcx)
	movb	-19(%rbp), %al
	movq	-16(%rbp), %rcx
	movq	64(%rcx), %rcx
	movq	-16(%rbp), %rdx
	movslq	108(%rdx), %rdx
	movb	%al, (%rcx,%rdx)
	movq	-16(%rbp), %rax
	movl	108(%rax), %ecx
	addl	$1, %ecx
	movl	%ecx, 108(%rax)
	movl	-24(%rbp), %eax
	movq	-16(%rbp), %rcx
	movl	%eax, 92(%rcx)
	jmp	.LBB70_16
.LBB70_9:                               # %if.else
                                        #   in Loop: Header=BB70_2 Depth=1
	movl	-24(%rbp), %eax
	movq	-16(%rbp), %rcx
	cmpl	92(%rcx), %eax
	jne	.LBB70_11
# %bb.10:                               # %lor.lhs.false
                                        #   in Loop: Header=BB70_2 Depth=1
	movq	-16(%rbp), %rax
	cmpl	$255, 96(%rax)
	jne	.LBB70_14
.LBB70_11:                              # %if.then32
                                        #   in Loop: Header=BB70_2 Depth=1
	movq	-16(%rbp), %rax
	cmpl	$256, 92(%rax)          # imm = 0x100
	jae	.LBB70_13
# %bb.12:                               # %if.then36
                                        #   in Loop: Header=BB70_2 Depth=1
	movq	-16(%rbp), %rdi
	callq	add_pair_to_block
.LBB70_13:                              # %if.end37
                                        #   in Loop: Header=BB70_2 Depth=1
	movl	-24(%rbp), %eax
	movq	-16(%rbp), %rcx
	movl	%eax, 92(%rcx)
	movq	-16(%rbp), %rax
	movl	$1, 96(%rax)
	jmp	.LBB70_15
.LBB70_14:                              # %if.else40
                                        #   in Loop: Header=BB70_2 Depth=1
	movq	-16(%rbp), %rax
	movl	96(%rax), %ecx
	addl	$1, %ecx
	movl	%ecx, 96(%rax)
.LBB70_15:                              # %if.end43
                                        #   in Loop: Header=BB70_2 Depth=1
	jmp	.LBB70_16
.LBB70_16:                              # %if.end44
                                        #   in Loop: Header=BB70_2 Depth=1
	movq	-16(%rbp), %rax
	movq	(%rax), %rax
	movq	(%rax), %rcx
	addq	$1, %rcx
	movq	%rcx, (%rax)
	movq	-16(%rbp), %rax
	movq	(%rax), %rax
	movl	8(%rax), %ecx
	addl	$-1, %ecx
	movl	%ecx, 8(%rax)
	movq	-16(%rbp), %rax
	movq	(%rax), %rax
	movl	12(%rax), %ecx
	addl	$1, %ecx
	movl	%ecx, 12(%rax)
	movq	-16(%rbp), %rax
	movq	(%rax), %rax
	cmpl	$0, 12(%rax)
	jne	.LBB70_18
# %bb.17:                               # %if.then55
                                        #   in Loop: Header=BB70_2 Depth=1
	movq	-16(%rbp), %rax
	movq	(%rax), %rax
	movl	16(%rax), %ecx
	addl	$1, %ecx
	movl	%ecx, 16(%rax)
.LBB70_18:                              # %if.end58
                                        #   in Loop: Header=BB70_2 Depth=1
	jmp	.LBB70_2
.LBB70_19:                              # %while.end
	jmp	.LBB70_41
.LBB70_20:                              # %if.else59
	jmp	.LBB70_21
.LBB70_21:                              # %while.body60
                                        # =>This Inner Loop Header: Depth=1
	movq	-16(%rbp), %rax
	movl	108(%rax), %eax
	movq	-16(%rbp), %rcx
	cmpl	112(%rcx), %eax
	jl	.LBB70_23
# %bb.22:                               # %if.then65
	jmp	.LBB70_40
.LBB70_23:                              # %if.end66
                                        #   in Loop: Header=BB70_21 Depth=1
	movq	-16(%rbp), %rax
	movq	(%rax), %rax
	cmpl	$0, 8(%rax)
	jne	.LBB70_25
# %bb.24:                               # %if.then71
	jmp	.LBB70_40
.LBB70_25:                              # %if.end72
                                        #   in Loop: Header=BB70_21 Depth=1
	movq	-16(%rbp), %rax
	cmpl	$0, 16(%rax)
	jne	.LBB70_27
# %bb.26:                               # %if.then75
	jmp	.LBB70_40
.LBB70_27:                              # %if.end76
                                        #   in Loop: Header=BB70_21 Depth=1
	movb	$1, -17(%rbp)
	movq	-16(%rbp), %rax
	movq	(%rax), %rax
	movq	(%rax), %rax
	movzbl	(%rax), %eax
	movl	%eax, -28(%rbp)
	movl	-28(%rbp), %eax
	movq	-16(%rbp), %rcx
	cmpl	92(%rcx), %eax
	je	.LBB70_30
# %bb.28:                               # %land.lhs.true84
                                        #   in Loop: Header=BB70_21 Depth=1
	movq	-16(%rbp), %rax
	cmpl	$1, 96(%rax)
	jne	.LBB70_30
# %bb.29:                               # %if.then88
                                        #   in Loop: Header=BB70_21 Depth=1
	movq	-16(%rbp), %rax
	movl	92(%rax), %eax
	movb	%al, -18(%rbp)
	movq	-16(%rbp), %rax
	movl	648(%rax), %eax
	shll	$8, %eax
	movq	-16(%rbp), %rcx
	movl	648(%rcx), %ecx
	shrl	$24, %ecx
	movzbl	-18(%rbp), %edx
	xorl	%edx, %ecx
	movl	%ecx, %ecx
	xorl	BZ2_crc32Table(,%rcx,4), %eax
	movq	-16(%rbp), %rcx
	movl	%eax, 648(%rcx)
	movq	-16(%rbp), %rax
	movq	-16(%rbp), %rcx
	movl	92(%rcx), %ecx
	movb	$1, 128(%rax,%rcx)
	movb	-18(%rbp), %al
	movq	-16(%rbp), %rcx
	movq	64(%rcx), %rcx
	movq	-16(%rbp), %rdx
	movslq	108(%rdx), %rdx
	movb	%al, (%rcx,%rdx)
	movq	-16(%rbp), %rax
	movl	108(%rax), %ecx
	addl	$1, %ecx
	movl	%ecx, 108(%rax)
	movl	-28(%rbp), %eax
	movq	-16(%rbp), %rcx
	movl	%eax, 92(%rcx)
	jmp	.LBB70_37
.LBB70_30:                              # %if.else113
                                        #   in Loop: Header=BB70_21 Depth=1
	movl	-28(%rbp), %eax
	movq	-16(%rbp), %rcx
	cmpl	92(%rcx), %eax
	jne	.LBB70_32
# %bb.31:                               # %lor.lhs.false117
                                        #   in Loop: Header=BB70_21 Depth=1
	movq	-16(%rbp), %rax
	cmpl	$255, 96(%rax)
	jne	.LBB70_35
.LBB70_32:                              # %if.then121
                                        #   in Loop: Header=BB70_21 Depth=1
	movq	-16(%rbp), %rax
	cmpl	$256, 92(%rax)          # imm = 0x100
	jae	.LBB70_34
# %bb.33:                               # %if.then125
                                        #   in Loop: Header=BB70_21 Depth=1
	movq	-16(%rbp), %rdi
	callq	add_pair_to_block
.LBB70_34:                              # %if.end126
                                        #   in Loop: Header=BB70_21 Depth=1
	movl	-28(%rbp), %eax
	movq	-16(%rbp), %rcx
	movl	%eax, 92(%rcx)
	movq	-16(%rbp), %rax
	movl	$1, 96(%rax)
	jmp	.LBB70_36
.LBB70_35:                              # %if.else129
                                        #   in Loop: Header=BB70_21 Depth=1
	movq	-16(%rbp), %rax
	movl	96(%rax), %ecx
	addl	$1, %ecx
	movl	%ecx, 96(%rax)
.LBB70_36:                              # %if.end132
                                        #   in Loop: Header=BB70_21 Depth=1
	jmp	.LBB70_37
.LBB70_37:                              # %if.end133
                                        #   in Loop: Header=BB70_21 Depth=1
	movq	-16(%rbp), %rax
	movq	(%rax), %rax
	movq	(%rax), %rcx
	addq	$1, %rcx
	movq	%rcx, (%rax)
	movq	-16(%rbp), %rax
	movq	(%rax), %rax
	movl	8(%rax), %ecx
	addl	$-1, %ecx
	movl	%ecx, 8(%rax)
	movq	-16(%rbp), %rax
	movq	(%rax), %rax
	movl	12(%rax), %ecx
	addl	$1, %ecx
	movl	%ecx, 12(%rax)
	movq	-16(%rbp), %rax
	movq	(%rax), %rax
	cmpl	$0, 12(%rax)
	jne	.LBB70_39
# %bb.38:                               # %if.then147
                                        #   in Loop: Header=BB70_21 Depth=1
	movq	-16(%rbp), %rax
	movq	(%rax), %rax
	movl	16(%rax), %ecx
	addl	$1, %ecx
	movl	%ecx, 16(%rax)
.LBB70_39:                              # %if.end151
                                        #   in Loop: Header=BB70_21 Depth=1
	movq	-16(%rbp), %rax
	movl	16(%rax), %ecx
	addl	$-1, %ecx
	movl	%ecx, 16(%rax)
	jmp	.LBB70_21
.LBB70_40:                              # %while.end154
	jmp	.LBB70_41
.LBB70_41:                              # %if.end155
	movb	-17(%rbp), %bl
	cmpl	$1730412930, -32(%rbp)  # imm = 0x67240182
	jne	.LBB70_43
.LBB70_42:
	movzbl	%bl, %eax
	addq	$24, %rsp
	popq	%rbx
	popq	%rbp
	.cfi_def_cfa %rsp, 8
	retq
.LBB70_43:                              # %func_exit
	.cfi_def_cfa %rbp, 16
	callq	detect_breach
	jmp	.LBB70_42
.Lfunc_end70:
	.size	copy_input_until_stop.30, .Lfunc_end70-copy_input_until_stop.30
	.cfi_endproc
                                        # -- End function
	.p2align	4, 0x90         # -- Begin function copy_input_until_stop.31
	.type	copy_input_until_stop.31,@function
copy_input_until_stop.31:               # @copy_input_until_stop.31
	.cfi_startproc
# %bb.0:                                # %entry
	pushq	%rbp
	.cfi_def_cfa_offset 16
	.cfi_offset %rbp, -16
	movq	%rsp, %rbp
	.cfi_def_cfa_register %rbp
	pushq	%rbx
	subq	$24, %rsp
	.cfi_offset %rbx, -24
	movl	$1903364651, -32(%rbp)  # imm = 0x71730A2B
	movq	%rdi, -16(%rbp)
	movb	$0, -17(%rbp)
	movq	-16(%rbp), %rax
	cmpl	$2, 8(%rax)
	jne	.LBB71_20
# %bb.1:                                # %if.then
	jmp	.LBB71_2
.LBB71_2:                               # %while.body
                                        # =>This Inner Loop Header: Depth=1
	movq	-16(%rbp), %rax
	movl	108(%rax), %eax
	movq	-16(%rbp), %rcx
	cmpl	112(%rcx), %eax
	jl	.LBB71_4
# %bb.3:                                # %if.then2
	jmp	.LBB71_19
.LBB71_4:                               # %if.end
                                        #   in Loop: Header=BB71_2 Depth=1
	movq	-16(%rbp), %rax
	movq	(%rax), %rax
	cmpl	$0, 8(%rax)
	jne	.LBB71_6
# %bb.5:                                # %if.then4
	jmp	.LBB71_19
.LBB71_6:                               # %if.end5
                                        #   in Loop: Header=BB71_2 Depth=1
	movb	$1, -17(%rbp)
	movq	-16(%rbp), %rax
	movq	(%rax), %rax
	movq	(%rax), %rax
	movzbl	(%rax), %eax
	movl	%eax, -28(%rbp)
	movl	-28(%rbp), %eax
	movq	-16(%rbp), %rcx
	cmpl	92(%rcx), %eax
	je	.LBB71_9
# %bb.7:                                # %land.lhs.true
                                        #   in Loop: Header=BB71_2 Depth=1
	movq	-16(%rbp), %rax
	cmpl	$1, 96(%rax)
	jne	.LBB71_9
# %bb.8:                                # %if.then11
                                        #   in Loop: Header=BB71_2 Depth=1
	movq	-16(%rbp), %rax
	movl	92(%rax), %eax
	movb	%al, -19(%rbp)
	movq	-16(%rbp), %rax
	movl	648(%rax), %eax
	shll	$8, %eax
	movq	-16(%rbp), %rcx
	movl	648(%rcx), %ecx
	shrl	$24, %ecx
	movzbl	-19(%rbp), %edx
	xorl	%edx, %ecx
	movl	%ecx, %ecx
	xorl	BZ2_crc32Table(,%rcx,4), %eax
	movq	-16(%rbp), %rcx
	movl	%eax, 648(%rcx)
	movq	-16(%rbp), %rax
	movq	-16(%rbp), %rcx
	movl	92(%rcx), %ecx
	movb	$1, 128(%rax,%rcx)
	movb	-19(%rbp), %al
	movq	-16(%rbp), %rcx
	movq	64(%rcx), %rcx
	movq	-16(%rbp), %rdx
	movslq	108(%rdx), %rdx
	movb	%al, (%rcx,%rdx)
	movq	-16(%rbp), %rax
	movl	108(%rax), %ecx
	addl	$1, %ecx
	movl	%ecx, 108(%rax)
	movl	-28(%rbp), %eax
	movq	-16(%rbp), %rcx
	movl	%eax, 92(%rcx)
	jmp	.LBB71_16
.LBB71_9:                               # %if.else
                                        #   in Loop: Header=BB71_2 Depth=1
	movl	-28(%rbp), %eax
	movq	-16(%rbp), %rcx
	cmpl	92(%rcx), %eax
	jne	.LBB71_11
# %bb.10:                               # %lor.lhs.false
                                        #   in Loop: Header=BB71_2 Depth=1
	movq	-16(%rbp), %rax
	cmpl	$255, 96(%rax)
	jne	.LBB71_14
.LBB71_11:                              # %if.then32
                                        #   in Loop: Header=BB71_2 Depth=1
	movq	-16(%rbp), %rax
	cmpl	$256, 92(%rax)          # imm = 0x100
	jae	.LBB71_13
# %bb.12:                               # %if.then36
                                        #   in Loop: Header=BB71_2 Depth=1
	movq	-16(%rbp), %rdi
	callq	add_pair_to_block
.LBB71_13:                              # %if.end37
                                        #   in Loop: Header=BB71_2 Depth=1
	movl	-28(%rbp), %eax
	movq	-16(%rbp), %rcx
	movl	%eax, 92(%rcx)
	movq	-16(%rbp), %rax
	movl	$1, 96(%rax)
	jmp	.LBB71_15
.LBB71_14:                              # %if.else40
                                        #   in Loop: Header=BB71_2 Depth=1
	movq	-16(%rbp), %rax
	movl	96(%rax), %ecx
	addl	$1, %ecx
	movl	%ecx, 96(%rax)
.LBB71_15:                              # %if.end43
                                        #   in Loop: Header=BB71_2 Depth=1
	jmp	.LBB71_16
.LBB71_16:                              # %if.end44
                                        #   in Loop: Header=BB71_2 Depth=1
	movq	-16(%rbp), %rax
	movq	(%rax), %rax
	movq	(%rax), %rcx
	addq	$1, %rcx
	movq	%rcx, (%rax)
	movq	-16(%rbp), %rax
	movq	(%rax), %rax
	movl	8(%rax), %ecx
	addl	$-1, %ecx
	movl	%ecx, 8(%rax)
	movq	-16(%rbp), %rax
	movq	(%rax), %rax
	movl	12(%rax), %ecx
	addl	$1, %ecx
	movl	%ecx, 12(%rax)
	movq	-16(%rbp), %rax
	movq	(%rax), %rax
	cmpl	$0, 12(%rax)
	jne	.LBB71_18
# %bb.17:                               # %if.then55
                                        #   in Loop: Header=BB71_2 Depth=1
	movq	-16(%rbp), %rax
	movq	(%rax), %rax
	movl	16(%rax), %ecx
	addl	$1, %ecx
	movl	%ecx, 16(%rax)
.LBB71_18:                              # %if.end58
                                        #   in Loop: Header=BB71_2 Depth=1
	jmp	.LBB71_2
.LBB71_19:                              # %while.end
	jmp	.LBB71_41
.LBB71_20:                              # %if.else59
	jmp	.LBB71_21
.LBB71_21:                              # %while.body60
                                        # =>This Inner Loop Header: Depth=1
	movq	-16(%rbp), %rax
	movl	108(%rax), %eax
	movq	-16(%rbp), %rcx
	cmpl	112(%rcx), %eax
	jl	.LBB71_23
# %bb.22:                               # %if.then65
	jmp	.LBB71_40
.LBB71_23:                              # %if.end66
                                        #   in Loop: Header=BB71_21 Depth=1
	movq	-16(%rbp), %rax
	movq	(%rax), %rax
	cmpl	$0, 8(%rax)
	jne	.LBB71_25
# %bb.24:                               # %if.then71
	jmp	.LBB71_40
.LBB71_25:                              # %if.end72
                                        #   in Loop: Header=BB71_21 Depth=1
	movq	-16(%rbp), %rax
	cmpl	$0, 16(%rax)
	jne	.LBB71_27
# %bb.26:                               # %if.then75
	jmp	.LBB71_40
.LBB71_27:                              # %if.end76
                                        #   in Loop: Header=BB71_21 Depth=1
	movb	$1, -17(%rbp)
	movq	-16(%rbp), %rax
	movq	(%rax), %rax
	movq	(%rax), %rax
	movzbl	(%rax), %eax
	movl	%eax, -24(%rbp)
	movl	-24(%rbp), %eax
	movq	-16(%rbp), %rcx
	cmpl	92(%rcx), %eax
	je	.LBB71_30
# %bb.28:                               # %land.lhs.true84
                                        #   in Loop: Header=BB71_21 Depth=1
	movq	-16(%rbp), %rax
	cmpl	$1, 96(%rax)
	jne	.LBB71_30
# %bb.29:                               # %if.then88
                                        #   in Loop: Header=BB71_21 Depth=1
	movq	-16(%rbp), %rax
	movl	92(%rax), %eax
	movb	%al, -18(%rbp)
	movq	-16(%rbp), %rax
	movl	648(%rax), %eax
	shll	$8, %eax
	movq	-16(%rbp), %rcx
	movl	648(%rcx), %ecx
	shrl	$24, %ecx
	movzbl	-18(%rbp), %edx
	xorl	%edx, %ecx
	movl	%ecx, %ecx
	xorl	BZ2_crc32Table(,%rcx,4), %eax
	movq	-16(%rbp), %rcx
	movl	%eax, 648(%rcx)
	movq	-16(%rbp), %rax
	movq	-16(%rbp), %rcx
	movl	92(%rcx), %ecx
	movb	$1, 128(%rax,%rcx)
	movb	-18(%rbp), %al
	movq	-16(%rbp), %rcx
	movq	64(%rcx), %rcx
	movq	-16(%rbp), %rdx
	movslq	108(%rdx), %rdx
	movb	%al, (%rcx,%rdx)
	movq	-16(%rbp), %rax
	movl	108(%rax), %ecx
	addl	$1, %ecx
	movl	%ecx, 108(%rax)
	movl	-24(%rbp), %eax
	movq	-16(%rbp), %rcx
	movl	%eax, 92(%rcx)
	jmp	.LBB71_37
.LBB71_30:                              # %if.else113
                                        #   in Loop: Header=BB71_21 Depth=1
	movl	-24(%rbp), %eax
	movq	-16(%rbp), %rcx
	cmpl	92(%rcx), %eax
	jne	.LBB71_32
# %bb.31:                               # %lor.lhs.false117
                                        #   in Loop: Header=BB71_21 Depth=1
	movq	-16(%rbp), %rax
	cmpl	$255, 96(%rax)
	jne	.LBB71_35
.LBB71_32:                              # %if.then121
                                        #   in Loop: Header=BB71_21 Depth=1
	movq	-16(%rbp), %rax
	cmpl	$256, 92(%rax)          # imm = 0x100
	jae	.LBB71_34
# %bb.33:                               # %if.then125
                                        #   in Loop: Header=BB71_21 Depth=1
	movq	-16(%rbp), %rdi
	callq	add_pair_to_block
.LBB71_34:                              # %if.end126
                                        #   in Loop: Header=BB71_21 Depth=1
	movl	-24(%rbp), %eax
	movq	-16(%rbp), %rcx
	movl	%eax, 92(%rcx)
	movq	-16(%rbp), %rax
	movl	$1, 96(%rax)
	jmp	.LBB71_36
.LBB71_35:                              # %if.else129
                                        #   in Loop: Header=BB71_21 Depth=1
	movq	-16(%rbp), %rax
	movl	96(%rax), %ecx
	addl	$1, %ecx
	movl	%ecx, 96(%rax)
.LBB71_36:                              # %if.end132
                                        #   in Loop: Header=BB71_21 Depth=1
	jmp	.LBB71_37
.LBB71_37:                              # %if.end133
                                        #   in Loop: Header=BB71_21 Depth=1
	movq	-16(%rbp), %rax
	movq	(%rax), %rax
	movq	(%rax), %rcx
	addq	$1, %rcx
	movq	%rcx, (%rax)
	movq	-16(%rbp), %rax
	movq	(%rax), %rax
	movl	8(%rax), %ecx
	addl	$-1, %ecx
	movl	%ecx, 8(%rax)
	movq	-16(%rbp), %rax
	movq	(%rax), %rax
	movl	12(%rax), %ecx
	addl	$1, %ecx
	movl	%ecx, 12(%rax)
	movq	-16(%rbp), %rax
	movq	(%rax), %rax
	cmpl	$0, 12(%rax)
	jne	.LBB71_39
# %bb.38:                               # %if.then147
                                        #   in Loop: Header=BB71_21 Depth=1
	movq	-16(%rbp), %rax
	movq	(%rax), %rax
	movl	16(%rax), %ecx
	addl	$1, %ecx
	movl	%ecx, 16(%rax)
.LBB71_39:                              # %if.end151
                                        #   in Loop: Header=BB71_21 Depth=1
	movq	-16(%rbp), %rax
	movl	16(%rax), %ecx
	addl	$-1, %ecx
	movl	%ecx, 16(%rax)
	jmp	.LBB71_21
.LBB71_40:                              # %while.end154
	jmp	.LBB71_41
.LBB71_41:                              # %if.end155
	movb	-17(%rbp), %bl
	cmpl	$1903364651, -32(%rbp)  # imm = 0x71730A2B
	jne	.LBB71_43
.LBB71_42:
	movzbl	%bl, %eax
	addq	$24, %rsp
	popq	%rbx
	popq	%rbp
	.cfi_def_cfa %rsp, 8
	retq
.LBB71_43:                              # %func_exit
	.cfi_def_cfa %rbp, 16
	callq	detect_breach
	jmp	.LBB71_42
.Lfunc_end71:
	.size	copy_input_until_stop.31, .Lfunc_end71-copy_input_until_stop.31
	.cfi_endproc
                                        # -- End function
	.p2align	4, 0x90         # -- Begin function unRLE_obuf_to_output_SMALL.32
	.type	unRLE_obuf_to_output_SMALL.32,@function
unRLE_obuf_to_output_SMALL.32:          # @unRLE_obuf_to_output_SMALL.32
	.cfi_startproc
# %bb.0:                                # %entry
	pushq	%rbp
	.cfi_def_cfa_offset 16
	.cfi_offset %rbp, -16
	movq	%rsp, %rbp
	.cfi_def_cfa_register %rbp
	pushq	%rbx
	subq	$24, %rsp
	.cfi_offset %rbx, -24
	movl	$534729184, -32(%rbp)   # imm = 0x1FDF51E0
	movq	%rdi, -24(%rbp)
	movq	-24(%rbp), %rax
	cmpb	$0, 20(%rax)
	je	.LBB72_48
# %bb.1:                                # %if.then
	jmp	.LBB72_2
.LBB72_2:                               # %while.body
                                        # =>This Loop Header: Depth=1
                                        #     Child Loop BB72_3 Depth 2
	jmp	.LBB72_3
.LBB72_3:                               # %while.body2
                                        #   Parent Loop BB72_2 Depth=1
                                        # =>  This Inner Loop Header: Depth=2
	movq	-24(%rbp), %rax
	movq	(%rax), %rax
	cmpl	$0, 32(%rax)
	jne	.LBB72_5
# %bb.4:                                # %if.then3
	movb	$0, -25(%rbp)
	jmp	.LBB72_75
.LBB72_5:                               # %if.end
                                        #   in Loop: Header=BB72_3 Depth=2
	movq	-24(%rbp), %rax
	cmpl	$0, 16(%rax)
	jne	.LBB72_7
# %bb.6:                                # %if.then5
                                        #   in Loop: Header=BB72_2 Depth=1
	jmp	.LBB72_10
.LBB72_7:                               # %if.end6
                                        #   in Loop: Header=BB72_3 Depth=2
	movq	-24(%rbp), %rax
	movb	12(%rax), %al
	movq	-24(%rbp), %rcx
	movq	(%rcx), %rcx
	movq	24(%rcx), %rcx
	movb	%al, (%rcx)
	movq	-24(%rbp), %rax
	movl	3184(%rax), %eax
	shll	$8, %eax
	movq	-24(%rbp), %rcx
	movl	3184(%rcx), %ecx
	shrl	$24, %ecx
	movq	-24(%rbp), %rdx
	movzbl	12(%rdx), %edx
	xorl	%edx, %ecx
	movl	%ecx, %ecx
	xorl	BZ2_crc32Table(,%rcx,4), %eax
	movq	-24(%rbp), %rcx
	movl	%eax, 3184(%rcx)
	movq	-24(%rbp), %rax
	movl	16(%rax), %ecx
	addl	$-1, %ecx
	movl	%ecx, 16(%rax)
	movq	-24(%rbp), %rax
	movq	(%rax), %rax
	movq	24(%rax), %rcx
	addq	$1, %rcx
	movq	%rcx, 24(%rax)
	movq	-24(%rbp), %rax
	movq	(%rax), %rax
	movl	32(%rax), %ecx
	addl	$-1, %ecx
	movl	%ecx, 32(%rax)
	movq	-24(%rbp), %rax
	movq	(%rax), %rax
	movl	36(%rax), %ecx
	addl	$1, %ecx
	movl	%ecx, 36(%rax)
	movq	-24(%rbp), %rax
	movq	(%rax), %rax
	cmpl	$0, 36(%rax)
	jne	.LBB72_9
# %bb.8:                                # %if.then23
                                        #   in Loop: Header=BB72_3 Depth=2
	movq	-24(%rbp), %rax
	movq	(%rax), %rax
	movl	40(%rax), %ecx
	addl	$1, %ecx
	movl	%ecx, 40(%rax)
.LBB72_9:                               # %if.end26
                                        #   in Loop: Header=BB72_3 Depth=2
	jmp	.LBB72_3
.LBB72_10:                              # %while.end
                                        #   in Loop: Header=BB72_2 Depth=1
	movq	-24(%rbp), %rax
	movl	1092(%rax), %eax
	movq	-24(%rbp), %rcx
	movl	64080(%rcx), %ecx
	addl	$1, %ecx
	cmpl	%ecx, %eax
	jne	.LBB72_12
# %bb.11:                               # %if.then29
	movb	$0, -25(%rbp)
	jmp	.LBB72_75
.LBB72_12:                              # %if.end30
                                        #   in Loop: Header=BB72_2 Depth=1
	movq	-24(%rbp), %rax
	movl	1092(%rax), %eax
	movq	-24(%rbp), %rcx
	movl	64080(%rcx), %ecx
	addl	$1, %ecx
	cmpl	%ecx, %eax
	jle	.LBB72_14
# %bb.13:                               # %if.then36
	movb	$1, -25(%rbp)
	jmp	.LBB72_75
.LBB72_14:                              # %if.end37
                                        #   in Loop: Header=BB72_2 Depth=1
	movq	-24(%rbp), %rax
	movl	$1, 16(%rax)
	movq	-24(%rbp), %rax
	movl	64(%rax), %eax
	movq	-24(%rbp), %rcx
	movb	%al, 12(%rcx)
	movq	-24(%rbp), %rax
	movl	60(%rax), %edi
	movq	-24(%rbp), %rsi
	addq	$1096, %rsi             # imm = 0x448
	callq	BZ2_indexIntoF
	movb	%al, -9(%rbp)
	movq	-24(%rbp), %rax
	movq	3160(%rax), %rax
	movq	-24(%rbp), %rcx
	movl	60(%rcx), %ecx
	movzwl	(%rax,%rcx,2), %eax
	movq	-24(%rbp), %rcx
	movq	3168(%rcx), %rcx
	movq	-24(%rbp), %rdx
	movl	60(%rdx), %edx
	shrl	$1, %edx
	movl	%edx, %edx
	movzbl	(%rcx,%rdx), %edx
	movq	-24(%rbp), %rcx
	movl	60(%rcx), %ecx
	shll	$2, %ecx
	andl	$4, %ecx
                                        # kill: def $cl killed $ecx
	shrl	%cl, %edx
	andl	$15, %edx
	shll	$16, %edx
	orl	%edx, %eax
	movq	-24(%rbp), %rcx
	movl	%eax, 60(%rcx)
	movq	-24(%rbp), %rax
	cmpl	$0, 24(%rax)
	jne	.LBB72_18
# %bb.15:                               # %if.then59
                                        #   in Loop: Header=BB72_2 Depth=1
	movq	-24(%rbp), %rax
	movslq	28(%rax), %rax
	movl	BZ2_rNums(,%rax,4), %eax
	movq	-24(%rbp), %rcx
	movl	%eax, 24(%rcx)
	movq	-24(%rbp), %rax
	movl	28(%rax), %ecx
	addl	$1, %ecx
	movl	%ecx, 28(%rax)
	movq	-24(%rbp), %rax
	cmpl	$512, 28(%rax)          # imm = 0x200
	jne	.LBB72_17
# %bb.16:                               # %if.then68
                                        #   in Loop: Header=BB72_2 Depth=1
	movq	-24(%rbp), %rax
	movl	$0, 28(%rax)
.LBB72_17:                              # %if.end70
                                        #   in Loop: Header=BB72_2 Depth=1
	jmp	.LBB72_18
.LBB72_18:                              # %if.end71
                                        #   in Loop: Header=BB72_2 Depth=1
	xorl	%eax, %eax
	movq	-24(%rbp), %rcx
	movl	24(%rcx), %edx
	addl	$-1, %edx
	movl	%edx, 24(%rcx)
	movq	-24(%rbp), %rcx
	movl	24(%rcx), %ecx
	cmpl	$1, %ecx
	movl	$1, %ecx
	cmovel	%ecx, %eax
	movzbl	-9(%rbp), %ecx
	xorl	%eax, %ecx
	movb	%cl, -9(%rbp)
	movq	-24(%rbp), %rax
	movl	1092(%rax), %ecx
	addl	$1, %ecx
	movl	%ecx, 1092(%rax)
	movq	-24(%rbp), %rax
	movl	1092(%rax), %eax
	movq	-24(%rbp), %rcx
	movl	64080(%rcx), %ecx
	addl	$1, %ecx
	cmpl	%ecx, %eax
	jne	.LBB72_21
# %bb.19:                               # %if.then87
                                        #   in Loop: Header=BB72_2 Depth=1
	jmp	.LBB72_20
.LBB72_20:                              # %while.body.backedge
                                        #   in Loop: Header=BB72_2 Depth=1
	jmp	.LBB72_2
.LBB72_21:                              # %if.end88
                                        #   in Loop: Header=BB72_2 Depth=1
	movzbl	-9(%rbp), %eax
	movq	-24(%rbp), %rcx
	cmpl	64(%rcx), %eax
	je	.LBB72_23
# %bb.22:                               # %if.then93
                                        #   in Loop: Header=BB72_2 Depth=1
	movzbl	-9(%rbp), %eax
	movq	-24(%rbp), %rcx
	movl	%eax, 64(%rcx)
	jmp	.LBB72_20
.LBB72_23:                              # %if.end96
                                        #   in Loop: Header=BB72_2 Depth=1
	movq	-24(%rbp), %rax
	movl	$2, 16(%rax)
	movq	-24(%rbp), %rax
	movl	60(%rax), %edi
	movq	-24(%rbp), %rsi
	addq	$1096, %rsi             # imm = 0x448
	callq	BZ2_indexIntoF
	movb	%al, -9(%rbp)
	movq	-24(%rbp), %rax
	movq	3160(%rax), %rax
	movq	-24(%rbp), %rcx
	movl	60(%rcx), %ecx
	movzwl	(%rax,%rcx,2), %eax
	movq	-24(%rbp), %rcx
	movq	3168(%rcx), %rcx
	movq	-24(%rbp), %rdx
	movl	60(%rdx), %edx
	shrl	$1, %edx
	movl	%edx, %edx
	movzbl	(%rcx,%rdx), %edx
	movq	-24(%rbp), %rcx
	movl	60(%rcx), %ecx
	shll	$2, %ecx
	andl	$4, %ecx
                                        # kill: def $cl killed $ecx
	shrl	%cl, %edx
	andl	$15, %edx
	shll	$16, %edx
	orl	%edx, %eax
	movq	-24(%rbp), %rcx
	movl	%eax, 60(%rcx)
	movq	-24(%rbp), %rax
	cmpl	$0, 24(%rax)
	jne	.LBB72_27
# %bb.24:                               # %if.then125
                                        #   in Loop: Header=BB72_2 Depth=1
	movq	-24(%rbp), %rax
	movslq	28(%rax), %rax
	movl	BZ2_rNums(,%rax,4), %eax
	movq	-24(%rbp), %rcx
	movl	%eax, 24(%rcx)
	movq	-24(%rbp), %rax
	movl	28(%rax), %ecx
	addl	$1, %ecx
	movl	%ecx, 28(%rax)
	movq	-24(%rbp), %rax
	cmpl	$512, 28(%rax)          # imm = 0x200
	jne	.LBB72_26
# %bb.25:                               # %if.then135
                                        #   in Loop: Header=BB72_2 Depth=1
	movq	-24(%rbp), %rax
	movl	$0, 28(%rax)
.LBB72_26:                              # %if.end137
                                        #   in Loop: Header=BB72_2 Depth=1
	jmp	.LBB72_27
.LBB72_27:                              # %if.end138
                                        #   in Loop: Header=BB72_2 Depth=1
	xorl	%eax, %eax
	movq	-24(%rbp), %rcx
	movl	24(%rcx), %edx
	addl	$-1, %edx
	movl	%edx, 24(%rcx)
	movq	-24(%rbp), %rcx
	movl	24(%rcx), %ecx
	cmpl	$1, %ecx
	movl	$1, %ecx
	cmovel	%ecx, %eax
	movzbl	-9(%rbp), %ecx
	xorl	%eax, %ecx
	movb	%cl, -9(%rbp)
	movq	-24(%rbp), %rax
	movl	1092(%rax), %ecx
	addl	$1, %ecx
	movl	%ecx, 1092(%rax)
	movq	-24(%rbp), %rax
	movl	1092(%rax), %eax
	movq	-24(%rbp), %rcx
	movl	64080(%rcx), %ecx
	addl	$1, %ecx
	cmpl	%ecx, %eax
	jne	.LBB72_29
# %bb.28:                               # %if.then155
                                        #   in Loop: Header=BB72_2 Depth=1
	jmp	.LBB72_20
.LBB72_29:                              # %if.end156
                                        #   in Loop: Header=BB72_2 Depth=1
	movzbl	-9(%rbp), %eax
	movq	-24(%rbp), %rcx
	cmpl	64(%rcx), %eax
	je	.LBB72_31
# %bb.30:                               # %if.then161
                                        #   in Loop: Header=BB72_2 Depth=1
	movzbl	-9(%rbp), %eax
	movq	-24(%rbp), %rcx
	movl	%eax, 64(%rcx)
	jmp	.LBB72_20
.LBB72_31:                              # %if.end164
                                        #   in Loop: Header=BB72_2 Depth=1
	movq	-24(%rbp), %rax
	movl	$3, 16(%rax)
	movq	-24(%rbp), %rax
	movl	60(%rax), %edi
	movq	-24(%rbp), %rsi
	addq	$1096, %rsi             # imm = 0x448
	callq	BZ2_indexIntoF
	movb	%al, -9(%rbp)
	movq	-24(%rbp), %rax
	movq	3160(%rax), %rax
	movq	-24(%rbp), %rcx
	movl	60(%rcx), %ecx
	movzwl	(%rax,%rcx,2), %eax
	movq	-24(%rbp), %rcx
	movq	3168(%rcx), %rcx
	movq	-24(%rbp), %rdx
	movl	60(%rdx), %edx
	shrl	$1, %edx
	movl	%edx, %edx
	movzbl	(%rcx,%rdx), %edx
	movq	-24(%rbp), %rcx
	movl	60(%rcx), %ecx
	shll	$2, %ecx
	andl	$4, %ecx
                                        # kill: def $cl killed $ecx
	shrl	%cl, %edx
	andl	$15, %edx
	shll	$16, %edx
	orl	%edx, %eax
	movq	-24(%rbp), %rcx
	movl	%eax, 60(%rcx)
	movq	-24(%rbp), %rax
	cmpl	$0, 24(%rax)
	jne	.LBB72_35
# %bb.32:                               # %if.then193
                                        #   in Loop: Header=BB72_2 Depth=1
	movq	-24(%rbp), %rax
	movslq	28(%rax), %rax
	movl	BZ2_rNums(,%rax,4), %eax
	movq	-24(%rbp), %rcx
	movl	%eax, 24(%rcx)
	movq	-24(%rbp), %rax
	movl	28(%rax), %ecx
	addl	$1, %ecx
	movl	%ecx, 28(%rax)
	movq	-24(%rbp), %rax
	cmpl	$512, 28(%rax)          # imm = 0x200
	jne	.LBB72_34
# %bb.33:                               # %if.then203
                                        #   in Loop: Header=BB72_2 Depth=1
	movq	-24(%rbp), %rax
	movl	$0, 28(%rax)
.LBB72_34:                              # %if.end205
                                        #   in Loop: Header=BB72_2 Depth=1
	jmp	.LBB72_35
.LBB72_35:                              # %if.end206
                                        #   in Loop: Header=BB72_2 Depth=1
	xorl	%eax, %eax
	movq	-24(%rbp), %rcx
	movl	24(%rcx), %edx
	addl	$-1, %edx
	movl	%edx, 24(%rcx)
	movq	-24(%rbp), %rcx
	movl	24(%rcx), %ecx
	cmpl	$1, %ecx
	movl	$1, %ecx
	cmovel	%ecx, %eax
	movzbl	-9(%rbp), %ecx
	xorl	%eax, %ecx
	movb	%cl, -9(%rbp)
	movq	-24(%rbp), %rax
	movl	1092(%rax), %ecx
	addl	$1, %ecx
	movl	%ecx, 1092(%rax)
	movq	-24(%rbp), %rax
	movl	1092(%rax), %eax
	movq	-24(%rbp), %rcx
	movl	64080(%rcx), %ecx
	addl	$1, %ecx
	cmpl	%ecx, %eax
	jne	.LBB72_37
# %bb.36:                               # %if.then223
                                        #   in Loop: Header=BB72_2 Depth=1
	jmp	.LBB72_20
.LBB72_37:                              # %if.end224
                                        #   in Loop: Header=BB72_2 Depth=1
	movzbl	-9(%rbp), %eax
	movq	-24(%rbp), %rcx
	cmpl	64(%rcx), %eax
	je	.LBB72_39
# %bb.38:                               # %if.then229
                                        #   in Loop: Header=BB72_2 Depth=1
	movzbl	-9(%rbp), %eax
	movq	-24(%rbp), %rcx
	movl	%eax, 64(%rcx)
	jmp	.LBB72_20
.LBB72_39:                              # %if.end232
                                        #   in Loop: Header=BB72_2 Depth=1
	movq	-24(%rbp), %rax
	movl	60(%rax), %edi
	movq	-24(%rbp), %rsi
	addq	$1096, %rsi             # imm = 0x448
	callq	BZ2_indexIntoF
	movb	%al, -9(%rbp)
	movq	-24(%rbp), %rax
	movq	3160(%rax), %rax
	movq	-24(%rbp), %rcx
	movl	60(%rcx), %ecx
	movzwl	(%rax,%rcx,2), %eax
	movq	-24(%rbp), %rcx
	movq	3168(%rcx), %rcx
	movq	-24(%rbp), %rdx
	movl	60(%rdx), %edx
	shrl	$1, %edx
	movl	%edx, %edx
	movzbl	(%rcx,%rdx), %edx
	movq	-24(%rbp), %rcx
	movl	60(%rcx), %ecx
	shll	$2, %ecx
	andl	$4, %ecx
                                        # kill: def $cl killed $ecx
	shrl	%cl, %edx
	andl	$15, %edx
	shll	$16, %edx
	orl	%edx, %eax
	movq	-24(%rbp), %rcx
	movl	%eax, 60(%rcx)
	movq	-24(%rbp), %rax
	cmpl	$0, 24(%rax)
	jne	.LBB72_43
# %bb.40:                               # %if.then260
                                        #   in Loop: Header=BB72_2 Depth=1
	movq	-24(%rbp), %rax
	movslq	28(%rax), %rax
	movl	BZ2_rNums(,%rax,4), %eax
	movq	-24(%rbp), %rcx
	movl	%eax, 24(%rcx)
	movq	-24(%rbp), %rax
	movl	28(%rax), %ecx
	addl	$1, %ecx
	movl	%ecx, 28(%rax)
	movq	-24(%rbp), %rax
	cmpl	$512, 28(%rax)          # imm = 0x200
	jne	.LBB72_42
# %bb.41:                               # %if.then270
                                        #   in Loop: Header=BB72_2 Depth=1
	movq	-24(%rbp), %rax
	movl	$0, 28(%rax)
.LBB72_42:                              # %if.end272
                                        #   in Loop: Header=BB72_2 Depth=1
	jmp	.LBB72_43
.LBB72_43:                              # %if.end273
                                        #   in Loop: Header=BB72_2 Depth=1
	xorl	%eax, %eax
	movq	-24(%rbp), %rcx
	movl	24(%rcx), %edx
	addl	$-1, %edx
	movl	%edx, 24(%rcx)
	movq	-24(%rbp), %rcx
	movl	24(%rcx), %ecx
	cmpl	$1, %ecx
	movl	$1, %ecx
	cmovel	%ecx, %eax
	movzbl	-9(%rbp), %ecx
	xorl	%eax, %ecx
	movb	%cl, -9(%rbp)
	movq	-24(%rbp), %rax
	movl	1092(%rax), %ecx
	addl	$1, %ecx
	movl	%ecx, 1092(%rax)
	movzbl	-9(%rbp), %eax
	addl	$4, %eax
	movq	-24(%rbp), %rcx
	movl	%eax, 16(%rcx)
	movq	-24(%rbp), %rax
	movl	60(%rax), %edi
	movq	-24(%rbp), %rsi
	addq	$1096, %rsi             # imm = 0x448
	callq	BZ2_indexIntoF
	movq	-24(%rbp), %rcx
	movl	%eax, 64(%rcx)
	movq	-24(%rbp), %rax
	movq	3160(%rax), %rax
	movq	-24(%rbp), %rcx
	movl	60(%rcx), %ecx
	movzwl	(%rax,%rcx,2), %eax
	movq	-24(%rbp), %rcx
	movq	3168(%rcx), %rcx
	movq	-24(%rbp), %rdx
	movl	60(%rdx), %edx
	shrl	$1, %edx
	movl	%edx, %edx
	movzbl	(%rcx,%rdx), %edx
	movq	-24(%rbp), %rcx
	movl	60(%rcx), %ecx
	shll	$2, %ecx
	andl	$4, %ecx
                                        # kill: def $cl killed $ecx
	shrl	%cl, %edx
	andl	$15, %edx
	shll	$16, %edx
	orl	%edx, %eax
	movq	-24(%rbp), %rcx
	movl	%eax, 60(%rcx)
	movq	-24(%rbp), %rax
	cmpl	$0, 24(%rax)
	jne	.LBB72_47
# %bb.44:                               # %if.then315
                                        #   in Loop: Header=BB72_2 Depth=1
	movq	-24(%rbp), %rax
	movslq	28(%rax), %rax
	movl	BZ2_rNums(,%rax,4), %eax
	movq	-24(%rbp), %rcx
	movl	%eax, 24(%rcx)
	movq	-24(%rbp), %rax
	movl	28(%rax), %ecx
	addl	$1, %ecx
	movl	%ecx, 28(%rax)
	movq	-24(%rbp), %rax
	cmpl	$512, 28(%rax)          # imm = 0x200
	jne	.LBB72_46
# %bb.45:                               # %if.then325
                                        #   in Loop: Header=BB72_2 Depth=1
	movq	-24(%rbp), %rax
	movl	$0, 28(%rax)
.LBB72_46:                              # %if.end327
                                        #   in Loop: Header=BB72_2 Depth=1
	jmp	.LBB72_47
.LBB72_47:                              # %if.end328
                                        #   in Loop: Header=BB72_2 Depth=1
	xorl	%eax, %eax
	movq	-24(%rbp), %rcx
	movl	24(%rcx), %edx
	addl	$-1, %edx
	movl	%edx, 24(%rcx)
	movq	-24(%rbp), %rcx
	movl	24(%rcx), %ecx
	cmpl	$1, %ecx
	movl	$1, %ecx
	cmovel	%ecx, %eax
	movq	-24(%rbp), %rcx
	xorl	64(%rcx), %eax
	movl	%eax, 64(%rcx)
	movq	-24(%rbp), %rax
	movl	1092(%rax), %ecx
	addl	$1, %ecx
	movl	%ecx, 1092(%rax)
	jmp	.LBB72_20
.LBB72_48:                              # %if.else
	jmp	.LBB72_49
.LBB72_49:                              # %while.body339
                                        # =>This Loop Header: Depth=1
                                        #     Child Loop BB72_50 Depth 2
	jmp	.LBB72_50
.LBB72_50:                              # %while.body341
                                        #   Parent Loop BB72_49 Depth=1
                                        # =>  This Inner Loop Header: Depth=2
	movq	-24(%rbp), %rax
	movq	(%rax), %rax
	cmpl	$0, 32(%rax)
	jne	.LBB72_52
# %bb.51:                               # %if.then346
	movb	$0, -25(%rbp)
	jmp	.LBB72_75
.LBB72_52:                              # %if.end347
                                        #   in Loop: Header=BB72_50 Depth=2
	movq	-24(%rbp), %rax
	cmpl	$0, 16(%rax)
	jne	.LBB72_54
# %bb.53:                               # %if.then351
                                        #   in Loop: Header=BB72_49 Depth=1
	jmp	.LBB72_57
.LBB72_54:                              # %if.end352
                                        #   in Loop: Header=BB72_50 Depth=2
	movq	-24(%rbp), %rax
	movb	12(%rax), %al
	movq	-24(%rbp), %rcx
	movq	(%rcx), %rcx
	movq	24(%rcx), %rcx
	movb	%al, (%rcx)
	movq	-24(%rbp), %rax
	movl	3184(%rax), %eax
	shll	$8, %eax
	movq	-24(%rbp), %rcx
	movl	3184(%rcx), %ecx
	shrl	$24, %ecx
	movq	-24(%rbp), %rdx
	movzbl	12(%rdx), %edx
	xorl	%edx, %ecx
	movl	%ecx, %ecx
	xorl	BZ2_crc32Table(,%rcx,4), %eax
	movq	-24(%rbp), %rcx
	movl	%eax, 3184(%rcx)
	movq	-24(%rbp), %rax
	movl	16(%rax), %ecx
	addl	$-1, %ecx
	movl	%ecx, 16(%rax)
	movq	-24(%rbp), %rax
	movq	(%rax), %rax
	movq	24(%rax), %rcx
	addq	$1, %rcx
	movq	%rcx, 24(%rax)
	movq	-24(%rbp), %rax
	movq	(%rax), %rax
	movl	32(%rax), %ecx
	addl	$-1, %ecx
	movl	%ecx, 32(%rax)
	movq	-24(%rbp), %rax
	movq	(%rax), %rax
	movl	36(%rax), %ecx
	addl	$1, %ecx
	movl	%ecx, 36(%rax)
	movq	-24(%rbp), %rax
	movq	(%rax), %rax
	cmpl	$0, 36(%rax)
	jne	.LBB72_56
# %bb.55:                               # %if.then382
                                        #   in Loop: Header=BB72_50 Depth=2
	movq	-24(%rbp), %rax
	movq	(%rax), %rax
	movl	40(%rax), %ecx
	addl	$1, %ecx
	movl	%ecx, 40(%rax)
.LBB72_56:                              # %if.end386
                                        #   in Loop: Header=BB72_50 Depth=2
	jmp	.LBB72_50
.LBB72_57:                              # %while.end387
                                        #   in Loop: Header=BB72_49 Depth=1
	movq	-24(%rbp), %rax
	movl	1092(%rax), %eax
	movq	-24(%rbp), %rcx
	movl	64080(%rcx), %ecx
	addl	$1, %ecx
	cmpl	%ecx, %eax
	jne	.LBB72_59
# %bb.58:                               # %if.then393
	movb	$0, -25(%rbp)
	jmp	.LBB72_75
.LBB72_59:                              # %if.end394
                                        #   in Loop: Header=BB72_49 Depth=1
	movq	-24(%rbp), %rax
	movl	1092(%rax), %eax
	movq	-24(%rbp), %rcx
	movl	64080(%rcx), %ecx
	addl	$1, %ecx
	cmpl	%ecx, %eax
	jle	.LBB72_61
# %bb.60:                               # %if.then400
	movb	$1, -25(%rbp)
	jmp	.LBB72_75
.LBB72_61:                              # %if.end401
                                        #   in Loop: Header=BB72_49 Depth=1
	movq	-24(%rbp), %rax
	movl	$1, 16(%rax)
	movq	-24(%rbp), %rax
	movl	64(%rax), %eax
	movq	-24(%rbp), %rcx
	movb	%al, 12(%rcx)
	movq	-24(%rbp), %rax
	movl	60(%rax), %edi
	movq	-24(%rbp), %rsi
	addq	$1096, %rsi             # imm = 0x448
	callq	BZ2_indexIntoF
	movb	%al, -9(%rbp)
	movq	-24(%rbp), %rax
	movq	3160(%rax), %rax
	movq	-24(%rbp), %rcx
	movl	60(%rcx), %ecx
	movzwl	(%rax,%rcx,2), %eax
	movq	-24(%rbp), %rcx
	movq	3168(%rcx), %rcx
	movq	-24(%rbp), %rdx
	movl	60(%rdx), %edx
	shrl	$1, %edx
	movl	%edx, %edx
	movzbl	(%rcx,%rdx), %edx
	movq	-24(%rbp), %rcx
	movl	60(%rcx), %ecx
	shll	$2, %ecx
	andl	$4, %ecx
                                        # kill: def $cl killed $ecx
	shrl	%cl, %edx
	andl	$15, %edx
	shll	$16, %edx
	orl	%edx, %eax
	movq	-24(%rbp), %rcx
	movl	%eax, 60(%rcx)
	movq	-24(%rbp), %rax
	movl	1092(%rax), %ecx
	addl	$1, %ecx
	movl	%ecx, 1092(%rax)
	movq	-24(%rbp), %rax
	movl	1092(%rax), %eax
	movq	-24(%rbp), %rcx
	movl	64080(%rcx), %ecx
	addl	$1, %ecx
	cmpl	%ecx, %eax
	jne	.LBB72_64
# %bb.62:                               # %if.then437
                                        #   in Loop: Header=BB72_49 Depth=1
	jmp	.LBB72_63
.LBB72_63:                              # %while.body339.backedge
                                        #   in Loop: Header=BB72_49 Depth=1
	jmp	.LBB72_49
.LBB72_64:                              # %if.end438
                                        #   in Loop: Header=BB72_49 Depth=1
	movzbl	-9(%rbp), %eax
	movq	-24(%rbp), %rcx
	cmpl	64(%rcx), %eax
	je	.LBB72_66
# %bb.65:                               # %if.then443
                                        #   in Loop: Header=BB72_49 Depth=1
	movzbl	-9(%rbp), %eax
	movq	-24(%rbp), %rcx
	movl	%eax, 64(%rcx)
	jmp	.LBB72_63
.LBB72_66:                              # %if.end446
                                        #   in Loop: Header=BB72_49 Depth=1
	movq	-24(%rbp), %rax
	movl	$2, 16(%rax)
	movq	-24(%rbp), %rax
	movl	60(%rax), %edi
	movq	-24(%rbp), %rsi
	addq	$1096, %rsi             # imm = 0x448
	callq	BZ2_indexIntoF
	movb	%al, -9(%rbp)
	movq	-24(%rbp), %rax
	movq	3160(%rax), %rax
	movq	-24(%rbp), %rcx
	movl	60(%rcx), %ecx
	movzwl	(%rax,%rcx,2), %eax
	movq	-24(%rbp), %rcx
	movq	3168(%rcx), %rcx
	movq	-24(%rbp), %rdx
	movl	60(%rdx), %edx
	shrl	$1, %edx
	movl	%edx, %edx
	movzbl	(%rcx,%rdx), %edx
	movq	-24(%rbp), %rcx
	movl	60(%rcx), %ecx
	shll	$2, %ecx
	andl	$4, %ecx
                                        # kill: def $cl killed $ecx
	shrl	%cl, %edx
	andl	$15, %edx
	shll	$16, %edx
	orl	%edx, %eax
	movq	-24(%rbp), %rcx
	movl	%eax, 60(%rcx)
	movq	-24(%rbp), %rax
	movl	1092(%rax), %ecx
	addl	$1, %ecx
	movl	%ecx, 1092(%rax)
	movq	-24(%rbp), %rax
	movl	1092(%rax), %eax
	movq	-24(%rbp), %rcx
	movl	64080(%rcx), %ecx
	addl	$1, %ecx
	cmpl	%ecx, %eax
	jne	.LBB72_68
# %bb.67:                               # %if.then479
                                        #   in Loop: Header=BB72_49 Depth=1
	jmp	.LBB72_63
.LBB72_68:                              # %if.end480
                                        #   in Loop: Header=BB72_49 Depth=1
	movzbl	-9(%rbp), %eax
	movq	-24(%rbp), %rcx
	cmpl	64(%rcx), %eax
	je	.LBB72_70
# %bb.69:                               # %if.then485
                                        #   in Loop: Header=BB72_49 Depth=1
	movzbl	-9(%rbp), %eax
	movq	-24(%rbp), %rcx
	movl	%eax, 64(%rcx)
	jmp	.LBB72_63
.LBB72_70:                              # %if.end488
                                        #   in Loop: Header=BB72_49 Depth=1
	movq	-24(%rbp), %rax
	movl	$3, 16(%rax)
	movq	-24(%rbp), %rax
	movl	60(%rax), %edi
	movq	-24(%rbp), %rsi
	addq	$1096, %rsi             # imm = 0x448
	callq	BZ2_indexIntoF
	movb	%al, -9(%rbp)
	movq	-24(%rbp), %rax
	movq	3160(%rax), %rax
	movq	-24(%rbp), %rcx
	movl	60(%rcx), %ecx
	movzwl	(%rax,%rcx,2), %eax
	movq	-24(%rbp), %rcx
	movq	3168(%rcx), %rcx
	movq	-24(%rbp), %rdx
	movl	60(%rdx), %edx
	shrl	$1, %edx
	movl	%edx, %edx
	movzbl	(%rcx,%rdx), %edx
	movq	-24(%rbp), %rcx
	movl	60(%rcx), %ecx
	shll	$2, %ecx
	andl	$4, %ecx
                                        # kill: def $cl killed $ecx
	shrl	%cl, %edx
	andl	$15, %edx
	shll	$16, %edx
	orl	%edx, %eax
	movq	-24(%rbp), %rcx
	movl	%eax, 60(%rcx)
	movq	-24(%rbp), %rax
	movl	1092(%rax), %ecx
	addl	$1, %ecx
	movl	%ecx, 1092(%rax)
	movq	-24(%rbp), %rax
	movl	1092(%rax), %eax
	movq	-24(%rbp), %rcx
	movl	64080(%rcx), %ecx
	addl	$1, %ecx
	cmpl	%ecx, %eax
	jne	.LBB72_72
# %bb.71:                               # %if.then521
                                        #   in Loop: Header=BB72_49 Depth=1
	jmp	.LBB72_63
.LBB72_72:                              # %if.end522
                                        #   in Loop: Header=BB72_49 Depth=1
	movzbl	-9(%rbp), %eax
	movq	-24(%rbp), %rcx
	cmpl	64(%rcx), %eax
	je	.LBB72_74
# %bb.73:                               # %if.then527
                                        #   in Loop: Header=BB72_49 Depth=1
	movzbl	-9(%rbp), %eax
	movq	-24(%rbp), %rcx
	movl	%eax, 64(%rcx)
	jmp	.LBB72_63
.LBB72_74:                              # %if.end530
                                        #   in Loop: Header=BB72_49 Depth=1
	movq	-24(%rbp), %rax
	movl	60(%rax), %edi
	movq	-24(%rbp), %rsi
	addq	$1096, %rsi             # imm = 0x448
	callq	BZ2_indexIntoF
	movb	%al, -9(%rbp)
	movq	-24(%rbp), %rax
	movq	3160(%rax), %rax
	movq	-24(%rbp), %rcx
	movl	60(%rcx), %ecx
	movzwl	(%rax,%rcx,2), %eax
	movq	-24(%rbp), %rcx
	movq	3168(%rcx), %rcx
	movq	-24(%rbp), %rdx
	movl	60(%rdx), %edx
	shrl	$1, %edx
	movl	%edx, %edx
	movzbl	(%rcx,%rdx), %edx
	movq	-24(%rbp), %rcx
	movl	60(%rcx), %ecx
	shll	$2, %ecx
	andl	$4, %ecx
                                        # kill: def $cl killed $ecx
	shrl	%cl, %edx
	andl	$15, %edx
	shll	$16, %edx
	orl	%edx, %eax
	movq	-24(%rbp), %rcx
	movl	%eax, 60(%rcx)
	movq	-24(%rbp), %rax
	movl	1092(%rax), %ecx
	addl	$1, %ecx
	movl	%ecx, 1092(%rax)
	movzbl	-9(%rbp), %eax
	addl	$4, %eax
	movq	-24(%rbp), %rcx
	movl	%eax, 16(%rcx)
	movq	-24(%rbp), %rax
	movl	60(%rax), %edi
	movq	-24(%rbp), %rsi
	addq	$1096, %rsi             # imm = 0x448
	callq	BZ2_indexIntoF
	movq	-24(%rbp), %rcx
	movl	%eax, 64(%rcx)
	movq	-24(%rbp), %rax
	movq	3160(%rax), %rax
	movq	-24(%rbp), %rcx
	movl	60(%rcx), %ecx
	movzwl	(%rax,%rcx,2), %eax
	movq	-24(%rbp), %rcx
	movq	3168(%rcx), %rcx
	movq	-24(%rbp), %rdx
	movl	60(%rdx), %edx
	shrl	$1, %edx
	movl	%edx, %edx
	movzbl	(%rcx,%rdx), %edx
	movq	-24(%rbp), %rcx
	movl	60(%rcx), %ecx
	shll	$2, %ecx
	andl	$4, %ecx
                                        # kill: def $cl killed $ecx
	shrl	%cl, %edx
	andl	$15, %edx
	shll	$16, %edx
	orl	%edx, %eax
	movq	-24(%rbp), %rcx
	movl	%eax, 60(%rcx)
	movq	-24(%rbp), %rax
	movl	1092(%rax), %ecx
	addl	$1, %ecx
	movl	%ecx, 1092(%rax)
	jmp	.LBB72_63
.LBB72_75:                              # %return
	movb	-25(%rbp), %bl
	cmpl	$534729184, -32(%rbp)   # imm = 0x1FDF51E0
	jne	.LBB72_77
.LBB72_76:
	movzbl	%bl, %eax
	addq	$24, %rsp
	popq	%rbx
	popq	%rbp
	.cfi_def_cfa %rsp, 8
	retq
.LBB72_77:                              # %func_exit
	.cfi_def_cfa %rbp, 16
	callq	detect_breach
	jmp	.LBB72_76
.Lfunc_end72:
	.size	unRLE_obuf_to_output_SMALL.32, .Lfunc_end72-unRLE_obuf_to_output_SMALL.32
	.cfi_endproc
                                        # -- End function
	.globl	BZ2_bzWriteClose64.33   # -- Begin function BZ2_bzWriteClose64.33
	.p2align	4, 0x90
	.type	BZ2_bzWriteClose64.33,@function
BZ2_bzWriteClose64.33:                  # @BZ2_bzWriteClose64.33
	.cfi_startproc
# %bb.0:                                # %entry
	pushq	%rbp
	.cfi_def_cfa_offset 16
	.cfi_offset %rbp, -16
	movq	%rsp, %rbp
	.cfi_def_cfa_register %rbp
	subq	$80, %rsp
	movq	16(%rbp), %rax
	movl	$683756322, -60(%rbp)   # imm = 0x28C14B22
	movq	%rdi, -16(%rbp)
	movq	%rsi, -72(%rbp)
	movl	%edx, -28(%rbp)
	movq	%rcx, -48(%rbp)
	movq	%r8, -40(%rbp)
	movq	%r9, -56(%rbp)
	movq	-72(%rbp), %rax
	movq	%rax, -8(%rbp)
	cmpq	$0, -8(%rbp)
	jne	.LBB73_6
# %bb.1:                                # %if.then
	cmpq	$0, -16(%rbp)
	je	.LBB73_3
# %bb.2:                                # %if.then2
	movq	-16(%rbp), %rax
	movl	$0, (%rax)
.LBB73_3:                               # %if.end
	cmpq	$0, -8(%rbp)
	je	.LBB73_5
# %bb.4:                                # %if.then4
	movq	-8(%rbp), %rax
	movl	$0, 5096(%rax)
.LBB73_5:                               # %if.end5
	jmp	.LBB73_71
.LBB73_6:                               # %if.end6
	movq	-8(%rbp), %rax
	cmpb	$0, 5012(%rax)
	jne	.LBB73_12
# %bb.7:                                # %if.then7
	cmpq	$0, -16(%rbp)
	je	.LBB73_9
# %bb.8:                                # %if.then9
	movq	-16(%rbp), %rax
	movl	$-1, (%rax)
.LBB73_9:                               # %if.end10
	cmpq	$0, -8(%rbp)
	je	.LBB73_11
# %bb.10:                               # %if.then12
	movq	-8(%rbp), %rax
	movl	$-1, 5096(%rax)
.LBB73_11:                              # %if.end14
	jmp	.LBB73_71
.LBB73_12:                              # %if.end15
	movq	-8(%rbp), %rax
	movq	(%rax), %rdi
	callq	ferror
	cmpl	$0, %eax
	je	.LBB73_18
# %bb.13:                               # %if.then17
	cmpq	$0, -16(%rbp)
	je	.LBB73_15
# %bb.14:                               # %if.then19
	movq	-16(%rbp), %rax
	movl	$-6, (%rax)
.LBB73_15:                              # %if.end20
	cmpq	$0, -8(%rbp)
	je	.LBB73_17
# %bb.16:                               # %if.then22
	movq	-8(%rbp), %rax
	movl	$-6, 5096(%rax)
.LBB73_17:                              # %if.end24
	jmp	.LBB73_71
.LBB73_18:                              # %if.end25
	cmpq	$0, -48(%rbp)
	je	.LBB73_20
# %bb.19:                               # %if.then27
	movq	-48(%rbp), %rax
	movl	$0, (%rax)
.LBB73_20:                              # %if.end28
	cmpq	$0, -40(%rbp)
	je	.LBB73_22
# %bb.21:                               # %if.then30
	movq	-40(%rbp), %rax
	movl	$0, (%rax)
.LBB73_22:                              # %if.end31
	cmpq	$0, -56(%rbp)
	je	.LBB73_24
# %bb.23:                               # %if.then33
	movq	-56(%rbp), %rax
	movl	$0, (%rax)
.LBB73_24:                              # %if.end34
	cmpq	$0, 16(%rbp)
	je	.LBB73_26
# %bb.25:                               # %if.then36
	movq	16(%rbp), %rax
	movl	$0, (%rax)
.LBB73_26:                              # %if.end37
	cmpl	$0, -28(%rbp)
	jne	.LBB73_49
# %bb.27:                               # %land.lhs.true
	movq	-8(%rbp), %rax
	cmpl	$0, 5096(%rax)
	jne	.LBB73_49
# %bb.28:                               # %if.then41
	jmp	.LBB73_29
.LBB73_29:                              # %while.body
                                        # =>This Inner Loop Header: Depth=1
	movq	-8(%rbp), %rax
	movl	$5000, 5048(%rax)       # imm = 0x1388
	movq	-8(%rbp), %rax
	addq	$8, %rax
	movq	-8(%rbp), %rcx
	movq	%rax, 5040(%rcx)
	movq	-8(%rbp), %rdi
	addq	$5016, %rdi             # imm = 0x1398
	movl	$2, %esi
	callq	BZ2_bzCompress
	movl	%eax, -20(%rbp)
	cmpl	$3, -20(%rbp)
	je	.LBB73_36
# %bb.30:                               # %land.lhs.true46
                                        #   in Loop: Header=BB73_29 Depth=1
	cmpl	$4, -20(%rbp)
	je	.LBB73_36
# %bb.31:                               # %if.then48
	cmpq	$0, -16(%rbp)
	je	.LBB73_33
# %bb.32:                               # %if.then50
	movl	-20(%rbp), %eax
	movq	-16(%rbp), %rcx
	movl	%eax, (%rcx)
.LBB73_33:                              # %if.end51
	cmpq	$0, -8(%rbp)
	je	.LBB73_35
# %bb.34:                               # %if.then53
	movl	-20(%rbp), %eax
	movq	-8(%rbp), %rcx
	movl	%eax, 5096(%rcx)
.LBB73_35:                              # %if.end55
	jmp	.LBB73_71
.LBB73_36:                              # %if.end56
                                        #   in Loop: Header=BB73_29 Depth=1
	movq	-8(%rbp), %rax
	cmpl	$5000, 5048(%rax)       # imm = 0x1388
	jae	.LBB73_45
# %bb.37:                               # %if.then60
                                        #   in Loop: Header=BB73_29 Depth=1
	movq	-8(%rbp), %rax
	movl	$5000, %ecx             # imm = 0x1388
	subl	5048(%rax), %ecx
	movl	%ecx, -24(%rbp)
	movq	-8(%rbp), %rdi
	addq	$8, %rdi
	movslq	-24(%rbp), %rdx
	movq	-8(%rbp), %rax
	movq	(%rax), %rcx
	movl	$1, %esi
	callq	fwrite
	movl	%eax, -64(%rbp)
	movl	-24(%rbp), %eax
	cmpl	-64(%rbp), %eax
	jne	.LBB73_39
# %bb.38:                               # %lor.lhs.false
                                        #   in Loop: Header=BB73_29 Depth=1
	movq	-8(%rbp), %rax
	movq	(%rax), %rdi
	callq	ferror
	cmpl	$0, %eax
	je	.LBB73_44
.LBB73_39:                              # %if.then73
	cmpq	$0, -16(%rbp)
	je	.LBB73_41
# %bb.40:                               # %if.then76
	movq	-16(%rbp), %rax
	movl	$-6, (%rax)
.LBB73_41:                              # %if.end77
	cmpq	$0, -8(%rbp)
	je	.LBB73_43
# %bb.42:                               # %if.then80
	movq	-8(%rbp), %rax
	movl	$-6, 5096(%rax)
.LBB73_43:                              # %if.end82
	jmp	.LBB73_71
.LBB73_44:                              # %if.end83
                                        #   in Loop: Header=BB73_29 Depth=1
	jmp	.LBB73_45
.LBB73_45:                              # %if.end84
                                        #   in Loop: Header=BB73_29 Depth=1
	cmpl	$4, -20(%rbp)
	jne	.LBB73_47
# %bb.46:                               # %if.then87
	jmp	.LBB73_48
.LBB73_47:                              # %if.end88
                                        #   in Loop: Header=BB73_29 Depth=1
	jmp	.LBB73_29
.LBB73_48:                              # %while.end
	jmp	.LBB73_49
.LBB73_49:                              # %if.end89
	cmpl	$0, -28(%rbp)
	jne	.LBB73_58
# %bb.50:                               # %land.lhs.true91
	movq	-8(%rbp), %rax
	movq	(%rax), %rdi
	callq	ferror
	cmpl	$0, %eax
	jne	.LBB73_58
# %bb.51:                               # %if.then95
	movq	-8(%rbp), %rax
	movq	(%rax), %rdi
	callq	fflush
	movq	-8(%rbp), %rax
	movq	(%rax), %rdi
	callq	ferror
	cmpl	$0, %eax
	je	.LBB73_57
# %bb.52:                               # %if.then101
	cmpq	$0, -16(%rbp)
	je	.LBB73_54
# %bb.53:                               # %if.then104
	movq	-16(%rbp), %rax
	movl	$-6, (%rax)
.LBB73_54:                              # %if.end105
	cmpq	$0, -8(%rbp)
	je	.LBB73_56
# %bb.55:                               # %if.then108
	movq	-8(%rbp), %rax
	movl	$-6, 5096(%rax)
.LBB73_56:                              # %if.end110
	jmp	.LBB73_71
.LBB73_57:                              # %if.end111
	jmp	.LBB73_58
.LBB73_58:                              # %if.end112
	cmpq	$0, -48(%rbp)
	je	.LBB73_60
# %bb.59:                               # %if.then115
	movq	-8(%rbp), %rax
	movl	5028(%rax), %eax
	movq	-48(%rbp), %rcx
	movl	%eax, (%rcx)
.LBB73_60:                              # %if.end117
	cmpq	$0, -40(%rbp)
	je	.LBB73_62
# %bb.61:                               # %if.then120
	movq	-8(%rbp), %rax
	movl	5032(%rax), %eax
	movq	-40(%rbp), %rcx
	movl	%eax, (%rcx)
.LBB73_62:                              # %if.end122
	cmpq	$0, -56(%rbp)
	je	.LBB73_64
# %bb.63:                               # %if.then125
	movq	-8(%rbp), %rax
	movl	5052(%rax), %eax
	movq	-56(%rbp), %rcx
	movl	%eax, (%rcx)
.LBB73_64:                              # %if.end127
	cmpq	$0, 16(%rbp)
	je	.LBB73_66
# %bb.65:                               # %if.then130
	movq	-8(%rbp), %rax
	movl	5056(%rax), %eax
	movq	16(%rbp), %rcx
	movl	%eax, (%rcx)
.LBB73_66:                              # %if.end132
	cmpq	$0, -16(%rbp)
	je	.LBB73_68
# %bb.67:                               # %if.then135
	movq	-16(%rbp), %rax
	movl	$0, (%rax)
.LBB73_68:                              # %if.end136
	cmpq	$0, -8(%rbp)
	je	.LBB73_70
# %bb.69:                               # %if.then139
	movq	-8(%rbp), %rax
	movl	$0, 5096(%rax)
.LBB73_70:                              # %if.end141
	movq	-8(%rbp), %rdi
	addq	$5016, %rdi             # imm = 0x1398
	callq	BZ2_bzCompressEnd
	movq	-8(%rbp), %rdi
	callq	free
.LBB73_71:                              # %return
	cmpl	$683756322, -60(%rbp)   # imm = 0x28C14B22
	jne	.LBB73_73
.LBB73_72:
	addq	$80, %rsp
	popq	%rbp
	.cfi_def_cfa %rsp, 8
	retq
.LBB73_73:                              # %func_exit
	.cfi_def_cfa %rbp, 16
	callq	detect_breach
	jmp	.LBB73_72
.Lfunc_end73:
	.size	BZ2_bzWriteClose64.33, .Lfunc_end73-BZ2_bzWriteClose64.33
	.cfi_endproc
                                        # -- End function
	.p2align	4, 0x90         # -- Begin function bzopen_or_bzdopen.34
	.type	bzopen_or_bzdopen.34,@function
bzopen_or_bzdopen.34:                   # @bzopen_or_bzdopen.34
	.cfi_startproc
# %bb.0:                                # %entry
	pushq	%rbp
	.cfi_def_cfa_offset 16
