	.text
	.file	"bzlib.c"
	.globl	BZ2_bz__AssertH__fail   # -- Begin function BZ2_bz__AssertH__fail
	.p2align	4, 0x90
	.type	BZ2_bz__AssertH__fail,@function
BZ2_bz__AssertH__fail:                  # @BZ2_bz__AssertH__fail
	.cfi_startproc
# %bb.0:                                # %entry
	pushq	%rbp
	.cfi_def_cfa_offset 16
	.cfi_offset %rbp, -16
	movq	%rsp, %rbp
	.cfi_def_cfa_register %rbp
	pushq	%r14
	pushq	%rbx
	subq	$16, %rsp
	.cfi_offset %rbx, -32
	.cfi_offset %r14, -24
	movl	%edi, -20(%rbp)
	movq	stderr, %rbx
	movl	-20(%rbp), %r14d
	callq	BZ2_bzlibVersion
	movq	%rbx, %rdi
	movabsq	$.L.str, %rsi
	movl	%r14d, %edx
	movq	%rax, %rcx
	movb	$0, %al
	callq	fprintf
	cmpl	$1007, -20(%rbp)        # imm = 0x3EF
	jne	.LBB0_2
# %bb.1:                                # %if.then
	movq	stderr, %rdi
	movabsq	$.L.str.1, %rsi
	movb	$0, %al
	callq	fprintf
.LBB0_2:                                # %if.end
	movl	$3, %edi
	callq	exit
.Lfunc_end0:
	.size	BZ2_bz__AssertH__fail, .Lfunc_end0-BZ2_bz__AssertH__fail
	.cfi_endproc
                                        # -- End function
	.globl	BZ2_bzlibVersion        # -- Begin function BZ2_bzlibVersion
	.p2align	4, 0x90
	.type	BZ2_bzlibVersion,@function
BZ2_bzlibVersion:                       # @BZ2_bzlibVersion
	.cfi_startproc
# %bb.0:                                # %entry
	pushq	%rbp
	.cfi_def_cfa_offset 16
	.cfi_offset %rbp, -16
	movq	%rsp, %rbp
	.cfi_def_cfa_register %rbp
	movabsq	$.L.str.5, %rax
	popq	%rbp
	.cfi_def_cfa %rsp, 8
	retq
.Lfunc_end1:
	.size	BZ2_bzlibVersion, .Lfunc_end1-BZ2_bzlibVersion
	.cfi_endproc
                                        # -- End function
	.globl	BZ2_bzCompressInit      # -- Begin function BZ2_bzCompressInit
	.p2align	4, 0x90
	.type	BZ2_bzCompressInit,@function
BZ2_bzCompressInit:                     # @BZ2_bzCompressInit
	.cfi_startproc
# %bb.0:                                # %rand_bb
	pushq	%rbp
	.cfi_def_cfa_offset 16
	.cfi_offset %rbp, -16
	movq	%rsp, %rbp
	.cfi_def_cfa_register %rbp
	pushq	%r15
	pushq	%r14
	pushq	%r12
	pushq	%rbx
	.cfi_offset %rbx, -48
	.cfi_offset %r12, -40
	.cfi_offset %r14, -32
	.cfi_offset %r15, -24
	movl	%ecx, %r14d
	movl	%edx, %r15d
	movl	%esi, %r12d
	movq	%rdi, %rbx
	callq	get_urand
	cmpl	$0, %eax
	jne	.LBB2_9
# %bb.1:                                # %func_BZ2_bzCompressInit.28
	movq	%rbx, %rdi
	movl	%r12d, %esi
	movl	%r15d, %edx
	movl	%r14d, %ecx
	callq	BZ2_bzCompressInit.28
	popq	%rbx
	popq	%r12
	popq	%r14
	popq	%r15
	popq	%rbp
	.cfi_def_cfa %rsp, 8
	retq
.LBB2_2:                                # %func_BZ2_bzCompressInit.43
	.cfi_def_cfa %rbp, 16
	movq	%rbx, %rdi
	movl	%r12d, %esi
	movl	%r15d, %edx
	movl	%r14d, %ecx
	callq	BZ2_bzCompressInit.43
	popq	%rbx
	popq	%r12
	popq	%r14
	popq	%r15
	popq	%rbp
	.cfi_def_cfa %rsp, 8
	retq
.LBB2_3:                                # %func_BZ2_bzCompressInit.129
	.cfi_def_cfa %rbp, 16
	movq	%rbx, %rdi
	movl	%r12d, %esi
	movl	%r15d, %edx
	movl	%r14d, %ecx
	callq	BZ2_bzCompressInit.129
	popq	%rbx
	popq	%r12
	popq	%r14
	popq	%r15
	popq	%rbp
	.cfi_def_cfa %rsp, 8
	retq
.LBB2_4:                                # %func_BZ2_bzCompressInit.140
	.cfi_def_cfa %rbp, 16
	movq	%rbx, %rdi
	movl	%r12d, %esi
	movl	%r15d, %edx
	movl	%r14d, %ecx
	callq	BZ2_bzCompressInit.140
	popq	%rbx
	popq	%r12
	popq	%r14
	popq	%r15
	popq	%rbp
	.cfi_def_cfa %rsp, 8
	retq
.LBB2_5:                                # %func_BZ2_bzCompressInit.165
	.cfi_def_cfa %rbp, 16
	movq	%rbx, %rdi
	movl	%r12d, %esi
	movl	%r15d, %edx
	movl	%r14d, %ecx
	callq	BZ2_bzCompressInit.165
	popq	%rbx
	popq	%r12
	popq	%r14
	popq	%r15
	popq	%rbp
	.cfi_def_cfa %rsp, 8
	retq
.LBB2_6:                                # %func_BZ2_bzCompressInit.190
	.cfi_def_cfa %rbp, 16
	movq	%rbx, %rdi
	movl	%r12d, %esi
	movl	%r15d, %edx
	movl	%r14d, %ecx
	callq	BZ2_bzCompressInit.190
	popq	%rbx
	popq	%r12
	popq	%r14
	popq	%r15
	popq	%rbp
	.cfi_def_cfa %rsp, 8
	retq
.LBB2_7:                                # %func_BZ2_bzCompressInit.199
	.cfi_def_cfa %rbp, 16
	movq	%rbx, %rdi
	movl	%r12d, %esi
	movl	%r15d, %edx
	movl	%r14d, %ecx
	callq	BZ2_bzCompressInit.199
	popq	%rbx
	popq	%r12
	popq	%r14
	popq	%r15
	popq	%rbp
	.cfi_def_cfa %rsp, 8
	retq
.LBB2_8:                                # %func_BZ2_bzCompressInit.210
	.cfi_def_cfa %rbp, 16
	movq	%rbx, %rdi
	movl	%r12d, %esi
	movl	%r15d, %edx
	movl	%r14d, %ecx
	callq	BZ2_bzCompressInit.210
	popq	%rbx
	popq	%r12
	popq	%r14
	popq	%r15
	popq	%rbp
	.cfi_def_cfa %rsp, 8
	retq
.LBB2_9:                                # %ctrl0
	.cfi_def_cfa %rbp, 16
	cmpl	$1, %eax
	je	.LBB2_2
# %bb.10:                               # %ctrl1
	cmpl	$2, %eax
	je	.LBB2_3
# %bb.11:                               # %ctrl2
	cmpl	$3, %eax
	je	.LBB2_4
# %bb.12:                               # %ctrl3
	cmpl	$4, %eax
	je	.LBB2_5
# %bb.13:                               # %ctrl4
	cmpl	$5, %eax
	je	.LBB2_6
# %bb.14:                               # %ctrl5
	cmpl	$6, %eax
	je	.LBB2_7
	jmp	.LBB2_8
.Lfunc_end2:
	.size	BZ2_bzCompressInit, .Lfunc_end2-BZ2_bzCompressInit
	.cfi_endproc
                                        # -- End function
	.p2align	4, 0x90         # -- Begin function bz_config_ok
	.type	bz_config_ok,@function
bz_config_ok:                           # @bz_config_ok
	.cfi_startproc
# %bb.0:                                # %entry
	pushq	%rbp
	.cfi_def_cfa_offset 16
	.cfi_offset %rbp, -16
	movq	%rsp, %rbp
	.cfi_def_cfa_register %rbp
	movl	$1, %eax
	popq	%rbp
	.cfi_def_cfa %rsp, 8
	retq
.Lfunc_end3:
	.size	bz_config_ok, .Lfunc_end3-bz_config_ok
	.cfi_endproc
                                        # -- End function
	.p2align	4, 0x90         # -- Begin function default_bzalloc
	.type	default_bzalloc,@function
default_bzalloc:                        # @default_bzalloc
	.cfi_startproc
# %bb.0:                                # %rand_bb
	pushq	%rbp
	.cfi_def_cfa_offset 16
	.cfi_offset %rbp, -16
	movq	%rsp, %rbp
	.cfi_def_cfa_register %rbp
	pushq	%r15
	pushq	%r14
	pushq	%rbx
	pushq	%rax
	.cfi_offset %rbx, -40
	.cfi_offset %r14, -32
	.cfi_offset %r15, -24
	movl	%edx, %r14d
	movl	%esi, %r15d
	movq	%rdi, %rbx
	callq	get_urand
	cmpl	$0, %eax
	jne	.LBB4_9
# %bb.1:                                # %func_default_bzalloc.25
	movq	%rbx, %rdi
	movl	%r15d, %esi
	movl	%r14d, %edx
	callq	default_bzalloc.25
	addq	$8, %rsp
	popq	%rbx
	popq	%r14
	popq	%r15
	popq	%rbp
	.cfi_def_cfa %rsp, 8
	retq
.LBB4_2:                                # %func_default_bzalloc.27
	.cfi_def_cfa %rbp, 16
	movq	%rbx, %rdi
	movl	%r15d, %esi
	movl	%r14d, %edx
	callq	default_bzalloc.27
	addq	$8, %rsp
	popq	%rbx
	popq	%r14
	popq	%r15
	popq	%rbp
	.cfi_def_cfa %rsp, 8
	retq
.LBB4_3:                                # %func_default_bzalloc.121
	.cfi_def_cfa %rbp, 16
	movq	%rbx, %rdi
	movl	%r15d, %esi
	movl	%r14d, %edx
	callq	default_bzalloc.121
	addq	$8, %rsp
	popq	%rbx
	popq	%r14
	popq	%r15
	popq	%rbp
	.cfi_def_cfa %rsp, 8
	retq
.LBB4_4:                                # %func_default_bzalloc.123
	.cfi_def_cfa %rbp, 16
	movq	%rbx, %rdi
	movl	%r15d, %esi
	movl	%r14d, %edx
	callq	default_bzalloc.123
	addq	$8, %rsp
	popq	%rbx
	popq	%r14
	popq	%r15
	popq	%rbp
	.cfi_def_cfa %rsp, 8
	retq
.LBB4_5:                                # %func_default_bzalloc.128
	.cfi_def_cfa %rbp, 16
	movq	%rbx, %rdi
	movl	%r15d, %esi
	movl	%r14d, %edx
	callq	default_bzalloc.128
	addq	$8, %rsp
	popq	%rbx
	popq	%r14
	popq	%r15
	popq	%rbp
	.cfi_def_cfa %rsp, 8
	retq
.LBB4_6:                                # %func_default_bzalloc.171
	.cfi_def_cfa %rbp, 16
	movq	%rbx, %rdi
	movl	%r15d, %esi
	movl	%r14d, %edx
	callq	default_bzalloc.171
	addq	$8, %rsp
	popq	%rbx
	popq	%r14
	popq	%r15
	popq	%rbp
	.cfi_def_cfa %rsp, 8
	retq
.LBB4_7:                                # %func_default_bzalloc.175
	.cfi_def_cfa %rbp, 16
	movq	%rbx, %rdi
	movl	%r15d, %esi
	movl	%r14d, %edx
	callq	default_bzalloc.175
	addq	$8, %rsp
	popq	%rbx
	popq	%r14
	popq	%r15
	popq	%rbp
	.cfi_def_cfa %rsp, 8
	retq
.LBB4_8:                                # %func_default_bzalloc.203
	.cfi_def_cfa %rbp, 16
	movq	%rbx, %rdi
	movl	%r15d, %esi
	movl	%r14d, %edx
	callq	default_bzalloc.203
	addq	$8, %rsp
	popq	%rbx
	popq	%r14
	popq	%r15
	popq	%rbp
	.cfi_def_cfa %rsp, 8
	retq
.LBB4_9:                                # %ctrl0
	.cfi_def_cfa %rbp, 16
	cmpl	$1, %eax
	je	.LBB4_2
# %bb.10:                               # %ctrl1
	cmpl	$2, %eax
	je	.LBB4_3
# %bb.11:                               # %ctrl2
	cmpl	$3, %eax
	je	.LBB4_4
# %bb.12:                               # %ctrl3
	cmpl	$4, %eax
	je	.LBB4_5
# %bb.13:                               # %ctrl4
	cmpl	$5, %eax
	je	.LBB4_6
# %bb.14:                               # %ctrl5
	cmpl	$6, %eax
	je	.LBB4_7
	jmp	.LBB4_8
.Lfunc_end4:
	.size	default_bzalloc, .Lfunc_end4-default_bzalloc
	.cfi_endproc
                                        # -- End function
	.p2align	4, 0x90         # -- Begin function default_bzfree
	.type	default_bzfree,@function
default_bzfree:                         # @default_bzfree
	.cfi_startproc
# %bb.0:                                # %rand_bb
	pushq	%rbp
	.cfi_def_cfa_offset 16
	.cfi_offset %rbp, -16
	movq	%rsp, %rbp
	.cfi_def_cfa_register %rbp
	pushq	%r14
	pushq	%rbx
	.cfi_offset %rbx, -32
	.cfi_offset %r14, -24
	movq	%rsi, %r14
	movq	%rdi, %rbx
	callq	get_urand
	cmpl	$0, %eax
	jne	.LBB5_2
# %bb.1:                                # %func_default_bzfree.1
	movq	%rbx, %rdi
	movq	%r14, %rsi
	callq	default_bzfree.1
	popq	%rbx
	popq	%r14
	popq	%rbp
	.cfi_def_cfa %rsp, 8
	retq
.LBB5_2:                                # %func_default_bzfree.93
	.cfi_def_cfa %rbp, 16
	movq	%rbx, %rdi
	movq	%r14, %rsi
	callq	default_bzfree.93
	popq	%rbx
	popq	%r14
	popq	%rbp
	.cfi_def_cfa %rsp, 8
	retq
.Lfunc_end5:
	.size	default_bzfree, .Lfunc_end5-default_bzfree
	.cfi_endproc
                                        # -- End function
	.p2align	4, 0x90         # -- Begin function init_RL
	.type	init_RL,@function
init_RL:                                # @init_RL
	.cfi_startproc
# %bb.0:                                # %entry
	pushq	%rbp
	.cfi_def_cfa_offset 16
	.cfi_offset %rbp, -16
	movq	%rsp, %rbp
	.cfi_def_cfa_register %rbp
	movq	%rdi, -8(%rbp)
	movq	-8(%rbp), %rax
	movl	$256, 92(%rax)          # imm = 0x100
	movq	-8(%rbp), %rax
	movl	$0, 96(%rax)
	popq	%rbp
	.cfi_def_cfa %rsp, 8
	retq
.Lfunc_end6:
	.size	init_RL, .Lfunc_end6-init_RL
	.cfi_endproc
                                        # -- End function
	.p2align	4, 0x90         # -- Begin function prepare_new_block
	.type	prepare_new_block,@function
prepare_new_block:                      # @prepare_new_block
	.cfi_startproc
# %bb.0:                                # %rand_bb
	pushq	%rbp
	.cfi_def_cfa_offset 16
	.cfi_offset %rbp, -16
	movq	%rsp, %rbp
	.cfi_def_cfa_register %rbp
	pushq	%rbx
	pushq	%rax
	.cfi_offset %rbx, -24
	movq	%rdi, %rbx
	callq	get_urand
	cmpl	$0, %eax
	jne	.LBB7_2
# %bb.1:                                # %func_prepare_new_block.148
	movq	%rbx, %rdi
	callq	prepare_new_block.148
	addq	$8, %rsp
	popq	%rbx
	popq	%rbp
	.cfi_def_cfa %rsp, 8
	retq
.LBB7_2:                                # %func_prepare_new_block.161
	.cfi_def_cfa %rbp, 16
	movq	%rbx, %rdi
	callq	prepare_new_block.161
	addq	$8, %rsp
	popq	%rbx
	popq	%rbp
	.cfi_def_cfa %rsp, 8
	retq
.Lfunc_end7:
	.size	prepare_new_block, .Lfunc_end7-prepare_new_block
	.cfi_endproc
                                        # -- End function
	.globl	BZ2_bzCompress          # -- Begin function BZ2_bzCompress
	.p2align	4, 0x90
	.type	BZ2_bzCompress,@function
BZ2_bzCompress:                         # @BZ2_bzCompress
	.cfi_startproc
# %bb.0:                                # %rand_bb
	pushq	%rbp
	.cfi_def_cfa_offset 16
	.cfi_offset %rbp, -16
	movq	%rsp, %rbp
	.cfi_def_cfa_register %rbp
	pushq	%r14
	pushq	%rbx
	.cfi_offset %rbx, -32
	.cfi_offset %r14, -24
	movl	%esi, %r14d
	movq	%rdi, %rbx
	callq	get_urand
	cmpl	$0, %eax
	jne	.LBB8_9
# %bb.1:                                # %func_BZ2_bzCompress.12
	movq	%rbx, %rdi
	movl	%r14d, %esi
	callq	BZ2_bzCompress.12
	popq	%rbx
	popq	%r14
	popq	%rbp
	.cfi_def_cfa %rsp, 8
	retq
.LBB8_2:                                # %func_BZ2_bzCompress.17
	.cfi_def_cfa %rbp, 16
	movq	%rbx, %rdi
	movl	%r14d, %esi
	callq	BZ2_bzCompress.17
	popq	%rbx
	popq	%r14
	popq	%rbp
	.cfi_def_cfa %rsp, 8
	retq
.LBB8_3:                                # %func_BZ2_bzCompress.49
	.cfi_def_cfa %rbp, 16
	movq	%rbx, %rdi
	movl	%r14d, %esi
	callq	BZ2_bzCompress.49
	popq	%rbx
	popq	%r14
	popq	%rbp
	.cfi_def_cfa %rsp, 8
	retq
.LBB8_4:                                # %func_BZ2_bzCompress.60
	.cfi_def_cfa %rbp, 16
	movq	%rbx, %rdi
	movl	%r14d, %esi
	callq	BZ2_bzCompress.60
	popq	%rbx
	popq	%r14
	popq	%rbp
	.cfi_def_cfa %rsp, 8
	retq
.LBB8_5:                                # %func_BZ2_bzCompress.126
	.cfi_def_cfa %rbp, 16
	movq	%rbx, %rdi
	movl	%r14d, %esi
	callq	BZ2_bzCompress.126
	popq	%rbx
	popq	%r14
	popq	%rbp
	.cfi_def_cfa %rsp, 8
	retq
.LBB8_6:                                # %func_BZ2_bzCompress.174
	.cfi_def_cfa %rbp, 16
	movq	%rbx, %rdi
	movl	%r14d, %esi
	callq	BZ2_bzCompress.174
	popq	%rbx
	popq	%r14
	popq	%rbp
	.cfi_def_cfa %rsp, 8
	retq
.LBB8_7:                                # %func_BZ2_bzCompress.177
	.cfi_def_cfa %rbp, 16
	movq	%rbx, %rdi
	movl	%r14d, %esi
	callq	BZ2_bzCompress.177
	popq	%rbx
	popq	%r14
	popq	%rbp
	.cfi_def_cfa %rsp, 8
	retq
.LBB8_8:                                # %func_BZ2_bzCompress.192
	.cfi_def_cfa %rbp, 16
	movq	%rbx, %rdi
	movl	%r14d, %esi
	callq	BZ2_bzCompress.192
	popq	%rbx
	popq	%r14
	popq	%rbp
	.cfi_def_cfa %rsp, 8
	retq
.LBB8_9:                                # %ctrl0
	.cfi_def_cfa %rbp, 16
	cmpl	$1, %eax
	je	.LBB8_2
# %bb.10:                               # %ctrl1
	cmpl	$2, %eax
	je	.LBB8_3
# %bb.11:                               # %ctrl2
	cmpl	$3, %eax
	je	.LBB8_4
# %bb.12:                               # %ctrl3
	cmpl	$4, %eax
	je	.LBB8_5
# %bb.13:                               # %ctrl4
	cmpl	$5, %eax
	je	.LBB8_6
# %bb.14:                               # %ctrl5
	cmpl	$6, %eax
	je	.LBB8_7
	jmp	.LBB8_8
.Lfunc_end8:
	.size	BZ2_bzCompress, .Lfunc_end8-BZ2_bzCompress
	.cfi_endproc
                                        # -- End function
	.p2align	4, 0x90         # -- Begin function handle_compress
	.type	handle_compress,@function
handle_compress:                        # @handle_compress
	.cfi_startproc
# %bb.0:                                # %rand_bb
	pushq	%rbp
	.cfi_def_cfa_offset 16
	.cfi_offset %rbp, -16
	movq	%rsp, %rbp
	.cfi_def_cfa_register %rbp
	pushq	%rbx
	pushq	%rax
	.cfi_offset %rbx, -24
	movq	%rdi, %rbx
	callq	get_urand
	cmpl	$0, %eax
	jne	.LBB9_9
# %bb.1:                                # %func_handle_compress.18
	movq	%rbx, %rdi
	callq	handle_compress.18
	movzbl	%al, %eax
	addq	$8, %rsp
	popq	%rbx
	popq	%rbp
	.cfi_def_cfa %rsp, 8
	retq
.LBB9_2:                                # %func_handle_compress.21
	.cfi_def_cfa %rbp, 16
	movq	%rbx, %rdi
	callq	handle_compress.21
	movzbl	%al, %eax
	addq	$8, %rsp
	popq	%rbx
	popq	%rbp
	.cfi_def_cfa %rsp, 8
	retq
.LBB9_3:                                # %func_handle_compress.86
	.cfi_def_cfa %rbp, 16
	movq	%rbx, %rdi
	callq	handle_compress.86
	movzbl	%al, %eax
	addq	$8, %rsp
	popq	%rbx
	popq	%rbp
	.cfi_def_cfa %rsp, 8
	retq
.LBB9_4:                                # %func_handle_compress.91
	.cfi_def_cfa %rbp, 16
	movq	%rbx, %rdi
	callq	handle_compress.91
	movzbl	%al, %eax
	addq	$8, %rsp
	popq	%rbx
	popq	%rbp
	.cfi_def_cfa %rsp, 8
	retq
.LBB9_5:                                # %func_handle_compress.108
	.cfi_def_cfa %rbp, 16
	movq	%rbx, %rdi
	callq	handle_compress.108
	movzbl	%al, %eax
	addq	$8, %rsp
	popq	%rbx
	popq	%rbp
	.cfi_def_cfa %rsp, 8
	retq
.LBB9_6:                                # %func_handle_compress.112
	.cfi_def_cfa %rbp, 16
	movq	%rbx, %rdi
	callq	handle_compress.112
	movzbl	%al, %eax
	addq	$8, %rsp
	popq	%rbx
	popq	%rbp
	.cfi_def_cfa %rsp, 8
	retq
.LBB9_7:                                # %func_handle_compress.137
	.cfi_def_cfa %rbp, 16
	movq	%rbx, %rdi
	callq	handle_compress.137
	movzbl	%al, %eax
	addq	$8, %rsp
	popq	%rbx
	popq	%rbp
	.cfi_def_cfa %rsp, 8
	retq
.LBB9_8:                                # %func_handle_compress.141
	.cfi_def_cfa %rbp, 16
	movq	%rbx, %rdi
	callq	handle_compress.141
	movzbl	%al, %eax
	addq	$8, %rsp
	popq	%rbx
	popq	%rbp
	.cfi_def_cfa %rsp, 8
	retq
.LBB9_9:                                # %ctrl0
	.cfi_def_cfa %rbp, 16
	cmpl	$1, %eax
	je	.LBB9_2
# %bb.10:                               # %ctrl1
	cmpl	$2, %eax
	je	.LBB9_3
# %bb.11:                               # %ctrl2
	cmpl	$3, %eax
	je	.LBB9_4
# %bb.12:                               # %ctrl3
	cmpl	$4, %eax
	je	.LBB9_5
# %bb.13:                               # %ctrl4
	cmpl	$5, %eax
	je	.LBB9_6
# %bb.14:                               # %ctrl5
	cmpl	$6, %eax
	je	.LBB9_7
	jmp	.LBB9_8
.Lfunc_end9:
	.size	handle_compress, .Lfunc_end9-handle_compress
	.cfi_endproc
                                        # -- End function
	.p2align	4, 0x90         # -- Begin function isempty_RL
	.type	isempty_RL,@function
isempty_RL:                             # @isempty_RL
	.cfi_startproc
# %bb.0:                                # %rand_bb
	pushq	%rbp
	.cfi_def_cfa_offset 16
	.cfi_offset %rbp, -16
	movq	%rsp, %rbp
	.cfi_def_cfa_register %rbp
	pushq	%rbx
	pushq	%rax
	.cfi_offset %rbx, -24
	movq	%rdi, %rbx
	callq	get_urand
	cmpl	$0, %eax
	jne	.LBB10_2
# %bb.1:                                # %func_isempty_RL.55
	movq	%rbx, %rdi
	callq	isempty_RL.55
	movzbl	%al, %eax
	addq	$8, %rsp
	popq	%rbx
	popq	%rbp
	.cfi_def_cfa %rsp, 8
	retq
.LBB10_2:                               # %func_isempty_RL.110
	.cfi_def_cfa %rbp, 16
	movq	%rbx, %rdi
	callq	isempty_RL.110
	movzbl	%al, %eax
	addq	$8, %rsp
	popq	%rbx
	popq	%rbp
	.cfi_def_cfa %rsp, 8
	retq
.Lfunc_end10:
	.size	isempty_RL, .Lfunc_end10-isempty_RL
	.cfi_endproc
                                        # -- End function
	.globl	BZ2_bzCompressEnd       # -- Begin function BZ2_bzCompressEnd
	.p2align	4, 0x90
	.type	BZ2_bzCompressEnd,@function
BZ2_bzCompressEnd:                      # @BZ2_bzCompressEnd
	.cfi_startproc
# %bb.0:                                # %rand_bb
	pushq	%rbp
	.cfi_def_cfa_offset 16
	.cfi_offset %rbp, -16
	movq	%rsp, %rbp
	.cfi_def_cfa_register %rbp
	pushq	%rbx
	pushq	%rax
	.cfi_offset %rbx, -24
	movq	%rdi, %rbx
	callq	get_urand
	cmpl	$0, %eax
	jne	.LBB11_7
# %bb.1:                                # %func_BZ2_bzCompressEnd.5
	movq	%rbx, %rdi
	callq	BZ2_bzCompressEnd.5
	addq	$8, %rsp
	popq	%rbx
	popq	%rbp
	.cfi_def_cfa %rsp, 8
	retq
.LBB11_2:                               # %func_BZ2_bzCompressEnd.13
	.cfi_def_cfa %rbp, 16
	movq	%rbx, %rdi
	callq	BZ2_bzCompressEnd.13
	addq	$8, %rsp
	popq	%rbx
	popq	%rbp
	.cfi_def_cfa %rsp, 8
	retq
.LBB11_3:                               # %func_BZ2_bzCompressEnd.61
	.cfi_def_cfa %rbp, 16
	movq	%rbx, %rdi
	callq	BZ2_bzCompressEnd.61
	addq	$8, %rsp
	popq	%rbx
	popq	%rbp
	.cfi_def_cfa %rsp, 8
	retq
.LBB11_4:                               # %func_BZ2_bzCompressEnd.76
	.cfi_def_cfa %rbp, 16
	movq	%rbx, %rdi
	callq	BZ2_bzCompressEnd.76
	addq	$8, %rsp
	popq	%rbx
	popq	%rbp
	.cfi_def_cfa %rsp, 8
	retq
.LBB11_5:                               # %func_BZ2_bzCompressEnd.136
	.cfi_def_cfa %rbp, 16
	movq	%rbx, %rdi
	callq	BZ2_bzCompressEnd.136
	addq	$8, %rsp
	popq	%rbx
	popq	%rbp
	.cfi_def_cfa %rsp, 8
	retq
.LBB11_6:                               # %func_BZ2_bzCompressEnd.163
	.cfi_def_cfa %rbp, 16
	movq	%rbx, %rdi
	callq	BZ2_bzCompressEnd.163
	addq	$8, %rsp
	popq	%rbx
	popq	%rbp
	.cfi_def_cfa %rsp, 8
	retq
.LBB11_7:                               # %ctrl0
	.cfi_def_cfa %rbp, 16
	cmpl	$1, %eax
	je	.LBB11_2
# %bb.8:                                # %ctrl1
	cmpl	$2, %eax
	je	.LBB11_3
# %bb.9:                                # %ctrl2
	cmpl	$3, %eax
	je	.LBB11_4
# %bb.10:                               # %ctrl3
	cmpl	$4, %eax
	je	.LBB11_5
	jmp	.LBB11_6
.Lfunc_end11:
	.size	BZ2_bzCompressEnd, .Lfunc_end11-BZ2_bzCompressEnd
	.cfi_endproc
                                        # -- End function
	.globl	BZ2_bzDecompressInit    # -- Begin function BZ2_bzDecompressInit
	.p2align	4, 0x90
	.type	BZ2_bzDecompressInit,@function
BZ2_bzDecompressInit:                   # @BZ2_bzDecompressInit
	.cfi_startproc
# %bb.0:                                # %rand_bb
	pushq	%rbp
	.cfi_def_cfa_offset 16
	.cfi_offset %rbp, -16
	movq	%rsp, %rbp
	.cfi_def_cfa_register %rbp
	pushq	%r15
	pushq	%r14
	pushq	%rbx
	pushq	%rax
	.cfi_offset %rbx, -40
	.cfi_offset %r14, -32
	.cfi_offset %r15, -24
	movl	%edx, %r14d
	movl	%esi, %r15d
	movq	%rdi, %rbx
	callq	get_urand
	cmpl	$0, %eax
	jne	.LBB12_9
# %bb.1:                                # %func_BZ2_bzDecompressInit.31
	movq	%rbx, %rdi
	movl	%r15d, %esi
	movl	%r14d, %edx
	callq	BZ2_bzDecompressInit.31
	addq	$8, %rsp
	popq	%rbx
	popq	%r14
	popq	%r15
	popq	%rbp
	.cfi_def_cfa %rsp, 8
	retq
.LBB12_2:                               # %func_BZ2_bzDecompressInit.42
	.cfi_def_cfa %rbp, 16
	movq	%rbx, %rdi
	movl	%r15d, %esi
	movl	%r14d, %edx
	callq	BZ2_bzDecompressInit.42
	addq	$8, %rsp
	popq	%rbx
	popq	%r14
	popq	%r15
	popq	%rbp
	.cfi_def_cfa %rsp, 8
	retq
.LBB12_3:                               # %func_BZ2_bzDecompressInit.58
	.cfi_def_cfa %rbp, 16
	movq	%rbx, %rdi
	movl	%r15d, %esi
	movl	%r14d, %edx
	callq	BZ2_bzDecompressInit.58
	addq	$8, %rsp
	popq	%rbx
	popq	%r14
	popq	%r15
	popq	%rbp
	.cfi_def_cfa %rsp, 8
	retq
.LBB12_4:                               # %func_BZ2_bzDecompressInit.71
	.cfi_def_cfa %rbp, 16
	movq	%rbx, %rdi
	movl	%r15d, %esi
	movl	%r14d, %edx
	callq	BZ2_bzDecompressInit.71
	addq	$8, %rsp
	popq	%rbx
	popq	%r14
	popq	%r15
	popq	%rbp
	.cfi_def_cfa %rsp, 8
	retq
.LBB12_5:                               # %func_BZ2_bzDecompressInit.124
	.cfi_def_cfa %rbp, 16
	movq	%rbx, %rdi
	movl	%r15d, %esi
	movl	%r14d, %edx
	callq	BZ2_bzDecompressInit.124
	addq	$8, %rsp
	popq	%rbx
	popq	%r14
	popq	%r15
	popq	%rbp
	.cfi_def_cfa %rsp, 8
	retq
.LBB12_6:                               # %func_BZ2_bzDecompressInit.132
	.cfi_def_cfa %rbp, 16
	movq	%rbx, %rdi
	movl	%r15d, %esi
	movl	%r14d, %edx
	callq	BZ2_bzDecompressInit.132
	addq	$8, %rsp
	popq	%rbx
	popq	%r14
	popq	%r15
	popq	%rbp
	.cfi_def_cfa %rsp, 8
	retq
.LBB12_7:                               # %func_BZ2_bzDecompressInit.181
	.cfi_def_cfa %rbp, 16
	movq	%rbx, %rdi
	movl	%r15d, %esi
	movl	%r14d, %edx
	callq	BZ2_bzDecompressInit.181
	addq	$8, %rsp
	popq	%rbx
	popq	%r14
	popq	%r15
	popq	%rbp
	.cfi_def_cfa %rsp, 8
	retq
.LBB12_8:                               # %func_BZ2_bzDecompressInit.184
	.cfi_def_cfa %rbp, 16
	movq	%rbx, %rdi
	movl	%r15d, %esi
	movl	%r14d, %edx
	callq	BZ2_bzDecompressInit.184
	addq	$8, %rsp
	popq	%rbx
	popq	%r14
	popq	%r15
	popq	%rbp
	.cfi_def_cfa %rsp, 8
	retq
.LBB12_9:                               # %ctrl0
	.cfi_def_cfa %rbp, 16
	cmpl	$1, %eax
	je	.LBB12_2
# %bb.10:                               # %ctrl1
	cmpl	$2, %eax
	je	.LBB12_3
# %bb.11:                               # %ctrl2
	cmpl	$3, %eax
	je	.LBB12_4
# %bb.12:                               # %ctrl3
	cmpl	$4, %eax
	je	.LBB12_5
# %bb.13:                               # %ctrl4
	cmpl	$5, %eax
	je	.LBB12_6
# %bb.14:                               # %ctrl5
	cmpl	$6, %eax
	je	.LBB12_7
	jmp	.LBB12_8
.Lfunc_end12:
	.size	BZ2_bzDecompressInit, .Lfunc_end12-BZ2_bzDecompressInit
	.cfi_endproc
                                        # -- End function
	.globl	BZ2_indexIntoF          # -- Begin function BZ2_indexIntoF
	.p2align	4, 0x90
	.type	BZ2_indexIntoF,@function
BZ2_indexIntoF:                         # @BZ2_indexIntoF
	.cfi_startproc
# %bb.0:                                # %rand_bb
	pushq	%rbp
	.cfi_def_cfa_offset 16
	.cfi_offset %rbp, -16
	movq	%rsp, %rbp
	.cfi_def_cfa_register %rbp
	pushq	%r14
	pushq	%rbx
	.cfi_offset %rbx, -32
	.cfi_offset %r14, -24
	movq	%rsi, %r14
	movl	%edi, %ebx
	callq	get_urand
	cmpl	$0, %eax
	jne	.LBB13_9
# %bb.1:                                # %func_BZ2_indexIntoF.50
	movl	%ebx, %edi
	movq	%r14, %rsi
	callq	BZ2_indexIntoF.50
	popq	%rbx
	popq	%r14
	popq	%rbp
	.cfi_def_cfa %rsp, 8
	retq
.LBB13_2:                               # %func_BZ2_indexIntoF.80
	.cfi_def_cfa %rbp, 16
	movl	%ebx, %edi
	movq	%r14, %rsi
	callq	BZ2_indexIntoF.80
	popq	%rbx
	popq	%r14
	popq	%rbp
	.cfi_def_cfa %rsp, 8
	retq
.LBB13_3:                               # %func_BZ2_indexIntoF.82
	.cfi_def_cfa %rbp, 16
	movl	%ebx, %edi
	movq	%r14, %rsi
	callq	BZ2_indexIntoF.82
	popq	%rbx
	popq	%r14
	popq	%rbp
	.cfi_def_cfa %rsp, 8
	retq
.LBB13_4:                               # %func_BZ2_indexIntoF.130
	.cfi_def_cfa %rbp, 16
	movl	%ebx, %edi
	movq	%r14, %rsi
	callq	BZ2_indexIntoF.130
	popq	%rbx
	popq	%r14
	popq	%rbp
	.cfi_def_cfa %rsp, 8
	retq
.LBB13_5:                               # %func_BZ2_indexIntoF.131
	.cfi_def_cfa %rbp, 16
	movl	%ebx, %edi
	movq	%r14, %rsi
	callq	BZ2_indexIntoF.131
	popq	%rbx
	popq	%r14
	popq	%rbp
	.cfi_def_cfa %rsp, 8
	retq
.LBB13_6:                               # %func_BZ2_indexIntoF.183
	.cfi_def_cfa %rbp, 16
	movl	%ebx, %edi
	movq	%r14, %rsi
	callq	BZ2_indexIntoF.183
	popq	%rbx
	popq	%r14
	popq	%rbp
	.cfi_def_cfa %rsp, 8
	retq
.LBB13_7:                               # %func_BZ2_indexIntoF.188
	.cfi_def_cfa %rbp, 16
	movl	%ebx, %edi
	movq	%r14, %rsi
	callq	BZ2_indexIntoF.188
	popq	%rbx
	popq	%r14
	popq	%rbp
	.cfi_def_cfa %rsp, 8
	retq
.LBB13_8:                               # %func_BZ2_indexIntoF.191
	.cfi_def_cfa %rbp, 16
	movl	%ebx, %edi
	movq	%r14, %rsi
	callq	BZ2_indexIntoF.191
	popq	%rbx
	popq	%r14
	popq	%rbp
	.cfi_def_cfa %rsp, 8
	retq
.LBB13_9:                               # %ctrl0
	.cfi_def_cfa %rbp, 16
	cmpl	$1, %eax
	je	.LBB13_2
# %bb.10:                               # %ctrl1
	cmpl	$2, %eax
	je	.LBB13_3
# %bb.11:                               # %ctrl2
	cmpl	$3, %eax
	je	.LBB13_4
# %bb.12:                               # %ctrl3
	cmpl	$4, %eax
	je	.LBB13_5
# %bb.13:                               # %ctrl4
	cmpl	$5, %eax
	je	.LBB13_6
# %bb.14:                               # %ctrl5
	cmpl	$6, %eax
	je	.LBB13_7
	jmp	.LBB13_8
.Lfunc_end13:
	.size	BZ2_indexIntoF, .Lfunc_end13-BZ2_indexIntoF
	.cfi_endproc
                                        # -- End function
	.globl	BZ2_bzDecompress        # -- Begin function BZ2_bzDecompress
	.p2align	4, 0x90
	.type	BZ2_bzDecompress,@function
BZ2_bzDecompress:                       # @BZ2_bzDecompress
	.cfi_startproc
# %bb.0:                                # %rand_bb
	pushq	%rbp
	.cfi_def_cfa_offset 16
	.cfi_offset %rbp, -16
	movq	%rsp, %rbp
	.cfi_def_cfa_register %rbp
	pushq	%rbx
	pushq	%rax
	.cfi_offset %rbx, -24
	movq	%rdi, %rbx
	callq	get_urand
	cmpl	$0, %eax
	jne	.LBB14_9
# %bb.1:                                # %func_BZ2_bzDecompress.19
	movq	%rbx, %rdi
	callq	BZ2_bzDecompress.19
	addq	$8, %rsp
	popq	%rbx
	popq	%rbp
	.cfi_def_cfa %rsp, 8
	retq
.LBB14_2:                               # %func_BZ2_bzDecompress.38
	.cfi_def_cfa %rbp, 16
	movq	%rbx, %rdi
	callq	BZ2_bzDecompress.38
	addq	$8, %rsp
	popq	%rbx
	popq	%rbp
	.cfi_def_cfa %rsp, 8
	retq
.LBB14_3:                               # %func_BZ2_bzDecompress.70
	.cfi_def_cfa %rbp, 16
	movq	%rbx, %rdi
	callq	BZ2_bzDecompress.70
	addq	$8, %rsp
	popq	%rbx
	popq	%rbp
	.cfi_def_cfa %rsp, 8
	retq
.LBB14_4:                               # %func_BZ2_bzDecompress.104
	.cfi_def_cfa %rbp, 16
	movq	%rbx, %rdi
	callq	BZ2_bzDecompress.104
	addq	$8, %rsp
	popq	%rbx
	popq	%rbp
	.cfi_def_cfa %rsp, 8
	retq
.LBB14_5:                               # %func_BZ2_bzDecompress.167
	.cfi_def_cfa %rbp, 16
	movq	%rbx, %rdi
	callq	BZ2_bzDecompress.167
	addq	$8, %rsp
	popq	%rbx
	popq	%rbp
	.cfi_def_cfa %rsp, 8
	retq
.LBB14_6:                               # %func_BZ2_bzDecompress.202
	.cfi_def_cfa %rbp, 16
	movq	%rbx, %rdi
	callq	BZ2_bzDecompress.202
	addq	$8, %rsp
	popq	%rbx
	popq	%rbp
	.cfi_def_cfa %rsp, 8
	retq
.LBB14_7:                               # %func_BZ2_bzDecompress.214
	.cfi_def_cfa %rbp, 16
	movq	%rbx, %rdi
	callq	BZ2_bzDecompress.214
	addq	$8, %rsp
	popq	%rbx
	popq	%rbp
	.cfi_def_cfa %rsp, 8
	retq
.LBB14_8:                               # %func_BZ2_bzDecompress.217
	.cfi_def_cfa %rbp, 16
	movq	%rbx, %rdi
	callq	BZ2_bzDecompress.217
	addq	$8, %rsp
	popq	%rbx
	popq	%rbp
	.cfi_def_cfa %rsp, 8
	retq
.LBB14_9:                               # %ctrl0
	.cfi_def_cfa %rbp, 16
	cmpl	$1, %eax
	je	.LBB14_2
# %bb.10:                               # %ctrl1
	cmpl	$2, %eax
	je	.LBB14_3
# %bb.11:                               # %ctrl2
	cmpl	$3, %eax
	je	.LBB14_4
# %bb.12:                               # %ctrl3
	cmpl	$4, %eax
	je	.LBB14_5
# %bb.13:                               # %ctrl4
	cmpl	$5, %eax
	je	.LBB14_6
# %bb.14:                               # %ctrl5
	cmpl	$6, %eax
	je	.LBB14_7
	jmp	.LBB14_8
.Lfunc_end14:
	.size	BZ2_bzDecompress, .Lfunc_end14-BZ2_bzDecompress
	.cfi_endproc
                                        # -- End function
	.p2align	4, 0x90         # -- Begin function unRLE_obuf_to_output_SMALL
	.type	unRLE_obuf_to_output_SMALL,@function
unRLE_obuf_to_output_SMALL:             # @unRLE_obuf_to_output_SMALL
	.cfi_startproc
# %bb.0:                                # %rand_bb
	pushq	%rbp
	.cfi_def_cfa_offset 16
	.cfi_offset %rbp, -16
	movq	%rsp, %rbp
	.cfi_def_cfa_register %rbp
	pushq	%rbx
	pushq	%rax
	.cfi_offset %rbx, -24
	movq	%rdi, %rbx
	callq	get_urand
	cmpl	$0, %eax
	jne	.LBB15_7
# %bb.1:                                # %func_unRLE_obuf_to_output_SMALL.2
	movq	%rbx, %rdi
	callq	unRLE_obuf_to_output_SMALL.2
	movzbl	%al, %eax
	addq	$8, %rsp
	popq	%rbx
	popq	%rbp
	.cfi_def_cfa %rsp, 8
	retq
.LBB15_2:                               # %func_unRLE_obuf_to_output_SMALL.6
	.cfi_def_cfa %rbp, 16
	movq	%rbx, %rdi
	callq	unRLE_obuf_to_output_SMALL.6
	movzbl	%al, %eax
	addq	$8, %rsp
	popq	%rbx
	popq	%rbp
	.cfi_def_cfa %rsp, 8
	retq
.LBB15_3:                               # %func_unRLE_obuf_to_output_SMALL.62
	.cfi_def_cfa %rbp, 16
	movq	%rbx, %rdi
	callq	unRLE_obuf_to_output_SMALL.62
	movzbl	%al, %eax
	addq	$8, %rsp
	popq	%rbx
	popq	%rbp
	.cfi_def_cfa %rsp, 8
	retq
.LBB15_4:                               # %func_unRLE_obuf_to_output_SMALL.120
	.cfi_def_cfa %rbp, 16
	movq	%rbx, %rdi
	callq	unRLE_obuf_to_output_SMALL.120
	movzbl	%al, %eax
	addq	$8, %rsp
	popq	%rbx
	popq	%rbp
	.cfi_def_cfa %rsp, 8
	retq
.LBB15_5:                               # %func_unRLE_obuf_to_output_SMALL.138
	.cfi_def_cfa %rbp, 16
	movq	%rbx, %rdi
	callq	unRLE_obuf_to_output_SMALL.138
	movzbl	%al, %eax
	addq	$8, %rsp
	popq	%rbx
	popq	%rbp
	.cfi_def_cfa %rsp, 8
	retq
.LBB15_6:                               # %func_unRLE_obuf_to_output_SMALL.150
	.cfi_def_cfa %rbp, 16
	movq	%rbx, %rdi
	callq	unRLE_obuf_to_output_SMALL.150
	movzbl	%al, %eax
	addq	$8, %rsp
	popq	%rbx
	popq	%rbp
	.cfi_def_cfa %rsp, 8
	retq
.LBB15_7:                               # %ctrl0
	.cfi_def_cfa %rbp, 16
	cmpl	$1, %eax
	je	.LBB15_2
# %bb.8:                                # %ctrl1
	cmpl	$2, %eax
	je	.LBB15_3
# %bb.9:                                # %ctrl2
	cmpl	$3, %eax
	je	.LBB15_4
# %bb.10:                               # %ctrl3
	cmpl	$4, %eax
	je	.LBB15_5
	jmp	.LBB15_6
.Lfunc_end15:
	.size	unRLE_obuf_to_output_SMALL, .Lfunc_end15-unRLE_obuf_to_output_SMALL
	.cfi_endproc
                                        # -- End function
	.p2align	4, 0x90         # -- Begin function unRLE_obuf_to_output_FAST
	.type	unRLE_obuf_to_output_FAST,@function
unRLE_obuf_to_output_FAST:              # @unRLE_obuf_to_output_FAST
	.cfi_startproc
# %bb.0:                                # %rand_bb
	pushq	%rbp
	.cfi_def_cfa_offset 16
	.cfi_offset %rbp, -16
	movq	%rsp, %rbp
	.cfi_def_cfa_register %rbp
	pushq	%rbx
	pushq	%rax
	.cfi_offset %rbx, -24
	movq	%rdi, %rbx
	callq	get_urand
	cmpl	$0, %eax
	jne	.LBB16_9
# %bb.1:                                # %func_unRLE_obuf_to_output_FAST.29
	movq	%rbx, %rdi
	callq	unRLE_obuf_to_output_FAST.29
	movzbl	%al, %eax
	addq	$8, %rsp
	popq	%rbx
	popq	%rbp
	.cfi_def_cfa %rsp, 8
	retq
.LBB16_2:                               # %func_unRLE_obuf_to_output_FAST.34
	.cfi_def_cfa %rbp, 16
	movq	%rbx, %rdi
	callq	unRLE_obuf_to_output_FAST.34
	movzbl	%al, %eax
	addq	$8, %rsp
	popq	%rbx
	popq	%rbp
	.cfi_def_cfa %rsp, 8
	retq
.LBB16_3:                               # %func_unRLE_obuf_to_output_FAST.41
	.cfi_def_cfa %rbp, 16
	movq	%rbx, %rdi
	callq	unRLE_obuf_to_output_FAST.41
	movzbl	%al, %eax
	addq	$8, %rsp
	popq	%rbx
	popq	%rbp
	.cfi_def_cfa %rsp, 8
	retq
.LBB16_4:                               # %func_unRLE_obuf_to_output_FAST.68
	.cfi_def_cfa %rbp, 16
	movq	%rbx, %rdi
	callq	unRLE_obuf_to_output_FAST.68
	movzbl	%al, %eax
	addq	$8, %rsp
	popq	%rbx
	popq	%rbp
	.cfi_def_cfa %rsp, 8
	retq
.LBB16_5:                               # %func_unRLE_obuf_to_output_FAST.74
	.cfi_def_cfa %rbp, 16
	movq	%rbx, %rdi
	callq	unRLE_obuf_to_output_FAST.74
	movzbl	%al, %eax
	addq	$8, %rsp
	popq	%rbx
	popq	%rbp
	.cfi_def_cfa %rsp, 8
	retq
.LBB16_6:                               # %func_unRLE_obuf_to_output_FAST.102
	.cfi_def_cfa %rbp, 16
	movq	%rbx, %rdi
	callq	unRLE_obuf_to_output_FAST.102
	movzbl	%al, %eax
	addq	$8, %rsp
	popq	%rbx
	popq	%rbp
	.cfi_def_cfa %rsp, 8
	retq
.LBB16_7:                               # %func_unRLE_obuf_to_output_FAST.115
	.cfi_def_cfa %rbp, 16
	movq	%rbx, %rdi
	callq	unRLE_obuf_to_output_FAST.115
	movzbl	%al, %eax
	addq	$8, %rsp
	popq	%rbx
	popq	%rbp
	.cfi_def_cfa %rsp, 8
	retq
.LBB16_8:                               # %func_unRLE_obuf_to_output_FAST.135
	.cfi_def_cfa %rbp, 16
	movq	%rbx, %rdi
	callq	unRLE_obuf_to_output_FAST.135
	movzbl	%al, %eax
	addq	$8, %rsp
	popq	%rbx
	popq	%rbp
	.cfi_def_cfa %rsp, 8
	retq
.LBB16_9:                               # %ctrl0
	.cfi_def_cfa %rbp, 16
	cmpl	$1, %eax
	je	.LBB16_2
# %bb.10:                               # %ctrl1
	cmpl	$2, %eax
	je	.LBB16_3
# %bb.11:                               # %ctrl2
	cmpl	$3, %eax
	je	.LBB16_4
# %bb.12:                               # %ctrl3
	cmpl	$4, %eax
	je	.LBB16_5
# %bb.13:                               # %ctrl4
	cmpl	$5, %eax
	je	.LBB16_6
# %bb.14:                               # %ctrl5
	cmpl	$6, %eax
	je	.LBB16_7
	jmp	.LBB16_8
.Lfunc_end16:
	.size	unRLE_obuf_to_output_FAST, .Lfunc_end16-unRLE_obuf_to_output_FAST
	.cfi_endproc
                                        # -- End function
	.globl	BZ2_bzDecompressEnd     # -- Begin function BZ2_bzDecompressEnd
	.p2align	4, 0x90
	.type	BZ2_bzDecompressEnd,@function
BZ2_bzDecompressEnd:                    # @BZ2_bzDecompressEnd
	.cfi_startproc
# %bb.0:                                # %rand_bb
	pushq	%rbp
	.cfi_def_cfa_offset 16
	.cfi_offset %rbp, -16
	movq	%rsp, %rbp
	.cfi_def_cfa_register %rbp
	pushq	%rbx
	pushq	%rax
	.cfi_offset %rbx, -24
	movq	%rdi, %rbx
	callq	get_urand
	cmpl	$0, %eax
	jne	.LBB17_7
# %bb.1:                                # %func_BZ2_bzDecompressEnd.53
	movq	%rbx, %rdi
	callq	BZ2_bzDecompressEnd.53
	addq	$8, %rsp
	popq	%rbx
	popq	%rbp
	.cfi_def_cfa %rsp, 8
	retq
.LBB17_2:                               # %func_BZ2_bzDecompressEnd.75
	.cfi_def_cfa %rbp, 16
	movq	%rbx, %rdi
	callq	BZ2_bzDecompressEnd.75
	addq	$8, %rsp
	popq	%rbx
	popq	%rbp
	.cfi_def_cfa %rsp, 8
	retq
.LBB17_3:                               # %func_BZ2_bzDecompressEnd.87
	.cfi_def_cfa %rbp, 16
	movq	%rbx, %rdi
	callq	BZ2_bzDecompressEnd.87
	addq	$8, %rsp
	popq	%rbx
	popq	%rbp
	.cfi_def_cfa %rsp, 8
	retq
.LBB17_4:                               # %func_BZ2_bzDecompressEnd.96
	.cfi_def_cfa %rbp, 16
	movq	%rbx, %rdi
	callq	BZ2_bzDecompressEnd.96
	addq	$8, %rsp
	popq	%rbx
	popq	%rbp
	.cfi_def_cfa %rsp, 8
	retq
.LBB17_5:                               # %func_BZ2_bzDecompressEnd.116
	.cfi_def_cfa %rbp, 16
	movq	%rbx, %rdi
	callq	BZ2_bzDecompressEnd.116
	addq	$8, %rsp
	popq	%rbx
	popq	%rbp
	.cfi_def_cfa %rsp, 8
	retq
.LBB17_6:                               # %func_BZ2_bzDecompressEnd.144
	.cfi_def_cfa %rbp, 16
	movq	%rbx, %rdi
	callq	BZ2_bzDecompressEnd.144
	addq	$8, %rsp
	popq	%rbx
	popq	%rbp
	.cfi_def_cfa %rsp, 8
	retq
.LBB17_7:                               # %ctrl0
	.cfi_def_cfa %rbp, 16
	cmpl	$1, %eax
	je	.LBB17_2
# %bb.8:                                # %ctrl1
	cmpl	$2, %eax
	je	.LBB17_3
# %bb.9:                                # %ctrl2
	cmpl	$3, %eax
	je	.LBB17_4
# %bb.10:                               # %ctrl3
	cmpl	$4, %eax
	je	.LBB17_5
	jmp	.LBB17_6
.Lfunc_end17:
	.size	BZ2_bzDecompressEnd, .Lfunc_end17-BZ2_bzDecompressEnd
	.cfi_endproc
                                        # -- End function
	.globl	BZ2_bzWriteOpen         # -- Begin function BZ2_bzWriteOpen
	.p2align	4, 0x90
	.type	BZ2_bzWriteOpen,@function
BZ2_bzWriteOpen:                        # @BZ2_bzWriteOpen
	.cfi_startproc
# %bb.0:                                # %rand_bb
	pushq	%rbp
	.cfi_def_cfa_offset 16
	.cfi_offset %rbp, -16
	movq	%rsp, %rbp
	.cfi_def_cfa_register %rbp
	pushq	%r15
	pushq	%r14
	pushq	%r13
	pushq	%r12
	pushq	%rbx
	pushq	%rax
	.cfi_offset %rbx, -56
	.cfi_offset %r12, -48
	.cfi_offset %r13, -40
	.cfi_offset %r14, -32
	.cfi_offset %r15, -24
	movl	%r8d, %r14d
	movl	%ecx, %r15d
	movl	%edx, %r12d
	movq	%rsi, %r13
	movq	%rdi, %rbx
	callq	get_urand
	cmpl	$0, %eax
	jne	.LBB18_9
# %bb.1:                                # %func_BZ2_bzWriteOpen.7
	movq	%rbx, %rdi
	movq	%r13, %rsi
	movl	%r12d, %edx
	movl	%r15d, %ecx
	movl	%r14d, %r8d
	callq	BZ2_bzWriteOpen.7
	addq	$8, %rsp
	popq	%rbx
	popq	%r12
	popq	%r13
	popq	%r14
	popq	%r15
	popq	%rbp
	.cfi_def_cfa %rsp, 8
	retq
.LBB18_2:                               # %func_BZ2_bzWriteOpen.16
	.cfi_def_cfa %rbp, 16
	movq	%rbx, %rdi
	movq	%r13, %rsi
	movl	%r12d, %edx
	movl	%r15d, %ecx
	movl	%r14d, %r8d
	callq	BZ2_bzWriteOpen.16
	addq	$8, %rsp
	popq	%rbx
	popq	%r12
	popq	%r13
	popq	%r14
	popq	%r15
	popq	%rbp
	.cfi_def_cfa %rsp, 8
	retq
.LBB18_3:                               # %func_BZ2_bzWriteOpen.98
	.cfi_def_cfa %rbp, 16
	movq	%rbx, %rdi
	movq	%r13, %rsi
	movl	%r12d, %edx
	movl	%r15d, %ecx
	movl	%r14d, %r8d
	callq	BZ2_bzWriteOpen.98
	addq	$8, %rsp
	popq	%rbx
	popq	%r12
	popq	%r13
	popq	%r14
	popq	%r15
	popq	%rbp
	.cfi_def_cfa %rsp, 8
	retq
.LBB18_4:                               # %func_BZ2_bzWriteOpen.145
	.cfi_def_cfa %rbp, 16
	movq	%rbx, %rdi
	movq	%r13, %rsi
	movl	%r12d, %edx
	movl	%r15d, %ecx
	movl	%r14d, %r8d
	callq	BZ2_bzWriteOpen.145
	addq	$8, %rsp
	popq	%rbx
	popq	%r12
	popq	%r13
	popq	%r14
	popq	%r15
	popq	%rbp
	.cfi_def_cfa %rsp, 8
	retq
.LBB18_5:                               # %func_BZ2_bzWriteOpen.156
	.cfi_def_cfa %rbp, 16
	movq	%rbx, %rdi
	movq	%r13, %rsi
	movl	%r12d, %edx
	movl	%r15d, %ecx
	movl	%r14d, %r8d
	callq	BZ2_bzWriteOpen.156
	addq	$8, %rsp
	popq	%rbx
	popq	%r12
	popq	%r13
	popq	%r14
	popq	%r15
	popq	%rbp
	.cfi_def_cfa %rsp, 8
	retq
.LBB18_6:                               # %func_BZ2_bzWriteOpen.205
	.cfi_def_cfa %rbp, 16
	movq	%rbx, %rdi
	movq	%r13, %rsi
	movl	%r12d, %edx
	movl	%r15d, %ecx
	movl	%r14d, %r8d
	callq	BZ2_bzWriteOpen.205
	addq	$8, %rsp
	popq	%rbx
	popq	%r12
	popq	%r13
	popq	%r14
	popq	%r15
	popq	%rbp
	.cfi_def_cfa %rsp, 8
	retq
.LBB18_7:                               # %func_BZ2_bzWriteOpen.209
	.cfi_def_cfa %rbp, 16
	movq	%rbx, %rdi
	movq	%r13, %rsi
	movl	%r12d, %edx
	movl	%r15d, %ecx
	movl	%r14d, %r8d
	callq	BZ2_bzWriteOpen.209
	addq	$8, %rsp
	popq	%rbx
	popq	%r12
	popq	%r13
	popq	%r14
	popq	%r15
	popq	%rbp
	.cfi_def_cfa %rsp, 8
	retq
.LBB18_8:                               # %func_BZ2_bzWriteOpen.218
	.cfi_def_cfa %rbp, 16
	movq	%rbx, %rdi
	movq	%r13, %rsi
	movl	%r12d, %edx
	movl	%r15d, %ecx
	movl	%r14d, %r8d
	callq	BZ2_bzWriteOpen.218
	addq	$8, %rsp
	popq	%rbx
	popq	%r12
	popq	%r13
	popq	%r14
	popq	%r15
	popq	%rbp
	.cfi_def_cfa %rsp, 8
	retq
.LBB18_9:                               # %ctrl0
	.cfi_def_cfa %rbp, 16
	cmpl	$1, %eax
	je	.LBB18_2
# %bb.10:                               # %ctrl1
	cmpl	$2, %eax
	je	.LBB18_3
# %bb.11:                               # %ctrl2
	cmpl	$3, %eax
	je	.LBB18_4
# %bb.12:                               # %ctrl3
	cmpl	$4, %eax
	je	.LBB18_5
# %bb.13:                               # %ctrl4
	cmpl	$5, %eax
	je	.LBB18_6
# %bb.14:                               # %ctrl5
	cmpl	$6, %eax
	je	.LBB18_7
	jmp	.LBB18_8
.Lfunc_end18:
	.size	BZ2_bzWriteOpen, .Lfunc_end18-BZ2_bzWriteOpen
	.cfi_endproc
                                        # -- End function
	.globl	BZ2_bzWrite             # -- Begin function BZ2_bzWrite
	.p2align	4, 0x90
	.type	BZ2_bzWrite,@function
BZ2_bzWrite:                            # @BZ2_bzWrite
	.cfi_startproc
# %bb.0:                                # %rand_bb
	pushq	%rbp
	.cfi_def_cfa_offset 16
	.cfi_offset %rbp, -16
	movq	%rsp, %rbp
	.cfi_def_cfa_register %rbp
	pushq	%r15
	pushq	%r14
	pushq	%r12
	pushq	%rbx
	.cfi_offset %rbx, -48
	.cfi_offset %r12, -40
	.cfi_offset %r14, -32
	.cfi_offset %r15, -24
	movl	%ecx, %r14d
	movq	%rdx, %r15
	movq	%rsi, %r12
	movq	%rdi, %rbx
	callq	get_urand
	cmpl	$0, %eax
	jne	.LBB19_9
# %bb.1:                                # %func_BZ2_bzWrite.57
	movq	%rbx, %rdi
	movq	%r12, %rsi
	movq	%r15, %rdx
	movl	%r14d, %ecx
	callq	BZ2_bzWrite.57
	popq	%rbx
	popq	%r12
	popq	%r14
	popq	%r15
	popq	%rbp
	.cfi_def_cfa %rsp, 8
	retq
.LBB19_2:                               # %func_BZ2_bzWrite.69
	.cfi_def_cfa %rbp, 16
	movq	%rbx, %rdi
	movq	%r12, %rsi
	movq	%r15, %rdx
	movl	%r14d, %ecx
	callq	BZ2_bzWrite.69
	popq	%rbx
	popq	%r12
	popq	%r14
	popq	%r15
	popq	%rbp
	.cfi_def_cfa %rsp, 8
	retq
.LBB19_3:                               # %func_BZ2_bzWrite.109
	.cfi_def_cfa %rbp, 16
	movq	%rbx, %rdi
	movq	%r12, %rsi
	movq	%r15, %rdx
	movl	%r14d, %ecx
	callq	BZ2_bzWrite.109
	popq	%rbx
	popq	%r12
	popq	%r14
	popq	%r15
	popq	%rbp
	.cfi_def_cfa %rsp, 8
	retq
.LBB19_4:                               # %func_BZ2_bzWrite.151
	.cfi_def_cfa %rbp, 16
	movq	%rbx, %rdi
	movq	%r12, %rsi
	movq	%r15, %rdx
	movl	%r14d, %ecx
	callq	BZ2_bzWrite.151
	popq	%rbx
	popq	%r12
	popq	%r14
	popq	%r15
	popq	%rbp
	.cfi_def_cfa %rsp, 8
	retq
.LBB19_5:                               # %func_BZ2_bzWrite.158
	.cfi_def_cfa %rbp, 16
	movq	%rbx, %rdi
	movq	%r12, %rsi
	movq	%r15, %rdx
	movl	%r14d, %ecx
	callq	BZ2_bzWrite.158
	popq	%rbx
	popq	%r12
	popq	%r14
	popq	%r15
	popq	%rbp
	.cfi_def_cfa %rsp, 8
	retq
.LBB19_6:                               # %func_BZ2_bzWrite.187
	.cfi_def_cfa %rbp, 16
	movq	%rbx, %rdi
	movq	%r12, %rsi
	movq	%r15, %rdx
	movl	%r14d, %ecx
	callq	BZ2_bzWrite.187
	popq	%rbx
	popq	%r12
	popq	%r14
	popq	%r15
	popq	%rbp
	.cfi_def_cfa %rsp, 8
	retq
.LBB19_7:                               # %func_BZ2_bzWrite.201
	.cfi_def_cfa %rbp, 16
	movq	%rbx, %rdi
	movq	%r12, %rsi
	movq	%r15, %rdx
	movl	%r14d, %ecx
	callq	BZ2_bzWrite.201
	popq	%rbx
	popq	%r12
	popq	%r14
	popq	%r15
	popq	%rbp
	.cfi_def_cfa %rsp, 8
	retq
.LBB19_8:                               # %func_BZ2_bzWrite.213
	.cfi_def_cfa %rbp, 16
	movq	%rbx, %rdi
	movq	%r12, %rsi
	movq	%r15, %rdx
	movl	%r14d, %ecx
	callq	BZ2_bzWrite.213
	popq	%rbx
	popq	%r12
	popq	%r14
	popq	%r15
	popq	%rbp
	.cfi_def_cfa %rsp, 8
	retq
.LBB19_9:                               # %ctrl0
	.cfi_def_cfa %rbp, 16
	cmpl	$1, %eax
	je	.LBB19_2
# %bb.10:                               # %ctrl1
	cmpl	$2, %eax
	je	.LBB19_3
# %bb.11:                               # %ctrl2
	cmpl	$3, %eax
	je	.LBB19_4
# %bb.12:                               # %ctrl3
	cmpl	$4, %eax
	je	.LBB19_5
# %bb.13:                               # %ctrl4
	cmpl	$5, %eax
	je	.LBB19_6
# %bb.14:                               # %ctrl5
	cmpl	$6, %eax
	je	.LBB19_7
	jmp	.LBB19_8
.Lfunc_end19:
	.size	BZ2_bzWrite, .Lfunc_end19-BZ2_bzWrite
	.cfi_endproc
                                        # -- End function
	.globl	BZ2_bzWriteClose        # -- Begin function BZ2_bzWriteClose
	.p2align	4, 0x90
	.type	BZ2_bzWriteClose,@function
BZ2_bzWriteClose:                       # @BZ2_bzWriteClose
	.cfi_startproc
# %bb.0:                                # %rand_bb
	pushq	%rbp
	.cfi_def_cfa_offset 16
	.cfi_offset %rbp, -16
	movq	%rsp, %rbp
	.cfi_def_cfa_register %rbp
	pushq	%r15
	pushq	%r14
	pushq	%r13
	pushq	%r12
	pushq	%rbx
	pushq	%rax
	.cfi_offset %rbx, -56
	.cfi_offset %r12, -48
	.cfi_offset %r13, -40
	.cfi_offset %r14, -32
	.cfi_offset %r15, -24
	movq	%r8, %r14
	movq	%rcx, %r15
	movl	%edx, %r12d
	movq	%rsi, %r13
	movq	%rdi, %rbx
	callq	get_urand
	cmpl	$0, %eax
	jne	.LBB20_9
# %bb.1:                                # %func_BZ2_bzWriteClose.8
	movq	%rbx, %rdi
	movq	%r13, %rsi
	movl	%r12d, %edx
	movq	%r15, %rcx
	movq	%r14, %r8
	callq	BZ2_bzWriteClose.8
	addq	$8, %rsp
	popq	%rbx
	popq	%r12
	popq	%r13
	popq	%r14
	popq	%r15
	popq	%rbp
	.cfi_def_cfa %rsp, 8
	retq
.LBB20_2:                               # %func_BZ2_bzWriteClose.166
	.cfi_def_cfa %rbp, 16
	movq	%rbx, %rdi
	movq	%r13, %rsi
	movl	%r12d, %edx
	movq	%r15, %rcx
	movq	%r14, %r8
	callq	BZ2_bzWriteClose.166
	addq	$8, %rsp
	popq	%rbx
	popq	%r12
	popq	%r13
	popq	%r14
	popq	%r15
	popq	%rbp
	.cfi_def_cfa %rsp, 8
	retq
.LBB20_3:                               # %func_BZ2_bzWriteClose.207
	.cfi_def_cfa %rbp, 16
	movq	%rbx, %rdi
	movq	%r13, %rsi
	movl	%r12d, %edx
	movq	%r15, %rcx
	movq	%r14, %r8
	callq	BZ2_bzWriteClose.207
	addq	$8, %rsp
	popq	%rbx
	popq	%r12
	popq	%r13
	popq	%r14
	popq	%r15
	popq	%rbp
	.cfi_def_cfa %rsp, 8
	retq
.LBB20_4:                               # %func_BZ2_bzWriteClose.212
	.cfi_def_cfa %rbp, 16
	movq	%rbx, %rdi
	movq	%r13, %rsi
	movl	%r12d, %edx
	movq	%r15, %rcx
	movq	%r14, %r8
	callq	BZ2_bzWriteClose.212
	addq	$8, %rsp
	popq	%rbx
	popq	%r12
	popq	%r13
	popq	%r14
	popq	%r15
	popq	%rbp
	.cfi_def_cfa %rsp, 8
	retq
.LBB20_5:                               # %func_BZ2_bzWriteClose.215
	.cfi_def_cfa %rbp, 16
	movq	%rbx, %rdi
	movq	%r13, %rsi
	movl	%r12d, %edx
	movq	%r15, %rcx
	movq	%r14, %r8
	callq	BZ2_bzWriteClose.215
	addq	$8, %rsp
	popq	%rbx
	popq	%r12
	popq	%r13
	popq	%r14
	popq	%r15
	popq	%rbp
	.cfi_def_cfa %rsp, 8
	retq
.LBB20_6:                               # %func_BZ2_bzWriteClose.220
	.cfi_def_cfa %rbp, 16
	movq	%rbx, %rdi
	movq	%r13, %rsi
	movl	%r12d, %edx
	movq	%r15, %rcx
	movq	%r14, %r8
	callq	BZ2_bzWriteClose.220
	addq	$8, %rsp
	popq	%rbx
	popq	%r12
	popq	%r13
	popq	%r14
	popq	%r15
	popq	%rbp
	.cfi_def_cfa %rsp, 8
	retq
.LBB20_7:                               # %func_BZ2_bzWriteClose.225
	.cfi_def_cfa %rbp, 16
	movq	%rbx, %rdi
	movq	%r13, %rsi
	movl	%r12d, %edx
	movq	%r15, %rcx
	movq	%r14, %r8
	callq	BZ2_bzWriteClose.225
	addq	$8, %rsp
	popq	%rbx
	popq	%r12
	popq	%r13
	popq	%r14
	popq	%r15
	popq	%rbp
	.cfi_def_cfa %rsp, 8
	retq
.LBB20_8:                               # %func_BZ2_bzWriteClose.227
	.cfi_def_cfa %rbp, 16
	movq	%rbx, %rdi
	movq	%r13, %rsi
	movl	%r12d, %edx
	movq	%r15, %rcx
	movq	%r14, %r8
	callq	BZ2_bzWriteClose.227
	addq	$8, %rsp
	popq	%rbx
	popq	%r12
	popq	%r13
	popq	%r14
	popq	%r15
	popq	%rbp
	.cfi_def_cfa %rsp, 8
	retq
.LBB20_9:                               # %ctrl0
	.cfi_def_cfa %rbp, 16
	cmpl	$1, %eax
	je	.LBB20_2
# %bb.10:                               # %ctrl1
	cmpl	$2, %eax
	je	.LBB20_3
# %bb.11:                               # %ctrl2
	cmpl	$3, %eax
	je	.LBB20_4
# %bb.12:                               # %ctrl3
	cmpl	$4, %eax
	je	.LBB20_5
# %bb.13:                               # %ctrl4
	cmpl	$5, %eax
	je	.LBB20_6
# %bb.14:                               # %ctrl5
	cmpl	$6, %eax
	je	.LBB20_7
	jmp	.LBB20_8
.Lfunc_end20:
	.size	BZ2_bzWriteClose, .Lfunc_end20-BZ2_bzWriteClose
	.cfi_endproc
                                        # -- End function
	.globl	BZ2_bzWriteClose64      # -- Begin function BZ2_bzWriteClose64
	.p2align	4, 0x90
	.type	BZ2_bzWriteClose64,@function
BZ2_bzWriteClose64:                     # @BZ2_bzWriteClose64
	.cfi_startproc
# %bb.0:                                # %rand_bb
	pushq	%rbp
	.cfi_def_cfa_offset 16
	.cfi_offset %rbp, -16
	movq	%rsp, %rbp
	.cfi_def_cfa_register %rbp
	pushq	%r15
	pushq	%r14
	pushq	%r13
	pushq	%r12
	pushq	%rbx
	subq	$24, %rsp
	.cfi_offset %rbx, -56
	.cfi_offset %r12, -48
	.cfi_offset %r13, -40
	.cfi_offset %r14, -32
	.cfi_offset %r15, -24
	movq	%r9, -48(%rbp)          # 8-byte Spill
	movq	%r8, %r13
	movq	%rcx, %r15
	movl	%edx, %ebx
	movq	%rsi, %r14
	movq	%rdi, %r12
	callq	get_urand
	cmpl	$0, %eax
	jne	.LBB21_9
# %bb.1:                                # %func_BZ2_bzWriteClose64.36
	movq	%r12, %rdi
	movq	%r14, %rsi
	movl	%ebx, %edx
	movq	%r15, %rcx
	movq	%r13, %r8
	movq	-48(%rbp), %r9          # 8-byte Reload
	movq	16(%rbp), %rax
	movq	%rax, (%rsp)
	callq	BZ2_bzWriteClose64.36
	addq	$24, %rsp
	popq	%rbx
	popq	%r12
	popq	%r13
	popq	%r14
	popq	%r15
	popq	%rbp
	.cfi_def_cfa %rsp, 8
	retq
.LBB21_2:                               # %func_BZ2_bzWriteClose64.45
	.cfi_def_cfa %rbp, 16
	movq	%r12, %rdi
	movq	%r14, %rsi
	movl	%ebx, %edx
	movq	%r15, %rcx
	movq	%r13, %r8
	movq	%r10, (%rsp)
	callq	BZ2_bzWriteClose64.45
	addq	$24, %rsp
	popq	%rbx
	popq	%r12
	popq	%r13
	popq	%r14
	popq	%r15
	popq	%rbp
	.cfi_def_cfa %rsp, 8
	retq
.LBB21_3:                               # %func_BZ2_bzWriteClose64.64
	.cfi_def_cfa %rbp, 16
	movq	%r12, %rdi
	movq	%r14, %rsi
	movl	%ebx, %edx
	movq	%r15, %rcx
	movq	%r13, %r8
	movq	%r10, (%rsp)
	callq	BZ2_bzWriteClose64.64
	addq	$24, %rsp
	popq	%rbx
	popq	%r12
	popq	%r13
	popq	%r14
	popq	%r15
	popq	%rbp
	.cfi_def_cfa %rsp, 8
	retq
.LBB21_4:                               # %func_BZ2_bzWriteClose64.111
	.cfi_def_cfa %rbp, 16
	movq	%r12, %rdi
	movq	%r14, %rsi
	movl	%ebx, %edx
	movq	%r15, %rcx
	movq	%r13, %r8
	movq	%r10, (%rsp)
	callq	BZ2_bzWriteClose64.111
	addq	$24, %rsp
	popq	%rbx
	popq	%r12
	popq	%r13
	popq	%r14
	popq	%r15
	popq	%rbp
	.cfi_def_cfa %rsp, 8
	retq
.LBB21_5:                               # %func_BZ2_bzWriteClose64.119
	.cfi_def_cfa %rbp, 16
	movq	%r12, %rdi
	movq	%r14, %rsi
	movl	%ebx, %edx
	movq	%r15, %rcx
	movq	%r13, %r8
	movq	%r10, (%rsp)
	callq	BZ2_bzWriteClose64.119
	addq	$24, %rsp
	popq	%rbx
	popq	%r12
	popq	%r13
	popq	%r14
	popq	%r15
	popq	%rbp
	.cfi_def_cfa %rsp, 8
	retq
.LBB21_6:                               # %func_BZ2_bzWriteClose64.172
	.cfi_def_cfa %rbp, 16
	movq	%r12, %rdi
	movq	%r14, %rsi
	movl	%ebx, %edx
	movq	%r15, %rcx
	movq	%r13, %r8
	movq	%r10, (%rsp)
	callq	BZ2_bzWriteClose64.172
	addq	$24, %rsp
	popq	%rbx
	popq	%r12
	popq	%r13
	popq	%r14
	popq	%r15
	popq	%rbp
	.cfi_def_cfa %rsp, 8
	retq
.LBB21_7:                               # %func_BZ2_bzWriteClose64.178
	.cfi_def_cfa %rbp, 16
	movq	%r10, (%rsp)
	callq	BZ2_bzWriteClose64.178
	addq	$24, %rsp
	popq	%rbx
	popq	%r12
	popq	%r13
	popq	%r14
	popq	%r15
	popq	%rbp
	.cfi_def_cfa %rsp, 8
	retq
.LBB21_8:                               # %func_BZ2_bzWriteClose64.216
	.cfi_def_cfa %rbp, 16
	movq	%r10, (%rsp)
	callq	BZ2_bzWriteClose64.216
	addq	$24, %rsp
	popq	%rbx
	popq	%r12
	popq	%r13
	popq	%r14
	popq	%r15
	popq	%rbp
	.cfi_def_cfa %rsp, 8
	retq
.LBB21_9:                               # %ctrl0
	.cfi_def_cfa %rbp, 16
	movq	-48(%rbp), %r9          # 8-byte Reload
	movq	16(%rbp), %r10
	cmpl	$1, %eax
	je	.LBB21_2
# %bb.10:                               # %ctrl1
	cmpl	$2, %eax
	je	.LBB21_3
# %bb.11:                               # %ctrl2
	cmpl	$3, %eax
	je	.LBB21_4
# %bb.12:                               # %ctrl3
	cmpl	$4, %eax
	je	.LBB21_5
# %bb.13:                               # %ctrl4
	cmpl	$5, %eax
	je	.LBB21_6
# %bb.14:                               # %ctrl5
	cmpl	$6, %eax
	movq	%r13, %r8
	movq	%r15, %rcx
	movl	%ebx, %edx
	movq	%r14, %rsi
	movq	%r12, %rdi
	je	.LBB21_7
	jmp	.LBB21_8
.Lfunc_end21:
	.size	BZ2_bzWriteClose64, .Lfunc_end21-BZ2_bzWriteClose64
	.cfi_endproc
                                        # -- End function
	.globl	BZ2_bzReadOpen          # -- Begin function BZ2_bzReadOpen
	.p2align	4, 0x90
	.type	BZ2_bzReadOpen,@function
BZ2_bzReadOpen:                         # @BZ2_bzReadOpen
	.cfi_startproc
# %bb.0:                                # %rand_bb
	pushq	%rbp
	.cfi_def_cfa_offset 16
	.cfi_offset %rbp, -16
	movq	%rsp, %rbp
	.cfi_def_cfa_register %rbp
	pushq	%r15
	pushq	%r14
	pushq	%r13
	pushq	%r12
	pushq	%rbx
	pushq	%rax
	.cfi_offset %rbx, -56
	.cfi_offset %r12, -48
	.cfi_offset %r13, -40
	.cfi_offset %r14, -32
	.cfi_offset %r15, -24
	movl	%r9d, -44(%rbp)         # 4-byte Spill
	movq	%r8, %r12
	movl	%ecx, %r13d
	movl	%edx, %ebx
	movq	%rsi, %r14
	movq	%rdi, %r15
	callq	get_urand
	cmpl	$0, %eax
	jne	.LBB22_9
# %bb.1:                                # %func_BZ2_bzReadOpen.51
	movq	%r15, %rdi
	movq	%r14, %rsi
	movl	%ebx, %edx
	movl	%r13d, %ecx
	movq	%r12, %r8
	movl	-44(%rbp), %r9d         # 4-byte Reload
	callq	BZ2_bzReadOpen.51
	addq	$8, %rsp
	popq	%rbx
	popq	%r12
	popq	%r13
	popq	%r14
	popq	%r15
	popq	%rbp
	.cfi_def_cfa %rsp, 8
	retq
.LBB22_2:                               # %func_BZ2_bzReadOpen.97
	.cfi_def_cfa %rbp, 16
	movq	%r15, %rdi
	movq	%r14, %rsi
	movl	%ebx, %edx
	movl	%r13d, %ecx
	movq	%r12, %r8
	callq	BZ2_bzReadOpen.97
	addq	$8, %rsp
	popq	%rbx
	popq	%r12
	popq	%r13
	popq	%r14
	popq	%r15
	popq	%rbp
	.cfi_def_cfa %rsp, 8
	retq
.LBB22_3:                               # %func_BZ2_bzReadOpen.180
	.cfi_def_cfa %rbp, 16
	movq	%r15, %rdi
	movq	%r14, %rsi
	movl	%ebx, %edx
	movl	%r13d, %ecx
	movq	%r12, %r8
	callq	BZ2_bzReadOpen.180
	addq	$8, %rsp
	popq	%rbx
	popq	%r12
	popq	%r13
	popq	%r14
	popq	%r15
	popq	%rbp
	.cfi_def_cfa %rsp, 8
	retq
.LBB22_4:                               # %func_BZ2_bzReadOpen.219
	.cfi_def_cfa %rbp, 16
	movq	%r15, %rdi
	movq	%r14, %rsi
	movl	%ebx, %edx
	movl	%r13d, %ecx
	movq	%r12, %r8
	callq	BZ2_bzReadOpen.219
	addq	$8, %rsp
	popq	%rbx
	popq	%r12
	popq	%r13
	popq	%r14
	popq	%r15
	popq	%rbp
	.cfi_def_cfa %rsp, 8
	retq
.LBB22_5:                               # %func_BZ2_bzReadOpen.221
	.cfi_def_cfa %rbp, 16
	movq	%r15, %rdi
	movq	%r14, %rsi
	movl	%ebx, %edx
	movl	%r13d, %ecx
	movq	%r12, %r8
	callq	BZ2_bzReadOpen.221
	addq	$8, %rsp
	popq	%rbx
	popq	%r12
	popq	%r13
	popq	%r14
	popq	%r15
	popq	%rbp
	.cfi_def_cfa %rsp, 8
	retq
.LBB22_6:                               # %func_BZ2_bzReadOpen.223
	.cfi_def_cfa %rbp, 16
	movq	%r15, %rdi
	movq	%r14, %rsi
	movl	%ebx, %edx
	movl	%r13d, %ecx
	movq	%r12, %r8
	callq	BZ2_bzReadOpen.223
	addq	$8, %rsp
	popq	%rbx
	popq	%r12
	popq	%r13
	popq	%r14
	popq	%r15
	popq	%rbp
	.cfi_def_cfa %rsp, 8
	retq
.LBB22_7:                               # %func_BZ2_bzReadOpen.226
	.cfi_def_cfa %rbp, 16
	callq	BZ2_bzReadOpen.226
	addq	$8, %rsp
	popq	%rbx
	popq	%r12
	popq	%r13
	popq	%r14
	popq	%r15
	popq	%rbp
	.cfi_def_cfa %rsp, 8
	retq
.LBB22_8:                               # %func_BZ2_bzReadOpen.228
	.cfi_def_cfa %rbp, 16
	callq	BZ2_bzReadOpen.228
	addq	$8, %rsp
	popq	%rbx
	popq	%r12
	popq	%r13
	popq	%r14
	popq	%r15
	popq	%rbp
	.cfi_def_cfa %rsp, 8
	retq
.LBB22_9:                               # %ctrl0
	.cfi_def_cfa %rbp, 16
	movl	-44(%rbp), %r9d         # 4-byte Reload
	cmpl	$1, %eax
	je	.LBB22_2
# %bb.10:                               # %ctrl1
	cmpl	$2, %eax
	je	.LBB22_3
# %bb.11:                               # %ctrl2
	cmpl	$3, %eax
	je	.LBB22_4
# %bb.12:                               # %ctrl3
	cmpl	$4, %eax
	je	.LBB22_5
# %bb.13:                               # %ctrl4
	cmpl	$5, %eax
	je	.LBB22_6
# %bb.14:                               # %ctrl5
	cmpl	$6, %eax
	movq	%r12, %r8
	movl	%r13d, %ecx
	movl	%ebx, %edx
	movq	%r14, %rsi
	movq	%r15, %rdi
	je	.LBB22_7
	jmp	.LBB22_8
.Lfunc_end22:
	.size	BZ2_bzReadOpen, .Lfunc_end22-BZ2_bzReadOpen
	.cfi_endproc
                                        # -- End function
	.globl	BZ2_bzReadClose         # -- Begin function BZ2_bzReadClose
	.p2align	4, 0x90
	.type	BZ2_bzReadClose,@function
BZ2_bzReadClose:                        # @BZ2_bzReadClose
	.cfi_startproc
# %bb.0:                                # %rand_bb
	pushq	%rbp
	.cfi_def_cfa_offset 16
	.cfi_offset %rbp, -16
	movq	%rsp, %rbp
	.cfi_def_cfa_register %rbp
	pushq	%r14
	pushq	%rbx
	.cfi_offset %rbx, -32
	.cfi_offset %r14, -24
	movq	%rsi, %r14
	movq	%rdi, %rbx
	callq	get_urand
	cmpl	$0, %eax
	jne	.LBB23_7
# %bb.1:                                # %func_BZ2_bzReadClose.35
	movq	%rbx, %rdi
	movq	%r14, %rsi
	callq	BZ2_bzReadClose.35
	popq	%rbx
	popq	%r14
	popq	%rbp
	.cfi_def_cfa %rsp, 8
	retq
.LBB23_2:                               # %func_BZ2_bzReadClose.44
	.cfi_def_cfa %rbp, 16
	movq	%rbx, %rdi
	movq	%r14, %rsi
	callq	BZ2_bzReadClose.44
	popq	%rbx
	popq	%r14
	popq	%rbp
	.cfi_def_cfa %rsp, 8
	retq
.LBB23_3:                               # %func_BZ2_bzReadClose.54
	.cfi_def_cfa %rbp, 16
	movq	%rbx, %rdi
	movq	%r14, %rsi
	callq	BZ2_bzReadClose.54
	popq	%rbx
	popq	%r14
	popq	%rbp
	.cfi_def_cfa %rsp, 8
	retq
.LBB23_4:                               # %func_BZ2_bzReadClose.100
	.cfi_def_cfa %rbp, 16
	movq	%rbx, %rdi
	movq	%r14, %rsi
	callq	BZ2_bzReadClose.100
	popq	%rbx
	popq	%r14
	popq	%rbp
	.cfi_def_cfa %rsp, 8
	retq
.LBB23_5:                               # %func_BZ2_bzReadClose.107
	.cfi_def_cfa %rbp, 16
	movq	%rbx, %rdi
	movq	%r14, %rsi
	callq	BZ2_bzReadClose.107
	popq	%rbx
	popq	%r14
	popq	%rbp
	.cfi_def_cfa %rsp, 8
	retq
.LBB23_6:                               # %func_BZ2_bzReadClose.113
	.cfi_def_cfa %rbp, 16
	movq	%rbx, %rdi
	movq	%r14, %rsi
	callq	BZ2_bzReadClose.113
	popq	%rbx
	popq	%r14
	popq	%rbp
	.cfi_def_cfa %rsp, 8
	retq
.LBB23_7:                               # %ctrl0
	.cfi_def_cfa %rbp, 16
	cmpl	$1, %eax
	je	.LBB23_2
# %bb.8:                                # %ctrl1
	cmpl	$2, %eax
	je	.LBB23_3
# %bb.9:                                # %ctrl2
	cmpl	$3, %eax
	je	.LBB23_4
# %bb.10:                               # %ctrl3
	cmpl	$4, %eax
	je	.LBB23_5
	jmp	.LBB23_6
.Lfunc_end23:
	.size	BZ2_bzReadClose, .Lfunc_end23-BZ2_bzReadClose
	.cfi_endproc
                                        # -- End function
	.globl	BZ2_bzRead              # -- Begin function BZ2_bzRead
	.p2align	4, 0x90
	.type	BZ2_bzRead,@function
BZ2_bzRead:                             # @BZ2_bzRead
	.cfi_startproc
# %bb.0:                                # %rand_bb
	pushq	%rbp
	.cfi_def_cfa_offset 16
	.cfi_offset %rbp, -16
	movq	%rsp, %rbp
	.cfi_def_cfa_register %rbp
	pushq	%r15
	pushq	%r14
	pushq	%r12
	pushq	%rbx
	.cfi_offset %rbx, -48
	.cfi_offset %r12, -40
	.cfi_offset %r14, -32
	.cfi_offset %r15, -24
	movl	%ecx, %r14d
	movq	%rdx, %r15
	movq	%rsi, %r12
	movq	%rdi, %rbx
	callq	get_urand
	cmpl	$0, %eax
	jne	.LBB24_9
# %bb.1:                                # %func_BZ2_bzRead.24
	movq	%rbx, %rdi
	movq	%r12, %rsi
	movq	%r15, %rdx
	movl	%r14d, %ecx
	callq	BZ2_bzRead.24
	popq	%rbx
	popq	%r12
	popq	%r14
	popq	%r15
	popq	%rbp
	.cfi_def_cfa %rsp, 8
	retq
.LBB24_2:                               # %func_BZ2_bzRead.73
	.cfi_def_cfa %rbp, 16
	movq	%rbx, %rdi
	movq	%r12, %rsi
	movq	%r15, %rdx
	movl	%r14d, %ecx
	callq	BZ2_bzRead.73
	popq	%rbx
	popq	%r12
	popq	%r14
	popq	%r15
	popq	%rbp
	.cfi_def_cfa %rsp, 8
	retq
.LBB24_3:                               # %func_BZ2_bzRead.90
	.cfi_def_cfa %rbp, 16
	movq	%rbx, %rdi
	movq	%r12, %rsi
	movq	%r15, %rdx
	movl	%r14d, %ecx
	callq	BZ2_bzRead.90
	popq	%rbx
	popq	%r12
	popq	%r14
	popq	%r15
	popq	%rbp
	.cfi_def_cfa %rsp, 8
	retq
.LBB24_4:                               # %func_BZ2_bzRead.101
	.cfi_def_cfa %rbp, 16
	movq	%rbx, %rdi
	movq	%r12, %rsi
	movq	%r15, %rdx
	movl	%r14d, %ecx
	callq	BZ2_bzRead.101
	popq	%rbx
	popq	%r12
	popq	%r14
	popq	%r15
	popq	%rbp
	.cfi_def_cfa %rsp, 8
	retq
.LBB24_5:                               # %func_BZ2_bzRead.143
	.cfi_def_cfa %rbp, 16
	movq	%rbx, %rdi
	movq	%r12, %rsi
	movq	%r15, %rdx
	movl	%r14d, %ecx
	callq	BZ2_bzRead.143
	popq	%rbx
	popq	%r12
	popq	%r14
	popq	%r15
	popq	%rbp
	.cfi_def_cfa %rsp, 8
	retq
.LBB24_6:                               # %func_BZ2_bzRead.153
	.cfi_def_cfa %rbp, 16
	movq	%rbx, %rdi
	movq	%r12, %rsi
	movq	%r15, %rdx
	movl	%r14d, %ecx
	callq	BZ2_bzRead.153
	popq	%rbx
	popq	%r12
	popq	%r14
	popq	%r15
	popq	%rbp
	.cfi_def_cfa %rsp, 8
	retq
.LBB24_7:                               # %func_BZ2_bzRead.168
	.cfi_def_cfa %rbp, 16
	movq	%rbx, %rdi
	movq	%r12, %rsi
	movq	%r15, %rdx
	movl	%r14d, %ecx
	callq	BZ2_bzRead.168
	popq	%rbx
	popq	%r12
	popq	%r14
	popq	%r15
	popq	%rbp
	.cfi_def_cfa %rsp, 8
	retq
.LBB24_8:                               # %func_BZ2_bzRead.195
	.cfi_def_cfa %rbp, 16
	movq	%rbx, %rdi
	movq	%r12, %rsi
	movq	%r15, %rdx
	movl	%r14d, %ecx
	callq	BZ2_bzRead.195
	popq	%rbx
	popq	%r12
	popq	%r14
	popq	%r15
	popq	%rbp
	.cfi_def_cfa %rsp, 8
	retq
.LBB24_9:                               # %ctrl0
	.cfi_def_cfa %rbp, 16
	cmpl	$1, %eax
	je	.LBB24_2
# %bb.10:                               # %ctrl1
	cmpl	$2, %eax
	je	.LBB24_3
# %bb.11:                               # %ctrl2
	cmpl	$3, %eax
	je	.LBB24_4
# %bb.12:                               # %ctrl3
	cmpl	$4, %eax
	je	.LBB24_5
# %bb.13:                               # %ctrl4
	cmpl	$5, %eax
	je	.LBB24_6
# %bb.14:                               # %ctrl5
	cmpl	$6, %eax
	je	.LBB24_7
	jmp	.LBB24_8
.Lfunc_end24:
	.size	BZ2_bzRead, .Lfunc_end24-BZ2_bzRead
	.cfi_endproc
                                        # -- End function
	.p2align	4, 0x90         # -- Begin function myfeof
	.type	myfeof,@function
myfeof:                                 # @myfeof
	.cfi_startproc
# %bb.0:                                # %rand_bb
	pushq	%rbp
	.cfi_def_cfa_offset 16
	.cfi_offset %rbp, -16
	movq	%rsp, %rbp
	.cfi_def_cfa_register %rbp
	pushq	%rbx
	pushq	%rax
	.cfi_offset %rbx, -24
	movq	%rdi, %rbx
	callq	get_urand
	cmpl	$0, %eax
	jne	.LBB25_7
# %bb.1:                                # %func_myfeof.15
	movq	%rbx, %rdi
	callq	myfeof.15
	movzbl	%al, %eax
	addq	$8, %rsp
	popq	%rbx
	popq	%rbp
	.cfi_def_cfa %rsp, 8
	retq
.LBB25_2:                               # %func_myfeof.46
	.cfi_def_cfa %rbp, 16
	movq	%rbx, %rdi
	callq	myfeof.46
	movzbl	%al, %eax
	addq	$8, %rsp
	popq	%rbx
	popq	%rbp
	.cfi_def_cfa %rsp, 8
	retq
.LBB25_3:                               # %func_myfeof.48
	.cfi_def_cfa %rbp, 16
	movq	%rbx, %rdi
	callq	myfeof.48
	movzbl	%al, %eax
	addq	$8, %rsp
	popq	%rbx
	popq	%rbp
	.cfi_def_cfa %rsp, 8
	retq
.LBB25_4:                               # %func_myfeof.52
	.cfi_def_cfa %rbp, 16
	movq	%rbx, %rdi
	callq	myfeof.52
	movzbl	%al, %eax
	addq	$8, %rsp
	popq	%rbx
	popq	%rbp
	.cfi_def_cfa %rsp, 8
	retq
.LBB25_5:                               # %func_myfeof.106
	.cfi_def_cfa %rbp, 16
	movq	%rbx, %rdi
	callq	myfeof.106
	movzbl	%al, %eax
	addq	$8, %rsp
	popq	%rbx
	popq	%rbp
	.cfi_def_cfa %rsp, 8
	retq
.LBB25_6:                               # %func_myfeof.142
	.cfi_def_cfa %rbp, 16
	movq	%rbx, %rdi
	callq	myfeof.142
	movzbl	%al, %eax
	addq	$8, %rsp
	popq	%rbx
	popq	%rbp
	.cfi_def_cfa %rsp, 8
	retq
.LBB25_7:                               # %ctrl0
	.cfi_def_cfa %rbp, 16
	cmpl	$1, %eax
	je	.LBB25_2
# %bb.8:                                # %ctrl1
	cmpl	$2, %eax
	je	.LBB25_3
# %bb.9:                                # %ctrl2
	cmpl	$3, %eax
	je	.LBB25_4
# %bb.10:                               # %ctrl3
	cmpl	$4, %eax
	je	.LBB25_5
	jmp	.LBB25_6
.Lfunc_end25:
	.size	myfeof, .Lfunc_end25-myfeof
	.cfi_endproc
                                        # -- End function
	.globl	BZ2_bzReadGetUnused     # -- Begin function BZ2_bzReadGetUnused
	.p2align	4, 0x90
	.type	BZ2_bzReadGetUnused,@function
BZ2_bzReadGetUnused:                    # @BZ2_bzReadGetUnused
	.cfi_startproc
# %bb.0:                                # %rand_bb
	pushq	%rbp
	.cfi_def_cfa_offset 16
	.cfi_offset %rbp, -16
	movq	%rsp, %rbp
	.cfi_def_cfa_register %rbp
	pushq	%r15
	pushq	%r14
	pushq	%r12
	pushq	%rbx
	.cfi_offset %rbx, -48
	.cfi_offset %r12, -40
	.cfi_offset %r14, -32
	.cfi_offset %r15, -24
	movq	%rcx, %r14
	movq	%rdx, %r15
	movq	%rsi, %r12
	movq	%rdi, %rbx
	callq	get_urand
	cmpl	$0, %eax
	jne	.LBB26_9
# %bb.1:                                # %func_BZ2_bzReadGetUnused.30
	movq	%rbx, %rdi
	movq	%r12, %rsi
	movq	%r15, %rdx
	movq	%r14, %rcx
	callq	BZ2_bzReadGetUnused.30
	popq	%rbx
	popq	%r12
	popq	%r14
	popq	%r15
	popq	%rbp
	.cfi_def_cfa %rsp, 8
	retq
.LBB26_2:                               # %func_BZ2_bzReadGetUnused.89
	.cfi_def_cfa %rbp, 16
	movq	%rbx, %rdi
	movq	%r12, %rsi
	movq	%r15, %rdx
	movq	%r14, %rcx
	callq	BZ2_bzReadGetUnused.89
	popq	%rbx
	popq	%r12
	popq	%r14
	popq	%r15
	popq	%rbp
	.cfi_def_cfa %rsp, 8
	retq
.LBB26_3:                               # %func_BZ2_bzReadGetUnused.117
	.cfi_def_cfa %rbp, 16
	movq	%rbx, %rdi
	movq	%r12, %rsi
	movq	%r15, %rdx
	movq	%r14, %rcx
	callq	BZ2_bzReadGetUnused.117
	popq	%rbx
	popq	%r12
	popq	%r14
	popq	%r15
	popq	%rbp
	.cfi_def_cfa %rsp, 8
	retq
.LBB26_4:                               # %func_BZ2_bzReadGetUnused.127
	.cfi_def_cfa %rbp, 16
	movq	%rbx, %rdi
	movq	%r12, %rsi
	movq	%r15, %rdx
	movq	%r14, %rcx
	callq	BZ2_bzReadGetUnused.127
	popq	%rbx
	popq	%r12
	popq	%r14
	popq	%r15
	popq	%rbp
	.cfi_def_cfa %rsp, 8
	retq
.LBB26_5:                               # %func_BZ2_bzReadGetUnused.134
	.cfi_def_cfa %rbp, 16
	movq	%rbx, %rdi
	movq	%r12, %rsi
	movq	%r15, %rdx
	movq	%r14, %rcx
	callq	BZ2_bzReadGetUnused.134
	popq	%rbx
	popq	%r12
	popq	%r14
	popq	%r15
	popq	%rbp
	.cfi_def_cfa %rsp, 8
	retq
.LBB26_6:                               # %func_BZ2_bzReadGetUnused.182
	.cfi_def_cfa %rbp, 16
	movq	%rbx, %rdi
	movq	%r12, %rsi
	movq	%r15, %rdx
	movq	%r14, %rcx
	callq	BZ2_bzReadGetUnused.182
	popq	%rbx
	popq	%r12
	popq	%r14
	popq	%r15
	popq	%rbp
	.cfi_def_cfa %rsp, 8
	retq
.LBB26_7:                               # %func_BZ2_bzReadGetUnused.222
	.cfi_def_cfa %rbp, 16
	movq	%rbx, %rdi
	movq	%r12, %rsi
	movq	%r15, %rdx
	movq	%r14, %rcx
	callq	BZ2_bzReadGetUnused.222
	popq	%rbx
	popq	%r12
	popq	%r14
	popq	%r15
	popq	%rbp
	.cfi_def_cfa %rsp, 8
	retq
.LBB26_8:                               # %func_BZ2_bzReadGetUnused.224
	.cfi_def_cfa %rbp, 16
	movq	%rbx, %rdi
	movq	%r12, %rsi
	movq	%r15, %rdx
	movq	%r14, %rcx
	callq	BZ2_bzReadGetUnused.224
	popq	%rbx
	popq	%r12
	popq	%r14
	popq	%r15
	popq	%rbp
	.cfi_def_cfa %rsp, 8
	retq
.LBB26_9:                               # %ctrl0
	.cfi_def_cfa %rbp, 16
	cmpl	$1, %eax
	je	.LBB26_2
# %bb.10:                               # %ctrl1
	cmpl	$2, %eax
	je	.LBB26_3
# %bb.11:                               # %ctrl2
	cmpl	$3, %eax
	je	.LBB26_4
# %bb.12:                               # %ctrl3
	cmpl	$4, %eax
	je	.LBB26_5
# %bb.13:                               # %ctrl4
	cmpl	$5, %eax
	je	.LBB26_6
# %bb.14:                               # %ctrl5
	cmpl	$6, %eax
	je	.LBB26_7
	jmp	.LBB26_8
.Lfunc_end26:
	.size	BZ2_bzReadGetUnused, .Lfunc_end26-BZ2_bzReadGetUnused
	.cfi_endproc
                                        # -- End function
	.globl	BZ2_bzBuffToBuffCompress # -- Begin function BZ2_bzBuffToBuffCompress
	.p2align	4, 0x90
	.type	BZ2_bzBuffToBuffCompress,@function
BZ2_bzBuffToBuffCompress:               # @BZ2_bzBuffToBuffCompress
	.cfi_startproc
# %bb.0:                                # %rand_bb
	pushq	%rbp
	.cfi_def_cfa_offset 16
	.cfi_offset %rbp, -16
	movq	%rsp, %rbp
	.cfi_def_cfa_register %rbp
	pushq	%r15
	pushq	%r14
	pushq	%r13
	pushq	%r12
	pushq	%rbx
	subq	$24, %rsp
	.cfi_offset %rbx, -56
	.cfi_offset %r12, -48
	.cfi_offset %r13, -40
	.cfi_offset %r14, -32
	.cfi_offset %r15, -24
	movl	%r9d, -44(%rbp)         # 4-byte Spill
	movl	%r8d, %r13d
	movl	%ecx, %r15d
	movq	%rdx, %rbx
	movq	%rsi, %r14
	movq	%rdi, %r12
	callq	get_urand
	cmpl	$0, %eax
	jne	.LBB27_9
# %bb.1:                                # %func_BZ2_bzBuffToBuffCompress.37
	movq	%r12, %rdi
	movq	%r14, %rsi
	movq	%rbx, %rdx
	movl	%r15d, %ecx
	movl	%r13d, %r8d
	movl	-44(%rbp), %r9d         # 4-byte Reload
	movl	16(%rbp), %eax
	movl	%eax, (%rsp)
	callq	BZ2_bzBuffToBuffCompress.37
	addq	$24, %rsp
	popq	%rbx
	popq	%r12
	popq	%r13
	popq	%r14
	popq	%r15
	popq	%rbp
	.cfi_def_cfa %rsp, 8
	retq
.LBB27_2:                               # %func_BZ2_bzBuffToBuffCompress.77
	.cfi_def_cfa %rbp, 16
	movq	%r12, %rdi
	movq	%r14, %rsi
	movq	%rbx, %rdx
	movl	%r15d, %ecx
	movl	%r13d, %r8d
	movl	%r10d, (%rsp)
	callq	BZ2_bzBuffToBuffCompress.77
	addq	$24, %rsp
	popq	%rbx
	popq	%r12
	popq	%r13
	popq	%r14
	popq	%r15
	popq	%rbp
	.cfi_def_cfa %rsp, 8
	retq
.LBB27_3:                               # %func_BZ2_bzBuffToBuffCompress.79
	.cfi_def_cfa %rbp, 16
	movq	%r12, %rdi
	movq	%r14, %rsi
	movq	%rbx, %rdx
	movl	%r15d, %ecx
	movl	%r13d, %r8d
	movl	%r10d, (%rsp)
	callq	BZ2_bzBuffToBuffCompress.79
	addq	$24, %rsp
	popq	%rbx
	popq	%r12
	popq	%r13
	popq	%r14
	popq	%r15
	popq	%rbp
	.cfi_def_cfa %rsp, 8
	retq
.LBB27_4:                               # %func_BZ2_bzBuffToBuffCompress.114
	.cfi_def_cfa %rbp, 16
	movq	%r12, %rdi
	movq	%r14, %rsi
	movq	%rbx, %rdx
	movl	%r15d, %ecx
	movl	%r13d, %r8d
	movl	%r10d, (%rsp)
	callq	BZ2_bzBuffToBuffCompress.114
	addq	$24, %rsp
	popq	%rbx
	popq	%r12
	popq	%r13
	popq	%r14
	popq	%r15
	popq	%rbp
	.cfi_def_cfa %rsp, 8
	retq
.LBB27_5:                               # %func_BZ2_bzBuffToBuffCompress.125
	.cfi_def_cfa %rbp, 16
	movq	%r12, %rdi
	movq	%r14, %rsi
	movq	%rbx, %rdx
	movl	%r15d, %ecx
	movl	%r13d, %r8d
	movl	%r10d, (%rsp)
	callq	BZ2_bzBuffToBuffCompress.125
	addq	$24, %rsp
	popq	%rbx
	popq	%r12
	popq	%r13
	popq	%r14
	popq	%r15
	popq	%rbp
	.cfi_def_cfa %rsp, 8
	retq
.LBB27_6:                               # %func_BZ2_bzBuffToBuffCompress.149
	.cfi_def_cfa %rbp, 16
	movq	%r12, %rdi
	movq	%r14, %rsi
	movq	%rbx, %rdx
	movl	%r15d, %ecx
	movl	%r13d, %r8d
	movl	%r10d, (%rsp)
	callq	BZ2_bzBuffToBuffCompress.149
	addq	$24, %rsp
	popq	%rbx
	popq	%r12
	popq	%r13
	popq	%r14
	popq	%r15
	popq	%rbp
	.cfi_def_cfa %rsp, 8
	retq
.LBB27_7:                               # %func_BZ2_bzBuffToBuffCompress.154
	.cfi_def_cfa %rbp, 16
	movl	%r10d, (%rsp)
	callq	BZ2_bzBuffToBuffCompress.154
	addq	$24, %rsp
	popq	%rbx
	popq	%r12
	popq	%r13
	popq	%r14
	popq	%r15
	popq	%rbp
	.cfi_def_cfa %rsp, 8
	retq
.LBB27_8:                               # %func_BZ2_bzBuffToBuffCompress.200
	.cfi_def_cfa %rbp, 16
	movl	%r10d, (%rsp)
	callq	BZ2_bzBuffToBuffCompress.200
	addq	$24, %rsp
	popq	%rbx
	popq	%r12
	popq	%r13
	popq	%r14
	popq	%r15
	popq	%rbp
	.cfi_def_cfa %rsp, 8
	retq
.LBB27_9:                               # %ctrl0
	.cfi_def_cfa %rbp, 16
	movl	-44(%rbp), %r9d         # 4-byte Reload
	movl	16(%rbp), %r10d
	cmpl	$1, %eax
	je	.LBB27_2
# %bb.10:                               # %ctrl1
	cmpl	$2, %eax
	je	.LBB27_3
# %bb.11:                               # %ctrl2
	cmpl	$3, %eax
	je	.LBB27_4
# %bb.12:                               # %ctrl3
	cmpl	$4, %eax
	je	.LBB27_5
# %bb.13:                               # %ctrl4
	cmpl	$5, %eax
	je	.LBB27_6
# %bb.14:                               # %ctrl5
	cmpl	$6, %eax
	movl	%r13d, %r8d
	movl	%r15d, %ecx
	movq	%rbx, %rdx
	movq	%r14, %rsi
	movq	%r12, %rdi
	je	.LBB27_7
	jmp	.LBB27_8
.Lfunc_end27:
	.size	BZ2_bzBuffToBuffCompress, .Lfunc_end27-BZ2_bzBuffToBuffCompress
	.cfi_endproc
                                        # -- End function
	.globl	BZ2_bzBuffToBuffDecompress # -- Begin function BZ2_bzBuffToBuffDecompress
	.p2align	4, 0x90
	.type	BZ2_bzBuffToBuffDecompress,@function
BZ2_bzBuffToBuffDecompress:             # @BZ2_bzBuffToBuffDecompress
	.cfi_startproc
# %bb.0:                                # %rand_bb
	pushq	%rbp
	.cfi_def_cfa_offset 16
	.cfi_offset %rbp, -16
	movq	%rsp, %rbp
	.cfi_def_cfa_register %rbp
	pushq	%r15
	pushq	%r14
	pushq	%r13
	pushq	%r12
	pushq	%rbx
	pushq	%rax
	.cfi_offset %rbx, -56
	.cfi_offset %r12, -48
	.cfi_offset %r13, -40
	.cfi_offset %r14, -32
	.cfi_offset %r15, -24
	movl	%r9d, -44(%rbp)         # 4-byte Spill
	movl	%r8d, %r12d
	movl	%ecx, %r13d
	movq	%rdx, %rbx
	movq	%rsi, %r14
	movq	%rdi, %r15
	callq	get_urand
	cmpl	$0, %eax
	jne	.LBB28_9
# %bb.1:                                # %func_BZ2_bzBuffToBuffDecompress.23
	movq	%r15, %rdi
	movq	%r14, %rsi
	movq	%rbx, %rdx
	movl	%r13d, %ecx
	movl	%r12d, %r8d
	movl	-44(%rbp), %r9d         # 4-byte Reload
	callq	BZ2_bzBuffToBuffDecompress.23
	addq	$8, %rsp
	popq	%rbx
	popq	%r12
	popq	%r13
	popq	%r14
	popq	%r15
	popq	%rbp
	.cfi_def_cfa %rsp, 8
	retq
.LBB28_2:                               # %func_BZ2_bzBuffToBuffDecompress.65
	.cfi_def_cfa %rbp, 16
	movq	%r15, %rdi
	movq	%r14, %rsi
	movq	%rbx, %rdx
	movl	%r13d, %ecx
	movl	%r12d, %r8d
	callq	BZ2_bzBuffToBuffDecompress.65
	addq	$8, %rsp
	popq	%rbx
	popq	%r12
	popq	%r13
	popq	%r14
	popq	%r15
	popq	%rbp
	.cfi_def_cfa %rsp, 8
	retq
.LBB28_3:                               # %func_BZ2_bzBuffToBuffDecompress.99
	.cfi_def_cfa %rbp, 16
	movq	%r15, %rdi
	movq	%r14, %rsi
	movq	%rbx, %rdx
	movl	%r13d, %ecx
	movl	%r12d, %r8d
	callq	BZ2_bzBuffToBuffDecompress.99
	addq	$8, %rsp
	popq	%rbx
	popq	%r12
	popq	%r13
	popq	%r14
	popq	%r15
	popq	%rbp
	.cfi_def_cfa %rsp, 8
	retq
.LBB28_4:                               # %func_BZ2_bzBuffToBuffDecompress.146
	.cfi_def_cfa %rbp, 16
	movq	%r15, %rdi
	movq	%r14, %rsi
	movq	%rbx, %rdx
	movl	%r13d, %ecx
	movl	%r12d, %r8d
	callq	BZ2_bzBuffToBuffDecompress.146
	addq	$8, %rsp
	popq	%rbx
	popq	%r12
	popq	%r13
	popq	%r14
	popq	%r15
	popq	%rbp
	.cfi_def_cfa %rsp, 8
	retq
.LBB28_5:                               # %func_BZ2_bzBuffToBuffDecompress.186
	.cfi_def_cfa %rbp, 16
	movq	%r15, %rdi
	movq	%r14, %rsi
	movq	%rbx, %rdx
	movl	%r13d, %ecx
	movl	%r12d, %r8d
	callq	BZ2_bzBuffToBuffDecompress.186
	addq	$8, %rsp
	popq	%rbx
	popq	%r12
	popq	%r13
	popq	%r14
	popq	%r15
	popq	%rbp
	.cfi_def_cfa %rsp, 8
	retq
.LBB28_6:                               # %func_BZ2_bzBuffToBuffDecompress.189
	.cfi_def_cfa %rbp, 16
	movq	%r15, %rdi
	movq	%r14, %rsi
	movq	%rbx, %rdx
	movl	%r13d, %ecx
	movl	%r12d, %r8d
	callq	BZ2_bzBuffToBuffDecompress.189
	addq	$8, %rsp
	popq	%rbx
	popq	%r12
	popq	%r13
	popq	%r14
	popq	%r15
	popq	%rbp
	.cfi_def_cfa %rsp, 8
	retq
.LBB28_7:                               # %func_BZ2_bzBuffToBuffDecompress.197
	.cfi_def_cfa %rbp, 16
	callq	BZ2_bzBuffToBuffDecompress.197
	addq	$8, %rsp
	popq	%rbx
	popq	%r12
	popq	%r13
	popq	%r14
	popq	%r15
	popq	%rbp
	.cfi_def_cfa %rsp, 8
	retq
.LBB28_8:                               # %func_BZ2_bzBuffToBuffDecompress.198
	.cfi_def_cfa %rbp, 16
	callq	BZ2_bzBuffToBuffDecompress.198
	addq	$8, %rsp
	popq	%rbx
	popq	%r12
	popq	%r13
	popq	%r14
	popq	%r15
	popq	%rbp
	.cfi_def_cfa %rsp, 8
	retq
.LBB28_9:                               # %ctrl0
	.cfi_def_cfa %rbp, 16
	movl	-44(%rbp), %r9d         # 4-byte Reload
	cmpl	$1, %eax
	je	.LBB28_2
# %bb.10:                               # %ctrl1
	cmpl	$2, %eax
	je	.LBB28_3
# %bb.11:                               # %ctrl2
	cmpl	$3, %eax
	je	.LBB28_4
# %bb.12:                               # %ctrl3
	cmpl	$4, %eax
	je	.LBB28_5
# %bb.13:                               # %ctrl4
	cmpl	$5, %eax
	je	.LBB28_6
# %bb.14:                               # %ctrl5
	cmpl	$6, %eax
	movl	%r12d, %r8d
	movl	%r13d, %ecx
	movq	%rbx, %rdx
	movq	%r14, %rsi
	movq	%r15, %rdi
	je	.LBB28_7
	jmp	.LBB28_8
.Lfunc_end28:
	.size	BZ2_bzBuffToBuffDecompress, .Lfunc_end28-BZ2_bzBuffToBuffDecompress
	.cfi_endproc
                                        # -- End function
	.globl	BZ2_bzopen              # -- Begin function BZ2_bzopen
	.p2align	4, 0x90
	.type	BZ2_bzopen,@function
BZ2_bzopen:                             # @BZ2_bzopen
	.cfi_startproc
# %bb.0:                                # %rand_bb
	pushq	%rbp
	.cfi_def_cfa_offset 16
	.cfi_offset %rbp, -16
	movq	%rsp, %rbp
	.cfi_def_cfa_register %rbp
	pushq	%r14
	pushq	%rbx
	.cfi_offset %rbx, -32
	.cfi_offset %r14, -24
	movq	%rsi, %r14
	movq	%rdi, %rbx
	callq	get_urand
	cmpl	$0, %eax
	jne	.LBB29_2
# %bb.1:                                # %func_BZ2_bzopen.10
	movq	%rbx, %rdi
	movq	%r14, %rsi
	callq	BZ2_bzopen.10
	popq	%rbx
	popq	%r14
	popq	%rbp
	.cfi_def_cfa %rsp, 8
	retq
.LBB29_2:                               # %func_BZ2_bzopen.84
	.cfi_def_cfa %rbp, 16
	movq	%rbx, %rdi
	movq	%r14, %rsi
	callq	BZ2_bzopen.84
	popq	%rbx
	popq	%r14
	popq	%rbp
	.cfi_def_cfa %rsp, 8
	retq
.Lfunc_end29:
	.size	BZ2_bzopen, .Lfunc_end29-BZ2_bzopen
	.cfi_endproc
                                        # -- End function
	.p2align	4, 0x90         # -- Begin function bzopen_or_bzdopen
	.type	bzopen_or_bzdopen,@function
bzopen_or_bzdopen:                      # @bzopen_or_bzdopen
	.cfi_startproc
# %bb.0:                                # %rand_bb
	pushq	%rbp
	.cfi_def_cfa_offset 16
	.cfi_offset %rbp, -16
	movq	%rsp, %rbp
	.cfi_def_cfa_register %rbp
	pushq	%r15
	pushq	%r14
	pushq	%r12
	pushq	%rbx
	.cfi_offset %rbx, -48
	.cfi_offset %r12, -40
	.cfi_offset %r14, -32
	.cfi_offset %r15, -24
	movl	%ecx, %r14d
	movq	%rdx, %r15
	movl	%esi, %r12d
	movq	%rdi, %rbx
	callq	get_urand
	cmpl	$0, %eax
	jne	.LBB30_9
# %bb.1:                                # %func_bzopen_or_bzdopen.22
	movq	%rbx, %rdi
	movl	%r12d, %esi
	movq	%r15, %rdx
	movl	%r14d, %ecx
	callq	bzopen_or_bzdopen.22
	popq	%rbx
	popq	%r12
	popq	%r14
	popq	%r15
	popq	%rbp
	.cfi_def_cfa %rsp, 8
	retq
.LBB30_2:                               # %func_bzopen_or_bzdopen.32
	.cfi_def_cfa %rbp, 16
	movq	%rbx, %rdi
	movl	%r12d, %esi
	movq	%r15, %rdx
	movl	%r14d, %ecx
	callq	bzopen_or_bzdopen.32
	popq	%rbx
	popq	%r12
	popq	%r14
	popq	%r15
	popq	%rbp
	.cfi_def_cfa %rsp, 8
	retq
.LBB30_3:                               # %func_bzopen_or_bzdopen.56
	.cfi_def_cfa %rbp, 16
	movq	%rbx, %rdi
	movl	%r12d, %esi
	movq	%r15, %rdx
	movl	%r14d, %ecx
	callq	bzopen_or_bzdopen.56
	popq	%rbx
	popq	%r12
	popq	%r14
	popq	%r15
	popq	%rbp
	.cfi_def_cfa %rsp, 8
	retq
.LBB30_4:                               # %func_bzopen_or_bzdopen.59
	.cfi_def_cfa %rbp, 16
	movq	%rbx, %rdi
	movl	%r12d, %esi
	movq	%r15, %rdx
	movl	%r14d, %ecx
	callq	bzopen_or_bzdopen.59
	popq	%rbx
	popq	%r12
	popq	%r14
	popq	%r15
	popq	%rbp
	.cfi_def_cfa %rsp, 8
	retq
.LBB30_5:                               # %func_bzopen_or_bzdopen.155
	.cfi_def_cfa %rbp, 16
	movq	%rbx, %rdi
	movl	%r12d, %esi
	movq	%r15, %rdx
	movl	%r14d, %ecx
	callq	bzopen_or_bzdopen.155
	popq	%rbx
	popq	%r12
	popq	%r14
	popq	%r15
	popq	%rbp
	.cfi_def_cfa %rsp, 8
	retq
.LBB30_6:                               # %func_bzopen_or_bzdopen.160
	.cfi_def_cfa %rbp, 16
	movq	%rbx, %rdi
	movl	%r12d, %esi
	movq	%r15, %rdx
	movl	%r14d, %ecx
	callq	bzopen_or_bzdopen.160
	popq	%rbx
	popq	%r12
	popq	%r14
	popq	%r15
	popq	%rbp
	.cfi_def_cfa %rsp, 8
	retq
.LBB30_7:                               # %func_bzopen_or_bzdopen.162
	.cfi_def_cfa %rbp, 16
	movq	%rbx, %rdi
	movl	%r12d, %esi
	movq	%r15, %rdx
	movl	%r14d, %ecx
	callq	bzopen_or_bzdopen.162
	popq	%rbx
	popq	%r12
	popq	%r14
	popq	%r15
	popq	%rbp
	.cfi_def_cfa %rsp, 8
	retq
.LBB30_8:                               # %func_bzopen_or_bzdopen.170
	.cfi_def_cfa %rbp, 16
	movq	%rbx, %rdi
	movl	%r12d, %esi
	movq	%r15, %rdx
	movl	%r14d, %ecx
	callq	bzopen_or_bzdopen.170
	popq	%rbx
	popq	%r12
	popq	%r14
	popq	%r15
	popq	%rbp
	.cfi_def_cfa %rsp, 8
	retq
.LBB30_9:                               # %ctrl0
	.cfi_def_cfa %rbp, 16
	cmpl	$1, %eax
	je	.LBB30_2
# %bb.10:                               # %ctrl1
	cmpl	$2, %eax
	je	.LBB30_3
# %bb.11:                               # %ctrl2
	cmpl	$3, %eax
	je	.LBB30_4
# %bb.12:                               # %ctrl3
	cmpl	$4, %eax
	je	.LBB30_5
# %bb.13:                               # %ctrl4
	cmpl	$5, %eax
	je	.LBB30_6
# %bb.14:                               # %ctrl5
	cmpl	$6, %eax
	je	.LBB30_7
	jmp	.LBB30_8
.Lfunc_end30:
	.size	bzopen_or_bzdopen, .Lfunc_end30-bzopen_or_bzdopen
	.cfi_endproc
                                        # -- End function
	.globl	BZ2_bzdopen             # -- Begin function BZ2_bzdopen
	.p2align	4, 0x90
	.type	BZ2_bzdopen,@function
BZ2_bzdopen:                            # @BZ2_bzdopen
	.cfi_startproc
# %bb.0:                                # %rand_bb
	pushq	%rbp
	.cfi_def_cfa_offset 16
	.cfi_offset %rbp, -16
	movq	%rsp, %rbp
	.cfi_def_cfa_register %rbp
	pushq	%r14
	pushq	%rbx
	.cfi_offset %rbx, -32
	.cfi_offset %r14, -24
	movq	%rsi, %r14
	movl	%edi, %ebx
	callq	get_urand
	cmpl	$0, %eax
	jne	.LBB31_2
# %bb.1:                                # %func_BZ2_bzdopen.3
	movl	%ebx, %edi
	movq	%r14, %rsi
	callq	BZ2_bzdopen.3
	popq	%rbx
	popq	%r14
	popq	%rbp
	.cfi_def_cfa %rsp, 8
	retq
.LBB31_2:                               # %func_BZ2_bzdopen.66
	.cfi_def_cfa %rbp, 16
	movl	%ebx, %edi
	movq	%r14, %rsi
	callq	BZ2_bzdopen.66
	popq	%rbx
	popq	%r14
	popq	%rbp
	.cfi_def_cfa %rsp, 8
	retq
.Lfunc_end31:
	.size	BZ2_bzdopen, .Lfunc_end31-BZ2_bzdopen
	.cfi_endproc
                                        # -- End function
	.globl	BZ2_bzread              # -- Begin function BZ2_bzread
	.p2align	4, 0x90
	.type	BZ2_bzread,@function
BZ2_bzread:                             # @BZ2_bzread
	.cfi_startproc
# %bb.0:                                # %rand_bb
	pushq	%rbp
	.cfi_def_cfa_offset 16
	.cfi_offset %rbp, -16
	movq	%rsp, %rbp
	.cfi_def_cfa_register %rbp
	pushq	%r15
	pushq	%r14
	pushq	%rbx
	pushq	%rax
	.cfi_offset %rbx, -40
	.cfi_offset %r14, -32
	.cfi_offset %r15, -24
	movl	%edx, %r14d
	movq	%rsi, %r15
	movq	%rdi, %rbx
	callq	get_urand
	cmpl	$0, %eax
	jne	.LBB32_9
# %bb.1:                                # %func_BZ2_bzread.4
	movq	%rbx, %rdi
	movq	%r15, %rsi
	movl	%r14d, %edx
	callq	BZ2_bzread.4
	addq	$8, %rsp
	popq	%rbx
	popq	%r14
	popq	%r15
	popq	%rbp
	.cfi_def_cfa %rsp, 8
	retq
.LBB32_2:                               # %func_BZ2_bzread.85
	.cfi_def_cfa %rbp, 16
	movq	%rbx, %rdi
	movq	%r15, %rsi
	movl	%r14d, %edx
	callq	BZ2_bzread.85
	addq	$8, %rsp
	popq	%rbx
	popq	%r14
	popq	%r15
	popq	%rbp
	.cfi_def_cfa %rsp, 8
	retq
.LBB32_3:                               # %func_BZ2_bzread.88
	.cfi_def_cfa %rbp, 16
	movq	%rbx, %rdi
	movq	%r15, %rsi
	movl	%r14d, %edx
	callq	BZ2_bzread.88
	addq	$8, %rsp
	popq	%rbx
	popq	%r14
	popq	%r15
	popq	%rbp
	.cfi_def_cfa %rsp, 8
	retq
.LBB32_4:                               # %func_BZ2_bzread.122
	.cfi_def_cfa %rbp, 16
	movq	%rbx, %rdi
	movq	%r15, %rsi
	movl	%r14d, %edx
	callq	BZ2_bzread.122
	addq	$8, %rsp
	popq	%rbx
	popq	%r14
	popq	%r15
	popq	%rbp
	.cfi_def_cfa %rsp, 8
	retq
.LBB32_5:                               # %func_BZ2_bzread.139
	.cfi_def_cfa %rbp, 16
	movq	%rbx, %rdi
	movq	%r15, %rsi
	movl	%r14d, %edx
	callq	BZ2_bzread.139
	addq	$8, %rsp
	popq	%rbx
	popq	%r14
	popq	%r15
	popq	%rbp
	.cfi_def_cfa %rsp, 8
	retq
.LBB32_6:                               # %func_BZ2_bzread.157
	.cfi_def_cfa %rbp, 16
	movq	%rbx, %rdi
	movq	%r15, %rsi
	movl	%r14d, %edx
	callq	BZ2_bzread.157
	addq	$8, %rsp
	popq	%rbx
	popq	%r14
	popq	%r15
	popq	%rbp
	.cfi_def_cfa %rsp, 8
	retq
.LBB32_7:                               # %func_BZ2_bzread.169
	.cfi_def_cfa %rbp, 16
	movq	%rbx, %rdi
	movq	%r15, %rsi
	movl	%r14d, %edx
	callq	BZ2_bzread.169
	addq	$8, %rsp
	popq	%rbx
	popq	%r14
	popq	%r15
	popq	%rbp
	.cfi_def_cfa %rsp, 8
	retq
.LBB32_8:                               # %func_BZ2_bzread.193
	.cfi_def_cfa %rbp, 16
	movq	%rbx, %rdi
	movq	%r15, %rsi
	movl	%r14d, %edx
	callq	BZ2_bzread.193
	addq	$8, %rsp
	popq	%rbx
	popq	%r14
	popq	%r15
	popq	%rbp
	.cfi_def_cfa %rsp, 8
	retq
.LBB32_9:                               # %ctrl0
	.cfi_def_cfa %rbp, 16
	cmpl	$1, %eax
	je	.LBB32_2
# %bb.10:                               # %ctrl1
	cmpl	$2, %eax
	je	.LBB32_3
# %bb.11:                               # %ctrl2
	cmpl	$3, %eax
	je	.LBB32_4
# %bb.12:                               # %ctrl3
	cmpl	$4, %eax
	je	.LBB32_5
# %bb.13:                               # %ctrl4
	cmpl	$5, %eax
	je	.LBB32_6
# %bb.14:                               # %ctrl5
	cmpl	$6, %eax
	je	.LBB32_7
	jmp	.LBB32_8
.Lfunc_end32:
	.size	BZ2_bzread, .Lfunc_end32-BZ2_bzread
	.cfi_endproc
                                        # -- End function
	.globl	BZ2_bzwrite             # -- Begin function BZ2_bzwrite
	.p2align	4, 0x90
	.type	BZ2_bzwrite,@function
BZ2_bzwrite:                            # @BZ2_bzwrite
	.cfi_startproc
# %bb.0:                                # %rand_bb
	pushq	%rbp
	.cfi_def_cfa_offset 16
	.cfi_offset %rbp, -16
	movq	%rsp, %rbp
	.cfi_def_cfa_register %rbp
	pushq	%r15
	pushq	%r14
	pushq	%rbx
	pushq	%rax
	.cfi_offset %rbx, -40
	.cfi_offset %r14, -32
	.cfi_offset %r15, -24
	movl	%edx, %r14d
	movq	%rsi, %r15
	movq	%rdi, %rbx
	callq	get_urand
	cmpl	$0, %eax
	jne	.LBB33_9
# %bb.1:                                # %func_BZ2_bzwrite.81
	movq	%rbx, %rdi
	movq	%r15, %rsi
	movl	%r14d, %edx
	callq	BZ2_bzwrite.81
	addq	$8, %rsp
	popq	%rbx
	popq	%r14
	popq	%r15
	popq	%rbp
	.cfi_def_cfa %rsp, 8
	retq
.LBB33_2:                               # %func_BZ2_bzwrite.94
	.cfi_def_cfa %rbp, 16
	movq	%rbx, %rdi
	movq	%r15, %rsi
	movl	%r14d, %edx
	callq	BZ2_bzwrite.94
	addq	$8, %rsp
	popq	%rbx
	popq	%r14
	popq	%r15
	popq	%rbp
	.cfi_def_cfa %rsp, 8
	retq
.LBB33_3:                               # %func_BZ2_bzwrite.173
	.cfi_def_cfa %rbp, 16
	movq	%rbx, %rdi
	movq	%r15, %rsi
	movl	%r14d, %edx
	callq	BZ2_bzwrite.173
	addq	$8, %rsp
	popq	%rbx
	popq	%r14
	popq	%r15
	popq	%rbp
	.cfi_def_cfa %rsp, 8
	retq
.LBB33_4:                               # %func_BZ2_bzwrite.176
	.cfi_def_cfa %rbp, 16
	movq	%rbx, %rdi
	movq	%r15, %rsi
	movl	%r14d, %edx
	callq	BZ2_bzwrite.176
	addq	$8, %rsp
	popq	%rbx
	popq	%r14
	popq	%r15
	popq	%rbp
	.cfi_def_cfa %rsp, 8
	retq
.LBB33_5:                               # %func_BZ2_bzwrite.185
	.cfi_def_cfa %rbp, 16
	movq	%rbx, %rdi
	movq	%r15, %rsi
	movl	%r14d, %edx
	callq	BZ2_bzwrite.185
	addq	$8, %rsp
	popq	%rbx
	popq	%r14
	popq	%r15
	popq	%rbp
	.cfi_def_cfa %rsp, 8
	retq
.LBB33_6:                               # %func_BZ2_bzwrite.196
	.cfi_def_cfa %rbp, 16
	movq	%rbx, %rdi
	movq	%r15, %rsi
	movl	%r14d, %edx
	callq	BZ2_bzwrite.196
	addq	$8, %rsp
	popq	%rbx
	popq	%r14
	popq	%r15
	popq	%rbp
	.cfi_def_cfa %rsp, 8
	retq
.LBB33_7:                               # %func_BZ2_bzwrite.204
	.cfi_def_cfa %rbp, 16
	movq	%rbx, %rdi
	movq	%r15, %rsi
	movl	%r14d, %edx
	callq	BZ2_bzwrite.204
	addq	$8, %rsp
	popq	%rbx
	popq	%r14
	popq	%r15
	popq	%rbp
	.cfi_def_cfa %rsp, 8
	retq
.LBB33_8:                               # %func_BZ2_bzwrite.208
	.cfi_def_cfa %rbp, 16
	movq	%rbx, %rdi
	movq	%r15, %rsi
	movl	%r14d, %edx
	callq	BZ2_bzwrite.208
	addq	$8, %rsp
	popq	%rbx
	popq	%r14
	popq	%r15
	popq	%rbp
	.cfi_def_cfa %rsp, 8
	retq
.LBB33_9:                               # %ctrl0
	.cfi_def_cfa %rbp, 16
	cmpl	$1, %eax
	je	.LBB33_2
# %bb.10:                               # %ctrl1
	cmpl	$2, %eax
	je	.LBB33_3
# %bb.11:                               # %ctrl2
	cmpl	$3, %eax
	je	.LBB33_4
# %bb.12:                               # %ctrl3
	cmpl	$4, %eax
	je	.LBB33_5
# %bb.13:                               # %ctrl4
	cmpl	$5, %eax
	je	.LBB33_6
# %bb.14:                               # %ctrl5
	cmpl	$6, %eax
	je	.LBB33_7
	jmp	.LBB33_8
.Lfunc_end33:
	.size	BZ2_bzwrite, .Lfunc_end33-BZ2_bzwrite
	.cfi_endproc
                                        # -- End function
	.globl	BZ2_bzflush             # -- Begin function BZ2_bzflush
	.p2align	4, 0x90
	.type	BZ2_bzflush,@function
BZ2_bzflush:                            # @BZ2_bzflush
	.cfi_startproc
# %bb.0:                                # %entry
	pushq	%rbp
	.cfi_def_cfa_offset 16
	.cfi_offset %rbp, -16
	movq	%rsp, %rbp
	.cfi_def_cfa_register %rbp
	movq	%rdi, -8(%rbp)
	xorl	%eax, %eax
	popq	%rbp
	.cfi_def_cfa %rsp, 8
	retq
.Lfunc_end34:
	.size	BZ2_bzflush, .Lfunc_end34-BZ2_bzflush
	.cfi_endproc
                                        # -- End function
	.globl	BZ2_bzclose             # -- Begin function BZ2_bzclose
	.p2align	4, 0x90
	.type	BZ2_bzclose,@function
BZ2_bzclose:                            # @BZ2_bzclose
	.cfi_startproc
# %bb.0:                                # %rand_bb
	pushq	%rbp
	.cfi_def_cfa_offset 16
	.cfi_offset %rbp, -16
	movq	%rsp, %rbp
	.cfi_def_cfa_register %rbp
	pushq	%rbx
	pushq	%rax
	.cfi_offset %rbx, -24
	movq	%rdi, %rbx
	callq	get_urand
	cmpl	$0, %eax
	jne	.LBB35_7
# %bb.1:                                # %func_BZ2_bzclose.9
	movq	%rbx, %rdi
	callq	BZ2_bzclose.9
	addq	$8, %rsp
	popq	%rbx
	popq	%rbp
	.cfi_def_cfa %rsp, 8
	retq
.LBB35_2:                               # %func_BZ2_bzclose.26
	.cfi_def_cfa %rbp, 16
	movq	%rbx, %rdi
	callq	BZ2_bzclose.26
	addq	$8, %rsp
	popq	%rbx
	popq	%rbp
	.cfi_def_cfa %rsp, 8
	retq
.LBB35_3:                               # %func_BZ2_bzclose.92
	.cfi_def_cfa %rbp, 16
	movq	%rbx, %rdi
	callq	BZ2_bzclose.92
	addq	$8, %rsp
	popq	%rbx
	popq	%rbp
	.cfi_def_cfa %rsp, 8
	retq
.LBB35_4:                               # %func_BZ2_bzclose.118
	.cfi_def_cfa %rbp, 16
	movq	%rbx, %rdi
	callq	BZ2_bzclose.118
	addq	$8, %rsp
	popq	%rbx
	popq	%rbp
	.cfi_def_cfa %rsp, 8
	retq
.LBB35_5:                               # %func_BZ2_bzclose.133
	.cfi_def_cfa %rbp, 16
	movq	%rbx, %rdi
	callq	BZ2_bzclose.133
	addq	$8, %rsp
	popq	%rbx
	popq	%rbp
	.cfi_def_cfa %rsp, 8
	retq
.LBB35_6:                               # %func_BZ2_bzclose.164
	.cfi_def_cfa %rbp, 16
	movq	%rbx, %rdi
	callq	BZ2_bzclose.164
	addq	$8, %rsp
	popq	%rbx
	popq	%rbp
	.cfi_def_cfa %rsp, 8
	retq
.LBB35_7:                               # %ctrl0
	.cfi_def_cfa %rbp, 16
	cmpl	$1, %eax
	je	.LBB35_2
# %bb.8:                                # %ctrl1
	cmpl	$2, %eax
	je	.LBB35_3
# %bb.9:                                # %ctrl2
	cmpl	$3, %eax
	je	.LBB35_4
# %bb.10:                               # %ctrl3
	cmpl	$4, %eax
	je	.LBB35_5
	jmp	.LBB35_6
.Lfunc_end35:
	.size	BZ2_bzclose, .Lfunc_end35-BZ2_bzclose
	.cfi_endproc
                                        # -- End function
	.globl	BZ2_bzerror             # -- Begin function BZ2_bzerror
	.p2align	4, 0x90
	.type	BZ2_bzerror,@function
BZ2_bzerror:                            # @BZ2_bzerror
	.cfi_startproc
# %bb.0:                                # %rand_bb
	pushq	%rbp
	.cfi_def_cfa_offset 16
	.cfi_offset %rbp, -16
	movq	%rsp, %rbp
	.cfi_def_cfa_register %rbp
	pushq	%r14
	pushq	%rbx
	.cfi_offset %rbx, -32
	.cfi_offset %r14, -24
	movq	%rsi, %r14
	movq	%rdi, %rbx
	callq	get_urand
	cmpl	$0, %eax
	jne	.LBB36_7
# %bb.1:                                # %func_BZ2_bzerror.14
	movq	%rbx, %rdi
	movq	%r14, %rsi
	callq	BZ2_bzerror.14
	popq	%rbx
	popq	%r14
	popq	%rbp
	.cfi_def_cfa %rsp, 8
	retq
.LBB36_2:                               # %func_BZ2_bzerror.40
	.cfi_def_cfa %rbp, 16
	movq	%rbx, %rdi
	movq	%r14, %rsi
	callq	BZ2_bzerror.40
	popq	%rbx
	popq	%r14
	popq	%rbp
	.cfi_def_cfa %rsp, 8
	retq
.LBB36_3:                               # %func_BZ2_bzerror.63
	.cfi_def_cfa %rbp, 16
	movq	%rbx, %rdi
	movq	%r14, %rsi
	callq	BZ2_bzerror.63
	popq	%rbx
	popq	%r14
	popq	%rbp
	.cfi_def_cfa %rsp, 8
	retq
.LBB36_4:                               # %func_BZ2_bzerror.72
	.cfi_def_cfa %rbp, 16
	movq	%rbx, %rdi
	movq	%r14, %rsi
	callq	BZ2_bzerror.72
	popq	%rbx
	popq	%r14
	popq	%rbp
	.cfi_def_cfa %rsp, 8
	retq
.LBB36_5:                               # %func_BZ2_bzerror.103
	.cfi_def_cfa %rbp, 16
	movq	%rbx, %rdi
	movq	%r14, %rsi
	callq	BZ2_bzerror.103
	popq	%rbx
	popq	%r14
	popq	%rbp
	.cfi_def_cfa %rsp, 8
	retq
.LBB36_6:                               # %func_BZ2_bzerror.105
	.cfi_def_cfa %rbp, 16
	movq	%rbx, %rdi
	movq	%r14, %rsi
	callq	BZ2_bzerror.105
	popq	%rbx
	popq	%r14
	popq	%rbp
	.cfi_def_cfa %rsp, 8
	retq
.LBB36_7:                               # %ctrl0
	.cfi_def_cfa %rbp, 16
	cmpl	$1, %eax
	je	.LBB36_2
# %bb.8:                                # %ctrl1
	cmpl	$2, %eax
	je	.LBB36_3
# %bb.9:                                # %ctrl2
	cmpl	$3, %eax
	je	.LBB36_4
# %bb.10:                               # %ctrl3
	cmpl	$4, %eax
	je	.LBB36_5
	jmp	.LBB36_6
.Lfunc_end36:
	.size	BZ2_bzerror, .Lfunc_end36-BZ2_bzerror
	.cfi_endproc
                                        # -- End function
	.p2align	4, 0x90         # -- Begin function copy_output_until_stop
	.type	copy_output_until_stop,@function
copy_output_until_stop:                 # @copy_output_until_stop
	.cfi_startproc
# %bb.0:                                # %rand_bb
	pushq	%rbp
	.cfi_def_cfa_offset 16
	.cfi_offset %rbp, -16
	movq	%rsp, %rbp
	.cfi_def_cfa_register %rbp
	pushq	%rbx
	pushq	%rax
	.cfi_offset %rbx, -24
	movq	%rdi, %rbx
	callq	get_urand
	cmpl	$0, %eax
	jne	.LBB37_2
# %bb.1:                                # %func_copy_output_until_stop.11
	movq	%rbx, %rdi
	callq	copy_output_until_stop.11
	movzbl	%al, %eax
	addq	$8, %rsp
	popq	%rbx
	popq	%rbp
	.cfi_def_cfa %rsp, 8
	retq
.LBB37_2:                               # %func_copy_output_until_stop.20
	.cfi_def_cfa %rbp, 16
	movq	%rbx, %rdi
	callq	copy_output_until_stop.20
	movzbl	%al, %eax
	addq	$8, %rsp
	popq	%rbx
	popq	%rbp
	.cfi_def_cfa %rsp, 8
	retq
.Lfunc_end37:
	.size	copy_output_until_stop, .Lfunc_end37-copy_output_until_stop
	.cfi_endproc
                                        # -- End function
	.p2align	4, 0x90         # -- Begin function copy_input_until_stop
	.type	copy_input_until_stop,@function
copy_input_until_stop:                  # @copy_input_until_stop
	.cfi_startproc
# %bb.0:                                # %rand_bb
	pushq	%rbp
	.cfi_def_cfa_offset 16
	.cfi_offset %rbp, -16
	movq	%rsp, %rbp
	.cfi_def_cfa_register %rbp
	pushq	%rbx
	pushq	%rax
	.cfi_offset %rbx, -24
	movq	%rdi, %rbx
	callq	get_urand
	cmpl	$0, %eax
	jne	.LBB38_9
# %bb.1:                                # %func_copy_input_until_stop.33
	movq	%rbx, %rdi
	callq	copy_input_until_stop.33
	movzbl	%al, %eax
	addq	$8, %rsp
	popq	%rbx
	popq	%rbp
	.cfi_def_cfa %rsp, 8
	retq
.LBB38_2:                               # %func_copy_input_until_stop.147
	.cfi_def_cfa %rbp, 16
	movq	%rbx, %rdi
	callq	copy_input_until_stop.147
	movzbl	%al, %eax
	addq	$8, %rsp
	popq	%rbx
	popq	%rbp
	.cfi_def_cfa %rsp, 8
	retq
.LBB38_3:                               # %func_copy_input_until_stop.152
	.cfi_def_cfa %rbp, 16
	movq	%rbx, %rdi
	callq	copy_input_until_stop.152
	movzbl	%al, %eax
	addq	$8, %rsp
	popq	%rbx
	popq	%rbp
	.cfi_def_cfa %rsp, 8
	retq
.LBB38_4:                               # %func_copy_input_until_stop.159
	.cfi_def_cfa %rbp, 16
	movq	%rbx, %rdi
	callq	copy_input_until_stop.159
	movzbl	%al, %eax
	addq	$8, %rsp
	popq	%rbx
	popq	%rbp
	.cfi_def_cfa %rsp, 8
	retq
.LBB38_5:                               # %func_copy_input_until_stop.179
	.cfi_def_cfa %rbp, 16
	movq	%rbx, %rdi
	callq	copy_input_until_stop.179
	movzbl	%al, %eax
	addq	$8, %rsp
	popq	%rbx
	popq	%rbp
	.cfi_def_cfa %rsp, 8
	retq
.LBB38_6:                               # %func_copy_input_until_stop.194
	.cfi_def_cfa %rbp, 16
	movq	%rbx, %rdi
	callq	copy_input_until_stop.194
	movzbl	%al, %eax
	addq	$8, %rsp
	popq	%rbx
	popq	%rbp
	.cfi_def_cfa %rsp, 8
	retq
.LBB38_7:                               # %func_copy_input_until_stop.206
	.cfi_def_cfa %rbp, 16
	movq	%rbx, %rdi
	callq	copy_input_until_stop.206
	movzbl	%al, %eax
	addq	$8, %rsp
	popq	%rbx
	popq	%rbp
	.cfi_def_cfa %rsp, 8
	retq
.LBB38_8:                               # %func_copy_input_until_stop.211
	.cfi_def_cfa %rbp, 16
	movq	%rbx, %rdi
	callq	copy_input_until_stop.211
	movzbl	%al, %eax
	addq	$8, %rsp
	popq	%rbx
	popq	%rbp
	.cfi_def_cfa %rsp, 8
	retq
.LBB38_9:                               # %ctrl0
	.cfi_def_cfa %rbp, 16
	cmpl	$1, %eax
	je	.LBB38_2
# %bb.10:                               # %ctrl1
	cmpl	$2, %eax
	je	.LBB38_3
# %bb.11:                               # %ctrl2
	cmpl	$3, %eax
	je	.LBB38_4
# %bb.12:                               # %ctrl3
	cmpl	$4, %eax
	je	.LBB38_5
# %bb.13:                               # %ctrl4
	cmpl	$5, %eax
	je	.LBB38_6
# %bb.14:                               # %ctrl5
	cmpl	$6, %eax
	je	.LBB38_7
	jmp	.LBB38_8
.Lfunc_end38:
	.size	copy_input_until_stop, .Lfunc_end38-copy_input_until_stop
	.cfi_endproc
                                        # -- End function
	.p2align	4, 0x90         # -- Begin function flush_RL
	.type	flush_RL,@function
flush_RL:                               # @flush_RL
	.cfi_startproc
# %bb.0:                                # %entry
	pushq	%rbp
	.cfi_def_cfa_offset 16
	.cfi_offset %rbp, -16
	movq	%rsp, %rbp
	.cfi_def_cfa_register %rbp
	subq	$16, %rsp
	movq	%rdi, -8(%rbp)
	movq	-8(%rbp), %rax
	cmpl	$256, 92(%rax)          # imm = 0x100
	jae	.LBB39_2
# %bb.1:                                # %if.then
	movq	-8(%rbp), %rdi
	callq	add_pair_to_block
.LBB39_2:                               # %if.end
	movq	-8(%rbp), %rdi
	callq	init_RL
	addq	$16, %rsp
	popq	%rbp
	.cfi_def_cfa %rsp, 8
	retq
.Lfunc_end39:
	.size	flush_RL, .Lfunc_end39-flush_RL
	.cfi_endproc
                                        # -- End function
	.p2align	4, 0x90         # -- Begin function add_pair_to_block
	.type	add_pair_to_block,@function
add_pair_to_block:                      # @add_pair_to_block
	.cfi_startproc
# %bb.0:                                # %rand_bb
	pushq	%rbp
	.cfi_def_cfa_offset 16
	.cfi_offset %rbp, -16
	movq	%rsp, %rbp
	.cfi_def_cfa_register %rbp
	pushq	%rbx
	pushq	%rax
	.cfi_offset %rbx, -24
	movq	%rdi, %rbx
	callq	get_urand
	cmpl	$0, %eax
	jne	.LBB40_7
# %bb.1:                                # %func_add_pair_to_block.39
	movq	%rbx, %rdi
	callq	add_pair_to_block.39
	addq	$8, %rsp
	popq	%rbx
	popq	%rbp
	.cfi_def_cfa %rsp, 8
	retq
.LBB40_2:                               # %func_add_pair_to_block.47
	.cfi_def_cfa %rbp, 16
	movq	%rbx, %rdi
	callq	add_pair_to_block.47
	addq	$8, %rsp
	popq	%rbx
	popq	%rbp
	.cfi_def_cfa %rsp, 8
	retq
.LBB40_3:                               # %func_add_pair_to_block.67
	.cfi_def_cfa %rbp, 16
	movq	%rbx, %rdi
	callq	add_pair_to_block.67
	addq	$8, %rsp
	popq	%rbx
	popq	%rbp
	.cfi_def_cfa %rsp, 8
	retq
.LBB40_4:                               # %func_add_pair_to_block.78
	.cfi_def_cfa %rbp, 16
	movq	%rbx, %rdi
	callq	add_pair_to_block.78
	addq	$8, %rsp
	popq	%rbx
	popq	%rbp
	.cfi_def_cfa %rsp, 8
	retq
.LBB40_5:                               # %func_add_pair_to_block.83
	.cfi_def_cfa %rbp, 16
	movq	%rbx, %rdi
	callq	add_pair_to_block.83
	addq	$8, %rsp
	popq	%rbx
	popq	%rbp
	.cfi_def_cfa %rsp, 8
	retq
.LBB40_6:                               # %func_add_pair_to_block.95
	.cfi_def_cfa %rbp, 16
	movq	%rbx, %rdi
	callq	add_pair_to_block.95
	addq	$8, %rsp
	popq	%rbx
	popq	%rbp
	.cfi_def_cfa %rsp, 8
	retq
.LBB40_7:                               # %ctrl0
	.cfi_def_cfa %rbp, 16
	cmpl	$1, %eax
	je	.LBB40_2
# %bb.8:                                # %ctrl1
	cmpl	$2, %eax
	je	.LBB40_3
# %bb.9:                                # %ctrl2
	cmpl	$3, %eax
	je	.LBB40_4
# %bb.10:                               # %ctrl3
	cmpl	$4, %eax
	je	.LBB40_5
	jmp	.LBB40_6
.Lfunc_end40:
	.size	add_pair_to_block, .Lfunc_end40-add_pair_to_block
	.cfi_endproc
                                        # -- End function
	.p2align	4, 0x90         # -- Begin function default_bzfree.1
	.type	default_bzfree.1,@function
default_bzfree.1:                       # @default_bzfree.1
	.cfi_startproc
# %bb.0:                                # %entry
	pushq	%rbp
	.cfi_def_cfa_offset 16
	.cfi_offset %rbp, -16
	movq	%rsp, %rbp
	.cfi_def_cfa_register %rbp
	subq	$32, %rsp
	movl	$1059060191, -4(%rbp)   # imm = 0x3F1FF9DF
	movq	%rdi, -24(%rbp)
	movq	%rsi, -16(%rbp)
	cmpq	$0, -16(%rbp)
	je	.LBB41_2
# %bb.1:                                # %if.then
	movq	-16(%rbp), %rdi
	callq	free
.LBB41_2:                               # %if.end
	cmpl	$1059060191, -4(%rbp)   # imm = 0x3F1FF9DF
	jne	.LBB41_4
.LBB41_3:
	addq	$32, %rsp
	popq	%rbp
	.cfi_def_cfa %rsp, 8
	retq
.LBB41_4:                               # %func_exit
	.cfi_def_cfa %rbp, 16
	callq	detect_breach
	jmp	.LBB41_3
.Lfunc_end41:
	.size	default_bzfree.1, .Lfunc_end41-default_bzfree.1
	.cfi_endproc
                                        # -- End function
	.p2align	4, 0x90         # -- Begin function unRLE_obuf_to_output_SMALL.2
	.type	unRLE_obuf_to_output_SMALL.2,@function
unRLE_obuf_to_output_SMALL.2:           # @unRLE_obuf_to_output_SMALL.2
	.cfi_startproc
# %bb.0:                                # %entry
	pushq	%rbp
	.cfi_def_cfa_offset 16
	.cfi_offset %rbp, -16
	movq	%rsp, %rbp
	.cfi_def_cfa_register %rbp
	pushq	%rbx
	subq	$24, %rsp
	.cfi_offset %rbx, -24
	movl	$1572550003, -32(%rbp)  # imm = 0x5DBB3573
	movq	%rdi, -24(%rbp)
	movq	-24(%rbp), %rax
	cmpb	$0, 20(%rax)
	je	.LBB42_48
# %bb.1:                                # %if.then
	jmp	.LBB42_2
.LBB42_2:                               # %while.body
                                        # =>This Loop Header: Depth=1
                                        #     Child Loop BB42_3 Depth 2
	jmp	.LBB42_3
.LBB42_3:                               # %while.body2
                                        #   Parent Loop BB42_2 Depth=1
                                        # =>  This Inner Loop Header: Depth=2
	movq	-24(%rbp), %rax
	movq	(%rax), %rax
	cmpl	$0, 32(%rax)
	jne	.LBB42_5
# %bb.4:                                # %if.then3
	movb	$0, -25(%rbp)
	jmp	.LBB42_75
.LBB42_5:                               # %if.end
                                        #   in Loop: Header=BB42_3 Depth=2
	movq	-24(%rbp), %rax
	cmpl	$0, 16(%rax)
	jne	.LBB42_7
# %bb.6:                                # %if.then5
                                        #   in Loop: Header=BB42_2 Depth=1
	jmp	.LBB42_10
.LBB42_7:                               # %if.end6
                                        #   in Loop: Header=BB42_3 Depth=2
	movq	-24(%rbp), %rax
	movb	12(%rax), %al
	movq	-24(%rbp), %rcx
	movq	(%rcx), %rcx
	movq	24(%rcx), %rcx
	movb	%al, (%rcx)
	movq	-24(%rbp), %rax
	movl	3184(%rax), %eax
	shll	$8, %eax
	movq	-24(%rbp), %rcx
	movl	3184(%rcx), %ecx
	shrl	$24, %ecx
	movq	-24(%rbp), %rdx
	movzbl	12(%rdx), %edx
	xorl	%edx, %ecx
	movl	%ecx, %ecx
	xorl	BZ2_crc32Table(,%rcx,4), %eax
	movq	-24(%rbp), %rcx
	movl	%eax, 3184(%rcx)
	movq	-24(%rbp), %rax
	movl	16(%rax), %ecx
	addl	$-1, %ecx
	movl	%ecx, 16(%rax)
	movq	-24(%rbp), %rax
	movq	(%rax), %rax
	movq	24(%rax), %rcx
	addq	$1, %rcx
	movq	%rcx, 24(%rax)
	movq	-24(%rbp), %rax
	movq	(%rax), %rax
	movl	32(%rax), %ecx
	addl	$-1, %ecx
	movl	%ecx, 32(%rax)
	movq	-24(%rbp), %rax
	movq	(%rax), %rax
	movl	36(%rax), %ecx
	addl	$1, %ecx
	movl	%ecx, 36(%rax)
	movq	-24(%rbp), %rax
	movq	(%rax), %rax
	cmpl	$0, 36(%rax)
	jne	.LBB42_9
# %bb.8:                                # %if.then23
                                        #   in Loop: Header=BB42_3 Depth=2
	movq	-24(%rbp), %rax
	movq	(%rax), %rax
	movl	40(%rax), %ecx
	addl	$1, %ecx
	movl	%ecx, 40(%rax)
.LBB42_9:                               # %if.end26
                                        #   in Loop: Header=BB42_3 Depth=2
	jmp	.LBB42_3
.LBB42_10:                              # %while.end
                                        #   in Loop: Header=BB42_2 Depth=1
	movq	-24(%rbp), %rax
	movl	1092(%rax), %eax
	movq	-24(%rbp), %rcx
	movl	64080(%rcx), %ecx
	addl	$1, %ecx
	cmpl	%ecx, %eax
	jne	.LBB42_12
# %bb.11:                               # %if.then29
	movb	$0, -25(%rbp)
	jmp	.LBB42_75
.LBB42_12:                              # %if.end30
                                        #   in Loop: Header=BB42_2 Depth=1
	movq	-24(%rbp), %rax
	movl	1092(%rax), %eax
	movq	-24(%rbp), %rcx
	movl	64080(%rcx), %ecx
	addl	$1, %ecx
	cmpl	%ecx, %eax
	jle	.LBB42_14
# %bb.13:                               # %if.then36
	movb	$1, -25(%rbp)
	jmp	.LBB42_75
.LBB42_14:                              # %if.end37
                                        #   in Loop: Header=BB42_2 Depth=1
	movq	-24(%rbp), %rax
	movl	$1, 16(%rax)
	movq	-24(%rbp), %rax
	movl	64(%rax), %eax
	movq	-24(%rbp), %rcx
	movb	%al, 12(%rcx)
	movq	-24(%rbp), %rax
	movl	60(%rax), %edi
	movq	-24(%rbp), %rsi
	addq	$1096, %rsi             # imm = 0x448
	callq	BZ2_indexIntoF
	movb	%al, -9(%rbp)
	movq	-24(%rbp), %rax
	movq	3160(%rax), %rax
	movq	-24(%rbp), %rcx
	movl	60(%rcx), %ecx
	movzwl	(%rax,%rcx,2), %eax
	movq	-24(%rbp), %rcx
	movq	3168(%rcx), %rcx
	movq	-24(%rbp), %rdx
	movl	60(%rdx), %edx
	shrl	$1, %edx
	movl	%edx, %edx
	movzbl	(%rcx,%rdx), %edx
	movq	-24(%rbp), %rcx
	movl	60(%rcx), %ecx
	shll	$2, %ecx
	andl	$4, %ecx
                                        # kill: def $cl killed $ecx
	shrl	%cl, %edx
	andl	$15, %edx
	shll	$16, %edx
	orl	%edx, %eax
	movq	-24(%rbp), %rcx
	movl	%eax, 60(%rcx)
	movq	-24(%rbp), %rax
	cmpl	$0, 24(%rax)
	jne	.LBB42_18
# %bb.15:                               # %if.then59
                                        #   in Loop: Header=BB42_2 Depth=1
	movq	-24(%rbp), %rax
	movslq	28(%rax), %rax
	movl	BZ2_rNums(,%rax,4), %eax
	movq	-24(%rbp), %rcx
	movl	%eax, 24(%rcx)
	movq	-24(%rbp), %rax
	movl	28(%rax), %ecx
	addl	$1, %ecx
	movl	%ecx, 28(%rax)
	movq	-24(%rbp), %rax
	cmpl	$512, 28(%rax)          # imm = 0x200
	jne	.LBB42_17
# %bb.16:                               # %if.then68
                                        #   in Loop: Header=BB42_2 Depth=1
	movq	-24(%rbp), %rax
	movl	$0, 28(%rax)
.LBB42_17:                              # %if.end70
                                        #   in Loop: Header=BB42_2 Depth=1
	jmp	.LBB42_18
.LBB42_18:                              # %if.end71
                                        #   in Loop: Header=BB42_2 Depth=1
	xorl	%eax, %eax
	movq	-24(%rbp), %rcx
	movl	24(%rcx), %edx
	addl	$-1, %edx
	movl	%edx, 24(%rcx)
	movq	-24(%rbp), %rcx
	movl	24(%rcx), %ecx
	cmpl	$1, %ecx
	movl	$1, %ecx
	cmovel	%ecx, %eax
	movzbl	-9(%rbp), %ecx
	xorl	%eax, %ecx
	movb	%cl, -9(%rbp)
	movq	-24(%rbp), %rax
	movl	1092(%rax), %ecx
	addl	$1, %ecx
	movl	%ecx, 1092(%rax)
	movq	-24(%rbp), %rax
	movl	1092(%rax), %eax
	movq	-24(%rbp), %rcx
	movl	64080(%rcx), %ecx
	addl	$1, %ecx
	cmpl	%ecx, %eax
	jne	.LBB42_21
# %bb.19:                               # %if.then87
                                        #   in Loop: Header=BB42_2 Depth=1
	jmp	.LBB42_20
.LBB42_20:                              # %while.body.backedge
                                        #   in Loop: Header=BB42_2 Depth=1
	jmp	.LBB42_2
.LBB42_21:                              # %if.end88
                                        #   in Loop: Header=BB42_2 Depth=1
	movzbl	-9(%rbp), %eax
	movq	-24(%rbp), %rcx
	cmpl	64(%rcx), %eax
	je	.LBB42_23
# %bb.22:                               # %if.then93
                                        #   in Loop: Header=BB42_2 Depth=1
	movzbl	-9(%rbp), %eax
	movq	-24(%rbp), %rcx
	movl	%eax, 64(%rcx)
	jmp	.LBB42_20
.LBB42_23:                              # %if.end96
                                        #   in Loop: Header=BB42_2 Depth=1
	movq	-24(%rbp), %rax
	movl	$2, 16(%rax)
	movq	-24(%rbp), %rax
	movl	60(%rax), %edi
	movq	-24(%rbp), %rsi
	addq	$1096, %rsi             # imm = 0x448
	callq	BZ2_indexIntoF
	movb	%al, -9(%rbp)
	movq	-24(%rbp), %rax
	movq	3160(%rax), %rax
	movq	-24(%rbp), %rcx
	movl	60(%rcx), %ecx
	movzwl	(%rax,%rcx,2), %eax
	movq	-24(%rbp), %rcx
	movq	3168(%rcx), %rcx
	movq	-24(%rbp), %rdx
	movl	60(%rdx), %edx
	shrl	$1, %edx
	movl	%edx, %edx
	movzbl	(%rcx,%rdx), %edx
	movq	-24(%rbp), %rcx
	movl	60(%rcx), %ecx
	shll	$2, %ecx
	andl	$4, %ecx
                                        # kill: def $cl killed $ecx
	shrl	%cl, %edx
	andl	$15, %edx
	shll	$16, %edx
	orl	%edx, %eax
	movq	-24(%rbp), %rcx
	movl	%eax, 60(%rcx)
	movq	-24(%rbp), %rax
	cmpl	$0, 24(%rax)
	jne	.LBB42_27
# %bb.24:                               # %if.then125
                                        #   in Loop: Header=BB42_2 Depth=1
	movq	-24(%rbp), %rax
	movslq	28(%rax), %rax
	movl	BZ2_rNums(,%rax,4), %eax
	movq	-24(%rbp), %rcx
	movl	%eax, 24(%rcx)
	movq	-24(%rbp), %rax
	movl	28(%rax), %ecx
	addl	$1, %ecx
	movl	%ecx, 28(%rax)
	movq	-24(%rbp), %rax
	cmpl	$512, 28(%rax)          # imm = 0x200
	jne	.LBB42_26
# %bb.25:                               # %if.then135
                                        #   in Loop: Header=BB42_2 Depth=1
	movq	-24(%rbp), %rax
	movl	$0, 28(%rax)
.LBB42_26:                              # %if.end137
                                        #   in Loop: Header=BB42_2 Depth=1
	jmp	.LBB42_27
.LBB42_27:                              # %if.end138
                                        #   in Loop: Header=BB42_2 Depth=1
	xorl	%eax, %eax
	movq	-24(%rbp), %rcx
	movl	24(%rcx), %edx
	addl	$-1, %edx
	movl	%edx, 24(%rcx)
	movq	-24(%rbp), %rcx
	movl	24(%rcx), %ecx
	cmpl	$1, %ecx
	movl	$1, %ecx
	cmovel	%ecx, %eax
	movzbl	-9(%rbp), %ecx
	xorl	%eax, %ecx
	movb	%cl, -9(%rbp)
	movq	-24(%rbp), %rax
	movl	1092(%rax), %ecx
	addl	$1, %ecx
	movl	%ecx, 1092(%rax)
	movq	-24(%rbp), %rax
	movl	1092(%rax), %eax
	movq	-24(%rbp), %rcx
	movl	64080(%rcx), %ecx
	addl	$1, %ecx
	cmpl	%ecx, %eax
	jne	.LBB42_29
# %bb.28:                               # %if.then155
                                        #   in Loop: Header=BB42_2 Depth=1
	jmp	.LBB42_20
.LBB42_29:                              # %if.end156
                                        #   in Loop: Header=BB42_2 Depth=1
	movzbl	-9(%rbp), %eax
	movq	-24(%rbp), %rcx
	cmpl	64(%rcx), %eax
	je	.LBB42_31
# %bb.30:                               # %if.then161
                                        #   in Loop: Header=BB42_2 Depth=1
	movzbl	-9(%rbp), %eax
	movq	-24(%rbp), %rcx
	movl	%eax, 64(%rcx)
	jmp	.LBB42_20
.LBB42_31:                              # %if.end164
                                        #   in Loop: Header=BB42_2 Depth=1
	movq	-24(%rbp), %rax
	movl	$3, 16(%rax)
	movq	-24(%rbp), %rax
	movl	60(%rax), %edi
	movq	-24(%rbp), %rsi
	addq	$1096, %rsi             # imm = 0x448
	callq	BZ2_indexIntoF
	movb	%al, -9(%rbp)
	movq	-24(%rbp), %rax
	movq	3160(%rax), %rax
	movq	-24(%rbp), %rcx
	movl	60(%rcx), %ecx
	movzwl	(%rax,%rcx,2), %eax
	movq	-24(%rbp), %rcx
	movq	3168(%rcx), %rcx
	movq	-24(%rbp), %rdx
	movl	60(%rdx), %edx
	shrl	$1, %edx
	movl	%edx, %edx
	movzbl	(%rcx,%rdx), %edx
	movq	-24(%rbp), %rcx
	movl	60(%rcx), %ecx
	shll	$2, %ecx
	andl	$4, %ecx
                                        # kill: def $cl killed $ecx
	shrl	%cl, %edx
	andl	$15, %edx
	shll	$16, %edx
	orl	%edx, %eax
	movq	-24(%rbp), %rcx
	movl	%eax, 60(%rcx)
	movq	-24(%rbp), %rax
	cmpl	$0, 24(%rax)
	jne	.LBB42_35
# %bb.32:                               # %if.then193
                                        #   in Loop: Header=BB42_2 Depth=1
	movq	-24(%rbp), %rax
	movslq	28(%rax), %rax
	movl	BZ2_rNums(,%rax,4), %eax
	movq	-24(%rbp), %rcx
	movl	%eax, 24(%rcx)
	movq	-24(%rbp), %rax
	movl	28(%rax), %ecx
	addl	$1, %ecx
	movl	%ecx, 28(%rax)
	movq	-24(%rbp), %rax
	cmpl	$512, 28(%rax)          # imm = 0x200
	jne	.LBB42_34
# %bb.33:                               # %if.then203
                                        #   in Loop: Header=BB42_2 Depth=1
	movq	-24(%rbp), %rax
	movl	$0, 28(%rax)
.LBB42_34:                              # %if.end205
                                        #   in Loop: Header=BB42_2 Depth=1
	jmp	.LBB42_35
.LBB42_35:                              # %if.end206
                                        #   in Loop: Header=BB42_2 Depth=1
	xorl	%eax, %eax
	movq	-24(%rbp), %rcx
	movl	24(%rcx), %edx
	addl	$-1, %edx
	movl	%edx, 24(%rcx)
	movq	-24(%rbp), %rcx
	movl	24(%rcx), %ecx
	cmpl	$1, %ecx
	movl	$1, %ecx
	cmovel	%ecx, %eax
	movzbl	-9(%rbp), %ecx
	xorl	%eax, %ecx
	movb	%cl, -9(%rbp)
	movq	-24(%rbp), %rax
	movl	1092(%rax), %ecx
	addl	$1, %ecx
	movl	%ecx, 1092(%rax)
	movq	-24(%rbp), %rax
	movl	1092(%rax), %eax
	movq	-24(%rbp), %rcx
	movl	64080(%rcx), %ecx
	addl	$1, %ecx
	cmpl	%ecx, %eax
	jne	.LBB42_37
# %bb.36:                               # %if.then223
                                        #   in Loop: Header=BB42_2 Depth=1
	jmp	.LBB42_20
.LBB42_37:                              # %if.end224
                                        #   in Loop: Header=BB42_2 Depth=1
	movzbl	-9(%rbp), %eax
	movq	-24(%rbp), %rcx
	cmpl	64(%rcx), %eax
	je	.LBB42_39
# %bb.38:                               # %if.then229
                                        #   in Loop: Header=BB42_2 Depth=1
	movzbl	-9(%rbp), %eax
	movq	-24(%rbp), %rcx
	movl	%eax, 64(%rcx)
	jmp	.LBB42_20
.LBB42_39:                              # %if.end232
                                        #   in Loop: Header=BB42_2 Depth=1
	movq	-24(%rbp), %rax
	movl	60(%rax), %edi
	movq	-24(%rbp), %rsi
	addq	$1096, %rsi             # imm = 0x448
	callq	BZ2_indexIntoF
	movb	%al, -9(%rbp)
	movq	-24(%rbp), %rax
	movq	3160(%rax), %rax
	movq	-24(%rbp), %rcx
	movl	60(%rcx), %ecx
	movzwl	(%rax,%rcx,2), %eax
	movq	-24(%rbp), %rcx
	movq	3168(%rcx), %rcx
	movq	-24(%rbp), %rdx
	movl	60(%rdx), %edx
	shrl	$1, %edx
	movl	%edx, %edx
	movzbl	(%rcx,%rdx), %edx
	movq	-24(%rbp), %rcx
	movl	60(%rcx), %ecx
	shll	$2, %ecx
	andl	$4, %ecx
                                        # kill: def $cl killed $ecx
	shrl	%cl, %edx
	andl	$15, %edx
	shll	$16, %edx
	orl	%edx, %eax
	movq	-24(%rbp), %rcx
	movl	%eax, 60(%rcx)
	movq	-24(%rbp), %rax
	cmpl	$0, 24(%rax)
	jne	.LBB42_43
# %bb.40:                               # %if.then260
                                        #   in Loop: Header=BB42_2 Depth=1
	movq	-24(%rbp), %rax
	movslq	28(%rax), %rax
	movl	BZ2_rNums(,%rax,4), %eax
	movq	-24(%rbp), %rcx
	movl	%eax, 24(%rcx)
	movq	-24(%rbp), %rax
	movl	28(%rax), %ecx
	addl	$1, %ecx
	movl	%ecx, 28(%rax)
	movq	-24(%rbp), %rax
	cmpl	$512, 28(%rax)          # imm = 0x200
	jne	.LBB42_42
# %bb.41:                               # %if.then270
                                        #   in Loop: Header=BB42_2 Depth=1
	movq	-24(%rbp), %rax
	movl	$0, 28(%rax)
.LBB42_42:                              # %if.end272
                                        #   in Loop: Header=BB42_2 Depth=1
	jmp	.LBB42_43
.LBB42_43:                              # %if.end273
                                        #   in Loop: Header=BB42_2 Depth=1
	xorl	%eax, %eax
	movq	-24(%rbp), %rcx
	movl	24(%rcx), %edx
	addl	$-1, %edx
	movl	%edx, 24(%rcx)
	movq	-24(%rbp), %rcx
	movl	24(%rcx), %ecx
	cmpl	$1, %ecx
	movl	$1, %ecx
	cmovel	%ecx, %eax
	movzbl	-9(%rbp), %ecx
	xorl	%eax, %ecx
	movb	%cl, -9(%rbp)
	movq	-24(%rbp), %rax
	movl	1092(%rax), %ecx
	addl	$1, %ecx
	movl	%ecx, 1092(%rax)
	movzbl	-9(%rbp), %eax
	addl	$4, %eax
	movq	-24(%rbp), %rcx
	movl	%eax, 16(%rcx)
	movq	-24(%rbp), %rax
	movl	60(%rax), %edi
	movq	-24(%rbp), %rsi
	addq	$1096, %rsi             # imm = 0x448
	callq	BZ2_indexIntoF
	movq	-24(%rbp), %rcx
	movl	%eax, 64(%rcx)
	movq	-24(%rbp), %rax
	movq	3160(%rax), %rax
	movq	-24(%rbp), %rcx
	movl	60(%rcx), %ecx
	movzwl	(%rax,%rcx,2), %eax
	movq	-24(%rbp), %rcx
	movq	3168(%rcx), %rcx
	movq	-24(%rbp), %rdx
	movl	60(%rdx), %edx
	shrl	$1, %edx
	movl	%edx, %edx
	movzbl	(%rcx,%rdx), %edx
	movq	-24(%rbp), %rcx
	movl	60(%rcx), %ecx
	shll	$2, %ecx
	andl	$4, %ecx
                                        # kill: def $cl killed $ecx
	shrl	%cl, %edx
	andl	$15, %edx
	shll	$16, %edx
	orl	%edx, %eax
	movq	-24(%rbp), %rcx
	movl	%eax, 60(%rcx)
	movq	-24(%rbp), %rax
	cmpl	$0, 24(%rax)
	jne	.LBB42_47
# %bb.44:                               # %if.then315
                                        #   in Loop: Header=BB42_2 Depth=1
	movq	-24(%rbp), %rax
	movslq	28(%rax), %rax
	movl	BZ2_rNums(,%rax,4), %eax
	movq	-24(%rbp), %rcx
	movl	%eax, 24(%rcx)
	movq	-24(%rbp), %rax
	movl	28(%rax), %ecx
	addl	$1, %ecx
	movl	%ecx, 28(%rax)
	movq	-24(%rbp), %rax
	cmpl	$512, 28(%rax)          # imm = 0x200
	jne	.LBB42_46
# %bb.45:                               # %if.then325
                                        #   in Loop: Header=BB42_2 Depth=1
	movq	-24(%rbp), %rax
	movl	$0, 28(%rax)
.LBB42_46:                              # %if.end327
                                        #   in Loop: Header=BB42_2 Depth=1
	jmp	.LBB42_47
.LBB42_47:                              # %if.end328
                                        #   in Loop: Header=BB42_2 Depth=1
	xorl	%eax, %eax
	movq	-24(%rbp), %rcx
	movl	24(%rcx), %edx
	addl	$-1, %edx
	movl	%edx, 24(%rcx)
	movq	-24(%rbp), %rcx
	movl	24(%rcx), %ecx
	cmpl	$1, %ecx
	movl	$1, %ecx
	cmovel	%ecx, %eax
	movq	-24(%rbp), %rcx
	xorl	64(%rcx), %eax
	movl	%eax, 64(%rcx)
	movq	-24(%rbp), %rax
	movl	1092(%rax), %ecx
	addl	$1, %ecx
	movl	%ecx, 1092(%rax)
	jmp	.LBB42_20
.LBB42_48:                              # %if.else
	jmp	.LBB42_49
.LBB42_49:                              # %while.body339
                                        # =>This Loop Header: Depth=1
                                        #     Child Loop BB42_50 Depth 2
	jmp	.LBB42_50
.LBB42_50:                              # %while.body341
                                        #   Parent Loop BB42_49 Depth=1
                                        # =>  This Inner Loop Header: Depth=2
	movq	-24(%rbp), %rax
	movq	(%rax), %rax
	cmpl	$0, 32(%rax)
	jne	.LBB42_52
# %bb.51:                               # %if.then346
	movb	$0, -25(%rbp)
	jmp	.LBB42_75
.LBB42_52:                              # %if.end347
                                        #   in Loop: Header=BB42_50 Depth=2
	movq	-24(%rbp), %rax
	cmpl	$0, 16(%rax)
	jne	.LBB42_54
# %bb.53:                               # %if.then351
                                        #   in Loop: Header=BB42_49 Depth=1
	jmp	.LBB42_57
.LBB42_54:                              # %if.end352
                                        #   in Loop: Header=BB42_50 Depth=2
	movq	-24(%rbp), %rax
	movb	12(%rax), %al
	movq	-24(%rbp), %rcx
	movq	(%rcx), %rcx
	movq	24(%rcx), %rcx
	movb	%al, (%rcx)
	movq	-24(%rbp), %rax
	movl	3184(%rax), %eax
	shll	$8, %eax
	movq	-24(%rbp), %rcx
	movl	3184(%rcx), %ecx
	shrl	$24, %ecx
	movq	-24(%rbp), %rdx
	movzbl	12(%rdx), %edx
	xorl	%edx, %ecx
	movl	%ecx, %ecx
	xorl	BZ2_crc32Table(,%rcx,4), %eax
	movq	-24(%rbp), %rcx
	movl	%eax, 3184(%rcx)
	movq	-24(%rbp), %rax
	movl	16(%rax), %ecx
	addl	$-1, %ecx
	movl	%ecx, 16(%rax)
	movq	-24(%rbp), %rax
	movq	(%rax), %rax
	movq	24(%rax), %rcx
	addq	$1, %rcx
	movq	%rcx, 24(%rax)
	movq	-24(%rbp), %rax
	movq	(%rax), %rax
	movl	32(%rax), %ecx
	addl	$-1, %ecx
	movl	%ecx, 32(%rax)
	movq	-24(%rbp), %rax
	movq	(%rax), %rax
	movl	36(%rax), %ecx
	addl	$1, %ecx
	movl	%ecx, 36(%rax)
	movq	-24(%rbp), %rax
	movq	(%rax), %rax
	cmpl	$0, 36(%rax)
	jne	.LBB42_56
# %bb.55:                               # %if.then382
                                        #   in Loop: Header=BB42_50 Depth=2
	movq	-24(%rbp), %rax
	movq	(%rax), %rax
	movl	40(%rax), %ecx
	addl	$1, %ecx
	movl	%ecx, 40(%rax)
.LBB42_56:                              # %if.end386
                                        #   in Loop: Header=BB42_50 Depth=2
	jmp	.LBB42_50
.LBB42_57:                              # %while.end387
                                        #   in Loop: Header=BB42_49 Depth=1
	movq	-24(%rbp), %rax
	movl	1092(%rax), %eax
	movq	-24(%rbp), %rcx
	movl	64080(%rcx), %ecx
	addl	$1, %ecx
	cmpl	%ecx, %eax
	jne	.LBB42_59
# %bb.58:                               # %if.then393
	movb	$0, -25(%rbp)
	jmp	.LBB42_75
.LBB42_59:                              # %if.end394
                                        #   in Loop: Header=BB42_49 Depth=1
	movq	-24(%rbp), %rax
	movl	1092(%rax), %eax
	movq	-24(%rbp), %rcx
	movl	64080(%rcx), %ecx
	addl	$1, %ecx
	cmpl	%ecx, %eax
	jle	.LBB42_61
# %bb.60:                               # %if.then400
	movb	$1, -25(%rbp)
	jmp	.LBB42_75
.LBB42_61:                              # %if.end401
                                        #   in Loop: Header=BB42_49 Depth=1
	movq	-24(%rbp), %rax
	movl	$1, 16(%rax)
	movq	-24(%rbp), %rax
	movl	64(%rax), %eax
	movq	-24(%rbp), %rcx
	movb	%al, 12(%rcx)
	movq	-24(%rbp), %rax
	movl	60(%rax), %edi
	movq	-24(%rbp), %rsi
	addq	$1096, %rsi             # imm = 0x448
	callq	BZ2_indexIntoF
	movb	%al, -9(%rbp)
	movq	-24(%rbp), %rax
	movq	3160(%rax), %rax
	movq	-24(%rbp), %rcx
	movl	60(%rcx), %ecx
	movzwl	(%rax,%rcx,2), %eax
	movq	-24(%rbp), %rcx
	movq	3168(%rcx), %rcx
	movq	-24(%rbp), %rdx
	movl	60(%rdx), %edx
	shrl	$1, %edx
	movl	%edx, %edx
	movzbl	(%rcx,%rdx), %edx
	movq	-24(%rbp), %rcx
	movl	60(%rcx), %ecx
	shll	$2, %ecx
	andl	$4, %ecx
                                        # kill: def $cl killed $ecx
	shrl	%cl, %edx
	andl	$15, %edx
	shll	$16, %edx
	orl	%edx, %eax
	movq	-24(%rbp), %rcx
	movl	%eax, 60(%rcx)
	movq	-24(%rbp), %rax
	movl	1092(%rax), %ecx
	addl	$1, %ecx
	movl	%ecx, 1092(%rax)
	movq	-24(%rbp), %rax
	movl	1092(%rax), %eax
	movq	-24(%rbp), %rcx
	movl	64080(%rcx), %ecx
	addl	$1, %ecx
	cmpl	%ecx, %eax
	jne	.LBB42_64
# %bb.62:                               # %if.then437
                                        #   in Loop: Header=BB42_49 Depth=1
	jmp	.LBB42_63
.LBB42_63:                              # %while.body339.backedge
                                        #   in Loop: Header=BB42_49 Depth=1
	jmp	.LBB42_49
.LBB42_64:                              # %if.end438
                                        #   in Loop: Header=BB42_49 Depth=1
	movzbl	-9(%rbp), %eax
	movq	-24(%rbp), %rcx
	cmpl	64(%rcx), %eax
	je	.LBB42_66
# %bb.65:                               # %if.then443
                                        #   in Loop: Header=BB42_49 Depth=1
	movzbl	-9(%rbp), %eax
	movq	-24(%rbp), %rcx
	movl	%eax, 64(%rcx)
	jmp	.LBB42_63
.LBB42_66:                              # %if.end446
                                        #   in Loop: Header=BB42_49 Depth=1
	movq	-24(%rbp), %rax
	movl	$2, 16(%rax)
	movq	-24(%rbp), %rax
	movl	60(%rax), %edi
	movq	-24(%rbp), %rsi
	addq	$1096, %rsi             # imm = 0x448
	callq	BZ2_indexIntoF
	movb	%al, -9(%rbp)
	movq	-24(%rbp), %rax
	movq	3160(%rax), %rax
	movq	-24(%rbp), %rcx
	movl	60(%rcx), %ecx
	movzwl	(%rax,%rcx,2), %eax
	movq	-24(%rbp), %rcx
	movq	3168(%rcx), %rcx
	movq	-24(%rbp), %rdx
	movl	60(%rdx), %edx
	shrl	$1, %edx
	movl	%edx, %edx
	movzbl	(%rcx,%rdx), %edx
	movq	-24(%rbp), %rcx
	movl	60(%rcx), %ecx
	shll	$2, %ecx
	andl	$4, %ecx
                                        # kill: def $cl killed $ecx
	shrl	%cl, %edx
	andl	$15, %edx
	shll	$16, %edx
	orl	%edx, %eax
	movq	-24(%rbp), %rcx
	movl	%eax, 60(%rcx)
	movq	-24(%rbp), %rax
	movl	1092(%rax), %ecx
	addl	$1, %ecx
	movl	%ecx, 1092(%rax)
	movq	-24(%rbp), %rax
	movl	1092(%rax), %eax
	movq	-24(%rbp), %rcx
	movl	64080(%rcx), %ecx
	addl	$1, %ecx
	cmpl	%ecx, %eax
	jne	.LBB42_68
# %bb.67:                               # %if.then479
                                        #   in Loop: Header=BB42_49 Depth=1
	jmp	.LBB42_63
.LBB42_68:                              # %if.end480
                                        #   in Loop: Header=BB42_49 Depth=1
	movzbl	-9(%rbp), %eax
	movq	-24(%rbp), %rcx
	cmpl	64(%rcx), %eax
	je	.LBB42_70
# %bb.69:                               # %if.then485
                                        #   in Loop: Header=BB42_49 Depth=1
	movzbl	-9(%rbp), %eax
	movq	-24(%rbp), %rcx
	movl	%eax, 64(%rcx)
	jmp	.LBB42_63
.LBB42_70:                              # %if.end488
                                        #   in Loop: Header=BB42_49 Depth=1
	movq	-24(%rbp), %rax
	movl	$3, 16(%rax)
	movq	-24(%rbp), %rax
	movl	60(%rax), %edi
	movq	-24(%rbp), %rsi
	addq	$1096, %rsi             # imm = 0x448
	callq	BZ2_indexIntoF
	movb	%al, -9(%rbp)
	movq	-24(%rbp), %rax
	movq	3160(%rax), %rax
	movq	-24(%rbp), %rcx
	movl	60(%rcx), %ecx
	movzwl	(%rax,%rcx,2), %eax
	movq	-24(%rbp), %rcx
	movq	3168(%rcx), %rcx
	movq	-24(%rbp), %rdx
	movl	60(%rdx), %edx
	shrl	$1, %edx
	movl	%edx, %edx
	movzbl	(%rcx,%rdx), %edx
	movq	-24(%rbp), %rcx
	movl	60(%rcx), %ecx
	shll	$2, %ecx
	andl	$4, %ecx
                                        # kill: def $cl killed $ecx
	shrl	%cl, %edx
	andl	$15, %edx
	shll	$16, %edx
	orl	%edx, %eax
	movq	-24(%rbp), %rcx
	movl	%eax, 60(%rcx)
	movq	-24(%rbp), %rax
	movl	1092(%rax), %ecx
	addl	$1, %ecx
	movl	%ecx, 1092(%rax)
	movq	-24(%rbp), %rax
	movl	1092(%rax), %eax
	movq	-24(%rbp), %rcx
	movl	64080(%rcx), %ecx
	addl	$1, %ecx
	cmpl	%ecx, %eax
	jne	.LBB42_72
# %bb.71:                               # %if.then521
                                        #   in Loop: Header=BB42_49 Depth=1
	jmp	.LBB42_63
.LBB42_72:                              # %if.end522
                                        #   in Loop: Header=BB42_49 Depth=1
	movzbl	-9(%rbp), %eax
	movq	-24(%rbp), %rcx
	cmpl	64(%rcx), %eax
	je	.LBB42_74
# %bb.73:                               # %if.then527
                                        #   in Loop: Header=BB42_49 Depth=1
	movzbl	-9(%rbp), %eax
	movq	-24(%rbp), %rcx
	movl	%eax, 64(%rcx)
	jmp	.LBB42_63
.LBB42_74:                              # %if.end530
                                        #   in Loop: Header=BB42_49 Depth=1
	movq	-24(%rbp), %rax
	movl	60(%rax), %edi
	movq	-24(%rbp), %rsi
	addq	$1096, %rsi             # imm = 0x448
	callq	BZ2_indexIntoF
	movb	%al, -9(%rbp)
	movq	-24(%rbp), %rax
	movq	3160(%rax), %rax
	movq	-24(%rbp), %rcx
	movl	60(%rcx), %ecx
	movzwl	(%rax,%rcx,2), %eax
	movq	-24(%rbp), %rcx
	movq	3168(%rcx), %rcx
	movq	-24(%rbp), %rdx
	movl	60(%rdx), %edx
	shrl	$1, %edx
	movl	%edx, %edx
	movzbl	(%rcx,%rdx), %edx
	movq	-24(%rbp), %rcx
	movl	60(%rcx), %ecx
	shll	$2, %ecx
	andl	$4, %ecx
                                        # kill: def $cl killed $ecx
	shrl	%cl, %edx
	andl	$15, %edx
	shll	$16, %edx
	orl	%edx, %eax
	movq	-24(%rbp), %rcx
	movl	%eax, 60(%rcx)
	movq	-24(%rbp), %rax
	movl	1092(%rax), %ecx
	addl	$1, %ecx
	movl	%ecx, 1092(%rax)
	movzbl	-9(%rbp), %eax
	addl	$4, %eax
	movq	-24(%rbp), %rcx
	movl	%eax, 16(%rcx)
	movq	-24(%rbp), %rax
	movl	60(%rax), %edi
	movq	-24(%rbp), %rsi
	addq	$1096, %rsi             # imm = 0x448
	callq	BZ2_indexIntoF
	movq	-24(%rbp), %rcx
	movl	%eax, 64(%rcx)
	movq	-24(%rbp), %rax
	movq	3160(%rax), %rax
	movq	-24(%rbp), %rcx
	movl	60(%rcx), %ecx
	movzwl	(%rax,%rcx,2), %eax
	movq	-24(%rbp), %rcx
	movq	3168(%rcx), %rcx
	movq	-24(%rbp), %rdx
	movl	60(%rdx), %edx
	shrl	$1, %edx
	movl	%edx, %edx
	movzbl	(%rcx,%rdx), %edx
	movq	-24(%rbp), %rcx
	movl	60(%rcx), %ecx
	shll	$2, %ecx
	andl	$4, %ecx
                                        # kill: def $cl killed $ecx
	shrl	%cl, %edx
	andl	$15, %edx
	shll	$16, %edx
	orl	%edx, %eax
	movq	-24(%rbp), %rcx
	movl	%eax, 60(%rcx)
	movq	-24(%rbp), %rax
	movl	1092(%rax), %ecx
	addl	$1, %ecx
	movl	%ecx, 1092(%rax)
	jmp	.LBB42_63
.LBB42_75:                              # %return
	movb	-25(%rbp), %bl
	cmpl	$1572550003, -32(%rbp)  # imm = 0x5DBB3573
	jne	.LBB42_77
.LBB42_76:
	movzbl	%bl, %eax
	addq	$24, %rsp
	popq	%rbx
	popq	%rbp
	.cfi_def_cfa %rsp, 8
	retq
.LBB42_77:                              # %func_exit
	.cfi_def_cfa %rbp, 16
	callq	detect_breach
	jmp	.LBB42_76
.Lfunc_end42:
	.size	unRLE_obuf_to_output_SMALL.2, .Lfunc_end42-unRLE_obuf_to_output_SMALL.2
	.cfi_endproc
                                        # -- End function
	.globl	BZ2_bzdopen.3           # -- Begin function BZ2_bzdopen.3
	.p2align	4, 0x90
	.type	BZ2_bzdopen.3,@function
BZ2_bzdopen.3:                          # @BZ2_bzdopen.3
	.cfi_startproc
# %bb.0:                                # %entry
	pushq	%rbp
	.cfi_def_cfa_offset 16
	.cfi_offset %rbp, -16
	movq	%rsp, %rbp
	.cfi_def_cfa_register %rbp
	pushq	%rbx
	subq	$24, %rsp
	.cfi_offset %rbx, -24
	movl	$777053158, -16(%rbp)   # imm = 0x2E50E3E6
	movl	%edi, -12(%rbp)
	movq	%rsi, -24(%rbp)
	movl	-12(%rbp), %esi
	movq	-24(%rbp), %rdx
	xorl	%edi, %edi
	movl	$1, %ecx
	callq	bzopen_or_bzdopen
	movq	%rax, %rbx
	cmpl	$777053158, -16(%rbp)   # imm = 0x2E50E3E6
	jne	.LBB43_2
.LBB43_1:
	movq	%rbx, %rax
	addq	$24, %rsp
	popq	%rbx
	popq	%rbp
	.cfi_def_cfa %rsp, 8
	retq
.LBB43_2:                               # %func_exit
	.cfi_def_cfa %rbp, 16
	callq	detect_breach
	jmp	.LBB43_1
.Lfunc_end43:
	.size	BZ2_bzdopen.3, .Lfunc_end43-BZ2_bzdopen.3
	.cfi_endproc
                                        # -- End function
	.globl	BZ2_bzread.4            # -- Begin function BZ2_bzread.4
	.p2align	4, 0x90
	.type	BZ2_bzread.4,@function
BZ2_bzread.4:                           # @BZ2_bzread.4
	.cfi_startproc
# %bb.0:                                # %entry
	pushq	%rbp
	.cfi_def_cfa_offset 16
	.cfi_offset %rbp, -16
	movq	%rsp, %rbp
	.cfi_def_cfa_register %rbp
	pushq	%rbx
	subq	$40, %rsp
	.cfi_offset %rbx, -24
	movl	$568529710, -24(%rbp)   # imm = 0x21E3132E
	movq	%rdi, -40(%rbp)
	movq	%rsi, -48(%rbp)
	movl	%edx, -20(%rbp)
	movq	-40(%rbp), %rax
	cmpl	$4, 5096(%rax)
	jne	.LBB44_2
# %bb.1:                                # %if.then
	movl	$0, -12(%rbp)
	jmp	.LBB44_6
.LBB44_2:                               # %if.end
	movq	-40(%rbp), %rsi
	movq	-48(%rbp), %rdx
	movl	-20(%rbp), %ecx
	leaq	-16(%rbp), %rdi
	callq	BZ2_bzRead
	movl	%eax, -28(%rbp)
	cmpl	$0, -16(%rbp)
	je	.LBB44_4
# %bb.3:                                # %lor.lhs.false
	cmpl	$4, -16(%rbp)
	jne	.LBB44_5
.LBB44_4:                               # %if.then3
	movl	-28(%rbp), %eax
	movl	%eax, -12(%rbp)
	jmp	.LBB44_6
.LBB44_5:                               # %if.else
	movl	$-1, -12(%rbp)
.LBB44_6:                               # %return
	movl	-12(%rbp), %ebx
	cmpl	$568529710, -24(%rbp)   # imm = 0x21E3132E
	jne	.LBB44_8
.LBB44_7:
	movl	%ebx, %eax
	addq	$40, %rsp
	popq	%rbx
	popq	%rbp
	.cfi_def_cfa %rsp, 8
	retq
.LBB44_8:                               # %func_exit
	.cfi_def_cfa %rbp, 16
	callq	detect_breach
	jmp	.LBB44_7
.Lfunc_end44:
	.size	BZ2_bzread.4, .Lfunc_end44-BZ2_bzread.4
	.cfi_endproc
                                        # -- End function
	.globl	BZ2_bzCompressEnd.5     # -- Begin function BZ2_bzCompressEnd.5
	.p2align	4, 0x90
	.type	BZ2_bzCompressEnd.5,@function
BZ2_bzCompressEnd.5:                    # @BZ2_bzCompressEnd.5
	.cfi_startproc
# %bb.0:                                # %entry
	pushq	%rbp
	.cfi_def_cfa_offset 16
	.cfi_offset %rbp, -16
	movq	%rsp, %rbp
	.cfi_def_cfa_register %rbp
	pushq	%rbx
	subq	$40, %rsp
	.cfi_offset %rbx, -24
	movl	$1375492312, -36(%rbp)  # imm = 0x51FC58D8
	movq	%rdi, -16(%rbp)
	cmpq	$0, -16(%rbp)
	jne	.LBB45_2
# %bb.1:                                # %if.then
	movl	$-2, -20(%rbp)
	jmp	.LBB45_13
.LBB45_2:                               # %if.end
	movq	-16(%rbp), %rax
	movq	48(%rax), %rax
	movq	%rax, -32(%rbp)
	cmpq	$0, -32(%rbp)
	jne	.LBB45_4
# %bb.3:                                # %if.then2
	movl	$-2, -20(%rbp)
	jmp	.LBB45_13
.LBB45_4:                               # %if.end3
	movq	-32(%rbp), %rax
	movq	(%rax), %rax
	cmpq	-16(%rbp), %rax
	je	.LBB45_6
# %bb.5:                                # %if.then6
	movl	$-2, -20(%rbp)
	jmp	.LBB45_13
.LBB45_6:                               # %if.end7
	movq	-32(%rbp), %rax
	cmpq	$0, 24(%rax)
	je	.LBB45_8
# %bb.7:                                # %if.then9
	movq	-16(%rbp), %rax
	movq	64(%rax), %rax
	movq	-16(%rbp), %rcx
	movq	72(%rcx), %rdi
	movq	-32(%rbp), %rcx
	movq	24(%rcx), %rsi
	callq	*%rax
.LBB45_8:                               # %if.end11
	movq	-32(%rbp), %rax
	cmpq	$0, 32(%rax)
	je	.LBB45_10
# %bb.9:                                # %if.then13
	movq	-16(%rbp), %rax
	movq	64(%rax), %rax
	movq	-16(%rbp), %rcx
	movq	72(%rcx), %rdi
	movq	-32(%rbp), %rcx
	movq	32(%rcx), %rsi
	callq	*%rax
.LBB45_10:                              # %if.end17
	movq	-32(%rbp), %rax
	cmpq	$0, 40(%rax)
	je	.LBB45_12
# %bb.11:                               # %if.then19
	movq	-16(%rbp), %rax
	movq	64(%rax), %rax
	movq	-16(%rbp), %rcx
	movq	72(%rcx), %rdi
	movq	-32(%rbp), %rcx
	movq	40(%rcx), %rsi
	callq	*%rax
.LBB45_12:                              # %if.end23
	movq	-16(%rbp), %rax
	movq	64(%rax), %rax
	movq	-16(%rbp), %rcx
	movq	72(%rcx), %rdi
	movq	-16(%rbp), %rcx
	movq	48(%rcx), %rsi
	callq	*%rax
	movq	-16(%rbp), %rax
	movq	$0, 48(%rax)
	movl	$0, -20(%rbp)
.LBB45_13:                              # %return
	movl	-20(%rbp), %ebx
	cmpl	$1375492312, -36(%rbp)  # imm = 0x51FC58D8
	jne	.LBB45_15
.LBB45_14:
	movl	%ebx, %eax
	addq	$40, %rsp
	popq	%rbx
	popq	%rbp
	.cfi_def_cfa %rsp, 8
	retq
.LBB45_15:                              # %func_exit
	.cfi_def_cfa %rbp, 16
	callq	detect_breach
	jmp	.LBB45_14
.Lfunc_end45:
	.size	BZ2_bzCompressEnd.5, .Lfunc_end45-BZ2_bzCompressEnd.5
	.cfi_endproc
                                        # -- End function
	.p2align	4, 0x90         # -- Begin function unRLE_obuf_to_output_SMALL.6
	.type	unRLE_obuf_to_output_SMALL.6,@function
unRLE_obuf_to_output_SMALL.6:           # @unRLE_obuf_to_output_SMALL.6
	.cfi_startproc
# %bb.0:                                # %entry
	pushq	%rbp
	.cfi_def_cfa_offset 16
	.cfi_offset %rbp, -16
	movq	%rsp, %rbp
	.cfi_def_cfa_register %rbp
	pushq	%rbx
	subq	$24, %rsp
	.cfi_offset %rbx, -24
	movl	$1004585180, -32(%rbp)  # imm = 0x3BE0C0DC
	movq	%rdi, -24(%rbp)
	movq	-24(%rbp), %rax
	cmpb	$0, 20(%rax)
	je	.LBB46_48
# %bb.1:                                # %if.then
	jmp	.LBB46_2
.LBB46_2:                               # %while.body
                                        # =>This Loop Header: Depth=1
                                        #     Child Loop BB46_3 Depth 2
	jmp	.LBB46_3
.LBB46_3:                               # %while.body2
                                        #   Parent Loop BB46_2 Depth=1
                                        # =>  This Inner Loop Header: Depth=2
	movq	-24(%rbp), %rax
	movq	(%rax), %rax
	cmpl	$0, 32(%rax)
	jne	.LBB46_5
# %bb.4:                                # %if.then3
	movb	$0, -25(%rbp)
	jmp	.LBB46_75
.LBB46_5:                               # %if.end
                                        #   in Loop: Header=BB46_3 Depth=2
	movq	-24(%rbp), %rax
	cmpl	$0, 16(%rax)
	jne	.LBB46_7
# %bb.6:                                # %if.then5
                                        #   in Loop: Header=BB46_2 Depth=1
	jmp	.LBB46_10
.LBB46_7:                               # %if.end6
                                        #   in Loop: Header=BB46_3 Depth=2
	movq	-24(%rbp), %rax
	movb	12(%rax), %al
	movq	-24(%rbp), %rcx
	movq	(%rcx), %rcx
	movq	24(%rcx), %rcx
	movb	%al, (%rcx)
	movq	-24(%rbp), %rax
	movl	3184(%rax), %eax
	shll	$8, %eax
	movq	-24(%rbp), %rcx
	movl	3184(%rcx), %ecx
	shrl	$24, %ecx
	movq	-24(%rbp), %rdx
	movzbl	12(%rdx), %edx
	xorl	%edx, %ecx
	movl	%ecx, %ecx
	xorl	BZ2_crc32Table(,%rcx,4), %eax
	movq	-24(%rbp), %rcx
	movl	%eax, 3184(%rcx)
	movq	-24(%rbp), %rax
	movl	16(%rax), %ecx
	addl	$-1, %ecx
	movl	%ecx, 16(%rax)
	movq	-24(%rbp), %rax
	movq	(%rax), %rax
	movq	24(%rax), %rcx
	addq	$1, %rcx
	movq	%rcx, 24(%rax)
	movq	-24(%rbp), %rax
	movq	(%rax), %rax
	movl	32(%rax), %ecx
	addl	$-1, %ecx
	movl	%ecx, 32(%rax)
	movq	-24(%rbp), %rax
	movq	(%rax), %rax
	movl	36(%rax), %ecx
	addl	$1, %ecx
	movl	%ecx, 36(%rax)
	movq	-24(%rbp), %rax
	movq	(%rax), %rax
	cmpl	$0, 36(%rax)
	jne	.LBB46_9
# %bb.8:                                # %if.then23
                                        #   in Loop: Header=BB46_3 Depth=2
	movq	-24(%rbp), %rax
	movq	(%rax), %rax
	movl	40(%rax), %ecx
	addl	$1, %ecx
	movl	%ecx, 40(%rax)
.LBB46_9:                               # %if.end26
                                        #   in Loop: Header=BB46_3 Depth=2
	jmp	.LBB46_3
.LBB46_10:                              # %while.end
                                        #   in Loop: Header=BB46_2 Depth=1
	movq	-24(%rbp), %rax
	movl	1092(%rax), %eax
	movq	-24(%rbp), %rcx
	movl	64080(%rcx), %ecx
	addl	$1, %ecx
	cmpl	%ecx, %eax
	jne	.LBB46_12
# %bb.11:                               # %if.then29
	movb	$0, -25(%rbp)
	jmp	.LBB46_75
.LBB46_12:                              # %if.end30
                                        #   in Loop: Header=BB46_2 Depth=1
	movq	-24(%rbp), %rax
	movl	1092(%rax), %eax
	movq	-24(%rbp), %rcx
	movl	64080(%rcx), %ecx
	addl	$1, %ecx
	cmpl	%ecx, %eax
	jle	.LBB46_14
# %bb.13:                               # %if.then36
	movb	$1, -25(%rbp)
	jmp	.LBB46_75
.LBB46_14:                              # %if.end37
                                        #   in Loop: Header=BB46_2 Depth=1
	movq	-24(%rbp), %rax
	movl	$1, 16(%rax)
	movq	-24(%rbp), %rax
	movl	64(%rax), %eax
	movq	-24(%rbp), %rcx
	movb	%al, 12(%rcx)
	movq	-24(%rbp), %rax
	movl	60(%rax), %edi
	movq	-24(%rbp), %rsi
	addq	$1096, %rsi             # imm = 0x448
	callq	BZ2_indexIntoF
	movb	%al, -9(%rbp)
	movq	-24(%rbp), %rax
	movq	3160(%rax), %rax
	movq	-24(%rbp), %rcx
	movl	60(%rcx), %ecx
	movzwl	(%rax,%rcx,2), %eax
	movq	-24(%rbp), %rcx
	movq	3168(%rcx), %rcx
	movq	-24(%rbp), %rdx
	movl	60(%rdx), %edx
	shrl	$1, %edx
	movl	%edx, %edx
	movzbl	(%rcx,%rdx), %edx
	movq	-24(%rbp), %rcx
	movl	60(%rcx), %ecx
	shll	$2, %ecx
	andl	$4, %ecx
                                        # kill: def $cl killed $ecx
	shrl	%cl, %edx
	andl	$15, %edx
	shll	$16, %edx
	orl	%edx, %eax
	movq	-24(%rbp), %rcx
	movl	%eax, 60(%rcx)
	movq	-24(%rbp), %rax
	cmpl	$0, 24(%rax)
	jne	.LBB46_18
# %bb.15:                               # %if.then59
                                        #   in Loop: Header=BB46_2 Depth=1
	movq	-24(%rbp), %rax
	movslq	28(%rax), %rax
	movl	BZ2_rNums(,%rax,4), %eax
	movq	-24(%rbp), %rcx
	movl	%eax, 24(%rcx)
	movq	-24(%rbp), %rax
	movl	28(%rax), %ecx
	addl	$1, %ecx
	movl	%ecx, 28(%rax)
	movq	-24(%rbp), %rax
	cmpl	$512, 28(%rax)          # imm = 0x200
	jne	.LBB46_17
# %bb.16:                               # %if.then68
                                        #   in Loop: Header=BB46_2 Depth=1
	movq	-24(%rbp), %rax
	movl	$0, 28(%rax)
.LBB46_17:                              # %if.end70
                                        #   in Loop: Header=BB46_2 Depth=1
	jmp	.LBB46_18
.LBB46_18:                              # %if.end71
                                        #   in Loop: Header=BB46_2 Depth=1
	xorl	%eax, %eax
	movq	-24(%rbp), %rcx
	movl	24(%rcx), %edx
	addl	$-1, %edx
	movl	%edx, 24(%rcx)
	movq	-24(%rbp), %rcx
	movl	24(%rcx), %ecx
	cmpl	$1, %ecx
	movl	$1, %ecx
	cmovel	%ecx, %eax
	movzbl	-9(%rbp), %ecx
	xorl	%eax, %ecx
	movb	%cl, -9(%rbp)
	movq	-24(%rbp), %rax
	movl	1092(%rax), %ecx
	addl	$1, %ecx
	movl	%ecx, 1092(%rax)
	movq	-24(%rbp), %rax
	movl	1092(%rax), %eax
	movq	-24(%rbp), %rcx
	movl	64080(%rcx), %ecx
	addl	$1, %ecx
	cmpl	%ecx, %eax
	jne	.LBB46_21
# %bb.19:                               # %if.then87
                                        #   in Loop: Header=BB46_2 Depth=1
	jmp	.LBB46_20
.LBB46_20:                              # %while.body.backedge
                                        #   in Loop: Header=BB46_2 Depth=1
	jmp	.LBB46_2
.LBB46_21:                              # %if.end88
                                        #   in Loop: Header=BB46_2 Depth=1
	movzbl	-9(%rbp), %eax
	movq	-24(%rbp), %rcx
	cmpl	64(%rcx), %eax
	je	.LBB46_23
# %bb.22:                               # %if.then93
                                        #   in Loop: Header=BB46_2 Depth=1
	movzbl	-9(%rbp), %eax
	movq	-24(%rbp), %rcx
	movl	%eax, 64(%rcx)
	jmp	.LBB46_20
.LBB46_23:                              # %if.end96
                                        #   in Loop: Header=BB46_2 Depth=1
	movq	-24(%rbp), %rax
	movl	$2, 16(%rax)
	movq	-24(%rbp), %rax
	movl	60(%rax), %edi
	movq	-24(%rbp), %rsi
	addq	$1096, %rsi             # imm = 0x448
	callq	BZ2_indexIntoF
	movb	%al, -9(%rbp)
	movq	-24(%rbp), %rax
	movq	3160(%rax), %rax
	movq	-24(%rbp), %rcx
	movl	60(%rcx), %ecx
	movzwl	(%rax,%rcx,2), %eax
	movq	-24(%rbp), %rcx
	movq	3168(%rcx), %rcx
	movq	-24(%rbp), %rdx
	movl	60(%rdx), %edx
	shrl	$1, %edx
	movl	%edx, %edx
	movzbl	(%rcx,%rdx), %edx
	movq	-24(%rbp), %rcx
	movl	60(%rcx), %ecx
	shll	$2, %ecx
	andl	$4, %ecx
                                        # kill: def $cl killed $ecx
	shrl	%cl, %edx
	andl	$15, %edx
	shll	$16, %edx
	orl	%edx, %eax
	movq	-24(%rbp), %rcx
	movl	%eax, 60(%rcx)
	movq	-24(%rbp), %rax
	cmpl	$0, 24(%rax)
	jne	.LBB46_27
# %bb.24:                               # %if.then125
                                        #   in Loop: Header=BB46_2 Depth=1
	movq	-24(%rbp), %rax
	movslq	28(%rax), %rax
	movl	BZ2_rNums(,%rax,4), %eax
	movq	-24(%rbp), %rcx
	movl	%eax, 24(%rcx)
	movq	-24(%rbp), %rax
	movl	28(%rax), %ecx
	addl	$1, %ecx
	movl	%ecx, 28(%rax)
	movq	-24(%rbp), %rax
	cmpl	$512, 28(%rax)          # imm = 0x200
	jne	.LBB46_26
# %bb.25:                               # %if.then135
                                        #   in Loop: Header=BB46_2 Depth=1
	movq	-24(%rbp), %rax
	movl	$0, 28(%rax)
.LBB46_26:                              # %if.end137
                                        #   in Loop: Header=BB46_2 Depth=1
	jmp	.LBB46_27
.LBB46_27:                              # %if.end138
                                        #   in Loop: Header=BB46_2 Depth=1
	xorl	%eax, %eax
	movq	-24(%rbp), %rcx
	movl	24(%rcx), %edx
	addl	$-1, %edx
	movl	%edx, 24(%rcx)
	movq	-24(%rbp), %rcx
	movl	24(%rcx), %ecx
	cmpl	$1, %ecx
	movl	$1, %ecx
	cmovel	%ecx, %eax
	movzbl	-9(%rbp), %ecx
	xorl	%eax, %ecx
	movb	%cl, -9(%rbp)
	movq	-24(%rbp), %rax
	movl	1092(%rax), %ecx
	addl	$1, %ecx
	movl	%ecx, 1092(%rax)
	movq	-24(%rbp), %rax
	movl	1092(%rax), %eax
	movq	-24(%rbp), %rcx
	movl	64080(%rcx), %ecx
	addl	$1, %ecx
	cmpl	%ecx, %eax
	jne	.LBB46_29
# %bb.28:                               # %if.then155
                                        #   in Loop: Header=BB46_2 Depth=1
	jmp	.LBB46_20
.LBB46_29:                              # %if.end156
                                        #   in Loop: Header=BB46_2 Depth=1
	movzbl	-9(%rbp), %eax
	movq	-24(%rbp), %rcx
	cmpl	64(%rcx), %eax
	je	.LBB46_31
# %bb.30:                               # %if.then161
                                        #   in Loop: Header=BB46_2 Depth=1
	movzbl	-9(%rbp), %eax
	movq	-24(%rbp), %rcx
	movl	%eax, 64(%rcx)
	jmp	.LBB46_20
.LBB46_31:                              # %if.end164
                                        #   in Loop: Header=BB46_2 Depth=1
	movq	-24(%rbp), %rax
	movl	$3, 16(%rax)
	movq	-24(%rbp), %rax
	movl	60(%rax), %edi
	movq	-24(%rbp), %rsi
	addq	$1096, %rsi             # imm = 0x448
	callq	BZ2_indexIntoF
	movb	%al, -9(%rbp)
	movq	-24(%rbp), %rax
	movq	3160(%rax), %rax
	movq	-24(%rbp), %rcx
	movl	60(%rcx), %ecx
	movzwl	(%rax,%rcx,2), %eax
	movq	-24(%rbp), %rcx
	movq	3168(%rcx), %rcx
	movq	-24(%rbp), %rdx
	movl	60(%rdx), %edx
	shrl	$1, %edx
	movl	%edx, %edx
	movzbl	(%rcx,%rdx), %edx
	movq	-24(%rbp), %rcx
	movl	60(%rcx), %ecx
	shll	$2, %ecx
	andl	$4, %ecx
                                        # kill: def $cl killed $ecx
	shrl	%cl, %edx
	andl	$15, %edx
	shll	$16, %edx
	orl	%edx, %eax
	movq	-24(%rbp), %rcx
	movl	%eax, 60(%rcx)
	movq	-24(%rbp), %rax
	cmpl	$0, 24(%rax)
	jne	.LBB46_35
# %bb.32:                               # %if.then193
                                        #   in Loop: Header=BB46_2 Depth=1
	movq	-24(%rbp), %rax
	movslq	28(%rax), %rax
	movl	BZ2_rNums(,%rax,4), %eax
	movq	-24(%rbp), %rcx
	movl	%eax, 24(%rcx)
	movq	-24(%rbp), %rax
	movl	28(%rax), %ecx
	addl	$1, %ecx
	movl	%ecx, 28(%rax)
	movq	-24(%rbp), %rax
	cmpl	$512, 28(%rax)          # imm = 0x200
	jne	.LBB46_34
# %bb.33:                               # %if.then203
                                        #   in Loop: Header=BB46_2 Depth=1
	movq	-24(%rbp), %rax
	movl	$0, 28(%rax)
.LBB46_34:                              # %if.end205
                                        #   in Loop: Header=BB46_2 Depth=1
	jmp	.LBB46_35
.LBB46_35:                              # %if.end206
                                        #   in Loop: Header=BB46_2 Depth=1
	xorl	%eax, %eax
	movq	-24(%rbp), %rcx
	movl	24(%rcx), %edx
	addl	$-1, %edx
	movl	%edx, 24(%rcx)
	movq	-24(%rbp), %rcx
	movl	24(%rcx), %ecx
	cmpl	$1, %ecx
	movl	$1, %ecx
	cmovel	%ecx, %eax
	movzbl	-9(%rbp), %ecx
	xorl	%eax, %ecx
	movb	%cl, -9(%rbp)
	movq	-24(%rbp), %rax
	movl	1092(%rax), %ecx
	addl	$1, %ecx
	movl	%ecx, 1092(%rax)
	movq	-24(%rbp), %rax
	movl	1092(%rax), %eax
	movq	-24(%rbp), %rcx
	movl	64080(%rcx), %ecx
	addl	$1, %ecx
	cmpl	%ecx, %eax
	jne	.LBB46_37
# %bb.36:                               # %if.then223
                                        #   in Loop: Header=BB46_2 Depth=1
	jmp	.LBB46_20
.LBB46_37:                              # %if.end224
                                        #   in Loop: Header=BB46_2 Depth=1
	movzbl	-9(%rbp), %eax
	movq	-24(%rbp), %rcx
	cmpl	64(%rcx), %eax
	je	.LBB46_39
# %bb.38:                               # %if.then229
                                        #   in Loop: Header=BB46_2 Depth=1
	movzbl	-9(%rbp), %eax
	movq	-24(%rbp), %rcx
	movl	%eax, 64(%rcx)
	jmp	.LBB46_20
.LBB46_39:                              # %if.end232
                                        #   in Loop: Header=BB46_2 Depth=1
	movq	-24(%rbp), %rax
	movl	60(%rax), %edi
	movq	-24(%rbp), %rsi
	addq	$1096, %rsi             # imm = 0x448
	callq	BZ2_indexIntoF
	movb	%al, -9(%rbp)
	movq	-24(%rbp), %rax
	movq	3160(%rax), %rax
	movq	-24(%rbp), %rcx
	movl	60(%rcx), %ecx
	movzwl	(%rax,%rcx,2), %eax
	movq	-24(%rbp), %rcx
	movq	3168(%rcx), %rcx
	movq	-24(%rbp), %rdx
	movl	60(%rdx), %edx
	shrl	$1, %edx
	movl	%edx, %edx
	movzbl	(%rcx,%rdx), %edx
	movq	-24(%rbp), %rcx
	movl	60(%rcx), %ecx
	shll	$2, %ecx
	andl	$4, %ecx
                                        # kill: def $cl killed $ecx
	shrl	%cl, %edx
	andl	$15, %edx
	shll	$16, %edx
	orl	%edx, %eax
	movq	-24(%rbp), %rcx
	movl	%eax, 60(%rcx)
	movq	-24(%rbp), %rax
	cmpl	$0, 24(%rax)
	jne	.LBB46_43
# %bb.40:                               # %if.then260
                                        #   in Loop: Header=BB46_2 Depth=1
	movq	-24(%rbp), %rax
	movslq	28(%rax), %rax
	movl	BZ2_rNums(,%rax,4), %eax
	movq	-24(%rbp), %rcx
	movl	%eax, 24(%rcx)
	movq	-24(%rbp), %rax
	movl	28(%rax), %ecx
	addl	$1, %ecx
	movl	%ecx, 28(%rax)
	movq	-24(%rbp), %rax
	cmpl	$512, 28(%rax)          # imm = 0x200
	jne	.LBB46_42
# %bb.41:                               # %if.then270
                                        #   in Loop: Header=BB46_2 Depth=1
	movq	-24(%rbp), %rax
	movl	$0, 28(%rax)
.LBB46_42:                              # %if.end272
                                        #   in Loop: Header=BB46_2 Depth=1
	jmp	.LBB46_43
.LBB46_43:                              # %if.end273
                                        #   in Loop: Header=BB46_2 Depth=1
	xorl	%eax, %eax
	movq	-24(%rbp), %rcx
	movl	24(%rcx), %edx
	addl	$-1, %edx
	movl	%edx, 24(%rcx)
	movq	-24(%rbp), %rcx
	movl	24(%rcx), %ecx
	cmpl	$1, %ecx
	movl	$1, %ecx
	cmovel	%ecx, %eax
	movzbl	-9(%rbp), %ecx
	xorl	%eax, %ecx
	movb	%cl, -9(%rbp)
	movq	-24(%rbp), %rax
	movl	1092(%rax), %ecx
	addl	$1, %ecx
	movl	%ecx, 1092(%rax)
	movzbl	-9(%rbp), %eax
	addl	$4, %eax
	movq	-24(%rbp), %rcx
	movl	%eax, 16(%rcx)
	movq	-24(%rbp), %rax
	movl	60(%rax), %edi
	movq	-24(%rbp), %rsi
	addq	$1096, %rsi             # imm = 0x448
	callq	BZ2_indexIntoF
	movq	-24(%rbp), %rcx
	movl	%eax, 64(%rcx)
	movq	-24(%rbp), %rax
	movq	3160(%rax), %rax
	movq	-24(%rbp), %rcx
	movl	60(%rcx), %ecx
	movzwl	(%rax,%rcx,2), %eax
	movq	-24(%rbp), %rcx
	movq	3168(%rcx), %rcx
	movq	-24(%rbp), %rdx
	movl	60(%rdx), %edx
	shrl	$1, %edx
	movl	%edx, %edx
	movzbl	(%rcx,%rdx), %edx
	movq	-24(%rbp), %rcx
	movl	60(%rcx), %ecx
	shll	$2, %ecx
	andl	$4, %ecx
                                        # kill: def $cl killed $ecx
	shrl	%cl, %edx
	andl	$15, %edx
	shll	$16, %edx
	orl	%edx, %eax
	movq	-24(%rbp), %rcx
	movl	%eax, 60(%rcx)
	movq	-24(%rbp), %rax
	cmpl	$0, 24(%rax)
	jne	.LBB46_47
# %bb.44:                               # %if.then315
                                        #   in Loop: Header=BB46_2 Depth=1
	movq	-24(%rbp), %rax
	movslq	28(%rax), %rax
	movl	BZ2_rNums(,%rax,4), %eax
	movq	-24(%rbp), %rcx
	movl	%eax, 24(%rcx)
	movq	-24(%rbp), %rax
	movl	28(%rax), %ecx
	addl	$1, %ecx
	movl	%ecx, 28(%rax)
	movq	-24(%rbp), %rax
	cmpl	$512, 28(%rax)          # imm = 0x200
	jne	.LBB46_46
# %bb.45:                               # %if.then325
                                        #   in Loop: Header=BB46_2 Depth=1
	movq	-24(%rbp), %rax
	movl	$0, 28(%rax)
.LBB46_46:                              # %if.end327
                                        #   in Loop: Header=BB46_2 Depth=1
	jmp	.LBB46_47
.LBB46_47:                              # %if.end328
                                        #   in Loop: Header=BB46_2 Depth=1
	xorl	%eax, %eax
	movq	-24(%rbp), %rcx
	movl	24(%rcx), %edx
	addl	$-1, %edx
	movl	%edx, 24(%rcx)
	movq	-24(%rbp), %rcx
	movl	24(%rcx), %ecx
	cmpl	$1, %ecx
	movl	$1, %ecx
	cmovel	%ecx, %eax
	movq	-24(%rbp), %rcx
	xorl	64(%rcx), %eax
	movl	%eax, 64(%rcx)
	movq	-24(%rbp), %rax
	movl	1092(%rax), %ecx
	addl	$1, %ecx
	movl	%ecx, 1092(%rax)
	jmp	.LBB46_20
.LBB46_48:                              # %if.else
	jmp	.LBB46_49
.LBB46_49:                              # %while.body339
                                        # =>This Loop Header: Depth=1
                                        #     Child Loop BB46_50 Depth 2
	jmp	.LBB46_50
.LBB46_50:                              # %while.body341
                                        #   Parent Loop BB46_49 Depth=1
                                        # =>  This Inner Loop Header: Depth=2
	movq	-24(%rbp), %rax
	movq	(%rax), %rax
	cmpl	$0, 32(%rax)
	jne	.LBB46_52
# %bb.51:                               # %if.then346
	movb	$0, -25(%rbp)
	jmp	.LBB46_75
.LBB46_52:                              # %if.end347
                                        #   in Loop: Header=BB46_50 Depth=2
	movq	-24(%rbp), %rax
	cmpl	$0, 16(%rax)
	jne	.LBB46_54
# %bb.53:                               # %if.then351
                                        #   in Loop: Header=BB46_49 Depth=1
	jmp	.LBB46_57
.LBB46_54:                              # %if.end352
                                        #   in Loop: Header=BB46_50 Depth=2
	movq	-24(%rbp), %rax
	movb	12(%rax), %al
	movq	-24(%rbp), %rcx
	movq	(%rcx), %rcx
	movq	24(%rcx), %rcx
	movb	%al, (%rcx)
	movq	-24(%rbp), %rax
	movl	3184(%rax), %eax
	shll	$8, %eax
	movq	-24(%rbp), %rcx
	movl	3184(%rcx), %ecx
	shrl	$24, %ecx
	movq	-24(%rbp), %rdx
	movzbl	12(%rdx), %edx
	xorl	%edx, %ecx
	movl	%ecx, %ecx
	xorl	BZ2_crc32Table(,%rcx,4), %eax
	movq	-24(%rbp), %rcx
	movl	%eax, 3184(%rcx)
	movq	-24(%rbp), %rax
	movl	16(%rax), %ecx
	addl	$-1, %ecx
	movl	%ecx, 16(%rax)
	movq	-24(%rbp), %rax
	movq	(%rax), %rax
	movq	24(%rax), %rcx
	addq	$1, %rcx
	movq	%rcx, 24(%rax)
	movq	-24(%rbp), %rax
	movq	(%rax), %rax
	movl	32(%rax), %ecx
	addl	$-1, %ecx
	movl	%ecx, 32(%rax)
	movq	-24(%rbp), %rax
	movq	(%rax), %rax
	movl	36(%rax), %ecx
	addl	$1, %ecx
	movl	%ecx, 36(%rax)
	movq	-24(%rbp), %rax
	movq	(%rax), %rax
	cmpl	$0, 36(%rax)
	jne	.LBB46_56
# %bb.55:                               # %if.then382
                                        #   in Loop: Header=BB46_50 Depth=2
	movq	-24(%rbp), %rax
	movq	(%rax), %rax
	movl	40(%rax), %ecx
	addl	$1, %ecx
	movl	%ecx, 40(%rax)
.LBB46_56:                              # %if.end386
                                        #   in Loop: Header=BB46_50 Depth=2
	jmp	.LBB46_50
.LBB46_57:                              # %while.end387
                                        #   in Loop: Header=BB46_49 Depth=1
	movq	-24(%rbp), %rax
	movl	1092(%rax), %eax
	movq	-24(%rbp), %rcx
	movl	64080(%rcx), %ecx
	addl	$1, %ecx
	cmpl	%ecx, %eax
	jne	.LBB46_59
# %bb.58:                               # %if.then393
	movb	$0, -25(%rbp)
	jmp	.LBB46_75
.LBB46_59:                              # %if.end394
                                        #   in Loop: Header=BB46_49 Depth=1
	movq	-24(%rbp), %rax
	movl	1092(%rax), %eax
	movq	-24(%rbp), %rcx
	movl	64080(%rcx), %ecx
	addl	$1, %ecx
	cmpl	%ecx, %eax
	jle	.LBB46_61
# %bb.60:                               # %if.then400
	movb	$1, -25(%rbp)
	jmp	.LBB46_75
.LBB46_61:                              # %if.end401
                                        #   in Loop: Header=BB46_49 Depth=1
	movq	-24(%rbp), %rax
	movl	$1, 16(%rax)
	movq	-24(%rbp), %rax
	movl	64(%rax), %eax
	movq	-24(%rbp), %rcx
	movb	%al, 12(%rcx)
	movq	-24(%rbp), %rax
	movl	60(%rax), %edi
	movq	-24(%rbp), %rsi
	addq	$1096, %rsi             # imm = 0x448
	callq	BZ2_indexIntoF
	movb	%al, -9(%rbp)
	movq	-24(%rbp), %rax
	movq	3160(%rax), %rax
	movq	-24(%rbp), %rcx
	movl	60(%rcx), %ecx
	movzwl	(%rax,%rcx,2), %eax
	movq	-24(%rbp), %rcx
	movq	3168(%rcx), %rcx
	movq	-24(%rbp), %rdx
	movl	60(%rdx), %edx
	shrl	$1, %edx
	movl	%edx, %edx
	movzbl	(%rcx,%rdx), %edx
	movq	-24(%rbp), %rcx
	movl	60(%rcx), %ecx
	shll	$2, %ecx
	andl	$4, %ecx
                                        # kill: def $cl killed $ecx
	shrl	%cl, %edx
	andl	$15, %edx
	shll	$16, %edx
	orl	%edx, %eax
	movq	-24(%rbp), %rcx
	movl	%eax, 60(%rcx)
	movq	-24(%rbp), %rax
	movl	1092(%rax), %ecx
	addl	$1, %ecx
	movl	%ecx, 1092(%rax)
	movq	-24(%rbp), %rax
	movl	1092(%rax), %eax
	movq	-24(%rbp), %rcx
	movl	64080(%rcx), %ecx
	addl	$1, %ecx
	cmpl	%ecx, %eax
	jne	.LBB46_64
# %bb.62:                               # %if.then437
                                        #   in Loop: Header=BB46_49 Depth=1
	jmp	.LBB46_63
.LBB46_63:                              # %while.body339.backedge
                                        #   in Loop: Header=BB46_49 Depth=1
	jmp	.LBB46_49
.LBB46_64:                              # %if.end438
                                        #   in Loop: Header=BB46_49 Depth=1
	movzbl	-9(%rbp), %eax
	movq	-24(%rbp), %rcx
	cmpl	64(%rcx), %eax
	je	.LBB46_66
# %bb.65:                               # %if.then443
                                        #   in Loop: Header=BB46_49 Depth=1
	movzbl	-9(%rbp), %eax
	movq	-24(%rbp), %rcx
	movl	%eax, 64(%rcx)
	jmp	.LBB46_63
.LBB46_66:                              # %if.end446
                                        #   in Loop: Header=BB46_49 Depth=1
	movq	-24(%rbp), %rax
	movl	$2, 16(%rax)
	movq	-24(%rbp), %rax
	movl	60(%rax), %edi
	movq	-24(%rbp), %rsi
	addq	$1096, %rsi             # imm = 0x448
	callq	BZ2_indexIntoF
	movb	%al, -9(%rbp)
	movq	-24(%rbp), %rax
	movq	3160(%rax), %rax
	movq	-24(%rbp), %rcx
	movl	60(%rcx), %ecx
	movzwl	(%rax,%rcx,2), %eax
	movq	-24(%rbp), %rcx
	movq	3168(%rcx), %rcx
	movq	-24(%rbp), %rdx
	movl	60(%rdx), %edx
	shrl	$1, %edx
	movl	%edx, %edx
	movzbl	(%rcx,%rdx), %edx
	movq	-24(%rbp), %rcx
	movl	60(%rcx), %ecx
	shll	$2, %ecx
	andl	$4, %ecx
                                        # kill: def $cl killed $ecx
	shrl	%cl, %edx
	andl	$15, %edx
	shll	$16, %edx
	orl	%edx, %eax
	movq	-24(%rbp), %rcx
	movl	%eax, 60(%rcx)
	movq	-24(%rbp), %rax
	movl	1092(%rax), %ecx
	addl	$1, %ecx
	movl	%ecx, 1092(%rax)
	movq	-24(%rbp), %rax
	movl	1092(%rax), %eax
	movq	-24(%rbp), %rcx
	movl	64080(%rcx), %ecx
	addl	$1, %ecx
	cmpl	%ecx, %eax
	jne	.LBB46_68
# %bb.67:                               # %if.then479
                                        #   in Loop: Header=BB46_49 Depth=1
	jmp	.LBB46_63
.LBB46_68:                              # %if.end480
                                        #   in Loop: Header=BB46_49 Depth=1
	movzbl	-9(%rbp), %eax
	movq	-24(%rbp), %rcx
	cmpl	64(%rcx), %eax
	je	.LBB46_70
# %bb.69:                               # %if.then485
                                        #   in Loop: Header=BB46_49 Depth=1
	movzbl	-9(%rbp), %eax
	movq	-24(%rbp), %rcx
	movl	%eax, 64(%rcx)
	jmp	.LBB46_63
.LBB46_70:                              # %if.end488
                                        #   in Loop: Header=BB46_49 Depth=1
	movq	-24(%rbp), %rax
	movl	$3, 16(%rax)
	movq	-24(%rbp), %rax
	movl	60(%rax), %edi
	movq	-24(%rbp), %rsi
	addq	$1096, %rsi             # imm = 0x448
	callq	BZ2_indexIntoF
	movb	%al, -9(%rbp)
	movq	-24(%rbp), %rax
	movq	3160(%rax), %rax
	movq	-24(%rbp), %rcx
	movl	60(%rcx), %ecx
	movzwl	(%rax,%rcx,2), %eax
	movq	-24(%rbp), %rcx
	movq	3168(%rcx), %rcx
	movq	-24(%rbp), %rdx
	movl	60(%rdx), %edx
	shrl	$1, %edx
	movl	%edx, %edx
	movzbl	(%rcx,%rdx), %edx
	movq	-24(%rbp), %rcx
	movl	60(%rcx), %ecx
	shll	$2, %ecx
	andl	$4, %ecx
                                        # kill: def $cl killed $ecx
	shrl	%cl, %edx
	andl	$15, %edx
	shll	$16, %edx
	orl	%edx, %eax
	movq	-24(%rbp), %rcx
	movl	%eax, 60(%rcx)
	movq	-24(%rbp), %rax
	movl	1092(%rax), %ecx
	addl	$1, %ecx
	movl	%ecx, 1092(%rax)
	movq	-24(%rbp), %rax
	movl	1092(%rax), %eax
	movq	-24(%rbp), %rcx
	movl	64080(%rcx), %ecx
	addl	$1, %ecx
	cmpl	%ecx, %eax
	jne	.LBB46_72
# %bb.71:                               # %if.then521
                                        #   in Loop: Header=BB46_49 Depth=1
	jmp	.LBB46_63
.LBB46_72:                              # %if.end522
                                        #   in Loop: Header=BB46_49 Depth=1
	movzbl	-9(%rbp), %eax
	movq	-24(%rbp), %rcx
	cmpl	64(%rcx), %eax
	je	.LBB46_74
# %bb.73:                               # %if.then527
                                        #   in Loop: Header=BB46_49 Depth=1
	movzbl	-9(%rbp), %eax
	movq	-24(%rbp), %rcx
	movl	%eax, 64(%rcx)
	jmp	.LBB46_63
.LBB46_74:                              # %if.end530
                                        #   in Loop: Header=BB46_49 Depth=1
	movq	-24(%rbp), %rax
	movl	60(%rax), %edi
	movq	-24(%rbp), %rsi
	addq	$1096, %rsi             # imm = 0x448
	callq	BZ2_indexIntoF
	movb	%al, -9(%rbp)
	movq	-24(%rbp), %rax
	movq	3160(%rax), %rax
	movq	-24(%rbp), %rcx
	movl	60(%rcx), %ecx
	movzwl	(%rax,%rcx,2), %eax
	movq	-24(%rbp), %rcx
	movq	3168(%rcx), %rcx
	movq	-24(%rbp), %rdx
	movl	60(%rdx), %edx
	shrl	$1, %edx
	movl	%edx, %edx
	movzbl	(%rcx,%rdx), %edx
	movq	-24(%rbp), %rcx
	movl	60(%rcx), %ecx
	shll	$2, %ecx
	andl	$4, %ecx
                                        # kill: def $cl killed $ecx
	shrl	%cl, %edx
	andl	$15, %edx
	shll	$16, %edx
	orl	%edx, %eax
	movq	-24(%rbp), %rcx
	movl	%eax, 60(%rcx)
	movq	-24(%rbp), %rax
	movl	1092(%rax), %ecx
	addl	$1, %ecx
	movl	%ecx, 1092(%rax)
	movzbl	-9(%rbp), %eax
	addl	$4, %eax
	movq	-24(%rbp), %rcx
	movl	%eax, 16(%rcx)
	movq	-24(%rbp), %rax
	movl	60(%rax), %edi
	movq	-24(%rbp), %rsi
	addq	$1096, %rsi             # imm = 0x448
	callq	BZ2_indexIntoF
	movq	-24(%rbp), %rcx
	movl	%eax, 64(%rcx)
	movq	-24(%rbp), %rax
	movq	3160(%rax), %rax
	movq	-24(%rbp), %rcx
	movl	60(%rcx), %ecx
	movzwl	(%rax,%rcx,2), %eax
	movq	-24(%rbp), %rcx
	movq	3168(%rcx), %rcx
	movq	-24(%rbp), %rdx
	movl	60(%rdx), %edx
	shrl	$1, %edx
	movl	%edx, %edx
	movzbl	(%rcx,%rdx), %edx
	movq	-24(%rbp), %rcx
	movl	60(%rcx), %ecx
	shll	$2, %ecx
	andl	$4, %ecx
                                        # kill: def $cl killed $ecx
	shrl	%cl, %edx
	andl	$15, %edx
	shll	$16, %edx
	orl	%edx, %eax
	movq	-24(%rbp), %rcx
	movl	%eax, 60(%rcx)
	movq	-24(%rbp), %rax
	movl	1092(%rax), %ecx
	addl	$1, %ecx
	movl	%ecx, 1092(%rax)
	jmp	.LBB46_63
.LBB46_75:                              # %return
	movb	-25(%rbp), %bl
	cmpl	$1004585180, -32(%rbp)  # imm = 0x3BE0C0DC
	jne	.LBB46_77
.LBB46_76:
	movzbl	%bl, %eax
	addq	$24, %rsp
	popq	%rbx
	popq	%rbp
	.cfi_def_cfa %rsp, 8
	retq
.LBB46_77:                              # %func_exit
	.cfi_def_cfa %rbp, 16
	callq	detect_breach
	jmp	.LBB46_76
.Lfunc_end46:
	.size	unRLE_obuf_to_output_SMALL.6, .Lfunc_end46-unRLE_obuf_to_output_SMALL.6
	.cfi_endproc
                                        # -- End function
	.globl	BZ2_bzWriteOpen.7       # -- Begin function BZ2_bzWriteOpen.7
	.p2align	4, 0x90
	.type	BZ2_bzWriteOpen.7,@function
BZ2_bzWriteOpen.7:                      # @BZ2_bzWriteOpen.7
	.cfi_startproc
# %bb.0:                                # %entry
	pushq	%rbp
	.cfi_def_cfa_offset 16
	.cfi_offset %rbp, -16
	movq	%rsp, %rbp
	.cfi_def_cfa_register %rbp
	pushq	%rbx
	subq	$56, %rsp
	.cfi_offset %rbx, -24
	movl	$1307279333, -60(%rbp)  # imm = 0x4DEB7FE5
	movq	%rdi, -24(%rbp)
	movq	%rsi, -56(%rbp)
	movl	%edx, -32(%rbp)
	movl	%ecx, -36(%rbp)
	movl	%r8d, -28(%rbp)
	movq	$0, -16(%rbp)
	cmpq	$0, -24(%rbp)
	je	.LBB47_2
# %bb.1:                                # %if.then
	movq	-24(%rbp), %rax
	movl	$0, (%rax)
.LBB47_2:                               # %if.end
	cmpq	$0, -16(%rbp)
	je	.LBB47_4
# %bb.3:                                # %if.then2
	movq	-16(%rbp), %rax
	movl	$0, 5096(%rax)
.LBB47_4:                               # %if.end3
	cmpq	$0, -56(%rbp)
	je	.LBB47_11
# %bb.5:                                # %lor.lhs.false
	cmpl	$1, -32(%rbp)
	jl	.LBB47_11
# %bb.6:                                # %lor.lhs.false6
	cmpl	$9, -32(%rbp)
	jg	.LBB47_11
# %bb.7:                                # %lor.lhs.false8
	cmpl	$0, -28(%rbp)
	jl	.LBB47_11
# %bb.8:                                # %lor.lhs.false10
	cmpl	$250, -28(%rbp)
	jg	.LBB47_11
# %bb.9:                                # %lor.lhs.false12
	cmpl	$0, -36(%rbp)
	jl	.LBB47_11
# %bb.10:                               # %lor.lhs.false14
	cmpl	$4, -36(%rbp)
	jle	.LBB47_16
.LBB47_11:                              # %if.then16
	cmpq	$0, -24(%rbp)
	je	.LBB47_13
# %bb.12:                               # %if.then18
	movq	-24(%rbp), %rax
	movl	$-2, (%rax)
.LBB47_13:                              # %if.end19
	cmpq	$0, -16(%rbp)
	je	.LBB47_15
# %bb.14:                               # %if.then21
	movq	-16(%rbp), %rax
	movl	$-2, 5096(%rax)
.LBB47_15:                              # %if.end23
	movq	$0, -48(%rbp)
	jmp	.LBB47_41
.LBB47_16:                              # %if.end24
	movq	-56(%rbp), %rdi
	callq	ferror
	cmpl	$0, %eax
	je	.LBB47_22
# %bb.17:                               # %if.then25
	cmpq	$0, -24(%rbp)
	je	.LBB47_19
# %bb.18:                               # %if.then27
	movq	-24(%rbp), %rax
	movl	$-6, (%rax)
.LBB47_19:                              # %if.end28
	cmpq	$0, -16(%rbp)
	je	.LBB47_21
# %bb.20:                               # %if.then30
	movq	-16(%rbp), %rax
	movl	$-6, 5096(%rax)
.LBB47_21:                              # %if.end32
	movq	$0, -48(%rbp)
	jmp	.LBB47_41
.LBB47_22:                              # %if.end33
	movl	$5104, %edi             # imm = 0x13F0
	callq	malloc
	movq	%rax, -16(%rbp)
	cmpq	$0, -16(%rbp)
	jne	.LBB47_28
# %bb.23:                               # %if.then36
	cmpq	$0, -24(%rbp)
	je	.LBB47_25
# %bb.24:                               # %if.then38
	movq	-24(%rbp), %rax
	movl	$-3, (%rax)
.LBB47_25:                              # %if.end39
	cmpq	$0, -16(%rbp)
	je	.LBB47_27
# %bb.26:                               # %if.then41
	movq	-16(%rbp), %rax
	movl	$-3, 5096(%rax)
.LBB47_27:                              # %if.end43
	movq	$0, -48(%rbp)
	jmp	.LBB47_41
.LBB47_28:                              # %if.end44
	cmpq	$0, -24(%rbp)
	je	.LBB47_30
# %bb.29:                               # %if.then46
	movq	-24(%rbp), %rax
	movl	$0, (%rax)
.LBB47_30:                              # %if.end47
	cmpq	$0, -16(%rbp)
	je	.LBB47_32
# %bb.31:                               # %if.then49
	movq	-16(%rbp), %rax
	movl	$0, 5096(%rax)
.LBB47_32:                              # %if.end51
	movq	-16(%rbp), %rax
	movb	$0, 5100(%rax)
	movq	-16(%rbp), %rax
	movl	$0, 5008(%rax)
	movq	-56(%rbp), %rax
	movq	-16(%rbp), %rcx
	movq	%rax, (%rcx)
	movq	-16(%rbp), %rax
	movb	$1, 5012(%rax)
	movq	-16(%rbp), %rax
	movq	$0, 5072(%rax)
	movq	-16(%rbp), %rax
	movq	$0, 5080(%rax)
	movq	-16(%rbp), %rax
	movq	$0, 5088(%rax)
	cmpl	$0, -28(%rbp)
	jne	.LBB47_34
# %bb.33:                               # %if.then55
	movl	$30, -28(%rbp)
.LBB47_34:                              # %if.end56
	movq	-16(%rbp), %rdi
	addq	$5016, %rdi             # imm = 0x1398
	movl	-32(%rbp), %esi
	movl	-36(%rbp), %edx
	movl	-28(%rbp), %ecx
	callq	BZ2_bzCompressInit
	movl	%eax, -40(%rbp)
	cmpl	$0, -40(%rbp)
	je	.LBB47_40
# %bb.35:                               # %if.then60
	cmpq	$0, -24(%rbp)
	je	.LBB47_37
# %bb.36:                               # %if.then62
	movl	-40(%rbp), %eax
	movq	-24(%rbp), %rcx
	movl	%eax, (%rcx)
.LBB47_37:                              # %if.end63
	cmpq	$0, -16(%rbp)
	je	.LBB47_39
# %bb.38:                               # %if.then65
	movl	-40(%rbp), %eax
	movq	-16(%rbp), %rcx
	movl	%eax, 5096(%rcx)
.LBB47_39:                              # %if.end67
	movq	-16(%rbp), %rdi
	callq	free
	movq	$0, -48(%rbp)
	jmp	.LBB47_41
.LBB47_40:                              # %if.end68
	movq	-16(%rbp), %rax
	movl	$0, 5024(%rax)
	movq	-16(%rbp), %rax
	movb	$1, 5100(%rax)
	movq	-16(%rbp), %rax
	movq	%rax, -48(%rbp)
.LBB47_41:                              # %return
	movq	-48(%rbp), %rbx
	cmpl	$1307279333, -60(%rbp)  # imm = 0x4DEB7FE5
	jne	.LBB47_43
.LBB47_42:
	movq	%rbx, %rax
	addq	$56, %rsp
	popq	%rbx
	popq	%rbp
	.cfi_def_cfa %rsp, 8
	retq
.LBB47_43:                              # %func_exit
	.cfi_def_cfa %rbp, 16
	callq	detect_breach
	jmp	.LBB47_42
.Lfunc_end47:
	.size	BZ2_bzWriteOpen.7, .Lfunc_end47-BZ2_bzWriteOpen.7
	.cfi_endproc
                                        # -- End function
	.globl	BZ2_bzWriteClose.8      # -- Begin function BZ2_bzWriteClose.8
	.p2align	4, 0x90
	.type	BZ2_bzWriteClose.8,@function
BZ2_bzWriteClose.8:                     # @BZ2_bzWriteClose.8
	.cfi_startproc
# %bb.0:                                # %entry
	pushq	%rbp
	.cfi_def_cfa_offset 16
	.cfi_offset %rbp, -16
	movq	%rsp, %rbp
	.cfi_def_cfa_register %rbp
	subq	$48, %rsp
	movl	$1652577636, -8(%rbp)   # imm = 0x62805564
	movq	%rdi, -24(%rbp)
	movq	%rsi, -32(%rbp)
	movl	%edx, -4(%rbp)
	movq	%rcx, -16(%rbp)
	movq	%r8, -40(%rbp)
	movq	-24(%rbp), %rdi
	movq	-32(%rbp), %rsi
	movl	-4(%rbp), %edx
	movq	-16(%rbp), %rcx
	movq	-40(%rbp), %r9
	xorl	%r8d, %r8d
	movq	$0, (%rsp)
	callq	BZ2_bzWriteClose64
	cmpl	$1652577636, -8(%rbp)   # imm = 0x62805564
	jne	.LBB48_2
.LBB48_1:
	addq	$48, %rsp
	popq	%rbp
	.cfi_def_cfa %rsp, 8
	retq
.LBB48_2:                               # %func_exit
	.cfi_def_cfa %rbp, 16
	callq	detect_breach
	jmp	.LBB48_1
.Lfunc_end48:
	.size	BZ2_bzWriteClose.8, .Lfunc_end48-BZ2_bzWriteClose.8
	.cfi_endproc
                                        # -- End function
	.globl	BZ2_bzclose.9           # -- Begin function BZ2_bzclose.9
	.p2align	4, 0x90
	.type	BZ2_bzclose.9,@function
BZ2_bzclose.9:                          # @BZ2_bzclose.9
	.cfi_startproc
# %bb.0:                                # %entry
	pushq	%rbp
	.cfi_def_cfa_offset 16
	.cfi_offset %rbp, -16
	movq	%rsp, %rbp
	.cfi_def_cfa_register %rbp
	subq	$32, %rsp
	movl	$1114320742, -28(%rbp)  # imm = 0x426B2F66
	movq	%rdi, -8(%rbp)
	movq	-8(%rbp), %rax
	movq	(%rax), %rax
	movq	%rax, -24(%rbp)
	cmpq	$0, -8(%rbp)
	jne	.LBB49_2
# %bb.1:                                # %if.then
	jmp	.LBB49_10
.LBB49_2:                               # %if.end
	movq	-8(%rbp), %rax
	cmpb	$0, 5012(%rax)
	je	.LBB49_6
# %bb.3:                                # %if.then1
	movq	-8(%rbp), %rsi
	leaq	-12(%rbp), %rdi
	xorl	%edx, %edx
	xorl	%ecx, %ecx
	xorl	%r8d, %r8d
	callq	BZ2_bzWriteClose
	cmpl	$0, -12(%rbp)
	je	.LBB49_5
# %bb.4:                                # %if.then3
	movq	-8(%rbp), %rsi
	xorl	%edi, %edi
	movl	$1, %edx
	xorl	%ecx, %ecx
	xorl	%r8d, %r8d
	callq	BZ2_bzWriteClose
.LBB49_5:                               # %if.end4
	jmp	.LBB49_7
.LBB49_6:                               # %if.else
	movq	-8(%rbp), %rsi
	leaq	-12(%rbp), %rdi
	callq	BZ2_bzReadClose
.LBB49_7:                               # %if.end5
	movq	-24(%rbp), %rax
	cmpq	stdin, %rax
	je	.LBB49_10
# %bb.8:                                # %land.lhs.true
	movq	-24(%rbp), %rax
	cmpq	stdout, %rax
	je	.LBB49_10
# %bb.9:                                # %if.then8
	movq	-24(%rbp), %rdi
	callq	fclose
.LBB49_10:                              # %if.end9
	cmpl	$1114320742, -28(%rbp)  # imm = 0x426B2F66
	jne	.LBB49_12
.LBB49_11:
	addq	$32, %rsp
	popq	%rbp
	.cfi_def_cfa %rsp, 8
	retq
.LBB49_12:                              # %func_exit
	.cfi_def_cfa %rbp, 16
	callq	detect_breach
	jmp	.LBB49_11
.Lfunc_end49:
	.size	BZ2_bzclose.9, .Lfunc_end49-BZ2_bzclose.9
	.cfi_endproc
                                        # -- End function
	.globl	BZ2_bzopen.10           # -- Begin function BZ2_bzopen.10
	.p2align	4, 0x90
	.type	BZ2_bzopen.10,@function
BZ2_bzopen.10:                          # @BZ2_bzopen.10
	.cfi_startproc
# %bb.0:                                # %entry
	pushq	%rbp
	.cfi_def_cfa_offset 16
	.cfi_offset %rbp, -16
	movq	%rsp, %rbp
	.cfi_def_cfa_register %rbp
	pushq	%rbx
	subq	$24, %rsp
	.cfi_offset %rbx, -24
	movl	$101783821, -12(%rbp)   # imm = 0x611190D
	movq	%rdi, -32(%rbp)
	movq	%rsi, -24(%rbp)
	movq	-32(%rbp), %rdi
	movq	-24(%rbp), %rdx
	movl	$4294967295, %esi       # imm = 0xFFFFFFFF
	xorl	%ecx, %ecx
	callq	bzopen_or_bzdopen
	movq	%rax, %rbx
	cmpl	$101783821, -12(%rbp)   # imm = 0x611190D
	jne	.LBB50_2
.LBB50_1:
	movq	%rbx, %rax
	addq	$24, %rsp
	popq	%rbx
	popq	%rbp
	.cfi_def_cfa %rsp, 8
	retq
.LBB50_2:                               # %func_exit
	.cfi_def_cfa %rbp, 16
	callq	detect_breach
	jmp	.LBB50_1
.Lfunc_end50:
	.size	BZ2_bzopen.10, .Lfunc_end50-BZ2_bzopen.10
	.cfi_endproc
                                        # -- End function
	.p2align	4, 0x90         # -- Begin function copy_output_until_stop.11
	.type	copy_output_until_stop.11,@function
copy_output_until_stop.11:              # @copy_output_until_stop.11
	.cfi_startproc
# %bb.0:                                # %entry
	pushq	%rbp
	.cfi_def_cfa_offset 16
	.cfi_offset %rbp, -16
	movq	%rsp, %rbp
	.cfi_def_cfa_register %rbp
	pushq	%rbx
	subq	$24, %rsp
	.cfi_offset %rbx, -24
	movl	$14092312, -28(%rbp)    # imm = 0xD70818
	movq	%rdi, -24(%rbp)
	movb	$0, -9(%rbp)
.LBB51_1:                               # %while.body
                                        # =>This Inner Loop Header: Depth=1
	movq	-24(%rbp), %rax
	movq	(%rax), %rax
	cmpl	$0, 32(%rax)
	jne	.LBB51_3
# %bb.2:                                # %if.then
	jmp	.LBB51_8
.LBB51_3:                               # %if.end
                                        #   in Loop: Header=BB51_1 Depth=1
	movq	-24(%rbp), %rax
	movl	120(%rax), %eax
	movq	-24(%rbp), %rcx
	cmpl	116(%rcx), %eax
	jl	.LBB51_5
# %bb.4:                                # %if.then2
	jmp	.LBB51_8
.LBB51_5:                               # %if.end3
                                        #   in Loop: Header=BB51_1 Depth=1
	movb	$1, -9(%rbp)
	movq	-24(%rbp), %rax
	movq	80(%rax), %rax
	movq	-24(%rbp), %rcx
	movslq	120(%rcx), %rcx
	movb	(%rax,%rcx), %al
	movq	-24(%rbp), %rcx
	movq	(%rcx), %rcx
	movq	24(%rcx), %rcx
	movb	%al, (%rcx)
	movq	-24(%rbp), %rax
	movl	120(%rax), %ecx
	addl	$1, %ecx
	movl	%ecx, 120(%rax)
	movq	-24(%rbp), %rax
	movq	(%rax), %rax
	movl	32(%rax), %ecx
	addl	$-1, %ecx
	movl	%ecx, 32(%rax)
	movq	-24(%rbp), %rax
	movq	(%rax), %rax
	movq	24(%rax), %rcx
	addq	$1, %rcx
	movq	%rcx, 24(%rax)
	movq	-24(%rbp), %rax
	movq	(%rax), %rax
	movl	36(%rax), %ecx
	addl	$1, %ecx
	movl	%ecx, 36(%rax)
	movq	-24(%rbp), %rax
	movq	(%rax), %rax
	cmpl	$0, 36(%rax)
	jne	.LBB51_7
# %bb.6:                                # %if.then16
                                        #   in Loop: Header=BB51_1 Depth=1
	movq	-24(%rbp), %rax
	movq	(%rax), %rax
	movl	40(%rax), %ecx
	addl	$1, %ecx
	movl	%ecx, 40(%rax)
.LBB51_7:                               # %if.end19
                                        #   in Loop: Header=BB51_1 Depth=1
	jmp	.LBB51_1
.LBB51_8:                               # %while.end
	movb	-9(%rbp), %bl
	cmpl	$14092312, -28(%rbp)    # imm = 0xD70818
	jne	.LBB51_10
.LBB51_9:
	movzbl	%bl, %eax
	addq	$24, %rsp
	popq	%rbx
	popq	%rbp
	.cfi_def_cfa %rsp, 8
	retq
.LBB51_10:                              # %func_exit
	.cfi_def_cfa %rbp, 16
	callq	detect_breach
	jmp	.LBB51_9
.Lfunc_end51:
	.size	copy_output_until_stop.11, .Lfunc_end51-copy_output_until_stop.11
	.cfi_endproc
                                        # -- End function
	.globl	BZ2_bzCompress.12       # -- Begin function BZ2_bzCompress.12
	.p2align	4, 0x90
	.type	BZ2_bzCompress.12,@function
BZ2_bzCompress.12:                      # @BZ2_bzCompress.12
	.cfi_startproc
# %bb.0:                                # %entry
	pushq	%rbp
	.cfi_def_cfa_offset 16
	.cfi_offset %rbp, -16
	movq	%rsp, %rbp
	.cfi_def_cfa_register %rbp
	pushq	%rbx
	subq	$40, %rsp
	.cfi_offset %rbx, -24
	movl	$1668445240, -44(%rbp)  # imm = 0x63727438
	movq	%rdi, -40(%rbp)
	movl	%esi, -28(%rbp)
	cmpq	$0, -40(%rbp)
	jne	.LBB52_2
# %bb.1:                                # %if.then
	movl	$-2, -16(%rbp)
	jmp	.LBB52_39
.LBB52_2:                               # %if.end
	movq	-40(%rbp), %rax
	movq	48(%rax), %rax
	movq	%rax, -24(%rbp)
	cmpq	$0, -24(%rbp)
	jne	.LBB52_4
# %bb.3:                                # %if.then2
	movl	$-2, -16(%rbp)
	jmp	.LBB52_39
.LBB52_4:                               # %if.end3
	movq	-24(%rbp), %rax
	movq	(%rax), %rax
	cmpq	-40(%rbp), %rax
	je	.LBB52_6
# %bb.5:                                # %if.then6
	movl	$-2, -16(%rbp)
	jmp	.LBB52_39
.LBB52_6:                               # %if.end7
	jmp	.LBB52_7
.LBB52_7:                               # %preswitch
                                        # =>This Inner Loop Header: Depth=1
	movq	-24(%rbp), %rax
	movl	8(%rax), %eax
	addl	$-1, %eax
	movl	%eax, %ecx
	subl	$3, %ecx
	ja	.LBB52_38
# %bb.8:                                # %preswitch
                                        #   in Loop: Header=BB52_7 Depth=1
	movq	.LJTI52_0(,%rax,8), %rax
	jmpq	*%rax
.LBB52_9:                               # %sw.bb
	movl	$-1, -16(%rbp)
	jmp	.LBB52_39
.LBB52_10:                              # %sw.bb8
                                        #   in Loop: Header=BB52_7 Depth=1
	cmpl	$0, -28(%rbp)
	jne	.LBB52_12
# %bb.11:                               # %if.then10
	movq	-40(%rbp), %rdi
	callq	handle_compress
	movb	%al, -9(%rbp)
	movzbl	-9(%rbp), %eax
	cmpl	$0, %eax
	movl	$1, %eax
	movl	$4294967294, %ecx       # imm = 0xFFFFFFFE
	cmovnel	%eax, %ecx
	movl	%ecx, -16(%rbp)
	jmp	.LBB52_39
.LBB52_12:                              # %if.else
                                        #   in Loop: Header=BB52_7 Depth=1
	cmpl	$1, -28(%rbp)
	jne	.LBB52_15
# %bb.13:                               # %if.then13
                                        #   in Loop: Header=BB52_7 Depth=1
	movq	-40(%rbp), %rax
	movl	8(%rax), %eax
	movq	-24(%rbp), %rcx
	movl	%eax, 16(%rcx)
	movq	-24(%rbp), %rax
	movl	$3, 8(%rax)
.LBB52_14:                              # %preswitch.backedge
                                        #   in Loop: Header=BB52_7 Depth=1
	jmp	.LBB52_7
.LBB52_15:                              # %if.else15
                                        #   in Loop: Header=BB52_7 Depth=1
	cmpl	$2, -28(%rbp)
	jne	.LBB52_17
# %bb.16:                               # %if.then18
                                        #   in Loop: Header=BB52_7 Depth=1
	movq	-40(%rbp), %rax
	movl	8(%rax), %eax
	movq	-24(%rbp), %rcx
	movl	%eax, 16(%rcx)
	movq	-24(%rbp), %rax
	movl	$4, 8(%rax)
	jmp	.LBB52_14
.LBB52_17:                              # %if.else22
	movl	$-2, -16(%rbp)
	jmp	.LBB52_39
.LBB52_18:                              # %sw.bb23
	cmpl	$1, -28(%rbp)
	je	.LBB52_20
# %bb.19:                               # %if.then26
	movl	$-1, -16(%rbp)
	jmp	.LBB52_39
.LBB52_20:                              # %if.end27
	movq	-24(%rbp), %rax
	movl	16(%rax), %eax
	movq	-24(%rbp), %rcx
	movq	(%rcx), %rcx
	cmpl	8(%rcx), %eax
	je	.LBB52_22
# %bb.21:                               # %if.then33
	movl	$-1, -16(%rbp)
	jmp	.LBB52_39
.LBB52_22:                              # %if.end34
	movq	-40(%rbp), %rdi
	callq	handle_compress
	movb	%al, -9(%rbp)
	movq	-24(%rbp), %rax
	cmpl	$0, 16(%rax)
	ja	.LBB52_25
# %bb.23:                               # %lor.lhs.false
	movq	-24(%rbp), %rdi
	callq	isempty_RL
	cmpb	$0, %al
	je	.LBB52_25
# %bb.24:                               # %lor.lhs.false41
	movq	-24(%rbp), %rax
	movl	120(%rax), %eax
	movq	-24(%rbp), %rcx
	cmpl	116(%rcx), %eax
	jge	.LBB52_26
.LBB52_25:                              # %if.then44
	movl	$2, -16(%rbp)
	jmp	.LBB52_39
.LBB52_26:                              # %if.end45
	movq	-24(%rbp), %rax
	movl	$2, 8(%rax)
	movl	$1, -16(%rbp)
	jmp	.LBB52_39
.LBB52_27:                              # %sw.bb47
	cmpl	$2, -28(%rbp)
	je	.LBB52_29
# %bb.28:                               # %if.then50
	movl	$-1, -16(%rbp)
	jmp	.LBB52_39
.LBB52_29:                              # %if.end51
	movq	-24(%rbp), %rax
	movl	16(%rax), %eax
	movq	-24(%rbp), %rcx
	movq	(%rcx), %rcx
	cmpl	8(%rcx), %eax
	je	.LBB52_31
# %bb.30:                               # %if.then57
	movl	$-1, -16(%rbp)
	jmp	.LBB52_39
.LBB52_31:                              # %if.end58
	movq	-40(%rbp), %rdi
	callq	handle_compress
	movb	%al, -9(%rbp)
	cmpb	$0, -9(%rbp)
	jne	.LBB52_33
# %bb.32:                               # %if.then61
	movl	$-1, -16(%rbp)
	jmp	.LBB52_39
.LBB52_33:                              # %if.end62
	movq	-24(%rbp), %rax
	cmpl	$0, 16(%rax)
	ja	.LBB52_36
# %bb.34:                               # %lor.lhs.false66
	movq	-24(%rbp), %rdi
	callq	isempty_RL
	cmpb	$0, %al
	je	.LBB52_36
# %bb.35:                               # %lor.lhs.false69
	movq	-24(%rbp), %rax
	movl	120(%rax), %eax
	movq	-24(%rbp), %rcx
	cmpl	116(%rcx), %eax
	jge	.LBB52_37
.LBB52_36:                              # %if.then74
	movl	$3, -16(%rbp)
	jmp	.LBB52_39
.LBB52_37:                              # %if.end75
	movq	-24(%rbp), %rax
	movl	$1, 8(%rax)
	movl	$4, -16(%rbp)
	jmp	.LBB52_39
.LBB52_38:                              # %sw.epilog
	movl	$0, -16(%rbp)
.LBB52_39:                              # %return
	movl	-16(%rbp), %ebx
	cmpl	$1668445240, -44(%rbp)  # imm = 0x63727438
	jne	.LBB52_41
.LBB52_40:
	movl	%ebx, %eax
	addq	$40, %rsp
	popq	%rbx
	popq	%rbp
	.cfi_def_cfa %rsp, 8
	retq
.LBB52_41:                              # %func_exit
	.cfi_def_cfa %rbp, 16
	callq	detect_breach
	jmp	.LBB52_40
.Lfunc_end52:
	.size	BZ2_bzCompress.12, .Lfunc_end52-BZ2_bzCompress.12
	.cfi_endproc
	.section	.rodata,"a",@progbits
	.p2align	3
.LJTI52_0:
	.quad	.LBB52_9
	.quad	.LBB52_10
	.quad	.LBB52_18
	.quad	.LBB52_27
                                        # -- End function
	.text
	.globl	BZ2_bzCompressEnd.13    # -- Begin function BZ2_bzCompressEnd.13
	.p2align	4, 0x90
	.type	BZ2_bzCompressEnd.13,@function
BZ2_bzCompressEnd.13:                   # @BZ2_bzCompressEnd.13
	.cfi_startproc
# %bb.0:                                # %entry
	pushq	%rbp
	.cfi_def_cfa_offset 16
	.cfi_offset %rbp, -16
	movq	%rsp, %rbp
	.cfi_def_cfa_register %rbp
	pushq	%rbx
	subq	$40, %rsp
	.cfi_offset %rbx, -24
	movl	$1305646525, -36(%rbp)  # imm = 0x4DD295BD
	movq	%rdi, -16(%rbp)
	cmpq	$0, -16(%rbp)
	jne	.LBB53_2
# %bb.1:                                # %if.then
	movl	$-2, -20(%rbp)
	jmp	.LBB53_13
.LBB53_2:                               # %if.end
	movq	-16(%rbp), %rax
	movq	48(%rax), %rax
	movq	%rax, -32(%rbp)
	cmpq	$0, -32(%rbp)
	jne	.LBB53_4
# %bb.3:                                # %if.then2
	movl	$-2, -20(%rbp)
	jmp	.LBB53_13
.LBB53_4:                               # %if.end3
	movq	-32(%rbp), %rax
	movq	(%rax), %rax
	cmpq	-16(%rbp), %rax
	je	.LBB53_6
# %bb.5:                                # %if.then6
	movl	$-2, -20(%rbp)
	jmp	.LBB53_13
.LBB53_6:                               # %if.end7
	movq	-32(%rbp), %rax
	cmpq	$0, 24(%rax)
	je	.LBB53_8
# %bb.7:                                # %if.then9
	movq	-16(%rbp), %rax
	movq	64(%rax), %rax
	movq	-16(%rbp), %rcx
	movq	72(%rcx), %rdi
	movq	-32(%rbp), %rcx
	movq	24(%rcx), %rsi
	callq	*%rax
.LBB53_8:                               # %if.end11
	movq	-32(%rbp), %rax
	cmpq	$0, 32(%rax)
	je	.LBB53_10
# %bb.9:                                # %if.then13
	movq	-16(%rbp), %rax
	movq	64(%rax), %rax
	movq	-16(%rbp), %rcx
	movq	72(%rcx), %rdi
	movq	-32(%rbp), %rcx
	movq	32(%rcx), %rsi
	callq	*%rax
.LBB53_10:                              # %if.end17
	movq	-32(%rbp), %rax
	cmpq	$0, 40(%rax)
	je	.LBB53_12
# %bb.11:                               # %if.then19
	movq	-16(%rbp), %rax
	movq	64(%rax), %rax
	movq	-16(%rbp), %rcx
	movq	72(%rcx), %rdi
	movq	-32(%rbp), %rcx
	movq	40(%rcx), %rsi
	callq	*%rax
.LBB53_12:                              # %if.end23
	movq	-16(%rbp), %rax
	movq	64(%rax), %rax
	movq	-16(%rbp), %rcx
	movq	72(%rcx), %rdi
	movq	-16(%rbp), %rcx
	movq	48(%rcx), %rsi
	callq	*%rax
	movq	-16(%rbp), %rax
	movq	$0, 48(%rax)
	movl	$0, -20(%rbp)
.LBB53_13:                              # %return
	movl	-20(%rbp), %ebx
	cmpl	$1305646525, -36(%rbp)  # imm = 0x4DD295BD
	jne	.LBB53_15
.LBB53_14:
	movl	%ebx, %eax
	addq	$40, %rsp
	popq	%rbx
	popq	%rbp
	.cfi_def_cfa %rsp, 8
	retq
.LBB53_15:                              # %func_exit
	.cfi_def_cfa %rbp, 16
	callq	detect_breach
	jmp	.LBB53_14
.Lfunc_end53:
	.size	BZ2_bzCompressEnd.13, .Lfunc_end53-BZ2_bzCompressEnd.13
	.cfi_endproc
                                        # -- End function
	.globl	BZ2_bzerror.14          # -- Begin function BZ2_bzerror.14
	.p2align	4, 0x90
	.type	BZ2_bzerror.14,@function
BZ2_bzerror.14:                         # @BZ2_bzerror.14
	.cfi_startproc
# %bb.0:                                # %entry
	pushq	%rbp
	.cfi_def_cfa_offset 16
	.cfi_offset %rbp, -16
	movq	%rsp, %rbp
	.cfi_def_cfa_register %rbp
	pushq	%rbx
	subq	$24, %rsp
	.cfi_offset %rbx, -24
	movl	$1931165059, -16(%rbp)  # imm = 0x731B3D83
	movq	%rdi, -32(%rbp)
	movq	%rsi, -24(%rbp)
	movq	-32(%rbp), %rax
	movl	5096(%rax), %eax
	movl	%eax, -12(%rbp)
	cmpl	$0, -12(%rbp)
	jle	.LBB54_2
# %bb.1:                                # %if.then
	movl	$0, -12(%rbp)
.LBB54_2:                               # %if.end
	movl	-12(%rbp), %eax
	movq	-24(%rbp), %rcx
	movl	%eax, (%rcx)
	imull	$-1, -12(%rbp), %eax
	cltq
	movq	bzerrorstrings(,%rax,8), %rbx
	cmpl	$1931165059, -16(%rbp)  # imm = 0x731B3D83
	jne	.LBB54_4
.LBB54_3:
	movq	%rbx, %rax
	addq	$24, %rsp
	popq	%rbx
	popq	%rbp
	.cfi_def_cfa %rsp, 8
	retq
.LBB54_4:                               # %func_exit
	.cfi_def_cfa %rbp, 16
	callq	detect_breach
	jmp	.LBB54_3
.Lfunc_end54:
	.size	BZ2_bzerror.14, .Lfunc_end54-BZ2_bzerror.14
	.cfi_endproc
                                        # -- End function
	.p2align	4, 0x90         # -- Begin function myfeof.15
	.type	myfeof.15,@function
myfeof.15:                              # @myfeof.15
	.cfi_startproc
# %bb.0:                                # %entry
	pushq	%rbp
	.cfi_def_cfa_offset 16
	.cfi_offset %rbp, -16
	movq	%rsp, %rbp
	.cfi_def_cfa_register %rbp
	pushq	%rbx
	subq	$24, %rsp
	.cfi_offset %rbx, -24
	movl	$1912845712, -20(%rbp)  # imm = 0x7203B590
	movq	%rdi, -32(%rbp)
	movq	-32(%rbp), %rdi
	callq	fgetc
	movl	%eax, -16(%rbp)
	cmpl	$-1, -16(%rbp)
	jne	.LBB55_2
# %bb.1:                                # %if.then
	movb	$1, -9(%rbp)
	jmp	.LBB55_3
.LBB55_2:                               # %if.end
	movl	-16(%rbp), %edi
	movq	-32(%rbp), %rsi
	callq	ungetc
	movb	$0, -9(%rbp)
.LBB55_3:                               # %return
	movb	-9(%rbp), %bl
	cmpl	$1912845712, -20(%rbp)  # imm = 0x7203B590
	jne	.LBB55_5
.LBB55_4:
	movzbl	%bl, %eax
	addq	$24, %rsp
	popq	%rbx
	popq	%rbp
	.cfi_def_cfa %rsp, 8
	retq
.LBB55_5:                               # %func_exit
	.cfi_def_cfa %rbp, 16
	callq	detect_breach
	jmp	.LBB55_4
.Lfunc_end55:
	.size	myfeof.15, .Lfunc_end55-myfeof.15
	.cfi_endproc
                                        # -- End function
	.globl	BZ2_bzWriteOpen.16      # -- Begin function BZ2_bzWriteOpen.16
	.p2align	4, 0x90
	.type	BZ2_bzWriteOpen.16,@function
BZ2_bzWriteOpen.16:                     # @BZ2_bzWriteOpen.16
	.cfi_startproc
# %bb.0:                                # %entry
	pushq	%rbp
	.cfi_def_cfa_offset 16
	.cfi_offset %rbp, -16
	movq	%rsp, %rbp
	.cfi_def_cfa_register %rbp
	pushq	%rbx
	subq	$56, %rsp
	.cfi_offset %rbx, -24
	movl	$2032250512, -60(%rbp)  # imm = 0x7921AE90
	movq	%rdi, -24(%rbp)
	movq	%rsi, -56(%rbp)
	movl	%edx, -36(%rbp)
	movl	%ecx, -32(%rbp)
	movl	%r8d, -28(%rbp)
	movq	$0, -16(%rbp)
	cmpq	$0, -24(%rbp)
	je	.LBB56_2
# %bb.1:                                # %if.then
	movq	-24(%rbp), %rax
	movl	$0, (%rax)
.LBB56_2:                               # %if.end
	cmpq	$0, -16(%rbp)
	je	.LBB56_4
# %bb.3:                                # %if.then2
	movq	-16(%rbp), %rax
	movl	$0, 5096(%rax)
.LBB56_4:                               # %if.end3
	cmpq	$0, -56(%rbp)
	je	.LBB56_11
# %bb.5:                                # %lor.lhs.false
	cmpl	$1, -36(%rbp)
	jl	.LBB56_11
# %bb.6:                                # %lor.lhs.false6
	cmpl	$9, -36(%rbp)
	jg	.LBB56_11
# %bb.7:                                # %lor.lhs.false8
	cmpl	$0, -28(%rbp)
	jl	.LBB56_11
# %bb.8:                                # %lor.lhs.false10
	cmpl	$250, -28(%rbp)
	jg	.LBB56_11
# %bb.9:                                # %lor.lhs.false12
	cmpl	$0, -32(%rbp)
	jl	.LBB56_11
# %bb.10:                               # %lor.lhs.false14
	cmpl	$4, -32(%rbp)
	jle	.LBB56_16
.LBB56_11:                              # %if.then16
	cmpq	$0, -24(%rbp)
	je	.LBB56_13
# %bb.12:                               # %if.then18
	movq	-24(%rbp), %rax
	movl	$-2, (%rax)
.LBB56_13:                              # %if.end19
	cmpq	$0, -16(%rbp)
	je	.LBB56_15
# %bb.14:                               # %if.then21
	movq	-16(%rbp), %rax
	movl	$-2, 5096(%rax)
.LBB56_15:                              # %if.end23
	movq	$0, -48(%rbp)
	jmp	.LBB56_41
.LBB56_16:                              # %if.end24
	movq	-56(%rbp), %rdi
	callq	ferror
	cmpl	$0, %eax
	je	.LBB56_22
# %bb.17:                               # %if.then25
	cmpq	$0, -24(%rbp)
	je	.LBB56_19
# %bb.18:                               # %if.then27
	movq	-24(%rbp), %rax
	movl	$-6, (%rax)
.LBB56_19:                              # %if.end28
	cmpq	$0, -16(%rbp)
	je	.LBB56_21
# %bb.20:                               # %if.then30
	movq	-16(%rbp), %rax
	movl	$-6, 5096(%rax)
.LBB56_21:                              # %if.end32
	movq	$0, -48(%rbp)
	jmp	.LBB56_41
.LBB56_22:                              # %if.end33
	movl	$5104, %edi             # imm = 0x13F0
	callq	malloc
	movq	%rax, -16(%rbp)
	cmpq	$0, -16(%rbp)
	jne	.LBB56_28
# %bb.23:                               # %if.then36
	cmpq	$0, -24(%rbp)
	je	.LBB56_25
# %bb.24:                               # %if.then38
	movq	-24(%rbp), %rax
	movl	$-3, (%rax)
.LBB56_25:                              # %if.end39
	cmpq	$0, -16(%rbp)
	je	.LBB56_27
# %bb.26:                               # %if.then41
	movq	-16(%rbp), %rax
	movl	$-3, 5096(%rax)
.LBB56_27:                              # %if.end43
	movq	$0, -48(%rbp)
	jmp	.LBB56_41
.LBB56_28:                              # %if.end44
	cmpq	$0, -24(%rbp)
	je	.LBB56_30
# %bb.29:                               # %if.then46
	movq	-24(%rbp), %rax
	movl	$0, (%rax)
.LBB56_30:                              # %if.end47
	cmpq	$0, -16(%rbp)
	je	.LBB56_32
# %bb.31:                               # %if.then49
	movq	-16(%rbp), %rax
	movl	$0, 5096(%rax)
.LBB56_32:                              # %if.end51
	movq	-16(%rbp), %rax
	movb	$0, 5100(%rax)
	movq	-16(%rbp), %rax
	movl	$0, 5008(%rax)
	movq	-56(%rbp), %rax
	movq	-16(%rbp), %rcx
	movq	%rax, (%rcx)
	movq	-16(%rbp), %rax
	movb	$1, 5012(%rax)
	movq	-16(%rbp), %rax
	movq	$0, 5072(%rax)
	movq	-16(%rbp), %rax
	movq	$0, 5080(%rax)
	movq	-16(%rbp), %rax
	movq	$0, 5088(%rax)
	cmpl	$0, -28(%rbp)
	jne	.LBB56_34
# %bb.33:                               # %if.then55
	movl	$30, -28(%rbp)
.LBB56_34:                              # %if.end56
	movq	-16(%rbp), %rdi
	addq	$5016, %rdi             # imm = 0x1398
	movl	-36(%rbp), %esi
	movl	-32(%rbp), %edx
	movl	-28(%rbp), %ecx
	callq	BZ2_bzCompressInit
	movl	%eax, -40(%rbp)
	cmpl	$0, -40(%rbp)
	je	.LBB56_40
# %bb.35:                               # %if.then60
	cmpq	$0, -24(%rbp)
	je	.LBB56_37
# %bb.36:                               # %if.then62
	movl	-40(%rbp), %eax
	movq	-24(%rbp), %rcx
	movl	%eax, (%rcx)
.LBB56_37:                              # %if.end63
	cmpq	$0, -16(%rbp)
	je	.LBB56_39
# %bb.38:                               # %if.then65
	movl	-40(%rbp), %eax
	movq	-16(%rbp), %rcx
	movl	%eax, 5096(%rcx)
.LBB56_39:                              # %if.end67
	movq	-16(%rbp), %rdi
	callq	free
	movq	$0, -48(%rbp)
	jmp	.LBB56_41
.LBB56_40:                              # %if.end68
	movq	-16(%rbp), %rax
	movl	$0, 5024(%rax)
	movq	-16(%rbp), %rax
	movb	$1, 5100(%rax)
	movq	-16(%rbp), %rax
	movq	%rax, -48(%rbp)
.LBB56_41:                              # %return
	movq	-48(%rbp), %rbx
	cmpl	$2032250512, -60(%rbp)  # imm = 0x7921AE90
	jne	.LBB56_43
.LBB56_42:
	movq	%rbx, %rax
	addq	$56, %rsp
	popq	%rbx
	popq	%rbp
	.cfi_def_cfa %rsp, 8
	retq
.LBB56_43:                              # %func_exit
	.cfi_def_cfa %rbp, 16
	callq	detect_breach
	jmp	.LBB56_42
.Lfunc_end56:
	.size	BZ2_bzWriteOpen.16, .Lfunc_end56-BZ2_bzWriteOpen.16
	.cfi_endproc
                                        # -- End function
	.globl	BZ2_bzCompress.17       # -- Begin function BZ2_bzCompress.17
	.p2align	4, 0x90
	.type	BZ2_bzCompress.17,@function
BZ2_bzCompress.17:                      # @BZ2_bzCompress.17
	.cfi_startproc
# %bb.0:                                # %entry
	pushq	%rbp
	.cfi_def_cfa_offset 16
	.cfi_offset %rbp, -16
	movq	%rsp, %rbp
	.cfi_def_cfa_register %rbp
	pushq	%rbx
	subq	$40, %rsp
	.cfi_offset %rbx, -24
	movl	$370918437, -44(%rbp)   # imm = 0x161BC425
	movq	%rdi, -40(%rbp)
	movl	%esi, -28(%rbp)
	cmpq	$0, -40(%rbp)
	jne	.LBB57_2
# %bb.1:                                # %if.then
	movl	$-2, -16(%rbp)
	jmp	.LBB57_39
.LBB57_2:                               # %if.end
	movq	-40(%rbp), %rax
	movq	48(%rax), %rax
	movq	%rax, -24(%rbp)
	cmpq	$0, -24(%rbp)
	jne	.LBB57_4
# %bb.3:                                # %if.then2
	movl	$-2, -16(%rbp)
	jmp	.LBB57_39
.LBB57_4:                               # %if.end3
	movq	-24(%rbp), %rax
	movq	(%rax), %rax
	cmpq	-40(%rbp), %rax
	je	.LBB57_6
# %bb.5:                                # %if.then6
	movl	$-2, -16(%rbp)
	jmp	.LBB57_39
.LBB57_6:                               # %if.end7
	jmp	.LBB57_7
.LBB57_7:                               # %preswitch
                                        # =>This Inner Loop Header: Depth=1
	movq	-24(%rbp), %rax
	movl	8(%rax), %eax
	addl	$-1, %eax
	movl	%eax, %ecx
	subl	$3, %ecx
	ja	.LBB57_38
# %bb.8:                                # %preswitch
                                        #   in Loop: Header=BB57_7 Depth=1
	movq	.LJTI57_0(,%rax,8), %rax
	jmpq	*%rax
.LBB57_9:                               # %sw.bb
	movl	$-1, -16(%rbp)
	jmp	.LBB57_39
.LBB57_10:                              # %sw.bb8
                                        #   in Loop: Header=BB57_7 Depth=1
	cmpl	$0, -28(%rbp)
	jne	.LBB57_12
# %bb.11:                               # %if.then10
	movq	-40(%rbp), %rdi
	callq	handle_compress
	movb	%al, -9(%rbp)
	movzbl	-9(%rbp), %eax
	cmpl	$0, %eax
	movl	$1, %eax
	movl	$4294967294, %ecx       # imm = 0xFFFFFFFE
	cmovnel	%eax, %ecx
	movl	%ecx, -16(%rbp)
	jmp	.LBB57_39
.LBB57_12:                              # %if.else
                                        #   in Loop: Header=BB57_7 Depth=1
	cmpl	$1, -28(%rbp)
	jne	.LBB57_15
# %bb.13:                               # %if.then13
                                        #   in Loop: Header=BB57_7 Depth=1
	movq	-40(%rbp), %rax
	movl	8(%rax), %eax
	movq	-24(%rbp), %rcx
	movl	%eax, 16(%rcx)
	movq	-24(%rbp), %rax
	movl	$3, 8(%rax)
.LBB57_14:                              # %preswitch.backedge
                                        #   in Loop: Header=BB57_7 Depth=1
	jmp	.LBB57_7
.LBB57_15:                              # %if.else15
                                        #   in Loop: Header=BB57_7 Depth=1
	cmpl	$2, -28(%rbp)
	jne	.LBB57_17
# %bb.16:                               # %if.then18
                                        #   in Loop: Header=BB57_7 Depth=1
	movq	-40(%rbp), %rax
	movl	8(%rax), %eax
	movq	-24(%rbp), %rcx
	movl	%eax, 16(%rcx)
	movq	-24(%rbp), %rax
	movl	$4, 8(%rax)
	jmp	.LBB57_14
.LBB57_17:                              # %if.else22
	movl	$-2, -16(%rbp)
	jmp	.LBB57_39
.LBB57_18:                              # %sw.bb23
	cmpl	$1, -28(%rbp)
	je	.LBB57_20
# %bb.19:                               # %if.then26
	movl	$-1, -16(%rbp)
	jmp	.LBB57_39
.LBB57_20:                              # %if.end27
	movq	-24(%rbp), %rax
	movl	16(%rax), %eax
	movq	-24(%rbp), %rcx
	movq	(%rcx), %rcx
	cmpl	8(%rcx), %eax
	je	.LBB57_22
# %bb.21:                               # %if.then33
	movl	$-1, -16(%rbp)
	jmp	.LBB57_39
.LBB57_22:                              # %if.end34
	movq	-40(%rbp), %rdi
	callq	handle_compress
	movb	%al, -9(%rbp)
	movq	-24(%rbp), %rax
	cmpl	$0, 16(%rax)
	ja	.LBB57_25
# %bb.23:                               # %lor.lhs.false
	movq	-24(%rbp), %rdi
	callq	isempty_RL
	cmpb	$0, %al
	je	.LBB57_25
# %bb.24:                               # %lor.lhs.false41
	movq	-24(%rbp), %rax
	movl	120(%rax), %eax
	movq	-24(%rbp), %rcx
	cmpl	116(%rcx), %eax
	jge	.LBB57_26
.LBB57_25:                              # %if.then44
	movl	$2, -16(%rbp)
	jmp	.LBB57_39
.LBB57_26:                              # %if.end45
	movq	-24(%rbp), %rax
	movl	$2, 8(%rax)
	movl	$1, -16(%rbp)
	jmp	.LBB57_39
.LBB57_27:                              # %sw.bb47
	cmpl	$2, -28(%rbp)
	je	.LBB57_29
# %bb.28:                               # %if.then50
	movl	$-1, -16(%rbp)
	jmp	.LBB57_39
.LBB57_29:                              # %if.end51
	movq	-24(%rbp), %rax
	movl	16(%rax), %eax
	movq	-24(%rbp), %rcx
	movq	(%rcx), %rcx
	cmpl	8(%rcx), %eax
	je	.LBB57_31
# %bb.30:                               # %if.then57
	movl	$-1, -16(%rbp)
	jmp	.LBB57_39
.LBB57_31:                              # %if.end58
	movq	-40(%rbp), %rdi
	callq	handle_compress
	movb	%al, -9(%rbp)
	cmpb	$0, -9(%rbp)
	jne	.LBB57_33
# %bb.32:                               # %if.then61
	movl	$-1, -16(%rbp)
	jmp	.LBB57_39
.LBB57_33:                              # %if.end62
	movq	-24(%rbp), %rax
	cmpl	$0, 16(%rax)
	ja	.LBB57_36
# %bb.34:                               # %lor.lhs.false66
	movq	-24(%rbp), %rdi
	callq	isempty_RL
	cmpb	$0, %al
	je	.LBB57_36
# %bb.35:                               # %lor.lhs.false69
	movq	-24(%rbp), %rax
	movl	120(%rax), %eax
	movq	-24(%rbp), %rcx
	cmpl	116(%rcx), %eax
	jge	.LBB57_37
.LBB57_36:                              # %if.then74
	movl	$3, -16(%rbp)
	jmp	.LBB57_39
.LBB57_37:                              # %if.end75
	movq	-24(%rbp), %rax
	movl	$1, 8(%rax)
	movl	$4, -16(%rbp)
	jmp	.LBB57_39
.LBB57_38:                              # %sw.epilog
	movl	$0, -16(%rbp)
.LBB57_39:                              # %return
	movl	-16(%rbp), %ebx
	cmpl	$370918437, -44(%rbp)   # imm = 0x161BC425
	jne	.LBB57_41
.LBB57_40:
	movl	%ebx, %eax
	addq	$40, %rsp
	popq	%rbx
	popq	%rbp
	.cfi_def_cfa %rsp, 8
	retq
.LBB57_41:                              # %func_exit
	.cfi_def_cfa %rbp, 16
	callq	detect_breach
	jmp	.LBB57_40
.Lfunc_end57:
	.size	BZ2_bzCompress.17, .Lfunc_end57-BZ2_bzCompress.17
	.cfi_endproc
	.section	.rodata,"a",@progbits
	.p2align	3
.LJTI57_0:
	.quad	.LBB57_9
	.quad	.LBB57_10
	.quad	.LBB57_18
	.quad	.LBB57_27
                                        # -- End function
	.text
	.p2align	4, 0x90         # -- Begin function handle_compress.18
	.type	handle_compress.18,@function
handle_compress.18:                     # @handle_compress.18
	.cfi_startproc
# %bb.0:                                # %entry
	pushq	%rbp
	.cfi_def_cfa_offset 16
	.cfi_offset %rbp, -16
	movq	%rsp, %rbp
	.cfi_def_cfa_register %rbp
	pushq	%rbx
	subq	$40, %rsp
	.cfi_offset %rbx, -24
	movl	$667223613, -28(%rbp)   # imm = 0x27C5063D
	movq	%rdi, -40(%rbp)
	movb	$0, -10(%rbp)
	movb	$0, -9(%rbp)
	movq	-40(%rbp), %rax
	movq	48(%rax), %rax
	movq	%rax, -24(%rbp)
.LBB58_1:                               # %while.body
                                        # =>This Inner Loop Header: Depth=1
	movq	-24(%rbp), %rax
	cmpl	$1, 12(%rax)
	jne	.LBB58_13
# %bb.2:                                # %if.then
                                        #   in Loop: Header=BB58_1 Depth=1
	movq	-24(%rbp), %rdi
	callq	copy_output_until_stop
	movzbl	%al, %eax
	movzbl	-9(%rbp), %ecx
	orl	%eax, %ecx
	movb	%cl, -9(%rbp)
	movq	-24(%rbp), %rax
	movl	120(%rax), %eax
	movq	-24(%rbp), %rcx
	cmpl	116(%rcx), %eax
	jge	.LBB58_4
# %bb.3:                                # %if.then6
	jmp	.LBB58_25
.LBB58_4:                               # %if.end
                                        #   in Loop: Header=BB58_1 Depth=1
	movq	-24(%rbp), %rax
	cmpl	$4, 8(%rax)
	jne	.LBB58_8
# %bb.5:                                # %land.lhs.true
                                        #   in Loop: Header=BB58_1 Depth=1
	movq	-24(%rbp), %rax
	cmpl	$0, 16(%rax)
	jne	.LBB58_8
# %bb.6:                                # %land.lhs.true11
                                        #   in Loop: Header=BB58_1 Depth=1
	movq	-24(%rbp), %rdi
	callq	isempty_RL
	movzbl	%al, %eax
	cmpl	$0, %eax
	je	.LBB58_8
# %bb.7:                                # %if.then14
	jmp	.LBB58_25
.LBB58_8:                               # %if.end15
                                        #   in Loop: Header=BB58_1 Depth=1
	movq	-24(%rbp), %rdi
	callq	prepare_new_block
	movq	-24(%rbp), %rax
	movl	$2, 12(%rax)
	movq	-24(%rbp), %rax
	cmpl	$3, 8(%rax)
	jne	.LBB58_12
# %bb.9:                                # %land.lhs.true20
                                        #   in Loop: Header=BB58_1 Depth=1
	movq	-24(%rbp), %rax
	cmpl	$0, 16(%rax)
	jne	.LBB58_12
# %bb.10:                               # %land.lhs.true24
                                        #   in Loop: Header=BB58_1 Depth=1
	movq	-24(%rbp), %rdi
	callq	isempty_RL
	movzbl	%al, %eax
	cmpl	$0, %eax
	je	.LBB58_12
# %bb.11:                               # %if.then28
	jmp	.LBB58_25
.LBB58_12:                              # %if.end29
                                        #   in Loop: Header=BB58_1 Depth=1
	jmp	.LBB58_13
.LBB58_13:                              # %if.end30
                                        #   in Loop: Header=BB58_1 Depth=1
	movq	-24(%rbp), %rax
	cmpl	$2, 12(%rax)
	jne	.LBB58_24
# %bb.14:                               # %if.then34
                                        #   in Loop: Header=BB58_1 Depth=1
	movq	-24(%rbp), %rdi
	callq	copy_input_until_stop
	movzbl	%al, %eax
	movzbl	-10(%rbp), %ecx
	orl	%eax, %ecx
	movb	%cl, -10(%rbp)
	movq	-24(%rbp), %rax
	cmpl	$2, 8(%rax)
	je	.LBB58_17
# %bb.15:                               # %land.lhs.true43
                                        #   in Loop: Header=BB58_1 Depth=1
	movq	-24(%rbp), %rax
	cmpl	$0, 16(%rax)
	jne	.LBB58_17
# %bb.16:                               # %if.then47
                                        #   in Loop: Header=BB58_1 Depth=1
	movq	-24(%rbp), %rdi
	callq	flush_RL
	movq	-24(%rbp), %rdi
	movq	-24(%rbp), %rax
	cmpl	$4, 8(%rax)
	sete	%al
	andb	$1, %al
	movzbl	%al, %eax
	movzbl	%al, %esi
	callq	BZ2_compressBlock
	movq	-24(%rbp), %rax
	movl	$1, 12(%rax)
	jmp	.LBB58_23
.LBB58_17:                              # %if.else
                                        #   in Loop: Header=BB58_1 Depth=1
	movq	-24(%rbp), %rax
	movl	108(%rax), %eax
	movq	-24(%rbp), %rcx
	cmpl	112(%rcx), %eax
	jl	.LBB58_19
# %bb.18:                               # %if.then55
                                        #   in Loop: Header=BB58_1 Depth=1
	movq	-24(%rbp), %rdi
	xorl	%esi, %esi
	callq	BZ2_compressBlock
	movq	-24(%rbp), %rax
	movl	$1, 12(%rax)
	jmp	.LBB58_22
.LBB58_19:                              # %if.else57
                                        #   in Loop: Header=BB58_1 Depth=1
	movq	-24(%rbp), %rax
	movq	(%rax), %rax
	cmpl	$0, 8(%rax)
	jne	.LBB58_21
# %bb.20:                               # %if.then61
	jmp	.LBB58_25
.LBB58_21:                              # %if.end62
                                        #   in Loop: Header=BB58_1 Depth=1
	jmp	.LBB58_22
.LBB58_22:                              # %if.end63
                                        #   in Loop: Header=BB58_1 Depth=1
	jmp	.LBB58_23
.LBB58_23:                              # %if.end64
                                        #   in Loop: Header=BB58_1 Depth=1
	jmp	.LBB58_24
.LBB58_24:                              # %if.end65
                                        #   in Loop: Header=BB58_1 Depth=1
	jmp	.LBB58_1
.LBB58_25:                              # %while.end
	movzbl	-10(%rbp), %eax
	cmpl	$0, %eax
	movb	$1, %al
	jne	.LBB58_27
# %bb.26:                               # %lor.rhs
	movzbl	-9(%rbp), %eax
	cmpl	$0, %eax
	setne	%al
.LBB58_27:                              # %lor.end
	andb	$1, %al
	movzbl	%al, %ebx
	cmpl	$667223613, -28(%rbp)   # imm = 0x27C5063D
	jne	.LBB58_29
.LBB58_28:
	movzbl	%bl, %eax
	addq	$40, %rsp
	popq	%rbx
	popq	%rbp
	.cfi_def_cfa %rsp, 8
	retq
.LBB58_29:                              # %func_exit
	.cfi_def_cfa %rbp, 16
	callq	detect_breach
	jmp	.LBB58_28
.Lfunc_end58:
	.size	handle_compress.18, .Lfunc_end58-handle_compress.18
	.cfi_endproc
                                        # -- End function
	.globl	BZ2_bzDecompress.19     # -- Begin function BZ2_bzDecompress.19
	.p2align	4, 0x90
	.type	BZ2_bzDecompress.19,@function
BZ2_bzDecompress.19:                    # @BZ2_bzDecompress.19
	.cfi_startproc
# %bb.0:                                # %entry
	pushq	%rbp
	.cfi_def_cfa_offset 16
	.cfi_offset %rbp, -16
	movq	%rsp, %rbp
	.cfi_def_cfa_register %rbp
	pushq	%rbx
	subq	$40, %rsp
	.cfi_offset %rbx, -24
	movl	$1083483973, -44(%rbp)  # imm = 0x4094A745
	movq	%rdi, -40(%rbp)
	cmpq	$0, -40(%rbp)
	jne	.LBB59_2
# %bb.1:                                # %if.then
	movl	$-2, -24(%rbp)
	jmp	.LBB59_37
.LBB59_2:                               # %if.end
	movq	-40(%rbp), %rax
	movq	48(%rax), %rax
	movq	%rax, -16(%rbp)
	cmpq	$0, -16(%rbp)
	jne	.LBB59_4
# %bb.3:                                # %if.then2
	movl	$-2, -24(%rbp)
	jmp	.LBB59_37
.LBB59_4:                               # %if.end3
	movq	-16(%rbp), %rax
	movq	(%rax), %rax
	cmpq	-40(%rbp), %rax
	je	.LBB59_6
# %bb.5:                                # %if.then6
	movl	$-2, -24(%rbp)
	jmp	.LBB59_37
.LBB59_6:                               # %if.end7
	jmp	.LBB59_7
.LBB59_7:                               # %while.body
                                        # =>This Inner Loop Header: Depth=1
	movq	-16(%rbp), %rax
	cmpl	$1, 8(%rax)
	jne	.LBB59_9
# %bb.8:                                # %if.then10
	movl	$-1, -24(%rbp)
	jmp	.LBB59_37
.LBB59_9:                               # %if.end11
                                        #   in Loop: Header=BB59_7 Depth=1
	movq	-16(%rbp), %rax
	cmpl	$2, 8(%rax)
	jne	.LBB59_26
# %bb.10:                               # %if.then14
                                        #   in Loop: Header=BB59_7 Depth=1
	movq	-16(%rbp), %rax
	cmpb	$0, 44(%rax)
	je	.LBB59_12
# %bb.11:                               # %if.then15
                                        #   in Loop: Header=BB59_7 Depth=1
	movq	-16(%rbp), %rdi
	callq	unRLE_obuf_to_output_SMALL
	movb	%al, -17(%rbp)
	jmp	.LBB59_13
.LBB59_12:                              # %if.else
                                        #   in Loop: Header=BB59_7 Depth=1
	movq	-16(%rbp), %rdi
	callq	unRLE_obuf_to_output_FAST
	movb	%al, -17(%rbp)
.LBB59_13:                              # %if.end17
                                        #   in Loop: Header=BB59_7 Depth=1
	cmpb	$0, -17(%rbp)
	je	.LBB59_15
# %bb.14:                               # %if.then19
	movl	$-4, -24(%rbp)
	jmp	.LBB59_37
.LBB59_15:                              # %if.end20
                                        #   in Loop: Header=BB59_7 Depth=1
	movq	-16(%rbp), %rax
	movl	1092(%rax), %eax
	movq	-16(%rbp), %rcx
	movl	64080(%rcx), %ecx
	addl	$1, %ecx
	cmpl	%ecx, %eax
	jne	.LBB59_24
# %bb.16:                               # %land.lhs.true
                                        #   in Loop: Header=BB59_7 Depth=1
	movq	-16(%rbp), %rax
	cmpl	$0, 16(%rax)
	jne	.LBB59_24
# %bb.17:                               # %if.then23
                                        #   in Loop: Header=BB59_7 Depth=1
	movq	-16(%rbp), %rax
	movl	3184(%rax), %eax
	xorl	$-1, %eax
	movq	-16(%rbp), %rcx
	movl	%eax, 3184(%rcx)
	movq	-16(%rbp), %rax
	cmpl	$3, 52(%rax)
	jl	.LBB59_19
# %bb.18:                               # %if.then26
                                        #   in Loop: Header=BB59_7 Depth=1
	movq	stderr, %rdi
	movq	-16(%rbp), %rax
	movl	3176(%rax), %edx
	movq	-16(%rbp), %rax
	movl	3184(%rax), %ecx
	movabsq	$.L.str.2, %rsi
	movb	$0, %al
	callq	fprintf
.LBB59_19:                              # %if.end29
                                        #   in Loop: Header=BB59_7 Depth=1
	movq	-16(%rbp), %rax
	cmpl	$2, 52(%rax)
	jl	.LBB59_21
# %bb.20:                               # %if.then32
                                        #   in Loop: Header=BB59_7 Depth=1
	movq	stderr, %rdi
	movabsq	$.L.str.3, %rsi
	movb	$0, %al
	callq	fprintf
.LBB59_21:                              # %if.end34
                                        #   in Loop: Header=BB59_7 Depth=1
	movq	-16(%rbp), %rax
	movl	3184(%rax), %eax
	movq	-16(%rbp), %rcx
	cmpl	3176(%rcx), %eax
	je	.LBB59_23
# %bb.22:                               # %if.then38
	movl	$-4, -24(%rbp)
	jmp	.LBB59_37
.LBB59_23:                              # %if.end39
                                        #   in Loop: Header=BB59_7 Depth=1
	movq	-16(%rbp), %rax
	movl	3188(%rax), %eax
	shll	$1, %eax
	movq	-16(%rbp), %rcx
	movl	3188(%rcx), %ecx
	shrl	$31, %ecx
	orl	%ecx, %eax
	movq	-16(%rbp), %rcx
	movl	%eax, 3188(%rcx)
	movq	-16(%rbp), %rax
	movl	3184(%rax), %eax
	movq	-16(%rbp), %rcx
	xorl	3188(%rcx), %eax
	movl	%eax, 3188(%rcx)
	movq	-16(%rbp), %rax
	movl	$14, 8(%rax)
	jmp	.LBB59_25
.LBB59_24:                              # %if.else45
	movl	$0, -24(%rbp)
	jmp	.LBB59_37
.LBB59_25:                              # %if.end46
                                        #   in Loop: Header=BB59_7 Depth=1
	jmp	.LBB59_26
.LBB59_26:                              # %if.end47
                                        #   in Loop: Header=BB59_7 Depth=1
	movq	-16(%rbp), %rax
	cmpl	$10, 8(%rax)
	jl	.LBB59_36
# %bb.27:                               # %if.then50
                                        #   in Loop: Header=BB59_7 Depth=1
	movq	-16(%rbp), %rdi
	callq	BZ2_decompress
	movl	%eax, -28(%rbp)
	cmpl	$4, -28(%rbp)
	jne	.LBB59_33
# %bb.28:                               # %if.then53
	movq	-16(%rbp), %rax
	cmpl	$3, 52(%rax)
	jl	.LBB59_30
# %bb.29:                               # %if.then56
	movq	stderr, %rdi
	movq	-16(%rbp), %rax
	movl	3180(%rax), %edx
	movq	-16(%rbp), %rax
	movl	3188(%rax), %ecx
	movabsq	$.L.str.4, %rsi
	movb	$0, %al
	callq	fprintf
.LBB59_30:                              # %if.end59
	movq	-16(%rbp), %rax
	movl	3188(%rax), %eax
	movq	-16(%rbp), %rcx
	cmpl	3180(%rcx), %eax
	je	.LBB59_32
# %bb.31:                               # %if.then63
	movl	$-4, -24(%rbp)
	jmp	.LBB59_37
.LBB59_32:                              # %if.end64
	movl	-28(%rbp), %eax
	movl	%eax, -24(%rbp)
	jmp	.LBB59_37
.LBB59_33:                              # %if.end65
                                        #   in Loop: Header=BB59_7 Depth=1
	movq	-16(%rbp), %rax
	cmpl	$2, 8(%rax)
	je	.LBB59_35
# %bb.34:                               # %if.then68
	movl	-28(%rbp), %eax
	movl	%eax, -24(%rbp)
	jmp	.LBB59_37
.LBB59_35:                              # %if.end69
                                        #   in Loop: Header=BB59_7 Depth=1
	jmp	.LBB59_36
.LBB59_36:                              # %if.end70
                                        #   in Loop: Header=BB59_7 Depth=1
	jmp	.LBB59_7
.LBB59_37:                              # %return
	movl	-24(%rbp), %ebx
	cmpl	$1083483973, -44(%rbp)  # imm = 0x4094A745
	jne	.LBB59_39
.LBB59_38:
	movl	%ebx, %eax
	addq	$40, %rsp
	popq	%rbx
	popq	%rbp
	.cfi_def_cfa %rsp, 8
	retq
.LBB59_39:                              # %func_exit
	.cfi_def_cfa %rbp, 16
	callq	detect_breach
	jmp	.LBB59_38
.Lfunc_end59:
	.size	BZ2_bzDecompress.19, .Lfunc_end59-BZ2_bzDecompress.19
	.cfi_endproc
                                        # -- End function
	.p2align	4, 0x90         # -- Begin function copy_output_until_stop.20
	.type	copy_output_until_stop.20,@function
copy_output_until_stop.20:              # @copy_output_until_stop.20
	.cfi_startproc
# %bb.0:                                # %entry
	pushq	%rbp
	.cfi_def_cfa_offset 16
	.cfi_offset %rbp, -16
	movq	%rsp, %rbp
	.cfi_def_cfa_register %rbp
	pushq	%rbx
	subq	$24, %rsp
	.cfi_offset %rbx, -24
	movl	$1383767629, -28(%rbp)  # imm = 0x527A9E4D
	movq	%rdi, -24(%rbp)
	movb	$0, -9(%rbp)
.LBB60_1:                               # %while.body
                                        # =>This Inner Loop Header: Depth=1
	movq	-24(%rbp), %rax
	movq	(%rax), %rax
	cmpl	$0, 32(%rax)
	jne	.LBB60_3
# %bb.2:                                # %if.then
	jmp	.LBB60_8
.LBB60_3:                               # %if.end
                                        #   in Loop: Header=BB60_1 Depth=1
	movq	-24(%rbp), %rax
	movl	120(%rax), %eax
	movq	-24(%rbp), %rcx
	cmpl	116(%rcx), %eax
	jl	.LBB60_5
# %bb.4:                                # %if.then2
	jmp	.LBB60_8
.LBB60_5:                               # %if.end3
                                        #   in Loop: Header=BB60_1 Depth=1
	movb	$1, -9(%rbp)
	movq	-24(%rbp), %rax
	movq	80(%rax), %rax
	movq	-24(%rbp), %rcx
	movslq	120(%rcx), %rcx
	movb	(%rax,%rcx), %al
	movq	-24(%rbp), %rcx
	movq	(%rcx), %rcx
	movq	24(%rcx), %rcx
	movb	%al, (%rcx)
	movq	-24(%rbp), %rax
	movl	120(%rax), %ecx
	addl	$1, %ecx
	movl	%ecx, 120(%rax)
	movq	-24(%rbp), %rax
	movq	(%rax), %rax
	movl	32(%rax), %ecx
	addl	$-1, %ecx
	movl	%ecx, 32(%rax)
	movq	-24(%rbp), %rax
	movq	(%rax), %rax
	movq	24(%rax), %rcx
	addq	$1, %rcx
	movq	%rcx, 24(%rax)
	movq	-24(%rbp), %rax
	movq	(%rax), %rax
	movl	36(%rax), %ecx
	addl	$1, %ecx
	movl	%ecx, 36(%rax)
	movq	-24(%rbp), %rax
	movq	(%rax), %rax
	cmpl	$0, 36(%rax)
	jne	.LBB60_7
# %bb.6:                                # %if.then16
                                        #   in Loop: Header=BB60_1 Depth=1
	movq	-24(%rbp), %rax
	movq	(%rax), %rax
	movl	40(%rax), %ecx
	addl	$1, %ecx
	movl	%ecx, 40(%rax)
.LBB60_7:                               # %if.end19
                                        #   in Loop: Header=BB60_1 Depth=1
	jmp	.LBB60_1
.LBB60_8:                               # %while.end
	movb	-9(%rbp), %bl
	cmpl	$1383767629, -28(%rbp)  # imm = 0x527A9E4D
	jne	.LBB60_10
.LBB60_9:
	movzbl	%bl, %eax
	addq	$24, %rsp
	popq	%rbx
	popq	%rbp
	.cfi_def_cfa %rsp, 8
	retq
.LBB60_10:                              # %func_exit
	.cfi_def_cfa %rbp, 16
	callq	detect_breach
	jmp	.LBB60_9
.Lfunc_end60:
	.size	copy_output_until_stop.20, .Lfunc_end60-copy_output_until_stop.20
	.cfi_endproc
                                        # -- End function
	.p2align	4, 0x90         # -- Begin function handle_compress.21
	.type	handle_compress.21,@function
handle_compress.21:                     # @handle_compress.21
	.cfi_startproc
# %bb.0:                                # %entry
	pushq	%rbp
	.cfi_def_cfa_offset 16
	.cfi_offset %rbp, -16
	movq	%rsp, %rbp
	.cfi_def_cfa_register %rbp
	pushq	%rbx
	subq	$40, %rsp
	.cfi_offset %rbx, -24
	movl	$97987111, -28(%rbp)    # imm = 0x5D72A27
	movq	%rdi, -40(%rbp)
	movb	$0, -10(%rbp)
	movb	$0, -9(%rbp)
	movq	-40(%rbp), %rax
	movq	48(%rax), %rax
	movq	%rax, -24(%rbp)
.LBB61_1:                               # %while.body
                                        # =>This Inner Loop Header: Depth=1
	movq	-24(%rbp), %rax
	cmpl	$1, 12(%rax)
	jne	.LBB61_13
# %bb.2:                                # %if.then
                                        #   in Loop: Header=BB61_1 Depth=1
	movq	-24(%rbp), %rdi
	callq	copy_output_until_stop
	movzbl	%al, %eax
	movzbl	-9(%rbp), %ecx
	orl	%eax, %ecx
	movb	%cl, -9(%rbp)
	movq	-24(%rbp), %rax
	movl	120(%rax), %eax
	movq	-24(%rbp), %rcx
	cmpl	116(%rcx), %eax
	jge	.LBB61_4
# %bb.3:                                # %if.then6
	jmp	.LBB61_25
.LBB61_4:                               # %if.end
                                        #   in Loop: Header=BB61_1 Depth=1
	movq	-24(%rbp), %rax
	cmpl	$4, 8(%rax)
	jne	.LBB61_8
# %bb.5:                                # %land.lhs.true
                                        #   in Loop: Header=BB61_1 Depth=1
	movq	-24(%rbp), %rax
	cmpl	$0, 16(%rax)
	jne	.LBB61_8
# %bb.6:                                # %land.lhs.true11
                                        #   in Loop: Header=BB61_1 Depth=1
	movq	-24(%rbp), %rdi
	callq	isempty_RL
	movzbl	%al, %eax
	cmpl	$0, %eax
	je	.LBB61_8
# %bb.7:                                # %if.then14
	jmp	.LBB61_25
.LBB61_8:                               # %if.end15
                                        #   in Loop: Header=BB61_1 Depth=1
	movq	-24(%rbp), %rdi
	callq	prepare_new_block
	movq	-24(%rbp), %rax
	movl	$2, 12(%rax)
	movq	-24(%rbp), %rax
	cmpl	$3, 8(%rax)
	jne	.LBB61_12
# %bb.9:                                # %land.lhs.true20
                                        #   in Loop: Header=BB61_1 Depth=1
	movq	-24(%rbp), %rax
	cmpl	$0, 16(%rax)
	jne	.LBB61_12
# %bb.10:                               # %land.lhs.true24
                                        #   in Loop: Header=BB61_1 Depth=1
	movq	-24(%rbp), %rdi
	callq	isempty_RL
	movzbl	%al, %eax
	cmpl	$0, %eax
	je	.LBB61_12
# %bb.11:                               # %if.then28
	jmp	.LBB61_25
.LBB61_12:                              # %if.end29
                                        #   in Loop: Header=BB61_1 Depth=1
	jmp	.LBB61_13
.LBB61_13:                              # %if.end30
                                        #   in Loop: Header=BB61_1 Depth=1
	movq	-24(%rbp), %rax
	cmpl	$2, 12(%rax)
	jne	.LBB61_24
# %bb.14:                               # %if.then34
                                        #   in Loop: Header=BB61_1 Depth=1
	movq	-24(%rbp), %rdi
	callq	copy_input_until_stop
	movzbl	%al, %eax
	movzbl	-10(%rbp), %ecx
	orl	%eax, %ecx
	movb	%cl, -10(%rbp)
	movq	-24(%rbp), %rax
	cmpl	$2, 8(%rax)
	je	.LBB61_17
# %bb.15:                               # %land.lhs.true43
                                        #   in Loop: Header=BB61_1 Depth=1
	movq	-24(%rbp), %rax
	cmpl	$0, 16(%rax)
	jne	.LBB61_17
# %bb.16:                               # %if.then47
                                        #   in Loop: Header=BB61_1 Depth=1
	movq	-24(%rbp), %rdi
	callq	flush_RL
	movq	-24(%rbp), %rdi
	movq	-24(%rbp), %rax
	cmpl	$4, 8(%rax)
	sete	%al
	andb	$1, %al
	movzbl	%al, %eax
	movzbl	%al, %esi
	callq	BZ2_compressBlock
	movq	-24(%rbp), %rax
	movl	$1, 12(%rax)
	jmp	.LBB61_23
.LBB61_17:                              # %if.else
                                        #   in Loop: Header=BB61_1 Depth=1
	movq	-24(%rbp), %rax
	movl	108(%rax), %eax
	movq	-24(%rbp), %rcx
	cmpl	112(%rcx), %eax
	jl	.LBB61_19
# %bb.18:                               # %if.then55
                                        #   in Loop: Header=BB61_1 Depth=1
	movq	-24(%rbp), %rdi
	xorl	%esi, %esi
	callq	BZ2_compressBlock
	movq	-24(%rbp), %rax
	movl	$1, 12(%rax)
	jmp	.LBB61_22
.LBB61_19:                              # %if.else57
                                        #   in Loop: Header=BB61_1 Depth=1
	movq	-24(%rbp), %rax
	movq	(%rax), %rax
	cmpl	$0, 8(%rax)
	jne	.LBB61_21
# %bb.20:                               # %if.then61
	jmp	.LBB61_25
.LBB61_21:                              # %if.end62
                                        #   in Loop: Header=BB61_1 Depth=1
	jmp	.LBB61_22
.LBB61_22:                              # %if.end63
                                        #   in Loop: Header=BB61_1 Depth=1
	jmp	.LBB61_23
.LBB61_23:                              # %if.end64
                                        #   in Loop: Header=BB61_1 Depth=1
	jmp	.LBB61_24
.LBB61_24:                              # %if.end65
                                        #   in Loop: Header=BB61_1 Depth=1
	jmp	.LBB61_1
.LBB61_25:                              # %while.end
	movzbl	-10(%rbp), %eax
	cmpl	$0, %eax
	movb	$1, %al
	jne	.LBB61_27
# %bb.26:                               # %lor.rhs
	movzbl	-9(%rbp), %eax
	cmpl	$0, %eax
	setne	%al
.LBB61_27:                              # %lor.end
	andb	$1, %al
	movzbl	%al, %ebx
	cmpl	$97987111, -28(%rbp)    # imm = 0x5D72A27
	jne	.LBB61_29
.LBB61_28:
	movzbl	%bl, %eax
	addq	$40, %rsp
	popq	%rbx
	popq	%rbp
	.cfi_def_cfa %rsp, 8
	retq
.LBB61_29:                              # %func_exit
	.cfi_def_cfa %rbp, 16
	callq	detect_breach
	jmp	.LBB61_28
.Lfunc_end61:
	.size	handle_compress.21, .Lfunc_end61-handle_compress.21
	.cfi_endproc
                                        # -- End function
	.p2align	4, 0x90         # -- Begin function bzopen_or_bzdopen.22
	.type	bzopen_or_bzdopen.22,@function
bzopen_or_bzdopen.22:                   # @bzopen_or_bzdopen.22
	.cfi_startproc
# %bb.0:                                # %entry
	pushq	%rbp
	.cfi_def_cfa_offset 16
	.cfi_offset %rbp, -16
	movq	%rsp, %rbp
	.cfi_def_cfa_register %rbp
	pushq	%rbx
	subq	$5096, %rsp             # imm = 0x13E8
	.cfi_offset %rbx, -24
	movl	$428954544, -68(%rbp)   # imm = 0x199153B0
	movq	%rdi, -64(%rbp)
	movl	%esi, -80(%rbp)
	movq	%rdx, -32(%rbp)
	movl	%ecx, -84(%rbp)
	movl	$9, -12(%rbp)
	movl	$0, -16(%rbp)
	leaq	-98(%rbp), %rdi
	xorl	%esi, %esi
	movl	$10, %edx
	callq	memset
	movq	$0, -24(%rbp)
	movq	$0, -56(%rbp)
	movl	$0, -40(%rbp)
	movl	$30, -76(%rbp)
	movl	$0, -36(%rbp)
	movl	$0, -88(%rbp)
	cmpq	$0, -32(%rbp)
	jne	.LBB62_2
# %bb.1:                                # %if.then
	movq	$0, -48(%rbp)
	jmp	.LBB62_39
.LBB62_2:                               # %if.end
	jmp	.LBB62_3
.LBB62_3:                               # %while.cond
                                        # =>This Inner Loop Header: Depth=1
	movq	-32(%rbp), %rax
	cmpb	$0, (%rax)
	je	.LBB62_14
# %bb.4:                                # %while.body
                                        #   in Loop: Header=BB62_3 Depth=1
	movq	-32(%rbp), %rax
	movsbl	(%rax), %eax
	movl	%eax, %ecx
	subl	$114, %ecx
	je	.LBB62_7
	jmp	.LBB62_5
.LBB62_5:                               # %while.body
                                        #   in Loop: Header=BB62_3 Depth=1
	movl	%eax, %ecx
	subl	$115, %ecx
	je	.LBB62_9
	jmp	.LBB62_6
.LBB62_6:                               # %while.body
                                        #   in Loop: Header=BB62_3 Depth=1
	subl	$119, %eax
	je	.LBB62_8
	jmp	.LBB62_10
.LBB62_7:                               # %sw.bb
                                        #   in Loop: Header=BB62_3 Depth=1
	movl	$0, -16(%rbp)
	jmp	.LBB62_13
.LBB62_8:                               # %sw.bb1
                                        #   in Loop: Header=BB62_3 Depth=1
	movl	$1, -16(%rbp)
	jmp	.LBB62_13
.LBB62_9:                               # %sw.bb2
                                        #   in Loop: Header=BB62_3 Depth=1
	movl	$1, -36(%rbp)
	jmp	.LBB62_13
.LBB62_10:                              # %sw.default
                                        #   in Loop: Header=BB62_3 Depth=1
	callq	__ctype_b_loc
	movq	(%rax), %rax
	movq	-32(%rbp), %rcx
	movsbl	(%rcx), %ecx
	movslq	%ecx, %rcx
	movzwl	(%rax,%rcx,2), %eax
	andl	$2048, %eax             # imm = 0x800
	cmpl	$0, %eax
	je	.LBB62_12
# %bb.11:                               # %if.then6
                                        #   in Loop: Header=BB62_3 Depth=1
	movq	-32(%rbp), %rax
	movsbl	(%rax), %eax
	subl	$48, %eax
	movl	%eax, -12(%rbp)
.LBB62_12:                              # %if.end8
                                        #   in Loop: Header=BB62_3 Depth=1
	jmp	.LBB62_13
.LBB62_13:                              # %sw.epilog
                                        #   in Loop: Header=BB62_3 Depth=1
	movq	-32(%rbp), %rax
	addq	$1, %rax
	movq	%rax, -32(%rbp)
	jmp	.LBB62_3
.LBB62_14:                              # %while.end
	leaq	-98(%rbp), %rdi
	movl	-16(%rbp), %eax
	cmpl	$0, %eax
	movabsq	$.L.str.6, %rax
	movabsq	$.L.str.7, %rsi
	cmovneq	%rax, %rsi
	callq	strcat
	leaq	-98(%rbp), %rdi
	movabsq	$.L.str.8, %rsi
	callq	strcat
	cmpl	$0, -84(%rbp)
	jne	.LBB62_23
# %bb.15:                               # %if.then15
	cmpq	$0, -64(%rbp)
	je	.LBB62_17
# %bb.16:                               # %lor.lhs.false
	movq	-64(%rbp), %rdi
	movl	$.L.str.9, %esi
	callq	strcmp
	cmpl	$0, %eax
	jne	.LBB62_21
.LBB62_17:                              # %if.then21
	cmpl	$0, -16(%rbp)
	je	.LBB62_19
# %bb.18:                               # %cond.true
	movq	stdout, %rax
	jmp	.LBB62_20
.LBB62_19:                              # %cond.false
	movq	stdin, %rax
.LBB62_20:                              # %cond.end
	movq	%rax, -24(%rbp)
	jmp	.LBB62_22
.LBB62_21:                              # %if.else
	leaq	-98(%rbp), %rsi
	movq	-64(%rbp), %rdi
	callq	fopen
	movq	%rax, -24(%rbp)
.LBB62_22:                              # %if.end26
	jmp	.LBB62_24
.LBB62_23:                              # %if.else27
	leaq	-98(%rbp), %rsi
	movl	-80(%rbp), %edi
	callq	fdopen
	movq	%rax, -24(%rbp)
.LBB62_24:                              # %if.end30
	cmpq	$0, -24(%rbp)
	jne	.LBB62_26
# %bb.25:                               # %if.then33
	movq	$0, -48(%rbp)
	jmp	.LBB62_39
.LBB62_26:                              # %if.end34
	cmpl	$0, -16(%rbp)
	je	.LBB62_32
# %bb.27:                               # %if.then36
	cmpl	$1, -12(%rbp)
	jge	.LBB62_29
# %bb.28:                               # %if.then39
	movl	$1, -12(%rbp)
.LBB62_29:                              # %if.end40
	cmpl	$9, -12(%rbp)
	jle	.LBB62_31
# %bb.30:                               # %if.then43
	movl	$9, -12(%rbp)
.LBB62_31:                              # %if.end44
	movq	-24(%rbp), %rsi
	movl	-12(%rbp), %edx
	movl	-40(%rbp), %ecx
	movl	-76(%rbp), %r8d
	leaq	-72(%rbp), %rdi
	callq	BZ2_bzWriteOpen
	movq	%rax, -56(%rbp)
	jmp	.LBB62_33
.LBB62_32:                              # %if.else46
	leaq	-5104(%rbp), %r8
	movq	-24(%rbp), %rsi
	movl	-40(%rbp), %edx
	movl	-36(%rbp), %ecx
	movl	-88(%rbp), %r9d
	leaq	-72(%rbp), %rdi
	callq	BZ2_bzReadOpen
	movq	%rax, -56(%rbp)
.LBB62_33:                              # %if.end49
	cmpq	$0, -56(%rbp)
	jne	.LBB62_38
# %bb.34:                               # %if.then52
	movq	-24(%rbp), %rax
	cmpq	stdin, %rax
	je	.LBB62_37
# %bb.35:                               # %land.lhs.true
	movq	-24(%rbp), %rax
	cmpq	stdout, %rax
	je	.LBB62_37
# %bb.36:                               # %if.then57
	movq	-24(%rbp), %rdi
	callq	fclose
.LBB62_37:                              # %if.end59
	movq	$0, -48(%rbp)
	jmp	.LBB62_39
.LBB62_38:                              # %if.end60
	movq	-56(%rbp), %rax
	movq	%rax, -48(%rbp)
.LBB62_39:                              # %return
	movq	-48(%rbp), %rbx
	cmpl	$428954544, -68(%rbp)   # imm = 0x199153B0
	jne	.LBB62_41
.LBB62_40:
	movq	%rbx, %rax
	addq	$5096, %rsp             # imm = 0x13E8
	popq	%rbx
	popq	%rbp
	.cfi_def_cfa %rsp, 8
	retq
.LBB62_41:                              # %func_exit
	.cfi_def_cfa %rbp, 16
	callq	detect_breach
	jmp	.LBB62_40
.Lfunc_end62:
	.size	bzopen_or_bzdopen.22, .Lfunc_end62-bzopen_or_bzdopen.22
	.cfi_endproc
                                        # -- End function
	.globl	BZ2_bzBuffToBuffDecompress.23 # -- Begin function BZ2_bzBuffToBuffDecompress.23
	.p2align	4, 0x90
	.type	BZ2_bzBuffToBuffDecompress.23,@function
BZ2_bzBuffToBuffDecompress.23:          # @BZ2_bzBuffToBuffDecompress.23
	.cfi_startproc
# %bb.0:                                # %entry
	pushq	%rbp
	.cfi_def_cfa_offset 16
	.cfi_offset %rbp, -16
	movq	%rsp, %rbp
	.cfi_def_cfa_register %rbp
	pushq	%rbx
	subq	$136, %rsp
	.cfi_offset %rbx, -24
	movl	$2112897084, -40(%rbp)  # imm = 0x7DF0403C
	movq	%rdi, -48(%rbp)
	movq	%rsi, -32(%rbp)
	movq	%rdx, -56(%rbp)
	movl	%ecx, -36(%rbp)
	movl	%r8d, -20(%rbp)
	movl	%r9d, -24(%rbp)
	cmpq	$0, -48(%rbp)
	je	.LBB63_7
# %bb.1:                                # %lor.lhs.false
	cmpq	$0, -32(%rbp)
	je	.LBB63_7
# %bb.2:                                # %lor.lhs.false2
	cmpq	$0, -56(%rbp)
	je	.LBB63_7
# %bb.3:                                # %lor.lhs.false4
	cmpl	$0, -20(%rbp)
	je	.LBB63_5
# %bb.4:                                # %land.lhs.true
	cmpl	$1, -20(%rbp)
	jne	.LBB63_7
.LBB63_5:                               # %lor.lhs.false7
	cmpl	$0, -24(%rbp)
	jl	.LBB63_7
# %bb.6:                                # %lor.lhs.false9
	cmpl	$4, -24(%rbp)
	jle	.LBB63_8
.LBB63_7:                               # %if.then
	movl	$-2, -16(%rbp)
	jmp	.LBB63_19
.LBB63_8:                               # %if.end
	movq	$0, -80(%rbp)
	movq	$0, -72(%rbp)
	movq	$0, -64(%rbp)
	movl	-24(%rbp), %esi
	movl	-20(%rbp), %edx
	leaq	-136(%rbp), %rdi
	callq	BZ2_bzDecompressInit
	movl	%eax, -12(%rbp)
	cmpl	$0, -12(%rbp)
	je	.LBB63_10
# %bb.9:                                # %if.then12
	movl	-12(%rbp), %eax
	movl	%eax, -16(%rbp)
	jmp	.LBB63_19
.LBB63_10:                              # %if.end13
	movq	-56(%rbp), %rax
	movq	%rax, -136(%rbp)
	movq	-48(%rbp), %rax
	movq	%rax, -112(%rbp)
	movl	-36(%rbp), %eax
	movl	%eax, -128(%rbp)
	movq	-32(%rbp), %rax
	movl	(%rax), %eax
	movl	%eax, -104(%rbp)
	leaq	-136(%rbp), %rdi
	callq	BZ2_bzDecompress
	movl	%eax, -12(%rbp)
	cmpl	$0, -12(%rbp)
	jne	.LBB63_12
# %bb.11:                               # %if.then16
	jmp	.LBB63_15
.LBB63_12:                              # %if.end17
	cmpl	$4, -12(%rbp)
	je	.LBB63_14
# %bb.13:                               # %if.then19
	jmp	.LBB63_18
.LBB63_14:                              # %if.end20
	movl	-104(%rbp), %eax
	movq	-32(%rbp), %rcx
	movl	(%rcx), %edx
	subl	%eax, %edx
	movl	%edx, (%rcx)
	leaq	-136(%rbp), %rdi
	callq	BZ2_bzDecompressEnd
	movl	$0, -16(%rbp)
	jmp	.LBB63_19
.LBB63_15:                              # %output_overflow_or_eof
	cmpl	$0, -104(%rbp)
	jbe	.LBB63_17
# %bb.16:                               # %if.then25
	leaq	-136(%rbp), %rdi
	callq	BZ2_bzDecompressEnd
	movl	$-7, -16(%rbp)
	jmp	.LBB63_19
.LBB63_17:                              # %if.else
	leaq	-136(%rbp), %rdi
	callq	BZ2_bzDecompressEnd
	movl	$-8, -16(%rbp)
	jmp	.LBB63_19
.LBB63_18:                              # %errhandler
	leaq	-136(%rbp), %rdi
	callq	BZ2_bzDecompressEnd
	movl	-12(%rbp), %eax
	movl	%eax, -16(%rbp)
.LBB63_19:                              # %return
	movl	-16(%rbp), %ebx
	cmpl	$2112897084, -40(%rbp)  # imm = 0x7DF0403C
	jne	.LBB63_21
.LBB63_20:
	movl	%ebx, %eax
	addq	$136, %rsp
	popq	%rbx
	popq	%rbp
	.cfi_def_cfa %rsp, 8
	retq
.LBB63_21:                              # %func_exit
	.cfi_def_cfa %rbp, 16
	callq	detect_breach
	jmp	.LBB63_20
.Lfunc_end63:
	.size	BZ2_bzBuffToBuffDecompress.23, .Lfunc_end63-BZ2_bzBuffToBuffDecompress.23
	.cfi_endproc
                                        # -- End function
	.globl	BZ2_bzRead.24           # -- Begin function BZ2_bzRead.24
	.p2align	4, 0x90
	.type	BZ2_bzRead.24,@function
BZ2_bzRead.24:                          # @BZ2_bzRead.24
	.cfi_startproc
# %bb.0:                                # %entry
	pushq	%rbp
	.cfi_def_cfa_offset 16
	.cfi_offset %rbp, -16
	movq	%rsp, %rbp
	.cfi_def_cfa_register %rbp
	pushq	%rbx
	subq	$56, %rsp
	.cfi_offset %rbx, -24
	movl	$824370297, -44(%rbp)   # imm = 0x3122E479
	movq	%rdi, -24(%rbp)
	movq	%rsi, -64(%rbp)
	movq	%rdx, -56(%rbp)
	movl	%ecx, -36(%rbp)
	movq	-64(%rbp), %rax
	movq	%rax, -16(%rbp)
	cmpq	$0, -24(%rbp)
	je	.LBB64_2
# %bb.1:                                # %if.then
	movq	-24(%rbp), %rax
	movl	$0, (%rax)
.LBB64_2:                               # %if.end
	cmpq	$0, -16(%rbp)
	je	.LBB64_4
# %bb.3:                                # %if.then2
	movq	-16(%rbp), %rax
	movl	$0, 5096(%rax)
.LBB64_4:                               # %if.end3
	cmpq	$0, -16(%rbp)
	je	.LBB64_7
# %bb.5:                                # %lor.lhs.false
	cmpq	$0, -56(%rbp)
	je	.LBB64_7
# %bb.6:                                # %lor.lhs.false6
	cmpl	$0, -36(%rbp)
	jge	.LBB64_12
.LBB64_7:                               # %if.then8
	cmpq	$0, -24(%rbp)
	je	.LBB64_9
# %bb.8:                                # %if.then10
	movq	-24(%rbp), %rax
	movl	$-2, (%rax)
.LBB64_9:                               # %if.end11
	cmpq	$0, -16(%rbp)
	je	.LBB64_11
# %bb.10:                               # %if.then13
	movq	-16(%rbp), %rax
	movl	$-2, 5096(%rax)
.LBB64_11:                              # %if.end15
	movl	$0, -28(%rbp)
	jmp	.LBB64_69
.LBB64_12:                              # %if.end16
	movq	-16(%rbp), %rax
	cmpb	$0, 5012(%rax)
	je	.LBB64_18
# %bb.13:                               # %if.then17
	cmpq	$0, -24(%rbp)
	je	.LBB64_15
# %bb.14:                               # %if.then19
	movq	-24(%rbp), %rax
	movl	$-1, (%rax)
.LBB64_15:                              # %if.end20
	cmpq	$0, -16(%rbp)
	je	.LBB64_17
# %bb.16:                               # %if.then22
	movq	-16(%rbp), %rax
	movl	$-1, 5096(%rax)
.LBB64_17:                              # %if.end24
	movl	$0, -28(%rbp)
	jmp	.LBB64_69
.LBB64_18:                              # %if.end25
	cmpl	$0, -36(%rbp)
	jne	.LBB64_24
# %bb.19:                               # %if.then27
	cmpq	$0, -24(%rbp)
	je	.LBB64_21
# %bb.20:                               # %if.then29
	movq	-24(%rbp), %rax
	movl	$0, (%rax)
.LBB64_21:                              # %if.end30
	cmpq	$0, -16(%rbp)
	je	.LBB64_23
# %bb.22:                               # %if.then32
	movq	-16(%rbp), %rax
	movl	$0, 5096(%rax)
.LBB64_23:                              # %if.end34
	movl	$0, -28(%rbp)
	jmp	.LBB64_69
.LBB64_24:                              # %if.end35
	movl	-36(%rbp), %eax
	movq	-16(%rbp), %rcx
	movl	%eax, 5048(%rcx)
	movq	-56(%rbp), %rax
	movq	-16(%rbp), %rcx
	movq	%rax, 5040(%rcx)
.LBB64_25:                              # %while.body
                                        # =>This Inner Loop Header: Depth=1
	movq	-16(%rbp), %rax
	movq	(%rax), %rdi
	callq	ferror
	cmpl	$0, %eax
	je	.LBB64_31
# %bb.26:                               # %if.then38
	cmpq	$0, -24(%rbp)
	je	.LBB64_28
# %bb.27:                               # %if.then40
	movq	-24(%rbp), %rax
	movl	$-6, (%rax)
.LBB64_28:                              # %if.end41
	cmpq	$0, -16(%rbp)
	je	.LBB64_30
# %bb.29:                               # %if.then43
	movq	-16(%rbp), %rax
	movl	$-6, 5096(%rax)
.LBB64_30:                              # %if.end45
	movl	$0, -28(%rbp)
	jmp	.LBB64_69
.LBB64_31:                              # %if.end46
                                        #   in Loop: Header=BB64_25 Depth=1
	movq	-16(%rbp), %rax
	cmpl	$0, 5024(%rax)
	jne	.LBB64_40
# %bb.32:                               # %land.lhs.true
                                        #   in Loop: Header=BB64_25 Depth=1
	movq	-16(%rbp), %rax
	movq	(%rax), %rdi
	callq	myfeof
	cmpb	$0, %al
	jne	.LBB64_40
# %bb.33:                               # %if.then52
                                        #   in Loop: Header=BB64_25 Depth=1
	movq	-16(%rbp), %rdi
	addq	$8, %rdi
	movq	-16(%rbp), %rax
	movq	(%rax), %rcx
	movl	$1, %esi
	movl	$5000, %edx             # imm = 0x1388
	callq	fread
	movl	%eax, -40(%rbp)
	movq	-16(%rbp), %rax
	movq	(%rax), %rdi
	callq	ferror
	cmpl	$0, %eax
	je	.LBB64_39
# %bb.34:                               # %if.then59
	cmpq	$0, -24(%rbp)
	je	.LBB64_36
# %bb.35:                               # %if.then62
	movq	-24(%rbp), %rax
	movl	$-6, (%rax)
.LBB64_36:                              # %if.end63
	cmpq	$0, -16(%rbp)
	je	.LBB64_38
# %bb.37:                               # %if.then66
	movq	-16(%rbp), %rax
	movl	$-6, 5096(%rax)
.LBB64_38:                              # %if.end68
	movl	$0, -28(%rbp)
	jmp	.LBB64_69
.LBB64_39:                              # %if.end69
                                        #   in Loop: Header=BB64_25 Depth=1
	movl	-40(%rbp), %eax
	movq	-16(%rbp), %rcx
	movl	%eax, 5008(%rcx)
	movq	-16(%rbp), %rax
	movl	5008(%rax), %eax
	movq	-16(%rbp), %rcx
	movl	%eax, 5024(%rcx)
	movq	-16(%rbp), %rax
	addq	$8, %rax
	movq	-16(%rbp), %rcx
	movq	%rax, 5016(%rcx)
.LBB64_40:                              # %if.end76
                                        #   in Loop: Header=BB64_25 Depth=1
	movq	-16(%rbp), %rdi
	addq	$5016, %rdi             # imm = 0x1398
	callq	BZ2_bzDecompress
	movl	%eax, -32(%rbp)
	cmpl	$0, -32(%rbp)
	je	.LBB64_47
# %bb.41:                               # %land.lhs.true81
                                        #   in Loop: Header=BB64_25 Depth=1
	cmpl	$4, -32(%rbp)
	je	.LBB64_47
# %bb.42:                               # %if.then84
	cmpq	$0, -24(%rbp)
	je	.LBB64_44
# %bb.43:                               # %if.then87
	movl	-32(%rbp), %eax
	movq	-24(%rbp), %rcx
	movl	%eax, (%rcx)
.LBB64_44:                              # %if.end88
	cmpq	$0, -16(%rbp)
	je	.LBB64_46
# %bb.45:                               # %if.then91
	movl	-32(%rbp), %eax
	movq	-16(%rbp), %rcx
	movl	%eax, 5096(%rcx)
.LBB64_46:                              # %if.end93
	movl	$0, -28(%rbp)
	jmp	.LBB64_69
.LBB64_47:                              # %if.end94
                                        #   in Loop: Header=BB64_25 Depth=1
	cmpl	$0, -32(%rbp)
	jne	.LBB64_56
# %bb.48:                               # %land.lhs.true97
                                        #   in Loop: Header=BB64_25 Depth=1
	movq	-16(%rbp), %rax
	movq	(%rax), %rdi
	callq	myfeof
	movzbl	%al, %eax
	cmpl	$0, %eax
	je	.LBB64_56
# %bb.49:                               # %land.lhs.true102
                                        #   in Loop: Header=BB64_25 Depth=1
	movq	-16(%rbp), %rax
	cmpl	$0, 5024(%rax)
	jne	.LBB64_56
# %bb.50:                               # %land.lhs.true107
                                        #   in Loop: Header=BB64_25 Depth=1
	movq	-16(%rbp), %rax
	cmpl	$0, 5048(%rax)
	jbe	.LBB64_56
# %bb.51:                               # %if.then112
	cmpq	$0, -24(%rbp)
	je	.LBB64_53
# %bb.52:                               # %if.then115
	movq	-24(%rbp), %rax
	movl	$-7, (%rax)
.LBB64_53:                              # %if.end116
	cmpq	$0, -16(%rbp)
	je	.LBB64_55
# %bb.54:                               # %if.then119
	movq	-16(%rbp), %rax
	movl	$-7, 5096(%rax)
.LBB64_55:                              # %if.end121
	movl	$0, -28(%rbp)
	jmp	.LBB64_69
.LBB64_56:                              # %if.end122
                                        #   in Loop: Header=BB64_25 Depth=1
	cmpl	$4, -32(%rbp)
	jne	.LBB64_62
# %bb.57:                               # %if.then125
	cmpq	$0, -24(%rbp)
	je	.LBB64_59
# %bb.58:                               # %if.then128
	movq	-24(%rbp), %rax
	movl	$4, (%rax)
.LBB64_59:                              # %if.end129
	cmpq	$0, -16(%rbp)
	je	.LBB64_61
# %bb.60:                               # %if.then132
	movq	-16(%rbp), %rax
	movl	$4, 5096(%rax)
.LBB64_61:                              # %if.end134
	movl	-36(%rbp), %eax
	movq	-16(%rbp), %rcx
	subl	5048(%rcx), %eax
	movl	%eax, -28(%rbp)
	jmp	.LBB64_69
.LBB64_62:                              # %if.end137
                                        #   in Loop: Header=BB64_25 Depth=1
	movq	-16(%rbp), %rax
	cmpl	$0, 5048(%rax)
	jne	.LBB64_68
# %bb.63:                               # %if.then142
	cmpq	$0, -24(%rbp)
	je	.LBB64_65
# %bb.64:                               # %if.then145
	movq	-24(%rbp), %rax
	movl	$0, (%rax)
.LBB64_65:                              # %if.end146
	cmpq	$0, -16(%rbp)
	je	.LBB64_67
# %bb.66:                               # %if.then149
	movq	-16(%rbp), %rax
	movl	$0, 5096(%rax)
.LBB64_67:                              # %if.end151
	movl	-36(%rbp), %eax
	movl	%eax, -28(%rbp)
	jmp	.LBB64_69
.LBB64_68:                              # %if.end152
                                        #   in Loop: Header=BB64_25 Depth=1
	jmp	.LBB64_25
.LBB64_69:                              # %return
	movl	-28(%rbp), %ebx
	cmpl	$824370297, -44(%rbp)   # imm = 0x3122E479
	jne	.LBB64_71
.LBB64_70:
	movl	%ebx, %eax
	addq	$56, %rsp
	popq	%rbx
	popq	%rbp
	.cfi_def_cfa %rsp, 8
	retq
.LBB64_71:                              # %func_exit
	.cfi_def_cfa %rbp, 16
	callq	detect_breach
	jmp	.LBB64_70
.Lfunc_end64:
	.size	BZ2_bzRead.24, .Lfunc_end64-BZ2_bzRead.24
	.cfi_endproc
                                        # -- End function
	.p2align	4, 0x90         # -- Begin function default_bzalloc.25
	.type	default_bzalloc.25,@function
default_bzalloc.25:                     # @default_bzalloc.25
	.cfi_startproc
# %bb.0:                                # %entry
	pushq	%rbp
	.cfi_def_cfa_offset 16
	.cfi_offset %rbp, -16
	movq	%rsp, %rbp
	.cfi_def_cfa_register %rbp
	pushq	%rbx
	subq	$40, %rsp
	.cfi_offset %rbx, -24
	movl	$1373664261, -16(%rbp)  # imm = 0x51E07405
	movq	%rdi, -40(%rbp)
	movl	%esi, -12(%rbp)
	movl	%edx, -20(%rbp)
	movl	-12(%rbp), %eax
	imull	-20(%rbp), %eax
	movslq	%eax, %rdi
	callq	malloc
	movq	%rax, -32(%rbp)
	movq	-32(%rbp), %rbx
	cmpl	$1373664261, -16(%rbp)  # imm = 0x51E07405
	jne	.LBB65_2
.LBB65_1:
	movq	%rbx, %rax
	addq	$40, %rsp
	popq	%rbx
	popq	%rbp
	.cfi_def_cfa %rsp, 8
	retq
.LBB65_2:                               # %func_exit
	.cfi_def_cfa %rbp, 16
	callq	detect_breach
	jmp	.LBB65_1
.Lfunc_end65:
	.size	default_bzalloc.25, .Lfunc_end65-default_bzalloc.25
	.cfi_endproc
                                        # -- End function
	.globl	BZ2_bzclose.26          # -- Begin function BZ2_bzclose.26
	.p2align	4, 0x90
	.type	BZ2_bzclose.26,@function
BZ2_bzclose.26:                         # @BZ2_bzclose.26
	.cfi_startproc
# %bb.0:                                # %entry
	pushq	%rbp
	.cfi_def_cfa_offset 16
	.cfi_offset %rbp, -16
	movq	%rsp, %rbp
	.cfi_def_cfa_register %rbp
	subq	$32, %rsp
	movl	$81862621, -28(%rbp)    # imm = 0x4E11FDD
	movq	%rdi, -8(%rbp)
	movq	-8(%rbp), %rax
	movq	(%rax), %rax
	movq	%rax, -24(%rbp)
	cmpq	$0, -8(%rbp)
	jne	.LBB66_2
# %bb.1:                                # %if.then
	jmp	.LBB66_10
.LBB66_2:                               # %if.end
	movq	-8(%rbp), %rax
	cmpb	$0, 5012(%rax)
	je	.LBB66_6
# %bb.3:                                # %if.then1
	movq	-8(%rbp), %rsi
	leaq	-12(%rbp), %rdi
	xorl	%edx, %edx
	xorl	%ecx, %ecx
	xorl	%r8d, %r8d
	callq	BZ2_bzWriteClose
	cmpl	$0, -12(%rbp)
	je	.LBB66_5
# %bb.4:                                # %if.then3
	movq	-8(%rbp), %rsi
	xorl	%edi, %edi
	movl	$1, %edx
	xorl	%ecx, %ecx
	xorl	%r8d, %r8d
	callq	BZ2_bzWriteClose
.LBB66_5:                               # %if.end4
	jmp	.LBB66_7
.LBB66_6:                               # %if.else
	movq	-8(%rbp), %rsi
	leaq	-12(%rbp), %rdi
	callq	BZ2_bzReadClose
.LBB66_7:                               # %if.end5
	movq	-24(%rbp), %rax
	cmpq	stdin, %rax
	je	.LBB66_10
# %bb.8:                                # %land.lhs.true
	movq	-24(%rbp), %rax
	cmpq	stdout, %rax
	je	.LBB66_10
# %bb.9:                                # %if.then8
	movq	-24(%rbp), %rdi
	callq	fclose
.LBB66_10:                              # %if.end9
	cmpl	$81862621, -28(%rbp)    # imm = 0x4E11FDD
	jne	.LBB66_12
.LBB66_11:
	addq	$32, %rsp
	popq	%rbp
	.cfi_def_cfa %rsp, 8
	retq
.LBB66_12:                              # %func_exit
	.cfi_def_cfa %rbp, 16
	callq	detect_breach
	jmp	.LBB66_11
.Lfunc_end66:
	.size	BZ2_bzclose.26, .Lfunc_end66-BZ2_bzclose.26
	.cfi_endproc
                                        # -- End function
	.p2align	4, 0x90         # -- Begin function default_bzalloc.27
	.type	default_bzalloc.27,@function
default_bzalloc.27:                     # @default_bzalloc.27
	.cfi_startproc
# %bb.0:                                # %entry
	pushq	%rbp
	.cfi_def_cfa_offset 16
	.cfi_offset %rbp, -16
	movq	%rsp, %rbp
	.cfi_def_cfa_register %rbp
	pushq	%rbx
	subq	$40, %rsp
	.cfi_offset %rbx, -24
	movl	$553466818, -16(%rbp)   # imm = 0x20FD3BC2
	movq	%rdi, -40(%rbp)
	movl	%esi, -12(%rbp)
	movl	%edx, -20(%rbp)
	movl	-12(%rbp), %eax
	imull	-20(%rbp), %eax
	movslq	%eax, %rdi
	callq	malloc
	movq	%rax, -32(%rbp)
	movq	-32(%rbp), %rbx
	cmpl	$553466818, -16(%rbp)   # imm = 0x20FD3BC2
	jne	.LBB67_2
.LBB67_1:
	movq	%rbx, %rax
	addq	$40, %rsp
	popq	%rbx
	popq	%rbp
	.cfi_def_cfa %rsp, 8
	retq
.LBB67_2:                               # %func_exit
	.cfi_def_cfa %rbp, 16
	callq	detect_breach
	jmp	.LBB67_1
.Lfunc_end67:
	.size	default_bzalloc.27, .Lfunc_end67-default_bzalloc.27
	.cfi_endproc
                                        # -- End function
	.globl	BZ2_bzCompressInit.28   # -- Begin function BZ2_bzCompressInit.28
	.p2align	4, 0x90
	.type	BZ2_bzCompressInit.28,@function
BZ2_bzCompressInit.28:                  # @BZ2_bzCompressInit.28
	.cfi_startproc
# %bb.0:                                # %entry
	pushq	%rbp
	.cfi_def_cfa_offset 16
	.cfi_offset %rbp, -16
	movq	%rsp, %rbp
	.cfi_def_cfa_register %rbp
	pushq	%rbx
	subq	$40, %rsp
	.cfi_offset %rbx, -24
	movl	$531718584, -48(%rbp)   # imm = 0x1FB161B8
	movq	%rdi, -24(%rbp)
	movl	%esi, -32(%rbp)
	movl	%edx, -44(%rbp)
	movl	%ecx, -28(%rbp)
	callq	bz_config_ok
	cmpl	$0, %eax
	jne	.LBB68_2
# %bb.1:                                # %if.then
	movl	$-9, -36(%rbp)
	jmp	.LBB68_29
.LBB68_2:                               # %if.end
	cmpq	$0, -24(%rbp)
	je	.LBB68_7
# %bb.3:                                # %lor.lhs.false
	cmpl	$1, -32(%rbp)
	jl	.LBB68_7
# %bb.4:                                # %lor.lhs.false2
	cmpl	$9, -32(%rbp)
	jg	.LBB68_7
# %bb.5:                                # %lor.lhs.false4
	cmpl	$0, -28(%rbp)
	jl	.LBB68_7
# %bb.6:                                # %lor.lhs.false6
	cmpl	$250, -28(%rbp)
	jle	.LBB68_8
.LBB68_7:                               # %if.then8
	movl	$-2, -36(%rbp)
	jmp	.LBB68_29
.LBB68_8:                               # %if.end9
	cmpl	$0, -28(%rbp)
	jne	.LBB68_10
# %bb.9:                                # %if.then11
	movl	$30, -28(%rbp)
.LBB68_10:                              # %if.end12
	movq	-24(%rbp), %rax
	cmpq	$0, 56(%rax)
	jne	.LBB68_12
# %bb.11:                               # %if.then14
	movq	-24(%rbp), %rax
	movabsq	$default_bzalloc, %rcx
	movq	%rcx, 56(%rax)
.LBB68_12:                              # %if.end16
	movq	-24(%rbp), %rax
	cmpq	$0, 64(%rax)
	jne	.LBB68_14
# %bb.13:                               # %if.then18
	movq	-24(%rbp), %rax
	movabsq	$default_bzfree, %rcx
	movq	%rcx, 64(%rax)
.LBB68_14:                              # %if.end20
	movq	-24(%rbp), %rax
	movq	56(%rax), %rax
	movq	-24(%rbp), %rcx
	movq	72(%rcx), %rdi
	movl	$55768, %esi            # imm = 0xD9D8
	movl	$1, %edx
	callq	*%rax
	movq	%rax, -16(%rbp)
	cmpq	$0, -16(%rbp)
	jne	.LBB68_16
# %bb.15:                               # %if.then24
	movl	$-3, -36(%rbp)
	jmp	.LBB68_29
.LBB68_16:                              # %if.end25
	movq	-24(%rbp), %rax
	movq	-16(%rbp), %rcx
	movq	%rax, (%rcx)
	movq	-16(%rbp), %rax
	movq	$0, 24(%rax)
	movq	-16(%rbp), %rax
	movq	$0, 32(%rax)
	movq	-16(%rbp), %rax
	movq	$0, 40(%rax)
	imull	$100000, -32(%rbp), %eax # imm = 0x186A0
	movl	%eax, -40(%rbp)
	movq	-24(%rbp), %rax
	movq	56(%rax), %rax
	movq	-24(%rbp), %rcx
	movq	72(%rcx), %rdi
	movslq	-40(%rbp), %rsi
	shlq	$2, %rsi
                                        # kill: def $esi killed $esi killed $rsi
	movl	$1, %edx
	callq	*%rax
	movq	-16(%rbp), %rcx
	movq	%rax, 24(%rcx)
	movq	-24(%rbp), %rax
	movq	56(%rax), %rax
	movq	-24(%rbp), %rcx
	movq	72(%rcx), %rdi
	movl	-40(%rbp), %ecx
	addl	$34, %ecx
	movslq	%ecx, %rsi
	shlq	$2, %rsi
                                        # kill: def $esi killed $esi killed $rsi
	movl	$1, %edx
	callq	*%rax
	movq	-16(%rbp), %rcx
	movq	%rax, 32(%rcx)
	movq	-24(%rbp), %rax
	movq	56(%rax), %rax
	movq	-24(%rbp), %rcx
	movq	72(%rcx), %rdi
	movl	$262148, %esi           # imm = 0x40004
	movl	$1, %edx
	callq	*%rax
	movq	-16(%rbp), %rcx
	movq	%rax, 40(%rcx)
	movq	-16(%rbp), %rax
	cmpq	$0, 24(%rax)
	je	.LBB68_19
# %bb.17:                               # %lor.lhs.false47
	movq	-16(%rbp), %rax
	cmpq	$0, 32(%rax)
	je	.LBB68_19
# %bb.18:                               # %lor.lhs.false51
	movq	-16(%rbp), %rax
	cmpq	$0, 40(%rax)
	jne	.LBB68_28
.LBB68_19:                              # %if.then55
	movq	-16(%rbp), %rax
	cmpq	$0, 24(%rax)
	je	.LBB68_21
# %bb.20:                               # %if.then59
	movq	-24(%rbp), %rax
	movq	64(%rax), %rax
	movq	-24(%rbp), %rcx
	movq	72(%rcx), %rdi
	movq	-16(%rbp), %rcx
	movq	24(%rcx), %rsi
	callq	*%rax
.LBB68_21:                              # %if.end63
	movq	-16(%rbp), %rax
	cmpq	$0, 32(%rax)
	je	.LBB68_23
# %bb.22:                               # %if.then67
	movq	-24(%rbp), %rax
	movq	64(%rax), %rax
	movq	-24(%rbp), %rcx
	movq	72(%rcx), %rdi
	movq	-16(%rbp), %rcx
	movq	32(%rcx), %rsi
	callq	*%rax
.LBB68_23:                              # %if.end71
	movq	-16(%rbp), %rax
	cmpq	$0, 40(%rax)
	je	.LBB68_25
# %bb.24:                               # %if.then75
	movq	-24(%rbp), %rax
	movq	64(%rax), %rax
	movq	-24(%rbp), %rcx
	movq	72(%rcx), %rdi
	movq	-16(%rbp), %rcx
	movq	40(%rcx), %rsi
	callq	*%rax
.LBB68_25:                              # %if.end79
	cmpq	$0, -16(%rbp)
	je	.LBB68_27
# %bb.26:                               # %if.then82
	movq	-24(%rbp), %rax
	movq	64(%rax), %rax
	movq	-24(%rbp), %rcx
	movq	72(%rcx), %rdi
	movq	-16(%rbp), %rsi
	callq	*%rax
.LBB68_27:                              # %if.end85
	movl	$-3, -36(%rbp)
	jmp	.LBB68_29
.LBB68_28:                              # %if.end86
	movq	-16(%rbp), %rax
	movl	$0, 660(%rax)
	movq	-16(%rbp), %rax
	movl	$2, 12(%rax)
	movq	-16(%rbp), %rax
	movl	$2, 8(%rax)
	movq	-16(%rbp), %rax
	movl	$0, 652(%rax)
	movl	-32(%rbp), %eax
	movq	-16(%rbp), %rcx
	movl	%eax, 664(%rcx)
	imull	$100000, -32(%rbp), %eax # imm = 0x186A0
	subl	$19, %eax
	movq	-16(%rbp), %rcx
	movl	%eax, 112(%rcx)
	movl	-44(%rbp), %eax
	movq	-16(%rbp), %rcx
	movl	%eax, 656(%rcx)
	movl	-28(%rbp), %eax
	movq	-16(%rbp), %rcx
	movl	%eax, 88(%rcx)
	movq	-16(%rbp), %rax
	movq	32(%rax), %rax
	movq	-16(%rbp), %rcx
	movq	%rax, 64(%rcx)
	movq	-16(%rbp), %rax
	movq	24(%rax), %rax
	movq	-16(%rbp), %rcx
	movq	%rax, 72(%rcx)
	movq	-16(%rbp), %rax
	movq	$0, 80(%rax)
	movq	-16(%rbp), %rax
	movq	24(%rax), %rax
	movq	-16(%rbp), %rcx
	movq	%rax, 56(%rcx)
	movq	-16(%rbp), %rax
	movq	-24(%rbp), %rcx
	movq	%rax, 48(%rcx)
	movq	-24(%rbp), %rax
	movl	$0, 12(%rax)
	movq	-24(%rbp), %rax
	movl	$0, 16(%rax)
	movq	-24(%rbp), %rax
	movl	$0, 36(%rax)
	movq	-24(%rbp), %rax
	movl	$0, 40(%rax)
	movq	-16(%rbp), %rdi
	callq	init_RL
	movq	-16(%rbp), %rdi
	callq	prepare_new_block
	movl	$0, -36(%rbp)
.LBB68_29:                              # %return
	movl	-36(%rbp), %ebx
	cmpl	$531718584, -48(%rbp)   # imm = 0x1FB161B8
	jne	.LBB68_31
.LBB68_30:
	movl	%ebx, %eax
	addq	$40, %rsp
	popq	%rbx
	popq	%rbp
	.cfi_def_cfa %rsp, 8
	retq
.LBB68_31:                              # %func_exit
	.cfi_def_cfa %rbp, 16
	callq	detect_breach
	jmp	.LBB68_30
.Lfunc_end68:
	.size	BZ2_bzCompressInit.28, .Lfunc_end68-BZ2_bzCompressInit.28
	.cfi_endproc
                                        # -- End function
	.p2align	4, 0x90         # -- Begin function unRLE_obuf_to_output_FAST.29
	.type	unRLE_obuf_to_output_FAST.29,@function
unRLE_obuf_to_output_FAST.29:           # @unRLE_obuf_to_output_FAST.29
	.cfi_startproc
# %bb.0:                                # %entry
	pushq	%rbp
	.cfi_def_cfa_offset 16
	.cfi_offset %rbp, -16
	movq	%rsp, %rbp
	.cfi_def_cfa_register %rbp
	pushq	%rbx
	subq	$88, %rsp
	.cfi_offset %rbx, -24
	movl	$520493181, -88(%rbp)   # imm = 0x1F06187D
	movq	%rdi, -24(%rbp)
	movq	-24(%rbp), %rax
	cmpb	$0, 20(%rax)
	je	.LBB69_48
# %bb.1:                                # %if.then
	jmp	.LBB69_2
.LBB69_2:                               # %while.body
                                        # =>This Loop Header: Depth=1
                                        #     Child Loop BB69_3 Depth 2
	jmp	.LBB69_3
.LBB69_3:                               # %while.body2
                                        #   Parent Loop BB69_2 Depth=1
                                        # =>  This Inner Loop Header: Depth=2
	movq	-24(%rbp), %rax
	movq	(%rax), %rax
	cmpl	$0, 32(%rax)
	jne	.LBB69_5
# %bb.4:                                # %if.then3
	movb	$0, -33(%rbp)
	jmp	.LBB69_82
.LBB69_5:                               # %if.end
                                        #   in Loop: Header=BB69_3 Depth=2
	movq	-24(%rbp), %rax
	cmpl	$0, 16(%rax)
	jne	.LBB69_7
# %bb.6:                                # %if.then5
                                        #   in Loop: Header=BB69_2 Depth=1
	jmp	.LBB69_10
.LBB69_7:                               # %if.end6
                                        #   in Loop: Header=BB69_3 Depth=2
	movq	-24(%rbp), %rax
	movb	12(%rax), %al
	movq	-24(%rbp), %rcx
	movq	(%rcx), %rcx
	movq	24(%rcx), %rcx
	movb	%al, (%rcx)
	movq	-24(%rbp), %rax
	movl	3184(%rax), %eax
	shll	$8, %eax
	movq	-24(%rbp), %rcx
	movl	3184(%rcx), %ecx
	shrl	$24, %ecx
	movq	-24(%rbp), %rdx
	movzbl	12(%rdx), %edx
	xorl	%edx, %ecx
	movl	%ecx, %ecx
	xorl	BZ2_crc32Table(,%rcx,4), %eax
	movq	-24(%rbp), %rcx
	movl	%eax, 3184(%rcx)
	movq	-24(%rbp), %rax
	movl	16(%rax), %ecx
	addl	$-1, %ecx
	movl	%ecx, 16(%rax)
	movq	-24(%rbp), %rax
	movq	(%rax), %rax
	movq	24(%rax), %rcx
	addq	$1, %rcx
	movq	%rcx, 24(%rax)
	movq	-24(%rbp), %rax
	movq	(%rax), %rax
	movl	32(%rax), %ecx
	addl	$-1, %ecx
	movl	%ecx, 32(%rax)
	movq	-24(%rbp), %rax
	movq	(%rax), %rax
	movl	36(%rax), %ecx
	addl	$1, %ecx
	movl	%ecx, 36(%rax)
	movq	-24(%rbp), %rax
	movq	(%rax), %rax
	cmpl	$0, 36(%rax)
	jne	.LBB69_9
# %bb.8:                                # %if.then23
                                        #   in Loop: Header=BB69_3 Depth=2
	movq	-24(%rbp), %rax
	movq	(%rax), %rax
	movl	40(%rax), %ecx
	addl	$1, %ecx
	movl	%ecx, 40(%rax)
.LBB69_9:                               # %if.end26
                                        #   in Loop: Header=BB69_3 Depth=2
	jmp	.LBB69_3
.LBB69_10:                              # %while.end
                                        #   in Loop: Header=BB69_2 Depth=1
	movq	-24(%rbp), %rax
	movl	1092(%rax), %eax
	movq	-24(%rbp), %rcx
	movl	64080(%rcx), %ecx
	addl	$1, %ecx
	cmpl	%ecx, %eax
	jne	.LBB69_12
# %bb.11:                               # %if.then29
	movb	$0, -33(%rbp)
	jmp	.LBB69_82
.LBB69_12:                              # %if.end30
                                        #   in Loop: Header=BB69_2 Depth=1
	movq	-24(%rbp), %rax
	movl	1092(%rax), %eax
	movq	-24(%rbp), %rcx
	movl	64080(%rcx), %ecx
	addl	$1, %ecx
	cmpl	%ecx, %eax
	jle	.LBB69_14
# %bb.13:                               # %if.then36
	movb	$1, -33(%rbp)
	jmp	.LBB69_82
.LBB69_14:                              # %if.end37
                                        #   in Loop: Header=BB69_2 Depth=1
	movq	-24(%rbp), %rax
	movl	$1, 16(%rax)
	movq	-24(%rbp), %rax
	movl	64(%rax), %eax
	movq	-24(%rbp), %rcx
	movb	%al, 12(%rcx)
	movq	-24(%rbp), %rax
	movq	3152(%rax), %rax
	movq	-24(%rbp), %rcx
	movl	60(%rcx), %ecx
	movl	(%rax,%rcx,4), %eax
	movq	-24(%rbp), %rcx
	movl	%eax, 60(%rcx)
	movq	-24(%rbp), %rax
	movl	60(%rax), %eax
	andl	$255, %eax
	movb	%al, -9(%rbp)
	movq	-24(%rbp), %rax
	movl	60(%rax), %ecx
	shrl	$8, %ecx
	movl	%ecx, 60(%rax)
	movq	-24(%rbp), %rax
	cmpl	$0, 24(%rax)
	jne	.LBB69_18
# %bb.15:                               # %if.then50
                                        #   in Loop: Header=BB69_2 Depth=1
	movq	-24(%rbp), %rax
	movslq	28(%rax), %rax
	movl	BZ2_rNums(,%rax,4), %eax
	movq	-24(%rbp), %rcx
	movl	%eax, 24(%rcx)
	movq	-24(%rbp), %rax
	movl	28(%rax), %ecx
	addl	$1, %ecx
	movl	%ecx, 28(%rax)
	movq	-24(%rbp), %rax
	cmpl	$512, 28(%rax)          # imm = 0x200
	jne	.LBB69_17
# %bb.16:                               # %if.then59
                                        #   in Loop: Header=BB69_2 Depth=1
	movq	-24(%rbp), %rax
	movl	$0, 28(%rax)
.LBB69_17:                              # %if.end61
                                        #   in Loop: Header=BB69_2 Depth=1
	jmp	.LBB69_18
.LBB69_18:                              # %if.end62
                                        #   in Loop: Header=BB69_2 Depth=1
	xorl	%eax, %eax
	movq	-24(%rbp), %rcx
	movl	24(%rcx), %edx
	addl	$-1, %edx
	movl	%edx, 24(%rcx)
	movq	-24(%rbp), %rcx
	movl	24(%rcx), %ecx
	cmpl	$1, %ecx
	movl	$1, %ecx
	cmovel	%ecx, %eax
	movzbl	-9(%rbp), %ecx
	xorl	%eax, %ecx
	movb	%cl, -9(%rbp)
	movq	-24(%rbp), %rax
	movl	1092(%rax), %ecx
	addl	$1, %ecx
	movl	%ecx, 1092(%rax)
	movq	-24(%rbp), %rax
	movl	1092(%rax), %eax
	movq	-24(%rbp), %rcx
	movl	64080(%rcx), %ecx
	addl	$1, %ecx
	cmpl	%ecx, %eax
	jne	.LBB69_21
# %bb.19:                               # %if.then78
                                        #   in Loop: Header=BB69_2 Depth=1
	jmp	.LBB69_20
.LBB69_20:                              # %while.body.backedge
                                        #   in Loop: Header=BB69_2 Depth=1
	jmp	.LBB69_2
.LBB69_21:                              # %if.end79
                                        #   in Loop: Header=BB69_2 Depth=1
	movzbl	-9(%rbp), %eax
	movq	-24(%rbp), %rcx
	cmpl	64(%rcx), %eax
	je	.LBB69_23
# %bb.22:                               # %if.then84
                                        #   in Loop: Header=BB69_2 Depth=1
	movzbl	-9(%rbp), %eax
	movq	-24(%rbp), %rcx
	movl	%eax, 64(%rcx)
	jmp	.LBB69_20
.LBB69_23:                              # %if.end87
                                        #   in Loop: Header=BB69_2 Depth=1
	movq	-24(%rbp), %rax
	movl	$2, 16(%rax)
	movq	-24(%rbp), %rax
	movq	3152(%rax), %rax
	movq	-24(%rbp), %rcx
	movl	60(%rcx), %ecx
	movl	(%rax,%rcx,4), %eax
	movq	-24(%rbp), %rcx
