	.text
	.file	"bzlib.c"
	.globl	BZ2_bz__AssertH__fail   # -- Begin function BZ2_bz__AssertH__fail
	.p2align	4, 0x90
	.type	BZ2_bz__AssertH__fail,@function
BZ2_bz__AssertH__fail:                  # @BZ2_bz__AssertH__fail
	.cfi_startproc
# %bb.0:                                # %entry
	pushq	%rbp
	.cfi_def_cfa_offset 16
	.cfi_offset %rbp, -16
	movq	%rsp, %rbp
	.cfi_def_cfa_register %rbp
	pushq	%r14
	pushq	%rbx
	subq	$16, %rsp
	.cfi_offset %rbx, -32
	.cfi_offset %r14, -24
	movl	%edi, -20(%rbp)
	movq	stderr, %rbx
	movl	-20(%rbp), %r14d
	callq	BZ2_bzlibVersion
	movq	%rbx, %rdi
	movabsq	$.L.str, %rsi
	movl	%r14d, %edx
	movq	%rax, %rcx
	movb	$0, %al
	callq	fprintf
	cmpl	$1007, -20(%rbp)        # imm = 0x3EF
	jne	.LBB0_2
# %bb.1:                                # %if.then
	movq	stderr, %rdi
	movabsq	$.L.str.1, %rsi
	movb	$0, %al
	callq	fprintf
.LBB0_2:                                # %if.end
	movl	$3, %edi
	callq	exit
.Lfunc_end0:
	.size	BZ2_bz__AssertH__fail, .Lfunc_end0-BZ2_bz__AssertH__fail
	.cfi_endproc
                                        # -- End function
	.globl	BZ2_bzlibVersion        # -- Begin function BZ2_bzlibVersion
	.p2align	4, 0x90
	.type	BZ2_bzlibVersion,@function
BZ2_bzlibVersion:                       # @BZ2_bzlibVersion
	.cfi_startproc
# %bb.0:                                # %entry
	pushq	%rbp
	.cfi_def_cfa_offset 16
	.cfi_offset %rbp, -16
	movq	%rsp, %rbp
	.cfi_def_cfa_register %rbp
	movabsq	$.L.str.5, %rax
	popq	%rbp
	.cfi_def_cfa %rsp, 8
	retq
.Lfunc_end1:
	.size	BZ2_bzlibVersion, .Lfunc_end1-BZ2_bzlibVersion
	.cfi_endproc
                                        # -- End function
	.globl	BZ2_bzCompressInit      # -- Begin function BZ2_bzCompressInit
	.p2align	4, 0x90
	.type	BZ2_bzCompressInit,@function
BZ2_bzCompressInit:                     # @BZ2_bzCompressInit
	.cfi_startproc
# %bb.0:                                # %rand_bb
	pushq	%rbp
	.cfi_def_cfa_offset 16
	.cfi_offset %rbp, -16
	movq	%rsp, %rbp
	.cfi_def_cfa_register %rbp
	pushq	%r15
	pushq	%r14
	pushq	%r12
	pushq	%rbx
	.cfi_offset %rbx, -48
	.cfi_offset %r12, -40
	.cfi_offset %r14, -32
	.cfi_offset %r15, -24
	movl	%ecx, %r14d
	movl	%edx, %r15d
	movl	%esi, %r12d
	movq	%rdi, %rbx
	callq	get_rand
	cmpl	$0, %eax
	jne	.LBB2_9
# %bb.1:                                # %func_BZ2_bzCompressInit.9
	movq	%rbx, %rdi
	movl	%r12d, %esi
	movl	%r15d, %edx
	movl	%r14d, %ecx
	callq	BZ2_bzCompressInit.9
	popq	%rbx
	popq	%r12
	popq	%r14
	popq	%r15
	popq	%rbp
	.cfi_def_cfa %rsp, 8
	retq
.LBB2_2:                                # %func_BZ2_bzCompressInit.18
	.cfi_def_cfa %rbp, 16
	movq	%rbx, %rdi
	movl	%r12d, %esi
	movl	%r15d, %edx
	movl	%r14d, %ecx
	callq	BZ2_bzCompressInit.18
	popq	%rbx
	popq	%r12
	popq	%r14
	popq	%r15
	popq	%rbp
	.cfi_def_cfa %rsp, 8
	retq
.LBB2_3:                                # %func_BZ2_bzCompressInit.50
	.cfi_def_cfa %rbp, 16
	movq	%rbx, %rdi
	movl	%r12d, %esi
	movl	%r15d, %edx
	movl	%r14d, %ecx
	callq	BZ2_bzCompressInit.50
	popq	%rbx
	popq	%r12
	popq	%r14
	popq	%r15
	popq	%rbp
	.cfi_def_cfa %rsp, 8
	retq
.LBB2_4:                                # %func_BZ2_bzCompressInit.80
	.cfi_def_cfa %rbp, 16
	movq	%rbx, %rdi
	movl	%r12d, %esi
	movl	%r15d, %edx
	movl	%r14d, %ecx
	callq	BZ2_bzCompressInit.80
	popq	%rbx
	popq	%r12
	popq	%r14
	popq	%r15
	popq	%rbp
	.cfi_def_cfa %rsp, 8
	retq
.LBB2_5:                                # %func_BZ2_bzCompressInit.115
	.cfi_def_cfa %rbp, 16
	movq	%rbx, %rdi
	movl	%r12d, %esi
	movl	%r15d, %edx
	movl	%r14d, %ecx
	callq	BZ2_bzCompressInit.115
	popq	%rbx
	popq	%r12
	popq	%r14
	popq	%r15
	popq	%rbp
	.cfi_def_cfa %rsp, 8
	retq
.LBB2_6:                                # %func_BZ2_bzCompressInit.156
	.cfi_def_cfa %rbp, 16
	movq	%rbx, %rdi
	movl	%r12d, %esi
	movl	%r15d, %edx
	movl	%r14d, %ecx
	callq	BZ2_bzCompressInit.156
	popq	%rbx
	popq	%r12
	popq	%r14
	popq	%r15
	popq	%rbp
	.cfi_def_cfa %rsp, 8
	retq
.LBB2_7:                                # %func_BZ2_bzCompressInit.203
	.cfi_def_cfa %rbp, 16
	movq	%rbx, %rdi
	movl	%r12d, %esi
	movl	%r15d, %edx
	movl	%r14d, %ecx
	callq	BZ2_bzCompressInit.203
	popq	%rbx
	popq	%r12
	popq	%r14
	popq	%r15
	popq	%rbp
	.cfi_def_cfa %rsp, 8
	retq
.LBB2_8:                                # %func_BZ2_bzCompressInit.220
	.cfi_def_cfa %rbp, 16
	movq	%rbx, %rdi
	movl	%r12d, %esi
	movl	%r15d, %edx
	movl	%r14d, %ecx
	callq	BZ2_bzCompressInit.220
	popq	%rbx
	popq	%r12
	popq	%r14
	popq	%r15
	popq	%rbp
	.cfi_def_cfa %rsp, 8
	retq
.LBB2_9:                                # %ctrl0
	.cfi_def_cfa %rbp, 16
	cmpl	$1, %eax
	je	.LBB2_2
# %bb.10:                               # %ctrl1
	cmpl	$2, %eax
	je	.LBB2_3
# %bb.11:                               # %ctrl2
	cmpl	$3, %eax
	je	.LBB2_4
# %bb.12:                               # %ctrl3
	cmpl	$4, %eax
	je	.LBB2_5
# %bb.13:                               # %ctrl4
	cmpl	$5, %eax
	je	.LBB2_6
# %bb.14:                               # %ctrl5
	cmpl	$6, %eax
	je	.LBB2_7
	jmp	.LBB2_8
.Lfunc_end2:
	.size	BZ2_bzCompressInit, .Lfunc_end2-BZ2_bzCompressInit
	.cfi_endproc
                                        # -- End function
	.p2align	4, 0x90         # -- Begin function bz_config_ok
	.type	bz_config_ok,@function
bz_config_ok:                           # @bz_config_ok
	.cfi_startproc
# %bb.0:                                # %entry
	pushq	%rbp
	.cfi_def_cfa_offset 16
	.cfi_offset %rbp, -16
	movq	%rsp, %rbp
	.cfi_def_cfa_register %rbp
	movl	$1, %eax
	popq	%rbp
	.cfi_def_cfa %rsp, 8
	retq
.Lfunc_end3:
	.size	bz_config_ok, .Lfunc_end3-bz_config_ok
	.cfi_endproc
                                        # -- End function
	.p2align	4, 0x90         # -- Begin function default_bzalloc
	.type	default_bzalloc,@function
default_bzalloc:                        # @default_bzalloc
	.cfi_startproc
# %bb.0:                                # %rand_bb
	pushq	%rbp
	.cfi_def_cfa_offset 16
	.cfi_offset %rbp, -16
	movq	%rsp, %rbp
	.cfi_def_cfa_register %rbp
	pushq	%r15
	pushq	%r14
	pushq	%rbx
	pushq	%rax
	.cfi_offset %rbx, -40
	.cfi_offset %r14, -32
	.cfi_offset %r15, -24
	movl	%edx, %r14d
	movl	%esi, %r15d
	movq	%rdi, %rbx
	callq	get_rand
	cmpl	$0, %eax
	jne	.LBB4_9
# %bb.1:                                # %func_default_bzalloc.48
	movq	%rbx, %rdi
	movl	%r15d, %esi
	movl	%r14d, %edx
	callq	default_bzalloc.48
	addq	$8, %rsp
	popq	%rbx
	popq	%r14
	popq	%r15
	popq	%rbp
	.cfi_def_cfa %rsp, 8
	retq
.LBB4_2:                                # %func_default_bzalloc.127
	.cfi_def_cfa %rbp, 16
	movq	%rbx, %rdi
	movl	%r15d, %esi
	movl	%r14d, %edx
	callq	default_bzalloc.127
	addq	$8, %rsp
	popq	%rbx
	popq	%r14
	popq	%r15
	popq	%rbp
	.cfi_def_cfa %rsp, 8
	retq
.LBB4_3:                                # %func_default_bzalloc.150
	.cfi_def_cfa %rbp, 16
	movq	%rbx, %rdi
	movl	%r15d, %esi
	movl	%r14d, %edx
	callq	default_bzalloc.150
	addq	$8, %rsp
	popq	%rbx
	popq	%r14
	popq	%r15
	popq	%rbp
	.cfi_def_cfa %rsp, 8
	retq
.LBB4_4:                                # %func_default_bzalloc.151
	.cfi_def_cfa %rbp, 16
	movq	%rbx, %rdi
	movl	%r15d, %esi
	movl	%r14d, %edx
	callq	default_bzalloc.151
	addq	$8, %rsp
	popq	%rbx
	popq	%r14
	popq	%r15
	popq	%rbp
	.cfi_def_cfa %rsp, 8
	retq
.LBB4_5:                                # %func_default_bzalloc.186
	.cfi_def_cfa %rbp, 16
	movq	%rbx, %rdi
	movl	%r15d, %esi
	movl	%r14d, %edx
	callq	default_bzalloc.186
	addq	$8, %rsp
	popq	%rbx
	popq	%r14
	popq	%r15
	popq	%rbp
	.cfi_def_cfa %rsp, 8
	retq
.LBB4_6:                                # %func_default_bzalloc.207
	.cfi_def_cfa %rbp, 16
	movq	%rbx, %rdi
	movl	%r15d, %esi
	movl	%r14d, %edx
	callq	default_bzalloc.207
	addq	$8, %rsp
	popq	%rbx
	popq	%r14
	popq	%r15
	popq	%rbp
	.cfi_def_cfa %rsp, 8
	retq
.LBB4_7:                                # %func_default_bzalloc.209
	.cfi_def_cfa %rbp, 16
	movq	%rbx, %rdi
	movl	%r15d, %esi
	movl	%r14d, %edx
	callq	default_bzalloc.209
	addq	$8, %rsp
	popq	%rbx
	popq	%r14
	popq	%r15
	popq	%rbp
	.cfi_def_cfa %rsp, 8
	retq
.LBB4_8:                                # %func_default_bzalloc.228
	.cfi_def_cfa %rbp, 16
	movq	%rbx, %rdi
	movl	%r15d, %esi
	movl	%r14d, %edx
	callq	default_bzalloc.228
	addq	$8, %rsp
	popq	%rbx
	popq	%r14
	popq	%r15
	popq	%rbp
	.cfi_def_cfa %rsp, 8
	retq
.LBB4_9:                                # %ctrl0
	.cfi_def_cfa %rbp, 16
	cmpl	$1, %eax
	je	.LBB4_2
# %bb.10:                               # %ctrl1
	cmpl	$2, %eax
	je	.LBB4_3
# %bb.11:                               # %ctrl2
	cmpl	$3, %eax
	je	.LBB4_4
# %bb.12:                               # %ctrl3
	cmpl	$4, %eax
	je	.LBB4_5
# %bb.13:                               # %ctrl4
	cmpl	$5, %eax
	je	.LBB4_6
# %bb.14:                               # %ctrl5
	cmpl	$6, %eax
	je	.LBB4_7
	jmp	.LBB4_8
.Lfunc_end4:
	.size	default_bzalloc, .Lfunc_end4-default_bzalloc
	.cfi_endproc
                                        # -- End function
	.p2align	4, 0x90         # -- Begin function default_bzfree
	.type	default_bzfree,@function
default_bzfree:                         # @default_bzfree
	.cfi_startproc
# %bb.0:                                # %rand_bb
	pushq	%rbp
	.cfi_def_cfa_offset 16
	.cfi_offset %rbp, -16
	movq	%rsp, %rbp
	.cfi_def_cfa_register %rbp
	pushq	%r14
	pushq	%rbx
	.cfi_offset %rbx, -32
	.cfi_offset %r14, -24
	movq	%rsi, %r14
	movq	%rdi, %rbx
	callq	get_rand
	cmpl	$0, %eax
	jne	.LBB5_2
# %bb.1:                                # %func_default_bzfree.31
	movq	%rbx, %rdi
	movq	%r14, %rsi
	callq	default_bzfree.31
	popq	%rbx
	popq	%r14
	popq	%rbp
	.cfi_def_cfa %rsp, 8
	retq
.LBB5_2:                                # %func_default_bzfree.61
	.cfi_def_cfa %rbp, 16
	movq	%rbx, %rdi
	movq	%r14, %rsi
	callq	default_bzfree.61
	popq	%rbx
	popq	%r14
	popq	%rbp
	.cfi_def_cfa %rsp, 8
	retq
.Lfunc_end5:
	.size	default_bzfree, .Lfunc_end5-default_bzfree
	.cfi_endproc
                                        # -- End function
	.p2align	4, 0x90         # -- Begin function init_RL
	.type	init_RL,@function
init_RL:                                # @init_RL
	.cfi_startproc
# %bb.0:                                # %entry
	pushq	%rbp
	.cfi_def_cfa_offset 16
	.cfi_offset %rbp, -16
	movq	%rsp, %rbp
	.cfi_def_cfa_register %rbp
	movq	%rdi, -8(%rbp)
	movq	-8(%rbp), %rax
	movl	$256, 92(%rax)          # imm = 0x100
	movq	-8(%rbp), %rax
	movl	$0, 96(%rax)
	popq	%rbp
	.cfi_def_cfa %rsp, 8
	retq
.Lfunc_end6:
	.size	init_RL, .Lfunc_end6-init_RL
	.cfi_endproc
                                        # -- End function
	.p2align	4, 0x90         # -- Begin function prepare_new_block
	.type	prepare_new_block,@function
prepare_new_block:                      # @prepare_new_block
	.cfi_startproc
# %bb.0:                                # %rand_bb
	pushq	%rbp
	.cfi_def_cfa_offset 16
	.cfi_offset %rbp, -16
	movq	%rsp, %rbp
	.cfi_def_cfa_register %rbp
	pushq	%rbx
	pushq	%rax
	.cfi_offset %rbx, -24
	movq	%rdi, %rbx
	callq	get_rand
	cmpl	$0, %eax
	jne	.LBB7_2
# %bb.1:                                # %func_prepare_new_block.5
	movq	%rbx, %rdi
	callq	prepare_new_block.5
	addq	$8, %rsp
	popq	%rbx
	popq	%rbp
	.cfi_def_cfa %rsp, 8
	retq
.LBB7_2:                                # %func_prepare_new_block.75
	.cfi_def_cfa %rbp, 16
	movq	%rbx, %rdi
	callq	prepare_new_block.75
	addq	$8, %rsp
	popq	%rbx
	popq	%rbp
	.cfi_def_cfa %rsp, 8
	retq
.Lfunc_end7:
	.size	prepare_new_block, .Lfunc_end7-prepare_new_block
	.cfi_endproc
                                        # -- End function
	.globl	BZ2_bzCompress          # -- Begin function BZ2_bzCompress
	.p2align	4, 0x90
	.type	BZ2_bzCompress,@function
BZ2_bzCompress:                         # @BZ2_bzCompress
	.cfi_startproc
# %bb.0:                                # %rand_bb
	pushq	%rbp
	.cfi_def_cfa_offset 16
	.cfi_offset %rbp, -16
	movq	%rsp, %rbp
	.cfi_def_cfa_register %rbp
	pushq	%r14
	pushq	%rbx
	.cfi_offset %rbx, -32
	.cfi_offset %r14, -24
	movl	%esi, %r14d
	movq	%rdi, %rbx
	callq	get_rand
	cmpl	$0, %eax
	jne	.LBB8_9
# %bb.1:                                # %func_BZ2_bzCompress.13
	movq	%rbx, %rdi
	movl	%r14d, %esi
	callq	BZ2_bzCompress.13
	popq	%rbx
	popq	%r14
	popq	%rbp
	.cfi_def_cfa %rsp, 8
	retq
.LBB8_2:                                # %func_BZ2_bzCompress.49
	.cfi_def_cfa %rbp, 16
	movq	%rbx, %rdi
	movl	%r14d, %esi
	callq	BZ2_bzCompress.49
	popq	%rbx
	popq	%r14
	popq	%rbp
	.cfi_def_cfa %rsp, 8
	retq
.LBB8_3:                                # %func_BZ2_bzCompress.105
	.cfi_def_cfa %rbp, 16
	movq	%rbx, %rdi
	movl	%r14d, %esi
	callq	BZ2_bzCompress.105
	popq	%rbx
	popq	%r14
	popq	%rbp
	.cfi_def_cfa %rsp, 8
	retq
.LBB8_4:                                # %func_BZ2_bzCompress.107
	.cfi_def_cfa %rbp, 16
	movq	%rbx, %rdi
	movl	%r14d, %esi
	callq	BZ2_bzCompress.107
	popq	%rbx
	popq	%r14
	popq	%rbp
	.cfi_def_cfa %rsp, 8
	retq
.LBB8_5:                                # %func_BZ2_bzCompress.169
	.cfi_def_cfa %rbp, 16
	movq	%rbx, %rdi
	movl	%r14d, %esi
	callq	BZ2_bzCompress.169
	popq	%rbx
	popq	%r14
	popq	%rbp
	.cfi_def_cfa %rsp, 8
	retq
.LBB8_6:                                # %func_BZ2_bzCompress.190
	.cfi_def_cfa %rbp, 16
	movq	%rbx, %rdi
	movl	%r14d, %esi
	callq	BZ2_bzCompress.190
	popq	%rbx
	popq	%r14
	popq	%rbp
	.cfi_def_cfa %rsp, 8
	retq
.LBB8_7:                                # %func_BZ2_bzCompress.200
	.cfi_def_cfa %rbp, 16
	movq	%rbx, %rdi
	movl	%r14d, %esi
	callq	BZ2_bzCompress.200
	popq	%rbx
	popq	%r14
	popq	%rbp
	.cfi_def_cfa %rsp, 8
	retq
.LBB8_8:                                # %func_BZ2_bzCompress.218
	.cfi_def_cfa %rbp, 16
	movq	%rbx, %rdi
	movl	%r14d, %esi
	callq	BZ2_bzCompress.218
	popq	%rbx
	popq	%r14
	popq	%rbp
	.cfi_def_cfa %rsp, 8
	retq
.LBB8_9:                                # %ctrl0
	.cfi_def_cfa %rbp, 16
	cmpl	$1, %eax
	je	.LBB8_2
# %bb.10:                               # %ctrl1
	cmpl	$2, %eax
	je	.LBB8_3
# %bb.11:                               # %ctrl2
	cmpl	$3, %eax
	je	.LBB8_4
# %bb.12:                               # %ctrl3
	cmpl	$4, %eax
	je	.LBB8_5
# %bb.13:                               # %ctrl4
	cmpl	$5, %eax
	je	.LBB8_6
# %bb.14:                               # %ctrl5
	cmpl	$6, %eax
	je	.LBB8_7
	jmp	.LBB8_8
.Lfunc_end8:
	.size	BZ2_bzCompress, .Lfunc_end8-BZ2_bzCompress
	.cfi_endproc
                                        # -- End function
	.p2align	4, 0x90         # -- Begin function handle_compress
	.type	handle_compress,@function
handle_compress:                        # @handle_compress
	.cfi_startproc
# %bb.0:                                # %rand_bb
	pushq	%rbp
	.cfi_def_cfa_offset 16
	.cfi_offset %rbp, -16
	movq	%rsp, %rbp
	.cfi_def_cfa_register %rbp
	pushq	%rbx
	pushq	%rax
	.cfi_offset %rbx, -24
	movq	%rdi, %rbx
	callq	get_rand
	cmpl	$0, %eax
	jne	.LBB9_9
# %bb.1:                                # %func_handle_compress.21
	movq	%rbx, %rdi
	callq	handle_compress.21
	movzbl	%al, %eax
	addq	$8, %rsp
	popq	%rbx
	popq	%rbp
	.cfi_def_cfa %rsp, 8
	retq
.LBB9_2:                                # %func_handle_compress.36
	.cfi_def_cfa %rbp, 16
	movq	%rbx, %rdi
	callq	handle_compress.36
	movzbl	%al, %eax
	addq	$8, %rsp
	popq	%rbx
	popq	%rbp
	.cfi_def_cfa %rsp, 8
	retq
.LBB9_3:                                # %func_handle_compress.39
	.cfi_def_cfa %rbp, 16
	movq	%rbx, %rdi
	callq	handle_compress.39
	movzbl	%al, %eax
	addq	$8, %rsp
	popq	%rbx
	popq	%rbp
	.cfi_def_cfa %rsp, 8
	retq
.LBB9_4:                                # %func_handle_compress.44
	.cfi_def_cfa %rbp, 16
	movq	%rbx, %rdi
	callq	handle_compress.44
	movzbl	%al, %eax
	addq	$8, %rsp
	popq	%rbx
	popq	%rbp
	.cfi_def_cfa %rsp, 8
	retq
.LBB9_5:                                # %func_handle_compress.58
	.cfi_def_cfa %rbp, 16
	movq	%rbx, %rdi
	callq	handle_compress.58
	movzbl	%al, %eax
	addq	$8, %rsp
	popq	%rbx
	popq	%rbp
	.cfi_def_cfa %rsp, 8
	retq
.LBB9_6:                                # %func_handle_compress.62
	.cfi_def_cfa %rbp, 16
	movq	%rbx, %rdi
	callq	handle_compress.62
	movzbl	%al, %eax
	addq	$8, %rsp
	popq	%rbx
	popq	%rbp
	.cfi_def_cfa %rsp, 8
	retq
.LBB9_7:                                # %func_handle_compress.65
	.cfi_def_cfa %rbp, 16
	movq	%rbx, %rdi
	callq	handle_compress.65
	movzbl	%al, %eax
	addq	$8, %rsp
	popq	%rbx
	popq	%rbp
	.cfi_def_cfa %rsp, 8
	retq
.LBB9_8:                                # %func_handle_compress.68
	.cfi_def_cfa %rbp, 16
	movq	%rbx, %rdi
	callq	handle_compress.68
	movzbl	%al, %eax
	addq	$8, %rsp
	popq	%rbx
	popq	%rbp
	.cfi_def_cfa %rsp, 8
	retq
.LBB9_9:                                # %ctrl0
	.cfi_def_cfa %rbp, 16
	cmpl	$1, %eax
	je	.LBB9_2
# %bb.10:                               # %ctrl1
	cmpl	$2, %eax
	je	.LBB9_3
# %bb.11:                               # %ctrl2
	cmpl	$3, %eax
	je	.LBB9_4
# %bb.12:                               # %ctrl3
	cmpl	$4, %eax
	je	.LBB9_5
# %bb.13:                               # %ctrl4
	cmpl	$5, %eax
	je	.LBB9_6
# %bb.14:                               # %ctrl5
	cmpl	$6, %eax
	je	.LBB9_7
	jmp	.LBB9_8
.Lfunc_end9:
	.size	handle_compress, .Lfunc_end9-handle_compress
	.cfi_endproc
                                        # -- End function
	.p2align	4, 0x90         # -- Begin function isempty_RL
	.type	isempty_RL,@function
isempty_RL:                             # @isempty_RL
	.cfi_startproc
# %bb.0:                                # %rand_bb
	pushq	%rbp
	.cfi_def_cfa_offset 16
	.cfi_offset %rbp, -16
	movq	%rsp, %rbp
	.cfi_def_cfa_register %rbp
	pushq	%rbx
	pushq	%rax
	.cfi_offset %rbx, -24
	movq	%rdi, %rbx
	callq	get_rand
	cmpl	$0, %eax
	jne	.LBB10_2
# %bb.1:                                # %func_isempty_RL.23
	movq	%rbx, %rdi
	callq	isempty_RL.23
	movzbl	%al, %eax
	addq	$8, %rsp
	popq	%rbx
	popq	%rbp
	.cfi_def_cfa %rsp, 8
	retq
.LBB10_2:                               # %func_isempty_RL.118
	.cfi_def_cfa %rbp, 16
	movq	%rbx, %rdi
	callq	isempty_RL.118
	movzbl	%al, %eax
	addq	$8, %rsp
	popq	%rbx
	popq	%rbp
	.cfi_def_cfa %rsp, 8
	retq
.Lfunc_end10:
	.size	isempty_RL, .Lfunc_end10-isempty_RL
	.cfi_endproc
                                        # -- End function
	.globl	BZ2_bzCompressEnd       # -- Begin function BZ2_bzCompressEnd
	.p2align	4, 0x90
	.type	BZ2_bzCompressEnd,@function
BZ2_bzCompressEnd:                      # @BZ2_bzCompressEnd
	.cfi_startproc
# %bb.0:                                # %rand_bb
	pushq	%rbp
	.cfi_def_cfa_offset 16
	.cfi_offset %rbp, -16
	movq	%rsp, %rbp
	.cfi_def_cfa_register %rbp
	pushq	%rbx
	pushq	%rax
	.cfi_offset %rbx, -24
	movq	%rdi, %rbx
	callq	get_rand
	cmpl	$0, %eax
	jne	.LBB11_7
# %bb.1:                                # %func_BZ2_bzCompressEnd.6
	movq	%rbx, %rdi
	callq	BZ2_bzCompressEnd.6
	addq	$8, %rsp
	popq	%rbx
	popq	%rbp
	.cfi_def_cfa %rsp, 8
	retq
.LBB11_2:                               # %func_BZ2_bzCompressEnd.14
	.cfi_def_cfa %rbp, 16
	movq	%rbx, %rdi
	callq	BZ2_bzCompressEnd.14
	addq	$8, %rsp
	popq	%rbx
	popq	%rbp
	.cfi_def_cfa %rsp, 8
	retq
.LBB11_3:                               # %func_BZ2_bzCompressEnd.54
	.cfi_def_cfa %rbp, 16
	movq	%rbx, %rdi
	callq	BZ2_bzCompressEnd.54
	addq	$8, %rsp
	popq	%rbx
	popq	%rbp
	.cfi_def_cfa %rsp, 8
	retq
.LBB11_4:                               # %func_BZ2_bzCompressEnd.125
	.cfi_def_cfa %rbp, 16
	movq	%rbx, %rdi
	callq	BZ2_bzCompressEnd.125
	addq	$8, %rsp
	popq	%rbx
	popq	%rbp
	.cfi_def_cfa %rsp, 8
	retq
.LBB11_5:                               # %func_BZ2_bzCompressEnd.144
	.cfi_def_cfa %rbp, 16
	movq	%rbx, %rdi
	callq	BZ2_bzCompressEnd.144
	addq	$8, %rsp
	popq	%rbx
	popq	%rbp
	.cfi_def_cfa %rsp, 8
	retq
.LBB11_6:                               # %func_BZ2_bzCompressEnd.146
	.cfi_def_cfa %rbp, 16
	movq	%rbx, %rdi
	callq	BZ2_bzCompressEnd.146
	addq	$8, %rsp
	popq	%rbx
	popq	%rbp
	.cfi_def_cfa %rsp, 8
	retq
.LBB11_7:                               # %ctrl0
	.cfi_def_cfa %rbp, 16
	cmpl	$1, %eax
	je	.LBB11_2
# %bb.8:                                # %ctrl1
	cmpl	$2, %eax
	je	.LBB11_3
# %bb.9:                                # %ctrl2
	cmpl	$3, %eax
	je	.LBB11_4
# %bb.10:                               # %ctrl3
	cmpl	$4, %eax
	je	.LBB11_5
	jmp	.LBB11_6
.Lfunc_end11:
	.size	BZ2_bzCompressEnd, .Lfunc_end11-BZ2_bzCompressEnd
	.cfi_endproc
                                        # -- End function
	.globl	BZ2_bzDecompressInit    # -- Begin function BZ2_bzDecompressInit
	.p2align	4, 0x90
	.type	BZ2_bzDecompressInit,@function
BZ2_bzDecompressInit:                   # @BZ2_bzDecompressInit
	.cfi_startproc
# %bb.0:                                # %rand_bb
	pushq	%rbp
	.cfi_def_cfa_offset 16
	.cfi_offset %rbp, -16
	movq	%rsp, %rbp
	.cfi_def_cfa_register %rbp
	pushq	%r15
	pushq	%r14
	pushq	%rbx
	pushq	%rax
	.cfi_offset %rbx, -40
	.cfi_offset %r14, -32
	.cfi_offset %r15, -24
	movl	%edx, %r14d
	movl	%esi, %r15d
	movq	%rdi, %rbx
	callq	get_rand
	cmpl	$0, %eax
	jne	.LBB12_9
# %bb.1:                                # %func_BZ2_bzDecompressInit.15
	movq	%rbx, %rdi
	movl	%r15d, %esi
	movl	%r14d, %edx
	callq	BZ2_bzDecompressInit.15
	addq	$8, %rsp
	popq	%rbx
	popq	%r14
	popq	%r15
	popq	%rbp
	.cfi_def_cfa %rsp, 8
	retq
.LBB12_2:                               # %func_BZ2_bzDecompressInit.19
	.cfi_def_cfa %rbp, 16
	movq	%rbx, %rdi
	movl	%r15d, %esi
	movl	%r14d, %edx
	callq	BZ2_bzDecompressInit.19
	addq	$8, %rsp
	popq	%rbx
	popq	%r14
	popq	%r15
	popq	%rbp
	.cfi_def_cfa %rsp, 8
	retq
.LBB12_3:                               # %func_BZ2_bzDecompressInit.29
	.cfi_def_cfa %rbp, 16
	movq	%rbx, %rdi
	movl	%r15d, %esi
	movl	%r14d, %edx
	callq	BZ2_bzDecompressInit.29
	addq	$8, %rsp
	popq	%rbx
	popq	%r14
	popq	%r15
	popq	%rbp
	.cfi_def_cfa %rsp, 8
	retq
.LBB12_4:                               # %func_BZ2_bzDecompressInit.42
	.cfi_def_cfa %rbp, 16
	movq	%rbx, %rdi
	movl	%r15d, %esi
	movl	%r14d, %edx
	callq	BZ2_bzDecompressInit.42
	addq	$8, %rsp
	popq	%rbx
	popq	%r14
	popq	%r15
	popq	%rbp
	.cfi_def_cfa %rsp, 8
	retq
.LBB12_5:                               # %func_BZ2_bzDecompressInit.104
	.cfi_def_cfa %rbp, 16
	movq	%rbx, %rdi
	movl	%r15d, %esi
	movl	%r14d, %edx
	callq	BZ2_bzDecompressInit.104
	addq	$8, %rsp
	popq	%rbx
	popq	%r14
	popq	%r15
	popq	%rbp
	.cfi_def_cfa %rsp, 8
	retq
.LBB12_6:                               # %func_BZ2_bzDecompressInit.123
	.cfi_def_cfa %rbp, 16
	movq	%rbx, %rdi
	movl	%r15d, %esi
	movl	%r14d, %edx
	callq	BZ2_bzDecompressInit.123
	addq	$8, %rsp
	popq	%rbx
	popq	%r14
	popq	%r15
	popq	%rbp
	.cfi_def_cfa %rsp, 8
	retq
.LBB12_7:                               # %func_BZ2_bzDecompressInit.198
	.cfi_def_cfa %rbp, 16
	movq	%rbx, %rdi
	movl	%r15d, %esi
	movl	%r14d, %edx
	callq	BZ2_bzDecompressInit.198
	addq	$8, %rsp
	popq	%rbx
	popq	%r14
	popq	%r15
	popq	%rbp
	.cfi_def_cfa %rsp, 8
	retq
.LBB12_8:                               # %func_BZ2_bzDecompressInit.216
	.cfi_def_cfa %rbp, 16
	movq	%rbx, %rdi
	movl	%r15d, %esi
	movl	%r14d, %edx
	callq	BZ2_bzDecompressInit.216
	addq	$8, %rsp
	popq	%rbx
	popq	%r14
	popq	%r15
	popq	%rbp
	.cfi_def_cfa %rsp, 8
	retq
.LBB12_9:                               # %ctrl0
	.cfi_def_cfa %rbp, 16
	cmpl	$1, %eax
	je	.LBB12_2
# %bb.10:                               # %ctrl1
	cmpl	$2, %eax
	je	.LBB12_3
# %bb.11:                               # %ctrl2
	cmpl	$3, %eax
	je	.LBB12_4
# %bb.12:                               # %ctrl3
	cmpl	$4, %eax
	je	.LBB12_5
# %bb.13:                               # %ctrl4
	cmpl	$5, %eax
	je	.LBB12_6
# %bb.14:                               # %ctrl5
	cmpl	$6, %eax
	je	.LBB12_7
	jmp	.LBB12_8
.Lfunc_end12:
	.size	BZ2_bzDecompressInit, .Lfunc_end12-BZ2_bzDecompressInit
	.cfi_endproc
                                        # -- End function
	.globl	BZ2_indexIntoF          # -- Begin function BZ2_indexIntoF
	.p2align	4, 0x90
	.type	BZ2_indexIntoF,@function
BZ2_indexIntoF:                         # @BZ2_indexIntoF
	.cfi_startproc
# %bb.0:                                # %rand_bb
	pushq	%rbp
	.cfi_def_cfa_offset 16
	.cfi_offset %rbp, -16
	movq	%rsp, %rbp
	.cfi_def_cfa_register %rbp
	pushq	%r14
	pushq	%rbx
	.cfi_offset %rbx, -32
	.cfi_offset %r14, -24
	movq	%rsi, %r14
	movl	%edi, %ebx
	callq	get_rand
	cmpl	$0, %eax
	jne	.LBB13_9
# %bb.1:                                # %func_BZ2_indexIntoF.25
	movl	%ebx, %edi
	movq	%r14, %rsi
	callq	BZ2_indexIntoF.25
	popq	%rbx
	popq	%r14
	popq	%rbp
	.cfi_def_cfa %rsp, 8
	retq
.LBB13_2:                               # %func_BZ2_indexIntoF.26
	.cfi_def_cfa %rbp, 16
	movl	%ebx, %edi
	movq	%r14, %rsi
	callq	BZ2_indexIntoF.26
	popq	%rbx
	popq	%r14
	popq	%rbp
	.cfi_def_cfa %rsp, 8
	retq
.LBB13_3:                               # %func_BZ2_indexIntoF.89
	.cfi_def_cfa %rbp, 16
	movl	%ebx, %edi
	movq	%r14, %rsi
	callq	BZ2_indexIntoF.89
	popq	%rbx
	popq	%r14
	popq	%rbp
	.cfi_def_cfa %rsp, 8
	retq
.LBB13_4:                               # %func_BZ2_indexIntoF.92
	.cfi_def_cfa %rbp, 16
	movl	%ebx, %edi
	movq	%r14, %rsi
	callq	BZ2_indexIntoF.92
	popq	%rbx
	popq	%r14
	popq	%rbp
	.cfi_def_cfa %rsp, 8
	retq
.LBB13_5:                               # %func_BZ2_indexIntoF.206
	.cfi_def_cfa %rbp, 16
	movl	%ebx, %edi
	movq	%r14, %rsi
	callq	BZ2_indexIntoF.206
	popq	%rbx
	popq	%r14
	popq	%rbp
	.cfi_def_cfa %rsp, 8
	retq
.LBB13_6:                               # %func_BZ2_indexIntoF.219
	.cfi_def_cfa %rbp, 16
	movl	%ebx, %edi
	movq	%r14, %rsi
	callq	BZ2_indexIntoF.219
	popq	%rbx
	popq	%r14
	popq	%rbp
	.cfi_def_cfa %rsp, 8
	retq
.LBB13_7:                               # %func_BZ2_indexIntoF.221
	.cfi_def_cfa %rbp, 16
	movl	%ebx, %edi
	movq	%r14, %rsi
	callq	BZ2_indexIntoF.221
	popq	%rbx
	popq	%r14
	popq	%rbp
	.cfi_def_cfa %rsp, 8
	retq
.LBB13_8:                               # %func_BZ2_indexIntoF.225
	.cfi_def_cfa %rbp, 16
	movl	%ebx, %edi
	movq	%r14, %rsi
	callq	BZ2_indexIntoF.225
	popq	%rbx
	popq	%r14
	popq	%rbp
	.cfi_def_cfa %rsp, 8
	retq
.LBB13_9:                               # %ctrl0
	.cfi_def_cfa %rbp, 16
	cmpl	$1, %eax
	je	.LBB13_2
# %bb.10:                               # %ctrl1
	cmpl	$2, %eax
	je	.LBB13_3
# %bb.11:                               # %ctrl2
	cmpl	$3, %eax
	je	.LBB13_4
# %bb.12:                               # %ctrl3
	cmpl	$4, %eax
	je	.LBB13_5
# %bb.13:                               # %ctrl4
	cmpl	$5, %eax
	je	.LBB13_6
# %bb.14:                               # %ctrl5
	cmpl	$6, %eax
	je	.LBB13_7
	jmp	.LBB13_8
.Lfunc_end13:
	.size	BZ2_indexIntoF, .Lfunc_end13-BZ2_indexIntoF
	.cfi_endproc
                                        # -- End function
	.globl	BZ2_bzDecompress        # -- Begin function BZ2_bzDecompress
	.p2align	4, 0x90
	.type	BZ2_bzDecompress,@function
BZ2_bzDecompress:                       # @BZ2_bzDecompress
	.cfi_startproc
# %bb.0:                                # %rand_bb
	pushq	%rbp
	.cfi_def_cfa_offset 16
	.cfi_offset %rbp, -16
	movq	%rsp, %rbp
	.cfi_def_cfa_register %rbp
	pushq	%rbx
	pushq	%rax
	.cfi_offset %rbx, -24
	movq	%rdi, %rbx
	callq	get_rand
	cmpl	$0, %eax
	jne	.LBB14_9
# %bb.1:                                # %func_BZ2_bzDecompress.52
	movq	%rbx, %rdi
	callq	BZ2_bzDecompress.52
	addq	$8, %rsp
	popq	%rbx
	popq	%rbp
	.cfi_def_cfa %rsp, 8
	retq
.LBB14_2:                               # %func_BZ2_bzDecompress.67
	.cfi_def_cfa %rbp, 16
	movq	%rbx, %rdi
	callq	BZ2_bzDecompress.67
	addq	$8, %rsp
	popq	%rbx
	popq	%rbp
	.cfi_def_cfa %rsp, 8
	retq
.LBB14_3:                               # %func_BZ2_bzDecompress.91
	.cfi_def_cfa %rbp, 16
	movq	%rbx, %rdi
	callq	BZ2_bzDecompress.91
	addq	$8, %rsp
	popq	%rbx
	popq	%rbp
	.cfi_def_cfa %rsp, 8
	retq
.LBB14_4:                               # %func_BZ2_bzDecompress.112
	.cfi_def_cfa %rbp, 16
	movq	%rbx, %rdi
	callq	BZ2_bzDecompress.112
	addq	$8, %rsp
	popq	%rbx
	popq	%rbp
	.cfi_def_cfa %rsp, 8
	retq
.LBB14_5:                               # %func_BZ2_bzDecompress.129
	.cfi_def_cfa %rbp, 16
	movq	%rbx, %rdi
	callq	BZ2_bzDecompress.129
	addq	$8, %rsp
	popq	%rbx
	popq	%rbp
	.cfi_def_cfa %rsp, 8
	retq
.LBB14_6:                               # %func_BZ2_bzDecompress.164
	.cfi_def_cfa %rbp, 16
	movq	%rbx, %rdi
	callq	BZ2_bzDecompress.164
	addq	$8, %rsp
	popq	%rbx
	popq	%rbp
	.cfi_def_cfa %rsp, 8
	retq
.LBB14_7:                               # %func_BZ2_bzDecompress.183
	.cfi_def_cfa %rbp, 16
	movq	%rbx, %rdi
	callq	BZ2_bzDecompress.183
	addq	$8, %rsp
	popq	%rbx
	popq	%rbp
	.cfi_def_cfa %rsp, 8
	retq
.LBB14_8:                               # %func_BZ2_bzDecompress.210
	.cfi_def_cfa %rbp, 16
	movq	%rbx, %rdi
	callq	BZ2_bzDecompress.210
	addq	$8, %rsp
	popq	%rbx
	popq	%rbp
	.cfi_def_cfa %rsp, 8
	retq
.LBB14_9:                               # %ctrl0
	.cfi_def_cfa %rbp, 16
	cmpl	$1, %eax
	je	.LBB14_2
# %bb.10:                               # %ctrl1
	cmpl	$2, %eax
	je	.LBB14_3
# %bb.11:                               # %ctrl2
	cmpl	$3, %eax
	je	.LBB14_4
# %bb.12:                               # %ctrl3
	cmpl	$4, %eax
	je	.LBB14_5
# %bb.13:                               # %ctrl4
	cmpl	$5, %eax
	je	.LBB14_6
# %bb.14:                               # %ctrl5
	cmpl	$6, %eax
	je	.LBB14_7
	jmp	.LBB14_8
.Lfunc_end14:
	.size	BZ2_bzDecompress, .Lfunc_end14-BZ2_bzDecompress
	.cfi_endproc
                                        # -- End function
	.p2align	4, 0x90         # -- Begin function unRLE_obuf_to_output_SMALL
	.type	unRLE_obuf_to_output_SMALL,@function
unRLE_obuf_to_output_SMALL:             # @unRLE_obuf_to_output_SMALL
	.cfi_startproc
# %bb.0:                                # %rand_bb
	pushq	%rbp
	.cfi_def_cfa_offset 16
	.cfi_offset %rbp, -16
	movq	%rsp, %rbp
	.cfi_def_cfa_register %rbp
	pushq	%rbx
	pushq	%rax
	.cfi_offset %rbx, -24
	movq	%rdi, %rbx
	callq	get_rand
	cmpl	$0, %eax
	jne	.LBB15_7
# %bb.1:                                # %func_unRLE_obuf_to_output_SMALL.1
	movq	%rbx, %rdi
	callq	unRLE_obuf_to_output_SMALL.1
	movzbl	%al, %eax
	addq	$8, %rsp
	popq	%rbx
	popq	%rbp
	.cfi_def_cfa %rsp, 8
	retq
.LBB15_2:                               # %func_unRLE_obuf_to_output_SMALL.20
	.cfi_def_cfa %rbp, 16
	movq	%rbx, %rdi
	callq	unRLE_obuf_to_output_SMALL.20
	movzbl	%al, %eax
	addq	$8, %rsp
	popq	%rbx
	popq	%rbp
	.cfi_def_cfa %rsp, 8
	retq
.LBB15_3:                               # %func_unRLE_obuf_to_output_SMALL.74
	.cfi_def_cfa %rbp, 16
	movq	%rbx, %rdi
	callq	unRLE_obuf_to_output_SMALL.74
	movzbl	%al, %eax
	addq	$8, %rsp
	popq	%rbx
	popq	%rbp
	.cfi_def_cfa %rsp, 8
	retq
.LBB15_4:                               # %func_unRLE_obuf_to_output_SMALL.85
	.cfi_def_cfa %rbp, 16
	movq	%rbx, %rdi
	callq	unRLE_obuf_to_output_SMALL.85
	movzbl	%al, %eax
	addq	$8, %rsp
	popq	%rbx
	popq	%rbp
	.cfi_def_cfa %rsp, 8
	retq
.LBB15_5:                               # %func_unRLE_obuf_to_output_SMALL.93
	.cfi_def_cfa %rbp, 16
	movq	%rbx, %rdi
	callq	unRLE_obuf_to_output_SMALL.93
	movzbl	%al, %eax
	addq	$8, %rsp
	popq	%rbx
	popq	%rbp
	.cfi_def_cfa %rsp, 8
	retq
.LBB15_6:                               # %func_unRLE_obuf_to_output_SMALL.102
	.cfi_def_cfa %rbp, 16
	movq	%rbx, %rdi
	callq	unRLE_obuf_to_output_SMALL.102
	movzbl	%al, %eax
	addq	$8, %rsp
	popq	%rbx
	popq	%rbp
	.cfi_def_cfa %rsp, 8
	retq
.LBB15_7:                               # %ctrl0
	.cfi_def_cfa %rbp, 16
	cmpl	$1, %eax
	je	.LBB15_2
# %bb.8:                                # %ctrl1
	cmpl	$2, %eax
	je	.LBB15_3
# %bb.9:                                # %ctrl2
	cmpl	$3, %eax
	je	.LBB15_4
# %bb.10:                               # %ctrl3
	cmpl	$4, %eax
	je	.LBB15_5
	jmp	.LBB15_6
.Lfunc_end15:
	.size	unRLE_obuf_to_output_SMALL, .Lfunc_end15-unRLE_obuf_to_output_SMALL
	.cfi_endproc
                                        # -- End function
	.p2align	4, 0x90         # -- Begin function unRLE_obuf_to_output_FAST
	.type	unRLE_obuf_to_output_FAST,@function
unRLE_obuf_to_output_FAST:              # @unRLE_obuf_to_output_FAST
	.cfi_startproc
# %bb.0:                                # %rand_bb
	pushq	%rbp
	.cfi_def_cfa_offset 16
	.cfi_offset %rbp, -16
	movq	%rsp, %rbp
	.cfi_def_cfa_register %rbp
	pushq	%rbx
	pushq	%rax
	.cfi_offset %rbx, -24
	movq	%rdi, %rbx
	callq	get_rand
	cmpl	$0, %eax
	jne	.LBB16_9
# %bb.1:                                # %func_unRLE_obuf_to_output_FAST.119
	movq	%rbx, %rdi
	callq	unRLE_obuf_to_output_FAST.119
	movzbl	%al, %eax
	addq	$8, %rsp
	popq	%rbx
	popq	%rbp
	.cfi_def_cfa %rsp, 8
	retq
.LBB16_2:                               # %func_unRLE_obuf_to_output_FAST.134
	.cfi_def_cfa %rbp, 16
	movq	%rbx, %rdi
	callq	unRLE_obuf_to_output_FAST.134
	movzbl	%al, %eax
	addq	$8, %rsp
	popq	%rbx
	popq	%rbp
	.cfi_def_cfa %rsp, 8
	retq
.LBB16_3:                               # %func_unRLE_obuf_to_output_FAST.166
	.cfi_def_cfa %rbp, 16
	movq	%rbx, %rdi
	callq	unRLE_obuf_to_output_FAST.166
	movzbl	%al, %eax
	addq	$8, %rsp
	popq	%rbx
	popq	%rbp
	.cfi_def_cfa %rsp, 8
	retq
.LBB16_4:                               # %func_unRLE_obuf_to_output_FAST.176
	.cfi_def_cfa %rbp, 16
	movq	%rbx, %rdi
	callq	unRLE_obuf_to_output_FAST.176
	movzbl	%al, %eax
	addq	$8, %rsp
	popq	%rbx
	popq	%rbp
	.cfi_def_cfa %rsp, 8
	retq
.LBB16_5:                               # %func_unRLE_obuf_to_output_FAST.205
	.cfi_def_cfa %rbp, 16
	movq	%rbx, %rdi
	callq	unRLE_obuf_to_output_FAST.205
	movzbl	%al, %eax
	addq	$8, %rsp
	popq	%rbx
	popq	%rbp
	.cfi_def_cfa %rsp, 8
	retq
.LBB16_6:                               # %func_unRLE_obuf_to_output_FAST.217
	.cfi_def_cfa %rbp, 16
	movq	%rbx, %rdi
	callq	unRLE_obuf_to_output_FAST.217
	movzbl	%al, %eax
	addq	$8, %rsp
	popq	%rbx
	popq	%rbp
	.cfi_def_cfa %rsp, 8
	retq
.LBB16_7:                               # %func_unRLE_obuf_to_output_FAST.224
	.cfi_def_cfa %rbp, 16
	movq	%rbx, %rdi
	callq	unRLE_obuf_to_output_FAST.224
	movzbl	%al, %eax
	addq	$8, %rsp
	popq	%rbx
	popq	%rbp
	.cfi_def_cfa %rsp, 8
	retq
.LBB16_8:                               # %func_unRLE_obuf_to_output_FAST.227
	.cfi_def_cfa %rbp, 16
	movq	%rbx, %rdi
	callq	unRLE_obuf_to_output_FAST.227
	movzbl	%al, %eax
	addq	$8, %rsp
	popq	%rbx
	popq	%rbp
	.cfi_def_cfa %rsp, 8
	retq
.LBB16_9:                               # %ctrl0
	.cfi_def_cfa %rbp, 16
	cmpl	$1, %eax
	je	.LBB16_2
# %bb.10:                               # %ctrl1
	cmpl	$2, %eax
	je	.LBB16_3
# %bb.11:                               # %ctrl2
	cmpl	$3, %eax
	je	.LBB16_4
# %bb.12:                               # %ctrl3
	cmpl	$4, %eax
	je	.LBB16_5
# %bb.13:                               # %ctrl4
	cmpl	$5, %eax
	je	.LBB16_6
# %bb.14:                               # %ctrl5
	cmpl	$6, %eax
	je	.LBB16_7
	jmp	.LBB16_8
.Lfunc_end16:
	.size	unRLE_obuf_to_output_FAST, .Lfunc_end16-unRLE_obuf_to_output_FAST
	.cfi_endproc
                                        # -- End function
	.globl	BZ2_bzDecompressEnd     # -- Begin function BZ2_bzDecompressEnd
	.p2align	4, 0x90
	.type	BZ2_bzDecompressEnd,@function
BZ2_bzDecompressEnd:                    # @BZ2_bzDecompressEnd
	.cfi_startproc
# %bb.0:                                # %rand_bb
	pushq	%rbp
	.cfi_def_cfa_offset 16
	.cfi_offset %rbp, -16
	movq	%rsp, %rbp
	.cfi_def_cfa_register %rbp
	pushq	%rbx
	pushq	%rax
	.cfi_offset %rbx, -24
	movq	%rdi, %rbx
	callq	get_rand
	cmpl	$0, %eax
	jne	.LBB17_7
# %bb.1:                                # %func_BZ2_bzDecompressEnd.116
	movq	%rbx, %rdi
	callq	BZ2_bzDecompressEnd.116
	addq	$8, %rsp
	popq	%rbx
	popq	%rbp
	.cfi_def_cfa %rsp, 8
	retq
.LBB17_2:                               # %func_BZ2_bzDecompressEnd.137
	.cfi_def_cfa %rbp, 16
	movq	%rbx, %rdi
	callq	BZ2_bzDecompressEnd.137
	addq	$8, %rsp
	popq	%rbx
	popq	%rbp
	.cfi_def_cfa %rsp, 8
	retq
.LBB17_3:                               # %func_BZ2_bzDecompressEnd.160
	.cfi_def_cfa %rbp, 16
	movq	%rbx, %rdi
	callq	BZ2_bzDecompressEnd.160
	addq	$8, %rsp
	popq	%rbx
	popq	%rbp
	.cfi_def_cfa %rsp, 8
	retq
.LBB17_4:                               # %func_BZ2_bzDecompressEnd.182
	.cfi_def_cfa %rbp, 16
	movq	%rbx, %rdi
	callq	BZ2_bzDecompressEnd.182
	addq	$8, %rsp
	popq	%rbx
	popq	%rbp
	.cfi_def_cfa %rsp, 8
	retq
.LBB17_5:                               # %func_BZ2_bzDecompressEnd.189
	.cfi_def_cfa %rbp, 16
	movq	%rbx, %rdi
	callq	BZ2_bzDecompressEnd.189
	addq	$8, %rsp
	popq	%rbx
	popq	%rbp
	.cfi_def_cfa %rsp, 8
	retq
.LBB17_6:                               # %func_BZ2_bzDecompressEnd.223
	.cfi_def_cfa %rbp, 16
	movq	%rbx, %rdi
	callq	BZ2_bzDecompressEnd.223
	addq	$8, %rsp
	popq	%rbx
	popq	%rbp
	.cfi_def_cfa %rsp, 8
	retq
.LBB17_7:                               # %ctrl0
	.cfi_def_cfa %rbp, 16
	cmpl	$1, %eax
	je	.LBB17_2
# %bb.8:                                # %ctrl1
	cmpl	$2, %eax
	je	.LBB17_3
# %bb.9:                                # %ctrl2
	cmpl	$3, %eax
	je	.LBB17_4
# %bb.10:                               # %ctrl3
	cmpl	$4, %eax
	je	.LBB17_5
	jmp	.LBB17_6
.Lfunc_end17:
	.size	BZ2_bzDecompressEnd, .Lfunc_end17-BZ2_bzDecompressEnd
	.cfi_endproc
                                        # -- End function
	.globl	BZ2_bzWriteOpen         # -- Begin function BZ2_bzWriteOpen
	.p2align	4, 0x90
	.type	BZ2_bzWriteOpen,@function
BZ2_bzWriteOpen:                        # @BZ2_bzWriteOpen
	.cfi_startproc
# %bb.0:                                # %rand_bb
	pushq	%rbp
	.cfi_def_cfa_offset 16
	.cfi_offset %rbp, -16
	movq	%rsp, %rbp
	.cfi_def_cfa_register %rbp
	pushq	%r15
	pushq	%r14
	pushq	%r13
	pushq	%r12
	pushq	%rbx
	pushq	%rax
	.cfi_offset %rbx, -56
	.cfi_offset %r12, -48
	.cfi_offset %r13, -40
	.cfi_offset %r14, -32
	.cfi_offset %r15, -24
	movl	%r8d, %r14d
	movl	%ecx, %r15d
	movl	%edx, %r12d
	movq	%rsi, %r13
	movq	%rdi, %rbx
	callq	get_rand
	cmpl	$0, %eax
	jne	.LBB18_9
# %bb.1:                                # %func_BZ2_bzWriteOpen.30
	movq	%rbx, %rdi
	movq	%r13, %rsi
	movl	%r12d, %edx
	movl	%r15d, %ecx
	movl	%r14d, %r8d
	callq	BZ2_bzWriteOpen.30
	addq	$8, %rsp
	popq	%rbx
	popq	%r12
	popq	%r13
	popq	%r14
	popq	%r15
	popq	%rbp
	.cfi_def_cfa %rsp, 8
	retq
.LBB18_2:                               # %func_BZ2_bzWriteOpen.69
	.cfi_def_cfa %rbp, 16
	movq	%rbx, %rdi
	movq	%r13, %rsi
	movl	%r12d, %edx
	movl	%r15d, %ecx
	movl	%r14d, %r8d
	callq	BZ2_bzWriteOpen.69
	addq	$8, %rsp
	popq	%rbx
	popq	%r12
	popq	%r13
	popq	%r14
	popq	%r15
	popq	%rbp
	.cfi_def_cfa %rsp, 8
	retq
.LBB18_3:                               # %func_BZ2_bzWriteOpen.124
	.cfi_def_cfa %rbp, 16
	movq	%rbx, %rdi
	movq	%r13, %rsi
	movl	%r12d, %edx
	movl	%r15d, %ecx
	movl	%r14d, %r8d
	callq	BZ2_bzWriteOpen.124
	addq	$8, %rsp
	popq	%rbx
	popq	%r12
	popq	%r13
	popq	%r14
	popq	%r15
	popq	%rbp
	.cfi_def_cfa %rsp, 8
	retq
.LBB18_4:                               # %func_BZ2_bzWriteOpen.126
	.cfi_def_cfa %rbp, 16
	movq	%rbx, %rdi
	movq	%r13, %rsi
	movl	%r12d, %edx
	movl	%r15d, %ecx
	movl	%r14d, %r8d
	callq	BZ2_bzWriteOpen.126
	addq	$8, %rsp
	popq	%rbx
	popq	%r12
	popq	%r13
	popq	%r14
	popq	%r15
	popq	%rbp
	.cfi_def_cfa %rsp, 8
	retq
.LBB18_5:                               # %func_BZ2_bzWriteOpen.145
	.cfi_def_cfa %rbp, 16
	movq	%rbx, %rdi
	movq	%r13, %rsi
	movl	%r12d, %edx
	movl	%r15d, %ecx
	movl	%r14d, %r8d
	callq	BZ2_bzWriteOpen.145
	addq	$8, %rsp
	popq	%rbx
	popq	%r12
	popq	%r13
	popq	%r14
	popq	%r15
	popq	%rbp
	.cfi_def_cfa %rsp, 8
	retq
.LBB18_6:                               # %func_BZ2_bzWriteOpen.148
	.cfi_def_cfa %rbp, 16
	movq	%rbx, %rdi
	movq	%r13, %rsi
	movl	%r12d, %edx
	movl	%r15d, %ecx
	movl	%r14d, %r8d
	callq	BZ2_bzWriteOpen.148
	addq	$8, %rsp
	popq	%rbx
	popq	%r12
	popq	%r13
	popq	%r14
	popq	%r15
	popq	%rbp
	.cfi_def_cfa %rsp, 8
	retq
.LBB18_7:                               # %func_BZ2_bzWriteOpen.157
	.cfi_def_cfa %rbp, 16
	movq	%rbx, %rdi
	movq	%r13, %rsi
	movl	%r12d, %edx
	movl	%r15d, %ecx
	movl	%r14d, %r8d
	callq	BZ2_bzWriteOpen.157
	addq	$8, %rsp
	popq	%rbx
	popq	%r12
	popq	%r13
	popq	%r14
	popq	%r15
	popq	%rbp
	.cfi_def_cfa %rsp, 8
	retq
.LBB18_8:                               # %func_BZ2_bzWriteOpen.173
	.cfi_def_cfa %rbp, 16
	movq	%rbx, %rdi
	movq	%r13, %rsi
	movl	%r12d, %edx
	movl	%r15d, %ecx
	movl	%r14d, %r8d
	callq	BZ2_bzWriteOpen.173
	addq	$8, %rsp
	popq	%rbx
	popq	%r12
	popq	%r13
	popq	%r14
	popq	%r15
	popq	%rbp
	.cfi_def_cfa %rsp, 8
	retq
.LBB18_9:                               # %ctrl0
	.cfi_def_cfa %rbp, 16
	cmpl	$1, %eax
	je	.LBB18_2
# %bb.10:                               # %ctrl1
	cmpl	$2, %eax
	je	.LBB18_3
# %bb.11:                               # %ctrl2
	cmpl	$3, %eax
	je	.LBB18_4
# %bb.12:                               # %ctrl3
	cmpl	$4, %eax
	je	.LBB18_5
# %bb.13:                               # %ctrl4
	cmpl	$5, %eax
	je	.LBB18_6
# %bb.14:                               # %ctrl5
	cmpl	$6, %eax
	je	.LBB18_7
	jmp	.LBB18_8
.Lfunc_end18:
	.size	BZ2_bzWriteOpen, .Lfunc_end18-BZ2_bzWriteOpen
	.cfi_endproc
                                        # -- End function
	.globl	BZ2_bzWrite             # -- Begin function BZ2_bzWrite
	.p2align	4, 0x90
	.type	BZ2_bzWrite,@function
BZ2_bzWrite:                            # @BZ2_bzWrite
	.cfi_startproc
# %bb.0:                                # %rand_bb
	pushq	%rbp
	.cfi_def_cfa_offset 16
	.cfi_offset %rbp, -16
	movq	%rsp, %rbp
	.cfi_def_cfa_register %rbp
	pushq	%r15
	pushq	%r14
	pushq	%r12
	pushq	%rbx
	.cfi_offset %rbx, -48
	.cfi_offset %r12, -40
	.cfi_offset %r14, -32
	.cfi_offset %r15, -24
	movl	%ecx, %r14d
	movq	%rdx, %r15
	movq	%rsi, %r12
	movq	%rdi, %rbx
	callq	get_rand
	cmpl	$0, %eax
	jne	.LBB19_9
# %bb.1:                                # %func_BZ2_bzWrite.12
	movq	%rbx, %rdi
	movq	%r12, %rsi
	movq	%r15, %rdx
	movl	%r14d, %ecx
	callq	BZ2_bzWrite.12
	popq	%rbx
	popq	%r12
	popq	%r14
	popq	%r15
	popq	%rbp
	.cfi_def_cfa %rsp, 8
	retq
.LBB19_2:                               # %func_BZ2_bzWrite.46
	.cfi_def_cfa %rbp, 16
	movq	%rbx, %rdi
	movq	%r12, %rsi
	movq	%r15, %rdx
	movl	%r14d, %ecx
	callq	BZ2_bzWrite.46
	popq	%rbx
	popq	%r12
	popq	%r14
	popq	%r15
	popq	%rbp
	.cfi_def_cfa %rsp, 8
	retq
.LBB19_3:                               # %func_BZ2_bzWrite.73
	.cfi_def_cfa %rbp, 16
	movq	%rbx, %rdi
	movq	%r12, %rsi
	movq	%r15, %rdx
	movl	%r14d, %ecx
	callq	BZ2_bzWrite.73
	popq	%rbx
	popq	%r12
	popq	%r14
	popq	%r15
	popq	%rbp
	.cfi_def_cfa %rsp, 8
	retq
.LBB19_4:                               # %func_BZ2_bzWrite.77
	.cfi_def_cfa %rbp, 16
	movq	%rbx, %rdi
	movq	%r12, %rsi
	movq	%r15, %rdx
	movl	%r14d, %ecx
	callq	BZ2_bzWrite.77
	popq	%rbx
	popq	%r12
	popq	%r14
	popq	%r15
	popq	%rbp
	.cfi_def_cfa %rsp, 8
	retq
.LBB19_5:                               # %func_BZ2_bzWrite.78
	.cfi_def_cfa %rbp, 16
	movq	%rbx, %rdi
	movq	%r12, %rsi
	movq	%r15, %rdx
	movl	%r14d, %ecx
	callq	BZ2_bzWrite.78
	popq	%rbx
	popq	%r12
	popq	%r14
	popq	%r15
	popq	%rbp
	.cfi_def_cfa %rsp, 8
	retq
.LBB19_6:                               # %func_BZ2_bzWrite.86
	.cfi_def_cfa %rbp, 16
	movq	%rbx, %rdi
	movq	%r12, %rsi
	movq	%r15, %rdx
	movl	%r14d, %ecx
	callq	BZ2_bzWrite.86
	popq	%rbx
	popq	%r12
	popq	%r14
	popq	%r15
	popq	%rbp
	.cfi_def_cfa %rsp, 8
	retq
.LBB19_7:                               # %func_BZ2_bzWrite.133
	.cfi_def_cfa %rbp, 16
	movq	%rbx, %rdi
	movq	%r12, %rsi
	movq	%r15, %rdx
	movl	%r14d, %ecx
	callq	BZ2_bzWrite.133
	popq	%rbx
	popq	%r12
	popq	%r14
	popq	%r15
	popq	%rbp
	.cfi_def_cfa %rsp, 8
	retq
.LBB19_8:                               # %func_BZ2_bzWrite.184
	.cfi_def_cfa %rbp, 16
	movq	%rbx, %rdi
	movq	%r12, %rsi
	movq	%r15, %rdx
	movl	%r14d, %ecx
	callq	BZ2_bzWrite.184
	popq	%rbx
	popq	%r12
	popq	%r14
	popq	%r15
	popq	%rbp
	.cfi_def_cfa %rsp, 8
	retq
.LBB19_9:                               # %ctrl0
	.cfi_def_cfa %rbp, 16
	cmpl	$1, %eax
	je	.LBB19_2
# %bb.10:                               # %ctrl1
	cmpl	$2, %eax
	je	.LBB19_3
# %bb.11:                               # %ctrl2
	cmpl	$3, %eax
	je	.LBB19_4
# %bb.12:                               # %ctrl3
	cmpl	$4, %eax
	je	.LBB19_5
# %bb.13:                               # %ctrl4
	cmpl	$5, %eax
	je	.LBB19_6
# %bb.14:                               # %ctrl5
	cmpl	$6, %eax
	je	.LBB19_7
	jmp	.LBB19_8
.Lfunc_end19:
	.size	BZ2_bzWrite, .Lfunc_end19-BZ2_bzWrite
	.cfi_endproc
                                        # -- End function
	.globl	BZ2_bzWriteClose        # -- Begin function BZ2_bzWriteClose
	.p2align	4, 0x90
	.type	BZ2_bzWriteClose,@function
BZ2_bzWriteClose:                       # @BZ2_bzWriteClose
	.cfi_startproc
# %bb.0:                                # %rand_bb
	pushq	%rbp
	.cfi_def_cfa_offset 16
	.cfi_offset %rbp, -16
	movq	%rsp, %rbp
	.cfi_def_cfa_register %rbp
	pushq	%r15
	pushq	%r14
	pushq	%r13
	pushq	%r12
	pushq	%rbx
	pushq	%rax
	.cfi_offset %rbx, -56
	.cfi_offset %r12, -48
	.cfi_offset %r13, -40
	.cfi_offset %r14, -32
	.cfi_offset %r15, -24
	movq	%r8, %r14
	movq	%rcx, %r15
	movl	%edx, %r12d
	movq	%rsi, %r13
	movq	%rdi, %rbx
	callq	get_rand
	cmpl	$0, %eax
	jne	.LBB20_9
# %bb.1:                                # %func_BZ2_bzWriteClose.34
	movq	%rbx, %rdi
	movq	%r13, %rsi
	movl	%r12d, %edx
	movq	%r15, %rcx
	movq	%r14, %r8
	callq	BZ2_bzWriteClose.34
	addq	$8, %rsp
	popq	%rbx
	popq	%r12
	popq	%r13
	popq	%r14
	popq	%r15
	popq	%rbp
	.cfi_def_cfa %rsp, 8
	retq
.LBB20_2:                               # %func_BZ2_bzWriteClose.43
	.cfi_def_cfa %rbp, 16
	movq	%rbx, %rdi
	movq	%r13, %rsi
	movl	%r12d, %edx
	movq	%r15, %rcx
	movq	%r14, %r8
	callq	BZ2_bzWriteClose.43
	addq	$8, %rsp
	popq	%rbx
	popq	%r12
	popq	%r13
	popq	%r14
	popq	%r15
	popq	%rbp
	.cfi_def_cfa %rsp, 8
	retq
.LBB20_3:                               # %func_BZ2_bzWriteClose.45
	.cfi_def_cfa %rbp, 16
	movq	%rbx, %rdi
	movq	%r13, %rsi
	movl	%r12d, %edx
	movq	%r15, %rcx
	movq	%r14, %r8
	callq	BZ2_bzWriteClose.45
	addq	$8, %rsp
	popq	%rbx
	popq	%r12
	popq	%r13
	popq	%r14
	popq	%r15
	popq	%rbp
	.cfi_def_cfa %rsp, 8
	retq
.LBB20_4:                               # %func_BZ2_bzWriteClose.94
	.cfi_def_cfa %rbp, 16
	movq	%rbx, %rdi
	movq	%r13, %rsi
	movl	%r12d, %edx
	movq	%r15, %rcx
	movq	%r14, %r8
	callq	BZ2_bzWriteClose.94
	addq	$8, %rsp
	popq	%rbx
	popq	%r12
	popq	%r13
	popq	%r14
	popq	%r15
	popq	%rbp
	.cfi_def_cfa %rsp, 8
	retq
.LBB20_5:                               # %func_BZ2_bzWriteClose.135
	.cfi_def_cfa %rbp, 16
	movq	%rbx, %rdi
	movq	%r13, %rsi
	movl	%r12d, %edx
	movq	%r15, %rcx
	movq	%r14, %r8
	callq	BZ2_bzWriteClose.135
	addq	$8, %rsp
	popq	%rbx
	popq	%r12
	popq	%r13
	popq	%r14
	popq	%r15
	popq	%rbp
	.cfi_def_cfa %rsp, 8
	retq
.LBB20_6:                               # %func_BZ2_bzWriteClose.163
	.cfi_def_cfa %rbp, 16
	movq	%rbx, %rdi
	movq	%r13, %rsi
	movl	%r12d, %edx
	movq	%r15, %rcx
	movq	%r14, %r8
	callq	BZ2_bzWriteClose.163
	addq	$8, %rsp
	popq	%rbx
	popq	%r12
	popq	%r13
	popq	%r14
	popq	%r15
	popq	%rbp
	.cfi_def_cfa %rsp, 8
	retq
.LBB20_7:                               # %func_BZ2_bzWriteClose.177
	.cfi_def_cfa %rbp, 16
	movq	%rbx, %rdi
	movq	%r13, %rsi
	movl	%r12d, %edx
	movq	%r15, %rcx
	movq	%r14, %r8
	callq	BZ2_bzWriteClose.177
	addq	$8, %rsp
	popq	%rbx
	popq	%r12
	popq	%r13
	popq	%r14
	popq	%r15
	popq	%rbp
	.cfi_def_cfa %rsp, 8
	retq
.LBB20_8:                               # %func_BZ2_bzWriteClose.213
	.cfi_def_cfa %rbp, 16
	movq	%rbx, %rdi
	movq	%r13, %rsi
	movl	%r12d, %edx
	movq	%r15, %rcx
	movq	%r14, %r8
	callq	BZ2_bzWriteClose.213
	addq	$8, %rsp
	popq	%rbx
	popq	%r12
	popq	%r13
	popq	%r14
	popq	%r15
	popq	%rbp
	.cfi_def_cfa %rsp, 8
	retq
.LBB20_9:                               # %ctrl0
	.cfi_def_cfa %rbp, 16
	cmpl	$1, %eax
	je	.LBB20_2
# %bb.10:                               # %ctrl1
	cmpl	$2, %eax
	je	.LBB20_3
# %bb.11:                               # %ctrl2
	cmpl	$3, %eax
	je	.LBB20_4
# %bb.12:                               # %ctrl3
	cmpl	$4, %eax
	je	.LBB20_5
# %bb.13:                               # %ctrl4
	cmpl	$5, %eax
	je	.LBB20_6
# %bb.14:                               # %ctrl5
	cmpl	$6, %eax
	je	.LBB20_7
	jmp	.LBB20_8
.Lfunc_end20:
	.size	BZ2_bzWriteClose, .Lfunc_end20-BZ2_bzWriteClose
	.cfi_endproc
                                        # -- End function
	.globl	BZ2_bzWriteClose64      # -- Begin function BZ2_bzWriteClose64
	.p2align	4, 0x90
	.type	BZ2_bzWriteClose64,@function
BZ2_bzWriteClose64:                     # @BZ2_bzWriteClose64
	.cfi_startproc
# %bb.0:                                # %rand_bb
	pushq	%rbp
	.cfi_def_cfa_offset 16
	.cfi_offset %rbp, -16
	movq	%rsp, %rbp
	.cfi_def_cfa_register %rbp
	pushq	%r15
	pushq	%r14
	pushq	%r13
	pushq	%r12
	pushq	%rbx
	subq	$24, %rsp
	.cfi_offset %rbx, -56
	.cfi_offset %r12, -48
	.cfi_offset %r13, -40
	.cfi_offset %r14, -32
	.cfi_offset %r15, -24
	movq	%r9, -48(%rbp)          # 8-byte Spill
	movq	%r8, %r13
	movq	%rcx, %r15
	movl	%edx, %ebx
	movq	%rsi, %r14
	movq	%rdi, %r12
	callq	get_rand
	cmpl	$0, %eax
	jne	.LBB21_9
# %bb.1:                                # %func_BZ2_bzWriteClose64.63
	movq	%r12, %rdi
	movq	%r14, %rsi
	movl	%ebx, %edx
	movq	%r15, %rcx
	movq	%r13, %r8
	movq	-48(%rbp), %r9          # 8-byte Reload
	movq	16(%rbp), %rax
	movq	%rax, (%rsp)
	callq	BZ2_bzWriteClose64.63
	addq	$24, %rsp
	popq	%rbx
	popq	%r12
	popq	%r13
	popq	%r14
	popq	%r15
	popq	%rbp
	.cfi_def_cfa %rsp, 8
	retq
.LBB21_2:                               # %func_BZ2_bzWriteClose64.76
	.cfi_def_cfa %rbp, 16
	movq	%r12, %rdi
	movq	%r14, %rsi
	movl	%ebx, %edx
	movq	%r15, %rcx
	movq	%r13, %r8
	movq	%r10, (%rsp)
	callq	BZ2_bzWriteClose64.76
	addq	$24, %rsp
	popq	%rbx
	popq	%r12
	popq	%r13
	popq	%r14
	popq	%r15
	popq	%rbp
	.cfi_def_cfa %rsp, 8
	retq
.LBB21_3:                               # %func_BZ2_bzWriteClose64.100
	.cfi_def_cfa %rbp, 16
	movq	%r12, %rdi
	movq	%r14, %rsi
	movl	%ebx, %edx
	movq	%r15, %rcx
	movq	%r13, %r8
	movq	%r10, (%rsp)
	callq	BZ2_bzWriteClose64.100
	addq	$24, %rsp
	popq	%rbx
	popq	%r12
	popq	%r13
	popq	%r14
	popq	%r15
	popq	%rbp
	.cfi_def_cfa %rsp, 8
	retq
.LBB21_4:                               # %func_BZ2_bzWriteClose64.108
	.cfi_def_cfa %rbp, 16
	movq	%r12, %rdi
	movq	%r14, %rsi
	movl	%ebx, %edx
	movq	%r15, %rcx
	movq	%r13, %r8
	movq	%r10, (%rsp)
	callq	BZ2_bzWriteClose64.108
	addq	$24, %rsp
	popq	%rbx
	popq	%r12
	popq	%r13
	popq	%r14
	popq	%r15
	popq	%rbp
	.cfi_def_cfa %rsp, 8
	retq
.LBB21_5:                               # %func_BZ2_bzWriteClose64.120
	.cfi_def_cfa %rbp, 16
	movq	%r12, %rdi
	movq	%r14, %rsi
	movl	%ebx, %edx
	movq	%r15, %rcx
	movq	%r13, %r8
	movq	%r10, (%rsp)
	callq	BZ2_bzWriteClose64.120
	addq	$24, %rsp
	popq	%rbx
	popq	%r12
	popq	%r13
	popq	%r14
	popq	%r15
	popq	%rbp
	.cfi_def_cfa %rsp, 8
	retq
.LBB21_6:                               # %func_BZ2_bzWriteClose64.142
	.cfi_def_cfa %rbp, 16
	movq	%r12, %rdi
	movq	%r14, %rsi
	movl	%ebx, %edx
	movq	%r15, %rcx
	movq	%r13, %r8
	movq	%r10, (%rsp)
	callq	BZ2_bzWriteClose64.142
	addq	$24, %rsp
	popq	%rbx
	popq	%r12
	popq	%r13
	popq	%r14
	popq	%r15
	popq	%rbp
	.cfi_def_cfa %rsp, 8
	retq
.LBB21_7:                               # %func_BZ2_bzWriteClose64.161
	.cfi_def_cfa %rbp, 16
	movq	%r10, (%rsp)
	callq	BZ2_bzWriteClose64.161
	addq	$24, %rsp
	popq	%rbx
	popq	%r12
	popq	%r13
	popq	%r14
	popq	%r15
	popq	%rbp
	.cfi_def_cfa %rsp, 8
	retq
.LBB21_8:                               # %func_BZ2_bzWriteClose64.171
	.cfi_def_cfa %rbp, 16
	movq	%r10, (%rsp)
	callq	BZ2_bzWriteClose64.171
	addq	$24, %rsp
	popq	%rbx
	popq	%r12
	popq	%r13
	popq	%r14
	popq	%r15
	popq	%rbp
	.cfi_def_cfa %rsp, 8
	retq
.LBB21_9:                               # %ctrl0
	.cfi_def_cfa %rbp, 16
	movq	-48(%rbp), %r9          # 8-byte Reload
	movq	16(%rbp), %r10
	cmpl	$1, %eax
	je	.LBB21_2
# %bb.10:                               # %ctrl1
	cmpl	$2, %eax
	je	.LBB21_3
# %bb.11:                               # %ctrl2
	cmpl	$3, %eax
	je	.LBB21_4
# %bb.12:                               # %ctrl3
	cmpl	$4, %eax
	je	.LBB21_5
# %bb.13:                               # %ctrl4
	cmpl	$5, %eax
	je	.LBB21_6
# %bb.14:                               # %ctrl5
	cmpl	$6, %eax
	movq	%r13, %r8
	movq	%r15, %rcx
	movl	%ebx, %edx
	movq	%r14, %rsi
	movq	%r12, %rdi
	je	.LBB21_7
	jmp	.LBB21_8
.Lfunc_end21:
	.size	BZ2_bzWriteClose64, .Lfunc_end21-BZ2_bzWriteClose64
	.cfi_endproc
                                        # -- End function
	.globl	BZ2_bzReadOpen          # -- Begin function BZ2_bzReadOpen
	.p2align	4, 0x90
	.type	BZ2_bzReadOpen,@function
BZ2_bzReadOpen:                         # @BZ2_bzReadOpen
	.cfi_startproc
# %bb.0:                                # %rand_bb
	pushq	%rbp
	.cfi_def_cfa_offset 16
	.cfi_offset %rbp, -16
	movq	%rsp, %rbp
	.cfi_def_cfa_register %rbp
	pushq	%r15
	pushq	%r14
	pushq	%r13
	pushq	%r12
	pushq	%rbx
	pushq	%rax
	.cfi_offset %rbx, -56
	.cfi_offset %r12, -48
	.cfi_offset %r13, -40
	.cfi_offset %r14, -32
	.cfi_offset %r15, -24
	movl	%r9d, -44(%rbp)         # 4-byte Spill
	movq	%r8, %r12
	movl	%ecx, %r13d
	movl	%edx, %ebx
	movq	%rsi, %r14
	movq	%rdi, %r15
	callq	get_rand
	cmpl	$0, %eax
	jne	.LBB22_9
# %bb.1:                                # %func_BZ2_bzReadOpen.3
	movq	%r15, %rdi
	movq	%r14, %rsi
	movl	%ebx, %edx
	movl	%r13d, %ecx
	movq	%r12, %r8
	movl	-44(%rbp), %r9d         # 4-byte Reload
	callq	BZ2_bzReadOpen.3
	addq	$8, %rsp
	popq	%rbx
	popq	%r12
	popq	%r13
	popq	%r14
	popq	%r15
	popq	%rbp
	.cfi_def_cfa %rsp, 8
	retq
.LBB22_2:                               # %func_BZ2_bzReadOpen.24
	.cfi_def_cfa %rbp, 16
	movq	%r15, %rdi
	movq	%r14, %rsi
	movl	%ebx, %edx
	movl	%r13d, %ecx
	movq	%r12, %r8
	callq	BZ2_bzReadOpen.24
	addq	$8, %rsp
	popq	%rbx
	popq	%r12
	popq	%r13
	popq	%r14
	popq	%r15
	popq	%rbp
	.cfi_def_cfa %rsp, 8
	retq
.LBB22_3:                               # %func_BZ2_bzReadOpen.47
	.cfi_def_cfa %rbp, 16
	movq	%r15, %rdi
	movq	%r14, %rsi
	movl	%ebx, %edx
	movl	%r13d, %ecx
	movq	%r12, %r8
	callq	BZ2_bzReadOpen.47
	addq	$8, %rsp
	popq	%rbx
	popq	%r12
	popq	%r13
	popq	%r14
	popq	%r15
	popq	%rbp
	.cfi_def_cfa %rsp, 8
	retq
.LBB22_4:                               # %func_BZ2_bzReadOpen.53
	.cfi_def_cfa %rbp, 16
	movq	%r15, %rdi
	movq	%r14, %rsi
	movl	%ebx, %edx
	movl	%r13d, %ecx
	movq	%r12, %r8
	callq	BZ2_bzReadOpen.53
	addq	$8, %rsp
	popq	%rbx
	popq	%r12
	popq	%r13
	popq	%r14
	popq	%r15
	popq	%rbp
	.cfi_def_cfa %rsp, 8
	retq
.LBB22_5:                               # %func_BZ2_bzReadOpen.57
	.cfi_def_cfa %rbp, 16
	movq	%r15, %rdi
	movq	%r14, %rsi
	movl	%ebx, %edx
	movl	%r13d, %ecx
	movq	%r12, %r8
	callq	BZ2_bzReadOpen.57
	addq	$8, %rsp
	popq	%rbx
	popq	%r12
	popq	%r13
	popq	%r14
	popq	%r15
	popq	%rbp
	.cfi_def_cfa %rsp, 8
	retq
.LBB22_6:                               # %func_BZ2_bzReadOpen.64
	.cfi_def_cfa %rbp, 16
	movq	%r15, %rdi
	movq	%r14, %rsi
	movl	%ebx, %edx
	movl	%r13d, %ecx
	movq	%r12, %r8
	callq	BZ2_bzReadOpen.64
	addq	$8, %rsp
	popq	%rbx
	popq	%r12
	popq	%r13
	popq	%r14
	popq	%r15
	popq	%rbp
	.cfi_def_cfa %rsp, 8
	retq
.LBB22_7:                               # %func_BZ2_bzReadOpen.71
	.cfi_def_cfa %rbp, 16
	callq	BZ2_bzReadOpen.71
	addq	$8, %rsp
	popq	%rbx
	popq	%r12
	popq	%r13
	popq	%r14
	popq	%r15
	popq	%rbp
	.cfi_def_cfa %rsp, 8
	retq
.LBB22_8:                               # %func_BZ2_bzReadOpen.83
	.cfi_def_cfa %rbp, 16
	callq	BZ2_bzReadOpen.83
	addq	$8, %rsp
	popq	%rbx
	popq	%r12
	popq	%r13
	popq	%r14
	popq	%r15
	popq	%rbp
	.cfi_def_cfa %rsp, 8
	retq
.LBB22_9:                               # %ctrl0
	.cfi_def_cfa %rbp, 16
	movl	-44(%rbp), %r9d         # 4-byte Reload
	cmpl	$1, %eax
	je	.LBB22_2
# %bb.10:                               # %ctrl1
	cmpl	$2, %eax
	je	.LBB22_3
# %bb.11:                               # %ctrl2
	cmpl	$3, %eax
	je	.LBB22_4
# %bb.12:                               # %ctrl3
	cmpl	$4, %eax
	je	.LBB22_5
# %bb.13:                               # %ctrl4
	cmpl	$5, %eax
	je	.LBB22_6
# %bb.14:                               # %ctrl5
	cmpl	$6, %eax
	movq	%r12, %r8
	movl	%r13d, %ecx
	movl	%ebx, %edx
	movq	%r14, %rsi
	movq	%r15, %rdi
	je	.LBB22_7
	jmp	.LBB22_8
.Lfunc_end22:
	.size	BZ2_bzReadOpen, .Lfunc_end22-BZ2_bzReadOpen
	.cfi_endproc
                                        # -- End function
	.globl	BZ2_bzReadClose         # -- Begin function BZ2_bzReadClose
	.p2align	4, 0x90
	.type	BZ2_bzReadClose,@function
BZ2_bzReadClose:                        # @BZ2_bzReadClose
	.cfi_startproc
# %bb.0:                                # %rand_bb
	pushq	%rbp
	.cfi_def_cfa_offset 16
	.cfi_offset %rbp, -16
	movq	%rsp, %rbp
	.cfi_def_cfa_register %rbp
	pushq	%r14
	pushq	%rbx
	.cfi_offset %rbx, -32
	.cfi_offset %r14, -24
	movq	%rsi, %r14
	movq	%rdi, %rbx
	callq	get_rand
	cmpl	$0, %eax
	jne	.LBB23_7
# %bb.1:                                # %func_BZ2_bzReadClose.4
	movq	%rbx, %rdi
	movq	%r14, %rsi
	callq	BZ2_bzReadClose.4
	popq	%rbx
	popq	%r14
	popq	%rbp
	.cfi_def_cfa %rsp, 8
	retq
.LBB23_2:                               # %func_BZ2_bzReadClose.55
	.cfi_def_cfa %rbp, 16
	movq	%rbx, %rdi
	movq	%r14, %rsi
	callq	BZ2_bzReadClose.55
	popq	%rbx
	popq	%r14
	popq	%rbp
	.cfi_def_cfa %rsp, 8
	retq
.LBB23_3:                               # %func_BZ2_bzReadClose.59
	.cfi_def_cfa %rbp, 16
	movq	%rbx, %rdi
	movq	%r14, %rsi
	callq	BZ2_bzReadClose.59
	popq	%rbx
	popq	%r14
	popq	%rbp
	.cfi_def_cfa %rsp, 8
	retq
.LBB23_4:                               # %func_BZ2_bzReadClose.147
	.cfi_def_cfa %rbp, 16
	movq	%rbx, %rdi
	movq	%r14, %rsi
	callq	BZ2_bzReadClose.147
	popq	%rbx
	popq	%r14
	popq	%rbp
	.cfi_def_cfa %rsp, 8
	retq
.LBB23_5:                               # %func_BZ2_bzReadClose.181
	.cfi_def_cfa %rbp, 16
	movq	%rbx, %rdi
	movq	%r14, %rsi
	callq	BZ2_bzReadClose.181
	popq	%rbx
	popq	%r14
	popq	%rbp
	.cfi_def_cfa %rsp, 8
	retq
.LBB23_6:                               # %func_BZ2_bzReadClose.194
	.cfi_def_cfa %rbp, 16
	movq	%rbx, %rdi
	movq	%r14, %rsi
	callq	BZ2_bzReadClose.194
	popq	%rbx
	popq	%r14
	popq	%rbp
	.cfi_def_cfa %rsp, 8
	retq
.LBB23_7:                               # %ctrl0
	.cfi_def_cfa %rbp, 16
	cmpl	$1, %eax
	je	.LBB23_2
# %bb.8:                                # %ctrl1
	cmpl	$2, %eax
	je	.LBB23_3
# %bb.9:                                # %ctrl2
	cmpl	$3, %eax
	je	.LBB23_4
# %bb.10:                               # %ctrl3
	cmpl	$4, %eax
	je	.LBB23_5
	jmp	.LBB23_6
.Lfunc_end23:
	.size	BZ2_bzReadClose, .Lfunc_end23-BZ2_bzReadClose
	.cfi_endproc
                                        # -- End function
	.globl	BZ2_bzRead              # -- Begin function BZ2_bzRead
	.p2align	4, 0x90
	.type	BZ2_bzRead,@function
BZ2_bzRead:                             # @BZ2_bzRead
	.cfi_startproc
# %bb.0:                                # %rand_bb
	pushq	%rbp
	.cfi_def_cfa_offset 16
	.cfi_offset %rbp, -16
	movq	%rsp, %rbp
	.cfi_def_cfa_register %rbp
	pushq	%r15
	pushq	%r14
	pushq	%r12
	pushq	%rbx
	.cfi_offset %rbx, -48
	.cfi_offset %r12, -40
	.cfi_offset %r14, -32
	.cfi_offset %r15, -24
	movl	%ecx, %r14d
	movq	%rdx, %r15
	movq	%rsi, %r12
	movq	%rdi, %rbx
	callq	get_rand
	cmpl	$0, %eax
	jne	.LBB24_9
# %bb.1:                                # %func_BZ2_bzRead.32
	movq	%rbx, %rdi
	movq	%r12, %rsi
	movq	%r15, %rdx
	movl	%r14d, %ecx
	callq	BZ2_bzRead.32
	popq	%rbx
	popq	%r12
	popq	%r14
	popq	%r15
	popq	%rbp
	.cfi_def_cfa %rsp, 8
	retq
.LBB24_2:                               # %func_BZ2_bzRead.33
	.cfi_def_cfa %rbp, 16
	movq	%rbx, %rdi
	movq	%r12, %rsi
	movq	%r15, %rdx
	movl	%r14d, %ecx
	callq	BZ2_bzRead.33
	popq	%rbx
	popq	%r12
	popq	%r14
	popq	%r15
	popq	%rbp
	.cfi_def_cfa %rsp, 8
	retq
.LBB24_3:                               # %func_BZ2_bzRead.41
	.cfi_def_cfa %rbp, 16
	movq	%rbx, %rdi
	movq	%r12, %rsi
	movq	%r15, %rdx
	movl	%r14d, %ecx
	callq	BZ2_bzRead.41
	popq	%rbx
	popq	%r12
	popq	%r14
	popq	%r15
	popq	%rbp
	.cfi_def_cfa %rsp, 8
	retq
.LBB24_4:                               # %func_BZ2_bzRead.60
	.cfi_def_cfa %rbp, 16
	movq	%rbx, %rdi
	movq	%r12, %rsi
	movq	%r15, %rdx
	movl	%r14d, %ecx
	callq	BZ2_bzRead.60
	popq	%rbx
	popq	%r12
	popq	%r14
	popq	%r15
	popq	%rbp
	.cfi_def_cfa %rsp, 8
	retq
.LBB24_5:                               # %func_BZ2_bzRead.72
	.cfi_def_cfa %rbp, 16
	movq	%rbx, %rdi
	movq	%r12, %rsi
	movq	%r15, %rdx
	movl	%r14d, %ecx
	callq	BZ2_bzRead.72
	popq	%rbx
	popq	%r12
	popq	%r14
	popq	%r15
	popq	%rbp
	.cfi_def_cfa %rsp, 8
	retq
.LBB24_6:                               # %func_BZ2_bzRead.138
	.cfi_def_cfa %rbp, 16
	movq	%rbx, %rdi
	movq	%r12, %rsi
	movq	%r15, %rdx
	movl	%r14d, %ecx
	callq	BZ2_bzRead.138
	popq	%rbx
	popq	%r12
	popq	%r14
	popq	%r15
	popq	%rbp
	.cfi_def_cfa %rsp, 8
	retq
.LBB24_7:                               # %func_BZ2_bzRead.139
	.cfi_def_cfa %rbp, 16
	movq	%rbx, %rdi
	movq	%r12, %rsi
	movq	%r15, %rdx
	movl	%r14d, %ecx
	callq	BZ2_bzRead.139
	popq	%rbx
	popq	%r12
	popq	%r14
	popq	%r15
	popq	%rbp
	.cfi_def_cfa %rsp, 8
	retq
.LBB24_8:                               # %func_BZ2_bzRead.185
	.cfi_def_cfa %rbp, 16
	movq	%rbx, %rdi
	movq	%r12, %rsi
	movq	%r15, %rdx
	movl	%r14d, %ecx
	callq	BZ2_bzRead.185
	popq	%rbx
	popq	%r12
	popq	%r14
	popq	%r15
	popq	%rbp
	.cfi_def_cfa %rsp, 8
	retq
.LBB24_9:                               # %ctrl0
	.cfi_def_cfa %rbp, 16
	cmpl	$1, %eax
	je	.LBB24_2
# %bb.10:                               # %ctrl1
	cmpl	$2, %eax
	je	.LBB24_3
# %bb.11:                               # %ctrl2
	cmpl	$3, %eax
	je	.LBB24_4
# %bb.12:                               # %ctrl3
	cmpl	$4, %eax
	je	.LBB24_5
# %bb.13:                               # %ctrl4
	cmpl	$5, %eax
	je	.LBB24_6
# %bb.14:                               # %ctrl5
	cmpl	$6, %eax
	je	.LBB24_7
	jmp	.LBB24_8
.Lfunc_end24:
	.size	BZ2_bzRead, .Lfunc_end24-BZ2_bzRead
	.cfi_endproc
                                        # -- End function
	.p2align	4, 0x90         # -- Begin function myfeof
	.type	myfeof,@function
myfeof:                                 # @myfeof
	.cfi_startproc
# %bb.0:                                # %rand_bb
	pushq	%rbp
	.cfi_def_cfa_offset 16
	.cfi_offset %rbp, -16
	movq	%rsp, %rbp
	.cfi_def_cfa_register %rbp
	pushq	%rbx
	pushq	%rax
	.cfi_offset %rbx, -24
	movq	%rdi, %rbx
	callq	get_rand
	cmpl	$0, %eax
	jne	.LBB25_7
# %bb.1:                                # %func_myfeof.81
	movq	%rbx, %rdi
	callq	myfeof.81
	movzbl	%al, %eax
	addq	$8, %rsp
	popq	%rbx
	popq	%rbp
	.cfi_def_cfa %rsp, 8
	retq
.LBB25_2:                               # %func_myfeof.111
	.cfi_def_cfa %rbp, 16
	movq	%rbx, %rdi
	callq	myfeof.111
	movzbl	%al, %eax
	addq	$8, %rsp
	popq	%rbx
	popq	%rbp
	.cfi_def_cfa %rsp, 8
	retq
.LBB25_3:                               # %func_myfeof.117
	.cfi_def_cfa %rbp, 16
	movq	%rbx, %rdi
	callq	myfeof.117
	movzbl	%al, %eax
	addq	$8, %rsp
	popq	%rbx
	popq	%rbp
	.cfi_def_cfa %rsp, 8
	retq
.LBB25_4:                               # %func_myfeof.131
	.cfi_def_cfa %rbp, 16
	movq	%rbx, %rdi
	callq	myfeof.131
	movzbl	%al, %eax
	addq	$8, %rsp
	popq	%rbx
	popq	%rbp
	.cfi_def_cfa %rsp, 8
	retq
.LBB25_5:                               # %func_myfeof.154
	.cfi_def_cfa %rbp, 16
	movq	%rbx, %rdi
	callq	myfeof.154
	movzbl	%al, %eax
	addq	$8, %rsp
	popq	%rbx
	popq	%rbp
	.cfi_def_cfa %rsp, 8
	retq
.LBB25_6:                               # %func_myfeof.167
	.cfi_def_cfa %rbp, 16
	movq	%rbx, %rdi
	callq	myfeof.167
	movzbl	%al, %eax
	addq	$8, %rsp
	popq	%rbx
	popq	%rbp
	.cfi_def_cfa %rsp, 8
	retq
.LBB25_7:                               # %ctrl0
	.cfi_def_cfa %rbp, 16
	cmpl	$1, %eax
	je	.LBB25_2
# %bb.8:                                # %ctrl1
	cmpl	$2, %eax
	je	.LBB25_3
# %bb.9:                                # %ctrl2
	cmpl	$3, %eax
	je	.LBB25_4
# %bb.10:                               # %ctrl3
	cmpl	$4, %eax
	je	.LBB25_5
	jmp	.LBB25_6
.Lfunc_end25:
	.size	myfeof, .Lfunc_end25-myfeof
	.cfi_endproc
                                        # -- End function
	.globl	BZ2_bzReadGetUnused     # -- Begin function BZ2_bzReadGetUnused
	.p2align	4, 0x90
	.type	BZ2_bzReadGetUnused,@function
BZ2_bzReadGetUnused:                    # @BZ2_bzReadGetUnused
	.cfi_startproc
# %bb.0:                                # %rand_bb
	pushq	%rbp
	.cfi_def_cfa_offset 16
	.cfi_offset %rbp, -16
	movq	%rsp, %rbp
	.cfi_def_cfa_register %rbp
	pushq	%r15
	pushq	%r14
	pushq	%r12
	pushq	%rbx
	.cfi_offset %rbx, -48
	.cfi_offset %r12, -40
	.cfi_offset %r14, -32
	.cfi_offset %r15, -24
	movq	%rcx, %r14
	movq	%rdx, %r15
	movq	%rsi, %r12
	movq	%rdi, %rbx
	callq	get_rand
	cmpl	$0, %eax
	jne	.LBB26_9
# %bb.1:                                # %func_BZ2_bzReadGetUnused.8
	movq	%rbx, %rdi
	movq	%r12, %rsi
	movq	%r15, %rdx
	movq	%r14, %rcx
	callq	BZ2_bzReadGetUnused.8
	popq	%rbx
	popq	%r12
	popq	%r14
	popq	%r15
	popq	%rbp
	.cfi_def_cfa %rsp, 8
	retq
.LBB26_2:                               # %func_BZ2_bzReadGetUnused.66
	.cfi_def_cfa %rbp, 16
	movq	%rbx, %rdi
	movq	%r12, %rsi
	movq	%r15, %rdx
	movq	%r14, %rcx
	callq	BZ2_bzReadGetUnused.66
	popq	%rbx
	popq	%r12
	popq	%r14
	popq	%r15
	popq	%rbp
	.cfi_def_cfa %rsp, 8
	retq
.LBB26_3:                               # %func_BZ2_bzReadGetUnused.109
	.cfi_def_cfa %rbp, 16
	movq	%rbx, %rdi
	movq	%r12, %rsi
	movq	%r15, %rdx
	movq	%r14, %rcx
	callq	BZ2_bzReadGetUnused.109
	popq	%rbx
	popq	%r12
	popq	%r14
	popq	%r15
	popq	%rbp
	.cfi_def_cfa %rsp, 8
	retq
.LBB26_4:                               # %func_BZ2_bzReadGetUnused.165
	.cfi_def_cfa %rbp, 16
	movq	%rbx, %rdi
	movq	%r12, %rsi
	movq	%r15, %rdx
	movq	%r14, %rcx
	callq	BZ2_bzReadGetUnused.165
	popq	%rbx
	popq	%r12
	popq	%r14
	popq	%r15
	popq	%rbp
	.cfi_def_cfa %rsp, 8
	retq
.LBB26_5:                               # %func_BZ2_bzReadGetUnused.180
	.cfi_def_cfa %rbp, 16
	movq	%rbx, %rdi
	movq	%r12, %rsi
	movq	%r15, %rdx
	movq	%r14, %rcx
	callq	BZ2_bzReadGetUnused.180
	popq	%rbx
	popq	%r12
	popq	%r14
	popq	%r15
	popq	%rbp
	.cfi_def_cfa %rsp, 8
	retq
.LBB26_6:                               # %func_BZ2_bzReadGetUnused.187
	.cfi_def_cfa %rbp, 16
	movq	%rbx, %rdi
	movq	%r12, %rsi
	movq	%r15, %rdx
	movq	%r14, %rcx
	callq	BZ2_bzReadGetUnused.187
	popq	%rbx
	popq	%r12
	popq	%r14
	popq	%r15
	popq	%rbp
	.cfi_def_cfa %rsp, 8
	retq
.LBB26_7:                               # %func_BZ2_bzReadGetUnused.195
	.cfi_def_cfa %rbp, 16
	movq	%rbx, %rdi
	movq	%r12, %rsi
	movq	%r15, %rdx
	movq	%r14, %rcx
	callq	BZ2_bzReadGetUnused.195
	popq	%rbx
	popq	%r12
	popq	%r14
	popq	%r15
	popq	%rbp
	.cfi_def_cfa %rsp, 8
	retq
.LBB26_8:                               # %func_BZ2_bzReadGetUnused.197
	.cfi_def_cfa %rbp, 16
	movq	%rbx, %rdi
	movq	%r12, %rsi
	movq	%r15, %rdx
	movq	%r14, %rcx
	callq	BZ2_bzReadGetUnused.197
	popq	%rbx
	popq	%r12
	popq	%r14
	popq	%r15
	popq	%rbp
	.cfi_def_cfa %rsp, 8
	retq
.LBB26_9:                               # %ctrl0
	.cfi_def_cfa %rbp, 16
	cmpl	$1, %eax
	je	.LBB26_2
# %bb.10:                               # %ctrl1
	cmpl	$2, %eax
	je	.LBB26_3
# %bb.11:                               # %ctrl2
	cmpl	$3, %eax
	je	.LBB26_4
# %bb.12:                               # %ctrl3
	cmpl	$4, %eax
	je	.LBB26_5
# %bb.13:                               # %ctrl4
	cmpl	$5, %eax
	je	.LBB26_6
# %bb.14:                               # %ctrl5
	cmpl	$6, %eax
	je	.LBB26_7
	jmp	.LBB26_8
.Lfunc_end26:
	.size	BZ2_bzReadGetUnused, .Lfunc_end26-BZ2_bzReadGetUnused
	.cfi_endproc
                                        # -- End function
	.globl	BZ2_bzBuffToBuffCompress # -- Begin function BZ2_bzBuffToBuffCompress
	.p2align	4, 0x90
	.type	BZ2_bzBuffToBuffCompress,@function
BZ2_bzBuffToBuffCompress:               # @BZ2_bzBuffToBuffCompress
	.cfi_startproc
# %bb.0:                                # %rand_bb
	pushq	%rbp
	.cfi_def_cfa_offset 16
	.cfi_offset %rbp, -16
	movq	%rsp, %rbp
	.cfi_def_cfa_register %rbp
	pushq	%r15
	pushq	%r14
	pushq	%r13
	pushq	%r12
	pushq	%rbx
	subq	$24, %rsp
	.cfi_offset %rbx, -56
	.cfi_offset %r12, -48
	.cfi_offset %r13, -40
	.cfi_offset %r14, -32
	.cfi_offset %r15, -24
	movl	%r9d, -44(%rbp)         # 4-byte Spill
	movl	%r8d, %r13d
	movl	%ecx, %r15d
	movq	%rdx, %rbx
	movq	%rsi, %r14
	movq	%rdi, %r12
	callq	get_rand
	cmpl	$0, %eax
	jne	.LBB27_9
# %bb.1:                                # %func_BZ2_bzBuffToBuffCompress.35
	movq	%r12, %rdi
	movq	%r14, %rsi
	movq	%rbx, %rdx
	movl	%r15d, %ecx
	movl	%r13d, %r8d
	movl	-44(%rbp), %r9d         # 4-byte Reload
	movl	16(%rbp), %eax
	movl	%eax, (%rsp)
	callq	BZ2_bzBuffToBuffCompress.35
	addq	$24, %rsp
	popq	%rbx
	popq	%r12
	popq	%r13
	popq	%r14
	popq	%r15
	popq	%rbp
	.cfi_def_cfa %rsp, 8
	retq
.LBB27_2:                               # %func_BZ2_bzBuffToBuffCompress.38
	.cfi_def_cfa %rbp, 16
	movq	%r12, %rdi
	movq	%r14, %rsi
	movq	%rbx, %rdx
	movl	%r15d, %ecx
	movl	%r13d, %r8d
	movl	%r10d, (%rsp)
	callq	BZ2_bzBuffToBuffCompress.38
	addq	$24, %rsp
	popq	%rbx
	popq	%r12
	popq	%r13
	popq	%r14
	popq	%r15
	popq	%rbp
	.cfi_def_cfa %rsp, 8
	retq
.LBB27_3:                               # %func_BZ2_bzBuffToBuffCompress.90
	.cfi_def_cfa %rbp, 16
	movq	%r12, %rdi
	movq	%r14, %rsi
	movq	%rbx, %rdx
	movl	%r15d, %ecx
	movl	%r13d, %r8d
	movl	%r10d, (%rsp)
	callq	BZ2_bzBuffToBuffCompress.90
	addq	$24, %rsp
	popq	%rbx
	popq	%r12
	popq	%r13
	popq	%r14
	popq	%r15
	popq	%rbp
	.cfi_def_cfa %rsp, 8
	retq
.LBB27_4:                               # %func_BZ2_bzBuffToBuffCompress.140
	.cfi_def_cfa %rbp, 16
	movq	%r12, %rdi
	movq	%r14, %rsi
	movq	%rbx, %rdx
	movl	%r15d, %ecx
	movl	%r13d, %r8d
	movl	%r10d, (%rsp)
	callq	BZ2_bzBuffToBuffCompress.140
	addq	$24, %rsp
	popq	%rbx
	popq	%r12
	popq	%r13
	popq	%r14
	popq	%r15
	popq	%rbp
	.cfi_def_cfa %rsp, 8
	retq
.LBB27_5:                               # %func_BZ2_bzBuffToBuffCompress.153
	.cfi_def_cfa %rbp, 16
	movq	%r12, %rdi
	movq	%r14, %rsi
	movq	%rbx, %rdx
	movl	%r15d, %ecx
	movl	%r13d, %r8d
	movl	%r10d, (%rsp)
	callq	BZ2_bzBuffToBuffCompress.153
	addq	$24, %rsp
	popq	%rbx
	popq	%r12
	popq	%r13
	popq	%r14
	popq	%r15
	popq	%rbp
	.cfi_def_cfa %rsp, 8
	retq
.LBB27_6:                               # %func_BZ2_bzBuffToBuffCompress.170
	.cfi_def_cfa %rbp, 16
	movq	%r12, %rdi
	movq	%r14, %rsi
	movq	%rbx, %rdx
	movl	%r15d, %ecx
	movl	%r13d, %r8d
	movl	%r10d, (%rsp)
	callq	BZ2_bzBuffToBuffCompress.170
	addq	$24, %rsp
	popq	%rbx
	popq	%r12
	popq	%r13
	popq	%r14
	popq	%r15
	popq	%rbp
	.cfi_def_cfa %rsp, 8
	retq
.LBB27_7:                               # %func_BZ2_bzBuffToBuffCompress.174
	.cfi_def_cfa %rbp, 16
	movl	%r10d, (%rsp)
	callq	BZ2_bzBuffToBuffCompress.174
	addq	$24, %rsp
	popq	%rbx
	popq	%r12
	popq	%r13
	popq	%r14
	popq	%r15
	popq	%rbp
	.cfi_def_cfa %rsp, 8
	retq
.LBB27_8:                               # %func_BZ2_bzBuffToBuffCompress.193
	.cfi_def_cfa %rbp, 16
	movl	%r10d, (%rsp)
	callq	BZ2_bzBuffToBuffCompress.193
	addq	$24, %rsp
	popq	%rbx
	popq	%r12
	popq	%r13
	popq	%r14
	popq	%r15
	popq	%rbp
	.cfi_def_cfa %rsp, 8
	retq
.LBB27_9:                               # %ctrl0
	.cfi_def_cfa %rbp, 16
	movl	-44(%rbp), %r9d         # 4-byte Reload
	movl	16(%rbp), %r10d
	cmpl	$1, %eax
	je	.LBB27_2
# %bb.10:                               # %ctrl1
	cmpl	$2, %eax
	je	.LBB27_3
# %bb.11:                               # %ctrl2
	cmpl	$3, %eax
	je	.LBB27_4
# %bb.12:                               # %ctrl3
	cmpl	$4, %eax
	je	.LBB27_5
# %bb.13:                               # %ctrl4
	cmpl	$5, %eax
	je	.LBB27_6
# %bb.14:                               # %ctrl5
	cmpl	$6, %eax
	movl	%r13d, %r8d
	movl	%r15d, %ecx
	movq	%rbx, %rdx
	movq	%r14, %rsi
	movq	%r12, %rdi
	je	.LBB27_7
	jmp	.LBB27_8
.Lfunc_end27:
	.size	BZ2_bzBuffToBuffCompress, .Lfunc_end27-BZ2_bzBuffToBuffCompress
	.cfi_endproc
                                        # -- End function
	.globl	BZ2_bzBuffToBuffDecompress # -- Begin function BZ2_bzBuffToBuffDecompress
	.p2align	4, 0x90
	.type	BZ2_bzBuffToBuffDecompress,@function
BZ2_bzBuffToBuffDecompress:             # @BZ2_bzBuffToBuffDecompress
	.cfi_startproc
# %bb.0:                                # %rand_bb
	pushq	%rbp
	.cfi_def_cfa_offset 16
	.cfi_offset %rbp, -16
	movq	%rsp, %rbp
	.cfi_def_cfa_register %rbp
	pushq	%r15
	pushq	%r14
	pushq	%r13
	pushq	%r12
	pushq	%rbx
	pushq	%rax
	.cfi_offset %rbx, -56
	.cfi_offset %r12, -48
	.cfi_offset %r13, -40
	.cfi_offset %r14, -32
	.cfi_offset %r15, -24
	movl	%r9d, -44(%rbp)         # 4-byte Spill
	movl	%r8d, %r12d
	movl	%ecx, %r13d
	movq	%rdx, %rbx
	movq	%rsi, %r14
	movq	%rdi, %r15
	callq	get_rand
	cmpl	$0, %eax
	jne	.LBB28_9
# %bb.1:                                # %func_BZ2_bzBuffToBuffDecompress.132
	movq	%r15, %rdi
	movq	%r14, %rsi
	movq	%rbx, %rdx
	movl	%r13d, %ecx
	movl	%r12d, %r8d
	movl	-44(%rbp), %r9d         # 4-byte Reload
	callq	BZ2_bzBuffToBuffDecompress.132
	addq	$8, %rsp
	popq	%rbx
	popq	%r12
	popq	%r13
	popq	%r14
	popq	%r15
	popq	%rbp
	.cfi_def_cfa %rsp, 8
	retq
.LBB28_2:                               # %func_BZ2_bzBuffToBuffDecompress.141
	.cfi_def_cfa %rbp, 16
	movq	%r15, %rdi
	movq	%r14, %rsi
	movq	%rbx, %rdx
	movl	%r13d, %ecx
	movl	%r12d, %r8d
	callq	BZ2_bzBuffToBuffDecompress.141
	addq	$8, %rsp
	popq	%rbx
	popq	%r12
	popq	%r13
	popq	%r14
	popq	%r15
	popq	%rbp
	.cfi_def_cfa %rsp, 8
	retq
.LBB28_3:                               # %func_BZ2_bzBuffToBuffDecompress.168
	.cfi_def_cfa %rbp, 16
	movq	%r15, %rdi
	movq	%r14, %rsi
	movq	%rbx, %rdx
	movl	%r13d, %ecx
	movl	%r12d, %r8d
	callq	BZ2_bzBuffToBuffDecompress.168
	addq	$8, %rsp
	popq	%rbx
	popq	%r12
	popq	%r13
	popq	%r14
	popq	%r15
	popq	%rbp
	.cfi_def_cfa %rsp, 8
	retq
.LBB28_4:                               # %func_BZ2_bzBuffToBuffDecompress.172
	.cfi_def_cfa %rbp, 16
	movq	%r15, %rdi
	movq	%r14, %rsi
	movq	%rbx, %rdx
	movl	%r13d, %ecx
	movl	%r12d, %r8d
	callq	BZ2_bzBuffToBuffDecompress.172
	addq	$8, %rsp
	popq	%rbx
	popq	%r12
	popq	%r13
	popq	%r14
	popq	%r15
	popq	%rbp
	.cfi_def_cfa %rsp, 8
	retq
.LBB28_5:                               # %func_BZ2_bzBuffToBuffDecompress.175
	.cfi_def_cfa %rbp, 16
	movq	%r15, %rdi
	movq	%r14, %rsi
	movq	%rbx, %rdx
	movl	%r13d, %ecx
	movl	%r12d, %r8d
	callq	BZ2_bzBuffToBuffDecompress.175
	addq	$8, %rsp
	popq	%rbx
	popq	%r12
	popq	%r13
	popq	%r14
	popq	%r15
	popq	%rbp
	.cfi_def_cfa %rsp, 8
	retq
.LBB28_6:                               # %func_BZ2_bzBuffToBuffDecompress.179
	.cfi_def_cfa %rbp, 16
	movq	%r15, %rdi
	movq	%r14, %rsi
	movq	%rbx, %rdx
	movl	%r13d, %ecx
	movl	%r12d, %r8d
	callq	BZ2_bzBuffToBuffDecompress.179
	addq	$8, %rsp
	popq	%rbx
	popq	%r12
	popq	%r13
	popq	%r14
	popq	%r15
	popq	%rbp
	.cfi_def_cfa %rsp, 8
	retq
.LBB28_7:                               # %func_BZ2_bzBuffToBuffDecompress.188
	.cfi_def_cfa %rbp, 16
	callq	BZ2_bzBuffToBuffDecompress.188
	addq	$8, %rsp
	popq	%rbx
	popq	%r12
	popq	%r13
	popq	%r14
	popq	%r15
	popq	%rbp
	.cfi_def_cfa %rsp, 8
	retq
.LBB28_8:                               # %func_BZ2_bzBuffToBuffDecompress.196
	.cfi_def_cfa %rbp, 16
	callq	BZ2_bzBuffToBuffDecompress.196
	addq	$8, %rsp
	popq	%rbx
	popq	%r12
	popq	%r13
	popq	%r14
	popq	%r15
	popq	%rbp
	.cfi_def_cfa %rsp, 8
	retq
.LBB28_9:                               # %ctrl0
	.cfi_def_cfa %rbp, 16
	movl	-44(%rbp), %r9d         # 4-byte Reload
	cmpl	$1, %eax
	je	.LBB28_2
# %bb.10:                               # %ctrl1
	cmpl	$2, %eax
	je	.LBB28_3
# %bb.11:                               # %ctrl2
	cmpl	$3, %eax
	je	.LBB28_4
# %bb.12:                               # %ctrl3
	cmpl	$4, %eax
	je	.LBB28_5
# %bb.13:                               # %ctrl4
	cmpl	$5, %eax
	je	.LBB28_6
# %bb.14:                               # %ctrl5
	cmpl	$6, %eax
	movl	%r12d, %r8d
	movl	%r13d, %ecx
	movq	%rbx, %rdx
	movq	%r14, %rsi
	movq	%r15, %rdi
	je	.LBB28_7
	jmp	.LBB28_8
.Lfunc_end28:
	.size	BZ2_bzBuffToBuffDecompress, .Lfunc_end28-BZ2_bzBuffToBuffDecompress
	.cfi_endproc
                                        # -- End function
	.globl	BZ2_bzopen              # -- Begin function BZ2_bzopen
	.p2align	4, 0x90
	.type	BZ2_bzopen,@function
BZ2_bzopen:                             # @BZ2_bzopen
	.cfi_startproc
# %bb.0:                                # %rand_bb
	pushq	%rbp
	.cfi_def_cfa_offset 16
	.cfi_offset %rbp, -16
	movq	%rsp, %rbp
	.cfi_def_cfa_register %rbp
	pushq	%r14
	pushq	%rbx
	.cfi_offset %rbx, -32
	.cfi_offset %r14, -24
	movq	%rsi, %r14
	movq	%rdi, %rbx
	callq	get_rand
	cmpl	$0, %eax
	jne	.LBB29_2
# %bb.1:                                # %func_BZ2_bzopen.99
	movq	%rbx, %rdi
	movq	%r14, %rsi
	callq	BZ2_bzopen.99
	popq	%rbx
	popq	%r14
	popq	%rbp
	.cfi_def_cfa %rsp, 8
	retq
.LBB29_2:                               # %func_BZ2_bzopen.159
	.cfi_def_cfa %rbp, 16
	movq	%rbx, %rdi
	movq	%r14, %rsi
	callq	BZ2_bzopen.159
	popq	%rbx
	popq	%r14
	popq	%rbp
	.cfi_def_cfa %rsp, 8
	retq
.Lfunc_end29:
	.size	BZ2_bzopen, .Lfunc_end29-BZ2_bzopen
	.cfi_endproc
                                        # -- End function
	.p2align	4, 0x90         # -- Begin function bzopen_or_bzdopen
	.type	bzopen_or_bzdopen,@function
bzopen_or_bzdopen:                      # @bzopen_or_bzdopen
	.cfi_startproc
# %bb.0:                                # %rand_bb
	pushq	%rbp
	.cfi_def_cfa_offset 16
	.cfi_offset %rbp, -16
	movq	%rsp, %rbp
	.cfi_def_cfa_register %rbp
	pushq	%r15
	pushq	%r14
	pushq	%r12
	pushq	%rbx
	.cfi_offset %rbx, -48
	.cfi_offset %r12, -40
	.cfi_offset %r14, -32
	.cfi_offset %r15, -24
	movl	%ecx, %r14d
	movq	%rdx, %r15
	movl	%esi, %r12d
	movq	%rdi, %rbx
	callq	get_rand
	cmpl	$0, %eax
	jne	.LBB30_9
# %bb.1:                                # %func_bzopen_or_bzdopen.82
	movq	%rbx, %rdi
	movl	%r12d, %esi
	movq	%r15, %rdx
	movl	%r14d, %ecx
	callq	bzopen_or_bzdopen.82
	popq	%rbx
	popq	%r12
	popq	%r14
	popq	%r15
	popq	%rbp
	.cfi_def_cfa %rsp, 8
	retq
.LBB30_2:                               # %func_bzopen_or_bzdopen.84
	.cfi_def_cfa %rbp, 16
	movq	%rbx, %rdi
	movl	%r12d, %esi
	movq	%r15, %rdx
	movl	%r14d, %ecx
	callq	bzopen_or_bzdopen.84
	popq	%rbx
	popq	%r12
	popq	%r14
	popq	%r15
	popq	%rbp
	.cfi_def_cfa %rsp, 8
	retq
.LBB30_3:                               # %func_bzopen_or_bzdopen.95
	.cfi_def_cfa %rbp, 16
	movq	%rbx, %rdi
	movl	%r12d, %esi
	movq	%r15, %rdx
	movl	%r14d, %ecx
	callq	bzopen_or_bzdopen.95
	popq	%rbx
	popq	%r12
	popq	%r14
	popq	%r15
	popq	%rbp
	.cfi_def_cfa %rsp, 8
	retq
.LBB30_4:                               # %func_bzopen_or_bzdopen.98
	.cfi_def_cfa %rbp, 16
	movq	%rbx, %rdi
	movl	%r12d, %esi
	movq	%r15, %rdx
	movl	%r14d, %ecx
	callq	bzopen_or_bzdopen.98
	popq	%rbx
	popq	%r12
	popq	%r14
	popq	%r15
	popq	%rbp
	.cfi_def_cfa %rsp, 8
	retq
.LBB30_5:                               # %func_bzopen_or_bzdopen.113
	.cfi_def_cfa %rbp, 16
	movq	%rbx, %rdi
	movl	%r12d, %esi
	movq	%r15, %rdx
	movl	%r14d, %ecx
	callq	bzopen_or_bzdopen.113
	popq	%rbx
	popq	%r12
	popq	%r14
	popq	%r15
	popq	%rbp
	.cfi_def_cfa %rsp, 8
	retq
.LBB30_6:                               # %func_bzopen_or_bzdopen.114
	.cfi_def_cfa %rbp, 16
	movq	%rbx, %rdi
	movl	%r12d, %esi
	movq	%r15, %rdx
	movl	%r14d, %ecx
	callq	bzopen_or_bzdopen.114
	popq	%rbx
	popq	%r12
	popq	%r14
	popq	%r15
	popq	%rbp
	.cfi_def_cfa %rsp, 8
	retq
.LBB30_7:                               # %func_bzopen_or_bzdopen.130
	.cfi_def_cfa %rbp, 16
	movq	%rbx, %rdi
	movl	%r12d, %esi
	movq	%r15, %rdx
	movl	%r14d, %ecx
	callq	bzopen_or_bzdopen.130
	popq	%rbx
	popq	%r12
	popq	%r14
	popq	%r15
	popq	%rbp
	.cfi_def_cfa %rsp, 8
	retq
.LBB30_8:                               # %func_bzopen_or_bzdopen.162
	.cfi_def_cfa %rbp, 16
	movq	%rbx, %rdi
	movl	%r12d, %esi
	movq	%r15, %rdx
	movl	%r14d, %ecx
	callq	bzopen_or_bzdopen.162
	popq	%rbx
	popq	%r12
	popq	%r14
	popq	%r15
	popq	%rbp
	.cfi_def_cfa %rsp, 8
	retq
.LBB30_9:                               # %ctrl0
	.cfi_def_cfa %rbp, 16
	cmpl	$1, %eax
	je	.LBB30_2
# %bb.10:                               # %ctrl1
	cmpl	$2, %eax
	je	.LBB30_3
# %bb.11:                               # %ctrl2
	cmpl	$3, %eax
	je	.LBB30_4
# %bb.12:                               # %ctrl3
	cmpl	$4, %eax
	je	.LBB30_5
# %bb.13:                               # %ctrl4
	cmpl	$5, %eax
	je	.LBB30_6
# %bb.14:                               # %ctrl5
	cmpl	$6, %eax
	je	.LBB30_7
	jmp	.LBB30_8
.Lfunc_end30:
	.size	bzopen_or_bzdopen, .Lfunc_end30-bzopen_or_bzdopen
	.cfi_endproc
                                        # -- End function
	.globl	BZ2_bzdopen             # -- Begin function BZ2_bzdopen
	.p2align	4, 0x90
	.type	BZ2_bzdopen,@function
BZ2_bzdopen:                            # @BZ2_bzdopen
	.cfi_startproc
# %bb.0:                                # %rand_bb
	pushq	%rbp
	.cfi_def_cfa_offset 16
	.cfi_offset %rbp, -16
	movq	%rsp, %rbp
	.cfi_def_cfa_register %rbp
	pushq	%r14
	pushq	%rbx
	.cfi_offset %rbx, -32
	.cfi_offset %r14, -24
	movq	%rsi, %r14
	movl	%edi, %ebx
	callq	get_rand
	cmpl	$0, %eax
	jne	.LBB31_2
# %bb.1:                                # %func_BZ2_bzdopen.37
	movl	%ebx, %edi
	movq	%r14, %rsi
	callq	BZ2_bzdopen.37
	popq	%rbx
	popq	%r14
	popq	%rbp
	.cfi_def_cfa %rsp, 8
	retq
.LBB31_2:                               # %func_BZ2_bzdopen.40
	.cfi_def_cfa %rbp, 16
	movl	%ebx, %edi
	movq	%r14, %rsi
	callq	BZ2_bzdopen.40
	popq	%rbx
	popq	%r14
	popq	%rbp
	.cfi_def_cfa %rsp, 8
	retq
.Lfunc_end31:
	.size	BZ2_bzdopen, .Lfunc_end31-BZ2_bzdopen
	.cfi_endproc
                                        # -- End function
	.globl	BZ2_bzread              # -- Begin function BZ2_bzread
	.p2align	4, 0x90
	.type	BZ2_bzread,@function
BZ2_bzread:                             # @BZ2_bzread
	.cfi_startproc
# %bb.0:                                # %rand_bb
	pushq	%rbp
	.cfi_def_cfa_offset 16
	.cfi_offset %rbp, -16
	movq	%rsp, %rbp
	.cfi_def_cfa_register %rbp
	pushq	%r15
	pushq	%r14
	pushq	%rbx
	pushq	%rax
	.cfi_offset %rbx, -40
	.cfi_offset %r14, -32
	.cfi_offset %r15, -24
	movl	%edx, %r14d
	movq	%rsi, %r15
	movq	%rdi, %rbx
	callq	get_rand
	cmpl	$0, %eax
	jne	.LBB32_9
# %bb.1:                                # %func_BZ2_bzread.56
	movq	%rbx, %rdi
	movq	%r15, %rsi
	movl	%r14d, %edx
	callq	BZ2_bzread.56
	addq	$8, %rsp
	popq	%rbx
	popq	%r14
	popq	%r15
	popq	%rbp
	.cfi_def_cfa %rsp, 8
	retq
.LBB32_2:                               # %func_BZ2_bzread.87
	.cfi_def_cfa %rbp, 16
	movq	%rbx, %rdi
	movq	%r15, %rsi
	movl	%r14d, %edx
	callq	BZ2_bzread.87
	addq	$8, %rsp
	popq	%rbx
	popq	%r14
	popq	%r15
	popq	%rbp
	.cfi_def_cfa %rsp, 8
	retq
.LBB32_3:                               # %func_BZ2_bzread.88
	.cfi_def_cfa %rbp, 16
	movq	%rbx, %rdi
	movq	%r15, %rsi
	movl	%r14d, %edx
	callq	BZ2_bzread.88
	addq	$8, %rsp
	popq	%rbx
	popq	%r14
	popq	%r15
	popq	%rbp
	.cfi_def_cfa %rsp, 8
	retq
.LBB32_4:                               # %func_BZ2_bzread.97
	.cfi_def_cfa %rbp, 16
	movq	%rbx, %rdi
	movq	%r15, %rsi
	movl	%r14d, %edx
	callq	BZ2_bzread.97
	addq	$8, %rsp
	popq	%rbx
	popq	%r14
	popq	%r15
	popq	%rbp
	.cfi_def_cfa %rsp, 8
	retq
.LBB32_5:                               # %func_BZ2_bzread.101
	.cfi_def_cfa %rbp, 16
	movq	%rbx, %rdi
	movq	%r15, %rsi
	movl	%r14d, %edx
	callq	BZ2_bzread.101
	addq	$8, %rsp
	popq	%rbx
	popq	%r14
	popq	%r15
	popq	%rbp
	.cfi_def_cfa %rsp, 8
	retq
.LBB32_6:                               # %func_BZ2_bzread.122
	.cfi_def_cfa %rbp, 16
	movq	%rbx, %rdi
	movq	%r15, %rsi
	movl	%r14d, %edx
	callq	BZ2_bzread.122
	addq	$8, %rsp
	popq	%rbx
	popq	%r14
	popq	%r15
	popq	%rbp
	.cfi_def_cfa %rsp, 8
	retq
.LBB32_7:                               # %func_BZ2_bzread.149
	.cfi_def_cfa %rbp, 16
	movq	%rbx, %rdi
	movq	%r15, %rsi
	movl	%r14d, %edx
	callq	BZ2_bzread.149
	addq	$8, %rsp
	popq	%rbx
	popq	%r14
	popq	%r15
	popq	%rbp
	.cfi_def_cfa %rsp, 8
	retq
.LBB32_8:                               # %func_BZ2_bzread.158
	.cfi_def_cfa %rbp, 16
	movq	%rbx, %rdi
	movq	%r15, %rsi
	movl	%r14d, %edx
	callq	BZ2_bzread.158
	addq	$8, %rsp
	popq	%rbx
	popq	%r14
	popq	%r15
	popq	%rbp
	.cfi_def_cfa %rsp, 8
	retq
.LBB32_9:                               # %ctrl0
	.cfi_def_cfa %rbp, 16
	cmpl	$1, %eax
	je	.LBB32_2
# %bb.10:                               # %ctrl1
	cmpl	$2, %eax
	je	.LBB32_3
# %bb.11:                               # %ctrl2
	cmpl	$3, %eax
	je	.LBB32_4
# %bb.12:                               # %ctrl3
	cmpl	$4, %eax
	je	.LBB32_5
# %bb.13:                               # %ctrl4
	cmpl	$5, %eax
	je	.LBB32_6
# %bb.14:                               # %ctrl5
	cmpl	$6, %eax
	je	.LBB32_7
	jmp	.LBB32_8
.Lfunc_end32:
	.size	BZ2_bzread, .Lfunc_end32-BZ2_bzread
	.cfi_endproc
                                        # -- End function
	.globl	BZ2_bzwrite             # -- Begin function BZ2_bzwrite
	.p2align	4, 0x90
	.type	BZ2_bzwrite,@function
BZ2_bzwrite:                            # @BZ2_bzwrite
	.cfi_startproc
# %bb.0:                                # %rand_bb
	pushq	%rbp
	.cfi_def_cfa_offset 16
	.cfi_offset %rbp, -16
	movq	%rsp, %rbp
	.cfi_def_cfa_register %rbp
	pushq	%r15
	pushq	%r14
	pushq	%rbx
	pushq	%rax
	.cfi_offset %rbx, -40
	.cfi_offset %r14, -32
	.cfi_offset %r15, -24
	movl	%edx, %r14d
	movq	%rsi, %r15
	movq	%rdi, %rbx
	callq	get_rand
	cmpl	$0, %eax
	jne	.LBB33_9
# %bb.1:                                # %func_BZ2_bzwrite.2
	movq	%rbx, %rdi
	movq	%r15, %rsi
	movl	%r14d, %edx
	callq	BZ2_bzwrite.2
	addq	$8, %rsp
	popq	%rbx
	popq	%r14
	popq	%r15
	popq	%rbp
	.cfi_def_cfa %rsp, 8
	retq
.LBB33_2:                               # %func_BZ2_bzwrite.103
	.cfi_def_cfa %rbp, 16
	movq	%rbx, %rdi
	movq	%r15, %rsi
	movl	%r14d, %edx
	callq	BZ2_bzwrite.103
	addq	$8, %rsp
	popq	%rbx
	popq	%r14
	popq	%r15
	popq	%rbp
	.cfi_def_cfa %rsp, 8
	retq
.LBB33_3:                               # %func_BZ2_bzwrite.143
	.cfi_def_cfa %rbp, 16
	movq	%rbx, %rdi
	movq	%r15, %rsi
	movl	%r14d, %edx
	callq	BZ2_bzwrite.143
	addq	$8, %rsp
	popq	%rbx
	popq	%r14
	popq	%r15
	popq	%rbp
	.cfi_def_cfa %rsp, 8
	retq
.LBB33_4:                               # %func_BZ2_bzwrite.178
	.cfi_def_cfa %rbp, 16
	movq	%rbx, %rdi
	movq	%r15, %rsi
	movl	%r14d, %edx
	callq	BZ2_bzwrite.178
	addq	$8, %rsp
	popq	%rbx
	popq	%r14
	popq	%r15
	popq	%rbp
	.cfi_def_cfa %rsp, 8
	retq
.LBB33_5:                               # %func_BZ2_bzwrite.199
	.cfi_def_cfa %rbp, 16
	movq	%rbx, %rdi
	movq	%r15, %rsi
	movl	%r14d, %edx
	callq	BZ2_bzwrite.199
	addq	$8, %rsp
	popq	%rbx
	popq	%r14
	popq	%r15
	popq	%rbp
	.cfi_def_cfa %rsp, 8
	retq
.LBB33_6:                               # %func_BZ2_bzwrite.202
	.cfi_def_cfa %rbp, 16
	movq	%rbx, %rdi
	movq	%r15, %rsi
	movl	%r14d, %edx
	callq	BZ2_bzwrite.202
	addq	$8, %rsp
	popq	%rbx
	popq	%r14
	popq	%r15
	popq	%rbp
	.cfi_def_cfa %rsp, 8
	retq
.LBB33_7:                               # %func_BZ2_bzwrite.208
	.cfi_def_cfa %rbp, 16
	movq	%rbx, %rdi
	movq	%r15, %rsi
	movl	%r14d, %edx
	callq	BZ2_bzwrite.208
	addq	$8, %rsp
	popq	%rbx
	popq	%r14
	popq	%r15
	popq	%rbp
	.cfi_def_cfa %rsp, 8
	retq
.LBB33_8:                               # %func_BZ2_bzwrite.214
	.cfi_def_cfa %rbp, 16
	movq	%rbx, %rdi
	movq	%r15, %rsi
	movl	%r14d, %edx
	callq	BZ2_bzwrite.214
	addq	$8, %rsp
	popq	%rbx
	popq	%r14
	popq	%r15
	popq	%rbp
	.cfi_def_cfa %rsp, 8
	retq
.LBB33_9:                               # %ctrl0
	.cfi_def_cfa %rbp, 16
	cmpl	$1, %eax
	je	.LBB33_2
# %bb.10:                               # %ctrl1
	cmpl	$2, %eax
	je	.LBB33_3
# %bb.11:                               # %ctrl2
	cmpl	$3, %eax
	je	.LBB33_4
# %bb.12:                               # %ctrl3
	cmpl	$4, %eax
	je	.LBB33_5
# %bb.13:                               # %ctrl4
	cmpl	$5, %eax
	je	.LBB33_6
# %bb.14:                               # %ctrl5
	cmpl	$6, %eax
	je	.LBB33_7
	jmp	.LBB33_8
.Lfunc_end33:
	.size	BZ2_bzwrite, .Lfunc_end33-BZ2_bzwrite
	.cfi_endproc
                                        # -- End function
	.globl	BZ2_bzflush             # -- Begin function BZ2_bzflush
	.p2align	4, 0x90
	.type	BZ2_bzflush,@function
BZ2_bzflush:                            # @BZ2_bzflush
	.cfi_startproc
# %bb.0:                                # %entry
	pushq	%rbp
	.cfi_def_cfa_offset 16
	.cfi_offset %rbp, -16
	movq	%rsp, %rbp
	.cfi_def_cfa_register %rbp
	movq	%rdi, -8(%rbp)
	xorl	%eax, %eax
	popq	%rbp
	.cfi_def_cfa %rsp, 8
	retq
.Lfunc_end34:
	.size	BZ2_bzflush, .Lfunc_end34-BZ2_bzflush
	.cfi_endproc
                                        # -- End function
	.globl	BZ2_bzclose             # -- Begin function BZ2_bzclose
	.p2align	4, 0x90
	.type	BZ2_bzclose,@function
BZ2_bzclose:                            # @BZ2_bzclose
	.cfi_startproc
# %bb.0:                                # %rand_bb
	pushq	%rbp
	.cfi_def_cfa_offset 16
	.cfi_offset %rbp, -16
	movq	%rsp, %rbp
	.cfi_def_cfa_register %rbp
	pushq	%rbx
	pushq	%rax
	.cfi_offset %rbx, -24
	movq	%rdi, %rbx
	callq	get_rand
	cmpl	$0, %eax
	jne	.LBB35_7
# %bb.1:                                # %func_BZ2_bzclose.96
	movq	%rbx, %rdi
	callq	BZ2_bzclose.96
	addq	$8, %rsp
	popq	%rbx
	popq	%rbp
	.cfi_def_cfa %rsp, 8
	retq
.LBB35_2:                               # %func_BZ2_bzclose.136
	.cfi_def_cfa %rbp, 16
	movq	%rbx, %rdi
	callq	BZ2_bzclose.136
	addq	$8, %rsp
	popq	%rbx
	popq	%rbp
	.cfi_def_cfa %rsp, 8
	retq
.LBB35_3:                               # %func_BZ2_bzclose.191
	.cfi_def_cfa %rbp, 16
	movq	%rbx, %rdi
	callq	BZ2_bzclose.191
	addq	$8, %rsp
	popq	%rbx
	popq	%rbp
	.cfi_def_cfa %rsp, 8
	retq
.LBB35_4:                               # %func_BZ2_bzclose.192
	.cfi_def_cfa %rbp, 16
	movq	%rbx, %rdi
	callq	BZ2_bzclose.192
	addq	$8, %rsp
	popq	%rbx
	popq	%rbp
	.cfi_def_cfa %rsp, 8
	retq
.LBB35_5:                               # %func_BZ2_bzclose.201
	.cfi_def_cfa %rbp, 16
	movq	%rbx, %rdi
	callq	BZ2_bzclose.201
	addq	$8, %rsp
	popq	%rbx
	popq	%rbp
	.cfi_def_cfa %rsp, 8
	retq
.LBB35_6:                               # %func_BZ2_bzclose.211
	.cfi_def_cfa %rbp, 16
	movq	%rbx, %rdi
	callq	BZ2_bzclose.211
	addq	$8, %rsp
	popq	%rbx
	popq	%rbp
	.cfi_def_cfa %rsp, 8
	retq
.LBB35_7:                               # %ctrl0
	.cfi_def_cfa %rbp, 16
	cmpl	$1, %eax
	je	.LBB35_2
# %bb.8:                                # %ctrl1
	cmpl	$2, %eax
	je	.LBB35_3
# %bb.9:                                # %ctrl2
	cmpl	$3, %eax
	je	.LBB35_4
# %bb.10:                               # %ctrl3
	cmpl	$4, %eax
	je	.LBB35_5
	jmp	.LBB35_6
.Lfunc_end35:
	.size	BZ2_bzclose, .Lfunc_end35-BZ2_bzclose
	.cfi_endproc
                                        # -- End function
	.globl	BZ2_bzerror             # -- Begin function BZ2_bzerror
	.p2align	4, 0x90
	.type	BZ2_bzerror,@function
BZ2_bzerror:                            # @BZ2_bzerror
	.cfi_startproc
# %bb.0:                                # %rand_bb
	pushq	%rbp
	.cfi_def_cfa_offset 16
	.cfi_offset %rbp, -16
	movq	%rsp, %rbp
	.cfi_def_cfa_register %rbp
	pushq	%r14
	pushq	%rbx
	.cfi_offset %rbx, -32
	.cfi_offset %r14, -24
	movq	%rsi, %r14
	movq	%rdi, %rbx
	callq	get_rand
	cmpl	$0, %eax
	jne	.LBB36_7
# %bb.1:                                # %func_BZ2_bzerror.16
	movq	%rbx, %rdi
	movq	%r14, %rsi
	callq	BZ2_bzerror.16
	popq	%rbx
	popq	%r14
	popq	%rbp
	.cfi_def_cfa %rsp, 8
	retq
.LBB36_2:                               # %func_BZ2_bzerror.106
	.cfi_def_cfa %rbp, 16
	movq	%rbx, %rdi
	movq	%r14, %rsi
	callq	BZ2_bzerror.106
	popq	%rbx
	popq	%r14
	popq	%rbp
	.cfi_def_cfa %rsp, 8
	retq
.LBB36_3:                               # %func_BZ2_bzerror.121
	.cfi_def_cfa %rbp, 16
	movq	%rbx, %rdi
	movq	%r14, %rsi
	callq	BZ2_bzerror.121
	popq	%rbx
	popq	%r14
	popq	%rbp
	.cfi_def_cfa %rsp, 8
	retq
.LBB36_4:                               # %func_BZ2_bzerror.152
	.cfi_def_cfa %rbp, 16
	movq	%rbx, %rdi
	movq	%r14, %rsi
	callq	BZ2_bzerror.152
	popq	%rbx
	popq	%r14
	popq	%rbp
	.cfi_def_cfa %rsp, 8
	retq
.LBB36_5:                               # %func_BZ2_bzerror.222
	.cfi_def_cfa %rbp, 16
	movq	%rbx, %rdi
	movq	%r14, %rsi
	callq	BZ2_bzerror.222
	popq	%rbx
	popq	%r14
	popq	%rbp
	.cfi_def_cfa %rsp, 8
	retq
.LBB36_6:                               # %func_BZ2_bzerror.226
	.cfi_def_cfa %rbp, 16
	movq	%rbx, %rdi
	movq	%r14, %rsi
	callq	BZ2_bzerror.226
	popq	%rbx
	popq	%r14
	popq	%rbp
	.cfi_def_cfa %rsp, 8
	retq
.LBB36_7:                               # %ctrl0
	.cfi_def_cfa %rbp, 16
	cmpl	$1, %eax
	je	.LBB36_2
# %bb.8:                                # %ctrl1
	cmpl	$2, %eax
	je	.LBB36_3
# %bb.9:                                # %ctrl2
	cmpl	$3, %eax
	je	.LBB36_4
# %bb.10:                               # %ctrl3
	cmpl	$4, %eax
	je	.LBB36_5
	jmp	.LBB36_6
.Lfunc_end36:
	.size	BZ2_bzerror, .Lfunc_end36-BZ2_bzerror
	.cfi_endproc
                                        # -- End function
	.p2align	4, 0x90         # -- Begin function copy_output_until_stop
	.type	copy_output_until_stop,@function
copy_output_until_stop:                 # @copy_output_until_stop
	.cfi_startproc
# %bb.0:                                # %rand_bb
	pushq	%rbp
	.cfi_def_cfa_offset 16
	.cfi_offset %rbp, -16
	movq	%rsp, %rbp
	.cfi_def_cfa_register %rbp
	pushq	%rbx
	pushq	%rax
	.cfi_offset %rbx, -24
	movq	%rdi, %rbx
	callq	get_rand
	cmpl	$0, %eax
	jne	.LBB37_2
# %bb.1:                                # %func_copy_output_until_stop.11
	movq	%rbx, %rdi
	callq	copy_output_until_stop.11
	movzbl	%al, %eax
	addq	$8, %rsp
	popq	%rbx
	popq	%rbp
	.cfi_def_cfa %rsp, 8
	retq
.LBB37_2:                               # %func_copy_output_until_stop.22
	.cfi_def_cfa %rbp, 16
	movq	%rbx, %rdi
	callq	copy_output_until_stop.22
	movzbl	%al, %eax
	addq	$8, %rsp
	popq	%rbx
	popq	%rbp
	.cfi_def_cfa %rsp, 8
	retq
.Lfunc_end37:
	.size	copy_output_until_stop, .Lfunc_end37-copy_output_until_stop
	.cfi_endproc
                                        # -- End function
	.p2align	4, 0x90         # -- Begin function copy_input_until_stop
	.type	copy_input_until_stop,@function
copy_input_until_stop:                  # @copy_input_until_stop
	.cfi_startproc
# %bb.0:                                # %rand_bb
	pushq	%rbp
	.cfi_def_cfa_offset 16
	.cfi_offset %rbp, -16
	movq	%rsp, %rbp
	.cfi_def_cfa_register %rbp
	pushq	%rbx
	pushq	%rax
	.cfi_offset %rbx, -24
	movq	%rdi, %rbx
	callq	get_rand
	cmpl	$0, %eax
	jne	.LBB38_9
# %bb.1:                                # %func_copy_input_until_stop.27
	movq	%rbx, %rdi
	callq	copy_input_until_stop.27
	movzbl	%al, %eax
	addq	$8, %rsp
	popq	%rbx
	popq	%rbp
	.cfi_def_cfa %rsp, 8
	retq
.LBB38_2:                               # %func_copy_input_until_stop.28
	.cfi_def_cfa %rbp, 16
	movq	%rbx, %rdi
	callq	copy_input_until_stop.28
	movzbl	%al, %eax
	addq	$8, %rsp
	popq	%rbx
	popq	%rbp
	.cfi_def_cfa %rsp, 8
	retq
.LBB38_3:                               # %func_copy_input_until_stop.51
	.cfi_def_cfa %rbp, 16
	movq	%rbx, %rdi
	callq	copy_input_until_stop.51
	movzbl	%al, %eax
	addq	$8, %rsp
	popq	%rbx
	popq	%rbp
	.cfi_def_cfa %rsp, 8
	retq
.LBB38_4:                               # %func_copy_input_until_stop.79
	.cfi_def_cfa %rbp, 16
	movq	%rbx, %rdi
	callq	copy_input_until_stop.79
	movzbl	%al, %eax
	addq	$8, %rsp
	popq	%rbx
	popq	%rbp
	.cfi_def_cfa %rsp, 8
	retq
.LBB38_5:                               # %func_copy_input_until_stop.155
	.cfi_def_cfa %rbp, 16
	movq	%rbx, %rdi
	callq	copy_input_until_stop.155
	movzbl	%al, %eax
	addq	$8, %rsp
	popq	%rbx
	popq	%rbp
	.cfi_def_cfa %rsp, 8
	retq
.LBB38_6:                               # %func_copy_input_until_stop.204
	.cfi_def_cfa %rbp, 16
	movq	%rbx, %rdi
	callq	copy_input_until_stop.204
	movzbl	%al, %eax
	addq	$8, %rsp
	popq	%rbx
	popq	%rbp
	.cfi_def_cfa %rsp, 8
	retq
.LBB38_7:                               # %func_copy_input_until_stop.212
	.cfi_def_cfa %rbp, 16
	movq	%rbx, %rdi
	callq	copy_input_until_stop.212
	movzbl	%al, %eax
	addq	$8, %rsp
	popq	%rbx
	popq	%rbp
	.cfi_def_cfa %rsp, 8
	retq
.LBB38_8:                               # %func_copy_input_until_stop.215
	.cfi_def_cfa %rbp, 16
	movq	%rbx, %rdi
	callq	copy_input_until_stop.215
	movzbl	%al, %eax
	addq	$8, %rsp
	popq	%rbx
	popq	%rbp
	.cfi_def_cfa %rsp, 8
	retq
.LBB38_9:                               # %ctrl0
	.cfi_def_cfa %rbp, 16
	cmpl	$1, %eax
	je	.LBB38_2
# %bb.10:                               # %ctrl1
	cmpl	$2, %eax
	je	.LBB38_3
# %bb.11:                               # %ctrl2
	cmpl	$3, %eax
	je	.LBB38_4
# %bb.12:                               # %ctrl3
	cmpl	$4, %eax
	je	.LBB38_5
# %bb.13:                               # %ctrl4
	cmpl	$5, %eax
	je	.LBB38_6
# %bb.14:                               # %ctrl5
	cmpl	$6, %eax
	je	.LBB38_7
	jmp	.LBB38_8
.Lfunc_end38:
	.size	copy_input_until_stop, .Lfunc_end38-copy_input_until_stop
	.cfi_endproc
                                        # -- End function
	.p2align	4, 0x90         # -- Begin function flush_RL
	.type	flush_RL,@function
flush_RL:                               # @flush_RL
	.cfi_startproc
# %bb.0:                                # %entry
	pushq	%rbp
	.cfi_def_cfa_offset 16
	.cfi_offset %rbp, -16
	movq	%rsp, %rbp
	.cfi_def_cfa_register %rbp
	subq	$16, %rsp
	movq	%rdi, -8(%rbp)
	movq	-8(%rbp), %rax
	cmpl	$256, 92(%rax)          # imm = 0x100
	jae	.LBB39_2
# %bb.1:                                # %if.then
	movq	-8(%rbp), %rdi
	callq	add_pair_to_block
.LBB39_2:                               # %if.end
	movq	-8(%rbp), %rdi
	callq	init_RL
	addq	$16, %rsp
	popq	%rbp
	.cfi_def_cfa %rsp, 8
	retq
.Lfunc_end39:
	.size	flush_RL, .Lfunc_end39-flush_RL
	.cfi_endproc
                                        # -- End function
	.p2align	4, 0x90         # -- Begin function add_pair_to_block
	.type	add_pair_to_block,@function
add_pair_to_block:                      # @add_pair_to_block
	.cfi_startproc
# %bb.0:                                # %rand_bb
	pushq	%rbp
	.cfi_def_cfa_offset 16
	.cfi_offset %rbp, -16
	movq	%rsp, %rbp
	.cfi_def_cfa_register %rbp
	pushq	%rbx
	pushq	%rax
	.cfi_offset %rbx, -24
	movq	%rdi, %rbx
	callq	get_rand
	cmpl	$0, %eax
	jne	.LBB40_7
# %bb.1:                                # %func_add_pair_to_block.7
	movq	%rbx, %rdi
	callq	add_pair_to_block.7
	addq	$8, %rsp
	popq	%rbx
	popq	%rbp
	.cfi_def_cfa %rsp, 8
	retq
.LBB40_2:                               # %func_add_pair_to_block.10
	.cfi_def_cfa %rbp, 16
	movq	%rbx, %rdi
	callq	add_pair_to_block.10
	addq	$8, %rsp
	popq	%rbx
	popq	%rbp
	.cfi_def_cfa %rsp, 8
	retq
.LBB40_3:                               # %func_add_pair_to_block.17
	.cfi_def_cfa %rbp, 16
	movq	%rbx, %rdi
	callq	add_pair_to_block.17
	addq	$8, %rsp
	popq	%rbx
	popq	%rbp
	.cfi_def_cfa %rsp, 8
	retq
.LBB40_4:                               # %func_add_pair_to_block.70
	.cfi_def_cfa %rbp, 16
	movq	%rbx, %rdi
	callq	add_pair_to_block.70
	addq	$8, %rsp
	popq	%rbx
	popq	%rbp
	.cfi_def_cfa %rsp, 8
	retq
.LBB40_5:                               # %func_add_pair_to_block.110
	.cfi_def_cfa %rbp, 16
	movq	%rbx, %rdi
	callq	add_pair_to_block.110
	addq	$8, %rsp
	popq	%rbx
	popq	%rbp
	.cfi_def_cfa %rsp, 8
	retq
.LBB40_6:                               # %func_add_pair_to_block.128
	.cfi_def_cfa %rbp, 16
	movq	%rbx, %rdi
	callq	add_pair_to_block.128
	addq	$8, %rsp
	popq	%rbx
	popq	%rbp
	.cfi_def_cfa %rsp, 8
	retq
.LBB40_7:                               # %ctrl0
	.cfi_def_cfa %rbp, 16
	cmpl	$1, %eax
	je	.LBB40_2
# %bb.8:                                # %ctrl1
	cmpl	$2, %eax
	je	.LBB40_3
# %bb.9:                                # %ctrl2
	cmpl	$3, %eax
	je	.LBB40_4
# %bb.10:                               # %ctrl3
	cmpl	$4, %eax
	je	.LBB40_5
	jmp	.LBB40_6
.Lfunc_end40:
	.size	add_pair_to_block, .Lfunc_end40-add_pair_to_block
	.cfi_endproc
                                        # -- End function
	.p2align	4, 0x90         # -- Begin function unRLE_obuf_to_output_SMALL.1
	.type	unRLE_obuf_to_output_SMALL.1,@function
unRLE_obuf_to_output_SMALL.1:           # @unRLE_obuf_to_output_SMALL.1
	.cfi_startproc
# %bb.0:                                # %entry
	pushq	%rbp
	.cfi_def_cfa_offset 16
	.cfi_offset %rbp, -16
	movq	%rsp, %rbp
	.cfi_def_cfa_register %rbp
	pushq	%rbx
	subq	$24, %rsp
	.cfi_offset %rbx, -24
	movl	$1442440120, -32(%rbp)  # imm = 0x55F9E3B8
	movq	%rdi, -24(%rbp)
	movq	-24(%rbp), %rax
	cmpb	$0, 20(%rax)
	je	.LBB41_48
# %bb.1:                                # %if.then
	jmp	.LBB41_2
.LBB41_2:                               # %while.body
                                        # =>This Loop Header: Depth=1
                                        #     Child Loop BB41_3 Depth 2
	jmp	.LBB41_3
.LBB41_3:                               # %while.body2
                                        #   Parent Loop BB41_2 Depth=1
                                        # =>  This Inner Loop Header: Depth=2
	movq	-24(%rbp), %rax
	movq	(%rax), %rax
	cmpl	$0, 32(%rax)
	jne	.LBB41_5
# %bb.4:                                # %if.then3
	movb	$0, -25(%rbp)
	jmp	.LBB41_75
.LBB41_5:                               # %if.end
                                        #   in Loop: Header=BB41_3 Depth=2
	movq	-24(%rbp), %rax
	cmpl	$0, 16(%rax)
	jne	.LBB41_7
# %bb.6:                                # %if.then5
                                        #   in Loop: Header=BB41_2 Depth=1
	jmp	.LBB41_10
.LBB41_7:                               # %if.end6
                                        #   in Loop: Header=BB41_3 Depth=2
	movq	-24(%rbp), %rax
	movb	12(%rax), %al
	movq	-24(%rbp), %rcx
	movq	(%rcx), %rcx
	movq	24(%rcx), %rcx
	movb	%al, (%rcx)
	movq	-24(%rbp), %rax
	movl	3184(%rax), %eax
	shll	$8, %eax
	movq	-24(%rbp), %rcx
	movl	3184(%rcx), %ecx
	shrl	$24, %ecx
	movq	-24(%rbp), %rdx
	movzbl	12(%rdx), %edx
	xorl	%edx, %ecx
	movl	%ecx, %ecx
	xorl	BZ2_crc32Table(,%rcx,4), %eax
	movq	-24(%rbp), %rcx
	movl	%eax, 3184(%rcx)
	movq	-24(%rbp), %rax
	movl	16(%rax), %ecx
	addl	$-1, %ecx
	movl	%ecx, 16(%rax)
	movq	-24(%rbp), %rax
	movq	(%rax), %rax
	movq	24(%rax), %rcx
	addq	$1, %rcx
	movq	%rcx, 24(%rax)
	movq	-24(%rbp), %rax
	movq	(%rax), %rax
	movl	32(%rax), %ecx
	addl	$-1, %ecx
	movl	%ecx, 32(%rax)
	movq	-24(%rbp), %rax
	movq	(%rax), %rax
	movl	36(%rax), %ecx
	addl	$1, %ecx
	movl	%ecx, 36(%rax)
	movq	-24(%rbp), %rax
	movq	(%rax), %rax
	cmpl	$0, 36(%rax)
	jne	.LBB41_9
# %bb.8:                                # %if.then23
                                        #   in Loop: Header=BB41_3 Depth=2
	movq	-24(%rbp), %rax
	movq	(%rax), %rax
	movl	40(%rax), %ecx
	addl	$1, %ecx
	movl	%ecx, 40(%rax)
.LBB41_9:                               # %if.end26
                                        #   in Loop: Header=BB41_3 Depth=2
	jmp	.LBB41_3
.LBB41_10:                              # %while.end
                                        #   in Loop: Header=BB41_2 Depth=1
	movq	-24(%rbp), %rax
	movl	1092(%rax), %eax
	movq	-24(%rbp), %rcx
	movl	64080(%rcx), %ecx
	addl	$1, %ecx
	cmpl	%ecx, %eax
	jne	.LBB41_12
# %bb.11:                               # %if.then29
	movb	$0, -25(%rbp)
	jmp	.LBB41_75
.LBB41_12:                              # %if.end30
                                        #   in Loop: Header=BB41_2 Depth=1
	movq	-24(%rbp), %rax
	movl	1092(%rax), %eax
	movq	-24(%rbp), %rcx
	movl	64080(%rcx), %ecx
	addl	$1, %ecx
	cmpl	%ecx, %eax
	jle	.LBB41_14
# %bb.13:                               # %if.then36
	movb	$1, -25(%rbp)
	jmp	.LBB41_75
.LBB41_14:                              # %if.end37
                                        #   in Loop: Header=BB41_2 Depth=1
	movq	-24(%rbp), %rax
	movl	$1, 16(%rax)
	movq	-24(%rbp), %rax
	movl	64(%rax), %eax
	movq	-24(%rbp), %rcx
	movb	%al, 12(%rcx)
	movq	-24(%rbp), %rax
	movl	60(%rax), %edi
	movq	-24(%rbp), %rsi
	addq	$1096, %rsi             # imm = 0x448
	callq	BZ2_indexIntoF
	movb	%al, -9(%rbp)
	movq	-24(%rbp), %rax
	movq	3160(%rax), %rax
	movq	-24(%rbp), %rcx
	movl	60(%rcx), %ecx
	movzwl	(%rax,%rcx,2), %eax
	movq	-24(%rbp), %rcx
	movq	3168(%rcx), %rcx
	movq	-24(%rbp), %rdx
	movl	60(%rdx), %edx
	shrl	$1, %edx
	movl	%edx, %edx
	movzbl	(%rcx,%rdx), %edx
	movq	-24(%rbp), %rcx
	movl	60(%rcx), %ecx
	shll	$2, %ecx
	andl	$4, %ecx
                                        # kill: def $cl killed $ecx
	shrl	%cl, %edx
	andl	$15, %edx
	shll	$16, %edx
	orl	%edx, %eax
	movq	-24(%rbp), %rcx
	movl	%eax, 60(%rcx)
	movq	-24(%rbp), %rax
	cmpl	$0, 24(%rax)
	jne	.LBB41_18
# %bb.15:                               # %if.then59
                                        #   in Loop: Header=BB41_2 Depth=1
	movq	-24(%rbp), %rax
	movslq	28(%rax), %rax
	movl	BZ2_rNums(,%rax,4), %eax
	movq	-24(%rbp), %rcx
	movl	%eax, 24(%rcx)
	movq	-24(%rbp), %rax
	movl	28(%rax), %ecx
	addl	$1, %ecx
	movl	%ecx, 28(%rax)
	movq	-24(%rbp), %rax
	cmpl	$512, 28(%rax)          # imm = 0x200
	jne	.LBB41_17
# %bb.16:                               # %if.then68
                                        #   in Loop: Header=BB41_2 Depth=1
	movq	-24(%rbp), %rax
	movl	$0, 28(%rax)
.LBB41_17:                              # %if.end70
                                        #   in Loop: Header=BB41_2 Depth=1
	jmp	.LBB41_18
.LBB41_18:                              # %if.end71
                                        #   in Loop: Header=BB41_2 Depth=1
	xorl	%eax, %eax
	movq	-24(%rbp), %rcx
	movl	24(%rcx), %edx
	addl	$-1, %edx
	movl	%edx, 24(%rcx)
	movq	-24(%rbp), %rcx
	movl	24(%rcx), %ecx
	cmpl	$1, %ecx
	movl	$1, %ecx
	cmovel	%ecx, %eax
	movzbl	-9(%rbp), %ecx
	xorl	%eax, %ecx
	movb	%cl, -9(%rbp)
	movq	-24(%rbp), %rax
	movl	1092(%rax), %ecx
	addl	$1, %ecx
	movl	%ecx, 1092(%rax)
	movq	-24(%rbp), %rax
	movl	1092(%rax), %eax
	movq	-24(%rbp), %rcx
	movl	64080(%rcx), %ecx
	addl	$1, %ecx
	cmpl	%ecx, %eax
	jne	.LBB41_21
# %bb.19:                               # %if.then87
                                        #   in Loop: Header=BB41_2 Depth=1
	jmp	.LBB41_20
.LBB41_20:                              # %while.body.backedge
                                        #   in Loop: Header=BB41_2 Depth=1
	jmp	.LBB41_2
.LBB41_21:                              # %if.end88
                                        #   in Loop: Header=BB41_2 Depth=1
	movzbl	-9(%rbp), %eax
	movq	-24(%rbp), %rcx
	cmpl	64(%rcx), %eax
	je	.LBB41_23
# %bb.22:                               # %if.then93
                                        #   in Loop: Header=BB41_2 Depth=1
	movzbl	-9(%rbp), %eax
	movq	-24(%rbp), %rcx
	movl	%eax, 64(%rcx)
	jmp	.LBB41_20
.LBB41_23:                              # %if.end96
                                        #   in Loop: Header=BB41_2 Depth=1
	movq	-24(%rbp), %rax
	movl	$2, 16(%rax)
	movq	-24(%rbp), %rax
	movl	60(%rax), %edi
	movq	-24(%rbp), %rsi
	addq	$1096, %rsi             # imm = 0x448
	callq	BZ2_indexIntoF
	movb	%al, -9(%rbp)
	movq	-24(%rbp), %rax
	movq	3160(%rax), %rax
	movq	-24(%rbp), %rcx
	movl	60(%rcx), %ecx
	movzwl	(%rax,%rcx,2), %eax
	movq	-24(%rbp), %rcx
	movq	3168(%rcx), %rcx
	movq	-24(%rbp), %rdx
	movl	60(%rdx), %edx
	shrl	$1, %edx
	movl	%edx, %edx
	movzbl	(%rcx,%rdx), %edx
	movq	-24(%rbp), %rcx
	movl	60(%rcx), %ecx
	shll	$2, %ecx
	andl	$4, %ecx
                                        # kill: def $cl killed $ecx
	shrl	%cl, %edx
	andl	$15, %edx
	shll	$16, %edx
	orl	%edx, %eax
	movq	-24(%rbp), %rcx
	movl	%eax, 60(%rcx)
	movq	-24(%rbp), %rax
	cmpl	$0, 24(%rax)
	jne	.LBB41_27
# %bb.24:                               # %if.then125
                                        #   in Loop: Header=BB41_2 Depth=1
	movq	-24(%rbp), %rax
	movslq	28(%rax), %rax
	movl	BZ2_rNums(,%rax,4), %eax
	movq	-24(%rbp), %rcx
	movl	%eax, 24(%rcx)
	movq	-24(%rbp), %rax
	movl	28(%rax), %ecx
	addl	$1, %ecx
	movl	%ecx, 28(%rax)
	movq	-24(%rbp), %rax
	cmpl	$512, 28(%rax)          # imm = 0x200
	jne	.LBB41_26
# %bb.25:                               # %if.then135
                                        #   in Loop: Header=BB41_2 Depth=1
	movq	-24(%rbp), %rax
	movl	$0, 28(%rax)
.LBB41_26:                              # %if.end137
                                        #   in Loop: Header=BB41_2 Depth=1
	jmp	.LBB41_27
.LBB41_27:                              # %if.end138
                                        #   in Loop: Header=BB41_2 Depth=1
	xorl	%eax, %eax
	movq	-24(%rbp), %rcx
	movl	24(%rcx), %edx
	addl	$-1, %edx
	movl	%edx, 24(%rcx)
	movq	-24(%rbp), %rcx
	movl	24(%rcx), %ecx
	cmpl	$1, %ecx
	movl	$1, %ecx
	cmovel	%ecx, %eax
	movzbl	-9(%rbp), %ecx
	xorl	%eax, %ecx
	movb	%cl, -9(%rbp)
	movq	-24(%rbp), %rax
	movl	1092(%rax), %ecx
	addl	$1, %ecx
	movl	%ecx, 1092(%rax)
	movq	-24(%rbp), %rax
	movl	1092(%rax), %eax
	movq	-24(%rbp), %rcx
	movl	64080(%rcx), %ecx
	addl	$1, %ecx
	cmpl	%ecx, %eax
	jne	.LBB41_29
# %bb.28:                               # %if.then155
                                        #   in Loop: Header=BB41_2 Depth=1
	jmp	.LBB41_20
.LBB41_29:                              # %if.end156
                                        #   in Loop: Header=BB41_2 Depth=1
	movzbl	-9(%rbp), %eax
	movq	-24(%rbp), %rcx
	cmpl	64(%rcx), %eax
	je	.LBB41_31
# %bb.30:                               # %if.then161
                                        #   in Loop: Header=BB41_2 Depth=1
	movzbl	-9(%rbp), %eax
	movq	-24(%rbp), %rcx
	movl	%eax, 64(%rcx)
	jmp	.LBB41_20
.LBB41_31:                              # %if.end164
                                        #   in Loop: Header=BB41_2 Depth=1
	movq	-24(%rbp), %rax
	movl	$3, 16(%rax)
	movq	-24(%rbp), %rax
	movl	60(%rax), %edi
	movq	-24(%rbp), %rsi
	addq	$1096, %rsi             # imm = 0x448
	callq	BZ2_indexIntoF
	movb	%al, -9(%rbp)
	movq	-24(%rbp), %rax
	movq	3160(%rax), %rax
	movq	-24(%rbp), %rcx
	movl	60(%rcx), %ecx
	movzwl	(%rax,%rcx,2), %eax
	movq	-24(%rbp), %rcx
	movq	3168(%rcx), %rcx
	movq	-24(%rbp), %rdx
	movl	60(%rdx), %edx
	shrl	$1, %edx
	movl	%edx, %edx
	movzbl	(%rcx,%rdx), %edx
	movq	-24(%rbp), %rcx
	movl	60(%rcx), %ecx
	shll	$2, %ecx
	andl	$4, %ecx
                                        # kill: def $cl killed $ecx
	shrl	%cl, %edx
	andl	$15, %edx
	shll	$16, %edx
	orl	%edx, %eax
	movq	-24(%rbp), %rcx
	movl	%eax, 60(%rcx)
	movq	-24(%rbp), %rax
	cmpl	$0, 24(%rax)
	jne	.LBB41_35
# %bb.32:                               # %if.then193
                                        #   in Loop: Header=BB41_2 Depth=1
	movq	-24(%rbp), %rax
	movslq	28(%rax), %rax
	movl	BZ2_rNums(,%rax,4), %eax
	movq	-24(%rbp), %rcx
	movl	%eax, 24(%rcx)
	movq	-24(%rbp), %rax
	movl	28(%rax), %ecx
	addl	$1, %ecx
	movl	%ecx, 28(%rax)
	movq	-24(%rbp), %rax
	cmpl	$512, 28(%rax)          # imm = 0x200
	jne	.LBB41_34
# %bb.33:                               # %if.then203
                                        #   in Loop: Header=BB41_2 Depth=1
	movq	-24(%rbp), %rax
	movl	$0, 28(%rax)
.LBB41_34:                              # %if.end205
                                        #   in Loop: Header=BB41_2 Depth=1
	jmp	.LBB41_35
.LBB41_35:                              # %if.end206
                                        #   in Loop: Header=BB41_2 Depth=1
	xorl	%eax, %eax
	movq	-24(%rbp), %rcx
	movl	24(%rcx), %edx
	addl	$-1, %edx
	movl	%edx, 24(%rcx)
	movq	-24(%rbp), %rcx
	movl	24(%rcx), %ecx
	cmpl	$1, %ecx
	movl	$1, %ecx
	cmovel	%ecx, %eax
	movzbl	-9(%rbp), %ecx
	xorl	%eax, %ecx
	movb	%cl, -9(%rbp)
	movq	-24(%rbp), %rax
	movl	1092(%rax), %ecx
	addl	$1, %ecx
	movl	%ecx, 1092(%rax)
	movq	-24(%rbp), %rax
	movl	1092(%rax), %eax
	movq	-24(%rbp), %rcx
	movl	64080(%rcx), %ecx
	addl	$1, %ecx
	cmpl	%ecx, %eax
	jne	.LBB41_37
# %bb.36:                               # %if.then223
                                        #   in Loop: Header=BB41_2 Depth=1
	jmp	.LBB41_20
.LBB41_37:                              # %if.end224
                                        #   in Loop: Header=BB41_2 Depth=1
	movzbl	-9(%rbp), %eax
	movq	-24(%rbp), %rcx
	cmpl	64(%rcx), %eax
	je	.LBB41_39
# %bb.38:                               # %if.then229
                                        #   in Loop: Header=BB41_2 Depth=1
	movzbl	-9(%rbp), %eax
	movq	-24(%rbp), %rcx
	movl	%eax, 64(%rcx)
	jmp	.LBB41_20
.LBB41_39:                              # %if.end232
                                        #   in Loop: Header=BB41_2 Depth=1
	movq	-24(%rbp), %rax
	movl	60(%rax), %edi
	movq	-24(%rbp), %rsi
	addq	$1096, %rsi             # imm = 0x448
	callq	BZ2_indexIntoF
	movb	%al, -9(%rbp)
	movq	-24(%rbp), %rax
	movq	3160(%rax), %rax
	movq	-24(%rbp), %rcx
	movl	60(%rcx), %ecx
	movzwl	(%rax,%rcx,2), %eax
	movq	-24(%rbp), %rcx
	movq	3168(%rcx), %rcx
	movq	-24(%rbp), %rdx
	movl	60(%rdx), %edx
	shrl	$1, %edx
	movl	%edx, %edx
	movzbl	(%rcx,%rdx), %edx
	movq	-24(%rbp), %rcx
	movl	60(%rcx), %ecx
	shll	$2, %ecx
	andl	$4, %ecx
                                        # kill: def $cl killed $ecx
	shrl	%cl, %edx
	andl	$15, %edx
	shll	$16, %edx
	orl	%edx, %eax
	movq	-24(%rbp), %rcx
	movl	%eax, 60(%rcx)
	movq	-24(%rbp), %rax
	cmpl	$0, 24(%rax)
	jne	.LBB41_43
# %bb.40:                               # %if.then260
                                        #   in Loop: Header=BB41_2 Depth=1
	movq	-24(%rbp), %rax
	movslq	28(%rax), %rax
	movl	BZ2_rNums(,%rax,4), %eax
	movq	-24(%rbp), %rcx
	movl	%eax, 24(%rcx)
	movq	-24(%rbp), %rax
	movl	28(%rax), %ecx
	addl	$1, %ecx
	movl	%ecx, 28(%rax)
	movq	-24(%rbp), %rax
	cmpl	$512, 28(%rax)          # imm = 0x200
	jne	.LBB41_42
# %bb.41:                               # %if.then270
                                        #   in Loop: Header=BB41_2 Depth=1
	movq	-24(%rbp), %rax
	movl	$0, 28(%rax)
.LBB41_42:                              # %if.end272
                                        #   in Loop: Header=BB41_2 Depth=1
	jmp	.LBB41_43
.LBB41_43:                              # %if.end273
                                        #   in Loop: Header=BB41_2 Depth=1
	xorl	%eax, %eax
	movq	-24(%rbp), %rcx
	movl	24(%rcx), %edx
	addl	$-1, %edx
	movl	%edx, 24(%rcx)
	movq	-24(%rbp), %rcx
	movl	24(%rcx), %ecx
	cmpl	$1, %ecx
	movl	$1, %ecx
	cmovel	%ecx, %eax
	movzbl	-9(%rbp), %ecx
	xorl	%eax, %ecx
	movb	%cl, -9(%rbp)
	movq	-24(%rbp), %rax
	movl	1092(%rax), %ecx
	addl	$1, %ecx
	movl	%ecx, 1092(%rax)
	movzbl	-9(%rbp), %eax
	addl	$4, %eax
	movq	-24(%rbp), %rcx
	movl	%eax, 16(%rcx)
	movq	-24(%rbp), %rax
	movl	60(%rax), %edi
	movq	-24(%rbp), %rsi
	addq	$1096, %rsi             # imm = 0x448
	callq	BZ2_indexIntoF
	movq	-24(%rbp), %rcx
	movl	%eax, 64(%rcx)
	movq	-24(%rbp), %rax
	movq	3160(%rax), %rax
	movq	-24(%rbp), %rcx
	movl	60(%rcx), %ecx
	movzwl	(%rax,%rcx,2), %eax
	movq	-24(%rbp), %rcx
	movq	3168(%rcx), %rcx
	movq	-24(%rbp), %rdx
	movl	60(%rdx), %edx
	shrl	$1, %edx
	movl	%edx, %edx
	movzbl	(%rcx,%rdx), %edx
	movq	-24(%rbp), %rcx
	movl	60(%rcx), %ecx
	shll	$2, %ecx
	andl	$4, %ecx
                                        # kill: def $cl killed $ecx
	shrl	%cl, %edx
	andl	$15, %edx
	shll	$16, %edx
	orl	%edx, %eax
	movq	-24(%rbp), %rcx
	movl	%eax, 60(%rcx)
	movq	-24(%rbp), %rax
	cmpl	$0, 24(%rax)
	jne	.LBB41_47
# %bb.44:                               # %if.then315
                                        #   in Loop: Header=BB41_2 Depth=1
	movq	-24(%rbp), %rax
	movslq	28(%rax), %rax
	movl	BZ2_rNums(,%rax,4), %eax
	movq	-24(%rbp), %rcx
	movl	%eax, 24(%rcx)
	movq	-24(%rbp), %rax
	movl	28(%rax), %ecx
	addl	$1, %ecx
	movl	%ecx, 28(%rax)
	movq	-24(%rbp), %rax
	cmpl	$512, 28(%rax)          # imm = 0x200
	jne	.LBB41_46
# %bb.45:                               # %if.then325
                                        #   in Loop: Header=BB41_2 Depth=1
	movq	-24(%rbp), %rax
	movl	$0, 28(%rax)
.LBB41_46:                              # %if.end327
                                        #   in Loop: Header=BB41_2 Depth=1
	jmp	.LBB41_47
.LBB41_47:                              # %if.end328
                                        #   in Loop: Header=BB41_2 Depth=1
	xorl	%eax, %eax
	movq	-24(%rbp), %rcx
	movl	24(%rcx), %edx
	addl	$-1, %edx
	movl	%edx, 24(%rcx)
	movq	-24(%rbp), %rcx
	movl	24(%rcx), %ecx
	cmpl	$1, %ecx
	movl	$1, %ecx
	cmovel	%ecx, %eax
	movq	-24(%rbp), %rcx
	xorl	64(%rcx), %eax
	movl	%eax, 64(%rcx)
	movq	-24(%rbp), %rax
	movl	1092(%rax), %ecx
	addl	$1, %ecx
	movl	%ecx, 1092(%rax)
	jmp	.LBB41_20
.LBB41_48:                              # %if.else
	jmp	.LBB41_49
.LBB41_49:                              # %while.body339
                                        # =>This Loop Header: Depth=1
                                        #     Child Loop BB41_50 Depth 2
	jmp	.LBB41_50
.LBB41_50:                              # %while.body341
                                        #   Parent Loop BB41_49 Depth=1
                                        # =>  This Inner Loop Header: Depth=2
	movq	-24(%rbp), %rax
	movq	(%rax), %rax
	cmpl	$0, 32(%rax)
	jne	.LBB41_52
# %bb.51:                               # %if.then346
	movb	$0, -25(%rbp)
	jmp	.LBB41_75
.LBB41_52:                              # %if.end347
                                        #   in Loop: Header=BB41_50 Depth=2
	movq	-24(%rbp), %rax
	cmpl	$0, 16(%rax)
	jne	.LBB41_54
# %bb.53:                               # %if.then351
                                        #   in Loop: Header=BB41_49 Depth=1
	jmp	.LBB41_57
.LBB41_54:                              # %if.end352
                                        #   in Loop: Header=BB41_50 Depth=2
	movq	-24(%rbp), %rax
	movb	12(%rax), %al
	movq	-24(%rbp), %rcx
	movq	(%rcx), %rcx
	movq	24(%rcx), %rcx
	movb	%al, (%rcx)
	movq	-24(%rbp), %rax
	movl	3184(%rax), %eax
	shll	$8, %eax
	movq	-24(%rbp), %rcx
	movl	3184(%rcx), %ecx
	shrl	$24, %ecx
	movq	-24(%rbp), %rdx
	movzbl	12(%rdx), %edx
	xorl	%edx, %ecx
	movl	%ecx, %ecx
	xorl	BZ2_crc32Table(,%rcx,4), %eax
	movq	-24(%rbp), %rcx
	movl	%eax, 3184(%rcx)
	movq	-24(%rbp), %rax
	movl	16(%rax), %ecx
	addl	$-1, %ecx
	movl	%ecx, 16(%rax)
	movq	-24(%rbp), %rax
	movq	(%rax), %rax
	movq	24(%rax), %rcx
	addq	$1, %rcx
	movq	%rcx, 24(%rax)
	movq	-24(%rbp), %rax
	movq	(%rax), %rax
	movl	32(%rax), %ecx
	addl	$-1, %ecx
	movl	%ecx, 32(%rax)
	movq	-24(%rbp), %rax
	movq	(%rax), %rax
	movl	36(%rax), %ecx
	addl	$1, %ecx
	movl	%ecx, 36(%rax)
	movq	-24(%rbp), %rax
	movq	(%rax), %rax
	cmpl	$0, 36(%rax)
	jne	.LBB41_56
# %bb.55:                               # %if.then382
                                        #   in Loop: Header=BB41_50 Depth=2
	movq	-24(%rbp), %rax
	movq	(%rax), %rax
	movl	40(%rax), %ecx
	addl	$1, %ecx
	movl	%ecx, 40(%rax)
.LBB41_56:                              # %if.end386
                                        #   in Loop: Header=BB41_50 Depth=2
	jmp	.LBB41_50
.LBB41_57:                              # %while.end387
                                        #   in Loop: Header=BB41_49 Depth=1
	movq	-24(%rbp), %rax
	movl	1092(%rax), %eax
	movq	-24(%rbp), %rcx
	movl	64080(%rcx), %ecx
	addl	$1, %ecx
	cmpl	%ecx, %eax
	jne	.LBB41_59
# %bb.58:                               # %if.then393
	movb	$0, -25(%rbp)
	jmp	.LBB41_75
.LBB41_59:                              # %if.end394
                                        #   in Loop: Header=BB41_49 Depth=1
	movq	-24(%rbp), %rax
	movl	1092(%rax), %eax
	movq	-24(%rbp), %rcx
	movl	64080(%rcx), %ecx
	addl	$1, %ecx
	cmpl	%ecx, %eax
	jle	.LBB41_61
# %bb.60:                               # %if.then400
	movb	$1, -25(%rbp)
	jmp	.LBB41_75
.LBB41_61:                              # %if.end401
                                        #   in Loop: Header=BB41_49 Depth=1
	movq	-24(%rbp), %rax
	movl	$1, 16(%rax)
	movq	-24(%rbp), %rax
	movl	64(%rax), %eax
	movq	-24(%rbp), %rcx
	movb	%al, 12(%rcx)
	movq	-24(%rbp), %rax
	movl	60(%rax), %edi
	movq	-24(%rbp), %rsi
	addq	$1096, %rsi             # imm = 0x448
	callq	BZ2_indexIntoF
	movb	%al, -9(%rbp)
	movq	-24(%rbp), %rax
	movq	3160(%rax), %rax
	movq	-24(%rbp), %rcx
	movl	60(%rcx), %ecx
	movzwl	(%rax,%rcx,2), %eax
	movq	-24(%rbp), %rcx
	movq	3168(%rcx), %rcx
	movq	-24(%rbp), %rdx
	movl	60(%rdx), %edx
	shrl	$1, %edx
	movl	%edx, %edx
	movzbl	(%rcx,%rdx), %edx
	movq	-24(%rbp), %rcx
	movl	60(%rcx), %ecx
	shll	$2, %ecx
	andl	$4, %ecx
                                        # kill: def $cl killed $ecx
	shrl	%cl, %edx
	andl	$15, %edx
	shll	$16, %edx
	orl	%edx, %eax
	movq	-24(%rbp), %rcx
	movl	%eax, 60(%rcx)
	movq	-24(%rbp), %rax
	movl	1092(%rax), %ecx
	addl	$1, %ecx
	movl	%ecx, 1092(%rax)
	movq	-24(%rbp), %rax
	movl	1092(%rax), %eax
	movq	-24(%rbp), %rcx
	movl	64080(%rcx), %ecx
	addl	$1, %ecx
	cmpl	%ecx, %eax
	jne	.LBB41_64
# %bb.62:                               # %if.then437
                                        #   in Loop: Header=BB41_49 Depth=1
	jmp	.LBB41_63
.LBB41_63:                              # %while.body339.backedge
                                        #   in Loop: Header=BB41_49 Depth=1
	jmp	.LBB41_49
.LBB41_64:                              # %if.end438
                                        #   in Loop: Header=BB41_49 Depth=1
	movzbl	-9(%rbp), %eax
	movq	-24(%rbp), %rcx
	cmpl	64(%rcx), %eax
	je	.LBB41_66
# %bb.65:                               # %if.then443
                                        #   in Loop: Header=BB41_49 Depth=1
	movzbl	-9(%rbp), %eax
	movq	-24(%rbp), %rcx
	movl	%eax, 64(%rcx)
	jmp	.LBB41_63
.LBB41_66:                              # %if.end446
                                        #   in Loop: Header=BB41_49 Depth=1
	movq	-24(%rbp), %rax
	movl	$2, 16(%rax)
	movq	-24(%rbp), %rax
	movl	60(%rax), %edi
	movq	-24(%rbp), %rsi
	addq	$1096, %rsi             # imm = 0x448
	callq	BZ2_indexIntoF
	movb	%al, -9(%rbp)
	movq	-24(%rbp), %rax
	movq	3160(%rax), %rax
	movq	-24(%rbp), %rcx
	movl	60(%rcx), %ecx
	movzwl	(%rax,%rcx,2), %eax
	movq	-24(%rbp), %rcx
	movq	3168(%rcx), %rcx
	movq	-24(%rbp), %rdx
	movl	60(%rdx), %edx
	shrl	$1, %edx
	movl	%edx, %edx
	movzbl	(%rcx,%rdx), %edx
	movq	-24(%rbp), %rcx
	movl	60(%rcx), %ecx
	shll	$2, %ecx
	andl	$4, %ecx
                                        # kill: def $cl killed $ecx
	shrl	%cl, %edx
	andl	$15, %edx
	shll	$16, %edx
	orl	%edx, %eax
	movq	-24(%rbp), %rcx
	movl	%eax, 60(%rcx)
	movq	-24(%rbp), %rax
	movl	1092(%rax), %ecx
	addl	$1, %ecx
	movl	%ecx, 1092(%rax)
	movq	-24(%rbp), %rax
	movl	1092(%rax), %eax
	movq	-24(%rbp), %rcx
	movl	64080(%rcx), %ecx
	addl	$1, %ecx
	cmpl	%ecx, %eax
	jne	.LBB41_68
# %bb.67:                               # %if.then479
                                        #   in Loop: Header=BB41_49 Depth=1
	jmp	.LBB41_63
.LBB41_68:                              # %if.end480
                                        #   in Loop: Header=BB41_49 Depth=1
	movzbl	-9(%rbp), %eax
	movq	-24(%rbp), %rcx
	cmpl	64(%rcx), %eax
	je	.LBB41_70
# %bb.69:                               # %if.then485
                                        #   in Loop: Header=BB41_49 Depth=1
	movzbl	-9(%rbp), %eax
	movq	-24(%rbp), %rcx
	movl	%eax, 64(%rcx)
	jmp	.LBB41_63
.LBB41_70:                              # %if.end488
                                        #   in Loop: Header=BB41_49 Depth=1
	movq	-24(%rbp), %rax
	movl	$3, 16(%rax)
	movq	-24(%rbp), %rax
	movl	60(%rax), %edi
	movq	-24(%rbp), %rsi
	addq	$1096, %rsi             # imm = 0x448
	callq	BZ2_indexIntoF
	movb	%al, -9(%rbp)
	movq	-24(%rbp), %rax
	movq	3160(%rax), %rax
	movq	-24(%rbp), %rcx
	movl	60(%rcx), %ecx
	movzwl	(%rax,%rcx,2), %eax
	movq	-24(%rbp), %rcx
	movq	3168(%rcx), %rcx
	movq	-24(%rbp), %rdx
	movl	60(%rdx), %edx
	shrl	$1, %edx
	movl	%edx, %edx
	movzbl	(%rcx,%rdx), %edx
	movq	-24(%rbp), %rcx
	movl	60(%rcx), %ecx
	shll	$2, %ecx
	andl	$4, %ecx
                                        # kill: def $cl killed $ecx
	shrl	%cl, %edx
	andl	$15, %edx
	shll	$16, %edx
	orl	%edx, %eax
	movq	-24(%rbp), %rcx
	movl	%eax, 60(%rcx)
	movq	-24(%rbp), %rax
	movl	1092(%rax), %ecx
	addl	$1, %ecx
	movl	%ecx, 1092(%rax)
	movq	-24(%rbp), %rax
	movl	1092(%rax), %eax
	movq	-24(%rbp), %rcx
	movl	64080(%rcx), %ecx
	addl	$1, %ecx
	cmpl	%ecx, %eax
	jne	.LBB41_72
# %bb.71:                               # %if.then521
                                        #   in Loop: Header=BB41_49 Depth=1
	jmp	.LBB41_63
.LBB41_72:                              # %if.end522
                                        #   in Loop: Header=BB41_49 Depth=1
	movzbl	-9(%rbp), %eax
	movq	-24(%rbp), %rcx
	cmpl	64(%rcx), %eax
	je	.LBB41_74
# %bb.73:                               # %if.then527
                                        #   in Loop: Header=BB41_49 Depth=1
	movzbl	-9(%rbp), %eax
	movq	-24(%rbp), %rcx
	movl	%eax, 64(%rcx)
	jmp	.LBB41_63
.LBB41_74:                              # %if.end530
                                        #   in Loop: Header=BB41_49 Depth=1
	movq	-24(%rbp), %rax
	movl	60(%rax), %edi
	movq	-24(%rbp), %rsi
	addq	$1096, %rsi             # imm = 0x448
	callq	BZ2_indexIntoF
	movb	%al, -9(%rbp)
	movq	-24(%rbp), %rax
	movq	3160(%rax), %rax
	movq	-24(%rbp), %rcx
	movl	60(%rcx), %ecx
	movzwl	(%rax,%rcx,2), %eax
	movq	-24(%rbp), %rcx
	movq	3168(%rcx), %rcx
	movq	-24(%rbp), %rdx
	movl	60(%rdx), %edx
	shrl	$1, %edx
	movl	%edx, %edx
	movzbl	(%rcx,%rdx), %edx
	movq	-24(%rbp), %rcx
	movl	60(%rcx), %ecx
	shll	$2, %ecx
	andl	$4, %ecx
                                        # kill: def $cl killed $ecx
	shrl	%cl, %edx
	andl	$15, %edx
	shll	$16, %edx
	orl	%edx, %eax
	movq	-24(%rbp), %rcx
	movl	%eax, 60(%rcx)
	movq	-24(%rbp), %rax
	movl	1092(%rax), %ecx
	addl	$1, %ecx
	movl	%ecx, 1092(%rax)
	movzbl	-9(%rbp), %eax
	addl	$4, %eax
	movq	-24(%rbp), %rcx
	movl	%eax, 16(%rcx)
	movq	-24(%rbp), %rax
	movl	60(%rax), %edi
	movq	-24(%rbp), %rsi
	addq	$1096, %rsi             # imm = 0x448
	callq	BZ2_indexIntoF
	movq	-24(%rbp), %rcx
	movl	%eax, 64(%rcx)
	movq	-24(%rbp), %rax
	movq	3160(%rax), %rax
	movq	-24(%rbp), %rcx
	movl	60(%rcx), %ecx
	movzwl	(%rax,%rcx,2), %eax
	movq	-24(%rbp), %rcx
	movq	3168(%rcx), %rcx
	movq	-24(%rbp), %rdx
	movl	60(%rdx), %edx
	shrl	$1, %edx
	movl	%edx, %edx
	movzbl	(%rcx,%rdx), %edx
	movq	-24(%rbp), %rcx
	movl	60(%rcx), %ecx
	shll	$2, %ecx
	andl	$4, %ecx
                                        # kill: def $cl killed $ecx
	shrl	%cl, %edx
	andl	$15, %edx
	shll	$16, %edx
	orl	%edx, %eax
	movq	-24(%rbp), %rcx
	movl	%eax, 60(%rcx)
	movq	-24(%rbp), %rax
	movl	1092(%rax), %ecx
	addl	$1, %ecx
	movl	%ecx, 1092(%rax)
	jmp	.LBB41_63
.LBB41_75:                              # %return
	movb	-25(%rbp), %bl
	cmpl	$1442440120, -32(%rbp)  # imm = 0x55F9E3B8
	jne	.LBB41_77
.LBB41_76:
	movzbl	%bl, %eax
	addq	$24, %rsp
	popq	%rbx
	popq	%rbp
	.cfi_def_cfa %rsp, 8
	retq
.LBB41_77:                              # %func_exit
	.cfi_def_cfa %rbp, 16
	callq	detect_breach
	jmp	.LBB41_76
.Lfunc_end41:
	.size	unRLE_obuf_to_output_SMALL.1, .Lfunc_end41-unRLE_obuf_to_output_SMALL.1
	.cfi_endproc
                                        # -- End function
	.globl	BZ2_bzwrite.2           # -- Begin function BZ2_bzwrite.2
	.p2align	4, 0x90
	.type	BZ2_bzwrite.2,@function
BZ2_bzwrite.2:                          # @BZ2_bzwrite.2
	.cfi_startproc
# %bb.0:                                # %entry
	pushq	%rbp
	.cfi_def_cfa_offset 16
	.cfi_offset %rbp, -16
	movq	%rsp, %rbp
	.cfi_def_cfa_register %rbp
	pushq	%rbx
	subq	$40, %rsp
	.cfi_offset %rbx, -24
	movl	$1741360836, -24(%rbp)  # imm = 0x67CB0EC4
	movq	%rdi, -32(%rbp)
	movq	%rsi, -40(%rbp)
	movl	%edx, -16(%rbp)
	movq	-32(%rbp), %rsi
	movq	-40(%rbp), %rdx
	movl	-16(%rbp), %ecx
	leaq	-20(%rbp), %rdi
	callq	BZ2_bzWrite
	cmpl	$0, -20(%rbp)
	jne	.LBB42_2
# %bb.1:                                # %if.then
	movl	-16(%rbp), %eax
	movl	%eax, -12(%rbp)
	jmp	.LBB42_3
.LBB42_2:                               # %if.else
	movl	$-1, -12(%rbp)
.LBB42_3:                               # %return
	movl	-12(%rbp), %ebx
	cmpl	$1741360836, -24(%rbp)  # imm = 0x67CB0EC4
	jne	.LBB42_5
.LBB42_4:
	movl	%ebx, %eax
	addq	$40, %rsp
	popq	%rbx
	popq	%rbp
	.cfi_def_cfa %rsp, 8
	retq
.LBB42_5:                               # %func_exit
	.cfi_def_cfa %rbp, 16
	callq	detect_breach
	jmp	.LBB42_4
.Lfunc_end42:
	.size	BZ2_bzwrite.2, .Lfunc_end42-BZ2_bzwrite.2
	.cfi_endproc
                                        # -- End function
	.globl	BZ2_bzReadOpen.3        # -- Begin function BZ2_bzReadOpen.3
	.p2align	4, 0x90
	.type	BZ2_bzReadOpen.3,@function
BZ2_bzReadOpen.3:                       # @BZ2_bzReadOpen.3
	.cfi_startproc
# %bb.0:                                # %entry
	pushq	%rbp
	.cfi_def_cfa_offset 16
	.cfi_offset %rbp, -16
	movq	%rsp, %rbp
	.cfi_def_cfa_register %rbp
	pushq	%rbx
	subq	$72, %rsp
	.cfi_offset %rbx, -24
	movl	$1682609587, -76(%rbp)  # imm = 0x644A95B3
	movq	%rdi, -32(%rbp)
	movq	%rsi, -72(%rbp)
	movl	%edx, -44(%rbp)
	movl	%ecx, -40(%rbp)
	movq	%r8, -64(%rbp)
	movl	%r9d, -20(%rbp)
	movq	$0, -16(%rbp)
	cmpq	$0, -32(%rbp)
	je	.LBB43_2
# %bb.1:                                # %if.then
	movq	-32(%rbp), %rax
	movl	$0, (%rax)
.LBB43_2:                               # %if.end
	cmpq	$0, -16(%rbp)
	je	.LBB43_4
# %bb.3:                                # %if.then2
	movq	-16(%rbp), %rax
	movl	$0, 5096(%rax)
.LBB43_4:                               # %if.end3
	cmpq	$0, -72(%rbp)
	je	.LBB43_14
# %bb.5:                                # %lor.lhs.false
	cmpl	$0, -40(%rbp)
	je	.LBB43_7
# %bb.6:                                # %land.lhs.true
	cmpl	$1, -40(%rbp)
	jne	.LBB43_14
.LBB43_7:                               # %lor.lhs.false7
	cmpl	$0, -44(%rbp)
	jl	.LBB43_14
# %bb.8:                                # %lor.lhs.false9
	cmpl	$4, -44(%rbp)
	jg	.LBB43_14
# %bb.9:                                # %lor.lhs.false11
	cmpq	$0, -64(%rbp)
	jne	.LBB43_11
# %bb.10:                               # %land.lhs.true13
	cmpl	$0, -20(%rbp)
	jne	.LBB43_14
.LBB43_11:                              # %lor.lhs.false15
	cmpq	$0, -64(%rbp)
	je	.LBB43_19
# %bb.12:                               # %land.lhs.true17
	cmpl	$0, -20(%rbp)
	jl	.LBB43_14
# %bb.13:                               # %lor.lhs.false19
	cmpl	$5000, -20(%rbp)        # imm = 0x1388
	jle	.LBB43_19
.LBB43_14:                              # %if.then21
	cmpq	$0, -32(%rbp)
	je	.LBB43_16
# %bb.15:                               # %if.then23
	movq	-32(%rbp), %rax
	movl	$-2, (%rax)
.LBB43_16:                              # %if.end24
	cmpq	$0, -16(%rbp)
	je	.LBB43_18
# %bb.17:                               # %if.then26
	movq	-16(%rbp), %rax
	movl	$-2, 5096(%rax)
.LBB43_18:                              # %if.end28
	movq	$0, -56(%rbp)
	jmp	.LBB43_45
.LBB43_19:                              # %if.end29
	movq	-72(%rbp), %rdi
	callq	ferror
	cmpl	$0, %eax
	je	.LBB43_25
# %bb.20:                               # %if.then30
	cmpq	$0, -32(%rbp)
	je	.LBB43_22
# %bb.21:                               # %if.then32
	movq	-32(%rbp), %rax
	movl	$-6, (%rax)
.LBB43_22:                              # %if.end33
	cmpq	$0, -16(%rbp)
	je	.LBB43_24
# %bb.23:                               # %if.then35
	movq	-16(%rbp), %rax
	movl	$-6, 5096(%rax)
.LBB43_24:                              # %if.end37
	movq	$0, -56(%rbp)
	jmp	.LBB43_45
.LBB43_25:                              # %if.end38
	movl	$5104, %edi             # imm = 0x13F0
	callq	malloc
	movq	%rax, -16(%rbp)
	cmpq	$0, -16(%rbp)
	jne	.LBB43_31
# %bb.26:                               # %if.then41
	cmpq	$0, -32(%rbp)
	je	.LBB43_28
# %bb.27:                               # %if.then43
	movq	-32(%rbp), %rax
	movl	$-3, (%rax)
.LBB43_28:                              # %if.end44
	cmpq	$0, -16(%rbp)
	je	.LBB43_30
# %bb.29:                               # %if.then46
	movq	-16(%rbp), %rax
	movl	$-3, 5096(%rax)
.LBB43_30:                              # %if.end48
	movq	$0, -56(%rbp)
	jmp	.LBB43_45
.LBB43_31:                              # %if.end49
	cmpq	$0, -32(%rbp)
	je	.LBB43_33
# %bb.32:                               # %if.then51
	movq	-32(%rbp), %rax
	movl	$0, (%rax)
.LBB43_33:                              # %if.end52
	cmpq	$0, -16(%rbp)
	je	.LBB43_35
# %bb.34:                               # %if.then54
	movq	-16(%rbp), %rax
	movl	$0, 5096(%rax)
.LBB43_35:                              # %if.end56
	movq	-16(%rbp), %rax
	movb	$0, 5100(%rax)
	movq	-72(%rbp), %rax
	movq	-16(%rbp), %rcx
	movq	%rax, (%rcx)
	movq	-16(%rbp), %rax
	movl	$0, 5008(%rax)
	movq	-16(%rbp), %rax
	movb	$0, 5012(%rax)
	movq	-16(%rbp), %rax
	movq	$0, 5072(%rax)
	movq	-16(%rbp), %rax
	movq	$0, 5080(%rax)
	movq	-16(%rbp), %rax
	movq	$0, 5088(%rax)
.LBB43_36:                              # %while.cond
                                        # =>This Inner Loop Header: Depth=1
	cmpl	$0, -20(%rbp)
	jle	.LBB43_38
# %bb.37:                               # %while.body
                                        #   in Loop: Header=BB43_36 Depth=1
	movq	-64(%rbp), %rax
	movb	(%rax), %al
	movq	-16(%rbp), %rcx
	movq	-16(%rbp), %rdx
	movslq	5008(%rdx), %rdx
	movb	%al, 8(%rcx,%rdx)
	movq	-16(%rbp), %rax
	movl	5008(%rax), %ecx
	addl	$1, %ecx
	movl	%ecx, 5008(%rax)
	movq	-64(%rbp), %rax
	addq	$1, %rax
	movq	%rax, -64(%rbp)
	movl	-20(%rbp), %eax
	addl	$-1, %eax
	movl	%eax, -20(%rbp)
	jmp	.LBB43_36
.LBB43_38:                              # %while.end
	movq	-16(%rbp), %rdi
	addq	$5016, %rdi             # imm = 0x1398
	movl	-44(%rbp), %esi
	movl	-40(%rbp), %edx
	callq	BZ2_bzDecompressInit
	movl	%eax, -36(%rbp)
	cmpl	$0, -36(%rbp)
	je	.LBB43_44
# %bb.39:                               # %if.then65
	cmpq	$0, -32(%rbp)
	je	.LBB43_41
# %bb.40:                               # %if.then67
	movl	-36(%rbp), %eax
	movq	-32(%rbp), %rcx
	movl	%eax, (%rcx)
.LBB43_41:                              # %if.end68
	cmpq	$0, -16(%rbp)
	je	.LBB43_43
# %bb.42:                               # %if.then70
	movl	-36(%rbp), %eax
	movq	-16(%rbp), %rcx
	movl	%eax, 5096(%rcx)
.LBB43_43:                              # %if.end72
	movq	-16(%rbp), %rdi
	callq	free
	movq	$0, -56(%rbp)
	jmp	.LBB43_45
.LBB43_44:                              # %if.end73
	movq	-16(%rbp), %rax
	movl	5008(%rax), %eax
	movq	-16(%rbp), %rcx
	movl	%eax, 5024(%rcx)
	movq	-16(%rbp), %rax
	addq	$8, %rax
	movq	-16(%rbp), %rcx
	movq	%rax, 5016(%rcx)
	movq	-16(%rbp), %rax
	movb	$1, 5100(%rax)
	movq	-16(%rbp), %rax
	movq	%rax, -56(%rbp)
.LBB43_45:                              # %return
	movq	-56(%rbp), %rbx
	cmpl	$1682609587, -76(%rbp)  # imm = 0x644A95B3
	jne	.LBB43_47
.LBB43_46:
	movq	%rbx, %rax
	addq	$72, %rsp
	popq	%rbx
	popq	%rbp
	.cfi_def_cfa %rsp, 8
	retq
.LBB43_47:                              # %func_exit
	.cfi_def_cfa %rbp, 16
	callq	detect_breach
	jmp	.LBB43_46
.Lfunc_end43:
	.size	BZ2_bzReadOpen.3, .Lfunc_end43-BZ2_bzReadOpen.3
	.cfi_endproc
                                        # -- End function
	.globl	BZ2_bzReadClose.4       # -- Begin function BZ2_bzReadClose.4
	.p2align	4, 0x90
	.type	BZ2_bzReadClose.4,@function
BZ2_bzReadClose.4:                      # @BZ2_bzReadClose.4
	.cfi_startproc
# %bb.0:                                # %entry
	pushq	%rbp
	.cfi_def_cfa_offset 16
	.cfi_offset %rbp, -16
	movq	%rsp, %rbp
	.cfi_def_cfa_register %rbp
	subq	$32, %rsp
	movl	$761972316, -20(%rbp)   # imm = 0x2D6AC65C
	movq	%rdi, -16(%rbp)
	movq	%rsi, -32(%rbp)
	movq	-32(%rbp), %rax
	movq	%rax, -8(%rbp)
	cmpq	$0, -16(%rbp)
	je	.LBB44_2
# %bb.1:                                # %if.then
	movq	-16(%rbp), %rax
	movl	$0, (%rax)
.LBB44_2:                               # %if.end
	cmpq	$0, -8(%rbp)
	je	.LBB44_4
# %bb.3:                                # %if.then2
	movq	-8(%rbp), %rax
	movl	$0, 5096(%rax)
.LBB44_4:                               # %if.end3
	cmpq	$0, -8(%rbp)
	jne	.LBB44_10
# %bb.5:                                # %if.then5
	cmpq	$0, -16(%rbp)
	je	.LBB44_7
# %bb.6:                                # %if.then7
	movq	-16(%rbp), %rax
	movl	$0, (%rax)
.LBB44_7:                               # %if.end8
	cmpq	$0, -8(%rbp)
	je	.LBB44_9
# %bb.8:                                # %if.then10
	movq	-8(%rbp), %rax
	movl	$0, 5096(%rax)
.LBB44_9:                               # %if.end12
	jmp	.LBB44_19
.LBB44_10:                              # %if.end13
	movq	-8(%rbp), %rax
	cmpb	$0, 5012(%rax)
	je	.LBB44_16
# %bb.11:                               # %if.then14
	cmpq	$0, -16(%rbp)
	je	.LBB44_13
# %bb.12:                               # %if.then16
	movq	-16(%rbp), %rax
	movl	$-1, (%rax)
.LBB44_13:                              # %if.end17
	cmpq	$0, -8(%rbp)
	je	.LBB44_15
# %bb.14:                               # %if.then19
	movq	-8(%rbp), %rax
	movl	$-1, 5096(%rax)
.LBB44_15:                              # %if.end21
	jmp	.LBB44_19
.LBB44_16:                              # %if.end22
	movq	-8(%rbp), %rax
	cmpb	$0, 5100(%rax)
	je	.LBB44_18
# %bb.17:                               # %if.then24
	movq	-8(%rbp), %rdi
	addq	$5016, %rdi             # imm = 0x1398
	callq	BZ2_bzDecompressEnd
.LBB44_18:                              # %if.end25
	movq	-8(%rbp), %rdi
	callq	free
.LBB44_19:                              # %return
	cmpl	$761972316, -20(%rbp)   # imm = 0x2D6AC65C
	jne	.LBB44_21
.LBB44_20:
	addq	$32, %rsp
	popq	%rbp
	.cfi_def_cfa %rsp, 8
	retq
.LBB44_21:                              # %func_exit
	.cfi_def_cfa %rbp, 16
	callq	detect_breach
	jmp	.LBB44_20
.Lfunc_end44:
	.size	BZ2_bzReadClose.4, .Lfunc_end44-BZ2_bzReadClose.4
	.cfi_endproc
                                        # -- End function
	.p2align	4, 0x90         # -- Begin function prepare_new_block.5
	.type	prepare_new_block.5,@function
prepare_new_block.5:                    # @prepare_new_block.5
	.cfi_startproc
# %bb.0:                                # %entry
	pushq	%rbp
	.cfi_def_cfa_offset 16
	.cfi_offset %rbp, -16
	movq	%rsp, %rbp
	.cfi_def_cfa_register %rbp
	subq	$32, %rsp
	movl	$2116205546, -20(%rbp)  # imm = 0x7E22BBEA
	movq	%rdi, -16(%rbp)
	movq	-16(%rbp), %rax
	movl	$0, 108(%rax)
	movq	-16(%rbp), %rax
	movl	$0, 116(%rax)
	movq	-16(%rbp), %rax
	movl	$0, 120(%rax)
	movq	-16(%rbp), %rax
	movl	$-1, 648(%rax)
	movl	$0, -4(%rbp)
.LBB45_1:                               # %for.cond
                                        # =>This Inner Loop Header: Depth=1
	cmpl	$256, -4(%rbp)          # imm = 0x100
	jge	.LBB45_4
# %bb.2:                                # %for.body
                                        #   in Loop: Header=BB45_1 Depth=1
	movq	-16(%rbp), %rax
	movslq	-4(%rbp), %rcx
	movb	$0, 128(%rax,%rcx)
# %bb.3:                                # %for.inc
                                        #   in Loop: Header=BB45_1 Depth=1
	movl	-4(%rbp), %eax
	addl	$1, %eax
	movl	%eax, -4(%rbp)
	jmp	.LBB45_1
.LBB45_4:                               # %for.end
	movq	-16(%rbp), %rax
	movl	660(%rax), %ecx
	addl	$1, %ecx
	movl	%ecx, 660(%rax)
	cmpl	$2116205546, -20(%rbp)  # imm = 0x7E22BBEA
	jne	.LBB45_6
.LBB45_5:
	addq	$32, %rsp
	popq	%rbp
	.cfi_def_cfa %rsp, 8
	retq
.LBB45_6:                               # %func_exit
	.cfi_def_cfa %rbp, 16
	callq	detect_breach
	jmp	.LBB45_5
.Lfunc_end45:
	.size	prepare_new_block.5, .Lfunc_end45-prepare_new_block.5
	.cfi_endproc
                                        # -- End function
	.globl	BZ2_bzCompressEnd.6     # -- Begin function BZ2_bzCompressEnd.6
	.p2align	4, 0x90
	.type	BZ2_bzCompressEnd.6,@function
BZ2_bzCompressEnd.6:                    # @BZ2_bzCompressEnd.6
	.cfi_startproc
# %bb.0:                                # %entry
	pushq	%rbp
	.cfi_def_cfa_offset 16
	.cfi_offset %rbp, -16
	movq	%rsp, %rbp
	.cfi_def_cfa_register %rbp
	pushq	%rbx
	subq	$40, %rsp
	.cfi_offset %rbx, -24
	movl	$1083974693, -36(%rbp)  # imm = 0x409C2425
	movq	%rdi, -16(%rbp)
	cmpq	$0, -16(%rbp)
	jne	.LBB46_2
# %bb.1:                                # %if.then
	movl	$-2, -20(%rbp)
	jmp	.LBB46_13
.LBB46_2:                               # %if.end
	movq	-16(%rbp), %rax
	movq	48(%rax), %rax
	movq	%rax, -32(%rbp)
	cmpq	$0, -32(%rbp)
	jne	.LBB46_4
# %bb.3:                                # %if.then2
	movl	$-2, -20(%rbp)
	jmp	.LBB46_13
.LBB46_4:                               # %if.end3
	movq	-32(%rbp), %rax
	movq	(%rax), %rax
	cmpq	-16(%rbp), %rax
	je	.LBB46_6
# %bb.5:                                # %if.then6
	movl	$-2, -20(%rbp)
	jmp	.LBB46_13
.LBB46_6:                               # %if.end7
	movq	-32(%rbp), %rax
	cmpq	$0, 24(%rax)
	je	.LBB46_8
# %bb.7:                                # %if.then9
	movq	-16(%rbp), %rax
	movq	64(%rax), %rax
	movq	-16(%rbp), %rcx
	movq	72(%rcx), %rdi
	movq	-32(%rbp), %rcx
	movq	24(%rcx), %rsi
	callq	*%rax
.LBB46_8:                               # %if.end11
	movq	-32(%rbp), %rax
	cmpq	$0, 32(%rax)
	je	.LBB46_10
# %bb.9:                                # %if.then13
	movq	-16(%rbp), %rax
	movq	64(%rax), %rax
	movq	-16(%rbp), %rcx
	movq	72(%rcx), %rdi
	movq	-32(%rbp), %rcx
	movq	32(%rcx), %rsi
	callq	*%rax
.LBB46_10:                              # %if.end17
	movq	-32(%rbp), %rax
	cmpq	$0, 40(%rax)
	je	.LBB46_12
# %bb.11:                               # %if.then19
	movq	-16(%rbp), %rax
	movq	64(%rax), %rax
	movq	-16(%rbp), %rcx
	movq	72(%rcx), %rdi
	movq	-32(%rbp), %rcx
	movq	40(%rcx), %rsi
	callq	*%rax
.LBB46_12:                              # %if.end23
	movq	-16(%rbp), %rax
	movq	64(%rax), %rax
	movq	-16(%rbp), %rcx
	movq	72(%rcx), %rdi
	movq	-16(%rbp), %rcx
	movq	48(%rcx), %rsi
	callq	*%rax
	movq	-16(%rbp), %rax
	movq	$0, 48(%rax)
	movl	$0, -20(%rbp)
.LBB46_13:                              # %return
	movl	-20(%rbp), %ebx
	cmpl	$1083974693, -36(%rbp)  # imm = 0x409C2425
	jne	.LBB46_15
.LBB46_14:
	movl	%ebx, %eax
	addq	$40, %rsp
	popq	%rbx
	popq	%rbp
	.cfi_def_cfa %rsp, 8
	retq
.LBB46_15:                              # %func_exit
	.cfi_def_cfa %rbp, 16
	callq	detect_breach
	jmp	.LBB46_14
.Lfunc_end46:
	.size	BZ2_bzCompressEnd.6, .Lfunc_end46-BZ2_bzCompressEnd.6
	.cfi_endproc
                                        # -- End function
	.p2align	4, 0x90         # -- Begin function add_pair_to_block.7
	.type	add_pair_to_block.7,@function
add_pair_to_block.7:                    # @add_pair_to_block.7
	.cfi_startproc
# %bb.0:                                # %entry
	pushq	%rbp
	.cfi_def_cfa_offset 16
	.cfi_offset %rbp, -16
	movq	%rsp, %rbp
	.cfi_def_cfa_register %rbp
	subq	$32, %rsp
	movl	$959757326, -24(%rbp)   # imm = 0x3934BC0E
	movq	%rdi, -16(%rbp)
	movq	-16(%rbp), %rax
	movl	92(%rax), %eax
	movb	%al, -1(%rbp)
	movl	$0, -20(%rbp)
.LBB47_1:                               # %for.cond
                                        # =>This Inner Loop Header: Depth=1
	movl	-20(%rbp), %eax
	movq	-16(%rbp), %rcx
	cmpl	96(%rcx), %eax
	jge	.LBB47_4
# %bb.2:                                # %for.body
                                        #   in Loop: Header=BB47_1 Depth=1
	movq	-16(%rbp), %rax
	movl	648(%rax), %eax
	shll	$8, %eax
	movq	-16(%rbp), %rcx
	movl	648(%rcx), %ecx
	shrl	$24, %ecx
	movzbl	-1(%rbp), %edx
	xorl	%edx, %ecx
	movl	%ecx, %ecx
	xorl	BZ2_crc32Table(,%rcx,4), %eax
	movq	-16(%rbp), %rcx
	movl	%eax, 648(%rcx)
# %bb.3:                                # %for.inc
                                        #   in Loop: Header=BB47_1 Depth=1
	movl	-20(%rbp), %eax
	addl	$1, %eax
	movl	%eax, -20(%rbp)
	jmp	.LBB47_1
.LBB47_4:                               # %for.end
	movq	-16(%rbp), %rax
	movl	92(%rax), %ecx
	movb	$1, 128(%rax,%rcx)
	movq	-16(%rbp), %rax
	movl	96(%rax), %eax
	movl	%eax, %ecx
	subl	$1, %ecx
	je	.LBB47_7
	jmp	.LBB47_5
.LBB47_5:                               # %for.end
	movl	%eax, %ecx
	subl	$2, %ecx
	je	.LBB47_8
	jmp	.LBB47_6
.LBB47_6:                               # %for.end
	subl	$3, %eax
	je	.LBB47_9
	jmp	.LBB47_10
.LBB47_7:                               # %sw.bb
	movb	-1(%rbp), %al
	movq	-16(%rbp), %rcx
	movq	64(%rcx), %rcx
	movq	-16(%rbp), %rdx
	movslq	108(%rdx), %rdx
	movb	%al, (%rcx,%rdx)
	movq	-16(%rbp), %rax
	movl	108(%rax), %ecx
	addl	$1, %ecx
	movl	%ecx, 108(%rax)
	jmp	.LBB47_11
.LBB47_8:                               # %sw.bb14
	movb	-1(%rbp), %al
	movq	-16(%rbp), %rcx
	movq	64(%rcx), %rcx
	movq	-16(%rbp), %rdx
	movslq	108(%rdx), %rdx
	movb	%al, (%rcx,%rdx)
	movq	-16(%rbp), %rax
	movl	108(%rax), %ecx
	addl	$1, %ecx
	movl	%ecx, 108(%rax)
	movb	-1(%rbp), %al
	movq	-16(%rbp), %rcx
	movq	64(%rcx), %rcx
	movq	-16(%rbp), %rdx
	movslq	108(%rdx), %rdx
	movb	%al, (%rcx,%rdx)
	movq	-16(%rbp), %rax
	movl	108(%rax), %ecx
	addl	$1, %ecx
	movl	%ecx, 108(%rax)
	jmp	.LBB47_11
.LBB47_9:                               # %sw.bb27
	movb	-1(%rbp), %al
	movq	-16(%rbp), %rcx
	movq	64(%rcx), %rcx
	movq	-16(%rbp), %rdx
	movslq	108(%rdx), %rdx
	movb	%al, (%rcx,%rdx)
	movq	-16(%rbp), %rax
	movl	108(%rax), %ecx
	addl	$1, %ecx
	movl	%ecx, 108(%rax)
	movb	-1(%rbp), %al
	movq	-16(%rbp), %rcx
	movq	64(%rcx), %rcx
	movq	-16(%rbp), %rdx
	movslq	108(%rdx), %rdx
	movb	%al, (%rcx,%rdx)
	movq	-16(%rbp), %rax
	movl	108(%rax), %ecx
	addl	$1, %ecx
	movl	%ecx, 108(%rax)
	movb	-1(%rbp), %al
	movq	-16(%rbp), %rcx
	movq	64(%rcx), %rcx
	movq	-16(%rbp), %rdx
	movslq	108(%rdx), %rdx
	movb	%al, (%rcx,%rdx)
	movq	-16(%rbp), %rax
	movl	108(%rax), %ecx
	addl	$1, %ecx
	movl	%ecx, 108(%rax)
	jmp	.LBB47_11
.LBB47_10:                              # %sw.default
	movq	-16(%rbp), %rax
	movq	-16(%rbp), %rcx
	movl	96(%rcx), %ecx
	subl	$4, %ecx
	movslq	%ecx, %rcx
	movb	$1, 128(%rax,%rcx)
	movb	-1(%rbp), %al
	movq	-16(%rbp), %rcx
	movq	64(%rcx), %rcx
	movq	-16(%rbp), %rdx
	movslq	108(%rdx), %rdx
	movb	%al, (%rcx,%rdx)
	movq	-16(%rbp), %rax
	movl	108(%rax), %ecx
	addl	$1, %ecx
	movl	%ecx, 108(%rax)
	movb	-1(%rbp), %al
	movq	-16(%rbp), %rcx
	movq	64(%rcx), %rcx
	movq	-16(%rbp), %rdx
	movslq	108(%rdx), %rdx
	movb	%al, (%rcx,%rdx)
	movq	-16(%rbp), %rax
	movl	108(%rax), %ecx
	addl	$1, %ecx
	movl	%ecx, 108(%rax)
	movb	-1(%rbp), %al
	movq	-16(%rbp), %rcx
	movq	64(%rcx), %rcx
	movq	-16(%rbp), %rdx
	movslq	108(%rdx), %rdx
	movb	%al, (%rcx,%rdx)
	movq	-16(%rbp), %rax
	movl	108(%rax), %ecx
	addl	$1, %ecx
	movl	%ecx, 108(%rax)
	movb	-1(%rbp), %al
	movq	-16(%rbp), %rcx
	movq	64(%rcx), %rcx
	movq	-16(%rbp), %rdx
	movslq	108(%rdx), %rdx
	movb	%al, (%rcx,%rdx)
	movq	-16(%rbp), %rax
	movl	108(%rax), %ecx
	addl	$1, %ecx
	movl	%ecx, 108(%rax)
	movq	-16(%rbp), %rax
	movl	96(%rax), %eax
	subl	$4, %eax
	movq	-16(%rbp), %rcx
	movq	64(%rcx), %rcx
	movq	-16(%rbp), %rdx
	movslq	108(%rdx), %rdx
	movb	%al, (%rcx,%rdx)
	movq	-16(%rbp), %rax
	movl	108(%rax), %ecx
	addl	$1, %ecx
	movl	%ecx, 108(%rax)
.LBB47_11:                              # %sw.epilog
	cmpl	$959757326, -24(%rbp)   # imm = 0x3934BC0E
	jne	.LBB47_13
.LBB47_12:
	addq	$32, %rsp
	popq	%rbp
	.cfi_def_cfa %rsp, 8
	retq
.LBB47_13:                              # %func_exit
	.cfi_def_cfa %rbp, 16
	callq	detect_breach
	jmp	.LBB47_12
.Lfunc_end47:
	.size	add_pair_to_block.7, .Lfunc_end47-add_pair_to_block.7
	.cfi_endproc
                                        # -- End function
	.globl	BZ2_bzReadGetUnused.8   # -- Begin function BZ2_bzReadGetUnused.8
	.p2align	4, 0x90
	.type	BZ2_bzReadGetUnused.8,@function
BZ2_bzReadGetUnused.8:                  # @BZ2_bzReadGetUnused.8
	.cfi_startproc
# %bb.0:                                # %entry
	pushq	%rbp
	.cfi_def_cfa_offset 16
	.cfi_offset %rbp, -16
	movq	%rsp, %rbp
	.cfi_def_cfa_register %rbp
	subq	$48, %rsp
	movl	$1490838167, -20(%rbp)  # imm = 0x58DC6297
	movq	%rdi, -16(%rbp)
	movq	%rsi, -48(%rbp)
	movq	%rdx, -40(%rbp)
	movq	%rcx, -32(%rbp)
	movq	-48(%rbp), %rax
	movq	%rax, -8(%rbp)
	cmpq	$0, -8(%rbp)
	jne	.LBB48_6
# %bb.1:                                # %if.then
	cmpq	$0, -16(%rbp)
	je	.LBB48_3
# %bb.2:                                # %if.then2
	movq	-16(%rbp), %rax
	movl	$-2, (%rax)
.LBB48_3:                               # %if.end
	cmpq	$0, -8(%rbp)
	je	.LBB48_5
# %bb.4:                                # %if.then4
	movq	-8(%rbp), %rax
	movl	$-2, 5096(%rax)
.LBB48_5:                               # %if.end5
	jmp	.LBB48_24
.LBB48_6:                               # %if.end6
	movq	-8(%rbp), %rax
	cmpl	$4, 5096(%rax)
	je	.LBB48_12
# %bb.7:                                # %if.then9
	cmpq	$0, -16(%rbp)
	je	.LBB48_9
# %bb.8:                                # %if.then11
	movq	-16(%rbp), %rax
	movl	$-1, (%rax)
.LBB48_9:                               # %if.end12
	cmpq	$0, -8(%rbp)
	je	.LBB48_11
# %bb.10:                               # %if.then14
	movq	-8(%rbp), %rax
	movl	$-1, 5096(%rax)
.LBB48_11:                              # %if.end16
	jmp	.LBB48_24
.LBB48_12:                              # %if.end17
	cmpq	$0, -40(%rbp)
	je	.LBB48_14
# %bb.13:                               # %lor.lhs.false
	cmpq	$0, -32(%rbp)
	jne	.LBB48_19
.LBB48_14:                              # %if.then20
	cmpq	$0, -16(%rbp)
	je	.LBB48_16
# %bb.15:                               # %if.then22
	movq	-16(%rbp), %rax
	movl	$-2, (%rax)
.LBB48_16:                              # %if.end23
	cmpq	$0, -8(%rbp)
	je	.LBB48_18
# %bb.17:                               # %if.then25
	movq	-8(%rbp), %rax
	movl	$-2, 5096(%rax)
.LBB48_18:                              # %if.end27
	jmp	.LBB48_24
.LBB48_19:                              # %if.end28
	cmpq	$0, -16(%rbp)
	je	.LBB48_21
# %bb.20:                               # %if.then30
	movq	-16(%rbp), %rax
	movl	$0, (%rax)
.LBB48_21:                              # %if.end31
	cmpq	$0, -8(%rbp)
	je	.LBB48_23
# %bb.22:                               # %if.then33
	movq	-8(%rbp), %rax
	movl	$0, 5096(%rax)
.LBB48_23:                              # %if.end35
	movq	-8(%rbp), %rax
	movl	5024(%rax), %eax
	movq	-32(%rbp), %rcx
	movl	%eax, (%rcx)
	movq	-8(%rbp), %rax
	movq	5016(%rax), %rax
	movq	-40(%rbp), %rcx
	movq	%rax, (%rcx)
.LBB48_24:                              # %return
	cmpl	$1490838167, -20(%rbp)  # imm = 0x58DC6297
	jne	.LBB48_26
.LBB48_25:
	addq	$48, %rsp
	popq	%rbp
	.cfi_def_cfa %rsp, 8
	retq
.LBB48_26:                              # %func_exit
	.cfi_def_cfa %rbp, 16
	callq	detect_breach
	jmp	.LBB48_25
.Lfunc_end48:
	.size	BZ2_bzReadGetUnused.8, .Lfunc_end48-BZ2_bzReadGetUnused.8
	.cfi_endproc
                                        # -- End function
	.globl	BZ2_bzCompressInit.9    # -- Begin function BZ2_bzCompressInit.9
	.p2align	4, 0x90
	.type	BZ2_bzCompressInit.9,@function
BZ2_bzCompressInit.9:                   # @BZ2_bzCompressInit.9
	.cfi_startproc
# %bb.0:                                # %entry
	pushq	%rbp
	.cfi_def_cfa_offset 16
	.cfi_offset %rbp, -16
	movq	%rsp, %rbp
	.cfi_def_cfa_register %rbp
	pushq	%rbx
	subq	$40, %rsp
	.cfi_offset %rbx, -24
	movl	$965722872, -48(%rbp)   # imm = 0x398FC2F8
	movq	%rdi, -24(%rbp)
	movl	%esi, -36(%rbp)
	movl	%edx, -44(%rbp)
	movl	%ecx, -32(%rbp)
	callq	bz_config_ok
	cmpl	$0, %eax
	jne	.LBB49_2
# %bb.1:                                # %if.then
	movl	$-9, -28(%rbp)
	jmp	.LBB49_29
.LBB49_2:                               # %if.end
	cmpq	$0, -24(%rbp)
	je	.LBB49_7
# %bb.3:                                # %lor.lhs.false
	cmpl	$1, -36(%rbp)
	jl	.LBB49_7
# %bb.4:                                # %lor.lhs.false2
	cmpl	$9, -36(%rbp)
	jg	.LBB49_7
# %bb.5:                                # %lor.lhs.false4
	cmpl	$0, -32(%rbp)
	jl	.LBB49_7
# %bb.6:                                # %lor.lhs.false6
	cmpl	$250, -32(%rbp)
	jle	.LBB49_8
.LBB49_7:                               # %if.then8
	movl	$-2, -28(%rbp)
	jmp	.LBB49_29
.LBB49_8:                               # %if.end9
	cmpl	$0, -32(%rbp)
	jne	.LBB49_10
# %bb.9:                                # %if.then11
	movl	$30, -32(%rbp)
.LBB49_10:                              # %if.end12
	movq	-24(%rbp), %rax
	cmpq	$0, 56(%rax)
	jne	.LBB49_12
# %bb.11:                               # %if.then14
	movq	-24(%rbp), %rax
	movabsq	$default_bzalloc, %rcx
	movq	%rcx, 56(%rax)
.LBB49_12:                              # %if.end16
	movq	-24(%rbp), %rax
	cmpq	$0, 64(%rax)
	jne	.LBB49_14
# %bb.13:                               # %if.then18
	movq	-24(%rbp), %rax
	movabsq	$default_bzfree, %rcx
	movq	%rcx, 64(%rax)
.LBB49_14:                              # %if.end20
	movq	-24(%rbp), %rax
	movq	56(%rax), %rax
	movq	-24(%rbp), %rcx
	movq	72(%rcx), %rdi
	movl	$55768, %esi            # imm = 0xD9D8
	movl	$1, %edx
	callq	*%rax
	movq	%rax, -16(%rbp)
	cmpq	$0, -16(%rbp)
	jne	.LBB49_16
# %bb.15:                               # %if.then24
	movl	$-3, -28(%rbp)
	jmp	.LBB49_29
.LBB49_16:                              # %if.end25
	movq	-24(%rbp), %rax
	movq	-16(%rbp), %rcx
	movq	%rax, (%rcx)
	movq	-16(%rbp), %rax
	movq	$0, 24(%rax)
	movq	-16(%rbp), %rax
	movq	$0, 32(%rax)
	movq	-16(%rbp), %rax
	movq	$0, 40(%rax)
	imull	$100000, -36(%rbp), %eax # imm = 0x186A0
	movl	%eax, -40(%rbp)
	movq	-24(%rbp), %rax
	movq	56(%rax), %rax
	movq	-24(%rbp), %rcx
	movq	72(%rcx), %rdi
	movslq	-40(%rbp), %rsi
	shlq	$2, %rsi
                                        # kill: def $esi killed $esi killed $rsi
	movl	$1, %edx
	callq	*%rax
	movq	-16(%rbp), %rcx
	movq	%rax, 24(%rcx)
	movq	-24(%rbp), %rax
	movq	56(%rax), %rax
	movq	-24(%rbp), %rcx
	movq	72(%rcx), %rdi
	movl	-40(%rbp), %ecx
	addl	$34, %ecx
	movslq	%ecx, %rsi
	shlq	$2, %rsi
                                        # kill: def $esi killed $esi killed $rsi
	movl	$1, %edx
	callq	*%rax
	movq	-16(%rbp), %rcx
	movq	%rax, 32(%rcx)
	movq	-24(%rbp), %rax
	movq	56(%rax), %rax
	movq	-24(%rbp), %rcx
	movq	72(%rcx), %rdi
	movl	$262148, %esi           # imm = 0x40004
	movl	$1, %edx
	callq	*%rax
	movq	-16(%rbp), %rcx
	movq	%rax, 40(%rcx)
	movq	-16(%rbp), %rax
	cmpq	$0, 24(%rax)
	je	.LBB49_19
# %bb.17:                               # %lor.lhs.false47
	movq	-16(%rbp), %rax
	cmpq	$0, 32(%rax)
	je	.LBB49_19
# %bb.18:                               # %lor.lhs.false51
	movq	-16(%rbp), %rax
	cmpq	$0, 40(%rax)
	jne	.LBB49_28
.LBB49_19:                              # %if.then55
	movq	-16(%rbp), %rax
	cmpq	$0, 24(%rax)
	je	.LBB49_21
# %bb.20:                               # %if.then59
	movq	-24(%rbp), %rax
	movq	64(%rax), %rax
	movq	-24(%rbp), %rcx
	movq	72(%rcx), %rdi
	movq	-16(%rbp), %rcx
	movq	24(%rcx), %rsi
	callq	*%rax
.LBB49_21:                              # %if.end63
	movq	-16(%rbp), %rax
	cmpq	$0, 32(%rax)
	je	.LBB49_23
# %bb.22:                               # %if.then67
	movq	-24(%rbp), %rax
	movq	64(%rax), %rax
	movq	-24(%rbp), %rcx
	movq	72(%rcx), %rdi
	movq	-16(%rbp), %rcx
	movq	32(%rcx), %rsi
	callq	*%rax
.LBB49_23:                              # %if.end71
	movq	-16(%rbp), %rax
	cmpq	$0, 40(%rax)
	je	.LBB49_25
# %bb.24:                               # %if.then75
	movq	-24(%rbp), %rax
	movq	64(%rax), %rax
	movq	-24(%rbp), %rcx
	movq	72(%rcx), %rdi
	movq	-16(%rbp), %rcx
	movq	40(%rcx), %rsi
	callq	*%rax
.LBB49_25:                              # %if.end79
	cmpq	$0, -16(%rbp)
	je	.LBB49_27
# %bb.26:                               # %if.then82
	movq	-24(%rbp), %rax
	movq	64(%rax), %rax
	movq	-24(%rbp), %rcx
	movq	72(%rcx), %rdi
	movq	-16(%rbp), %rsi
	callq	*%rax
.LBB49_27:                              # %if.end85
	movl	$-3, -28(%rbp)
	jmp	.LBB49_29
.LBB49_28:                              # %if.end86
	movq	-16(%rbp), %rax
	movl	$0, 660(%rax)
	movq	-16(%rbp), %rax
	movl	$2, 12(%rax)
	movq	-16(%rbp), %rax
	movl	$2, 8(%rax)
	movq	-16(%rbp), %rax
	movl	$0, 652(%rax)
	movl	-36(%rbp), %eax
	movq	-16(%rbp), %rcx
	movl	%eax, 664(%rcx)
	imull	$100000, -36(%rbp), %eax # imm = 0x186A0
	subl	$19, %eax
	movq	-16(%rbp), %rcx
	movl	%eax, 112(%rcx)
	movl	-44(%rbp), %eax
	movq	-16(%rbp), %rcx
	movl	%eax, 656(%rcx)
	movl	-32(%rbp), %eax
	movq	-16(%rbp), %rcx
	movl	%eax, 88(%rcx)
	movq	-16(%rbp), %rax
	movq	32(%rax), %rax
	movq	-16(%rbp), %rcx
	movq	%rax, 64(%rcx)
	movq	-16(%rbp), %rax
	movq	24(%rax), %rax
	movq	-16(%rbp), %rcx
	movq	%rax, 72(%rcx)
	movq	-16(%rbp), %rax
	movq	$0, 80(%rax)
	movq	-16(%rbp), %rax
	movq	24(%rax), %rax
	movq	-16(%rbp), %rcx
	movq	%rax, 56(%rcx)
	movq	-16(%rbp), %rax
	movq	-24(%rbp), %rcx
	movq	%rax, 48(%rcx)
	movq	-24(%rbp), %rax
	movl	$0, 12(%rax)
	movq	-24(%rbp), %rax
	movl	$0, 16(%rax)
	movq	-24(%rbp), %rax
	movl	$0, 36(%rax)
	movq	-24(%rbp), %rax
	movl	$0, 40(%rax)
	movq	-16(%rbp), %rdi
	callq	init_RL
	movq	-16(%rbp), %rdi
	callq	prepare_new_block
	movl	$0, -28(%rbp)
.LBB49_29:                              # %return
	movl	-28(%rbp), %ebx
	cmpl	$965722872, -48(%rbp)   # imm = 0x398FC2F8
	jne	.LBB49_31
.LBB49_30:
	movl	%ebx, %eax
	addq	$40, %rsp
	popq	%rbx
	popq	%rbp
	.cfi_def_cfa %rsp, 8
	retq
.LBB49_31:                              # %func_exit
	.cfi_def_cfa %rbp, 16
	callq	detect_breach
	jmp	.LBB49_30
.Lfunc_end49:
	.size	BZ2_bzCompressInit.9, .Lfunc_end49-BZ2_bzCompressInit.9
	.cfi_endproc
                                        # -- End function
	.p2align	4, 0x90         # -- Begin function add_pair_to_block.10
	.type	add_pair_to_block.10,@function
add_pair_to_block.10:                   # @add_pair_to_block.10
	.cfi_startproc
# %bb.0:                                # %entry
	pushq	%rbp
	.cfi_def_cfa_offset 16
	.cfi_offset %rbp, -16
	movq	%rsp, %rbp
	.cfi_def_cfa_register %rbp
	subq	$32, %rsp
	movl	$1316118179, -24(%rbp)  # imm = 0x4E725EA3
	movq	%rdi, -16(%rbp)
	movq	-16(%rbp), %rax
	movl	92(%rax), %eax
	movb	%al, -1(%rbp)
	movl	$0, -20(%rbp)
.LBB50_1:                               # %for.cond
                                        # =>This Inner Loop Header: Depth=1
	movl	-20(%rbp), %eax
	movq	-16(%rbp), %rcx
	cmpl	96(%rcx), %eax
	jge	.LBB50_4
# %bb.2:                                # %for.body
                                        #   in Loop: Header=BB50_1 Depth=1
	movq	-16(%rbp), %rax
	movl	648(%rax), %eax
	shll	$8, %eax
	movq	-16(%rbp), %rcx
	movl	648(%rcx), %ecx
	shrl	$24, %ecx
	movzbl	-1(%rbp), %edx
	xorl	%edx, %ecx
	movl	%ecx, %ecx
	xorl	BZ2_crc32Table(,%rcx,4), %eax
	movq	-16(%rbp), %rcx
	movl	%eax, 648(%rcx)
# %bb.3:                                # %for.inc
                                        #   in Loop: Header=BB50_1 Depth=1
	movl	-20(%rbp), %eax
	addl	$1, %eax
	movl	%eax, -20(%rbp)
	jmp	.LBB50_1
.LBB50_4:                               # %for.end
	movq	-16(%rbp), %rax
	movl	92(%rax), %ecx
	movb	$1, 128(%rax,%rcx)
	movq	-16(%rbp), %rax
	movl	96(%rax), %eax
	movl	%eax, %ecx
	subl	$1, %ecx
	je	.LBB50_7
	jmp	.LBB50_5
.LBB50_5:                               # %for.end
	movl	%eax, %ecx
	subl	$2, %ecx
	je	.LBB50_8
	jmp	.LBB50_6
.LBB50_6:                               # %for.end
	subl	$3, %eax
	je	.LBB50_9
	jmp	.LBB50_10
.LBB50_7:                               # %sw.bb
	movb	-1(%rbp), %al
	movq	-16(%rbp), %rcx
	movq	64(%rcx), %rcx
	movq	-16(%rbp), %rdx
	movslq	108(%rdx), %rdx
	movb	%al, (%rcx,%rdx)
	movq	-16(%rbp), %rax
	movl	108(%rax), %ecx
	addl	$1, %ecx
	movl	%ecx, 108(%rax)
	jmp	.LBB50_11
.LBB50_8:                               # %sw.bb14
	movb	-1(%rbp), %al
	movq	-16(%rbp), %rcx
	movq	64(%rcx), %rcx
	movq	-16(%rbp), %rdx
	movslq	108(%rdx), %rdx
	movb	%al, (%rcx,%rdx)
	movq	-16(%rbp), %rax
	movl	108(%rax), %ecx
	addl	$1, %ecx
	movl	%ecx, 108(%rax)
	movb	-1(%rbp), %al
	movq	-16(%rbp), %rcx
	movq	64(%rcx), %rcx
	movq	-16(%rbp), %rdx
	movslq	108(%rdx), %rdx
	movb	%al, (%rcx,%rdx)
	movq	-16(%rbp), %rax
	movl	108(%rax), %ecx
	addl	$1, %ecx
	movl	%ecx, 108(%rax)
	jmp	.LBB50_11
.LBB50_9:                               # %sw.bb27
	movb	-1(%rbp), %al
	movq	-16(%rbp), %rcx
	movq	64(%rcx), %rcx
	movq	-16(%rbp), %rdx
	movslq	108(%rdx), %rdx
	movb	%al, (%rcx,%rdx)
	movq	-16(%rbp), %rax
	movl	108(%rax), %ecx
	addl	$1, %ecx
	movl	%ecx, 108(%rax)
	movb	-1(%rbp), %al
	movq	-16(%rbp), %rcx
	movq	64(%rcx), %rcx
	movq	-16(%rbp), %rdx
	movslq	108(%rdx), %rdx
	movb	%al, (%rcx,%rdx)
	movq	-16(%rbp), %rax
	movl	108(%rax), %ecx
	addl	$1, %ecx
	movl	%ecx, 108(%rax)
	movb	-1(%rbp), %al
	movq	-16(%rbp), %rcx
	movq	64(%rcx), %rcx
	movq	-16(%rbp), %rdx
	movslq	108(%rdx), %rdx
	movb	%al, (%rcx,%rdx)
	movq	-16(%rbp), %rax
	movl	108(%rax), %ecx
	addl	$1, %ecx
	movl	%ecx, 108(%rax)
	jmp	.LBB50_11
.LBB50_10:                              # %sw.default
	movq	-16(%rbp), %rax
	movq	-16(%rbp), %rcx
	movl	96(%rcx), %ecx
	subl	$4, %ecx
	movslq	%ecx, %rcx
	movb	$1, 128(%rax,%rcx)
	movb	-1(%rbp), %al
	movq	-16(%rbp), %rcx
	movq	64(%rcx), %rcx
	movq	-16(%rbp), %rdx
	movslq	108(%rdx), %rdx
	movb	%al, (%rcx,%rdx)
	movq	-16(%rbp), %rax
	movl	108(%rax), %ecx
	addl	$1, %ecx
	movl	%ecx, 108(%rax)
	movb	-1(%rbp), %al
	movq	-16(%rbp), %rcx
	movq	64(%rcx), %rcx
	movq	-16(%rbp), %rdx
	movslq	108(%rdx), %rdx
	movb	%al, (%rcx,%rdx)
	movq	-16(%rbp), %rax
	movl	108(%rax), %ecx
	addl	$1, %ecx
	movl	%ecx, 108(%rax)
	movb	-1(%rbp), %al
	movq	-16(%rbp), %rcx
	movq	64(%rcx), %rcx
	movq	-16(%rbp), %rdx
	movslq	108(%rdx), %rdx
	movb	%al, (%rcx,%rdx)
	movq	-16(%rbp), %rax
	movl	108(%rax), %ecx
	addl	$1, %ecx
	movl	%ecx, 108(%rax)
	movb	-1(%rbp), %al
	movq	-16(%rbp), %rcx
	movq	64(%rcx), %rcx
	movq	-16(%rbp), %rdx
	movslq	108(%rdx), %rdx
	movb	%al, (%rcx,%rdx)
	movq	-16(%rbp), %rax
	movl	108(%rax), %ecx
	addl	$1, %ecx
	movl	%ecx, 108(%rax)
	movq	-16(%rbp), %rax
	movl	96(%rax), %eax
	subl	$4, %eax
	movq	-16(%rbp), %rcx
	movq	64(%rcx), %rcx
	movq	-16(%rbp), %rdx
	movslq	108(%rdx), %rdx
	movb	%al, (%rcx,%rdx)
	movq	-16(%rbp), %rax
	movl	108(%rax), %ecx
	addl	$1, %ecx
	movl	%ecx, 108(%rax)
.LBB50_11:                              # %sw.epilog
	cmpl	$1316118179, -24(%rbp)  # imm = 0x4E725EA3
	jne	.LBB50_13
.LBB50_12:
	addq	$32, %rsp
	popq	%rbp
	.cfi_def_cfa %rsp, 8
	retq
.LBB50_13:                              # %func_exit
	.cfi_def_cfa %rbp, 16
	callq	detect_breach
	jmp	.LBB50_12
.Lfunc_end50:
	.size	add_pair_to_block.10, .Lfunc_end50-add_pair_to_block.10
	.cfi_endproc
                                        # -- End function
	.p2align	4, 0x90         # -- Begin function copy_output_until_stop.11
	.type	copy_output_until_stop.11,@function
copy_output_until_stop.11:              # @copy_output_until_stop.11
	.cfi_startproc
# %bb.0:                                # %entry
	pushq	%rbp
	.cfi_def_cfa_offset 16
	.cfi_offset %rbp, -16
	movq	%rsp, %rbp
	.cfi_def_cfa_register %rbp
	pushq	%rbx
	subq	$24, %rsp
	.cfi_offset %rbx, -24
	movl	$13871851, -28(%rbp)    # imm = 0xD3AAEB
	movq	%rdi, -24(%rbp)
	movb	$0, -9(%rbp)
.LBB51_1:                               # %while.body
                                        # =>This Inner Loop Header: Depth=1
	movq	-24(%rbp), %rax
	movq	(%rax), %rax
	cmpl	$0, 32(%rax)
	jne	.LBB51_3
# %bb.2:                                # %if.then
	jmp	.LBB51_8
.LBB51_3:                               # %if.end
                                        #   in Loop: Header=BB51_1 Depth=1
	movq	-24(%rbp), %rax
	movl	120(%rax), %eax
	movq	-24(%rbp), %rcx
	cmpl	116(%rcx), %eax
	jl	.LBB51_5
# %bb.4:                                # %if.then2
	jmp	.LBB51_8
.LBB51_5:                               # %if.end3
                                        #   in Loop: Header=BB51_1 Depth=1
	movb	$1, -9(%rbp)
	movq	-24(%rbp), %rax
	movq	80(%rax), %rax
	movq	-24(%rbp), %rcx
	movslq	120(%rcx), %rcx
	movb	(%rax,%rcx), %al
	movq	-24(%rbp), %rcx
	movq	(%rcx), %rcx
	movq	24(%rcx), %rcx
	movb	%al, (%rcx)
	movq	-24(%rbp), %rax
	movl	120(%rax), %ecx
	addl	$1, %ecx
	movl	%ecx, 120(%rax)
	movq	-24(%rbp), %rax
	movq	(%rax), %rax
	movl	32(%rax), %ecx
	addl	$-1, %ecx
	movl	%ecx, 32(%rax)
	movq	-24(%rbp), %rax
	movq	(%rax), %rax
	movq	24(%rax), %rcx
	addq	$1, %rcx
	movq	%rcx, 24(%rax)
	movq	-24(%rbp), %rax
	movq	(%rax), %rax
	movl	36(%rax), %ecx
	addl	$1, %ecx
	movl	%ecx, 36(%rax)
	movq	-24(%rbp), %rax
	movq	(%rax), %rax
	cmpl	$0, 36(%rax)
	jne	.LBB51_7
# %bb.6:                                # %if.then16
                                        #   in Loop: Header=BB51_1 Depth=1
	movq	-24(%rbp), %rax
	movq	(%rax), %rax
	movl	40(%rax), %ecx
	addl	$1, %ecx
	movl	%ecx, 40(%rax)
.LBB51_7:                               # %if.end19
                                        #   in Loop: Header=BB51_1 Depth=1
	jmp	.LBB51_1
.LBB51_8:                               # %while.end
	movb	-9(%rbp), %bl
	cmpl	$13871851, -28(%rbp)    # imm = 0xD3AAEB
	jne	.LBB51_10
.LBB51_9:
	movzbl	%bl, %eax
	addq	$24, %rsp
	popq	%rbx
	popq	%rbp
	.cfi_def_cfa %rsp, 8
	retq
.LBB51_10:                              # %func_exit
	.cfi_def_cfa %rbp, 16
	callq	detect_breach
	jmp	.LBB51_9
.Lfunc_end51:
	.size	copy_output_until_stop.11, .Lfunc_end51-copy_output_until_stop.11
	.cfi_endproc
                                        # -- End function
	.globl	BZ2_bzWrite.12          # -- Begin function BZ2_bzWrite.12
	.p2align	4, 0x90
	.type	BZ2_bzWrite.12,@function
BZ2_bzWrite.12:                         # @BZ2_bzWrite.12
	.cfi_startproc
# %bb.0:                                # %entry
	pushq	%rbp
	.cfi_def_cfa_offset 16
	.cfi_offset %rbp, -16
	movq	%rsp, %rbp
	.cfi_def_cfa_register %rbp
	subq	$64, %rsp
	movl	$1988264083, -32(%rbp)  # imm = 0x76828093
	movq	%rdi, -16(%rbp)
	movq	%rsi, -56(%rbp)
	movq	%rdx, -48(%rbp)
	movl	%ecx, -20(%rbp)
	movq	-56(%rbp), %rax
	movq	%rax, -8(%rbp)
	cmpq	$0, -16(%rbp)
	je	.LBB52_2
# %bb.1:                                # %if.then
	movq	-16(%rbp), %rax
	movl	$0, (%rax)
.LBB52_2:                               # %if.end
	cmpq	$0, -8(%rbp)
	je	.LBB52_4
# %bb.3:                                # %if.then2
	movq	-8(%rbp), %rax
	movl	$0, 5096(%rax)
.LBB52_4:                               # %if.end3
	cmpq	$0, -8(%rbp)
	je	.LBB52_7
# %bb.5:                                # %lor.lhs.false
	cmpq	$0, -48(%rbp)
	je	.LBB52_7
# %bb.6:                                # %lor.lhs.false6
	cmpl	$0, -20(%rbp)
	jge	.LBB52_12
.LBB52_7:                               # %if.then8
	cmpq	$0, -16(%rbp)
	je	.LBB52_9
# %bb.8:                                # %if.then10
	movq	-16(%rbp), %rax
	movl	$-2, (%rax)
.LBB52_9:                               # %if.end11
	cmpq	$0, -8(%rbp)
	je	.LBB52_11
# %bb.10:                               # %if.then13
	movq	-8(%rbp), %rax
	movl	$-2, 5096(%rax)
.LBB52_11:                              # %if.end15
	jmp	.LBB52_53
.LBB52_12:                              # %if.end16
	movq	-8(%rbp), %rax
	cmpb	$0, 5012(%rax)
	jne	.LBB52_18
# %bb.13:                               # %if.then17
	cmpq	$0, -16(%rbp)
	je	.LBB52_15
# %bb.14:                               # %if.then19
	movq	-16(%rbp), %rax
	movl	$-1, (%rax)
.LBB52_15:                              # %if.end20
	cmpq	$0, -8(%rbp)
	je	.LBB52_17
# %bb.16:                               # %if.then22
	movq	-8(%rbp), %rax
	movl	$-1, 5096(%rax)
.LBB52_17:                              # %if.end24
	jmp	.LBB52_53
.LBB52_18:                              # %if.end25
	movq	-8(%rbp), %rax
	movq	(%rax), %rdi
	callq	ferror
	cmpl	$0, %eax
	je	.LBB52_24
# %bb.19:                               # %if.then27
	cmpq	$0, -16(%rbp)
	je	.LBB52_21
# %bb.20:                               # %if.then29
	movq	-16(%rbp), %rax
	movl	$-6, (%rax)
.LBB52_21:                              # %if.end30
	cmpq	$0, -8(%rbp)
	je	.LBB52_23
# %bb.22:                               # %if.then32
	movq	-8(%rbp), %rax
	movl	$-6, 5096(%rax)
.LBB52_23:                              # %if.end34
	jmp	.LBB52_53
.LBB52_24:                              # %if.end35
	cmpl	$0, -20(%rbp)
	jne	.LBB52_30
# %bb.25:                               # %if.then37
	cmpq	$0, -16(%rbp)
	je	.LBB52_27
# %bb.26:                               # %if.then39
	movq	-16(%rbp), %rax
	movl	$0, (%rax)
.LBB52_27:                              # %if.end40
	cmpq	$0, -8(%rbp)
	je	.LBB52_29
# %bb.28:                               # %if.then42
	movq	-8(%rbp), %rax
	movl	$0, 5096(%rax)
.LBB52_29:                              # %if.end44
	jmp	.LBB52_53
.LBB52_30:                              # %if.end45
	movl	-20(%rbp), %eax
	movq	-8(%rbp), %rcx
	movl	%eax, 5024(%rcx)
	movq	-48(%rbp), %rax
	movq	-8(%rbp), %rcx
	movq	%rax, 5016(%rcx)
.LBB52_31:                              # %while.body
                                        # =>This Inner Loop Header: Depth=1
	movq	-8(%rbp), %rax
	movl	$5000, 5048(%rax)       # imm = 0x1388
	movq	-8(%rbp), %rax
	addq	$8, %rax
	movq	-8(%rbp), %rcx
	movq	%rax, 5040(%rcx)
	movq	-8(%rbp), %rdi
	addq	$5016, %rdi             # imm = 0x1398
	xorl	%esi, %esi
	callq	BZ2_bzCompress
	movl	%eax, -24(%rbp)
	cmpl	$1, -24(%rbp)
	je	.LBB52_37
# %bb.32:                               # %if.then53
	cmpq	$0, -16(%rbp)
	je	.LBB52_34
# %bb.33:                               # %if.then55
	movl	-24(%rbp), %eax
	movq	-16(%rbp), %rcx
	movl	%eax, (%rcx)
.LBB52_34:                              # %if.end56
	cmpq	$0, -8(%rbp)
	je	.LBB52_36
# %bb.35:                               # %if.then58
	movl	-24(%rbp), %eax
	movq	-8(%rbp), %rcx
	movl	%eax, 5096(%rcx)
.LBB52_36:                              # %if.end60
	jmp	.LBB52_53
.LBB52_37:                              # %if.end61
                                        #   in Loop: Header=BB52_31 Depth=1
	movq	-8(%rbp), %rax
	cmpl	$5000, 5048(%rax)       # imm = 0x1388
	jae	.LBB52_46
# %bb.38:                               # %if.then65
                                        #   in Loop: Header=BB52_31 Depth=1
	movq	-8(%rbp), %rax
	movl	$5000, %ecx             # imm = 0x1388
	subl	5048(%rax), %ecx
	movl	%ecx, -28(%rbp)
	movq	-8(%rbp), %rdi
	addq	$8, %rdi
	movslq	-28(%rbp), %rdx
	movq	-8(%rbp), %rax
	movq	(%rax), %rcx
	movl	$1, %esi
	callq	fwrite
	movl	%eax, -36(%rbp)
	movl	-28(%rbp), %eax
	cmpl	-36(%rbp), %eax
	jne	.LBB52_40
# %bb.39:                               # %lor.lhs.false75
                                        #   in Loop: Header=BB52_31 Depth=1
	movq	-8(%rbp), %rax
	movq	(%rax), %rdi
	callq	ferror
	cmpl	$0, %eax
	je	.LBB52_45
.LBB52_40:                              # %if.then79
	cmpq	$0, -16(%rbp)
	je	.LBB52_42
# %bb.41:                               # %if.then82
	movq	-16(%rbp), %rax
	movl	$-6, (%rax)
.LBB52_42:                              # %if.end83
	cmpq	$0, -8(%rbp)
	je	.LBB52_44
# %bb.43:                               # %if.then86
	movq	-8(%rbp), %rax
	movl	$-6, 5096(%rax)
.LBB52_44:                              # %if.end88
	jmp	.LBB52_53
.LBB52_45:                              # %if.end89
                                        #   in Loop: Header=BB52_31 Depth=1
	jmp	.LBB52_46
.LBB52_46:                              # %if.end90
                                        #   in Loop: Header=BB52_31 Depth=1
	movq	-8(%rbp), %rax
	cmpl	$0, 5024(%rax)
	jne	.LBB52_52
# %bb.47:                               # %if.then95
	cmpq	$0, -16(%rbp)
	je	.LBB52_49
# %bb.48:                               # %if.then98
	movq	-16(%rbp), %rax
	movl	$0, (%rax)
.LBB52_49:                              # %if.end99
	cmpq	$0, -8(%rbp)
	je	.LBB52_51
# %bb.50:                               # %if.then102
	movq	-8(%rbp), %rax
	movl	$0, 5096(%rax)
.LBB52_51:                              # %if.end104
	jmp	.LBB52_53
.LBB52_52:                              # %if.end105
                                        #   in Loop: Header=BB52_31 Depth=1
	jmp	.LBB52_31
.LBB52_53:                              # %return
	cmpl	$1988264083, -32(%rbp)  # imm = 0x76828093
	jne	.LBB52_55
.LBB52_54:
	addq	$64, %rsp
	popq	%rbp
	.cfi_def_cfa %rsp, 8
	retq
.LBB52_55:                              # %func_exit
	.cfi_def_cfa %rbp, 16
	callq	detect_breach
	jmp	.LBB52_54
.Lfunc_end52:
	.size	BZ2_bzWrite.12, .Lfunc_end52-BZ2_bzWrite.12
	.cfi_endproc
                                        # -- End function
	.globl	BZ2_bzCompress.13       # -- Begin function BZ2_bzCompress.13
	.p2align	4, 0x90
	.type	BZ2_bzCompress.13,@function
BZ2_bzCompress.13:                      # @BZ2_bzCompress.13
	.cfi_startproc
# %bb.0:                                # %entry
	pushq	%rbp
	.cfi_def_cfa_offset 16
	.cfi_offset %rbp, -16
	movq	%rsp, %rbp
	.cfi_def_cfa_register %rbp
	pushq	%rbx
	subq	$40, %rsp
	.cfi_offset %rbx, -24
	movl	$697060725, -44(%rbp)   # imm = 0x298C4D75
	movq	%rdi, -40(%rbp)
	movl	%esi, -28(%rbp)
	cmpq	$0, -40(%rbp)
	jne	.LBB53_2
# %bb.1:                                # %if.then
	movl	$-2, -16(%rbp)
	jmp	.LBB53_39
.LBB53_2:                               # %if.end
	movq	-40(%rbp), %rax
	movq	48(%rax), %rax
	movq	%rax, -24(%rbp)
	cmpq	$0, -24(%rbp)
	jne	.LBB53_4
# %bb.3:                                # %if.then2
	movl	$-2, -16(%rbp)
	jmp	.LBB53_39
.LBB53_4:                               # %if.end3
	movq	-24(%rbp), %rax
	movq	(%rax), %rax
	cmpq	-40(%rbp), %rax
	je	.LBB53_6
# %bb.5:                                # %if.then6
	movl	$-2, -16(%rbp)
	jmp	.LBB53_39
.LBB53_6:                               # %if.end7
	jmp	.LBB53_7
.LBB53_7:                               # %preswitch
                                        # =>This Inner Loop Header: Depth=1
	movq	-24(%rbp), %rax
	movl	8(%rax), %eax
	addl	$-1, %eax
	movl	%eax, %ecx
	subl	$3, %ecx
	ja	.LBB53_38
# %bb.8:                                # %preswitch
                                        #   in Loop: Header=BB53_7 Depth=1
	movq	.LJTI53_0(,%rax,8), %rax
	jmpq	*%rax
.LBB53_9:                               # %sw.bb
	movl	$-1, -16(%rbp)
	jmp	.LBB53_39
.LBB53_10:                              # %sw.bb8
                                        #   in Loop: Header=BB53_7 Depth=1
	cmpl	$0, -28(%rbp)
	jne	.LBB53_12
# %bb.11:                               # %if.then10
	movq	-40(%rbp), %rdi
	callq	handle_compress
	movb	%al, -9(%rbp)
	movzbl	-9(%rbp), %eax
	cmpl	$0, %eax
	movl	$1, %eax
	movl	$4294967294, %ecx       # imm = 0xFFFFFFFE
	cmovnel	%eax, %ecx
	movl	%ecx, -16(%rbp)
	jmp	.LBB53_39
.LBB53_12:                              # %if.else
                                        #   in Loop: Header=BB53_7 Depth=1
	cmpl	$1, -28(%rbp)
	jne	.LBB53_15
# %bb.13:                               # %if.then13
                                        #   in Loop: Header=BB53_7 Depth=1
	movq	-40(%rbp), %rax
	movl	8(%rax), %eax
	movq	-24(%rbp), %rcx
	movl	%eax, 16(%rcx)
	movq	-24(%rbp), %rax
	movl	$3, 8(%rax)
.LBB53_14:                              # %preswitch.backedge
                                        #   in Loop: Header=BB53_7 Depth=1
	jmp	.LBB53_7
.LBB53_15:                              # %if.else15
                                        #   in Loop: Header=BB53_7 Depth=1
	cmpl	$2, -28(%rbp)
	jne	.LBB53_17
# %bb.16:                               # %if.then18
                                        #   in Loop: Header=BB53_7 Depth=1
	movq	-40(%rbp), %rax
	movl	8(%rax), %eax
	movq	-24(%rbp), %rcx
	movl	%eax, 16(%rcx)
	movq	-24(%rbp), %rax
	movl	$4, 8(%rax)
	jmp	.LBB53_14
.LBB53_17:                              # %if.else22
	movl	$-2, -16(%rbp)
	jmp	.LBB53_39
.LBB53_18:                              # %sw.bb23
	cmpl	$1, -28(%rbp)
	je	.LBB53_20
# %bb.19:                               # %if.then26
	movl	$-1, -16(%rbp)
	jmp	.LBB53_39
.LBB53_20:                              # %if.end27
	movq	-24(%rbp), %rax
	movl	16(%rax), %eax
	movq	-24(%rbp), %rcx
	movq	(%rcx), %rcx
	cmpl	8(%rcx), %eax
	je	.LBB53_22
# %bb.21:                               # %if.then33
	movl	$-1, -16(%rbp)
	jmp	.LBB53_39
.LBB53_22:                              # %if.end34
	movq	-40(%rbp), %rdi
	callq	handle_compress
	movb	%al, -9(%rbp)
	movq	-24(%rbp), %rax
	cmpl	$0, 16(%rax)
	ja	.LBB53_25
# %bb.23:                               # %lor.lhs.false
	movq	-24(%rbp), %rdi
	callq	isempty_RL
	cmpb	$0, %al
	je	.LBB53_25
# %bb.24:                               # %lor.lhs.false41
	movq	-24(%rbp), %rax
	movl	120(%rax), %eax
	movq	-24(%rbp), %rcx
	cmpl	116(%rcx), %eax
	jge	.LBB53_26
.LBB53_25:                              # %if.then44
	movl	$2, -16(%rbp)
	jmp	.LBB53_39
.LBB53_26:                              # %if.end45
	movq	-24(%rbp), %rax
	movl	$2, 8(%rax)
	movl	$1, -16(%rbp)
	jmp	.LBB53_39
.LBB53_27:                              # %sw.bb47
	cmpl	$2, -28(%rbp)
	je	.LBB53_29
# %bb.28:                               # %if.then50
	movl	$-1, -16(%rbp)
	jmp	.LBB53_39
.LBB53_29:                              # %if.end51
	movq	-24(%rbp), %rax
	movl	16(%rax), %eax
	movq	-24(%rbp), %rcx
	movq	(%rcx), %rcx
	cmpl	8(%rcx), %eax
	je	.LBB53_31
# %bb.30:                               # %if.then57
	movl	$-1, -16(%rbp)
	jmp	.LBB53_39
.LBB53_31:                              # %if.end58
	movq	-40(%rbp), %rdi
	callq	handle_compress
	movb	%al, -9(%rbp)
	cmpb	$0, -9(%rbp)
	jne	.LBB53_33
# %bb.32:                               # %if.then61
	movl	$-1, -16(%rbp)
	jmp	.LBB53_39
.LBB53_33:                              # %if.end62
	movq	-24(%rbp), %rax
	cmpl	$0, 16(%rax)
	ja	.LBB53_36
# %bb.34:                               # %lor.lhs.false66
	movq	-24(%rbp), %rdi
	callq	isempty_RL
	cmpb	$0, %al
	je	.LBB53_36
# %bb.35:                               # %lor.lhs.false69
	movq	-24(%rbp), %rax
	movl	120(%rax), %eax
	movq	-24(%rbp), %rcx
	cmpl	116(%rcx), %eax
	jge	.LBB53_37
.LBB53_36:                              # %if.then74
	movl	$3, -16(%rbp)
	jmp	.LBB53_39
.LBB53_37:                              # %if.end75
	movq	-24(%rbp), %rax
	movl	$1, 8(%rax)
	movl	$4, -16(%rbp)
	jmp	.LBB53_39
.LBB53_38:                              # %sw.epilog
	movl	$0, -16(%rbp)
.LBB53_39:                              # %return
	movl	-16(%rbp), %ebx
	cmpl	$697060725, -44(%rbp)   # imm = 0x298C4D75
	jne	.LBB53_41
.LBB53_40:
	movl	%ebx, %eax
	addq	$40, %rsp
	popq	%rbx
	popq	%rbp
	.cfi_def_cfa %rsp, 8
	retq
.LBB53_41:                              # %func_exit
	.cfi_def_cfa %rbp, 16
	callq	detect_breach
	jmp	.LBB53_40
.Lfunc_end53:
	.size	BZ2_bzCompress.13, .Lfunc_end53-BZ2_bzCompress.13
	.cfi_endproc
	.section	.rodata,"a",@progbits
	.p2align	3
.LJTI53_0:
	.quad	.LBB53_9
	.quad	.LBB53_10
	.quad	.LBB53_18
	.quad	.LBB53_27
                                        # -- End function
	.text
	.globl	BZ2_bzCompressEnd.14    # -- Begin function BZ2_bzCompressEnd.14
	.p2align	4, 0x90
	.type	BZ2_bzCompressEnd.14,@function
BZ2_bzCompressEnd.14:                   # @BZ2_bzCompressEnd.14
	.cfi_startproc
# %bb.0:                                # %entry
	pushq	%rbp
	.cfi_def_cfa_offset 16
	.cfi_offset %rbp, -16
	movq	%rsp, %rbp
	.cfi_def_cfa_register %rbp
	pushq	%rbx
	subq	$40, %rsp
	.cfi_offset %rbx, -24
	movl	$1457899038, -36(%rbp)  # imm = 0x56E5C61E
	movq	%rdi, -16(%rbp)
	cmpq	$0, -16(%rbp)
	jne	.LBB54_2
# %bb.1:                                # %if.then
	movl	$-2, -20(%rbp)
	jmp	.LBB54_13
.LBB54_2:                               # %if.end
	movq	-16(%rbp), %rax
	movq	48(%rax), %rax
	movq	%rax, -32(%rbp)
	cmpq	$0, -32(%rbp)
	jne	.LBB54_4
# %bb.3:                                # %if.then2
	movl	$-2, -20(%rbp)
	jmp	.LBB54_13
.LBB54_4:                               # %if.end3
	movq	-32(%rbp), %rax
	movq	(%rax), %rax
	cmpq	-16(%rbp), %rax
	je	.LBB54_6
# %bb.5:                                # %if.then6
	movl	$-2, -20(%rbp)
	jmp	.LBB54_13
.LBB54_6:                               # %if.end7
	movq	-32(%rbp), %rax
	cmpq	$0, 24(%rax)
	je	.LBB54_8
# %bb.7:                                # %if.then9
	movq	-16(%rbp), %rax
	movq	64(%rax), %rax
	movq	-16(%rbp), %rcx
	movq	72(%rcx), %rdi
	movq	-32(%rbp), %rcx
	movq	24(%rcx), %rsi
	callq	*%rax
.LBB54_8:                               # %if.end11
	movq	-32(%rbp), %rax
	cmpq	$0, 32(%rax)
	je	.LBB54_10
# %bb.9:                                # %if.then13
	movq	-16(%rbp), %rax
	movq	64(%rax), %rax
	movq	-16(%rbp), %rcx
	movq	72(%rcx), %rdi
	movq	-32(%rbp), %rcx
	movq	32(%rcx), %rsi
	callq	*%rax
.LBB54_10:                              # %if.end17
	movq	-32(%rbp), %rax
	cmpq	$0, 40(%rax)
	je	.LBB54_12
# %bb.11:                               # %if.then19
	movq	-16(%rbp), %rax
	movq	64(%rax), %rax
	movq	-16(%rbp), %rcx
	movq	72(%rcx), %rdi
	movq	-32(%rbp), %rcx
	movq	40(%rcx), %rsi
	callq	*%rax
.LBB54_12:                              # %if.end23
	movq	-16(%rbp), %rax
	movq	64(%rax), %rax
	movq	-16(%rbp), %rcx
	movq	72(%rcx), %rdi
	movq	-16(%rbp), %rcx
	movq	48(%rcx), %rsi
	callq	*%rax
	movq	-16(%rbp), %rax
	movq	$0, 48(%rax)
	movl	$0, -20(%rbp)
.LBB54_13:                              # %return
	movl	-20(%rbp), %ebx
	cmpl	$1457899038, -36(%rbp)  # imm = 0x56E5C61E
	jne	.LBB54_15
.LBB54_14:
	movl	%ebx, %eax
	addq	$40, %rsp
	popq	%rbx
	popq	%rbp
	.cfi_def_cfa %rsp, 8
	retq
.LBB54_15:                              # %func_exit
	.cfi_def_cfa %rbp, 16
	callq	detect_breach
	jmp	.LBB54_14
.Lfunc_end54:
	.size	BZ2_bzCompressEnd.14, .Lfunc_end54-BZ2_bzCompressEnd.14
	.cfi_endproc
                                        # -- End function
	.globl	BZ2_bzDecompressInit.15 # -- Begin function BZ2_bzDecompressInit.15
	.p2align	4, 0x90
	.type	BZ2_bzDecompressInit.15,@function
BZ2_bzDecompressInit.15:                # @BZ2_bzDecompressInit.15
	.cfi_startproc
# %bb.0:                                # %entry
	pushq	%rbp
	.cfi_def_cfa_offset 16
	.cfi_offset %rbp, -16
	movq	%rsp, %rbp
	.cfi_def_cfa_register %rbp
	pushq	%rbx
	subq	$40, %rsp
	.cfi_offset %rbx, -24
	movl	$1726252620, -40(%rbp)  # imm = 0x66E4864C
	movq	%rdi, -24(%rbp)
	movl	%esi, -36(%rbp)
	movl	%edx, -32(%rbp)
	callq	bz_config_ok
	cmpl	$0, %eax
	jne	.LBB55_2
# %bb.1:                                # %if.then
	movl	$-9, -28(%rbp)
	jmp	.LBB55_17
.LBB55_2:                               # %if.end
	cmpq	$0, -24(%rbp)
	jne	.LBB55_4
# %bb.3:                                # %if.then1
	movl	$-2, -28(%rbp)
	jmp	.LBB55_17
.LBB55_4:                               # %if.end2
	cmpl	$0, -32(%rbp)
	je	.LBB55_7
# %bb.5:                                # %land.lhs.true
	cmpl	$1, -32(%rbp)
	je	.LBB55_7
# %bb.6:                                # %if.then5
	movl	$-2, -28(%rbp)
	jmp	.LBB55_17
.LBB55_7:                               # %if.end6
	cmpl	$0, -36(%rbp)
	jl	.LBB55_9
# %bb.8:                                # %lor.lhs.false
	cmpl	$4, -36(%rbp)
	jle	.LBB55_10
.LBB55_9:                               # %if.then9
	movl	$-2, -28(%rbp)
	jmp	.LBB55_17
.LBB55_10:                              # %if.end10
	movq	-24(%rbp), %rax
	cmpq	$0, 56(%rax)
	jne	.LBB55_12
# %bb.11:                               # %if.then12
	movq	-24(%rbp), %rax
	movabsq	$default_bzalloc, %rcx
	movq	%rcx, 56(%rax)
.LBB55_12:                              # %if.end14
	movq	-24(%rbp), %rax
	cmpq	$0, 64(%rax)
	jne	.LBB55_14
# %bb.13:                               # %if.then16
	movq	-24(%rbp), %rax
	movabsq	$default_bzfree, %rcx
	movq	%rcx, 64(%rax)
.LBB55_14:                              # %if.end18
	movq	-24(%rbp), %rax
	movq	56(%rax), %rax
	movq	-24(%rbp), %rcx
	movq	72(%rcx), %rdi
	movl	$64144, %esi            # imm = 0xFA90
	movl	$1, %edx
	callq	*%rax
	movq	%rax, -16(%rbp)
	cmpq	$0, -16(%rbp)
	jne	.LBB55_16
# %bb.15:                               # %if.then22
	movl	$-3, -28(%rbp)
	jmp	.LBB55_17
.LBB55_16:                              # %if.end23
	movq	-24(%rbp), %rax
	movq	-16(%rbp), %rcx
	movq	%rax, (%rcx)
	movq	-16(%rbp), %rax
	movq	-24(%rbp), %rcx
	movq	%rax, 48(%rcx)
	movq	-16(%rbp), %rax
	movl	$10, 8(%rax)
	movq	-16(%rbp), %rax
	movl	$0, 36(%rax)
	movq	-16(%rbp), %rax
	movl	$0, 32(%rax)
	movq	-16(%rbp), %rax
	movl	$0, 3188(%rax)
	movq	-24(%rbp), %rax
	movl	$0, 12(%rax)
	movq	-24(%rbp), %rax
	movl	$0, 16(%rax)
	movq	-24(%rbp), %rax
	movl	$0, 36(%rax)
	movq	-24(%rbp), %rax
	movl	$0, 40(%rax)
	movl	-32(%rbp), %eax
	movq	-16(%rbp), %rcx
	movb	%al, 44(%rcx)
	movq	-16(%rbp), %rax
	movq	$0, 3168(%rax)
	movq	-16(%rbp), %rax
	movq	$0, 3160(%rax)
	movq	-16(%rbp), %rax
	movq	$0, 3152(%rax)
	movq	-16(%rbp), %rax
	movl	$0, 48(%rax)
	movl	-36(%rbp), %eax
	movq	-16(%rbp), %rcx
	movl	%eax, 52(%rcx)
	movl	$0, -28(%rbp)
.LBB55_17:                              # %return
	movl	-28(%rbp), %ebx
	cmpl	$1726252620, -40(%rbp)  # imm = 0x66E4864C
	jne	.LBB55_19
.LBB55_18:
	movl	%ebx, %eax
	addq	$40, %rsp
	popq	%rbx
	popq	%rbp
	.cfi_def_cfa %rsp, 8
	retq
.LBB55_19:                              # %func_exit
	.cfi_def_cfa %rbp, 16
	callq	detect_breach
	jmp	.LBB55_18
.Lfunc_end55:
	.size	BZ2_bzDecompressInit.15, .Lfunc_end55-BZ2_bzDecompressInit.15
	.cfi_endproc
                                        # -- End function
	.globl	BZ2_bzerror.16          # -- Begin function BZ2_bzerror.16
	.p2align	4, 0x90
	.type	BZ2_bzerror.16,@function
BZ2_bzerror.16:                         # @BZ2_bzerror.16
	.cfi_startproc
# %bb.0:                                # %entry
	pushq	%rbp
	.cfi_def_cfa_offset 16
	.cfi_offset %rbp, -16
	movq	%rsp, %rbp
	.cfi_def_cfa_register %rbp
	pushq	%rbx
	subq	$24, %rsp
	.cfi_offset %rbx, -24
	movl	$1076606478, -16(%rbp)  # imm = 0x402BB60E
	movq	%rdi, -32(%rbp)
	movq	%rsi, -24(%rbp)
	movq	-32(%rbp), %rax
	movl	5096(%rax), %eax
	movl	%eax, -12(%rbp)
	cmpl	$0, -12(%rbp)
	jle	.LBB56_2
# %bb.1:                                # %if.then
	movl	$0, -12(%rbp)
.LBB56_2:                               # %if.end
	movl	-12(%rbp), %eax
	movq	-24(%rbp), %rcx
	movl	%eax, (%rcx)
	imull	$-1, -12(%rbp), %eax
	cltq
	movq	bzerrorstrings(,%rax,8), %rbx
	cmpl	$1076606478, -16(%rbp)  # imm = 0x402BB60E
	jne	.LBB56_4
.LBB56_3:
	movq	%rbx, %rax
	addq	$24, %rsp
	popq	%rbx
	popq	%rbp
	.cfi_def_cfa %rsp, 8
	retq
.LBB56_4:                               # %func_exit
	.cfi_def_cfa %rbp, 16
	callq	detect_breach
	jmp	.LBB56_3
.Lfunc_end56:
	.size	BZ2_bzerror.16, .Lfunc_end56-BZ2_bzerror.16
	.cfi_endproc
                                        # -- End function
	.p2align	4, 0x90         # -- Begin function add_pair_to_block.17
	.type	add_pair_to_block.17,@function
add_pair_to_block.17:                   # @add_pair_to_block.17
	.cfi_startproc
# %bb.0:                                # %entry
	pushq	%rbp
	.cfi_def_cfa_offset 16
	.cfi_offset %rbp, -16
	movq	%rsp, %rbp
	.cfi_def_cfa_register %rbp
	subq	$32, %rsp
	movl	$1210014642, -24(%rbp)  # imm = 0x481F5BB2
	movq	%rdi, -16(%rbp)
	movq	-16(%rbp), %rax
	movl	92(%rax), %eax
	movb	%al, -1(%rbp)
	movl	$0, -20(%rbp)
.LBB57_1:                               # %for.cond
                                        # =>This Inner Loop Header: Depth=1
	movl	-20(%rbp), %eax
	movq	-16(%rbp), %rcx
	cmpl	96(%rcx), %eax
	jge	.LBB57_4
# %bb.2:                                # %for.body
                                        #   in Loop: Header=BB57_1 Depth=1
	movq	-16(%rbp), %rax
	movl	648(%rax), %eax
	shll	$8, %eax
	movq	-16(%rbp), %rcx
	movl	648(%rcx), %ecx
	shrl	$24, %ecx
	movzbl	-1(%rbp), %edx
	xorl	%edx, %ecx
	movl	%ecx, %ecx
	xorl	BZ2_crc32Table(,%rcx,4), %eax
	movq	-16(%rbp), %rcx
	movl	%eax, 648(%rcx)
# %bb.3:                                # %for.inc
                                        #   in Loop: Header=BB57_1 Depth=1
	movl	-20(%rbp), %eax
	addl	$1, %eax
	movl	%eax, -20(%rbp)
	jmp	.LBB57_1
.LBB57_4:                               # %for.end
	movq	-16(%rbp), %rax
	movl	92(%rax), %ecx
	movb	$1, 128(%rax,%rcx)
	movq	-16(%rbp), %rax
	movl	96(%rax), %eax
	movl	%eax, %ecx
	subl	$1, %ecx
	je	.LBB57_7
	jmp	.LBB57_5
.LBB57_5:                               # %for.end
	movl	%eax, %ecx
	subl	$2, %ecx
	je	.LBB57_8
	jmp	.LBB57_6
.LBB57_6:                               # %for.end
	subl	$3, %eax
	je	.LBB57_9
	jmp	.LBB57_10
.LBB57_7:                               # %sw.bb
	movb	-1(%rbp), %al
	movq	-16(%rbp), %rcx
	movq	64(%rcx), %rcx
	movq	-16(%rbp), %rdx
	movslq	108(%rdx), %rdx
	movb	%al, (%rcx,%rdx)
	movq	-16(%rbp), %rax
	movl	108(%rax), %ecx
	addl	$1, %ecx
	movl	%ecx, 108(%rax)
	jmp	.LBB57_11
.LBB57_8:                               # %sw.bb14
	movb	-1(%rbp), %al
	movq	-16(%rbp), %rcx
	movq	64(%rcx), %rcx
	movq	-16(%rbp), %rdx
	movslq	108(%rdx), %rdx
	movb	%al, (%rcx,%rdx)
	movq	-16(%rbp), %rax
	movl	108(%rax), %ecx
	addl	$1, %ecx
	movl	%ecx, 108(%rax)
	movb	-1(%rbp), %al
	movq	-16(%rbp), %rcx
	movq	64(%rcx), %rcx
	movq	-16(%rbp), %rdx
	movslq	108(%rdx), %rdx
	movb	%al, (%rcx,%rdx)
	movq	-16(%rbp), %rax
	movl	108(%rax), %ecx
	addl	$1, %ecx
	movl	%ecx, 108(%rax)
	jmp	.LBB57_11
.LBB57_9:                               # %sw.bb27
	movb	-1(%rbp), %al
	movq	-16(%rbp), %rcx
	movq	64(%rcx), %rcx
	movq	-16(%rbp), %rdx
	movslq	108(%rdx), %rdx
	movb	%al, (%rcx,%rdx)
	movq	-16(%rbp), %rax
	movl	108(%rax), %ecx
	addl	$1, %ecx
	movl	%ecx, 108(%rax)
	movb	-1(%rbp), %al
	movq	-16(%rbp), %rcx
	movq	64(%rcx), %rcx
	movq	-16(%rbp), %rdx
	movslq	108(%rdx), %rdx
	movb	%al, (%rcx,%rdx)
	movq	-16(%rbp), %rax
	movl	108(%rax), %ecx
	addl	$1, %ecx
	movl	%ecx, 108(%rax)
	movb	-1(%rbp), %al
	movq	-16(%rbp), %rcx
	movq	64(%rcx), %rcx
	movq	-16(%rbp), %rdx
	movslq	108(%rdx), %rdx
	movb	%al, (%rcx,%rdx)
	movq	-16(%rbp), %rax
	movl	108(%rax), %ecx
	addl	$1, %ecx
	movl	%ecx, 108(%rax)
	jmp	.LBB57_11
.LBB57_10:                              # %sw.default
	movq	-16(%rbp), %rax
	movq	-16(%rbp), %rcx
	movl	96(%rcx), %ecx
	subl	$4, %ecx
	movslq	%ecx, %rcx
	movb	$1, 128(%rax,%rcx)
	movb	-1(%rbp), %al
	movq	-16(%rbp), %rcx
	movq	64(%rcx), %rcx
	movq	-16(%rbp), %rdx
	movslq	108(%rdx), %rdx
	movb	%al, (%rcx,%rdx)
	movq	-16(%rbp), %rax
	movl	108(%rax), %ecx
	addl	$1, %ecx
	movl	%ecx, 108(%rax)
	movb	-1(%rbp), %al
	movq	-16(%rbp), %rcx
	movq	64(%rcx), %rcx
	movq	-16(%rbp), %rdx
	movslq	108(%rdx), %rdx
	movb	%al, (%rcx,%rdx)
	movq	-16(%rbp), %rax
	movl	108(%rax), %ecx
	addl	$1, %ecx
	movl	%ecx, 108(%rax)
	movb	-1(%rbp), %al
	movq	-16(%rbp), %rcx
	movq	64(%rcx), %rcx
	movq	-16(%rbp), %rdx
	movslq	108(%rdx), %rdx
	movb	%al, (%rcx,%rdx)
	movq	-16(%rbp), %rax
	movl	108(%rax), %ecx
	addl	$1, %ecx
	movl	%ecx, 108(%rax)
	movb	-1(%rbp), %al
	movq	-16(%rbp), %rcx
	movq	64(%rcx), %rcx
	movq	-16(%rbp), %rdx
	movslq	108(%rdx), %rdx
	movb	%al, (%rcx,%rdx)
	movq	-16(%rbp), %rax
	movl	108(%rax), %ecx
	addl	$1, %ecx
	movl	%ecx, 108(%rax)
	movq	-16(%rbp), %rax
	movl	96(%rax), %eax
	subl	$4, %eax
	movq	-16(%rbp), %rcx
	movq	64(%rcx), %rcx
	movq	-16(%rbp), %rdx
	movslq	108(%rdx), %rdx
	movb	%al, (%rcx,%rdx)
	movq	-16(%rbp), %rax
	movl	108(%rax), %ecx
	addl	$1, %ecx
	movl	%ecx, 108(%rax)
.LBB57_11:                              # %sw.epilog
	cmpl	$1210014642, -24(%rbp)  # imm = 0x481F5BB2
	jne	.LBB57_13
.LBB57_12:
	addq	$32, %rsp
	popq	%rbp
	.cfi_def_cfa %rsp, 8
	retq
.LBB57_13:                              # %func_exit
	.cfi_def_cfa %rbp, 16
	callq	detect_breach
	jmp	.LBB57_12
.Lfunc_end57:
	.size	add_pair_to_block.17, .Lfunc_end57-add_pair_to_block.17
	.cfi_endproc
                                        # -- End function
	.globl	BZ2_bzCompressInit.18   # -- Begin function BZ2_bzCompressInit.18
	.p2align	4, 0x90
	.type	BZ2_bzCompressInit.18,@function
BZ2_bzCompressInit.18:                  # @BZ2_bzCompressInit.18
	.cfi_startproc
# %bb.0:                                # %entry
	pushq	%rbp
	.cfi_def_cfa_offset 16
	.cfi_offset %rbp, -16
	movq	%rsp, %rbp
	.cfi_def_cfa_register %rbp
	pushq	%rbx
	subq	$40, %rsp
	.cfi_offset %rbx, -24
	movl	$72915718, -44(%rbp)    # imm = 0x4589B06
	movq	%rdi, -24(%rbp)
	movl	%esi, -32(%rbp)
	movl	%edx, -48(%rbp)
	movl	%ecx, -36(%rbp)
	callq	bz_config_ok
	cmpl	$0, %eax
	jne	.LBB58_2
# %bb.1:                                # %if.then
	movl	$-9, -28(%rbp)
	jmp	.LBB58_29
.LBB58_2:                               # %if.end
	cmpq	$0, -24(%rbp)
	je	.LBB58_7
# %bb.3:                                # %lor.lhs.false
	cmpl	$1, -32(%rbp)
	jl	.LBB58_7
# %bb.4:                                # %lor.lhs.false2
	cmpl	$9, -32(%rbp)
	jg	.LBB58_7
# %bb.5:                                # %lor.lhs.false4
	cmpl	$0, -36(%rbp)
	jl	.LBB58_7
# %bb.6:                                # %lor.lhs.false6
	cmpl	$250, -36(%rbp)
	jle	.LBB58_8
.LBB58_7:                               # %if.then8
	movl	$-2, -28(%rbp)
	jmp	.LBB58_29
.LBB58_8:                               # %if.end9
	cmpl	$0, -36(%rbp)
	jne	.LBB58_10
# %bb.9:                                # %if.then11
	movl	$30, -36(%rbp)
.LBB58_10:                              # %if.end12
	movq	-24(%rbp), %rax
	cmpq	$0, 56(%rax)
	jne	.LBB58_12
# %bb.11:                               # %if.then14
	movq	-24(%rbp), %rax
	movabsq	$default_bzalloc, %rcx
	movq	%rcx, 56(%rax)
.LBB58_12:                              # %if.end16
	movq	-24(%rbp), %rax
	cmpq	$0, 64(%rax)
	jne	.LBB58_14
# %bb.13:                               # %if.then18
	movq	-24(%rbp), %rax
	movabsq	$default_bzfree, %rcx
	movq	%rcx, 64(%rax)
.LBB58_14:                              # %if.end20
	movq	-24(%rbp), %rax
	movq	56(%rax), %rax
	movq	-24(%rbp), %rcx
	movq	72(%rcx), %rdi
	movl	$55768, %esi            # imm = 0xD9D8
	movl	$1, %edx
	callq	*%rax
	movq	%rax, -16(%rbp)
	cmpq	$0, -16(%rbp)
	jne	.LBB58_16
# %bb.15:                               # %if.then24
	movl	$-3, -28(%rbp)
	jmp	.LBB58_29
.LBB58_16:                              # %if.end25
	movq	-24(%rbp), %rax
	movq	-16(%rbp), %rcx
	movq	%rax, (%rcx)
	movq	-16(%rbp), %rax
	movq	$0, 24(%rax)
	movq	-16(%rbp), %rax
	movq	$0, 32(%rax)
	movq	-16(%rbp), %rax
	movq	$0, 40(%rax)
	imull	$100000, -32(%rbp), %eax # imm = 0x186A0
	movl	%eax, -40(%rbp)
	movq	-24(%rbp), %rax
	movq	56(%rax), %rax
	movq	-24(%rbp), %rcx
	movq	72(%rcx), %rdi
	movslq	-40(%rbp), %rsi
	shlq	$2, %rsi
                                        # kill: def $esi killed $esi killed $rsi
	movl	$1, %edx
	callq	*%rax
	movq	-16(%rbp), %rcx
	movq	%rax, 24(%rcx)
	movq	-24(%rbp), %rax
	movq	56(%rax), %rax
	movq	-24(%rbp), %rcx
	movq	72(%rcx), %rdi
	movl	-40(%rbp), %ecx
	addl	$34, %ecx
	movslq	%ecx, %rsi
	shlq	$2, %rsi
                                        # kill: def $esi killed $esi killed $rsi
	movl	$1, %edx
	callq	*%rax
	movq	-16(%rbp), %rcx
	movq	%rax, 32(%rcx)
	movq	-24(%rbp), %rax
	movq	56(%rax), %rax
	movq	-24(%rbp), %rcx
	movq	72(%rcx), %rdi
	movl	$262148, %esi           # imm = 0x40004
	movl	$1, %edx
	callq	*%rax
	movq	-16(%rbp), %rcx
	movq	%rax, 40(%rcx)
	movq	-16(%rbp), %rax
	cmpq	$0, 24(%rax)
	je	.LBB58_19
# %bb.17:                               # %lor.lhs.false47
	movq	-16(%rbp), %rax
	cmpq	$0, 32(%rax)
	je	.LBB58_19
# %bb.18:                               # %lor.lhs.false51
	movq	-16(%rbp), %rax
	cmpq	$0, 40(%rax)
	jne	.LBB58_28
.LBB58_19:                              # %if.then55
	movq	-16(%rbp), %rax
	cmpq	$0, 24(%rax)
	je	.LBB58_21
# %bb.20:                               # %if.then59
	movq	-24(%rbp), %rax
	movq	64(%rax), %rax
	movq	-24(%rbp), %rcx
	movq	72(%rcx), %rdi
	movq	-16(%rbp), %rcx
	movq	24(%rcx), %rsi
	callq	*%rax
.LBB58_21:                              # %if.end63
	movq	-16(%rbp), %rax
	cmpq	$0, 32(%rax)
	je	.LBB58_23
# %bb.22:                               # %if.then67
	movq	-24(%rbp), %rax
	movq	64(%rax), %rax
	movq	-24(%rbp), %rcx
	movq	72(%rcx), %rdi
	movq	-16(%rbp), %rcx
	movq	32(%rcx), %rsi
	callq	*%rax
.LBB58_23:                              # %if.end71
	movq	-16(%rbp), %rax
	cmpq	$0, 40(%rax)
	je	.LBB58_25
# %bb.24:                               # %if.then75
	movq	-24(%rbp), %rax
	movq	64(%rax), %rax
	movq	-24(%rbp), %rcx
	movq	72(%rcx), %rdi
	movq	-16(%rbp), %rcx
	movq	40(%rcx), %rsi
	callq	*%rax
.LBB58_25:                              # %if.end79
	cmpq	$0, -16(%rbp)
	je	.LBB58_27
# %bb.26:                               # %if.then82
	movq	-24(%rbp), %rax
	movq	64(%rax), %rax
	movq	-24(%rbp), %rcx
	movq	72(%rcx), %rdi
	movq	-16(%rbp), %rsi
	callq	*%rax
.LBB58_27:                              # %if.end85
	movl	$-3, -28(%rbp)
	jmp	.LBB58_29
.LBB58_28:                              # %if.end86
	movq	-16(%rbp), %rax
	movl	$0, 660(%rax)
	movq	-16(%rbp), %rax
	movl	$2, 12(%rax)
	movq	-16(%rbp), %rax
	movl	$2, 8(%rax)
	movq	-16(%rbp), %rax
	movl	$0, 652(%rax)
	movl	-32(%rbp), %eax
	movq	-16(%rbp), %rcx
	movl	%eax, 664(%rcx)
	imull	$100000, -32(%rbp), %eax # imm = 0x186A0
	subl	$19, %eax
	movq	-16(%rbp), %rcx
	movl	%eax, 112(%rcx)
	movl	-48(%rbp), %eax
	movq	-16(%rbp), %rcx
	movl	%eax, 656(%rcx)
	movl	-36(%rbp), %eax
	movq	-16(%rbp), %rcx
	movl	%eax, 88(%rcx)
	movq	-16(%rbp), %rax
	movq	32(%rax), %rax
	movq	-16(%rbp), %rcx
	movq	%rax, 64(%rcx)
	movq	-16(%rbp), %rax
	movq	24(%rax), %rax
	movq	-16(%rbp), %rcx
	movq	%rax, 72(%rcx)
	movq	-16(%rbp), %rax
	movq	$0, 80(%rax)
	movq	-16(%rbp), %rax
	movq	24(%rax), %rax
	movq	-16(%rbp), %rcx
	movq	%rax, 56(%rcx)
	movq	-16(%rbp), %rax
	movq	-24(%rbp), %rcx
	movq	%rax, 48(%rcx)
	movq	-24(%rbp), %rax
	movl	$0, 12(%rax)
	movq	-24(%rbp), %rax
	movl	$0, 16(%rax)
	movq	-24(%rbp), %rax
	movl	$0, 36(%rax)
	movq	-24(%rbp), %rax
	movl	$0, 40(%rax)
	movq	-16(%rbp), %rdi
	callq	init_RL
	movq	-16(%rbp), %rdi
	callq	prepare_new_block
	movl	$0, -28(%rbp)
.LBB58_29:                              # %return
	movl	-28(%rbp), %ebx
	cmpl	$72915718, -44(%rbp)    # imm = 0x4589B06
	jne	.LBB58_31
.LBB58_30:
	movl	%ebx, %eax
	addq	$40, %rsp
	popq	%rbx
	popq	%rbp
	.cfi_def_cfa %rsp, 8
	retq
.LBB58_31:                              # %func_exit
	.cfi_def_cfa %rbp, 16
	callq	detect_breach
	jmp	.LBB58_30
.Lfunc_end58:
	.size	BZ2_bzCompressInit.18, .Lfunc_end58-BZ2_bzCompressInit.18
	.cfi_endproc
                                        # -- End function
	.globl	BZ2_bzDecompressInit.19 # -- Begin function BZ2_bzDecompressInit.19
	.p2align	4, 0x90
	.type	BZ2_bzDecompressInit.19,@function
BZ2_bzDecompressInit.19:                # @BZ2_bzDecompressInit.19
	.cfi_startproc
# %bb.0:                                # %entry
	pushq	%rbp
	.cfi_def_cfa_offset 16
	.cfi_offset %rbp, -16
	movq	%rsp, %rbp
	.cfi_def_cfa_register %rbp
	pushq	%rbx
	subq	$40, %rsp
	.cfi_offset %rbx, -24
	movl	$1400798916, -40(%rbp)  # imm = 0x537E7EC4
	movq	%rdi, -16(%rbp)
	movl	%esi, -32(%rbp)
	movl	%edx, -36(%rbp)
	callq	bz_config_ok
	cmpl	$0, %eax
	jne	.LBB59_2
# %bb.1:                                # %if.then
	movl	$-9, -28(%rbp)
	jmp	.LBB59_17
.LBB59_2:                               # %if.end
	cmpq	$0, -16(%rbp)
	jne	.LBB59_4
# %bb.3:                                # %if.then1
	movl	$-2, -28(%rbp)
	jmp	.LBB59_17
.LBB59_4:                               # %if.end2
	cmpl	$0, -36(%rbp)
	je	.LBB59_7
# %bb.5:                                # %land.lhs.true
	cmpl	$1, -36(%rbp)
	je	.LBB59_7
# %bb.6:                                # %if.then5
	movl	$-2, -28(%rbp)
	jmp	.LBB59_17
.LBB59_7:                               # %if.end6
	cmpl	$0, -32(%rbp)
	jl	.LBB59_9
# %bb.8:                                # %lor.lhs.false
	cmpl	$4, -32(%rbp)
	jle	.LBB59_10
.LBB59_9:                               # %if.then9
	movl	$-2, -28(%rbp)
	jmp	.LBB59_17
.LBB59_10:                              # %if.end10
	movq	-16(%rbp), %rax
	cmpq	$0, 56(%rax)
	jne	.LBB59_12
# %bb.11:                               # %if.then12
	movq	-16(%rbp), %rax
	movabsq	$default_bzalloc, %rcx
	movq	%rcx, 56(%rax)
.LBB59_12:                              # %if.end14
	movq	-16(%rbp), %rax
	cmpq	$0, 64(%rax)
	jne	.LBB59_14
# %bb.13:                               # %if.then16
	movq	-16(%rbp), %rax
	movabsq	$default_bzfree, %rcx
	movq	%rcx, 64(%rax)
.LBB59_14:                              # %if.end18
	movq	-16(%rbp), %rax
	movq	56(%rax), %rax
	movq	-16(%rbp), %rcx
	movq	72(%rcx), %rdi
	movl	$64144, %esi            # imm = 0xFA90
	movl	$1, %edx
	callq	*%rax
	movq	%rax, -24(%rbp)
	cmpq	$0, -24(%rbp)
	jne	.LBB59_16
# %bb.15:                               # %if.then22
	movl	$-3, -28(%rbp)
	jmp	.LBB59_17
.LBB59_16:                              # %if.end23
	movq	-16(%rbp), %rax
	movq	-24(%rbp), %rcx
	movq	%rax, (%rcx)
	movq	-24(%rbp), %rax
	movq	-16(%rbp), %rcx
	movq	%rax, 48(%rcx)
	movq	-24(%rbp), %rax
	movl	$10, 8(%rax)
	movq	-24(%rbp), %rax
	movl	$0, 36(%rax)
	movq	-24(%rbp), %rax
	movl	$0, 32(%rax)
	movq	-24(%rbp), %rax
	movl	$0, 3188(%rax)
	movq	-16(%rbp), %rax
	movl	$0, 12(%rax)
	movq	-16(%rbp), %rax
	movl	$0, 16(%rax)
	movq	-16(%rbp), %rax
	movl	$0, 36(%rax)
	movq	-16(%rbp), %rax
	movl	$0, 40(%rax)
	movl	-36(%rbp), %eax
	movq	-24(%rbp), %rcx
	movb	%al, 44(%rcx)
	movq	-24(%rbp), %rax
	movq	$0, 3168(%rax)
	movq	-24(%rbp), %rax
	movq	$0, 3160(%rax)
	movq	-24(%rbp), %rax
	movq	$0, 3152(%rax)
	movq	-24(%rbp), %rax
	movl	$0, 48(%rax)
	movl	-32(%rbp), %eax
	movq	-24(%rbp), %rcx
	movl	%eax, 52(%rcx)
	movl	$0, -28(%rbp)
.LBB59_17:                              # %return
	movl	-28(%rbp), %ebx
	cmpl	$1400798916, -40(%rbp)  # imm = 0x537E7EC4
	jne	.LBB59_19
.LBB59_18:
	movl	%ebx, %eax
	addq	$40, %rsp
	popq	%rbx
	popq	%rbp
	.cfi_def_cfa %rsp, 8
	retq
.LBB59_19:                              # %func_exit
	.cfi_def_cfa %rbp, 16
	callq	detect_breach
	jmp	.LBB59_18
.Lfunc_end59:
	.size	BZ2_bzDecompressInit.19, .Lfunc_end59-BZ2_bzDecompressInit.19
	.cfi_endproc
                                        # -- End function
	.p2align	4, 0x90         # -- Begin function unRLE_obuf_to_output_SMALL.20
	.type	unRLE_obuf_to_output_SMALL.20,@function
unRLE_obuf_to_output_SMALL.20:          # @unRLE_obuf_to_output_SMALL.20
	.cfi_startproc
# %bb.0:                                # %entry
	pushq	%rbp
	.cfi_def_cfa_offset 16
	.cfi_offset %rbp, -16
	movq	%rsp, %rbp
	.cfi_def_cfa_register %rbp
	pushq	%rbx
	subq	$24, %rsp
	.cfi_offset %rbx, -24
	movl	$805962785, -32(%rbp)   # imm = 0x300A0421
	movq	%rdi, -24(%rbp)
	movq	-24(%rbp), %rax
	cmpb	$0, 20(%rax)
	je	.LBB60_48
# %bb.1:                                # %if.then
	jmp	.LBB60_2
.LBB60_2:                               # %while.body
                                        # =>This Loop Header: Depth=1
                                        #     Child Loop BB60_3 Depth 2
	jmp	.LBB60_3
.LBB60_3:                               # %while.body2
                                        #   Parent Loop BB60_2 Depth=1
                                        # =>  This Inner Loop Header: Depth=2
	movq	-24(%rbp), %rax
	movq	(%rax), %rax
	cmpl	$0, 32(%rax)
	jne	.LBB60_5
# %bb.4:                                # %if.then3
	movb	$0, -25(%rbp)
	jmp	.LBB60_75
.LBB60_5:                               # %if.end
                                        #   in Loop: Header=BB60_3 Depth=2
	movq	-24(%rbp), %rax
	cmpl	$0, 16(%rax)
	jne	.LBB60_7
# %bb.6:                                # %if.then5
                                        #   in Loop: Header=BB60_2 Depth=1
	jmp	.LBB60_10
.LBB60_7:                               # %if.end6
                                        #   in Loop: Header=BB60_3 Depth=2
	movq	-24(%rbp), %rax
	movb	12(%rax), %al
	movq	-24(%rbp), %rcx
	movq	(%rcx), %rcx
	movq	24(%rcx), %rcx
	movb	%al, (%rcx)
	movq	-24(%rbp), %rax
	movl	3184(%rax), %eax
	shll	$8, %eax
	movq	-24(%rbp), %rcx
	movl	3184(%rcx), %ecx
	shrl	$24, %ecx
	movq	-24(%rbp), %rdx
	movzbl	12(%rdx), %edx
	xorl	%edx, %ecx
	movl	%ecx, %ecx
	xorl	BZ2_crc32Table(,%rcx,4), %eax
	movq	-24(%rbp), %rcx
	movl	%eax, 3184(%rcx)
	movq	-24(%rbp), %rax
	movl	16(%rax), %ecx
	addl	$-1, %ecx
	movl	%ecx, 16(%rax)
	movq	-24(%rbp), %rax
	movq	(%rax), %rax
	movq	24(%rax), %rcx
	addq	$1, %rcx
	movq	%rcx, 24(%rax)
	movq	-24(%rbp), %rax
	movq	(%rax), %rax
	movl	32(%rax), %ecx
	addl	$-1, %ecx
	movl	%ecx, 32(%rax)
	movq	-24(%rbp), %rax
	movq	(%rax), %rax
	movl	36(%rax), %ecx
	addl	$1, %ecx
	movl	%ecx, 36(%rax)
	movq	-24(%rbp), %rax
	movq	(%rax), %rax
	cmpl	$0, 36(%rax)
	jne	.LBB60_9
# %bb.8:                                # %if.then23
                                        #   in Loop: Header=BB60_3 Depth=2
	movq	-24(%rbp), %rax
	movq	(%rax), %rax
	movl	40(%rax), %ecx
	addl	$1, %ecx
	movl	%ecx, 40(%rax)
.LBB60_9:                               # %if.end26
                                        #   in Loop: Header=BB60_3 Depth=2
	jmp	.LBB60_3
.LBB60_10:                              # %while.end
                                        #   in Loop: Header=BB60_2 Depth=1
	movq	-24(%rbp), %rax
	movl	1092(%rax), %eax
	movq	-24(%rbp), %rcx
	movl	64080(%rcx), %ecx
	addl	$1, %ecx
	cmpl	%ecx, %eax
	jne	.LBB60_12
# %bb.11:                               # %if.then29
	movb	$0, -25(%rbp)
	jmp	.LBB60_75
.LBB60_12:                              # %if.end30
                                        #   in Loop: Header=BB60_2 Depth=1
	movq	-24(%rbp), %rax
	movl	1092(%rax), %eax
	movq	-24(%rbp), %rcx
	movl	64080(%rcx), %ecx
	addl	$1, %ecx
	cmpl	%ecx, %eax
	jle	.LBB60_14
# %bb.13:                               # %if.then36
	movb	$1, -25(%rbp)
	jmp	.LBB60_75
.LBB60_14:                              # %if.end37
                                        #   in Loop: Header=BB60_2 Depth=1
	movq	-24(%rbp), %rax
	movl	$1, 16(%rax)
	movq	-24(%rbp), %rax
	movl	64(%rax), %eax
	movq	-24(%rbp), %rcx
	movb	%al, 12(%rcx)
	movq	-24(%rbp), %rax
	movl	60(%rax), %edi
	movq	-24(%rbp), %rsi
	addq	$1096, %rsi             # imm = 0x448
	callq	BZ2_indexIntoF
	movb	%al, -9(%rbp)
	movq	-24(%rbp), %rax
	movq	3160(%rax), %rax
	movq	-24(%rbp), %rcx
	movl	60(%rcx), %ecx
	movzwl	(%rax,%rcx,2), %eax
	movq	-24(%rbp), %rcx
	movq	3168(%rcx), %rcx
	movq	-24(%rbp), %rdx
	movl	60(%rdx), %edx
	shrl	$1, %edx
	movl	%edx, %edx
	movzbl	(%rcx,%rdx), %edx
	movq	-24(%rbp), %rcx
	movl	60(%rcx), %ecx
	shll	$2, %ecx
	andl	$4, %ecx
                                        # kill: def $cl killed $ecx
	shrl	%cl, %edx
	andl	$15, %edx
	shll	$16, %edx
	orl	%edx, %eax
	movq	-24(%rbp), %rcx
	movl	%eax, 60(%rcx)
	movq	-24(%rbp), %rax
	cmpl	$0, 24(%rax)
	jne	.LBB60_18
# %bb.15:                               # %if.then59
                                        #   in Loop: Header=BB60_2 Depth=1
	movq	-24(%rbp), %rax
	movslq	28(%rax), %rax
	movl	BZ2_rNums(,%rax,4), %eax
	movq	-24(%rbp), %rcx
	movl	%eax, 24(%rcx)
	movq	-24(%rbp), %rax
	movl	28(%rax), %ecx
	addl	$1, %ecx
	movl	%ecx, 28(%rax)
	movq	-24(%rbp), %rax
	cmpl	$512, 28(%rax)          # imm = 0x200
	jne	.LBB60_17
# %bb.16:                               # %if.then68
                                        #   in Loop: Header=BB60_2 Depth=1
	movq	-24(%rbp), %rax
	movl	$0, 28(%rax)
.LBB60_17:                              # %if.end70
                                        #   in Loop: Header=BB60_2 Depth=1
	jmp	.LBB60_18
.LBB60_18:                              # %if.end71
                                        #   in Loop: Header=BB60_2 Depth=1
	xorl	%eax, %eax
	movq	-24(%rbp), %rcx
	movl	24(%rcx), %edx
	addl	$-1, %edx
	movl	%edx, 24(%rcx)
	movq	-24(%rbp), %rcx
	movl	24(%rcx), %ecx
	cmpl	$1, %ecx
	movl	$1, %ecx
	cmovel	%ecx, %eax
	movzbl	-9(%rbp), %ecx
	xorl	%eax, %ecx
	movb	%cl, -9(%rbp)
	movq	-24(%rbp), %rax
	movl	1092(%rax), %ecx
	addl	$1, %ecx
	movl	%ecx, 1092(%rax)
	movq	-24(%rbp), %rax
	movl	1092(%rax), %eax
	movq	-24(%rbp), %rcx
	movl	64080(%rcx), %ecx
	addl	$1, %ecx
	cmpl	%ecx, %eax
	jne	.LBB60_21
# %bb.19:                               # %if.then87
                                        #   in Loop: Header=BB60_2 Depth=1
	jmp	.LBB60_20
.LBB60_20:                              # %while.body.backedge
                                        #   in Loop: Header=BB60_2 Depth=1
	jmp	.LBB60_2
.LBB60_21:                              # %if.end88
                                        #   in Loop: Header=BB60_2 Depth=1
	movzbl	-9(%rbp), %eax
	movq	-24(%rbp), %rcx
	cmpl	64(%rcx), %eax
	je	.LBB60_23
# %bb.22:                               # %if.then93
                                        #   in Loop: Header=BB60_2 Depth=1
	movzbl	-9(%rbp), %eax
	movq	-24(%rbp), %rcx
	movl	%eax, 64(%rcx)
	jmp	.LBB60_20
.LBB60_23:                              # %if.end96
                                        #   in Loop: Header=BB60_2 Depth=1
	movq	-24(%rbp), %rax
	movl	$2, 16(%rax)
	movq	-24(%rbp), %rax
	movl	60(%rax), %edi
	movq	-24(%rbp), %rsi
	addq	$1096, %rsi             # imm = 0x448
	callq	BZ2_indexIntoF
	movb	%al, -9(%rbp)
	movq	-24(%rbp), %rax
	movq	3160(%rax), %rax
	movq	-24(%rbp), %rcx
	movl	60(%rcx), %ecx
	movzwl	(%rax,%rcx,2), %eax
	movq	-24(%rbp), %rcx
	movq	3168(%rcx), %rcx
	movq	-24(%rbp), %rdx
	movl	60(%rdx), %edx
	shrl	$1, %edx
	movl	%edx, %edx
	movzbl	(%rcx,%rdx), %edx
	movq	-24(%rbp), %rcx
	movl	60(%rcx), %ecx
	shll	$2, %ecx
	andl	$4, %ecx
                                        # kill: def $cl killed $ecx
	shrl	%cl, %edx
	andl	$15, %edx
	shll	$16, %edx
	orl	%edx, %eax
	movq	-24(%rbp), %rcx
	movl	%eax, 60(%rcx)
	movq	-24(%rbp), %rax
	cmpl	$0, 24(%rax)
	jne	.LBB60_27
# %bb.24:                               # %if.then125
                                        #   in Loop: Header=BB60_2 Depth=1
	movq	-24(%rbp), %rax
	movslq	28(%rax), %rax
	movl	BZ2_rNums(,%rax,4), %eax
	movq	-24(%rbp), %rcx
	movl	%eax, 24(%rcx)
	movq	-24(%rbp), %rax
	movl	28(%rax), %ecx
	addl	$1, %ecx
	movl	%ecx, 28(%rax)
	movq	-24(%rbp), %rax
	cmpl	$512, 28(%rax)          # imm = 0x200
	jne	.LBB60_26
# %bb.25:                               # %if.then135
                                        #   in Loop: Header=BB60_2 Depth=1
	movq	-24(%rbp), %rax
	movl	$0, 28(%rax)
.LBB60_26:                              # %if.end137
                                        #   in Loop: Header=BB60_2 Depth=1
	jmp	.LBB60_27
.LBB60_27:                              # %if.end138
                                        #   in Loop: Header=BB60_2 Depth=1
	xorl	%eax, %eax
	movq	-24(%rbp), %rcx
	movl	24(%rcx), %edx
	addl	$-1, %edx
	movl	%edx, 24(%rcx)
	movq	-24(%rbp), %rcx
	movl	24(%rcx), %ecx
	cmpl	$1, %ecx
	movl	$1, %ecx
	cmovel	%ecx, %eax
	movzbl	-9(%rbp), %ecx
	xorl	%eax, %ecx
	movb	%cl, -9(%rbp)
	movq	-24(%rbp), %rax
	movl	1092(%rax), %ecx
	addl	$1, %ecx
	movl	%ecx, 1092(%rax)
	movq	-24(%rbp), %rax
	movl	1092(%rax), %eax
	movq	-24(%rbp), %rcx
	movl	64080(%rcx), %ecx
	addl	$1, %ecx
	cmpl	%ecx, %eax
	jne	.LBB60_29
# %bb.28:                               # %if.then155
                                        #   in Loop: Header=BB60_2 Depth=1
	jmp	.LBB60_20
.LBB60_29:                              # %if.end156
                                        #   in Loop: Header=BB60_2 Depth=1
	movzbl	-9(%rbp), %eax
	movq	-24(%rbp), %rcx
	cmpl	64(%rcx), %eax
	je	.LBB60_31
# %bb.30:                               # %if.then161
                                        #   in Loop: Header=BB60_2 Depth=1
	movzbl	-9(%rbp), %eax
	movq	-24(%rbp), %rcx
	movl	%eax, 64(%rcx)
	jmp	.LBB60_20
.LBB60_31:                              # %if.end164
                                        #   in Loop: Header=BB60_2 Depth=1
	movq	-24(%rbp), %rax
	movl	$3, 16(%rax)
	movq	-24(%rbp), %rax
	movl	60(%rax), %edi
	movq	-24(%rbp), %rsi
	addq	$1096, %rsi             # imm = 0x448
	callq	BZ2_indexIntoF
	movb	%al, -9(%rbp)
	movq	-24(%rbp), %rax
	movq	3160(%rax), %rax
	movq	-24(%rbp), %rcx
	movl	60(%rcx), %ecx
	movzwl	(%rax,%rcx,2), %eax
	movq	-24(%rbp), %rcx
	movq	3168(%rcx), %rcx
	movq	-24(%rbp), %rdx
	movl	60(%rdx), %edx
	shrl	$1, %edx
	movl	%edx, %edx
	movzbl	(%rcx,%rdx), %edx
	movq	-24(%rbp), %rcx
	movl	60(%rcx), %ecx
	shll	$2, %ecx
	andl	$4, %ecx
                                        # kill: def $cl killed $ecx
	shrl	%cl, %edx
	andl	$15, %edx
	shll	$16, %edx
	orl	%edx, %eax
	movq	-24(%rbp), %rcx
	movl	%eax, 60(%rcx)
	movq	-24(%rbp), %rax
	cmpl	$0, 24(%rax)
	jne	.LBB60_35
# %bb.32:                               # %if.then193
                                        #   in Loop: Header=BB60_2 Depth=1
	movq	-24(%rbp), %rax
	movslq	28(%rax), %rax
	movl	BZ2_rNums(,%rax,4), %eax
	movq	-24(%rbp), %rcx
	movl	%eax, 24(%rcx)
	movq	-24(%rbp), %rax
	movl	28(%rax), %ecx
	addl	$1, %ecx
	movl	%ecx, 28(%rax)
	movq	-24(%rbp), %rax
	cmpl	$512, 28(%rax)          # imm = 0x200
	jne	.LBB60_34
# %bb.33:                               # %if.then203
                                        #   in Loop: Header=BB60_2 Depth=1
	movq	-24(%rbp), %rax
	movl	$0, 28(%rax)
.LBB60_34:                              # %if.end205
                                        #   in Loop: Header=BB60_2 Depth=1
	jmp	.LBB60_35
.LBB60_35:                              # %if.end206
                                        #   in Loop: Header=BB60_2 Depth=1
	xorl	%eax, %eax
	movq	-24(%rbp), %rcx
	movl	24(%rcx), %edx
	addl	$-1, %edx
	movl	%edx, 24(%rcx)
	movq	-24(%rbp), %rcx
	movl	24(%rcx), %ecx
	cmpl	$1, %ecx
	movl	$1, %ecx
	cmovel	%ecx, %eax
	movzbl	-9(%rbp), %ecx
	xorl	%eax, %ecx
	movb	%cl, -9(%rbp)
	movq	-24(%rbp), %rax
	movl	1092(%rax), %ecx
	addl	$1, %ecx
	movl	%ecx, 1092(%rax)
	movq	-24(%rbp), %rax
	movl	1092(%rax), %eax
	movq	-24(%rbp), %rcx
	movl	64080(%rcx), %ecx
	addl	$1, %ecx
	cmpl	%ecx, %eax
	jne	.LBB60_37
# %bb.36:                               # %if.then223
                                        #   in Loop: Header=BB60_2 Depth=1
	jmp	.LBB60_20
.LBB60_37:                              # %if.end224
                                        #   in Loop: Header=BB60_2 Depth=1
	movzbl	-9(%rbp), %eax
	movq	-24(%rbp), %rcx
	cmpl	64(%rcx), %eax
	je	.LBB60_39
# %bb.38:                               # %if.then229
                                        #   in Loop: Header=BB60_2 Depth=1
	movzbl	-9(%rbp), %eax
	movq	-24(%rbp), %rcx
	movl	%eax, 64(%rcx)
	jmp	.LBB60_20
.LBB60_39:                              # %if.end232
                                        #   in Loop: Header=BB60_2 Depth=1
	movq	-24(%rbp), %rax
	movl	60(%rax), %edi
	movq	-24(%rbp), %rsi
	addq	$1096, %rsi             # imm = 0x448
	callq	BZ2_indexIntoF
	movb	%al, -9(%rbp)
	movq	-24(%rbp), %rax
	movq	3160(%rax), %rax
	movq	-24(%rbp), %rcx
	movl	60(%rcx), %ecx
	movzwl	(%rax,%rcx,2), %eax
	movq	-24(%rbp), %rcx
	movq	3168(%rcx), %rcx
	movq	-24(%rbp), %rdx
	movl	60(%rdx), %edx
	shrl	$1, %edx
	movl	%edx, %edx
	movzbl	(%rcx,%rdx), %edx
	movq	-24(%rbp), %rcx
	movl	60(%rcx), %ecx
	shll	$2, %ecx
	andl	$4, %ecx
                                        # kill: def $cl killed $ecx
	shrl	%cl, %edx
	andl	$15, %edx
	shll	$16, %edx
	orl	%edx, %eax
	movq	-24(%rbp), %rcx
	movl	%eax, 60(%rcx)
	movq	-24(%rbp), %rax
	cmpl	$0, 24(%rax)
	jne	.LBB60_43
# %bb.40:                               # %if.then260
                                        #   in Loop: Header=BB60_2 Depth=1
	movq	-24(%rbp), %rax
	movslq	28(%rax), %rax
	movl	BZ2_rNums(,%rax,4), %eax
	movq	-24(%rbp), %rcx
	movl	%eax, 24(%rcx)
	movq	-24(%rbp), %rax
	movl	28(%rax), %ecx
	addl	$1, %ecx
	movl	%ecx, 28(%rax)
	movq	-24(%rbp), %rax
	cmpl	$512, 28(%rax)          # imm = 0x200
	jne	.LBB60_42
# %bb.41:                               # %if.then270
                                        #   in Loop: Header=BB60_2 Depth=1
	movq	-24(%rbp), %rax
	movl	$0, 28(%rax)
.LBB60_42:                              # %if.end272
                                        #   in Loop: Header=BB60_2 Depth=1
	jmp	.LBB60_43
.LBB60_43:                              # %if.end273
                                        #   in Loop: Header=BB60_2 Depth=1
	xorl	%eax, %eax
	movq	-24(%rbp), %rcx
	movl	24(%rcx), %edx
	addl	$-1, %edx
	movl	%edx, 24(%rcx)
	movq	-24(%rbp), %rcx
	movl	24(%rcx), %ecx
	cmpl	$1, %ecx
	movl	$1, %ecx
	cmovel	%ecx, %eax
	movzbl	-9(%rbp), %ecx
	xorl	%eax, %ecx
	movb	%cl, -9(%rbp)
	movq	-24(%rbp), %rax
	movl	1092(%rax), %ecx
	addl	$1, %ecx
	movl	%ecx, 1092(%rax)
	movzbl	-9(%rbp), %eax
	addl	$4, %eax
	movq	-24(%rbp), %rcx
	movl	%eax, 16(%rcx)
	movq	-24(%rbp), %rax
	movl	60(%rax), %edi
	movq	-24(%rbp), %rsi
	addq	$1096, %rsi             # imm = 0x448
	callq	BZ2_indexIntoF
	movq	-24(%rbp), %rcx
	movl	%eax, 64(%rcx)
	movq	-24(%rbp), %rax
	movq	3160(%rax), %rax
	movq	-24(%rbp), %rcx
	movl	60(%rcx), %ecx
	movzwl	(%rax,%rcx,2), %eax
	movq	-24(%rbp), %rcx
	movq	3168(%rcx), %rcx
	movq	-24(%rbp), %rdx
	movl	60(%rdx), %edx
	shrl	$1, %edx
	movl	%edx, %edx
	movzbl	(%rcx,%rdx), %edx
	movq	-24(%rbp), %rcx
	movl	60(%rcx), %ecx
	shll	$2, %ecx
	andl	$4, %ecx
                                        # kill: def $cl killed $ecx
	shrl	%cl, %edx
	andl	$15, %edx
	shll	$16, %edx
	orl	%edx, %eax
	movq	-24(%rbp), %rcx
	movl	%eax, 60(%rcx)
	movq	-24(%rbp), %rax
	cmpl	$0, 24(%rax)
	jne	.LBB60_47
# %bb.44:                               # %if.then315
                                        #   in Loop: Header=BB60_2 Depth=1
	movq	-24(%rbp), %rax
	movslq	28(%rax), %rax
	movl	BZ2_rNums(,%rax,4), %eax
	movq	-24(%rbp), %rcx
	movl	%eax, 24(%rcx)
	movq	-24(%rbp), %rax
	movl	28(%rax), %ecx
	addl	$1, %ecx
	movl	%ecx, 28(%rax)
	movq	-24(%rbp), %rax
	cmpl	$512, 28(%rax)          # imm = 0x200
	jne	.LBB60_46
# %bb.45:                               # %if.then325
                                        #   in Loop: Header=BB60_2 Depth=1
	movq	-24(%rbp), %rax
	movl	$0, 28(%rax)
.LBB60_46:                              # %if.end327
                                        #   in Loop: Header=BB60_2 Depth=1
	jmp	.LBB60_47
.LBB60_47:                              # %if.end328
                                        #   in Loop: Header=BB60_2 Depth=1
	xorl	%eax, %eax
	movq	-24(%rbp), %rcx
	movl	24(%rcx), %edx
	addl	$-1, %edx
	movl	%edx, 24(%rcx)
	movq	-24(%rbp), %rcx
	movl	24(%rcx), %ecx
	cmpl	$1, %ecx
	movl	$1, %ecx
	cmovel	%ecx, %eax
	movq	-24(%rbp), %rcx
	xorl	64(%rcx), %eax
	movl	%eax, 64(%rcx)
	movq	-24(%rbp), %rax
	movl	1092(%rax), %ecx
	addl	$1, %ecx
	movl	%ecx, 1092(%rax)
	jmp	.LBB60_20
.LBB60_48:                              # %if.else
	jmp	.LBB60_49
.LBB60_49:                              # %while.body339
                                        # =>This Loop Header: Depth=1
                                        #     Child Loop BB60_50 Depth 2
	jmp	.LBB60_50
.LBB60_50:                              # %while.body341
                                        #   Parent Loop BB60_49 Depth=1
                                        # =>  This Inner Loop Header: Depth=2
	movq	-24(%rbp), %rax
	movq	(%rax), %rax
	cmpl	$0, 32(%rax)
	jne	.LBB60_52
# %bb.51:                               # %if.then346
	movb	$0, -25(%rbp)
	jmp	.LBB60_75
.LBB60_52:                              # %if.end347
                                        #   in Loop: Header=BB60_50 Depth=2
	movq	-24(%rbp), %rax
	cmpl	$0, 16(%rax)
	jne	.LBB60_54
# %bb.53:                               # %if.then351
                                        #   in Loop: Header=BB60_49 Depth=1
	jmp	.LBB60_57
.LBB60_54:                              # %if.end352
                                        #   in Loop: Header=BB60_50 Depth=2
	movq	-24(%rbp), %rax
	movb	12(%rax), %al
	movq	-24(%rbp), %rcx
	movq	(%rcx), %rcx
	movq	24(%rcx), %rcx
	movb	%al, (%rcx)
	movq	-24(%rbp), %rax
	movl	3184(%rax), %eax
	shll	$8, %eax
	movq	-24(%rbp), %rcx
	movl	3184(%rcx), %ecx
	shrl	$24, %ecx
	movq	-24(%rbp), %rdx
	movzbl	12(%rdx), %edx
	xorl	%edx, %ecx
	movl	%ecx, %ecx
	xorl	BZ2_crc32Table(,%rcx,4), %eax
	movq	-24(%rbp), %rcx
	movl	%eax, 3184(%rcx)
	movq	-24(%rbp), %rax
	movl	16(%rax), %ecx
	addl	$-1, %ecx
	movl	%ecx, 16(%rax)
	movq	-24(%rbp), %rax
	movq	(%rax), %rax
	movq	24(%rax), %rcx
	addq	$1, %rcx
	movq	%rcx, 24(%rax)
	movq	-24(%rbp), %rax
	movq	(%rax), %rax
	movl	32(%rax), %ecx
	addl	$-1, %ecx
	movl	%ecx, 32(%rax)
	movq	-24(%rbp), %rax
	movq	(%rax), %rax
	movl	36(%rax), %ecx
	addl	$1, %ecx
	movl	%ecx, 36(%rax)
	movq	-24(%rbp), %rax
	movq	(%rax), %rax
	cmpl	$0, 36(%rax)
	jne	.LBB60_56
# %bb.55:                               # %if.then382
                                        #   in Loop: Header=BB60_50 Depth=2
	movq	-24(%rbp), %rax
	movq	(%rax), %rax
	movl	40(%rax), %ecx
	addl	$1, %ecx
	movl	%ecx, 40(%rax)
.LBB60_56:                              # %if.end386
                                        #   in Loop: Header=BB60_50 Depth=2
	jmp	.LBB60_50
.LBB60_57:                              # %while.end387
                                        #   in Loop: Header=BB60_49 Depth=1
	movq	-24(%rbp), %rax
	movl	1092(%rax), %eax
	movq	-24(%rbp), %rcx
	movl	64080(%rcx), %ecx
	addl	$1, %ecx
	cmpl	%ecx, %eax
	jne	.LBB60_59
# %bb.58:                               # %if.then393
	movb	$0, -25(%rbp)
	jmp	.LBB60_75
.LBB60_59:                              # %if.end394
                                        #   in Loop: Header=BB60_49 Depth=1
	movq	-24(%rbp), %rax
	movl	1092(%rax), %eax
	movq	-24(%rbp), %rcx
	movl	64080(%rcx), %ecx
	addl	$1, %ecx
	cmpl	%ecx, %eax
	jle	.LBB60_61
# %bb.60:                               # %if.then400
	movb	$1, -25(%rbp)
	jmp	.LBB60_75
.LBB60_61:                              # %if.end401
                                        #   in Loop: Header=BB60_49 Depth=1
	movq	-24(%rbp), %rax
	movl	$1, 16(%rax)
	movq	-24(%rbp), %rax
	movl	64(%rax), %eax
	movq	-24(%rbp), %rcx
	movb	%al, 12(%rcx)
	movq	-24(%rbp), %rax
	movl	60(%rax), %edi
	movq	-24(%rbp), %rsi
	addq	$1096, %rsi             # imm = 0x448
	callq	BZ2_indexIntoF
	movb	%al, -9(%rbp)
	movq	-24(%rbp), %rax
	movq	3160(%rax), %rax
	movq	-24(%rbp), %rcx
	movl	60(%rcx), %ecx
	movzwl	(%rax,%rcx,2), %eax
	movq	-24(%rbp), %rcx
	movq	3168(%rcx), %rcx
	movq	-24(%rbp), %rdx
	movl	60(%rdx), %edx
	shrl	$1, %edx
	movl	%edx, %edx
	movzbl	(%rcx,%rdx), %edx
	movq	-24(%rbp), %rcx
	movl	60(%rcx), %ecx
	shll	$2, %ecx
	andl	$4, %ecx
                                        # kill: def $cl killed $ecx
	shrl	%cl, %edx
	andl	$15, %edx
	shll	$16, %edx
	orl	%edx, %eax
	movq	-24(%rbp), %rcx
	movl	%eax, 60(%rcx)
	movq	-24(%rbp), %rax
	movl	1092(%rax), %ecx
	addl	$1, %ecx
	movl	%ecx, 1092(%rax)
	movq	-24(%rbp), %rax
	movl	1092(%rax), %eax
	movq	-24(%rbp), %rcx
	movl	64080(%rcx), %ecx
	addl	$1, %ecx
	cmpl	%ecx, %eax
	jne	.LBB60_64
# %bb.62:                               # %if.then437
                                        #   in Loop: Header=BB60_49 Depth=1
	jmp	.LBB60_63
.LBB60_63:                              # %while.body339.backedge
                                        #   in Loop: Header=BB60_49 Depth=1
	jmp	.LBB60_49
.LBB60_64:                              # %if.end438
                                        #   in Loop: Header=BB60_49 Depth=1
	movzbl	-9(%rbp), %eax
	movq	-24(%rbp), %rcx
	cmpl	64(%rcx), %eax
	je	.LBB60_66
# %bb.65:                               # %if.then443
                                        #   in Loop: Header=BB60_49 Depth=1
	movzbl	-9(%rbp), %eax
	movq	-24(%rbp), %rcx
	movl	%eax, 64(%rcx)
	jmp	.LBB60_63
.LBB60_66:                              # %if.end446
                                        #   in Loop: Header=BB60_49 Depth=1
	movq	-24(%rbp), %rax
	movl	$2, 16(%rax)
	movq	-24(%rbp), %rax
	movl	60(%rax), %edi
	movq	-24(%rbp), %rsi
	addq	$1096, %rsi             # imm = 0x448
	callq	BZ2_indexIntoF
	movb	%al, -9(%rbp)
	movq	-24(%rbp), %rax
	movq	3160(%rax), %rax
	movq	-24(%rbp), %rcx
	movl	60(%rcx), %ecx
	movzwl	(%rax,%rcx,2), %eax
	movq	-24(%rbp), %rcx
	movq	3168(%rcx), %rcx
	movq	-24(%rbp), %rdx
	movl	60(%rdx), %edx
	shrl	$1, %edx
	movl	%edx, %edx
	movzbl	(%rcx,%rdx), %edx
	movq	-24(%rbp), %rcx
	movl	60(%rcx), %ecx
	shll	$2, %ecx
	andl	$4, %ecx
                                        # kill: def $cl killed $ecx
	shrl	%cl, %edx
	andl	$15, %edx
	shll	$16, %edx
	orl	%edx, %eax
	movq	-24(%rbp), %rcx
	movl	%eax, 60(%rcx)
	movq	-24(%rbp), %rax
	movl	1092(%rax), %ecx
	addl	$1, %ecx
	movl	%ecx, 1092(%rax)
	movq	-24(%rbp), %rax
	movl	1092(%rax), %eax
	movq	-24(%rbp), %rcx
	movl	64080(%rcx), %ecx
	addl	$1, %ecx
	cmpl	%ecx, %eax
	jne	.LBB60_68
# %bb.67:                               # %if.then479
                                        #   in Loop: Header=BB60_49 Depth=1
	jmp	.LBB60_63
.LBB60_68:                              # %if.end480
                                        #   in Loop: Header=BB60_49 Depth=1
	movzbl	-9(%rbp), %eax
	movq	-24(%rbp), %rcx
	cmpl	64(%rcx), %eax
	je	.LBB60_70
# %bb.69:                               # %if.then485
                                        #   in Loop: Header=BB60_49 Depth=1
	movzbl	-9(%rbp), %eax
	movq	-24(%rbp), %rcx
	movl	%eax, 64(%rcx)
	jmp	.LBB60_63
.LBB60_70:                              # %if.end488
                                        #   in Loop: Header=BB60_49 Depth=1
	movq	-24(%rbp), %rax
	movl	$3, 16(%rax)
	movq	-24(%rbp), %rax
	movl	60(%rax), %edi
	movq	-24(%rbp), %rsi
	addq	$1096, %rsi             # imm = 0x448
	callq	BZ2_indexIntoF
	movb	%al, -9(%rbp)
	movq	-24(%rbp), %rax
	movq	3160(%rax), %rax
	movq	-24(%rbp), %rcx
	movl	60(%rcx), %ecx
	movzwl	(%rax,%rcx,2), %eax
	movq	-24(%rbp), %rcx
	movq	3168(%rcx), %rcx
	movq	-24(%rbp), %rdx
	movl	60(%rdx), %edx
	shrl	$1, %edx
	movl	%edx, %edx
	movzbl	(%rcx,%rdx), %edx
	movq	-24(%rbp), %rcx
	movl	60(%rcx), %ecx
	shll	$2, %ecx
	andl	$4, %ecx
                                        # kill: def $cl killed $ecx
	shrl	%cl, %edx
	andl	$15, %edx
	shll	$16, %edx
	orl	%edx, %eax
	movq	-24(%rbp), %rcx
	movl	%eax, 60(%rcx)
	movq	-24(%rbp), %rax
	movl	1092(%rax), %ecx
	addl	$1, %ecx
	movl	%ecx, 1092(%rax)
	movq	-24(%rbp), %rax
	movl	1092(%rax), %eax
	movq	-24(%rbp), %rcx
	movl	64080(%rcx), %ecx
	addl	$1, %ecx
	cmpl	%ecx, %eax
	jne	.LBB60_72
# %bb.71:                               # %if.then521
                                        #   in Loop: Header=BB60_49 Depth=1
	jmp	.LBB60_63
.LBB60_72:                              # %if.end522
                                        #   in Loop: Header=BB60_49 Depth=1
	movzbl	-9(%rbp), %eax
	movq	-24(%rbp), %rcx
	cmpl	64(%rcx), %eax
	je	.LBB60_74
# %bb.73:                               # %if.then527
                                        #   in Loop: Header=BB60_49 Depth=1
	movzbl	-9(%rbp), %eax
	movq	-24(%rbp), %rcx
	movl	%eax, 64(%rcx)
	jmp	.LBB60_63
.LBB60_74:                              # %if.end530
                                        #   in Loop: Header=BB60_49 Depth=1
	movq	-24(%rbp), %rax
	movl	60(%rax), %edi
	movq	-24(%rbp), %rsi
	addq	$1096, %rsi             # imm = 0x448
	callq	BZ2_indexIntoF
	movb	%al, -9(%rbp)
	movq	-24(%rbp), %rax
	movq	3160(%rax), %rax
	movq	-24(%rbp), %rcx
	movl	60(%rcx), %ecx
	movzwl	(%rax,%rcx,2), %eax
	movq	-24(%rbp), %rcx
	movq	3168(%rcx), %rcx
	movq	-24(%rbp), %rdx
	movl	60(%rdx), %edx
	shrl	$1, %edx
	movl	%edx, %edx
	movzbl	(%rcx,%rdx), %edx
	movq	-24(%rbp), %rcx
	movl	60(%rcx), %ecx
	shll	$2, %ecx
	andl	$4, %ecx
                                        # kill: def $cl killed $ecx
	shrl	%cl, %edx
	andl	$15, %edx
	shll	$16, %edx
	orl	%edx, %eax
	movq	-24(%rbp), %rcx
	movl	%eax, 60(%rcx)
	movq	-24(%rbp), %rax
	movl	1092(%rax), %ecx
	addl	$1, %ecx
	movl	%ecx, 1092(%rax)
	movzbl	-9(%rbp), %eax
	addl	$4, %eax
	movq	-24(%rbp), %rcx
	movl	%eax, 16(%rcx)
	movq	-24(%rbp), %rax
	movl	60(%rax), %edi
	movq	-24(%rbp), %rsi
	addq	$1096, %rsi             # imm = 0x448
	callq	BZ2_indexIntoF
	movq	-24(%rbp), %rcx
	movl	%eax, 64(%rcx)
	movq	-24(%rbp), %rax
	movq	3160(%rax), %rax
	movq	-24(%rbp), %rcx
	movl	60(%rcx), %ecx
	movzwl	(%rax,%rcx,2), %eax
	movq	-24(%rbp), %rcx
	movq	3168(%rcx), %rcx
	movq	-24(%rbp), %rdx
	movl	60(%rdx), %edx
	shrl	$1, %edx
	movl	%edx, %edx
	movzbl	(%rcx,%rdx), %edx
	movq	-24(%rbp), %rcx
	movl	60(%rcx), %ecx
	shll	$2, %ecx
	andl	$4, %ecx
                                        # kill: def $cl killed $ecx
	shrl	%cl, %edx
	andl	$15, %edx
	shll	$16, %edx
	orl	%edx, %eax
	movq	-24(%rbp), %rcx
	movl	%eax, 60(%rcx)
	movq	-24(%rbp), %rax
	movl	1092(%rax), %ecx
	addl	$1, %ecx
	movl	%ecx, 1092(%rax)
	jmp	.LBB60_63
.LBB60_75:                              # %return
	movb	-25(%rbp), %bl
	cmpl	$805962785, -32(%rbp)   # imm = 0x300A0421
	jne	.LBB60_77
.LBB60_76:
	movzbl	%bl, %eax
	addq	$24, %rsp
	popq	%rbx
	popq	%rbp
	.cfi_def_cfa %rsp, 8
	retq
.LBB60_77:                              # %func_exit
	.cfi_def_cfa %rbp, 16
	callq	detect_breach
	jmp	.LBB60_76
.Lfunc_end60:
	.size	unRLE_obuf_to_output_SMALL.20, .Lfunc_end60-unRLE_obuf_to_output_SMALL.20
	.cfi_endproc
                                        # -- End function
	.p2align	4, 0x90         # -- Begin function handle_compress.21
	.type	handle_compress.21,@function
handle_compress.21:                     # @handle_compress.21
	.cfi_startproc
# %bb.0:                                # %entry
	pushq	%rbp
	.cfi_def_cfa_offset 16
	.cfi_offset %rbp, -16
	movq	%rsp, %rbp
	.cfi_def_cfa_register %rbp
	pushq	%rbx
	subq	$40, %rsp
	.cfi_offset %rbx, -24
	movl	$2036272883, -28(%rbp)  # imm = 0x795F0EF3
	movq	%rdi, -40(%rbp)
	movb	$0, -10(%rbp)
	movb	$0, -9(%rbp)
	movq	-40(%rbp), %rax
	movq	48(%rax), %rax
	movq	%rax, -24(%rbp)
.LBB61_1:                               # %while.body
                                        # =>This Inner Loop Header: Depth=1
	movq	-24(%rbp), %rax
	cmpl	$1, 12(%rax)
	jne	.LBB61_13
# %bb.2:                                # %if.then
                                        #   in Loop: Header=BB61_1 Depth=1
	movq	-24(%rbp), %rdi
	callq	copy_output_until_stop
	movzbl	%al, %eax
	movzbl	-9(%rbp), %ecx
	orl	%eax, %ecx
	movb	%cl, -9(%rbp)
	movq	-24(%rbp), %rax
	movl	120(%rax), %eax
	movq	-24(%rbp), %rcx
	cmpl	116(%rcx), %eax
	jge	.LBB61_4
# %bb.3:                                # %if.then6
	jmp	.LBB61_25
.LBB61_4:                               # %if.end
                                        #   in Loop: Header=BB61_1 Depth=1
	movq	-24(%rbp), %rax
	cmpl	$4, 8(%rax)
	jne	.LBB61_8
# %bb.5:                                # %land.lhs.true
                                        #   in Loop: Header=BB61_1 Depth=1
	movq	-24(%rbp), %rax
	cmpl	$0, 16(%rax)
	jne	.LBB61_8
# %bb.6:                                # %land.lhs.true11
                                        #   in Loop: Header=BB61_1 Depth=1
	movq	-24(%rbp), %rdi
	callq	isempty_RL
	movzbl	%al, %eax
	cmpl	$0, %eax
	je	.LBB61_8
# %bb.7:                                # %if.then14
	jmp	.LBB61_25
.LBB61_8:                               # %if.end15
                                        #   in Loop: Header=BB61_1 Depth=1
	movq	-24(%rbp), %rdi
	callq	prepare_new_block
	movq	-24(%rbp), %rax
	movl	$2, 12(%rax)
	movq	-24(%rbp), %rax
	cmpl	$3, 8(%rax)
	jne	.LBB61_12
# %bb.9:                                # %land.lhs.true20
                                        #   in Loop: Header=BB61_1 Depth=1
	movq	-24(%rbp), %rax
	cmpl	$0, 16(%rax)
	jne	.LBB61_12
# %bb.10:                               # %land.lhs.true24
                                        #   in Loop: Header=BB61_1 Depth=1
	movq	-24(%rbp), %rdi
	callq	isempty_RL
	movzbl	%al, %eax
	cmpl	$0, %eax
	je	.LBB61_12
# %bb.11:                               # %if.then28
	jmp	.LBB61_25
.LBB61_12:                              # %if.end29
                                        #   in Loop: Header=BB61_1 Depth=1
	jmp	.LBB61_13
.LBB61_13:                              # %if.end30
                                        #   in Loop: Header=BB61_1 Depth=1
	movq	-24(%rbp), %rax
	cmpl	$2, 12(%rax)
	jne	.LBB61_24
# %bb.14:                               # %if.then34
                                        #   in Loop: Header=BB61_1 Depth=1
	movq	-24(%rbp), %rdi
	callq	copy_input_until_stop
	movzbl	%al, %eax
	movzbl	-10(%rbp), %ecx
	orl	%eax, %ecx
	movb	%cl, -10(%rbp)
	movq	-24(%rbp), %rax
	cmpl	$2, 8(%rax)
	je	.LBB61_17
# %bb.15:                               # %land.lhs.true43
                                        #   in Loop: Header=BB61_1 Depth=1
	movq	-24(%rbp), %rax
	cmpl	$0, 16(%rax)
	jne	.LBB61_17
# %bb.16:                               # %if.then47
                                        #   in Loop: Header=BB61_1 Depth=1
	movq	-24(%rbp), %rdi
	callq	flush_RL
	movq	-24(%rbp), %rdi
	movq	-24(%rbp), %rax
	cmpl	$4, 8(%rax)
	sete	%al
	andb	$1, %al
	movzbl	%al, %eax
	movzbl	%al, %esi
	callq	BZ2_compressBlock
	movq	-24(%rbp), %rax
	movl	$1, 12(%rax)
	jmp	.LBB61_23
.LBB61_17:                              # %if.else
                                        #   in Loop: Header=BB61_1 Depth=1
	movq	-24(%rbp), %rax
	movl	108(%rax), %eax
	movq	-24(%rbp), %rcx
	cmpl	112(%rcx), %eax
	jl	.LBB61_19
# %bb.18:                               # %if.then55
                                        #   in Loop: Header=BB61_1 Depth=1
	movq	-24(%rbp), %rdi
	xorl	%esi, %esi
	callq	BZ2_compressBlock
	movq	-24(%rbp), %rax
	movl	$1, 12(%rax)
	jmp	.LBB61_22
.LBB61_19:                              # %if.else57
                                        #   in Loop: Header=BB61_1 Depth=1
	movq	-24(%rbp), %rax
	movq	(%rax), %rax
	cmpl	$0, 8(%rax)
	jne	.LBB61_21
# %bb.20:                               # %if.then61
	jmp	.LBB61_25
.LBB61_21:                              # %if.end62
                                        #   in Loop: Header=BB61_1 Depth=1
	jmp	.LBB61_22
.LBB61_22:                              # %if.end63
                                        #   in Loop: Header=BB61_1 Depth=1
	jmp	.LBB61_23
.LBB61_23:                              # %if.end64
                                        #   in Loop: Header=BB61_1 Depth=1
	jmp	.LBB61_24
.LBB61_24:                              # %if.end65
                                        #   in Loop: Header=BB61_1 Depth=1
	jmp	.LBB61_1
.LBB61_25:                              # %while.end
	movzbl	-10(%rbp), %eax
	cmpl	$0, %eax
	movb	$1, %al
	jne	.LBB61_27
# %bb.26:                               # %lor.rhs
	movzbl	-9(%rbp), %eax
	cmpl	$0, %eax
	setne	%al
.LBB61_27:                              # %lor.end
	andb	$1, %al
	movzbl	%al, %ebx
	cmpl	$2036272883, -28(%rbp)  # imm = 0x795F0EF3
	jne	.LBB61_29
.LBB61_28:
	movzbl	%bl, %eax
	addq	$40, %rsp
	popq	%rbx
	popq	%rbp
	.cfi_def_cfa %rsp, 8
	retq
.LBB61_29:                              # %func_exit
	.cfi_def_cfa %rbp, 16
	callq	detect_breach
	jmp	.LBB61_28
.Lfunc_end61:
	.size	handle_compress.21, .Lfunc_end61-handle_compress.21
	.cfi_endproc
                                        # -- End function
	.p2align	4, 0x90         # -- Begin function copy_output_until_stop.22
	.type	copy_output_until_stop.22,@function
copy_output_until_stop.22:              # @copy_output_until_stop.22
	.cfi_startproc
# %bb.0:                                # %entry
	pushq	%rbp
	.cfi_def_cfa_offset 16
	.cfi_offset %rbp, -16
	movq	%rsp, %rbp
	.cfi_def_cfa_register %rbp
	pushq	%rbx
	subq	$24, %rsp
	.cfi_offset %rbx, -24
	movl	$1852244903, -28(%rbp)  # imm = 0x6E6703A7
	movq	%rdi, -24(%rbp)
	movb	$0, -9(%rbp)
.LBB62_1:                               # %while.body
                                        # =>This Inner Loop Header: Depth=1
	movq	-24(%rbp), %rax
	movq	(%rax), %rax
	cmpl	$0, 32(%rax)
	jne	.LBB62_3
# %bb.2:                                # %if.then
	jmp	.LBB62_8
.LBB62_3:                               # %if.end
                                        #   in Loop: Header=BB62_1 Depth=1
	movq	-24(%rbp), %rax
	movl	120(%rax), %eax
	movq	-24(%rbp), %rcx
	cmpl	116(%rcx), %eax
	jl	.LBB62_5
# %bb.4:                                # %if.then2
	jmp	.LBB62_8
.LBB62_5:                               # %if.end3
                                        #   in Loop: Header=BB62_1 Depth=1
	movb	$1, -9(%rbp)
	movq	-24(%rbp), %rax
	movq	80(%rax), %rax
	movq	-24(%rbp), %rcx
	movslq	120(%rcx), %rcx
	movb	(%rax,%rcx), %al
	movq	-24(%rbp), %rcx
	movq	(%rcx), %rcx
	movq	24(%rcx), %rcx
	movb	%al, (%rcx)
	movq	-24(%rbp), %rax
	movl	120(%rax), %ecx
	addl	$1, %ecx
	movl	%ecx, 120(%rax)
	movq	-24(%rbp), %rax
	movq	(%rax), %rax
	movl	32(%rax), %ecx
	addl	$-1, %ecx
	movl	%ecx, 32(%rax)
	movq	-24(%rbp), %rax
	movq	(%rax), %rax
	movq	24(%rax), %rcx
	addq	$1, %rcx
	movq	%rcx, 24(%rax)
	movq	-24(%rbp), %rax
	movq	(%rax), %rax
	movl	36(%rax), %ecx
	addl	$1, %ecx
	movl	%ecx, 36(%rax)
	movq	-24(%rbp), %rax
	movq	(%rax), %rax
	cmpl	$0, 36(%rax)
	jne	.LBB62_7
# %bb.6:                                # %if.then16
                                        #   in Loop: Header=BB62_1 Depth=1
	movq	-24(%rbp), %rax
	movq	(%rax), %rax
	movl	40(%rax), %ecx
	addl	$1, %ecx
	movl	%ecx, 40(%rax)
.LBB62_7:                               # %if.end19
                                        #   in Loop: Header=BB62_1 Depth=1
	jmp	.LBB62_1
.LBB62_8:                               # %while.end
	movb	-9(%rbp), %bl
	cmpl	$1852244903, -28(%rbp)  # imm = 0x6E6703A7
	jne	.LBB62_10
.LBB62_9:
	movzbl	%bl, %eax
	addq	$24, %rsp
	popq	%rbx
	popq	%rbp
	.cfi_def_cfa %rsp, 8
	retq
.LBB62_10:                              # %func_exit
	.cfi_def_cfa %rbp, 16
	callq	detect_breach
	jmp	.LBB62_9
.Lfunc_end62:
	.size	copy_output_until_stop.22, .Lfunc_end62-copy_output_until_stop.22
	.cfi_endproc
                                        # -- End function
	.p2align	4, 0x90         # -- Begin function isempty_RL.23
	.type	isempty_RL.23,@function
isempty_RL.23:                          # @isempty_RL.23
	.cfi_startproc
# %bb.0:                                # %entry
	pushq	%rbp
	.cfi_def_cfa_offset 16
	.cfi_offset %rbp, -16
	movq	%rsp, %rbp
	.cfi_def_cfa_register %rbp
	pushq	%rbx
	subq	$24, %rsp
	.cfi_offset %rbx, -24
	movl	$1522796844, -16(%rbp)  # imm = 0x5AC4092C
	movq	%rdi, -24(%rbp)
	movq	-24(%rbp), %rax
	cmpl	$256, 92(%rax)          # imm = 0x100
	jae	.LBB63_3
# %bb.1:                                # %land.lhs.true
	movq	-24(%rbp), %rax
	cmpl	$0, 96(%rax)
	jle	.LBB63_3
# %bb.2:                                # %if.then
	movb	$0, -9(%rbp)
	jmp	.LBB63_4
.LBB63_3:                               # %if.else
	movb	$1, -9(%rbp)
.LBB63_4:                               # %return
	movb	-9(%rbp), %bl
	cmpl	$1522796844, -16(%rbp)  # imm = 0x5AC4092C
	jne	.LBB63_6
.LBB63_5:
	movzbl	%bl, %eax
	addq	$24, %rsp
	popq	%rbx
	popq	%rbp
	.cfi_def_cfa %rsp, 8
	retq
.LBB63_6:                               # %func_exit
	.cfi_def_cfa %rbp, 16
	callq	detect_breach
	jmp	.LBB63_5
.Lfunc_end63:
	.size	isempty_RL.23, .Lfunc_end63-isempty_RL.23
	.cfi_endproc
                                        # -- End function
	.globl	BZ2_bzReadOpen.24       # -- Begin function BZ2_bzReadOpen.24
	.p2align	4, 0x90
	.type	BZ2_bzReadOpen.24,@function
BZ2_bzReadOpen.24:                      # @BZ2_bzReadOpen.24
	.cfi_startproc
# %bb.0:                                # %entry
	pushq	%rbp
	.cfi_def_cfa_offset 16
	.cfi_offset %rbp, -16
	movq	%rsp, %rbp
	.cfi_def_cfa_register %rbp
	pushq	%rbx
	subq	$72, %rsp
	.cfi_offset %rbx, -24
	movl	$1205181213, -76(%rbp)  # imm = 0x47D59B1D
	movq	%rdi, -32(%rbp)
	movq	%rsi, -72(%rbp)
	movl	%edx, -36(%rbp)
	movl	%ecx, -40(%rbp)
	movq	%r8, -56(%rbp)
	movl	%r9d, -20(%rbp)
	movq	$0, -16(%rbp)
	cmpq	$0, -32(%rbp)
	je	.LBB64_2
# %bb.1:                                # %if.then
	movq	-32(%rbp), %rax
	movl	$0, (%rax)
.LBB64_2:                               # %if.end
	cmpq	$0, -16(%rbp)
	je	.LBB64_4
# %bb.3:                                # %if.then2
	movq	-16(%rbp), %rax
	movl	$0, 5096(%rax)
.LBB64_4:                               # %if.end3
	cmpq	$0, -72(%rbp)
	je	.LBB64_14
# %bb.5:                                # %lor.lhs.false
	cmpl	$0, -40(%rbp)
	je	.LBB64_7
# %bb.6:                                # %land.lhs.true
	cmpl	$1, -40(%rbp)
	jne	.LBB64_14
.LBB64_7:                               # %lor.lhs.false7
	cmpl	$0, -36(%rbp)
	jl	.LBB64_14
# %bb.8:                                # %lor.lhs.false9
	cmpl	$4, -36(%rbp)
	jg	.LBB64_14
# %bb.9:                                # %lor.lhs.false11
	cmpq	$0, -56(%rbp)
	jne	.LBB64_11
# %bb.10:                               # %land.lhs.true13
	cmpl	$0, -20(%rbp)
	jne	.LBB64_14
.LBB64_11:                              # %lor.lhs.false15
	cmpq	$0, -56(%rbp)
	je	.LBB64_19
# %bb.12:                               # %land.lhs.true17
	cmpl	$0, -20(%rbp)
	jl	.LBB64_14
# %bb.13:                               # %lor.lhs.false19
	cmpl	$5000, -20(%rbp)        # imm = 0x1388
	jle	.LBB64_19
.LBB64_14:                              # %if.then21
	cmpq	$0, -32(%rbp)
	je	.LBB64_16
# %bb.15:                               # %if.then23
	movq	-32(%rbp), %rax
	movl	$-2, (%rax)
.LBB64_16:                              # %if.end24
	cmpq	$0, -16(%rbp)
	je	.LBB64_18
# %bb.17:                               # %if.then26
	movq	-16(%rbp), %rax
	movl	$-2, 5096(%rax)
.LBB64_18:                              # %if.end28
	movq	$0, -64(%rbp)
	jmp	.LBB64_45
.LBB64_19:                              # %if.end29
	movq	-72(%rbp), %rdi
	callq	ferror
	cmpl	$0, %eax
	je	.LBB64_25
# %bb.20:                               # %if.then30
	cmpq	$0, -32(%rbp)
	je	.LBB64_22
# %bb.21:                               # %if.then32
	movq	-32(%rbp), %rax
	movl	$-6, (%rax)
.LBB64_22:                              # %if.end33
	cmpq	$0, -16(%rbp)
	je	.LBB64_24
# %bb.23:                               # %if.then35
	movq	-16(%rbp), %rax
	movl	$-6, 5096(%rax)
.LBB64_24:                              # %if.end37
	movq	$0, -64(%rbp)
	jmp	.LBB64_45
.LBB64_25:                              # %if.end38
	movl	$5104, %edi             # imm = 0x13F0
	callq	malloc
	movq	%rax, -16(%rbp)
	cmpq	$0, -16(%rbp)
	jne	.LBB64_31
# %bb.26:                               # %if.then41
	cmpq	$0, -32(%rbp)
	je	.LBB64_28
# %bb.27:                               # %if.then43
	movq	-32(%rbp), %rax
	movl	$-3, (%rax)
.LBB64_28:                              # %if.end44
	cmpq	$0, -16(%rbp)
	je	.LBB64_30
# %bb.29:                               # %if.then46
	movq	-16(%rbp), %rax
	movl	$-3, 5096(%rax)
.LBB64_30:                              # %if.end48
	movq	$0, -64(%rbp)
	jmp	.LBB64_45
.LBB64_31:                              # %if.end49
	cmpq	$0, -32(%rbp)
	je	.LBB64_33
# %bb.32:                               # %if.then51
	movq	-32(%rbp), %rax
	movl	$0, (%rax)
.LBB64_33:                              # %if.end52
	cmpq	$0, -16(%rbp)
	je	.LBB64_35
# %bb.34:                               # %if.then54
	movq	-16(%rbp), %rax
	movl	$0, 5096(%rax)
.LBB64_35:                              # %if.end56
	movq	-16(%rbp), %rax
	movb	$0, 5100(%rax)
	movq	-72(%rbp), %rax
	movq	-16(%rbp), %rcx
	movq	%rax, (%rcx)
	movq	-16(%rbp), %rax
	movl	$0, 5008(%rax)
	movq	-16(%rbp), %rax
	movb	$0, 5012(%rax)
	movq	-16(%rbp), %rax
	movq	$0, 5072(%rax)
	movq	-16(%rbp), %rax
	movq	$0, 5080(%rax)
	movq	-16(%rbp), %rax
	movq	$0, 5088(%rax)
.LBB64_36:                              # %while.cond
                                        # =>This Inner Loop Header: Depth=1
	cmpl	$0, -20(%rbp)
	jle	.LBB64_38
# %bb.37:                               # %while.body
                                        #   in Loop: Header=BB64_36 Depth=1
	movq	-56(%rbp), %rax
	movb	(%rax), %al
	movq	-16(%rbp), %rcx
	movq	-16(%rbp), %rdx
	movslq	5008(%rdx), %rdx
	movb	%al, 8(%rcx,%rdx)
	movq	-16(%rbp), %rax
	movl	5008(%rax), %ecx
	addl	$1, %ecx
	movl	%ecx, 5008(%rax)
	movq	-56(%rbp), %rax
	addq	$1, %rax
	movq	%rax, -56(%rbp)
	movl	-20(%rbp), %eax
	addl	$-1, %eax
	movl	%eax, -20(%rbp)
	jmp	.LBB64_36
.LBB64_38:                              # %while.end
	movq	-16(%rbp), %rdi
	addq	$5016, %rdi             # imm = 0x1398
	movl	-36(%rbp), %esi
	movl	-40(%rbp), %edx
	callq	BZ2_bzDecompressInit
	movl	%eax, -44(%rbp)
	cmpl	$0, -44(%rbp)
	je	.LBB64_44
# %bb.39:                               # %if.then65
	cmpq	$0, -32(%rbp)
	je	.LBB64_41
# %bb.40:                               # %if.then67
	movl	-44(%rbp), %eax
	movq	-32(%rbp), %rcx
	movl	%eax, (%rcx)
.LBB64_41:                              # %if.end68
	cmpq	$0, -16(%rbp)
	je	.LBB64_43
# %bb.42:                               # %if.then70
	movl	-44(%rbp), %eax
	movq	-16(%rbp), %rcx
	movl	%eax, 5096(%rcx)
.LBB64_43:                              # %if.end72
	movq	-16(%rbp), %rdi
	callq	free
	movq	$0, -64(%rbp)
	jmp	.LBB64_45
.LBB64_44:                              # %if.end73
	movq	-16(%rbp), %rax
	movl	5008(%rax), %eax
	movq	-16(%rbp), %rcx
	movl	%eax, 5024(%rcx)
	movq	-16(%rbp), %rax
	addq	$8, %rax
	movq	-16(%rbp), %rcx
	movq	%rax, 5016(%rcx)
	movq	-16(%rbp), %rax
	movb	$1, 5100(%rax)
	movq	-16(%rbp), %rax
	movq	%rax, -64(%rbp)
.LBB64_45:                              # %return
	movq	-64(%rbp), %rbx
	cmpl	$1205181213, -76(%rbp)  # imm = 0x47D59B1D
	jne	.LBB64_47
.LBB64_46:
	movq	%rbx, %rax
	addq	$72, %rsp
	popq	%rbx
	popq	%rbp
	.cfi_def_cfa %rsp, 8
	retq
.LBB64_47:                              # %func_exit
	.cfi_def_cfa %rbp, 16
	callq	detect_breach
	jmp	.LBB64_46
.Lfunc_end64:
	.size	BZ2_bzReadOpen.24, .Lfunc_end64-BZ2_bzReadOpen.24
	.cfi_endproc
                                        # -- End function
	.globl	BZ2_indexIntoF.25       # -- Begin function BZ2_indexIntoF.25
	.p2align	4, 0x90
	.type	BZ2_indexIntoF.25,@function
BZ2_indexIntoF.25:                      # @BZ2_indexIntoF.25
	.cfi_startproc
# %bb.0:                                # %entry
	pushq	%rbp
	.cfi_def_cfa_offset 16
	.cfi_offset %rbp, -16
	movq	%rsp, %rbp
	.cfi_def_cfa_register %rbp
	pushq	%rbx
	subq	$40, %rsp
	.cfi_offset %rbx, -24
	movl	$740749822, -28(%rbp)   # imm = 0x2C26F1FE
	movl	%edi, -24(%rbp)
	movq	%rsi, -40(%rbp)
	movl	$0, -12(%rbp)
	movl	$256, -20(%rbp)         # imm = 0x100
.LBB65_1:                               # %do.body
                                        # =>This Inner Loop Header: Depth=1
	movl	-12(%rbp), %eax
	addl	-20(%rbp), %eax
	sarl	$1, %eax
	movl	%eax, -16(%rbp)
	movl	-24(%rbp), %eax
	movq	-40(%rbp), %rcx
	movslq	-16(%rbp), %rdx
	cmpl	(%rcx,%rdx,4), %eax
	jl	.LBB65_3
# %bb.2:                                # %if.then
                                        #   in Loop: Header=BB65_1 Depth=1
	movl	-16(%rbp), %eax
	movl	%eax, -12(%rbp)
	jmp	.LBB65_4
.LBB65_3:                               # %if.else
                                        #   in Loop: Header=BB65_1 Depth=1
	movl	-16(%rbp), %eax
	movl	%eax, -20(%rbp)
.LBB65_4:                               # %if.end
                                        #   in Loop: Header=BB65_1 Depth=1
	jmp	.LBB65_5
.LBB65_5:                               # %do.cond
                                        #   in Loop: Header=BB65_1 Depth=1
	movl	-20(%rbp), %eax
	subl	-12(%rbp), %eax
	cmpl	$1, %eax
	jne	.LBB65_1
# %bb.6:                                # %do.end
	movl	-12(%rbp), %ebx
	cmpl	$740749822, -28(%rbp)   # imm = 0x2C26F1FE
	jne	.LBB65_8
.LBB65_7:
	movl	%ebx, %eax
	addq	$40, %rsp
	popq	%rbx
	popq	%rbp
	.cfi_def_cfa %rsp, 8
	retq
.LBB65_8:                               # %func_exit
	.cfi_def_cfa %rbp, 16
	callq	detect_breach
	jmp	.LBB65_7
.Lfunc_end65:
	.size	BZ2_indexIntoF.25, .Lfunc_end65-BZ2_indexIntoF.25
	.cfi_endproc
                                        # -- End function
	.globl	BZ2_indexIntoF.26       # -- Begin function BZ2_indexIntoF.26
	.p2align	4, 0x90
	.type	BZ2_indexIntoF.26,@function
BZ2_indexIntoF.26:                      # @BZ2_indexIntoF.26
	.cfi_startproc
# %bb.0:                                # %entry
	pushq	%rbp
	.cfi_def_cfa_offset 16
	.cfi_offset %rbp, -16
	movq	%rsp, %rbp
	.cfi_def_cfa_register %rbp
	pushq	%rbx
	subq	$40, %rsp
	.cfi_offset %rbx, -24
	movl	$1329103718, -28(%rbp)  # imm = 0x4F388366
	movl	%edi, -24(%rbp)
	movq	%rsi, -40(%rbp)
	movl	$0, -12(%rbp)
	movl	$256, -16(%rbp)         # imm = 0x100
.LBB66_1:                               # %do.body
                                        # =>This Inner Loop Header: Depth=1
	movl	-12(%rbp), %eax
	addl	-16(%rbp), %eax
	sarl	$1, %eax
	movl	%eax, -20(%rbp)
	movl	-24(%rbp), %eax
	movq	-40(%rbp), %rcx
	movslq	-20(%rbp), %rdx
	cmpl	(%rcx,%rdx,4), %eax
	jl	.LBB66_3
# %bb.2:                                # %if.then
                                        #   in Loop: Header=BB66_1 Depth=1
	movl	-20(%rbp), %eax
	movl	%eax, -12(%rbp)
	jmp	.LBB66_4
.LBB66_3:                               # %if.else
                                        #   in Loop: Header=BB66_1 Depth=1
	movl	-20(%rbp), %eax
	movl	%eax, -16(%rbp)
.LBB66_4:                               # %if.end
                                        #   in Loop: Header=BB66_1 Depth=1
	jmp	.LBB66_5
.LBB66_5:                               # %do.cond
                                        #   in Loop: Header=BB66_1 Depth=1
	movl	-16(%rbp), %eax
	subl	-12(%rbp), %eax
	cmpl	$1, %eax
	jne	.LBB66_1
# %bb.6:                                # %do.end
	movl	-12(%rbp), %ebx
	cmpl	$1329103718, -28(%rbp)  # imm = 0x4F388366
	jne	.LBB66_8
.LBB66_7:
	movl	%ebx, %eax
	addq	$40, %rsp
	popq	%rbx
	popq	%rbp
	.cfi_def_cfa %rsp, 8
	retq
.LBB66_8:                               # %func_exit
	.cfi_def_cfa %rbp, 16
	callq	detect_breach
	jmp	.LBB66_7
.Lfunc_end66:
	.size	BZ2_indexIntoF.26, .Lfunc_end66-BZ2_indexIntoF.26
	.cfi_endproc
                                        # -- End function
	.p2align	4, 0x90         # -- Begin function copy_input_until_stop.27
	.type	copy_input_until_stop.27,@function
copy_input_until_stop.27:               # @copy_input_until_stop.27
	.cfi_startproc
# %bb.0:                                # %entry
	pushq	%rbp
	.cfi_def_cfa_offset 16
	.cfi_offset %rbp, -16
	movq	%rsp, %rbp
	.cfi_def_cfa_register %rbp
	pushq	%rbx
	subq	$24, %rsp
	.cfi_offset %rbx, -24
	movl	$1489484001, -32(%rbp)  # imm = 0x58C7B8E1
	movq	%rdi, -16(%rbp)
	movb	$0, -17(%rbp)
	movq	-16(%rbp), %rax
	cmpl	$2, 8(%rax)
	jne	.LBB67_20
# %bb.1:                                # %if.then
	jmp	.LBB67_2
.LBB67_2:                               # %while.body
                                        # =>This Inner Loop Header: Depth=1
	movq	-16(%rbp), %rax
	movl	108(%rax), %eax
	movq	-16(%rbp), %rcx
	cmpl	112(%rcx), %eax
	jl	.LBB67_4
# %bb.3:                                # %if.then2
	jmp	.LBB67_19
.LBB67_4:                               # %if.end
                                        #   in Loop: Header=BB67_2 Depth=1
	movq	-16(%rbp), %rax
	movq	(%rax), %rax
	cmpl	$0, 8(%rax)
	jne	.LBB67_6
# %bb.5:                                # %if.then4
	jmp	.LBB67_19
.LBB67_6:                               # %if.end5
                                        #   in Loop: Header=BB67_2 Depth=1
	movb	$1, -17(%rbp)
	movq	-16(%rbp), %rax
	movq	(%rax), %rax
	movq	(%rax), %rax
	movzbl	(%rax), %eax
	movl	%eax, -24(%rbp)
	movl	-24(%rbp), %eax
	movq	-16(%rbp), %rcx
	cmpl	92(%rcx), %eax
	je	.LBB67_9
# %bb.7:                                # %land.lhs.true
                                        #   in Loop: Header=BB67_2 Depth=1
	movq	-16(%rbp), %rax
	cmpl	$1, 96(%rax)
	jne	.LBB67_9
# %bb.8:                                # %if.then11
                                        #   in Loop: Header=BB67_2 Depth=1
	movq	-16(%rbp), %rax
	movl	92(%rax), %eax
	movb	%al, -19(%rbp)
	movq	-16(%rbp), %rax
	movl	648(%rax), %eax
	shll	$8, %eax
	movq	-16(%rbp), %rcx
	movl	648(%rcx), %ecx
	shrl	$24, %ecx
	movzbl	-19(%rbp), %edx
	xorl	%edx, %ecx
	movl	%ecx, %ecx
	xorl	BZ2_crc32Table(,%rcx,4), %eax
	movq	-16(%rbp), %rcx
	movl	%eax, 648(%rcx)
	movq	-16(%rbp), %rax
	movq	-16(%rbp), %rcx
	movl	92(%rcx), %ecx
	movb	$1, 128(%rax,%rcx)
	movb	-19(%rbp), %al
	movq	-16(%rbp), %rcx
	movq	64(%rcx), %rcx
	movq	-16(%rbp), %rdx
	movslq	108(%rdx), %rdx
	movb	%al, (%rcx,%rdx)
	movq	-16(%rbp), %rax
	movl	108(%rax), %ecx
	addl	$1, %ecx
	movl	%ecx, 108(%rax)
	movl	-24(%rbp), %eax
	movq	-16(%rbp), %rcx
	movl	%eax, 92(%rcx)
	jmp	.LBB67_16
.LBB67_9:                               # %if.else
                                        #   in Loop: Header=BB67_2 Depth=1
	movl	-24(%rbp), %eax
	movq	-16(%rbp), %rcx
	cmpl	92(%rcx), %eax
	jne	.LBB67_11
# %bb.10:                               # %lor.lhs.false
                                        #   in Loop: Header=BB67_2 Depth=1
	movq	-16(%rbp), %rax
	cmpl	$255, 96(%rax)
	jne	.LBB67_14
.LBB67_11:                              # %if.then32
                                        #   in Loop: Header=BB67_2 Depth=1
	movq	-16(%rbp), %rax
	cmpl	$256, 92(%rax)          # imm = 0x100
	jae	.LBB67_13
# %bb.12:                               # %if.then36
                                        #   in Loop: Header=BB67_2 Depth=1
	movq	-16(%rbp), %rdi
	callq	add_pair_to_block
.LBB67_13:                              # %if.end37
                                        #   in Loop: Header=BB67_2 Depth=1
	movl	-24(%rbp), %eax
	movq	-16(%rbp), %rcx
	movl	%eax, 92(%rcx)
	movq	-16(%rbp), %rax
	movl	$1, 96(%rax)
	jmp	.LBB67_15
.LBB67_14:                              # %if.else40
                                        #   in Loop: Header=BB67_2 Depth=1
	movq	-16(%rbp), %rax
	movl	96(%rax), %ecx
	addl	$1, %ecx
	movl	%ecx, 96(%rax)
.LBB67_15:                              # %if.end43
                                        #   in Loop: Header=BB67_2 Depth=1
	jmp	.LBB67_16
.LBB67_16:                              # %if.end44
                                        #   in Loop: Header=BB67_2 Depth=1
	movq	-16(%rbp), %rax
	movq	(%rax), %rax
	movq	(%rax), %rcx
	addq	$1, %rcx
	movq	%rcx, (%rax)
	movq	-16(%rbp), %rax
	movq	(%rax), %rax
	movl	8(%rax), %ecx
	addl	$-1, %ecx
	movl	%ecx, 8(%rax)
	movq	-16(%rbp), %rax
	movq	(%rax), %rax
	movl	12(%rax), %ecx
	addl	$1, %ecx
	movl	%ecx, 12(%rax)
	movq	-16(%rbp), %rax
	movq	(%rax), %rax
	cmpl	$0, 12(%rax)
	jne	.LBB67_18
# %bb.17:                               # %if.then55
                                        #   in Loop: Header=BB67_2 Depth=1
	movq	-16(%rbp), %rax
	movq	(%rax), %rax
	movl	16(%rax), %ecx
	addl	$1, %ecx
	movl	%ecx, 16(%rax)
.LBB67_18:                              # %if.end58
                                        #   in Loop: Header=BB67_2 Depth=1
	jmp	.LBB67_2
.LBB67_19:                              # %while.end
	jmp	.LBB67_41
.LBB67_20:                              # %if.else59
	jmp	.LBB67_21
.LBB67_21:                              # %while.body60
                                        # =>This Inner Loop Header: Depth=1
	movq	-16(%rbp), %rax
	movl	108(%rax), %eax
	movq	-16(%rbp), %rcx
	cmpl	112(%rcx), %eax
	jl	.LBB67_23
# %bb.22:                               # %if.then65
	jmp	.LBB67_40
.LBB67_23:                              # %if.end66
                                        #   in Loop: Header=BB67_21 Depth=1
	movq	-16(%rbp), %rax
	movq	(%rax), %rax
	cmpl	$0, 8(%rax)
	jne	.LBB67_25
# %bb.24:                               # %if.then71
	jmp	.LBB67_40
.LBB67_25:                              # %if.end72
                                        #   in Loop: Header=BB67_21 Depth=1
	movq	-16(%rbp), %rax
	cmpl	$0, 16(%rax)
	jne	.LBB67_27
# %bb.26:                               # %if.then75
	jmp	.LBB67_40
.LBB67_27:                              # %if.end76
                                        #   in Loop: Header=BB67_21 Depth=1
	movb	$1, -17(%rbp)
	movq	-16(%rbp), %rax
	movq	(%rax), %rax
	movq	(%rax), %rax
	movzbl	(%rax), %eax
	movl	%eax, -28(%rbp)
	movl	-28(%rbp), %eax
	movq	-16(%rbp), %rcx
	cmpl	92(%rcx), %eax
	je	.LBB67_30
# %bb.28:                               # %land.lhs.true84
                                        #   in Loop: Header=BB67_21 Depth=1
	movq	-16(%rbp), %rax
	cmpl	$1, 96(%rax)
	jne	.LBB67_30
# %bb.29:                               # %if.then88
                                        #   in Loop: Header=BB67_21 Depth=1
	movq	-16(%rbp), %rax
	movl	92(%rax), %eax
	movb	%al, -18(%rbp)
	movq	-16(%rbp), %rax
	movl	648(%rax), %eax
	shll	$8, %eax
